ARM GAS  /tmp/cc2WvXK4.s 			page 1


   1              		.cpu cortex-m4
   2              		.eabi_attribute 27, 1
   3              		.eabi_attribute 28, 1
   4              		.eabi_attribute 20, 1
   5              		.eabi_attribute 21, 1
   6              		.eabi_attribute 23, 3
   7              		.eabi_attribute 24, 1
   8              		.eabi_attribute 25, 1
   9              		.eabi_attribute 26, 1
  10              		.eabi_attribute 30, 6
  11              		.eabi_attribute 34, 1
  12              		.eabi_attribute 18, 4
  13              		.file	"stm32f4xx_hal_sai.c"
  14              		.text
  15              	.Ltext0:
  16              		.cfi_sections	.debug_frame
  17              		.section	.text.HAL_SAI_InitProtocol,"ax",%progbits
  18              		.align	1
  19              		.global	HAL_SAI_InitProtocol
  20              		.arch armv7e-m
  21              		.syntax unified
  22              		.thumb
  23              		.thumb_func
  24              		.fpu fpv4-sp-d16
  26              	HAL_SAI_InitProtocol:
  27              	.LFB126:
  28              		.file 1 "./Libraries/STM32F4xx_HAL_Driver/Src/stm32f4xx_hal_sai.c"
   1:./Libraries/STM32F4xx_HAL_Driver/Src/stm32f4xx_hal_sai.c **** /**
   2:./Libraries/STM32F4xx_HAL_Driver/Src/stm32f4xx_hal_sai.c ****   ******************************************************************************
   3:./Libraries/STM32F4xx_HAL_Driver/Src/stm32f4xx_hal_sai.c ****   * @file    stm32f4xx_hal_sai.c
   4:./Libraries/STM32F4xx_HAL_Driver/Src/stm32f4xx_hal_sai.c ****   * @author  MCD Application Team
   5:./Libraries/STM32F4xx_HAL_Driver/Src/stm32f4xx_hal_sai.c ****   * @brief   SAI HAL module driver.
   6:./Libraries/STM32F4xx_HAL_Driver/Src/stm32f4xx_hal_sai.c ****   *          This file provides firmware functions to manage the following
   7:./Libraries/STM32F4xx_HAL_Driver/Src/stm32f4xx_hal_sai.c ****   *          functionalities of the Serial Audio Interface (SAI) peripheral:
   8:./Libraries/STM32F4xx_HAL_Driver/Src/stm32f4xx_hal_sai.c ****   *           + Initialization/de-initialization functions
   9:./Libraries/STM32F4xx_HAL_Driver/Src/stm32f4xx_hal_sai.c ****   *           + I/O operation functions
  10:./Libraries/STM32F4xx_HAL_Driver/Src/stm32f4xx_hal_sai.c ****   *           + Peripheral Control functions
  11:./Libraries/STM32F4xx_HAL_Driver/Src/stm32f4xx_hal_sai.c ****   *           + Peripheral State functions
  12:./Libraries/STM32F4xx_HAL_Driver/Src/stm32f4xx_hal_sai.c ****   *
  13:./Libraries/STM32F4xx_HAL_Driver/Src/stm32f4xx_hal_sai.c ****   @verbatim
  14:./Libraries/STM32F4xx_HAL_Driver/Src/stm32f4xx_hal_sai.c ****   ==============================================================================
  15:./Libraries/STM32F4xx_HAL_Driver/Src/stm32f4xx_hal_sai.c ****                   ##### How to use this driver #####
  16:./Libraries/STM32F4xx_HAL_Driver/Src/stm32f4xx_hal_sai.c ****   ==============================================================================
  17:./Libraries/STM32F4xx_HAL_Driver/Src/stm32f4xx_hal_sai.c **** 
  18:./Libraries/STM32F4xx_HAL_Driver/Src/stm32f4xx_hal_sai.c ****   [..]
  19:./Libraries/STM32F4xx_HAL_Driver/Src/stm32f4xx_hal_sai.c ****     The SAI HAL driver can be used as follows:
  20:./Libraries/STM32F4xx_HAL_Driver/Src/stm32f4xx_hal_sai.c **** 
  21:./Libraries/STM32F4xx_HAL_Driver/Src/stm32f4xx_hal_sai.c ****     (#) Declare a SAI_HandleTypeDef handle structure (eg. SAI_HandleTypeDef hsai).
  22:./Libraries/STM32F4xx_HAL_Driver/Src/stm32f4xx_hal_sai.c ****     (#) Initialize the SAI low level resources by implementing the HAL_SAI_MspInit() API:
  23:./Libraries/STM32F4xx_HAL_Driver/Src/stm32f4xx_hal_sai.c ****         (##) Enable the SAI interface clock.
  24:./Libraries/STM32F4xx_HAL_Driver/Src/stm32f4xx_hal_sai.c ****         (##) SAI pins configuration:
  25:./Libraries/STM32F4xx_HAL_Driver/Src/stm32f4xx_hal_sai.c ****             (+++) Enable the clock for the SAI GPIOs.
  26:./Libraries/STM32F4xx_HAL_Driver/Src/stm32f4xx_hal_sai.c ****             (+++) Configure these SAI pins as alternate function pull-up.
  27:./Libraries/STM32F4xx_HAL_Driver/Src/stm32f4xx_hal_sai.c ****         (##) NVIC configuration if you need to use interrupt process (HAL_SAI_Transmit_IT()
  28:./Libraries/STM32F4xx_HAL_Driver/Src/stm32f4xx_hal_sai.c ****              and HAL_SAI_Receive_IT() APIs):
  29:./Libraries/STM32F4xx_HAL_Driver/Src/stm32f4xx_hal_sai.c ****             (+++) Configure the SAI interrupt priority.
  30:./Libraries/STM32F4xx_HAL_Driver/Src/stm32f4xx_hal_sai.c ****             (+++) Enable the NVIC SAI IRQ handle.
ARM GAS  /tmp/cc2WvXK4.s 			page 2


  31:./Libraries/STM32F4xx_HAL_Driver/Src/stm32f4xx_hal_sai.c **** 
  32:./Libraries/STM32F4xx_HAL_Driver/Src/stm32f4xx_hal_sai.c ****         (##) DMA Configuration if you need to use DMA process (HAL_SAI_Transmit_DMA()
  33:./Libraries/STM32F4xx_HAL_Driver/Src/stm32f4xx_hal_sai.c ****              and HAL_SAI_Receive_DMA() APIs):
  34:./Libraries/STM32F4xx_HAL_Driver/Src/stm32f4xx_hal_sai.c ****             (+++) Declare a DMA handle structure for the Tx/Rx stream.
  35:./Libraries/STM32F4xx_HAL_Driver/Src/stm32f4xx_hal_sai.c ****             (+++) Enable the DMAx interface clock.
  36:./Libraries/STM32F4xx_HAL_Driver/Src/stm32f4xx_hal_sai.c ****             (+++) Configure the declared DMA handle structure with the required Tx/Rx parameters.
  37:./Libraries/STM32F4xx_HAL_Driver/Src/stm32f4xx_hal_sai.c ****             (+++) Configure the DMA Tx/Rx Stream.
  38:./Libraries/STM32F4xx_HAL_Driver/Src/stm32f4xx_hal_sai.c ****             (+++) Associate the initialized DMA handle to the SAI DMA Tx/Rx handle.
  39:./Libraries/STM32F4xx_HAL_Driver/Src/stm32f4xx_hal_sai.c ****             (+++) Configure the priority and enable the NVIC for the transfer complete interrupt on
  40:./Libraries/STM32F4xx_HAL_Driver/Src/stm32f4xx_hal_sai.c ****                 DMA Tx/Rx Stream.
  41:./Libraries/STM32F4xx_HAL_Driver/Src/stm32f4xx_hal_sai.c **** 
  42:./Libraries/STM32F4xx_HAL_Driver/Src/stm32f4xx_hal_sai.c ****     (#) The initialization can be done by two ways
  43:./Libraries/STM32F4xx_HAL_Driver/Src/stm32f4xx_hal_sai.c ****         (##) Expert mode : Initialize the structures Init, FrameInit and SlotInit and call HAL_SAI_
  44:./Libraries/STM32F4xx_HAL_Driver/Src/stm32f4xx_hal_sai.c ****         (##) Simplified mode : Initialize the high part of Init Structure and call HAL_SAI_InitProt
  45:./Libraries/STM32F4xx_HAL_Driver/Src/stm32f4xx_hal_sai.c **** 
  46:./Libraries/STM32F4xx_HAL_Driver/Src/stm32f4xx_hal_sai.c ****   [..]
  47:./Libraries/STM32F4xx_HAL_Driver/Src/stm32f4xx_hal_sai.c ****     (@) The specific SAI interrupts (FIFO request and Overrun underrun interrupt)
  48:./Libraries/STM32F4xx_HAL_Driver/Src/stm32f4xx_hal_sai.c ****         will be managed using the macros __HAL_SAI_ENABLE_IT() and __HAL_SAI_DISABLE_IT()
  49:./Libraries/STM32F4xx_HAL_Driver/Src/stm32f4xx_hal_sai.c ****         inside the transmit and receive process.
  50:./Libraries/STM32F4xx_HAL_Driver/Src/stm32f4xx_hal_sai.c **** 
  51:./Libraries/STM32F4xx_HAL_Driver/Src/stm32f4xx_hal_sai.c ****   [..]
  52:./Libraries/STM32F4xx_HAL_Driver/Src/stm32f4xx_hal_sai.c ****    (@) SAI Clock Source configuration is managed differently depending on the selected
  53:./Libraries/STM32F4xx_HAL_Driver/Src/stm32f4xx_hal_sai.c ****        STM32F4 devices :
  54:./Libraries/STM32F4xx_HAL_Driver/Src/stm32f4xx_hal_sai.c ****        (+@) For STM32F446xx devices, the configuration is managed through RCCEx_PeriphCLKConfig()
  55:./Libraries/STM32F4xx_HAL_Driver/Src/stm32f4xx_hal_sai.c ****             function in the HAL RCC drivers
  56:./Libraries/STM32F4xx_HAL_Driver/Src/stm32f4xx_hal_sai.c ****        (+@) For STM32F439xx/STM32F437xx/STM32F429xx/STM32F427xx devices, the configuration 
  57:./Libraries/STM32F4xx_HAL_Driver/Src/stm32f4xx_hal_sai.c ****             is managed within HAL SAI drivers through HAL_SAI_Init() function using
  58:./Libraries/STM32F4xx_HAL_Driver/Src/stm32f4xx_hal_sai.c ****             ClockSource field of SAI_InitTypeDef structure.
  59:./Libraries/STM32F4xx_HAL_Driver/Src/stm32f4xx_hal_sai.c ****   [..]
  60:./Libraries/STM32F4xx_HAL_Driver/Src/stm32f4xx_hal_sai.c ****    (@) Make sure that either:
  61:./Libraries/STM32F4xx_HAL_Driver/Src/stm32f4xx_hal_sai.c ****        (+@) I2S PLL is configured or
  62:./Libraries/STM32F4xx_HAL_Driver/Src/stm32f4xx_hal_sai.c ****        (+@) SAI PLL is configured or
  63:./Libraries/STM32F4xx_HAL_Driver/Src/stm32f4xx_hal_sai.c ****        (+@) External clock source is configured after setting correctly
  64:./Libraries/STM32F4xx_HAL_Driver/Src/stm32f4xx_hal_sai.c ****             the define constant EXTERNAL_CLOCK_VALUE in the stm32f4xx_hal_conf.h file.
  65:./Libraries/STM32F4xx_HAL_Driver/Src/stm32f4xx_hal_sai.c ****   [..]
  66:./Libraries/STM32F4xx_HAL_Driver/Src/stm32f4xx_hal_sai.c ****     (@) In master Tx mode: enabling the audio block immediately generates the bit clock
  67:./Libraries/STM32F4xx_HAL_Driver/Src/stm32f4xx_hal_sai.c ****         for the external slaves even if there is no data in the FIFO, However FS signal
  68:./Libraries/STM32F4xx_HAL_Driver/Src/stm32f4xx_hal_sai.c ****         generation is conditioned by the presence of data in the FIFO.
  69:./Libraries/STM32F4xx_HAL_Driver/Src/stm32f4xx_hal_sai.c **** 
  70:./Libraries/STM32F4xx_HAL_Driver/Src/stm32f4xx_hal_sai.c ****   [..]
  71:./Libraries/STM32F4xx_HAL_Driver/Src/stm32f4xx_hal_sai.c ****     (@) In master Rx mode: enabling the audio block immediately generates the bit clock
  72:./Libraries/STM32F4xx_HAL_Driver/Src/stm32f4xx_hal_sai.c ****         and FS signal for the external slaves.
  73:./Libraries/STM32F4xx_HAL_Driver/Src/stm32f4xx_hal_sai.c **** 
  74:./Libraries/STM32F4xx_HAL_Driver/Src/stm32f4xx_hal_sai.c ****   [..]
  75:./Libraries/STM32F4xx_HAL_Driver/Src/stm32f4xx_hal_sai.c ****     (@) It is mandatory to respect the following conditions in order to avoid bad SAI behavior:
  76:./Libraries/STM32F4xx_HAL_Driver/Src/stm32f4xx_hal_sai.c ****         (+@) First bit Offset <= (SLOT size - Data size)
  77:./Libraries/STM32F4xx_HAL_Driver/Src/stm32f4xx_hal_sai.c ****         (+@) Data size <= SLOT size
  78:./Libraries/STM32F4xx_HAL_Driver/Src/stm32f4xx_hal_sai.c ****         (+@) Number of SLOT x SLOT size = Frame length
  79:./Libraries/STM32F4xx_HAL_Driver/Src/stm32f4xx_hal_sai.c ****         (+@) The number of slots should be even when SAI_FS_CHANNEL_IDENTIFICATION is selected.
  80:./Libraries/STM32F4xx_HAL_Driver/Src/stm32f4xx_hal_sai.c **** 
  81:./Libraries/STM32F4xx_HAL_Driver/Src/stm32f4xx_hal_sai.c ****   [..]
  82:./Libraries/STM32F4xx_HAL_Driver/Src/stm32f4xx_hal_sai.c ****     Three operation modes are available within this driver :
  83:./Libraries/STM32F4xx_HAL_Driver/Src/stm32f4xx_hal_sai.c **** 
  84:./Libraries/STM32F4xx_HAL_Driver/Src/stm32f4xx_hal_sai.c ****     *** Polling mode IO operation ***
  85:./Libraries/STM32F4xx_HAL_Driver/Src/stm32f4xx_hal_sai.c ****     =================================
  86:./Libraries/STM32F4xx_HAL_Driver/Src/stm32f4xx_hal_sai.c ****     [..]
  87:./Libraries/STM32F4xx_HAL_Driver/Src/stm32f4xx_hal_sai.c ****       (+) Send an amount of data in blocking mode using HAL_SAI_Transmit()
ARM GAS  /tmp/cc2WvXK4.s 			page 3


  88:./Libraries/STM32F4xx_HAL_Driver/Src/stm32f4xx_hal_sai.c ****       (+) Receive an amount of data in blocking mode using HAL_SAI_Receive()
  89:./Libraries/STM32F4xx_HAL_Driver/Src/stm32f4xx_hal_sai.c **** 
  90:./Libraries/STM32F4xx_HAL_Driver/Src/stm32f4xx_hal_sai.c ****     *** Interrupt mode IO operation ***
  91:./Libraries/STM32F4xx_HAL_Driver/Src/stm32f4xx_hal_sai.c ****     ===================================
  92:./Libraries/STM32F4xx_HAL_Driver/Src/stm32f4xx_hal_sai.c ****     [..]
  93:./Libraries/STM32F4xx_HAL_Driver/Src/stm32f4xx_hal_sai.c ****       (+) Send an amount of data in non-blocking mode using HAL_SAI_Transmit_IT()
  94:./Libraries/STM32F4xx_HAL_Driver/Src/stm32f4xx_hal_sai.c ****       (+) At transmission end of transfer HAL_SAI_TxCpltCallback() is executed and user can
  95:./Libraries/STM32F4xx_HAL_Driver/Src/stm32f4xx_hal_sai.c ****           add his own code by customization of function pointer HAL_SAI_TxCpltCallback()
  96:./Libraries/STM32F4xx_HAL_Driver/Src/stm32f4xx_hal_sai.c ****       (+) Receive an amount of data in non-blocking mode using HAL_SAI_Receive_IT()
  97:./Libraries/STM32F4xx_HAL_Driver/Src/stm32f4xx_hal_sai.c ****       (+) At reception end of transfer HAL_SAI_RxCpltCallback() is executed and user can
  98:./Libraries/STM32F4xx_HAL_Driver/Src/stm32f4xx_hal_sai.c ****           add his own code by customization of function pointer HAL_SAI_RxCpltCallback()
  99:./Libraries/STM32F4xx_HAL_Driver/Src/stm32f4xx_hal_sai.c ****       (+) In case of flag error, HAL_SAI_ErrorCallback() function is executed and user can 
 100:./Libraries/STM32F4xx_HAL_Driver/Src/stm32f4xx_hal_sai.c ****           add his own code by customization of function pointer HAL_SAI_ErrorCallback()
 101:./Libraries/STM32F4xx_HAL_Driver/Src/stm32f4xx_hal_sai.c **** 
 102:./Libraries/STM32F4xx_HAL_Driver/Src/stm32f4xx_hal_sai.c ****     *** DMA mode IO operation ***
 103:./Libraries/STM32F4xx_HAL_Driver/Src/stm32f4xx_hal_sai.c ****     =============================
 104:./Libraries/STM32F4xx_HAL_Driver/Src/stm32f4xx_hal_sai.c ****     [..]
 105:./Libraries/STM32F4xx_HAL_Driver/Src/stm32f4xx_hal_sai.c ****       (+) Send an amount of data in non-blocking mode (DMA) using HAL_SAI_Transmit_DMA()
 106:./Libraries/STM32F4xx_HAL_Driver/Src/stm32f4xx_hal_sai.c ****       (+) At transmission end of transfer HAL_SAI_TxCpltCallback() is executed and user can
 107:./Libraries/STM32F4xx_HAL_Driver/Src/stm32f4xx_hal_sai.c ****           add his own code by customization of function pointer HAL_SAI_TxCpltCallback()
 108:./Libraries/STM32F4xx_HAL_Driver/Src/stm32f4xx_hal_sai.c ****       (+) Receive an amount of data in non-blocking mode (DMA) using HAL_SAI_Receive_DMA()
 109:./Libraries/STM32F4xx_HAL_Driver/Src/stm32f4xx_hal_sai.c ****       (+) At reception end of transfer HAL_SAI_RxCpltCallback() is executed and user can
 110:./Libraries/STM32F4xx_HAL_Driver/Src/stm32f4xx_hal_sai.c ****           add his own code by customization of function pointer HAL_SAI_RxCpltCallback()
 111:./Libraries/STM32F4xx_HAL_Driver/Src/stm32f4xx_hal_sai.c ****       (+) In case of flag error, HAL_SAI_ErrorCallback() function is executed and user can
 112:./Libraries/STM32F4xx_HAL_Driver/Src/stm32f4xx_hal_sai.c ****           add his own code by customization of function pointer HAL_SAI_ErrorCallback()
 113:./Libraries/STM32F4xx_HAL_Driver/Src/stm32f4xx_hal_sai.c ****       (+) Pause the DMA Transfer using HAL_SAI_DMAPause()
 114:./Libraries/STM32F4xx_HAL_Driver/Src/stm32f4xx_hal_sai.c ****       (+) Resume the DMA Transfer using HAL_SAI_DMAResume()
 115:./Libraries/STM32F4xx_HAL_Driver/Src/stm32f4xx_hal_sai.c ****       (+) Stop the DMA Transfer using HAL_SAI_DMAStop()
 116:./Libraries/STM32F4xx_HAL_Driver/Src/stm32f4xx_hal_sai.c **** 
 117:./Libraries/STM32F4xx_HAL_Driver/Src/stm32f4xx_hal_sai.c ****     *** SAI HAL driver additional function list ***
 118:./Libraries/STM32F4xx_HAL_Driver/Src/stm32f4xx_hal_sai.c ****     ===============================================
 119:./Libraries/STM32F4xx_HAL_Driver/Src/stm32f4xx_hal_sai.c ****     [..]
 120:./Libraries/STM32F4xx_HAL_Driver/Src/stm32f4xx_hal_sai.c ****       Below the list the others API available SAI HAL driver :
 121:./Libraries/STM32F4xx_HAL_Driver/Src/stm32f4xx_hal_sai.c **** 
 122:./Libraries/STM32F4xx_HAL_Driver/Src/stm32f4xx_hal_sai.c ****       (+) HAL_SAI_EnableTxMuteMode(): Enable the mute in tx mode
 123:./Libraries/STM32F4xx_HAL_Driver/Src/stm32f4xx_hal_sai.c ****       (+) HAL_SAI_DisableTxMuteMode(): Disable the mute in tx mode
 124:./Libraries/STM32F4xx_HAL_Driver/Src/stm32f4xx_hal_sai.c ****       (+) HAL_SAI_EnableRxMuteMode(): Enable the mute in Rx mode
 125:./Libraries/STM32F4xx_HAL_Driver/Src/stm32f4xx_hal_sai.c ****       (+) HAL_SAI_DisableRxMuteMode(): Disable the mute in Rx mode
 126:./Libraries/STM32F4xx_HAL_Driver/Src/stm32f4xx_hal_sai.c ****       (+) HAL_SAI_FlushRxFifo(): Flush the rx fifo.
 127:./Libraries/STM32F4xx_HAL_Driver/Src/stm32f4xx_hal_sai.c ****       (+) HAL_SAI_Abort(): Abort the current transfer
 128:./Libraries/STM32F4xx_HAL_Driver/Src/stm32f4xx_hal_sai.c **** 
 129:./Libraries/STM32F4xx_HAL_Driver/Src/stm32f4xx_hal_sai.c ****     *** SAI HAL driver macros list ***
 130:./Libraries/STM32F4xx_HAL_Driver/Src/stm32f4xx_hal_sai.c ****     ==================================
 131:./Libraries/STM32F4xx_HAL_Driver/Src/stm32f4xx_hal_sai.c ****     [..]
 132:./Libraries/STM32F4xx_HAL_Driver/Src/stm32f4xx_hal_sai.c ****       Below the list of most used macros in SAI HAL driver :
 133:./Libraries/STM32F4xx_HAL_Driver/Src/stm32f4xx_hal_sai.c **** 
 134:./Libraries/STM32F4xx_HAL_Driver/Src/stm32f4xx_hal_sai.c ****       (+) __HAL_SAI_ENABLE(): Enable the SAI peripheral
 135:./Libraries/STM32F4xx_HAL_Driver/Src/stm32f4xx_hal_sai.c ****       (+) __HAL_SAI_DISABLE(): Disable the SAI peripheral
 136:./Libraries/STM32F4xx_HAL_Driver/Src/stm32f4xx_hal_sai.c ****       (+) __HAL_SAI_ENABLE_IT(): Enable the specified SAI interrupts
 137:./Libraries/STM32F4xx_HAL_Driver/Src/stm32f4xx_hal_sai.c ****       (+) __HAL_SAI_DISABLE_IT(): Disable the specified SAI interrupts
 138:./Libraries/STM32F4xx_HAL_Driver/Src/stm32f4xx_hal_sai.c ****       (+) __HAL_SAI_GET_IT_SOURCE(): Check if the specified SAI interrupt source is
 139:./Libraries/STM32F4xx_HAL_Driver/Src/stm32f4xx_hal_sai.c ****           enabled or disabled
 140:./Libraries/STM32F4xx_HAL_Driver/Src/stm32f4xx_hal_sai.c ****       (+) __HAL_SAI_GET_FLAG(): Check whether the specified SAI flag is set or not
 141:./Libraries/STM32F4xx_HAL_Driver/Src/stm32f4xx_hal_sai.c **** 
 142:./Libraries/STM32F4xx_HAL_Driver/Src/stm32f4xx_hal_sai.c ****   @endverbatim
 143:./Libraries/STM32F4xx_HAL_Driver/Src/stm32f4xx_hal_sai.c ****   ******************************************************************************
 144:./Libraries/STM32F4xx_HAL_Driver/Src/stm32f4xx_hal_sai.c ****   * @attention
ARM GAS  /tmp/cc2WvXK4.s 			page 4


 145:./Libraries/STM32F4xx_HAL_Driver/Src/stm32f4xx_hal_sai.c ****   *
 146:./Libraries/STM32F4xx_HAL_Driver/Src/stm32f4xx_hal_sai.c ****   * <h2><center>&copy; COPYRIGHT(c) 2017 STMicroelectronics</center></h2>
 147:./Libraries/STM32F4xx_HAL_Driver/Src/stm32f4xx_hal_sai.c ****   *
 148:./Libraries/STM32F4xx_HAL_Driver/Src/stm32f4xx_hal_sai.c ****   * Redistribution and use in source and binary forms, with or without modification,
 149:./Libraries/STM32F4xx_HAL_Driver/Src/stm32f4xx_hal_sai.c ****   * are permitted provided that the following conditions are met:
 150:./Libraries/STM32F4xx_HAL_Driver/Src/stm32f4xx_hal_sai.c ****   *   1. Redistributions of source code must retain the above copyright notice,
 151:./Libraries/STM32F4xx_HAL_Driver/Src/stm32f4xx_hal_sai.c ****   *      this list of conditions and the following disclaimer.
 152:./Libraries/STM32F4xx_HAL_Driver/Src/stm32f4xx_hal_sai.c ****   *   2. Redistributions in binary form must reproduce the above copyright notice,
 153:./Libraries/STM32F4xx_HAL_Driver/Src/stm32f4xx_hal_sai.c ****   *      this list of conditions and the following disclaimer in the documentation
 154:./Libraries/STM32F4xx_HAL_Driver/Src/stm32f4xx_hal_sai.c ****   *      and/or other materials provided with the distribution.
 155:./Libraries/STM32F4xx_HAL_Driver/Src/stm32f4xx_hal_sai.c ****   *   3. Neither the name of STMicroelectronics nor the names of its contributors
 156:./Libraries/STM32F4xx_HAL_Driver/Src/stm32f4xx_hal_sai.c ****   *      may be used to endorse or promote products derived from this software
 157:./Libraries/STM32F4xx_HAL_Driver/Src/stm32f4xx_hal_sai.c ****   *      without specific prior written permission.
 158:./Libraries/STM32F4xx_HAL_Driver/Src/stm32f4xx_hal_sai.c ****   *
 159:./Libraries/STM32F4xx_HAL_Driver/Src/stm32f4xx_hal_sai.c ****   * THIS SOFTWARE IS PROVIDED BY THE COPYRIGHT HOLDERS AND CONTRIBUTORS "AS IS"
 160:./Libraries/STM32F4xx_HAL_Driver/Src/stm32f4xx_hal_sai.c ****   * AND ANY EXPRESS OR IMPLIED WARRANTIES, INCLUDING, BUT NOT LIMITED TO, THE
 161:./Libraries/STM32F4xx_HAL_Driver/Src/stm32f4xx_hal_sai.c ****   * IMPLIED WARRANTIES OF MERCHANTABILITY AND FITNESS FOR A PARTICULAR PURPOSE ARE
 162:./Libraries/STM32F4xx_HAL_Driver/Src/stm32f4xx_hal_sai.c ****   * DISCLAIMED. IN NO EVENT SHALL THE COPYRIGHT HOLDER OR CONTRIBUTORS BE LIABLE
 163:./Libraries/STM32F4xx_HAL_Driver/Src/stm32f4xx_hal_sai.c ****   * FOR ANY DIRECT, INDIRECT, INCIDENTAL, SPECIAL, EXEMPLARY, OR CONSEQUENTIAL
 164:./Libraries/STM32F4xx_HAL_Driver/Src/stm32f4xx_hal_sai.c ****   * DAMAGES (INCLUDING, BUT NOT LIMITED TO, PROCUREMENT OF SUBSTITUTE GOODS OR
 165:./Libraries/STM32F4xx_HAL_Driver/Src/stm32f4xx_hal_sai.c ****   * SERVICES; LOSS OF USE, DATA, OR PROFITS; OR BUSINESS INTERRUPTION) HOWEVER
 166:./Libraries/STM32F4xx_HAL_Driver/Src/stm32f4xx_hal_sai.c ****   * CAUSED AND ON ANY THEORY OF LIABILITY, WHETHER IN CONTRACT, STRICT LIABILITY,
 167:./Libraries/STM32F4xx_HAL_Driver/Src/stm32f4xx_hal_sai.c ****   * OR TORT (INCLUDING NEGLIGENCE OR OTHERWISE) ARISING IN ANY WAY OUT OF THE USE
 168:./Libraries/STM32F4xx_HAL_Driver/Src/stm32f4xx_hal_sai.c ****   * OF THIS SOFTWARE, EVEN IF ADVISED OF THE POSSIBILITY OF SUCH DAMAGE.
 169:./Libraries/STM32F4xx_HAL_Driver/Src/stm32f4xx_hal_sai.c ****   *
 170:./Libraries/STM32F4xx_HAL_Driver/Src/stm32f4xx_hal_sai.c ****   ******************************************************************************
 171:./Libraries/STM32F4xx_HAL_Driver/Src/stm32f4xx_hal_sai.c ****   */
 172:./Libraries/STM32F4xx_HAL_Driver/Src/stm32f4xx_hal_sai.c **** 
 173:./Libraries/STM32F4xx_HAL_Driver/Src/stm32f4xx_hal_sai.c **** /* Includes ------------------------------------------------------------------*/
 174:./Libraries/STM32F4xx_HAL_Driver/Src/stm32f4xx_hal_sai.c **** #include "stm32f4xx_hal.h"
 175:./Libraries/STM32F4xx_HAL_Driver/Src/stm32f4xx_hal_sai.c **** 
 176:./Libraries/STM32F4xx_HAL_Driver/Src/stm32f4xx_hal_sai.c **** /** @addtogroup STM32F4xx_HAL_Driver
 177:./Libraries/STM32F4xx_HAL_Driver/Src/stm32f4xx_hal_sai.c ****   * @{
 178:./Libraries/STM32F4xx_HAL_Driver/Src/stm32f4xx_hal_sai.c ****   */
 179:./Libraries/STM32F4xx_HAL_Driver/Src/stm32f4xx_hal_sai.c **** 
 180:./Libraries/STM32F4xx_HAL_Driver/Src/stm32f4xx_hal_sai.c **** /** @defgroup SAI SAI
 181:./Libraries/STM32F4xx_HAL_Driver/Src/stm32f4xx_hal_sai.c ****   * @brief SAI HAL module driver
 182:./Libraries/STM32F4xx_HAL_Driver/Src/stm32f4xx_hal_sai.c ****   * @{
 183:./Libraries/STM32F4xx_HAL_Driver/Src/stm32f4xx_hal_sai.c ****   */
 184:./Libraries/STM32F4xx_HAL_Driver/Src/stm32f4xx_hal_sai.c **** 
 185:./Libraries/STM32F4xx_HAL_Driver/Src/stm32f4xx_hal_sai.c **** #ifdef HAL_SAI_MODULE_ENABLED
 186:./Libraries/STM32F4xx_HAL_Driver/Src/stm32f4xx_hal_sai.c **** 
 187:./Libraries/STM32F4xx_HAL_Driver/Src/stm32f4xx_hal_sai.c **** #if defined(STM32F427xx) || defined(STM32F437xx) || defined(STM32F429xx) || defined(STM32F439xx) ||
 188:./Libraries/STM32F4xx_HAL_Driver/Src/stm32f4xx_hal_sai.c ****     defined(STM32F446xx) || defined(STM32F469xx) || defined(STM32F479xx) || defined(STM32F413xx) ||
 189:./Libraries/STM32F4xx_HAL_Driver/Src/stm32f4xx_hal_sai.c ****     defined(STM32F423xx)
 190:./Libraries/STM32F4xx_HAL_Driver/Src/stm32f4xx_hal_sai.c **** 
 191:./Libraries/STM32F4xx_HAL_Driver/Src/stm32f4xx_hal_sai.c **** /** @defgroup SAI_Private_Typedefs  SAI Private Typedefs
 192:./Libraries/STM32F4xx_HAL_Driver/Src/stm32f4xx_hal_sai.c ****   * @{
 193:./Libraries/STM32F4xx_HAL_Driver/Src/stm32f4xx_hal_sai.c ****   */
 194:./Libraries/STM32F4xx_HAL_Driver/Src/stm32f4xx_hal_sai.c **** typedef enum {
 195:./Libraries/STM32F4xx_HAL_Driver/Src/stm32f4xx_hal_sai.c ****   SAI_MODE_DMA,
 196:./Libraries/STM32F4xx_HAL_Driver/Src/stm32f4xx_hal_sai.c ****   SAI_MODE_IT
 197:./Libraries/STM32F4xx_HAL_Driver/Src/stm32f4xx_hal_sai.c **** }SAI_ModeTypedef;
 198:./Libraries/STM32F4xx_HAL_Driver/Src/stm32f4xx_hal_sai.c **** /**
 199:./Libraries/STM32F4xx_HAL_Driver/Src/stm32f4xx_hal_sai.c ****   * @}
 200:./Libraries/STM32F4xx_HAL_Driver/Src/stm32f4xx_hal_sai.c ****   */
 201:./Libraries/STM32F4xx_HAL_Driver/Src/stm32f4xx_hal_sai.c **** 
ARM GAS  /tmp/cc2WvXK4.s 			page 5


 202:./Libraries/STM32F4xx_HAL_Driver/Src/stm32f4xx_hal_sai.c **** /* Private define ------------------------------------------------------------*/
 203:./Libraries/STM32F4xx_HAL_Driver/Src/stm32f4xx_hal_sai.c **** 
 204:./Libraries/STM32F4xx_HAL_Driver/Src/stm32f4xx_hal_sai.c **** /** @defgroup SAI_Private_Constants  SAI Private Constants
 205:./Libraries/STM32F4xx_HAL_Driver/Src/stm32f4xx_hal_sai.c ****   * @{
 206:./Libraries/STM32F4xx_HAL_Driver/Src/stm32f4xx_hal_sai.c ****   */
 207:./Libraries/STM32F4xx_HAL_Driver/Src/stm32f4xx_hal_sai.c **** #define SAI_FIFO_SIZE         8U
 208:./Libraries/STM32F4xx_HAL_Driver/Src/stm32f4xx_hal_sai.c **** #define SAI_DEFAULT_TIMEOUT   4U /* 4ms */
 209:./Libraries/STM32F4xx_HAL_Driver/Src/stm32f4xx_hal_sai.c **** /**
 210:./Libraries/STM32F4xx_HAL_Driver/Src/stm32f4xx_hal_sai.c ****   * @}
 211:./Libraries/STM32F4xx_HAL_Driver/Src/stm32f4xx_hal_sai.c ****   */
 212:./Libraries/STM32F4xx_HAL_Driver/Src/stm32f4xx_hal_sai.c **** 
 213:./Libraries/STM32F4xx_HAL_Driver/Src/stm32f4xx_hal_sai.c **** /* Private macro -------------------------------------------------------------*/
 214:./Libraries/STM32F4xx_HAL_Driver/Src/stm32f4xx_hal_sai.c **** /* Private variables ---------------------------------------------------------*/
 215:./Libraries/STM32F4xx_HAL_Driver/Src/stm32f4xx_hal_sai.c **** /* Private function prototypes -----------------------------------------------*/
 216:./Libraries/STM32F4xx_HAL_Driver/Src/stm32f4xx_hal_sai.c **** 
 217:./Libraries/STM32F4xx_HAL_Driver/Src/stm32f4xx_hal_sai.c **** /** @defgroup SAI_Private_Functions  SAI Private Functions
 218:./Libraries/STM32F4xx_HAL_Driver/Src/stm32f4xx_hal_sai.c ****   * @{
 219:./Libraries/STM32F4xx_HAL_Driver/Src/stm32f4xx_hal_sai.c ****   */
 220:./Libraries/STM32F4xx_HAL_Driver/Src/stm32f4xx_hal_sai.c **** static void SAI_FillFifo(SAI_HandleTypeDef *hsai);
 221:./Libraries/STM32F4xx_HAL_Driver/Src/stm32f4xx_hal_sai.c **** static uint32_t SAI_InterruptFlag(SAI_HandleTypeDef *hsai, uint32_t mode);
 222:./Libraries/STM32F4xx_HAL_Driver/Src/stm32f4xx_hal_sai.c **** static HAL_StatusTypeDef SAI_InitI2S(SAI_HandleTypeDef *hsai, uint32_t protocol, uint32_t datasize,
 223:./Libraries/STM32F4xx_HAL_Driver/Src/stm32f4xx_hal_sai.c **** static HAL_StatusTypeDef SAI_InitPCM(SAI_HandleTypeDef *hsai, uint32_t protocol, uint32_t datasize,
 224:./Libraries/STM32F4xx_HAL_Driver/Src/stm32f4xx_hal_sai.c **** 
 225:./Libraries/STM32F4xx_HAL_Driver/Src/stm32f4xx_hal_sai.c **** static HAL_StatusTypeDef SAI_Disable(SAI_HandleTypeDef *hsai);
 226:./Libraries/STM32F4xx_HAL_Driver/Src/stm32f4xx_hal_sai.c **** static void SAI_Transmit_IT8Bit(SAI_HandleTypeDef *hsai);
 227:./Libraries/STM32F4xx_HAL_Driver/Src/stm32f4xx_hal_sai.c **** static void SAI_Transmit_IT16Bit(SAI_HandleTypeDef *hsai);
 228:./Libraries/STM32F4xx_HAL_Driver/Src/stm32f4xx_hal_sai.c **** static void SAI_Transmit_IT32Bit(SAI_HandleTypeDef *hsai);
 229:./Libraries/STM32F4xx_HAL_Driver/Src/stm32f4xx_hal_sai.c **** static void SAI_Receive_IT8Bit(SAI_HandleTypeDef *hsai);
 230:./Libraries/STM32F4xx_HAL_Driver/Src/stm32f4xx_hal_sai.c **** static void SAI_Receive_IT16Bit(SAI_HandleTypeDef *hsai);
 231:./Libraries/STM32F4xx_HAL_Driver/Src/stm32f4xx_hal_sai.c **** static void SAI_Receive_IT32Bit(SAI_HandleTypeDef *hsai);
 232:./Libraries/STM32F4xx_HAL_Driver/Src/stm32f4xx_hal_sai.c **** 
 233:./Libraries/STM32F4xx_HAL_Driver/Src/stm32f4xx_hal_sai.c **** static void SAI_DMATxCplt(DMA_HandleTypeDef *hdma);
 234:./Libraries/STM32F4xx_HAL_Driver/Src/stm32f4xx_hal_sai.c **** static void SAI_DMATxHalfCplt(DMA_HandleTypeDef *hdma);
 235:./Libraries/STM32F4xx_HAL_Driver/Src/stm32f4xx_hal_sai.c **** static void SAI_DMARxCplt(DMA_HandleTypeDef *hdma);
 236:./Libraries/STM32F4xx_HAL_Driver/Src/stm32f4xx_hal_sai.c **** static void SAI_DMARxHalfCplt(DMA_HandleTypeDef *hdma);
 237:./Libraries/STM32F4xx_HAL_Driver/Src/stm32f4xx_hal_sai.c **** static void SAI_DMAError(DMA_HandleTypeDef *hdma);
 238:./Libraries/STM32F4xx_HAL_Driver/Src/stm32f4xx_hal_sai.c **** static void SAI_DMAAbort(DMA_HandleTypeDef *hdma);
 239:./Libraries/STM32F4xx_HAL_Driver/Src/stm32f4xx_hal_sai.c **** /**
 240:./Libraries/STM32F4xx_HAL_Driver/Src/stm32f4xx_hal_sai.c ****   * @}
 241:./Libraries/STM32F4xx_HAL_Driver/Src/stm32f4xx_hal_sai.c ****   */
 242:./Libraries/STM32F4xx_HAL_Driver/Src/stm32f4xx_hal_sai.c **** 
 243:./Libraries/STM32F4xx_HAL_Driver/Src/stm32f4xx_hal_sai.c **** /* Exported functions ---------------------------------------------------------*/
 244:./Libraries/STM32F4xx_HAL_Driver/Src/stm32f4xx_hal_sai.c **** 
 245:./Libraries/STM32F4xx_HAL_Driver/Src/stm32f4xx_hal_sai.c **** /** @defgroup SAI_Exported_Functions SAI Exported Functions
 246:./Libraries/STM32F4xx_HAL_Driver/Src/stm32f4xx_hal_sai.c ****   * @{
 247:./Libraries/STM32F4xx_HAL_Driver/Src/stm32f4xx_hal_sai.c ****   */
 248:./Libraries/STM32F4xx_HAL_Driver/Src/stm32f4xx_hal_sai.c **** 
 249:./Libraries/STM32F4xx_HAL_Driver/Src/stm32f4xx_hal_sai.c **** /** @defgroup SAI_Exported_Functions_Group1 Initialization and de-initialization functions
 250:./Libraries/STM32F4xx_HAL_Driver/Src/stm32f4xx_hal_sai.c ****  *  @brief    Initialization and Configuration functions
 251:./Libraries/STM32F4xx_HAL_Driver/Src/stm32f4xx_hal_sai.c ****  *
 252:./Libraries/STM32F4xx_HAL_Driver/Src/stm32f4xx_hal_sai.c **** @verbatim
 253:./Libraries/STM32F4xx_HAL_Driver/Src/stm32f4xx_hal_sai.c ****  ===============================================================================
 254:./Libraries/STM32F4xx_HAL_Driver/Src/stm32f4xx_hal_sai.c ****             ##### Initialization and de-initialization functions #####
 255:./Libraries/STM32F4xx_HAL_Driver/Src/stm32f4xx_hal_sai.c ****  ===============================================================================
 256:./Libraries/STM32F4xx_HAL_Driver/Src/stm32f4xx_hal_sai.c ****   [..]  This subsection provides a set of functions allowing to initialize and
 257:./Libraries/STM32F4xx_HAL_Driver/Src/stm32f4xx_hal_sai.c ****         de-initialize the SAIx peripheral:
 258:./Libraries/STM32F4xx_HAL_Driver/Src/stm32f4xx_hal_sai.c **** 
ARM GAS  /tmp/cc2WvXK4.s 			page 6


 259:./Libraries/STM32F4xx_HAL_Driver/Src/stm32f4xx_hal_sai.c ****       (+) User must implement HAL_SAI_MspInit() function in which he configures
 260:./Libraries/STM32F4xx_HAL_Driver/Src/stm32f4xx_hal_sai.c ****           all related peripherals resources (CLOCK, GPIO, DMA, IT and NVIC ).
 261:./Libraries/STM32F4xx_HAL_Driver/Src/stm32f4xx_hal_sai.c **** 
 262:./Libraries/STM32F4xx_HAL_Driver/Src/stm32f4xx_hal_sai.c ****       (+) Call the function HAL_SAI_Init() to configure the selected device with
 263:./Libraries/STM32F4xx_HAL_Driver/Src/stm32f4xx_hal_sai.c ****           the selected configuration:
 264:./Libraries/STM32F4xx_HAL_Driver/Src/stm32f4xx_hal_sai.c ****         (++) Mode (Master/slave TX/RX)
 265:./Libraries/STM32F4xx_HAL_Driver/Src/stm32f4xx_hal_sai.c ****         (++) Protocol
 266:./Libraries/STM32F4xx_HAL_Driver/Src/stm32f4xx_hal_sai.c ****         (++) Data Size
 267:./Libraries/STM32F4xx_HAL_Driver/Src/stm32f4xx_hal_sai.c ****         (++) MCLK Output
 268:./Libraries/STM32F4xx_HAL_Driver/Src/stm32f4xx_hal_sai.c ****         (++) Audio frequency
 269:./Libraries/STM32F4xx_HAL_Driver/Src/stm32f4xx_hal_sai.c ****         (++) FIFO Threshold
 270:./Libraries/STM32F4xx_HAL_Driver/Src/stm32f4xx_hal_sai.c ****         (++) Frame Config
 271:./Libraries/STM32F4xx_HAL_Driver/Src/stm32f4xx_hal_sai.c ****         (++) Slot Config
 272:./Libraries/STM32F4xx_HAL_Driver/Src/stm32f4xx_hal_sai.c **** 
 273:./Libraries/STM32F4xx_HAL_Driver/Src/stm32f4xx_hal_sai.c ****       (+) Call the function HAL_SAI_DeInit() to restore the default configuration
 274:./Libraries/STM32F4xx_HAL_Driver/Src/stm32f4xx_hal_sai.c ****           of the selected SAI peripheral.
 275:./Libraries/STM32F4xx_HAL_Driver/Src/stm32f4xx_hal_sai.c **** 
 276:./Libraries/STM32F4xx_HAL_Driver/Src/stm32f4xx_hal_sai.c **** @endverbatim
 277:./Libraries/STM32F4xx_HAL_Driver/Src/stm32f4xx_hal_sai.c ****   * @{
 278:./Libraries/STM32F4xx_HAL_Driver/Src/stm32f4xx_hal_sai.c ****   */
 279:./Libraries/STM32F4xx_HAL_Driver/Src/stm32f4xx_hal_sai.c **** 
 280:./Libraries/STM32F4xx_HAL_Driver/Src/stm32f4xx_hal_sai.c **** /**
 281:./Libraries/STM32F4xx_HAL_Driver/Src/stm32f4xx_hal_sai.c ****   * @brief  Initialize the structure FrameInit, SlotInit and the low part of
 282:./Libraries/STM32F4xx_HAL_Driver/Src/stm32f4xx_hal_sai.c ****   *         Init according to the specified parameters and call the function
 283:./Libraries/STM32F4xx_HAL_Driver/Src/stm32f4xx_hal_sai.c ****   *         HAL_SAI_Init to initialize the SAI block.
 284:./Libraries/STM32F4xx_HAL_Driver/Src/stm32f4xx_hal_sai.c ****   * @param  hsai pointer to a SAI_HandleTypeDef structure that contains
 285:./Libraries/STM32F4xx_HAL_Driver/Src/stm32f4xx_hal_sai.c ****   *               the configuration information for SAI module.
 286:./Libraries/STM32F4xx_HAL_Driver/Src/stm32f4xx_hal_sai.c ****   * @param  protocol one of the supported protocol @ref SAI_Protocol
 287:./Libraries/STM32F4xx_HAL_Driver/Src/stm32f4xx_hal_sai.c ****   * @param  datasize one of the supported datasize @ref SAI_Protocol_DataSize
 288:./Libraries/STM32F4xx_HAL_Driver/Src/stm32f4xx_hal_sai.c ****   *                   the configuration information for SAI module.
 289:./Libraries/STM32F4xx_HAL_Driver/Src/stm32f4xx_hal_sai.c ****   * @param  nbslot Number of slot.
 290:./Libraries/STM32F4xx_HAL_Driver/Src/stm32f4xx_hal_sai.c ****   * @retval HAL status
 291:./Libraries/STM32F4xx_HAL_Driver/Src/stm32f4xx_hal_sai.c ****   */
 292:./Libraries/STM32F4xx_HAL_Driver/Src/stm32f4xx_hal_sai.c **** HAL_StatusTypeDef HAL_SAI_InitProtocol(SAI_HandleTypeDef *hsai, uint32_t protocol, uint32_t datasiz
 293:./Libraries/STM32F4xx_HAL_Driver/Src/stm32f4xx_hal_sai.c **** {
  29              		.loc 1 293 1
  30              		.cfi_startproc
  31              		@ args = 0, pretend = 0, frame = 24
  32              		@ frame_needed = 1, uses_anonymous_args = 0
  33 0000 80B5     		push	{r7, lr}
  34              	.LCFI0:
  35              		.cfi_def_cfa_offset 8
  36              		.cfi_offset 7, -8
  37              		.cfi_offset 14, -4
  38 0002 86B0     		sub	sp, sp, #24
  39              	.LCFI1:
  40              		.cfi_def_cfa_offset 32
  41 0004 00AF     		add	r7, sp, #0
  42              	.LCFI2:
  43              		.cfi_def_cfa_register 7
  44 0006 F860     		str	r0, [r7, #12]
  45 0008 B960     		str	r1, [r7, #8]
  46 000a 7A60     		str	r2, [r7, #4]
  47 000c 3B60     		str	r3, [r7]
 294:./Libraries/STM32F4xx_HAL_Driver/Src/stm32f4xx_hal_sai.c ****   HAL_StatusTypeDef status = HAL_OK;
  48              		.loc 1 294 21
  49 000e 0023     		movs	r3, #0
ARM GAS  /tmp/cc2WvXK4.s 			page 7


  50 0010 FB75     		strb	r3, [r7, #23]
 295:./Libraries/STM32F4xx_HAL_Driver/Src/stm32f4xx_hal_sai.c **** 
 296:./Libraries/STM32F4xx_HAL_Driver/Src/stm32f4xx_hal_sai.c ****   /* Check the parameters */
 297:./Libraries/STM32F4xx_HAL_Driver/Src/stm32f4xx_hal_sai.c ****   assert_param(IS_SAI_SUPPORTED_PROTOCOL(protocol));
 298:./Libraries/STM32F4xx_HAL_Driver/Src/stm32f4xx_hal_sai.c ****   assert_param(IS_SAI_PROTOCOL_DATASIZE(datasize));
 299:./Libraries/STM32F4xx_HAL_Driver/Src/stm32f4xx_hal_sai.c **** 
 300:./Libraries/STM32F4xx_HAL_Driver/Src/stm32f4xx_hal_sai.c ****   switch(protocol)
  51              		.loc 1 300 3
  52 0012 BB68     		ldr	r3, [r7, #8]
  53 0014 022B     		cmp	r3, #2
  54 0016 04D9     		bls	.L2
  55 0018 BB68     		ldr	r3, [r7, #8]
  56 001a 033B     		subs	r3, r3, #3
  57 001c 012B     		cmp	r3, #1
  58 001e 12D8     		bhi	.L3
  59 0020 08E0     		b	.L8
  60              	.L2:
 301:./Libraries/STM32F4xx_HAL_Driver/Src/stm32f4xx_hal_sai.c ****   {
 302:./Libraries/STM32F4xx_HAL_Driver/Src/stm32f4xx_hal_sai.c ****   case SAI_I2S_STANDARD :
 303:./Libraries/STM32F4xx_HAL_Driver/Src/stm32f4xx_hal_sai.c ****   case SAI_I2S_MSBJUSTIFIED :
 304:./Libraries/STM32F4xx_HAL_Driver/Src/stm32f4xx_hal_sai.c ****   case SAI_I2S_LSBJUSTIFIED :
 305:./Libraries/STM32F4xx_HAL_Driver/Src/stm32f4xx_hal_sai.c ****     status = SAI_InitI2S(hsai, protocol, datasize, nbslot);
  61              		.loc 1 305 14
  62 0022 3B68     		ldr	r3, [r7]
  63 0024 7A68     		ldr	r2, [r7, #4]
  64 0026 B968     		ldr	r1, [r7, #8]
  65 0028 F868     		ldr	r0, [r7, #12]
  66 002a FFF7FEFF 		bl	SAI_InitI2S
  67 002e 0346     		mov	r3, r0
  68 0030 FB75     		strb	r3, [r7, #23]
 306:./Libraries/STM32F4xx_HAL_Driver/Src/stm32f4xx_hal_sai.c ****     break;
  69              		.loc 1 306 5
  70 0032 0BE0     		b	.L5
  71              	.L8:
 307:./Libraries/STM32F4xx_HAL_Driver/Src/stm32f4xx_hal_sai.c ****   case SAI_PCM_LONG :
 308:./Libraries/STM32F4xx_HAL_Driver/Src/stm32f4xx_hal_sai.c ****   case SAI_PCM_SHORT :
 309:./Libraries/STM32F4xx_HAL_Driver/Src/stm32f4xx_hal_sai.c ****     status = SAI_InitPCM(hsai, protocol, datasize, nbslot);
  72              		.loc 1 309 14
  73 0034 3B68     		ldr	r3, [r7]
  74 0036 7A68     		ldr	r2, [r7, #4]
  75 0038 B968     		ldr	r1, [r7, #8]
  76 003a F868     		ldr	r0, [r7, #12]
  77 003c FFF7FEFF 		bl	SAI_InitPCM
  78 0040 0346     		mov	r3, r0
  79 0042 FB75     		strb	r3, [r7, #23]
 310:./Libraries/STM32F4xx_HAL_Driver/Src/stm32f4xx_hal_sai.c ****     break;
  80              		.loc 1 310 5
  81 0044 02E0     		b	.L5
  82              	.L3:
 311:./Libraries/STM32F4xx_HAL_Driver/Src/stm32f4xx_hal_sai.c ****   default :
 312:./Libraries/STM32F4xx_HAL_Driver/Src/stm32f4xx_hal_sai.c ****     status = HAL_ERROR;
  83              		.loc 1 312 12
  84 0046 0123     		movs	r3, #1
  85 0048 FB75     		strb	r3, [r7, #23]
 313:./Libraries/STM32F4xx_HAL_Driver/Src/stm32f4xx_hal_sai.c ****     break;
  86              		.loc 1 313 5
  87 004a 00BF     		nop
ARM GAS  /tmp/cc2WvXK4.s 			page 8


  88              	.L5:
 314:./Libraries/STM32F4xx_HAL_Driver/Src/stm32f4xx_hal_sai.c ****   }
 315:./Libraries/STM32F4xx_HAL_Driver/Src/stm32f4xx_hal_sai.c ****   
 316:./Libraries/STM32F4xx_HAL_Driver/Src/stm32f4xx_hal_sai.c ****   if(status == HAL_OK)
  89              		.loc 1 316 5
  90 004c FB7D     		ldrb	r3, [r7, #23]	@ zero_extendqisi2
  91 004e 002B     		cmp	r3, #0
  92 0050 04D1     		bne	.L6
 317:./Libraries/STM32F4xx_HAL_Driver/Src/stm32f4xx_hal_sai.c ****   {
 318:./Libraries/STM32F4xx_HAL_Driver/Src/stm32f4xx_hal_sai.c ****     status = HAL_SAI_Init(hsai);
  93              		.loc 1 318 14
  94 0052 F868     		ldr	r0, [r7, #12]
  95 0054 FFF7FEFF 		bl	HAL_SAI_Init
  96 0058 0346     		mov	r3, r0
  97 005a FB75     		strb	r3, [r7, #23]
  98              	.L6:
 319:./Libraries/STM32F4xx_HAL_Driver/Src/stm32f4xx_hal_sai.c ****   }
 320:./Libraries/STM32F4xx_HAL_Driver/Src/stm32f4xx_hal_sai.c **** 
 321:./Libraries/STM32F4xx_HAL_Driver/Src/stm32f4xx_hal_sai.c ****   return status;
  99              		.loc 1 321 10
 100 005c FB7D     		ldrb	r3, [r7, #23]	@ zero_extendqisi2
 322:./Libraries/STM32F4xx_HAL_Driver/Src/stm32f4xx_hal_sai.c **** }
 101              		.loc 1 322 1
 102 005e 1846     		mov	r0, r3
 103 0060 1837     		adds	r7, r7, #24
 104              	.LCFI3:
 105              		.cfi_def_cfa_offset 8
 106 0062 BD46     		mov	sp, r7
 107              	.LCFI4:
 108              		.cfi_def_cfa_register 13
 109              		@ sp needed
 110 0064 80BD     		pop	{r7, pc}
 111              		.cfi_endproc
 112              	.LFE126:
 114              		.section	.text.HAL_SAI_Init,"ax",%progbits
 115              		.align	1
 116              		.global	HAL_SAI_Init
 117              		.syntax unified
 118              		.thumb
 119              		.thumb_func
 120              		.fpu fpv4-sp-d16
 122              	HAL_SAI_Init:
 123              	.LFB127:
 323:./Libraries/STM32F4xx_HAL_Driver/Src/stm32f4xx_hal_sai.c **** 
 324:./Libraries/STM32F4xx_HAL_Driver/Src/stm32f4xx_hal_sai.c **** /**
 325:./Libraries/STM32F4xx_HAL_Driver/Src/stm32f4xx_hal_sai.c ****   * @brief  Initialize the SAI according to the specified parameters.
 326:./Libraries/STM32F4xx_HAL_Driver/Src/stm32f4xx_hal_sai.c ****   *         in the SAI_InitTypeDef structure and initialize the associated handle.
 327:./Libraries/STM32F4xx_HAL_Driver/Src/stm32f4xx_hal_sai.c ****   * @param  hsai pointer to a SAI_HandleTypeDef structure that contains
 328:./Libraries/STM32F4xx_HAL_Driver/Src/stm32f4xx_hal_sai.c ****   *               the configuration information for SAI module.
 329:./Libraries/STM32F4xx_HAL_Driver/Src/stm32f4xx_hal_sai.c ****   * @retval HAL status
 330:./Libraries/STM32F4xx_HAL_Driver/Src/stm32f4xx_hal_sai.c ****   */
 331:./Libraries/STM32F4xx_HAL_Driver/Src/stm32f4xx_hal_sai.c **** HAL_StatusTypeDef HAL_SAI_Init(SAI_HandleTypeDef *hsai)
 332:./Libraries/STM32F4xx_HAL_Driver/Src/stm32f4xx_hal_sai.c **** { 
 124              		.loc 1 332 1
 125              		.cfi_startproc
 126              		@ args = 0, pretend = 0, frame = 24
 127              		@ frame_needed = 1, uses_anonymous_args = 0
ARM GAS  /tmp/cc2WvXK4.s 			page 9


 128 0000 80B5     		push	{r7, lr}
 129              	.LCFI5:
 130              		.cfi_def_cfa_offset 8
 131              		.cfi_offset 7, -8
 132              		.cfi_offset 14, -4
 133 0002 86B0     		sub	sp, sp, #24
 134              	.LCFI6:
 135              		.cfi_def_cfa_offset 32
 136 0004 00AF     		add	r7, sp, #0
 137              	.LCFI7:
 138              		.cfi_def_cfa_register 7
 139 0006 7860     		str	r0, [r7, #4]
 333:./Libraries/STM32F4xx_HAL_Driver/Src/stm32f4xx_hal_sai.c ****   uint32_t tmpregisterGCR = 0U;
 140              		.loc 1 333 12
 141 0008 0023     		movs	r3, #0
 142 000a FB60     		str	r3, [r7, #12]
 334:./Libraries/STM32F4xx_HAL_Driver/Src/stm32f4xx_hal_sai.c **** 
 335:./Libraries/STM32F4xx_HAL_Driver/Src/stm32f4xx_hal_sai.c ****   /* This variable used to store the SAI_CK_x (value in Hz) */
 336:./Libraries/STM32F4xx_HAL_Driver/Src/stm32f4xx_hal_sai.c ****   uint32_t freq = 0U;
 143              		.loc 1 336 12
 144 000c 0023     		movs	r3, #0
 145 000e BB60     		str	r3, [r7, #8]
 337:./Libraries/STM32F4xx_HAL_Driver/Src/stm32f4xx_hal_sai.c **** 
 338:./Libraries/STM32F4xx_HAL_Driver/Src/stm32f4xx_hal_sai.c ****   /* This variable is used to compute CKSTR bits of SAI CR1 according to
 339:./Libraries/STM32F4xx_HAL_Driver/Src/stm32f4xx_hal_sai.c ****      ClockStrobing and AudioMode fields */
 340:./Libraries/STM32F4xx_HAL_Driver/Src/stm32f4xx_hal_sai.c ****   uint32_t ckstr_bits = 0U;
 146              		.loc 1 340 12
 147 0010 0023     		movs	r3, #0
 148 0012 7B61     		str	r3, [r7, #20]
 341:./Libraries/STM32F4xx_HAL_Driver/Src/stm32f4xx_hal_sai.c ****   uint32_t syncen_bits = 0U;
 149              		.loc 1 341 12
 150 0014 0023     		movs	r3, #0
 151 0016 3B61     		str	r3, [r7, #16]
 342:./Libraries/STM32F4xx_HAL_Driver/Src/stm32f4xx_hal_sai.c **** 
 343:./Libraries/STM32F4xx_HAL_Driver/Src/stm32f4xx_hal_sai.c ****   /* Check the SAI handle allocation */
 344:./Libraries/STM32F4xx_HAL_Driver/Src/stm32f4xx_hal_sai.c ****   if(hsai == NULL)
 152              		.loc 1 344 5
 153 0018 7B68     		ldr	r3, [r7, #4]
 154 001a 002B     		cmp	r3, #0
 155 001c 01D1     		bne	.L10
 345:./Libraries/STM32F4xx_HAL_Driver/Src/stm32f4xx_hal_sai.c ****   {
 346:./Libraries/STM32F4xx_HAL_Driver/Src/stm32f4xx_hal_sai.c ****     return HAL_ERROR;
 156              		.loc 1 346 12
 157 001e 0123     		movs	r3, #1
 158 0020 03E1     		b	.L11
 159              	.L10:
 347:./Libraries/STM32F4xx_HAL_Driver/Src/stm32f4xx_hal_sai.c ****   }
 348:./Libraries/STM32F4xx_HAL_Driver/Src/stm32f4xx_hal_sai.c **** 
 349:./Libraries/STM32F4xx_HAL_Driver/Src/stm32f4xx_hal_sai.c ****   /* check the instance */
 350:./Libraries/STM32F4xx_HAL_Driver/Src/stm32f4xx_hal_sai.c ****   assert_param(IS_SAI_ALL_INSTANCE(hsai->Instance));
 351:./Libraries/STM32F4xx_HAL_Driver/Src/stm32f4xx_hal_sai.c **** 
 352:./Libraries/STM32F4xx_HAL_Driver/Src/stm32f4xx_hal_sai.c ****   /* Check the SAI Block parameters */
 353:./Libraries/STM32F4xx_HAL_Driver/Src/stm32f4xx_hal_sai.c ****   assert_param(IS_SAI_AUDIO_FREQUENCY(hsai->Init.AudioFrequency));
 354:./Libraries/STM32F4xx_HAL_Driver/Src/stm32f4xx_hal_sai.c ****   assert_param(IS_SAI_BLOCK_PROTOCOL(hsai->Init.Protocol));
 355:./Libraries/STM32F4xx_HAL_Driver/Src/stm32f4xx_hal_sai.c ****   assert_param(IS_SAI_BLOCK_MODE(hsai->Init.AudioMode));
 356:./Libraries/STM32F4xx_HAL_Driver/Src/stm32f4xx_hal_sai.c ****   assert_param(IS_SAI_BLOCK_SYNCEXT(hsai->Init.SynchroExt));
 357:./Libraries/STM32F4xx_HAL_Driver/Src/stm32f4xx_hal_sai.c ****   assert_param(IS_SAI_BLOCK_DATASIZE(hsai->Init.DataSize));
ARM GAS  /tmp/cc2WvXK4.s 			page 10


 358:./Libraries/STM32F4xx_HAL_Driver/Src/stm32f4xx_hal_sai.c ****   assert_param(IS_SAI_BLOCK_FIRST_BIT(hsai->Init.FirstBit));
 359:./Libraries/STM32F4xx_HAL_Driver/Src/stm32f4xx_hal_sai.c ****   assert_param(IS_SAI_BLOCK_CLOCK_STROBING(hsai->Init.ClockStrobing));
 360:./Libraries/STM32F4xx_HAL_Driver/Src/stm32f4xx_hal_sai.c ****   assert_param(IS_SAI_BLOCK_SYNCHRO(hsai->Init.Synchro));
 361:./Libraries/STM32F4xx_HAL_Driver/Src/stm32f4xx_hal_sai.c ****   assert_param(IS_SAI_BLOCK_OUTPUT_DRIVE(hsai->Init.OutputDrive));
 362:./Libraries/STM32F4xx_HAL_Driver/Src/stm32f4xx_hal_sai.c ****   assert_param(IS_SAI_BLOCK_NODIVIDER(hsai->Init.NoDivider));
 363:./Libraries/STM32F4xx_HAL_Driver/Src/stm32f4xx_hal_sai.c ****   assert_param(IS_SAI_BLOCK_FIFO_THRESHOLD(hsai->Init.FIFOThreshold));
 364:./Libraries/STM32F4xx_HAL_Driver/Src/stm32f4xx_hal_sai.c ****   assert_param(IS_SAI_MONO_STEREO_MODE(hsai->Init.MonoStereoMode));
 365:./Libraries/STM32F4xx_HAL_Driver/Src/stm32f4xx_hal_sai.c ****   assert_param(IS_SAI_BLOCK_COMPANDING_MODE(hsai->Init.CompandingMode));
 366:./Libraries/STM32F4xx_HAL_Driver/Src/stm32f4xx_hal_sai.c ****   assert_param(IS_SAI_BLOCK_TRISTATE_MANAGEMENT(hsai->Init.TriState));
 367:./Libraries/STM32F4xx_HAL_Driver/Src/stm32f4xx_hal_sai.c **** 
 368:./Libraries/STM32F4xx_HAL_Driver/Src/stm32f4xx_hal_sai.c ****   /* Check the SAI Block Frame parameters */
 369:./Libraries/STM32F4xx_HAL_Driver/Src/stm32f4xx_hal_sai.c ****   assert_param(IS_SAI_BLOCK_FRAME_LENGTH(hsai->FrameInit.FrameLength));
 370:./Libraries/STM32F4xx_HAL_Driver/Src/stm32f4xx_hal_sai.c ****   assert_param(IS_SAI_BLOCK_ACTIVE_FRAME(hsai->FrameInit.ActiveFrameLength));
 371:./Libraries/STM32F4xx_HAL_Driver/Src/stm32f4xx_hal_sai.c ****   assert_param(IS_SAI_BLOCK_FS_DEFINITION(hsai->FrameInit.FSDefinition));
 372:./Libraries/STM32F4xx_HAL_Driver/Src/stm32f4xx_hal_sai.c ****   assert_param(IS_SAI_BLOCK_FS_POLARITY(hsai->FrameInit.FSPolarity));
 373:./Libraries/STM32F4xx_HAL_Driver/Src/stm32f4xx_hal_sai.c ****   assert_param(IS_SAI_BLOCK_FS_OFFSET(hsai->FrameInit.FSOffset));
 374:./Libraries/STM32F4xx_HAL_Driver/Src/stm32f4xx_hal_sai.c **** 
 375:./Libraries/STM32F4xx_HAL_Driver/Src/stm32f4xx_hal_sai.c ****   /* Check the SAI Block Slot parameters */
 376:./Libraries/STM32F4xx_HAL_Driver/Src/stm32f4xx_hal_sai.c ****   assert_param(IS_SAI_BLOCK_FIRSTBIT_OFFSET(hsai->SlotInit.FirstBitOffset));
 377:./Libraries/STM32F4xx_HAL_Driver/Src/stm32f4xx_hal_sai.c ****   assert_param(IS_SAI_BLOCK_SLOT_SIZE(hsai->SlotInit.SlotSize));
 378:./Libraries/STM32F4xx_HAL_Driver/Src/stm32f4xx_hal_sai.c ****   assert_param(IS_SAI_BLOCK_SLOT_NUMBER(hsai->SlotInit.SlotNumber));
 379:./Libraries/STM32F4xx_HAL_Driver/Src/stm32f4xx_hal_sai.c ****   assert_param(IS_SAI_SLOT_ACTIVE(hsai->SlotInit.SlotActive));
 380:./Libraries/STM32F4xx_HAL_Driver/Src/stm32f4xx_hal_sai.c **** 
 381:./Libraries/STM32F4xx_HAL_Driver/Src/stm32f4xx_hal_sai.c ****   if(hsai->State == HAL_SAI_STATE_RESET)
 160              		.loc 1 381 10
 161 0022 7B68     		ldr	r3, [r7, #4]
 162 0024 93F88130 		ldrb	r3, [r3, #129]
 163 0028 DBB2     		uxtb	r3, r3
 164              		.loc 1 381 5
 165 002a 002B     		cmp	r3, #0
 166 002c 06D1     		bne	.L12
 382:./Libraries/STM32F4xx_HAL_Driver/Src/stm32f4xx_hal_sai.c ****   {
 383:./Libraries/STM32F4xx_HAL_Driver/Src/stm32f4xx_hal_sai.c ****     /* Allocate lock resource and initialize it */
 384:./Libraries/STM32F4xx_HAL_Driver/Src/stm32f4xx_hal_sai.c ****     hsai->Lock = HAL_UNLOCKED;
 167              		.loc 1 384 16
 168 002e 7B68     		ldr	r3, [r7, #4]
 169 0030 0022     		movs	r2, #0
 170 0032 83F88020 		strb	r2, [r3, #128]
 385:./Libraries/STM32F4xx_HAL_Driver/Src/stm32f4xx_hal_sai.c **** 
 386:./Libraries/STM32F4xx_HAL_Driver/Src/stm32f4xx_hal_sai.c ****     /* Init the low level hardware : GPIO, CLOCK, NVIC and DMA */
 387:./Libraries/STM32F4xx_HAL_Driver/Src/stm32f4xx_hal_sai.c ****     HAL_SAI_MspInit(hsai);
 171              		.loc 1 387 5
 172 0036 7868     		ldr	r0, [r7, #4]
 173 0038 FFF7FEFF 		bl	HAL_SAI_MspInit
 174              	.L12:
 388:./Libraries/STM32F4xx_HAL_Driver/Src/stm32f4xx_hal_sai.c ****   }
 389:./Libraries/STM32F4xx_HAL_Driver/Src/stm32f4xx_hal_sai.c **** 
 390:./Libraries/STM32F4xx_HAL_Driver/Src/stm32f4xx_hal_sai.c ****   hsai->State = HAL_SAI_STATE_BUSY;
 175              		.loc 1 390 15
 176 003c 7B68     		ldr	r3, [r7, #4]
 177 003e 0222     		movs	r2, #2
 178 0040 83F88120 		strb	r2, [r3, #129]
 391:./Libraries/STM32F4xx_HAL_Driver/Src/stm32f4xx_hal_sai.c **** 
 392:./Libraries/STM32F4xx_HAL_Driver/Src/stm32f4xx_hal_sai.c ****   /* Disable the selected SAI peripheral */
 393:./Libraries/STM32F4xx_HAL_Driver/Src/stm32f4xx_hal_sai.c ****   SAI_Disable(hsai);
 179              		.loc 1 393 3
 180 0044 7868     		ldr	r0, [r7, #4]
ARM GAS  /tmp/cc2WvXK4.s 			page 11


 181 0046 FFF7FEFF 		bl	SAI_Disable
 394:./Libraries/STM32F4xx_HAL_Driver/Src/stm32f4xx_hal_sai.c **** 
 395:./Libraries/STM32F4xx_HAL_Driver/Src/stm32f4xx_hal_sai.c ****   /* SAI Block Synchro Configuration -----------------------------------------*/
 396:./Libraries/STM32F4xx_HAL_Driver/Src/stm32f4xx_hal_sai.c ****   SAI_BlockSynchroConfig(hsai);
 182              		.loc 1 396 3
 183 004a 7868     		ldr	r0, [r7, #4]
 184 004c FFF7FEFF 		bl	SAI_BlockSynchroConfig
 397:./Libraries/STM32F4xx_HAL_Driver/Src/stm32f4xx_hal_sai.c **** 
 398:./Libraries/STM32F4xx_HAL_Driver/Src/stm32f4xx_hal_sai.c ****   /* Configure Master Clock using the following formula :
 399:./Libraries/STM32F4xx_HAL_Driver/Src/stm32f4xx_hal_sai.c ****      MCLK_x = SAI_CK_x / (MCKDIV[3:0] * 2) with MCLK_x = 256 * FS
 400:./Libraries/STM32F4xx_HAL_Driver/Src/stm32f4xx_hal_sai.c ****      FS = SAI_CK_x / (MCKDIV[3:0] * 2) * 256
 401:./Libraries/STM32F4xx_HAL_Driver/Src/stm32f4xx_hal_sai.c ****      MCKDIV[3:0] = SAI_CK_x / FS * 512 */
 402:./Libraries/STM32F4xx_HAL_Driver/Src/stm32f4xx_hal_sai.c ****   if(hsai->Init.AudioFrequency != SAI_AUDIO_FREQUENCY_MCKDIV)
 185              		.loc 1 402 16
 186 0050 7B68     		ldr	r3, [r7, #4]
 187 0052 1B6A     		ldr	r3, [r3, #32]
 188              		.loc 1 402 5
 189 0054 002B     		cmp	r3, #0
 190 0056 27D0     		beq	.L13
 403:./Libraries/STM32F4xx_HAL_Driver/Src/stm32f4xx_hal_sai.c ****   { 
 404:./Libraries/STM32F4xx_HAL_Driver/Src/stm32f4xx_hal_sai.c ****     /* Get SAI clock source based on Source clock selection from RCC */
 405:./Libraries/STM32F4xx_HAL_Driver/Src/stm32f4xx_hal_sai.c ****     freq = SAI_GetInputClock(hsai);
 191              		.loc 1 405 12
 192 0058 7868     		ldr	r0, [r7, #4]
 193 005a FFF7FEFF 		bl	SAI_GetInputClock
 194 005e B860     		str	r0, [r7, #8]
 406:./Libraries/STM32F4xx_HAL_Driver/Src/stm32f4xx_hal_sai.c **** 
 407:./Libraries/STM32F4xx_HAL_Driver/Src/stm32f4xx_hal_sai.c ****     /* (saiclocksource x 10) to keep Significant digits */
 408:./Libraries/STM32F4xx_HAL_Driver/Src/stm32f4xx_hal_sai.c ****     tmpregisterGCR = (((freq * 10U) / ((hsai->Init.AudioFrequency) * 512U)));
 195              		.loc 1 408 30
 196 0060 BA68     		ldr	r2, [r7, #8]
 197 0062 1346     		mov	r3, r2
 198 0064 9B00     		lsls	r3, r3, #2
 199 0066 1344     		add	r3, r3, r2
 200 0068 5B00     		lsls	r3, r3, #1
 201 006a 1A46     		mov	r2, r3
 202              		.loc 1 408 51
 203 006c 7B68     		ldr	r3, [r7, #4]
 204 006e 1B6A     		ldr	r3, [r3, #32]
 205              		.loc 1 408 68
 206 0070 5B02     		lsls	r3, r3, #9
 207              		.loc 1 408 20
 208 0072 B2FBF3F3 		udiv	r3, r2, r3
 209 0076 FB60     		str	r3, [r7, #12]
 409:./Libraries/STM32F4xx_HAL_Driver/Src/stm32f4xx_hal_sai.c **** 
 410:./Libraries/STM32F4xx_HAL_Driver/Src/stm32f4xx_hal_sai.c ****     hsai->Init.Mckdiv = tmpregisterGCR / 10U;
 210              		.loc 1 410 40
 211 0078 FB68     		ldr	r3, [r7, #12]
 212 007a 6E4A     		ldr	r2, .L27
 213 007c A2FB0323 		umull	r2, r3, r2, r3
 214 0080 DA08     		lsrs	r2, r3, #3
 215              		.loc 1 410 23
 216 0082 7B68     		ldr	r3, [r7, #4]
 217 0084 5A62     		str	r2, [r3, #36]
 411:./Libraries/STM32F4xx_HAL_Driver/Src/stm32f4xx_hal_sai.c **** 
 412:./Libraries/STM32F4xx_HAL_Driver/Src/stm32f4xx_hal_sai.c ****     /* Round result to the nearest integer */
 413:./Libraries/STM32F4xx_HAL_Driver/Src/stm32f4xx_hal_sai.c ****     if((tmpregisterGCR % 10U) > 8U) 
ARM GAS  /tmp/cc2WvXK4.s 			page 12


 218              		.loc 1 413 24
 219 0086 F968     		ldr	r1, [r7, #12]
 220 0088 6A4B     		ldr	r3, .L27
 221 008a A3FB0123 		umull	r2, r3, r3, r1
 222 008e DA08     		lsrs	r2, r3, #3
 223 0090 1346     		mov	r3, r2
 224 0092 9B00     		lsls	r3, r3, #2
 225 0094 1344     		add	r3, r3, r2
 226 0096 5B00     		lsls	r3, r3, #1
 227 0098 CA1A     		subs	r2, r1, r3
 228              		.loc 1 413 7
 229 009a 082A     		cmp	r2, #8
 230 009c 04D9     		bls	.L13
 414:./Libraries/STM32F4xx_HAL_Driver/Src/stm32f4xx_hal_sai.c ****     {
 415:./Libraries/STM32F4xx_HAL_Driver/Src/stm32f4xx_hal_sai.c ****       hsai->Init.Mckdiv+= 1U;
 231              		.loc 1 415 24
 232 009e 7B68     		ldr	r3, [r7, #4]
 233 00a0 5B6A     		ldr	r3, [r3, #36]
 234 00a2 5A1C     		adds	r2, r3, #1
 235 00a4 7B68     		ldr	r3, [r7, #4]
 236 00a6 5A62     		str	r2, [r3, #36]
 237              	.L13:
 416:./Libraries/STM32F4xx_HAL_Driver/Src/stm32f4xx_hal_sai.c ****     }
 417:./Libraries/STM32F4xx_HAL_Driver/Src/stm32f4xx_hal_sai.c ****   }
 418:./Libraries/STM32F4xx_HAL_Driver/Src/stm32f4xx_hal_sai.c **** 
 419:./Libraries/STM32F4xx_HAL_Driver/Src/stm32f4xx_hal_sai.c ****   /* Compute CKSTR bits of SAI CR1 according to ClockStrobing and AudioMode */
 420:./Libraries/STM32F4xx_HAL_Driver/Src/stm32f4xx_hal_sai.c ****   if((hsai->Init.AudioMode == SAI_MODEMASTER_TX) || (hsai->Init.AudioMode == SAI_MODESLAVE_TX))
 238              		.loc 1 420 17
 239 00a8 7B68     		ldr	r3, [r7, #4]
 240 00aa 5B68     		ldr	r3, [r3, #4]
 241              		.loc 1 420 5
 242 00ac 002B     		cmp	r3, #0
 243 00ae 03D0     		beq	.L14
 244              		.loc 1 420 64 discriminator 1
 245 00b0 7B68     		ldr	r3, [r7, #4]
 246 00b2 5B68     		ldr	r3, [r3, #4]
 247              		.loc 1 420 50 discriminator 1
 248 00b4 022B     		cmp	r3, #2
 249 00b6 09D1     		bne	.L15
 250              	.L14:
 421:./Libraries/STM32F4xx_HAL_Driver/Src/stm32f4xx_hal_sai.c ****   {
 422:./Libraries/STM32F4xx_HAL_Driver/Src/stm32f4xx_hal_sai.c ****     ckstr_bits = (hsai->Init.ClockStrobing == SAI_CLOCKSTROBING_RISINGEDGE) ? 0U: SAI_xCR1_CKSTR;
 251              		.loc 1 422 29
 252 00b8 7B68     		ldr	r3, [r7, #4]
 253 00ba 1B6C     		ldr	r3, [r3, #64]
 254              		.loc 1 422 81
 255 00bc 012B     		cmp	r3, #1
 256 00be 01D1     		bne	.L16
 257              		.loc 1 422 81 is_stmt 0 discriminator 1
 258 00c0 0023     		movs	r3, #0
 259 00c2 01E0     		b	.L17
 260              	.L16:
 261              		.loc 1 422 81 discriminator 2
 262 00c4 4FF40073 		mov	r3, #512
 263              	.L17:
 264              		.loc 1 422 16 is_stmt 1 discriminator 4
 265 00c8 7B61     		str	r3, [r7, #20]
ARM GAS  /tmp/cc2WvXK4.s 			page 13


 266 00ca 08E0     		b	.L18
 267              	.L15:
 423:./Libraries/STM32F4xx_HAL_Driver/Src/stm32f4xx_hal_sai.c ****   }
 424:./Libraries/STM32F4xx_HAL_Driver/Src/stm32f4xx_hal_sai.c ****   else
 425:./Libraries/STM32F4xx_HAL_Driver/Src/stm32f4xx_hal_sai.c ****   {
 426:./Libraries/STM32F4xx_HAL_Driver/Src/stm32f4xx_hal_sai.c ****     ckstr_bits = (hsai->Init.ClockStrobing == SAI_CLOCKSTROBING_RISINGEDGE) ? SAI_xCR1_CKSTR: 0U;
 268              		.loc 1 426 29
 269 00cc 7B68     		ldr	r3, [r7, #4]
 270 00ce 1B6C     		ldr	r3, [r3, #64]
 271              		.loc 1 426 93
 272 00d0 012B     		cmp	r3, #1
 273 00d2 02D1     		bne	.L19
 274              		.loc 1 426 93 is_stmt 0 discriminator 1
 275 00d4 4FF40073 		mov	r3, #512
 276 00d8 00E0     		b	.L20
 277              	.L19:
 278              		.loc 1 426 93 discriminator 2
 279 00da 0023     		movs	r3, #0
 280              	.L20:
 281              		.loc 1 426 16 is_stmt 1 discriminator 4
 282 00dc 7B61     		str	r3, [r7, #20]
 283              	.L18:
 427:./Libraries/STM32F4xx_HAL_Driver/Src/stm32f4xx_hal_sai.c ****   }
 428:./Libraries/STM32F4xx_HAL_Driver/Src/stm32f4xx_hal_sai.c **** 
 429:./Libraries/STM32F4xx_HAL_Driver/Src/stm32f4xx_hal_sai.c ****   /* SAI Block Configuration -------------------------------------------------*/
 430:./Libraries/STM32F4xx_HAL_Driver/Src/stm32f4xx_hal_sai.c ****   switch(hsai->Init.Synchro)
 284              		.loc 1 430 20
 285 00de 7B68     		ldr	r3, [r7, #4]
 286 00e0 9B68     		ldr	r3, [r3, #8]
 287              		.loc 1 430 3
 288 00e2 032B     		cmp	r3, #3
 289 00e4 11D8     		bhi	.L26
 290 00e6 022B     		cmp	r3, #2
 291 00e8 0BD2     		bcs	.L22
 292 00ea 002B     		cmp	r3, #0
 293 00ec 02D0     		beq	.L23
 294 00ee 012B     		cmp	r3, #1
 295 00f0 03D0     		beq	.L24
 431:./Libraries/STM32F4xx_HAL_Driver/Src/stm32f4xx_hal_sai.c ****   {
 432:./Libraries/STM32F4xx_HAL_Driver/Src/stm32f4xx_hal_sai.c ****   case SAI_ASYNCHRONOUS :
 433:./Libraries/STM32F4xx_HAL_Driver/Src/stm32f4xx_hal_sai.c ****     {
 434:./Libraries/STM32F4xx_HAL_Driver/Src/stm32f4xx_hal_sai.c ****       syncen_bits = 0U;
 435:./Libraries/STM32F4xx_HAL_Driver/Src/stm32f4xx_hal_sai.c ****     }
 436:./Libraries/STM32F4xx_HAL_Driver/Src/stm32f4xx_hal_sai.c ****     break;
 437:./Libraries/STM32F4xx_HAL_Driver/Src/stm32f4xx_hal_sai.c ****   case SAI_SYNCHRONOUS :
 438:./Libraries/STM32F4xx_HAL_Driver/Src/stm32f4xx_hal_sai.c ****     {
 439:./Libraries/STM32F4xx_HAL_Driver/Src/stm32f4xx_hal_sai.c ****       syncen_bits = SAI_xCR1_SYNCEN_0;
 440:./Libraries/STM32F4xx_HAL_Driver/Src/stm32f4xx_hal_sai.c ****     }
 441:./Libraries/STM32F4xx_HAL_Driver/Src/stm32f4xx_hal_sai.c ****     break;
 442:./Libraries/STM32F4xx_HAL_Driver/Src/stm32f4xx_hal_sai.c ****   case SAI_SYNCHRONOUS_EXT_SAI1 :
 443:./Libraries/STM32F4xx_HAL_Driver/Src/stm32f4xx_hal_sai.c ****   case SAI_SYNCHRONOUS_EXT_SAI2 :
 444:./Libraries/STM32F4xx_HAL_Driver/Src/stm32f4xx_hal_sai.c ****     {
 445:./Libraries/STM32F4xx_HAL_Driver/Src/stm32f4xx_hal_sai.c ****       syncen_bits = SAI_xCR1_SYNCEN_1;
 446:./Libraries/STM32F4xx_HAL_Driver/Src/stm32f4xx_hal_sai.c ****     }
 447:./Libraries/STM32F4xx_HAL_Driver/Src/stm32f4xx_hal_sai.c ****     break;
 448:./Libraries/STM32F4xx_HAL_Driver/Src/stm32f4xx_hal_sai.c ****   default:
 449:./Libraries/STM32F4xx_HAL_Driver/Src/stm32f4xx_hal_sai.c ****     break;
ARM GAS  /tmp/cc2WvXK4.s 			page 14


 296              		.loc 1 449 5
 297 00f2 0AE0     		b	.L26
 298              	.L23:
 434:./Libraries/STM32F4xx_HAL_Driver/Src/stm32f4xx_hal_sai.c ****     }
 299              		.loc 1 434 19
 300 00f4 0023     		movs	r3, #0
 301 00f6 3B61     		str	r3, [r7, #16]
 436:./Libraries/STM32F4xx_HAL_Driver/Src/stm32f4xx_hal_sai.c ****   case SAI_SYNCHRONOUS :
 302              		.loc 1 436 5
 303 00f8 08E0     		b	.L25
 304              	.L24:
 439:./Libraries/STM32F4xx_HAL_Driver/Src/stm32f4xx_hal_sai.c ****     }
 305              		.loc 1 439 19
 306 00fa 4FF48063 		mov	r3, #1024
 307 00fe 3B61     		str	r3, [r7, #16]
 441:./Libraries/STM32F4xx_HAL_Driver/Src/stm32f4xx_hal_sai.c ****   case SAI_SYNCHRONOUS_EXT_SAI1 :
 308              		.loc 1 441 5
 309 0100 04E0     		b	.L25
 310              	.L22:
 445:./Libraries/STM32F4xx_HAL_Driver/Src/stm32f4xx_hal_sai.c ****     }
 311              		.loc 1 445 19
 312 0102 4FF40063 		mov	r3, #2048
 313 0106 3B61     		str	r3, [r7, #16]
 447:./Libraries/STM32F4xx_HAL_Driver/Src/stm32f4xx_hal_sai.c ****   default:
 314              		.loc 1 447 5
 315 0108 00E0     		b	.L25
 316              	.L26:
 317              		.loc 1 449 5
 318 010a 00BF     		nop
 319              	.L25:
 450:./Libraries/STM32F4xx_HAL_Driver/Src/stm32f4xx_hal_sai.c ****   }
 451:./Libraries/STM32F4xx_HAL_Driver/Src/stm32f4xx_hal_sai.c ****   /* SAI CR1 Configuration */
 452:./Libraries/STM32F4xx_HAL_Driver/Src/stm32f4xx_hal_sai.c ****   hsai->Instance->CR1 &= ~(SAI_xCR1_MODE | SAI_xCR1_PRTCFG |  SAI_xCR1_DS |      \
 320              		.loc 1 452 7
 321 010c 7B68     		ldr	r3, [r7, #4]
 322 010e 1B68     		ldr	r3, [r3]
 323              		.loc 1 452 23
 324 0110 1968     		ldr	r1, [r3]
 325              		.loc 1 452 7
 326 0112 7B68     		ldr	r3, [r7, #4]
 327 0114 1A68     		ldr	r2, [r3]
 328              		.loc 1 452 23
 329 0116 484B     		ldr	r3, .L27+4
 330 0118 0B40     		ands	r3, r3, r1
 331 011a 1360     		str	r3, [r2]
 453:./Libraries/STM32F4xx_HAL_Driver/Src/stm32f4xx_hal_sai.c ****                            SAI_xCR1_LSBFIRST | SAI_xCR1_CKSTR | SAI_xCR1_SYNCEN |\
 454:./Libraries/STM32F4xx_HAL_Driver/Src/stm32f4xx_hal_sai.c ****                            SAI_xCR1_MONO | SAI_xCR1_OUTDRIV  | SAI_xCR1_DMAEN |  \
 455:./Libraries/STM32F4xx_HAL_Driver/Src/stm32f4xx_hal_sai.c ****                            SAI_xCR1_NODIV | SAI_xCR1_MCKDIV);
 456:./Libraries/STM32F4xx_HAL_Driver/Src/stm32f4xx_hal_sai.c **** 
 457:./Libraries/STM32F4xx_HAL_Driver/Src/stm32f4xx_hal_sai.c ****   hsai->Instance->CR1 |= (hsai->Init.AudioMode | hsai->Init.Protocol |           \
 332              		.loc 1 457 7
 333 011c 7B68     		ldr	r3, [r7, #4]
 334 011e 1B68     		ldr	r3, [r3]
 335              		.loc 1 457 23
 336 0120 1968     		ldr	r1, [r3]
 337              		.loc 1 457 37
 338 0122 7B68     		ldr	r3, [r7, #4]
ARM GAS  /tmp/cc2WvXK4.s 			page 15


 339 0124 5A68     		ldr	r2, [r3, #4]
 340              		.loc 1 457 60
 341 0126 7B68     		ldr	r3, [r7, #4]
 342 0128 5B6B     		ldr	r3, [r3, #52]
 343              		.loc 1 457 48
 344 012a 1A43     		orrs	r2, r2, r3
 458:./Libraries/STM32F4xx_HAL_Driver/Src/stm32f4xx_hal_sai.c ****                           hsai->Init.DataSize | hsai->Init.FirstBit  |           \
 345              		.loc 1 458 37
 346 012c 7B68     		ldr	r3, [r7, #4]
 347 012e 9B6B     		ldr	r3, [r3, #56]
 457:./Libraries/STM32F4xx_HAL_Driver/Src/stm32f4xx_hal_sai.c ****                           hsai->Init.DataSize | hsai->Init.FirstBit  |           \
 348              		.loc 1 457 70
 349 0130 1A43     		orrs	r2, r2, r3
 350              		.loc 1 458 59
 351 0132 7B68     		ldr	r3, [r7, #4]
 352 0134 DB6B     		ldr	r3, [r3, #60]
 353              		.loc 1 458 47
 354 0136 1A43     		orrs	r2, r2, r3
 355              		.loc 1 458 70
 356 0138 7B69     		ldr	r3, [r7, #20]
 357 013a 1A43     		orrs	r2, r2, r3
 459:./Libraries/STM32F4xx_HAL_Driver/Src/stm32f4xx_hal_sai.c ****                           ckstr_bits | syncen_bits |                             \
 358              		.loc 1 459 38
 359 013c 3B69     		ldr	r3, [r7, #16]
 360 013e 1A43     		orrs	r2, r2, r3
 460:./Libraries/STM32F4xx_HAL_Driver/Src/stm32f4xx_hal_sai.c ****                           hsai->Init.MonoStereoMode | hsai->Init.OutputDrive |   \
 361              		.loc 1 460 37
 362 0140 7B68     		ldr	r3, [r7, #4]
 363 0142 9B6A     		ldr	r3, [r3, #40]
 459:./Libraries/STM32F4xx_HAL_Driver/Src/stm32f4xx_hal_sai.c ****                           ckstr_bits | syncen_bits |                             \
 364              		.loc 1 459 52
 365 0144 1A43     		orrs	r2, r2, r3
 366              		.loc 1 460 65
 367 0146 7B68     		ldr	r3, [r7, #4]
 368 0148 1B69     		ldr	r3, [r3, #16]
 369              		.loc 1 460 53
 370 014a 1A43     		orrs	r2, r2, r3
 461:./Libraries/STM32F4xx_HAL_Driver/Src/stm32f4xx_hal_sai.c ****                           hsai->Init.NoDivider | (hsai->Init.Mckdiv << 20U));
 371              		.loc 1 461 37
 372 014c 7B68     		ldr	r3, [r7, #4]
 373 014e 5B69     		ldr	r3, [r3, #20]
 460:./Libraries/STM32F4xx_HAL_Driver/Src/stm32f4xx_hal_sai.c ****                           hsai->Init.MonoStereoMode | hsai->Init.OutputDrive |   \
 374              		.loc 1 460 78
 375 0150 1A43     		orrs	r2, r2, r3
 376              		.loc 1 461 61
 377 0152 7B68     		ldr	r3, [r7, #4]
 378 0154 5B6A     		ldr	r3, [r3, #36]
 379              		.loc 1 461 69
 380 0156 1B05     		lsls	r3, r3, #20
 381              		.loc 1 461 48
 382 0158 1A43     		orrs	r2, r2, r3
 457:./Libraries/STM32F4xx_HAL_Driver/Src/stm32f4xx_hal_sai.c ****                           hsai->Init.DataSize | hsai->Init.FirstBit  |           \
 383              		.loc 1 457 7
 384 015a 7B68     		ldr	r3, [r7, #4]
 385 015c 1B68     		ldr	r3, [r3]
 457:./Libraries/STM32F4xx_HAL_Driver/Src/stm32f4xx_hal_sai.c ****                           hsai->Init.DataSize | hsai->Init.FirstBit  |           \
 386              		.loc 1 457 23
ARM GAS  /tmp/cc2WvXK4.s 			page 16


 387 015e 0A43     		orrs	r2, r2, r1
 388 0160 1A60     		str	r2, [r3]
 462:./Libraries/STM32F4xx_HAL_Driver/Src/stm32f4xx_hal_sai.c **** 
 463:./Libraries/STM32F4xx_HAL_Driver/Src/stm32f4xx_hal_sai.c ****   /* SAI CR2 Configuration */
 464:./Libraries/STM32F4xx_HAL_Driver/Src/stm32f4xx_hal_sai.c ****   hsai->Instance->CR2 &= ~(SAI_xCR2_FTH | SAI_xCR2_FFLUSH | SAI_xCR2_COMP | SAI_xCR2_CPL);
 389              		.loc 1 464 7
 390 0162 7B68     		ldr	r3, [r7, #4]
 391 0164 1B68     		ldr	r3, [r3]
 392              		.loc 1 464 23
 393 0166 5B68     		ldr	r3, [r3, #4]
 394              		.loc 1 464 7
 395 0168 7A68     		ldr	r2, [r7, #4]
 396 016a 1268     		ldr	r2, [r2]
 397              		.loc 1 464 23
 398 016c 23F46043 		bic	r3, r3, #57344
 399 0170 23F00F03 		bic	r3, r3, #15
 400 0174 5360     		str	r3, [r2, #4]
 465:./Libraries/STM32F4xx_HAL_Driver/Src/stm32f4xx_hal_sai.c ****   hsai->Instance->CR2 |= (hsai->Init.FIFOThreshold | hsai->Init.CompandingMode | hsai->Init.TriStat
 401              		.loc 1 465 7
 402 0176 7B68     		ldr	r3, [r7, #4]
 403 0178 1B68     		ldr	r3, [r3]
 404              		.loc 1 465 23
 405 017a 5968     		ldr	r1, [r3, #4]
 406              		.loc 1 465 37
 407 017c 7B68     		ldr	r3, [r7, #4]
 408 017e 9A69     		ldr	r2, [r3, #24]
 409              		.loc 1 465 64
 410 0180 7B68     		ldr	r3, [r7, #4]
 411 0182 DB6A     		ldr	r3, [r3, #44]
 412              		.loc 1 465 52
 413 0184 1A43     		orrs	r2, r2, r3
 414              		.loc 1 465 92
 415 0186 7B68     		ldr	r3, [r7, #4]
 416 0188 1B6B     		ldr	r3, [r3, #48]
 417              		.loc 1 465 80
 418 018a 1A43     		orrs	r2, r2, r3
 419              		.loc 1 465 7
 420 018c 7B68     		ldr	r3, [r7, #4]
 421 018e 1B68     		ldr	r3, [r3]
 422              		.loc 1 465 23
 423 0190 0A43     		orrs	r2, r2, r1
 424 0192 5A60     		str	r2, [r3, #4]
 466:./Libraries/STM32F4xx_HAL_Driver/Src/stm32f4xx_hal_sai.c **** 
 467:./Libraries/STM32F4xx_HAL_Driver/Src/stm32f4xx_hal_sai.c ****   /* SAI Frame Configuration -----------------------------------------*/
 468:./Libraries/STM32F4xx_HAL_Driver/Src/stm32f4xx_hal_sai.c ****   hsai->Instance->FRCR&=(~(SAI_xFRCR_FRL | SAI_xFRCR_FSALL | SAI_xFRCR_FSDEF | \
 425              		.loc 1 468 7
 426 0194 7B68     		ldr	r3, [r7, #4]
 427 0196 1B68     		ldr	r3, [r3]
 428              		.loc 1 468 23
 429 0198 9968     		ldr	r1, [r3, #8]
 430              		.loc 1 468 7
 431 019a 7B68     		ldr	r3, [r7, #4]
 432 019c 1A68     		ldr	r2, [r3]
 433              		.loc 1 468 23
 434 019e 274B     		ldr	r3, .L27+8
 435 01a0 0B40     		ands	r3, r3, r1
 436 01a2 9360     		str	r3, [r2, #8]
ARM GAS  /tmp/cc2WvXK4.s 			page 17


 469:./Libraries/STM32F4xx_HAL_Driver/Src/stm32f4xx_hal_sai.c ****                            SAI_xFRCR_FSPOL | SAI_xFRCR_FSOFF));
 470:./Libraries/STM32F4xx_HAL_Driver/Src/stm32f4xx_hal_sai.c ****   hsai->Instance->FRCR|=((hsai->FrameInit.FrameLength - 1U) |
 437              		.loc 1 470 7
 438 01a4 7B68     		ldr	r3, [r7, #4]
 439 01a6 1B68     		ldr	r3, [r3]
 440              		.loc 1 470 23
 441 01a8 9968     		ldr	r1, [r3, #8]
 442              		.loc 1 470 42
 443 01aa 7B68     		ldr	r3, [r7, #4]
 444 01ac 5B6C     		ldr	r3, [r3, #68]
 445              		.loc 1 470 55
 446 01ae 5A1E     		subs	r2, r3, #1
 471:./Libraries/STM32F4xx_HAL_Driver/Src/stm32f4xx_hal_sai.c ****                           hsai->FrameInit.FSOffset     |
 447              		.loc 1 471 42
 448 01b0 7B68     		ldr	r3, [r7, #4]
 449 01b2 5B6D     		ldr	r3, [r3, #84]
 470:./Libraries/STM32F4xx_HAL_Driver/Src/stm32f4xx_hal_sai.c ****                           hsai->FrameInit.FSOffset     |
 450              		.loc 1 470 61
 451 01b4 1A43     		orrs	r2, r2, r3
 472:./Libraries/STM32F4xx_HAL_Driver/Src/stm32f4xx_hal_sai.c ****                           hsai->FrameInit.FSDefinition |
 452              		.loc 1 472 42
 453 01b6 7B68     		ldr	r3, [r7, #4]
 454 01b8 DB6C     		ldr	r3, [r3, #76]
 471:./Libraries/STM32F4xx_HAL_Driver/Src/stm32f4xx_hal_sai.c ****                           hsai->FrameInit.FSOffset     |
 455              		.loc 1 471 56
 456 01ba 1A43     		orrs	r2, r2, r3
 473:./Libraries/STM32F4xx_HAL_Driver/Src/stm32f4xx_hal_sai.c ****                           hsai->FrameInit.FSPolarity   |
 457              		.loc 1 473 42
 458 01bc 7B68     		ldr	r3, [r7, #4]
 459 01be 1B6D     		ldr	r3, [r3, #80]
 472:./Libraries/STM32F4xx_HAL_Driver/Src/stm32f4xx_hal_sai.c ****                           hsai->FrameInit.FSDefinition |
 460              		.loc 1 472 56
 461 01c0 1A43     		orrs	r2, r2, r3
 474:./Libraries/STM32F4xx_HAL_Driver/Src/stm32f4xx_hal_sai.c ****                           ((hsai->FrameInit.ActiveFrameLength - 1U) << 8U));
 462              		.loc 1 474 44
 463 01c2 7B68     		ldr	r3, [r7, #4]
 464 01c4 9B6C     		ldr	r3, [r3, #72]
 465              		.loc 1 474 63
 466 01c6 013B     		subs	r3, r3, #1
 467              		.loc 1 474 69
 468 01c8 1B02     		lsls	r3, r3, #8
 473:./Libraries/STM32F4xx_HAL_Driver/Src/stm32f4xx_hal_sai.c ****                           hsai->FrameInit.FSPolarity   |
 469              		.loc 1 473 56
 470 01ca 1A43     		orrs	r2, r2, r3
 470:./Libraries/STM32F4xx_HAL_Driver/Src/stm32f4xx_hal_sai.c ****                           hsai->FrameInit.FSOffset     |
 471              		.loc 1 470 7
 472 01cc 7B68     		ldr	r3, [r7, #4]
 473 01ce 1B68     		ldr	r3, [r3]
 470:./Libraries/STM32F4xx_HAL_Driver/Src/stm32f4xx_hal_sai.c ****                           hsai->FrameInit.FSOffset     |
 474              		.loc 1 470 23
 475 01d0 0A43     		orrs	r2, r2, r1
 476 01d2 9A60     		str	r2, [r3, #8]
 475:./Libraries/STM32F4xx_HAL_Driver/Src/stm32f4xx_hal_sai.c **** 
 476:./Libraries/STM32F4xx_HAL_Driver/Src/stm32f4xx_hal_sai.c ****   /* SAI Block_x SLOT Configuration ------------------------------------------*/
 477:./Libraries/STM32F4xx_HAL_Driver/Src/stm32f4xx_hal_sai.c ****   /* This register has no meaning in AC 97 and SPDIF audio protocol */
 478:./Libraries/STM32F4xx_HAL_Driver/Src/stm32f4xx_hal_sai.c ****   hsai->Instance->SLOTR &= ~(SAI_xSLOTR_FBOFF | SAI_xSLOTR_SLOTSZ | \
 477              		.loc 1 478 7
ARM GAS  /tmp/cc2WvXK4.s 			page 18


 478 01d4 7B68     		ldr	r3, [r7, #4]
 479 01d6 1B68     		ldr	r3, [r3]
 480              		.loc 1 478 25
 481 01d8 D968     		ldr	r1, [r3, #12]
 482              		.loc 1 478 7
 483 01da 7B68     		ldr	r3, [r7, #4]
 484 01dc 1A68     		ldr	r2, [r3]
 485              		.loc 1 478 25
 486 01de 4FF22003 		movw	r3, #61472
 487 01e2 0B40     		ands	r3, r3, r1
 488 01e4 D360     		str	r3, [r2, #12]
 479:./Libraries/STM32F4xx_HAL_Driver/Src/stm32f4xx_hal_sai.c ****                              SAI_xSLOTR_NBSLOT | SAI_xSLOTR_SLOTEN );
 480:./Libraries/STM32F4xx_HAL_Driver/Src/stm32f4xx_hal_sai.c **** 
 481:./Libraries/STM32F4xx_HAL_Driver/Src/stm32f4xx_hal_sai.c ****   hsai->Instance->SLOTR |=  hsai->SlotInit.FirstBitOffset |  hsai->SlotInit.SlotSize  | \
 489              		.loc 1 481 7
 490 01e6 7B68     		ldr	r3, [r7, #4]
 491 01e8 1B68     		ldr	r3, [r3]
 492              		.loc 1 481 25
 493 01ea D968     		ldr	r1, [r3, #12]
 494              		.loc 1 481 43
 495 01ec 7B68     		ldr	r3, [r7, #4]
 496 01ee 9A6D     		ldr	r2, [r3, #88]
 497              		.loc 1 481 76
 498 01f0 7B68     		ldr	r3, [r7, #4]
 499 01f2 DB6D     		ldr	r3, [r3, #92]
 500              		.loc 1 481 59
 501 01f4 1A43     		orrs	r2, r2, r3
 482:./Libraries/STM32F4xx_HAL_Driver/Src/stm32f4xx_hal_sai.c ****                             (hsai->SlotInit.SlotActive << 16U) | ((hsai->SlotInit.SlotNumber - 1U) 
 502              		.loc 1 482 44
 503 01f6 7B68     		ldr	r3, [r7, #4]
 504 01f8 5B6E     		ldr	r3, [r3, #100]
 505              		.loc 1 482 56
 506 01fa 1B04     		lsls	r3, r3, #16
 481:./Libraries/STM32F4xx_HAL_Driver/Src/stm32f4xx_hal_sai.c ****                             (hsai->SlotInit.SlotActive << 16U) | ((hsai->SlotInit.SlotNumber - 1U) 
 507              		.loc 1 481 87
 508 01fc 1A43     		orrs	r2, r2, r3
 509              		.loc 1 482 82
 510 01fe 7B68     		ldr	r3, [r7, #4]
 511 0200 1B6E     		ldr	r3, [r3, #96]
 512              		.loc 1 482 94
 513 0202 013B     		subs	r3, r3, #1
 514              		.loc 1 482 100
 515 0204 1B02     		lsls	r3, r3, #8
 516              		.loc 1 482 64
 517 0206 1A43     		orrs	r2, r2, r3
 481:./Libraries/STM32F4xx_HAL_Driver/Src/stm32f4xx_hal_sai.c ****                             (hsai->SlotInit.SlotActive << 16U) | ((hsai->SlotInit.SlotNumber - 1U) 
 518              		.loc 1 481 7
 519 0208 7B68     		ldr	r3, [r7, #4]
 520 020a 1B68     		ldr	r3, [r3]
 481:./Libraries/STM32F4xx_HAL_Driver/Src/stm32f4xx_hal_sai.c ****                             (hsai->SlotInit.SlotActive << 16U) | ((hsai->SlotInit.SlotNumber - 1U) 
 521              		.loc 1 481 25
 522 020c 0A43     		orrs	r2, r2, r1
 523 020e DA60     		str	r2, [r3, #12]
 483:./Libraries/STM32F4xx_HAL_Driver/Src/stm32f4xx_hal_sai.c **** 
 484:./Libraries/STM32F4xx_HAL_Driver/Src/stm32f4xx_hal_sai.c ****   /* Initialize the error code */
 485:./Libraries/STM32F4xx_HAL_Driver/Src/stm32f4xx_hal_sai.c ****   hsai->ErrorCode = HAL_SAI_ERROR_NONE;
 524              		.loc 1 485 19
ARM GAS  /tmp/cc2WvXK4.s 			page 19


 525 0210 7B68     		ldr	r3, [r7, #4]
 526 0212 0022     		movs	r2, #0
 527 0214 C3F88420 		str	r2, [r3, #132]
 486:./Libraries/STM32F4xx_HAL_Driver/Src/stm32f4xx_hal_sai.c **** 
 487:./Libraries/STM32F4xx_HAL_Driver/Src/stm32f4xx_hal_sai.c ****   /* Initialize the SAI state */
 488:./Libraries/STM32F4xx_HAL_Driver/Src/stm32f4xx_hal_sai.c ****   hsai->State= HAL_SAI_STATE_READY;
 528              		.loc 1 488 14
 529 0218 7B68     		ldr	r3, [r7, #4]
 530 021a 0122     		movs	r2, #1
 531 021c 83F88120 		strb	r2, [r3, #129]
 489:./Libraries/STM32F4xx_HAL_Driver/Src/stm32f4xx_hal_sai.c **** 
 490:./Libraries/STM32F4xx_HAL_Driver/Src/stm32f4xx_hal_sai.c ****   /* Release Lock */
 491:./Libraries/STM32F4xx_HAL_Driver/Src/stm32f4xx_hal_sai.c ****   __HAL_UNLOCK(hsai);
 532              		.loc 1 491 3
 533 0220 7B68     		ldr	r3, [r7, #4]
 534 0222 0022     		movs	r2, #0
 535 0224 83F88020 		strb	r2, [r3, #128]
 492:./Libraries/STM32F4xx_HAL_Driver/Src/stm32f4xx_hal_sai.c **** 
 493:./Libraries/STM32F4xx_HAL_Driver/Src/stm32f4xx_hal_sai.c ****   return HAL_OK;
 536              		.loc 1 493 10
 537 0228 0023     		movs	r3, #0
 538              	.L11:
 494:./Libraries/STM32F4xx_HAL_Driver/Src/stm32f4xx_hal_sai.c **** }
 539              		.loc 1 494 1
 540 022a 1846     		mov	r0, r3
 541 022c 1837     		adds	r7, r7, #24
 542              	.LCFI8:
 543              		.cfi_def_cfa_offset 8
 544 022e BD46     		mov	sp, r7
 545              	.LCFI9:
 546              		.cfi_def_cfa_register 13
 547              		@ sp needed
 548 0230 80BD     		pop	{r7, pc}
 549              	.L28:
 550 0232 00BF     		.align	2
 551              	.L27:
 552 0234 CDCCCCCC 		.word	-858993459
 553 0238 10C005FF 		.word	-16400368
 554 023c 0080F8FF 		.word	-491520
 555              		.cfi_endproc
 556              	.LFE127:
 558              		.section	.text.HAL_SAI_DeInit,"ax",%progbits
 559              		.align	1
 560              		.global	HAL_SAI_DeInit
 561              		.syntax unified
 562              		.thumb
 563              		.thumb_func
 564              		.fpu fpv4-sp-d16
 566              	HAL_SAI_DeInit:
 567              	.LFB128:
 495:./Libraries/STM32F4xx_HAL_Driver/Src/stm32f4xx_hal_sai.c **** 
 496:./Libraries/STM32F4xx_HAL_Driver/Src/stm32f4xx_hal_sai.c **** /**
 497:./Libraries/STM32F4xx_HAL_Driver/Src/stm32f4xx_hal_sai.c ****   * @brief  DeInitialize the SAI peripheral.
 498:./Libraries/STM32F4xx_HAL_Driver/Src/stm32f4xx_hal_sai.c ****   * @param  hsai pointer to a SAI_HandleTypeDef structure that contains
 499:./Libraries/STM32F4xx_HAL_Driver/Src/stm32f4xx_hal_sai.c ****   *               the configuration information for SAI module.
 500:./Libraries/STM32F4xx_HAL_Driver/Src/stm32f4xx_hal_sai.c ****   * @retval HAL status
 501:./Libraries/STM32F4xx_HAL_Driver/Src/stm32f4xx_hal_sai.c ****   */
ARM GAS  /tmp/cc2WvXK4.s 			page 20


 502:./Libraries/STM32F4xx_HAL_Driver/Src/stm32f4xx_hal_sai.c **** HAL_StatusTypeDef HAL_SAI_DeInit(SAI_HandleTypeDef *hsai)
 503:./Libraries/STM32F4xx_HAL_Driver/Src/stm32f4xx_hal_sai.c **** {
 568              		.loc 1 503 1
 569              		.cfi_startproc
 570              		@ args = 0, pretend = 0, frame = 8
 571              		@ frame_needed = 1, uses_anonymous_args = 0
 572 0000 80B5     		push	{r7, lr}
 573              	.LCFI10:
 574              		.cfi_def_cfa_offset 8
 575              		.cfi_offset 7, -8
 576              		.cfi_offset 14, -4
 577 0002 82B0     		sub	sp, sp, #8
 578              	.LCFI11:
 579              		.cfi_def_cfa_offset 16
 580 0004 00AF     		add	r7, sp, #0
 581              	.LCFI12:
 582              		.cfi_def_cfa_register 7
 583 0006 7860     		str	r0, [r7, #4]
 504:./Libraries/STM32F4xx_HAL_Driver/Src/stm32f4xx_hal_sai.c ****   /* Check the SAI handle allocation */
 505:./Libraries/STM32F4xx_HAL_Driver/Src/stm32f4xx_hal_sai.c ****   if(hsai == NULL)
 584              		.loc 1 505 5
 585 0008 7B68     		ldr	r3, [r7, #4]
 586 000a 002B     		cmp	r3, #0
 587 000c 01D1     		bne	.L30
 506:./Libraries/STM32F4xx_HAL_Driver/Src/stm32f4xx_hal_sai.c ****   {
 507:./Libraries/STM32F4xx_HAL_Driver/Src/stm32f4xx_hal_sai.c ****     return HAL_ERROR;
 588              		.loc 1 507 12
 589 000e 0123     		movs	r3, #1
 590 0010 27E0     		b	.L31
 591              	.L30:
 508:./Libraries/STM32F4xx_HAL_Driver/Src/stm32f4xx_hal_sai.c ****   }
 509:./Libraries/STM32F4xx_HAL_Driver/Src/stm32f4xx_hal_sai.c **** 
 510:./Libraries/STM32F4xx_HAL_Driver/Src/stm32f4xx_hal_sai.c ****   hsai->State = HAL_SAI_STATE_BUSY;
 592              		.loc 1 510 15
 593 0012 7B68     		ldr	r3, [r7, #4]
 594 0014 0222     		movs	r2, #2
 595 0016 83F88120 		strb	r2, [r3, #129]
 511:./Libraries/STM32F4xx_HAL_Driver/Src/stm32f4xx_hal_sai.c **** 
 512:./Libraries/STM32F4xx_HAL_Driver/Src/stm32f4xx_hal_sai.c ****   /* Disabled All interrupt and clear all the flag */
 513:./Libraries/STM32F4xx_HAL_Driver/Src/stm32f4xx_hal_sai.c ****   hsai->Instance->IMR = 0U;
 596              		.loc 1 513 7
 597 001a 7B68     		ldr	r3, [r7, #4]
 598 001c 1B68     		ldr	r3, [r3]
 599              		.loc 1 513 23
 600 001e 0022     		movs	r2, #0
 601 0020 1A61     		str	r2, [r3, #16]
 514:./Libraries/STM32F4xx_HAL_Driver/Src/stm32f4xx_hal_sai.c ****   hsai->Instance->CLRFR = 0xFFFFFFFFU;
 602              		.loc 1 514 7
 603 0022 7B68     		ldr	r3, [r7, #4]
 604 0024 1B68     		ldr	r3, [r3]
 605              		.loc 1 514 25
 606 0026 4FF0FF32 		mov	r2, #-1
 607 002a 9A61     		str	r2, [r3, #24]
 515:./Libraries/STM32F4xx_HAL_Driver/Src/stm32f4xx_hal_sai.c **** 
 516:./Libraries/STM32F4xx_HAL_Driver/Src/stm32f4xx_hal_sai.c ****   /* Disable the SAI */
 517:./Libraries/STM32F4xx_HAL_Driver/Src/stm32f4xx_hal_sai.c ****   SAI_Disable(hsai);
 608              		.loc 1 517 3
ARM GAS  /tmp/cc2WvXK4.s 			page 21


 609 002c 7868     		ldr	r0, [r7, #4]
 610 002e FFF7FEFF 		bl	SAI_Disable
 518:./Libraries/STM32F4xx_HAL_Driver/Src/stm32f4xx_hal_sai.c **** 
 519:./Libraries/STM32F4xx_HAL_Driver/Src/stm32f4xx_hal_sai.c ****   /* Flush the fifo */
 520:./Libraries/STM32F4xx_HAL_Driver/Src/stm32f4xx_hal_sai.c ****   SET_BIT(hsai->Instance->CR2, SAI_xCR2_FFLUSH);
 611              		.loc 1 520 3
 612 0032 7B68     		ldr	r3, [r7, #4]
 613 0034 1B68     		ldr	r3, [r3]
 614 0036 5A68     		ldr	r2, [r3, #4]
 615 0038 7B68     		ldr	r3, [r7, #4]
 616 003a 1B68     		ldr	r3, [r3]
 617 003c 42F00802 		orr	r2, r2, #8
 618 0040 5A60     		str	r2, [r3, #4]
 521:./Libraries/STM32F4xx_HAL_Driver/Src/stm32f4xx_hal_sai.c **** 
 522:./Libraries/STM32F4xx_HAL_Driver/Src/stm32f4xx_hal_sai.c ****   /* DeInit the low level hardware: GPIO, CLOCK, NVIC and DMA */
 523:./Libraries/STM32F4xx_HAL_Driver/Src/stm32f4xx_hal_sai.c ****   HAL_SAI_MspDeInit(hsai);
 619              		.loc 1 523 3
 620 0042 7868     		ldr	r0, [r7, #4]
 621 0044 FFF7FEFF 		bl	HAL_SAI_MspDeInit
 524:./Libraries/STM32F4xx_HAL_Driver/Src/stm32f4xx_hal_sai.c **** 
 525:./Libraries/STM32F4xx_HAL_Driver/Src/stm32f4xx_hal_sai.c ****   /* Initialize the error code */
 526:./Libraries/STM32F4xx_HAL_Driver/Src/stm32f4xx_hal_sai.c ****   hsai->ErrorCode = HAL_SAI_ERROR_NONE;
 622              		.loc 1 526 19
 623 0048 7B68     		ldr	r3, [r7, #4]
 624 004a 0022     		movs	r2, #0
 625 004c C3F88420 		str	r2, [r3, #132]
 527:./Libraries/STM32F4xx_HAL_Driver/Src/stm32f4xx_hal_sai.c **** 
 528:./Libraries/STM32F4xx_HAL_Driver/Src/stm32f4xx_hal_sai.c ****   /* Initialize the SAI state */
 529:./Libraries/STM32F4xx_HAL_Driver/Src/stm32f4xx_hal_sai.c ****   hsai->State = HAL_SAI_STATE_RESET;
 626              		.loc 1 529 15
 627 0050 7B68     		ldr	r3, [r7, #4]
 628 0052 0022     		movs	r2, #0
 629 0054 83F88120 		strb	r2, [r3, #129]
 530:./Libraries/STM32F4xx_HAL_Driver/Src/stm32f4xx_hal_sai.c **** 
 531:./Libraries/STM32F4xx_HAL_Driver/Src/stm32f4xx_hal_sai.c ****   /* Release Lock */
 532:./Libraries/STM32F4xx_HAL_Driver/Src/stm32f4xx_hal_sai.c ****   __HAL_UNLOCK(hsai);
 630              		.loc 1 532 3
 631 0058 7B68     		ldr	r3, [r7, #4]
 632 005a 0022     		movs	r2, #0
 633 005c 83F88020 		strb	r2, [r3, #128]
 533:./Libraries/STM32F4xx_HAL_Driver/Src/stm32f4xx_hal_sai.c **** 
 534:./Libraries/STM32F4xx_HAL_Driver/Src/stm32f4xx_hal_sai.c ****   return HAL_OK;
 634              		.loc 1 534 10
 635 0060 0023     		movs	r3, #0
 636              	.L31:
 535:./Libraries/STM32F4xx_HAL_Driver/Src/stm32f4xx_hal_sai.c **** }
 637              		.loc 1 535 1
 638 0062 1846     		mov	r0, r3
 639 0064 0837     		adds	r7, r7, #8
 640              	.LCFI13:
 641              		.cfi_def_cfa_offset 8
 642 0066 BD46     		mov	sp, r7
 643              	.LCFI14:
 644              		.cfi_def_cfa_register 13
 645              		@ sp needed
 646 0068 80BD     		pop	{r7, pc}
 647              		.cfi_endproc
ARM GAS  /tmp/cc2WvXK4.s 			page 22


 648              	.LFE128:
 650              		.section	.text.HAL_SAI_MspInit,"ax",%progbits
 651              		.align	1
 652              		.weak	HAL_SAI_MspInit
 653              		.syntax unified
 654              		.thumb
 655              		.thumb_func
 656              		.fpu fpv4-sp-d16
 658              	HAL_SAI_MspInit:
 659              	.LFB129:
 536:./Libraries/STM32F4xx_HAL_Driver/Src/stm32f4xx_hal_sai.c **** 
 537:./Libraries/STM32F4xx_HAL_Driver/Src/stm32f4xx_hal_sai.c **** /**
 538:./Libraries/STM32F4xx_HAL_Driver/Src/stm32f4xx_hal_sai.c ****   * @brief Initialize the SAI MSP.
 539:./Libraries/STM32F4xx_HAL_Driver/Src/stm32f4xx_hal_sai.c ****   * @param  hsai pointer to a SAI_HandleTypeDef structure that contains
 540:./Libraries/STM32F4xx_HAL_Driver/Src/stm32f4xx_hal_sai.c ****   *               the configuration information for SAI module.
 541:./Libraries/STM32F4xx_HAL_Driver/Src/stm32f4xx_hal_sai.c ****   * @retval None
 542:./Libraries/STM32F4xx_HAL_Driver/Src/stm32f4xx_hal_sai.c ****   */
 543:./Libraries/STM32F4xx_HAL_Driver/Src/stm32f4xx_hal_sai.c **** __weak void HAL_SAI_MspInit(SAI_HandleTypeDef *hsai)
 544:./Libraries/STM32F4xx_HAL_Driver/Src/stm32f4xx_hal_sai.c **** {
 660              		.loc 1 544 1
 661              		.cfi_startproc
 662              		@ args = 0, pretend = 0, frame = 8
 663              		@ frame_needed = 1, uses_anonymous_args = 0
 664              		@ link register save eliminated.
 665 0000 80B4     		push	{r7}
 666              	.LCFI15:
 667              		.cfi_def_cfa_offset 4
 668              		.cfi_offset 7, -4
 669 0002 83B0     		sub	sp, sp, #12
 670              	.LCFI16:
 671              		.cfi_def_cfa_offset 16
 672 0004 00AF     		add	r7, sp, #0
 673              	.LCFI17:
 674              		.cfi_def_cfa_register 7
 675 0006 7860     		str	r0, [r7, #4]
 545:./Libraries/STM32F4xx_HAL_Driver/Src/stm32f4xx_hal_sai.c ****   /* Prevent unused argument(s) compilation warning */
 546:./Libraries/STM32F4xx_HAL_Driver/Src/stm32f4xx_hal_sai.c ****   UNUSED(hsai);
 547:./Libraries/STM32F4xx_HAL_Driver/Src/stm32f4xx_hal_sai.c **** 
 548:./Libraries/STM32F4xx_HAL_Driver/Src/stm32f4xx_hal_sai.c ****   /* NOTE : This function should not be modified, when the callback is needed,
 549:./Libraries/STM32F4xx_HAL_Driver/Src/stm32f4xx_hal_sai.c ****             the HAL_SAI_MspInit could be implemented in the user file
 550:./Libraries/STM32F4xx_HAL_Driver/Src/stm32f4xx_hal_sai.c ****    */
 551:./Libraries/STM32F4xx_HAL_Driver/Src/stm32f4xx_hal_sai.c **** }
 676              		.loc 1 551 1
 677 0008 00BF     		nop
 678 000a 0C37     		adds	r7, r7, #12
 679              	.LCFI18:
 680              		.cfi_def_cfa_offset 4
 681 000c BD46     		mov	sp, r7
 682              	.LCFI19:
 683              		.cfi_def_cfa_register 13
 684              		@ sp needed
 685 000e 5DF8047B 		ldr	r7, [sp], #4
 686              	.LCFI20:
 687              		.cfi_restore 7
 688              		.cfi_def_cfa_offset 0
 689 0012 7047     		bx	lr
 690              		.cfi_endproc
ARM GAS  /tmp/cc2WvXK4.s 			page 23


 691              	.LFE129:
 693              		.section	.text.HAL_SAI_MspDeInit,"ax",%progbits
 694              		.align	1
 695              		.weak	HAL_SAI_MspDeInit
 696              		.syntax unified
 697              		.thumb
 698              		.thumb_func
 699              		.fpu fpv4-sp-d16
 701              	HAL_SAI_MspDeInit:
 702              	.LFB130:
 552:./Libraries/STM32F4xx_HAL_Driver/Src/stm32f4xx_hal_sai.c **** 
 553:./Libraries/STM32F4xx_HAL_Driver/Src/stm32f4xx_hal_sai.c **** /**
 554:./Libraries/STM32F4xx_HAL_Driver/Src/stm32f4xx_hal_sai.c ****   * @brief DeInitialize the SAI MSP.
 555:./Libraries/STM32F4xx_HAL_Driver/Src/stm32f4xx_hal_sai.c ****   * @param  hsai pointer to a SAI_HandleTypeDef structure that contains
 556:./Libraries/STM32F4xx_HAL_Driver/Src/stm32f4xx_hal_sai.c ****   *               the configuration information for SAI module.
 557:./Libraries/STM32F4xx_HAL_Driver/Src/stm32f4xx_hal_sai.c ****   * @retval None
 558:./Libraries/STM32F4xx_HAL_Driver/Src/stm32f4xx_hal_sai.c ****   */
 559:./Libraries/STM32F4xx_HAL_Driver/Src/stm32f4xx_hal_sai.c **** __weak void HAL_SAI_MspDeInit(SAI_HandleTypeDef *hsai)
 560:./Libraries/STM32F4xx_HAL_Driver/Src/stm32f4xx_hal_sai.c **** {
 703              		.loc 1 560 1
 704              		.cfi_startproc
 705              		@ args = 0, pretend = 0, frame = 8
 706              		@ frame_needed = 1, uses_anonymous_args = 0
 707              		@ link register save eliminated.
 708 0000 80B4     		push	{r7}
 709              	.LCFI21:
 710              		.cfi_def_cfa_offset 4
 711              		.cfi_offset 7, -4
 712 0002 83B0     		sub	sp, sp, #12
 713              	.LCFI22:
 714              		.cfi_def_cfa_offset 16
 715 0004 00AF     		add	r7, sp, #0
 716              	.LCFI23:
 717              		.cfi_def_cfa_register 7
 718 0006 7860     		str	r0, [r7, #4]
 561:./Libraries/STM32F4xx_HAL_Driver/Src/stm32f4xx_hal_sai.c ****   /* Prevent unused argument(s) compilation warning */
 562:./Libraries/STM32F4xx_HAL_Driver/Src/stm32f4xx_hal_sai.c ****   UNUSED(hsai);
 563:./Libraries/STM32F4xx_HAL_Driver/Src/stm32f4xx_hal_sai.c **** 
 564:./Libraries/STM32F4xx_HAL_Driver/Src/stm32f4xx_hal_sai.c ****   /* NOTE : This function should not be modified, when the callback is needed,
 565:./Libraries/STM32F4xx_HAL_Driver/Src/stm32f4xx_hal_sai.c ****             the HAL_SAI_MspDeInit could be implemented in the user file
 566:./Libraries/STM32F4xx_HAL_Driver/Src/stm32f4xx_hal_sai.c ****    */
 567:./Libraries/STM32F4xx_HAL_Driver/Src/stm32f4xx_hal_sai.c **** }
 719              		.loc 1 567 1
 720 0008 00BF     		nop
 721 000a 0C37     		adds	r7, r7, #12
 722              	.LCFI24:
 723              		.cfi_def_cfa_offset 4
 724 000c BD46     		mov	sp, r7
 725              	.LCFI25:
 726              		.cfi_def_cfa_register 13
 727              		@ sp needed
 728 000e 5DF8047B 		ldr	r7, [sp], #4
 729              	.LCFI26:
 730              		.cfi_restore 7
 731              		.cfi_def_cfa_offset 0
 732 0012 7047     		bx	lr
 733              		.cfi_endproc
ARM GAS  /tmp/cc2WvXK4.s 			page 24


 734              	.LFE130:
 736              		.section	.text.HAL_SAI_Transmit,"ax",%progbits
 737              		.align	1
 738              		.global	HAL_SAI_Transmit
 739              		.syntax unified
 740              		.thumb
 741              		.thumb_func
 742              		.fpu fpv4-sp-d16
 744              	HAL_SAI_Transmit:
 745              	.LFB131:
 568:./Libraries/STM32F4xx_HAL_Driver/Src/stm32f4xx_hal_sai.c **** 
 569:./Libraries/STM32F4xx_HAL_Driver/Src/stm32f4xx_hal_sai.c **** /**
 570:./Libraries/STM32F4xx_HAL_Driver/Src/stm32f4xx_hal_sai.c ****   * @}
 571:./Libraries/STM32F4xx_HAL_Driver/Src/stm32f4xx_hal_sai.c ****   */
 572:./Libraries/STM32F4xx_HAL_Driver/Src/stm32f4xx_hal_sai.c **** 
 573:./Libraries/STM32F4xx_HAL_Driver/Src/stm32f4xx_hal_sai.c **** /** @defgroup SAI_Exported_Functions_Group2 IO operation functions
 574:./Libraries/STM32F4xx_HAL_Driver/Src/stm32f4xx_hal_sai.c ****  *  @brief    Data transfers functions
 575:./Libraries/STM32F4xx_HAL_Driver/Src/stm32f4xx_hal_sai.c ****  *
 576:./Libraries/STM32F4xx_HAL_Driver/Src/stm32f4xx_hal_sai.c **** @verbatim
 577:./Libraries/STM32F4xx_HAL_Driver/Src/stm32f4xx_hal_sai.c ****   ==============================================================================
 578:./Libraries/STM32F4xx_HAL_Driver/Src/stm32f4xx_hal_sai.c ****                       ##### IO operation functions #####
 579:./Libraries/STM32F4xx_HAL_Driver/Src/stm32f4xx_hal_sai.c ****   ==============================================================================
 580:./Libraries/STM32F4xx_HAL_Driver/Src/stm32f4xx_hal_sai.c ****   [..]
 581:./Libraries/STM32F4xx_HAL_Driver/Src/stm32f4xx_hal_sai.c ****     This subsection provides a set of functions allowing to manage the SAI data
 582:./Libraries/STM32F4xx_HAL_Driver/Src/stm32f4xx_hal_sai.c ****     transfers.
 583:./Libraries/STM32F4xx_HAL_Driver/Src/stm32f4xx_hal_sai.c **** 
 584:./Libraries/STM32F4xx_HAL_Driver/Src/stm32f4xx_hal_sai.c ****     (+) There are two modes of transfer:
 585:./Libraries/STM32F4xx_HAL_Driver/Src/stm32f4xx_hal_sai.c ****       (++) Blocking mode : The communication is performed in the polling mode.
 586:./Libraries/STM32F4xx_HAL_Driver/Src/stm32f4xx_hal_sai.c ****            The status of all data processing is returned by the same function
 587:./Libraries/STM32F4xx_HAL_Driver/Src/stm32f4xx_hal_sai.c ****            after finishing transfer.
 588:./Libraries/STM32F4xx_HAL_Driver/Src/stm32f4xx_hal_sai.c ****       (++) No-Blocking mode : The communication is performed using Interrupts
 589:./Libraries/STM32F4xx_HAL_Driver/Src/stm32f4xx_hal_sai.c ****            or DMA. These functions return the status of the transfer startup.
 590:./Libraries/STM32F4xx_HAL_Driver/Src/stm32f4xx_hal_sai.c ****            The end of the data processing will be indicated through the
 591:./Libraries/STM32F4xx_HAL_Driver/Src/stm32f4xx_hal_sai.c ****            dedicated SAI IRQ when using Interrupt mode or the DMA IRQ when
 592:./Libraries/STM32F4xx_HAL_Driver/Src/stm32f4xx_hal_sai.c ****            using DMA mode.
 593:./Libraries/STM32F4xx_HAL_Driver/Src/stm32f4xx_hal_sai.c **** 
 594:./Libraries/STM32F4xx_HAL_Driver/Src/stm32f4xx_hal_sai.c ****     (+) Blocking mode functions are :
 595:./Libraries/STM32F4xx_HAL_Driver/Src/stm32f4xx_hal_sai.c ****       (++) HAL_SAI_Transmit()
 596:./Libraries/STM32F4xx_HAL_Driver/Src/stm32f4xx_hal_sai.c ****       (++) HAL_SAI_Receive()
 597:./Libraries/STM32F4xx_HAL_Driver/Src/stm32f4xx_hal_sai.c **** 
 598:./Libraries/STM32F4xx_HAL_Driver/Src/stm32f4xx_hal_sai.c ****     (+) Non Blocking mode functions with Interrupt are :
 599:./Libraries/STM32F4xx_HAL_Driver/Src/stm32f4xx_hal_sai.c ****       (++) HAL_SAI_Transmit_IT()
 600:./Libraries/STM32F4xx_HAL_Driver/Src/stm32f4xx_hal_sai.c ****       (++) HAL_SAI_Receive_IT()
 601:./Libraries/STM32F4xx_HAL_Driver/Src/stm32f4xx_hal_sai.c **** 
 602:./Libraries/STM32F4xx_HAL_Driver/Src/stm32f4xx_hal_sai.c ****     (+) Non Blocking mode functions with DMA are :
 603:./Libraries/STM32F4xx_HAL_Driver/Src/stm32f4xx_hal_sai.c ****       (++) HAL_SAI_Transmit_DMA()
 604:./Libraries/STM32F4xx_HAL_Driver/Src/stm32f4xx_hal_sai.c ****       (++) HAL_SAI_Receive_DMA()
 605:./Libraries/STM32F4xx_HAL_Driver/Src/stm32f4xx_hal_sai.c **** 
 606:./Libraries/STM32F4xx_HAL_Driver/Src/stm32f4xx_hal_sai.c ****     (+) A set of Transfer Complete Callbacks are provided in non Blocking mode:
 607:./Libraries/STM32F4xx_HAL_Driver/Src/stm32f4xx_hal_sai.c ****       (++) HAL_SAI_TxCpltCallback()
 608:./Libraries/STM32F4xx_HAL_Driver/Src/stm32f4xx_hal_sai.c ****       (++) HAL_SAI_RxCpltCallback()
 609:./Libraries/STM32F4xx_HAL_Driver/Src/stm32f4xx_hal_sai.c ****       (++) HAL_SAI_ErrorCallback()
 610:./Libraries/STM32F4xx_HAL_Driver/Src/stm32f4xx_hal_sai.c **** 
 611:./Libraries/STM32F4xx_HAL_Driver/Src/stm32f4xx_hal_sai.c **** @endverbatim
 612:./Libraries/STM32F4xx_HAL_Driver/Src/stm32f4xx_hal_sai.c ****   * @{
 613:./Libraries/STM32F4xx_HAL_Driver/Src/stm32f4xx_hal_sai.c ****   */
 614:./Libraries/STM32F4xx_HAL_Driver/Src/stm32f4xx_hal_sai.c **** 
ARM GAS  /tmp/cc2WvXK4.s 			page 25


 615:./Libraries/STM32F4xx_HAL_Driver/Src/stm32f4xx_hal_sai.c **** /**
 616:./Libraries/STM32F4xx_HAL_Driver/Src/stm32f4xx_hal_sai.c ****   * @brief  Transmit an amount of data in blocking mode.
 617:./Libraries/STM32F4xx_HAL_Driver/Src/stm32f4xx_hal_sai.c ****   * @param  hsai pointer to a SAI_HandleTypeDef structure that contains
 618:./Libraries/STM32F4xx_HAL_Driver/Src/stm32f4xx_hal_sai.c ****   *               the configuration information for SAI module.
 619:./Libraries/STM32F4xx_HAL_Driver/Src/stm32f4xx_hal_sai.c ****   * @param  pData Pointer to data buffer
 620:./Libraries/STM32F4xx_HAL_Driver/Src/stm32f4xx_hal_sai.c ****   * @param  Size Amount of data to be sent
 621:./Libraries/STM32F4xx_HAL_Driver/Src/stm32f4xx_hal_sai.c ****   * @param  Timeout Timeout duration
 622:./Libraries/STM32F4xx_HAL_Driver/Src/stm32f4xx_hal_sai.c ****   * @retval HAL status
 623:./Libraries/STM32F4xx_HAL_Driver/Src/stm32f4xx_hal_sai.c ****   */
 624:./Libraries/STM32F4xx_HAL_Driver/Src/stm32f4xx_hal_sai.c **** HAL_StatusTypeDef HAL_SAI_Transmit(SAI_HandleTypeDef *hsai, uint8_t* pData, uint16_t Size, uint32_t
 625:./Libraries/STM32F4xx_HAL_Driver/Src/stm32f4xx_hal_sai.c **** {
 746              		.loc 1 625 1
 747              		.cfi_startproc
 748              		@ args = 0, pretend = 0, frame = 24
 749              		@ frame_needed = 1, uses_anonymous_args = 0
 750 0000 80B5     		push	{r7, lr}
 751              	.LCFI27:
 752              		.cfi_def_cfa_offset 8
 753              		.cfi_offset 7, -8
 754              		.cfi_offset 14, -4
 755 0002 86B0     		sub	sp, sp, #24
 756              	.LCFI28:
 757              		.cfi_def_cfa_offset 32
 758 0004 00AF     		add	r7, sp, #0
 759              	.LCFI29:
 760              		.cfi_def_cfa_register 7
 761 0006 F860     		str	r0, [r7, #12]
 762 0008 B960     		str	r1, [r7, #8]
 763 000a 3B60     		str	r3, [r7]
 764 000c 1346     		mov	r3, r2	@ movhi
 765 000e FB80     		strh	r3, [r7, #6]	@ movhi
 626:./Libraries/STM32F4xx_HAL_Driver/Src/stm32f4xx_hal_sai.c ****   uint32_t tickstart = HAL_GetTick();
 766              		.loc 1 626 24
 767 0010 FFF7FEFF 		bl	HAL_GetTick
 768 0014 7861     		str	r0, [r7, #20]
 627:./Libraries/STM32F4xx_HAL_Driver/Src/stm32f4xx_hal_sai.c **** 
 628:./Libraries/STM32F4xx_HAL_Driver/Src/stm32f4xx_hal_sai.c ****   if((pData == NULL ) || (Size == 0))
 769              		.loc 1 628 5
 770 0016 BB68     		ldr	r3, [r7, #8]
 771 0018 002B     		cmp	r3, #0
 772 001a 02D0     		beq	.L35
 773              		.loc 1 628 23 discriminator 1
 774 001c FB88     		ldrh	r3, [r7, #6]
 775 001e 002B     		cmp	r3, #0
 776 0020 01D1     		bne	.L36
 777              	.L35:
 629:./Libraries/STM32F4xx_HAL_Driver/Src/stm32f4xx_hal_sai.c ****   {
 630:./Libraries/STM32F4xx_HAL_Driver/Src/stm32f4xx_hal_sai.c ****     return  HAL_ERROR;
 778              		.loc 1 630 13
 779 0022 0123     		movs	r3, #1
 780 0024 B6E0     		b	.L37
 781              	.L36:
 631:./Libraries/STM32F4xx_HAL_Driver/Src/stm32f4xx_hal_sai.c ****   }
 632:./Libraries/STM32F4xx_HAL_Driver/Src/stm32f4xx_hal_sai.c **** 
 633:./Libraries/STM32F4xx_HAL_Driver/Src/stm32f4xx_hal_sai.c ****   if(hsai->State == HAL_SAI_STATE_READY)
 782              		.loc 1 633 10
 783 0026 FB68     		ldr	r3, [r7, #12]
ARM GAS  /tmp/cc2WvXK4.s 			page 26


 784 0028 93F88130 		ldrb	r3, [r3, #129]
 785 002c DBB2     		uxtb	r3, r3
 786              		.loc 1 633 5
 787 002e 012B     		cmp	r3, #1
 788 0030 40F0AF80 		bne	.L38
 634:./Libraries/STM32F4xx_HAL_Driver/Src/stm32f4xx_hal_sai.c ****   {
 635:./Libraries/STM32F4xx_HAL_Driver/Src/stm32f4xx_hal_sai.c ****     /* Process Locked */
 636:./Libraries/STM32F4xx_HAL_Driver/Src/stm32f4xx_hal_sai.c ****     __HAL_LOCK(hsai);
 789              		.loc 1 636 5
 790 0034 FB68     		ldr	r3, [r7, #12]
 791 0036 93F88030 		ldrb	r3, [r3, #128]	@ zero_extendqisi2
 792 003a 012B     		cmp	r3, #1
 793 003c 01D1     		bne	.L39
 794              		.loc 1 636 5 is_stmt 0 discriminator 1
 795 003e 0223     		movs	r3, #2
 796 0040 A8E0     		b	.L37
 797              	.L39:
 798              		.loc 1 636 5 discriminator 2
 799 0042 FB68     		ldr	r3, [r7, #12]
 800 0044 0122     		movs	r2, #1
 801 0046 83F88020 		strb	r2, [r3, #128]
 637:./Libraries/STM32F4xx_HAL_Driver/Src/stm32f4xx_hal_sai.c **** 
 638:./Libraries/STM32F4xx_HAL_Driver/Src/stm32f4xx_hal_sai.c ****     hsai->XferSize = Size;
 802              		.loc 1 638 20 is_stmt 1 discriminator 2
 803 004a FB68     		ldr	r3, [r7, #12]
 804 004c FA88     		ldrh	r2, [r7, #6]	@ movhi
 805 004e A3F86C20 		strh	r2, [r3, #108]	@ movhi
 639:./Libraries/STM32F4xx_HAL_Driver/Src/stm32f4xx_hal_sai.c ****     hsai->XferCount = Size;
 806              		.loc 1 639 21 discriminator 2
 807 0052 FB68     		ldr	r3, [r7, #12]
 808 0054 FA88     		ldrh	r2, [r7, #6]	@ movhi
 809 0056 A3F86E20 		strh	r2, [r3, #110]	@ movhi
 640:./Libraries/STM32F4xx_HAL_Driver/Src/stm32f4xx_hal_sai.c ****     hsai->pBuffPtr = pData;
 810              		.loc 1 640 20 discriminator 2
 811 005a FB68     		ldr	r3, [r7, #12]
 812 005c BA68     		ldr	r2, [r7, #8]
 813 005e 9A66     		str	r2, [r3, #104]
 641:./Libraries/STM32F4xx_HAL_Driver/Src/stm32f4xx_hal_sai.c ****     hsai->State = HAL_SAI_STATE_BUSY_TX;
 814              		.loc 1 641 17 discriminator 2
 815 0060 FB68     		ldr	r3, [r7, #12]
 816 0062 1222     		movs	r2, #18
 817 0064 83F88120 		strb	r2, [r3, #129]
 642:./Libraries/STM32F4xx_HAL_Driver/Src/stm32f4xx_hal_sai.c ****     hsai->ErrorCode = HAL_SAI_ERROR_NONE;
 818              		.loc 1 642 21 discriminator 2
 819 0068 FB68     		ldr	r3, [r7, #12]
 820 006a 0022     		movs	r2, #0
 821 006c C3F88420 		str	r2, [r3, #132]
 643:./Libraries/STM32F4xx_HAL_Driver/Src/stm32f4xx_hal_sai.c **** 
 644:./Libraries/STM32F4xx_HAL_Driver/Src/stm32f4xx_hal_sai.c ****     /* Check if the SAI is already enabled */
 645:./Libraries/STM32F4xx_HAL_Driver/Src/stm32f4xx_hal_sai.c ****     if((hsai->Instance->CR1 & SAI_xCR1_SAIEN) == RESET)
 822              		.loc 1 645 13 discriminator 2
 823 0070 FB68     		ldr	r3, [r7, #12]
 824 0072 1B68     		ldr	r3, [r3]
 825              		.loc 1 645 23 discriminator 2
 826 0074 1B68     		ldr	r3, [r3]
 827              		.loc 1 645 29 discriminator 2
 828 0076 03F48033 		and	r3, r3, #65536
ARM GAS  /tmp/cc2WvXK4.s 			page 27


 829              		.loc 1 645 7 discriminator 2
 830 007a 002B     		cmp	r3, #0
 831 007c 7AD1     		bne	.L41
 646:./Libraries/STM32F4xx_HAL_Driver/Src/stm32f4xx_hal_sai.c ****     {
 647:./Libraries/STM32F4xx_HAL_Driver/Src/stm32f4xx_hal_sai.c ****       /* fill the fifo with data before to enabled the SAI */
 648:./Libraries/STM32F4xx_HAL_Driver/Src/stm32f4xx_hal_sai.c ****       SAI_FillFifo(hsai);
 832              		.loc 1 648 7
 833 007e F868     		ldr	r0, [r7, #12]
 834 0080 FFF7FEFF 		bl	SAI_FillFifo
 649:./Libraries/STM32F4xx_HAL_Driver/Src/stm32f4xx_hal_sai.c ****       /* Enable SAI peripheral */
 650:./Libraries/STM32F4xx_HAL_Driver/Src/stm32f4xx_hal_sai.c ****       __HAL_SAI_ENABLE(hsai);
 835              		.loc 1 650 7
 836 0084 FB68     		ldr	r3, [r7, #12]
 837 0086 1B68     		ldr	r3, [r3]
 838 0088 1A68     		ldr	r2, [r3]
 839 008a FB68     		ldr	r3, [r7, #12]
 840 008c 1B68     		ldr	r3, [r3]
 841 008e 42F48032 		orr	r2, r2, #65536
 842 0092 1A60     		str	r2, [r3]
 651:./Libraries/STM32F4xx_HAL_Driver/Src/stm32f4xx_hal_sai.c ****     }
 652:./Libraries/STM32F4xx_HAL_Driver/Src/stm32f4xx_hal_sai.c **** 
 653:./Libraries/STM32F4xx_HAL_Driver/Src/stm32f4xx_hal_sai.c ****     while(hsai->XferCount > 0U)
 843              		.loc 1 653 10
 844 0094 6EE0     		b	.L41
 845              	.L47:
 654:./Libraries/STM32F4xx_HAL_Driver/Src/stm32f4xx_hal_sai.c ****     {
 655:./Libraries/STM32F4xx_HAL_Driver/Src/stm32f4xx_hal_sai.c ****       /* Write data if the FIFO is not full */
 656:./Libraries/STM32F4xx_HAL_Driver/Src/stm32f4xx_hal_sai.c ****       if((hsai->Instance->SR & SAI_xSR_FLVL) != SAI_FIFOSTATUS_FULL)
 846              		.loc 1 656 15
 847 0096 FB68     		ldr	r3, [r7, #12]
 848 0098 1B68     		ldr	r3, [r3]
 849              		.loc 1 656 25
 850 009a 5B69     		ldr	r3, [r3, #20]
 851              		.loc 1 656 30
 852 009c 03F4E023 		and	r3, r3, #458752
 853              		.loc 1 656 9
 854 00a0 B3F5A02F 		cmp	r3, #327680
 855 00a4 35D0     		beq	.L42
 657:./Libraries/STM32F4xx_HAL_Driver/Src/stm32f4xx_hal_sai.c ****       {
 658:./Libraries/STM32F4xx_HAL_Driver/Src/stm32f4xx_hal_sai.c ****         if((hsai->Init.DataSize == SAI_DATASIZE_8) && (hsai->Init.CompandingMode == SAI_NOCOMPANDIN
 856              		.loc 1 658 23
 857 00a6 FB68     		ldr	r3, [r7, #12]
 858 00a8 9B6B     		ldr	r3, [r3, #56]
 859              		.loc 1 658 11
 860 00aa 402B     		cmp	r3, #64
 861 00ac 0DD1     		bne	.L43
 862              		.loc 1 658 66 discriminator 1
 863 00ae FB68     		ldr	r3, [r7, #12]
 864 00b0 DB6A     		ldr	r3, [r3, #44]
 865              		.loc 1 658 52 discriminator 1
 866 00b2 002B     		cmp	r3, #0
 867 00b4 09D1     		bne	.L43
 659:./Libraries/STM32F4xx_HAL_Driver/Src/stm32f4xx_hal_sai.c ****         {
 660:./Libraries/STM32F4xx_HAL_Driver/Src/stm32f4xx_hal_sai.c ****           hsai->Instance->DR = (*hsai->pBuffPtr++);
 868              		.loc 1 660 38
 869 00b6 FB68     		ldr	r3, [r7, #12]
 870 00b8 9B6E     		ldr	r3, [r3, #104]
ARM GAS  /tmp/cc2WvXK4.s 			page 28


 871              		.loc 1 660 48
 872 00ba 591C     		adds	r1, r3, #1
 873 00bc FA68     		ldr	r2, [r7, #12]
 874 00be 9166     		str	r1, [r2, #104]
 875              		.loc 1 660 33
 876 00c0 1A78     		ldrb	r2, [r3]	@ zero_extendqisi2
 877              		.loc 1 660 15
 878 00c2 FB68     		ldr	r3, [r7, #12]
 879 00c4 1B68     		ldr	r3, [r3]
 880              		.loc 1 660 30
 881 00c6 DA61     		str	r2, [r3, #28]
 882 00c8 1AE0     		b	.L44
 883              	.L43:
 661:./Libraries/STM32F4xx_HAL_Driver/Src/stm32f4xx_hal_sai.c ****         }
 662:./Libraries/STM32F4xx_HAL_Driver/Src/stm32f4xx_hal_sai.c ****         else if(hsai->Init.DataSize <= SAI_DATASIZE_16)
 884              		.loc 1 662 27
 885 00ca FB68     		ldr	r3, [r7, #12]
 886 00cc 9B6B     		ldr	r3, [r3, #56]
 887              		.loc 1 662 16
 888 00ce 802B     		cmp	r3, #128
 889 00d0 0BD8     		bhi	.L45
 663:./Libraries/STM32F4xx_HAL_Driver/Src/stm32f4xx_hal_sai.c ****         {
 664:./Libraries/STM32F4xx_HAL_Driver/Src/stm32f4xx_hal_sai.c ****           hsai->Instance->DR = *((uint16_t *)hsai->pBuffPtr);
 890              		.loc 1 664 50
 891 00d2 FB68     		ldr	r3, [r7, #12]
 892 00d4 9B6E     		ldr	r3, [r3, #104]
 893              		.loc 1 664 32
 894 00d6 1A88     		ldrh	r2, [r3]
 895              		.loc 1 664 15
 896 00d8 FB68     		ldr	r3, [r7, #12]
 897 00da 1B68     		ldr	r3, [r3]
 898              		.loc 1 664 30
 899 00dc DA61     		str	r2, [r3, #28]
 665:./Libraries/STM32F4xx_HAL_Driver/Src/stm32f4xx_hal_sai.c ****           hsai->pBuffPtr+= 2U;
 900              		.loc 1 665 25
 901 00de FB68     		ldr	r3, [r7, #12]
 902 00e0 9B6E     		ldr	r3, [r3, #104]
 903 00e2 9A1C     		adds	r2, r3, #2
 904 00e4 FB68     		ldr	r3, [r7, #12]
 905 00e6 9A66     		str	r2, [r3, #104]
 906 00e8 0AE0     		b	.L44
 907              	.L45:
 666:./Libraries/STM32F4xx_HAL_Driver/Src/stm32f4xx_hal_sai.c ****         }
 667:./Libraries/STM32F4xx_HAL_Driver/Src/stm32f4xx_hal_sai.c ****         else
 668:./Libraries/STM32F4xx_HAL_Driver/Src/stm32f4xx_hal_sai.c ****         {
 669:./Libraries/STM32F4xx_HAL_Driver/Src/stm32f4xx_hal_sai.c ****           hsai->Instance->DR = *((uint32_t *)hsai->pBuffPtr);
 908              		.loc 1 669 50
 909 00ea FB68     		ldr	r3, [r7, #12]
 910 00ec 9A6E     		ldr	r2, [r3, #104]
 911              		.loc 1 669 15
 912 00ee FB68     		ldr	r3, [r7, #12]
 913 00f0 1B68     		ldr	r3, [r3]
 914              		.loc 1 669 32
 915 00f2 1268     		ldr	r2, [r2]
 916              		.loc 1 669 30
 917 00f4 DA61     		str	r2, [r3, #28]
 670:./Libraries/STM32F4xx_HAL_Driver/Src/stm32f4xx_hal_sai.c ****           hsai->pBuffPtr+= 4U;
ARM GAS  /tmp/cc2WvXK4.s 			page 29


 918              		.loc 1 670 25
 919 00f6 FB68     		ldr	r3, [r7, #12]
 920 00f8 9B6E     		ldr	r3, [r3, #104]
 921 00fa 1A1D     		adds	r2, r3, #4
 922 00fc FB68     		ldr	r3, [r7, #12]
 923 00fe 9A66     		str	r2, [r3, #104]
 924              	.L44:
 671:./Libraries/STM32F4xx_HAL_Driver/Src/stm32f4xx_hal_sai.c ****         }
 672:./Libraries/STM32F4xx_HAL_Driver/Src/stm32f4xx_hal_sai.c ****         hsai->XferCount--;
 925              		.loc 1 672 13
 926 0100 FB68     		ldr	r3, [r7, #12]
 927 0102 B3F86E30 		ldrh	r3, [r3, #110]
 928              		.loc 1 672 24
 929 0106 013B     		subs	r3, r3, #1
 930 0108 9AB2     		uxth	r2, r3
 931 010a FB68     		ldr	r3, [r7, #12]
 932 010c A3F86E20 		strh	r2, [r3, #110]	@ movhi
 933 0110 30E0     		b	.L41
 934              	.L42:
 673:./Libraries/STM32F4xx_HAL_Driver/Src/stm32f4xx_hal_sai.c ****       }
 674:./Libraries/STM32F4xx_HAL_Driver/Src/stm32f4xx_hal_sai.c ****       else
 675:./Libraries/STM32F4xx_HAL_Driver/Src/stm32f4xx_hal_sai.c ****       {
 676:./Libraries/STM32F4xx_HAL_Driver/Src/stm32f4xx_hal_sai.c ****         /* Check for the Timeout */
 677:./Libraries/STM32F4xx_HAL_Driver/Src/stm32f4xx_hal_sai.c ****         if((Timeout != HAL_MAX_DELAY) && ((Timeout == 0U)||((HAL_GetTick() - tickstart) > Timeout))
 935              		.loc 1 677 11
 936 0112 3B68     		ldr	r3, [r7]
 937 0114 B3F1FF3F 		cmp	r3, #-1
 938 0118 2CD0     		beq	.L41
 939              		.loc 1 677 39 discriminator 1
 940 011a 3B68     		ldr	r3, [r7]
 941 011c 002B     		cmp	r3, #0
 942 011e 07D0     		beq	.L46
 943              		.loc 1 677 62 discriminator 2
 944 0120 FFF7FEFF 		bl	HAL_GetTick
 945 0124 0246     		mov	r2, r0
 946              		.loc 1 677 76 discriminator 2
 947 0126 7B69     		ldr	r3, [r7, #20]
 948 0128 D31A     		subs	r3, r2, r3
 949              		.loc 1 677 58 discriminator 2
 950 012a 3A68     		ldr	r2, [r7]
 951 012c 9A42     		cmp	r2, r3
 952 012e 21D2     		bcs	.L41
 953              	.L46:
 678:./Libraries/STM32F4xx_HAL_Driver/Src/stm32f4xx_hal_sai.c ****         {
 679:./Libraries/STM32F4xx_HAL_Driver/Src/stm32f4xx_hal_sai.c ****           /* Update error code */
 680:./Libraries/STM32F4xx_HAL_Driver/Src/stm32f4xx_hal_sai.c ****           hsai->ErrorCode |= HAL_SAI_ERROR_TIMEOUT;
 954              		.loc 1 680 27
 955 0130 FB68     		ldr	r3, [r7, #12]
 956 0132 D3F88430 		ldr	r3, [r3, #132]
 957 0136 43F04002 		orr	r2, r3, #64
 958 013a FB68     		ldr	r3, [r7, #12]
 959 013c C3F88420 		str	r2, [r3, #132]
 681:./Libraries/STM32F4xx_HAL_Driver/Src/stm32f4xx_hal_sai.c **** 
 682:./Libraries/STM32F4xx_HAL_Driver/Src/stm32f4xx_hal_sai.c ****           /* Clear all the flags */
 683:./Libraries/STM32F4xx_HAL_Driver/Src/stm32f4xx_hal_sai.c ****           hsai->Instance->CLRFR = 0xFFFFFFFFU;
 960              		.loc 1 683 15
 961 0140 FB68     		ldr	r3, [r7, #12]
ARM GAS  /tmp/cc2WvXK4.s 			page 30


 962 0142 1B68     		ldr	r3, [r3]
 963              		.loc 1 683 33
 964 0144 4FF0FF32 		mov	r2, #-1
 965 0148 9A61     		str	r2, [r3, #24]
 684:./Libraries/STM32F4xx_HAL_Driver/Src/stm32f4xx_hal_sai.c **** 
 685:./Libraries/STM32F4xx_HAL_Driver/Src/stm32f4xx_hal_sai.c ****           /* Disable SAI peripheral */
 686:./Libraries/STM32F4xx_HAL_Driver/Src/stm32f4xx_hal_sai.c ****           SAI_Disable(hsai);
 966              		.loc 1 686 11
 967 014a F868     		ldr	r0, [r7, #12]
 968 014c FFF7FEFF 		bl	SAI_Disable
 687:./Libraries/STM32F4xx_HAL_Driver/Src/stm32f4xx_hal_sai.c **** 
 688:./Libraries/STM32F4xx_HAL_Driver/Src/stm32f4xx_hal_sai.c ****           /* Flush the fifo */
 689:./Libraries/STM32F4xx_HAL_Driver/Src/stm32f4xx_hal_sai.c ****           SET_BIT(hsai->Instance->CR2, SAI_xCR2_FFLUSH);
 969              		.loc 1 689 11
 970 0150 FB68     		ldr	r3, [r7, #12]
 971 0152 1B68     		ldr	r3, [r3]
 972 0154 5A68     		ldr	r2, [r3, #4]
 973 0156 FB68     		ldr	r3, [r7, #12]
 974 0158 1B68     		ldr	r3, [r3]
 975 015a 42F00802 		orr	r2, r2, #8
 976 015e 5A60     		str	r2, [r3, #4]
 690:./Libraries/STM32F4xx_HAL_Driver/Src/stm32f4xx_hal_sai.c **** 
 691:./Libraries/STM32F4xx_HAL_Driver/Src/stm32f4xx_hal_sai.c ****           /* Change the SAI state */
 692:./Libraries/STM32F4xx_HAL_Driver/Src/stm32f4xx_hal_sai.c ****           hsai->State = HAL_SAI_STATE_READY;
 977              		.loc 1 692 23
 978 0160 FB68     		ldr	r3, [r7, #12]
 979 0162 0122     		movs	r2, #1
 980 0164 83F88120 		strb	r2, [r3, #129]
 693:./Libraries/STM32F4xx_HAL_Driver/Src/stm32f4xx_hal_sai.c **** 
 694:./Libraries/STM32F4xx_HAL_Driver/Src/stm32f4xx_hal_sai.c ****           /* Process Unlocked */
 695:./Libraries/STM32F4xx_HAL_Driver/Src/stm32f4xx_hal_sai.c ****           __HAL_UNLOCK(hsai);
 981              		.loc 1 695 11
 982 0168 FB68     		ldr	r3, [r7, #12]
 983 016a 0022     		movs	r2, #0
 984 016c 83F88020 		strb	r2, [r3, #128]
 696:./Libraries/STM32F4xx_HAL_Driver/Src/stm32f4xx_hal_sai.c **** 
 697:./Libraries/STM32F4xx_HAL_Driver/Src/stm32f4xx_hal_sai.c ****           return HAL_ERROR;
 985              		.loc 1 697 18
 986 0170 0123     		movs	r3, #1
 987 0172 0FE0     		b	.L37
 988              	.L41:
 653:./Libraries/STM32F4xx_HAL_Driver/Src/stm32f4xx_hal_sai.c ****     {
 989              		.loc 1 653 15
 990 0174 FB68     		ldr	r3, [r7, #12]
 991 0176 B3F86E30 		ldrh	r3, [r3, #110]
 653:./Libraries/STM32F4xx_HAL_Driver/Src/stm32f4xx_hal_sai.c ****     {
 992              		.loc 1 653 10
 993 017a 002B     		cmp	r3, #0
 994 017c 8BD1     		bne	.L47
 698:./Libraries/STM32F4xx_HAL_Driver/Src/stm32f4xx_hal_sai.c ****         }
 699:./Libraries/STM32F4xx_HAL_Driver/Src/stm32f4xx_hal_sai.c ****       }
 700:./Libraries/STM32F4xx_HAL_Driver/Src/stm32f4xx_hal_sai.c ****     }
 701:./Libraries/STM32F4xx_HAL_Driver/Src/stm32f4xx_hal_sai.c **** 
 702:./Libraries/STM32F4xx_HAL_Driver/Src/stm32f4xx_hal_sai.c ****     hsai->State = HAL_SAI_STATE_READY;
 995              		.loc 1 702 17
 996 017e FB68     		ldr	r3, [r7, #12]
 997 0180 0122     		movs	r2, #1
ARM GAS  /tmp/cc2WvXK4.s 			page 31


 998 0182 83F88120 		strb	r2, [r3, #129]
 703:./Libraries/STM32F4xx_HAL_Driver/Src/stm32f4xx_hal_sai.c **** 
 704:./Libraries/STM32F4xx_HAL_Driver/Src/stm32f4xx_hal_sai.c ****     /* Process Unlocked */
 705:./Libraries/STM32F4xx_HAL_Driver/Src/stm32f4xx_hal_sai.c ****     __HAL_UNLOCK(hsai);
 999              		.loc 1 705 5
 1000 0186 FB68     		ldr	r3, [r7, #12]
 1001 0188 0022     		movs	r2, #0
 1002 018a 83F88020 		strb	r2, [r3, #128]
 706:./Libraries/STM32F4xx_HAL_Driver/Src/stm32f4xx_hal_sai.c **** 
 707:./Libraries/STM32F4xx_HAL_Driver/Src/stm32f4xx_hal_sai.c ****     return HAL_OK;
 1003              		.loc 1 707 12
 1004 018e 0023     		movs	r3, #0
 1005 0190 00E0     		b	.L37
 1006              	.L38:
 708:./Libraries/STM32F4xx_HAL_Driver/Src/stm32f4xx_hal_sai.c ****   }
 709:./Libraries/STM32F4xx_HAL_Driver/Src/stm32f4xx_hal_sai.c ****   else
 710:./Libraries/STM32F4xx_HAL_Driver/Src/stm32f4xx_hal_sai.c ****   {
 711:./Libraries/STM32F4xx_HAL_Driver/Src/stm32f4xx_hal_sai.c ****     return HAL_BUSY;
 1007              		.loc 1 711 12
 1008 0192 0223     		movs	r3, #2
 1009              	.L37:
 712:./Libraries/STM32F4xx_HAL_Driver/Src/stm32f4xx_hal_sai.c ****   }
 713:./Libraries/STM32F4xx_HAL_Driver/Src/stm32f4xx_hal_sai.c **** }
 1010              		.loc 1 713 1
 1011 0194 1846     		mov	r0, r3
 1012 0196 1837     		adds	r7, r7, #24
 1013              	.LCFI30:
 1014              		.cfi_def_cfa_offset 8
 1015 0198 BD46     		mov	sp, r7
 1016              	.LCFI31:
 1017              		.cfi_def_cfa_register 13
 1018              		@ sp needed
 1019 019a 80BD     		pop	{r7, pc}
 1020              		.cfi_endproc
 1021              	.LFE131:
 1023              		.section	.text.HAL_SAI_Receive,"ax",%progbits
 1024              		.align	1
 1025              		.global	HAL_SAI_Receive
 1026              		.syntax unified
 1027              		.thumb
 1028              		.thumb_func
 1029              		.fpu fpv4-sp-d16
 1031              	HAL_SAI_Receive:
 1032              	.LFB132:
 714:./Libraries/STM32F4xx_HAL_Driver/Src/stm32f4xx_hal_sai.c **** 
 715:./Libraries/STM32F4xx_HAL_Driver/Src/stm32f4xx_hal_sai.c **** /**
 716:./Libraries/STM32F4xx_HAL_Driver/Src/stm32f4xx_hal_sai.c ****   * @brief  Receive an amount of data in blocking mode.
 717:./Libraries/STM32F4xx_HAL_Driver/Src/stm32f4xx_hal_sai.c ****   * @param  hsai pointer to a SAI_HandleTypeDef structure that contains
 718:./Libraries/STM32F4xx_HAL_Driver/Src/stm32f4xx_hal_sai.c ****   *               the configuration information for SAI module.
 719:./Libraries/STM32F4xx_HAL_Driver/Src/stm32f4xx_hal_sai.c ****   * @param  pData Pointer to data buffer
 720:./Libraries/STM32F4xx_HAL_Driver/Src/stm32f4xx_hal_sai.c ****   * @param  Size Amount of data to be received
 721:./Libraries/STM32F4xx_HAL_Driver/Src/stm32f4xx_hal_sai.c ****   * @param  Timeout Timeout duration
 722:./Libraries/STM32F4xx_HAL_Driver/Src/stm32f4xx_hal_sai.c ****   * @retval HAL status
 723:./Libraries/STM32F4xx_HAL_Driver/Src/stm32f4xx_hal_sai.c ****   */
 724:./Libraries/STM32F4xx_HAL_Driver/Src/stm32f4xx_hal_sai.c **** HAL_StatusTypeDef HAL_SAI_Receive(SAI_HandleTypeDef *hsai, uint8_t *pData, uint16_t Size, uint32_t 
 725:./Libraries/STM32F4xx_HAL_Driver/Src/stm32f4xx_hal_sai.c **** {
 1033              		.loc 1 725 1
ARM GAS  /tmp/cc2WvXK4.s 			page 32


 1034              		.cfi_startproc
 1035              		@ args = 0, pretend = 0, frame = 24
 1036              		@ frame_needed = 1, uses_anonymous_args = 0
 1037 0000 80B5     		push	{r7, lr}
 1038              	.LCFI32:
 1039              		.cfi_def_cfa_offset 8
 1040              		.cfi_offset 7, -8
 1041              		.cfi_offset 14, -4
 1042 0002 86B0     		sub	sp, sp, #24
 1043              	.LCFI33:
 1044              		.cfi_def_cfa_offset 32
 1045 0004 00AF     		add	r7, sp, #0
 1046              	.LCFI34:
 1047              		.cfi_def_cfa_register 7
 1048 0006 F860     		str	r0, [r7, #12]
 1049 0008 B960     		str	r1, [r7, #8]
 1050 000a 3B60     		str	r3, [r7]
 1051 000c 1346     		mov	r3, r2	@ movhi
 1052 000e FB80     		strh	r3, [r7, #6]	@ movhi
 726:./Libraries/STM32F4xx_HAL_Driver/Src/stm32f4xx_hal_sai.c ****   uint32_t tickstart = HAL_GetTick();
 1053              		.loc 1 726 24
 1054 0010 FFF7FEFF 		bl	HAL_GetTick
 1055 0014 7861     		str	r0, [r7, #20]
 727:./Libraries/STM32F4xx_HAL_Driver/Src/stm32f4xx_hal_sai.c **** 
 728:./Libraries/STM32F4xx_HAL_Driver/Src/stm32f4xx_hal_sai.c ****   if((pData == NULL ) || (Size == 0)) 
 1056              		.loc 1 728 5
 1057 0016 BB68     		ldr	r3, [r7, #8]
 1058 0018 002B     		cmp	r3, #0
 1059 001a 02D0     		beq	.L49
 1060              		.loc 1 728 23 discriminator 1
 1061 001c FB88     		ldrh	r3, [r7, #6]
 1062 001e 002B     		cmp	r3, #0
 1063 0020 01D1     		bne	.L50
 1064              	.L49:
 729:./Libraries/STM32F4xx_HAL_Driver/Src/stm32f4xx_hal_sai.c ****   {
 730:./Libraries/STM32F4xx_HAL_Driver/Src/stm32f4xx_hal_sai.c ****     return  HAL_ERROR;
 1065              		.loc 1 730 13
 1066 0022 0123     		movs	r3, #1
 1067 0024 B4E0     		b	.L51
 1068              	.L50:
 731:./Libraries/STM32F4xx_HAL_Driver/Src/stm32f4xx_hal_sai.c ****   }
 732:./Libraries/STM32F4xx_HAL_Driver/Src/stm32f4xx_hal_sai.c **** 
 733:./Libraries/STM32F4xx_HAL_Driver/Src/stm32f4xx_hal_sai.c ****   if(hsai->State == HAL_SAI_STATE_READY)
 1069              		.loc 1 733 10
 1070 0026 FB68     		ldr	r3, [r7, #12]
 1071 0028 93F88130 		ldrb	r3, [r3, #129]
 1072 002c DBB2     		uxtb	r3, r3
 1073              		.loc 1 733 5
 1074 002e 012B     		cmp	r3, #1
 1075 0030 40F0AD80 		bne	.L52
 734:./Libraries/STM32F4xx_HAL_Driver/Src/stm32f4xx_hal_sai.c ****   {
 735:./Libraries/STM32F4xx_HAL_Driver/Src/stm32f4xx_hal_sai.c ****     /* Process Locked */
 736:./Libraries/STM32F4xx_HAL_Driver/Src/stm32f4xx_hal_sai.c ****     __HAL_LOCK(hsai);
 1076              		.loc 1 736 5
 1077 0034 FB68     		ldr	r3, [r7, #12]
 1078 0036 93F88030 		ldrb	r3, [r3, #128]	@ zero_extendqisi2
 1079 003a 012B     		cmp	r3, #1
ARM GAS  /tmp/cc2WvXK4.s 			page 33


 1080 003c 01D1     		bne	.L53
 1081              		.loc 1 736 5 is_stmt 0 discriminator 1
 1082 003e 0223     		movs	r3, #2
 1083 0040 A6E0     		b	.L51
 1084              	.L53:
 1085              		.loc 1 736 5 discriminator 2
 1086 0042 FB68     		ldr	r3, [r7, #12]
 1087 0044 0122     		movs	r2, #1
 1088 0046 83F88020 		strb	r2, [r3, #128]
 737:./Libraries/STM32F4xx_HAL_Driver/Src/stm32f4xx_hal_sai.c **** 
 738:./Libraries/STM32F4xx_HAL_Driver/Src/stm32f4xx_hal_sai.c ****     hsai->pBuffPtr = pData;
 1089              		.loc 1 738 20 is_stmt 1 discriminator 2
 1090 004a FB68     		ldr	r3, [r7, #12]
 1091 004c BA68     		ldr	r2, [r7, #8]
 1092 004e 9A66     		str	r2, [r3, #104]
 739:./Libraries/STM32F4xx_HAL_Driver/Src/stm32f4xx_hal_sai.c ****     hsai->XferSize = Size;
 1093              		.loc 1 739 20 discriminator 2
 1094 0050 FB68     		ldr	r3, [r7, #12]
 1095 0052 FA88     		ldrh	r2, [r7, #6]	@ movhi
 1096 0054 A3F86C20 		strh	r2, [r3, #108]	@ movhi
 740:./Libraries/STM32F4xx_HAL_Driver/Src/stm32f4xx_hal_sai.c ****     hsai->XferCount = Size;
 1097              		.loc 1 740 21 discriminator 2
 1098 0058 FB68     		ldr	r3, [r7, #12]
 1099 005a FA88     		ldrh	r2, [r7, #6]	@ movhi
 1100 005c A3F86E20 		strh	r2, [r3, #110]	@ movhi
 741:./Libraries/STM32F4xx_HAL_Driver/Src/stm32f4xx_hal_sai.c ****     hsai->State = HAL_SAI_STATE_BUSY_RX;
 1101              		.loc 1 741 17 discriminator 2
 1102 0060 FB68     		ldr	r3, [r7, #12]
 1103 0062 2222     		movs	r2, #34
 1104 0064 83F88120 		strb	r2, [r3, #129]
 742:./Libraries/STM32F4xx_HAL_Driver/Src/stm32f4xx_hal_sai.c ****     hsai->ErrorCode = HAL_SAI_ERROR_NONE;
 1105              		.loc 1 742 21 discriminator 2
 1106 0068 FB68     		ldr	r3, [r7, #12]
 1107 006a 0022     		movs	r2, #0
 1108 006c C3F88420 		str	r2, [r3, #132]
 743:./Libraries/STM32F4xx_HAL_Driver/Src/stm32f4xx_hal_sai.c **** 
 744:./Libraries/STM32F4xx_HAL_Driver/Src/stm32f4xx_hal_sai.c ****     /* Check if the SAI is already enabled */
 745:./Libraries/STM32F4xx_HAL_Driver/Src/stm32f4xx_hal_sai.c ****     if((hsai->Instance->CR1 & SAI_xCR1_SAIEN) == RESET)
 1109              		.loc 1 745 13 discriminator 2
 1110 0070 FB68     		ldr	r3, [r7, #12]
 1111 0072 1B68     		ldr	r3, [r3]
 1112              		.loc 1 745 23 discriminator 2
 1113 0074 1B68     		ldr	r3, [r3]
 1114              		.loc 1 745 29 discriminator 2
 1115 0076 03F48033 		and	r3, r3, #65536
 1116              		.loc 1 745 7 discriminator 2
 1117 007a 002B     		cmp	r3, #0
 1118 007c 78D1     		bne	.L55
 746:./Libraries/STM32F4xx_HAL_Driver/Src/stm32f4xx_hal_sai.c ****     {
 747:./Libraries/STM32F4xx_HAL_Driver/Src/stm32f4xx_hal_sai.c ****       /* Enable SAI peripheral */
 748:./Libraries/STM32F4xx_HAL_Driver/Src/stm32f4xx_hal_sai.c ****       __HAL_SAI_ENABLE(hsai);
 1119              		.loc 1 748 7
 1120 007e FB68     		ldr	r3, [r7, #12]
 1121 0080 1B68     		ldr	r3, [r3]
 1122 0082 1A68     		ldr	r2, [r3]
 1123 0084 FB68     		ldr	r3, [r7, #12]
 1124 0086 1B68     		ldr	r3, [r3]
ARM GAS  /tmp/cc2WvXK4.s 			page 34


 1125 0088 42F48032 		orr	r2, r2, #65536
 1126 008c 1A60     		str	r2, [r3]
 749:./Libraries/STM32F4xx_HAL_Driver/Src/stm32f4xx_hal_sai.c ****     }
 750:./Libraries/STM32F4xx_HAL_Driver/Src/stm32f4xx_hal_sai.c **** 
 751:./Libraries/STM32F4xx_HAL_Driver/Src/stm32f4xx_hal_sai.c ****     /* Receive data */
 752:./Libraries/STM32F4xx_HAL_Driver/Src/stm32f4xx_hal_sai.c ****     while(hsai->XferCount > 0U)
 1127              		.loc 1 752 10
 1128 008e 6FE0     		b	.L55
 1129              	.L61:
 753:./Libraries/STM32F4xx_HAL_Driver/Src/stm32f4xx_hal_sai.c ****     {
 754:./Libraries/STM32F4xx_HAL_Driver/Src/stm32f4xx_hal_sai.c ****       if((hsai->Instance->SR & SAI_xSR_FLVL) != SAI_FIFOSTATUS_EMPTY)
 1130              		.loc 1 754 15
 1131 0090 FB68     		ldr	r3, [r7, #12]
 1132 0092 1B68     		ldr	r3, [r3]
 1133              		.loc 1 754 25
 1134 0094 5B69     		ldr	r3, [r3, #20]
 1135              		.loc 1 754 30
 1136 0096 03F4E023 		and	r3, r3, #458752
 1137              		.loc 1 754 9
 1138 009a 002B     		cmp	r3, #0
 1139 009c 37D0     		beq	.L56
 755:./Libraries/STM32F4xx_HAL_Driver/Src/stm32f4xx_hal_sai.c ****       {
 756:./Libraries/STM32F4xx_HAL_Driver/Src/stm32f4xx_hal_sai.c ****         if((hsai->Init.DataSize == SAI_DATASIZE_8) && (hsai->Init.CompandingMode == SAI_NOCOMPANDIN
 1140              		.loc 1 756 23
 1141 009e FB68     		ldr	r3, [r7, #12]
 1142 00a0 9B6B     		ldr	r3, [r3, #56]
 1143              		.loc 1 756 11
 1144 00a2 402B     		cmp	r3, #64
 1145 00a4 0ED1     		bne	.L57
 1146              		.loc 1 756 66 discriminator 1
 1147 00a6 FB68     		ldr	r3, [r7, #12]
 1148 00a8 DB6A     		ldr	r3, [r3, #44]
 1149              		.loc 1 756 52 discriminator 1
 1150 00aa 002B     		cmp	r3, #0
 1151 00ac 0AD1     		bne	.L57
 757:./Libraries/STM32F4xx_HAL_Driver/Src/stm32f4xx_hal_sai.c ****         {
 758:./Libraries/STM32F4xx_HAL_Driver/Src/stm32f4xx_hal_sai.c ****           (*hsai->pBuffPtr++) = hsai->Instance->DR;
 1152              		.loc 1 758 37
 1153 00ae FB68     		ldr	r3, [r7, #12]
 1154 00b0 1B68     		ldr	r3, [r3]
 1155              		.loc 1 758 47
 1156 00b2 D869     		ldr	r0, [r3, #28]
 1157              		.loc 1 758 17
 1158 00b4 FB68     		ldr	r3, [r7, #12]
 1159 00b6 9B6E     		ldr	r3, [r3, #104]
 1160              		.loc 1 758 27
 1161 00b8 591C     		adds	r1, r3, #1
 1162 00ba FA68     		ldr	r2, [r7, #12]
 1163 00bc 9166     		str	r1, [r2, #104]
 1164              		.loc 1 758 31
 1165 00be C2B2     		uxtb	r2, r0
 1166 00c0 1A70     		strb	r2, [r3]
 1167 00c2 1BE0     		b	.L58
 1168              	.L57:
 759:./Libraries/STM32F4xx_HAL_Driver/Src/stm32f4xx_hal_sai.c ****         }
 760:./Libraries/STM32F4xx_HAL_Driver/Src/stm32f4xx_hal_sai.c ****         else if(hsai->Init.DataSize <= SAI_DATASIZE_16)
 1169              		.loc 1 760 27
ARM GAS  /tmp/cc2WvXK4.s 			page 35


 1170 00c4 FB68     		ldr	r3, [r7, #12]
 1171 00c6 9B6B     		ldr	r3, [r3, #56]
 1172              		.loc 1 760 16
 1173 00c8 802B     		cmp	r3, #128
 1174 00ca 0CD8     		bhi	.L59
 761:./Libraries/STM32F4xx_HAL_Driver/Src/stm32f4xx_hal_sai.c ****         {
 762:./Libraries/STM32F4xx_HAL_Driver/Src/stm32f4xx_hal_sai.c ****           *((uint16_t*)hsai->pBuffPtr) = hsai->Instance->DR;
 1175              		.loc 1 762 46
 1176 00cc FB68     		ldr	r3, [r7, #12]
 1177 00ce 1B68     		ldr	r3, [r3]
 1178              		.loc 1 762 56
 1179 00d0 DA69     		ldr	r2, [r3, #28]
 1180              		.loc 1 762 28
 1181 00d2 FB68     		ldr	r3, [r7, #12]
 1182 00d4 9B6E     		ldr	r3, [r3, #104]
 1183              		.loc 1 762 40
 1184 00d6 92B2     		uxth	r2, r2
 1185 00d8 1A80     		strh	r2, [r3]	@ movhi
 763:./Libraries/STM32F4xx_HAL_Driver/Src/stm32f4xx_hal_sai.c ****           hsai->pBuffPtr+= 2U;
 1186              		.loc 1 763 25
 1187 00da FB68     		ldr	r3, [r7, #12]
 1188 00dc 9B6E     		ldr	r3, [r3, #104]
 1189 00de 9A1C     		adds	r2, r3, #2
 1190 00e0 FB68     		ldr	r3, [r7, #12]
 1191 00e2 9A66     		str	r2, [r3, #104]
 1192 00e4 0AE0     		b	.L58
 1193              	.L59:
 764:./Libraries/STM32F4xx_HAL_Driver/Src/stm32f4xx_hal_sai.c ****         }
 765:./Libraries/STM32F4xx_HAL_Driver/Src/stm32f4xx_hal_sai.c ****         else
 766:./Libraries/STM32F4xx_HAL_Driver/Src/stm32f4xx_hal_sai.c ****         {
 767:./Libraries/STM32F4xx_HAL_Driver/Src/stm32f4xx_hal_sai.c ****           *((uint32_t*)hsai->pBuffPtr) = hsai->Instance->DR;
 1194              		.loc 1 767 46
 1195 00e6 FB68     		ldr	r3, [r7, #12]
 1196 00e8 1A68     		ldr	r2, [r3]
 1197              		.loc 1 767 28
 1198 00ea FB68     		ldr	r3, [r7, #12]
 1199 00ec 9B6E     		ldr	r3, [r3, #104]
 1200              		.loc 1 767 56
 1201 00ee D269     		ldr	r2, [r2, #28]
 1202              		.loc 1 767 40
 1203 00f0 1A60     		str	r2, [r3]
 768:./Libraries/STM32F4xx_HAL_Driver/Src/stm32f4xx_hal_sai.c ****           hsai->pBuffPtr+= 4U;
 1204              		.loc 1 768 25
 1205 00f2 FB68     		ldr	r3, [r7, #12]
 1206 00f4 9B6E     		ldr	r3, [r3, #104]
 1207 00f6 1A1D     		adds	r2, r3, #4
 1208 00f8 FB68     		ldr	r3, [r7, #12]
 1209 00fa 9A66     		str	r2, [r3, #104]
 1210              	.L58:
 769:./Libraries/STM32F4xx_HAL_Driver/Src/stm32f4xx_hal_sai.c ****         }
 770:./Libraries/STM32F4xx_HAL_Driver/Src/stm32f4xx_hal_sai.c ****         hsai->XferCount--;
 1211              		.loc 1 770 13
 1212 00fc FB68     		ldr	r3, [r7, #12]
 1213 00fe B3F86E30 		ldrh	r3, [r3, #110]
 1214              		.loc 1 770 24
 1215 0102 013B     		subs	r3, r3, #1
 1216 0104 9AB2     		uxth	r2, r3
ARM GAS  /tmp/cc2WvXK4.s 			page 36


 1217 0106 FB68     		ldr	r3, [r7, #12]
 1218 0108 A3F86E20 		strh	r2, [r3, #110]	@ movhi
 1219 010c 30E0     		b	.L55
 1220              	.L56:
 771:./Libraries/STM32F4xx_HAL_Driver/Src/stm32f4xx_hal_sai.c ****       }
 772:./Libraries/STM32F4xx_HAL_Driver/Src/stm32f4xx_hal_sai.c ****       else
 773:./Libraries/STM32F4xx_HAL_Driver/Src/stm32f4xx_hal_sai.c ****       {
 774:./Libraries/STM32F4xx_HAL_Driver/Src/stm32f4xx_hal_sai.c ****         /* Check for the Timeout */
 775:./Libraries/STM32F4xx_HAL_Driver/Src/stm32f4xx_hal_sai.c ****         if((Timeout != HAL_MAX_DELAY) && ((Timeout == 0U)||((HAL_GetTick() - tickstart ) > Timeout)
 1221              		.loc 1 775 11
 1222 010e 3B68     		ldr	r3, [r7]
 1223 0110 B3F1FF3F 		cmp	r3, #-1
 1224 0114 2CD0     		beq	.L55
 1225              		.loc 1 775 39 discriminator 1
 1226 0116 3B68     		ldr	r3, [r7]
 1227 0118 002B     		cmp	r3, #0
 1228 011a 07D0     		beq	.L60
 1229              		.loc 1 775 62 discriminator 2
 1230 011c FFF7FEFF 		bl	HAL_GetTick
 1231 0120 0246     		mov	r2, r0
 1232              		.loc 1 775 76 discriminator 2
 1233 0122 7B69     		ldr	r3, [r7, #20]
 1234 0124 D31A     		subs	r3, r2, r3
 1235              		.loc 1 775 58 discriminator 2
 1236 0126 3A68     		ldr	r2, [r7]
 1237 0128 9A42     		cmp	r2, r3
 1238 012a 21D2     		bcs	.L55
 1239              	.L60:
 776:./Libraries/STM32F4xx_HAL_Driver/Src/stm32f4xx_hal_sai.c ****         {
 777:./Libraries/STM32F4xx_HAL_Driver/Src/stm32f4xx_hal_sai.c ****           /* Update error code */
 778:./Libraries/STM32F4xx_HAL_Driver/Src/stm32f4xx_hal_sai.c ****           hsai->ErrorCode |= HAL_SAI_ERROR_TIMEOUT;
 1240              		.loc 1 778 27
 1241 012c FB68     		ldr	r3, [r7, #12]
 1242 012e D3F88430 		ldr	r3, [r3, #132]
 1243 0132 43F04002 		orr	r2, r3, #64
 1244 0136 FB68     		ldr	r3, [r7, #12]
 1245 0138 C3F88420 		str	r2, [r3, #132]
 779:./Libraries/STM32F4xx_HAL_Driver/Src/stm32f4xx_hal_sai.c **** 
 780:./Libraries/STM32F4xx_HAL_Driver/Src/stm32f4xx_hal_sai.c ****           /* Clear all the flags */
 781:./Libraries/STM32F4xx_HAL_Driver/Src/stm32f4xx_hal_sai.c ****           hsai->Instance->CLRFR = 0xFFFFFFFFU;
 1246              		.loc 1 781 15
 1247 013c FB68     		ldr	r3, [r7, #12]
 1248 013e 1B68     		ldr	r3, [r3]
 1249              		.loc 1 781 33
 1250 0140 4FF0FF32 		mov	r2, #-1
 1251 0144 9A61     		str	r2, [r3, #24]
 782:./Libraries/STM32F4xx_HAL_Driver/Src/stm32f4xx_hal_sai.c **** 
 783:./Libraries/STM32F4xx_HAL_Driver/Src/stm32f4xx_hal_sai.c ****           /* Disable SAI peripheral */
 784:./Libraries/STM32F4xx_HAL_Driver/Src/stm32f4xx_hal_sai.c ****           SAI_Disable(hsai);
 1252              		.loc 1 784 11
 1253 0146 F868     		ldr	r0, [r7, #12]
 1254 0148 FFF7FEFF 		bl	SAI_Disable
 785:./Libraries/STM32F4xx_HAL_Driver/Src/stm32f4xx_hal_sai.c **** 
 786:./Libraries/STM32F4xx_HAL_Driver/Src/stm32f4xx_hal_sai.c ****           /* Flush the fifo */
 787:./Libraries/STM32F4xx_HAL_Driver/Src/stm32f4xx_hal_sai.c ****           SET_BIT(hsai->Instance->CR2, SAI_xCR2_FFLUSH);
 1255              		.loc 1 787 11
 1256 014c FB68     		ldr	r3, [r7, #12]
ARM GAS  /tmp/cc2WvXK4.s 			page 37


 1257 014e 1B68     		ldr	r3, [r3]
 1258 0150 5A68     		ldr	r2, [r3, #4]
 1259 0152 FB68     		ldr	r3, [r7, #12]
 1260 0154 1B68     		ldr	r3, [r3]
 1261 0156 42F00802 		orr	r2, r2, #8
 1262 015a 5A60     		str	r2, [r3, #4]
 788:./Libraries/STM32F4xx_HAL_Driver/Src/stm32f4xx_hal_sai.c **** 
 789:./Libraries/STM32F4xx_HAL_Driver/Src/stm32f4xx_hal_sai.c ****           /* Change the SAI state */
 790:./Libraries/STM32F4xx_HAL_Driver/Src/stm32f4xx_hal_sai.c ****           hsai->State = HAL_SAI_STATE_READY;
 1263              		.loc 1 790 23
 1264 015c FB68     		ldr	r3, [r7, #12]
 1265 015e 0122     		movs	r2, #1
 1266 0160 83F88120 		strb	r2, [r3, #129]
 791:./Libraries/STM32F4xx_HAL_Driver/Src/stm32f4xx_hal_sai.c **** 
 792:./Libraries/STM32F4xx_HAL_Driver/Src/stm32f4xx_hal_sai.c ****           /* Process Unlocked */
 793:./Libraries/STM32F4xx_HAL_Driver/Src/stm32f4xx_hal_sai.c ****           __HAL_UNLOCK(hsai);
 1267              		.loc 1 793 11
 1268 0164 FB68     		ldr	r3, [r7, #12]
 1269 0166 0022     		movs	r2, #0
 1270 0168 83F88020 		strb	r2, [r3, #128]
 794:./Libraries/STM32F4xx_HAL_Driver/Src/stm32f4xx_hal_sai.c **** 
 795:./Libraries/STM32F4xx_HAL_Driver/Src/stm32f4xx_hal_sai.c ****           return HAL_ERROR;
 1271              		.loc 1 795 18
 1272 016c 0123     		movs	r3, #1
 1273 016e 0FE0     		b	.L51
 1274              	.L55:
 752:./Libraries/STM32F4xx_HAL_Driver/Src/stm32f4xx_hal_sai.c ****     {
 1275              		.loc 1 752 15
 1276 0170 FB68     		ldr	r3, [r7, #12]
 1277 0172 B3F86E30 		ldrh	r3, [r3, #110]
 752:./Libraries/STM32F4xx_HAL_Driver/Src/stm32f4xx_hal_sai.c ****     {
 1278              		.loc 1 752 10
 1279 0176 002B     		cmp	r3, #0
 1280 0178 8AD1     		bne	.L61
 796:./Libraries/STM32F4xx_HAL_Driver/Src/stm32f4xx_hal_sai.c ****         }
 797:./Libraries/STM32F4xx_HAL_Driver/Src/stm32f4xx_hal_sai.c ****       }
 798:./Libraries/STM32F4xx_HAL_Driver/Src/stm32f4xx_hal_sai.c ****     }
 799:./Libraries/STM32F4xx_HAL_Driver/Src/stm32f4xx_hal_sai.c **** 
 800:./Libraries/STM32F4xx_HAL_Driver/Src/stm32f4xx_hal_sai.c ****     hsai->State = HAL_SAI_STATE_READY;
 1281              		.loc 1 800 17
 1282 017a FB68     		ldr	r3, [r7, #12]
 1283 017c 0122     		movs	r2, #1
 1284 017e 83F88120 		strb	r2, [r3, #129]
 801:./Libraries/STM32F4xx_HAL_Driver/Src/stm32f4xx_hal_sai.c **** 
 802:./Libraries/STM32F4xx_HAL_Driver/Src/stm32f4xx_hal_sai.c ****     /* Process Unlocked */
 803:./Libraries/STM32F4xx_HAL_Driver/Src/stm32f4xx_hal_sai.c ****     __HAL_UNLOCK(hsai);
 1285              		.loc 1 803 5
 1286 0182 FB68     		ldr	r3, [r7, #12]
 1287 0184 0022     		movs	r2, #0
 1288 0186 83F88020 		strb	r2, [r3, #128]
 804:./Libraries/STM32F4xx_HAL_Driver/Src/stm32f4xx_hal_sai.c **** 
 805:./Libraries/STM32F4xx_HAL_Driver/Src/stm32f4xx_hal_sai.c ****     return HAL_OK;
 1289              		.loc 1 805 12
 1290 018a 0023     		movs	r3, #0
 1291 018c 00E0     		b	.L51
 1292              	.L52:
 806:./Libraries/STM32F4xx_HAL_Driver/Src/stm32f4xx_hal_sai.c ****   }
ARM GAS  /tmp/cc2WvXK4.s 			page 38


 807:./Libraries/STM32F4xx_HAL_Driver/Src/stm32f4xx_hal_sai.c ****   else
 808:./Libraries/STM32F4xx_HAL_Driver/Src/stm32f4xx_hal_sai.c ****   {
 809:./Libraries/STM32F4xx_HAL_Driver/Src/stm32f4xx_hal_sai.c ****     return HAL_BUSY;
 1293              		.loc 1 809 12
 1294 018e 0223     		movs	r3, #2
 1295              	.L51:
 810:./Libraries/STM32F4xx_HAL_Driver/Src/stm32f4xx_hal_sai.c ****   }
 811:./Libraries/STM32F4xx_HAL_Driver/Src/stm32f4xx_hal_sai.c **** }
 1296              		.loc 1 811 1
 1297 0190 1846     		mov	r0, r3
 1298 0192 1837     		adds	r7, r7, #24
 1299              	.LCFI35:
 1300              		.cfi_def_cfa_offset 8
 1301 0194 BD46     		mov	sp, r7
 1302              	.LCFI36:
 1303              		.cfi_def_cfa_register 13
 1304              		@ sp needed
 1305 0196 80BD     		pop	{r7, pc}
 1306              		.cfi_endproc
 1307              	.LFE132:
 1309              		.section	.text.HAL_SAI_Transmit_IT,"ax",%progbits
 1310              		.align	1
 1311              		.global	HAL_SAI_Transmit_IT
 1312              		.syntax unified
 1313              		.thumb
 1314              		.thumb_func
 1315              		.fpu fpv4-sp-d16
 1317              	HAL_SAI_Transmit_IT:
 1318              	.LFB133:
 812:./Libraries/STM32F4xx_HAL_Driver/Src/stm32f4xx_hal_sai.c **** 
 813:./Libraries/STM32F4xx_HAL_Driver/Src/stm32f4xx_hal_sai.c **** /**
 814:./Libraries/STM32F4xx_HAL_Driver/Src/stm32f4xx_hal_sai.c ****   * @brief  Transmit an amount of data in non-blocking mode with Interrupt.
 815:./Libraries/STM32F4xx_HAL_Driver/Src/stm32f4xx_hal_sai.c ****   * @param  hsai pointer to a SAI_HandleTypeDef structure that contains
 816:./Libraries/STM32F4xx_HAL_Driver/Src/stm32f4xx_hal_sai.c ****   *               the configuration information for SAI module.
 817:./Libraries/STM32F4xx_HAL_Driver/Src/stm32f4xx_hal_sai.c ****   * @param  pData Pointer to data buffer
 818:./Libraries/STM32F4xx_HAL_Driver/Src/stm32f4xx_hal_sai.c ****   * @param  Size Amount of data to be sent
 819:./Libraries/STM32F4xx_HAL_Driver/Src/stm32f4xx_hal_sai.c ****   * @retval HAL status
 820:./Libraries/STM32F4xx_HAL_Driver/Src/stm32f4xx_hal_sai.c ****   */
 821:./Libraries/STM32F4xx_HAL_Driver/Src/stm32f4xx_hal_sai.c **** HAL_StatusTypeDef HAL_SAI_Transmit_IT(SAI_HandleTypeDef *hsai, uint8_t *pData, uint16_t Size)
 822:./Libraries/STM32F4xx_HAL_Driver/Src/stm32f4xx_hal_sai.c **** {
 1319              		.loc 1 822 1
 1320              		.cfi_startproc
 1321              		@ args = 0, pretend = 0, frame = 16
 1322              		@ frame_needed = 1, uses_anonymous_args = 0
 1323 0000 80B5     		push	{r7, lr}
 1324              	.LCFI37:
 1325              		.cfi_def_cfa_offset 8
 1326              		.cfi_offset 7, -8
 1327              		.cfi_offset 14, -4
 1328 0002 84B0     		sub	sp, sp, #16
 1329              	.LCFI38:
 1330              		.cfi_def_cfa_offset 24
 1331 0004 00AF     		add	r7, sp, #0
 1332              	.LCFI39:
 1333              		.cfi_def_cfa_register 7
 1334 0006 F860     		str	r0, [r7, #12]
 1335 0008 B960     		str	r1, [r7, #8]
ARM GAS  /tmp/cc2WvXK4.s 			page 39


 1336 000a 1346     		mov	r3, r2
 1337 000c FB80     		strh	r3, [r7, #6]	@ movhi
 823:./Libraries/STM32F4xx_HAL_Driver/Src/stm32f4xx_hal_sai.c ****   if((pData == NULL) || (Size == 0))
 1338              		.loc 1 823 5
 1339 000e BB68     		ldr	r3, [r7, #8]
 1340 0010 002B     		cmp	r3, #0
 1341 0012 02D0     		beq	.L63
 1342              		.loc 1 823 22 discriminator 1
 1343 0014 FB88     		ldrh	r3, [r7, #6]
 1344 0016 002B     		cmp	r3, #0
 1345 0018 01D1     		bne	.L64
 1346              	.L63:
 824:./Libraries/STM32F4xx_HAL_Driver/Src/stm32f4xx_hal_sai.c ****   {
 825:./Libraries/STM32F4xx_HAL_Driver/Src/stm32f4xx_hal_sai.c ****     return  HAL_ERROR;
 1347              		.loc 1 825 13
 1348 001a 0123     		movs	r3, #1
 1349 001c 5FE0     		b	.L65
 1350              	.L64:
 826:./Libraries/STM32F4xx_HAL_Driver/Src/stm32f4xx_hal_sai.c ****   }
 827:./Libraries/STM32F4xx_HAL_Driver/Src/stm32f4xx_hal_sai.c **** 
 828:./Libraries/STM32F4xx_HAL_Driver/Src/stm32f4xx_hal_sai.c ****   if(hsai->State == HAL_SAI_STATE_READY)
 1351              		.loc 1 828 10
 1352 001e FB68     		ldr	r3, [r7, #12]
 1353 0020 93F88130 		ldrb	r3, [r3, #129]
 1354 0024 DBB2     		uxtb	r3, r3
 1355              		.loc 1 828 5
 1356 0026 012B     		cmp	r3, #1
 1357 0028 58D1     		bne	.L66
 829:./Libraries/STM32F4xx_HAL_Driver/Src/stm32f4xx_hal_sai.c ****   {
 830:./Libraries/STM32F4xx_HAL_Driver/Src/stm32f4xx_hal_sai.c ****     /* Process Locked */
 831:./Libraries/STM32F4xx_HAL_Driver/Src/stm32f4xx_hal_sai.c ****     __HAL_LOCK(hsai);
 1358              		.loc 1 831 5
 1359 002a FB68     		ldr	r3, [r7, #12]
 1360 002c 93F88030 		ldrb	r3, [r3, #128]	@ zero_extendqisi2
 1361 0030 012B     		cmp	r3, #1
 1362 0032 01D1     		bne	.L67
 1363              		.loc 1 831 5 is_stmt 0 discriminator 1
 1364 0034 0223     		movs	r3, #2
 1365 0036 52E0     		b	.L65
 1366              	.L67:
 1367              		.loc 1 831 5 discriminator 2
 1368 0038 FB68     		ldr	r3, [r7, #12]
 1369 003a 0122     		movs	r2, #1
 1370 003c 83F88020 		strb	r2, [r3, #128]
 832:./Libraries/STM32F4xx_HAL_Driver/Src/stm32f4xx_hal_sai.c **** 
 833:./Libraries/STM32F4xx_HAL_Driver/Src/stm32f4xx_hal_sai.c ****     hsai->pBuffPtr = pData;
 1371              		.loc 1 833 20 is_stmt 1 discriminator 2
 1372 0040 FB68     		ldr	r3, [r7, #12]
 1373 0042 BA68     		ldr	r2, [r7, #8]
 1374 0044 9A66     		str	r2, [r3, #104]
 834:./Libraries/STM32F4xx_HAL_Driver/Src/stm32f4xx_hal_sai.c ****     hsai->XferSize = Size;
 1375              		.loc 1 834 20 discriminator 2
 1376 0046 FB68     		ldr	r3, [r7, #12]
 1377 0048 FA88     		ldrh	r2, [r7, #6]	@ movhi
 1378 004a A3F86C20 		strh	r2, [r3, #108]	@ movhi
 835:./Libraries/STM32F4xx_HAL_Driver/Src/stm32f4xx_hal_sai.c ****     hsai->XferCount = Size;
 1379              		.loc 1 835 21 discriminator 2
ARM GAS  /tmp/cc2WvXK4.s 			page 40


 1380 004e FB68     		ldr	r3, [r7, #12]
 1381 0050 FA88     		ldrh	r2, [r7, #6]	@ movhi
 1382 0052 A3F86E20 		strh	r2, [r3, #110]	@ movhi
 836:./Libraries/STM32F4xx_HAL_Driver/Src/stm32f4xx_hal_sai.c ****     hsai->ErrorCode = HAL_SAI_ERROR_NONE;
 1383              		.loc 1 836 21 discriminator 2
 1384 0056 FB68     		ldr	r3, [r7, #12]
 1385 0058 0022     		movs	r2, #0
 1386 005a C3F88420 		str	r2, [r3, #132]
 837:./Libraries/STM32F4xx_HAL_Driver/Src/stm32f4xx_hal_sai.c ****     hsai->State = HAL_SAI_STATE_BUSY_TX;
 1387              		.loc 1 837 17 discriminator 2
 1388 005e FB68     		ldr	r3, [r7, #12]
 1389 0060 1222     		movs	r2, #18
 1390 0062 83F88120 		strb	r2, [r3, #129]
 838:./Libraries/STM32F4xx_HAL_Driver/Src/stm32f4xx_hal_sai.c **** 
 839:./Libraries/STM32F4xx_HAL_Driver/Src/stm32f4xx_hal_sai.c ****     if((hsai->Init.DataSize == SAI_DATASIZE_8) && (hsai->Init.CompandingMode == SAI_NOCOMPANDING))
 1391              		.loc 1 839 19 discriminator 2
 1392 0066 FB68     		ldr	r3, [r7, #12]
 1393 0068 9B6B     		ldr	r3, [r3, #56]
 1394              		.loc 1 839 7 discriminator 2
 1395 006a 402B     		cmp	r3, #64
 1396 006c 07D1     		bne	.L68
 1397              		.loc 1 839 62 discriminator 1
 1398 006e FB68     		ldr	r3, [r7, #12]
 1399 0070 DB6A     		ldr	r3, [r3, #44]
 1400              		.loc 1 839 48 discriminator 1
 1401 0072 002B     		cmp	r3, #0
 1402 0074 03D1     		bne	.L68
 840:./Libraries/STM32F4xx_HAL_Driver/Src/stm32f4xx_hal_sai.c ****     {
 841:./Libraries/STM32F4xx_HAL_Driver/Src/stm32f4xx_hal_sai.c ****       hsai->InterruptServiceRoutine = SAI_Transmit_IT8Bit;
 1403              		.loc 1 841 37
 1404 0076 FB68     		ldr	r3, [r7, #12]
 1405 0078 1B4A     		ldr	r2, .L72
 1406 007a DA67     		str	r2, [r3, #124]
 1407 007c 0AE0     		b	.L69
 1408              	.L68:
 842:./Libraries/STM32F4xx_HAL_Driver/Src/stm32f4xx_hal_sai.c ****     }
 843:./Libraries/STM32F4xx_HAL_Driver/Src/stm32f4xx_hal_sai.c ****     else if(hsai->Init.DataSize <= SAI_DATASIZE_16)
 1409              		.loc 1 843 23
 1410 007e FB68     		ldr	r3, [r7, #12]
 1411 0080 9B6B     		ldr	r3, [r3, #56]
 1412              		.loc 1 843 12
 1413 0082 802B     		cmp	r3, #128
 1414 0084 03D8     		bhi	.L70
 844:./Libraries/STM32F4xx_HAL_Driver/Src/stm32f4xx_hal_sai.c ****     {
 845:./Libraries/STM32F4xx_HAL_Driver/Src/stm32f4xx_hal_sai.c ****       hsai->InterruptServiceRoutine = SAI_Transmit_IT16Bit;
 1415              		.loc 1 845 37
 1416 0086 FB68     		ldr	r3, [r7, #12]
 1417 0088 184A     		ldr	r2, .L72+4
 1418 008a DA67     		str	r2, [r3, #124]
 1419 008c 02E0     		b	.L69
 1420              	.L70:
 846:./Libraries/STM32F4xx_HAL_Driver/Src/stm32f4xx_hal_sai.c ****     }
 847:./Libraries/STM32F4xx_HAL_Driver/Src/stm32f4xx_hal_sai.c ****     else
 848:./Libraries/STM32F4xx_HAL_Driver/Src/stm32f4xx_hal_sai.c ****     {
 849:./Libraries/STM32F4xx_HAL_Driver/Src/stm32f4xx_hal_sai.c ****       hsai->InterruptServiceRoutine = SAI_Transmit_IT32Bit;
 1421              		.loc 1 849 37
 1422 008e FB68     		ldr	r3, [r7, #12]
ARM GAS  /tmp/cc2WvXK4.s 			page 41


 1423 0090 174A     		ldr	r2, .L72+8
 1424 0092 DA67     		str	r2, [r3, #124]
 1425              	.L69:
 850:./Libraries/STM32F4xx_HAL_Driver/Src/stm32f4xx_hal_sai.c ****     }
 851:./Libraries/STM32F4xx_HAL_Driver/Src/stm32f4xx_hal_sai.c **** 
 852:./Libraries/STM32F4xx_HAL_Driver/Src/stm32f4xx_hal_sai.c ****     /* Fill the fifo before starting the communication */
 853:./Libraries/STM32F4xx_HAL_Driver/Src/stm32f4xx_hal_sai.c ****     SAI_FillFifo(hsai);
 1426              		.loc 1 853 5
 1427 0094 F868     		ldr	r0, [r7, #12]
 1428 0096 FFF7FEFF 		bl	SAI_FillFifo
 854:./Libraries/STM32F4xx_HAL_Driver/Src/stm32f4xx_hal_sai.c **** 
 855:./Libraries/STM32F4xx_HAL_Driver/Src/stm32f4xx_hal_sai.c ****     /* Enable FRQ and OVRUDR interrupts */
 856:./Libraries/STM32F4xx_HAL_Driver/Src/stm32f4xx_hal_sai.c ****     __HAL_SAI_ENABLE_IT(hsai, SAI_InterruptFlag(hsai, SAI_MODE_IT));
 1429              		.loc 1 856 5
 1430 009a 0121     		movs	r1, #1
 1431 009c F868     		ldr	r0, [r7, #12]
 1432 009e FFF7FEFF 		bl	SAI_InterruptFlag
 1433 00a2 0146     		mov	r1, r0
 1434 00a4 FB68     		ldr	r3, [r7, #12]
 1435 00a6 1B68     		ldr	r3, [r3]
 1436 00a8 1A69     		ldr	r2, [r3, #16]
 1437 00aa FB68     		ldr	r3, [r7, #12]
 1438 00ac 1B68     		ldr	r3, [r3]
 1439 00ae 0A43     		orrs	r2, r2, r1
 1440 00b0 1A61     		str	r2, [r3, #16]
 857:./Libraries/STM32F4xx_HAL_Driver/Src/stm32f4xx_hal_sai.c **** 
 858:./Libraries/STM32F4xx_HAL_Driver/Src/stm32f4xx_hal_sai.c ****     /* Check if the SAI is already enabled */
 859:./Libraries/STM32F4xx_HAL_Driver/Src/stm32f4xx_hal_sai.c ****     if((hsai->Instance->CR1 & SAI_xCR1_SAIEN) == RESET)
 1441              		.loc 1 859 13
 1442 00b2 FB68     		ldr	r3, [r7, #12]
 1443 00b4 1B68     		ldr	r3, [r3]
 1444              		.loc 1 859 23
 1445 00b6 1B68     		ldr	r3, [r3]
 1446              		.loc 1 859 29
 1447 00b8 03F48033 		and	r3, r3, #65536
 1448              		.loc 1 859 7
 1449 00bc 002B     		cmp	r3, #0
 1450 00be 07D1     		bne	.L71
 860:./Libraries/STM32F4xx_HAL_Driver/Src/stm32f4xx_hal_sai.c ****     {
 861:./Libraries/STM32F4xx_HAL_Driver/Src/stm32f4xx_hal_sai.c ****       /* Enable SAI peripheral */
 862:./Libraries/STM32F4xx_HAL_Driver/Src/stm32f4xx_hal_sai.c ****       __HAL_SAI_ENABLE(hsai);
 1451              		.loc 1 862 7
 1452 00c0 FB68     		ldr	r3, [r7, #12]
 1453 00c2 1B68     		ldr	r3, [r3]
 1454 00c4 1A68     		ldr	r2, [r3]
 1455 00c6 FB68     		ldr	r3, [r7, #12]
 1456 00c8 1B68     		ldr	r3, [r3]
 1457 00ca 42F48032 		orr	r2, r2, #65536
 1458 00ce 1A60     		str	r2, [r3]
 1459              	.L71:
 863:./Libraries/STM32F4xx_HAL_Driver/Src/stm32f4xx_hal_sai.c ****     }
 864:./Libraries/STM32F4xx_HAL_Driver/Src/stm32f4xx_hal_sai.c ****     /* Process Unlocked */
 865:./Libraries/STM32F4xx_HAL_Driver/Src/stm32f4xx_hal_sai.c ****     __HAL_UNLOCK(hsai);
 1460              		.loc 1 865 5
 1461 00d0 FB68     		ldr	r3, [r7, #12]
 1462 00d2 0022     		movs	r2, #0
 1463 00d4 83F88020 		strb	r2, [r3, #128]
ARM GAS  /tmp/cc2WvXK4.s 			page 42


 866:./Libraries/STM32F4xx_HAL_Driver/Src/stm32f4xx_hal_sai.c **** 
 867:./Libraries/STM32F4xx_HAL_Driver/Src/stm32f4xx_hal_sai.c ****     return HAL_OK;
 1464              		.loc 1 867 12
 1465 00d8 0023     		movs	r3, #0
 1466 00da 00E0     		b	.L65
 1467              	.L66:
 868:./Libraries/STM32F4xx_HAL_Driver/Src/stm32f4xx_hal_sai.c ****   }
 869:./Libraries/STM32F4xx_HAL_Driver/Src/stm32f4xx_hal_sai.c ****   else
 870:./Libraries/STM32F4xx_HAL_Driver/Src/stm32f4xx_hal_sai.c ****   {
 871:./Libraries/STM32F4xx_HAL_Driver/Src/stm32f4xx_hal_sai.c ****     return HAL_BUSY;
 1468              		.loc 1 871 12
 1469 00dc 0223     		movs	r3, #2
 1470              	.L65:
 872:./Libraries/STM32F4xx_HAL_Driver/Src/stm32f4xx_hal_sai.c ****   }
 873:./Libraries/STM32F4xx_HAL_Driver/Src/stm32f4xx_hal_sai.c **** }
 1471              		.loc 1 873 1
 1472 00de 1846     		mov	r0, r3
 1473 00e0 1037     		adds	r7, r7, #16
 1474              	.LCFI40:
 1475              		.cfi_def_cfa_offset 8
 1476 00e2 BD46     		mov	sp, r7
 1477              	.LCFI41:
 1478              		.cfi_def_cfa_register 13
 1479              		@ sp needed
 1480 00e4 80BD     		pop	{r7, pc}
 1481              	.L73:
 1482 00e6 00BF     		.align	2
 1483              	.L72:
 1484 00e8 00000000 		.word	SAI_Transmit_IT8Bit
 1485 00ec 00000000 		.word	SAI_Transmit_IT16Bit
 1486 00f0 00000000 		.word	SAI_Transmit_IT32Bit
 1487              		.cfi_endproc
 1488              	.LFE133:
 1490              		.section	.text.HAL_SAI_Receive_IT,"ax",%progbits
 1491              		.align	1
 1492              		.global	HAL_SAI_Receive_IT
 1493              		.syntax unified
 1494              		.thumb
 1495              		.thumb_func
 1496              		.fpu fpv4-sp-d16
 1498              	HAL_SAI_Receive_IT:
 1499              	.LFB134:
 874:./Libraries/STM32F4xx_HAL_Driver/Src/stm32f4xx_hal_sai.c **** 
 875:./Libraries/STM32F4xx_HAL_Driver/Src/stm32f4xx_hal_sai.c **** /**
 876:./Libraries/STM32F4xx_HAL_Driver/Src/stm32f4xx_hal_sai.c ****   * @brief  Receive an amount of data in non-blocking mode with Interrupt.
 877:./Libraries/STM32F4xx_HAL_Driver/Src/stm32f4xx_hal_sai.c ****   * @param  hsai pointer to a SAI_HandleTypeDef structure that contains
 878:./Libraries/STM32F4xx_HAL_Driver/Src/stm32f4xx_hal_sai.c ****   *               the configuration information for SAI module.
 879:./Libraries/STM32F4xx_HAL_Driver/Src/stm32f4xx_hal_sai.c ****   * @param  pData Pointer to data buffer
 880:./Libraries/STM32F4xx_HAL_Driver/Src/stm32f4xx_hal_sai.c ****   * @param  Size Amount of data to be received
 881:./Libraries/STM32F4xx_HAL_Driver/Src/stm32f4xx_hal_sai.c ****   * @retval HAL status
 882:./Libraries/STM32F4xx_HAL_Driver/Src/stm32f4xx_hal_sai.c ****   */
 883:./Libraries/STM32F4xx_HAL_Driver/Src/stm32f4xx_hal_sai.c **** HAL_StatusTypeDef HAL_SAI_Receive_IT(SAI_HandleTypeDef *hsai, uint8_t *pData, uint16_t Size)
 884:./Libraries/STM32F4xx_HAL_Driver/Src/stm32f4xx_hal_sai.c **** {
 1500              		.loc 1 884 1
 1501              		.cfi_startproc
 1502              		@ args = 0, pretend = 0, frame = 16
 1503              		@ frame_needed = 1, uses_anonymous_args = 0
ARM GAS  /tmp/cc2WvXK4.s 			page 43


 1504 0000 80B5     		push	{r7, lr}
 1505              	.LCFI42:
 1506              		.cfi_def_cfa_offset 8
 1507              		.cfi_offset 7, -8
 1508              		.cfi_offset 14, -4
 1509 0002 84B0     		sub	sp, sp, #16
 1510              	.LCFI43:
 1511              		.cfi_def_cfa_offset 24
 1512 0004 00AF     		add	r7, sp, #0
 1513              	.LCFI44:
 1514              		.cfi_def_cfa_register 7
 1515 0006 F860     		str	r0, [r7, #12]
 1516 0008 B960     		str	r1, [r7, #8]
 1517 000a 1346     		mov	r3, r2
 1518 000c FB80     		strh	r3, [r7, #6]	@ movhi
 885:./Libraries/STM32F4xx_HAL_Driver/Src/stm32f4xx_hal_sai.c ****   if((pData == NULL) || (Size == 0))
 1519              		.loc 1 885 5
 1520 000e BB68     		ldr	r3, [r7, #8]
 1521 0010 002B     		cmp	r3, #0
 1522 0012 02D0     		beq	.L75
 1523              		.loc 1 885 22 discriminator 1
 1524 0014 FB88     		ldrh	r3, [r7, #6]
 1525 0016 002B     		cmp	r3, #0
 1526 0018 01D1     		bne	.L76
 1527              	.L75:
 886:./Libraries/STM32F4xx_HAL_Driver/Src/stm32f4xx_hal_sai.c ****   {
 887:./Libraries/STM32F4xx_HAL_Driver/Src/stm32f4xx_hal_sai.c ****     return  HAL_ERROR;
 1528              		.loc 1 887 13
 1529 001a 0123     		movs	r3, #1
 1530 001c 5CE0     		b	.L77
 1531              	.L76:
 888:./Libraries/STM32F4xx_HAL_Driver/Src/stm32f4xx_hal_sai.c ****   }
 889:./Libraries/STM32F4xx_HAL_Driver/Src/stm32f4xx_hal_sai.c **** 
 890:./Libraries/STM32F4xx_HAL_Driver/Src/stm32f4xx_hal_sai.c ****   if(hsai->State == HAL_SAI_STATE_READY)
 1532              		.loc 1 890 10
 1533 001e FB68     		ldr	r3, [r7, #12]
 1534 0020 93F88130 		ldrb	r3, [r3, #129]
 1535 0024 DBB2     		uxtb	r3, r3
 1536              		.loc 1 890 5
 1537 0026 012B     		cmp	r3, #1
 1538 0028 55D1     		bne	.L78
 891:./Libraries/STM32F4xx_HAL_Driver/Src/stm32f4xx_hal_sai.c ****   {
 892:./Libraries/STM32F4xx_HAL_Driver/Src/stm32f4xx_hal_sai.c ****     /* Process Locked */
 893:./Libraries/STM32F4xx_HAL_Driver/Src/stm32f4xx_hal_sai.c ****     __HAL_LOCK(hsai);
 1539              		.loc 1 893 5
 1540 002a FB68     		ldr	r3, [r7, #12]
 1541 002c 93F88030 		ldrb	r3, [r3, #128]	@ zero_extendqisi2
 1542 0030 012B     		cmp	r3, #1
 1543 0032 01D1     		bne	.L79
 1544              		.loc 1 893 5 is_stmt 0 discriminator 1
 1545 0034 0223     		movs	r3, #2
 1546 0036 4FE0     		b	.L77
 1547              	.L79:
 1548              		.loc 1 893 5 discriminator 2
 1549 0038 FB68     		ldr	r3, [r7, #12]
 1550 003a 0122     		movs	r2, #1
 1551 003c 83F88020 		strb	r2, [r3, #128]
ARM GAS  /tmp/cc2WvXK4.s 			page 44


 894:./Libraries/STM32F4xx_HAL_Driver/Src/stm32f4xx_hal_sai.c **** 
 895:./Libraries/STM32F4xx_HAL_Driver/Src/stm32f4xx_hal_sai.c ****     hsai->pBuffPtr = pData;
 1552              		.loc 1 895 20 is_stmt 1 discriminator 2
 1553 0040 FB68     		ldr	r3, [r7, #12]
 1554 0042 BA68     		ldr	r2, [r7, #8]
 1555 0044 9A66     		str	r2, [r3, #104]
 896:./Libraries/STM32F4xx_HAL_Driver/Src/stm32f4xx_hal_sai.c ****     hsai->XferSize = Size;
 1556              		.loc 1 896 20 discriminator 2
 1557 0046 FB68     		ldr	r3, [r7, #12]
 1558 0048 FA88     		ldrh	r2, [r7, #6]	@ movhi
 1559 004a A3F86C20 		strh	r2, [r3, #108]	@ movhi
 897:./Libraries/STM32F4xx_HAL_Driver/Src/stm32f4xx_hal_sai.c ****     hsai->XferCount = Size;
 1560              		.loc 1 897 21 discriminator 2
 1561 004e FB68     		ldr	r3, [r7, #12]
 1562 0050 FA88     		ldrh	r2, [r7, #6]	@ movhi
 1563 0052 A3F86E20 		strh	r2, [r3, #110]	@ movhi
 898:./Libraries/STM32F4xx_HAL_Driver/Src/stm32f4xx_hal_sai.c ****     hsai->ErrorCode = HAL_SAI_ERROR_NONE;
 1564              		.loc 1 898 21 discriminator 2
 1565 0056 FB68     		ldr	r3, [r7, #12]
 1566 0058 0022     		movs	r2, #0
 1567 005a C3F88420 		str	r2, [r3, #132]
 899:./Libraries/STM32F4xx_HAL_Driver/Src/stm32f4xx_hal_sai.c ****     hsai->State = HAL_SAI_STATE_BUSY_RX;
 1568              		.loc 1 899 17 discriminator 2
 1569 005e FB68     		ldr	r3, [r7, #12]
 1570 0060 2222     		movs	r2, #34
 1571 0062 83F88120 		strb	r2, [r3, #129]
 900:./Libraries/STM32F4xx_HAL_Driver/Src/stm32f4xx_hal_sai.c **** 
 901:./Libraries/STM32F4xx_HAL_Driver/Src/stm32f4xx_hal_sai.c ****     if((hsai->Init.DataSize == SAI_DATASIZE_8) && (hsai->Init.CompandingMode == SAI_NOCOMPANDING))
 1572              		.loc 1 901 19 discriminator 2
 1573 0066 FB68     		ldr	r3, [r7, #12]
 1574 0068 9B6B     		ldr	r3, [r3, #56]
 1575              		.loc 1 901 7 discriminator 2
 1576 006a 402B     		cmp	r3, #64
 1577 006c 07D1     		bne	.L80
 1578              		.loc 1 901 62 discriminator 1
 1579 006e FB68     		ldr	r3, [r7, #12]
 1580 0070 DB6A     		ldr	r3, [r3, #44]
 1581              		.loc 1 901 48 discriminator 1
 1582 0072 002B     		cmp	r3, #0
 1583 0074 03D1     		bne	.L80
 902:./Libraries/STM32F4xx_HAL_Driver/Src/stm32f4xx_hal_sai.c ****     {
 903:./Libraries/STM32F4xx_HAL_Driver/Src/stm32f4xx_hal_sai.c ****       hsai->InterruptServiceRoutine = SAI_Receive_IT8Bit;
 1584              		.loc 1 903 37
 1585 0076 FB68     		ldr	r3, [r7, #12]
 1586 0078 194A     		ldr	r2, .L84
 1587 007a DA67     		str	r2, [r3, #124]
 1588 007c 0AE0     		b	.L81
 1589              	.L80:
 904:./Libraries/STM32F4xx_HAL_Driver/Src/stm32f4xx_hal_sai.c ****     }
 905:./Libraries/STM32F4xx_HAL_Driver/Src/stm32f4xx_hal_sai.c ****     else if(hsai->Init.DataSize <= SAI_DATASIZE_16)
 1590              		.loc 1 905 23
 1591 007e FB68     		ldr	r3, [r7, #12]
 1592 0080 9B6B     		ldr	r3, [r3, #56]
 1593              		.loc 1 905 12
 1594 0082 802B     		cmp	r3, #128
 1595 0084 03D8     		bhi	.L82
 906:./Libraries/STM32F4xx_HAL_Driver/Src/stm32f4xx_hal_sai.c ****     {
ARM GAS  /tmp/cc2WvXK4.s 			page 45


 907:./Libraries/STM32F4xx_HAL_Driver/Src/stm32f4xx_hal_sai.c ****       hsai->InterruptServiceRoutine = SAI_Receive_IT16Bit;
 1596              		.loc 1 907 37
 1597 0086 FB68     		ldr	r3, [r7, #12]
 1598 0088 164A     		ldr	r2, .L84+4
 1599 008a DA67     		str	r2, [r3, #124]
 1600 008c 02E0     		b	.L81
 1601              	.L82:
 908:./Libraries/STM32F4xx_HAL_Driver/Src/stm32f4xx_hal_sai.c ****     }
 909:./Libraries/STM32F4xx_HAL_Driver/Src/stm32f4xx_hal_sai.c ****     else
 910:./Libraries/STM32F4xx_HAL_Driver/Src/stm32f4xx_hal_sai.c ****     {
 911:./Libraries/STM32F4xx_HAL_Driver/Src/stm32f4xx_hal_sai.c ****       hsai->InterruptServiceRoutine = SAI_Receive_IT32Bit;
 1602              		.loc 1 911 37
 1603 008e FB68     		ldr	r3, [r7, #12]
 1604 0090 154A     		ldr	r2, .L84+8
 1605 0092 DA67     		str	r2, [r3, #124]
 1606              	.L81:
 912:./Libraries/STM32F4xx_HAL_Driver/Src/stm32f4xx_hal_sai.c ****     }
 913:./Libraries/STM32F4xx_HAL_Driver/Src/stm32f4xx_hal_sai.c **** 
 914:./Libraries/STM32F4xx_HAL_Driver/Src/stm32f4xx_hal_sai.c ****     /* Enable TXE and OVRUDR interrupts */
 915:./Libraries/STM32F4xx_HAL_Driver/Src/stm32f4xx_hal_sai.c ****     __HAL_SAI_ENABLE_IT(hsai, SAI_InterruptFlag(hsai, SAI_MODE_IT));
 1607              		.loc 1 915 5
 1608 0094 0121     		movs	r1, #1
 1609 0096 F868     		ldr	r0, [r7, #12]
 1610 0098 FFF7FEFF 		bl	SAI_InterruptFlag
 1611 009c 0146     		mov	r1, r0
 1612 009e FB68     		ldr	r3, [r7, #12]
 1613 00a0 1B68     		ldr	r3, [r3]
 1614 00a2 1A69     		ldr	r2, [r3, #16]
 1615 00a4 FB68     		ldr	r3, [r7, #12]
 1616 00a6 1B68     		ldr	r3, [r3]
 1617 00a8 0A43     		orrs	r2, r2, r1
 1618 00aa 1A61     		str	r2, [r3, #16]
 916:./Libraries/STM32F4xx_HAL_Driver/Src/stm32f4xx_hal_sai.c **** 
 917:./Libraries/STM32F4xx_HAL_Driver/Src/stm32f4xx_hal_sai.c ****     /* Check if the SAI is already enabled */
 918:./Libraries/STM32F4xx_HAL_Driver/Src/stm32f4xx_hal_sai.c ****     if((hsai->Instance->CR1 & SAI_xCR1_SAIEN) == RESET)
 1619              		.loc 1 918 13
 1620 00ac FB68     		ldr	r3, [r7, #12]
 1621 00ae 1B68     		ldr	r3, [r3]
 1622              		.loc 1 918 23
 1623 00b0 1B68     		ldr	r3, [r3]
 1624              		.loc 1 918 29
 1625 00b2 03F48033 		and	r3, r3, #65536
 1626              		.loc 1 918 7
 1627 00b6 002B     		cmp	r3, #0
 1628 00b8 07D1     		bne	.L83
 919:./Libraries/STM32F4xx_HAL_Driver/Src/stm32f4xx_hal_sai.c ****     {
 920:./Libraries/STM32F4xx_HAL_Driver/Src/stm32f4xx_hal_sai.c ****       /* Enable SAI peripheral */
 921:./Libraries/STM32F4xx_HAL_Driver/Src/stm32f4xx_hal_sai.c ****       __HAL_SAI_ENABLE(hsai);
 1629              		.loc 1 921 7
 1630 00ba FB68     		ldr	r3, [r7, #12]
 1631 00bc 1B68     		ldr	r3, [r3]
 1632 00be 1A68     		ldr	r2, [r3]
 1633 00c0 FB68     		ldr	r3, [r7, #12]
 1634 00c2 1B68     		ldr	r3, [r3]
 1635 00c4 42F48032 		orr	r2, r2, #65536
 1636 00c8 1A60     		str	r2, [r3]
 1637              	.L83:
ARM GAS  /tmp/cc2WvXK4.s 			page 46


 922:./Libraries/STM32F4xx_HAL_Driver/Src/stm32f4xx_hal_sai.c ****     }
 923:./Libraries/STM32F4xx_HAL_Driver/Src/stm32f4xx_hal_sai.c **** 
 924:./Libraries/STM32F4xx_HAL_Driver/Src/stm32f4xx_hal_sai.c ****     /* Process Unlocked */
 925:./Libraries/STM32F4xx_HAL_Driver/Src/stm32f4xx_hal_sai.c ****     __HAL_UNLOCK(hsai);
 1638              		.loc 1 925 5
 1639 00ca FB68     		ldr	r3, [r7, #12]
 1640 00cc 0022     		movs	r2, #0
 1641 00ce 83F88020 		strb	r2, [r3, #128]
 926:./Libraries/STM32F4xx_HAL_Driver/Src/stm32f4xx_hal_sai.c **** 
 927:./Libraries/STM32F4xx_HAL_Driver/Src/stm32f4xx_hal_sai.c ****     return HAL_OK;
 1642              		.loc 1 927 12
 1643 00d2 0023     		movs	r3, #0
 1644 00d4 00E0     		b	.L77
 1645              	.L78:
 928:./Libraries/STM32F4xx_HAL_Driver/Src/stm32f4xx_hal_sai.c ****   }
 929:./Libraries/STM32F4xx_HAL_Driver/Src/stm32f4xx_hal_sai.c ****   else
 930:./Libraries/STM32F4xx_HAL_Driver/Src/stm32f4xx_hal_sai.c ****   {
 931:./Libraries/STM32F4xx_HAL_Driver/Src/stm32f4xx_hal_sai.c ****     return HAL_BUSY;
 1646              		.loc 1 931 12
 1647 00d6 0223     		movs	r3, #2
 1648              	.L77:
 932:./Libraries/STM32F4xx_HAL_Driver/Src/stm32f4xx_hal_sai.c ****   }
 933:./Libraries/STM32F4xx_HAL_Driver/Src/stm32f4xx_hal_sai.c **** }
 1649              		.loc 1 933 1
 1650 00d8 1846     		mov	r0, r3
 1651 00da 1037     		adds	r7, r7, #16
 1652              	.LCFI45:
 1653              		.cfi_def_cfa_offset 8
 1654 00dc BD46     		mov	sp, r7
 1655              	.LCFI46:
 1656              		.cfi_def_cfa_register 13
 1657              		@ sp needed
 1658 00de 80BD     		pop	{r7, pc}
 1659              	.L85:
 1660              		.align	2
 1661              	.L84:
 1662 00e0 00000000 		.word	SAI_Receive_IT8Bit
 1663 00e4 00000000 		.word	SAI_Receive_IT16Bit
 1664 00e8 00000000 		.word	SAI_Receive_IT32Bit
 1665              		.cfi_endproc
 1666              	.LFE134:
 1668              		.section	.text.HAL_SAI_DMAPause,"ax",%progbits
 1669              		.align	1
 1670              		.global	HAL_SAI_DMAPause
 1671              		.syntax unified
 1672              		.thumb
 1673              		.thumb_func
 1674              		.fpu fpv4-sp-d16
 1676              	HAL_SAI_DMAPause:
 1677              	.LFB135:
 934:./Libraries/STM32F4xx_HAL_Driver/Src/stm32f4xx_hal_sai.c **** 
 935:./Libraries/STM32F4xx_HAL_Driver/Src/stm32f4xx_hal_sai.c **** /**
 936:./Libraries/STM32F4xx_HAL_Driver/Src/stm32f4xx_hal_sai.c ****   * @brief Pause the audio stream playing from the Media.
 937:./Libraries/STM32F4xx_HAL_Driver/Src/stm32f4xx_hal_sai.c ****   * @param  hsai pointer to a SAI_HandleTypeDef structure that contains
 938:./Libraries/STM32F4xx_HAL_Driver/Src/stm32f4xx_hal_sai.c ****   *               the configuration information for SAI module.
 939:./Libraries/STM32F4xx_HAL_Driver/Src/stm32f4xx_hal_sai.c ****   * @retval HAL status
 940:./Libraries/STM32F4xx_HAL_Driver/Src/stm32f4xx_hal_sai.c ****   */
ARM GAS  /tmp/cc2WvXK4.s 			page 47


 941:./Libraries/STM32F4xx_HAL_Driver/Src/stm32f4xx_hal_sai.c **** HAL_StatusTypeDef HAL_SAI_DMAPause(SAI_HandleTypeDef *hsai)
 942:./Libraries/STM32F4xx_HAL_Driver/Src/stm32f4xx_hal_sai.c **** {
 1678              		.loc 1 942 1
 1679              		.cfi_startproc
 1680              		@ args = 0, pretend = 0, frame = 8
 1681              		@ frame_needed = 1, uses_anonymous_args = 0
 1682              		@ link register save eliminated.
 1683 0000 80B4     		push	{r7}
 1684              	.LCFI47:
 1685              		.cfi_def_cfa_offset 4
 1686              		.cfi_offset 7, -4
 1687 0002 83B0     		sub	sp, sp, #12
 1688              	.LCFI48:
 1689              		.cfi_def_cfa_offset 16
 1690 0004 00AF     		add	r7, sp, #0
 1691              	.LCFI49:
 1692              		.cfi_def_cfa_register 7
 1693 0006 7860     		str	r0, [r7, #4]
 943:./Libraries/STM32F4xx_HAL_Driver/Src/stm32f4xx_hal_sai.c ****   /* Process Locked */
 944:./Libraries/STM32F4xx_HAL_Driver/Src/stm32f4xx_hal_sai.c ****   __HAL_LOCK(hsai);
 1694              		.loc 1 944 3
 1695 0008 7B68     		ldr	r3, [r7, #4]
 1696 000a 93F88030 		ldrb	r3, [r3, #128]	@ zero_extendqisi2
 1697 000e 012B     		cmp	r3, #1
 1698 0010 01D1     		bne	.L87
 1699              		.loc 1 944 3 is_stmt 0 discriminator 1
 1700 0012 0223     		movs	r3, #2
 1701 0014 10E0     		b	.L88
 1702              	.L87:
 1703              		.loc 1 944 3 discriminator 2
 1704 0016 7B68     		ldr	r3, [r7, #4]
 1705 0018 0122     		movs	r2, #1
 1706 001a 83F88020 		strb	r2, [r3, #128]
 945:./Libraries/STM32F4xx_HAL_Driver/Src/stm32f4xx_hal_sai.c **** 
 946:./Libraries/STM32F4xx_HAL_Driver/Src/stm32f4xx_hal_sai.c ****   /* Pause the audio file playing by disabling the SAI DMA requests */
 947:./Libraries/STM32F4xx_HAL_Driver/Src/stm32f4xx_hal_sai.c ****   hsai->Instance->CR1 &= ~SAI_xCR1_DMAEN;
 1707              		.loc 1 947 7 is_stmt 1 discriminator 2
 1708 001e 7B68     		ldr	r3, [r7, #4]
 1709 0020 1B68     		ldr	r3, [r3]
 1710              		.loc 1 947 23 discriminator 2
 1711 0022 1A68     		ldr	r2, [r3]
 1712              		.loc 1 947 7 discriminator 2
 1713 0024 7B68     		ldr	r3, [r7, #4]
 1714 0026 1B68     		ldr	r3, [r3]
 1715              		.loc 1 947 23 discriminator 2
 1716 0028 22F40032 		bic	r2, r2, #131072
 1717 002c 1A60     		str	r2, [r3]
 948:./Libraries/STM32F4xx_HAL_Driver/Src/stm32f4xx_hal_sai.c **** 
 949:./Libraries/STM32F4xx_HAL_Driver/Src/stm32f4xx_hal_sai.c ****   /* Process Unlocked */
 950:./Libraries/STM32F4xx_HAL_Driver/Src/stm32f4xx_hal_sai.c ****   __HAL_UNLOCK(hsai);
 1718              		.loc 1 950 3 discriminator 2
 1719 002e 7B68     		ldr	r3, [r7, #4]
 1720 0030 0022     		movs	r2, #0
 1721 0032 83F88020 		strb	r2, [r3, #128]
 951:./Libraries/STM32F4xx_HAL_Driver/Src/stm32f4xx_hal_sai.c **** 
 952:./Libraries/STM32F4xx_HAL_Driver/Src/stm32f4xx_hal_sai.c ****   return HAL_OK;
 1722              		.loc 1 952 10 discriminator 2
ARM GAS  /tmp/cc2WvXK4.s 			page 48


 1723 0036 0023     		movs	r3, #0
 1724              	.L88:
 953:./Libraries/STM32F4xx_HAL_Driver/Src/stm32f4xx_hal_sai.c **** }
 1725              		.loc 1 953 1
 1726 0038 1846     		mov	r0, r3
 1727 003a 0C37     		adds	r7, r7, #12
 1728              	.LCFI50:
 1729              		.cfi_def_cfa_offset 4
 1730 003c BD46     		mov	sp, r7
 1731              	.LCFI51:
 1732              		.cfi_def_cfa_register 13
 1733              		@ sp needed
 1734 003e 5DF8047B 		ldr	r7, [sp], #4
 1735              	.LCFI52:
 1736              		.cfi_restore 7
 1737              		.cfi_def_cfa_offset 0
 1738 0042 7047     		bx	lr
 1739              		.cfi_endproc
 1740              	.LFE135:
 1742              		.section	.text.HAL_SAI_DMAResume,"ax",%progbits
 1743              		.align	1
 1744              		.global	HAL_SAI_DMAResume
 1745              		.syntax unified
 1746              		.thumb
 1747              		.thumb_func
 1748              		.fpu fpv4-sp-d16
 1750              	HAL_SAI_DMAResume:
 1751              	.LFB136:
 954:./Libraries/STM32F4xx_HAL_Driver/Src/stm32f4xx_hal_sai.c **** 
 955:./Libraries/STM32F4xx_HAL_Driver/Src/stm32f4xx_hal_sai.c **** /**
 956:./Libraries/STM32F4xx_HAL_Driver/Src/stm32f4xx_hal_sai.c ****   * @brief Resume the audio stream playing from the Media.
 957:./Libraries/STM32F4xx_HAL_Driver/Src/stm32f4xx_hal_sai.c ****   * @param  hsai pointer to a SAI_HandleTypeDef structure that contains
 958:./Libraries/STM32F4xx_HAL_Driver/Src/stm32f4xx_hal_sai.c ****   *               the configuration information for SAI module.
 959:./Libraries/STM32F4xx_HAL_Driver/Src/stm32f4xx_hal_sai.c ****   * @retval HAL status
 960:./Libraries/STM32F4xx_HAL_Driver/Src/stm32f4xx_hal_sai.c ****   */
 961:./Libraries/STM32F4xx_HAL_Driver/Src/stm32f4xx_hal_sai.c **** HAL_StatusTypeDef HAL_SAI_DMAResume(SAI_HandleTypeDef *hsai)
 962:./Libraries/STM32F4xx_HAL_Driver/Src/stm32f4xx_hal_sai.c **** {
 1752              		.loc 1 962 1
 1753              		.cfi_startproc
 1754              		@ args = 0, pretend = 0, frame = 8
 1755              		@ frame_needed = 1, uses_anonymous_args = 0
 1756              		@ link register save eliminated.
 1757 0000 80B4     		push	{r7}
 1758              	.LCFI53:
 1759              		.cfi_def_cfa_offset 4
 1760              		.cfi_offset 7, -4
 1761 0002 83B0     		sub	sp, sp, #12
 1762              	.LCFI54:
 1763              		.cfi_def_cfa_offset 16
 1764 0004 00AF     		add	r7, sp, #0
 1765              	.LCFI55:
 1766              		.cfi_def_cfa_register 7
 1767 0006 7860     		str	r0, [r7, #4]
 963:./Libraries/STM32F4xx_HAL_Driver/Src/stm32f4xx_hal_sai.c ****   /* Process Locked */
 964:./Libraries/STM32F4xx_HAL_Driver/Src/stm32f4xx_hal_sai.c ****   __HAL_LOCK(hsai);
 1768              		.loc 1 964 3
 1769 0008 7B68     		ldr	r3, [r7, #4]
ARM GAS  /tmp/cc2WvXK4.s 			page 49


 1770 000a 93F88030 		ldrb	r3, [r3, #128]	@ zero_extendqisi2
 1771 000e 012B     		cmp	r3, #1
 1772 0010 01D1     		bne	.L90
 1773              		.loc 1 964 3 is_stmt 0 discriminator 1
 1774 0012 0223     		movs	r3, #2
 1775 0014 1FE0     		b	.L91
 1776              	.L90:
 1777              		.loc 1 964 3 discriminator 2
 1778 0016 7B68     		ldr	r3, [r7, #4]
 1779 0018 0122     		movs	r2, #1
 1780 001a 83F88020 		strb	r2, [r3, #128]
 965:./Libraries/STM32F4xx_HAL_Driver/Src/stm32f4xx_hal_sai.c **** 
 966:./Libraries/STM32F4xx_HAL_Driver/Src/stm32f4xx_hal_sai.c ****   /* Enable the SAI DMA requests */
 967:./Libraries/STM32F4xx_HAL_Driver/Src/stm32f4xx_hal_sai.c ****   hsai->Instance->CR1 |= SAI_xCR1_DMAEN;
 1781              		.loc 1 967 7 is_stmt 1 discriminator 2
 1782 001e 7B68     		ldr	r3, [r7, #4]
 1783 0020 1B68     		ldr	r3, [r3]
 1784              		.loc 1 967 23 discriminator 2
 1785 0022 1A68     		ldr	r2, [r3]
 1786              		.loc 1 967 7 discriminator 2
 1787 0024 7B68     		ldr	r3, [r7, #4]
 1788 0026 1B68     		ldr	r3, [r3]
 1789              		.loc 1 967 23 discriminator 2
 1790 0028 42F40032 		orr	r2, r2, #131072
 1791 002c 1A60     		str	r2, [r3]
 968:./Libraries/STM32F4xx_HAL_Driver/Src/stm32f4xx_hal_sai.c **** 
 969:./Libraries/STM32F4xx_HAL_Driver/Src/stm32f4xx_hal_sai.c ****   /* If the SAI peripheral is still not enabled, enable it */
 970:./Libraries/STM32F4xx_HAL_Driver/Src/stm32f4xx_hal_sai.c ****   if ((hsai->Instance->CR1 & SAI_xCR1_SAIEN) == RESET)
 1792              		.loc 1 970 12 discriminator 2
 1793 002e 7B68     		ldr	r3, [r7, #4]
 1794 0030 1B68     		ldr	r3, [r3]
 1795              		.loc 1 970 22 discriminator 2
 1796 0032 1B68     		ldr	r3, [r3]
 1797              		.loc 1 970 28 discriminator 2
 1798 0034 03F48033 		and	r3, r3, #65536
 1799              		.loc 1 970 6 discriminator 2
 1800 0038 002B     		cmp	r3, #0
 1801 003a 07D1     		bne	.L92
 971:./Libraries/STM32F4xx_HAL_Driver/Src/stm32f4xx_hal_sai.c ****   {
 972:./Libraries/STM32F4xx_HAL_Driver/Src/stm32f4xx_hal_sai.c ****     /* Enable SAI peripheral */
 973:./Libraries/STM32F4xx_HAL_Driver/Src/stm32f4xx_hal_sai.c ****     __HAL_SAI_ENABLE(hsai);
 1802              		.loc 1 973 5
 1803 003c 7B68     		ldr	r3, [r7, #4]
 1804 003e 1B68     		ldr	r3, [r3]
 1805 0040 1A68     		ldr	r2, [r3]
 1806 0042 7B68     		ldr	r3, [r7, #4]
 1807 0044 1B68     		ldr	r3, [r3]
 1808 0046 42F48032 		orr	r2, r2, #65536
 1809 004a 1A60     		str	r2, [r3]
 1810              	.L92:
 974:./Libraries/STM32F4xx_HAL_Driver/Src/stm32f4xx_hal_sai.c ****   }
 975:./Libraries/STM32F4xx_HAL_Driver/Src/stm32f4xx_hal_sai.c **** 
 976:./Libraries/STM32F4xx_HAL_Driver/Src/stm32f4xx_hal_sai.c ****   /* Process Unlocked */
 977:./Libraries/STM32F4xx_HAL_Driver/Src/stm32f4xx_hal_sai.c ****   __HAL_UNLOCK(hsai);
 1811              		.loc 1 977 3
 1812 004c 7B68     		ldr	r3, [r7, #4]
 1813 004e 0022     		movs	r2, #0
ARM GAS  /tmp/cc2WvXK4.s 			page 50


 1814 0050 83F88020 		strb	r2, [r3, #128]
 978:./Libraries/STM32F4xx_HAL_Driver/Src/stm32f4xx_hal_sai.c **** 
 979:./Libraries/STM32F4xx_HAL_Driver/Src/stm32f4xx_hal_sai.c ****   return HAL_OK;
 1815              		.loc 1 979 10
 1816 0054 0023     		movs	r3, #0
 1817              	.L91:
 980:./Libraries/STM32F4xx_HAL_Driver/Src/stm32f4xx_hal_sai.c **** }
 1818              		.loc 1 980 1
 1819 0056 1846     		mov	r0, r3
 1820 0058 0C37     		adds	r7, r7, #12
 1821              	.LCFI56:
 1822              		.cfi_def_cfa_offset 4
 1823 005a BD46     		mov	sp, r7
 1824              	.LCFI57:
 1825              		.cfi_def_cfa_register 13
 1826              		@ sp needed
 1827 005c 5DF8047B 		ldr	r7, [sp], #4
 1828              	.LCFI58:
 1829              		.cfi_restore 7
 1830              		.cfi_def_cfa_offset 0
 1831 0060 7047     		bx	lr
 1832              		.cfi_endproc
 1833              	.LFE136:
 1835              		.section	.text.HAL_SAI_DMAStop,"ax",%progbits
 1836              		.align	1
 1837              		.global	HAL_SAI_DMAStop
 1838              		.syntax unified
 1839              		.thumb
 1840              		.thumb_func
 1841              		.fpu fpv4-sp-d16
 1843              	HAL_SAI_DMAStop:
 1844              	.LFB137:
 981:./Libraries/STM32F4xx_HAL_Driver/Src/stm32f4xx_hal_sai.c **** 
 982:./Libraries/STM32F4xx_HAL_Driver/Src/stm32f4xx_hal_sai.c **** /**
 983:./Libraries/STM32F4xx_HAL_Driver/Src/stm32f4xx_hal_sai.c ****   * @brief Stop the audio stream playing from the Media.
 984:./Libraries/STM32F4xx_HAL_Driver/Src/stm32f4xx_hal_sai.c ****   * @param  hsai pointer to a SAI_HandleTypeDef structure that contains
 985:./Libraries/STM32F4xx_HAL_Driver/Src/stm32f4xx_hal_sai.c ****   *               the configuration information for SAI module.
 986:./Libraries/STM32F4xx_HAL_Driver/Src/stm32f4xx_hal_sai.c ****   * @retval HAL status
 987:./Libraries/STM32F4xx_HAL_Driver/Src/stm32f4xx_hal_sai.c ****   */
 988:./Libraries/STM32F4xx_HAL_Driver/Src/stm32f4xx_hal_sai.c **** HAL_StatusTypeDef HAL_SAI_DMAStop(SAI_HandleTypeDef *hsai)
 989:./Libraries/STM32F4xx_HAL_Driver/Src/stm32f4xx_hal_sai.c **** {
 1845              		.loc 1 989 1
 1846              		.cfi_startproc
 1847              		@ args = 0, pretend = 0, frame = 8
 1848              		@ frame_needed = 1, uses_anonymous_args = 0
 1849 0000 80B5     		push	{r7, lr}
 1850              	.LCFI59:
 1851              		.cfi_def_cfa_offset 8
 1852              		.cfi_offset 7, -8
 1853              		.cfi_offset 14, -4
 1854 0002 82B0     		sub	sp, sp, #8
 1855              	.LCFI60:
 1856              		.cfi_def_cfa_offset 16
 1857 0004 00AF     		add	r7, sp, #0
 1858              	.LCFI61:
 1859              		.cfi_def_cfa_register 7
 1860 0006 7860     		str	r0, [r7, #4]
ARM GAS  /tmp/cc2WvXK4.s 			page 51


 990:./Libraries/STM32F4xx_HAL_Driver/Src/stm32f4xx_hal_sai.c ****   /* Process Locked */
 991:./Libraries/STM32F4xx_HAL_Driver/Src/stm32f4xx_hal_sai.c ****   __HAL_LOCK(hsai);
 1861              		.loc 1 991 3
 1862 0008 7B68     		ldr	r3, [r7, #4]
 1863 000a 93F88030 		ldrb	r3, [r3, #128]	@ zero_extendqisi2
 1864 000e 012B     		cmp	r3, #1
 1865 0010 01D1     		bne	.L94
 1866              		.loc 1 991 3 is_stmt 0 discriminator 1
 1867 0012 0223     		movs	r3, #2
 1868 0014 3BE0     		b	.L95
 1869              	.L94:
 1870              		.loc 1 991 3 discriminator 2
 1871 0016 7B68     		ldr	r3, [r7, #4]
 1872 0018 0122     		movs	r2, #1
 1873 001a 83F88020 		strb	r2, [r3, #128]
 992:./Libraries/STM32F4xx_HAL_Driver/Src/stm32f4xx_hal_sai.c **** 
 993:./Libraries/STM32F4xx_HAL_Driver/Src/stm32f4xx_hal_sai.c ****   /* Disable the SAI DMA request */
 994:./Libraries/STM32F4xx_HAL_Driver/Src/stm32f4xx_hal_sai.c ****   hsai->Instance->CR1 &= ~SAI_xCR1_DMAEN;
 1874              		.loc 1 994 7 is_stmt 1 discriminator 2
 1875 001e 7B68     		ldr	r3, [r7, #4]
 1876 0020 1B68     		ldr	r3, [r3]
 1877              		.loc 1 994 23 discriminator 2
 1878 0022 1A68     		ldr	r2, [r3]
 1879              		.loc 1 994 7 discriminator 2
 1880 0024 7B68     		ldr	r3, [r7, #4]
 1881 0026 1B68     		ldr	r3, [r3]
 1882              		.loc 1 994 23 discriminator 2
 1883 0028 22F40032 		bic	r2, r2, #131072
 1884 002c 1A60     		str	r2, [r3]
 995:./Libraries/STM32F4xx_HAL_Driver/Src/stm32f4xx_hal_sai.c **** 
 996:./Libraries/STM32F4xx_HAL_Driver/Src/stm32f4xx_hal_sai.c ****   /* Abort the SAI DMA Streams */
 997:./Libraries/STM32F4xx_HAL_Driver/Src/stm32f4xx_hal_sai.c ****   if(hsai->hdmatx != NULL)
 1885              		.loc 1 997 10 discriminator 2
 1886 002e 7B68     		ldr	r3, [r7, #4]
 1887 0030 1B6F     		ldr	r3, [r3, #112]
 1888              		.loc 1 997 5 discriminator 2
 1889 0032 002B     		cmp	r3, #0
 1890 0034 09D0     		beq	.L96
 998:./Libraries/STM32F4xx_HAL_Driver/Src/stm32f4xx_hal_sai.c ****   {
 999:./Libraries/STM32F4xx_HAL_Driver/Src/stm32f4xx_hal_sai.c ****     if(HAL_DMA_Abort(hsai->hdmatx) != HAL_OK)
 1891              		.loc 1 999 8
 1892 0036 7B68     		ldr	r3, [r7, #4]
 1893 0038 1B6F     		ldr	r3, [r3, #112]
 1894 003a 1846     		mov	r0, r3
 1895 003c FFF7FEFF 		bl	HAL_DMA_Abort
 1896 0040 0346     		mov	r3, r0
 1897              		.loc 1 999 7
 1898 0042 002B     		cmp	r3, #0
 1899 0044 01D0     		beq	.L96
1000:./Libraries/STM32F4xx_HAL_Driver/Src/stm32f4xx_hal_sai.c ****     {
1001:./Libraries/STM32F4xx_HAL_Driver/Src/stm32f4xx_hal_sai.c ****       return HAL_ERROR;
 1900              		.loc 1 1001 14
 1901 0046 0123     		movs	r3, #1
 1902 0048 21E0     		b	.L95
 1903              	.L96:
1002:./Libraries/STM32F4xx_HAL_Driver/Src/stm32f4xx_hal_sai.c ****     }
1003:./Libraries/STM32F4xx_HAL_Driver/Src/stm32f4xx_hal_sai.c ****   }
ARM GAS  /tmp/cc2WvXK4.s 			page 52


1004:./Libraries/STM32F4xx_HAL_Driver/Src/stm32f4xx_hal_sai.c **** 
1005:./Libraries/STM32F4xx_HAL_Driver/Src/stm32f4xx_hal_sai.c ****   if(hsai->hdmarx != NULL)
 1904              		.loc 1 1005 10
 1905 004a 7B68     		ldr	r3, [r7, #4]
 1906 004c 5B6F     		ldr	r3, [r3, #116]
 1907              		.loc 1 1005 5
 1908 004e 002B     		cmp	r3, #0
 1909 0050 09D0     		beq	.L97
1006:./Libraries/STM32F4xx_HAL_Driver/Src/stm32f4xx_hal_sai.c ****   {
1007:./Libraries/STM32F4xx_HAL_Driver/Src/stm32f4xx_hal_sai.c ****     if(HAL_DMA_Abort(hsai->hdmarx) != HAL_OK)
 1910              		.loc 1 1007 8
 1911 0052 7B68     		ldr	r3, [r7, #4]
 1912 0054 5B6F     		ldr	r3, [r3, #116]
 1913 0056 1846     		mov	r0, r3
 1914 0058 FFF7FEFF 		bl	HAL_DMA_Abort
 1915 005c 0346     		mov	r3, r0
 1916              		.loc 1 1007 7
 1917 005e 002B     		cmp	r3, #0
 1918 0060 01D0     		beq	.L97
1008:./Libraries/STM32F4xx_HAL_Driver/Src/stm32f4xx_hal_sai.c ****     {
1009:./Libraries/STM32F4xx_HAL_Driver/Src/stm32f4xx_hal_sai.c ****       return HAL_ERROR;
 1919              		.loc 1 1009 14
 1920 0062 0123     		movs	r3, #1
 1921 0064 13E0     		b	.L95
 1922              	.L97:
1010:./Libraries/STM32F4xx_HAL_Driver/Src/stm32f4xx_hal_sai.c ****     }
1011:./Libraries/STM32F4xx_HAL_Driver/Src/stm32f4xx_hal_sai.c ****   }
1012:./Libraries/STM32F4xx_HAL_Driver/Src/stm32f4xx_hal_sai.c **** 
1013:./Libraries/STM32F4xx_HAL_Driver/Src/stm32f4xx_hal_sai.c ****   /* Disable SAI peripheral */
1014:./Libraries/STM32F4xx_HAL_Driver/Src/stm32f4xx_hal_sai.c ****   SAI_Disable(hsai);
 1923              		.loc 1 1014 3
 1924 0066 7868     		ldr	r0, [r7, #4]
 1925 0068 FFF7FEFF 		bl	SAI_Disable
1015:./Libraries/STM32F4xx_HAL_Driver/Src/stm32f4xx_hal_sai.c **** 
1016:./Libraries/STM32F4xx_HAL_Driver/Src/stm32f4xx_hal_sai.c ****   /* Flush the fifo */
1017:./Libraries/STM32F4xx_HAL_Driver/Src/stm32f4xx_hal_sai.c ****   SET_BIT(hsai->Instance->CR2, SAI_xCR2_FFLUSH);
 1926              		.loc 1 1017 3
 1927 006c 7B68     		ldr	r3, [r7, #4]
 1928 006e 1B68     		ldr	r3, [r3]
 1929 0070 5A68     		ldr	r2, [r3, #4]
 1930 0072 7B68     		ldr	r3, [r7, #4]
 1931 0074 1B68     		ldr	r3, [r3]
 1932 0076 42F00802 		orr	r2, r2, #8
 1933 007a 5A60     		str	r2, [r3, #4]
1018:./Libraries/STM32F4xx_HAL_Driver/Src/stm32f4xx_hal_sai.c **** 
1019:./Libraries/STM32F4xx_HAL_Driver/Src/stm32f4xx_hal_sai.c ****   hsai->State = HAL_SAI_STATE_READY;
 1934              		.loc 1 1019 15
 1935 007c 7B68     		ldr	r3, [r7, #4]
 1936 007e 0122     		movs	r2, #1
 1937 0080 83F88120 		strb	r2, [r3, #129]
1020:./Libraries/STM32F4xx_HAL_Driver/Src/stm32f4xx_hal_sai.c **** 
1021:./Libraries/STM32F4xx_HAL_Driver/Src/stm32f4xx_hal_sai.c ****   /* Process Unlocked */
1022:./Libraries/STM32F4xx_HAL_Driver/Src/stm32f4xx_hal_sai.c ****   __HAL_UNLOCK(hsai);
 1938              		.loc 1 1022 3
 1939 0084 7B68     		ldr	r3, [r7, #4]
 1940 0086 0022     		movs	r2, #0
 1941 0088 83F88020 		strb	r2, [r3, #128]
ARM GAS  /tmp/cc2WvXK4.s 			page 53


1023:./Libraries/STM32F4xx_HAL_Driver/Src/stm32f4xx_hal_sai.c **** 
1024:./Libraries/STM32F4xx_HAL_Driver/Src/stm32f4xx_hal_sai.c ****   return HAL_OK;
 1942              		.loc 1 1024 10
 1943 008c 0023     		movs	r3, #0
 1944              	.L95:
1025:./Libraries/STM32F4xx_HAL_Driver/Src/stm32f4xx_hal_sai.c **** }
 1945              		.loc 1 1025 1
 1946 008e 1846     		mov	r0, r3
 1947 0090 0837     		adds	r7, r7, #8
 1948              	.LCFI62:
 1949              		.cfi_def_cfa_offset 8
 1950 0092 BD46     		mov	sp, r7
 1951              	.LCFI63:
 1952              		.cfi_def_cfa_register 13
 1953              		@ sp needed
 1954 0094 80BD     		pop	{r7, pc}
 1955              		.cfi_endproc
 1956              	.LFE137:
 1958              		.section	.text.HAL_SAI_Abort,"ax",%progbits
 1959              		.align	1
 1960              		.global	HAL_SAI_Abort
 1961              		.syntax unified
 1962              		.thumb
 1963              		.thumb_func
 1964              		.fpu fpv4-sp-d16
 1966              	HAL_SAI_Abort:
 1967              	.LFB138:
1026:./Libraries/STM32F4xx_HAL_Driver/Src/stm32f4xx_hal_sai.c **** 
1027:./Libraries/STM32F4xx_HAL_Driver/Src/stm32f4xx_hal_sai.c **** /**
1028:./Libraries/STM32F4xx_HAL_Driver/Src/stm32f4xx_hal_sai.c ****   * @brief Abort the current transfer and disable the SAI.
1029:./Libraries/STM32F4xx_HAL_Driver/Src/stm32f4xx_hal_sai.c ****   * @param  hsai pointer to a SAI_HandleTypeDef structure that contains
1030:./Libraries/STM32F4xx_HAL_Driver/Src/stm32f4xx_hal_sai.c ****   *               the configuration information for SAI module.
1031:./Libraries/STM32F4xx_HAL_Driver/Src/stm32f4xx_hal_sai.c ****   * @retval HAL status
1032:./Libraries/STM32F4xx_HAL_Driver/Src/stm32f4xx_hal_sai.c ****   */
1033:./Libraries/STM32F4xx_HAL_Driver/Src/stm32f4xx_hal_sai.c **** HAL_StatusTypeDef HAL_SAI_Abort(SAI_HandleTypeDef *hsai)
1034:./Libraries/STM32F4xx_HAL_Driver/Src/stm32f4xx_hal_sai.c **** {
 1968              		.loc 1 1034 1
 1969              		.cfi_startproc
 1970              		@ args = 0, pretend = 0, frame = 8
 1971              		@ frame_needed = 1, uses_anonymous_args = 0
 1972 0000 80B5     		push	{r7, lr}
 1973              	.LCFI64:
 1974              		.cfi_def_cfa_offset 8
 1975              		.cfi_offset 7, -8
 1976              		.cfi_offset 14, -4
 1977 0002 82B0     		sub	sp, sp, #8
 1978              	.LCFI65:
 1979              		.cfi_def_cfa_offset 16
 1980 0004 00AF     		add	r7, sp, #0
 1981              	.LCFI66:
 1982              		.cfi_def_cfa_register 7
 1983 0006 7860     		str	r0, [r7, #4]
1035:./Libraries/STM32F4xx_HAL_Driver/Src/stm32f4xx_hal_sai.c ****   /* Process Locked */
1036:./Libraries/STM32F4xx_HAL_Driver/Src/stm32f4xx_hal_sai.c ****   __HAL_LOCK(hsai);
 1984              		.loc 1 1036 3
 1985 0008 7B68     		ldr	r3, [r7, #4]
 1986 000a 93F88030 		ldrb	r3, [r3, #128]	@ zero_extendqisi2
ARM GAS  /tmp/cc2WvXK4.s 			page 54


 1987 000e 012B     		cmp	r3, #1
 1988 0010 01D1     		bne	.L99
 1989              		.loc 1 1036 3 is_stmt 0 discriminator 1
 1990 0012 0223     		movs	r3, #2
 1991 0014 4CE0     		b	.L100
 1992              	.L99:
 1993              		.loc 1 1036 3 discriminator 2
 1994 0016 7B68     		ldr	r3, [r7, #4]
 1995 0018 0122     		movs	r2, #1
 1996 001a 83F88020 		strb	r2, [r3, #128]
1037:./Libraries/STM32F4xx_HAL_Driver/Src/stm32f4xx_hal_sai.c **** 
1038:./Libraries/STM32F4xx_HAL_Driver/Src/stm32f4xx_hal_sai.c ****   /* Check SAI DMA is enabled or not */
1039:./Libraries/STM32F4xx_HAL_Driver/Src/stm32f4xx_hal_sai.c ****   if((hsai->Instance->CR1 & SAI_xCR1_DMAEN) == SAI_xCR1_DMAEN)
 1997              		.loc 1 1039 11 is_stmt 1 discriminator 2
 1998 001e 7B68     		ldr	r3, [r7, #4]
 1999 0020 1B68     		ldr	r3, [r3]
 2000              		.loc 1 1039 21 discriminator 2
 2001 0022 1B68     		ldr	r3, [r3]
 2002              		.loc 1 1039 27 discriminator 2
 2003 0024 03F40033 		and	r3, r3, #131072
 2004              		.loc 1 1039 5 discriminator 2
 2005 0028 B3F5003F 		cmp	r3, #131072
 2006 002c 23D1     		bne	.L101
1040:./Libraries/STM32F4xx_HAL_Driver/Src/stm32f4xx_hal_sai.c ****   {
1041:./Libraries/STM32F4xx_HAL_Driver/Src/stm32f4xx_hal_sai.c ****     /* Disable the SAI DMA request */
1042:./Libraries/STM32F4xx_HAL_Driver/Src/stm32f4xx_hal_sai.c ****     hsai->Instance->CR1 &= ~SAI_xCR1_DMAEN;
 2007              		.loc 1 1042 9
 2008 002e 7B68     		ldr	r3, [r7, #4]
 2009 0030 1B68     		ldr	r3, [r3]
 2010              		.loc 1 1042 25
 2011 0032 1A68     		ldr	r2, [r3]
 2012              		.loc 1 1042 9
 2013 0034 7B68     		ldr	r3, [r7, #4]
 2014 0036 1B68     		ldr	r3, [r3]
 2015              		.loc 1 1042 25
 2016 0038 22F40032 		bic	r2, r2, #131072
 2017 003c 1A60     		str	r2, [r3]
1043:./Libraries/STM32F4xx_HAL_Driver/Src/stm32f4xx_hal_sai.c ****     
1044:./Libraries/STM32F4xx_HAL_Driver/Src/stm32f4xx_hal_sai.c ****     /* Abort the SAI DMA Streams */
1045:./Libraries/STM32F4xx_HAL_Driver/Src/stm32f4xx_hal_sai.c ****     if(hsai->hdmatx != NULL)
 2018              		.loc 1 1045 12
 2019 003e 7B68     		ldr	r3, [r7, #4]
 2020 0040 1B6F     		ldr	r3, [r3, #112]
 2021              		.loc 1 1045 7
 2022 0042 002B     		cmp	r3, #0
 2023 0044 09D0     		beq	.L102
1046:./Libraries/STM32F4xx_HAL_Driver/Src/stm32f4xx_hal_sai.c ****     {
1047:./Libraries/STM32F4xx_HAL_Driver/Src/stm32f4xx_hal_sai.c ****       if(HAL_DMA_Abort(hsai->hdmatx) != HAL_OK)
 2024              		.loc 1 1047 10
 2025 0046 7B68     		ldr	r3, [r7, #4]
 2026 0048 1B6F     		ldr	r3, [r3, #112]
 2027 004a 1846     		mov	r0, r3
 2028 004c FFF7FEFF 		bl	HAL_DMA_Abort
 2029 0050 0346     		mov	r3, r0
 2030              		.loc 1 1047 9
 2031 0052 002B     		cmp	r3, #0
 2032 0054 01D0     		beq	.L102
ARM GAS  /tmp/cc2WvXK4.s 			page 55


1048:./Libraries/STM32F4xx_HAL_Driver/Src/stm32f4xx_hal_sai.c ****       {
1049:./Libraries/STM32F4xx_HAL_Driver/Src/stm32f4xx_hal_sai.c ****         return HAL_ERROR;
 2033              		.loc 1 1049 16
 2034 0056 0123     		movs	r3, #1
 2035 0058 2AE0     		b	.L100
 2036              	.L102:
1050:./Libraries/STM32F4xx_HAL_Driver/Src/stm32f4xx_hal_sai.c ****       }
1051:./Libraries/STM32F4xx_HAL_Driver/Src/stm32f4xx_hal_sai.c ****     }
1052:./Libraries/STM32F4xx_HAL_Driver/Src/stm32f4xx_hal_sai.c ****     
1053:./Libraries/STM32F4xx_HAL_Driver/Src/stm32f4xx_hal_sai.c ****     if(hsai->hdmarx != NULL)
 2037              		.loc 1 1053 12
 2038 005a 7B68     		ldr	r3, [r7, #4]
 2039 005c 5B6F     		ldr	r3, [r3, #116]
 2040              		.loc 1 1053 7
 2041 005e 002B     		cmp	r3, #0
 2042 0060 09D0     		beq	.L101
1054:./Libraries/STM32F4xx_HAL_Driver/Src/stm32f4xx_hal_sai.c ****     {
1055:./Libraries/STM32F4xx_HAL_Driver/Src/stm32f4xx_hal_sai.c ****       if(HAL_DMA_Abort(hsai->hdmarx) != HAL_OK)
 2043              		.loc 1 1055 10
 2044 0062 7B68     		ldr	r3, [r7, #4]
 2045 0064 5B6F     		ldr	r3, [r3, #116]
 2046 0066 1846     		mov	r0, r3
 2047 0068 FFF7FEFF 		bl	HAL_DMA_Abort
 2048 006c 0346     		mov	r3, r0
 2049              		.loc 1 1055 9
 2050 006e 002B     		cmp	r3, #0
 2051 0070 01D0     		beq	.L101
1056:./Libraries/STM32F4xx_HAL_Driver/Src/stm32f4xx_hal_sai.c ****       {
1057:./Libraries/STM32F4xx_HAL_Driver/Src/stm32f4xx_hal_sai.c ****         return HAL_ERROR;
 2052              		.loc 1 1057 16
 2053 0072 0123     		movs	r3, #1
 2054 0074 1CE0     		b	.L100
 2055              	.L101:
1058:./Libraries/STM32F4xx_HAL_Driver/Src/stm32f4xx_hal_sai.c ****       }
1059:./Libraries/STM32F4xx_HAL_Driver/Src/stm32f4xx_hal_sai.c ****     }
1060:./Libraries/STM32F4xx_HAL_Driver/Src/stm32f4xx_hal_sai.c ****   }
1061:./Libraries/STM32F4xx_HAL_Driver/Src/stm32f4xx_hal_sai.c **** 
1062:./Libraries/STM32F4xx_HAL_Driver/Src/stm32f4xx_hal_sai.c ****   /* Disabled All interrupt and clear all the flag */
1063:./Libraries/STM32F4xx_HAL_Driver/Src/stm32f4xx_hal_sai.c ****   hsai->Instance->IMR = 0U;
 2056              		.loc 1 1063 7
 2057 0076 7B68     		ldr	r3, [r7, #4]
 2058 0078 1B68     		ldr	r3, [r3]
 2059              		.loc 1 1063 23
 2060 007a 0022     		movs	r2, #0
 2061 007c 1A61     		str	r2, [r3, #16]
1064:./Libraries/STM32F4xx_HAL_Driver/Src/stm32f4xx_hal_sai.c ****   hsai->Instance->CLRFR = 0xFFFFFFFFU;
 2062              		.loc 1 1064 7
 2063 007e 7B68     		ldr	r3, [r7, #4]
 2064 0080 1B68     		ldr	r3, [r3]
 2065              		.loc 1 1064 25
 2066 0082 4FF0FF32 		mov	r2, #-1
 2067 0086 9A61     		str	r2, [r3, #24]
1065:./Libraries/STM32F4xx_HAL_Driver/Src/stm32f4xx_hal_sai.c **** 
1066:./Libraries/STM32F4xx_HAL_Driver/Src/stm32f4xx_hal_sai.c ****   /* Disable SAI peripheral */
1067:./Libraries/STM32F4xx_HAL_Driver/Src/stm32f4xx_hal_sai.c ****   SAI_Disable(hsai);
 2068              		.loc 1 1067 3
 2069 0088 7868     		ldr	r0, [r7, #4]
ARM GAS  /tmp/cc2WvXK4.s 			page 56


 2070 008a FFF7FEFF 		bl	SAI_Disable
1068:./Libraries/STM32F4xx_HAL_Driver/Src/stm32f4xx_hal_sai.c **** 
1069:./Libraries/STM32F4xx_HAL_Driver/Src/stm32f4xx_hal_sai.c ****   /* Flush the fifo */
1070:./Libraries/STM32F4xx_HAL_Driver/Src/stm32f4xx_hal_sai.c ****   SET_BIT(hsai->Instance->CR2, SAI_xCR2_FFLUSH);
 2071              		.loc 1 1070 3
 2072 008e 7B68     		ldr	r3, [r7, #4]
 2073 0090 1B68     		ldr	r3, [r3]
 2074 0092 5A68     		ldr	r2, [r3, #4]
 2075 0094 7B68     		ldr	r3, [r7, #4]
 2076 0096 1B68     		ldr	r3, [r3]
 2077 0098 42F00802 		orr	r2, r2, #8
 2078 009c 5A60     		str	r2, [r3, #4]
1071:./Libraries/STM32F4xx_HAL_Driver/Src/stm32f4xx_hal_sai.c **** 
1072:./Libraries/STM32F4xx_HAL_Driver/Src/stm32f4xx_hal_sai.c ****   hsai->State = HAL_SAI_STATE_READY;
 2079              		.loc 1 1072 15
 2080 009e 7B68     		ldr	r3, [r7, #4]
 2081 00a0 0122     		movs	r2, #1
 2082 00a2 83F88120 		strb	r2, [r3, #129]
1073:./Libraries/STM32F4xx_HAL_Driver/Src/stm32f4xx_hal_sai.c **** 
1074:./Libraries/STM32F4xx_HAL_Driver/Src/stm32f4xx_hal_sai.c ****   /* Process Unlocked */
1075:./Libraries/STM32F4xx_HAL_Driver/Src/stm32f4xx_hal_sai.c ****   __HAL_UNLOCK(hsai);
 2083              		.loc 1 1075 3
 2084 00a6 7B68     		ldr	r3, [r7, #4]
 2085 00a8 0022     		movs	r2, #0
 2086 00aa 83F88020 		strb	r2, [r3, #128]
1076:./Libraries/STM32F4xx_HAL_Driver/Src/stm32f4xx_hal_sai.c **** 
1077:./Libraries/STM32F4xx_HAL_Driver/Src/stm32f4xx_hal_sai.c ****   return HAL_OK;
 2087              		.loc 1 1077 10
 2088 00ae 0023     		movs	r3, #0
 2089              	.L100:
1078:./Libraries/STM32F4xx_HAL_Driver/Src/stm32f4xx_hal_sai.c **** }
 2090              		.loc 1 1078 1
 2091 00b0 1846     		mov	r0, r3
 2092 00b2 0837     		adds	r7, r7, #8
 2093              	.LCFI67:
 2094              		.cfi_def_cfa_offset 8
 2095 00b4 BD46     		mov	sp, r7
 2096              	.LCFI68:
 2097              		.cfi_def_cfa_register 13
 2098              		@ sp needed
 2099 00b6 80BD     		pop	{r7, pc}
 2100              		.cfi_endproc
 2101              	.LFE138:
 2103              		.section	.text.HAL_SAI_Transmit_DMA,"ax",%progbits
 2104              		.align	1
 2105              		.global	HAL_SAI_Transmit_DMA
 2106              		.syntax unified
 2107              		.thumb
 2108              		.thumb_func
 2109              		.fpu fpv4-sp-d16
 2111              	HAL_SAI_Transmit_DMA:
 2112              	.LFB139:
1079:./Libraries/STM32F4xx_HAL_Driver/Src/stm32f4xx_hal_sai.c **** 
1080:./Libraries/STM32F4xx_HAL_Driver/Src/stm32f4xx_hal_sai.c **** /**
1081:./Libraries/STM32F4xx_HAL_Driver/Src/stm32f4xx_hal_sai.c ****   * @brief  Transmit an amount of data in non-blocking mode with DMA.
1082:./Libraries/STM32F4xx_HAL_Driver/Src/stm32f4xx_hal_sai.c ****   * @param  hsai pointer to a SAI_HandleTypeDef structure that contains
1083:./Libraries/STM32F4xx_HAL_Driver/Src/stm32f4xx_hal_sai.c ****   *               the configuration information for SAI module.
ARM GAS  /tmp/cc2WvXK4.s 			page 57


1084:./Libraries/STM32F4xx_HAL_Driver/Src/stm32f4xx_hal_sai.c ****   * @param  pData Pointer to data buffer
1085:./Libraries/STM32F4xx_HAL_Driver/Src/stm32f4xx_hal_sai.c ****   * @param  Size Amount of data to be sent
1086:./Libraries/STM32F4xx_HAL_Driver/Src/stm32f4xx_hal_sai.c ****   * @retval HAL status
1087:./Libraries/STM32F4xx_HAL_Driver/Src/stm32f4xx_hal_sai.c ****   */
1088:./Libraries/STM32F4xx_HAL_Driver/Src/stm32f4xx_hal_sai.c **** HAL_StatusTypeDef HAL_SAI_Transmit_DMA(SAI_HandleTypeDef *hsai, uint8_t *pData, uint16_t Size)
1089:./Libraries/STM32F4xx_HAL_Driver/Src/stm32f4xx_hal_sai.c **** {
 2113              		.loc 1 1089 1
 2114              		.cfi_startproc
 2115              		@ args = 0, pretend = 0, frame = 16
 2116              		@ frame_needed = 1, uses_anonymous_args = 0
 2117 0000 80B5     		push	{r7, lr}
 2118              	.LCFI69:
 2119              		.cfi_def_cfa_offset 8
 2120              		.cfi_offset 7, -8
 2121              		.cfi_offset 14, -4
 2122 0002 84B0     		sub	sp, sp, #16
 2123              	.LCFI70:
 2124              		.cfi_def_cfa_offset 24
 2125 0004 00AF     		add	r7, sp, #0
 2126              	.LCFI71:
 2127              		.cfi_def_cfa_register 7
 2128 0006 F860     		str	r0, [r7, #12]
 2129 0008 B960     		str	r1, [r7, #8]
 2130 000a 1346     		mov	r3, r2
 2131 000c FB80     		strh	r3, [r7, #6]	@ movhi
1090:./Libraries/STM32F4xx_HAL_Driver/Src/stm32f4xx_hal_sai.c ****   if((pData == NULL) || (Size == 0)) 
 2132              		.loc 1 1090 5
 2133 000e BB68     		ldr	r3, [r7, #8]
 2134 0010 002B     		cmp	r3, #0
 2135 0012 02D0     		beq	.L104
 2136              		.loc 1 1090 22 discriminator 1
 2137 0014 FB88     		ldrh	r3, [r7, #6]
 2138 0016 002B     		cmp	r3, #0
 2139 0018 01D1     		bne	.L105
 2140              	.L104:
1091:./Libraries/STM32F4xx_HAL_Driver/Src/stm32f4xx_hal_sai.c ****   {
1092:./Libraries/STM32F4xx_HAL_Driver/Src/stm32f4xx_hal_sai.c ****     return  HAL_ERROR;
 2141              		.loc 1 1092 13
 2142 001a 0123     		movs	r3, #1
 2143 001c 74E0     		b	.L106
 2144              	.L105:
1093:./Libraries/STM32F4xx_HAL_Driver/Src/stm32f4xx_hal_sai.c ****   }
1094:./Libraries/STM32F4xx_HAL_Driver/Src/stm32f4xx_hal_sai.c **** 
1095:./Libraries/STM32F4xx_HAL_Driver/Src/stm32f4xx_hal_sai.c ****   if(hsai->State == HAL_SAI_STATE_READY)
 2145              		.loc 1 1095 10
 2146 001e FB68     		ldr	r3, [r7, #12]
 2147 0020 93F88130 		ldrb	r3, [r3, #129]
 2148 0024 DBB2     		uxtb	r3, r3
 2149              		.loc 1 1095 5
 2150 0026 012B     		cmp	r3, #1
 2151 0028 6DD1     		bne	.L107
1096:./Libraries/STM32F4xx_HAL_Driver/Src/stm32f4xx_hal_sai.c ****   {
1097:./Libraries/STM32F4xx_HAL_Driver/Src/stm32f4xx_hal_sai.c ****     /* Process Locked */
1098:./Libraries/STM32F4xx_HAL_Driver/Src/stm32f4xx_hal_sai.c ****     __HAL_LOCK(hsai);
 2152              		.loc 1 1098 5
 2153 002a FB68     		ldr	r3, [r7, #12]
 2154 002c 93F88030 		ldrb	r3, [r3, #128]	@ zero_extendqisi2
ARM GAS  /tmp/cc2WvXK4.s 			page 58


 2155 0030 012B     		cmp	r3, #1
 2156 0032 01D1     		bne	.L108
 2157              		.loc 1 1098 5 is_stmt 0 discriminator 1
 2158 0034 0223     		movs	r3, #2
 2159 0036 67E0     		b	.L106
 2160              	.L108:
 2161              		.loc 1 1098 5 discriminator 2
 2162 0038 FB68     		ldr	r3, [r7, #12]
 2163 003a 0122     		movs	r2, #1
 2164 003c 83F88020 		strb	r2, [r3, #128]
1099:./Libraries/STM32F4xx_HAL_Driver/Src/stm32f4xx_hal_sai.c **** 
1100:./Libraries/STM32F4xx_HAL_Driver/Src/stm32f4xx_hal_sai.c ****     hsai->pBuffPtr = pData;
 2165              		.loc 1 1100 20 is_stmt 1 discriminator 2
 2166 0040 FB68     		ldr	r3, [r7, #12]
 2167 0042 BA68     		ldr	r2, [r7, #8]
 2168 0044 9A66     		str	r2, [r3, #104]
1101:./Libraries/STM32F4xx_HAL_Driver/Src/stm32f4xx_hal_sai.c ****     hsai->XferSize = Size;
 2169              		.loc 1 1101 20 discriminator 2
 2170 0046 FB68     		ldr	r3, [r7, #12]
 2171 0048 FA88     		ldrh	r2, [r7, #6]	@ movhi
 2172 004a A3F86C20 		strh	r2, [r3, #108]	@ movhi
1102:./Libraries/STM32F4xx_HAL_Driver/Src/stm32f4xx_hal_sai.c ****     hsai->XferCount = Size;
 2173              		.loc 1 1102 21 discriminator 2
 2174 004e FB68     		ldr	r3, [r7, #12]
 2175 0050 FA88     		ldrh	r2, [r7, #6]	@ movhi
 2176 0052 A3F86E20 		strh	r2, [r3, #110]	@ movhi
1103:./Libraries/STM32F4xx_HAL_Driver/Src/stm32f4xx_hal_sai.c ****     hsai->ErrorCode = HAL_SAI_ERROR_NONE;
 2177              		.loc 1 1103 21 discriminator 2
 2178 0056 FB68     		ldr	r3, [r7, #12]
 2179 0058 0022     		movs	r2, #0
 2180 005a C3F88420 		str	r2, [r3, #132]
1104:./Libraries/STM32F4xx_HAL_Driver/Src/stm32f4xx_hal_sai.c ****     hsai->State = HAL_SAI_STATE_BUSY_TX;
 2181              		.loc 1 1104 17 discriminator 2
 2182 005e FB68     		ldr	r3, [r7, #12]
 2183 0060 1222     		movs	r2, #18
 2184 0062 83F88120 		strb	r2, [r3, #129]
1105:./Libraries/STM32F4xx_HAL_Driver/Src/stm32f4xx_hal_sai.c **** 
1106:./Libraries/STM32F4xx_HAL_Driver/Src/stm32f4xx_hal_sai.c ****     /* Set the SAI Tx DMA Half transfer complete callback */
1107:./Libraries/STM32F4xx_HAL_Driver/Src/stm32f4xx_hal_sai.c ****     hsai->hdmatx->XferHalfCpltCallback = SAI_DMATxHalfCplt;
 2185              		.loc 1 1107 9 discriminator 2
 2186 0066 FB68     		ldr	r3, [r7, #12]
 2187 0068 1B6F     		ldr	r3, [r3, #112]
 2188              		.loc 1 1107 40 discriminator 2
 2189 006a 294A     		ldr	r2, .L111
 2190 006c 1A64     		str	r2, [r3, #64]
1108:./Libraries/STM32F4xx_HAL_Driver/Src/stm32f4xx_hal_sai.c **** 
1109:./Libraries/STM32F4xx_HAL_Driver/Src/stm32f4xx_hal_sai.c ****     /* Set the SAI TxDMA transfer complete callback */
1110:./Libraries/STM32F4xx_HAL_Driver/Src/stm32f4xx_hal_sai.c ****     hsai->hdmatx->XferCpltCallback = SAI_DMATxCplt;
 2191              		.loc 1 1110 9 discriminator 2
 2192 006e FB68     		ldr	r3, [r7, #12]
 2193 0070 1B6F     		ldr	r3, [r3, #112]
 2194              		.loc 1 1110 36 discriminator 2
 2195 0072 284A     		ldr	r2, .L111+4
 2196 0074 DA63     		str	r2, [r3, #60]
1111:./Libraries/STM32F4xx_HAL_Driver/Src/stm32f4xx_hal_sai.c **** 
1112:./Libraries/STM32F4xx_HAL_Driver/Src/stm32f4xx_hal_sai.c ****     /* Set the DMA error callback */
1113:./Libraries/STM32F4xx_HAL_Driver/Src/stm32f4xx_hal_sai.c ****     hsai->hdmatx->XferErrorCallback = SAI_DMAError;
ARM GAS  /tmp/cc2WvXK4.s 			page 59


 2197              		.loc 1 1113 9 discriminator 2
 2198 0076 FB68     		ldr	r3, [r7, #12]
 2199 0078 1B6F     		ldr	r3, [r3, #112]
 2200              		.loc 1 1113 37 discriminator 2
 2201 007a 274A     		ldr	r2, .L111+8
 2202 007c DA64     		str	r2, [r3, #76]
1114:./Libraries/STM32F4xx_HAL_Driver/Src/stm32f4xx_hal_sai.c **** 
1115:./Libraries/STM32F4xx_HAL_Driver/Src/stm32f4xx_hal_sai.c ****     /* Set the DMA Tx abort callback */
1116:./Libraries/STM32F4xx_HAL_Driver/Src/stm32f4xx_hal_sai.c ****     hsai->hdmatx->XferAbortCallback = NULL;
 2203              		.loc 1 1116 9 discriminator 2
 2204 007e FB68     		ldr	r3, [r7, #12]
 2205 0080 1B6F     		ldr	r3, [r3, #112]
 2206              		.loc 1 1116 37 discriminator 2
 2207 0082 0022     		movs	r2, #0
 2208 0084 1A65     		str	r2, [r3, #80]
1117:./Libraries/STM32F4xx_HAL_Driver/Src/stm32f4xx_hal_sai.c **** 
1118:./Libraries/STM32F4xx_HAL_Driver/Src/stm32f4xx_hal_sai.c ****     /* Enable the Tx DMA Stream */
1119:./Libraries/STM32F4xx_HAL_Driver/Src/stm32f4xx_hal_sai.c ****     if(HAL_DMA_Start_IT(hsai->hdmatx, (uint32_t)hsai->pBuffPtr, (uint32_t)&hsai->Instance->DR, hsai
 2209              		.loc 1 1119 8 discriminator 2
 2210 0086 FB68     		ldr	r3, [r7, #12]
 2211 0088 186F     		ldr	r0, [r3, #112]
 2212              		.loc 1 1119 53 discriminator 2
 2213 008a FB68     		ldr	r3, [r7, #12]
 2214 008c 9B6E     		ldr	r3, [r3, #104]
 2215              		.loc 1 1119 8 discriminator 2
 2216 008e 1946     		mov	r1, r3
 2217              		.loc 1 1119 80 discriminator 2
 2218 0090 FB68     		ldr	r3, [r7, #12]
 2219 0092 1B68     		ldr	r3, [r3]
 2220              		.loc 1 1119 75 discriminator 2
 2221 0094 1C33     		adds	r3, r3, #28
 2222              		.loc 1 1119 8 discriminator 2
 2223 0096 1A46     		mov	r2, r3
 2224              		.loc 1 1119 100 discriminator 2
 2225 0098 FB68     		ldr	r3, [r7, #12]
 2226 009a B3F86C30 		ldrh	r3, [r3, #108]
 2227              		.loc 1 1119 8 discriminator 2
 2228 009e FFF7FEFF 		bl	HAL_DMA_Start_IT
 2229 00a2 0346     		mov	r3, r0
 2230              		.loc 1 1119 7 discriminator 2
 2231 00a4 002B     		cmp	r3, #0
 2232 00a6 05D0     		beq	.L109
1120:./Libraries/STM32F4xx_HAL_Driver/Src/stm32f4xx_hal_sai.c ****     {
1121:./Libraries/STM32F4xx_HAL_Driver/Src/stm32f4xx_hal_sai.c ****       __HAL_UNLOCK(hsai);
 2233              		.loc 1 1121 7
 2234 00a8 FB68     		ldr	r3, [r7, #12]
 2235 00aa 0022     		movs	r2, #0
 2236 00ac 83F88020 		strb	r2, [r3, #128]
1122:./Libraries/STM32F4xx_HAL_Driver/Src/stm32f4xx_hal_sai.c ****       return  HAL_ERROR;
 2237              		.loc 1 1122 15
 2238 00b0 0123     		movs	r3, #1
 2239 00b2 29E0     		b	.L106
 2240              	.L109:
1123:./Libraries/STM32F4xx_HAL_Driver/Src/stm32f4xx_hal_sai.c ****     }
1124:./Libraries/STM32F4xx_HAL_Driver/Src/stm32f4xx_hal_sai.c **** 
1125:./Libraries/STM32F4xx_HAL_Driver/Src/stm32f4xx_hal_sai.c ****     /* Check if the SAI is already enabled */
1126:./Libraries/STM32F4xx_HAL_Driver/Src/stm32f4xx_hal_sai.c ****     if((hsai->Instance->CR1 & SAI_xCR1_SAIEN) == RESET)
ARM GAS  /tmp/cc2WvXK4.s 			page 60


 2241              		.loc 1 1126 13
 2242 00b4 FB68     		ldr	r3, [r7, #12]
 2243 00b6 1B68     		ldr	r3, [r3]
 2244              		.loc 1 1126 23
 2245 00b8 1B68     		ldr	r3, [r3]
 2246              		.loc 1 1126 29
 2247 00ba 03F48033 		and	r3, r3, #65536
 2248              		.loc 1 1126 7
 2249 00be 002B     		cmp	r3, #0
 2250 00c0 07D1     		bne	.L110
1127:./Libraries/STM32F4xx_HAL_Driver/Src/stm32f4xx_hal_sai.c ****     {
1128:./Libraries/STM32F4xx_HAL_Driver/Src/stm32f4xx_hal_sai.c ****       /* Enable SAI peripheral */
1129:./Libraries/STM32F4xx_HAL_Driver/Src/stm32f4xx_hal_sai.c ****       __HAL_SAI_ENABLE(hsai);
 2251              		.loc 1 1129 7
 2252 00c2 FB68     		ldr	r3, [r7, #12]
 2253 00c4 1B68     		ldr	r3, [r3]
 2254 00c6 1A68     		ldr	r2, [r3]
 2255 00c8 FB68     		ldr	r3, [r7, #12]
 2256 00ca 1B68     		ldr	r3, [r3]
 2257 00cc 42F48032 		orr	r2, r2, #65536
 2258 00d0 1A60     		str	r2, [r3]
 2259              	.L110:
1130:./Libraries/STM32F4xx_HAL_Driver/Src/stm32f4xx_hal_sai.c ****     }
1131:./Libraries/STM32F4xx_HAL_Driver/Src/stm32f4xx_hal_sai.c **** 
1132:./Libraries/STM32F4xx_HAL_Driver/Src/stm32f4xx_hal_sai.c ****     /* Enable the interrupts for error handling */
1133:./Libraries/STM32F4xx_HAL_Driver/Src/stm32f4xx_hal_sai.c ****     __HAL_SAI_ENABLE_IT(hsai, SAI_InterruptFlag(hsai, SAI_MODE_DMA));
 2260              		.loc 1 1133 5
 2261 00d2 0021     		movs	r1, #0
 2262 00d4 F868     		ldr	r0, [r7, #12]
 2263 00d6 FFF7FEFF 		bl	SAI_InterruptFlag
 2264 00da 0146     		mov	r1, r0
 2265 00dc FB68     		ldr	r3, [r7, #12]
 2266 00de 1B68     		ldr	r3, [r3]
 2267 00e0 1A69     		ldr	r2, [r3, #16]
 2268 00e2 FB68     		ldr	r3, [r7, #12]
 2269 00e4 1B68     		ldr	r3, [r3]
 2270 00e6 0A43     		orrs	r2, r2, r1
 2271 00e8 1A61     		str	r2, [r3, #16]
1134:./Libraries/STM32F4xx_HAL_Driver/Src/stm32f4xx_hal_sai.c **** 
1135:./Libraries/STM32F4xx_HAL_Driver/Src/stm32f4xx_hal_sai.c ****     /* Enable SAI Tx DMA Request */
1136:./Libraries/STM32F4xx_HAL_Driver/Src/stm32f4xx_hal_sai.c ****     hsai->Instance->CR1 |= SAI_xCR1_DMAEN;
 2272              		.loc 1 1136 9
 2273 00ea FB68     		ldr	r3, [r7, #12]
 2274 00ec 1B68     		ldr	r3, [r3]
 2275              		.loc 1 1136 25
 2276 00ee 1A68     		ldr	r2, [r3]
 2277              		.loc 1 1136 9
 2278 00f0 FB68     		ldr	r3, [r7, #12]
 2279 00f2 1B68     		ldr	r3, [r3]
 2280              		.loc 1 1136 25
 2281 00f4 42F40032 		orr	r2, r2, #131072
 2282 00f8 1A60     		str	r2, [r3]
1137:./Libraries/STM32F4xx_HAL_Driver/Src/stm32f4xx_hal_sai.c **** 
1138:./Libraries/STM32F4xx_HAL_Driver/Src/stm32f4xx_hal_sai.c ****     /* Process Unlocked */
1139:./Libraries/STM32F4xx_HAL_Driver/Src/stm32f4xx_hal_sai.c ****     __HAL_UNLOCK(hsai);
 2283              		.loc 1 1139 5
 2284 00fa FB68     		ldr	r3, [r7, #12]
ARM GAS  /tmp/cc2WvXK4.s 			page 61


 2285 00fc 0022     		movs	r2, #0
 2286 00fe 83F88020 		strb	r2, [r3, #128]
1140:./Libraries/STM32F4xx_HAL_Driver/Src/stm32f4xx_hal_sai.c **** 
1141:./Libraries/STM32F4xx_HAL_Driver/Src/stm32f4xx_hal_sai.c ****     return HAL_OK;
 2287              		.loc 1 1141 12
 2288 0102 0023     		movs	r3, #0
 2289 0104 00E0     		b	.L106
 2290              	.L107:
1142:./Libraries/STM32F4xx_HAL_Driver/Src/stm32f4xx_hal_sai.c ****   }
1143:./Libraries/STM32F4xx_HAL_Driver/Src/stm32f4xx_hal_sai.c ****   else
1144:./Libraries/STM32F4xx_HAL_Driver/Src/stm32f4xx_hal_sai.c ****   {
1145:./Libraries/STM32F4xx_HAL_Driver/Src/stm32f4xx_hal_sai.c ****     return HAL_BUSY;
 2291              		.loc 1 1145 12
 2292 0106 0223     		movs	r3, #2
 2293              	.L106:
1146:./Libraries/STM32F4xx_HAL_Driver/Src/stm32f4xx_hal_sai.c ****   }
1147:./Libraries/STM32F4xx_HAL_Driver/Src/stm32f4xx_hal_sai.c **** }
 2294              		.loc 1 1147 1
 2295 0108 1846     		mov	r0, r3
 2296 010a 1037     		adds	r7, r7, #16
 2297              	.LCFI72:
 2298              		.cfi_def_cfa_offset 8
 2299 010c BD46     		mov	sp, r7
 2300              	.LCFI73:
 2301              		.cfi_def_cfa_register 13
 2302              		@ sp needed
 2303 010e 80BD     		pop	{r7, pc}
 2304              	.L112:
 2305              		.align	2
 2306              	.L111:
 2307 0110 00000000 		.word	SAI_DMATxHalfCplt
 2308 0114 00000000 		.word	SAI_DMATxCplt
 2309 0118 00000000 		.word	SAI_DMAError
 2310              		.cfi_endproc
 2311              	.LFE139:
 2313              		.section	.text.HAL_SAI_Receive_DMA,"ax",%progbits
 2314              		.align	1
 2315              		.global	HAL_SAI_Receive_DMA
 2316              		.syntax unified
 2317              		.thumb
 2318              		.thumb_func
 2319              		.fpu fpv4-sp-d16
 2321              	HAL_SAI_Receive_DMA:
 2322              	.LFB140:
1148:./Libraries/STM32F4xx_HAL_Driver/Src/stm32f4xx_hal_sai.c **** 
1149:./Libraries/STM32F4xx_HAL_Driver/Src/stm32f4xx_hal_sai.c **** /**
1150:./Libraries/STM32F4xx_HAL_Driver/Src/stm32f4xx_hal_sai.c ****   * @brief  Receive an amount of data in non-blocking mode with DMA.
1151:./Libraries/STM32F4xx_HAL_Driver/Src/stm32f4xx_hal_sai.c ****   * @param  hsai pointer to a SAI_HandleTypeDef structure that contains
1152:./Libraries/STM32F4xx_HAL_Driver/Src/stm32f4xx_hal_sai.c ****   *               the configuration information for SAI module.
1153:./Libraries/STM32F4xx_HAL_Driver/Src/stm32f4xx_hal_sai.c ****   * @param  pData Pointer to data buffer
1154:./Libraries/STM32F4xx_HAL_Driver/Src/stm32f4xx_hal_sai.c ****   * @param  Size Amount of data to be received
1155:./Libraries/STM32F4xx_HAL_Driver/Src/stm32f4xx_hal_sai.c ****   * @retval HAL status
1156:./Libraries/STM32F4xx_HAL_Driver/Src/stm32f4xx_hal_sai.c ****   */
1157:./Libraries/STM32F4xx_HAL_Driver/Src/stm32f4xx_hal_sai.c **** HAL_StatusTypeDef HAL_SAI_Receive_DMA(SAI_HandleTypeDef *hsai, uint8_t *pData, uint16_t Size)
1158:./Libraries/STM32F4xx_HAL_Driver/Src/stm32f4xx_hal_sai.c **** {
 2323              		.loc 1 1158 1
 2324              		.cfi_startproc
ARM GAS  /tmp/cc2WvXK4.s 			page 62


 2325              		@ args = 0, pretend = 0, frame = 16
 2326              		@ frame_needed = 1, uses_anonymous_args = 0
 2327 0000 80B5     		push	{r7, lr}
 2328              	.LCFI74:
 2329              		.cfi_def_cfa_offset 8
 2330              		.cfi_offset 7, -8
 2331              		.cfi_offset 14, -4
 2332 0002 84B0     		sub	sp, sp, #16
 2333              	.LCFI75:
 2334              		.cfi_def_cfa_offset 24
 2335 0004 00AF     		add	r7, sp, #0
 2336              	.LCFI76:
 2337              		.cfi_def_cfa_register 7
 2338 0006 F860     		str	r0, [r7, #12]
 2339 0008 B960     		str	r1, [r7, #8]
 2340 000a 1346     		mov	r3, r2
 2341 000c FB80     		strh	r3, [r7, #6]	@ movhi
1159:./Libraries/STM32F4xx_HAL_Driver/Src/stm32f4xx_hal_sai.c ****   if((pData == NULL) || (Size == 0))
 2342              		.loc 1 1159 5
 2343 000e BB68     		ldr	r3, [r7, #8]
 2344 0010 002B     		cmp	r3, #0
 2345 0012 02D0     		beq	.L114
 2346              		.loc 1 1159 22 discriminator 1
 2347 0014 FB88     		ldrh	r3, [r7, #6]
 2348 0016 002B     		cmp	r3, #0
 2349 0018 01D1     		bne	.L115
 2350              	.L114:
1160:./Libraries/STM32F4xx_HAL_Driver/Src/stm32f4xx_hal_sai.c ****   {
1161:./Libraries/STM32F4xx_HAL_Driver/Src/stm32f4xx_hal_sai.c ****     return  HAL_ERROR;
 2351              		.loc 1 1161 13
 2352 001a 0123     		movs	r3, #1
 2353 001c 74E0     		b	.L116
 2354              	.L115:
1162:./Libraries/STM32F4xx_HAL_Driver/Src/stm32f4xx_hal_sai.c ****   }
1163:./Libraries/STM32F4xx_HAL_Driver/Src/stm32f4xx_hal_sai.c **** 
1164:./Libraries/STM32F4xx_HAL_Driver/Src/stm32f4xx_hal_sai.c ****   if(hsai->State == HAL_SAI_STATE_READY)
 2355              		.loc 1 1164 10
 2356 001e FB68     		ldr	r3, [r7, #12]
 2357 0020 93F88130 		ldrb	r3, [r3, #129]
 2358 0024 DBB2     		uxtb	r3, r3
 2359              		.loc 1 1164 5
 2360 0026 012B     		cmp	r3, #1
 2361 0028 6DD1     		bne	.L117
1165:./Libraries/STM32F4xx_HAL_Driver/Src/stm32f4xx_hal_sai.c ****   {
1166:./Libraries/STM32F4xx_HAL_Driver/Src/stm32f4xx_hal_sai.c ****     /* Process Locked */
1167:./Libraries/STM32F4xx_HAL_Driver/Src/stm32f4xx_hal_sai.c ****     __HAL_LOCK(hsai);
 2362              		.loc 1 1167 5
 2363 002a FB68     		ldr	r3, [r7, #12]
 2364 002c 93F88030 		ldrb	r3, [r3, #128]	@ zero_extendqisi2
 2365 0030 012B     		cmp	r3, #1
 2366 0032 01D1     		bne	.L118
 2367              		.loc 1 1167 5 is_stmt 0 discriminator 1
 2368 0034 0223     		movs	r3, #2
 2369 0036 67E0     		b	.L116
 2370              	.L118:
 2371              		.loc 1 1167 5 discriminator 2
 2372 0038 FB68     		ldr	r3, [r7, #12]
ARM GAS  /tmp/cc2WvXK4.s 			page 63


 2373 003a 0122     		movs	r2, #1
 2374 003c 83F88020 		strb	r2, [r3, #128]
1168:./Libraries/STM32F4xx_HAL_Driver/Src/stm32f4xx_hal_sai.c **** 
1169:./Libraries/STM32F4xx_HAL_Driver/Src/stm32f4xx_hal_sai.c ****     hsai->pBuffPtr = pData;
 2375              		.loc 1 1169 20 is_stmt 1 discriminator 2
 2376 0040 FB68     		ldr	r3, [r7, #12]
 2377 0042 BA68     		ldr	r2, [r7, #8]
 2378 0044 9A66     		str	r2, [r3, #104]
1170:./Libraries/STM32F4xx_HAL_Driver/Src/stm32f4xx_hal_sai.c ****     hsai->XferSize = Size;
 2379              		.loc 1 1170 20 discriminator 2
 2380 0046 FB68     		ldr	r3, [r7, #12]
 2381 0048 FA88     		ldrh	r2, [r7, #6]	@ movhi
 2382 004a A3F86C20 		strh	r2, [r3, #108]	@ movhi
1171:./Libraries/STM32F4xx_HAL_Driver/Src/stm32f4xx_hal_sai.c ****     hsai->XferCount = Size;
 2383              		.loc 1 1171 21 discriminator 2
 2384 004e FB68     		ldr	r3, [r7, #12]
 2385 0050 FA88     		ldrh	r2, [r7, #6]	@ movhi
 2386 0052 A3F86E20 		strh	r2, [r3, #110]	@ movhi
1172:./Libraries/STM32F4xx_HAL_Driver/Src/stm32f4xx_hal_sai.c ****     hsai->ErrorCode = HAL_SAI_ERROR_NONE;
 2387              		.loc 1 1172 21 discriminator 2
 2388 0056 FB68     		ldr	r3, [r7, #12]
 2389 0058 0022     		movs	r2, #0
 2390 005a C3F88420 		str	r2, [r3, #132]
1173:./Libraries/STM32F4xx_HAL_Driver/Src/stm32f4xx_hal_sai.c ****     hsai->State = HAL_SAI_STATE_BUSY_RX;
 2391              		.loc 1 1173 17 discriminator 2
 2392 005e FB68     		ldr	r3, [r7, #12]
 2393 0060 2222     		movs	r2, #34
 2394 0062 83F88120 		strb	r2, [r3, #129]
1174:./Libraries/STM32F4xx_HAL_Driver/Src/stm32f4xx_hal_sai.c **** 
1175:./Libraries/STM32F4xx_HAL_Driver/Src/stm32f4xx_hal_sai.c ****     /* Set the SAI Rx DMA Half transfer complete callback */
1176:./Libraries/STM32F4xx_HAL_Driver/Src/stm32f4xx_hal_sai.c ****     hsai->hdmarx->XferHalfCpltCallback = SAI_DMARxHalfCplt;
 2395              		.loc 1 1176 9 discriminator 2
 2396 0066 FB68     		ldr	r3, [r7, #12]
 2397 0068 5B6F     		ldr	r3, [r3, #116]
 2398              		.loc 1 1176 40 discriminator 2
 2399 006a 294A     		ldr	r2, .L121
 2400 006c 1A64     		str	r2, [r3, #64]
1177:./Libraries/STM32F4xx_HAL_Driver/Src/stm32f4xx_hal_sai.c **** 
1178:./Libraries/STM32F4xx_HAL_Driver/Src/stm32f4xx_hal_sai.c ****     /* Set the SAI Rx DMA transfer complete callback */
1179:./Libraries/STM32F4xx_HAL_Driver/Src/stm32f4xx_hal_sai.c ****     hsai->hdmarx->XferCpltCallback = SAI_DMARxCplt;
 2401              		.loc 1 1179 9 discriminator 2
 2402 006e FB68     		ldr	r3, [r7, #12]
 2403 0070 5B6F     		ldr	r3, [r3, #116]
 2404              		.loc 1 1179 36 discriminator 2
 2405 0072 284A     		ldr	r2, .L121+4
 2406 0074 DA63     		str	r2, [r3, #60]
1180:./Libraries/STM32F4xx_HAL_Driver/Src/stm32f4xx_hal_sai.c **** 
1181:./Libraries/STM32F4xx_HAL_Driver/Src/stm32f4xx_hal_sai.c ****     /* Set the DMA error callback */
1182:./Libraries/STM32F4xx_HAL_Driver/Src/stm32f4xx_hal_sai.c ****     hsai->hdmarx->XferErrorCallback = SAI_DMAError;
 2407              		.loc 1 1182 9 discriminator 2
 2408 0076 FB68     		ldr	r3, [r7, #12]
 2409 0078 5B6F     		ldr	r3, [r3, #116]
 2410              		.loc 1 1182 37 discriminator 2
 2411 007a 274A     		ldr	r2, .L121+8
 2412 007c DA64     		str	r2, [r3, #76]
1183:./Libraries/STM32F4xx_HAL_Driver/Src/stm32f4xx_hal_sai.c **** 
1184:./Libraries/STM32F4xx_HAL_Driver/Src/stm32f4xx_hal_sai.c ****     /* Set the DMA Rx abort callback */
ARM GAS  /tmp/cc2WvXK4.s 			page 64


1185:./Libraries/STM32F4xx_HAL_Driver/Src/stm32f4xx_hal_sai.c ****     hsai->hdmarx->XferAbortCallback = NULL;
 2413              		.loc 1 1185 9 discriminator 2
 2414 007e FB68     		ldr	r3, [r7, #12]
 2415 0080 5B6F     		ldr	r3, [r3, #116]
 2416              		.loc 1 1185 37 discriminator 2
 2417 0082 0022     		movs	r2, #0
 2418 0084 1A65     		str	r2, [r3, #80]
1186:./Libraries/STM32F4xx_HAL_Driver/Src/stm32f4xx_hal_sai.c **** 
1187:./Libraries/STM32F4xx_HAL_Driver/Src/stm32f4xx_hal_sai.c ****     /* Enable the Rx DMA Stream */
1188:./Libraries/STM32F4xx_HAL_Driver/Src/stm32f4xx_hal_sai.c ****     if(HAL_DMA_Start_IT(hsai->hdmarx, (uint32_t)&hsai->Instance->DR, (uint32_t)hsai->pBuffPtr, hsai
 2419              		.loc 1 1188 8 discriminator 2
 2420 0086 FB68     		ldr	r3, [r7, #12]
 2421 0088 586F     		ldr	r0, [r3, #116]
 2422              		.loc 1 1188 54 discriminator 2
 2423 008a FB68     		ldr	r3, [r7, #12]
 2424 008c 1B68     		ldr	r3, [r3]
 2425              		.loc 1 1188 49 discriminator 2
 2426 008e 1C33     		adds	r3, r3, #28
 2427              		.loc 1 1188 8 discriminator 2
 2428 0090 1946     		mov	r1, r3
 2429              		.loc 1 1188 84 discriminator 2
 2430 0092 FB68     		ldr	r3, [r7, #12]
 2431 0094 9B6E     		ldr	r3, [r3, #104]
 2432              		.loc 1 1188 8 discriminator 2
 2433 0096 1A46     		mov	r2, r3
 2434              		.loc 1 1188 100 discriminator 2
 2435 0098 FB68     		ldr	r3, [r7, #12]
 2436 009a B3F86C30 		ldrh	r3, [r3, #108]
 2437              		.loc 1 1188 8 discriminator 2
 2438 009e FFF7FEFF 		bl	HAL_DMA_Start_IT
 2439 00a2 0346     		mov	r3, r0
 2440              		.loc 1 1188 7 discriminator 2
 2441 00a4 002B     		cmp	r3, #0
 2442 00a6 05D0     		beq	.L119
1189:./Libraries/STM32F4xx_HAL_Driver/Src/stm32f4xx_hal_sai.c ****     {
1190:./Libraries/STM32F4xx_HAL_Driver/Src/stm32f4xx_hal_sai.c ****       __HAL_UNLOCK(hsai);
 2443              		.loc 1 1190 7
 2444 00a8 FB68     		ldr	r3, [r7, #12]
 2445 00aa 0022     		movs	r2, #0
 2446 00ac 83F88020 		strb	r2, [r3, #128]
1191:./Libraries/STM32F4xx_HAL_Driver/Src/stm32f4xx_hal_sai.c ****       return  HAL_ERROR;
 2447              		.loc 1 1191 15
 2448 00b0 0123     		movs	r3, #1
 2449 00b2 29E0     		b	.L116
 2450              	.L119:
1192:./Libraries/STM32F4xx_HAL_Driver/Src/stm32f4xx_hal_sai.c ****     }
1193:./Libraries/STM32F4xx_HAL_Driver/Src/stm32f4xx_hal_sai.c **** 
1194:./Libraries/STM32F4xx_HAL_Driver/Src/stm32f4xx_hal_sai.c ****     /* Check if the SAI is already enabled */
1195:./Libraries/STM32F4xx_HAL_Driver/Src/stm32f4xx_hal_sai.c ****     if((hsai->Instance->CR1 & SAI_xCR1_SAIEN) == RESET)
 2451              		.loc 1 1195 13
 2452 00b4 FB68     		ldr	r3, [r7, #12]
 2453 00b6 1B68     		ldr	r3, [r3]
 2454              		.loc 1 1195 23
 2455 00b8 1B68     		ldr	r3, [r3]
 2456              		.loc 1 1195 29
 2457 00ba 03F48033 		and	r3, r3, #65536
 2458              		.loc 1 1195 7
ARM GAS  /tmp/cc2WvXK4.s 			page 65


 2459 00be 002B     		cmp	r3, #0
 2460 00c0 07D1     		bne	.L120
1196:./Libraries/STM32F4xx_HAL_Driver/Src/stm32f4xx_hal_sai.c ****     {
1197:./Libraries/STM32F4xx_HAL_Driver/Src/stm32f4xx_hal_sai.c ****       /* Enable SAI peripheral */
1198:./Libraries/STM32F4xx_HAL_Driver/Src/stm32f4xx_hal_sai.c ****       __HAL_SAI_ENABLE(hsai);
 2461              		.loc 1 1198 7
 2462 00c2 FB68     		ldr	r3, [r7, #12]
 2463 00c4 1B68     		ldr	r3, [r3]
 2464 00c6 1A68     		ldr	r2, [r3]
 2465 00c8 FB68     		ldr	r3, [r7, #12]
 2466 00ca 1B68     		ldr	r3, [r3]
 2467 00cc 42F48032 		orr	r2, r2, #65536
 2468 00d0 1A60     		str	r2, [r3]
 2469              	.L120:
1199:./Libraries/STM32F4xx_HAL_Driver/Src/stm32f4xx_hal_sai.c ****     }
1200:./Libraries/STM32F4xx_HAL_Driver/Src/stm32f4xx_hal_sai.c **** 
1201:./Libraries/STM32F4xx_HAL_Driver/Src/stm32f4xx_hal_sai.c ****     /* Enable the interrupts for error handling */
1202:./Libraries/STM32F4xx_HAL_Driver/Src/stm32f4xx_hal_sai.c ****     __HAL_SAI_ENABLE_IT(hsai, SAI_InterruptFlag(hsai, SAI_MODE_DMA));
 2470              		.loc 1 1202 5
 2471 00d2 0021     		movs	r1, #0
 2472 00d4 F868     		ldr	r0, [r7, #12]
 2473 00d6 FFF7FEFF 		bl	SAI_InterruptFlag
 2474 00da 0146     		mov	r1, r0
 2475 00dc FB68     		ldr	r3, [r7, #12]
 2476 00de 1B68     		ldr	r3, [r3]
 2477 00e0 1A69     		ldr	r2, [r3, #16]
 2478 00e2 FB68     		ldr	r3, [r7, #12]
 2479 00e4 1B68     		ldr	r3, [r3]
 2480 00e6 0A43     		orrs	r2, r2, r1
 2481 00e8 1A61     		str	r2, [r3, #16]
1203:./Libraries/STM32F4xx_HAL_Driver/Src/stm32f4xx_hal_sai.c **** 
1204:./Libraries/STM32F4xx_HAL_Driver/Src/stm32f4xx_hal_sai.c ****     /* Enable SAI Rx DMA Request */
1205:./Libraries/STM32F4xx_HAL_Driver/Src/stm32f4xx_hal_sai.c ****     hsai->Instance->CR1 |= SAI_xCR1_DMAEN;
 2482              		.loc 1 1205 9
 2483 00ea FB68     		ldr	r3, [r7, #12]
 2484 00ec 1B68     		ldr	r3, [r3]
 2485              		.loc 1 1205 25
 2486 00ee 1A68     		ldr	r2, [r3]
 2487              		.loc 1 1205 9
 2488 00f0 FB68     		ldr	r3, [r7, #12]
 2489 00f2 1B68     		ldr	r3, [r3]
 2490              		.loc 1 1205 25
 2491 00f4 42F40032 		orr	r2, r2, #131072
 2492 00f8 1A60     		str	r2, [r3]
1206:./Libraries/STM32F4xx_HAL_Driver/Src/stm32f4xx_hal_sai.c **** 
1207:./Libraries/STM32F4xx_HAL_Driver/Src/stm32f4xx_hal_sai.c ****     /* Process Unlocked */
1208:./Libraries/STM32F4xx_HAL_Driver/Src/stm32f4xx_hal_sai.c ****     __HAL_UNLOCK(hsai);
 2493              		.loc 1 1208 5
 2494 00fa FB68     		ldr	r3, [r7, #12]
 2495 00fc 0022     		movs	r2, #0
 2496 00fe 83F88020 		strb	r2, [r3, #128]
1209:./Libraries/STM32F4xx_HAL_Driver/Src/stm32f4xx_hal_sai.c **** 
1210:./Libraries/STM32F4xx_HAL_Driver/Src/stm32f4xx_hal_sai.c ****     return HAL_OK;
 2497              		.loc 1 1210 12
 2498 0102 0023     		movs	r3, #0
 2499 0104 00E0     		b	.L116
 2500              	.L117:
ARM GAS  /tmp/cc2WvXK4.s 			page 66


1211:./Libraries/STM32F4xx_HAL_Driver/Src/stm32f4xx_hal_sai.c ****   }
1212:./Libraries/STM32F4xx_HAL_Driver/Src/stm32f4xx_hal_sai.c ****   else
1213:./Libraries/STM32F4xx_HAL_Driver/Src/stm32f4xx_hal_sai.c ****   {
1214:./Libraries/STM32F4xx_HAL_Driver/Src/stm32f4xx_hal_sai.c ****     return HAL_BUSY;
 2501              		.loc 1 1214 12
 2502 0106 0223     		movs	r3, #2
 2503              	.L116:
1215:./Libraries/STM32F4xx_HAL_Driver/Src/stm32f4xx_hal_sai.c ****   }
1216:./Libraries/STM32F4xx_HAL_Driver/Src/stm32f4xx_hal_sai.c **** }
 2504              		.loc 1 1216 1
 2505 0108 1846     		mov	r0, r3
 2506 010a 1037     		adds	r7, r7, #16
 2507              	.LCFI77:
 2508              		.cfi_def_cfa_offset 8
 2509 010c BD46     		mov	sp, r7
 2510              	.LCFI78:
 2511              		.cfi_def_cfa_register 13
 2512              		@ sp needed
 2513 010e 80BD     		pop	{r7, pc}
 2514              	.L122:
 2515              		.align	2
 2516              	.L121:
 2517 0110 00000000 		.word	SAI_DMARxHalfCplt
 2518 0114 00000000 		.word	SAI_DMARxCplt
 2519 0118 00000000 		.word	SAI_DMAError
 2520              		.cfi_endproc
 2521              	.LFE140:
 2523              		.section	.text.HAL_SAI_EnableTxMuteMode,"ax",%progbits
 2524              		.align	1
 2525              		.global	HAL_SAI_EnableTxMuteMode
 2526              		.syntax unified
 2527              		.thumb
 2528              		.thumb_func
 2529              		.fpu fpv4-sp-d16
 2531              	HAL_SAI_EnableTxMuteMode:
 2532              	.LFB141:
1217:./Libraries/STM32F4xx_HAL_Driver/Src/stm32f4xx_hal_sai.c **** 
1218:./Libraries/STM32F4xx_HAL_Driver/Src/stm32f4xx_hal_sai.c **** /**
1219:./Libraries/STM32F4xx_HAL_Driver/Src/stm32f4xx_hal_sai.c ****   * @brief  Enable the Tx mute mode.
1220:./Libraries/STM32F4xx_HAL_Driver/Src/stm32f4xx_hal_sai.c ****   * @param  hsai pointer to a SAI_HandleTypeDef structure that contains
1221:./Libraries/STM32F4xx_HAL_Driver/Src/stm32f4xx_hal_sai.c ****   *               the configuration information for SAI module.
1222:./Libraries/STM32F4xx_HAL_Driver/Src/stm32f4xx_hal_sai.c ****   * @param  val  value sent during the mute @ref SAI_Block_Mute_Value
1223:./Libraries/STM32F4xx_HAL_Driver/Src/stm32f4xx_hal_sai.c ****   * @retval HAL status
1224:./Libraries/STM32F4xx_HAL_Driver/Src/stm32f4xx_hal_sai.c ****   */
1225:./Libraries/STM32F4xx_HAL_Driver/Src/stm32f4xx_hal_sai.c **** HAL_StatusTypeDef HAL_SAI_EnableTxMuteMode(SAI_HandleTypeDef *hsai, uint16_t val)
1226:./Libraries/STM32F4xx_HAL_Driver/Src/stm32f4xx_hal_sai.c **** {
 2533              		.loc 1 1226 1
 2534              		.cfi_startproc
 2535              		@ args = 0, pretend = 0, frame = 8
 2536              		@ frame_needed = 1, uses_anonymous_args = 0
 2537              		@ link register save eliminated.
 2538 0000 80B4     		push	{r7}
 2539              	.LCFI79:
 2540              		.cfi_def_cfa_offset 4
 2541              		.cfi_offset 7, -4
 2542 0002 83B0     		sub	sp, sp, #12
 2543              	.LCFI80:
ARM GAS  /tmp/cc2WvXK4.s 			page 67


 2544              		.cfi_def_cfa_offset 16
 2545 0004 00AF     		add	r7, sp, #0
 2546              	.LCFI81:
 2547              		.cfi_def_cfa_register 7
 2548 0006 7860     		str	r0, [r7, #4]
 2549 0008 0B46     		mov	r3, r1
 2550 000a 7B80     		strh	r3, [r7, #2]	@ movhi
1227:./Libraries/STM32F4xx_HAL_Driver/Src/stm32f4xx_hal_sai.c ****   assert_param(IS_SAI_BLOCK_MUTE_VALUE(val));
1228:./Libraries/STM32F4xx_HAL_Driver/Src/stm32f4xx_hal_sai.c **** 
1229:./Libraries/STM32F4xx_HAL_Driver/Src/stm32f4xx_hal_sai.c ****   if(hsai->State != HAL_SAI_STATE_RESET)
 2551              		.loc 1 1229 10
 2552 000c 7B68     		ldr	r3, [r7, #4]
 2553 000e 93F88130 		ldrb	r3, [r3, #129]
 2554 0012 DBB2     		uxtb	r3, r3
 2555              		.loc 1 1229 5
 2556 0014 002B     		cmp	r3, #0
 2557 0016 15D0     		beq	.L124
1230:./Libraries/STM32F4xx_HAL_Driver/Src/stm32f4xx_hal_sai.c ****   {
1231:./Libraries/STM32F4xx_HAL_Driver/Src/stm32f4xx_hal_sai.c ****     CLEAR_BIT(hsai->Instance->CR2, SAI_xCR2_MUTEVAL | SAI_xCR2_MUTE);
 2558              		.loc 1 1231 5
 2559 0018 7B68     		ldr	r3, [r7, #4]
 2560 001a 1B68     		ldr	r3, [r3]
 2561 001c 5A68     		ldr	r2, [r3, #4]
 2562 001e 7B68     		ldr	r3, [r7, #4]
 2563 0020 1B68     		ldr	r3, [r3]
 2564 0022 22F06002 		bic	r2, r2, #96
 2565 0026 5A60     		str	r2, [r3, #4]
1232:./Libraries/STM32F4xx_HAL_Driver/Src/stm32f4xx_hal_sai.c ****     SET_BIT(hsai->Instance->CR2, SAI_xCR2_MUTE | val);
 2566              		.loc 1 1232 5
 2567 0028 7B68     		ldr	r3, [r7, #4]
 2568 002a 1B68     		ldr	r3, [r3]
 2569 002c 5A68     		ldr	r2, [r3, #4]
 2570 002e 7B88     		ldrh	r3, [r7, #2]	@ movhi
 2571 0030 43F02003 		orr	r3, r3, #32
 2572 0034 9BB2     		uxth	r3, r3
 2573 0036 1946     		mov	r1, r3
 2574 0038 7B68     		ldr	r3, [r7, #4]
 2575 003a 1B68     		ldr	r3, [r3]
 2576 003c 0A43     		orrs	r2, r2, r1
 2577 003e 5A60     		str	r2, [r3, #4]
1233:./Libraries/STM32F4xx_HAL_Driver/Src/stm32f4xx_hal_sai.c ****     return HAL_OK;
 2578              		.loc 1 1233 12
 2579 0040 0023     		movs	r3, #0
 2580 0042 00E0     		b	.L125
 2581              	.L124:
1234:./Libraries/STM32F4xx_HAL_Driver/Src/stm32f4xx_hal_sai.c ****   }
1235:./Libraries/STM32F4xx_HAL_Driver/Src/stm32f4xx_hal_sai.c ****   return HAL_ERROR;
 2582              		.loc 1 1235 10
 2583 0044 0123     		movs	r3, #1
 2584              	.L125:
1236:./Libraries/STM32F4xx_HAL_Driver/Src/stm32f4xx_hal_sai.c **** }
 2585              		.loc 1 1236 1
 2586 0046 1846     		mov	r0, r3
 2587 0048 0C37     		adds	r7, r7, #12
 2588              	.LCFI82:
 2589              		.cfi_def_cfa_offset 4
 2590 004a BD46     		mov	sp, r7
ARM GAS  /tmp/cc2WvXK4.s 			page 68


 2591              	.LCFI83:
 2592              		.cfi_def_cfa_register 13
 2593              		@ sp needed
 2594 004c 5DF8047B 		ldr	r7, [sp], #4
 2595              	.LCFI84:
 2596              		.cfi_restore 7
 2597              		.cfi_def_cfa_offset 0
 2598 0050 7047     		bx	lr
 2599              		.cfi_endproc
 2600              	.LFE141:
 2602              		.section	.text.HAL_SAI_DisableTxMuteMode,"ax",%progbits
 2603              		.align	1
 2604              		.global	HAL_SAI_DisableTxMuteMode
 2605              		.syntax unified
 2606              		.thumb
 2607              		.thumb_func
 2608              		.fpu fpv4-sp-d16
 2610              	HAL_SAI_DisableTxMuteMode:
 2611              	.LFB142:
1237:./Libraries/STM32F4xx_HAL_Driver/Src/stm32f4xx_hal_sai.c **** 
1238:./Libraries/STM32F4xx_HAL_Driver/Src/stm32f4xx_hal_sai.c **** /**
1239:./Libraries/STM32F4xx_HAL_Driver/Src/stm32f4xx_hal_sai.c ****   * @brief  Disable the Tx mute mode.
1240:./Libraries/STM32F4xx_HAL_Driver/Src/stm32f4xx_hal_sai.c ****   * @param  hsai pointer to a SAI_HandleTypeDef structure that contains
1241:./Libraries/STM32F4xx_HAL_Driver/Src/stm32f4xx_hal_sai.c ****   *               the configuration information for SAI module.
1242:./Libraries/STM32F4xx_HAL_Driver/Src/stm32f4xx_hal_sai.c ****   * @retval HAL status
1243:./Libraries/STM32F4xx_HAL_Driver/Src/stm32f4xx_hal_sai.c ****   */
1244:./Libraries/STM32F4xx_HAL_Driver/Src/stm32f4xx_hal_sai.c **** HAL_StatusTypeDef HAL_SAI_DisableTxMuteMode(SAI_HandleTypeDef *hsai)
1245:./Libraries/STM32F4xx_HAL_Driver/Src/stm32f4xx_hal_sai.c **** {
 2612              		.loc 1 1245 1
 2613              		.cfi_startproc
 2614              		@ args = 0, pretend = 0, frame = 8
 2615              		@ frame_needed = 1, uses_anonymous_args = 0
 2616              		@ link register save eliminated.
 2617 0000 80B4     		push	{r7}
 2618              	.LCFI85:
 2619              		.cfi_def_cfa_offset 4
 2620              		.cfi_offset 7, -4
 2621 0002 83B0     		sub	sp, sp, #12
 2622              	.LCFI86:
 2623              		.cfi_def_cfa_offset 16
 2624 0004 00AF     		add	r7, sp, #0
 2625              	.LCFI87:
 2626              		.cfi_def_cfa_register 7
 2627 0006 7860     		str	r0, [r7, #4]
1246:./Libraries/STM32F4xx_HAL_Driver/Src/stm32f4xx_hal_sai.c ****   if(hsai->State != HAL_SAI_STATE_RESET)
 2628              		.loc 1 1246 10
 2629 0008 7B68     		ldr	r3, [r7, #4]
 2630 000a 93F88130 		ldrb	r3, [r3, #129]
 2631 000e DBB2     		uxtb	r3, r3
 2632              		.loc 1 1246 5
 2633 0010 002B     		cmp	r3, #0
 2634 0012 09D0     		beq	.L127
1247:./Libraries/STM32F4xx_HAL_Driver/Src/stm32f4xx_hal_sai.c ****   {
1248:./Libraries/STM32F4xx_HAL_Driver/Src/stm32f4xx_hal_sai.c ****     CLEAR_BIT(hsai->Instance->CR2, SAI_xCR2_MUTEVAL | SAI_xCR2_MUTE);
 2635              		.loc 1 1248 5
 2636 0014 7B68     		ldr	r3, [r7, #4]
 2637 0016 1B68     		ldr	r3, [r3]
ARM GAS  /tmp/cc2WvXK4.s 			page 69


 2638 0018 5A68     		ldr	r2, [r3, #4]
 2639 001a 7B68     		ldr	r3, [r7, #4]
 2640 001c 1B68     		ldr	r3, [r3]
 2641 001e 22F06002 		bic	r2, r2, #96
 2642 0022 5A60     		str	r2, [r3, #4]
1249:./Libraries/STM32F4xx_HAL_Driver/Src/stm32f4xx_hal_sai.c ****     return HAL_OK;
 2643              		.loc 1 1249 12
 2644 0024 0023     		movs	r3, #0
 2645 0026 00E0     		b	.L128
 2646              	.L127:
1250:./Libraries/STM32F4xx_HAL_Driver/Src/stm32f4xx_hal_sai.c ****   }
1251:./Libraries/STM32F4xx_HAL_Driver/Src/stm32f4xx_hal_sai.c ****   return HAL_ERROR;
 2647              		.loc 1 1251 10
 2648 0028 0123     		movs	r3, #1
 2649              	.L128:
1252:./Libraries/STM32F4xx_HAL_Driver/Src/stm32f4xx_hal_sai.c **** }
 2650              		.loc 1 1252 1
 2651 002a 1846     		mov	r0, r3
 2652 002c 0C37     		adds	r7, r7, #12
 2653              	.LCFI88:
 2654              		.cfi_def_cfa_offset 4
 2655 002e BD46     		mov	sp, r7
 2656              	.LCFI89:
 2657              		.cfi_def_cfa_register 13
 2658              		@ sp needed
 2659 0030 5DF8047B 		ldr	r7, [sp], #4
 2660              	.LCFI90:
 2661              		.cfi_restore 7
 2662              		.cfi_def_cfa_offset 0
 2663 0034 7047     		bx	lr
 2664              		.cfi_endproc
 2665              	.LFE142:
 2667              		.section	.text.HAL_SAI_EnableRxMuteMode,"ax",%progbits
 2668              		.align	1
 2669              		.global	HAL_SAI_EnableRxMuteMode
 2670              		.syntax unified
 2671              		.thumb
 2672              		.thumb_func
 2673              		.fpu fpv4-sp-d16
 2675              	HAL_SAI_EnableRxMuteMode:
 2676              	.LFB143:
1253:./Libraries/STM32F4xx_HAL_Driver/Src/stm32f4xx_hal_sai.c **** 
1254:./Libraries/STM32F4xx_HAL_Driver/Src/stm32f4xx_hal_sai.c **** /**
1255:./Libraries/STM32F4xx_HAL_Driver/Src/stm32f4xx_hal_sai.c ****   * @brief  Enable the Rx mute detection.
1256:./Libraries/STM32F4xx_HAL_Driver/Src/stm32f4xx_hal_sai.c ****   * @param  hsai pointer to a SAI_HandleTypeDef structure that contains
1257:./Libraries/STM32F4xx_HAL_Driver/Src/stm32f4xx_hal_sai.c ****   *               the configuration information for SAI module.
1258:./Libraries/STM32F4xx_HAL_Driver/Src/stm32f4xx_hal_sai.c ****   * @param  callback function called when the mute is detected.
1259:./Libraries/STM32F4xx_HAL_Driver/Src/stm32f4xx_hal_sai.c ****   * @param  counter number a data before mute detection max 63.
1260:./Libraries/STM32F4xx_HAL_Driver/Src/stm32f4xx_hal_sai.c ****   * @retval HAL status
1261:./Libraries/STM32F4xx_HAL_Driver/Src/stm32f4xx_hal_sai.c ****   */
1262:./Libraries/STM32F4xx_HAL_Driver/Src/stm32f4xx_hal_sai.c **** HAL_StatusTypeDef HAL_SAI_EnableRxMuteMode(SAI_HandleTypeDef *hsai, SAIcallback callback, uint16_t 
1263:./Libraries/STM32F4xx_HAL_Driver/Src/stm32f4xx_hal_sai.c **** {
 2677              		.loc 1 1263 1
 2678              		.cfi_startproc
 2679              		@ args = 0, pretend = 0, frame = 16
 2680              		@ frame_needed = 1, uses_anonymous_args = 0
 2681              		@ link register save eliminated.
ARM GAS  /tmp/cc2WvXK4.s 			page 70


 2682 0000 80B4     		push	{r7}
 2683              	.LCFI91:
 2684              		.cfi_def_cfa_offset 4
 2685              		.cfi_offset 7, -4
 2686 0002 85B0     		sub	sp, sp, #20
 2687              	.LCFI92:
 2688              		.cfi_def_cfa_offset 24
 2689 0004 00AF     		add	r7, sp, #0
 2690              	.LCFI93:
 2691              		.cfi_def_cfa_register 7
 2692 0006 F860     		str	r0, [r7, #12]
 2693 0008 B960     		str	r1, [r7, #8]
 2694 000a 1346     		mov	r3, r2
 2695 000c FB80     		strh	r3, [r7, #6]	@ movhi
1264:./Libraries/STM32F4xx_HAL_Driver/Src/stm32f4xx_hal_sai.c ****   assert_param(IS_SAI_BLOCK_MUTE_COUNTER(counter));
1265:./Libraries/STM32F4xx_HAL_Driver/Src/stm32f4xx_hal_sai.c **** 
1266:./Libraries/STM32F4xx_HAL_Driver/Src/stm32f4xx_hal_sai.c ****   if(hsai->State != HAL_SAI_STATE_RESET)
 2696              		.loc 1 1266 10
 2697 000e FB68     		ldr	r3, [r7, #12]
 2698 0010 93F88130 		ldrb	r3, [r3, #129]
 2699 0014 DBB2     		uxtb	r3, r3
 2700              		.loc 1 1266 5
 2701 0016 002B     		cmp	r3, #0
 2702 0018 1DD0     		beq	.L130
1267:./Libraries/STM32F4xx_HAL_Driver/Src/stm32f4xx_hal_sai.c ****   {
1268:./Libraries/STM32F4xx_HAL_Driver/Src/stm32f4xx_hal_sai.c ****     /* set the mute counter */
1269:./Libraries/STM32F4xx_HAL_Driver/Src/stm32f4xx_hal_sai.c ****     CLEAR_BIT(hsai->Instance->CR2, SAI_xCR2_MUTECNT);
 2703              		.loc 1 1269 5
 2704 001a FB68     		ldr	r3, [r7, #12]
 2705 001c 1B68     		ldr	r3, [r3]
 2706 001e 5A68     		ldr	r2, [r3, #4]
 2707 0020 FB68     		ldr	r3, [r7, #12]
 2708 0022 1B68     		ldr	r3, [r3]
 2709 0024 22F4FC52 		bic	r2, r2, #8064
 2710 0028 5A60     		str	r2, [r3, #4]
1270:./Libraries/STM32F4xx_HAL_Driver/Src/stm32f4xx_hal_sai.c ****     SET_BIT(hsai->Instance->CR2, (uint32_t)((uint32_t)counter << SAI_xCR2_MUTECNT_Pos));
 2711              		.loc 1 1270 5
 2712 002a FB68     		ldr	r3, [r7, #12]
 2713 002c 1B68     		ldr	r3, [r3]
 2714 002e 5968     		ldr	r1, [r3, #4]
 2715 0030 FB88     		ldrh	r3, [r7, #6]
 2716 0032 DA01     		lsls	r2, r3, #7
 2717 0034 FB68     		ldr	r3, [r7, #12]
 2718 0036 1B68     		ldr	r3, [r3]
 2719 0038 0A43     		orrs	r2, r2, r1
 2720 003a 5A60     		str	r2, [r3, #4]
1271:./Libraries/STM32F4xx_HAL_Driver/Src/stm32f4xx_hal_sai.c ****     hsai->mutecallback = callback;
 2721              		.loc 1 1271 24
 2722 003c FB68     		ldr	r3, [r7, #12]
 2723 003e BA68     		ldr	r2, [r7, #8]
 2724 0040 9A67     		str	r2, [r3, #120]
1272:./Libraries/STM32F4xx_HAL_Driver/Src/stm32f4xx_hal_sai.c ****     /* enable the IT interrupt */
1273:./Libraries/STM32F4xx_HAL_Driver/Src/stm32f4xx_hal_sai.c ****     __HAL_SAI_ENABLE_IT(hsai, SAI_IT_MUTEDET);
 2725              		.loc 1 1273 5
 2726 0042 FB68     		ldr	r3, [r7, #12]
 2727 0044 1B68     		ldr	r3, [r3]
 2728 0046 1A69     		ldr	r2, [r3, #16]
ARM GAS  /tmp/cc2WvXK4.s 			page 71


 2729 0048 FB68     		ldr	r3, [r7, #12]
 2730 004a 1B68     		ldr	r3, [r3]
 2731 004c 42F00202 		orr	r2, r2, #2
 2732 0050 1A61     		str	r2, [r3, #16]
1274:./Libraries/STM32F4xx_HAL_Driver/Src/stm32f4xx_hal_sai.c ****     return HAL_OK;
 2733              		.loc 1 1274 12
 2734 0052 0023     		movs	r3, #0
 2735 0054 00E0     		b	.L131
 2736              	.L130:
1275:./Libraries/STM32F4xx_HAL_Driver/Src/stm32f4xx_hal_sai.c ****   }
1276:./Libraries/STM32F4xx_HAL_Driver/Src/stm32f4xx_hal_sai.c ****   return HAL_ERROR;
 2737              		.loc 1 1276 10
 2738 0056 0123     		movs	r3, #1
 2739              	.L131:
1277:./Libraries/STM32F4xx_HAL_Driver/Src/stm32f4xx_hal_sai.c **** }
 2740              		.loc 1 1277 1
 2741 0058 1846     		mov	r0, r3
 2742 005a 1437     		adds	r7, r7, #20
 2743              	.LCFI94:
 2744              		.cfi_def_cfa_offset 4
 2745 005c BD46     		mov	sp, r7
 2746              	.LCFI95:
 2747              		.cfi_def_cfa_register 13
 2748              		@ sp needed
 2749 005e 5DF8047B 		ldr	r7, [sp], #4
 2750              	.LCFI96:
 2751              		.cfi_restore 7
 2752              		.cfi_def_cfa_offset 0
 2753 0062 7047     		bx	lr
 2754              		.cfi_endproc
 2755              	.LFE143:
 2757              		.section	.text.HAL_SAI_DisableRxMuteMode,"ax",%progbits
 2758              		.align	1
 2759              		.global	HAL_SAI_DisableRxMuteMode
 2760              		.syntax unified
 2761              		.thumb
 2762              		.thumb_func
 2763              		.fpu fpv4-sp-d16
 2765              	HAL_SAI_DisableRxMuteMode:
 2766              	.LFB144:
1278:./Libraries/STM32F4xx_HAL_Driver/Src/stm32f4xx_hal_sai.c **** 
1279:./Libraries/STM32F4xx_HAL_Driver/Src/stm32f4xx_hal_sai.c **** /**
1280:./Libraries/STM32F4xx_HAL_Driver/Src/stm32f4xx_hal_sai.c ****   * @brief  Disable the Rx mute detection.
1281:./Libraries/STM32F4xx_HAL_Driver/Src/stm32f4xx_hal_sai.c ****   * @param  hsai pointer to a SAI_HandleTypeDef structure that contains
1282:./Libraries/STM32F4xx_HAL_Driver/Src/stm32f4xx_hal_sai.c ****   *               the configuration information for SAI module.
1283:./Libraries/STM32F4xx_HAL_Driver/Src/stm32f4xx_hal_sai.c ****   * @retval HAL status
1284:./Libraries/STM32F4xx_HAL_Driver/Src/stm32f4xx_hal_sai.c ****   */
1285:./Libraries/STM32F4xx_HAL_Driver/Src/stm32f4xx_hal_sai.c **** HAL_StatusTypeDef HAL_SAI_DisableRxMuteMode(SAI_HandleTypeDef *hsai)
1286:./Libraries/STM32F4xx_HAL_Driver/Src/stm32f4xx_hal_sai.c **** {
 2767              		.loc 1 1286 1
 2768              		.cfi_startproc
 2769              		@ args = 0, pretend = 0, frame = 8
 2770              		@ frame_needed = 1, uses_anonymous_args = 0
 2771              		@ link register save eliminated.
 2772 0000 80B4     		push	{r7}
 2773              	.LCFI97:
 2774              		.cfi_def_cfa_offset 4
ARM GAS  /tmp/cc2WvXK4.s 			page 72


 2775              		.cfi_offset 7, -4
 2776 0002 83B0     		sub	sp, sp, #12
 2777              	.LCFI98:
 2778              		.cfi_def_cfa_offset 16
 2779 0004 00AF     		add	r7, sp, #0
 2780              	.LCFI99:
 2781              		.cfi_def_cfa_register 7
 2782 0006 7860     		str	r0, [r7, #4]
1287:./Libraries/STM32F4xx_HAL_Driver/Src/stm32f4xx_hal_sai.c ****   if(hsai->State != HAL_SAI_STATE_RESET)
 2783              		.loc 1 1287 10
 2784 0008 7B68     		ldr	r3, [r7, #4]
 2785 000a 93F88130 		ldrb	r3, [r3, #129]
 2786 000e DBB2     		uxtb	r3, r3
 2787              		.loc 1 1287 5
 2788 0010 002B     		cmp	r3, #0
 2789 0012 0CD0     		beq	.L133
1288:./Libraries/STM32F4xx_HAL_Driver/Src/stm32f4xx_hal_sai.c ****   {
1289:./Libraries/STM32F4xx_HAL_Driver/Src/stm32f4xx_hal_sai.c ****     /* set the mutecallback to NULL */
1290:./Libraries/STM32F4xx_HAL_Driver/Src/stm32f4xx_hal_sai.c ****     hsai->mutecallback = (SAIcallback)NULL;
 2790              		.loc 1 1290 24
 2791 0014 7B68     		ldr	r3, [r7, #4]
 2792 0016 0022     		movs	r2, #0
 2793 0018 9A67     		str	r2, [r3, #120]
1291:./Libraries/STM32F4xx_HAL_Driver/Src/stm32f4xx_hal_sai.c ****     /* enable the IT interrupt */
1292:./Libraries/STM32F4xx_HAL_Driver/Src/stm32f4xx_hal_sai.c ****     __HAL_SAI_DISABLE_IT(hsai, SAI_IT_MUTEDET);
 2794              		.loc 1 1292 5
 2795 001a 7B68     		ldr	r3, [r7, #4]
 2796 001c 1B68     		ldr	r3, [r3]
 2797 001e 1A69     		ldr	r2, [r3, #16]
 2798 0020 7B68     		ldr	r3, [r7, #4]
 2799 0022 1B68     		ldr	r3, [r3]
 2800 0024 22F00202 		bic	r2, r2, #2
 2801 0028 1A61     		str	r2, [r3, #16]
1293:./Libraries/STM32F4xx_HAL_Driver/Src/stm32f4xx_hal_sai.c ****     return HAL_OK;
 2802              		.loc 1 1293 12
 2803 002a 0023     		movs	r3, #0
 2804 002c 00E0     		b	.L134
 2805              	.L133:
1294:./Libraries/STM32F4xx_HAL_Driver/Src/stm32f4xx_hal_sai.c ****   }
1295:./Libraries/STM32F4xx_HAL_Driver/Src/stm32f4xx_hal_sai.c ****   return HAL_ERROR;
 2806              		.loc 1 1295 10
 2807 002e 0123     		movs	r3, #1
 2808              	.L134:
1296:./Libraries/STM32F4xx_HAL_Driver/Src/stm32f4xx_hal_sai.c **** }
 2809              		.loc 1 1296 1
 2810 0030 1846     		mov	r0, r3
 2811 0032 0C37     		adds	r7, r7, #12
 2812              	.LCFI100:
 2813              		.cfi_def_cfa_offset 4
 2814 0034 BD46     		mov	sp, r7
 2815              	.LCFI101:
 2816              		.cfi_def_cfa_register 13
 2817              		@ sp needed
 2818 0036 5DF8047B 		ldr	r7, [sp], #4
 2819              	.LCFI102:
 2820              		.cfi_restore 7
 2821              		.cfi_def_cfa_offset 0
ARM GAS  /tmp/cc2WvXK4.s 			page 73


 2822 003a 7047     		bx	lr
 2823              		.cfi_endproc
 2824              	.LFE144:
 2826              		.section	.text.HAL_SAI_IRQHandler,"ax",%progbits
 2827              		.align	1
 2828              		.global	HAL_SAI_IRQHandler
 2829              		.syntax unified
 2830              		.thumb
 2831              		.thumb_func
 2832              		.fpu fpv4-sp-d16
 2834              	HAL_SAI_IRQHandler:
 2835              	.LFB145:
1297:./Libraries/STM32F4xx_HAL_Driver/Src/stm32f4xx_hal_sai.c **** 
1298:./Libraries/STM32F4xx_HAL_Driver/Src/stm32f4xx_hal_sai.c **** /**
1299:./Libraries/STM32F4xx_HAL_Driver/Src/stm32f4xx_hal_sai.c ****   * @brief  Handle SAI interrupt request.
1300:./Libraries/STM32F4xx_HAL_Driver/Src/stm32f4xx_hal_sai.c ****   * @param  hsai pointer to a SAI_HandleTypeDef structure that contains
1301:./Libraries/STM32F4xx_HAL_Driver/Src/stm32f4xx_hal_sai.c ****   *               the configuration information for SAI module.
1302:./Libraries/STM32F4xx_HAL_Driver/Src/stm32f4xx_hal_sai.c ****   * @retval None
1303:./Libraries/STM32F4xx_HAL_Driver/Src/stm32f4xx_hal_sai.c ****   */
1304:./Libraries/STM32F4xx_HAL_Driver/Src/stm32f4xx_hal_sai.c **** void HAL_SAI_IRQHandler(SAI_HandleTypeDef *hsai)
1305:./Libraries/STM32F4xx_HAL_Driver/Src/stm32f4xx_hal_sai.c **** {
 2836              		.loc 1 1305 1
 2837              		.cfi_startproc
 2838              		@ args = 0, pretend = 0, frame = 24
 2839              		@ frame_needed = 1, uses_anonymous_args = 0
 2840 0000 80B5     		push	{r7, lr}
 2841              	.LCFI103:
 2842              		.cfi_def_cfa_offset 8
 2843              		.cfi_offset 7, -8
 2844              		.cfi_offset 14, -4
 2845 0002 86B0     		sub	sp, sp, #24
 2846              	.LCFI104:
 2847              		.cfi_def_cfa_offset 32
 2848 0004 00AF     		add	r7, sp, #0
 2849              	.LCFI105:
 2850              		.cfi_def_cfa_register 7
 2851 0006 7860     		str	r0, [r7, #4]
1306:./Libraries/STM32F4xx_HAL_Driver/Src/stm32f4xx_hal_sai.c ****   if(hsai->State != HAL_SAI_STATE_RESET)
 2852              		.loc 1 1306 10
 2853 0008 7B68     		ldr	r3, [r7, #4]
 2854 000a 93F88130 		ldrb	r3, [r3, #129]
 2855 000e DBB2     		uxtb	r3, r3
 2856              		.loc 1 1306 5
 2857 0010 002B     		cmp	r3, #0
 2858 0012 00F03281 		beq	.L155
 2859              	.LBB2:
1307:./Libraries/STM32F4xx_HAL_Driver/Src/stm32f4xx_hal_sai.c ****   {
1308:./Libraries/STM32F4xx_HAL_Driver/Src/stm32f4xx_hal_sai.c ****     uint32_t itflags = hsai->Instance->SR;
 2860              		.loc 1 1308 28
 2861 0016 7B68     		ldr	r3, [r7, #4]
 2862 0018 1B68     		ldr	r3, [r3]
 2863              		.loc 1 1308 14
 2864 001a 5B69     		ldr	r3, [r3, #20]
 2865 001c 7B61     		str	r3, [r7, #20]
1309:./Libraries/STM32F4xx_HAL_Driver/Src/stm32f4xx_hal_sai.c ****     uint32_t itsources = hsai->Instance->IMR;
 2866              		.loc 1 1309 30
 2867 001e 7B68     		ldr	r3, [r7, #4]
ARM GAS  /tmp/cc2WvXK4.s 			page 74


 2868 0020 1B68     		ldr	r3, [r3]
 2869              		.loc 1 1309 14
 2870 0022 1B69     		ldr	r3, [r3, #16]
 2871 0024 3B61     		str	r3, [r7, #16]
1310:./Libraries/STM32F4xx_HAL_Driver/Src/stm32f4xx_hal_sai.c ****     uint32_t cr1config = hsai->Instance->CR1;
 2872              		.loc 1 1310 30
 2873 0026 7B68     		ldr	r3, [r7, #4]
 2874 0028 1B68     		ldr	r3, [r3]
 2875              		.loc 1 1310 14
 2876 002a 1B68     		ldr	r3, [r3]
 2877 002c FB60     		str	r3, [r7, #12]
1311:./Libraries/STM32F4xx_HAL_Driver/Src/stm32f4xx_hal_sai.c ****     uint32_t tmperror;
1312:./Libraries/STM32F4xx_HAL_Driver/Src/stm32f4xx_hal_sai.c **** 
1313:./Libraries/STM32F4xx_HAL_Driver/Src/stm32f4xx_hal_sai.c ****     /* SAI Fifo request interrupt occured ------------------------------------*/
1314:./Libraries/STM32F4xx_HAL_Driver/Src/stm32f4xx_hal_sai.c ****     if(((itflags & SAI_xSR_FREQ) == SAI_xSR_FREQ) && ((itsources & SAI_IT_FREQ) == SAI_IT_FREQ))
 2878              		.loc 1 1314 18
 2879 002e 7B69     		ldr	r3, [r7, #20]
 2880 0030 03F00803 		and	r3, r3, #8
 2881              		.loc 1 1314 7
 2882 0034 002B     		cmp	r3, #0
 2883 0036 09D0     		beq	.L137
 2884              		.loc 1 1314 66 discriminator 1
 2885 0038 3B69     		ldr	r3, [r7, #16]
 2886 003a 03F00803 		and	r3, r3, #8
 2887              		.loc 1 1314 51 discriminator 1
 2888 003e 002B     		cmp	r3, #0
 2889 0040 04D0     		beq	.L137
1315:./Libraries/STM32F4xx_HAL_Driver/Src/stm32f4xx_hal_sai.c ****     {
1316:./Libraries/STM32F4xx_HAL_Driver/Src/stm32f4xx_hal_sai.c ****       hsai->InterruptServiceRoutine(hsai);
 2890              		.loc 1 1316 11
 2891 0042 7B68     		ldr	r3, [r7, #4]
 2892 0044 DB6F     		ldr	r3, [r3, #124]
 2893              		.loc 1 1316 7
 2894 0046 7868     		ldr	r0, [r7, #4]
 2895 0048 9847     		blx	r3
 2896              	.LVL0:
 2897 004a 16E1     		b	.L136
 2898              	.L137:
1317:./Libraries/STM32F4xx_HAL_Driver/Src/stm32f4xx_hal_sai.c ****     }
1318:./Libraries/STM32F4xx_HAL_Driver/Src/stm32f4xx_hal_sai.c ****     /* SAI Overrun error interrupt occurred ----------------------------------*/
1319:./Libraries/STM32F4xx_HAL_Driver/Src/stm32f4xx_hal_sai.c ****     else if(((itflags & SAI_FLAG_OVRUDR) == SAI_FLAG_OVRUDR) && ((itsources & SAI_IT_OVRUDR) == SAI
 2899              		.loc 1 1319 23
 2900 004c 7B69     		ldr	r3, [r7, #20]
 2901 004e 03F00103 		and	r3, r3, #1
 2902              		.loc 1 1319 12
 2903 0052 002B     		cmp	r3, #0
 2904 0054 1ED0     		beq	.L138
 2905              		.loc 1 1319 77 discriminator 1
 2906 0056 3B69     		ldr	r3, [r7, #16]
 2907 0058 03F00103 		and	r3, r3, #1
 2908              		.loc 1 1319 62 discriminator 1
 2909 005c 002B     		cmp	r3, #0
 2910 005e 19D0     		beq	.L138
1320:./Libraries/STM32F4xx_HAL_Driver/Src/stm32f4xx_hal_sai.c ****     {
1321:./Libraries/STM32F4xx_HAL_Driver/Src/stm32f4xx_hal_sai.c ****       /* Clear the SAI Overrun flag */
1322:./Libraries/STM32F4xx_HAL_Driver/Src/stm32f4xx_hal_sai.c ****       __HAL_SAI_CLEAR_FLAG(hsai, SAI_FLAG_OVRUDR);
 2911              		.loc 1 1322 7
ARM GAS  /tmp/cc2WvXK4.s 			page 75


 2912 0060 7B68     		ldr	r3, [r7, #4]
 2913 0062 1B68     		ldr	r3, [r3]
 2914 0064 0122     		movs	r2, #1
 2915 0066 9A61     		str	r2, [r3, #24]
1323:./Libraries/STM32F4xx_HAL_Driver/Src/stm32f4xx_hal_sai.c **** 
1324:./Libraries/STM32F4xx_HAL_Driver/Src/stm32f4xx_hal_sai.c ****       /* Get the SAI error code */
1325:./Libraries/STM32F4xx_HAL_Driver/Src/stm32f4xx_hal_sai.c ****       tmperror = ((hsai->State == HAL_SAI_STATE_BUSY_RX) ? HAL_SAI_ERROR_OVR : HAL_SAI_ERROR_UDR);
 2916              		.loc 1 1325 24
 2917 0068 7B68     		ldr	r3, [r7, #4]
 2918 006a 93F88130 		ldrb	r3, [r3, #129]
 2919 006e DBB2     		uxtb	r3, r3
 2920              		.loc 1 1325 78
 2921 0070 222B     		cmp	r3, #34
 2922 0072 01D1     		bne	.L139
 2923              		.loc 1 1325 78 is_stmt 0 discriminator 1
 2924 0074 0123     		movs	r3, #1
 2925 0076 00E0     		b	.L140
 2926              	.L139:
 2927              		.loc 1 1325 78 discriminator 2
 2928 0078 0223     		movs	r3, #2
 2929              	.L140:
 2930              		.loc 1 1325 16 is_stmt 1 discriminator 4
 2931 007a BB60     		str	r3, [r7, #8]
1326:./Libraries/STM32F4xx_HAL_Driver/Src/stm32f4xx_hal_sai.c **** 
1327:./Libraries/STM32F4xx_HAL_Driver/Src/stm32f4xx_hal_sai.c ****       /* Change the SAI error code */
1328:./Libraries/STM32F4xx_HAL_Driver/Src/stm32f4xx_hal_sai.c ****       hsai->ErrorCode |= tmperror;
 2932              		.loc 1 1328 23 discriminator 4
 2933 007c 7B68     		ldr	r3, [r7, #4]
 2934 007e D3F88420 		ldr	r2, [r3, #132]
 2935 0082 BB68     		ldr	r3, [r7, #8]
 2936 0084 1A43     		orrs	r2, r2, r3
 2937 0086 7B68     		ldr	r3, [r7, #4]
 2938 0088 C3F88420 		str	r2, [r3, #132]
1329:./Libraries/STM32F4xx_HAL_Driver/Src/stm32f4xx_hal_sai.c **** 
1330:./Libraries/STM32F4xx_HAL_Driver/Src/stm32f4xx_hal_sai.c ****       /* the transfer is not stopped, we will forward the information to the user and we let the us
1331:./Libraries/STM32F4xx_HAL_Driver/Src/stm32f4xx_hal_sai.c ****       HAL_SAI_ErrorCallback(hsai);
 2939              		.loc 1 1331 7 discriminator 4
 2940 008c 7868     		ldr	r0, [r7, #4]
 2941 008e FFF7FEFF 		bl	HAL_SAI_ErrorCallback
 2942 0092 F2E0     		b	.L136
 2943              	.L138:
1332:./Libraries/STM32F4xx_HAL_Driver/Src/stm32f4xx_hal_sai.c ****     }
1333:./Libraries/STM32F4xx_HAL_Driver/Src/stm32f4xx_hal_sai.c ****     /* SAI mutedet interrupt occurred ----------------------------------*/
1334:./Libraries/STM32F4xx_HAL_Driver/Src/stm32f4xx_hal_sai.c ****     else if(((itflags & SAI_FLAG_MUTEDET) == SAI_FLAG_MUTEDET) && ((itsources & SAI_IT_MUTEDET) == 
 2944              		.loc 1 1334 23
 2945 0094 7B69     		ldr	r3, [r7, #20]
 2946 0096 03F00203 		and	r3, r3, #2
 2947              		.loc 1 1334 12
 2948 009a 002B     		cmp	r3, #0
 2949 009c 11D0     		beq	.L141
 2950              		.loc 1 1334 79 discriminator 1
 2951 009e 3B69     		ldr	r3, [r7, #16]
 2952 00a0 03F00203 		and	r3, r3, #2
 2953              		.loc 1 1334 64 discriminator 1
 2954 00a4 002B     		cmp	r3, #0
 2955 00a6 0CD0     		beq	.L141
1335:./Libraries/STM32F4xx_HAL_Driver/Src/stm32f4xx_hal_sai.c ****     {
ARM GAS  /tmp/cc2WvXK4.s 			page 76


1336:./Libraries/STM32F4xx_HAL_Driver/Src/stm32f4xx_hal_sai.c ****       /* Clear the SAI mutedet flag */
1337:./Libraries/STM32F4xx_HAL_Driver/Src/stm32f4xx_hal_sai.c ****       __HAL_SAI_CLEAR_FLAG(hsai, SAI_FLAG_MUTEDET);
 2956              		.loc 1 1337 7
 2957 00a8 7B68     		ldr	r3, [r7, #4]
 2958 00aa 1B68     		ldr	r3, [r3]
 2959 00ac 0222     		movs	r2, #2
 2960 00ae 9A61     		str	r2, [r3, #24]
1338:./Libraries/STM32F4xx_HAL_Driver/Src/stm32f4xx_hal_sai.c **** 
1339:./Libraries/STM32F4xx_HAL_Driver/Src/stm32f4xx_hal_sai.c ****       /* call the call back function */
1340:./Libraries/STM32F4xx_HAL_Driver/Src/stm32f4xx_hal_sai.c ****       if(hsai->mutecallback != (SAIcallback)NULL)
 2961              		.loc 1 1340 14
 2962 00b0 7B68     		ldr	r3, [r7, #4]
 2963 00b2 9B6F     		ldr	r3, [r3, #120]
 2964              		.loc 1 1340 9
 2965 00b4 002B     		cmp	r3, #0
 2966 00b6 00F0E080 		beq	.L136
1341:./Libraries/STM32F4xx_HAL_Driver/Src/stm32f4xx_hal_sai.c ****       {
1342:./Libraries/STM32F4xx_HAL_Driver/Src/stm32f4xx_hal_sai.c ****         /* inform the user that an RX mute event has been detected */
1343:./Libraries/STM32F4xx_HAL_Driver/Src/stm32f4xx_hal_sai.c ****         hsai->mutecallback();
 2967              		.loc 1 1343 13
 2968 00ba 7B68     		ldr	r3, [r7, #4]
 2969 00bc 9B6F     		ldr	r3, [r3, #120]
 2970              		.loc 1 1343 9
 2971 00be 9847     		blx	r3
 2972              	.LVL1:
1340:./Libraries/STM32F4xx_HAL_Driver/Src/stm32f4xx_hal_sai.c ****       {
 2973              		.loc 1 1340 9
 2974 00c0 DBE0     		b	.L136
 2975              	.L141:
1344:./Libraries/STM32F4xx_HAL_Driver/Src/stm32f4xx_hal_sai.c ****       }
1345:./Libraries/STM32F4xx_HAL_Driver/Src/stm32f4xx_hal_sai.c ****     }
1346:./Libraries/STM32F4xx_HAL_Driver/Src/stm32f4xx_hal_sai.c ****     /* SAI AFSDET interrupt occurred ----------------------------------*/
1347:./Libraries/STM32F4xx_HAL_Driver/Src/stm32f4xx_hal_sai.c ****     else if(((itflags & SAI_FLAG_AFSDET) == SAI_FLAG_AFSDET) && ((itsources & SAI_IT_AFSDET) == SAI
 2976              		.loc 1 1347 23
 2977 00c2 7B69     		ldr	r3, [r7, #20]
 2978 00c4 03F02003 		and	r3, r3, #32
 2979              		.loc 1 1347 12
 2980 00c8 002B     		cmp	r3, #0
 2981 00ca 35D0     		beq	.L143
 2982              		.loc 1 1347 77 discriminator 1
 2983 00cc 3B69     		ldr	r3, [r7, #16]
 2984 00ce 03F02003 		and	r3, r3, #32
 2985              		.loc 1 1347 62 discriminator 1
