ARM GAS  /tmp/ccgPJtk7.s 			page 1


   1              		.cpu cortex-m4
   2              		.eabi_attribute 27, 1
   3              		.eabi_attribute 28, 1
   4              		.eabi_attribute 20, 1
   5              		.eabi_attribute 21, 1
   6              		.eabi_attribute 23, 3
   7              		.eabi_attribute 24, 1
   8              		.eabi_attribute 25, 1
   9              		.eabi_attribute 26, 1
  10              		.eabi_attribute 30, 6
  11              		.eabi_attribute 34, 1
  12              		.eabi_attribute 18, 4
  13              		.file	"stm32f4xx_hal_dma2d.c"
  14              		.text
  15              	.Ltext0:
  16              		.cfi_sections	.debug_frame
  17              		.section	.text.HAL_DMA2D_Init,"ax",%progbits
  18              		.align	1
  19              		.global	HAL_DMA2D_Init
  20              		.arch armv7e-m
  21              		.syntax unified
  22              		.thumb
  23              		.thumb_func
  24              		.fpu fpv4-sp-d16
  26              	HAL_DMA2D_Init:
  27              	.LFB126:
  28              		.file 1 "./Libraries/STM32F4xx_HAL_Driver/Src/stm32f4xx_hal_dma2d.c"
   1:./Libraries/STM32F4xx_HAL_Driver/Src/stm32f4xx_hal_dma2d.c **** /**
   2:./Libraries/STM32F4xx_HAL_Driver/Src/stm32f4xx_hal_dma2d.c ****   ******************************************************************************
   3:./Libraries/STM32F4xx_HAL_Driver/Src/stm32f4xx_hal_dma2d.c ****   * @file    stm32f4xx_hal_dma2d.c
   4:./Libraries/STM32F4xx_HAL_Driver/Src/stm32f4xx_hal_dma2d.c ****   * @author  MCD Application Team
   5:./Libraries/STM32F4xx_HAL_Driver/Src/stm32f4xx_hal_dma2d.c ****   * @brief   DMA2D HAL module driver.
   6:./Libraries/STM32F4xx_HAL_Driver/Src/stm32f4xx_hal_dma2d.c ****   *          This file provides firmware functions to manage the following
   7:./Libraries/STM32F4xx_HAL_Driver/Src/stm32f4xx_hal_dma2d.c ****   *          functionalities of the DMA2D peripheral:
   8:./Libraries/STM32F4xx_HAL_Driver/Src/stm32f4xx_hal_dma2d.c ****   *           + Initialization and de-initialization functions
   9:./Libraries/STM32F4xx_HAL_Driver/Src/stm32f4xx_hal_dma2d.c ****   *           + IO operation functions
  10:./Libraries/STM32F4xx_HAL_Driver/Src/stm32f4xx_hal_dma2d.c ****   *           + Peripheral Control functions 
  11:./Libraries/STM32F4xx_HAL_Driver/Src/stm32f4xx_hal_dma2d.c ****   *           + Peripheral State and Errors functions
  12:./Libraries/STM32F4xx_HAL_Driver/Src/stm32f4xx_hal_dma2d.c ****   *
  13:./Libraries/STM32F4xx_HAL_Driver/Src/stm32f4xx_hal_dma2d.c ****   @verbatim
  14:./Libraries/STM32F4xx_HAL_Driver/Src/stm32f4xx_hal_dma2d.c ****   ==============================================================================
  15:./Libraries/STM32F4xx_HAL_Driver/Src/stm32f4xx_hal_dma2d.c ****                         ##### How to use this driver #####
  16:./Libraries/STM32F4xx_HAL_Driver/Src/stm32f4xx_hal_dma2d.c ****   ==============================================================================
  17:./Libraries/STM32F4xx_HAL_Driver/Src/stm32f4xx_hal_dma2d.c ****     [..]
  18:./Libraries/STM32F4xx_HAL_Driver/Src/stm32f4xx_hal_dma2d.c ****       (#) Program the required configuration through the following parameters:
  19:./Libraries/STM32F4xx_HAL_Driver/Src/stm32f4xx_hal_dma2d.c ****           the transfer mode, the output color mode and the output offset using
  20:./Libraries/STM32F4xx_HAL_Driver/Src/stm32f4xx_hal_dma2d.c ****           HAL_DMA2D_Init() function.
  21:./Libraries/STM32F4xx_HAL_Driver/Src/stm32f4xx_hal_dma2d.c **** 
  22:./Libraries/STM32F4xx_HAL_Driver/Src/stm32f4xx_hal_dma2d.c ****       (#) Program the required configuration through the following parameters:
  23:./Libraries/STM32F4xx_HAL_Driver/Src/stm32f4xx_hal_dma2d.c ****           the input color mode, the input color, the input alpha value, the alpha mode,
  24:./Libraries/STM32F4xx_HAL_Driver/Src/stm32f4xx_hal_dma2d.c ****           and the input offset using HAL_DMA2D_ConfigLayer() function for foreground 
  25:./Libraries/STM32F4xx_HAL_Driver/Src/stm32f4xx_hal_dma2d.c ****           or/and background layer.
  26:./Libraries/STM32F4xx_HAL_Driver/Src/stm32f4xx_hal_dma2d.c ****           
  27:./Libraries/STM32F4xx_HAL_Driver/Src/stm32f4xx_hal_dma2d.c ****      *** Polling mode IO operation ***
  28:./Libraries/STM32F4xx_HAL_Driver/Src/stm32f4xx_hal_dma2d.c ****      =================================
  29:./Libraries/STM32F4xx_HAL_Driver/Src/stm32f4xx_hal_dma2d.c ****     [..]
  30:./Libraries/STM32F4xx_HAL_Driver/Src/stm32f4xx_hal_dma2d.c ****        (#) Configure pdata parameter (explained hereafter), destination and data length
ARM GAS  /tmp/ccgPJtk7.s 			page 2


  31:./Libraries/STM32F4xx_HAL_Driver/Src/stm32f4xx_hal_dma2d.c ****            and enable the transfer using HAL_DMA2D_Start().
  32:./Libraries/STM32F4xx_HAL_Driver/Src/stm32f4xx_hal_dma2d.c ****        (#) Wait for end of transfer using HAL_DMA2D_PollForTransfer(), at this stage
  33:./Libraries/STM32F4xx_HAL_Driver/Src/stm32f4xx_hal_dma2d.c ****            user can specify the value of timeout according to his end application.
  34:./Libraries/STM32F4xx_HAL_Driver/Src/stm32f4xx_hal_dma2d.c **** 
  35:./Libraries/STM32F4xx_HAL_Driver/Src/stm32f4xx_hal_dma2d.c ****      *** Interrupt mode IO operation ***
  36:./Libraries/STM32F4xx_HAL_Driver/Src/stm32f4xx_hal_dma2d.c ****      ===================================
  37:./Libraries/STM32F4xx_HAL_Driver/Src/stm32f4xx_hal_dma2d.c ****      [..]
  38:./Libraries/STM32F4xx_HAL_Driver/Src/stm32f4xx_hal_dma2d.c ****        (#) Configure pdata parameter, destination and data length and enable 
  39:./Libraries/STM32F4xx_HAL_Driver/Src/stm32f4xx_hal_dma2d.c ****            the transfer using HAL_DMA2D_Start_IT().
  40:./Libraries/STM32F4xx_HAL_Driver/Src/stm32f4xx_hal_dma2d.c ****        (#) Use HAL_DMA2D_IRQHandler() called under DMA2D_IRQHandler() interrupt subroutine
  41:./Libraries/STM32F4xx_HAL_Driver/Src/stm32f4xx_hal_dma2d.c ****        (#) At the end of data transfer HAL_DMA2D_IRQHandler() function is executed and user can
  42:./Libraries/STM32F4xx_HAL_Driver/Src/stm32f4xx_hal_dma2d.c ****            add his own function by customization of function pointer XferCpltCallback (member
  43:./Libraries/STM32F4xx_HAL_Driver/Src/stm32f4xx_hal_dma2d.c ****            of DMA2D handle structure).
  44:./Libraries/STM32F4xx_HAL_Driver/Src/stm32f4xx_hal_dma2d.c ****        (#) In case of error, the HAL_DMA2D_IRQHandler() function will call the callback
  45:./Libraries/STM32F4xx_HAL_Driver/Src/stm32f4xx_hal_dma2d.c ****            XferErrorCallback.
  46:./Libraries/STM32F4xx_HAL_Driver/Src/stm32f4xx_hal_dma2d.c **** 
  47:./Libraries/STM32F4xx_HAL_Driver/Src/stm32f4xx_hal_dma2d.c ****          -@-   In Register-to-Memory transfer mode, pdata parameter is the register
  48:./Libraries/STM32F4xx_HAL_Driver/Src/stm32f4xx_hal_dma2d.c ****                color, in Memory-to-memory or Memory-to-Memory with pixel format
  49:./Libraries/STM32F4xx_HAL_Driver/Src/stm32f4xx_hal_dma2d.c ****                conversion pdata is the source address.
  50:./Libraries/STM32F4xx_HAL_Driver/Src/stm32f4xx_hal_dma2d.c **** 
  51:./Libraries/STM32F4xx_HAL_Driver/Src/stm32f4xx_hal_dma2d.c ****          -@-   Configure the foreground source address, the background source address,
  52:./Libraries/STM32F4xx_HAL_Driver/Src/stm32f4xx_hal_dma2d.c ****                the destination and data length then Enable the transfer using
  53:./Libraries/STM32F4xx_HAL_Driver/Src/stm32f4xx_hal_dma2d.c ****                HAL_DMA2D_BlendingStart() in polling mode and HAL_DMA2D_BlendingStart_IT()
  54:./Libraries/STM32F4xx_HAL_Driver/Src/stm32f4xx_hal_dma2d.c ****                in interrupt mode
  55:./Libraries/STM32F4xx_HAL_Driver/Src/stm32f4xx_hal_dma2d.c **** 
  56:./Libraries/STM32F4xx_HAL_Driver/Src/stm32f4xx_hal_dma2d.c ****          -@-   HAL_DMA2D_BlendingStart() and HAL_DMA2D_BlendingStart_IT() functions
  57:./Libraries/STM32F4xx_HAL_Driver/Src/stm32f4xx_hal_dma2d.c ****                are used if the memory to memory with blending transfer mode is selected.
  58:./Libraries/STM32F4xx_HAL_Driver/Src/stm32f4xx_hal_dma2d.c **** 
  59:./Libraries/STM32F4xx_HAL_Driver/Src/stm32f4xx_hal_dma2d.c ****       (#) Optionally, configure and enable the CLUT using HAL_DMA2D_CLUTLoad() in polling
  60:./Libraries/STM32F4xx_HAL_Driver/Src/stm32f4xx_hal_dma2d.c ****           mode or HAL_DMA2D_CLUTLoad_IT() in interrupt mode.
  61:./Libraries/STM32F4xx_HAL_Driver/Src/stm32f4xx_hal_dma2d.c **** 
  62:./Libraries/STM32F4xx_HAL_Driver/Src/stm32f4xx_hal_dma2d.c ****       (#) Optionally, configure the line watermark in using the API HAL_DMA2D_ProgramLineEvent()
  63:./Libraries/STM32F4xx_HAL_Driver/Src/stm32f4xx_hal_dma2d.c **** 
  64:./Libraries/STM32F4xx_HAL_Driver/Src/stm32f4xx_hal_dma2d.c ****       (#) Optionally, configure the dead time value in the AHB clock cycle inserted between two 
  65:./Libraries/STM32F4xx_HAL_Driver/Src/stm32f4xx_hal_dma2d.c ****           consecutive accesses on the AHB master port in using the API HAL_DMA2D_ConfigDeadTime()
  66:./Libraries/STM32F4xx_HAL_Driver/Src/stm32f4xx_hal_dma2d.c ****           and enable/disable the functionality  with the APIs HAL_DMA2D_EnableDeadTime() or
  67:./Libraries/STM32F4xx_HAL_Driver/Src/stm32f4xx_hal_dma2d.c ****           HAL_DMA2D_DisableDeadTime().
  68:./Libraries/STM32F4xx_HAL_Driver/Src/stm32f4xx_hal_dma2d.c **** 
  69:./Libraries/STM32F4xx_HAL_Driver/Src/stm32f4xx_hal_dma2d.c ****       (#) The transfer can be suspended, resumed and aborted using the following
  70:./Libraries/STM32F4xx_HAL_Driver/Src/stm32f4xx_hal_dma2d.c ****           functions: HAL_DMA2D_Suspend(), HAL_DMA2D_Resume(), HAL_DMA2D_Abort().
  71:./Libraries/STM32F4xx_HAL_Driver/Src/stm32f4xx_hal_dma2d.c **** 
  72:./Libraries/STM32F4xx_HAL_Driver/Src/stm32f4xx_hal_dma2d.c ****       (#) The CLUT loading can be suspended, resumed and aborted using the following
  73:./Libraries/STM32F4xx_HAL_Driver/Src/stm32f4xx_hal_dma2d.c ****           functions: HAL_DMA2D_CLUTLoading_Suspend(), HAL_DMA2D_CLUTLoading_Resume(),
  74:./Libraries/STM32F4xx_HAL_Driver/Src/stm32f4xx_hal_dma2d.c ****           HAL_DMA2D_CLUTLoading_Abort().
  75:./Libraries/STM32F4xx_HAL_Driver/Src/stm32f4xx_hal_dma2d.c **** 
  76:./Libraries/STM32F4xx_HAL_Driver/Src/stm32f4xx_hal_dma2d.c ****       (#) To control the DMA2D state, use the following function: HAL_DMA2D_GetState().
  77:./Libraries/STM32F4xx_HAL_Driver/Src/stm32f4xx_hal_dma2d.c ****       
  78:./Libraries/STM32F4xx_HAL_Driver/Src/stm32f4xx_hal_dma2d.c ****       (#) To read the DMA2D error code, use the following function: HAL_DMA2D_GetError().
  79:./Libraries/STM32F4xx_HAL_Driver/Src/stm32f4xx_hal_dma2d.c **** 
  80:./Libraries/STM32F4xx_HAL_Driver/Src/stm32f4xx_hal_dma2d.c ****      *** DMA2D HAL driver macros list ***
  81:./Libraries/STM32F4xx_HAL_Driver/Src/stm32f4xx_hal_dma2d.c ****      =============================================
  82:./Libraries/STM32F4xx_HAL_Driver/Src/stm32f4xx_hal_dma2d.c ****      [..]
  83:./Libraries/STM32F4xx_HAL_Driver/Src/stm32f4xx_hal_dma2d.c ****        Below the list of most used macros in DMA2D HAL driver :
  84:./Libraries/STM32F4xx_HAL_Driver/Src/stm32f4xx_hal_dma2d.c **** 
  85:./Libraries/STM32F4xx_HAL_Driver/Src/stm32f4xx_hal_dma2d.c ****       (+) __HAL_DMA2D_ENABLE: Enable the DMA2D peripheral.
  86:./Libraries/STM32F4xx_HAL_Driver/Src/stm32f4xx_hal_dma2d.c ****       (+) __HAL_DMA2D_GET_FLAG: Get the DMA2D pending flags.
  87:./Libraries/STM32F4xx_HAL_Driver/Src/stm32f4xx_hal_dma2d.c ****       (+) __HAL_DMA2D_CLEAR_FLAG: Clear the DMA2D pending flags.
ARM GAS  /tmp/ccgPJtk7.s 			page 3


  88:./Libraries/STM32F4xx_HAL_Driver/Src/stm32f4xx_hal_dma2d.c ****       (+) __HAL_DMA2D_ENABLE_IT: Enable the specified DMA2D interrupts.
  89:./Libraries/STM32F4xx_HAL_Driver/Src/stm32f4xx_hal_dma2d.c ****       (+) __HAL_DMA2D_DISABLE_IT: Disable the specified DMA2D interrupts.
  90:./Libraries/STM32F4xx_HAL_Driver/Src/stm32f4xx_hal_dma2d.c ****       (+) __HAL_DMA2D_GET_IT_SOURCE: Check whether the specified DMA2D interrupt is enabled or not
  91:./Libraries/STM32F4xx_HAL_Driver/Src/stm32f4xx_hal_dma2d.c **** 
  92:./Libraries/STM32F4xx_HAL_Driver/Src/stm32f4xx_hal_dma2d.c ****      [..]
  93:./Libraries/STM32F4xx_HAL_Driver/Src/stm32f4xx_hal_dma2d.c ****       (@) You can refer to the DMA2D HAL driver header file for more useful macros
  94:./Libraries/STM32F4xx_HAL_Driver/Src/stm32f4xx_hal_dma2d.c **** 
  95:./Libraries/STM32F4xx_HAL_Driver/Src/stm32f4xx_hal_dma2d.c ****   @endverbatim
  96:./Libraries/STM32F4xx_HAL_Driver/Src/stm32f4xx_hal_dma2d.c ****   ******************************************************************************
  97:./Libraries/STM32F4xx_HAL_Driver/Src/stm32f4xx_hal_dma2d.c ****   * @attention
  98:./Libraries/STM32F4xx_HAL_Driver/Src/stm32f4xx_hal_dma2d.c ****   *
  99:./Libraries/STM32F4xx_HAL_Driver/Src/stm32f4xx_hal_dma2d.c ****   * <h2><center>&copy; COPYRIGHT(c) 2017 STMicroelectronics</center></h2>
 100:./Libraries/STM32F4xx_HAL_Driver/Src/stm32f4xx_hal_dma2d.c ****   *
 101:./Libraries/STM32F4xx_HAL_Driver/Src/stm32f4xx_hal_dma2d.c ****   * Redistribution and use in source and binary forms, with or without modification,
 102:./Libraries/STM32F4xx_HAL_Driver/Src/stm32f4xx_hal_dma2d.c ****   * are permitted provided that the following conditions are met:
 103:./Libraries/STM32F4xx_HAL_Driver/Src/stm32f4xx_hal_dma2d.c ****   *   1. Redistributions of source code must retain the above copyright notice,
 104:./Libraries/STM32F4xx_HAL_Driver/Src/stm32f4xx_hal_dma2d.c ****   *      this list of conditions and the following disclaimer.
 105:./Libraries/STM32F4xx_HAL_Driver/Src/stm32f4xx_hal_dma2d.c ****   *   2. Redistributions in binary form must reproduce the above copyright notice,
 106:./Libraries/STM32F4xx_HAL_Driver/Src/stm32f4xx_hal_dma2d.c ****   *      this list of conditions and the following disclaimer in the documentation
 107:./Libraries/STM32F4xx_HAL_Driver/Src/stm32f4xx_hal_dma2d.c ****   *      and/or other materials provided with the distribution.
 108:./Libraries/STM32F4xx_HAL_Driver/Src/stm32f4xx_hal_dma2d.c ****   *   3. Neither the name of STMicroelectronics nor the names of its contributors
 109:./Libraries/STM32F4xx_HAL_Driver/Src/stm32f4xx_hal_dma2d.c ****   *      may be used to endorse or promote products derived from this software
 110:./Libraries/STM32F4xx_HAL_Driver/Src/stm32f4xx_hal_dma2d.c ****   *      without specific prior written permission.
 111:./Libraries/STM32F4xx_HAL_Driver/Src/stm32f4xx_hal_dma2d.c ****   *
 112:./Libraries/STM32F4xx_HAL_Driver/Src/stm32f4xx_hal_dma2d.c ****   * THIS SOFTWARE IS PROVIDED BY THE COPYRIGHT HOLDERS AND CONTRIBUTORS "AS IS"
 113:./Libraries/STM32F4xx_HAL_Driver/Src/stm32f4xx_hal_dma2d.c ****   * AND ANY EXPRESS OR IMPLIED WARRANTIES, INCLUDING, BUT NOT LIMITED TO, THE
 114:./Libraries/STM32F4xx_HAL_Driver/Src/stm32f4xx_hal_dma2d.c ****   * IMPLIED WARRANTIES OF MERCHANTABILITY AND FITNESS FOR A PARTICULAR PURPOSE ARE
 115:./Libraries/STM32F4xx_HAL_Driver/Src/stm32f4xx_hal_dma2d.c ****   * DISCLAIMED. IN NO EVENT SHALL THE COPYRIGHT HOLDER OR CONTRIBUTORS BE LIABLE
 116:./Libraries/STM32F4xx_HAL_Driver/Src/stm32f4xx_hal_dma2d.c ****   * FOR ANY DIRECT, INDIRECT, INCIDENTAL, SPECIAL, EXEMPLARY, OR CONSEQUENTIAL
 117:./Libraries/STM32F4xx_HAL_Driver/Src/stm32f4xx_hal_dma2d.c ****   * DAMAGES (INCLUDING, BUT NOT LIMITED TO, PROCUREMENT OF SUBSTITUTE GOODS OR
 118:./Libraries/STM32F4xx_HAL_Driver/Src/stm32f4xx_hal_dma2d.c ****   * SERVICES; LOSS OF USE, DATA, OR PROFITS; OR BUSINESS INTERRUPTION) HOWEVER
 119:./Libraries/STM32F4xx_HAL_Driver/Src/stm32f4xx_hal_dma2d.c ****   * CAUSED AND ON ANY THEORY OF LIABILITY, WHETHER IN CONTRACT, STRICT LIABILITY,
 120:./Libraries/STM32F4xx_HAL_Driver/Src/stm32f4xx_hal_dma2d.c ****   * OR TORT (INCLUDING NEGLIGENCE OR OTHERWISE) ARISING IN ANY WAY OUT OF THE USE
 121:./Libraries/STM32F4xx_HAL_Driver/Src/stm32f4xx_hal_dma2d.c ****   * OF THIS SOFTWARE, EVEN IF ADVISED OF THE POSSIBILITY OF SUCH DAMAGE.
 122:./Libraries/STM32F4xx_HAL_Driver/Src/stm32f4xx_hal_dma2d.c ****   *
 123:./Libraries/STM32F4xx_HAL_Driver/Src/stm32f4xx_hal_dma2d.c ****   ******************************************************************************
 124:./Libraries/STM32F4xx_HAL_Driver/Src/stm32f4xx_hal_dma2d.c ****   */
 125:./Libraries/STM32F4xx_HAL_Driver/Src/stm32f4xx_hal_dma2d.c **** 
 126:./Libraries/STM32F4xx_HAL_Driver/Src/stm32f4xx_hal_dma2d.c **** /* Includes ------------------------------------------------------------------*/
 127:./Libraries/STM32F4xx_HAL_Driver/Src/stm32f4xx_hal_dma2d.c **** #include "stm32f4xx_hal.h"
 128:./Libraries/STM32F4xx_HAL_Driver/Src/stm32f4xx_hal_dma2d.c **** 
 129:./Libraries/STM32F4xx_HAL_Driver/Src/stm32f4xx_hal_dma2d.c **** /** @addtogroup STM32F4xx_HAL_Driver
 130:./Libraries/STM32F4xx_HAL_Driver/Src/stm32f4xx_hal_dma2d.c ****   * @{
 131:./Libraries/STM32F4xx_HAL_Driver/Src/stm32f4xx_hal_dma2d.c ****   */
 132:./Libraries/STM32F4xx_HAL_Driver/Src/stm32f4xx_hal_dma2d.c **** 
 133:./Libraries/STM32F4xx_HAL_Driver/Src/stm32f4xx_hal_dma2d.c **** /** @defgroup DMA2D  DMA2D
 134:./Libraries/STM32F4xx_HAL_Driver/Src/stm32f4xx_hal_dma2d.c ****   * @brief DMA2D HAL module driver
 135:./Libraries/STM32F4xx_HAL_Driver/Src/stm32f4xx_hal_dma2d.c ****   * @{
 136:./Libraries/STM32F4xx_HAL_Driver/Src/stm32f4xx_hal_dma2d.c ****   */
 137:./Libraries/STM32F4xx_HAL_Driver/Src/stm32f4xx_hal_dma2d.c **** 
 138:./Libraries/STM32F4xx_HAL_Driver/Src/stm32f4xx_hal_dma2d.c **** #ifdef HAL_DMA2D_MODULE_ENABLED
 139:./Libraries/STM32F4xx_HAL_Driver/Src/stm32f4xx_hal_dma2d.c **** 
 140:./Libraries/STM32F4xx_HAL_Driver/Src/stm32f4xx_hal_dma2d.c **** #if defined(STM32F427xx) || defined(STM32F437xx) || defined(STM32F429xx) || defined(STM32F439xx) ||
 141:./Libraries/STM32F4xx_HAL_Driver/Src/stm32f4xx_hal_dma2d.c **** 
 142:./Libraries/STM32F4xx_HAL_Driver/Src/stm32f4xx_hal_dma2d.c **** /* Private types -------------------------------------------------------------*/
 143:./Libraries/STM32F4xx_HAL_Driver/Src/stm32f4xx_hal_dma2d.c **** /* Private define ------------------------------------------------------------*/
 144:./Libraries/STM32F4xx_HAL_Driver/Src/stm32f4xx_hal_dma2d.c **** /** @defgroup DMA2D_Private_Constants DMA2D Private Constants
ARM GAS  /tmp/ccgPJtk7.s 			page 4


 145:./Libraries/STM32F4xx_HAL_Driver/Src/stm32f4xx_hal_dma2d.c ****   * @{
 146:./Libraries/STM32F4xx_HAL_Driver/Src/stm32f4xx_hal_dma2d.c ****   */
 147:./Libraries/STM32F4xx_HAL_Driver/Src/stm32f4xx_hal_dma2d.c **** 
 148:./Libraries/STM32F4xx_HAL_Driver/Src/stm32f4xx_hal_dma2d.c **** /** @defgroup DMA2D_TimeOut DMA2D Time Out
 149:./Libraries/STM32F4xx_HAL_Driver/Src/stm32f4xx_hal_dma2d.c ****   * @{
 150:./Libraries/STM32F4xx_HAL_Driver/Src/stm32f4xx_hal_dma2d.c ****   */
 151:./Libraries/STM32F4xx_HAL_Driver/Src/stm32f4xx_hal_dma2d.c **** #define DMA2D_TIMEOUT_ABORT           1000U  /*!<  1s  */
 152:./Libraries/STM32F4xx_HAL_Driver/Src/stm32f4xx_hal_dma2d.c **** #define DMA2D_TIMEOUT_SUSPEND         1000U  /*!<  1s  */
 153:./Libraries/STM32F4xx_HAL_Driver/Src/stm32f4xx_hal_dma2d.c **** /**
 154:./Libraries/STM32F4xx_HAL_Driver/Src/stm32f4xx_hal_dma2d.c ****   * @}
 155:./Libraries/STM32F4xx_HAL_Driver/Src/stm32f4xx_hal_dma2d.c ****   */
 156:./Libraries/STM32F4xx_HAL_Driver/Src/stm32f4xx_hal_dma2d.c **** 
 157:./Libraries/STM32F4xx_HAL_Driver/Src/stm32f4xx_hal_dma2d.c **** /** @defgroup DMA2D_Shifts DMA2D Shifts
 158:./Libraries/STM32F4xx_HAL_Driver/Src/stm32f4xx_hal_dma2d.c ****   * @{
 159:./Libraries/STM32F4xx_HAL_Driver/Src/stm32f4xx_hal_dma2d.c ****   */
 160:./Libraries/STM32F4xx_HAL_Driver/Src/stm32f4xx_hal_dma2d.c **** #define DMA2D_POSITION_FGPFCCR_CS     (uint32_t)DMA2D_FGPFCCR_CS_Pos    /*!< Required left shift to
 161:./Libraries/STM32F4xx_HAL_Driver/Src/stm32f4xx_hal_dma2d.c **** #define DMA2D_POSITION_BGPFCCR_CS     (uint32_t)DMA2D_BGPFCCR_CS_Pos    /*!< Required left shift to
 162:./Libraries/STM32F4xx_HAL_Driver/Src/stm32f4xx_hal_dma2d.c **** 
 163:./Libraries/STM32F4xx_HAL_Driver/Src/stm32f4xx_hal_dma2d.c **** #define DMA2D_POSITION_FGPFCCR_CCM    (uint32_t)DMA2D_FGPFCCR_CCM_Pos   /*!< Required left shift to
 164:./Libraries/STM32F4xx_HAL_Driver/Src/stm32f4xx_hal_dma2d.c **** #define DMA2D_POSITION_BGPFCCR_CCM    (uint32_t)DMA2D_BGPFCCR_CCM_Pos   /*!< Required left shift to
 165:./Libraries/STM32F4xx_HAL_Driver/Src/stm32f4xx_hal_dma2d.c **** 
 166:./Libraries/STM32F4xx_HAL_Driver/Src/stm32f4xx_hal_dma2d.c **** #define DMA2D_POSITION_AMTCR_DT       (uint32_t)DMA2D_AMTCR_DT_Pos      /*!< Required left shift to
 167:./Libraries/STM32F4xx_HAL_Driver/Src/stm32f4xx_hal_dma2d.c **** 
 168:./Libraries/STM32F4xx_HAL_Driver/Src/stm32f4xx_hal_dma2d.c **** #define DMA2D_POSITION_FGPFCCR_AM     (uint32_t)DMA2D_FGPFCCR_AM_Pos    /*!< Required left shift to
 169:./Libraries/STM32F4xx_HAL_Driver/Src/stm32f4xx_hal_dma2d.c **** #define DMA2D_POSITION_BGPFCCR_AM     (uint32_t)DMA2D_BGPFCCR_AM_Pos    /*!< Required left shift to
 170:./Libraries/STM32F4xx_HAL_Driver/Src/stm32f4xx_hal_dma2d.c **** 
 171:./Libraries/STM32F4xx_HAL_Driver/Src/stm32f4xx_hal_dma2d.c **** #define DMA2D_POSITION_FGPFCCR_ALPHA  (uint32_t)DMA2D_FGPFCCR_ALPHA_Pos /*!< Required left shift to
 172:./Libraries/STM32F4xx_HAL_Driver/Src/stm32f4xx_hal_dma2d.c **** #define DMA2D_POSITION_BGPFCCR_ALPHA  (uint32_t)DMA2D_BGPFCCR_ALPHA_Pos /*!< Required left shift to
 173:./Libraries/STM32F4xx_HAL_Driver/Src/stm32f4xx_hal_dma2d.c **** 
 174:./Libraries/STM32F4xx_HAL_Driver/Src/stm32f4xx_hal_dma2d.c **** #define DMA2D_POSITION_NLR_PL         (uint32_t)DMA2D_NLR_PL_Pos        /*!< Required left shift to
 175:./Libraries/STM32F4xx_HAL_Driver/Src/stm32f4xx_hal_dma2d.c **** /**
 176:./Libraries/STM32F4xx_HAL_Driver/Src/stm32f4xx_hal_dma2d.c ****   * @}
 177:./Libraries/STM32F4xx_HAL_Driver/Src/stm32f4xx_hal_dma2d.c ****   */
 178:./Libraries/STM32F4xx_HAL_Driver/Src/stm32f4xx_hal_dma2d.c **** 
 179:./Libraries/STM32F4xx_HAL_Driver/Src/stm32f4xx_hal_dma2d.c **** /**
 180:./Libraries/STM32F4xx_HAL_Driver/Src/stm32f4xx_hal_dma2d.c ****   * @}
 181:./Libraries/STM32F4xx_HAL_Driver/Src/stm32f4xx_hal_dma2d.c ****   */
 182:./Libraries/STM32F4xx_HAL_Driver/Src/stm32f4xx_hal_dma2d.c **** 
 183:./Libraries/STM32F4xx_HAL_Driver/Src/stm32f4xx_hal_dma2d.c **** /* Private variables ---------------------------------------------------------*/
 184:./Libraries/STM32F4xx_HAL_Driver/Src/stm32f4xx_hal_dma2d.c **** /* Private constants ---------------------------------------------------------*/
 185:./Libraries/STM32F4xx_HAL_Driver/Src/stm32f4xx_hal_dma2d.c **** /* Private macro -------------------------------------------------------------*/
 186:./Libraries/STM32F4xx_HAL_Driver/Src/stm32f4xx_hal_dma2d.c **** /* Private function prototypes -----------------------------------------------*/
 187:./Libraries/STM32F4xx_HAL_Driver/Src/stm32f4xx_hal_dma2d.c **** /** @addtogroup DMA2D_Private_Functions_Prototypes
 188:./Libraries/STM32F4xx_HAL_Driver/Src/stm32f4xx_hal_dma2d.c ****   * @{
 189:./Libraries/STM32F4xx_HAL_Driver/Src/stm32f4xx_hal_dma2d.c ****   */
 190:./Libraries/STM32F4xx_HAL_Driver/Src/stm32f4xx_hal_dma2d.c **** static void DMA2D_SetConfig(DMA2D_HandleTypeDef *hdma2d, uint32_t pdata, uint32_t DstAddress, uint3
 191:./Libraries/STM32F4xx_HAL_Driver/Src/stm32f4xx_hal_dma2d.c **** /**
 192:./Libraries/STM32F4xx_HAL_Driver/Src/stm32f4xx_hal_dma2d.c ****   * @}
 193:./Libraries/STM32F4xx_HAL_Driver/Src/stm32f4xx_hal_dma2d.c ****   */
 194:./Libraries/STM32F4xx_HAL_Driver/Src/stm32f4xx_hal_dma2d.c **** 
 195:./Libraries/STM32F4xx_HAL_Driver/Src/stm32f4xx_hal_dma2d.c **** /* Private functions ---------------------------------------------------------*/
 196:./Libraries/STM32F4xx_HAL_Driver/Src/stm32f4xx_hal_dma2d.c **** /* Exported functions --------------------------------------------------------*/
 197:./Libraries/STM32F4xx_HAL_Driver/Src/stm32f4xx_hal_dma2d.c **** /** @defgroup DMA2D_Exported_Functions DMA2D Exported Functions
 198:./Libraries/STM32F4xx_HAL_Driver/Src/stm32f4xx_hal_dma2d.c ****   * @{
 199:./Libraries/STM32F4xx_HAL_Driver/Src/stm32f4xx_hal_dma2d.c ****   */
 200:./Libraries/STM32F4xx_HAL_Driver/Src/stm32f4xx_hal_dma2d.c **** 
 201:./Libraries/STM32F4xx_HAL_Driver/Src/stm32f4xx_hal_dma2d.c **** /** @defgroup DMA2D_Exported_Functions_Group1 Initialization and de-initialization functions
ARM GAS  /tmp/ccgPJtk7.s 			page 5


 202:./Libraries/STM32F4xx_HAL_Driver/Src/stm32f4xx_hal_dma2d.c ****  *  @brief   Initialization and Configuration functions
 203:./Libraries/STM32F4xx_HAL_Driver/Src/stm32f4xx_hal_dma2d.c ****  *
 204:./Libraries/STM32F4xx_HAL_Driver/Src/stm32f4xx_hal_dma2d.c **** @verbatim
 205:./Libraries/STM32F4xx_HAL_Driver/Src/stm32f4xx_hal_dma2d.c ****  ===============================================================================
 206:./Libraries/STM32F4xx_HAL_Driver/Src/stm32f4xx_hal_dma2d.c ****                 ##### Initialization and Configuration functions #####
 207:./Libraries/STM32F4xx_HAL_Driver/Src/stm32f4xx_hal_dma2d.c ****  ===============================================================================
 208:./Libraries/STM32F4xx_HAL_Driver/Src/stm32f4xx_hal_dma2d.c ****     [..]  This section provides functions allowing to:
 209:./Libraries/STM32F4xx_HAL_Driver/Src/stm32f4xx_hal_dma2d.c ****       (+) Initialize and configure the DMA2D
 210:./Libraries/STM32F4xx_HAL_Driver/Src/stm32f4xx_hal_dma2d.c ****       (+) De-initialize the DMA2D
 211:./Libraries/STM32F4xx_HAL_Driver/Src/stm32f4xx_hal_dma2d.c **** 
 212:./Libraries/STM32F4xx_HAL_Driver/Src/stm32f4xx_hal_dma2d.c **** @endverbatim
 213:./Libraries/STM32F4xx_HAL_Driver/Src/stm32f4xx_hal_dma2d.c ****   * @{
 214:./Libraries/STM32F4xx_HAL_Driver/Src/stm32f4xx_hal_dma2d.c ****   */
 215:./Libraries/STM32F4xx_HAL_Driver/Src/stm32f4xx_hal_dma2d.c **** 
 216:./Libraries/STM32F4xx_HAL_Driver/Src/stm32f4xx_hal_dma2d.c **** /**
 217:./Libraries/STM32F4xx_HAL_Driver/Src/stm32f4xx_hal_dma2d.c ****   * @brief  Initialize the DMA2D according to the specified
 218:./Libraries/STM32F4xx_HAL_Driver/Src/stm32f4xx_hal_dma2d.c ****   *         parameters in the DMA2D_InitTypeDef and create the associated handle.
 219:./Libraries/STM32F4xx_HAL_Driver/Src/stm32f4xx_hal_dma2d.c ****   * @param  hdma2d pointer to a DMA2D_HandleTypeDef structure that contains
 220:./Libraries/STM32F4xx_HAL_Driver/Src/stm32f4xx_hal_dma2d.c ****   *                 the configuration information for the DMA2D.
 221:./Libraries/STM32F4xx_HAL_Driver/Src/stm32f4xx_hal_dma2d.c ****   * @retval HAL status
 222:./Libraries/STM32F4xx_HAL_Driver/Src/stm32f4xx_hal_dma2d.c ****   */
 223:./Libraries/STM32F4xx_HAL_Driver/Src/stm32f4xx_hal_dma2d.c **** HAL_StatusTypeDef HAL_DMA2D_Init(DMA2D_HandleTypeDef *hdma2d)
 224:./Libraries/STM32F4xx_HAL_Driver/Src/stm32f4xx_hal_dma2d.c **** {
  29              		.loc 1 224 1
  30              		.cfi_startproc
  31              		@ args = 0, pretend = 0, frame = 8
  32              		@ frame_needed = 1, uses_anonymous_args = 0
  33 0000 80B5     		push	{r7, lr}
  34              	.LCFI0:
  35              		.cfi_def_cfa_offset 8
  36              		.cfi_offset 7, -8
  37              		.cfi_offset 14, -4
  38 0002 82B0     		sub	sp, sp, #8
  39              	.LCFI1:
  40              		.cfi_def_cfa_offset 16
  41 0004 00AF     		add	r7, sp, #0
  42              	.LCFI2:
  43              		.cfi_def_cfa_register 7
  44 0006 7860     		str	r0, [r7, #4]
 225:./Libraries/STM32F4xx_HAL_Driver/Src/stm32f4xx_hal_dma2d.c ****   /* Check the DMA2D peripheral state */
 226:./Libraries/STM32F4xx_HAL_Driver/Src/stm32f4xx_hal_dma2d.c ****   if(hdma2d == NULL)
  45              		.loc 1 226 5
  46 0008 7B68     		ldr	r3, [r7, #4]
  47 000a 002B     		cmp	r3, #0
  48 000c 01D1     		bne	.L2
 227:./Libraries/STM32F4xx_HAL_Driver/Src/stm32f4xx_hal_dma2d.c ****   {
 228:./Libraries/STM32F4xx_HAL_Driver/Src/stm32f4xx_hal_dma2d.c ****      return HAL_ERROR;
  49              		.loc 1 228 13
  50 000e 0123     		movs	r3, #1
  51 0010 3BE0     		b	.L3
  52              	.L2:
 229:./Libraries/STM32F4xx_HAL_Driver/Src/stm32f4xx_hal_dma2d.c ****   }
 230:./Libraries/STM32F4xx_HAL_Driver/Src/stm32f4xx_hal_dma2d.c **** 
 231:./Libraries/STM32F4xx_HAL_Driver/Src/stm32f4xx_hal_dma2d.c ****   /* Check the parameters */
 232:./Libraries/STM32F4xx_HAL_Driver/Src/stm32f4xx_hal_dma2d.c ****   assert_param(IS_DMA2D_ALL_INSTANCE(hdma2d->Instance));
 233:./Libraries/STM32F4xx_HAL_Driver/Src/stm32f4xx_hal_dma2d.c ****   assert_param(IS_DMA2D_MODE(hdma2d->Init.Mode));
 234:./Libraries/STM32F4xx_HAL_Driver/Src/stm32f4xx_hal_dma2d.c ****   assert_param(IS_DMA2D_CMODE(hdma2d->Init.ColorMode));
ARM GAS  /tmp/ccgPJtk7.s 			page 6


 235:./Libraries/STM32F4xx_HAL_Driver/Src/stm32f4xx_hal_dma2d.c ****   assert_param(IS_DMA2D_OFFSET(hdma2d->Init.OutputOffset));
 236:./Libraries/STM32F4xx_HAL_Driver/Src/stm32f4xx_hal_dma2d.c **** 
 237:./Libraries/STM32F4xx_HAL_Driver/Src/stm32f4xx_hal_dma2d.c ****   if(hdma2d->State == HAL_DMA2D_STATE_RESET)
  53              		.loc 1 237 12
  54 0012 7B68     		ldr	r3, [r7, #4]
  55 0014 93F83930 		ldrb	r3, [r3, #57]
  56 0018 DBB2     		uxtb	r3, r3
  57              		.loc 1 237 5
  58 001a 002B     		cmp	r3, #0
  59 001c 06D1     		bne	.L4
 238:./Libraries/STM32F4xx_HAL_Driver/Src/stm32f4xx_hal_dma2d.c ****   {
 239:./Libraries/STM32F4xx_HAL_Driver/Src/stm32f4xx_hal_dma2d.c ****     /* Allocate lock resource and initialize it */
 240:./Libraries/STM32F4xx_HAL_Driver/Src/stm32f4xx_hal_dma2d.c ****     hdma2d->Lock = HAL_UNLOCKED;
  60              		.loc 1 240 18
  61 001e 7B68     		ldr	r3, [r7, #4]
  62 0020 0022     		movs	r2, #0
  63 0022 83F83820 		strb	r2, [r3, #56]
 241:./Libraries/STM32F4xx_HAL_Driver/Src/stm32f4xx_hal_dma2d.c ****     /* Init the low level hardware */
 242:./Libraries/STM32F4xx_HAL_Driver/Src/stm32f4xx_hal_dma2d.c ****     HAL_DMA2D_MspInit(hdma2d);
  64              		.loc 1 242 5
  65 0026 7868     		ldr	r0, [r7, #4]
  66 0028 FFF7FEFF 		bl	HAL_DMA2D_MspInit
  67              	.L4:
 243:./Libraries/STM32F4xx_HAL_Driver/Src/stm32f4xx_hal_dma2d.c ****   }
 244:./Libraries/STM32F4xx_HAL_Driver/Src/stm32f4xx_hal_dma2d.c **** 
 245:./Libraries/STM32F4xx_HAL_Driver/Src/stm32f4xx_hal_dma2d.c ****   /* Change DMA2D peripheral state */
 246:./Libraries/STM32F4xx_HAL_Driver/Src/stm32f4xx_hal_dma2d.c ****   hdma2d->State = HAL_DMA2D_STATE_BUSY;
  68              		.loc 1 246 17
  69 002c 7B68     		ldr	r3, [r7, #4]
  70 002e 0222     		movs	r2, #2
  71 0030 83F83920 		strb	r2, [r3, #57]
 247:./Libraries/STM32F4xx_HAL_Driver/Src/stm32f4xx_hal_dma2d.c **** 
 248:./Libraries/STM32F4xx_HAL_Driver/Src/stm32f4xx_hal_dma2d.c ****   /* DMA2D CR register configuration -------------------------------------------*/
 249:./Libraries/STM32F4xx_HAL_Driver/Src/stm32f4xx_hal_dma2d.c ****   MODIFY_REG(hdma2d->Instance->CR, DMA2D_CR_MODE, hdma2d->Init.Mode);
  72              		.loc 1 249 3
  73 0034 7B68     		ldr	r3, [r7, #4]
  74 0036 1B68     		ldr	r3, [r3]
  75 0038 1B68     		ldr	r3, [r3]
  76 003a 23F44031 		bic	r1, r3, #196608
  77 003e 7B68     		ldr	r3, [r7, #4]
  78 0040 5A68     		ldr	r2, [r3, #4]
  79 0042 7B68     		ldr	r3, [r7, #4]
  80 0044 1B68     		ldr	r3, [r3]
  81 0046 0A43     		orrs	r2, r2, r1
  82 0048 1A60     		str	r2, [r3]
 250:./Libraries/STM32F4xx_HAL_Driver/Src/stm32f4xx_hal_dma2d.c **** 
 251:./Libraries/STM32F4xx_HAL_Driver/Src/stm32f4xx_hal_dma2d.c ****   /* DMA2D OPFCCR register configuration ---------------------------------------*/
 252:./Libraries/STM32F4xx_HAL_Driver/Src/stm32f4xx_hal_dma2d.c ****   MODIFY_REG(hdma2d->Instance->OPFCCR, DMA2D_OPFCCR_CM, hdma2d->Init.ColorMode);
  83              		.loc 1 252 3
  84 004a 7B68     		ldr	r3, [r7, #4]
  85 004c 1B68     		ldr	r3, [r3]
  86 004e 5B6B     		ldr	r3, [r3, #52]
  87 0050 23F00701 		bic	r1, r3, #7
  88 0054 7B68     		ldr	r3, [r7, #4]
  89 0056 9A68     		ldr	r2, [r3, #8]
  90 0058 7B68     		ldr	r3, [r7, #4]
  91 005a 1B68     		ldr	r3, [r3]
ARM GAS  /tmp/ccgPJtk7.s 			page 7


  92 005c 0A43     		orrs	r2, r2, r1
  93 005e 5A63     		str	r2, [r3, #52]
 253:./Libraries/STM32F4xx_HAL_Driver/Src/stm32f4xx_hal_dma2d.c **** 
 254:./Libraries/STM32F4xx_HAL_Driver/Src/stm32f4xx_hal_dma2d.c ****   /* DMA2D OOR register configuration ------------------------------------------*/
 255:./Libraries/STM32F4xx_HAL_Driver/Src/stm32f4xx_hal_dma2d.c ****   MODIFY_REG(hdma2d->Instance->OOR, DMA2D_OOR_LO, hdma2d->Init.OutputOffset);  
  94              		.loc 1 255 3
  95 0060 7B68     		ldr	r3, [r7, #4]
  96 0062 1B68     		ldr	r3, [r3]
  97 0064 1B6C     		ldr	r3, [r3, #64]
  98 0066 23F47F53 		bic	r3, r3, #16320
  99 006a 23F03F03 		bic	r3, r3, #63
 100 006e 7A68     		ldr	r2, [r7, #4]
 101 0070 D168     		ldr	r1, [r2, #12]
 102 0072 7A68     		ldr	r2, [r7, #4]
 103 0074 1268     		ldr	r2, [r2]
 104 0076 0B43     		orrs	r3, r3, r1
 105 0078 1364     		str	r3, [r2, #64]
 256:./Libraries/STM32F4xx_HAL_Driver/Src/stm32f4xx_hal_dma2d.c **** 
 257:./Libraries/STM32F4xx_HAL_Driver/Src/stm32f4xx_hal_dma2d.c ****   /* Update error code */
 258:./Libraries/STM32F4xx_HAL_Driver/Src/stm32f4xx_hal_dma2d.c ****   hdma2d->ErrorCode = HAL_DMA2D_ERROR_NONE;
 106              		.loc 1 258 21
 107 007a 7B68     		ldr	r3, [r7, #4]
 108 007c 0022     		movs	r2, #0
 109 007e DA63     		str	r2, [r3, #60]
 259:./Libraries/STM32F4xx_HAL_Driver/Src/stm32f4xx_hal_dma2d.c **** 
 260:./Libraries/STM32F4xx_HAL_Driver/Src/stm32f4xx_hal_dma2d.c ****   /* Initialize the DMA2D state*/
 261:./Libraries/STM32F4xx_HAL_Driver/Src/stm32f4xx_hal_dma2d.c ****   hdma2d->State  = HAL_DMA2D_STATE_READY;
 110              		.loc 1 261 18
 111 0080 7B68     		ldr	r3, [r7, #4]
 112 0082 0122     		movs	r2, #1
 113 0084 83F83920 		strb	r2, [r3, #57]
 262:./Libraries/STM32F4xx_HAL_Driver/Src/stm32f4xx_hal_dma2d.c **** 
 263:./Libraries/STM32F4xx_HAL_Driver/Src/stm32f4xx_hal_dma2d.c ****   return HAL_OK;
 114              		.loc 1 263 10
 115 0088 0023     		movs	r3, #0
 116              	.L3:
 264:./Libraries/STM32F4xx_HAL_Driver/Src/stm32f4xx_hal_dma2d.c **** }
 117              		.loc 1 264 1
 118 008a 1846     		mov	r0, r3
 119 008c 0837     		adds	r7, r7, #8
 120              	.LCFI3:
 121              		.cfi_def_cfa_offset 8
 122 008e BD46     		mov	sp, r7
 123              	.LCFI4:
 124              		.cfi_def_cfa_register 13
 125              		@ sp needed
 126 0090 80BD     		pop	{r7, pc}
 127              		.cfi_endproc
 128              	.LFE126:
 130              		.section	.text.HAL_DMA2D_DeInit,"ax",%progbits
 131              		.align	1
 132              		.global	HAL_DMA2D_DeInit
 133              		.syntax unified
 134              		.thumb
 135              		.thumb_func
 136              		.fpu fpv4-sp-d16
 138              	HAL_DMA2D_DeInit:
ARM GAS  /tmp/ccgPJtk7.s 			page 8


 139              	.LFB127:
 265:./Libraries/STM32F4xx_HAL_Driver/Src/stm32f4xx_hal_dma2d.c **** 
 266:./Libraries/STM32F4xx_HAL_Driver/Src/stm32f4xx_hal_dma2d.c **** /**
 267:./Libraries/STM32F4xx_HAL_Driver/Src/stm32f4xx_hal_dma2d.c ****   * @brief  Deinitializes the DMA2D peripheral registers to their default reset
 268:./Libraries/STM32F4xx_HAL_Driver/Src/stm32f4xx_hal_dma2d.c ****   *         values.
 269:./Libraries/STM32F4xx_HAL_Driver/Src/stm32f4xx_hal_dma2d.c ****   * @param  hdma2d pointer to a DMA2D_HandleTypeDef structure that contains
 270:./Libraries/STM32F4xx_HAL_Driver/Src/stm32f4xx_hal_dma2d.c ****   *                 the configuration information for the DMA2D.
 271:./Libraries/STM32F4xx_HAL_Driver/Src/stm32f4xx_hal_dma2d.c ****   * @retval None
 272:./Libraries/STM32F4xx_HAL_Driver/Src/stm32f4xx_hal_dma2d.c ****   */
 273:./Libraries/STM32F4xx_HAL_Driver/Src/stm32f4xx_hal_dma2d.c **** 
 274:./Libraries/STM32F4xx_HAL_Driver/Src/stm32f4xx_hal_dma2d.c **** HAL_StatusTypeDef HAL_DMA2D_DeInit(DMA2D_HandleTypeDef *hdma2d)
 275:./Libraries/STM32F4xx_HAL_Driver/Src/stm32f4xx_hal_dma2d.c **** {
 140              		.loc 1 275 1
 141              		.cfi_startproc
 142              		@ args = 0, pretend = 0, frame = 8
 143              		@ frame_needed = 1, uses_anonymous_args = 0
 144 0000 80B5     		push	{r7, lr}
 145              	.LCFI5:
 146              		.cfi_def_cfa_offset 8
 147              		.cfi_offset 7, -8
 148              		.cfi_offset 14, -4
 149 0002 82B0     		sub	sp, sp, #8
 150              	.LCFI6:
 151              		.cfi_def_cfa_offset 16
 152 0004 00AF     		add	r7, sp, #0
 153              	.LCFI7:
 154              		.cfi_def_cfa_register 7
 155 0006 7860     		str	r0, [r7, #4]
 276:./Libraries/STM32F4xx_HAL_Driver/Src/stm32f4xx_hal_dma2d.c ****   /* Check the DMA2D peripheral state */
 277:./Libraries/STM32F4xx_HAL_Driver/Src/stm32f4xx_hal_dma2d.c ****   if(hdma2d == NULL)
 156              		.loc 1 277 5
 157 0008 7B68     		ldr	r3, [r7, #4]
 158 000a 002B     		cmp	r3, #0
 159 000c 01D1     		bne	.L6
 278:./Libraries/STM32F4xx_HAL_Driver/Src/stm32f4xx_hal_dma2d.c ****   {
 279:./Libraries/STM32F4xx_HAL_Driver/Src/stm32f4xx_hal_dma2d.c ****      return HAL_ERROR;
 160              		.loc 1 279 13
 161 000e 0123     		movs	r3, #1
 162 0010 5BE0     		b	.L7
 163              	.L6:
 280:./Libraries/STM32F4xx_HAL_Driver/Src/stm32f4xx_hal_dma2d.c ****   }
 281:./Libraries/STM32F4xx_HAL_Driver/Src/stm32f4xx_hal_dma2d.c **** 
 282:./Libraries/STM32F4xx_HAL_Driver/Src/stm32f4xx_hal_dma2d.c ****   /* Before aborting any DMA2D transfer or CLUT loading, check
 283:./Libraries/STM32F4xx_HAL_Driver/Src/stm32f4xx_hal_dma2d.c ****      first whether or not DMA2D clock is enabled */
 284:./Libraries/STM32F4xx_HAL_Driver/Src/stm32f4xx_hal_dma2d.c ****   if (__HAL_RCC_DMA2D_IS_CLK_ENABLED())
 164              		.loc 1 284 7
 165 0012 304B     		ldr	r3, .L11
 166 0014 1B6B     		ldr	r3, [r3, #48]
 167 0016 03F40003 		and	r3, r3, #8388608
 168              		.loc 1 284 6
 169 001a 002B     		cmp	r3, #0
 170 001c 2ED0     		beq	.L8
 285:./Libraries/STM32F4xx_HAL_Driver/Src/stm32f4xx_hal_dma2d.c ****   {
 286:./Libraries/STM32F4xx_HAL_Driver/Src/stm32f4xx_hal_dma2d.c ****     /* Abort DMA2D transfer if any */
 287:./Libraries/STM32F4xx_HAL_Driver/Src/stm32f4xx_hal_dma2d.c ****     if ((hdma2d->Instance->CR & DMA2D_CR_START) == DMA2D_CR_START)
 171              		.loc 1 287 16
 172 001e 7B68     		ldr	r3, [r7, #4]
ARM GAS  /tmp/ccgPJtk7.s 			page 9


 173 0020 1B68     		ldr	r3, [r3]
 174              		.loc 1 287 26
 175 0022 1B68     		ldr	r3, [r3]
 176              		.loc 1 287 31
 177 0024 03F00103 		and	r3, r3, #1
 178              		.loc 1 287 8
 179 0028 012B     		cmp	r3, #1
 180 002a 07D1     		bne	.L9
 288:./Libraries/STM32F4xx_HAL_Driver/Src/stm32f4xx_hal_dma2d.c ****     {
 289:./Libraries/STM32F4xx_HAL_Driver/Src/stm32f4xx_hal_dma2d.c ****       if (HAL_DMA2D_Abort(hdma2d) != HAL_OK)
 181              		.loc 1 289 11
 182 002c 7868     		ldr	r0, [r7, #4]
 183 002e FFF7FEFF 		bl	HAL_DMA2D_Abort
 184 0032 0346     		mov	r3, r0
 185              		.loc 1 289 10
 186 0034 002B     		cmp	r3, #0
 187 0036 21D0     		beq	.L8
 290:./Libraries/STM32F4xx_HAL_Driver/Src/stm32f4xx_hal_dma2d.c ****       {
 291:./Libraries/STM32F4xx_HAL_Driver/Src/stm32f4xx_hal_dma2d.c ****         /* Issue when aborting DMA2D transfer */
 292:./Libraries/STM32F4xx_HAL_Driver/Src/stm32f4xx_hal_dma2d.c ****         return HAL_ERROR;
 188              		.loc 1 292 16
 189 0038 0123     		movs	r3, #1
 190 003a 46E0     		b	.L7
 191              	.L9:
 293:./Libraries/STM32F4xx_HAL_Driver/Src/stm32f4xx_hal_dma2d.c ****       }
 294:./Libraries/STM32F4xx_HAL_Driver/Src/stm32f4xx_hal_dma2d.c ****     }
 295:./Libraries/STM32F4xx_HAL_Driver/Src/stm32f4xx_hal_dma2d.c ****     else
 296:./Libraries/STM32F4xx_HAL_Driver/Src/stm32f4xx_hal_dma2d.c ****     {
 297:./Libraries/STM32F4xx_HAL_Driver/Src/stm32f4xx_hal_dma2d.c ****       /* Abort background CLUT loading if any */
 298:./Libraries/STM32F4xx_HAL_Driver/Src/stm32f4xx_hal_dma2d.c ****       if ((hdma2d->Instance->BGPFCCR & DMA2D_BGPFCCR_START) == DMA2D_BGPFCCR_START)
 192              		.loc 1 298 18
 193 003c 7B68     		ldr	r3, [r7, #4]
 194 003e 1B68     		ldr	r3, [r3]
 195              		.loc 1 298 28
 196 0040 5B6A     		ldr	r3, [r3, #36]
 197              		.loc 1 298 38
 198 0042 03F02003 		and	r3, r3, #32
 199              		.loc 1 298 10
 200 0046 202B     		cmp	r3, #32
 201 0048 08D1     		bne	.L10
 299:./Libraries/STM32F4xx_HAL_Driver/Src/stm32f4xx_hal_dma2d.c ****       {
 300:./Libraries/STM32F4xx_HAL_Driver/Src/stm32f4xx_hal_dma2d.c ****         if (HAL_DMA2D_CLUTLoading_Abort(hdma2d, 0U) != HAL_OK)
 202              		.loc 1 300 13
 203 004a 0021     		movs	r1, #0
 204 004c 7868     		ldr	r0, [r7, #4]
 205 004e FFF7FEFF 		bl	HAL_DMA2D_CLUTLoading_Abort
 206 0052 0346     		mov	r3, r0
 207              		.loc 1 300 12
 208 0054 002B     		cmp	r3, #0
 209 0056 11D0     		beq	.L8
 301:./Libraries/STM32F4xx_HAL_Driver/Src/stm32f4xx_hal_dma2d.c ****         {
 302:./Libraries/STM32F4xx_HAL_Driver/Src/stm32f4xx_hal_dma2d.c ****           /* Issue when aborting background CLUT loading */
 303:./Libraries/STM32F4xx_HAL_Driver/Src/stm32f4xx_hal_dma2d.c ****           return HAL_ERROR;
 210              		.loc 1 303 18
 211 0058 0123     		movs	r3, #1
 212 005a 36E0     		b	.L7
 213              	.L10:
ARM GAS  /tmp/ccgPJtk7.s 			page 10


 304:./Libraries/STM32F4xx_HAL_Driver/Src/stm32f4xx_hal_dma2d.c ****         }
 305:./Libraries/STM32F4xx_HAL_Driver/Src/stm32f4xx_hal_dma2d.c ****       }
 306:./Libraries/STM32F4xx_HAL_Driver/Src/stm32f4xx_hal_dma2d.c ****       else
 307:./Libraries/STM32F4xx_HAL_Driver/Src/stm32f4xx_hal_dma2d.c ****       {
 308:./Libraries/STM32F4xx_HAL_Driver/Src/stm32f4xx_hal_dma2d.c ****         /* Abort foreground CLUT loading if any */
 309:./Libraries/STM32F4xx_HAL_Driver/Src/stm32f4xx_hal_dma2d.c ****         if ((hdma2d->Instance->FGPFCCR & DMA2D_FGPFCCR_START) == DMA2D_FGPFCCR_START)
 214              		.loc 1 309 20
 215 005c 7B68     		ldr	r3, [r7, #4]
 216 005e 1B68     		ldr	r3, [r3]
 217              		.loc 1 309 30
 218 0060 DB69     		ldr	r3, [r3, #28]
 219              		.loc 1 309 40
 220 0062 03F02003 		and	r3, r3, #32
 221              		.loc 1 309 12
 222 0066 202B     		cmp	r3, #32
 223 0068 08D1     		bne	.L8
 310:./Libraries/STM32F4xx_HAL_Driver/Src/stm32f4xx_hal_dma2d.c ****         {
 311:./Libraries/STM32F4xx_HAL_Driver/Src/stm32f4xx_hal_dma2d.c ****           if (HAL_DMA2D_CLUTLoading_Abort(hdma2d, 1U) != HAL_OK)
 224              		.loc 1 311 15
 225 006a 0121     		movs	r1, #1
 226 006c 7868     		ldr	r0, [r7, #4]
 227 006e FFF7FEFF 		bl	HAL_DMA2D_CLUTLoading_Abort
 228 0072 0346     		mov	r3, r0
 229              		.loc 1 311 14
 230 0074 002B     		cmp	r3, #0
 231 0076 01D0     		beq	.L8
 312:./Libraries/STM32F4xx_HAL_Driver/Src/stm32f4xx_hal_dma2d.c ****           {
 313:./Libraries/STM32F4xx_HAL_Driver/Src/stm32f4xx_hal_dma2d.c ****             /* Issue when aborting foreground CLUT loading */
 314:./Libraries/STM32F4xx_HAL_Driver/Src/stm32f4xx_hal_dma2d.c ****             return HAL_ERROR;
 232              		.loc 1 314 20
 233 0078 0123     		movs	r3, #1
 234 007a 26E0     		b	.L7
 235              	.L8:
 315:./Libraries/STM32F4xx_HAL_Driver/Src/stm32f4xx_hal_dma2d.c ****           }
 316:./Libraries/STM32F4xx_HAL_Driver/Src/stm32f4xx_hal_dma2d.c ****         }
 317:./Libraries/STM32F4xx_HAL_Driver/Src/stm32f4xx_hal_dma2d.c ****       }
 318:./Libraries/STM32F4xx_HAL_Driver/Src/stm32f4xx_hal_dma2d.c ****     }
 319:./Libraries/STM32F4xx_HAL_Driver/Src/stm32f4xx_hal_dma2d.c ****   }
 320:./Libraries/STM32F4xx_HAL_Driver/Src/stm32f4xx_hal_dma2d.c **** 
 321:./Libraries/STM32F4xx_HAL_Driver/Src/stm32f4xx_hal_dma2d.c ****   /* Carry on with de-initialization of low level hardware */
 322:./Libraries/STM32F4xx_HAL_Driver/Src/stm32f4xx_hal_dma2d.c ****   HAL_DMA2D_MspDeInit(hdma2d);
 236              		.loc 1 322 3
 237 007c 7868     		ldr	r0, [r7, #4]
 238 007e FFF7FEFF 		bl	HAL_DMA2D_MspDeInit
 323:./Libraries/STM32F4xx_HAL_Driver/Src/stm32f4xx_hal_dma2d.c **** 
 324:./Libraries/STM32F4xx_HAL_Driver/Src/stm32f4xx_hal_dma2d.c ****   /* Reset DMA2D control registers*/
 325:./Libraries/STM32F4xx_HAL_Driver/Src/stm32f4xx_hal_dma2d.c ****   hdma2d->Instance->CR = 0U;
 239              		.loc 1 325 9
 240 0082 7B68     		ldr	r3, [r7, #4]
 241 0084 1B68     		ldr	r3, [r3]
 242              		.loc 1 325 24
 243 0086 0022     		movs	r2, #0
 244 0088 1A60     		str	r2, [r3]
 326:./Libraries/STM32F4xx_HAL_Driver/Src/stm32f4xx_hal_dma2d.c ****   hdma2d->Instance->FGOR = 0U;
 245              		.loc 1 326 9
 246 008a 7B68     		ldr	r3, [r7, #4]
 247 008c 1B68     		ldr	r3, [r3]
ARM GAS  /tmp/ccgPJtk7.s 			page 11


 248              		.loc 1 326 26
 249 008e 0022     		movs	r2, #0
 250 0090 1A61     		str	r2, [r3, #16]
 327:./Libraries/STM32F4xx_HAL_Driver/Src/stm32f4xx_hal_dma2d.c ****   hdma2d->Instance->BGOR = 0U;
 251              		.loc 1 327 9
 252 0092 7B68     		ldr	r3, [r7, #4]
 253 0094 1B68     		ldr	r3, [r3]
 254              		.loc 1 327 26
 255 0096 0022     		movs	r2, #0
 256 0098 9A61     		str	r2, [r3, #24]
 328:./Libraries/STM32F4xx_HAL_Driver/Src/stm32f4xx_hal_dma2d.c ****   hdma2d->Instance->FGPFCCR = 0U;
 257              		.loc 1 328 9
 258 009a 7B68     		ldr	r3, [r7, #4]
 259 009c 1B68     		ldr	r3, [r3]
 260              		.loc 1 328 29
 261 009e 0022     		movs	r2, #0
 262 00a0 DA61     		str	r2, [r3, #28]
 329:./Libraries/STM32F4xx_HAL_Driver/Src/stm32f4xx_hal_dma2d.c ****   hdma2d->Instance->BGPFCCR = 0U;
 263              		.loc 1 329 9
 264 00a2 7B68     		ldr	r3, [r7, #4]
 265 00a4 1B68     		ldr	r3, [r3]
 266              		.loc 1 329 29
 267 00a6 0022     		movs	r2, #0
 268 00a8 5A62     		str	r2, [r3, #36]
 330:./Libraries/STM32F4xx_HAL_Driver/Src/stm32f4xx_hal_dma2d.c ****   hdma2d->Instance->OPFCCR = 0U;
 269              		.loc 1 330 9
 270 00aa 7B68     		ldr	r3, [r7, #4]
 271 00ac 1B68     		ldr	r3, [r3]
 272              		.loc 1 330 28
 273 00ae 0022     		movs	r2, #0
 274 00b0 5A63     		str	r2, [r3, #52]
 331:./Libraries/STM32F4xx_HAL_Driver/Src/stm32f4xx_hal_dma2d.c **** 
 332:./Libraries/STM32F4xx_HAL_Driver/Src/stm32f4xx_hal_dma2d.c ****   /* Update error code */
 333:./Libraries/STM32F4xx_HAL_Driver/Src/stm32f4xx_hal_dma2d.c ****   hdma2d->ErrorCode = HAL_DMA2D_ERROR_NONE;
 275              		.loc 1 333 21
 276 00b2 7B68     		ldr	r3, [r7, #4]
 277 00b4 0022     		movs	r2, #0
 278 00b6 DA63     		str	r2, [r3, #60]
 334:./Libraries/STM32F4xx_HAL_Driver/Src/stm32f4xx_hal_dma2d.c **** 
 335:./Libraries/STM32F4xx_HAL_Driver/Src/stm32f4xx_hal_dma2d.c ****   /* Initialize the DMA2D state*/
 336:./Libraries/STM32F4xx_HAL_Driver/Src/stm32f4xx_hal_dma2d.c ****   hdma2d->State  = HAL_DMA2D_STATE_RESET;
 279              		.loc 1 336 18
 280 00b8 7B68     		ldr	r3, [r7, #4]
 281 00ba 0022     		movs	r2, #0
 282 00bc 83F83920 		strb	r2, [r3, #57]
 337:./Libraries/STM32F4xx_HAL_Driver/Src/stm32f4xx_hal_dma2d.c **** 
 338:./Libraries/STM32F4xx_HAL_Driver/Src/stm32f4xx_hal_dma2d.c ****   /* Release Lock */
 339:./Libraries/STM32F4xx_HAL_Driver/Src/stm32f4xx_hal_dma2d.c ****   __HAL_UNLOCK(hdma2d);
 283              		.loc 1 339 3
 284 00c0 7B68     		ldr	r3, [r7, #4]
 285 00c2 0022     		movs	r2, #0
 286 00c4 83F83820 		strb	r2, [r3, #56]
 340:./Libraries/STM32F4xx_HAL_Driver/Src/stm32f4xx_hal_dma2d.c **** 
 341:./Libraries/STM32F4xx_HAL_Driver/Src/stm32f4xx_hal_dma2d.c ****   return HAL_OK;
 287              		.loc 1 341 10
 288 00c8 0023     		movs	r3, #0
 289              	.L7:
ARM GAS  /tmp/ccgPJtk7.s 			page 12


 342:./Libraries/STM32F4xx_HAL_Driver/Src/stm32f4xx_hal_dma2d.c **** }
 290              		.loc 1 342 1
 291 00ca 1846     		mov	r0, r3
 292 00cc 0837     		adds	r7, r7, #8
 293              	.LCFI8:
 294              		.cfi_def_cfa_offset 8
 295 00ce BD46     		mov	sp, r7
 296              	.LCFI9:
 297              		.cfi_def_cfa_register 13
 298              		@ sp needed
 299 00d0 80BD     		pop	{r7, pc}
 300              	.L12:
 301 00d2 00BF     		.align	2
 302              	.L11:
 303 00d4 00380240 		.word	1073887232
 304              		.cfi_endproc
 305              	.LFE127:
 307              		.section	.text.HAL_DMA2D_MspInit,"ax",%progbits
 308              		.align	1
 309              		.weak	HAL_DMA2D_MspInit
 310              		.syntax unified
 311              		.thumb
 312              		.thumb_func
 313              		.fpu fpv4-sp-d16
 315              	HAL_DMA2D_MspInit:
 316              	.LFB128:
 343:./Libraries/STM32F4xx_HAL_Driver/Src/stm32f4xx_hal_dma2d.c **** 
 344:./Libraries/STM32F4xx_HAL_Driver/Src/stm32f4xx_hal_dma2d.c **** /**
 345:./Libraries/STM32F4xx_HAL_Driver/Src/stm32f4xx_hal_dma2d.c ****   * @brief  Initializes the DMA2D MSP.
 346:./Libraries/STM32F4xx_HAL_Driver/Src/stm32f4xx_hal_dma2d.c ****   * @param  hdma2d pointer to a DMA2D_HandleTypeDef structure that contains
 347:./Libraries/STM32F4xx_HAL_Driver/Src/stm32f4xx_hal_dma2d.c ****   *                 the configuration information for the DMA2D.
 348:./Libraries/STM32F4xx_HAL_Driver/Src/stm32f4xx_hal_dma2d.c ****   * @retval None
 349:./Libraries/STM32F4xx_HAL_Driver/Src/stm32f4xx_hal_dma2d.c ****   */
 350:./Libraries/STM32F4xx_HAL_Driver/Src/stm32f4xx_hal_dma2d.c **** __weak void HAL_DMA2D_MspInit(DMA2D_HandleTypeDef* hdma2d)
 351:./Libraries/STM32F4xx_HAL_Driver/Src/stm32f4xx_hal_dma2d.c **** {
 317              		.loc 1 351 1
 318              		.cfi_startproc
 319              		@ args = 0, pretend = 0, frame = 8
 320              		@ frame_needed = 1, uses_anonymous_args = 0
 321              		@ link register save eliminated.
 322 0000 80B4     		push	{r7}
 323              	.LCFI10:
 324              		.cfi_def_cfa_offset 4
 325              		.cfi_offset 7, -4
 326 0002 83B0     		sub	sp, sp, #12
 327              	.LCFI11:
 328              		.cfi_def_cfa_offset 16
 329 0004 00AF     		add	r7, sp, #0
 330              	.LCFI12:
 331              		.cfi_def_cfa_register 7
 332 0006 7860     		str	r0, [r7, #4]
 352:./Libraries/STM32F4xx_HAL_Driver/Src/stm32f4xx_hal_dma2d.c ****   /* Prevent unused argument(s) compilation warning */
 353:./Libraries/STM32F4xx_HAL_Driver/Src/stm32f4xx_hal_dma2d.c ****   UNUSED(hdma2d);
 354:./Libraries/STM32F4xx_HAL_Driver/Src/stm32f4xx_hal_dma2d.c **** 
 355:./Libraries/STM32F4xx_HAL_Driver/Src/stm32f4xx_hal_dma2d.c ****   /* NOTE : This function should not be modified; when the callback is needed,
 356:./Libraries/STM32F4xx_HAL_Driver/Src/stm32f4xx_hal_dma2d.c ****             the HAL_DMA2D_MspInit can be implemented in the user file.
 357:./Libraries/STM32F4xx_HAL_Driver/Src/stm32f4xx_hal_dma2d.c ****    */
ARM GAS  /tmp/ccgPJtk7.s 			page 13


 358:./Libraries/STM32F4xx_HAL_Driver/Src/stm32f4xx_hal_dma2d.c **** }
 333              		.loc 1 358 1
 334 0008 00BF     		nop
 335 000a 0C37     		adds	r7, r7, #12
 336              	.LCFI13:
 337              		.cfi_def_cfa_offset 4
 338 000c BD46     		mov	sp, r7
 339              	.LCFI14:
 340              		.cfi_def_cfa_register 13
 341              		@ sp needed
 342 000e 5DF8047B 		ldr	r7, [sp], #4
 343              	.LCFI15:
 344              		.cfi_restore 7
 345              		.cfi_def_cfa_offset 0
 346 0012 7047     		bx	lr
 347              		.cfi_endproc
 348              	.LFE128:
 350              		.section	.text.HAL_DMA2D_MspDeInit,"ax",%progbits
 351              		.align	1
 352              		.weak	HAL_DMA2D_MspDeInit
 353              		.syntax unified
 354              		.thumb
 355              		.thumb_func
 356              		.fpu fpv4-sp-d16
 358              	HAL_DMA2D_MspDeInit:
 359              	.LFB129:
 359:./Libraries/STM32F4xx_HAL_Driver/Src/stm32f4xx_hal_dma2d.c **** 
 360:./Libraries/STM32F4xx_HAL_Driver/Src/stm32f4xx_hal_dma2d.c **** /**
 361:./Libraries/STM32F4xx_HAL_Driver/Src/stm32f4xx_hal_dma2d.c ****   * @brief  DeInitializes the DMA2D MSP.
 362:./Libraries/STM32F4xx_HAL_Driver/Src/stm32f4xx_hal_dma2d.c ****   * @param  hdma2d pointer to a DMA2D_HandleTypeDef structure that contains
 363:./Libraries/STM32F4xx_HAL_Driver/Src/stm32f4xx_hal_dma2d.c ****   *                 the configuration information for the DMA2D.
 364:./Libraries/STM32F4xx_HAL_Driver/Src/stm32f4xx_hal_dma2d.c ****   * @retval None
 365:./Libraries/STM32F4xx_HAL_Driver/Src/stm32f4xx_hal_dma2d.c ****   */
 366:./Libraries/STM32F4xx_HAL_Driver/Src/stm32f4xx_hal_dma2d.c **** __weak void HAL_DMA2D_MspDeInit(DMA2D_HandleTypeDef* hdma2d)
 367:./Libraries/STM32F4xx_HAL_Driver/Src/stm32f4xx_hal_dma2d.c **** {
 360              		.loc 1 367 1
 361              		.cfi_startproc
 362              		@ args = 0, pretend = 0, frame = 8
 363              		@ frame_needed = 1, uses_anonymous_args = 0
 364              		@ link register save eliminated.
 365 0000 80B4     		push	{r7}
 366              	.LCFI16:
 367              		.cfi_def_cfa_offset 4
 368              		.cfi_offset 7, -4
 369 0002 83B0     		sub	sp, sp, #12
 370              	.LCFI17:
 371              		.cfi_def_cfa_offset 16
 372 0004 00AF     		add	r7, sp, #0
 373              	.LCFI18:
 374              		.cfi_def_cfa_register 7
 375 0006 7860     		str	r0, [r7, #4]
 368:./Libraries/STM32F4xx_HAL_Driver/Src/stm32f4xx_hal_dma2d.c ****   /* Prevent unused argument(s) compilation warning */
 369:./Libraries/STM32F4xx_HAL_Driver/Src/stm32f4xx_hal_dma2d.c ****   UNUSED(hdma2d);
 370:./Libraries/STM32F4xx_HAL_Driver/Src/stm32f4xx_hal_dma2d.c **** 
 371:./Libraries/STM32F4xx_HAL_Driver/Src/stm32f4xx_hal_dma2d.c ****   /* NOTE : This function should not be modified; when the callback is needed,
 372:./Libraries/STM32F4xx_HAL_Driver/Src/stm32f4xx_hal_dma2d.c ****             the HAL_DMA2D_MspDeInit can be implemented in the user file.
 373:./Libraries/STM32F4xx_HAL_Driver/Src/stm32f4xx_hal_dma2d.c ****    */
ARM GAS  /tmp/ccgPJtk7.s 			page 14


 374:./Libraries/STM32F4xx_HAL_Driver/Src/stm32f4xx_hal_dma2d.c **** }
 376              		.loc 1 374 1
 377 0008 00BF     		nop
 378 000a 0C37     		adds	r7, r7, #12
 379              	.LCFI19:
 380              		.cfi_def_cfa_offset 4
 381 000c BD46     		mov	sp, r7
 382              	.LCFI20:
 383              		.cfi_def_cfa_register 13
 384              		@ sp needed
 385 000e 5DF8047B 		ldr	r7, [sp], #4
 386              	.LCFI21:
 387              		.cfi_restore 7
 388              		.cfi_def_cfa_offset 0
 389 0012 7047     		bx	lr
 390              		.cfi_endproc
 391              	.LFE129:
 393              		.section	.text.HAL_DMA2D_Start,"ax",%progbits
 394              		.align	1
 395              		.global	HAL_DMA2D_Start
 396              		.syntax unified
 397              		.thumb
 398              		.thumb_func
 399              		.fpu fpv4-sp-d16
 401              	HAL_DMA2D_Start:
 402              	.LFB130:
 375:./Libraries/STM32F4xx_HAL_Driver/Src/stm32f4xx_hal_dma2d.c **** 
 376:./Libraries/STM32F4xx_HAL_Driver/Src/stm32f4xx_hal_dma2d.c **** /**
 377:./Libraries/STM32F4xx_HAL_Driver/Src/stm32f4xx_hal_dma2d.c ****   * @}
 378:./Libraries/STM32F4xx_HAL_Driver/Src/stm32f4xx_hal_dma2d.c ****   */
 379:./Libraries/STM32F4xx_HAL_Driver/Src/stm32f4xx_hal_dma2d.c **** 
 380:./Libraries/STM32F4xx_HAL_Driver/Src/stm32f4xx_hal_dma2d.c **** /** @defgroup DMA2D_Exported_Functions_Group2 IO operation functions
 381:./Libraries/STM32F4xx_HAL_Driver/Src/stm32f4xx_hal_dma2d.c ****  *  @brief   IO operation functions
 382:./Libraries/STM32F4xx_HAL_Driver/Src/stm32f4xx_hal_dma2d.c ****  *
 383:./Libraries/STM32F4xx_HAL_Driver/Src/stm32f4xx_hal_dma2d.c **** @verbatim
 384:./Libraries/STM32F4xx_HAL_Driver/Src/stm32f4xx_hal_dma2d.c ****  ===============================================================================
 385:./Libraries/STM32F4xx_HAL_Driver/Src/stm32f4xx_hal_dma2d.c ****                       #####  IO operation functions  #####
 386:./Libraries/STM32F4xx_HAL_Driver/Src/stm32f4xx_hal_dma2d.c ****  ===============================================================================
 387:./Libraries/STM32F4xx_HAL_Driver/Src/stm32f4xx_hal_dma2d.c ****     [..]  This section provides functions allowing to:
 388:./Libraries/STM32F4xx_HAL_Driver/Src/stm32f4xx_hal_dma2d.c ****       (+) Configure the pdata, destination address and data size then
 389:./Libraries/STM32F4xx_HAL_Driver/Src/stm32f4xx_hal_dma2d.c ****           start the DMA2D transfer.
 390:./Libraries/STM32F4xx_HAL_Driver/Src/stm32f4xx_hal_dma2d.c ****       (+) Configure the source for foreground and background, destination address
 391:./Libraries/STM32F4xx_HAL_Driver/Src/stm32f4xx_hal_dma2d.c ****           and data size then start a MultiBuffer DMA2D transfer.
 392:./Libraries/STM32F4xx_HAL_Driver/Src/stm32f4xx_hal_dma2d.c ****       (+) Configure the pdata, destination address and data size then
 393:./Libraries/STM32F4xx_HAL_Driver/Src/stm32f4xx_hal_dma2d.c ****           start the DMA2D transfer with interrupt.
 394:./Libraries/STM32F4xx_HAL_Driver/Src/stm32f4xx_hal_dma2d.c ****       (+) Configure the source for foreground and background, destination address
 395:./Libraries/STM32F4xx_HAL_Driver/Src/stm32f4xx_hal_dma2d.c ****           and data size then start a MultiBuffer DMA2D transfer with interrupt.
 396:./Libraries/STM32F4xx_HAL_Driver/Src/stm32f4xx_hal_dma2d.c ****       (+) Abort DMA2D transfer.
 397:./Libraries/STM32F4xx_HAL_Driver/Src/stm32f4xx_hal_dma2d.c ****       (+) Suspend DMA2D transfer.
 398:./Libraries/STM32F4xx_HAL_Driver/Src/stm32f4xx_hal_dma2d.c ****       (+) Resume DMA2D transfer.
 399:./Libraries/STM32F4xx_HAL_Driver/Src/stm32f4xx_hal_dma2d.c ****       (+) Enable CLUT transfer.
 400:./Libraries/STM32F4xx_HAL_Driver/Src/stm32f4xx_hal_dma2d.c ****       (+) Configure CLUT loading then start transfer in polling mode.
 401:./Libraries/STM32F4xx_HAL_Driver/Src/stm32f4xx_hal_dma2d.c ****       (+) Configure CLUT loading then start transfer in interrupt mode.
 402:./Libraries/STM32F4xx_HAL_Driver/Src/stm32f4xx_hal_dma2d.c ****       (+) Abort DMA2D CLUT loading.
 403:./Libraries/STM32F4xx_HAL_Driver/Src/stm32f4xx_hal_dma2d.c ****       (+) Suspend DMA2D CLUT loading.
 404:./Libraries/STM32F4xx_HAL_Driver/Src/stm32f4xx_hal_dma2d.c ****       (+) Resume DMA2D CLUT loading.
 405:./Libraries/STM32F4xx_HAL_Driver/Src/stm32f4xx_hal_dma2d.c ****       (+) Poll for transfer complete.
ARM GAS  /tmp/ccgPJtk7.s 			page 15


 406:./Libraries/STM32F4xx_HAL_Driver/Src/stm32f4xx_hal_dma2d.c ****       (+) handle DMA2D interrupt request.
 407:./Libraries/STM32F4xx_HAL_Driver/Src/stm32f4xx_hal_dma2d.c ****       (+) Transfer watermark callback.
 408:./Libraries/STM32F4xx_HAL_Driver/Src/stm32f4xx_hal_dma2d.c ****       (+) CLUT Transfer Complete callback.
 409:./Libraries/STM32F4xx_HAL_Driver/Src/stm32f4xx_hal_dma2d.c **** 
 410:./Libraries/STM32F4xx_HAL_Driver/Src/stm32f4xx_hal_dma2d.c **** @endverbatim
 411:./Libraries/STM32F4xx_HAL_Driver/Src/stm32f4xx_hal_dma2d.c ****   * @{
 412:./Libraries/STM32F4xx_HAL_Driver/Src/stm32f4xx_hal_dma2d.c ****   */
 413:./Libraries/STM32F4xx_HAL_Driver/Src/stm32f4xx_hal_dma2d.c **** 
 414:./Libraries/STM32F4xx_HAL_Driver/Src/stm32f4xx_hal_dma2d.c **** /**
 415:./Libraries/STM32F4xx_HAL_Driver/Src/stm32f4xx_hal_dma2d.c ****   * @brief  Start the DMA2D Transfer.
 416:./Libraries/STM32F4xx_HAL_Driver/Src/stm32f4xx_hal_dma2d.c ****   * @param  hdma2d     Pointer to a DMA2D_HandleTypeDef structure that contains
 417:./Libraries/STM32F4xx_HAL_Driver/Src/stm32f4xx_hal_dma2d.c ****   *                     the configuration information for the DMA2D.
 418:./Libraries/STM32F4xx_HAL_Driver/Src/stm32f4xx_hal_dma2d.c ****   * @param  pdata      Configure the source memory Buffer address if 
 419:./Libraries/STM32F4xx_HAL_Driver/Src/stm32f4xx_hal_dma2d.c ****   *                     Memory-to-Memory or Memory-to-Memory with pixel format
 420:./Libraries/STM32F4xx_HAL_Driver/Src/stm32f4xx_hal_dma2d.c ****   *                     conversion mode is selected, or configure 
 421:./Libraries/STM32F4xx_HAL_Driver/Src/stm32f4xx_hal_dma2d.c ****   *                     the color value if Register-to-Memory mode is selected.
 422:./Libraries/STM32F4xx_HAL_Driver/Src/stm32f4xx_hal_dma2d.c ****   * @param  DstAddress The destination memory Buffer address.
 423:./Libraries/STM32F4xx_HAL_Driver/Src/stm32f4xx_hal_dma2d.c ****   * @param  Width      The width of data to be transferred from source to destination (expressed in
 424:./Libraries/STM32F4xx_HAL_Driver/Src/stm32f4xx_hal_dma2d.c ****   * @param  Height     The height of data to be transferred from source to destination (expressed i
 425:./Libraries/STM32F4xx_HAL_Driver/Src/stm32f4xx_hal_dma2d.c ****   * @retval HAL status
 426:./Libraries/STM32F4xx_HAL_Driver/Src/stm32f4xx_hal_dma2d.c ****   */
 427:./Libraries/STM32F4xx_HAL_Driver/Src/stm32f4xx_hal_dma2d.c **** HAL_StatusTypeDef HAL_DMA2D_Start(DMA2D_HandleTypeDef *hdma2d, uint32_t pdata, uint32_t DstAddress,
 428:./Libraries/STM32F4xx_HAL_Driver/Src/stm32f4xx_hal_dma2d.c **** {
 403              		.loc 1 428 1
 404              		.cfi_startproc
 405              		@ args = 4, pretend = 0, frame = 16
 406              		@ frame_needed = 1, uses_anonymous_args = 0
 407 0000 80B5     		push	{r7, lr}
 408              	.LCFI22:
 409              		.cfi_def_cfa_offset 8
 410              		.cfi_offset 7, -8
 411              		.cfi_offset 14, -4
 412 0002 86B0     		sub	sp, sp, #24
 413              	.LCFI23:
 414              		.cfi_def_cfa_offset 32
 415 0004 02AF     		add	r7, sp, #8
 416              	.LCFI24:
 417              		.cfi_def_cfa 7, 24
 418 0006 F860     		str	r0, [r7, #12]
 419 0008 B960     		str	r1, [r7, #8]
 420 000a 7A60     		str	r2, [r7, #4]
 421 000c 3B60     		str	r3, [r7]
 429:./Libraries/STM32F4xx_HAL_Driver/Src/stm32f4xx_hal_dma2d.c ****   /* Check the parameters */
 430:./Libraries/STM32F4xx_HAL_Driver/Src/stm32f4xx_hal_dma2d.c ****   assert_param(IS_DMA2D_LINE(Height));
 431:./Libraries/STM32F4xx_HAL_Driver/Src/stm32f4xx_hal_dma2d.c ****   assert_param(IS_DMA2D_PIXEL(Width));
 432:./Libraries/STM32F4xx_HAL_Driver/Src/stm32f4xx_hal_dma2d.c **** 
 433:./Libraries/STM32F4xx_HAL_Driver/Src/stm32f4xx_hal_dma2d.c ****   /* Process locked */
 434:./Libraries/STM32F4xx_HAL_Driver/Src/stm32f4xx_hal_dma2d.c ****   __HAL_LOCK(hdma2d);
 422              		.loc 1 434 3
 423 000e FB68     		ldr	r3, [r7, #12]
 424 0010 93F83830 		ldrb	r3, [r3, #56]	@ zero_extendqisi2
 425 0014 012B     		cmp	r3, #1
 426 0016 01D1     		bne	.L16
 427              		.loc 1 434 3 is_stmt 0 discriminator 1
 428 0018 0223     		movs	r3, #2
 429 001a 18E0     		b	.L17
 430              	.L16:
ARM GAS  /tmp/ccgPJtk7.s 			page 16


 431              		.loc 1 434 3 discriminator 2
 432 001c FB68     		ldr	r3, [r7, #12]
 433 001e 0122     		movs	r2, #1
 434 0020 83F83820 		strb	r2, [r3, #56]
 435:./Libraries/STM32F4xx_HAL_Driver/Src/stm32f4xx_hal_dma2d.c **** 
 436:./Libraries/STM32F4xx_HAL_Driver/Src/stm32f4xx_hal_dma2d.c ****   /* Change DMA2D peripheral state */
 437:./Libraries/STM32F4xx_HAL_Driver/Src/stm32f4xx_hal_dma2d.c ****   hdma2d->State = HAL_DMA2D_STATE_BUSY;
 435              		.loc 1 437 17 is_stmt 1 discriminator 2
 436 0024 FB68     		ldr	r3, [r7, #12]
 437 0026 0222     		movs	r2, #2
 438 0028 83F83920 		strb	r2, [r3, #57]
 438:./Libraries/STM32F4xx_HAL_Driver/Src/stm32f4xx_hal_dma2d.c **** 
 439:./Libraries/STM32F4xx_HAL_Driver/Src/stm32f4xx_hal_dma2d.c ****   /* Configure the source, destination address and the data size */
 440:./Libraries/STM32F4xx_HAL_Driver/Src/stm32f4xx_hal_dma2d.c ****   DMA2D_SetConfig(hdma2d, pdata, DstAddress, Width, Height);
 439              		.loc 1 440 3 discriminator 2
 440 002c BB69     		ldr	r3, [r7, #24]
 441 002e 0093     		str	r3, [sp]
 442 0030 3B68     		ldr	r3, [r7]
 443 0032 7A68     		ldr	r2, [r7, #4]
 444 0034 B968     		ldr	r1, [r7, #8]
 445 0036 F868     		ldr	r0, [r7, #12]
 446 0038 FFF7FEFF 		bl	DMA2D_SetConfig
 441:./Libraries/STM32F4xx_HAL_Driver/Src/stm32f4xx_hal_dma2d.c **** 
 442:./Libraries/STM32F4xx_HAL_Driver/Src/stm32f4xx_hal_dma2d.c ****   /* Enable the Peripheral */
 443:./Libraries/STM32F4xx_HAL_Driver/Src/stm32f4xx_hal_dma2d.c ****   __HAL_DMA2D_ENABLE(hdma2d);
 447              		.loc 1 443 3 discriminator 2
 448 003c FB68     		ldr	r3, [r7, #12]
 449 003e 1B68     		ldr	r3, [r3]
 450 0040 1A68     		ldr	r2, [r3]
 451 0042 FB68     		ldr	r3, [r7, #12]
 452 0044 1B68     		ldr	r3, [r3]
 453 0046 42F00102 		orr	r2, r2, #1
 454 004a 1A60     		str	r2, [r3]
 444:./Libraries/STM32F4xx_HAL_Driver/Src/stm32f4xx_hal_dma2d.c **** 
 445:./Libraries/STM32F4xx_HAL_Driver/Src/stm32f4xx_hal_dma2d.c ****   return HAL_OK;
 455              		.loc 1 445 10 discriminator 2
 456 004c 0023     		movs	r3, #0
 457              	.L17:
 446:./Libraries/STM32F4xx_HAL_Driver/Src/stm32f4xx_hal_dma2d.c **** }
 458              		.loc 1 446 1
 459 004e 1846     		mov	r0, r3
 460 0050 1037     		adds	r7, r7, #16
 461              	.LCFI25:
 462              		.cfi_def_cfa_offset 8
 463 0052 BD46     		mov	sp, r7
 464              	.LCFI26:
 465              		.cfi_def_cfa_register 13
 466              		@ sp needed
 467 0054 80BD     		pop	{r7, pc}
 468              		.cfi_endproc
 469              	.LFE130:
 471              		.section	.text.HAL_DMA2D_Start_IT,"ax",%progbits
 472              		.align	1
 473              		.global	HAL_DMA2D_Start_IT
 474              		.syntax unified
 475              		.thumb
 476              		.thumb_func
ARM GAS  /tmp/ccgPJtk7.s 			page 17


 477              		.fpu fpv4-sp-d16
 479              	HAL_DMA2D_Start_IT:
 480              	.LFB131:
 447:./Libraries/STM32F4xx_HAL_Driver/Src/stm32f4xx_hal_dma2d.c **** 
 448:./Libraries/STM32F4xx_HAL_Driver/Src/stm32f4xx_hal_dma2d.c **** /**
 449:./Libraries/STM32F4xx_HAL_Driver/Src/stm32f4xx_hal_dma2d.c ****   * @brief  Start the DMA2D Transfer with interrupt enabled.
 450:./Libraries/STM32F4xx_HAL_Driver/Src/stm32f4xx_hal_dma2d.c ****   * @param  hdma2d     Pointer to a DMA2D_HandleTypeDef structure that contains
 451:./Libraries/STM32F4xx_HAL_Driver/Src/stm32f4xx_hal_dma2d.c ****   *                     the configuration information for the DMA2D.
 452:./Libraries/STM32F4xx_HAL_Driver/Src/stm32f4xx_hal_dma2d.c ****   * @param  pdata      Configure the source memory Buffer address if
 453:./Libraries/STM32F4xx_HAL_Driver/Src/stm32f4xx_hal_dma2d.c ****   *                     the Memory-to-Memory or Memory-to-Memory with pixel format
 454:./Libraries/STM32F4xx_HAL_Driver/Src/stm32f4xx_hal_dma2d.c ****   *                     conversion mode is selected, or configure 
 455:./Libraries/STM32F4xx_HAL_Driver/Src/stm32f4xx_hal_dma2d.c ****   *                     the color value if Register-to-Memory mode is selected.
 456:./Libraries/STM32F4xx_HAL_Driver/Src/stm32f4xx_hal_dma2d.c ****   * @param  DstAddress The destination memory Buffer address.
 457:./Libraries/STM32F4xx_HAL_Driver/Src/stm32f4xx_hal_dma2d.c ****   * @param  Width      The width of data to be transferred from source to destination (expressed in
 458:./Libraries/STM32F4xx_HAL_Driver/Src/stm32f4xx_hal_dma2d.c ****   * @param  Height     The height of data to be transferred from source to destination (expressed i
 459:./Libraries/STM32F4xx_HAL_Driver/Src/stm32f4xx_hal_dma2d.c ****   * @retval HAL status
 460:./Libraries/STM32F4xx_HAL_Driver/Src/stm32f4xx_hal_dma2d.c ****   */
 461:./Libraries/STM32F4xx_HAL_Driver/Src/stm32f4xx_hal_dma2d.c **** HAL_StatusTypeDef HAL_DMA2D_Start_IT(DMA2D_HandleTypeDef *hdma2d, uint32_t pdata, uint32_t DstAddre
 462:./Libraries/STM32F4xx_HAL_Driver/Src/stm32f4xx_hal_dma2d.c **** {
 481              		.loc 1 462 1
 482              		.cfi_startproc
 483              		@ args = 4, pretend = 0, frame = 16
 484              		@ frame_needed = 1, uses_anonymous_args = 0
 485 0000 80B5     		push	{r7, lr}
 486              	.LCFI27:
 487              		.cfi_def_cfa_offset 8
 488              		.cfi_offset 7, -8
 489              		.cfi_offset 14, -4
 490 0002 86B0     		sub	sp, sp, #24
 491              	.LCFI28:
 492              		.cfi_def_cfa_offset 32
 493 0004 02AF     		add	r7, sp, #8
 494              	.LCFI29:
 495              		.cfi_def_cfa 7, 24
 496 0006 F860     		str	r0, [r7, #12]
 497 0008 B960     		str	r1, [r7, #8]
 498 000a 7A60     		str	r2, [r7, #4]
 499 000c 3B60     		str	r3, [r7]
 463:./Libraries/STM32F4xx_HAL_Driver/Src/stm32f4xx_hal_dma2d.c ****   /* Check the parameters */
 464:./Libraries/STM32F4xx_HAL_Driver/Src/stm32f4xx_hal_dma2d.c ****   assert_param(IS_DMA2D_LINE(Height));
 465:./Libraries/STM32F4xx_HAL_Driver/Src/stm32f4xx_hal_dma2d.c ****   assert_param(IS_DMA2D_PIXEL(Width));
 466:./Libraries/STM32F4xx_HAL_Driver/Src/stm32f4xx_hal_dma2d.c **** 
 467:./Libraries/STM32F4xx_HAL_Driver/Src/stm32f4xx_hal_dma2d.c ****   /* Process locked */
 468:./Libraries/STM32F4xx_HAL_Driver/Src/stm32f4xx_hal_dma2d.c ****   __HAL_LOCK(hdma2d);
 500              		.loc 1 468 3
 501 000e FB68     		ldr	r3, [r7, #12]
 502 0010 93F83830 		ldrb	r3, [r3, #56]	@ zero_extendqisi2
 503 0014 012B     		cmp	r3, #1
 504 0016 01D1     		bne	.L19
 505              		.loc 1 468 3 is_stmt 0 discriminator 1
 506 0018 0223     		movs	r3, #2
 507 001a 20E0     		b	.L20
 508              	.L19:
 509              		.loc 1 468 3 discriminator 2
 510 001c FB68     		ldr	r3, [r7, #12]
 511 001e 0122     		movs	r2, #1
 512 0020 83F83820 		strb	r2, [r3, #56]
ARM GAS  /tmp/ccgPJtk7.s 			page 18


 469:./Libraries/STM32F4xx_HAL_Driver/Src/stm32f4xx_hal_dma2d.c **** 
 470:./Libraries/STM32F4xx_HAL_Driver/Src/stm32f4xx_hal_dma2d.c ****   /* Change DMA2D peripheral state */
 471:./Libraries/STM32F4xx_HAL_Driver/Src/stm32f4xx_hal_dma2d.c ****   hdma2d->State = HAL_DMA2D_STATE_BUSY;
 513              		.loc 1 471 17 is_stmt 1 discriminator 2
 514 0024 FB68     		ldr	r3, [r7, #12]
 515 0026 0222     		movs	r2, #2
 516 0028 83F83920 		strb	r2, [r3, #57]
 472:./Libraries/STM32F4xx_HAL_Driver/Src/stm32f4xx_hal_dma2d.c **** 
 473:./Libraries/STM32F4xx_HAL_Driver/Src/stm32f4xx_hal_dma2d.c ****   /* Configure the source, destination address and the data size */
 474:./Libraries/STM32F4xx_HAL_Driver/Src/stm32f4xx_hal_dma2d.c ****   DMA2D_SetConfig(hdma2d, pdata, DstAddress, Width, Height);
 517              		.loc 1 474 3 discriminator 2
 518 002c BB69     		ldr	r3, [r7, #24]
 519 002e 0093     		str	r3, [sp]
 520 0030 3B68     		ldr	r3, [r7]
 521 0032 7A68     		ldr	r2, [r7, #4]
 522 0034 B968     		ldr	r1, [r7, #8]
 523 0036 F868     		ldr	r0, [r7, #12]
 524 0038 FFF7FEFF 		bl	DMA2D_SetConfig
 475:./Libraries/STM32F4xx_HAL_Driver/Src/stm32f4xx_hal_dma2d.c **** 
 476:./Libraries/STM32F4xx_HAL_Driver/Src/stm32f4xx_hal_dma2d.c ****   /* Enable the transfer complete, transfer error and configuration error interrupts */
 477:./Libraries/STM32F4xx_HAL_Driver/Src/stm32f4xx_hal_dma2d.c ****   __HAL_DMA2D_ENABLE_IT(hdma2d, DMA2D_IT_TC|DMA2D_IT_TE|DMA2D_IT_CE);
 525              		.loc 1 477 3 discriminator 2
 526 003c FB68     		ldr	r3, [r7, #12]
 527 003e 1B68     		ldr	r3, [r3]
 528 0040 1A68     		ldr	r2, [r3]
 529 0042 FB68     		ldr	r3, [r7, #12]
 530 0044 1B68     		ldr	r3, [r3]
 531 0046 42F40C52 		orr	r2, r2, #8960
 532 004a 1A60     		str	r2, [r3]
 478:./Libraries/STM32F4xx_HAL_Driver/Src/stm32f4xx_hal_dma2d.c **** 
 479:./Libraries/STM32F4xx_HAL_Driver/Src/stm32f4xx_hal_dma2d.c ****   /* Enable the Peripheral */
 480:./Libraries/STM32F4xx_HAL_Driver/Src/stm32f4xx_hal_dma2d.c ****   __HAL_DMA2D_ENABLE(hdma2d);
 533              		.loc 1 480 3 discriminator 2
 534 004c FB68     		ldr	r3, [r7, #12]
 535 004e 1B68     		ldr	r3, [r3]
 536 0050 1A68     		ldr	r2, [r3]
 537 0052 FB68     		ldr	r3, [r7, #12]
 538 0054 1B68     		ldr	r3, [r3]
 539 0056 42F00102 		orr	r2, r2, #1
 540 005a 1A60     		str	r2, [r3]
 481:./Libraries/STM32F4xx_HAL_Driver/Src/stm32f4xx_hal_dma2d.c **** 
 482:./Libraries/STM32F4xx_HAL_Driver/Src/stm32f4xx_hal_dma2d.c ****   return HAL_OK;
 541              		.loc 1 482 10 discriminator 2
 542 005c 0023     		movs	r3, #0
 543              	.L20:
 483:./Libraries/STM32F4xx_HAL_Driver/Src/stm32f4xx_hal_dma2d.c **** }
 544              		.loc 1 483 1
 545 005e 1846     		mov	r0, r3
 546 0060 1037     		adds	r7, r7, #16
 547              	.LCFI30:
 548              		.cfi_def_cfa_offset 8
 549 0062 BD46     		mov	sp, r7
 550              	.LCFI31:
 551              		.cfi_def_cfa_register 13
 552              		@ sp needed
 553 0064 80BD     		pop	{r7, pc}
 554              		.cfi_endproc
ARM GAS  /tmp/ccgPJtk7.s 			page 19


 555              	.LFE131:
 557              		.section	.text.HAL_DMA2D_BlendingStart,"ax",%progbits
 558              		.align	1
 559              		.global	HAL_DMA2D_BlendingStart
 560              		.syntax unified
 561              		.thumb
 562              		.thumb_func
 563              		.fpu fpv4-sp-d16
 565              	HAL_DMA2D_BlendingStart:
 566              	.LFB132:
 484:./Libraries/STM32F4xx_HAL_Driver/Src/stm32f4xx_hal_dma2d.c **** 
 485:./Libraries/STM32F4xx_HAL_Driver/Src/stm32f4xx_hal_dma2d.c **** /**
 486:./Libraries/STM32F4xx_HAL_Driver/Src/stm32f4xx_hal_dma2d.c ****   * @brief  Start the multi-source DMA2D Transfer.
 487:./Libraries/STM32F4xx_HAL_Driver/Src/stm32f4xx_hal_dma2d.c ****   * @param  hdma2d      Pointer to a DMA2D_HandleTypeDef structure that contains
 488:./Libraries/STM32F4xx_HAL_Driver/Src/stm32f4xx_hal_dma2d.c ****   *                      the configuration information for the DMA2D.
 489:./Libraries/STM32F4xx_HAL_Driver/Src/stm32f4xx_hal_dma2d.c ****   * @param  SrcAddress1 The source memory Buffer address for the foreground layer.
 490:./Libraries/STM32F4xx_HAL_Driver/Src/stm32f4xx_hal_dma2d.c ****   * @param  SrcAddress2 The source memory Buffer address for the background layer.
 491:./Libraries/STM32F4xx_HAL_Driver/Src/stm32f4xx_hal_dma2d.c ****   * @param  DstAddress  The destination memory Buffer address.
 492:./Libraries/STM32F4xx_HAL_Driver/Src/stm32f4xx_hal_dma2d.c ****   * @param  Width       The width of data to be transferred from source to destination (expressed i
 493:./Libraries/STM32F4xx_HAL_Driver/Src/stm32f4xx_hal_dma2d.c ****   * @param  Height      The height of data to be transferred from source to destination (expressed 
 494:./Libraries/STM32F4xx_HAL_Driver/Src/stm32f4xx_hal_dma2d.c ****   * @retval HAL status
 495:./Libraries/STM32F4xx_HAL_Driver/Src/stm32f4xx_hal_dma2d.c ****   */
 496:./Libraries/STM32F4xx_HAL_Driver/Src/stm32f4xx_hal_dma2d.c **** HAL_StatusTypeDef HAL_DMA2D_BlendingStart(DMA2D_HandleTypeDef *hdma2d, uint32_t SrcAddress1, uint32
 497:./Libraries/STM32F4xx_HAL_Driver/Src/stm32f4xx_hal_dma2d.c **** {
 567              		.loc 1 497 1
 568              		.cfi_startproc
 569              		@ args = 8, pretend = 0, frame = 16
 570              		@ frame_needed = 1, uses_anonymous_args = 0
 571 0000 80B5     		push	{r7, lr}
 572              	.LCFI32:
 573              		.cfi_def_cfa_offset 8
 574              		.cfi_offset 7, -8
 575              		.cfi_offset 14, -4
 576 0002 86B0     		sub	sp, sp, #24
 577              	.LCFI33:
 578              		.cfi_def_cfa_offset 32
 579 0004 02AF     		add	r7, sp, #8
 580              	.LCFI34:
 581              		.cfi_def_cfa 7, 24
 582 0006 F860     		str	r0, [r7, #12]
 583 0008 B960     		str	r1, [r7, #8]
 584 000a 7A60     		str	r2, [r7, #4]
 585 000c 3B60     		str	r3, [r7]
 498:./Libraries/STM32F4xx_HAL_Driver/Src/stm32f4xx_hal_dma2d.c ****   /* Check the parameters */
 499:./Libraries/STM32F4xx_HAL_Driver/Src/stm32f4xx_hal_dma2d.c ****   assert_param(IS_DMA2D_LINE(Height));
 500:./Libraries/STM32F4xx_HAL_Driver/Src/stm32f4xx_hal_dma2d.c ****   assert_param(IS_DMA2D_PIXEL(Width));
 501:./Libraries/STM32F4xx_HAL_Driver/Src/stm32f4xx_hal_dma2d.c **** 
 502:./Libraries/STM32F4xx_HAL_Driver/Src/stm32f4xx_hal_dma2d.c ****   /* Process locked */
 503:./Libraries/STM32F4xx_HAL_Driver/Src/stm32f4xx_hal_dma2d.c ****   __HAL_LOCK(hdma2d);
 586              		.loc 1 503 3
 587 000e FB68     		ldr	r3, [r7, #12]
 588 0010 93F83830 		ldrb	r3, [r3, #56]	@ zero_extendqisi2
 589 0014 012B     		cmp	r3, #1
 590 0016 01D1     		bne	.L22
 591              		.loc 1 503 3 is_stmt 0 discriminator 1
 592 0018 0223     		movs	r3, #2
 593 001a 1CE0     		b	.L23
ARM GAS  /tmp/ccgPJtk7.s 			page 20


 594              	.L22:
 595              		.loc 1 503 3 discriminator 2
 596 001c FB68     		ldr	r3, [r7, #12]
 597 001e 0122     		movs	r2, #1
 598 0020 83F83820 		strb	r2, [r3, #56]
 504:./Libraries/STM32F4xx_HAL_Driver/Src/stm32f4xx_hal_dma2d.c **** 
 505:./Libraries/STM32F4xx_HAL_Driver/Src/stm32f4xx_hal_dma2d.c ****   /* Change DMA2D peripheral state */
 506:./Libraries/STM32F4xx_HAL_Driver/Src/stm32f4xx_hal_dma2d.c ****   hdma2d->State = HAL_DMA2D_STATE_BUSY;
 599              		.loc 1 506 17 is_stmt 1 discriminator 2
 600 0024 FB68     		ldr	r3, [r7, #12]
 601 0026 0222     		movs	r2, #2
 602 0028 83F83920 		strb	r2, [r3, #57]
 507:./Libraries/STM32F4xx_HAL_Driver/Src/stm32f4xx_hal_dma2d.c **** 
 508:./Libraries/STM32F4xx_HAL_Driver/Src/stm32f4xx_hal_dma2d.c ****   /* Configure DMA2D Stream source2 address */
 509:./Libraries/STM32F4xx_HAL_Driver/Src/stm32f4xx_hal_dma2d.c ****   WRITE_REG(hdma2d->Instance->BGMAR, SrcAddress2);
 603              		.loc 1 509 3 discriminator 2
 604 002c FB68     		ldr	r3, [r7, #12]
 605 002e 1B68     		ldr	r3, [r3]
 606 0030 7A68     		ldr	r2, [r7, #4]
 607 0032 5A61     		str	r2, [r3, #20]
 510:./Libraries/STM32F4xx_HAL_Driver/Src/stm32f4xx_hal_dma2d.c **** 
 511:./Libraries/STM32F4xx_HAL_Driver/Src/stm32f4xx_hal_dma2d.c ****   /* Configure the source, destination address and the data size */
 512:./Libraries/STM32F4xx_HAL_Driver/Src/stm32f4xx_hal_dma2d.c ****   DMA2D_SetConfig(hdma2d, SrcAddress1, DstAddress, Width, Height);
 608              		.loc 1 512 3 discriminator 2
 609 0034 FB69     		ldr	r3, [r7, #28]
 610 0036 0093     		str	r3, [sp]
 611 0038 BB69     		ldr	r3, [r7, #24]
 612 003a 3A68     		ldr	r2, [r7]
 613 003c B968     		ldr	r1, [r7, #8]
 614 003e F868     		ldr	r0, [r7, #12]
 615 0040 FFF7FEFF 		bl	DMA2D_SetConfig
 513:./Libraries/STM32F4xx_HAL_Driver/Src/stm32f4xx_hal_dma2d.c **** 
 514:./Libraries/STM32F4xx_HAL_Driver/Src/stm32f4xx_hal_dma2d.c ****   /* Enable the Peripheral */
 515:./Libraries/STM32F4xx_HAL_Driver/Src/stm32f4xx_hal_dma2d.c ****   __HAL_DMA2D_ENABLE(hdma2d);
 616              		.loc 1 515 3 discriminator 2
 617 0044 FB68     		ldr	r3, [r7, #12]
 618 0046 1B68     		ldr	r3, [r3]
 619 0048 1A68     		ldr	r2, [r3]
 620 004a FB68     		ldr	r3, [r7, #12]
 621 004c 1B68     		ldr	r3, [r3]
 622 004e 42F00102 		orr	r2, r2, #1
 623 0052 1A60     		str	r2, [r3]
 516:./Libraries/STM32F4xx_HAL_Driver/Src/stm32f4xx_hal_dma2d.c **** 
 517:./Libraries/STM32F4xx_HAL_Driver/Src/stm32f4xx_hal_dma2d.c ****   return HAL_OK;
 624              		.loc 1 517 10 discriminator 2
 625 0054 0023     		movs	r3, #0
 626              	.L23:
 518:./Libraries/STM32F4xx_HAL_Driver/Src/stm32f4xx_hal_dma2d.c **** }
 627              		.loc 1 518 1
 628 0056 1846     		mov	r0, r3
 629 0058 1037     		adds	r7, r7, #16
 630              	.LCFI35:
 631              		.cfi_def_cfa_offset 8
 632 005a BD46     		mov	sp, r7
 633              	.LCFI36:
 634              		.cfi_def_cfa_register 13
 635              		@ sp needed
ARM GAS  /tmp/ccgPJtk7.s 			page 21


 636 005c 80BD     		pop	{r7, pc}
 637              		.cfi_endproc
 638              	.LFE132:
 640              		.section	.text.HAL_DMA2D_BlendingStart_IT,"ax",%progbits
 641              		.align	1
 642              		.global	HAL_DMA2D_BlendingStart_IT
 643              		.syntax unified
 644              		.thumb
 645              		.thumb_func
 646              		.fpu fpv4-sp-d16
 648              	HAL_DMA2D_BlendingStart_IT:
 649              	.LFB133:
 519:./Libraries/STM32F4xx_HAL_Driver/Src/stm32f4xx_hal_dma2d.c **** 
 520:./Libraries/STM32F4xx_HAL_Driver/Src/stm32f4xx_hal_dma2d.c **** /**
 521:./Libraries/STM32F4xx_HAL_Driver/Src/stm32f4xx_hal_dma2d.c ****   * @brief  Start the multi-source DMA2D Transfer with interrupt enabled.
 522:./Libraries/STM32F4xx_HAL_Driver/Src/stm32f4xx_hal_dma2d.c ****   * @param  hdma2d     Pointer to a DMA2D_HandleTypeDef structure that contains
 523:./Libraries/STM32F4xx_HAL_Driver/Src/stm32f4xx_hal_dma2d.c ****   *                     the configuration information for the DMA2D.
 524:./Libraries/STM32F4xx_HAL_Driver/Src/stm32f4xx_hal_dma2d.c ****   * @param  SrcAddress1 The source memory Buffer address for the foreground layer.
 525:./Libraries/STM32F4xx_HAL_Driver/Src/stm32f4xx_hal_dma2d.c ****   * @param  SrcAddress2 The source memory Buffer address for the background layer.
 526:./Libraries/STM32F4xx_HAL_Driver/Src/stm32f4xx_hal_dma2d.c ****   * @param  DstAddress  The destination memory Buffer address.
 527:./Libraries/STM32F4xx_HAL_Driver/Src/stm32f4xx_hal_dma2d.c ****   * @param  Width       The width of data to be transferred from source to destination (expressed i
 528:./Libraries/STM32F4xx_HAL_Driver/Src/stm32f4xx_hal_dma2d.c ****   * @param  Height      The height of data to be transferred from source to destination (expressed 
 529:./Libraries/STM32F4xx_HAL_Driver/Src/stm32f4xx_hal_dma2d.c ****   * @retval HAL status
 530:./Libraries/STM32F4xx_HAL_Driver/Src/stm32f4xx_hal_dma2d.c ****   */
 531:./Libraries/STM32F4xx_HAL_Driver/Src/stm32f4xx_hal_dma2d.c **** HAL_StatusTypeDef HAL_DMA2D_BlendingStart_IT(DMA2D_HandleTypeDef *hdma2d, uint32_t SrcAddress1, uin
 532:./Libraries/STM32F4xx_HAL_Driver/Src/stm32f4xx_hal_dma2d.c **** {
 650              		.loc 1 532 1
 651              		.cfi_startproc
 652              		@ args = 8, pretend = 0, frame = 16
 653              		@ frame_needed = 1, uses_anonymous_args = 0
 654 0000 80B5     		push	{r7, lr}
 655              	.LCFI37:
 656              		.cfi_def_cfa_offset 8
 657              		.cfi_offset 7, -8
 658              		.cfi_offset 14, -4
 659 0002 86B0     		sub	sp, sp, #24
 660              	.LCFI38:
 661              		.cfi_def_cfa_offset 32
 662 0004 02AF     		add	r7, sp, #8
 663              	.LCFI39:
 664              		.cfi_def_cfa 7, 24
 665 0006 F860     		str	r0, [r7, #12]
 666 0008 B960     		str	r1, [r7, #8]
 667 000a 7A60     		str	r2, [r7, #4]
 668 000c 3B60     		str	r3, [r7]
 533:./Libraries/STM32F4xx_HAL_Driver/Src/stm32f4xx_hal_dma2d.c ****   /* Check the parameters */
 534:./Libraries/STM32F4xx_HAL_Driver/Src/stm32f4xx_hal_dma2d.c ****   assert_param(IS_DMA2D_LINE(Height));
 535:./Libraries/STM32F4xx_HAL_Driver/Src/stm32f4xx_hal_dma2d.c ****   assert_param(IS_DMA2D_PIXEL(Width));
 536:./Libraries/STM32F4xx_HAL_Driver/Src/stm32f4xx_hal_dma2d.c **** 
 537:./Libraries/STM32F4xx_HAL_Driver/Src/stm32f4xx_hal_dma2d.c ****   /* Process locked */
 538:./Libraries/STM32F4xx_HAL_Driver/Src/stm32f4xx_hal_dma2d.c ****   __HAL_LOCK(hdma2d);
 669              		.loc 1 538 3
 670 000e FB68     		ldr	r3, [r7, #12]
 671 0010 93F83830 		ldrb	r3, [r3, #56]	@ zero_extendqisi2
 672 0014 012B     		cmp	r3, #1
 673 0016 01D1     		bne	.L25
 674              		.loc 1 538 3 is_stmt 0 discriminator 1
ARM GAS  /tmp/ccgPJtk7.s 			page 22


 675 0018 0223     		movs	r3, #2
 676 001a 24E0     		b	.L26
 677              	.L25:
 678              		.loc 1 538 3 discriminator 2
 679 001c FB68     		ldr	r3, [r7, #12]
 680 001e 0122     		movs	r2, #1
 681 0020 83F83820 		strb	r2, [r3, #56]
 539:./Libraries/STM32F4xx_HAL_Driver/Src/stm32f4xx_hal_dma2d.c **** 
 540:./Libraries/STM32F4xx_HAL_Driver/Src/stm32f4xx_hal_dma2d.c ****   /* Change DMA2D peripheral state */
 541:./Libraries/STM32F4xx_HAL_Driver/Src/stm32f4xx_hal_dma2d.c ****   hdma2d->State = HAL_DMA2D_STATE_BUSY;
 682              		.loc 1 541 17 is_stmt 1 discriminator 2
 683 0024 FB68     		ldr	r3, [r7, #12]
 684 0026 0222     		movs	r2, #2
 685 0028 83F83920 		strb	r2, [r3, #57]
 542:./Libraries/STM32F4xx_HAL_Driver/Src/stm32f4xx_hal_dma2d.c **** 
 543:./Libraries/STM32F4xx_HAL_Driver/Src/stm32f4xx_hal_dma2d.c ****   /* Configure DMA2D Stream source2 address */
 544:./Libraries/STM32F4xx_HAL_Driver/Src/stm32f4xx_hal_dma2d.c ****   WRITE_REG(hdma2d->Instance->BGMAR, SrcAddress2);
 686              		.loc 1 544 3 discriminator 2
 687 002c FB68     		ldr	r3, [r7, #12]
 688 002e 1B68     		ldr	r3, [r3]
 689 0030 7A68     		ldr	r2, [r7, #4]
 690 0032 5A61     		str	r2, [r3, #20]
 545:./Libraries/STM32F4xx_HAL_Driver/Src/stm32f4xx_hal_dma2d.c **** 
 546:./Libraries/STM32F4xx_HAL_Driver/Src/stm32f4xx_hal_dma2d.c ****   /* Configure the source, destination address and the data size */
 547:./Libraries/STM32F4xx_HAL_Driver/Src/stm32f4xx_hal_dma2d.c ****   DMA2D_SetConfig(hdma2d, SrcAddress1, DstAddress, Width, Height);
 691              		.loc 1 547 3 discriminator 2
 692 0034 FB69     		ldr	r3, [r7, #28]
 693 0036 0093     		str	r3, [sp]
 694 0038 BB69     		ldr	r3, [r7, #24]
 695 003a 3A68     		ldr	r2, [r7]
 696 003c B968     		ldr	r1, [r7, #8]
 697 003e F868     		ldr	r0, [r7, #12]
 698 0040 FFF7FEFF 		bl	DMA2D_SetConfig
 548:./Libraries/STM32F4xx_HAL_Driver/Src/stm32f4xx_hal_dma2d.c **** 
 549:./Libraries/STM32F4xx_HAL_Driver/Src/stm32f4xx_hal_dma2d.c ****   /* Enable the transfer complete, transfer error and configuration error interrupts */
 550:./Libraries/STM32F4xx_HAL_Driver/Src/stm32f4xx_hal_dma2d.c ****   __HAL_DMA2D_ENABLE_IT(hdma2d, DMA2D_IT_TC|DMA2D_IT_TE|DMA2D_IT_CE);
 699              		.loc 1 550 3 discriminator 2
 700 0044 FB68     		ldr	r3, [r7, #12]
 701 0046 1B68     		ldr	r3, [r3]
 702 0048 1A68     		ldr	r2, [r3]
 703 004a FB68     		ldr	r3, [r7, #12]
 704 004c 1B68     		ldr	r3, [r3]
 705 004e 42F40C52 		orr	r2, r2, #8960
 706 0052 1A60     		str	r2, [r3]
 551:./Libraries/STM32F4xx_HAL_Driver/Src/stm32f4xx_hal_dma2d.c **** 
 552:./Libraries/STM32F4xx_HAL_Driver/Src/stm32f4xx_hal_dma2d.c ****   /* Enable the Peripheral */
 553:./Libraries/STM32F4xx_HAL_Driver/Src/stm32f4xx_hal_dma2d.c ****   __HAL_DMA2D_ENABLE(hdma2d);
 707              		.loc 1 553 3 discriminator 2
 708 0054 FB68     		ldr	r3, [r7, #12]
 709 0056 1B68     		ldr	r3, [r3]
 710 0058 1A68     		ldr	r2, [r3]
 711 005a FB68     		ldr	r3, [r7, #12]
 712 005c 1B68     		ldr	r3, [r3]
 713 005e 42F00102 		orr	r2, r2, #1
 714 0062 1A60     		str	r2, [r3]
 554:./Libraries/STM32F4xx_HAL_Driver/Src/stm32f4xx_hal_dma2d.c **** 
 555:./Libraries/STM32F4xx_HAL_Driver/Src/stm32f4xx_hal_dma2d.c ****   return HAL_OK;
ARM GAS  /tmp/ccgPJtk7.s 			page 23


 715              		.loc 1 555 10 discriminator 2
 716 0064 0023     		movs	r3, #0
 717              	.L26:
 556:./Libraries/STM32F4xx_HAL_Driver/Src/stm32f4xx_hal_dma2d.c **** }
 718              		.loc 1 556 1
 719 0066 1846     		mov	r0, r3
 720 0068 1037     		adds	r7, r7, #16
 721              	.LCFI40:
 722              		.cfi_def_cfa_offset 8
 723 006a BD46     		mov	sp, r7
 724              	.LCFI41:
 725              		.cfi_def_cfa_register 13
 726              		@ sp needed
 727 006c 80BD     		pop	{r7, pc}
 728              		.cfi_endproc
 729              	.LFE133:
 731              		.section	.text.HAL_DMA2D_Abort,"ax",%progbits
 732              		.align	1
 733              		.global	HAL_DMA2D_Abort
 734              		.syntax unified
 735              		.thumb
 736              		.thumb_func
 737              		.fpu fpv4-sp-d16
 739              	HAL_DMA2D_Abort:
 740              	.LFB134:
 557:./Libraries/STM32F4xx_HAL_Driver/Src/stm32f4xx_hal_dma2d.c **** 
 558:./Libraries/STM32F4xx_HAL_Driver/Src/stm32f4xx_hal_dma2d.c **** /**
 559:./Libraries/STM32F4xx_HAL_Driver/Src/stm32f4xx_hal_dma2d.c ****   * @brief  Abort the DMA2D Transfer.
 560:./Libraries/STM32F4xx_HAL_Driver/Src/stm32f4xx_hal_dma2d.c ****   * @param  hdma2d  pointer to a DMA2D_HandleTypeDef structure that contains
 561:./Libraries/STM32F4xx_HAL_Driver/Src/stm32f4xx_hal_dma2d.c ****   *                  the configuration information for the DMA2D.
 562:./Libraries/STM32F4xx_HAL_Driver/Src/stm32f4xx_hal_dma2d.c ****   * @retval HAL status
 563:./Libraries/STM32F4xx_HAL_Driver/Src/stm32f4xx_hal_dma2d.c ****   */
 564:./Libraries/STM32F4xx_HAL_Driver/Src/stm32f4xx_hal_dma2d.c **** HAL_StatusTypeDef HAL_DMA2D_Abort(DMA2D_HandleTypeDef *hdma2d)
 565:./Libraries/STM32F4xx_HAL_Driver/Src/stm32f4xx_hal_dma2d.c **** {
 741              		.loc 1 565 1
 742              		.cfi_startproc
 743              		@ args = 0, pretend = 0, frame = 16
 744              		@ frame_needed = 1, uses_anonymous_args = 0
 745 0000 80B5     		push	{r7, lr}
 746              	.LCFI42:
 747              		.cfi_def_cfa_offset 8
 748              		.cfi_offset 7, -8
 749              		.cfi_offset 14, -4
 750 0002 84B0     		sub	sp, sp, #16
 751              	.LCFI43:
 752              		.cfi_def_cfa_offset 24
 753 0004 00AF     		add	r7, sp, #0
 754              	.LCFI44:
 755              		.cfi_def_cfa_register 7
 756 0006 7860     		str	r0, [r7, #4]
 566:./Libraries/STM32F4xx_HAL_Driver/Src/stm32f4xx_hal_dma2d.c ****   uint32_t tickstart = 0U;
 757              		.loc 1 566 12
 758 0008 0023     		movs	r3, #0
 759 000a FB60     		str	r3, [r7, #12]
 567:./Libraries/STM32F4xx_HAL_Driver/Src/stm32f4xx_hal_dma2d.c **** 
 568:./Libraries/STM32F4xx_HAL_Driver/Src/stm32f4xx_hal_dma2d.c ****   /* Abort the DMA2D transfer */
 569:./Libraries/STM32F4xx_HAL_Driver/Src/stm32f4xx_hal_dma2d.c ****   /* START bit is reset to make sure not to set it again, in the event the HW clears it
ARM GAS  /tmp/ccgPJtk7.s 			page 24


 570:./Libraries/STM32F4xx_HAL_Driver/Src/stm32f4xx_hal_dma2d.c ****      between the register read and the register write by the CPU (writing 0 has no
 571:./Libraries/STM32F4xx_HAL_Driver/Src/stm32f4xx_hal_dma2d.c ****      effect on START bitvalue) */
 572:./Libraries/STM32F4xx_HAL_Driver/Src/stm32f4xx_hal_dma2d.c ****    MODIFY_REG(hdma2d->Instance->CR, DMA2D_CR_ABORT|DMA2D_CR_START, DMA2D_CR_ABORT);
 760              		.loc 1 572 4
 761 000c 7B68     		ldr	r3, [r7, #4]
 762 000e 1B68     		ldr	r3, [r3]
 763 0010 1B68     		ldr	r3, [r3]
 764 0012 23F00502 		bic	r2, r3, #5
 765 0016 7B68     		ldr	r3, [r7, #4]
 766 0018 1B68     		ldr	r3, [r3]
 767 001a 42F00402 		orr	r2, r2, #4
 768 001e 1A60     		str	r2, [r3]
 573:./Libraries/STM32F4xx_HAL_Driver/Src/stm32f4xx_hal_dma2d.c **** 
 574:./Libraries/STM32F4xx_HAL_Driver/Src/stm32f4xx_hal_dma2d.c ****   /* Get tick */
 575:./Libraries/STM32F4xx_HAL_Driver/Src/stm32f4xx_hal_dma2d.c ****   tickstart = HAL_GetTick();
 769              		.loc 1 575 15
 770 0020 FFF7FEFF 		bl	HAL_GetTick
 771 0024 F860     		str	r0, [r7, #12]
 576:./Libraries/STM32F4xx_HAL_Driver/Src/stm32f4xx_hal_dma2d.c **** 
 577:./Libraries/STM32F4xx_HAL_Driver/Src/stm32f4xx_hal_dma2d.c ****   /* Check if the DMA2D is effectively disabled */
 578:./Libraries/STM32F4xx_HAL_Driver/Src/stm32f4xx_hal_dma2d.c ****   while((hdma2d->Instance->CR & DMA2D_CR_START) != RESET)
 772              		.loc 1 578 8
 773 0026 17E0     		b	.L28
 774              	.L30:
 579:./Libraries/STM32F4xx_HAL_Driver/Src/stm32f4xx_hal_dma2d.c ****   {
 580:./Libraries/STM32F4xx_HAL_Driver/Src/stm32f4xx_hal_dma2d.c ****     if((HAL_GetTick() - tickstart ) > DMA2D_TIMEOUT_ABORT)
 775              		.loc 1 580 9
 776 0028 FFF7FEFF 		bl	HAL_GetTick
 777 002c 0246     		mov	r2, r0
 778              		.loc 1 580 23
 779 002e FB68     		ldr	r3, [r7, #12]
 780 0030 D31A     		subs	r3, r2, r3
 781              		.loc 1 580 7
 782 0032 B3F57A7F 		cmp	r3, #1000
 783 0036 0FD9     		bls	.L28
 581:./Libraries/STM32F4xx_HAL_Driver/Src/stm32f4xx_hal_dma2d.c ****     {
 582:./Libraries/STM32F4xx_HAL_Driver/Src/stm32f4xx_hal_dma2d.c ****       /* Update error code */
 583:./Libraries/STM32F4xx_HAL_Driver/Src/stm32f4xx_hal_dma2d.c ****       hdma2d->ErrorCode |= HAL_DMA2D_ERROR_TIMEOUT;
 784              		.loc 1 583 25
 785 0038 7B68     		ldr	r3, [r7, #4]
 786 003a DB6B     		ldr	r3, [r3, #60]
 787 003c 43F02002 		orr	r2, r3, #32
 788 0040 7B68     		ldr	r3, [r7, #4]
 789 0042 DA63     		str	r2, [r3, #60]
 584:./Libraries/STM32F4xx_HAL_Driver/Src/stm32f4xx_hal_dma2d.c **** 
 585:./Libraries/STM32F4xx_HAL_Driver/Src/stm32f4xx_hal_dma2d.c ****       /* Change the DMA2D state */
 586:./Libraries/STM32F4xx_HAL_Driver/Src/stm32f4xx_hal_dma2d.c ****       hdma2d->State = HAL_DMA2D_STATE_TIMEOUT;
 790              		.loc 1 586 21
 791 0044 7B68     		ldr	r3, [r7, #4]
 792 0046 0322     		movs	r2, #3
 793 0048 83F83920 		strb	r2, [r3, #57]
 587:./Libraries/STM32F4xx_HAL_Driver/Src/stm32f4xx_hal_dma2d.c **** 
 588:./Libraries/STM32F4xx_HAL_Driver/Src/stm32f4xx_hal_dma2d.c ****       /* Process Unlocked */
 589:./Libraries/STM32F4xx_HAL_Driver/Src/stm32f4xx_hal_dma2d.c ****       __HAL_UNLOCK(hdma2d);
 794              		.loc 1 589 7
 795 004c 7B68     		ldr	r3, [r7, #4]
 796 004e 0022     		movs	r2, #0
ARM GAS  /tmp/ccgPJtk7.s 			page 25


 797 0050 83F83820 		strb	r2, [r3, #56]
 590:./Libraries/STM32F4xx_HAL_Driver/Src/stm32f4xx_hal_dma2d.c **** 
 591:./Libraries/STM32F4xx_HAL_Driver/Src/stm32f4xx_hal_dma2d.c ****       return HAL_TIMEOUT;
 798              		.loc 1 591 14
 799 0054 0323     		movs	r3, #3
 800 0056 17E0     		b	.L29
 801              	.L28:
 578:./Libraries/STM32F4xx_HAL_Driver/Src/stm32f4xx_hal_dma2d.c ****   {
 802              		.loc 1 578 16
 803 0058 7B68     		ldr	r3, [r7, #4]
 804 005a 1B68     		ldr	r3, [r3]
 578:./Libraries/STM32F4xx_HAL_Driver/Src/stm32f4xx_hal_dma2d.c ****   {
 805              		.loc 1 578 26
 806 005c 1B68     		ldr	r3, [r3]
 578:./Libraries/STM32F4xx_HAL_Driver/Src/stm32f4xx_hal_dma2d.c ****   {
 807              		.loc 1 578 31
 808 005e 03F00103 		and	r3, r3, #1
 578:./Libraries/STM32F4xx_HAL_Driver/Src/stm32f4xx_hal_dma2d.c ****   {
 809              		.loc 1 578 8
 810 0062 002B     		cmp	r3, #0
 811 0064 E0D1     		bne	.L30
 592:./Libraries/STM32F4xx_HAL_Driver/Src/stm32f4xx_hal_dma2d.c ****     }
 593:./Libraries/STM32F4xx_HAL_Driver/Src/stm32f4xx_hal_dma2d.c ****   }
 594:./Libraries/STM32F4xx_HAL_Driver/Src/stm32f4xx_hal_dma2d.c **** 
 595:./Libraries/STM32F4xx_HAL_Driver/Src/stm32f4xx_hal_dma2d.c ****   /* Disable the Transfer Complete, Transfer Error and Configuration Error interrupts */
 596:./Libraries/STM32F4xx_HAL_Driver/Src/stm32f4xx_hal_dma2d.c ****   __HAL_DMA2D_DISABLE_IT(hdma2d, DMA2D_IT_TC|DMA2D_IT_TE|DMA2D_IT_CE);
 812              		.loc 1 596 3
 813 0066 7B68     		ldr	r3, [r7, #4]
 814 0068 1B68     		ldr	r3, [r3]
 815 006a 1A68     		ldr	r2, [r3]
 816 006c 7B68     		ldr	r3, [r7, #4]
 817 006e 1B68     		ldr	r3, [r3]
 818 0070 22F40C52 		bic	r2, r2, #8960
 819 0074 1A60     		str	r2, [r3]
 597:./Libraries/STM32F4xx_HAL_Driver/Src/stm32f4xx_hal_dma2d.c **** 
 598:./Libraries/STM32F4xx_HAL_Driver/Src/stm32f4xx_hal_dma2d.c ****   /* Change the DMA2D state*/
 599:./Libraries/STM32F4xx_HAL_Driver/Src/stm32f4xx_hal_dma2d.c ****   hdma2d->State = HAL_DMA2D_STATE_READY;
 820              		.loc 1 599 17
 821 0076 7B68     		ldr	r3, [r7, #4]
 822 0078 0122     		movs	r2, #1
 823 007a 83F83920 		strb	r2, [r3, #57]
 600:./Libraries/STM32F4xx_HAL_Driver/Src/stm32f4xx_hal_dma2d.c **** 
 601:./Libraries/STM32F4xx_HAL_Driver/Src/stm32f4xx_hal_dma2d.c ****   /* Process Unlocked */
 602:./Libraries/STM32F4xx_HAL_Driver/Src/stm32f4xx_hal_dma2d.c ****   __HAL_UNLOCK(hdma2d);
 824              		.loc 1 602 3
 825 007e 7B68     		ldr	r3, [r7, #4]
 826 0080 0022     		movs	r2, #0
 827 0082 83F83820 		strb	r2, [r3, #56]
 603:./Libraries/STM32F4xx_HAL_Driver/Src/stm32f4xx_hal_dma2d.c **** 
 604:./Libraries/STM32F4xx_HAL_Driver/Src/stm32f4xx_hal_dma2d.c ****   return HAL_OK;
 828              		.loc 1 604 10
 829 0086 0023     		movs	r3, #0
 830              	.L29:
 605:./Libraries/STM32F4xx_HAL_Driver/Src/stm32f4xx_hal_dma2d.c **** }
 831              		.loc 1 605 1
 832 0088 1846     		mov	r0, r3
 833 008a 1037     		adds	r7, r7, #16
ARM GAS  /tmp/ccgPJtk7.s 			page 26


 834              	.LCFI45:
 835              		.cfi_def_cfa_offset 8
 836 008c BD46     		mov	sp, r7
 837              	.LCFI46:
 838              		.cfi_def_cfa_register 13
 839              		@ sp needed
 840 008e 80BD     		pop	{r7, pc}
 841              		.cfi_endproc
 842              	.LFE134:
 844              		.section	.text.HAL_DMA2D_Suspend,"ax",%progbits
 845              		.align	1
 846              		.global	HAL_DMA2D_Suspend
 847              		.syntax unified
 848              		.thumb
 849              		.thumb_func
 850              		.fpu fpv4-sp-d16
 852              	HAL_DMA2D_Suspend:
 853              	.LFB135:
 606:./Libraries/STM32F4xx_HAL_Driver/Src/stm32f4xx_hal_dma2d.c **** 
 607:./Libraries/STM32F4xx_HAL_Driver/Src/stm32f4xx_hal_dma2d.c **** /**
 608:./Libraries/STM32F4xx_HAL_Driver/Src/stm32f4xx_hal_dma2d.c ****   * @brief  Suspend the DMA2D Transfer.
 609:./Libraries/STM32F4xx_HAL_Driver/Src/stm32f4xx_hal_dma2d.c ****   * @param  hdma2d pointer to a DMA2D_HandleTypeDef structure that contains
 610:./Libraries/STM32F4xx_HAL_Driver/Src/stm32f4xx_hal_dma2d.c ****   *                 the configuration information for the DMA2D.
 611:./Libraries/STM32F4xx_HAL_Driver/Src/stm32f4xx_hal_dma2d.c ****   * @retval HAL status
 612:./Libraries/STM32F4xx_HAL_Driver/Src/stm32f4xx_hal_dma2d.c ****   */
 613:./Libraries/STM32F4xx_HAL_Driver/Src/stm32f4xx_hal_dma2d.c **** HAL_StatusTypeDef HAL_DMA2D_Suspend(DMA2D_HandleTypeDef *hdma2d)
 614:./Libraries/STM32F4xx_HAL_Driver/Src/stm32f4xx_hal_dma2d.c **** {
 854              		.loc 1 614 1
 855              		.cfi_startproc
 856              		@ args = 0, pretend = 0, frame = 16
 857              		@ frame_needed = 1, uses_anonymous_args = 0
 858 0000 80B5     		push	{r7, lr}
 859              	.LCFI47:
 860              		.cfi_def_cfa_offset 8
 861              		.cfi_offset 7, -8
 862              		.cfi_offset 14, -4
 863 0002 84B0     		sub	sp, sp, #16
 864              	.LCFI48:
 865              		.cfi_def_cfa_offset 24
 866 0004 00AF     		add	r7, sp, #0
 867              	.LCFI49:
 868              		.cfi_def_cfa_register 7
 869 0006 7860     		str	r0, [r7, #4]
 615:./Libraries/STM32F4xx_HAL_Driver/Src/stm32f4xx_hal_dma2d.c ****   uint32_t tickstart = 0U;
 870              		.loc 1 615 12
 871 0008 0023     		movs	r3, #0
 872 000a FB60     		str	r3, [r7, #12]
 616:./Libraries/STM32F4xx_HAL_Driver/Src/stm32f4xx_hal_dma2d.c **** 
 617:./Libraries/STM32F4xx_HAL_Driver/Src/stm32f4xx_hal_dma2d.c ****   /* Suspend the DMA2D transfer */
 618:./Libraries/STM32F4xx_HAL_Driver/Src/stm32f4xx_hal_dma2d.c ****   /* START bit is reset to make sure not to set it again, in the event the HW clears it
 619:./Libraries/STM32F4xx_HAL_Driver/Src/stm32f4xx_hal_dma2d.c ****      between the register read and the register write by the CPU (writing 0 has no
 620:./Libraries/STM32F4xx_HAL_Driver/Src/stm32f4xx_hal_dma2d.c ****      effect on START bitvalue) */
 621:./Libraries/STM32F4xx_HAL_Driver/Src/stm32f4xx_hal_dma2d.c ****   MODIFY_REG(hdma2d->Instance->CR, DMA2D_CR_SUSP|DMA2D_CR_START, DMA2D_CR_SUSP);
 873              		.loc 1 621 3
 874 000c 7B68     		ldr	r3, [r7, #4]
 875 000e 1B68     		ldr	r3, [r3]
 876 0010 1B68     		ldr	r3, [r3]
ARM GAS  /tmp/ccgPJtk7.s 			page 27


 877 0012 23F00302 		bic	r2, r3, #3
 878 0016 7B68     		ldr	r3, [r7, #4]
 879 0018 1B68     		ldr	r3, [r3]
 880 001a 42F00202 		orr	r2, r2, #2
 881 001e 1A60     		str	r2, [r3]
 622:./Libraries/STM32F4xx_HAL_Driver/Src/stm32f4xx_hal_dma2d.c **** 
 623:./Libraries/STM32F4xx_HAL_Driver/Src/stm32f4xx_hal_dma2d.c ****   /* Get tick */
 624:./Libraries/STM32F4xx_HAL_Driver/Src/stm32f4xx_hal_dma2d.c ****   tickstart = HAL_GetTick();
 882              		.loc 1 624 15
 883 0020 FFF7FEFF 		bl	HAL_GetTick
 884 0024 F860     		str	r0, [r7, #12]
 625:./Libraries/STM32F4xx_HAL_Driver/Src/stm32f4xx_hal_dma2d.c **** 
 626:./Libraries/STM32F4xx_HAL_Driver/Src/stm32f4xx_hal_dma2d.c ****   /* Check if the DMA2D is effectively suspended */
 627:./Libraries/STM32F4xx_HAL_Driver/Src/stm32f4xx_hal_dma2d.c ****   while (((hdma2d->Instance->CR & DMA2D_CR_SUSP) != DMA2D_CR_SUSP) \
 885              		.loc 1 627 9
 886 0026 13E0     		b	.L32
 887              	.L35:
 628:./Libraries/STM32F4xx_HAL_Driver/Src/stm32f4xx_hal_dma2d.c ****     && ((hdma2d->Instance->CR & DMA2D_CR_START) == DMA2D_CR_START))
 629:./Libraries/STM32F4xx_HAL_Driver/Src/stm32f4xx_hal_dma2d.c ****   {
 630:./Libraries/STM32F4xx_HAL_Driver/Src/stm32f4xx_hal_dma2d.c ****     if((HAL_GetTick() - tickstart ) > DMA2D_TIMEOUT_SUSPEND)
 888              		.loc 1 630 9
 889 0028 FFF7FEFF 		bl	HAL_GetTick
 890 002c 0246     		mov	r2, r0
 891              		.loc 1 630 23
 892 002e FB68     		ldr	r3, [r7, #12]
 893 0030 D31A     		subs	r3, r2, r3
 894              		.loc 1 630 7
 895 0032 B3F57A7F 		cmp	r3, #1000
 896 0036 0BD9     		bls	.L32
 631:./Libraries/STM32F4xx_HAL_Driver/Src/stm32f4xx_hal_dma2d.c ****     {
 632:./Libraries/STM32F4xx_HAL_Driver/Src/stm32f4xx_hal_dma2d.c ****       /* Update error code */
 633:./Libraries/STM32F4xx_HAL_Driver/Src/stm32f4xx_hal_dma2d.c ****       hdma2d->ErrorCode |= HAL_DMA2D_ERROR_TIMEOUT;
 897              		.loc 1 633 25
 898 0038 7B68     		ldr	r3, [r7, #4]
 899 003a DB6B     		ldr	r3, [r3, #60]
 900 003c 43F02002 		orr	r2, r3, #32
 901 0040 7B68     		ldr	r3, [r7, #4]
 902 0042 DA63     		str	r2, [r3, #60]
 634:./Libraries/STM32F4xx_HAL_Driver/Src/stm32f4xx_hal_dma2d.c **** 
 635:./Libraries/STM32F4xx_HAL_Driver/Src/stm32f4xx_hal_dma2d.c ****       /* Change the DMA2D state */
 636:./Libraries/STM32F4xx_HAL_Driver/Src/stm32f4xx_hal_dma2d.c ****       hdma2d->State = HAL_DMA2D_STATE_TIMEOUT;
 903              		.loc 1 636 21
 904 0044 7B68     		ldr	r3, [r7, #4]
 905 0046 0322     		movs	r2, #3
 906 0048 83F83920 		strb	r2, [r3, #57]
 637:./Libraries/STM32F4xx_HAL_Driver/Src/stm32f4xx_hal_dma2d.c **** 
 638:./Libraries/STM32F4xx_HAL_Driver/Src/stm32f4xx_hal_dma2d.c ****       return HAL_TIMEOUT;
 907              		.loc 1 638 14
 908 004c 0323     		movs	r3, #3
 909 004e 22E0     		b	.L33
 910              	.L32:
 627:./Libraries/STM32F4xx_HAL_Driver/Src/stm32f4xx_hal_dma2d.c ****     && ((hdma2d->Instance->CR & DMA2D_CR_START) == DMA2D_CR_START))
 911              		.loc 1 627 18
 912 0050 7B68     		ldr	r3, [r7, #4]
 913 0052 1B68     		ldr	r3, [r3]
 627:./Libraries/STM32F4xx_HAL_Driver/Src/stm32f4xx_hal_dma2d.c ****     && ((hdma2d->Instance->CR & DMA2D_CR_START) == DMA2D_CR_START))
 914              		.loc 1 627 28
ARM GAS  /tmp/ccgPJtk7.s 			page 28


 915 0054 1B68     		ldr	r3, [r3]
 627:./Libraries/STM32F4xx_HAL_Driver/Src/stm32f4xx_hal_dma2d.c ****     && ((hdma2d->Instance->CR & DMA2D_CR_START) == DMA2D_CR_START))
 916              		.loc 1 627 33
 917 0056 03F00203 		and	r3, r3, #2
 627:./Libraries/STM32F4xx_HAL_Driver/Src/stm32f4xx_hal_dma2d.c ****     && ((hdma2d->Instance->CR & DMA2D_CR_START) == DMA2D_CR_START))
 918              		.loc 1 627 9
 919 005a 022B     		cmp	r3, #2
 920 005c 06D0     		beq	.L34
 628:./Libraries/STM32F4xx_HAL_Driver/Src/stm32f4xx_hal_dma2d.c ****   {
 921              		.loc 1 628 16
 922 005e 7B68     		ldr	r3, [r7, #4]
 923 0060 1B68     		ldr	r3, [r3]
 628:./Libraries/STM32F4xx_HAL_Driver/Src/stm32f4xx_hal_dma2d.c ****   {
 924              		.loc 1 628 26
 925 0062 1B68     		ldr	r3, [r3]
 628:./Libraries/STM32F4xx_HAL_Driver/Src/stm32f4xx_hal_dma2d.c ****   {
 926              		.loc 1 628 31
 927 0064 03F00103 		and	r3, r3, #1
 628:./Libraries/STM32F4xx_HAL_Driver/Src/stm32f4xx_hal_dma2d.c ****   {
 928              		.loc 1 628 5
 929 0068 012B     		cmp	r3, #1
 930 006a DDD0     		beq	.L35
 931              	.L34:
 639:./Libraries/STM32F4xx_HAL_Driver/Src/stm32f4xx_hal_dma2d.c ****     }
 640:./Libraries/STM32F4xx_HAL_Driver/Src/stm32f4xx_hal_dma2d.c ****   }
 641:./Libraries/STM32F4xx_HAL_Driver/Src/stm32f4xx_hal_dma2d.c **** 
 642:./Libraries/STM32F4xx_HAL_Driver/Src/stm32f4xx_hal_dma2d.c ****    /* Check whether or not a transfer is actually suspended and change the DMA2D state accordingly 
 643:./Libraries/STM32F4xx_HAL_Driver/Src/stm32f4xx_hal_dma2d.c ****   if ((hdma2d->Instance->CR & DMA2D_CR_START) != RESET)
 932              		.loc 1 643 14
 933 006c 7B68     		ldr	r3, [r7, #4]
 934 006e 1B68     		ldr	r3, [r3]
 935              		.loc 1 643 24
 936 0070 1B68     		ldr	r3, [r3]
 937              		.loc 1 643 29
 938 0072 03F00103 		and	r3, r3, #1
 939              		.loc 1 643 6
 940 0076 002B     		cmp	r3, #0
 941 0078 04D0     		beq	.L36
 644:./Libraries/STM32F4xx_HAL_Driver/Src/stm32f4xx_hal_dma2d.c ****   {
 645:./Libraries/STM32F4xx_HAL_Driver/Src/stm32f4xx_hal_dma2d.c ****     hdma2d->State = HAL_DMA2D_STATE_SUSPEND;
 942              		.loc 1 645 19
 943 007a 7B68     		ldr	r3, [r7, #4]
 944 007c 0522     		movs	r2, #5
 945 007e 83F83920 		strb	r2, [r3, #57]
 946 0082 07E0     		b	.L37
 947              	.L36:
 646:./Libraries/STM32F4xx_HAL_Driver/Src/stm32f4xx_hal_dma2d.c ****   }
 647:./Libraries/STM32F4xx_HAL_Driver/Src/stm32f4xx_hal_dma2d.c ****   else
 648:./Libraries/STM32F4xx_HAL_Driver/Src/stm32f4xx_hal_dma2d.c ****   {
 649:./Libraries/STM32F4xx_HAL_Driver/Src/stm32f4xx_hal_dma2d.c ****     /* Make sure SUSP bit is cleared since it is meaningless
 650:./Libraries/STM32F4xx_HAL_Driver/Src/stm32f4xx_hal_dma2d.c ****        when no tranfer is on-going */
 651:./Libraries/STM32F4xx_HAL_Driver/Src/stm32f4xx_hal_dma2d.c ****     CLEAR_BIT(hdma2d->Instance->CR, DMA2D_CR_SUSP);
 948              		.loc 1 651 5
 949 0084 7B68     		ldr	r3, [r7, #4]
 950 0086 1B68     		ldr	r3, [r3]
 951 0088 1A68     		ldr	r2, [r3]
 952 008a 7B68     		ldr	r3, [r7, #4]
ARM GAS  /tmp/ccgPJtk7.s 			page 29


 953 008c 1B68     		ldr	r3, [r3]
 954 008e 22F00202 		bic	r2, r2, #2
 955 0092 1A60     		str	r2, [r3]
 956              	.L37:
 652:./Libraries/STM32F4xx_HAL_Driver/Src/stm32f4xx_hal_dma2d.c ****   }
 653:./Libraries/STM32F4xx_HAL_Driver/Src/stm32f4xx_hal_dma2d.c **** 
 654:./Libraries/STM32F4xx_HAL_Driver/Src/stm32f4xx_hal_dma2d.c ****   return HAL_OK;
 957              		.loc 1 654 10
 958 0094 0023     		movs	r3, #0
 959              	.L33:
 655:./Libraries/STM32F4xx_HAL_Driver/Src/stm32f4xx_hal_dma2d.c **** }
 960              		.loc 1 655 1
 961 0096 1846     		mov	r0, r3
 962 0098 1037     		adds	r7, r7, #16
 963              	.LCFI50:
 964              		.cfi_def_cfa_offset 8
 965 009a BD46     		mov	sp, r7
 966              	.LCFI51:
 967              		.cfi_def_cfa_register 13
 968              		@ sp needed
 969 009c 80BD     		pop	{r7, pc}
 970              		.cfi_endproc
 971              	.LFE135:
 973              		.section	.text.HAL_DMA2D_Resume,"ax",%progbits
 974              		.align	1
 975              		.global	HAL_DMA2D_Resume
 976              		.syntax unified
 977              		.thumb
 978              		.thumb_func
 979              		.fpu fpv4-sp-d16
 981              	HAL_DMA2D_Resume:
 982              	.LFB136:
 656:./Libraries/STM32F4xx_HAL_Driver/Src/stm32f4xx_hal_dma2d.c **** 
 657:./Libraries/STM32F4xx_HAL_Driver/Src/stm32f4xx_hal_dma2d.c **** /**
 658:./Libraries/STM32F4xx_HAL_Driver/Src/stm32f4xx_hal_dma2d.c ****   * @brief  Resume the DMA2D Transfer.
 659:./Libraries/STM32F4xx_HAL_Driver/Src/stm32f4xx_hal_dma2d.c ****   * @param  hdma2d pointer to a DMA2D_HandleTypeDef structure that contains
 660:./Libraries/STM32F4xx_HAL_Driver/Src/stm32f4xx_hal_dma2d.c ****   *                 the configuration information for the DMA2D.
 661:./Libraries/STM32F4xx_HAL_Driver/Src/stm32f4xx_hal_dma2d.c ****   * @retval HAL status
 662:./Libraries/STM32F4xx_HAL_Driver/Src/stm32f4xx_hal_dma2d.c ****   */
 663:./Libraries/STM32F4xx_HAL_Driver/Src/stm32f4xx_hal_dma2d.c **** HAL_StatusTypeDef HAL_DMA2D_Resume(DMA2D_HandleTypeDef *hdma2d)
 664:./Libraries/STM32F4xx_HAL_Driver/Src/stm32f4xx_hal_dma2d.c **** {
 983              		.loc 1 664 1
 984              		.cfi_startproc
 985              		@ args = 0, pretend = 0, frame = 8
 986              		@ frame_needed = 1, uses_anonymous_args = 0
 987              		@ link register save eliminated.
 988 0000 80B4     		push	{r7}
 989              	.LCFI52:
 990              		.cfi_def_cfa_offset 4
 991              		.cfi_offset 7, -4
 992 0002 83B0     		sub	sp, sp, #12
 993              	.LCFI53:
 994              		.cfi_def_cfa_offset 16
 995 0004 00AF     		add	r7, sp, #0
 996              	.LCFI54:
 997              		.cfi_def_cfa_register 7
 998 0006 7860     		str	r0, [r7, #4]
ARM GAS  /tmp/ccgPJtk7.s 			page 30


 665:./Libraries/STM32F4xx_HAL_Driver/Src/stm32f4xx_hal_dma2d.c ****   /* Check the SUSP and START bits */
 666:./Libraries/STM32F4xx_HAL_Driver/Src/stm32f4xx_hal_dma2d.c ****   if((hdma2d->Instance->CR & (DMA2D_CR_SUSP | DMA2D_CR_START)) == (DMA2D_CR_SUSP | DMA2D_CR_START))
 999              		.loc 1 666 13
 1000 0008 7B68     		ldr	r3, [r7, #4]
 1001 000a 1B68     		ldr	r3, [r3]
 1002              		.loc 1 666 23
 1003 000c 1B68     		ldr	r3, [r3]
 1004              		.loc 1 666 28
 1005 000e 03F00303 		and	r3, r3, #3
 1006              		.loc 1 666 5
 1007 0012 032B     		cmp	r3, #3
 1008 0014 03D1     		bne	.L39
 667:./Libraries/STM32F4xx_HAL_Driver/Src/stm32f4xx_hal_dma2d.c ****   {
 668:./Libraries/STM32F4xx_HAL_Driver/Src/stm32f4xx_hal_dma2d.c ****     /* Ongoing transfer is suspended: change the DMA2D state before resuming */
 669:./Libraries/STM32F4xx_HAL_Driver/Src/stm32f4xx_hal_dma2d.c ****     hdma2d->State = HAL_DMA2D_STATE_BUSY;
 1009              		.loc 1 669 19
 1010 0016 7B68     		ldr	r3, [r7, #4]
 1011 0018 0222     		movs	r2, #2
 1012 001a 83F83920 		strb	r2, [r3, #57]
 1013              	.L39:
 670:./Libraries/STM32F4xx_HAL_Driver/Src/stm32f4xx_hal_dma2d.c ****   }
 671:./Libraries/STM32F4xx_HAL_Driver/Src/stm32f4xx_hal_dma2d.c **** 
 672:./Libraries/STM32F4xx_HAL_Driver/Src/stm32f4xx_hal_dma2d.c ****   /* Resume the DMA2D transfer */
 673:./Libraries/STM32F4xx_HAL_Driver/Src/stm32f4xx_hal_dma2d.c ****   /* START bit is reset to make sure not to set it again, in the event the HW clears it
 674:./Libraries/STM32F4xx_HAL_Driver/Src/stm32f4xx_hal_dma2d.c ****      between the register read and the register write by the CPU (writing 0 has no
 675:./Libraries/STM32F4xx_HAL_Driver/Src/stm32f4xx_hal_dma2d.c ****      effect on START bitvalue) */
 676:./Libraries/STM32F4xx_HAL_Driver/Src/stm32f4xx_hal_dma2d.c ****   CLEAR_BIT(hdma2d->Instance->CR, (DMA2D_CR_SUSP|DMA2D_CR_START));
 1014              		.loc 1 676 3
 1015 001e 7B68     		ldr	r3, [r7, #4]
 1016 0020 1B68     		ldr	r3, [r3]
 1017 0022 1A68     		ldr	r2, [r3]
 1018 0024 7B68     		ldr	r3, [r7, #4]
 1019 0026 1B68     		ldr	r3, [r3]
 1020 0028 22F00302 		bic	r2, r2, #3
 1021 002c 1A60     		str	r2, [r3]
 677:./Libraries/STM32F4xx_HAL_Driver/Src/stm32f4xx_hal_dma2d.c **** 
 678:./Libraries/STM32F4xx_HAL_Driver/Src/stm32f4xx_hal_dma2d.c ****   return HAL_OK;
 1022              		.loc 1 678 10
 1023 002e 0023     		movs	r3, #0
 679:./Libraries/STM32F4xx_HAL_Driver/Src/stm32f4xx_hal_dma2d.c **** }
 1024              		.loc 1 679 1
 1025 0030 1846     		mov	r0, r3
 1026 0032 0C37     		adds	r7, r7, #12
 1027              	.LCFI55:
 1028              		.cfi_def_cfa_offset 4
 1029 0034 BD46     		mov	sp, r7
 1030              	.LCFI56:
 1031              		.cfi_def_cfa_register 13
 1032              		@ sp needed
 1033 0036 5DF8047B 		ldr	r7, [sp], #4
 1034              	.LCFI57:
 1035              		.cfi_restore 7
 1036              		.cfi_def_cfa_offset 0
 1037 003a 7047     		bx	lr
 1038              		.cfi_endproc
 1039              	.LFE136:
 1041              		.section	.text.HAL_DMA2D_EnableCLUT,"ax",%progbits
ARM GAS  /tmp/ccgPJtk7.s 			page 31


 1042              		.align	1
 1043              		.global	HAL_DMA2D_EnableCLUT
 1044              		.syntax unified
 1045              		.thumb
 1046              		.thumb_func
 1047              		.fpu fpv4-sp-d16
 1049              	HAL_DMA2D_EnableCLUT:
 1050              	.LFB137:
 680:./Libraries/STM32F4xx_HAL_Driver/Src/stm32f4xx_hal_dma2d.c **** 
 681:./Libraries/STM32F4xx_HAL_Driver/Src/stm32f4xx_hal_dma2d.c **** /**
 682:./Libraries/STM32F4xx_HAL_Driver/Src/stm32f4xx_hal_dma2d.c ****   * @brief  Enable the DMA2D CLUT Transfer.
 683:./Libraries/STM32F4xx_HAL_Driver/Src/stm32f4xx_hal_dma2d.c ****   * @param  hdma2d   Pointer to a DMA2D_HandleTypeDef structure that contains
 684:./Libraries/STM32F4xx_HAL_Driver/Src/stm32f4xx_hal_dma2d.c ****   *                   the configuration information for the DMA2D.
 685:./Libraries/STM32F4xx_HAL_Driver/Src/stm32f4xx_hal_dma2d.c ****   * @param  LayerIdx DMA2D Layer index.
 686:./Libraries/STM32F4xx_HAL_Driver/Src/stm32f4xx_hal_dma2d.c ****   *                   This parameter can be one of the following values:
 687:./Libraries/STM32F4xx_HAL_Driver/Src/stm32f4xx_hal_dma2d.c ****   *                   0(background) / 1(foreground)
 688:./Libraries/STM32F4xx_HAL_Driver/Src/stm32f4xx_hal_dma2d.c ****   * @retval HAL status
 689:./Libraries/STM32F4xx_HAL_Driver/Src/stm32f4xx_hal_dma2d.c ****   */
 690:./Libraries/STM32F4xx_HAL_Driver/Src/stm32f4xx_hal_dma2d.c **** HAL_StatusTypeDef HAL_DMA2D_EnableCLUT(DMA2D_HandleTypeDef *hdma2d, uint32_t LayerIdx)
 691:./Libraries/STM32F4xx_HAL_Driver/Src/stm32f4xx_hal_dma2d.c **** {
 1051              		.loc 1 691 1
 1052              		.cfi_startproc
 1053              		@ args = 0, pretend = 0, frame = 8
 1054              		@ frame_needed = 1, uses_anonymous_args = 0
 1055              		@ link register save eliminated.
 1056 0000 80B4     		push	{r7}
 1057              	.LCFI58:
 1058              		.cfi_def_cfa_offset 4
 1059              		.cfi_offset 7, -4
 1060 0002 83B0     		sub	sp, sp, #12
 1061              	.LCFI59:
 1062              		.cfi_def_cfa_offset 16
 1063 0004 00AF     		add	r7, sp, #0
 1064              	.LCFI60:
 1065              		.cfi_def_cfa_register 7
 1066 0006 7860     		str	r0, [r7, #4]
 1067 0008 3960     		str	r1, [r7]
 692:./Libraries/STM32F4xx_HAL_Driver/Src/stm32f4xx_hal_dma2d.c ****   /* Check the parameters */
 693:./Libraries/STM32F4xx_HAL_Driver/Src/stm32f4xx_hal_dma2d.c ****   assert_param(IS_DMA2D_LAYER(LayerIdx));
 694:./Libraries/STM32F4xx_HAL_Driver/Src/stm32f4xx_hal_dma2d.c **** 
 695:./Libraries/STM32F4xx_HAL_Driver/Src/stm32f4xx_hal_dma2d.c ****   /* Process locked */
 696:./Libraries/STM32F4xx_HAL_Driver/Src/stm32f4xx_hal_dma2d.c ****   __HAL_LOCK(hdma2d);
 1068              		.loc 1 696 3
 1069 000a 7B68     		ldr	r3, [r7, #4]
 1070 000c 93F83830 		ldrb	r3, [r3, #56]	@ zero_extendqisi2
 1071 0010 012B     		cmp	r3, #1
 1072 0012 01D1     		bne	.L42
 1073              		.loc 1 696 3 is_stmt 0 discriminator 1
 1074 0014 0223     		movs	r3, #2
 1075 0016 1CE0     		b	.L43
 1076              	.L42:
 1077              		.loc 1 696 3 discriminator 2
 1078 0018 7B68     		ldr	r3, [r7, #4]
 1079 001a 0122     		movs	r2, #1
 1080 001c 83F83820 		strb	r2, [r3, #56]
 697:./Libraries/STM32F4xx_HAL_Driver/Src/stm32f4xx_hal_dma2d.c **** 
 698:./Libraries/STM32F4xx_HAL_Driver/Src/stm32f4xx_hal_dma2d.c ****   /* Change DMA2D peripheral state */
ARM GAS  /tmp/ccgPJtk7.s 			page 32


 699:./Libraries/STM32F4xx_HAL_Driver/Src/stm32f4xx_hal_dma2d.c ****   hdma2d->State = HAL_DMA2D_STATE_BUSY;
 1081              		.loc 1 699 17 is_stmt 1 discriminator 2
 1082 0020 7B68     		ldr	r3, [r7, #4]
 1083 0022 0222     		movs	r2, #2
 1084 0024 83F83920 		strb	r2, [r3, #57]
 700:./Libraries/STM32F4xx_HAL_Driver/Src/stm32f4xx_hal_dma2d.c **** 
 701:./Libraries/STM32F4xx_HAL_Driver/Src/stm32f4xx_hal_dma2d.c ****   if(LayerIdx == 0U)
 1085              		.loc 1 701 5 discriminator 2
 1086 0028 3B68     		ldr	r3, [r7]
 1087 002a 002B     		cmp	r3, #0
 1088 002c 08D1     		bne	.L44
 702:./Libraries/STM32F4xx_HAL_Driver/Src/stm32f4xx_hal_dma2d.c ****   {
 703:./Libraries/STM32F4xx_HAL_Driver/Src/stm32f4xx_hal_dma2d.c ****     /* Enable the background CLUT loading */
 704:./Libraries/STM32F4xx_HAL_Driver/Src/stm32f4xx_hal_dma2d.c ****     SET_BIT(hdma2d->Instance->BGPFCCR, DMA2D_BGPFCCR_START);
 1089              		.loc 1 704 5
 1090 002e 7B68     		ldr	r3, [r7, #4]
 1091 0030 1B68     		ldr	r3, [r3]
 1092 0032 5A6A     		ldr	r2, [r3, #36]
 1093 0034 7B68     		ldr	r3, [r7, #4]
 1094 0036 1B68     		ldr	r3, [r3]
 1095 0038 42F02002 		orr	r2, r2, #32
 1096 003c 5A62     		str	r2, [r3, #36]
 1097 003e 07E0     		b	.L45
 1098              	.L44:
 705:./Libraries/STM32F4xx_HAL_Driver/Src/stm32f4xx_hal_dma2d.c ****   }
 706:./Libraries/STM32F4xx_HAL_Driver/Src/stm32f4xx_hal_dma2d.c ****   else
 707:./Libraries/STM32F4xx_HAL_Driver/Src/stm32f4xx_hal_dma2d.c ****   {
 708:./Libraries/STM32F4xx_HAL_Driver/Src/stm32f4xx_hal_dma2d.c ****     /* Enable the foreground CLUT loading */
 709:./Libraries/STM32F4xx_HAL_Driver/Src/stm32f4xx_hal_dma2d.c ****     SET_BIT(hdma2d->Instance->FGPFCCR, DMA2D_FGPFCCR_START);
 1099              		.loc 1 709 5
 1100 0040 7B68     		ldr	r3, [r7, #4]
 1101 0042 1B68     		ldr	r3, [r3]
 1102 0044 DA69     		ldr	r2, [r3, #28]
 1103 0046 7B68     		ldr	r3, [r7, #4]
 1104 0048 1B68     		ldr	r3, [r3]
 1105 004a 42F02002 		orr	r2, r2, #32
 1106 004e DA61     		str	r2, [r3, #28]
 1107              	.L45:
 710:./Libraries/STM32F4xx_HAL_Driver/Src/stm32f4xx_hal_dma2d.c ****   }
 711:./Libraries/STM32F4xx_HAL_Driver/Src/stm32f4xx_hal_dma2d.c **** 
 712:./Libraries/STM32F4xx_HAL_Driver/Src/stm32f4xx_hal_dma2d.c ****   return HAL_OK;
 1108              		.loc 1 712 10
 1109 0050 0023     		movs	r3, #0
 1110              	.L43:
 713:./Libraries/STM32F4xx_HAL_Driver/Src/stm32f4xx_hal_dma2d.c **** }
 1111              		.loc 1 713 1
 1112 0052 1846     		mov	r0, r3
 1113 0054 0C37     		adds	r7, r7, #12
 1114              	.LCFI61:
 1115              		.cfi_def_cfa_offset 4
 1116 0056 BD46     		mov	sp, r7
 1117              	.LCFI62:
 1118              		.cfi_def_cfa_register 13
 1119              		@ sp needed
 1120 0058 5DF8047B 		ldr	r7, [sp], #4
 1121              	.LCFI63:
 1122              		.cfi_restore 7
ARM GAS  /tmp/ccgPJtk7.s 			page 33


 1123              		.cfi_def_cfa_offset 0
 1124 005c 7047     		bx	lr
 1125              		.cfi_endproc
 1126              	.LFE137:
 1128              		.section	.text.HAL_DMA2D_CLUTLoad,"ax",%progbits
 1129              		.align	1
 1130              		.global	HAL_DMA2D_CLUTLoad
 1131              		.syntax unified
 1132              		.thumb
 1133              		.thumb_func
 1134              		.fpu fpv4-sp-d16
 1136              	HAL_DMA2D_CLUTLoad:
 1137              	.LFB138:
 714:./Libraries/STM32F4xx_HAL_Driver/Src/stm32f4xx_hal_dma2d.c **** 
 715:./Libraries/STM32F4xx_HAL_Driver/Src/stm32f4xx_hal_dma2d.c **** /**
 716:./Libraries/STM32F4xx_HAL_Driver/Src/stm32f4xx_hal_dma2d.c ****   * @brief  Start DMA2D CLUT Loading.
 717:./Libraries/STM32F4xx_HAL_Driver/Src/stm32f4xx_hal_dma2d.c ****   * @param  hdma2d   Pointer to a DMA2D_HandleTypeDef structure that contains
 718:./Libraries/STM32F4xx_HAL_Driver/Src/stm32f4xx_hal_dma2d.c ****   *                   the configuration information for the DMA2D.
 719:./Libraries/STM32F4xx_HAL_Driver/Src/stm32f4xx_hal_dma2d.c ****   * @param  CLUTCfg  Pointer to a DMA2D_CLUTCfgTypeDef structure that contains
 720:./Libraries/STM32F4xx_HAL_Driver/Src/stm32f4xx_hal_dma2d.c ****   *                   the configuration information for the color look up table.
 721:./Libraries/STM32F4xx_HAL_Driver/Src/stm32f4xx_hal_dma2d.c ****   * @param  LayerIdx DMA2D Layer index.
 722:./Libraries/STM32F4xx_HAL_Driver/Src/stm32f4xx_hal_dma2d.c ****   *                   This parameter can be one of the following values:
 723:./Libraries/STM32F4xx_HAL_Driver/Src/stm32f4xx_hal_dma2d.c ****   *                   0(background) / 1(foreground)
 724:./Libraries/STM32F4xx_HAL_Driver/Src/stm32f4xx_hal_dma2d.c ****   * @note Invoking this API is similar to calling HAL_DMA2D_ConfigCLUT() then HAL_DMA2D_EnableCLUT(
 725:./Libraries/STM32F4xx_HAL_Driver/Src/stm32f4xx_hal_dma2d.c ****   * @retval HAL status
 726:./Libraries/STM32F4xx_HAL_Driver/Src/stm32f4xx_hal_dma2d.c ****   */
 727:./Libraries/STM32F4xx_HAL_Driver/Src/stm32f4xx_hal_dma2d.c **** HAL_StatusTypeDef HAL_DMA2D_CLUTLoad(DMA2D_HandleTypeDef *hdma2d, DMA2D_CLUTCfgTypeDef CLUTCfg, uin
 728:./Libraries/STM32F4xx_HAL_Driver/Src/stm32f4xx_hal_dma2d.c **** {
 1138              		.loc 1 728 1
 1139              		.cfi_startproc
 1140              		@ args = 4, pretend = 0, frame = 16
 1141              		@ frame_needed = 1, uses_anonymous_args = 0
 1142              		@ link register save eliminated.
 1143 0000 80B4     		push	{r7}
 1144              	.LCFI64:
 1145              		.cfi_def_cfa_offset 4
 1146              		.cfi_offset 7, -4
 1147 0002 85B0     		sub	sp, sp, #20
 1148              	.LCFI65:
 1149              		.cfi_def_cfa_offset 24
 1150 0004 00AF     		add	r7, sp, #0
 1151              	.LCFI66:
 1152              		.cfi_def_cfa_register 7
 1153 0006 F860     		str	r0, [r7, #12]
 1154 0008 3846     		mov	r0, r7
 1155 000a 80E80E00 		stm	r0, {r1, r2, r3}
 729:./Libraries/STM32F4xx_HAL_Driver/Src/stm32f4xx_hal_dma2d.c ****   /* Check the parameters */
 730:./Libraries/STM32F4xx_HAL_Driver/Src/stm32f4xx_hal_dma2d.c ****   assert_param(IS_DMA2D_LAYER(LayerIdx));
 731:./Libraries/STM32F4xx_HAL_Driver/Src/stm32f4xx_hal_dma2d.c ****   assert_param(IS_DMA2D_CLUT_CM(CLUTCfg.CLUTColorMode));
 732:./Libraries/STM32F4xx_HAL_Driver/Src/stm32f4xx_hal_dma2d.c ****   assert_param(IS_DMA2D_CLUT_SIZE(CLUTCfg.Size));
 733:./Libraries/STM32F4xx_HAL_Driver/Src/stm32f4xx_hal_dma2d.c **** 
 734:./Libraries/STM32F4xx_HAL_Driver/Src/stm32f4xx_hal_dma2d.c ****   /* Process locked */
 735:./Libraries/STM32F4xx_HAL_Driver/Src/stm32f4xx_hal_dma2d.c ****   __HAL_LOCK(hdma2d);
 1156              		.loc 1 735 3
 1157 000e FB68     		ldr	r3, [r7, #12]
 1158 0010 93F83830 		ldrb	r3, [r3, #56]	@ zero_extendqisi2
 1159 0014 012B     		cmp	r3, #1
ARM GAS  /tmp/ccgPJtk7.s 			page 34


 1160 0016 01D1     		bne	.L47
 1161              		.loc 1 735 3 is_stmt 0 discriminator 1
 1162 0018 0223     		movs	r3, #2
 1163 001a 44E0     		b	.L48
 1164              	.L47:
 1165              		.loc 1 735 3 discriminator 2
 1166 001c FB68     		ldr	r3, [r7, #12]
 1167 001e 0122     		movs	r2, #1
 1168 0020 83F83820 		strb	r2, [r3, #56]
 736:./Libraries/STM32F4xx_HAL_Driver/Src/stm32f4xx_hal_dma2d.c **** 
 737:./Libraries/STM32F4xx_HAL_Driver/Src/stm32f4xx_hal_dma2d.c ****   /* Change DMA2D peripheral state */
 738:./Libraries/STM32F4xx_HAL_Driver/Src/stm32f4xx_hal_dma2d.c ****   hdma2d->State = HAL_DMA2D_STATE_BUSY;
 1169              		.loc 1 738 17 is_stmt 1 discriminator 2
 1170 0024 FB68     		ldr	r3, [r7, #12]
 1171 0026 0222     		movs	r2, #2
 1172 0028 83F83920 		strb	r2, [r3, #57]
 739:./Libraries/STM32F4xx_HAL_Driver/Src/stm32f4xx_hal_dma2d.c **** 
 740:./Libraries/STM32F4xx_HAL_Driver/Src/stm32f4xx_hal_dma2d.c ****   /* Configure the CLUT of the background DMA2D layer */
 741:./Libraries/STM32F4xx_HAL_Driver/Src/stm32f4xx_hal_dma2d.c ****   if(LayerIdx == 0U)
 1173              		.loc 1 741 5 discriminator 2
 1174 002c BB69     		ldr	r3, [r7, #24]
 1175 002e 002B     		cmp	r3, #0
 1176 0030 1CD1     		bne	.L49
 742:./Libraries/STM32F4xx_HAL_Driver/Src/stm32f4xx_hal_dma2d.c ****   {
 743:./Libraries/STM32F4xx_HAL_Driver/Src/stm32f4xx_hal_dma2d.c ****     /* Write background CLUT memory address */
 744:./Libraries/STM32F4xx_HAL_Driver/Src/stm32f4xx_hal_dma2d.c ****     WRITE_REG(hdma2d->Instance->BGCMAR, (uint32_t)CLUTCfg.pCLUT);
 1177              		.loc 1 744 5
 1178 0032 3A68     		ldr	r2, [r7]
 1179 0034 FB68     		ldr	r3, [r7, #12]
 1180 0036 1B68     		ldr	r3, [r3]
 1181 0038 1A63     		str	r2, [r3, #48]
 745:./Libraries/STM32F4xx_HAL_Driver/Src/stm32f4xx_hal_dma2d.c **** 
 746:./Libraries/STM32F4xx_HAL_Driver/Src/stm32f4xx_hal_dma2d.c ****     /* Write background CLUT size and CLUT color mode */
 747:./Libraries/STM32F4xx_HAL_Driver/Src/stm32f4xx_hal_dma2d.c ****     MODIFY_REG(hdma2d->Instance->BGPFCCR, (DMA2D_BGPFCCR_CS | DMA2D_BGPFCCR_CCM),
 1182              		.loc 1 747 5
 1183 003a FB68     		ldr	r3, [r7, #12]
 1184 003c 1B68     		ldr	r3, [r3]
 1185 003e 5B6A     		ldr	r3, [r3, #36]
 1186 0040 23F47F43 		bic	r3, r3, #65280
 1187 0044 23F01003 		bic	r3, r3, #16
 1188 0048 BA68     		ldr	r2, [r7, #8]
 1189 004a 1102     		lsls	r1, r2, #8
 1190 004c 7A68     		ldr	r2, [r7, #4]
 1191 004e 1201     		lsls	r2, r2, #4
 1192 0050 1143     		orrs	r1, r1, r2
 1193 0052 FA68     		ldr	r2, [r7, #12]
 1194 0054 1268     		ldr	r2, [r2]
 1195 0056 0B43     		orrs	r3, r3, r1
 1196 0058 5362     		str	r3, [r2, #36]
 748:./Libraries/STM32F4xx_HAL_Driver/Src/stm32f4xx_hal_dma2d.c ****             ((CLUTCfg.Size << DMA2D_POSITION_BGPFCCR_CS) | (CLUTCfg.CLUTColorMode << DMA2D_POSITION
 749:./Libraries/STM32F4xx_HAL_Driver/Src/stm32f4xx_hal_dma2d.c **** 
 750:./Libraries/STM32F4xx_HAL_Driver/Src/stm32f4xx_hal_dma2d.c ****     /* Enable the CLUT loading for the background */
 751:./Libraries/STM32F4xx_HAL_Driver/Src/stm32f4xx_hal_dma2d.c ****     SET_BIT(hdma2d->Instance->BGPFCCR, DMA2D_BGPFCCR_START);
 1197              		.loc 1 751 5
 1198 005a FB68     		ldr	r3, [r7, #12]
 1199 005c 1B68     		ldr	r3, [r3]
 1200 005e 5A6A     		ldr	r2, [r3, #36]
ARM GAS  /tmp/ccgPJtk7.s 			page 35


 1201 0060 FB68     		ldr	r3, [r7, #12]
 1202 0062 1B68     		ldr	r3, [r3]
 1203 0064 42F02002 		orr	r2, r2, #32
 1204 0068 5A62     		str	r2, [r3, #36]
 1205 006a 1BE0     		b	.L50
 1206              	.L49:
 752:./Libraries/STM32F4xx_HAL_Driver/Src/stm32f4xx_hal_dma2d.c ****   }
 753:./Libraries/STM32F4xx_HAL_Driver/Src/stm32f4xx_hal_dma2d.c ****   /* Configure the CLUT of the foreground DMA2D layer */
 754:./Libraries/STM32F4xx_HAL_Driver/Src/stm32f4xx_hal_dma2d.c ****   else
 755:./Libraries/STM32F4xx_HAL_Driver/Src/stm32f4xx_hal_dma2d.c ****   {
 756:./Libraries/STM32F4xx_HAL_Driver/Src/stm32f4xx_hal_dma2d.c ****     /* Write foreground CLUT memory address */
 757:./Libraries/STM32F4xx_HAL_Driver/Src/stm32f4xx_hal_dma2d.c ****     WRITE_REG(hdma2d->Instance->FGCMAR, (uint32_t)CLUTCfg.pCLUT);
 1207              		.loc 1 757 5
 1208 006c 3A68     		ldr	r2, [r7]
 1209 006e FB68     		ldr	r3, [r7, #12]
 1210 0070 1B68     		ldr	r3, [r3]
 1211 0072 DA62     		str	r2, [r3, #44]
 758:./Libraries/STM32F4xx_HAL_Driver/Src/stm32f4xx_hal_dma2d.c **** 
 759:./Libraries/STM32F4xx_HAL_Driver/Src/stm32f4xx_hal_dma2d.c ****     /* Write foreground CLUT size and CLUT color mode */
 760:./Libraries/STM32F4xx_HAL_Driver/Src/stm32f4xx_hal_dma2d.c ****     MODIFY_REG(hdma2d->Instance->FGPFCCR, (DMA2D_FGPFCCR_CS | DMA2D_FGPFCCR_CCM),
 1212              		.loc 1 760 5
 1213 0074 FB68     		ldr	r3, [r7, #12]
 1214 0076 1B68     		ldr	r3, [r3]
 1215 0078 DB69     		ldr	r3, [r3, #28]
 1216 007a 23F47F43 		bic	r3, r3, #65280
 1217 007e 23F01003 		bic	r3, r3, #16
 1218 0082 BA68     		ldr	r2, [r7, #8]
 1219 0084 1102     		lsls	r1, r2, #8
 1220 0086 7A68     		ldr	r2, [r7, #4]
 1221 0088 1201     		lsls	r2, r2, #4
 1222 008a 1143     		orrs	r1, r1, r2
 1223 008c FA68     		ldr	r2, [r7, #12]
 1224 008e 1268     		ldr	r2, [r2]
 1225 0090 0B43     		orrs	r3, r3, r1
 1226 0092 D361     		str	r3, [r2, #28]
 761:./Libraries/STM32F4xx_HAL_Driver/Src/stm32f4xx_hal_dma2d.c ****               ((CLUTCfg.Size << DMA2D_POSITION_BGPFCCR_CS) | (CLUTCfg.CLUTColorMode << DMA2D_POSITI
 762:./Libraries/STM32F4xx_HAL_Driver/Src/stm32f4xx_hal_dma2d.c **** 
 763:./Libraries/STM32F4xx_HAL_Driver/Src/stm32f4xx_hal_dma2d.c ****  /* Enable the CLUT loading for the foreground */
 764:./Libraries/STM32F4xx_HAL_Driver/Src/stm32f4xx_hal_dma2d.c ****     SET_BIT(hdma2d->Instance->FGPFCCR, DMA2D_FGPFCCR_START);
 1227              		.loc 1 764 5
 1228 0094 FB68     		ldr	r3, [r7, #12]
 1229 0096 1B68     		ldr	r3, [r3]
 1230 0098 DA69     		ldr	r2, [r3, #28]
 1231 009a FB68     		ldr	r3, [r7, #12]
 1232 009c 1B68     		ldr	r3, [r3]
 1233 009e 42F02002 		orr	r2, r2, #32
 1234 00a2 DA61     		str	r2, [r3, #28]
 1235              	.L50:
 765:./Libraries/STM32F4xx_HAL_Driver/Src/stm32f4xx_hal_dma2d.c ****   }
 766:./Libraries/STM32F4xx_HAL_Driver/Src/stm32f4xx_hal_dma2d.c **** 
 767:./Libraries/STM32F4xx_HAL_Driver/Src/stm32f4xx_hal_dma2d.c ****   return HAL_OK;
 1236              		.loc 1 767 10
 1237 00a4 0023     		movs	r3, #0
 1238              	.L48:
 768:./Libraries/STM32F4xx_HAL_Driver/Src/stm32f4xx_hal_dma2d.c **** }
 1239              		.loc 1 768 1
 1240 00a6 1846     		mov	r0, r3
ARM GAS  /tmp/ccgPJtk7.s 			page 36


 1241 00a8 1437     		adds	r7, r7, #20
 1242              	.LCFI67:
 1243              		.cfi_def_cfa_offset 4
 1244 00aa BD46     		mov	sp, r7
 1245              	.LCFI68:
 1246              		.cfi_def_cfa_register 13
 1247              		@ sp needed
 1248 00ac 5DF8047B 		ldr	r7, [sp], #4
 1249              	.LCFI69:
 1250              		.cfi_restore 7
 1251              		.cfi_def_cfa_offset 0
 1252 00b0 7047     		bx	lr
 1253              		.cfi_endproc
 1254              	.LFE138:
 1256              		.section	.text.HAL_DMA2D_CLUTLoad_IT,"ax",%progbits
 1257              		.align	1
 1258              		.global	HAL_DMA2D_CLUTLoad_IT
 1259              		.syntax unified
 1260              		.thumb
 1261              		.thumb_func
 1262              		.fpu fpv4-sp-d16
 1264              	HAL_DMA2D_CLUTLoad_IT:
 1265              	.LFB139:
 769:./Libraries/STM32F4xx_HAL_Driver/Src/stm32f4xx_hal_dma2d.c **** 
 770:./Libraries/STM32F4xx_HAL_Driver/Src/stm32f4xx_hal_dma2d.c **** /**
 771:./Libraries/STM32F4xx_HAL_Driver/Src/stm32f4xx_hal_dma2d.c ****   * @brief  Start DMA2D CLUT Loading with interrupt enabled.
 772:./Libraries/STM32F4xx_HAL_Driver/Src/stm32f4xx_hal_dma2d.c ****   * @param  hdma2d   Pointer to a DMA2D_HandleTypeDef structure that contains
 773:./Libraries/STM32F4xx_HAL_Driver/Src/stm32f4xx_hal_dma2d.c ****   *                   the configuration information for the DMA2D.
 774:./Libraries/STM32F4xx_HAL_Driver/Src/stm32f4xx_hal_dma2d.c ****   * @param  CLUTCfg  Pointer to a DMA2D_CLUTCfgTypeDef structure that contains
 775:./Libraries/STM32F4xx_HAL_Driver/Src/stm32f4xx_hal_dma2d.c ****   *                   the configuration information for the color look up table.
 776:./Libraries/STM32F4xx_HAL_Driver/Src/stm32f4xx_hal_dma2d.c ****   * @param  LayerIdx DMA2D Layer index.
 777:./Libraries/STM32F4xx_HAL_Driver/Src/stm32f4xx_hal_dma2d.c ****   *                   This parameter can be one of the following values:
 778:./Libraries/STM32F4xx_HAL_Driver/Src/stm32f4xx_hal_dma2d.c ****   *                   0(background) / 1(foreground)
 779:./Libraries/STM32F4xx_HAL_Driver/Src/stm32f4xx_hal_dma2d.c ****   * @retval HAL status
 780:./Libraries/STM32F4xx_HAL_Driver/Src/stm32f4xx_hal_dma2d.c ****   */
 781:./Libraries/STM32F4xx_HAL_Driver/Src/stm32f4xx_hal_dma2d.c **** HAL_StatusTypeDef HAL_DMA2D_CLUTLoad_IT(DMA2D_HandleTypeDef *hdma2d, DMA2D_CLUTCfgTypeDef CLUTCfg, 
 782:./Libraries/STM32F4xx_HAL_Driver/Src/stm32f4xx_hal_dma2d.c **** {
 1266              		.loc 1 782 1
 1267              		.cfi_startproc
 1268              		@ args = 4, pretend = 0, frame = 16
 1269              		@ frame_needed = 1, uses_anonymous_args = 0
 1270              		@ link register save eliminated.
 1271 0000 80B4     		push	{r7}
 1272              	.LCFI70:
 1273              		.cfi_def_cfa_offset 4
 1274              		.cfi_offset 7, -4
 1275 0002 85B0     		sub	sp, sp, #20
 1276              	.LCFI71:
 1277              		.cfi_def_cfa_offset 24
 1278 0004 00AF     		add	r7, sp, #0
 1279              	.LCFI72:
 1280              		.cfi_def_cfa_register 7
 1281 0006 F860     		str	r0, [r7, #12]
 1282 0008 3846     		mov	r0, r7
 1283 000a 80E80E00 		stm	r0, {r1, r2, r3}
 783:./Libraries/STM32F4xx_HAL_Driver/Src/stm32f4xx_hal_dma2d.c ****   /* Check the parameters */
 784:./Libraries/STM32F4xx_HAL_Driver/Src/stm32f4xx_hal_dma2d.c ****   assert_param(IS_DMA2D_LAYER(LayerIdx));
ARM GAS  /tmp/ccgPJtk7.s 			page 37


 785:./Libraries/STM32F4xx_HAL_Driver/Src/stm32f4xx_hal_dma2d.c ****   assert_param(IS_DMA2D_CLUT_CM(CLUTCfg.CLUTColorMode));
 786:./Libraries/STM32F4xx_HAL_Driver/Src/stm32f4xx_hal_dma2d.c ****   assert_param(IS_DMA2D_CLUT_SIZE(CLUTCfg.Size));
 787:./Libraries/STM32F4xx_HAL_Driver/Src/stm32f4xx_hal_dma2d.c **** 
 788:./Libraries/STM32F4xx_HAL_Driver/Src/stm32f4xx_hal_dma2d.c ****   /* Process locked */
 789:./Libraries/STM32F4xx_HAL_Driver/Src/stm32f4xx_hal_dma2d.c ****   __HAL_LOCK(hdma2d);
 1284              		.loc 1 789 3
 1285 000e FB68     		ldr	r3, [r7, #12]
 1286 0010 93F83830 		ldrb	r3, [r3, #56]	@ zero_extendqisi2
 1287 0014 012B     		cmp	r3, #1
 1288 0016 01D1     		bne	.L52
 1289              		.loc 1 789 3 is_stmt 0 discriminator 1
 1290 0018 0223     		movs	r3, #2
 1291 001a 54E0     		b	.L53
 1292              	.L52:
 1293              		.loc 1 789 3 discriminator 2
 1294 001c FB68     		ldr	r3, [r7, #12]
 1295 001e 0122     		movs	r2, #1
 1296 0020 83F83820 		strb	r2, [r3, #56]
 790:./Libraries/STM32F4xx_HAL_Driver/Src/stm32f4xx_hal_dma2d.c **** 
 791:./Libraries/STM32F4xx_HAL_Driver/Src/stm32f4xx_hal_dma2d.c ****   /* Change DMA2D peripheral state */
 792:./Libraries/STM32F4xx_HAL_Driver/Src/stm32f4xx_hal_dma2d.c ****   hdma2d->State = HAL_DMA2D_STATE_BUSY;
 1297              		.loc 1 792 17 is_stmt 1 discriminator 2
 1298 0024 FB68     		ldr	r3, [r7, #12]
 1299 0026 0222     		movs	r2, #2
 1300 0028 83F83920 		strb	r2, [r3, #57]
 793:./Libraries/STM32F4xx_HAL_Driver/Src/stm32f4xx_hal_dma2d.c **** 
 794:./Libraries/STM32F4xx_HAL_Driver/Src/stm32f4xx_hal_dma2d.c ****   /* Configure the CLUT of the background DMA2D layer */
 795:./Libraries/STM32F4xx_HAL_Driver/Src/stm32f4xx_hal_dma2d.c ****   if(LayerIdx == 0U)
 1301              		.loc 1 795 5 discriminator 2
 1302 002c BB69     		ldr	r3, [r7, #24]
 1303 002e 002B     		cmp	r3, #0
 1304 0030 24D1     		bne	.L54
 796:./Libraries/STM32F4xx_HAL_Driver/Src/stm32f4xx_hal_dma2d.c ****   {
 797:./Libraries/STM32F4xx_HAL_Driver/Src/stm32f4xx_hal_dma2d.c ****     /* Write background CLUT memory address */
 798:./Libraries/STM32F4xx_HAL_Driver/Src/stm32f4xx_hal_dma2d.c ****     WRITE_REG(hdma2d->Instance->BGCMAR, (uint32_t)CLUTCfg.pCLUT);
 1305              		.loc 1 798 5
 1306 0032 3A68     		ldr	r2, [r7]
 1307 0034 FB68     		ldr	r3, [r7, #12]
 1308 0036 1B68     		ldr	r3, [r3]
 1309 0038 1A63     		str	r2, [r3, #48]
 799:./Libraries/STM32F4xx_HAL_Driver/Src/stm32f4xx_hal_dma2d.c **** 
 800:./Libraries/STM32F4xx_HAL_Driver/Src/stm32f4xx_hal_dma2d.c ****     /* Write background CLUT size and CLUT color mode */
 801:./Libraries/STM32F4xx_HAL_Driver/Src/stm32f4xx_hal_dma2d.c ****     MODIFY_REG(hdma2d->Instance->BGPFCCR, (DMA2D_BGPFCCR_CS | DMA2D_BGPFCCR_CCM),
 1310              		.loc 1 801 5
 1311 003a FB68     		ldr	r3, [r7, #12]
 1312 003c 1B68     		ldr	r3, [r3]
 1313 003e 5B6A     		ldr	r3, [r3, #36]
 1314 0040 23F47F43 		bic	r3, r3, #65280
 1315 0044 23F01003 		bic	r3, r3, #16
 1316 0048 BA68     		ldr	r2, [r7, #8]
 1317 004a 1102     		lsls	r1, r2, #8
 1318 004c 7A68     		ldr	r2, [r7, #4]
 1319 004e 1201     		lsls	r2, r2, #4
 1320 0050 1143     		orrs	r1, r1, r2
 1321 0052 FA68     		ldr	r2, [r7, #12]
 1322 0054 1268     		ldr	r2, [r2]
 1323 0056 0B43     		orrs	r3, r3, r1
ARM GAS  /tmp/ccgPJtk7.s 			page 38


 1324 0058 5362     		str	r3, [r2, #36]
 802:./Libraries/STM32F4xx_HAL_Driver/Src/stm32f4xx_hal_dma2d.c ****             ((CLUTCfg.Size << DMA2D_POSITION_BGPFCCR_CS) | (CLUTCfg.CLUTColorMode << DMA2D_POSITION
 803:./Libraries/STM32F4xx_HAL_Driver/Src/stm32f4xx_hal_dma2d.c **** 
 804:./Libraries/STM32F4xx_HAL_Driver/Src/stm32f4xx_hal_dma2d.c ****     /* Enable the CLUT Transfer Complete, transfer Error, configuration Error and CLUT Access Error
 805:./Libraries/STM32F4xx_HAL_Driver/Src/stm32f4xx_hal_dma2d.c ****     __HAL_DMA2D_ENABLE_IT(hdma2d, DMA2D_IT_CTC | DMA2D_IT_TE | DMA2D_IT_CE |DMA2D_IT_CAE);
 1325              		.loc 1 805 5
 1326 005a FB68     		ldr	r3, [r7, #12]
 1327 005c 1B68     		ldr	r3, [r3]
 1328 005e 1A68     		ldr	r2, [r3]
 1329 0060 FB68     		ldr	r3, [r7, #12]
 1330 0062 1B68     		ldr	r3, [r3]
 1331 0064 42F46452 		orr	r2, r2, #14592
 1332 0068 1A60     		str	r2, [r3]
 806:./Libraries/STM32F4xx_HAL_Driver/Src/stm32f4xx_hal_dma2d.c **** 
 807:./Libraries/STM32F4xx_HAL_Driver/Src/stm32f4xx_hal_dma2d.c ****     /* Enable the CLUT loading for the background */
 808:./Libraries/STM32F4xx_HAL_Driver/Src/stm32f4xx_hal_dma2d.c ****     SET_BIT(hdma2d->Instance->BGPFCCR, DMA2D_BGPFCCR_START);
 1333              		.loc 1 808 5
 1334 006a FB68     		ldr	r3, [r7, #12]
 1335 006c 1B68     		ldr	r3, [r3]
 1336 006e 5A6A     		ldr	r2, [r3, #36]
 1337 0070 FB68     		ldr	r3, [r7, #12]
 1338 0072 1B68     		ldr	r3, [r3]
 1339 0074 42F02002 		orr	r2, r2, #32
 1340 0078 5A62     		str	r2, [r3, #36]
 1341 007a 23E0     		b	.L55
 1342              	.L54:
 809:./Libraries/STM32F4xx_HAL_Driver/Src/stm32f4xx_hal_dma2d.c ****   }
 810:./Libraries/STM32F4xx_HAL_Driver/Src/stm32f4xx_hal_dma2d.c ****   /* Configure the CLUT of the foreground DMA2D layer */
 811:./Libraries/STM32F4xx_HAL_Driver/Src/stm32f4xx_hal_dma2d.c ****   else
 812:./Libraries/STM32F4xx_HAL_Driver/Src/stm32f4xx_hal_dma2d.c ****   {
 813:./Libraries/STM32F4xx_HAL_Driver/Src/stm32f4xx_hal_dma2d.c ****     /* Write foreground CLUT memory address */
 814:./Libraries/STM32F4xx_HAL_Driver/Src/stm32f4xx_hal_dma2d.c ****     WRITE_REG(hdma2d->Instance->FGCMAR, (uint32_t)CLUTCfg.pCLUT);
 1343              		.loc 1 814 5
 1344 007c 3A68     		ldr	r2, [r7]
 1345 007e FB68     		ldr	r3, [r7, #12]
 1346 0080 1B68     		ldr	r3, [r3]
 1347 0082 DA62     		str	r2, [r3, #44]
 815:./Libraries/STM32F4xx_HAL_Driver/Src/stm32f4xx_hal_dma2d.c **** 
 816:./Libraries/STM32F4xx_HAL_Driver/Src/stm32f4xx_hal_dma2d.c ****     /* Write foreground CLUT size and CLUT color mode */
 817:./Libraries/STM32F4xx_HAL_Driver/Src/stm32f4xx_hal_dma2d.c ****     MODIFY_REG(hdma2d->Instance->FGPFCCR, (DMA2D_FGPFCCR_CS | DMA2D_FGPFCCR_CCM),
 1348              		.loc 1 817 5
 1349 0084 FB68     		ldr	r3, [r7, #12]
 1350 0086 1B68     		ldr	r3, [r3]
 1351 0088 DB69     		ldr	r3, [r3, #28]
 1352 008a 23F47F43 		bic	r3, r3, #65280
 1353 008e 23F01003 		bic	r3, r3, #16
 1354 0092 BA68     		ldr	r2, [r7, #8]
 1355 0094 1102     		lsls	r1, r2, #8
 1356 0096 7A68     		ldr	r2, [r7, #4]
 1357 0098 1201     		lsls	r2, r2, #4
 1358 009a 1143     		orrs	r1, r1, r2
 1359 009c FA68     		ldr	r2, [r7, #12]
 1360 009e 1268     		ldr	r2, [r2]
 1361 00a0 0B43     		orrs	r3, r3, r1
 1362 00a2 D361     		str	r3, [r2, #28]
 818:./Libraries/STM32F4xx_HAL_Driver/Src/stm32f4xx_hal_dma2d.c ****               ((CLUTCfg.Size << DMA2D_POSITION_BGPFCCR_CS) | (CLUTCfg.CLUTColorMode << DMA2D_POSITI
 819:./Libraries/STM32F4xx_HAL_Driver/Src/stm32f4xx_hal_dma2d.c **** 
ARM GAS  /tmp/ccgPJtk7.s 			page 39


 820:./Libraries/STM32F4xx_HAL_Driver/Src/stm32f4xx_hal_dma2d.c ****     /* Enable the CLUT Transfer Complete, transfer Error, configuration Error and CLUT Access Error
 821:./Libraries/STM32F4xx_HAL_Driver/Src/stm32f4xx_hal_dma2d.c ****     __HAL_DMA2D_ENABLE_IT(hdma2d, DMA2D_IT_CTC | DMA2D_IT_TE | DMA2D_IT_CE |DMA2D_IT_CAE);
 1363              		.loc 1 821 5
 1364 00a4 FB68     		ldr	r3, [r7, #12]
 1365 00a6 1B68     		ldr	r3, [r3]
 1366 00a8 1A68     		ldr	r2, [r3]
 1367 00aa FB68     		ldr	r3, [r7, #12]
 1368 00ac 1B68     		ldr	r3, [r3]
 1369 00ae 42F46452 		orr	r2, r2, #14592
 1370 00b2 1A60     		str	r2, [r3]
 822:./Libraries/STM32F4xx_HAL_Driver/Src/stm32f4xx_hal_dma2d.c **** 
 823:./Libraries/STM32F4xx_HAL_Driver/Src/stm32f4xx_hal_dma2d.c ****     /* Enable the CLUT loading for the foreground */
 824:./Libraries/STM32F4xx_HAL_Driver/Src/stm32f4xx_hal_dma2d.c ****     SET_BIT(hdma2d->Instance->FGPFCCR, DMA2D_FGPFCCR_START);
 1371              		.loc 1 824 5
 1372 00b4 FB68     		ldr	r3, [r7, #12]
 1373 00b6 1B68     		ldr	r3, [r3]
 1374 00b8 DA69     		ldr	r2, [r3, #28]
 1375 00ba FB68     		ldr	r3, [r7, #12]
 1376 00bc 1B68     		ldr	r3, [r3]
 1377 00be 42F02002 		orr	r2, r2, #32
 1378 00c2 DA61     		str	r2, [r3, #28]
 1379              	.L55:
 825:./Libraries/STM32F4xx_HAL_Driver/Src/stm32f4xx_hal_dma2d.c ****   }
 826:./Libraries/STM32F4xx_HAL_Driver/Src/stm32f4xx_hal_dma2d.c **** 
 827:./Libraries/STM32F4xx_HAL_Driver/Src/stm32f4xx_hal_dma2d.c ****   return HAL_OK;
 1380              		.loc 1 827 10
 1381 00c4 0023     		movs	r3, #0
 1382              	.L53:
 828:./Libraries/STM32F4xx_HAL_Driver/Src/stm32f4xx_hal_dma2d.c **** }
 1383              		.loc 1 828 1
 1384 00c6 1846     		mov	r0, r3
 1385 00c8 1437     		adds	r7, r7, #20
 1386              	.LCFI73:
 1387              		.cfi_def_cfa_offset 4
 1388 00ca BD46     		mov	sp, r7
 1389              	.LCFI74:
 1390              		.cfi_def_cfa_register 13
 1391              		@ sp needed
 1392 00cc 5DF8047B 		ldr	r7, [sp], #4
 1393              	.LCFI75:
 1394              		.cfi_restore 7
 1395              		.cfi_def_cfa_offset 0
 1396 00d0 7047     		bx	lr
 1397              		.cfi_endproc
 1398              	.LFE139:
 1400              		.section	.text.HAL_DMA2D_CLUTLoading_Abort,"ax",%progbits
 1401              		.align	1
 1402              		.global	HAL_DMA2D_CLUTLoading_Abort
 1403              		.syntax unified
 1404              		.thumb
 1405              		.thumb_func
 1406              		.fpu fpv4-sp-d16
 1408              	HAL_DMA2D_CLUTLoading_Abort:
 1409              	.LFB140:
 829:./Libraries/STM32F4xx_HAL_Driver/Src/stm32f4xx_hal_dma2d.c **** 
 830:./Libraries/STM32F4xx_HAL_Driver/Src/stm32f4xx_hal_dma2d.c **** /**
 831:./Libraries/STM32F4xx_HAL_Driver/Src/stm32f4xx_hal_dma2d.c ****   * @brief  Abort the DMA2D CLUT loading.
ARM GAS  /tmp/ccgPJtk7.s 			page 40


 832:./Libraries/STM32F4xx_HAL_Driver/Src/stm32f4xx_hal_dma2d.c ****   * @param  hdma2d  Pointer to a DMA2D_HandleTypeDef structure that contains
 833:./Libraries/STM32F4xx_HAL_Driver/Src/stm32f4xx_hal_dma2d.c ****   *                  the configuration information for the DMA2D.
 834:./Libraries/STM32F4xx_HAL_Driver/Src/stm32f4xx_hal_dma2d.c ****   * @param  LayerIdx DMA2D Layer index.
 835:./Libraries/STM32F4xx_HAL_Driver/Src/stm32f4xx_hal_dma2d.c ****   *                   This parameter can be one of the following values:
 836:./Libraries/STM32F4xx_HAL_Driver/Src/stm32f4xx_hal_dma2d.c ****   *                   0(background) / 1(foreground) 
 837:./Libraries/STM32F4xx_HAL_Driver/Src/stm32f4xx_hal_dma2d.c ****   * @retval HAL status
 838:./Libraries/STM32F4xx_HAL_Driver/Src/stm32f4xx_hal_dma2d.c ****   */
 839:./Libraries/STM32F4xx_HAL_Driver/Src/stm32f4xx_hal_dma2d.c **** HAL_StatusTypeDef HAL_DMA2D_CLUTLoading_Abort(DMA2D_HandleTypeDef *hdma2d, uint32_t LayerIdx)
 840:./Libraries/STM32F4xx_HAL_Driver/Src/stm32f4xx_hal_dma2d.c **** {
 1410              		.loc 1 840 1
 1411              		.cfi_startproc
 1412              		@ args = 0, pretend = 0, frame = 16
 1413              		@ frame_needed = 1, uses_anonymous_args = 0
 1414 0000 80B5     		push	{r7, lr}
 1415              	.LCFI76:
 1416              		.cfi_def_cfa_offset 8
 1417              		.cfi_offset 7, -8
 1418              		.cfi_offset 14, -4
 1419 0002 84B0     		sub	sp, sp, #16
 1420              	.LCFI77:
 1421              		.cfi_def_cfa_offset 24
 1422 0004 00AF     		add	r7, sp, #0
 1423              	.LCFI78:
 1424              		.cfi_def_cfa_register 7
 1425 0006 7860     		str	r0, [r7, #4]
 1426 0008 3960     		str	r1, [r7]
 841:./Libraries/STM32F4xx_HAL_Driver/Src/stm32f4xx_hal_dma2d.c ****   uint32_t tickstart  = 0U;
 1427              		.loc 1 841 12
 1428 000a 0023     		movs	r3, #0
 1429 000c BB60     		str	r3, [r7, #8]
 842:./Libraries/STM32F4xx_HAL_Driver/Src/stm32f4xx_hal_dma2d.c ****   __IO uint32_t * reg =  &(hdma2d->Instance->BGPFCCR); /* by default, point at background register 
 1430              		.loc 1 842 34
 1431 000e 7B68     		ldr	r3, [r7, #4]
 1432 0010 1B68     		ldr	r3, [r3]
 1433              		.loc 1 842 19
 1434 0012 2433     		adds	r3, r3, #36
 1435 0014 FB60     		str	r3, [r7, #12]
 843:./Libraries/STM32F4xx_HAL_Driver/Src/stm32f4xx_hal_dma2d.c **** 
 844:./Libraries/STM32F4xx_HAL_Driver/Src/stm32f4xx_hal_dma2d.c ****   /* Abort the CLUT loading */
 845:./Libraries/STM32F4xx_HAL_Driver/Src/stm32f4xx_hal_dma2d.c ****   SET_BIT(hdma2d->Instance->CR, DMA2D_CR_ABORT);
 1436              		.loc 1 845 3
 1437 0016 7B68     		ldr	r3, [r7, #4]
 1438 0018 1B68     		ldr	r3, [r3]
 1439 001a 1A68     		ldr	r2, [r3]
 1440 001c 7B68     		ldr	r3, [r7, #4]
 1441 001e 1B68     		ldr	r3, [r3]
 1442 0020 42F00402 		orr	r2, r2, #4
 1443 0024 1A60     		str	r2, [r3]
 846:./Libraries/STM32F4xx_HAL_Driver/Src/stm32f4xx_hal_dma2d.c **** 
 847:./Libraries/STM32F4xx_HAL_Driver/Src/stm32f4xx_hal_dma2d.c ****   /* If foreground CLUT loading is considered, update local variables */
 848:./Libraries/STM32F4xx_HAL_Driver/Src/stm32f4xx_hal_dma2d.c ****   if(LayerIdx == 1)
 1444              		.loc 1 848 5
 1445 0026 3B68     		ldr	r3, [r7]
 1446 0028 012B     		cmp	r3, #1
 1447 002a 03D1     		bne	.L57
 849:./Libraries/STM32F4xx_HAL_Driver/Src/stm32f4xx_hal_dma2d.c ****   {
 850:./Libraries/STM32F4xx_HAL_Driver/Src/stm32f4xx_hal_dma2d.c ****     reg  = &(hdma2d->Instance->FGPFCCR);
ARM GAS  /tmp/ccgPJtk7.s 			page 41


 1448              		.loc 1 850 20
 1449 002c 7B68     		ldr	r3, [r7, #4]
 1450 002e 1B68     		ldr	r3, [r3]
 1451              		.loc 1 850 10
 1452 0030 1C33     		adds	r3, r3, #28
 1453 0032 FB60     		str	r3, [r7, #12]
 1454              	.L57:
 851:./Libraries/STM32F4xx_HAL_Driver/Src/stm32f4xx_hal_dma2d.c ****   }
 852:./Libraries/STM32F4xx_HAL_Driver/Src/stm32f4xx_hal_dma2d.c **** 
 853:./Libraries/STM32F4xx_HAL_Driver/Src/stm32f4xx_hal_dma2d.c ****   /* Get tick */
 854:./Libraries/STM32F4xx_HAL_Driver/Src/stm32f4xx_hal_dma2d.c ****   tickstart = HAL_GetTick();
 1455              		.loc 1 854 15
 1456 0034 FFF7FEFF 		bl	HAL_GetTick
 1457 0038 B860     		str	r0, [r7, #8]
 855:./Libraries/STM32F4xx_HAL_Driver/Src/stm32f4xx_hal_dma2d.c **** 
 856:./Libraries/STM32F4xx_HAL_Driver/Src/stm32f4xx_hal_dma2d.c ****   /* Check if the CLUT loading is aborted */
 857:./Libraries/STM32F4xx_HAL_Driver/Src/stm32f4xx_hal_dma2d.c ****   while((*reg & DMA2D_BGPFCCR_START) != RESET)
 1458              		.loc 1 857 8
 1459 003a 17E0     		b	.L58
 1460              	.L60:
 858:./Libraries/STM32F4xx_HAL_Driver/Src/stm32f4xx_hal_dma2d.c ****   {
 859:./Libraries/STM32F4xx_HAL_Driver/Src/stm32f4xx_hal_dma2d.c ****     if((HAL_GetTick() - tickstart ) > DMA2D_TIMEOUT_ABORT)
 1461              		.loc 1 859 9
 1462 003c FFF7FEFF 		bl	HAL_GetTick
 1463 0040 0246     		mov	r2, r0
 1464              		.loc 1 859 23
 1465 0042 BB68     		ldr	r3, [r7, #8]
 1466 0044 D31A     		subs	r3, r2, r3
 1467              		.loc 1 859 7
 1468 0046 B3F57A7F 		cmp	r3, #1000
 1469 004a 0FD9     		bls	.L58
 860:./Libraries/STM32F4xx_HAL_Driver/Src/stm32f4xx_hal_dma2d.c ****     {
 861:./Libraries/STM32F4xx_HAL_Driver/Src/stm32f4xx_hal_dma2d.c ****       /* Update error code */
 862:./Libraries/STM32F4xx_HAL_Driver/Src/stm32f4xx_hal_dma2d.c ****       hdma2d->ErrorCode |= HAL_DMA2D_ERROR_TIMEOUT;
 1470              		.loc 1 862 25
 1471 004c 7B68     		ldr	r3, [r7, #4]
 1472 004e DB6B     		ldr	r3, [r3, #60]
 1473 0050 43F02002 		orr	r2, r3, #32
 1474 0054 7B68     		ldr	r3, [r7, #4]
 1475 0056 DA63     		str	r2, [r3, #60]
 863:./Libraries/STM32F4xx_HAL_Driver/Src/stm32f4xx_hal_dma2d.c **** 
 864:./Libraries/STM32F4xx_HAL_Driver/Src/stm32f4xx_hal_dma2d.c ****       /* Change the DMA2D state */
 865:./Libraries/STM32F4xx_HAL_Driver/Src/stm32f4xx_hal_dma2d.c ****       hdma2d->State = HAL_DMA2D_STATE_TIMEOUT;
 1476              		.loc 1 865 21
 1477 0058 7B68     		ldr	r3, [r7, #4]
 1478 005a 0322     		movs	r2, #3
 1479 005c 83F83920 		strb	r2, [r3, #57]
 866:./Libraries/STM32F4xx_HAL_Driver/Src/stm32f4xx_hal_dma2d.c **** 
 867:./Libraries/STM32F4xx_HAL_Driver/Src/stm32f4xx_hal_dma2d.c ****       /* Process Unlocked */
 868:./Libraries/STM32F4xx_HAL_Driver/Src/stm32f4xx_hal_dma2d.c ****       __HAL_UNLOCK(hdma2d);
 1480              		.loc 1 868 7
 1481 0060 7B68     		ldr	r3, [r7, #4]
 1482 0062 0022     		movs	r2, #0
 1483 0064 83F83820 		strb	r2, [r3, #56]
 869:./Libraries/STM32F4xx_HAL_Driver/Src/stm32f4xx_hal_dma2d.c **** 
 870:./Libraries/STM32F4xx_HAL_Driver/Src/stm32f4xx_hal_dma2d.c ****       return HAL_TIMEOUT;
 1484              		.loc 1 870 14
ARM GAS  /tmp/ccgPJtk7.s 			page 42


 1485 0068 0323     		movs	r3, #3
 1486 006a 16E0     		b	.L59
 1487              	.L58:
 857:./Libraries/STM32F4xx_HAL_Driver/Src/stm32f4xx_hal_dma2d.c ****   {
 1488              		.loc 1 857 10
 1489 006c FB68     		ldr	r3, [r7, #12]
 1490 006e 1B68     		ldr	r3, [r3]
 857:./Libraries/STM32F4xx_HAL_Driver/Src/stm32f4xx_hal_dma2d.c ****   {
 1491              		.loc 1 857 15
 1492 0070 03F02003 		and	r3, r3, #32
 857:./Libraries/STM32F4xx_HAL_Driver/Src/stm32f4xx_hal_dma2d.c ****   {
 1493              		.loc 1 857 8
 1494 0074 002B     		cmp	r3, #0
 1495 0076 E1D1     		bne	.L60
 871:./Libraries/STM32F4xx_HAL_Driver/Src/stm32f4xx_hal_dma2d.c ****     }
 872:./Libraries/STM32F4xx_HAL_Driver/Src/stm32f4xx_hal_dma2d.c ****   }
 873:./Libraries/STM32F4xx_HAL_Driver/Src/stm32f4xx_hal_dma2d.c **** 
 874:./Libraries/STM32F4xx_HAL_Driver/Src/stm32f4xx_hal_dma2d.c ****   /* Disable the CLUT Transfer Complete, Transfer Error, Configuration Error and CLUT Access Error 
 875:./Libraries/STM32F4xx_HAL_Driver/Src/stm32f4xx_hal_dma2d.c ****   __HAL_DMA2D_DISABLE_IT(hdma2d, DMA2D_IT_CTC | DMA2D_IT_TE | DMA2D_IT_CE |DMA2D_IT_CAE);
 1496              		.loc 1 875 3
 1497 0078 7B68     		ldr	r3, [r7, #4]
 1498 007a 1B68     		ldr	r3, [r3]
 1499 007c 1A68     		ldr	r2, [r3]
 1500 007e 7B68     		ldr	r3, [r7, #4]
 1501 0080 1B68     		ldr	r3, [r3]
 1502 0082 22F46452 		bic	r2, r2, #14592
 1503 0086 1A60     		str	r2, [r3]
 876:./Libraries/STM32F4xx_HAL_Driver/Src/stm32f4xx_hal_dma2d.c **** 
 877:./Libraries/STM32F4xx_HAL_Driver/Src/stm32f4xx_hal_dma2d.c ****   /* Change the DMA2D state*/
 878:./Libraries/STM32F4xx_HAL_Driver/Src/stm32f4xx_hal_dma2d.c ****   hdma2d->State = HAL_DMA2D_STATE_READY;
 1504              		.loc 1 878 17
 1505 0088 7B68     		ldr	r3, [r7, #4]
 1506 008a 0122     		movs	r2, #1
 1507 008c 83F83920 		strb	r2, [r3, #57]
 879:./Libraries/STM32F4xx_HAL_Driver/Src/stm32f4xx_hal_dma2d.c **** 
 880:./Libraries/STM32F4xx_HAL_Driver/Src/stm32f4xx_hal_dma2d.c ****   /* Process Unlocked */
 881:./Libraries/STM32F4xx_HAL_Driver/Src/stm32f4xx_hal_dma2d.c ****   __HAL_UNLOCK(hdma2d);
 1508              		.loc 1 881 3
 1509 0090 7B68     		ldr	r3, [r7, #4]
 1510 0092 0022     		movs	r2, #0
 1511 0094 83F83820 		strb	r2, [r3, #56]
 882:./Libraries/STM32F4xx_HAL_Driver/Src/stm32f4xx_hal_dma2d.c **** 
 883:./Libraries/STM32F4xx_HAL_Driver/Src/stm32f4xx_hal_dma2d.c ****   return HAL_OK;
 1512              		.loc 1 883 10
 1513 0098 0023     		movs	r3, #0
 1514              	.L59:
 884:./Libraries/STM32F4xx_HAL_Driver/Src/stm32f4xx_hal_dma2d.c **** }
 1515              		.loc 1 884 1
 1516 009a 1846     		mov	r0, r3
 1517 009c 1037     		adds	r7, r7, #16
 1518              	.LCFI79:
 1519              		.cfi_def_cfa_offset 8
 1520 009e BD46     		mov	sp, r7
 1521              	.LCFI80:
 1522              		.cfi_def_cfa_register 13
 1523              		@ sp needed
 1524 00a0 80BD     		pop	{r7, pc}
ARM GAS  /tmp/ccgPJtk7.s 			page 43


 1525              		.cfi_endproc
 1526              	.LFE140:
 1528              		.section	.text.HAL_DMA2D_CLUTLoading_Suspend,"ax",%progbits
 1529              		.align	1
 1530              		.global	HAL_DMA2D_CLUTLoading_Suspend
 1531              		.syntax unified
 1532              		.thumb
 1533              		.thumb_func
 1534              		.fpu fpv4-sp-d16
 1536              	HAL_DMA2D_CLUTLoading_Suspend:
 1537              	.LFB141:
 885:./Libraries/STM32F4xx_HAL_Driver/Src/stm32f4xx_hal_dma2d.c **** 
 886:./Libraries/STM32F4xx_HAL_Driver/Src/stm32f4xx_hal_dma2d.c **** /**
 887:./Libraries/STM32F4xx_HAL_Driver/Src/stm32f4xx_hal_dma2d.c ****   * @brief  Suspend the DMA2D CLUT loading.
 888:./Libraries/STM32F4xx_HAL_Driver/Src/stm32f4xx_hal_dma2d.c ****   * @param  hdma2d Pointer to a DMA2D_HandleTypeDef structure that contains
 889:./Libraries/STM32F4xx_HAL_Driver/Src/stm32f4xx_hal_dma2d.c ****   *                 the configuration information for the DMA2D.
 890:./Libraries/STM32F4xx_HAL_Driver/Src/stm32f4xx_hal_dma2d.c ****   * @param  LayerIdx DMA2D Layer index.
 891:./Libraries/STM32F4xx_HAL_Driver/Src/stm32f4xx_hal_dma2d.c ****   *                   This parameter can be one of the following values:
 892:./Libraries/STM32F4xx_HAL_Driver/Src/stm32f4xx_hal_dma2d.c ****   *                   0(background) / 1(foreground)
 893:./Libraries/STM32F4xx_HAL_Driver/Src/stm32f4xx_hal_dma2d.c ****   * @retval HAL status
 894:./Libraries/STM32F4xx_HAL_Driver/Src/stm32f4xx_hal_dma2d.c ****   */
 895:./Libraries/STM32F4xx_HAL_Driver/Src/stm32f4xx_hal_dma2d.c **** HAL_StatusTypeDef HAL_DMA2D_CLUTLoading_Suspend(DMA2D_HandleTypeDef *hdma2d, uint32_t LayerIdx)
 896:./Libraries/STM32F4xx_HAL_Driver/Src/stm32f4xx_hal_dma2d.c **** {
 1538              		.loc 1 896 1
 1539              		.cfi_startproc
 1540              		@ args = 0, pretend = 0, frame = 16
 1541              		@ frame_needed = 1, uses_anonymous_args = 0
 1542 0000 80B5     		push	{r7, lr}
 1543              	.LCFI81:
 1544              		.cfi_def_cfa_offset 8
 1545              		.cfi_offset 7, -8
 1546              		.cfi_offset 14, -4
 1547 0002 84B0     		sub	sp, sp, #16
 1548              	.LCFI82:
 1549              		.cfi_def_cfa_offset 24
 1550 0004 00AF     		add	r7, sp, #0
 1551              	.LCFI83:
 1552              		.cfi_def_cfa_register 7
 1553 0006 7860     		str	r0, [r7, #4]
 1554 0008 3960     		str	r1, [r7]
 897:./Libraries/STM32F4xx_HAL_Driver/Src/stm32f4xx_hal_dma2d.c ****   uint32_t tickstart = 0U;
 1555              		.loc 1 897 12
 1556 000a 0023     		movs	r3, #0
 1557 000c BB60     		str	r3, [r7, #8]
 898:./Libraries/STM32F4xx_HAL_Driver/Src/stm32f4xx_hal_dma2d.c ****   __IO uint32_t * reg =  &(hdma2d->Instance->BGPFCCR); /* by default, point at background register 
 1558              		.loc 1 898 34
 1559 000e 7B68     		ldr	r3, [r7, #4]
 1560 0010 1B68     		ldr	r3, [r3]
 1561              		.loc 1 898 19
 1562 0012 2433     		adds	r3, r3, #36
 1563 0014 FB60     		str	r3, [r7, #12]
 899:./Libraries/STM32F4xx_HAL_Driver/Src/stm32f4xx_hal_dma2d.c **** 
 900:./Libraries/STM32F4xx_HAL_Driver/Src/stm32f4xx_hal_dma2d.c ****   /* Suspend the CLUT loading */
 901:./Libraries/STM32F4xx_HAL_Driver/Src/stm32f4xx_hal_dma2d.c ****   SET_BIT(hdma2d->Instance->CR, DMA2D_CR_SUSP);
 1564              		.loc 1 901 3
 1565 0016 7B68     		ldr	r3, [r7, #4]
 1566 0018 1B68     		ldr	r3, [r3]
ARM GAS  /tmp/ccgPJtk7.s 			page 44


 1567 001a 1A68     		ldr	r2, [r3]
 1568 001c 7B68     		ldr	r3, [r7, #4]
 1569 001e 1B68     		ldr	r3, [r3]
 1570 0020 42F00202 		orr	r2, r2, #2
 1571 0024 1A60     		str	r2, [r3]
 902:./Libraries/STM32F4xx_HAL_Driver/Src/stm32f4xx_hal_dma2d.c **** 
 903:./Libraries/STM32F4xx_HAL_Driver/Src/stm32f4xx_hal_dma2d.c ****   /* If foreground CLUT loading is considered, update local variables */
 904:./Libraries/STM32F4xx_HAL_Driver/Src/stm32f4xx_hal_dma2d.c ****   if(LayerIdx == 1U)
 1572              		.loc 1 904 5
 1573 0026 3B68     		ldr	r3, [r7]
 1574 0028 012B     		cmp	r3, #1
 1575 002a 03D1     		bne	.L62
 905:./Libraries/STM32F4xx_HAL_Driver/Src/stm32f4xx_hal_dma2d.c ****   {
 906:./Libraries/STM32F4xx_HAL_Driver/Src/stm32f4xx_hal_dma2d.c ****     reg  = &(hdma2d->Instance->FGPFCCR);
 1576              		.loc 1 906 20
 1577 002c 7B68     		ldr	r3, [r7, #4]
 1578 002e 1B68     		ldr	r3, [r3]
 1579              		.loc 1 906 10
 1580 0030 1C33     		adds	r3, r3, #28
 1581 0032 FB60     		str	r3, [r7, #12]
 1582              	.L62:
 907:./Libraries/STM32F4xx_HAL_Driver/Src/stm32f4xx_hal_dma2d.c ****   }
 908:./Libraries/STM32F4xx_HAL_Driver/Src/stm32f4xx_hal_dma2d.c **** 
 909:./Libraries/STM32F4xx_HAL_Driver/Src/stm32f4xx_hal_dma2d.c ****   /* Get tick */
 910:./Libraries/STM32F4xx_HAL_Driver/Src/stm32f4xx_hal_dma2d.c ****   tickstart = HAL_GetTick();
 1583              		.loc 1 910 15
 1584 0034 FFF7FEFF 		bl	HAL_GetTick
 1585 0038 B860     		str	r0, [r7, #8]
 911:./Libraries/STM32F4xx_HAL_Driver/Src/stm32f4xx_hal_dma2d.c **** 
 912:./Libraries/STM32F4xx_HAL_Driver/Src/stm32f4xx_hal_dma2d.c ****   /* Check if the CLUT loading is suspended */
 913:./Libraries/STM32F4xx_HAL_Driver/Src/stm32f4xx_hal_dma2d.c ****   while (((hdma2d->Instance->CR & DMA2D_CR_SUSP) != DMA2D_CR_SUSP) \
 1586              		.loc 1 913 9
 1587 003a 13E0     		b	.L63
 1588              	.L66:
 914:./Libraries/STM32F4xx_HAL_Driver/Src/stm32f4xx_hal_dma2d.c ****     && ((*reg & DMA2D_BGPFCCR_START) == DMA2D_BGPFCCR_START))
 915:./Libraries/STM32F4xx_HAL_Driver/Src/stm32f4xx_hal_dma2d.c ****   {
 916:./Libraries/STM32F4xx_HAL_Driver/Src/stm32f4xx_hal_dma2d.c ****     if((HAL_GetTick() - tickstart ) > DMA2D_TIMEOUT_SUSPEND)
 1589              		.loc 1 916 9
 1590 003c FFF7FEFF 		bl	HAL_GetTick
 1591 0040 0246     		mov	r2, r0
 1592              		.loc 1 916 23
 1593 0042 BB68     		ldr	r3, [r7, #8]
 1594 0044 D31A     		subs	r3, r2, r3
 1595              		.loc 1 916 7
 1596 0046 B3F57A7F 		cmp	r3, #1000
 1597 004a 0BD9     		bls	.L63
 917:./Libraries/STM32F4xx_HAL_Driver/Src/stm32f4xx_hal_dma2d.c ****     {
 918:./Libraries/STM32F4xx_HAL_Driver/Src/stm32f4xx_hal_dma2d.c ****       /* Update error code */
 919:./Libraries/STM32F4xx_HAL_Driver/Src/stm32f4xx_hal_dma2d.c ****       hdma2d->ErrorCode |= HAL_DMA2D_ERROR_TIMEOUT;
 1598              		.loc 1 919 25
 1599 004c 7B68     		ldr	r3, [r7, #4]
 1600 004e DB6B     		ldr	r3, [r3, #60]
 1601 0050 43F02002 		orr	r2, r3, #32
 1602 0054 7B68     		ldr	r3, [r7, #4]
 1603 0056 DA63     		str	r2, [r3, #60]
 920:./Libraries/STM32F4xx_HAL_Driver/Src/stm32f4xx_hal_dma2d.c **** 
 921:./Libraries/STM32F4xx_HAL_Driver/Src/stm32f4xx_hal_dma2d.c ****       /* Change the DMA2D state */
ARM GAS  /tmp/ccgPJtk7.s 			page 45


 922:./Libraries/STM32F4xx_HAL_Driver/Src/stm32f4xx_hal_dma2d.c ****       hdma2d->State = HAL_DMA2D_STATE_TIMEOUT;
 1604              		.loc 1 922 21
 1605 0058 7B68     		ldr	r3, [r7, #4]
 1606 005a 0322     		movs	r2, #3
 1607 005c 83F83920 		strb	r2, [r3, #57]
 923:./Libraries/STM32F4xx_HAL_Driver/Src/stm32f4xx_hal_dma2d.c **** 
 924:./Libraries/STM32F4xx_HAL_Driver/Src/stm32f4xx_hal_dma2d.c ****       return HAL_TIMEOUT;
 1608              		.loc 1 924 14
 1609 0060 0323     		movs	r3, #3
 1610 0062 20E0     		b	.L64
 1611              	.L63:
 913:./Libraries/STM32F4xx_HAL_Driver/Src/stm32f4xx_hal_dma2d.c ****     && ((*reg & DMA2D_BGPFCCR_START) == DMA2D_BGPFCCR_START))
 1612              		.loc 1 913 18
 1613 0064 7B68     		ldr	r3, [r7, #4]
 1614 0066 1B68     		ldr	r3, [r3]
 913:./Libraries/STM32F4xx_HAL_Driver/Src/stm32f4xx_hal_dma2d.c ****     && ((*reg & DMA2D_BGPFCCR_START) == DMA2D_BGPFCCR_START))
 1615              		.loc 1 913 28
 1616 0068 1B68     		ldr	r3, [r3]
 913:./Libraries/STM32F4xx_HAL_Driver/Src/stm32f4xx_hal_dma2d.c ****     && ((*reg & DMA2D_BGPFCCR_START) == DMA2D_BGPFCCR_START))
 1617              		.loc 1 913 33
 1618 006a 03F00203 		and	r3, r3, #2
 913:./Libraries/STM32F4xx_HAL_Driver/Src/stm32f4xx_hal_dma2d.c ****     && ((*reg & DMA2D_BGPFCCR_START) == DMA2D_BGPFCCR_START))
 1619              		.loc 1 913 9
 1620 006e 022B     		cmp	r3, #2
 1621 0070 05D0     		beq	.L65
 914:./Libraries/STM32F4xx_HAL_Driver/Src/stm32f4xx_hal_dma2d.c ****   {
 1622              		.loc 1 914 10
 1623 0072 FB68     		ldr	r3, [r7, #12]
 1624 0074 1B68     		ldr	r3, [r3]
 914:./Libraries/STM32F4xx_HAL_Driver/Src/stm32f4xx_hal_dma2d.c ****   {
 1625              		.loc 1 914 15
 1626 0076 03F02003 		and	r3, r3, #32
 914:./Libraries/STM32F4xx_HAL_Driver/Src/stm32f4xx_hal_dma2d.c ****   {
 1627              		.loc 1 914 5
 1628 007a 202B     		cmp	r3, #32
 1629 007c DED0     		beq	.L66
 1630              	.L65:
 925:./Libraries/STM32F4xx_HAL_Driver/Src/stm32f4xx_hal_dma2d.c ****     }
 926:./Libraries/STM32F4xx_HAL_Driver/Src/stm32f4xx_hal_dma2d.c ****   }
 927:./Libraries/STM32F4xx_HAL_Driver/Src/stm32f4xx_hal_dma2d.c **** 
 928:./Libraries/STM32F4xx_HAL_Driver/Src/stm32f4xx_hal_dma2d.c ****    /* Check whether or not a transfer is actually suspended and change the DMA2D state accordingly 
 929:./Libraries/STM32F4xx_HAL_Driver/Src/stm32f4xx_hal_dma2d.c ****   if ((*reg & DMA2D_BGPFCCR_START) != RESET)
 1631              		.loc 1 929 8
 1632 007e FB68     		ldr	r3, [r7, #12]
 1633 0080 1B68     		ldr	r3, [r3]
 1634              		.loc 1 929 13
 1635 0082 03F02003 		and	r3, r3, #32
 1636              		.loc 1 929 6
 1637 0086 002B     		cmp	r3, #0
 1638 0088 04D0     		beq	.L67
 930:./Libraries/STM32F4xx_HAL_Driver/Src/stm32f4xx_hal_dma2d.c ****   {
 931:./Libraries/STM32F4xx_HAL_Driver/Src/stm32f4xx_hal_dma2d.c ****     hdma2d->State = HAL_DMA2D_STATE_SUSPEND;
 1639              		.loc 1 931 19
 1640 008a 7B68     		ldr	r3, [r7, #4]
 1641 008c 0522     		movs	r2, #5
 1642 008e 83F83920 		strb	r2, [r3, #57]
 1643 0092 07E0     		b	.L68
ARM GAS  /tmp/ccgPJtk7.s 			page 46


 1644              	.L67:
 932:./Libraries/STM32F4xx_HAL_Driver/Src/stm32f4xx_hal_dma2d.c ****   }
 933:./Libraries/STM32F4xx_HAL_Driver/Src/stm32f4xx_hal_dma2d.c ****   else
 934:./Libraries/STM32F4xx_HAL_Driver/Src/stm32f4xx_hal_dma2d.c ****   {
 935:./Libraries/STM32F4xx_HAL_Driver/Src/stm32f4xx_hal_dma2d.c ****     /* Make sure SUSP bit is cleared since it is meaningless
 936:./Libraries/STM32F4xx_HAL_Driver/Src/stm32f4xx_hal_dma2d.c ****        when no tranfer is on-going */
 937:./Libraries/STM32F4xx_HAL_Driver/Src/stm32f4xx_hal_dma2d.c ****     CLEAR_BIT(hdma2d->Instance->CR, DMA2D_CR_SUSP);
 1645              		.loc 1 937 5
 1646 0094 7B68     		ldr	r3, [r7, #4]
 1647 0096 1B68     		ldr	r3, [r3]
 1648 0098 1A68     		ldr	r2, [r3]
 1649 009a 7B68     		ldr	r3, [r7, #4]
 1650 009c 1B68     		ldr	r3, [r3]
 1651 009e 22F00202 		bic	r2, r2, #2
 1652 00a2 1A60     		str	r2, [r3]
 1653              	.L68:
 938:./Libraries/STM32F4xx_HAL_Driver/Src/stm32f4xx_hal_dma2d.c ****   }
 939:./Libraries/STM32F4xx_HAL_Driver/Src/stm32f4xx_hal_dma2d.c **** 
 940:./Libraries/STM32F4xx_HAL_Driver/Src/stm32f4xx_hal_dma2d.c ****   return HAL_OK;
 1654              		.loc 1 940 10
 1655 00a4 0023     		movs	r3, #0
 1656              	.L64:
 941:./Libraries/STM32F4xx_HAL_Driver/Src/stm32f4xx_hal_dma2d.c **** }
 1657              		.loc 1 941 1
 1658 00a6 1846     		mov	r0, r3
 1659 00a8 1037     		adds	r7, r7, #16
 1660              	.LCFI84:
 1661              		.cfi_def_cfa_offset 8
 1662 00aa BD46     		mov	sp, r7
 1663              	.LCFI85:
 1664              		.cfi_def_cfa_register 13
 1665              		@ sp needed
 1666 00ac 80BD     		pop	{r7, pc}
 1667              		.cfi_endproc
 1668              	.LFE141:
 1670              		.section	.text.HAL_DMA2D_CLUTLoading_Resume,"ax",%progbits
 1671              		.align	1
 1672              		.global	HAL_DMA2D_CLUTLoading_Resume
 1673              		.syntax unified
 1674              		.thumb
 1675              		.thumb_func
 1676              		.fpu fpv4-sp-d16
 1678              	HAL_DMA2D_CLUTLoading_Resume:
 1679              	.LFB142:
 942:./Libraries/STM32F4xx_HAL_Driver/Src/stm32f4xx_hal_dma2d.c **** 
 943:./Libraries/STM32F4xx_HAL_Driver/Src/stm32f4xx_hal_dma2d.c **** /**
 944:./Libraries/STM32F4xx_HAL_Driver/Src/stm32f4xx_hal_dma2d.c ****   * @brief  Resume the DMA2D CLUT loading.
 945:./Libraries/STM32F4xx_HAL_Driver/Src/stm32f4xx_hal_dma2d.c ****   * @param  hdma2d pointer to a DMA2D_HandleTypeDef structure that contains
 946:./Libraries/STM32F4xx_HAL_Driver/Src/stm32f4xx_hal_dma2d.c ****   *                 the configuration information for the DMA2D.
 947:./Libraries/STM32F4xx_HAL_Driver/Src/stm32f4xx_hal_dma2d.c ****   * @param  LayerIdx DMA2D Layer index.
 948:./Libraries/STM32F4xx_HAL_Driver/Src/stm32f4xx_hal_dma2d.c ****   *                   This parameter can be one of the following values:
 949:./Libraries/STM32F4xx_HAL_Driver/Src/stm32f4xx_hal_dma2d.c ****   *                   0(background) / 1(foreground)
 950:./Libraries/STM32F4xx_HAL_Driver/Src/stm32f4xx_hal_dma2d.c ****   * @retval HAL status
 951:./Libraries/STM32F4xx_HAL_Driver/Src/stm32f4xx_hal_dma2d.c ****   */
 952:./Libraries/STM32F4xx_HAL_Driver/Src/stm32f4xx_hal_dma2d.c **** HAL_StatusTypeDef HAL_DMA2D_CLUTLoading_Resume(DMA2D_HandleTypeDef *hdma2d, uint32_t LayerIdx)
 953:./Libraries/STM32F4xx_HAL_Driver/Src/stm32f4xx_hal_dma2d.c **** {
 1680              		.loc 1 953 1
ARM GAS  /tmp/ccgPJtk7.s 			page 47


 1681              		.cfi_startproc
 1682              		@ args = 0, pretend = 0, frame = 8
 1683              		@ frame_needed = 1, uses_anonymous_args = 0
 1684              		@ link register save eliminated.
 1685 0000 80B4     		push	{r7}
 1686              	.LCFI86:
 1687              		.cfi_def_cfa_offset 4
 1688              		.cfi_offset 7, -4
 1689 0002 83B0     		sub	sp, sp, #12
 1690              	.LCFI87:
 1691              		.cfi_def_cfa_offset 16
 1692 0004 00AF     		add	r7, sp, #0
 1693              	.LCFI88:
 1694              		.cfi_def_cfa_register 7
 1695 0006 7860     		str	r0, [r7, #4]
 1696 0008 3960     		str	r1, [r7]
 954:./Libraries/STM32F4xx_HAL_Driver/Src/stm32f4xx_hal_dma2d.c ****   /* Check the SUSP and START bits for background or foreground CLUT loading */
 955:./Libraries/STM32F4xx_HAL_Driver/Src/stm32f4xx_hal_dma2d.c ****   if(LayerIdx == 0U)
 1697              		.loc 1 955 5
 1698 000a 3B68     		ldr	r3, [r7]
 1699 000c 002B     		cmp	r3, #0
 1700 000e 12D1     		bne	.L70
 956:./Libraries/STM32F4xx_HAL_Driver/Src/stm32f4xx_hal_dma2d.c ****   {
 957:./Libraries/STM32F4xx_HAL_Driver/Src/stm32f4xx_hal_dma2d.c ****     /* Background CLUT loading suspension check */
 958:./Libraries/STM32F4xx_HAL_Driver/Src/stm32f4xx_hal_dma2d.c ****     if (((hdma2d->Instance->CR & DMA2D_CR_SUSP) == DMA2D_CR_SUSP)
 1701              		.loc 1 958 17
 1702 0010 7B68     		ldr	r3, [r7, #4]
 1703 0012 1B68     		ldr	r3, [r3]
 1704              		.loc 1 958 27
 1705 0014 1B68     		ldr	r3, [r3]
 1706              		.loc 1 958 32
 1707 0016 03F00203 		and	r3, r3, #2
 1708              		.loc 1 958 8
 1709 001a 022B     		cmp	r3, #2
 1710 001c 1DD1     		bne	.L71
 959:./Libraries/STM32F4xx_HAL_Driver/Src/stm32f4xx_hal_dma2d.c ****       && ((hdma2d->Instance->BGPFCCR & DMA2D_BGPFCCR_START) == DMA2D_BGPFCCR_START))
 1711              		.loc 1 959 18
 1712 001e 7B68     		ldr	r3, [r7, #4]
 1713 0020 1B68     		ldr	r3, [r3]
 1714              		.loc 1 959 28
 1715 0022 5B6A     		ldr	r3, [r3, #36]
 1716              		.loc 1 959 38
 1717 0024 03F02003 		and	r3, r3, #32
 1718              		.loc 1 959 7
 1719 0028 202B     		cmp	r3, #32
 1720 002a 16D1     		bne	.L71
 960:./Libraries/STM32F4xx_HAL_Driver/Src/stm32f4xx_hal_dma2d.c ****     {
 961:./Libraries/STM32F4xx_HAL_Driver/Src/stm32f4xx_hal_dma2d.c ****       /* Ongoing CLUT loading is suspended: change the DMA2D state before resuming */
 962:./Libraries/STM32F4xx_HAL_Driver/Src/stm32f4xx_hal_dma2d.c ****       hdma2d->State = HAL_DMA2D_STATE_BUSY;
 1721              		.loc 1 962 21
 1722 002c 7B68     		ldr	r3, [r7, #4]
 1723 002e 0222     		movs	r2, #2
 1724 0030 83F83920 		strb	r2, [r3, #57]
 1725 0034 11E0     		b	.L71
 1726              	.L70:
 963:./Libraries/STM32F4xx_HAL_Driver/Src/stm32f4xx_hal_dma2d.c ****     }
 964:./Libraries/STM32F4xx_HAL_Driver/Src/stm32f4xx_hal_dma2d.c ****   }
ARM GAS  /tmp/ccgPJtk7.s 			page 48


 965:./Libraries/STM32F4xx_HAL_Driver/Src/stm32f4xx_hal_dma2d.c ****   else
 966:./Libraries/STM32F4xx_HAL_Driver/Src/stm32f4xx_hal_dma2d.c ****   {
 967:./Libraries/STM32F4xx_HAL_Driver/Src/stm32f4xx_hal_dma2d.c ****     /* Foreground CLUT loading suspension check */
 968:./Libraries/STM32F4xx_HAL_Driver/Src/stm32f4xx_hal_dma2d.c ****     if (((hdma2d->Instance->CR & DMA2D_CR_SUSP) == DMA2D_CR_SUSP)
 1727              		.loc 1 968 17
 1728 0036 7B68     		ldr	r3, [r7, #4]
 1729 0038 1B68     		ldr	r3, [r3]
 1730              		.loc 1 968 27
 1731 003a 1B68     		ldr	r3, [r3]
 1732              		.loc 1 968 32
 1733 003c 03F00203 		and	r3, r3, #2
 1734              		.loc 1 968 8
 1735 0040 022B     		cmp	r3, #2
 1736 0042 0AD1     		bne	.L71
 969:./Libraries/STM32F4xx_HAL_Driver/Src/stm32f4xx_hal_dma2d.c ****       && ((hdma2d->Instance->FGPFCCR & DMA2D_FGPFCCR_START) == DMA2D_FGPFCCR_START))
 1737              		.loc 1 969 18
 1738 0044 7B68     		ldr	r3, [r7, #4]
 1739 0046 1B68     		ldr	r3, [r3]
 1740              		.loc 1 969 28
 1741 0048 DB69     		ldr	r3, [r3, #28]
 1742              		.loc 1 969 38
 1743 004a 03F02003 		and	r3, r3, #32
 1744              		.loc 1 969 7
 1745 004e 202B     		cmp	r3, #32
 1746 0050 03D1     		bne	.L71
 970:./Libraries/STM32F4xx_HAL_Driver/Src/stm32f4xx_hal_dma2d.c ****     {
 971:./Libraries/STM32F4xx_HAL_Driver/Src/stm32f4xx_hal_dma2d.c ****       /* Ongoing CLUT loading is suspended: change the DMA2D state before resuming */
 972:./Libraries/STM32F4xx_HAL_Driver/Src/stm32f4xx_hal_dma2d.c ****       hdma2d->State = HAL_DMA2D_STATE_BUSY;
 1747              		.loc 1 972 21
 1748 0052 7B68     		ldr	r3, [r7, #4]
 1749 0054 0222     		movs	r2, #2
 1750 0056 83F83920 		strb	r2, [r3, #57]
 1751              	.L71:
 973:./Libraries/STM32F4xx_HAL_Driver/Src/stm32f4xx_hal_dma2d.c ****     }
 974:./Libraries/STM32F4xx_HAL_Driver/Src/stm32f4xx_hal_dma2d.c ****   }
 975:./Libraries/STM32F4xx_HAL_Driver/Src/stm32f4xx_hal_dma2d.c **** 
 976:./Libraries/STM32F4xx_HAL_Driver/Src/stm32f4xx_hal_dma2d.c ****   /* Resume the CLUT loading */
 977:./Libraries/STM32F4xx_HAL_Driver/Src/stm32f4xx_hal_dma2d.c ****   CLEAR_BIT(hdma2d->Instance->CR, DMA2D_CR_SUSP);
 1752              		.loc 1 977 3
 1753 005a 7B68     		ldr	r3, [r7, #4]
 1754 005c 1B68     		ldr	r3, [r3]
 1755 005e 1A68     		ldr	r2, [r3]
 1756 0060 7B68     		ldr	r3, [r7, #4]
 1757 0062 1B68     		ldr	r3, [r3]
 1758 0064 22F00202 		bic	r2, r2, #2
 1759 0068 1A60     		str	r2, [r3]
 978:./Libraries/STM32F4xx_HAL_Driver/Src/stm32f4xx_hal_dma2d.c **** 
 979:./Libraries/STM32F4xx_HAL_Driver/Src/stm32f4xx_hal_dma2d.c ****   return HAL_OK;
 1760              		.loc 1 979 10
 1761 006a 0023     		movs	r3, #0
 980:./Libraries/STM32F4xx_HAL_Driver/Src/stm32f4xx_hal_dma2d.c **** }
 1762              		.loc 1 980 1
 1763 006c 1846     		mov	r0, r3
 1764 006e 0C37     		adds	r7, r7, #12
 1765              	.LCFI89:
 1766              		.cfi_def_cfa_offset 4
 1767 0070 BD46     		mov	sp, r7
ARM GAS  /tmp/ccgPJtk7.s 			page 49


 1768              	.LCFI90:
 1769              		.cfi_def_cfa_register 13
 1770              		@ sp needed
 1771 0072 5DF8047B 		ldr	r7, [sp], #4
 1772              	.LCFI91:
 1773              		.cfi_restore 7
 1774              		.cfi_def_cfa_offset 0
 1775 0076 7047     		bx	lr
 1776              		.cfi_endproc
 1777              	.LFE142:
 1779              		.section	.text.HAL_DMA2D_PollForTransfer,"ax",%progbits
 1780              		.align	1
 1781              		.global	HAL_DMA2D_PollForTransfer
 1782              		.syntax unified
 1783              		.thumb
 1784              		.thumb_func
 1785              		.fpu fpv4-sp-d16
 1787              	HAL_DMA2D_PollForTransfer:
 1788              	.LFB143:
 981:./Libraries/STM32F4xx_HAL_Driver/Src/stm32f4xx_hal_dma2d.c **** 
 982:./Libraries/STM32F4xx_HAL_Driver/Src/stm32f4xx_hal_dma2d.c **** /**
 983:./Libraries/STM32F4xx_HAL_Driver/Src/stm32f4xx_hal_dma2d.c ****   * @brief  Polling for transfer complete or CLUT loading.
 984:./Libraries/STM32F4xx_HAL_Driver/Src/stm32f4xx_hal_dma2d.c ****   * @param  hdma2d Pointer to a DMA2D_HandleTypeDef structure that contains
 985:./Libraries/STM32F4xx_HAL_Driver/Src/stm32f4xx_hal_dma2d.c ****   *                 the configuration information for the DMA2D.
 986:./Libraries/STM32F4xx_HAL_Driver/Src/stm32f4xx_hal_dma2d.c ****   * @param  Timeout Timeout duration
 987:./Libraries/STM32F4xx_HAL_Driver/Src/stm32f4xx_hal_dma2d.c ****   * @retval HAL status
 988:./Libraries/STM32F4xx_HAL_Driver/Src/stm32f4xx_hal_dma2d.c ****   */
 989:./Libraries/STM32F4xx_HAL_Driver/Src/stm32f4xx_hal_dma2d.c **** HAL_StatusTypeDef HAL_DMA2D_PollForTransfer(DMA2D_HandleTypeDef *hdma2d, uint32_t Timeout)
 990:./Libraries/STM32F4xx_HAL_Driver/Src/stm32f4xx_hal_dma2d.c **** {
 1789              		.loc 1 990 1
 1790              		.cfi_startproc
 1791              		@ args = 0, pretend = 0, frame = 16
 1792              		@ frame_needed = 1, uses_anonymous_args = 0
 1793 0000 80B5     		push	{r7, lr}
 1794              	.LCFI92:
 1795              		.cfi_def_cfa_offset 8
 1796              		.cfi_offset 7, -8
 1797              		.cfi_offset 14, -4
 1798 0002 84B0     		sub	sp, sp, #16
 1799              	.LCFI93:
 1800              		.cfi_def_cfa_offset 24
 1801 0004 00AF     		add	r7, sp, #0
 1802              	.LCFI94:
 1803              		.cfi_def_cfa_register 7
 1804 0006 7860     		str	r0, [r7, #4]
 1805 0008 3960     		str	r1, [r7]
 991:./Libraries/STM32F4xx_HAL_Driver/Src/stm32f4xx_hal_dma2d.c ****   uint32_t tickstart = 0U;
 1806              		.loc 1 991 12
 1807 000a 0023     		movs	r3, #0
 1808 000c FB60     		str	r3, [r7, #12]
 992:./Libraries/STM32F4xx_HAL_Driver/Src/stm32f4xx_hal_dma2d.c ****   __IO uint32_t isrflags = 0x0U;
 1809              		.loc 1 992 17
 1810 000e 0023     		movs	r3, #0
 1811 0010 BB60     		str	r3, [r7, #8]
 993:./Libraries/STM32F4xx_HAL_Driver/Src/stm32f4xx_hal_dma2d.c **** 
 994:./Libraries/STM32F4xx_HAL_Driver/Src/stm32f4xx_hal_dma2d.c ****   /* Polling for DMA2D transfer */
 995:./Libraries/STM32F4xx_HAL_Driver/Src/stm32f4xx_hal_dma2d.c ****   if((hdma2d->Instance->CR & DMA2D_CR_START) != RESET)
ARM GAS  /tmp/ccgPJtk7.s 			page 50


 1812              		.loc 1 995 13
 1813 0012 7B68     		ldr	r3, [r7, #4]
 1814 0014 1B68     		ldr	r3, [r3]
 1815              		.loc 1 995 23
 1816 0016 1B68     		ldr	r3, [r3]
 1817              		.loc 1 995 28
 1818 0018 03F00103 		and	r3, r3, #1
 1819              		.loc 1 995 5
 1820 001c 002B     		cmp	r3, #0
 1821 001e 56D0     		beq	.L74
 996:./Libraries/STM32F4xx_HAL_Driver/Src/stm32f4xx_hal_dma2d.c ****   {
 997:./Libraries/STM32F4xx_HAL_Driver/Src/stm32f4xx_hal_dma2d.c ****    /* Get tick */
 998:./Libraries/STM32F4xx_HAL_Driver/Src/stm32f4xx_hal_dma2d.c ****    tickstart = HAL_GetTick();
 1822              		.loc 1 998 16
 1823 0020 FFF7FEFF 		bl	HAL_GetTick
 1824 0024 F860     		str	r0, [r7, #12]
 999:./Libraries/STM32F4xx_HAL_Driver/Src/stm32f4xx_hal_dma2d.c **** 
1000:./Libraries/STM32F4xx_HAL_Driver/Src/stm32f4xx_hal_dma2d.c ****     while(__HAL_DMA2D_GET_FLAG(hdma2d, DMA2D_FLAG_TC) == RESET)
 1825              		.loc 1 1000 10
 1826 0026 4BE0     		b	.L75
 1827              	.L81:
1001:./Libraries/STM32F4xx_HAL_Driver/Src/stm32f4xx_hal_dma2d.c ****     {
1002:./Libraries/STM32F4xx_HAL_Driver/Src/stm32f4xx_hal_dma2d.c ****       isrflags = READ_REG(hdma2d->Instance->ISR);
 1828              		.loc 1 1002 18
 1829 0028 7B68     		ldr	r3, [r7, #4]
 1830 002a 1B68     		ldr	r3, [r3]
 1831 002c 5B68     		ldr	r3, [r3, #4]
 1832              		.loc 1 1002 16
 1833 002e BB60     		str	r3, [r7, #8]
1003:./Libraries/STM32F4xx_HAL_Driver/Src/stm32f4xx_hal_dma2d.c ****       if ((isrflags & (DMA2D_FLAG_CE|DMA2D_FLAG_TE)) != RESET)
 1834              		.loc 1 1003 21
 1835 0030 BB68     		ldr	r3, [r7, #8]
 1836 0032 03F02103 		and	r3, r3, #33
 1837              		.loc 1 1003 10
 1838 0036 002B     		cmp	r3, #0
 1839 0038 23D0     		beq	.L76
1004:./Libraries/STM32F4xx_HAL_Driver/Src/stm32f4xx_hal_dma2d.c ****       {
1005:./Libraries/STM32F4xx_HAL_Driver/Src/stm32f4xx_hal_dma2d.c ****         if ((isrflags & DMA2D_FLAG_CE) != RESET)
 1840              		.loc 1 1005 23
 1841 003a BB68     		ldr	r3, [r7, #8]
 1842 003c 03F02003 		and	r3, r3, #32
 1843              		.loc 1 1005 12
 1844 0040 002B     		cmp	r3, #0
 1845 0042 05D0     		beq	.L77
1006:./Libraries/STM32F4xx_HAL_Driver/Src/stm32f4xx_hal_dma2d.c ****         {
1007:./Libraries/STM32F4xx_HAL_Driver/Src/stm32f4xx_hal_dma2d.c ****           hdma2d->ErrorCode |= HAL_DMA2D_ERROR_CE;
 1846              		.loc 1 1007 29
 1847 0044 7B68     		ldr	r3, [r7, #4]
 1848 0046 DB6B     		ldr	r3, [r3, #60]
 1849 0048 43F00202 		orr	r2, r3, #2
 1850 004c 7B68     		ldr	r3, [r7, #4]
 1851 004e DA63     		str	r2, [r3, #60]
 1852              	.L77:
1008:./Libraries/STM32F4xx_HAL_Driver/Src/stm32f4xx_hal_dma2d.c ****         }
1009:./Libraries/STM32F4xx_HAL_Driver/Src/stm32f4xx_hal_dma2d.c ****         if ((isrflags & DMA2D_FLAG_TE) != RESET)
 1853              		.loc 1 1009 23
 1854 0050 BB68     		ldr	r3, [r7, #8]
ARM GAS  /tmp/ccgPJtk7.s 			page 51


 1855 0052 03F00103 		and	r3, r3, #1
 1856              		.loc 1 1009 12
 1857 0056 002B     		cmp	r3, #0
 1858 0058 05D0     		beq	.L78
1010:./Libraries/STM32F4xx_HAL_Driver/Src/stm32f4xx_hal_dma2d.c ****         {
1011:./Libraries/STM32F4xx_HAL_Driver/Src/stm32f4xx_hal_dma2d.c ****           hdma2d->ErrorCode |= HAL_DMA2D_ERROR_TE;
 1859              		.loc 1 1011 29
 1860 005a 7B68     		ldr	r3, [r7, #4]
 1861 005c DB6B     		ldr	r3, [r3, #60]
 1862 005e 43F00102 		orr	r2, r3, #1
 1863 0062 7B68     		ldr	r3, [r7, #4]
 1864 0064 DA63     		str	r2, [r3, #60]
 1865              	.L78:
1012:./Libraries/STM32F4xx_HAL_Driver/Src/stm32f4xx_hal_dma2d.c ****         }
1013:./Libraries/STM32F4xx_HAL_Driver/Src/stm32f4xx_hal_dma2d.c ****         /* Clear the transfer and configuration error flags */
1014:./Libraries/STM32F4xx_HAL_Driver/Src/stm32f4xx_hal_dma2d.c ****         __HAL_DMA2D_CLEAR_FLAG(hdma2d, DMA2D_FLAG_CE | DMA2D_FLAG_TE);
 1866              		.loc 1 1014 9
 1867 0066 7B68     		ldr	r3, [r7, #4]
 1868 0068 1B68     		ldr	r3, [r3]
 1869 006a 2122     		movs	r2, #33
 1870 006c 9A60     		str	r2, [r3, #8]
1015:./Libraries/STM32F4xx_HAL_Driver/Src/stm32f4xx_hal_dma2d.c **** 
1016:./Libraries/STM32F4xx_HAL_Driver/Src/stm32f4xx_hal_dma2d.c ****         /* Change DMA2D state */
1017:./Libraries/STM32F4xx_HAL_Driver/Src/stm32f4xx_hal_dma2d.c ****         hdma2d->State = HAL_DMA2D_STATE_ERROR;
 1871              		.loc 1 1017 23
 1872 006e 7B68     		ldr	r3, [r7, #4]
 1873 0070 0422     		movs	r2, #4
 1874 0072 83F83920 		strb	r2, [r3, #57]
1018:./Libraries/STM32F4xx_HAL_Driver/Src/stm32f4xx_hal_dma2d.c **** 
1019:./Libraries/STM32F4xx_HAL_Driver/Src/stm32f4xx_hal_dma2d.c ****         /* Process unlocked */
1020:./Libraries/STM32F4xx_HAL_Driver/Src/stm32f4xx_hal_dma2d.c ****         __HAL_UNLOCK(hdma2d);
 1875              		.loc 1 1020 9
 1876 0076 7B68     		ldr	r3, [r7, #4]
 1877 0078 0022     		movs	r2, #0
 1878 007a 83F83820 		strb	r2, [r3, #56]
1021:./Libraries/STM32F4xx_HAL_Driver/Src/stm32f4xx_hal_dma2d.c **** 
1022:./Libraries/STM32F4xx_HAL_Driver/Src/stm32f4xx_hal_dma2d.c ****         return HAL_ERROR;
 1879              		.loc 1 1022 16
 1880 007e 0123     		movs	r3, #1
 1881 0080 A2E0     		b	.L79
 1882              	.L76:
1023:./Libraries/STM32F4xx_HAL_Driver/Src/stm32f4xx_hal_dma2d.c ****       }
1024:./Libraries/STM32F4xx_HAL_Driver/Src/stm32f4xx_hal_dma2d.c ****       /* Check for the Timeout */
1025:./Libraries/STM32F4xx_HAL_Driver/Src/stm32f4xx_hal_dma2d.c ****       if(Timeout != HAL_MAX_DELAY)
 1883              		.loc 1 1025 9
 1884 0082 3B68     		ldr	r3, [r7]
 1885 0084 B3F1FF3F 		cmp	r3, #-1
 1886 0088 1AD0     		beq	.L75
1026:./Libraries/STM32F4xx_HAL_Driver/Src/stm32f4xx_hal_dma2d.c ****       {
1027:./Libraries/STM32F4xx_HAL_Driver/Src/stm32f4xx_hal_dma2d.c ****         if((Timeout == 0U)||((HAL_GetTick() - tickstart ) > Timeout))
 1887              		.loc 1 1027 11
 1888 008a 3B68     		ldr	r3, [r7]
 1889 008c 002B     		cmp	r3, #0
 1890 008e 07D0     		beq	.L80
 1891              		.loc 1 1027 31 discriminator 1
 1892 0090 FFF7FEFF 		bl	HAL_GetTick
 1893 0094 0246     		mov	r2, r0
ARM GAS  /tmp/ccgPJtk7.s 			page 52


 1894              		.loc 1 1027 45 discriminator 1
 1895 0096 FB68     		ldr	r3, [r7, #12]
 1896 0098 D31A     		subs	r3, r2, r3
 1897              		.loc 1 1027 27 discriminator 1
 1898 009a 3A68     		ldr	r2, [r7]
 1899 009c 9A42     		cmp	r2, r3
 1900 009e 0FD2     		bcs	.L75
 1901              	.L80:
1028:./Libraries/STM32F4xx_HAL_Driver/Src/stm32f4xx_hal_dma2d.c ****         {
1029:./Libraries/STM32F4xx_HAL_Driver/Src/stm32f4xx_hal_dma2d.c ****           /* Update error code */
1030:./Libraries/STM32F4xx_HAL_Driver/Src/stm32f4xx_hal_dma2d.c ****           hdma2d->ErrorCode |= HAL_DMA2D_ERROR_TIMEOUT;
 1902              		.loc 1 1030 29
 1903 00a0 7B68     		ldr	r3, [r7, #4]
 1904 00a2 DB6B     		ldr	r3, [r3, #60]
 1905 00a4 43F02002 		orr	r2, r3, #32
 1906 00a8 7B68     		ldr	r3, [r7, #4]
 1907 00aa DA63     		str	r2, [r3, #60]
1031:./Libraries/STM32F4xx_HAL_Driver/Src/stm32f4xx_hal_dma2d.c **** 
1032:./Libraries/STM32F4xx_HAL_Driver/Src/stm32f4xx_hal_dma2d.c ****           /* Change the DMA2D state */
1033:./Libraries/STM32F4xx_HAL_Driver/Src/stm32f4xx_hal_dma2d.c ****           hdma2d->State = HAL_DMA2D_STATE_TIMEOUT;
 1908              		.loc 1 1033 25
 1909 00ac 7B68     		ldr	r3, [r7, #4]
 1910 00ae 0322     		movs	r2, #3
 1911 00b0 83F83920 		strb	r2, [r3, #57]
1034:./Libraries/STM32F4xx_HAL_Driver/Src/stm32f4xx_hal_dma2d.c **** 
1035:./Libraries/STM32F4xx_HAL_Driver/Src/stm32f4xx_hal_dma2d.c ****           /* Process unlocked */
1036:./Libraries/STM32F4xx_HAL_Driver/Src/stm32f4xx_hal_dma2d.c ****           __HAL_UNLOCK(hdma2d);
 1912              		.loc 1 1036 11
 1913 00b4 7B68     		ldr	r3, [r7, #4]
 1914 00b6 0022     		movs	r2, #0
 1915 00b8 83F83820 		strb	r2, [r3, #56]
1037:./Libraries/STM32F4xx_HAL_Driver/Src/stm32f4xx_hal_dma2d.c **** 
1038:./Libraries/STM32F4xx_HAL_Driver/Src/stm32f4xx_hal_dma2d.c ****           return HAL_TIMEOUT;
 1916              		.loc 1 1038 18
 1917 00bc 0323     		movs	r3, #3
 1918 00be 83E0     		b	.L79
 1919              	.L75:
1000:./Libraries/STM32F4xx_HAL_Driver/Src/stm32f4xx_hal_dma2d.c ****     {
 1920              		.loc 1 1000 11
 1921 00c0 7B68     		ldr	r3, [r7, #4]
 1922 00c2 1B68     		ldr	r3, [r3]
 1923 00c4 5B68     		ldr	r3, [r3, #4]
 1924 00c6 03F00203 		and	r3, r3, #2
1000:./Libraries/STM32F4xx_HAL_Driver/Src/stm32f4xx_hal_dma2d.c ****     {
 1925              		.loc 1 1000 10
 1926 00ca 002B     		cmp	r3, #0
 1927 00cc ACD0     		beq	.L81
 1928              	.L74:
1039:./Libraries/STM32F4xx_HAL_Driver/Src/stm32f4xx_hal_dma2d.c ****         }
1040:./Libraries/STM32F4xx_HAL_Driver/Src/stm32f4xx_hal_dma2d.c ****       }
1041:./Libraries/STM32F4xx_HAL_Driver/Src/stm32f4xx_hal_dma2d.c ****     }
1042:./Libraries/STM32F4xx_HAL_Driver/Src/stm32f4xx_hal_dma2d.c ****   }
1043:./Libraries/STM32F4xx_HAL_Driver/Src/stm32f4xx_hal_dma2d.c ****   /* Polling for CLUT loading (foreground or background) */
1044:./Libraries/STM32F4xx_HAL_Driver/Src/stm32f4xx_hal_dma2d.c ****   if (((hdma2d->Instance->FGPFCCR & DMA2D_FGPFCCR_START) != RESET)  ||
 1929              		.loc 1 1044 15
 1930 00ce 7B68     		ldr	r3, [r7, #4]
 1931 00d0 1B68     		ldr	r3, [r3]
ARM GAS  /tmp/ccgPJtk7.s 			page 53


 1932              		.loc 1 1044 25
 1933 00d2 DB69     		ldr	r3, [r3, #28]
 1934              		.loc 1 1044 35
 1935 00d4 03F02003 		and	r3, r3, #32
 1936              		.loc 1 1044 6
 1937 00d8 002B     		cmp	r3, #0
 1938 00da 06D1     		bne	.L82
1045:./Libraries/STM32F4xx_HAL_Driver/Src/stm32f4xx_hal_dma2d.c ****       ((hdma2d->Instance->BGPFCCR & DMA2D_BGPFCCR_START) != RESET))
 1939              		.loc 1 1045 15 discriminator 1
 1940 00dc 7B68     		ldr	r3, [r7, #4]
 1941 00de 1B68     		ldr	r3, [r3]
 1942              		.loc 1 1045 25 discriminator 1
 1943 00e0 5B6A     		ldr	r3, [r3, #36]
 1944              		.loc 1 1045 35 discriminator 1
 1945 00e2 03F02003 		and	r3, r3, #32
1044:./Libraries/STM32F4xx_HAL_Driver/Src/stm32f4xx_hal_dma2d.c ****       ((hdma2d->Instance->BGPFCCR & DMA2D_BGPFCCR_START) != RESET))
 1946              		.loc 1 1044 69 discriminator 1
 1947 00e6 002B     		cmp	r3, #0
 1948 00e8 61D0     		beq	.L83
 1949              	.L82:
1046:./Libraries/STM32F4xx_HAL_Driver/Src/stm32f4xx_hal_dma2d.c ****   {
1047:./Libraries/STM32F4xx_HAL_Driver/Src/stm32f4xx_hal_dma2d.c ****     /* Get tick */
1048:./Libraries/STM32F4xx_HAL_Driver/Src/stm32f4xx_hal_dma2d.c ****     tickstart = HAL_GetTick();
 1950              		.loc 1 1048 17
 1951 00ea FFF7FEFF 		bl	HAL_GetTick
 1952 00ee F860     		str	r0, [r7, #12]
1049:./Libraries/STM32F4xx_HAL_Driver/Src/stm32f4xx_hal_dma2d.c **** 
1050:./Libraries/STM32F4xx_HAL_Driver/Src/stm32f4xx_hal_dma2d.c ****     while(__HAL_DMA2D_GET_FLAG(hdma2d, DMA2D_FLAG_CTC) == RESET)
 1953              		.loc 1 1050 10
 1954 00f0 56E0     		b	.L84
 1955              	.L90:
1051:./Libraries/STM32F4xx_HAL_Driver/Src/stm32f4xx_hal_dma2d.c ****     {
1052:./Libraries/STM32F4xx_HAL_Driver/Src/stm32f4xx_hal_dma2d.c ****       isrflags = READ_REG(hdma2d->Instance->ISR);
 1956              		.loc 1 1052 18
 1957 00f2 7B68     		ldr	r3, [r7, #4]
 1958 00f4 1B68     		ldr	r3, [r3]
 1959 00f6 5B68     		ldr	r3, [r3, #4]
 1960              		.loc 1 1052 16
 1961 00f8 BB60     		str	r3, [r7, #8]
1053:./Libraries/STM32F4xx_HAL_Driver/Src/stm32f4xx_hal_dma2d.c ****       if ((isrflags & (DMA2D_FLAG_CAE|DMA2D_FLAG_CE|DMA2D_FLAG_TE)) != RESET)
 1962              		.loc 1 1053 21
 1963 00fa BB68     		ldr	r3, [r7, #8]
 1964 00fc 03F02903 		and	r3, r3, #41
 1965              		.loc 1 1053 10
 1966 0100 002B     		cmp	r3, #0
 1967 0102 2ED0     		beq	.L85
1054:./Libraries/STM32F4xx_HAL_Driver/Src/stm32f4xx_hal_dma2d.c ****       {
1055:./Libraries/STM32F4xx_HAL_Driver/Src/stm32f4xx_hal_dma2d.c ****         if ((isrflags & DMA2D_FLAG_CAE) != RESET)
 1968              		.loc 1 1055 23
 1969 0104 BB68     		ldr	r3, [r7, #8]
 1970 0106 03F00803 		and	r3, r3, #8
 1971              		.loc 1 1055 12
 1972 010a 002B     		cmp	r3, #0
 1973 010c 05D0     		beq	.L86
1056:./Libraries/STM32F4xx_HAL_Driver/Src/stm32f4xx_hal_dma2d.c ****         {
1057:./Libraries/STM32F4xx_HAL_Driver/Src/stm32f4xx_hal_dma2d.c ****           hdma2d->ErrorCode |= HAL_DMA2D_ERROR_CAE;
 1974              		.loc 1 1057 29
ARM GAS  /tmp/ccgPJtk7.s 			page 54


 1975 010e 7B68     		ldr	r3, [r7, #4]
 1976 0110 DB6B     		ldr	r3, [r3, #60]
 1977 0112 43F00402 		orr	r2, r3, #4
 1978 0116 7B68     		ldr	r3, [r7, #4]
 1979 0118 DA63     		str	r2, [r3, #60]
 1980              	.L86:
1058:./Libraries/STM32F4xx_HAL_Driver/Src/stm32f4xx_hal_dma2d.c ****         }
1059:./Libraries/STM32F4xx_HAL_Driver/Src/stm32f4xx_hal_dma2d.c ****         if ((isrflags & DMA2D_FLAG_CE) != RESET)
 1981              		.loc 1 1059 23
 1982 011a BB68     		ldr	r3, [r7, #8]
 1983 011c 03F02003 		and	r3, r3, #32
 1984              		.loc 1 1059 12
 1985 0120 002B     		cmp	r3, #0
 1986 0122 05D0     		beq	.L87
1060:./Libraries/STM32F4xx_HAL_Driver/Src/stm32f4xx_hal_dma2d.c ****         {
1061:./Libraries/STM32F4xx_HAL_Driver/Src/stm32f4xx_hal_dma2d.c ****           hdma2d->ErrorCode |= HAL_DMA2D_ERROR_CE;
 1987              		.loc 1 1061 29
 1988 0124 7B68     		ldr	r3, [r7, #4]
 1989 0126 DB6B     		ldr	r3, [r3, #60]
 1990 0128 43F00202 		orr	r2, r3, #2
 1991 012c 7B68     		ldr	r3, [r7, #4]
 1992 012e DA63     		str	r2, [r3, #60]
 1993              	.L87:
1062:./Libraries/STM32F4xx_HAL_Driver/Src/stm32f4xx_hal_dma2d.c ****         }
1063:./Libraries/STM32F4xx_HAL_Driver/Src/stm32f4xx_hal_dma2d.c ****         if ((isrflags & DMA2D_FLAG_TE) != RESET)
 1994              		.loc 1 1063 23
 1995 0130 BB68     		ldr	r3, [r7, #8]
 1996 0132 03F00103 		and	r3, r3, #1
 1997              		.loc 1 1063 12
 1998 0136 002B     		cmp	r3, #0
 1999 0138 05D0     		beq	.L88
1064:./Libraries/STM32F4xx_HAL_Driver/Src/stm32f4xx_hal_dma2d.c ****         {
1065:./Libraries/STM32F4xx_HAL_Driver/Src/stm32f4xx_hal_dma2d.c ****           hdma2d->ErrorCode |= HAL_DMA2D_ERROR_TE;
 2000              		.loc 1 1065 29
 2001 013a 7B68     		ldr	r3, [r7, #4]
 2002 013c DB6B     		ldr	r3, [r3, #60]
 2003 013e 43F00102 		orr	r2, r3, #1
 2004 0142 7B68     		ldr	r3, [r7, #4]
 2005 0144 DA63     		str	r2, [r3, #60]
 2006              	.L88:
1066:./Libraries/STM32F4xx_HAL_Driver/Src/stm32f4xx_hal_dma2d.c ****         }
1067:./Libraries/STM32F4xx_HAL_Driver/Src/stm32f4xx_hal_dma2d.c ****         /* Clear the CLUT Access Error, Configuration Error and Transfer Error flags */
1068:./Libraries/STM32F4xx_HAL_Driver/Src/stm32f4xx_hal_dma2d.c ****         __HAL_DMA2D_CLEAR_FLAG(hdma2d, DMA2D_FLAG_CAE | DMA2D_FLAG_CE | DMA2D_FLAG_TE);
 2007              		.loc 1 1068 9
 2008 0146 7B68     		ldr	r3, [r7, #4]
 2009 0148 1B68     		ldr	r3, [r3]
 2010 014a 2922     		movs	r2, #41
 2011 014c 9A60     		str	r2, [r3, #8]
1069:./Libraries/STM32F4xx_HAL_Driver/Src/stm32f4xx_hal_dma2d.c **** 
1070:./Libraries/STM32F4xx_HAL_Driver/Src/stm32f4xx_hal_dma2d.c ****         /* Change DMA2D state */
1071:./Libraries/STM32F4xx_HAL_Driver/Src/stm32f4xx_hal_dma2d.c ****         hdma2d->State= HAL_DMA2D_STATE_ERROR;
 2012              		.loc 1 1071 22
 2013 014e 7B68     		ldr	r3, [r7, #4]
 2014 0150 0422     		movs	r2, #4
 2015 0152 83F83920 		strb	r2, [r3, #57]
1072:./Libraries/STM32F4xx_HAL_Driver/Src/stm32f4xx_hal_dma2d.c **** 
1073:./Libraries/STM32F4xx_HAL_Driver/Src/stm32f4xx_hal_dma2d.c ****         /* Process unlocked */
ARM GAS  /tmp/ccgPJtk7.s 			page 55


1074:./Libraries/STM32F4xx_HAL_Driver/Src/stm32f4xx_hal_dma2d.c ****         __HAL_UNLOCK(hdma2d);
 2016              		.loc 1 1074 9
 2017 0156 7B68     		ldr	r3, [r7, #4]
 2018 0158 0022     		movs	r2, #0
 2019 015a 83F83820 		strb	r2, [r3, #56]
1075:./Libraries/STM32F4xx_HAL_Driver/Src/stm32f4xx_hal_dma2d.c **** 
1076:./Libraries/STM32F4xx_HAL_Driver/Src/stm32f4xx_hal_dma2d.c ****         return HAL_ERROR;
 2020              		.loc 1 1076 16
 2021 015e 0123     		movs	r3, #1
 2022 0160 32E0     		b	.L79
 2023              	.L85:
1077:./Libraries/STM32F4xx_HAL_Driver/Src/stm32f4xx_hal_dma2d.c ****       }
1078:./Libraries/STM32F4xx_HAL_Driver/Src/stm32f4xx_hal_dma2d.c ****       /* Check for the Timeout */
1079:./Libraries/STM32F4xx_HAL_Driver/Src/stm32f4xx_hal_dma2d.c ****       if(Timeout != HAL_MAX_DELAY)
 2024              		.loc 1 1079 9
 2025 0162 3B68     		ldr	r3, [r7]
 2026 0164 B3F1FF3F 		cmp	r3, #-1
 2027 0168 1AD0     		beq	.L84
1080:./Libraries/STM32F4xx_HAL_Driver/Src/stm32f4xx_hal_dma2d.c ****       {
1081:./Libraries/STM32F4xx_HAL_Driver/Src/stm32f4xx_hal_dma2d.c ****         if((Timeout == 0U)||((HAL_GetTick() - tickstart ) > Timeout))
 2028              		.loc 1 1081 11
 2029 016a 3B68     		ldr	r3, [r7]
 2030 016c 002B     		cmp	r3, #0
 2031 016e 07D0     		beq	.L89
 2032              		.loc 1 1081 31 discriminator 1
 2033 0170 FFF7FEFF 		bl	HAL_GetTick
 2034 0174 0246     		mov	r2, r0
 2035              		.loc 1 1081 45 discriminator 1
 2036 0176 FB68     		ldr	r3, [r7, #12]
 2037 0178 D31A     		subs	r3, r2, r3
 2038              		.loc 1 1081 27 discriminator 1
 2039 017a 3A68     		ldr	r2, [r7]
 2040 017c 9A42     		cmp	r2, r3
 2041 017e 0FD2     		bcs	.L84
 2042              	.L89:
1082:./Libraries/STM32F4xx_HAL_Driver/Src/stm32f4xx_hal_dma2d.c ****         {
1083:./Libraries/STM32F4xx_HAL_Driver/Src/stm32f4xx_hal_dma2d.c ****           /* Update error code */
1084:./Libraries/STM32F4xx_HAL_Driver/Src/stm32f4xx_hal_dma2d.c ****           hdma2d->ErrorCode |= HAL_DMA2D_ERROR_TIMEOUT;
 2043              		.loc 1 1084 29
 2044 0180 7B68     		ldr	r3, [r7, #4]
 2045 0182 DB6B     		ldr	r3, [r3, #60]
 2046 0184 43F02002 		orr	r2, r3, #32
 2047 0188 7B68     		ldr	r3, [r7, #4]
 2048 018a DA63     		str	r2, [r3, #60]
1085:./Libraries/STM32F4xx_HAL_Driver/Src/stm32f4xx_hal_dma2d.c **** 
1086:./Libraries/STM32F4xx_HAL_Driver/Src/stm32f4xx_hal_dma2d.c ****           /* Change the DMA2D state */
1087:./Libraries/STM32F4xx_HAL_Driver/Src/stm32f4xx_hal_dma2d.c ****           hdma2d->State= HAL_DMA2D_STATE_TIMEOUT;
 2049              		.loc 1 1087 24
 2050 018c 7B68     		ldr	r3, [r7, #4]
 2051 018e 0322     		movs	r2, #3
 2052 0190 83F83920 		strb	r2, [r3, #57]
1088:./Libraries/STM32F4xx_HAL_Driver/Src/stm32f4xx_hal_dma2d.c **** 
1089:./Libraries/STM32F4xx_HAL_Driver/Src/stm32f4xx_hal_dma2d.c ****           /* Process unlocked */
1090:./Libraries/STM32F4xx_HAL_Driver/Src/stm32f4xx_hal_dma2d.c ****           __HAL_UNLOCK(hdma2d);
 2053              		.loc 1 1090 11
 2054 0194 7B68     		ldr	r3, [r7, #4]
 2055 0196 0022     		movs	r2, #0
ARM GAS  /tmp/ccgPJtk7.s 			page 56


 2056 0198 83F83820 		strb	r2, [r3, #56]
1091:./Libraries/STM32F4xx_HAL_Driver/Src/stm32f4xx_hal_dma2d.c **** 
1092:./Libraries/STM32F4xx_HAL_Driver/Src/stm32f4xx_hal_dma2d.c ****           return HAL_TIMEOUT;
 2057              		.loc 1 1092 18
 2058 019c 0323     		movs	r3, #3
 2059 019e 13E0     		b	.L79
 2060              	.L84:
1050:./Libraries/STM32F4xx_HAL_Driver/Src/stm32f4xx_hal_dma2d.c ****     {
 2061              		.loc 1 1050 11
 2062 01a0 7B68     		ldr	r3, [r7, #4]
 2063 01a2 1B68     		ldr	r3, [r3]
 2064 01a4 5B68     		ldr	r3, [r3, #4]
 2065 01a6 03F01003 		and	r3, r3, #16
1050:./Libraries/STM32F4xx_HAL_Driver/Src/stm32f4xx_hal_dma2d.c ****     {
 2066              		.loc 1 1050 10
 2067 01aa 002B     		cmp	r3, #0
 2068 01ac A1D0     		beq	.L90
 2069              	.L83:
1093:./Libraries/STM32F4xx_HAL_Driver/Src/stm32f4xx_hal_dma2d.c ****         }
1094:./Libraries/STM32F4xx_HAL_Driver/Src/stm32f4xx_hal_dma2d.c ****       }
1095:./Libraries/STM32F4xx_HAL_Driver/Src/stm32f4xx_hal_dma2d.c ****     }
1096:./Libraries/STM32F4xx_HAL_Driver/Src/stm32f4xx_hal_dma2d.c ****   }
1097:./Libraries/STM32F4xx_HAL_Driver/Src/stm32f4xx_hal_dma2d.c **** 
1098:./Libraries/STM32F4xx_HAL_Driver/Src/stm32f4xx_hal_dma2d.c ****   /* Clear the transfer complete and CLUT loading flags */
1099:./Libraries/STM32F4xx_HAL_Driver/Src/stm32f4xx_hal_dma2d.c ****   __HAL_DMA2D_CLEAR_FLAG(hdma2d, DMA2D_FLAG_TC|DMA2D_FLAG_CTC);
 2070              		.loc 1 1099 3
 2071 01ae 7B68     		ldr	r3, [r7, #4]
 2072 01b0 1B68     		ldr	r3, [r3]
 2073 01b2 1222     		movs	r2, #18
 2074 01b4 9A60     		str	r2, [r3, #8]
1100:./Libraries/STM32F4xx_HAL_Driver/Src/stm32f4xx_hal_dma2d.c **** 
1101:./Libraries/STM32F4xx_HAL_Driver/Src/stm32f4xx_hal_dma2d.c ****   /* Change DMA2D state */
1102:./Libraries/STM32F4xx_HAL_Driver/Src/stm32f4xx_hal_dma2d.c ****   hdma2d->State = HAL_DMA2D_STATE_READY;
 2075              		.loc 1 1102 17
 2076 01b6 7B68     		ldr	r3, [r7, #4]
 2077 01b8 0122     		movs	r2, #1
 2078 01ba 83F83920 		strb	r2, [r3, #57]
1103:./Libraries/STM32F4xx_HAL_Driver/Src/stm32f4xx_hal_dma2d.c **** 
1104:./Libraries/STM32F4xx_HAL_Driver/Src/stm32f4xx_hal_dma2d.c ****   /* Process unlocked */
1105:./Libraries/STM32F4xx_HAL_Driver/Src/stm32f4xx_hal_dma2d.c ****   __HAL_UNLOCK(hdma2d);
 2079              		.loc 1 1105 3
 2080 01be 7B68     		ldr	r3, [r7, #4]
 2081 01c0 0022     		movs	r2, #0
 2082 01c2 83F83820 		strb	r2, [r3, #56]
1106:./Libraries/STM32F4xx_HAL_Driver/Src/stm32f4xx_hal_dma2d.c **** 
1107:./Libraries/STM32F4xx_HAL_Driver/Src/stm32f4xx_hal_dma2d.c ****   return HAL_OK;
 2083              		.loc 1 1107 10
 2084 01c6 0023     		movs	r3, #0
 2085              	.L79:
1108:./Libraries/STM32F4xx_HAL_Driver/Src/stm32f4xx_hal_dma2d.c **** }
 2086              		.loc 1 1108 1
 2087 01c8 1846     		mov	r0, r3
 2088 01ca 1037     		adds	r7, r7, #16
 2089              	.LCFI95:
 2090              		.cfi_def_cfa_offset 8
 2091 01cc BD46     		mov	sp, r7
 2092              	.LCFI96:
ARM GAS  /tmp/ccgPJtk7.s 			page 57


 2093              		.cfi_def_cfa_register 13
 2094              		@ sp needed
 2095 01ce 80BD     		pop	{r7, pc}
 2096              		.cfi_endproc
 2097              	.LFE143:
 2099              		.section	.text.HAL_DMA2D_IRQHandler,"ax",%progbits
 2100              		.align	1
 2101              		.global	HAL_DMA2D_IRQHandler
 2102              		.syntax unified
 2103              		.thumb
 2104              		.thumb_func
 2105              		.fpu fpv4-sp-d16
 2107              	HAL_DMA2D_IRQHandler:
 2108              	.LFB144:
1109:./Libraries/STM32F4xx_HAL_Driver/Src/stm32f4xx_hal_dma2d.c **** /**
1110:./Libraries/STM32F4xx_HAL_Driver/Src/stm32f4xx_hal_dma2d.c ****   * @brief  Handle DMA2D interrupt request.
1111:./Libraries/STM32F4xx_HAL_Driver/Src/stm32f4xx_hal_dma2d.c ****   * @param  hdma2d Pointer to a DMA2D_HandleTypeDef structure that contains
1112:./Libraries/STM32F4xx_HAL_Driver/Src/stm32f4xx_hal_dma2d.c ****   *                 the configuration information for the DMA2D.
1113:./Libraries/STM32F4xx_HAL_Driver/Src/stm32f4xx_hal_dma2d.c ****   * @retval HAL status
1114:./Libraries/STM32F4xx_HAL_Driver/Src/stm32f4xx_hal_dma2d.c ****   */
1115:./Libraries/STM32F4xx_HAL_Driver/Src/stm32f4xx_hal_dma2d.c **** void HAL_DMA2D_IRQHandler(DMA2D_HandleTypeDef *hdma2d)
1116:./Libraries/STM32F4xx_HAL_Driver/Src/stm32f4xx_hal_dma2d.c **** {
 2109              		.loc 1 1116 1
 2110              		.cfi_startproc
 2111              		@ args = 0, pretend = 0, frame = 16
 2112              		@ frame_needed = 1, uses_anonymous_args = 0
 2113 0000 80B5     		push	{r7, lr}
 2114              	.LCFI97:
 2115              		.cfi_def_cfa_offset 8
 2116              		.cfi_offset 7, -8
 2117              		.cfi_offset 14, -4
 2118 0002 84B0     		sub	sp, sp, #16
 2119              	.LCFI98:
 2120              		.cfi_def_cfa_offset 24
 2121 0004 00AF     		add	r7, sp, #0
 2122              	.LCFI99:
 2123              		.cfi_def_cfa_register 7
 2124 0006 7860     		str	r0, [r7, #4]
1117:./Libraries/STM32F4xx_HAL_Driver/Src/stm32f4xx_hal_dma2d.c ****   uint32_t isrflags = READ_REG(hdma2d->Instance->ISR);
 2125              		.loc 1 1117 23
 2126 0008 7B68     		ldr	r3, [r7, #4]
 2127 000a 1B68     		ldr	r3, [r3]
 2128              		.loc 1 1117 12
 2129 000c 5B68     		ldr	r3, [r3, #4]
 2130 000e FB60     		str	r3, [r7, #12]
1118:./Libraries/STM32F4xx_HAL_Driver/Src/stm32f4xx_hal_dma2d.c ****   uint32_t crflags = READ_REG(hdma2d->Instance->CR);
 2131              		.loc 1 1118 22
 2132 0010 7B68     		ldr	r3, [r7, #4]
 2133 0012 1B68     		ldr	r3, [r3]
 2134              		.loc 1 1118 12
 2135 0014 1B68     		ldr	r3, [r3]
 2136 0016 BB60     		str	r3, [r7, #8]
1119:./Libraries/STM32F4xx_HAL_Driver/Src/stm32f4xx_hal_dma2d.c **** 
1120:./Libraries/STM32F4xx_HAL_Driver/Src/stm32f4xx_hal_dma2d.c ****   /* Transfer Error Interrupt management ***************************************/
1121:./Libraries/STM32F4xx_HAL_Driver/Src/stm32f4xx_hal_dma2d.c ****   if ((isrflags & DMA2D_FLAG_TE) != RESET)
 2137              		.loc 1 1121 17
 2138 0018 FB68     		ldr	r3, [r7, #12]
ARM GAS  /tmp/ccgPJtk7.s 			page 58


 2139 001a 03F00103 		and	r3, r3, #1
 2140              		.loc 1 1121 6
 2141 001e 002B     		cmp	r3, #0
 2142 0020 26D0     		beq	.L92
1122:./Libraries/STM32F4xx_HAL_Driver/Src/stm32f4xx_hal_dma2d.c ****   {
1123:./Libraries/STM32F4xx_HAL_Driver/Src/stm32f4xx_hal_dma2d.c ****     if ((crflags & DMA2D_IT_TE) != RESET)
 2143              		.loc 1 1123 18
 2144 0022 BB68     		ldr	r3, [r7, #8]
 2145 0024 03F48073 		and	r3, r3, #256
 2146              		.loc 1 1123 8
 2147 0028 002B     		cmp	r3, #0
 2148 002a 21D0     		beq	.L92
1124:./Libraries/STM32F4xx_HAL_Driver/Src/stm32f4xx_hal_dma2d.c ****     {
1125:./Libraries/STM32F4xx_HAL_Driver/Src/stm32f4xx_hal_dma2d.c ****       /* Disable the transfer Error interrupt */
1126:./Libraries/STM32F4xx_HAL_Driver/Src/stm32f4xx_hal_dma2d.c ****       __HAL_DMA2D_DISABLE_IT(hdma2d, DMA2D_IT_TE);
 2149              		.loc 1 1126 7
 2150 002c 7B68     		ldr	r3, [r7, #4]
 2151 002e 1B68     		ldr	r3, [r3]
 2152 0030 1A68     		ldr	r2, [r3]
 2153 0032 7B68     		ldr	r3, [r7, #4]
 2154 0034 1B68     		ldr	r3, [r3]
 2155 0036 22F48072 		bic	r2, r2, #256
 2156 003a 1A60     		str	r2, [r3]
1127:./Libraries/STM32F4xx_HAL_Driver/Src/stm32f4xx_hal_dma2d.c **** 
1128:./Libraries/STM32F4xx_HAL_Driver/Src/stm32f4xx_hal_dma2d.c ****       /* Update error code */
1129:./Libraries/STM32F4xx_HAL_Driver/Src/stm32f4xx_hal_dma2d.c ****       hdma2d->ErrorCode |= HAL_DMA2D_ERROR_TE;
 2157              		.loc 1 1129 25
 2158 003c 7B68     		ldr	r3, [r7, #4]
 2159 003e DB6B     		ldr	r3, [r3, #60]
 2160 0040 43F00102 		orr	r2, r3, #1
 2161 0044 7B68     		ldr	r3, [r7, #4]
 2162 0046 DA63     		str	r2, [r3, #60]
1130:./Libraries/STM32F4xx_HAL_Driver/Src/stm32f4xx_hal_dma2d.c **** 
1131:./Libraries/STM32F4xx_HAL_Driver/Src/stm32f4xx_hal_dma2d.c ****       /* Clear the transfer error flag */
1132:./Libraries/STM32F4xx_HAL_Driver/Src/stm32f4xx_hal_dma2d.c ****       __HAL_DMA2D_CLEAR_FLAG(hdma2d, DMA2D_FLAG_TE);
 2163              		.loc 1 1132 7
 2164 0048 7B68     		ldr	r3, [r7, #4]
 2165 004a 1B68     		ldr	r3, [r3]
 2166 004c 0122     		movs	r2, #1
 2167 004e 9A60     		str	r2, [r3, #8]
1133:./Libraries/STM32F4xx_HAL_Driver/Src/stm32f4xx_hal_dma2d.c **** 
1134:./Libraries/STM32F4xx_HAL_Driver/Src/stm32f4xx_hal_dma2d.c ****       /* Change DMA2D state */
1135:./Libraries/STM32F4xx_HAL_Driver/Src/stm32f4xx_hal_dma2d.c ****       hdma2d->State = HAL_DMA2D_STATE_ERROR;
 2168              		.loc 1 1135 21
 2169 0050 7B68     		ldr	r3, [r7, #4]
 2170 0052 0422     		movs	r2, #4
 2171 0054 83F83920 		strb	r2, [r3, #57]
1136:./Libraries/STM32F4xx_HAL_Driver/Src/stm32f4xx_hal_dma2d.c **** 
1137:./Libraries/STM32F4xx_HAL_Driver/Src/stm32f4xx_hal_dma2d.c ****       /* Process Unlocked */
1138:./Libraries/STM32F4xx_HAL_Driver/Src/stm32f4xx_hal_dma2d.c ****       __HAL_UNLOCK(hdma2d);
 2172              		.loc 1 1138 7
 2173 0058 7B68     		ldr	r3, [r7, #4]
 2174 005a 0022     		movs	r2, #0
 2175 005c 83F83820 		strb	r2, [r3, #56]
1139:./Libraries/STM32F4xx_HAL_Driver/Src/stm32f4xx_hal_dma2d.c **** 
1140:./Libraries/STM32F4xx_HAL_Driver/Src/stm32f4xx_hal_dma2d.c ****       if(hdma2d->XferErrorCallback != NULL)
 2176              		.loc 1 1140 16
ARM GAS  /tmp/ccgPJtk7.s 			page 59


 2177 0060 7B68     		ldr	r3, [r7, #4]
 2178 0062 5B69     		ldr	r3, [r3, #20]
 2179              		.loc 1 1140 9
 2180 0064 002B     		cmp	r3, #0
 2181 0066 03D0     		beq	.L92
1141:./Libraries/STM32F4xx_HAL_Driver/Src/stm32f4xx_hal_dma2d.c ****       {
1142:./Libraries/STM32F4xx_HAL_Driver/Src/stm32f4xx_hal_dma2d.c ****         /* Transfer error Callback */
1143:./Libraries/STM32F4xx_HAL_Driver/Src/stm32f4xx_hal_dma2d.c ****         hdma2d->XferErrorCallback(hdma2d);
 2182              		.loc 1 1143 15
 2183 0068 7B68     		ldr	r3, [r7, #4]
 2184 006a 5B69     		ldr	r3, [r3, #20]
 2185              		.loc 1 1143 9
 2186 006c 7868     		ldr	r0, [r7, #4]
 2187 006e 9847     		blx	r3
 2188              	.LVL0:
 2189              	.L92:
1144:./Libraries/STM32F4xx_HAL_Driver/Src/stm32f4xx_hal_dma2d.c ****       }
1145:./Libraries/STM32F4xx_HAL_Driver/Src/stm32f4xx_hal_dma2d.c ****     }
1146:./Libraries/STM32F4xx_HAL_Driver/Src/stm32f4xx_hal_dma2d.c ****   }
1147:./Libraries/STM32F4xx_HAL_Driver/Src/stm32f4xx_hal_dma2d.c ****   /* Configuration Error Interrupt management **********************************/
1148:./Libraries/STM32F4xx_HAL_Driver/Src/stm32f4xx_hal_dma2d.c ****   if ((isrflags & DMA2D_FLAG_CE) != RESET)
 2190              		.loc 1 1148 17
 2191 0070 FB68     		ldr	r3, [r7, #12]
 2192 0072 03F02003 		and	r3, r3, #32
 2193              		.loc 1 1148 6
 2194 0076 002B     		cmp	r3, #0
 2195 0078 26D0     		beq	.L93
1149:./Libraries/STM32F4xx_HAL_Driver/Src/stm32f4xx_hal_dma2d.c ****   {
1150:./Libraries/STM32F4xx_HAL_Driver/Src/stm32f4xx_hal_dma2d.c ****     if ((crflags & DMA2D_IT_CE) != RESET)
 2196              		.loc 1 1150 18
 2197 007a BB68     		ldr	r3, [r7, #8]
 2198 007c 03F40053 		and	r3, r3, #8192
 2199              		.loc 1 1150 8
 2200 0080 002B     		cmp	r3, #0
 2201 0082 21D0     		beq	.L93
1151:./Libraries/STM32F4xx_HAL_Driver/Src/stm32f4xx_hal_dma2d.c ****     {
1152:./Libraries/STM32F4xx_HAL_Driver/Src/stm32f4xx_hal_dma2d.c ****       /* Disable the Configuration Error interrupt */
1153:./Libraries/STM32F4xx_HAL_Driver/Src/stm32f4xx_hal_dma2d.c ****       __HAL_DMA2D_DISABLE_IT(hdma2d, DMA2D_IT_CE);
 2202              		.loc 1 1153 7
 2203 0084 7B68     		ldr	r3, [r7, #4]
 2204 0086 1B68     		ldr	r3, [r3]
 2205 0088 1A68     		ldr	r2, [r3]
 2206 008a 7B68     		ldr	r3, [r7, #4]
 2207 008c 1B68     		ldr	r3, [r3]
 2208 008e 22F40052 		bic	r2, r2, #8192
 2209 0092 1A60     		str	r2, [r3]
1154:./Libraries/STM32F4xx_HAL_Driver/Src/stm32f4xx_hal_dma2d.c **** 
1155:./Libraries/STM32F4xx_HAL_Driver/Src/stm32f4xx_hal_dma2d.c ****       /* Clear the Configuration error flag */
1156:./Libraries/STM32F4xx_HAL_Driver/Src/stm32f4xx_hal_dma2d.c ****       __HAL_DMA2D_CLEAR_FLAG(hdma2d, DMA2D_FLAG_CE);
 2210              		.loc 1 1156 7
 2211 0094 7B68     		ldr	r3, [r7, #4]
 2212 0096 1B68     		ldr	r3, [r3]
 2213 0098 2022     		movs	r2, #32
 2214 009a 9A60     		str	r2, [r3, #8]
1157:./Libraries/STM32F4xx_HAL_Driver/Src/stm32f4xx_hal_dma2d.c **** 
1158:./Libraries/STM32F4xx_HAL_Driver/Src/stm32f4xx_hal_dma2d.c ****       /* Update error code */
1159:./Libraries/STM32F4xx_HAL_Driver/Src/stm32f4xx_hal_dma2d.c ****       hdma2d->ErrorCode |= HAL_DMA2D_ERROR_CE;
ARM GAS  /tmp/ccgPJtk7.s 			page 60


 2215              		.loc 1 1159 25
 2216 009c 7B68     		ldr	r3, [r7, #4]
 2217 009e DB6B     		ldr	r3, [r3, #60]
 2218 00a0 43F00202 		orr	r2, r3, #2
 2219 00a4 7B68     		ldr	r3, [r7, #4]
 2220 00a6 DA63     		str	r2, [r3, #60]
1160:./Libraries/STM32F4xx_HAL_Driver/Src/stm32f4xx_hal_dma2d.c **** 
1161:./Libraries/STM32F4xx_HAL_Driver/Src/stm32f4xx_hal_dma2d.c ****       /* Change DMA2D state */
1162:./Libraries/STM32F4xx_HAL_Driver/Src/stm32f4xx_hal_dma2d.c ****       hdma2d->State = HAL_DMA2D_STATE_ERROR;
 2221              		.loc 1 1162 21
 2222 00a8 7B68     		ldr	r3, [r7, #4]
 2223 00aa 0422     		movs	r2, #4
 2224 00ac 83F83920 		strb	r2, [r3, #57]
1163:./Libraries/STM32F4xx_HAL_Driver/Src/stm32f4xx_hal_dma2d.c **** 
1164:./Libraries/STM32F4xx_HAL_Driver/Src/stm32f4xx_hal_dma2d.c ****       /* Process Unlocked */
1165:./Libraries/STM32F4xx_HAL_Driver/Src/stm32f4xx_hal_dma2d.c ****       __HAL_UNLOCK(hdma2d);
 2225              		.loc 1 1165 7
 2226 00b0 7B68     		ldr	r3, [r7, #4]
 2227 00b2 0022     		movs	r2, #0
 2228 00b4 83F83820 		strb	r2, [r3, #56]
1166:./Libraries/STM32F4xx_HAL_Driver/Src/stm32f4xx_hal_dma2d.c **** 
1167:./Libraries/STM32F4xx_HAL_Driver/Src/stm32f4xx_hal_dma2d.c ****       if(hdma2d->XferErrorCallback != NULL)
 2229              		.loc 1 1167 16
 2230 00b8 7B68     		ldr	r3, [r7, #4]
 2231 00ba 5B69     		ldr	r3, [r3, #20]
 2232              		.loc 1 1167 9
 2233 00bc 002B     		cmp	r3, #0
 2234 00be 03D0     		beq	.L93
1168:./Libraries/STM32F4xx_HAL_Driver/Src/stm32f4xx_hal_dma2d.c ****       {
1169:./Libraries/STM32F4xx_HAL_Driver/Src/stm32f4xx_hal_dma2d.c ****         /* Transfer error Callback */
1170:./Libraries/STM32F4xx_HAL_Driver/Src/stm32f4xx_hal_dma2d.c ****         hdma2d->XferErrorCallback(hdma2d);
 2235              		.loc 1 1170 15
 2236 00c0 7B68     		ldr	r3, [r7, #4]
 2237 00c2 5B69     		ldr	r3, [r3, #20]
 2238              		.loc 1 1170 9
 2239 00c4 7868     		ldr	r0, [r7, #4]
 2240 00c6 9847     		blx	r3
 2241              	.LVL1:
 2242              	.L93:
1171:./Libraries/STM32F4xx_HAL_Driver/Src/stm32f4xx_hal_dma2d.c ****       }
1172:./Libraries/STM32F4xx_HAL_Driver/Src/stm32f4xx_hal_dma2d.c ****     }
1173:./Libraries/STM32F4xx_HAL_Driver/Src/stm32f4xx_hal_dma2d.c ****   }
1174:./Libraries/STM32F4xx_HAL_Driver/Src/stm32f4xx_hal_dma2d.c ****   /* CLUT access Error Interrupt management ***********************************/
1175:./Libraries/STM32F4xx_HAL_Driver/Src/stm32f4xx_hal_dma2d.c ****   if ((isrflags & DMA2D_FLAG_CAE) != RESET)
 2243              		.loc 1 1175 17
 2244 00c8 FB68     		ldr	r3, [r7, #12]
 2245 00ca 03F00803 		and	r3, r3, #8
 2246              		.loc 1 1175 6
 2247 00ce 002B     		cmp	r3, #0
 2248 00d0 26D0     		beq	.L94
1176:./Libraries/STM32F4xx_HAL_Driver/Src/stm32f4xx_hal_dma2d.c ****   {
1177:./Libraries/STM32F4xx_HAL_Driver/Src/stm32f4xx_hal_dma2d.c ****     if ((crflags & DMA2D_IT_CAE) != RESET)
 2249              		.loc 1 1177 18
 2250 00d2 BB68     		ldr	r3, [r7, #8]
 2251 00d4 03F40063 		and	r3, r3, #2048
 2252              		.loc 1 1177 8
 2253 00d8 002B     		cmp	r3, #0
ARM GAS  /tmp/ccgPJtk7.s 			page 61


 2254 00da 21D0     		beq	.L94
1178:./Libraries/STM32F4xx_HAL_Driver/Src/stm32f4xx_hal_dma2d.c ****     {
1179:./Libraries/STM32F4xx_HAL_Driver/Src/stm32f4xx_hal_dma2d.c ****       /* Disable the CLUT access error interrupt */
1180:./Libraries/STM32F4xx_HAL_Driver/Src/stm32f4xx_hal_dma2d.c ****       __HAL_DMA2D_DISABLE_IT(hdma2d, DMA2D_IT_CAE);
 2255              		.loc 1 1180 7
 2256 00dc 7B68     		ldr	r3, [r7, #4]
 2257 00de 1B68     		ldr	r3, [r3]
 2258 00e0 1A68     		ldr	r2, [r3]
 2259 00e2 7B68     		ldr	r3, [r7, #4]
 2260 00e4 1B68     		ldr	r3, [r3]
 2261 00e6 22F40062 		bic	r2, r2, #2048
 2262 00ea 1A60     		str	r2, [r3]
1181:./Libraries/STM32F4xx_HAL_Driver/Src/stm32f4xx_hal_dma2d.c **** 
1182:./Libraries/STM32F4xx_HAL_Driver/Src/stm32f4xx_hal_dma2d.c ****       /* Clear the CLUT access error flag */
1183:./Libraries/STM32F4xx_HAL_Driver/Src/stm32f4xx_hal_dma2d.c ****       __HAL_DMA2D_CLEAR_FLAG(hdma2d, DMA2D_FLAG_CAE);
 2263              		.loc 1 1183 7
 2264 00ec 7B68     		ldr	r3, [r7, #4]
 2265 00ee 1B68     		ldr	r3, [r3]
 2266 00f0 0822     		movs	r2, #8
 2267 00f2 9A60     		str	r2, [r3, #8]
1184:./Libraries/STM32F4xx_HAL_Driver/Src/stm32f4xx_hal_dma2d.c **** 
1185:./Libraries/STM32F4xx_HAL_Driver/Src/stm32f4xx_hal_dma2d.c ****       /* Update error code */
1186:./Libraries/STM32F4xx_HAL_Driver/Src/stm32f4xx_hal_dma2d.c ****       hdma2d->ErrorCode |= HAL_DMA2D_ERROR_CAE;
 2268              		.loc 1 1186 25
 2269 00f4 7B68     		ldr	r3, [r7, #4]
 2270 00f6 DB6B     		ldr	r3, [r3, #60]
 2271 00f8 43F00402 		orr	r2, r3, #4
 2272 00fc 7B68     		ldr	r3, [r7, #4]
 2273 00fe DA63     		str	r2, [r3, #60]
1187:./Libraries/STM32F4xx_HAL_Driver/Src/stm32f4xx_hal_dma2d.c **** 
1188:./Libraries/STM32F4xx_HAL_Driver/Src/stm32f4xx_hal_dma2d.c ****       /* Change DMA2D state */
1189:./Libraries/STM32F4xx_HAL_Driver/Src/stm32f4xx_hal_dma2d.c ****       hdma2d->State = HAL_DMA2D_STATE_ERROR;
 2274              		.loc 1 1189 21
 2275 0100 7B68     		ldr	r3, [r7, #4]
 2276 0102 0422     		movs	r2, #4
 2277 0104 83F83920 		strb	r2, [r3, #57]
1190:./Libraries/STM32F4xx_HAL_Driver/Src/stm32f4xx_hal_dma2d.c **** 
1191:./Libraries/STM32F4xx_HAL_Driver/Src/stm32f4xx_hal_dma2d.c ****       /* Process Unlocked */
1192:./Libraries/STM32F4xx_HAL_Driver/Src/stm32f4xx_hal_dma2d.c ****       __HAL_UNLOCK(hdma2d);
 2278              		.loc 1 1192 7
 2279 0108 7B68     		ldr	r3, [r7, #4]
 2280 010a 0022     		movs	r2, #0
 2281 010c 83F83820 		strb	r2, [r3, #56]
1193:./Libraries/STM32F4xx_HAL_Driver/Src/stm32f4xx_hal_dma2d.c **** 
1194:./Libraries/STM32F4xx_HAL_Driver/Src/stm32f4xx_hal_dma2d.c ****       if(hdma2d->XferErrorCallback != NULL)
 2282              		.loc 1 1194 16
 2283 0110 7B68     		ldr	r3, [r7, #4]
 2284 0112 5B69     		ldr	r3, [r3, #20]
 2285              		.loc 1 1194 9
 2286 0114 002B     		cmp	r3, #0
 2287 0116 03D0     		beq	.L94
1195:./Libraries/STM32F4xx_HAL_Driver/Src/stm32f4xx_hal_dma2d.c ****       {
1196:./Libraries/STM32F4xx_HAL_Driver/Src/stm32f4xx_hal_dma2d.c ****         /* Transfer error Callback */
1197:./Libraries/STM32F4xx_HAL_Driver/Src/stm32f4xx_hal_dma2d.c ****         hdma2d->XferErrorCallback(hdma2d);
 2288              		.loc 1 1197 15
 2289 0118 7B68     		ldr	r3, [r7, #4]
 2290 011a 5B69     		ldr	r3, [r3, #20]
ARM GAS  /tmp/ccgPJtk7.s 			page 62


 2291              		.loc 1 1197 9
 2292 011c 7868     		ldr	r0, [r7, #4]
 2293 011e 9847     		blx	r3
 2294              	.LVL2:
 2295              	.L94:
1198:./Libraries/STM32F4xx_HAL_Driver/Src/stm32f4xx_hal_dma2d.c ****       }
1199:./Libraries/STM32F4xx_HAL_Driver/Src/stm32f4xx_hal_dma2d.c ****     }
1200:./Libraries/STM32F4xx_HAL_Driver/Src/stm32f4xx_hal_dma2d.c ****   }
1201:./Libraries/STM32F4xx_HAL_Driver/Src/stm32f4xx_hal_dma2d.c ****   /* Transfer watermark Interrupt management **********************************/
1202:./Libraries/STM32F4xx_HAL_Driver/Src/stm32f4xx_hal_dma2d.c ****   if ((isrflags & DMA2D_FLAG_TW) != RESET)
 2296              		.loc 1 1202 17
 2297 0120 FB68     		ldr	r3, [r7, #12]
 2298 0122 03F00403 		and	r3, r3, #4
 2299              		.loc 1 1202 6
 2300 0126 002B     		cmp	r3, #0
 2301 0128 13D0     		beq	.L95
1203:./Libraries/STM32F4xx_HAL_Driver/Src/stm32f4xx_hal_dma2d.c ****   {
1204:./Libraries/STM32F4xx_HAL_Driver/Src/stm32f4xx_hal_dma2d.c ****     if ((crflags & DMA2D_IT_TW) != RESET)
 2302              		.loc 1 1204 18
 2303 012a BB68     		ldr	r3, [r7, #8]
 2304 012c 03F48063 		and	r3, r3, #1024
 2305              		.loc 1 1204 8
 2306 0130 002B     		cmp	r3, #0
 2307 0132 0ED0     		beq	.L95
1205:./Libraries/STM32F4xx_HAL_Driver/Src/stm32f4xx_hal_dma2d.c ****     {
1206:./Libraries/STM32F4xx_HAL_Driver/Src/stm32f4xx_hal_dma2d.c ****       /* Disable the transfer watermark interrupt */
1207:./Libraries/STM32F4xx_HAL_Driver/Src/stm32f4xx_hal_dma2d.c ****       __HAL_DMA2D_DISABLE_IT(hdma2d, DMA2D_IT_TW);
 2308              		.loc 1 1207 7
 2309 0134 7B68     		ldr	r3, [r7, #4]
 2310 0136 1B68     		ldr	r3, [r3]
 2311 0138 1A68     		ldr	r2, [r3]
 2312 013a 7B68     		ldr	r3, [r7, #4]
 2313 013c 1B68     		ldr	r3, [r3]
 2314 013e 22F48062 		bic	r2, r2, #1024
 2315 0142 1A60     		str	r2, [r3]
1208:./Libraries/STM32F4xx_HAL_Driver/Src/stm32f4xx_hal_dma2d.c **** 
1209:./Libraries/STM32F4xx_HAL_Driver/Src/stm32f4xx_hal_dma2d.c ****       /* Clear the transfer watermark flag */
1210:./Libraries/STM32F4xx_HAL_Driver/Src/stm32f4xx_hal_dma2d.c ****       __HAL_DMA2D_CLEAR_FLAG(hdma2d, DMA2D_FLAG_TW);
 2316              		.loc 1 1210 7
 2317 0144 7B68     		ldr	r3, [r7, #4]
 2318 0146 1B68     		ldr	r3, [r3]
 2319 0148 0422     		movs	r2, #4
 2320 014a 9A60     		str	r2, [r3, #8]
1211:./Libraries/STM32F4xx_HAL_Driver/Src/stm32f4xx_hal_dma2d.c **** 
1212:./Libraries/STM32F4xx_HAL_Driver/Src/stm32f4xx_hal_dma2d.c ****       /* Transfer watermark Callback */
1213:./Libraries/STM32F4xx_HAL_Driver/Src/stm32f4xx_hal_dma2d.c ****       HAL_DMA2D_LineEventCallback(hdma2d);
 2321              		.loc 1 1213 7
 2322 014c 7868     		ldr	r0, [r7, #4]
 2323 014e FFF7FEFF 		bl	HAL_DMA2D_LineEventCallback
 2324              	.L95:
1214:./Libraries/STM32F4xx_HAL_Driver/Src/stm32f4xx_hal_dma2d.c ****     }
1215:./Libraries/STM32F4xx_HAL_Driver/Src/stm32f4xx_hal_dma2d.c ****   }
1216:./Libraries/STM32F4xx_HAL_Driver/Src/stm32f4xx_hal_dma2d.c ****   /* Transfer Complete Interrupt management ************************************/
1217:./Libraries/STM32F4xx_HAL_Driver/Src/stm32f4xx_hal_dma2d.c ****   if ((isrflags & DMA2D_FLAG_TC) != RESET)
 2325              		.loc 1 1217 17
 2326 0152 FB68     		ldr	r3, [r7, #12]
 2327 0154 03F00203 		and	r3, r3, #2
ARM GAS  /tmp/ccgPJtk7.s 			page 63


 2328              		.loc 1 1217 6
 2329 0158 002B     		cmp	r3, #0
 2330 015a 24D0     		beq	.L96
1218:./Libraries/STM32F4xx_HAL_Driver/Src/stm32f4xx_hal_dma2d.c ****   {
1219:./Libraries/STM32F4xx_HAL_Driver/Src/stm32f4xx_hal_dma2d.c ****     if ((crflags & DMA2D_IT_TC) != RESET)
 2331              		.loc 1 1219 18
 2332 015c BB68     		ldr	r3, [r7, #8]
 2333 015e 03F40073 		and	r3, r3, #512
 2334              		.loc 1 1219 8
 2335 0162 002B     		cmp	r3, #0
 2336 0164 1FD0     		beq	.L96
1220:./Libraries/STM32F4xx_HAL_Driver/Src/stm32f4xx_hal_dma2d.c ****     {
1221:./Libraries/STM32F4xx_HAL_Driver/Src/stm32f4xx_hal_dma2d.c ****       /* Disable the transfer complete interrupt */
1222:./Libraries/STM32F4xx_HAL_Driver/Src/stm32f4xx_hal_dma2d.c ****       __HAL_DMA2D_DISABLE_IT(hdma2d, DMA2D_IT_TC);
 2337              		.loc 1 1222 7
 2338 0166 7B68     		ldr	r3, [r7, #4]
 2339 0168 1B68     		ldr	r3, [r3]
 2340 016a 1A68     		ldr	r2, [r3]
 2341 016c 7B68     		ldr	r3, [r7, #4]
 2342 016e 1B68     		ldr	r3, [r3]
 2343 0170 22F40072 		bic	r2, r2, #512
 2344 0174 1A60     		str	r2, [r3]
1223:./Libraries/STM32F4xx_HAL_Driver/Src/stm32f4xx_hal_dma2d.c **** 
1224:./Libraries/STM32F4xx_HAL_Driver/Src/stm32f4xx_hal_dma2d.c ****       /* Clear the transfer complete flag */
1225:./Libraries/STM32F4xx_HAL_Driver/Src/stm32f4xx_hal_dma2d.c ****       __HAL_DMA2D_CLEAR_FLAG(hdma2d, DMA2D_FLAG_TC);
 2345              		.loc 1 1225 7
 2346 0176 7B68     		ldr	r3, [r7, #4]
 2347 0178 1B68     		ldr	r3, [r3]
 2348 017a 0222     		movs	r2, #2
 2349 017c 9A60     		str	r2, [r3, #8]
1226:./Libraries/STM32F4xx_HAL_Driver/Src/stm32f4xx_hal_dma2d.c **** 
1227:./Libraries/STM32F4xx_HAL_Driver/Src/stm32f4xx_hal_dma2d.c ****       /* Update error code */
1228:./Libraries/STM32F4xx_HAL_Driver/Src/stm32f4xx_hal_dma2d.c ****       hdma2d->ErrorCode |= HAL_DMA2D_ERROR_NONE;
 2350              		.loc 1 1228 25
 2351 017e 7B68     		ldr	r3, [r7, #4]
 2352 0180 DA6B     		ldr	r2, [r3, #60]
 2353 0182 7B68     		ldr	r3, [r7, #4]
 2354 0184 DA63     		str	r2, [r3, #60]
1229:./Libraries/STM32F4xx_HAL_Driver/Src/stm32f4xx_hal_dma2d.c **** 
1230:./Libraries/STM32F4xx_HAL_Driver/Src/stm32f4xx_hal_dma2d.c ****       /* Change DMA2D state */
1231:./Libraries/STM32F4xx_HAL_Driver/Src/stm32f4xx_hal_dma2d.c ****       hdma2d->State = HAL_DMA2D_STATE_READY;
 2355              		.loc 1 1231 21
 2356 0186 7B68     		ldr	r3, [r7, #4]
 2357 0188 0122     		movs	r2, #1
 2358 018a 83F83920 		strb	r2, [r3, #57]
1232:./Libraries/STM32F4xx_HAL_Driver/Src/stm32f4xx_hal_dma2d.c **** 
1233:./Libraries/STM32F4xx_HAL_Driver/Src/stm32f4xx_hal_dma2d.c ****       /* Process Unlocked */
1234:./Libraries/STM32F4xx_HAL_Driver/Src/stm32f4xx_hal_dma2d.c ****       __HAL_UNLOCK(hdma2d);
 2359              		.loc 1 1234 7
 2360 018e 7B68     		ldr	r3, [r7, #4]
 2361 0190 0022     		movs	r2, #0
 2362 0192 83F83820 		strb	r2, [r3, #56]
1235:./Libraries/STM32F4xx_HAL_Driver/Src/stm32f4xx_hal_dma2d.c **** 
1236:./Libraries/STM32F4xx_HAL_Driver/Src/stm32f4xx_hal_dma2d.c ****       if(hdma2d->XferCpltCallback != NULL)
 2363              		.loc 1 1236 16
 2364 0196 7B68     		ldr	r3, [r7, #4]
 2365 0198 1B69     		ldr	r3, [r3, #16]
ARM GAS  /tmp/ccgPJtk7.s 			page 64


 2366              		.loc 1 1236 9
 2367 019a 002B     		cmp	r3, #0
 2368 019c 03D0     		beq	.L96
1237:./Libraries/STM32F4xx_HAL_Driver/Src/stm32f4xx_hal_dma2d.c ****       {
1238:./Libraries/STM32F4xx_HAL_Driver/Src/stm32f4xx_hal_dma2d.c ****         /* Transfer complete Callback */
1239:./Libraries/STM32F4xx_HAL_Driver/Src/stm32f4xx_hal_dma2d.c ****         hdma2d->XferCpltCallback(hdma2d);
 2369              		.loc 1 1239 15
 2370 019e 7B68     		ldr	r3, [r7, #4]
 2371 01a0 1B69     		ldr	r3, [r3, #16]
 2372              		.loc 1 1239 9
 2373 01a2 7868     		ldr	r0, [r7, #4]
 2374 01a4 9847     		blx	r3
 2375              	.LVL3:
 2376              	.L96:
1240:./Libraries/STM32F4xx_HAL_Driver/Src/stm32f4xx_hal_dma2d.c ****       }
1241:./Libraries/STM32F4xx_HAL_Driver/Src/stm32f4xx_hal_dma2d.c ****     }
1242:./Libraries/STM32F4xx_HAL_Driver/Src/stm32f4xx_hal_dma2d.c ****   }
1243:./Libraries/STM32F4xx_HAL_Driver/Src/stm32f4xx_hal_dma2d.c ****   /* CLUT Transfer Complete Interrupt management ******************************/
1244:./Libraries/STM32F4xx_HAL_Driver/Src/stm32f4xx_hal_dma2d.c ****   if ((isrflags & DMA2D_FLAG_CTC) != RESET)
 2377              		.loc 1 1244 17
 2378 01a6 FB68     		ldr	r3, [r7, #12]
 2379 01a8 03F01003 		and	r3, r3, #16
 2380              		.loc 1 1244 6
 2381 01ac 002B     		cmp	r3, #0
 2382 01ae 1FD0     		beq	.L98
1245:./Libraries/STM32F4xx_HAL_Driver/Src/stm32f4xx_hal_dma2d.c ****   {
1246:./Libraries/STM32F4xx_HAL_Driver/Src/stm32f4xx_hal_dma2d.c ****     if ((crflags & DMA2D_IT_CTC) != RESET)
 2383              		.loc 1 1246 18
 2384 01b0 BB68     		ldr	r3, [r7, #8]
 2385 01b2 03F48053 		and	r3, r3, #4096
 2386              		.loc 1 1246 8
 2387 01b6 002B     		cmp	r3, #0
 2388 01b8 1AD0     		beq	.L98
1247:./Libraries/STM32F4xx_HAL_Driver/Src/stm32f4xx_hal_dma2d.c ****     {
1248:./Libraries/STM32F4xx_HAL_Driver/Src/stm32f4xx_hal_dma2d.c ****       /* Disable the CLUT transfer complete interrupt */
1249:./Libraries/STM32F4xx_HAL_Driver/Src/stm32f4xx_hal_dma2d.c ****       __HAL_DMA2D_DISABLE_IT(hdma2d, DMA2D_IT_CTC);
 2389              		.loc 1 1249 7
 2390 01ba 7B68     		ldr	r3, [r7, #4]
 2391 01bc 1B68     		ldr	r3, [r3]
 2392 01be 1A68     		ldr	r2, [r3]
 2393 01c0 7B68     		ldr	r3, [r7, #4]
 2394 01c2 1B68     		ldr	r3, [r3]
 2395 01c4 22F48052 		bic	r2, r2, #4096
 2396 01c8 1A60     		str	r2, [r3]
1250:./Libraries/STM32F4xx_HAL_Driver/Src/stm32f4xx_hal_dma2d.c **** 
1251:./Libraries/STM32F4xx_HAL_Driver/Src/stm32f4xx_hal_dma2d.c ****       /* Clear the CLUT transfer complete flag */
1252:./Libraries/STM32F4xx_HAL_Driver/Src/stm32f4xx_hal_dma2d.c ****       __HAL_DMA2D_CLEAR_FLAG(hdma2d, DMA2D_FLAG_CTC);
 2397              		.loc 1 1252 7
 2398 01ca 7B68     		ldr	r3, [r7, #4]
 2399 01cc 1B68     		ldr	r3, [r3]
 2400 01ce 1022     		movs	r2, #16
 2401 01d0 9A60     		str	r2, [r3, #8]
1253:./Libraries/STM32F4xx_HAL_Driver/Src/stm32f4xx_hal_dma2d.c **** 
1254:./Libraries/STM32F4xx_HAL_Driver/Src/stm32f4xx_hal_dma2d.c ****       /* Update error code */
1255:./Libraries/STM32F4xx_HAL_Driver/Src/stm32f4xx_hal_dma2d.c ****       hdma2d->ErrorCode |= HAL_DMA2D_ERROR_NONE;
 2402              		.loc 1 1255 25
 2403 01d2 7B68     		ldr	r3, [r7, #4]
ARM GAS  /tmp/ccgPJtk7.s 			page 65


 2404 01d4 DA6B     		ldr	r2, [r3, #60]
 2405 01d6 7B68     		ldr	r3, [r7, #4]
 2406 01d8 DA63     		str	r2, [r3, #60]
1256:./Libraries/STM32F4xx_HAL_Driver/Src/stm32f4xx_hal_dma2d.c **** 
1257:./Libraries/STM32F4xx_HAL_Driver/Src/stm32f4xx_hal_dma2d.c ****       /* Change DMA2D state */
1258:./Libraries/STM32F4xx_HAL_Driver/Src/stm32f4xx_hal_dma2d.c ****       hdma2d->State = HAL_DMA2D_STATE_READY;
 2407              		.loc 1 1258 21
 2408 01da 7B68     		ldr	r3, [r7, #4]
 2409 01dc 0122     		movs	r2, #1
 2410 01de 83F83920 		strb	r2, [r3, #57]
1259:./Libraries/STM32F4xx_HAL_Driver/Src/stm32f4xx_hal_dma2d.c **** 
1260:./Libraries/STM32F4xx_HAL_Driver/Src/stm32f4xx_hal_dma2d.c ****       /* Process Unlocked */
1261:./Libraries/STM32F4xx_HAL_Driver/Src/stm32f4xx_hal_dma2d.c ****       __HAL_UNLOCK(hdma2d);
 2411              		.loc 1 1261 7
 2412 01e2 7B68     		ldr	r3, [r7, #4]
 2413 01e4 0022     		movs	r2, #0
 2414 01e6 83F83820 		strb	r2, [r3, #56]
1262:./Libraries/STM32F4xx_HAL_Driver/Src/stm32f4xx_hal_dma2d.c **** 
1263:./Libraries/STM32F4xx_HAL_Driver/Src/stm32f4xx_hal_dma2d.c ****       /* CLUT Transfer complete Callback */
1264:./Libraries/STM32F4xx_HAL_Driver/Src/stm32f4xx_hal_dma2d.c ****       HAL_DMA2D_CLUTLoadingCpltCallback(hdma2d);
 2415              		.loc 1 1264 7
 2416 01ea 7868     		ldr	r0, [r7, #4]
 2417 01ec FFF7FEFF 		bl	HAL_DMA2D_CLUTLoadingCpltCallback
 2418              	.L98:
1265:./Libraries/STM32F4xx_HAL_Driver/Src/stm32f4xx_hal_dma2d.c ****     }
1266:./Libraries/STM32F4xx_HAL_Driver/Src/stm32f4xx_hal_dma2d.c ****   }
1267:./Libraries/STM32F4xx_HAL_Driver/Src/stm32f4xx_hal_dma2d.c **** }
 2419              		.loc 1 1267 1
 2420 01f0 00BF     		nop
 2421 01f2 1037     		adds	r7, r7, #16
 2422              	.LCFI100:
 2423              		.cfi_def_cfa_offset 8
 2424 01f4 BD46     		mov	sp, r7
 2425              	.LCFI101:
 2426              		.cfi_def_cfa_register 13
 2427              		@ sp needed
 2428 01f6 80BD     		pop	{r7, pc}
 2429              		.cfi_endproc
 2430              	.LFE144:
 2432              		.section	.text.HAL_DMA2D_LineEventCallback,"ax",%progbits
 2433              		.align	1
 2434              		.weak	HAL_DMA2D_LineEventCallback
 2435              		.syntax unified
 2436              		.thumb
 2437              		.thumb_func
 2438              		.fpu fpv4-sp-d16
 2440              	HAL_DMA2D_LineEventCallback:
 2441              	.LFB145:
1268:./Libraries/STM32F4xx_HAL_Driver/Src/stm32f4xx_hal_dma2d.c **** 
1269:./Libraries/STM32F4xx_HAL_Driver/Src/stm32f4xx_hal_dma2d.c **** /**
1270:./Libraries/STM32F4xx_HAL_Driver/Src/stm32f4xx_hal_dma2d.c ****   * @brief  Transfer watermark callback.
1271:./Libraries/STM32F4xx_HAL_Driver/Src/stm32f4xx_hal_dma2d.c ****   * @param  hdma2d pointer to a DMA2D_HandleTypeDef structure that contains
1272:./Libraries/STM32F4xx_HAL_Driver/Src/stm32f4xx_hal_dma2d.c ****   *                 the configuration information for the DMA2D.
1273:./Libraries/STM32F4xx_HAL_Driver/Src/stm32f4xx_hal_dma2d.c ****   * @retval None
1274:./Libraries/STM32F4xx_HAL_Driver/Src/stm32f4xx_hal_dma2d.c ****   */
1275:./Libraries/STM32F4xx_HAL_Driver/Src/stm32f4xx_hal_dma2d.c **** __weak void HAL_DMA2D_LineEventCallback(DMA2D_HandleTypeDef *hdma2d)
1276:./Libraries/STM32F4xx_HAL_Driver/Src/stm32f4xx_hal_dma2d.c **** {
ARM GAS  /tmp/ccgPJtk7.s 			page 66


 2442              		.loc 1 1276 1
 2443              		.cfi_startproc
 2444              		@ args = 0, pretend = 0, frame = 8
 2445              		@ frame_needed = 1, uses_anonymous_args = 0
 2446              		@ link register save eliminated.
 2447 0000 80B4     		push	{r7}
 2448              	.LCFI102:
 2449              		.cfi_def_cfa_offset 4
 2450              		.cfi_offset 7, -4
 2451 0002 83B0     		sub	sp, sp, #12
 2452              	.LCFI103:
 2453              		.cfi_def_cfa_offset 16
 2454 0004 00AF     		add	r7, sp, #0
 2455              	.LCFI104:
 2456              		.cfi_def_cfa_register 7
 2457 0006 7860     		str	r0, [r7, #4]
1277:./Libraries/STM32F4xx_HAL_Driver/Src/stm32f4xx_hal_dma2d.c ****   /* Prevent unused argument(s) compilation warning */
1278:./Libraries/STM32F4xx_HAL_Driver/Src/stm32f4xx_hal_dma2d.c ****   UNUSED(hdma2d);
1279:./Libraries/STM32F4xx_HAL_Driver/Src/stm32f4xx_hal_dma2d.c **** 
1280:./Libraries/STM32F4xx_HAL_Driver/Src/stm32f4xx_hal_dma2d.c ****   /* NOTE : This function should not be modified; when the callback is needed,
1281:./Libraries/STM32F4xx_HAL_Driver/Src/stm32f4xx_hal_dma2d.c ****             the HAL_DMA2D_LineEventCallback can be implemented in the user file.
1282:./Libraries/STM32F4xx_HAL_Driver/Src/stm32f4xx_hal_dma2d.c ****    */
1283:./Libraries/STM32F4xx_HAL_Driver/Src/stm32f4xx_hal_dma2d.c **** }
 2458              		.loc 1 1283 1
 2459 0008 00BF     		nop
 2460 000a 0C37     		adds	r7, r7, #12
 2461              	.LCFI105:
 2462              		.cfi_def_cfa_offset 4
 2463 000c BD46     		mov	sp, r7
 2464              	.LCFI106:
 2465              		.cfi_def_cfa_register 13
 2466              		@ sp needed
 2467 000e 5DF8047B 		ldr	r7, [sp], #4
 2468              	.LCFI107:
 2469              		.cfi_restore 7
 2470              		.cfi_def_cfa_offset 0
 2471 0012 7047     		bx	lr
 2472              		.cfi_endproc
 2473              	.LFE145:
 2475              		.section	.text.HAL_DMA2D_CLUTLoadingCpltCallback,"ax",%progbits
 2476              		.align	1
 2477              		.weak	HAL_DMA2D_CLUTLoadingCpltCallback
 2478              		.syntax unified
 2479              		.thumb
 2480              		.thumb_func
 2481              		.fpu fpv4-sp-d16
 2483              	HAL_DMA2D_CLUTLoadingCpltCallback:
 2484              	.LFB146:
1284:./Libraries/STM32F4xx_HAL_Driver/Src/stm32f4xx_hal_dma2d.c **** 
1285:./Libraries/STM32F4xx_HAL_Driver/Src/stm32f4xx_hal_dma2d.c **** /**
1286:./Libraries/STM32F4xx_HAL_Driver/Src/stm32f4xx_hal_dma2d.c ****   * @brief  CLUT Transfer Complete callback.
1287:./Libraries/STM32F4xx_HAL_Driver/Src/stm32f4xx_hal_dma2d.c ****   * @param  hdma2d pointer to a DMA2D_HandleTypeDef structure that contains
1288:./Libraries/STM32F4xx_HAL_Driver/Src/stm32f4xx_hal_dma2d.c ****   *                 the configuration information for the DMA2D.
1289:./Libraries/STM32F4xx_HAL_Driver/Src/stm32f4xx_hal_dma2d.c ****   * @retval None
1290:./Libraries/STM32F4xx_HAL_Driver/Src/stm32f4xx_hal_dma2d.c ****   */
1291:./Libraries/STM32F4xx_HAL_Driver/Src/stm32f4xx_hal_dma2d.c **** __weak void HAL_DMA2D_CLUTLoadingCpltCallback(DMA2D_HandleTypeDef *hdma2d)
1292:./Libraries/STM32F4xx_HAL_Driver/Src/stm32f4xx_hal_dma2d.c **** {
ARM GAS  /tmp/ccgPJtk7.s 			page 67


 2485              		.loc 1 1292 1
 2486              		.cfi_startproc
 2487              		@ args = 0, pretend = 0, frame = 8
 2488              		@ frame_needed = 1, uses_anonymous_args = 0
 2489              		@ link register save eliminated.
 2490 0000 80B4     		push	{r7}
 2491              	.LCFI108:
 2492              		.cfi_def_cfa_offset 4
 2493              		.cfi_offset 7, -4
 2494 0002 83B0     		sub	sp, sp, #12
 2495              	.LCFI109:
 2496              		.cfi_def_cfa_offset 16
 2497 0004 00AF     		add	r7, sp, #0
 2498              	.LCFI110:
 2499              		.cfi_def_cfa_register 7
 2500 0006 7860     		str	r0, [r7, #4]
1293:./Libraries/STM32F4xx_HAL_Driver/Src/stm32f4xx_hal_dma2d.c ****   /* Prevent unused argument(s) compilation warning */
1294:./Libraries/STM32F4xx_HAL_Driver/Src/stm32f4xx_hal_dma2d.c ****   UNUSED(hdma2d);
1295:./Libraries/STM32F4xx_HAL_Driver/Src/stm32f4xx_hal_dma2d.c **** 
1296:./Libraries/STM32F4xx_HAL_Driver/Src/stm32f4xx_hal_dma2d.c ****   /* NOTE : This function should not be modified; when the callback is needed,
1297:./Libraries/STM32F4xx_HAL_Driver/Src/stm32f4xx_hal_dma2d.c ****             the HAL_DMA2D_CLUTLoadingCpltCallback can be implemented in the user file.
1298:./Libraries/STM32F4xx_HAL_Driver/Src/stm32f4xx_hal_dma2d.c ****    */
1299:./Libraries/STM32F4xx_HAL_Driver/Src/stm32f4xx_hal_dma2d.c **** }
 2501              		.loc 1 1299 1
 2502 0008 00BF     		nop
 2503 000a 0C37     		adds	r7, r7, #12
 2504              	.LCFI111:
 2505              		.cfi_def_cfa_offset 4
 2506 000c BD46     		mov	sp, r7
 2507              	.LCFI112:
 2508              		.cfi_def_cfa_register 13
 2509              		@ sp needed
 2510 000e 5DF8047B 		ldr	r7, [sp], #4
 2511              	.LCFI113:
 2512              		.cfi_restore 7
 2513              		.cfi_def_cfa_offset 0
 2514 0012 7047     		bx	lr
 2515              		.cfi_endproc
 2516              	.LFE146:
 2518              		.section	.text.HAL_DMA2D_ConfigLayer,"ax",%progbits
 2519              		.align	1
 2520              		.global	HAL_DMA2D_ConfigLayer
 2521              		.syntax unified
 2522              		.thumb
 2523              		.thumb_func
 2524              		.fpu fpv4-sp-d16
 2526              	HAL_DMA2D_ConfigLayer:
 2527              	.LFB147:
1300:./Libraries/STM32F4xx_HAL_Driver/Src/stm32f4xx_hal_dma2d.c **** 
1301:./Libraries/STM32F4xx_HAL_Driver/Src/stm32f4xx_hal_dma2d.c **** /**
1302:./Libraries/STM32F4xx_HAL_Driver/Src/stm32f4xx_hal_dma2d.c ****   * @}
1303:./Libraries/STM32F4xx_HAL_Driver/Src/stm32f4xx_hal_dma2d.c ****   */
1304:./Libraries/STM32F4xx_HAL_Driver/Src/stm32f4xx_hal_dma2d.c **** 
1305:./Libraries/STM32F4xx_HAL_Driver/Src/stm32f4xx_hal_dma2d.c **** /** @defgroup DMA2D_Exported_Functions_Group3 Peripheral Control functions
1306:./Libraries/STM32F4xx_HAL_Driver/Src/stm32f4xx_hal_dma2d.c ****  *  @brief    Peripheral Control functions 
1307:./Libraries/STM32F4xx_HAL_Driver/Src/stm32f4xx_hal_dma2d.c ****  *
1308:./Libraries/STM32F4xx_HAL_Driver/Src/stm32f4xx_hal_dma2d.c **** @verbatim
ARM GAS  /tmp/ccgPJtk7.s 			page 68


1309:./Libraries/STM32F4xx_HAL_Driver/Src/stm32f4xx_hal_dma2d.c ****  ===============================================================================
1310:./Libraries/STM32F4xx_HAL_Driver/Src/stm32f4xx_hal_dma2d.c ****                     ##### Peripheral Control functions #####
1311:./Libraries/STM32F4xx_HAL_Driver/Src/stm32f4xx_hal_dma2d.c ****  ===============================================================================
1312:./Libraries/STM32F4xx_HAL_Driver/Src/stm32f4xx_hal_dma2d.c ****     [..]  This section provides functions allowing to:
1313:./Libraries/STM32F4xx_HAL_Driver/Src/stm32f4xx_hal_dma2d.c ****       (+) Configure the DMA2D foreground or background layer parameters.
1314:./Libraries/STM32F4xx_HAL_Driver/Src/stm32f4xx_hal_dma2d.c ****       (+) Configure the DMA2D CLUT transfer.
1315:./Libraries/STM32F4xx_HAL_Driver/Src/stm32f4xx_hal_dma2d.c ****       (+) Configure the line watermark
1316:./Libraries/STM32F4xx_HAL_Driver/Src/stm32f4xx_hal_dma2d.c ****       (+) Configure the dead time value.
1317:./Libraries/STM32F4xx_HAL_Driver/Src/stm32f4xx_hal_dma2d.c ****       (+) Enable or disable the dead time value functionality.
1318:./Libraries/STM32F4xx_HAL_Driver/Src/stm32f4xx_hal_dma2d.c **** 
1319:./Libraries/STM32F4xx_HAL_Driver/Src/stm32f4xx_hal_dma2d.c **** @endverbatim
1320:./Libraries/STM32F4xx_HAL_Driver/Src/stm32f4xx_hal_dma2d.c ****   * @{
1321:./Libraries/STM32F4xx_HAL_Driver/Src/stm32f4xx_hal_dma2d.c ****   */
1322:./Libraries/STM32F4xx_HAL_Driver/Src/stm32f4xx_hal_dma2d.c **** 
1323:./Libraries/STM32F4xx_HAL_Driver/Src/stm32f4xx_hal_dma2d.c **** /**
1324:./Libraries/STM32F4xx_HAL_Driver/Src/stm32f4xx_hal_dma2d.c ****   * @brief  Configure the DMA2D Layer according to the specified
1325:./Libraries/STM32F4xx_HAL_Driver/Src/stm32f4xx_hal_dma2d.c ****   *         parameters in the DMA2D_InitTypeDef and create the associated handle.
1326:./Libraries/STM32F4xx_HAL_Driver/Src/stm32f4xx_hal_dma2d.c ****   * @param  hdma2d pointer to a DMA2D_HandleTypeDef structure that contains
1327:./Libraries/STM32F4xx_HAL_Driver/Src/stm32f4xx_hal_dma2d.c ****   *                 the configuration information for the DMA2D.
1328:./Libraries/STM32F4xx_HAL_Driver/Src/stm32f4xx_hal_dma2d.c ****   * @param  LayerIdx DMA2D Layer index.
1329:./Libraries/STM32F4xx_HAL_Driver/Src/stm32f4xx_hal_dma2d.c ****   *                   This parameter can be one of the following values:
1330:./Libraries/STM32F4xx_HAL_Driver/Src/stm32f4xx_hal_dma2d.c ****   *                   0(background) / 1(foreground)
1331:./Libraries/STM32F4xx_HAL_Driver/Src/stm32f4xx_hal_dma2d.c ****   * @retval HAL status
1332:./Libraries/STM32F4xx_HAL_Driver/Src/stm32f4xx_hal_dma2d.c ****   */
1333:./Libraries/STM32F4xx_HAL_Driver/Src/stm32f4xx_hal_dma2d.c **** HAL_StatusTypeDef HAL_DMA2D_ConfigLayer(DMA2D_HandleTypeDef *hdma2d, uint32_t LayerIdx)
1334:./Libraries/STM32F4xx_HAL_Driver/Src/stm32f4xx_hal_dma2d.c **** {
 2528              		.loc 1 1334 1
 2529              		.cfi_startproc
 2530              		@ args = 0, pretend = 0, frame = 16
 2531              		@ frame_needed = 1, uses_anonymous_args = 0
 2532              		@ link register save eliminated.
 2533 0000 80B4     		push	{r7}
 2534              	.LCFI114:
 2535              		.cfi_def_cfa_offset 4
 2536              		.cfi_offset 7, -4
 2537 0002 85B0     		sub	sp, sp, #20
 2538              	.LCFI115:
 2539              		.cfi_def_cfa_offset 24
 2540 0004 00AF     		add	r7, sp, #0
 2541              	.LCFI116:
 2542              		.cfi_def_cfa_register 7
 2543 0006 7860     		str	r0, [r7, #4]
 2544 0008 3960     		str	r1, [r7]
1335:./Libraries/STM32F4xx_HAL_Driver/Src/stm32f4xx_hal_dma2d.c ****   DMA2D_LayerCfgTypeDef *pLayerCfg = &hdma2d->LayerCfg[LayerIdx];
 2545              		.loc 1 1335 26
 2546 000a 3B68     		ldr	r3, [r7]
 2547 000c 1B01     		lsls	r3, r3, #4
 2548 000e 1833     		adds	r3, r3, #24
 2549 0010 7A68     		ldr	r2, [r7, #4]
 2550 0012 1344     		add	r3, r3, r2
 2551 0014 BB60     		str	r3, [r7, #8]
1336:./Libraries/STM32F4xx_HAL_Driver/Src/stm32f4xx_hal_dma2d.c ****   uint32_t regValue = 0U;
 2552              		.loc 1 1336 12
 2553 0016 0023     		movs	r3, #0
 2554 0018 FB60     		str	r3, [r7, #12]
1337:./Libraries/STM32F4xx_HAL_Driver/Src/stm32f4xx_hal_dma2d.c **** 
1338:./Libraries/STM32F4xx_HAL_Driver/Src/stm32f4xx_hal_dma2d.c ****   /* Check the parameters */
ARM GAS  /tmp/ccgPJtk7.s 			page 69


1339:./Libraries/STM32F4xx_HAL_Driver/Src/stm32f4xx_hal_dma2d.c ****   assert_param(IS_DMA2D_LAYER(LayerIdx));
1340:./Libraries/STM32F4xx_HAL_Driver/Src/stm32f4xx_hal_dma2d.c ****   assert_param(IS_DMA2D_OFFSET(pLayerCfg->InputOffset));
1341:./Libraries/STM32F4xx_HAL_Driver/Src/stm32f4xx_hal_dma2d.c ****   if(hdma2d->Init.Mode != DMA2D_R2M)
 2555              		.loc 1 1341 18
 2556 001a 7B68     		ldr	r3, [r7, #4]
 2557 001c 5B68     		ldr	r3, [r3, #4]
 2558              		.loc 1 1341 5
 2559 001e B3F5403F 		cmp	r3, #196608
1342:./Libraries/STM32F4xx_HAL_Driver/Src/stm32f4xx_hal_dma2d.c ****   {
1343:./Libraries/STM32F4xx_HAL_Driver/Src/stm32f4xx_hal_dma2d.c ****     assert_param(IS_DMA2D_INPUT_COLOR_MODE(pLayerCfg->InputColorMode));
1344:./Libraries/STM32F4xx_HAL_Driver/Src/stm32f4xx_hal_dma2d.c ****     if(hdma2d->Init.Mode != DMA2D_M2M)
1345:./Libraries/STM32F4xx_HAL_Driver/Src/stm32f4xx_hal_dma2d.c ****     {
1346:./Libraries/STM32F4xx_HAL_Driver/Src/stm32f4xx_hal_dma2d.c ****       assert_param(IS_DMA2D_ALPHA_MODE(pLayerCfg->AlphaMode));
1347:./Libraries/STM32F4xx_HAL_Driver/Src/stm32f4xx_hal_dma2d.c ****     }
1348:./Libraries/STM32F4xx_HAL_Driver/Src/stm32f4xx_hal_dma2d.c ****   }
1349:./Libraries/STM32F4xx_HAL_Driver/Src/stm32f4xx_hal_dma2d.c **** 
1350:./Libraries/STM32F4xx_HAL_Driver/Src/stm32f4xx_hal_dma2d.c ****   /* Process locked */
1351:./Libraries/STM32F4xx_HAL_Driver/Src/stm32f4xx_hal_dma2d.c ****   __HAL_LOCK(hdma2d);
 2560              		.loc 1 1351 3
 2561 0022 7B68     		ldr	r3, [r7, #4]
 2562 0024 93F83830 		ldrb	r3, [r3, #56]	@ zero_extendqisi2
 2563 0028 012B     		cmp	r3, #1
 2564 002a 01D1     		bne	.L103
 2565              		.loc 1 1351 3 is_stmt 0 discriminator 1
 2566 002c 0223     		movs	r3, #2
 2567 002e 70E0     		b	.L104
 2568              	.L103:
 2569              		.loc 1 1351 3 discriminator 2
 2570 0030 7B68     		ldr	r3, [r7, #4]
 2571 0032 0122     		movs	r2, #1
 2572 0034 83F83820 		strb	r2, [r3, #56]
1352:./Libraries/STM32F4xx_HAL_Driver/Src/stm32f4xx_hal_dma2d.c **** 
1353:./Libraries/STM32F4xx_HAL_Driver/Src/stm32f4xx_hal_dma2d.c ****   /* Change DMA2D peripheral state */
1354:./Libraries/STM32F4xx_HAL_Driver/Src/stm32f4xx_hal_dma2d.c ****   hdma2d->State = HAL_DMA2D_STATE_BUSY;
 2573              		.loc 1 1354 17 is_stmt 1 discriminator 2
 2574 0038 7B68     		ldr	r3, [r7, #4]
 2575 003a 0222     		movs	r2, #2
 2576 003c 83F83920 		strb	r2, [r3, #57]
1355:./Libraries/STM32F4xx_HAL_Driver/Src/stm32f4xx_hal_dma2d.c **** 
1356:./Libraries/STM32F4xx_HAL_Driver/Src/stm32f4xx_hal_dma2d.c ****   /* DMA2D BGPFCR register configuration -----------------------------------*/
1357:./Libraries/STM32F4xx_HAL_Driver/Src/stm32f4xx_hal_dma2d.c ****   /* Prepare the value to be written to the BGPFCCR register */
1358:./Libraries/STM32F4xx_HAL_Driver/Src/stm32f4xx_hal_dma2d.c **** 
1359:./Libraries/STM32F4xx_HAL_Driver/Src/stm32f4xx_hal_dma2d.c ****   if ((pLayerCfg->InputColorMode == DMA2D_INPUT_A4) || (pLayerCfg->InputColorMode == DMA2D_INPUT_A8
 2577              		.loc 1 1359 17 discriminator 2
 2578 0040 BB68     		ldr	r3, [r7, #8]
 2579 0042 5B68     		ldr	r3, [r3, #4]
 2580              		.loc 1 1359 6 discriminator 2
 2581 0044 0A2B     		cmp	r3, #10
 2582 0046 03D0     		beq	.L105
 2583              		.loc 1 1359 66 discriminator 1
 2584 0048 BB68     		ldr	r3, [r7, #8]
 2585 004a 5B68     		ldr	r3, [r3, #4]
 2586              		.loc 1 1359 53 discriminator 1
 2587 004c 092B     		cmp	r3, #9
 2588 004e 0CD1     		bne	.L106
 2589              	.L105:
1360:./Libraries/STM32F4xx_HAL_Driver/Src/stm32f4xx_hal_dma2d.c ****   {
ARM GAS  /tmp/ccgPJtk7.s 			page 70


1361:./Libraries/STM32F4xx_HAL_Driver/Src/stm32f4xx_hal_dma2d.c ****     regValue = pLayerCfg->InputColorMode | (pLayerCfg->AlphaMode << DMA2D_POSITION_BGPFCCR_AM) | (p
 2590              		.loc 1 1361 25
 2591 0050 BB68     		ldr	r3, [r7, #8]
 2592 0052 5A68     		ldr	r2, [r3, #4]
 2593              		.loc 1 1361 54
 2594 0054 BB68     		ldr	r3, [r7, #8]
 2595 0056 9B68     		ldr	r3, [r3, #8]
 2596              		.loc 1 1361 66
 2597 0058 1B04     		lsls	r3, r3, #16
 2598              		.loc 1 1361 42
 2599 005a 1A43     		orrs	r2, r2, r3
 2600              		.loc 1 1361 108
 2601 005c BB68     		ldr	r3, [r7, #8]
 2602 005e DB68     		ldr	r3, [r3, #12]
 2603              		.loc 1 1361 121
 2604 0060 03F07F43 		and	r3, r3, #-16777216
 2605              		.loc 1 1361 14
 2606 0064 1343     		orrs	r3, r3, r2
 2607 0066 FB60     		str	r3, [r7, #12]
 2608 0068 0AE0     		b	.L107
 2609              	.L106:
1362:./Libraries/STM32F4xx_HAL_Driver/Src/stm32f4xx_hal_dma2d.c ****   }
1363:./Libraries/STM32F4xx_HAL_Driver/Src/stm32f4xx_hal_dma2d.c ****   else
1364:./Libraries/STM32F4xx_HAL_Driver/Src/stm32f4xx_hal_dma2d.c ****   {
1365:./Libraries/STM32F4xx_HAL_Driver/Src/stm32f4xx_hal_dma2d.c ****     regValue =  pLayerCfg->InputColorMode | (pLayerCfg->AlphaMode << DMA2D_POSITION_BGPFCCR_AM) | (
 2610              		.loc 1 1365 26
 2611 006a BB68     		ldr	r3, [r7, #8]
 2612 006c 5A68     		ldr	r2, [r3, #4]
 2613              		.loc 1 1365 55
 2614 006e BB68     		ldr	r3, [r7, #8]
 2615 0070 9B68     		ldr	r3, [r3, #8]
 2616              		.loc 1 1365 67
 2617 0072 1B04     		lsls	r3, r3, #16
 2618              		.loc 1 1365 43
 2619 0074 1A43     		orrs	r2, r2, r3
 2620              		.loc 1 1365 109
 2621 0076 BB68     		ldr	r3, [r7, #8]
 2622 0078 DB68     		ldr	r3, [r3, #12]
 2623              		.loc 1 1365 122
 2624 007a 1B06     		lsls	r3, r3, #24
 2625              		.loc 1 1365 14
 2626 007c 1343     		orrs	r3, r3, r2
 2627 007e FB60     		str	r3, [r7, #12]
 2628              	.L107:
1366:./Libraries/STM32F4xx_HAL_Driver/Src/stm32f4xx_hal_dma2d.c ****   }
1367:./Libraries/STM32F4xx_HAL_Driver/Src/stm32f4xx_hal_dma2d.c ****   
1368:./Libraries/STM32F4xx_HAL_Driver/Src/stm32f4xx_hal_dma2d.c ****   /* Configure the background DMA2D layer */
1369:./Libraries/STM32F4xx_HAL_Driver/Src/stm32f4xx_hal_dma2d.c ****   if(LayerIdx == 0)
 2629              		.loc 1 1369 5
 2630 0080 3B68     		ldr	r3, [r7]
 2631 0082 002B     		cmp	r3, #0
 2632 0084 1ED1     		bne	.L108
1370:./Libraries/STM32F4xx_HAL_Driver/Src/stm32f4xx_hal_dma2d.c ****   {
1371:./Libraries/STM32F4xx_HAL_Driver/Src/stm32f4xx_hal_dma2d.c ****     /* Write DMA2D BGPFCCR register */
1372:./Libraries/STM32F4xx_HAL_Driver/Src/stm32f4xx_hal_dma2d.c ****     MODIFY_REG(hdma2d->Instance->BGPFCCR, (DMA2D_BGPFCCR_CM | DMA2D_BGPFCCR_AM | DMA2D_BGPFCCR_ALPH
 2633              		.loc 1 1372 5
 2634 0086 7B68     		ldr	r3, [r7, #4]
ARM GAS  /tmp/ccgPJtk7.s 			page 71


 2635 0088 1B68     		ldr	r3, [r3]
 2636 008a 5A6A     		ldr	r2, [r3, #36]
 2637 008c 244B     		ldr	r3, .L112
 2638 008e 1340     		ands	r3, r3, r2
 2639 0090 7A68     		ldr	r2, [r7, #4]
 2640 0092 1268     		ldr	r2, [r2]
 2641 0094 F968     		ldr	r1, [r7, #12]
 2642 0096 0B43     		orrs	r3, r3, r1
 2643 0098 5362     		str	r3, [r2, #36]
1373:./Libraries/STM32F4xx_HAL_Driver/Src/stm32f4xx_hal_dma2d.c **** 
1374:./Libraries/STM32F4xx_HAL_Driver/Src/stm32f4xx_hal_dma2d.c ****     /* DMA2D BGOR register configuration -------------------------------------*/
1375:./Libraries/STM32F4xx_HAL_Driver/Src/stm32f4xx_hal_dma2d.c ****     WRITE_REG(hdma2d->Instance->BGOR, pLayerCfg->InputOffset);
 2644              		.loc 1 1375 5
 2645 009a 7B68     		ldr	r3, [r7, #4]
 2646 009c 1B68     		ldr	r3, [r3]
 2647 009e BA68     		ldr	r2, [r7, #8]
 2648 00a0 1268     		ldr	r2, [r2]
 2649 00a2 9A61     		str	r2, [r3, #24]
1376:./Libraries/STM32F4xx_HAL_Driver/Src/stm32f4xx_hal_dma2d.c **** 
1377:./Libraries/STM32F4xx_HAL_Driver/Src/stm32f4xx_hal_dma2d.c ****     /* DMA2D BGCOLR register configuration -------------------------------------*/
1378:./Libraries/STM32F4xx_HAL_Driver/Src/stm32f4xx_hal_dma2d.c ****     if ((pLayerCfg->InputColorMode == DMA2D_INPUT_A4) || (pLayerCfg->InputColorMode == DMA2D_INPUT_
 2650              		.loc 1 1378 19
 2651 00a4 BB68     		ldr	r3, [r7, #8]
 2652 00a6 5B68     		ldr	r3, [r3, #4]
 2653              		.loc 1 1378 8
 2654 00a8 0A2B     		cmp	r3, #10
 2655 00aa 03D0     		beq	.L109
 2656              		.loc 1 1378 68 discriminator 1
 2657 00ac BB68     		ldr	r3, [r7, #8]
 2658 00ae 5B68     		ldr	r3, [r3, #4]
 2659              		.loc 1 1378 55 discriminator 1
 2660 00b0 092B     		cmp	r3, #9
 2661 00b2 25D1     		bne	.L110
 2662              	.L109:
1379:./Libraries/STM32F4xx_HAL_Driver/Src/stm32f4xx_hal_dma2d.c ****     {
1380:./Libraries/STM32F4xx_HAL_Driver/Src/stm32f4xx_hal_dma2d.c ****       WRITE_REG(hdma2d->Instance->BGCOLR, pLayerCfg->InputAlpha & (DMA2D_BGCOLR_BLUE|DMA2D_BGCOLR_G
 2663              		.loc 1 1380 7
 2664 00b4 BB68     		ldr	r3, [r7, #8]
 2665 00b6 DA68     		ldr	r2, [r3, #12]
 2666 00b8 7B68     		ldr	r3, [r7, #4]
 2667 00ba 1B68     		ldr	r3, [r3]
 2668 00bc 22F07F42 		bic	r2, r2, #-16777216
 2669 00c0 9A62     		str	r2, [r3, #40]
 2670 00c2 1DE0     		b	.L110
 2671              	.L108:
1381:./Libraries/STM32F4xx_HAL_Driver/Src/stm32f4xx_hal_dma2d.c ****     }
1382:./Libraries/STM32F4xx_HAL_Driver/Src/stm32f4xx_hal_dma2d.c ****   }
1383:./Libraries/STM32F4xx_HAL_Driver/Src/stm32f4xx_hal_dma2d.c ****   /* Configure the foreground DMA2D layer */
1384:./Libraries/STM32F4xx_HAL_Driver/Src/stm32f4xx_hal_dma2d.c ****   else
1385:./Libraries/STM32F4xx_HAL_Driver/Src/stm32f4xx_hal_dma2d.c ****   {
1386:./Libraries/STM32F4xx_HAL_Driver/Src/stm32f4xx_hal_dma2d.c ****      /* Write DMA2D FGPFCCR register */
1387:./Libraries/STM32F4xx_HAL_Driver/Src/stm32f4xx_hal_dma2d.c ****     MODIFY_REG(hdma2d->Instance->FGPFCCR, (DMA2D_BGPFCCR_CM | DMA2D_BGPFCCR_AM | DMA2D_BGPFCCR_ALPH
 2672              		.loc 1 1387 5
 2673 00c4 7B68     		ldr	r3, [r7, #4]
 2674 00c6 1B68     		ldr	r3, [r3]
 2675 00c8 DA69     		ldr	r2, [r3, #28]
 2676 00ca 154B     		ldr	r3, .L112
ARM GAS  /tmp/ccgPJtk7.s 			page 72


 2677 00cc 1340     		ands	r3, r3, r2
 2678 00ce 7A68     		ldr	r2, [r7, #4]
 2679 00d0 1268     		ldr	r2, [r2]
 2680 00d2 F968     		ldr	r1, [r7, #12]
 2681 00d4 0B43     		orrs	r3, r3, r1
 2682 00d6 D361     		str	r3, [r2, #28]
1388:./Libraries/STM32F4xx_HAL_Driver/Src/stm32f4xx_hal_dma2d.c **** 
1389:./Libraries/STM32F4xx_HAL_Driver/Src/stm32f4xx_hal_dma2d.c ****     /* DMA2D FGOR register configuration -------------------------------------*/
1390:./Libraries/STM32F4xx_HAL_Driver/Src/stm32f4xx_hal_dma2d.c ****     WRITE_REG(hdma2d->Instance->FGOR, pLayerCfg->InputOffset);
 2683              		.loc 1 1390 5
 2684 00d8 7B68     		ldr	r3, [r7, #4]
 2685 00da 1B68     		ldr	r3, [r3]
 2686 00dc BA68     		ldr	r2, [r7, #8]
 2687 00de 1268     		ldr	r2, [r2]
 2688 00e0 1A61     		str	r2, [r3, #16]
1391:./Libraries/STM32F4xx_HAL_Driver/Src/stm32f4xx_hal_dma2d.c **** 
1392:./Libraries/STM32F4xx_HAL_Driver/Src/stm32f4xx_hal_dma2d.c ****     /* DMA2D FGCOLR register configuration -------------------------------------*/
1393:./Libraries/STM32F4xx_HAL_Driver/Src/stm32f4xx_hal_dma2d.c ****     if ((pLayerCfg->InputColorMode == DMA2D_INPUT_A4) || (pLayerCfg->InputColorMode == DMA2D_INPUT_
 2689              		.loc 1 1393 19
 2690 00e2 BB68     		ldr	r3, [r7, #8]
 2691 00e4 5B68     		ldr	r3, [r3, #4]
 2692              		.loc 1 1393 8
 2693 00e6 0A2B     		cmp	r3, #10
 2694 00e8 03D0     		beq	.L111
 2695              		.loc 1 1393 68 discriminator 1
 2696 00ea BB68     		ldr	r3, [r7, #8]
 2697 00ec 5B68     		ldr	r3, [r3, #4]
 2698              		.loc 1 1393 55 discriminator 1
 2699 00ee 092B     		cmp	r3, #9
 2700 00f0 06D1     		bne	.L110
 2701              	.L111:
1394:./Libraries/STM32F4xx_HAL_Driver/Src/stm32f4xx_hal_dma2d.c ****     {
1395:./Libraries/STM32F4xx_HAL_Driver/Src/stm32f4xx_hal_dma2d.c ****       WRITE_REG(hdma2d->Instance->FGCOLR, pLayerCfg->InputAlpha & (DMA2D_FGCOLR_BLUE|DMA2D_FGCOLR_G
 2702              		.loc 1 1395 7
 2703 00f2 BB68     		ldr	r3, [r7, #8]
 2704 00f4 DA68     		ldr	r2, [r3, #12]
 2705 00f6 7B68     		ldr	r3, [r7, #4]
 2706 00f8 1B68     		ldr	r3, [r3]
 2707 00fa 22F07F42 		bic	r2, r2, #-16777216
 2708 00fe 1A62     		str	r2, [r3, #32]
 2709              	.L110:
1396:./Libraries/STM32F4xx_HAL_Driver/Src/stm32f4xx_hal_dma2d.c ****     }
1397:./Libraries/STM32F4xx_HAL_Driver/Src/stm32f4xx_hal_dma2d.c ****   }
1398:./Libraries/STM32F4xx_HAL_Driver/Src/stm32f4xx_hal_dma2d.c ****   /* Initialize the DMA2D state*/
1399:./Libraries/STM32F4xx_HAL_Driver/Src/stm32f4xx_hal_dma2d.c ****   hdma2d->State = HAL_DMA2D_STATE_READY;
 2710              		.loc 1 1399 17
 2711 0100 7B68     		ldr	r3, [r7, #4]
 2712 0102 0122     		movs	r2, #1
 2713 0104 83F83920 		strb	r2, [r3, #57]
1400:./Libraries/STM32F4xx_HAL_Driver/Src/stm32f4xx_hal_dma2d.c **** 
1401:./Libraries/STM32F4xx_HAL_Driver/Src/stm32f4xx_hal_dma2d.c ****   /* Process unlocked */
1402:./Libraries/STM32F4xx_HAL_Driver/Src/stm32f4xx_hal_dma2d.c ****   __HAL_UNLOCK(hdma2d);
 2714              		.loc 1 1402 3
 2715 0108 7B68     		ldr	r3, [r7, #4]
 2716 010a 0022     		movs	r2, #0
 2717 010c 83F83820 		strb	r2, [r3, #56]
1403:./Libraries/STM32F4xx_HAL_Driver/Src/stm32f4xx_hal_dma2d.c **** 
ARM GAS  /tmp/ccgPJtk7.s 			page 73


1404:./Libraries/STM32F4xx_HAL_Driver/Src/stm32f4xx_hal_dma2d.c ****   return HAL_OK;
 2718              		.loc 1 1404 10
 2719 0110 0023     		movs	r3, #0
 2720              	.L104:
1405:./Libraries/STM32F4xx_HAL_Driver/Src/stm32f4xx_hal_dma2d.c **** }
 2721              		.loc 1 1405 1
 2722 0112 1846     		mov	r0, r3
 2723 0114 1437     		adds	r7, r7, #20
 2724              	.LCFI117:
 2725              		.cfi_def_cfa_offset 4
