ARM GAS  /tmp/cc5Yvz5O.s 			page 1


   1              		.cpu cortex-m4
   2              		.eabi_attribute 27, 1
   3              		.eabi_attribute 28, 1
   4              		.eabi_attribute 20, 1
   5              		.eabi_attribute 21, 1
   6              		.eabi_attribute 23, 3
   7              		.eabi_attribute 24, 1
   8              		.eabi_attribute 25, 1
   9              		.eabi_attribute 26, 1
  10              		.eabi_attribute 30, 6
  11              		.eabi_attribute 34, 1
  12              		.eabi_attribute 18, 4
  13              		.file	"stm32f4xx_hal_smartcard.c"
  14              		.text
  15              	.Ltext0:
  16              		.cfi_sections	.debug_frame
  17              		.section	.text.HAL_SMARTCARD_Init,"ax",%progbits
  18              		.align	1
  19              		.global	HAL_SMARTCARD_Init
  20              		.arch armv7e-m
  21              		.syntax unified
  22              		.thumb
  23              		.thumb_func
  24              		.fpu fpv4-sp-d16
  26              	HAL_SMARTCARD_Init:
  27              	.LFB126:
  28              		.file 1 "./Libraries/STM32F4xx_HAL_Driver/Src/stm32f4xx_hal_smartcard.c"
   1:./Libraries/STM32F4xx_HAL_Driver/Src/stm32f4xx_hal_smartcard.c **** /**
   2:./Libraries/STM32F4xx_HAL_Driver/Src/stm32f4xx_hal_smartcard.c ****   ******************************************************************************
   3:./Libraries/STM32F4xx_HAL_Driver/Src/stm32f4xx_hal_smartcard.c ****   * @file    stm32f4xx_hal_smartcard.c
   4:./Libraries/STM32F4xx_HAL_Driver/Src/stm32f4xx_hal_smartcard.c ****   * @author  MCD Application Team
   5:./Libraries/STM32F4xx_HAL_Driver/Src/stm32f4xx_hal_smartcard.c ****   * @brief   SMARTCARD HAL module driver.
   6:./Libraries/STM32F4xx_HAL_Driver/Src/stm32f4xx_hal_smartcard.c ****   *          This file provides firmware functions to manage the following 
   7:./Libraries/STM32F4xx_HAL_Driver/Src/stm32f4xx_hal_smartcard.c ****   *          functionalities of the SMARTCARD peripheral:
   8:./Libraries/STM32F4xx_HAL_Driver/Src/stm32f4xx_hal_smartcard.c ****   *           + Initialization and de-initialization functions
   9:./Libraries/STM32F4xx_HAL_Driver/Src/stm32f4xx_hal_smartcard.c ****   *           + IO operation functions
  10:./Libraries/STM32F4xx_HAL_Driver/Src/stm32f4xx_hal_smartcard.c ****   *           + Peripheral State and Errors functions 
  11:./Libraries/STM32F4xx_HAL_Driver/Src/stm32f4xx_hal_smartcard.c ****   *           
  12:./Libraries/STM32F4xx_HAL_Driver/Src/stm32f4xx_hal_smartcard.c ****   @verbatim       
  13:./Libraries/STM32F4xx_HAL_Driver/Src/stm32f4xx_hal_smartcard.c ****   ==============================================================================
  14:./Libraries/STM32F4xx_HAL_Driver/Src/stm32f4xx_hal_smartcard.c ****                      ##### How to use this driver #####
  15:./Libraries/STM32F4xx_HAL_Driver/Src/stm32f4xx_hal_smartcard.c ****   ==============================================================================
  16:./Libraries/STM32F4xx_HAL_Driver/Src/stm32f4xx_hal_smartcard.c ****     [..]
  17:./Libraries/STM32F4xx_HAL_Driver/Src/stm32f4xx_hal_smartcard.c ****       The SMARTCARD HAL driver can be used as follows:
  18:./Libraries/STM32F4xx_HAL_Driver/Src/stm32f4xx_hal_smartcard.c ****     
  19:./Libraries/STM32F4xx_HAL_Driver/Src/stm32f4xx_hal_smartcard.c ****     (#) Declare a SMARTCARD_HandleTypeDef handle structure.
  20:./Libraries/STM32F4xx_HAL_Driver/Src/stm32f4xx_hal_smartcard.c ****     (#) Initialize the SMARTCARD low level resources by implementing the HAL_SMARTCARD_MspInit() AP
  21:./Libraries/STM32F4xx_HAL_Driver/Src/stm32f4xx_hal_smartcard.c ****         (##) Enable the USARTx interface clock.
  22:./Libraries/STM32F4xx_HAL_Driver/Src/stm32f4xx_hal_smartcard.c ****         (##) SMARTCARD pins configuration:
  23:./Libraries/STM32F4xx_HAL_Driver/Src/stm32f4xx_hal_smartcard.c ****             (+++) Enable the clock for the SMARTCARD GPIOs.
  24:./Libraries/STM32F4xx_HAL_Driver/Src/stm32f4xx_hal_smartcard.c ****             (+++) Configure these SMARTCARD pins as alternate function pull-up.
  25:./Libraries/STM32F4xx_HAL_Driver/Src/stm32f4xx_hal_smartcard.c ****         (##) NVIC configuration if you need to use interrupt process (HAL_SMARTCARD_Transmit_IT()
  26:./Libraries/STM32F4xx_HAL_Driver/Src/stm32f4xx_hal_smartcard.c ****              and HAL_SMARTCARD_Receive_IT() APIs):
  27:./Libraries/STM32F4xx_HAL_Driver/Src/stm32f4xx_hal_smartcard.c ****             (+++) Configure the USARTx interrupt priority.
  28:./Libraries/STM32F4xx_HAL_Driver/Src/stm32f4xx_hal_smartcard.c ****             (+++) Enable the NVIC USART IRQ handle.
  29:./Libraries/STM32F4xx_HAL_Driver/Src/stm32f4xx_hal_smartcard.c ****         (##) DMA Configuration if you need to use DMA process (HAL_SMARTCARD_Transmit_DMA()
  30:./Libraries/STM32F4xx_HAL_Driver/Src/stm32f4xx_hal_smartcard.c ****              and HAL_SMARTCARD_Receive_DMA() APIs):
ARM GAS  /tmp/cc5Yvz5O.s 			page 2


  31:./Libraries/STM32F4xx_HAL_Driver/Src/stm32f4xx_hal_smartcard.c ****             (+++) Declare a DMA handle structure for the Tx/Rx stream.
  32:./Libraries/STM32F4xx_HAL_Driver/Src/stm32f4xx_hal_smartcard.c ****             (+++) Enable the DMAx interface clock.
  33:./Libraries/STM32F4xx_HAL_Driver/Src/stm32f4xx_hal_smartcard.c ****             (+++) Configure the declared DMA handle structure with the required Tx/Rx parameters.  
  34:./Libraries/STM32F4xx_HAL_Driver/Src/stm32f4xx_hal_smartcard.c ****             (+++) Configure the DMA Tx/Rx Stream.
  35:./Libraries/STM32F4xx_HAL_Driver/Src/stm32f4xx_hal_smartcard.c ****             (+++) Associate the initialized DMA handle to the SMARTCARD DMA Tx/Rx handle.
  36:./Libraries/STM32F4xx_HAL_Driver/Src/stm32f4xx_hal_smartcard.c ****             (+++) Configure the priority and enable the NVIC for the transfer complete interrupt on
  37:./Libraries/STM32F4xx_HAL_Driver/Src/stm32f4xx_hal_smartcard.c **** 
  38:./Libraries/STM32F4xx_HAL_Driver/Src/stm32f4xx_hal_smartcard.c ****     (#) Program the Baud Rate, Word Length , Stop Bit, Parity, Hardware 
  39:./Libraries/STM32F4xx_HAL_Driver/Src/stm32f4xx_hal_smartcard.c ****         flow control and Mode(Receiver/Transmitter) in the SMARTCARD Init structure.
  40:./Libraries/STM32F4xx_HAL_Driver/Src/stm32f4xx_hal_smartcard.c **** 
  41:./Libraries/STM32F4xx_HAL_Driver/Src/stm32f4xx_hal_smartcard.c ****     (#) Initialize the SMARTCARD registers by calling the HAL_SMARTCARD_Init() API:
  42:./Libraries/STM32F4xx_HAL_Driver/Src/stm32f4xx_hal_smartcard.c ****         (++) These APIs configure also the low level Hardware GPIO, CLOCK, CORTEX...etc)
  43:./Libraries/STM32F4xx_HAL_Driver/Src/stm32f4xx_hal_smartcard.c ****              by calling the customized HAL_SMARTCARD_MspInit() API.
  44:./Libraries/STM32F4xx_HAL_Driver/Src/stm32f4xx_hal_smartcard.c ****     [..]  
  45:./Libraries/STM32F4xx_HAL_Driver/Src/stm32f4xx_hal_smartcard.c ****     (@) The specific SMARTCARD interrupts (Transmission complete interrupt, 
  46:./Libraries/STM32F4xx_HAL_Driver/Src/stm32f4xx_hal_smartcard.c ****         RXNE interrupt and Error Interrupts) will be managed using the macros
  47:./Libraries/STM32F4xx_HAL_Driver/Src/stm32f4xx_hal_smartcard.c ****         __HAL_SMARTCARD_ENABLE_IT() and __HAL_SMARTCARD_DISABLE_IT() inside the transmit and receiv
  48:./Libraries/STM32F4xx_HAL_Driver/Src/stm32f4xx_hal_smartcard.c ****                    
  49:./Libraries/STM32F4xx_HAL_Driver/Src/stm32f4xx_hal_smartcard.c ****     [..]   
  50:./Libraries/STM32F4xx_HAL_Driver/Src/stm32f4xx_hal_smartcard.c ****     Three operation modes are available within this driver :     
  51:./Libraries/STM32F4xx_HAL_Driver/Src/stm32f4xx_hal_smartcard.c ****   
  52:./Libraries/STM32F4xx_HAL_Driver/Src/stm32f4xx_hal_smartcard.c ****     *** Polling mode IO operation ***
  53:./Libraries/STM32F4xx_HAL_Driver/Src/stm32f4xx_hal_smartcard.c ****     =================================
  54:./Libraries/STM32F4xx_HAL_Driver/Src/stm32f4xx_hal_smartcard.c ****     [..]    
  55:./Libraries/STM32F4xx_HAL_Driver/Src/stm32f4xx_hal_smartcard.c ****       (+) Send an amount of data in blocking mode using HAL_SMARTCARD_Transmit() 
  56:./Libraries/STM32F4xx_HAL_Driver/Src/stm32f4xx_hal_smartcard.c ****       (+) Receive an amount of data in blocking mode using HAL_SMARTCARD_Receive()
  57:./Libraries/STM32F4xx_HAL_Driver/Src/stm32f4xx_hal_smartcard.c ****        
  58:./Libraries/STM32F4xx_HAL_Driver/Src/stm32f4xx_hal_smartcard.c ****     *** Interrupt mode IO operation ***    
  59:./Libraries/STM32F4xx_HAL_Driver/Src/stm32f4xx_hal_smartcard.c ****     ===================================
  60:./Libraries/STM32F4xx_HAL_Driver/Src/stm32f4xx_hal_smartcard.c ****     [..]    
  61:./Libraries/STM32F4xx_HAL_Driver/Src/stm32f4xx_hal_smartcard.c ****       (+) Send an amount of data in non blocking mode using HAL_SMARTCARD_Transmit_IT() 
  62:./Libraries/STM32F4xx_HAL_Driver/Src/stm32f4xx_hal_smartcard.c ****       (+) At transmission end of transfer HAL_SMARTCARD_TxCpltCallback is executed and user can 
  63:./Libraries/STM32F4xx_HAL_Driver/Src/stm32f4xx_hal_smartcard.c ****           add his own code by customization of function pointer HAL_SMARTCARD_TxCpltCallback
  64:./Libraries/STM32F4xx_HAL_Driver/Src/stm32f4xx_hal_smartcard.c ****       (+) Receive an amount of data in non blocking mode using HAL_SMARTCARD_Receive_IT() 
  65:./Libraries/STM32F4xx_HAL_Driver/Src/stm32f4xx_hal_smartcard.c ****       (+) At reception end of transfer HAL_SMARTCARD_RxCpltCallback is executed and user can 
  66:./Libraries/STM32F4xx_HAL_Driver/Src/stm32f4xx_hal_smartcard.c ****           add his own code by customization of function pointer HAL_SMARTCARD_RxCpltCallback
  67:./Libraries/STM32F4xx_HAL_Driver/Src/stm32f4xx_hal_smartcard.c ****       (+) In case of transfer Error, HAL_SMARTCARD_ErrorCallback() function is executed and user ca
  68:./Libraries/STM32F4xx_HAL_Driver/Src/stm32f4xx_hal_smartcard.c ****           add his own code by customization of function pointer HAL_SMARTCARD_ErrorCallback
  69:./Libraries/STM32F4xx_HAL_Driver/Src/stm32f4xx_hal_smartcard.c **** 
  70:./Libraries/STM32F4xx_HAL_Driver/Src/stm32f4xx_hal_smartcard.c ****     *** DMA mode IO operation ***    
  71:./Libraries/STM32F4xx_HAL_Driver/Src/stm32f4xx_hal_smartcard.c ****     ==============================
  72:./Libraries/STM32F4xx_HAL_Driver/Src/stm32f4xx_hal_smartcard.c ****     [..] 
  73:./Libraries/STM32F4xx_HAL_Driver/Src/stm32f4xx_hal_smartcard.c ****       (+) Send an amount of data in non blocking mode (DMA) using HAL_SMARTCARD_Transmit_DMA() 
  74:./Libraries/STM32F4xx_HAL_Driver/Src/stm32f4xx_hal_smartcard.c ****       (+) At transmission end of transfer HAL_SMARTCARD_TxCpltCallback is executed and user can 
  75:./Libraries/STM32F4xx_HAL_Driver/Src/stm32f4xx_hal_smartcard.c ****           add his own code by customization of function pointer HAL_SMARTCARD_TxCpltCallback
  76:./Libraries/STM32F4xx_HAL_Driver/Src/stm32f4xx_hal_smartcard.c ****       (+) Receive an amount of data in non blocking mode (DMA) using HAL_SMARTCARD_Receive_DMA() 
  77:./Libraries/STM32F4xx_HAL_Driver/Src/stm32f4xx_hal_smartcard.c ****       (+) At reception end of transfer HAL_SMARTCARD_RxCpltCallback is executed and user can 
  78:./Libraries/STM32F4xx_HAL_Driver/Src/stm32f4xx_hal_smartcard.c ****           add his own code by customization of function pointer HAL_SMARTCARD_RxCpltCallback
  79:./Libraries/STM32F4xx_HAL_Driver/Src/stm32f4xx_hal_smartcard.c ****       (+) In case of transfer Error, HAL_SMARTCARD_ErrorCallback() function is executed and user ca
  80:./Libraries/STM32F4xx_HAL_Driver/Src/stm32f4xx_hal_smartcard.c ****           add his own code by customization of function pointer HAL_SMARTCARD_ErrorCallback    
  81:./Libraries/STM32F4xx_HAL_Driver/Src/stm32f4xx_hal_smartcard.c **** 
  82:./Libraries/STM32F4xx_HAL_Driver/Src/stm32f4xx_hal_smartcard.c ****     *** SMARTCARD HAL driver macros list ***
  83:./Libraries/STM32F4xx_HAL_Driver/Src/stm32f4xx_hal_smartcard.c ****     ============================================= 
  84:./Libraries/STM32F4xx_HAL_Driver/Src/stm32f4xx_hal_smartcard.c ****     [..]
  85:./Libraries/STM32F4xx_HAL_Driver/Src/stm32f4xx_hal_smartcard.c ****       Below the list of most used macros in SMARTCARD HAL driver.
  86:./Libraries/STM32F4xx_HAL_Driver/Src/stm32f4xx_hal_smartcard.c ****        
  87:./Libraries/STM32F4xx_HAL_Driver/Src/stm32f4xx_hal_smartcard.c ****       (+) __HAL_SMARTCARD_ENABLE: Enable the SMARTCARD peripheral 
ARM GAS  /tmp/cc5Yvz5O.s 			page 3


  88:./Libraries/STM32F4xx_HAL_Driver/Src/stm32f4xx_hal_smartcard.c ****       (+) __HAL_SMARTCARD_DISABLE: Disable the SMARTCARD peripheral     
  89:./Libraries/STM32F4xx_HAL_Driver/Src/stm32f4xx_hal_smartcard.c ****       (+) __HAL_SMARTCARD_GET_FLAG : Check whether the specified SMARTCARD flag is set or not
  90:./Libraries/STM32F4xx_HAL_Driver/Src/stm32f4xx_hal_smartcard.c ****       (+) __HAL_SMARTCARD_CLEAR_FLAG : Clear the specified SMARTCARD pending flag
  91:./Libraries/STM32F4xx_HAL_Driver/Src/stm32f4xx_hal_smartcard.c ****       (+) __HAL_SMARTCARD_ENABLE_IT: Enable the specified SMARTCARD interrupt
  92:./Libraries/STM32F4xx_HAL_Driver/Src/stm32f4xx_hal_smartcard.c ****       (+) __HAL_SMARTCARD_DISABLE_IT: Disable the specified SMARTCARD interrupt
  93:./Libraries/STM32F4xx_HAL_Driver/Src/stm32f4xx_hal_smartcard.c ****     
  94:./Libraries/STM32F4xx_HAL_Driver/Src/stm32f4xx_hal_smartcard.c ****     [..]  
  95:./Libraries/STM32F4xx_HAL_Driver/Src/stm32f4xx_hal_smartcard.c ****       (@) You can refer to the SMARTCARD HAL driver header file for more useful macros
  96:./Libraries/STM32F4xx_HAL_Driver/Src/stm32f4xx_hal_smartcard.c ****           
  97:./Libraries/STM32F4xx_HAL_Driver/Src/stm32f4xx_hal_smartcard.c ****   @endverbatim
  98:./Libraries/STM32F4xx_HAL_Driver/Src/stm32f4xx_hal_smartcard.c ****   ******************************************************************************
  99:./Libraries/STM32F4xx_HAL_Driver/Src/stm32f4xx_hal_smartcard.c ****   * @attention
 100:./Libraries/STM32F4xx_HAL_Driver/Src/stm32f4xx_hal_smartcard.c ****   *
 101:./Libraries/STM32F4xx_HAL_Driver/Src/stm32f4xx_hal_smartcard.c ****   * <h2><center>&copy; COPYRIGHT(c) 2017 STMicroelectronics</center></h2>
 102:./Libraries/STM32F4xx_HAL_Driver/Src/stm32f4xx_hal_smartcard.c ****   *
 103:./Libraries/STM32F4xx_HAL_Driver/Src/stm32f4xx_hal_smartcard.c ****   * Redistribution and use in source and binary forms, with or without modification,
 104:./Libraries/STM32F4xx_HAL_Driver/Src/stm32f4xx_hal_smartcard.c ****   * are permitted provided that the following conditions are met:
 105:./Libraries/STM32F4xx_HAL_Driver/Src/stm32f4xx_hal_smartcard.c ****   *   1. Redistributions of source code must retain the above copyright notice,
 106:./Libraries/STM32F4xx_HAL_Driver/Src/stm32f4xx_hal_smartcard.c ****   *      this list of conditions and the following disclaimer.
 107:./Libraries/STM32F4xx_HAL_Driver/Src/stm32f4xx_hal_smartcard.c ****   *   2. Redistributions in binary form must reproduce the above copyright notice,
 108:./Libraries/STM32F4xx_HAL_Driver/Src/stm32f4xx_hal_smartcard.c ****   *      this list of conditions and the following disclaimer in the documentation
 109:./Libraries/STM32F4xx_HAL_Driver/Src/stm32f4xx_hal_smartcard.c ****   *      and/or other materials provided with the distribution.
 110:./Libraries/STM32F4xx_HAL_Driver/Src/stm32f4xx_hal_smartcard.c ****   *   3. Neither the name of STMicroelectronics nor the names of its contributors
 111:./Libraries/STM32F4xx_HAL_Driver/Src/stm32f4xx_hal_smartcard.c ****   *      may be used to endorse or promote products derived from this software
 112:./Libraries/STM32F4xx_HAL_Driver/Src/stm32f4xx_hal_smartcard.c ****   *      without specific prior written permission.
 113:./Libraries/STM32F4xx_HAL_Driver/Src/stm32f4xx_hal_smartcard.c ****   *
 114:./Libraries/STM32F4xx_HAL_Driver/Src/stm32f4xx_hal_smartcard.c ****   * THIS SOFTWARE IS PROVIDED BY THE COPYRIGHT HOLDERS AND CONTRIBUTORS "AS IS"
 115:./Libraries/STM32F4xx_HAL_Driver/Src/stm32f4xx_hal_smartcard.c ****   * AND ANY EXPRESS OR IMPLIED WARRANTIES, INCLUDING, BUT NOT LIMITED TO, THE
 116:./Libraries/STM32F4xx_HAL_Driver/Src/stm32f4xx_hal_smartcard.c ****   * IMPLIED WARRANTIES OF MERCHANTABILITY AND FITNESS FOR A PARTICULAR PURPOSE ARE
 117:./Libraries/STM32F4xx_HAL_Driver/Src/stm32f4xx_hal_smartcard.c ****   * DISCLAIMED. IN NO EVENT SHALL THE COPYRIGHT HOLDER OR CONTRIBUTORS BE LIABLE
 118:./Libraries/STM32F4xx_HAL_Driver/Src/stm32f4xx_hal_smartcard.c ****   * FOR ANY DIRECT, INDIRECT, INCIDENTAL, SPECIAL, EXEMPLARY, OR CONSEQUENTIAL
 119:./Libraries/STM32F4xx_HAL_Driver/Src/stm32f4xx_hal_smartcard.c ****   * DAMAGES (INCLUDING, BUT NOT LIMITED TO, PROCUREMENT OF SUBSTITUTE GOODS OR
 120:./Libraries/STM32F4xx_HAL_Driver/Src/stm32f4xx_hal_smartcard.c ****   * SERVICES; LOSS OF USE, DATA, OR PROFITS; OR BUSINESS INTERRUPTION) HOWEVER
 121:./Libraries/STM32F4xx_HAL_Driver/Src/stm32f4xx_hal_smartcard.c ****   * CAUSED AND ON ANY THEORY OF LIABILITY, WHETHER IN CONTRACT, STRICT LIABILITY,
 122:./Libraries/STM32F4xx_HAL_Driver/Src/stm32f4xx_hal_smartcard.c ****   * OR TORT (INCLUDING NEGLIGENCE OR OTHERWISE) ARISING IN ANY WAY OUT OF THE USE
 123:./Libraries/STM32F4xx_HAL_Driver/Src/stm32f4xx_hal_smartcard.c ****   * OF THIS SOFTWARE, EVEN IF ADVISED OF THE POSSIBILITY OF SUCH DAMAGE.
 124:./Libraries/STM32F4xx_HAL_Driver/Src/stm32f4xx_hal_smartcard.c ****   *
 125:./Libraries/STM32F4xx_HAL_Driver/Src/stm32f4xx_hal_smartcard.c ****   ******************************************************************************
 126:./Libraries/STM32F4xx_HAL_Driver/Src/stm32f4xx_hal_smartcard.c ****   */ 
 127:./Libraries/STM32F4xx_HAL_Driver/Src/stm32f4xx_hal_smartcard.c **** 
 128:./Libraries/STM32F4xx_HAL_Driver/Src/stm32f4xx_hal_smartcard.c **** /* Includes ------------------------------------------------------------------*/
 129:./Libraries/STM32F4xx_HAL_Driver/Src/stm32f4xx_hal_smartcard.c **** #include "stm32f4xx_hal.h"
 130:./Libraries/STM32F4xx_HAL_Driver/Src/stm32f4xx_hal_smartcard.c **** 
 131:./Libraries/STM32F4xx_HAL_Driver/Src/stm32f4xx_hal_smartcard.c **** /** @addtogroup STM32F4xx_HAL_Driver
 132:./Libraries/STM32F4xx_HAL_Driver/Src/stm32f4xx_hal_smartcard.c ****   * @{
 133:./Libraries/STM32F4xx_HAL_Driver/Src/stm32f4xx_hal_smartcard.c ****   */
 134:./Libraries/STM32F4xx_HAL_Driver/Src/stm32f4xx_hal_smartcard.c **** 
 135:./Libraries/STM32F4xx_HAL_Driver/Src/stm32f4xx_hal_smartcard.c **** /** @defgroup SMARTCARD SMARTCARD
 136:./Libraries/STM32F4xx_HAL_Driver/Src/stm32f4xx_hal_smartcard.c ****   * @brief HAL USART SMARTCARD module driver
 137:./Libraries/STM32F4xx_HAL_Driver/Src/stm32f4xx_hal_smartcard.c ****   * @{
 138:./Libraries/STM32F4xx_HAL_Driver/Src/stm32f4xx_hal_smartcard.c ****   */
 139:./Libraries/STM32F4xx_HAL_Driver/Src/stm32f4xx_hal_smartcard.c **** #ifdef HAL_SMARTCARD_MODULE_ENABLED
 140:./Libraries/STM32F4xx_HAL_Driver/Src/stm32f4xx_hal_smartcard.c **** /* Private typedef -----------------------------------------------------------*/
 141:./Libraries/STM32F4xx_HAL_Driver/Src/stm32f4xx_hal_smartcard.c **** /* Private define ------------------------------------------------------------*/
 142:./Libraries/STM32F4xx_HAL_Driver/Src/stm32f4xx_hal_smartcard.c **** /** @addtogroup SMARTCARD_Private_Constants
 143:./Libraries/STM32F4xx_HAL_Driver/Src/stm32f4xx_hal_smartcard.c ****   * @{
 144:./Libraries/STM32F4xx_HAL_Driver/Src/stm32f4xx_hal_smartcard.c ****   */
ARM GAS  /tmp/cc5Yvz5O.s 			page 4


 145:./Libraries/STM32F4xx_HAL_Driver/Src/stm32f4xx_hal_smartcard.c **** /**
 146:./Libraries/STM32F4xx_HAL_Driver/Src/stm32f4xx_hal_smartcard.c ****   * @}
 147:./Libraries/STM32F4xx_HAL_Driver/Src/stm32f4xx_hal_smartcard.c ****   */
 148:./Libraries/STM32F4xx_HAL_Driver/Src/stm32f4xx_hal_smartcard.c **** /* Private macro -------------------------------------------------------------*/
 149:./Libraries/STM32F4xx_HAL_Driver/Src/stm32f4xx_hal_smartcard.c **** /* Private variables ---------------------------------------------------------*/
 150:./Libraries/STM32F4xx_HAL_Driver/Src/stm32f4xx_hal_smartcard.c **** /* Private function prototypes -----------------------------------------------*/
 151:./Libraries/STM32F4xx_HAL_Driver/Src/stm32f4xx_hal_smartcard.c **** /** @addtogroup SMARTCARD_Private_Functions
 152:./Libraries/STM32F4xx_HAL_Driver/Src/stm32f4xx_hal_smartcard.c ****   * @{
 153:./Libraries/STM32F4xx_HAL_Driver/Src/stm32f4xx_hal_smartcard.c ****   */
 154:./Libraries/STM32F4xx_HAL_Driver/Src/stm32f4xx_hal_smartcard.c **** static void SMARTCARD_EndTxTransfer(SMARTCARD_HandleTypeDef *hsc);
 155:./Libraries/STM32F4xx_HAL_Driver/Src/stm32f4xx_hal_smartcard.c **** static void SMARTCARD_EndRxTransfer(SMARTCARD_HandleTypeDef *hsc);
 156:./Libraries/STM32F4xx_HAL_Driver/Src/stm32f4xx_hal_smartcard.c **** static void SMARTCARD_SetConfig (SMARTCARD_HandleTypeDef *hsc);
 157:./Libraries/STM32F4xx_HAL_Driver/Src/stm32f4xx_hal_smartcard.c **** static HAL_StatusTypeDef SMARTCARD_Transmit_IT(SMARTCARD_HandleTypeDef *hsc);
 158:./Libraries/STM32F4xx_HAL_Driver/Src/stm32f4xx_hal_smartcard.c **** static HAL_StatusTypeDef SMARTCARD_EndTransmit_IT(SMARTCARD_HandleTypeDef *hsmartcard);
 159:./Libraries/STM32F4xx_HAL_Driver/Src/stm32f4xx_hal_smartcard.c **** static HAL_StatusTypeDef SMARTCARD_Receive_IT(SMARTCARD_HandleTypeDef *hsc);
 160:./Libraries/STM32F4xx_HAL_Driver/Src/stm32f4xx_hal_smartcard.c **** static void SMARTCARD_DMATransmitCplt(DMA_HandleTypeDef *hdma);
 161:./Libraries/STM32F4xx_HAL_Driver/Src/stm32f4xx_hal_smartcard.c **** static void SMARTCARD_DMAReceiveCplt(DMA_HandleTypeDef *hdma);
 162:./Libraries/STM32F4xx_HAL_Driver/Src/stm32f4xx_hal_smartcard.c **** static void SMARTCARD_DMAError(DMA_HandleTypeDef *hdma);
 163:./Libraries/STM32F4xx_HAL_Driver/Src/stm32f4xx_hal_smartcard.c **** static void SMARTCARD_DMAAbortOnError(DMA_HandleTypeDef *hdma);
 164:./Libraries/STM32F4xx_HAL_Driver/Src/stm32f4xx_hal_smartcard.c **** static void SMARTCARD_DMATxAbortCallback(DMA_HandleTypeDef *hdma);
 165:./Libraries/STM32F4xx_HAL_Driver/Src/stm32f4xx_hal_smartcard.c **** static void SMARTCARD_DMARxAbortCallback(DMA_HandleTypeDef *hdma);
 166:./Libraries/STM32F4xx_HAL_Driver/Src/stm32f4xx_hal_smartcard.c **** static void SMARTCARD_DMATxOnlyAbortCallback(DMA_HandleTypeDef *hdma);
 167:./Libraries/STM32F4xx_HAL_Driver/Src/stm32f4xx_hal_smartcard.c **** static void SMARTCARD_DMARxOnlyAbortCallback(DMA_HandleTypeDef *hdma);
 168:./Libraries/STM32F4xx_HAL_Driver/Src/stm32f4xx_hal_smartcard.c **** static HAL_StatusTypeDef SMARTCARD_WaitOnFlagUntilTimeout(SMARTCARD_HandleTypeDef *hsc, uint32_t Fl
 169:./Libraries/STM32F4xx_HAL_Driver/Src/stm32f4xx_hal_smartcard.c **** /**
 170:./Libraries/STM32F4xx_HAL_Driver/Src/stm32f4xx_hal_smartcard.c ****   * @}
 171:./Libraries/STM32F4xx_HAL_Driver/Src/stm32f4xx_hal_smartcard.c ****   */
 172:./Libraries/STM32F4xx_HAL_Driver/Src/stm32f4xx_hal_smartcard.c **** /* Exported functions --------------------------------------------------------*/
 173:./Libraries/STM32F4xx_HAL_Driver/Src/stm32f4xx_hal_smartcard.c **** /** @defgroup SMARTCARD_Exported_Functions SMARTCARD Exported Functions
 174:./Libraries/STM32F4xx_HAL_Driver/Src/stm32f4xx_hal_smartcard.c ****   * @{
 175:./Libraries/STM32F4xx_HAL_Driver/Src/stm32f4xx_hal_smartcard.c ****   */
 176:./Libraries/STM32F4xx_HAL_Driver/Src/stm32f4xx_hal_smartcard.c **** 
 177:./Libraries/STM32F4xx_HAL_Driver/Src/stm32f4xx_hal_smartcard.c **** /** @defgroup SMARTCARD_Exported_Functions_Group1 SmartCard Initialization and de-initialization fu
 178:./Libraries/STM32F4xx_HAL_Driver/Src/stm32f4xx_hal_smartcard.c ****   *  @brief    Initialization and Configuration functions 
 179:./Libraries/STM32F4xx_HAL_Driver/Src/stm32f4xx_hal_smartcard.c ****   *
 180:./Libraries/STM32F4xx_HAL_Driver/Src/stm32f4xx_hal_smartcard.c **** @verbatim 
 181:./Libraries/STM32F4xx_HAL_Driver/Src/stm32f4xx_hal_smartcard.c ****   ==============================================================================
 182:./Libraries/STM32F4xx_HAL_Driver/Src/stm32f4xx_hal_smartcard.c ****               ##### Initialization and Configuration functions #####
 183:./Libraries/STM32F4xx_HAL_Driver/Src/stm32f4xx_hal_smartcard.c ****   ==============================================================================
 184:./Libraries/STM32F4xx_HAL_Driver/Src/stm32f4xx_hal_smartcard.c ****   [..]
 185:./Libraries/STM32F4xx_HAL_Driver/Src/stm32f4xx_hal_smartcard.c ****   This subsection provides a set of functions allowing to initialize the USART 
 186:./Libraries/STM32F4xx_HAL_Driver/Src/stm32f4xx_hal_smartcard.c ****   in Smartcard mode.
 187:./Libraries/STM32F4xx_HAL_Driver/Src/stm32f4xx_hal_smartcard.c ****   [..]
 188:./Libraries/STM32F4xx_HAL_Driver/Src/stm32f4xx_hal_smartcard.c ****   The Smartcard interface is designed to support asynchronous protocol Smartcards as
 189:./Libraries/STM32F4xx_HAL_Driver/Src/stm32f4xx_hal_smartcard.c ****   defined in the ISO 7816-3 standard.
 190:./Libraries/STM32F4xx_HAL_Driver/Src/stm32f4xx_hal_smartcard.c ****   [..]
 191:./Libraries/STM32F4xx_HAL_Driver/Src/stm32f4xx_hal_smartcard.c ****   The USART can provide a clock to the smartcard through the SCLK output.
 192:./Libraries/STM32F4xx_HAL_Driver/Src/stm32f4xx_hal_smartcard.c ****   In smartcard mode, SCLK is not associated to the communication but is simply derived 
 193:./Libraries/STM32F4xx_HAL_Driver/Src/stm32f4xx_hal_smartcard.c ****   from the internal peripheral input clock through a 5-bit prescaler.
 194:./Libraries/STM32F4xx_HAL_Driver/Src/stm32f4xx_hal_smartcard.c ****   [..]
 195:./Libraries/STM32F4xx_HAL_Driver/Src/stm32f4xx_hal_smartcard.c ****   (+) For the Smartcard mode only these parameters can be configured:
 196:./Libraries/STM32F4xx_HAL_Driver/Src/stm32f4xx_hal_smartcard.c ****       (++) Baud Rate
 197:./Libraries/STM32F4xx_HAL_Driver/Src/stm32f4xx_hal_smartcard.c ****       (++) Word Length => Should be 9 bits (8 bits + parity)
 198:./Libraries/STM32F4xx_HAL_Driver/Src/stm32f4xx_hal_smartcard.c ****       (++) Stop Bit
 199:./Libraries/STM32F4xx_HAL_Driver/Src/stm32f4xx_hal_smartcard.c ****       (++) Parity: => Should be enabled
 200:./Libraries/STM32F4xx_HAL_Driver/Src/stm32f4xx_hal_smartcard.c ****       (++) USART polarity
 201:./Libraries/STM32F4xx_HAL_Driver/Src/stm32f4xx_hal_smartcard.c ****       (++) USART phase
ARM GAS  /tmp/cc5Yvz5O.s 			page 5


 202:./Libraries/STM32F4xx_HAL_Driver/Src/stm32f4xx_hal_smartcard.c ****       (++) USART LastBit
 203:./Libraries/STM32F4xx_HAL_Driver/Src/stm32f4xx_hal_smartcard.c ****       (++) Receiver/transmitter modes
 204:./Libraries/STM32F4xx_HAL_Driver/Src/stm32f4xx_hal_smartcard.c ****       (++) Prescaler
 205:./Libraries/STM32F4xx_HAL_Driver/Src/stm32f4xx_hal_smartcard.c ****       (++) GuardTime
 206:./Libraries/STM32F4xx_HAL_Driver/Src/stm32f4xx_hal_smartcard.c ****       (++) NACKState: The Smartcard NACK state
 207:./Libraries/STM32F4xx_HAL_Driver/Src/stm32f4xx_hal_smartcard.c **** 
 208:./Libraries/STM32F4xx_HAL_Driver/Src/stm32f4xx_hal_smartcard.c ****      (+) Recommended SmartCard interface configuration to get the Answer to Reset from the Card:
 209:./Libraries/STM32F4xx_HAL_Driver/Src/stm32f4xx_hal_smartcard.c ****         (++) Word Length = 9 Bits
 210:./Libraries/STM32F4xx_HAL_Driver/Src/stm32f4xx_hal_smartcard.c ****         (++) 1.5 Stop Bit
 211:./Libraries/STM32F4xx_HAL_Driver/Src/stm32f4xx_hal_smartcard.c ****         (++) Even parity
 212:./Libraries/STM32F4xx_HAL_Driver/Src/stm32f4xx_hal_smartcard.c ****         (++) BaudRate = 12096 baud
 213:./Libraries/STM32F4xx_HAL_Driver/Src/stm32f4xx_hal_smartcard.c ****         (++) Tx and Rx enabled
 214:./Libraries/STM32F4xx_HAL_Driver/Src/stm32f4xx_hal_smartcard.c ****   [..]
 215:./Libraries/STM32F4xx_HAL_Driver/Src/stm32f4xx_hal_smartcard.c ****   Please refer to the ISO 7816-3 specification for more details.
 216:./Libraries/STM32F4xx_HAL_Driver/Src/stm32f4xx_hal_smartcard.c **** 
 217:./Libraries/STM32F4xx_HAL_Driver/Src/stm32f4xx_hal_smartcard.c ****   [..]
 218:./Libraries/STM32F4xx_HAL_Driver/Src/stm32f4xx_hal_smartcard.c ****    (@) It is also possible to choose 0.5 stop bit for receiving but it is recommended 
 219:./Libraries/STM32F4xx_HAL_Driver/Src/stm32f4xx_hal_smartcard.c ****        to use 1.5 stop bits for both transmitting and receiving to avoid switching 
 220:./Libraries/STM32F4xx_HAL_Driver/Src/stm32f4xx_hal_smartcard.c ****        between the two configurations.
 221:./Libraries/STM32F4xx_HAL_Driver/Src/stm32f4xx_hal_smartcard.c ****   [..]
 222:./Libraries/STM32F4xx_HAL_Driver/Src/stm32f4xx_hal_smartcard.c ****     The HAL_SMARTCARD_Init() function follows the USART  SmartCard configuration 
 223:./Libraries/STM32F4xx_HAL_Driver/Src/stm32f4xx_hal_smartcard.c ****     procedure (details for the procedure are available in reference manual (RM0329)).
 224:./Libraries/STM32F4xx_HAL_Driver/Src/stm32f4xx_hal_smartcard.c **** 
 225:./Libraries/STM32F4xx_HAL_Driver/Src/stm32f4xx_hal_smartcard.c **** @endverbatim
 226:./Libraries/STM32F4xx_HAL_Driver/Src/stm32f4xx_hal_smartcard.c **** 
 227:./Libraries/STM32F4xx_HAL_Driver/Src/stm32f4xx_hal_smartcard.c ****   The SMARTCARD frame format is given in the following table:
 228:./Libraries/STM32F4xx_HAL_Driver/Src/stm32f4xx_hal_smartcard.c ****        +-------------------------------------------------------------+
 229:./Libraries/STM32F4xx_HAL_Driver/Src/stm32f4xx_hal_smartcard.c ****        |   M bit |  PCE bit  |        SMARTCARD frame                |
 230:./Libraries/STM32F4xx_HAL_Driver/Src/stm32f4xx_hal_smartcard.c ****        |---------------------|---------------------------------------|
 231:./Libraries/STM32F4xx_HAL_Driver/Src/stm32f4xx_hal_smartcard.c ****        |    1    |    1      |    | SB | 8 bit data | PB | STB |     |
 232:./Libraries/STM32F4xx_HAL_Driver/Src/stm32f4xx_hal_smartcard.c ****        +-------------------------------------------------------------+
 233:./Libraries/STM32F4xx_HAL_Driver/Src/stm32f4xx_hal_smartcard.c ****   * @{
 234:./Libraries/STM32F4xx_HAL_Driver/Src/stm32f4xx_hal_smartcard.c ****   */
 235:./Libraries/STM32F4xx_HAL_Driver/Src/stm32f4xx_hal_smartcard.c **** 
 236:./Libraries/STM32F4xx_HAL_Driver/Src/stm32f4xx_hal_smartcard.c **** /**
 237:./Libraries/STM32F4xx_HAL_Driver/Src/stm32f4xx_hal_smartcard.c ****   * @brief Initializes the SmartCard mode according to the specified
 238:./Libraries/STM32F4xx_HAL_Driver/Src/stm32f4xx_hal_smartcard.c ****   *         parameters in the SMARTCARD_InitTypeDef and create the associated handle .
 239:./Libraries/STM32F4xx_HAL_Driver/Src/stm32f4xx_hal_smartcard.c ****   * @param  hsc pointer to a SMARTCARD_HandleTypeDef structure that contains
 240:./Libraries/STM32F4xx_HAL_Driver/Src/stm32f4xx_hal_smartcard.c ****   *                the configuration information for SMARTCARD module.
 241:./Libraries/STM32F4xx_HAL_Driver/Src/stm32f4xx_hal_smartcard.c ****   * @retval HAL status
 242:./Libraries/STM32F4xx_HAL_Driver/Src/stm32f4xx_hal_smartcard.c ****   */
 243:./Libraries/STM32F4xx_HAL_Driver/Src/stm32f4xx_hal_smartcard.c **** HAL_StatusTypeDef HAL_SMARTCARD_Init(SMARTCARD_HandleTypeDef *hsc)
 244:./Libraries/STM32F4xx_HAL_Driver/Src/stm32f4xx_hal_smartcard.c **** {
  29              		.loc 1 244 1
  30              		.cfi_startproc
  31              		@ args = 0, pretend = 0, frame = 8
  32              		@ frame_needed = 1, uses_anonymous_args = 0
  33 0000 80B5     		push	{r7, lr}
  34              	.LCFI0:
  35              		.cfi_def_cfa_offset 8
  36              		.cfi_offset 7, -8
  37              		.cfi_offset 14, -4
  38 0002 82B0     		sub	sp, sp, #8
  39              	.LCFI1:
  40              		.cfi_def_cfa_offset 16
  41 0004 00AF     		add	r7, sp, #0
  42              	.LCFI2:
ARM GAS  /tmp/cc5Yvz5O.s 			page 6


  43              		.cfi_def_cfa_register 7
  44 0006 7860     		str	r0, [r7, #4]
 245:./Libraries/STM32F4xx_HAL_Driver/Src/stm32f4xx_hal_smartcard.c ****   /* Check the SMARTCARD handle allocation */
 246:./Libraries/STM32F4xx_HAL_Driver/Src/stm32f4xx_hal_smartcard.c ****   if(hsc == NULL)
  45              		.loc 1 246 5
  46 0008 7B68     		ldr	r3, [r7, #4]
  47 000a 002B     		cmp	r3, #0
  48 000c 01D1     		bne	.L2
 247:./Libraries/STM32F4xx_HAL_Driver/Src/stm32f4xx_hal_smartcard.c ****   {
 248:./Libraries/STM32F4xx_HAL_Driver/Src/stm32f4xx_hal_smartcard.c ****     return HAL_ERROR;
  49              		.loc 1 248 12
  50 000e 0123     		movs	r3, #1
  51 0010 71E0     		b	.L3
  52              	.L2:
 249:./Libraries/STM32F4xx_HAL_Driver/Src/stm32f4xx_hal_smartcard.c ****   }
 250:./Libraries/STM32F4xx_HAL_Driver/Src/stm32f4xx_hal_smartcard.c **** 
 251:./Libraries/STM32F4xx_HAL_Driver/Src/stm32f4xx_hal_smartcard.c ****   /* Check the parameters */
 252:./Libraries/STM32F4xx_HAL_Driver/Src/stm32f4xx_hal_smartcard.c ****   assert_param(IS_SMARTCARD_INSTANCE(hsc->Instance));
 253:./Libraries/STM32F4xx_HAL_Driver/Src/stm32f4xx_hal_smartcard.c ****   assert_param(IS_SMARTCARD_NACK_STATE(hsc->Init.NACKState));
 254:./Libraries/STM32F4xx_HAL_Driver/Src/stm32f4xx_hal_smartcard.c **** 
 255:./Libraries/STM32F4xx_HAL_Driver/Src/stm32f4xx_hal_smartcard.c ****   if(hsc->gState == HAL_SMARTCARD_STATE_RESET)
  53              		.loc 1 255 9
  54 0012 7B68     		ldr	r3, [r7, #4]
  55 0014 93F84930 		ldrb	r3, [r3, #73]
  56 0018 DBB2     		uxtb	r3, r3
  57              		.loc 1 255 5
  58 001a 002B     		cmp	r3, #0
  59 001c 06D1     		bne	.L4
 256:./Libraries/STM32F4xx_HAL_Driver/Src/stm32f4xx_hal_smartcard.c ****   {  
 257:./Libraries/STM32F4xx_HAL_Driver/Src/stm32f4xx_hal_smartcard.c ****     /* Allocate lock resource and initialize it */
 258:./Libraries/STM32F4xx_HAL_Driver/Src/stm32f4xx_hal_smartcard.c ****     hsc->Lock = HAL_UNLOCKED;
  60              		.loc 1 258 15
  61 001e 7B68     		ldr	r3, [r7, #4]
  62 0020 0022     		movs	r2, #0
  63 0022 83F84820 		strb	r2, [r3, #72]
 259:./Libraries/STM32F4xx_HAL_Driver/Src/stm32f4xx_hal_smartcard.c ****     /* Init the low level hardware : GPIO, CLOCK, CORTEX...etc */
 260:./Libraries/STM32F4xx_HAL_Driver/Src/stm32f4xx_hal_smartcard.c ****     HAL_SMARTCARD_MspInit(hsc);
  64              		.loc 1 260 5
  65 0026 7868     		ldr	r0, [r7, #4]
  66 0028 FFF7FEFF 		bl	HAL_SMARTCARD_MspInit
  67              	.L4:
 261:./Libraries/STM32F4xx_HAL_Driver/Src/stm32f4xx_hal_smartcard.c ****   }
 262:./Libraries/STM32F4xx_HAL_Driver/Src/stm32f4xx_hal_smartcard.c ****   
 263:./Libraries/STM32F4xx_HAL_Driver/Src/stm32f4xx_hal_smartcard.c ****   hsc->gState = HAL_SMARTCARD_STATE_BUSY;
  68              		.loc 1 263 15
  69 002c 7B68     		ldr	r3, [r7, #4]
  70 002e 2422     		movs	r2, #36
  71 0030 83F84920 		strb	r2, [r3, #73]
 264:./Libraries/STM32F4xx_HAL_Driver/Src/stm32f4xx_hal_smartcard.c **** 
 265:./Libraries/STM32F4xx_HAL_Driver/Src/stm32f4xx_hal_smartcard.c ****   /* Set the Prescaler */
 266:./Libraries/STM32F4xx_HAL_Driver/Src/stm32f4xx_hal_smartcard.c ****   MODIFY_REG(hsc->Instance->GTPR, USART_GTPR_PSC, hsc->Init.Prescaler);
  72              		.loc 1 266 3
  73 0034 7B68     		ldr	r3, [r7, #4]
  74 0036 1B68     		ldr	r3, [r3]
  75 0038 9B69     		ldr	r3, [r3, #24]
  76 003a 23F0FF01 		bic	r1, r3, #255
  77 003e 7B68     		ldr	r3, [r7, #4]
ARM GAS  /tmp/cc5Yvz5O.s 			page 7


  78 0040 5A6A     		ldr	r2, [r3, #36]
  79 0042 7B68     		ldr	r3, [r7, #4]
  80 0044 1B68     		ldr	r3, [r3]
  81 0046 0A43     		orrs	r2, r2, r1
  82 0048 9A61     		str	r2, [r3, #24]
 267:./Libraries/STM32F4xx_HAL_Driver/Src/stm32f4xx_hal_smartcard.c **** 
 268:./Libraries/STM32F4xx_HAL_Driver/Src/stm32f4xx_hal_smartcard.c ****   /* Set the Guard Time */
 269:./Libraries/STM32F4xx_HAL_Driver/Src/stm32f4xx_hal_smartcard.c ****   MODIFY_REG(hsc->Instance->GTPR, USART_GTPR_GT, ((hsc->Init.GuardTime)<<8U));
  83              		.loc 1 269 3
  84 004a 7B68     		ldr	r3, [r7, #4]
  85 004c 1B68     		ldr	r3, [r3]
  86 004e 9B69     		ldr	r3, [r3, #24]
  87 0050 23F47F41 		bic	r1, r3, #65280
  88 0054 7B68     		ldr	r3, [r7, #4]
  89 0056 9B6A     		ldr	r3, [r3, #40]
  90 0058 1A02     		lsls	r2, r3, #8
  91 005a 7B68     		ldr	r3, [r7, #4]
  92 005c 1B68     		ldr	r3, [r3]
  93 005e 0A43     		orrs	r2, r2, r1
  94 0060 9A61     		str	r2, [r3, #24]
 270:./Libraries/STM32F4xx_HAL_Driver/Src/stm32f4xx_hal_smartcard.c **** 
 271:./Libraries/STM32F4xx_HAL_Driver/Src/stm32f4xx_hal_smartcard.c ****   /* Set the Smartcard Communication parameters */
 272:./Libraries/STM32F4xx_HAL_Driver/Src/stm32f4xx_hal_smartcard.c ****   SMARTCARD_SetConfig(hsc);
  95              		.loc 1 272 3
  96 0062 7868     		ldr	r0, [r7, #4]
  97 0064 FFF7FEFF 		bl	SMARTCARD_SetConfig
 273:./Libraries/STM32F4xx_HAL_Driver/Src/stm32f4xx_hal_smartcard.c **** 
 274:./Libraries/STM32F4xx_HAL_Driver/Src/stm32f4xx_hal_smartcard.c ****   /* In SmartCard mode, the following bits must be kept cleared: 
 275:./Libraries/STM32F4xx_HAL_Driver/Src/stm32f4xx_hal_smartcard.c ****   - LINEN bit in the USART_CR2 register
 276:./Libraries/STM32F4xx_HAL_Driver/Src/stm32f4xx_hal_smartcard.c ****   - HDSEL and IREN bits in the USART_CR3 register.*/
 277:./Libraries/STM32F4xx_HAL_Driver/Src/stm32f4xx_hal_smartcard.c ****   CLEAR_BIT(hsc->Instance->CR2, USART_CR2_LINEN);
  98              		.loc 1 277 3
  99 0068 7B68     		ldr	r3, [r7, #4]
 100 006a 1B68     		ldr	r3, [r3]
 101 006c 1A69     		ldr	r2, [r3, #16]
 102 006e 7B68     		ldr	r3, [r7, #4]
 103 0070 1B68     		ldr	r3, [r3]
 104 0072 22F48042 		bic	r2, r2, #16384
 105 0076 1A61     		str	r2, [r3, #16]
 278:./Libraries/STM32F4xx_HAL_Driver/Src/stm32f4xx_hal_smartcard.c ****   CLEAR_BIT(hsc->Instance->CR3, (USART_CR3_IREN | USART_CR3_HDSEL));
 106              		.loc 1 278 3
 107 0078 7B68     		ldr	r3, [r7, #4]
 108 007a 1B68     		ldr	r3, [r3]
 109 007c 5A69     		ldr	r2, [r3, #20]
 110 007e 7B68     		ldr	r3, [r7, #4]
 111 0080 1B68     		ldr	r3, [r3]
 112 0082 22F00A02 		bic	r2, r2, #10
 113 0086 5A61     		str	r2, [r3, #20]
 279:./Libraries/STM32F4xx_HAL_Driver/Src/stm32f4xx_hal_smartcard.c **** 
 280:./Libraries/STM32F4xx_HAL_Driver/Src/stm32f4xx_hal_smartcard.c ****   /* Enable the SMARTCARD Parity Error Interrupt */
 281:./Libraries/STM32F4xx_HAL_Driver/Src/stm32f4xx_hal_smartcard.c ****   SET_BIT(hsc->Instance->CR1, USART_CR1_PEIE);
 114              		.loc 1 281 3
 115 0088 7B68     		ldr	r3, [r7, #4]
 116 008a 1B68     		ldr	r3, [r3]
 117 008c DA68     		ldr	r2, [r3, #12]
 118 008e 7B68     		ldr	r3, [r7, #4]
 119 0090 1B68     		ldr	r3, [r3]
ARM GAS  /tmp/cc5Yvz5O.s 			page 8


 120 0092 42F48072 		orr	r2, r2, #256
 121 0096 DA60     		str	r2, [r3, #12]
 282:./Libraries/STM32F4xx_HAL_Driver/Src/stm32f4xx_hal_smartcard.c **** 
 283:./Libraries/STM32F4xx_HAL_Driver/Src/stm32f4xx_hal_smartcard.c ****   /* Enable the SMARTCARD Framing Error Interrupt */
 284:./Libraries/STM32F4xx_HAL_Driver/Src/stm32f4xx_hal_smartcard.c ****   SET_BIT(hsc->Instance->CR3, USART_CR3_EIE);
 122              		.loc 1 284 3
 123 0098 7B68     		ldr	r3, [r7, #4]
 124 009a 1B68     		ldr	r3, [r3]
 125 009c 5A69     		ldr	r2, [r3, #20]
 126 009e 7B68     		ldr	r3, [r7, #4]
 127 00a0 1B68     		ldr	r3, [r3]
 128 00a2 42F00102 		orr	r2, r2, #1
 129 00a6 5A61     		str	r2, [r3, #20]
 285:./Libraries/STM32F4xx_HAL_Driver/Src/stm32f4xx_hal_smartcard.c **** 
 286:./Libraries/STM32F4xx_HAL_Driver/Src/stm32f4xx_hal_smartcard.c ****   /* Enable the Peripheral */
 287:./Libraries/STM32F4xx_HAL_Driver/Src/stm32f4xx_hal_smartcard.c ****   __HAL_SMARTCARD_ENABLE(hsc);
 130              		.loc 1 287 3
 131 00a8 7B68     		ldr	r3, [r7, #4]
 132 00aa 1B68     		ldr	r3, [r3]
 133 00ac DA68     		ldr	r2, [r3, #12]
 134 00ae 7B68     		ldr	r3, [r7, #4]
 135 00b0 1B68     		ldr	r3, [r3]
 136 00b2 42F40052 		orr	r2, r2, #8192
 137 00b6 DA60     		str	r2, [r3, #12]
 288:./Libraries/STM32F4xx_HAL_Driver/Src/stm32f4xx_hal_smartcard.c **** 
 289:./Libraries/STM32F4xx_HAL_Driver/Src/stm32f4xx_hal_smartcard.c ****   /* Configure the Smartcard NACK state */
 290:./Libraries/STM32F4xx_HAL_Driver/Src/stm32f4xx_hal_smartcard.c ****   MODIFY_REG(hsc->Instance->CR3, USART_CR3_NACK, hsc->Init.NACKState);
 138              		.loc 1 290 3
 139 00b8 7B68     		ldr	r3, [r7, #4]
 140 00ba 1B68     		ldr	r3, [r3]
 141 00bc 5B69     		ldr	r3, [r3, #20]
 142 00be 23F01001 		bic	r1, r3, #16
 143 00c2 7B68     		ldr	r3, [r7, #4]
 144 00c4 DA6A     		ldr	r2, [r3, #44]
 145 00c6 7B68     		ldr	r3, [r7, #4]
 146 00c8 1B68     		ldr	r3, [r3]
 147 00ca 0A43     		orrs	r2, r2, r1
 148 00cc 5A61     		str	r2, [r3, #20]
 291:./Libraries/STM32F4xx_HAL_Driver/Src/stm32f4xx_hal_smartcard.c **** 
 292:./Libraries/STM32F4xx_HAL_Driver/Src/stm32f4xx_hal_smartcard.c ****   /* Enable the SC mode by setting the SCEN bit in the CR3 register */
 293:./Libraries/STM32F4xx_HAL_Driver/Src/stm32f4xx_hal_smartcard.c ****   hsc->Instance->CR3 |= (USART_CR3_SCEN);
 149              		.loc 1 293 6
 150 00ce 7B68     		ldr	r3, [r7, #4]
 151 00d0 1B68     		ldr	r3, [r3]
 152              		.loc 1 293 22
 153 00d2 5A69     		ldr	r2, [r3, #20]
 154              		.loc 1 293 6
 155 00d4 7B68     		ldr	r3, [r7, #4]
 156 00d6 1B68     		ldr	r3, [r3]
 157              		.loc 1 293 22
 158 00d8 42F02002 		orr	r2, r2, #32
 159 00dc 5A61     		str	r2, [r3, #20]
 294:./Libraries/STM32F4xx_HAL_Driver/Src/stm32f4xx_hal_smartcard.c **** 
 295:./Libraries/STM32F4xx_HAL_Driver/Src/stm32f4xx_hal_smartcard.c ****   /* Initialize the SMARTCARD state*/
 296:./Libraries/STM32F4xx_HAL_Driver/Src/stm32f4xx_hal_smartcard.c ****   hsc->ErrorCode = HAL_SMARTCARD_ERROR_NONE;
 160              		.loc 1 296 18
 161 00de 7B68     		ldr	r3, [r7, #4]
ARM GAS  /tmp/cc5Yvz5O.s 			page 9


 162 00e0 0022     		movs	r2, #0
 163 00e2 DA64     		str	r2, [r3, #76]
 297:./Libraries/STM32F4xx_HAL_Driver/Src/stm32f4xx_hal_smartcard.c ****   hsc->gState= HAL_SMARTCARD_STATE_READY;
 164              		.loc 1 297 14
 165 00e4 7B68     		ldr	r3, [r7, #4]
 166 00e6 2022     		movs	r2, #32
 167 00e8 83F84920 		strb	r2, [r3, #73]
 298:./Libraries/STM32F4xx_HAL_Driver/Src/stm32f4xx_hal_smartcard.c ****   hsc->RxState= HAL_SMARTCARD_STATE_READY;
 168              		.loc 1 298 15
 169 00ec 7B68     		ldr	r3, [r7, #4]
 170 00ee 2022     		movs	r2, #32
 171 00f0 83F84A20 		strb	r2, [r3, #74]
 299:./Libraries/STM32F4xx_HAL_Driver/Src/stm32f4xx_hal_smartcard.c **** 
 300:./Libraries/STM32F4xx_HAL_Driver/Src/stm32f4xx_hal_smartcard.c ****   return HAL_OK;
 172              		.loc 1 300 10
 173 00f4 0023     		movs	r3, #0
 174              	.L3:
 301:./Libraries/STM32F4xx_HAL_Driver/Src/stm32f4xx_hal_smartcard.c **** }
 175              		.loc 1 301 1
 176 00f6 1846     		mov	r0, r3
 177 00f8 0837     		adds	r7, r7, #8
 178              	.LCFI3:
 179              		.cfi_def_cfa_offset 8
 180 00fa BD46     		mov	sp, r7
 181              	.LCFI4:
 182              		.cfi_def_cfa_register 13
 183              		@ sp needed
 184 00fc 80BD     		pop	{r7, pc}
 185              		.cfi_endproc
 186              	.LFE126:
 188              		.section	.text.HAL_SMARTCARD_DeInit,"ax",%progbits
 189              		.align	1
 190              		.global	HAL_SMARTCARD_DeInit
 191              		.syntax unified
 192              		.thumb
 193              		.thumb_func
 194              		.fpu fpv4-sp-d16
 196              	HAL_SMARTCARD_DeInit:
 197              	.LFB127:
 302:./Libraries/STM32F4xx_HAL_Driver/Src/stm32f4xx_hal_smartcard.c **** 
 303:./Libraries/STM32F4xx_HAL_Driver/Src/stm32f4xx_hal_smartcard.c **** /**
 304:./Libraries/STM32F4xx_HAL_Driver/Src/stm32f4xx_hal_smartcard.c ****   * @brief DeInitializes the USART SmartCard peripheral 
 305:./Libraries/STM32F4xx_HAL_Driver/Src/stm32f4xx_hal_smartcard.c ****   * @param  hsc pointer to a SMARTCARD_HandleTypeDef structure that contains
 306:./Libraries/STM32F4xx_HAL_Driver/Src/stm32f4xx_hal_smartcard.c ****   *                the configuration information for SMARTCARD module.
 307:./Libraries/STM32F4xx_HAL_Driver/Src/stm32f4xx_hal_smartcard.c ****   * @retval HAL status
 308:./Libraries/STM32F4xx_HAL_Driver/Src/stm32f4xx_hal_smartcard.c ****   */
 309:./Libraries/STM32F4xx_HAL_Driver/Src/stm32f4xx_hal_smartcard.c **** HAL_StatusTypeDef HAL_SMARTCARD_DeInit(SMARTCARD_HandleTypeDef *hsc)
 310:./Libraries/STM32F4xx_HAL_Driver/Src/stm32f4xx_hal_smartcard.c **** {
 198              		.loc 1 310 1
 199              		.cfi_startproc
 200              		@ args = 0, pretend = 0, frame = 8
 201              		@ frame_needed = 1, uses_anonymous_args = 0
 202 0000 80B5     		push	{r7, lr}
 203              	.LCFI5:
 204              		.cfi_def_cfa_offset 8
 205              		.cfi_offset 7, -8
 206              		.cfi_offset 14, -4
ARM GAS  /tmp/cc5Yvz5O.s 			page 10


 207 0002 82B0     		sub	sp, sp, #8
 208              	.LCFI6:
 209              		.cfi_def_cfa_offset 16
 210 0004 00AF     		add	r7, sp, #0
 211              	.LCFI7:
 212              		.cfi_def_cfa_register 7
 213 0006 7860     		str	r0, [r7, #4]
 311:./Libraries/STM32F4xx_HAL_Driver/Src/stm32f4xx_hal_smartcard.c ****   /* Check the SMARTCARD handle allocation */
 312:./Libraries/STM32F4xx_HAL_Driver/Src/stm32f4xx_hal_smartcard.c ****   if(hsc == NULL)
 214              		.loc 1 312 5
 215 0008 7B68     		ldr	r3, [r7, #4]
 216 000a 002B     		cmp	r3, #0
 217 000c 01D1     		bne	.L6
 313:./Libraries/STM32F4xx_HAL_Driver/Src/stm32f4xx_hal_smartcard.c ****   {
 314:./Libraries/STM32F4xx_HAL_Driver/Src/stm32f4xx_hal_smartcard.c ****     return HAL_ERROR;
 218              		.loc 1 314 12
 219 000e 0123     		movs	r3, #1
 220 0010 1EE0     		b	.L7
 221              	.L6:
 315:./Libraries/STM32F4xx_HAL_Driver/Src/stm32f4xx_hal_smartcard.c ****   }
 316:./Libraries/STM32F4xx_HAL_Driver/Src/stm32f4xx_hal_smartcard.c **** 
 317:./Libraries/STM32F4xx_HAL_Driver/Src/stm32f4xx_hal_smartcard.c ****   /* Check the parameters */
 318:./Libraries/STM32F4xx_HAL_Driver/Src/stm32f4xx_hal_smartcard.c ****   assert_param(IS_SMARTCARD_INSTANCE(hsc->Instance));
 319:./Libraries/STM32F4xx_HAL_Driver/Src/stm32f4xx_hal_smartcard.c **** 
 320:./Libraries/STM32F4xx_HAL_Driver/Src/stm32f4xx_hal_smartcard.c ****   hsc->gState = HAL_SMARTCARD_STATE_BUSY;
 222              		.loc 1 320 15
 223 0012 7B68     		ldr	r3, [r7, #4]
 224 0014 2422     		movs	r2, #36
 225 0016 83F84920 		strb	r2, [r3, #73]
 321:./Libraries/STM32F4xx_HAL_Driver/Src/stm32f4xx_hal_smartcard.c **** 
 322:./Libraries/STM32F4xx_HAL_Driver/Src/stm32f4xx_hal_smartcard.c ****   /* Disable the Peripheral */
 323:./Libraries/STM32F4xx_HAL_Driver/Src/stm32f4xx_hal_smartcard.c ****   __HAL_SMARTCARD_DISABLE(hsc);
 226              		.loc 1 323 3
 227 001a 7B68     		ldr	r3, [r7, #4]
 228 001c 1B68     		ldr	r3, [r3]
 229 001e DA68     		ldr	r2, [r3, #12]
 230 0020 7B68     		ldr	r3, [r7, #4]
 231 0022 1B68     		ldr	r3, [r3]
 232 0024 22F40052 		bic	r2, r2, #8192
 233 0028 DA60     		str	r2, [r3, #12]
 324:./Libraries/STM32F4xx_HAL_Driver/Src/stm32f4xx_hal_smartcard.c **** 
 325:./Libraries/STM32F4xx_HAL_Driver/Src/stm32f4xx_hal_smartcard.c ****   /* DeInit the low level hardware */
 326:./Libraries/STM32F4xx_HAL_Driver/Src/stm32f4xx_hal_smartcard.c ****   HAL_SMARTCARD_MspDeInit(hsc);
 234              		.loc 1 326 3
 235 002a 7868     		ldr	r0, [r7, #4]
 236 002c FFF7FEFF 		bl	HAL_SMARTCARD_MspDeInit
 327:./Libraries/STM32F4xx_HAL_Driver/Src/stm32f4xx_hal_smartcard.c **** 
 328:./Libraries/STM32F4xx_HAL_Driver/Src/stm32f4xx_hal_smartcard.c ****   hsc->ErrorCode = HAL_SMARTCARD_ERROR_NONE;
 237              		.loc 1 328 18
 238 0030 7B68     		ldr	r3, [r7, #4]
 239 0032 0022     		movs	r2, #0
 240 0034 DA64     		str	r2, [r3, #76]
 329:./Libraries/STM32F4xx_HAL_Driver/Src/stm32f4xx_hal_smartcard.c ****   hsc->gState = HAL_SMARTCARD_STATE_RESET;
 241              		.loc 1 329 15
 242 0036 7B68     		ldr	r3, [r7, #4]
 243 0038 0022     		movs	r2, #0
 244 003a 83F84920 		strb	r2, [r3, #73]
ARM GAS  /tmp/cc5Yvz5O.s 			page 11


 330:./Libraries/STM32F4xx_HAL_Driver/Src/stm32f4xx_hal_smartcard.c ****   hsc->RxState = HAL_SMARTCARD_STATE_RESET;
 245              		.loc 1 330 16
 246 003e 7B68     		ldr	r3, [r7, #4]
 247 0040 0022     		movs	r2, #0
 248 0042 83F84A20 		strb	r2, [r3, #74]
 331:./Libraries/STM32F4xx_HAL_Driver/Src/stm32f4xx_hal_smartcard.c **** 
 332:./Libraries/STM32F4xx_HAL_Driver/Src/stm32f4xx_hal_smartcard.c ****   /* Release Lock */
 333:./Libraries/STM32F4xx_HAL_Driver/Src/stm32f4xx_hal_smartcard.c ****   __HAL_UNLOCK(hsc);
 249              		.loc 1 333 3
 250 0046 7B68     		ldr	r3, [r7, #4]
 251 0048 0022     		movs	r2, #0
 252 004a 83F84820 		strb	r2, [r3, #72]
 334:./Libraries/STM32F4xx_HAL_Driver/Src/stm32f4xx_hal_smartcard.c **** 
 335:./Libraries/STM32F4xx_HAL_Driver/Src/stm32f4xx_hal_smartcard.c ****   return HAL_OK;
 253              		.loc 1 335 10
 254 004e 0023     		movs	r3, #0
 255              	.L7:
 336:./Libraries/STM32F4xx_HAL_Driver/Src/stm32f4xx_hal_smartcard.c **** }
 256              		.loc 1 336 1
 257 0050 1846     		mov	r0, r3
 258 0052 0837     		adds	r7, r7, #8
 259              	.LCFI8:
 260              		.cfi_def_cfa_offset 8
 261 0054 BD46     		mov	sp, r7
 262              	.LCFI9:
 263              		.cfi_def_cfa_register 13
 264              		@ sp needed
 265 0056 80BD     		pop	{r7, pc}
 266              		.cfi_endproc
 267              	.LFE127:
 269              		.section	.text.HAL_SMARTCARD_MspInit,"ax",%progbits
 270              		.align	1
 271              		.weak	HAL_SMARTCARD_MspInit
 272              		.syntax unified
 273              		.thumb
 274              		.thumb_func
 275              		.fpu fpv4-sp-d16
 277              	HAL_SMARTCARD_MspInit:
 278              	.LFB128:
 337:./Libraries/STM32F4xx_HAL_Driver/Src/stm32f4xx_hal_smartcard.c **** 
 338:./Libraries/STM32F4xx_HAL_Driver/Src/stm32f4xx_hal_smartcard.c **** /**
 339:./Libraries/STM32F4xx_HAL_Driver/Src/stm32f4xx_hal_smartcard.c ****   * @brief SMARTCARD MSP Init
 340:./Libraries/STM32F4xx_HAL_Driver/Src/stm32f4xx_hal_smartcard.c ****   * @param  hsc pointer to a SMARTCARD_HandleTypeDef structure that contains
 341:./Libraries/STM32F4xx_HAL_Driver/Src/stm32f4xx_hal_smartcard.c ****   *                the configuration information for SMARTCARD module.
 342:./Libraries/STM32F4xx_HAL_Driver/Src/stm32f4xx_hal_smartcard.c ****   * @retval None
 343:./Libraries/STM32F4xx_HAL_Driver/Src/stm32f4xx_hal_smartcard.c ****   */
 344:./Libraries/STM32F4xx_HAL_Driver/Src/stm32f4xx_hal_smartcard.c ****  __weak void HAL_SMARTCARD_MspInit(SMARTCARD_HandleTypeDef *hsc)
 345:./Libraries/STM32F4xx_HAL_Driver/Src/stm32f4xx_hal_smartcard.c **** {
 279              		.loc 1 345 1
 280              		.cfi_startproc
 281              		@ args = 0, pretend = 0, frame = 8
 282              		@ frame_needed = 1, uses_anonymous_args = 0
 283              		@ link register save eliminated.
 284 0000 80B4     		push	{r7}
 285              	.LCFI10:
 286              		.cfi_def_cfa_offset 4
 287              		.cfi_offset 7, -4
ARM GAS  /tmp/cc5Yvz5O.s 			page 12


 288 0002 83B0     		sub	sp, sp, #12
 289              	.LCFI11:
 290              		.cfi_def_cfa_offset 16
 291 0004 00AF     		add	r7, sp, #0
 292              	.LCFI12:
 293              		.cfi_def_cfa_register 7
 294 0006 7860     		str	r0, [r7, #4]
 346:./Libraries/STM32F4xx_HAL_Driver/Src/stm32f4xx_hal_smartcard.c ****   /* Prevent unused argument(s) compilation warning */
 347:./Libraries/STM32F4xx_HAL_Driver/Src/stm32f4xx_hal_smartcard.c ****   UNUSED(hsc);
 348:./Libraries/STM32F4xx_HAL_Driver/Src/stm32f4xx_hal_smartcard.c ****   /* NOTE : This function Should not be modified, when the callback is needed,
 349:./Libraries/STM32F4xx_HAL_Driver/Src/stm32f4xx_hal_smartcard.c ****             the HAL_SMARTCARD_MspInit could be implemented in the user file
 350:./Libraries/STM32F4xx_HAL_Driver/Src/stm32f4xx_hal_smartcard.c ****    */
 351:./Libraries/STM32F4xx_HAL_Driver/Src/stm32f4xx_hal_smartcard.c **** }
 295              		.loc 1 351 1
 296 0008 00BF     		nop
 297 000a 0C37     		adds	r7, r7, #12
 298              	.LCFI13:
 299              		.cfi_def_cfa_offset 4
 300 000c BD46     		mov	sp, r7
 301              	.LCFI14:
 302              		.cfi_def_cfa_register 13
 303              		@ sp needed
 304 000e 5DF8047B 		ldr	r7, [sp], #4
 305              	.LCFI15:
 306              		.cfi_restore 7
 307              		.cfi_def_cfa_offset 0
 308 0012 7047     		bx	lr
 309              		.cfi_endproc
 310              	.LFE128:
 312              		.section	.text.HAL_SMARTCARD_MspDeInit,"ax",%progbits
 313              		.align	1
 314              		.weak	HAL_SMARTCARD_MspDeInit
 315              		.syntax unified
 316              		.thumb
 317              		.thumb_func
 318              		.fpu fpv4-sp-d16
 320              	HAL_SMARTCARD_MspDeInit:
 321              	.LFB129:
 352:./Libraries/STM32F4xx_HAL_Driver/Src/stm32f4xx_hal_smartcard.c **** 
 353:./Libraries/STM32F4xx_HAL_Driver/Src/stm32f4xx_hal_smartcard.c **** /**
 354:./Libraries/STM32F4xx_HAL_Driver/Src/stm32f4xx_hal_smartcard.c ****   * @brief SMARTCARD MSP DeInit
 355:./Libraries/STM32F4xx_HAL_Driver/Src/stm32f4xx_hal_smartcard.c ****   * @param  hsc pointer to a SMARTCARD_HandleTypeDef structure that contains
 356:./Libraries/STM32F4xx_HAL_Driver/Src/stm32f4xx_hal_smartcard.c ****   *                the configuration information for SMARTCARD module.
 357:./Libraries/STM32F4xx_HAL_Driver/Src/stm32f4xx_hal_smartcard.c ****   * @retval None
 358:./Libraries/STM32F4xx_HAL_Driver/Src/stm32f4xx_hal_smartcard.c ****   */
 359:./Libraries/STM32F4xx_HAL_Driver/Src/stm32f4xx_hal_smartcard.c ****  __weak void HAL_SMARTCARD_MspDeInit(SMARTCARD_HandleTypeDef *hsc)
 360:./Libraries/STM32F4xx_HAL_Driver/Src/stm32f4xx_hal_smartcard.c **** {
 322              		.loc 1 360 1
 323              		.cfi_startproc
 324              		@ args = 0, pretend = 0, frame = 8
 325              		@ frame_needed = 1, uses_anonymous_args = 0
 326              		@ link register save eliminated.
 327 0000 80B4     		push	{r7}
 328              	.LCFI16:
 329              		.cfi_def_cfa_offset 4
 330              		.cfi_offset 7, -4
 331 0002 83B0     		sub	sp, sp, #12
ARM GAS  /tmp/cc5Yvz5O.s 			page 13


 332              	.LCFI17:
 333              		.cfi_def_cfa_offset 16
 334 0004 00AF     		add	r7, sp, #0
 335              	.LCFI18:
 336              		.cfi_def_cfa_register 7
 337 0006 7860     		str	r0, [r7, #4]
 361:./Libraries/STM32F4xx_HAL_Driver/Src/stm32f4xx_hal_smartcard.c ****   /* Prevent unused argument(s) compilation warning */
 362:./Libraries/STM32F4xx_HAL_Driver/Src/stm32f4xx_hal_smartcard.c ****   UNUSED(hsc);
 363:./Libraries/STM32F4xx_HAL_Driver/Src/stm32f4xx_hal_smartcard.c ****   /* NOTE : This function Should not be modified, when the callback is needed,
 364:./Libraries/STM32F4xx_HAL_Driver/Src/stm32f4xx_hal_smartcard.c ****             the HAL_SMARTCARD_MspDeInit could be implemented in the user file
 365:./Libraries/STM32F4xx_HAL_Driver/Src/stm32f4xx_hal_smartcard.c ****    */
 366:./Libraries/STM32F4xx_HAL_Driver/Src/stm32f4xx_hal_smartcard.c **** }
 338              		.loc 1 366 1
 339 0008 00BF     		nop
 340 000a 0C37     		adds	r7, r7, #12
 341              	.LCFI19:
 342              		.cfi_def_cfa_offset 4
 343 000c BD46     		mov	sp, r7
 344              	.LCFI20:
 345              		.cfi_def_cfa_register 13
 346              		@ sp needed
 347 000e 5DF8047B 		ldr	r7, [sp], #4
 348              	.LCFI21:
 349              		.cfi_restore 7
 350              		.cfi_def_cfa_offset 0
 351 0012 7047     		bx	lr
 352              		.cfi_endproc
 353              	.LFE129:
 355              		.section	.text.HAL_SMARTCARD_Transmit,"ax",%progbits
 356              		.align	1
 357              		.global	HAL_SMARTCARD_Transmit
 358              		.syntax unified
 359              		.thumb
 360              		.thumb_func
 361              		.fpu fpv4-sp-d16
 363              	HAL_SMARTCARD_Transmit:
 364              	.LFB130:
 367:./Libraries/STM32F4xx_HAL_Driver/Src/stm32f4xx_hal_smartcard.c **** 
 368:./Libraries/STM32F4xx_HAL_Driver/Src/stm32f4xx_hal_smartcard.c **** /**
 369:./Libraries/STM32F4xx_HAL_Driver/Src/stm32f4xx_hal_smartcard.c ****   * @}
 370:./Libraries/STM32F4xx_HAL_Driver/Src/stm32f4xx_hal_smartcard.c ****   */
 371:./Libraries/STM32F4xx_HAL_Driver/Src/stm32f4xx_hal_smartcard.c **** 
 372:./Libraries/STM32F4xx_HAL_Driver/Src/stm32f4xx_hal_smartcard.c **** /** @defgroup SMARTCARD_Exported_Functions_Group2 IO operation functions 
 373:./Libraries/STM32F4xx_HAL_Driver/Src/stm32f4xx_hal_smartcard.c ****   *  @brief   SMARTCARD Transmit and Receive functions 
 374:./Libraries/STM32F4xx_HAL_Driver/Src/stm32f4xx_hal_smartcard.c ****   *
 375:./Libraries/STM32F4xx_HAL_Driver/Src/stm32f4xx_hal_smartcard.c **** @verbatim   
 376:./Libraries/STM32F4xx_HAL_Driver/Src/stm32f4xx_hal_smartcard.c ****  ===============================================================================
 377:./Libraries/STM32F4xx_HAL_Driver/Src/stm32f4xx_hal_smartcard.c ****                       ##### IO operation functions #####
 378:./Libraries/STM32F4xx_HAL_Driver/Src/stm32f4xx_hal_smartcard.c ****  ===============================================================================
 379:./Libraries/STM32F4xx_HAL_Driver/Src/stm32f4xx_hal_smartcard.c ****  [..]  This subsection provides a set of functions allowing to manage the SMARTCARD data transfers.
 380:./Libraries/STM32F4xx_HAL_Driver/Src/stm32f4xx_hal_smartcard.c **** 
 381:./Libraries/STM32F4xx_HAL_Driver/Src/stm32f4xx_hal_smartcard.c ****  [..]
 382:./Libraries/STM32F4xx_HAL_Driver/Src/stm32f4xx_hal_smartcard.c ****     (#) Smartcard is a single wire half duplex communication protocol. 
 383:./Libraries/STM32F4xx_HAL_Driver/Src/stm32f4xx_hal_smartcard.c ****     The Smartcard interface is designed to support asynchronous protocol Smartcards as
 384:./Libraries/STM32F4xx_HAL_Driver/Src/stm32f4xx_hal_smartcard.c ****     defined in the ISO 7816-3 standard. 
 385:./Libraries/STM32F4xx_HAL_Driver/Src/stm32f4xx_hal_smartcard.c ****     (#) The USART should be configured as:
 386:./Libraries/STM32F4xx_HAL_Driver/Src/stm32f4xx_hal_smartcard.c ****        (++) 8 bits plus parity: where M=1 and PCE=1 in the USART_CR1 register
ARM GAS  /tmp/cc5Yvz5O.s 			page 14


 387:./Libraries/STM32F4xx_HAL_Driver/Src/stm32f4xx_hal_smartcard.c ****        (++) 1.5 stop bits when transmitting and receiving: where STOP=11 in the USART_CR2 register.
 388:./Libraries/STM32F4xx_HAL_Driver/Src/stm32f4xx_hal_smartcard.c **** 
 389:./Libraries/STM32F4xx_HAL_Driver/Src/stm32f4xx_hal_smartcard.c ****     (#) There are two modes of transfer:
 390:./Libraries/STM32F4xx_HAL_Driver/Src/stm32f4xx_hal_smartcard.c ****        (++) Blocking mode: The communication is performed in polling mode. 
 391:./Libraries/STM32F4xx_HAL_Driver/Src/stm32f4xx_hal_smartcard.c ****             The HAL status of all data processing is returned by the same function 
 392:./Libraries/STM32F4xx_HAL_Driver/Src/stm32f4xx_hal_smartcard.c ****             after finishing transfer.  
 393:./Libraries/STM32F4xx_HAL_Driver/Src/stm32f4xx_hal_smartcard.c ****        (++) Non Blocking mode: The communication is performed using Interrupts 
 394:./Libraries/STM32F4xx_HAL_Driver/Src/stm32f4xx_hal_smartcard.c ****            or DMA, These APIs return the HAL status.
 395:./Libraries/STM32F4xx_HAL_Driver/Src/stm32f4xx_hal_smartcard.c ****            The end of the data processing will be indicated through the 
 396:./Libraries/STM32F4xx_HAL_Driver/Src/stm32f4xx_hal_smartcard.c ****            dedicated SMARTCARD IRQ when using Interrupt mode or the DMA IRQ when 
 397:./Libraries/STM32F4xx_HAL_Driver/Src/stm32f4xx_hal_smartcard.c ****            using DMA mode.
 398:./Libraries/STM32F4xx_HAL_Driver/Src/stm32f4xx_hal_smartcard.c ****            The HAL_SMARTCARD_TxCpltCallback(), HAL_SMARTCARD_RxCpltCallback() user callbacks 
 399:./Libraries/STM32F4xx_HAL_Driver/Src/stm32f4xx_hal_smartcard.c ****            will be executed respectively at the end of the Transmit or Receive process
 400:./Libraries/STM32F4xx_HAL_Driver/Src/stm32f4xx_hal_smartcard.c ****            The HAL_SMARTCARD_ErrorCallback() user callback will be executed when a communication er
 401:./Libraries/STM32F4xx_HAL_Driver/Src/stm32f4xx_hal_smartcard.c **** 
 402:./Libraries/STM32F4xx_HAL_Driver/Src/stm32f4xx_hal_smartcard.c ****     (#) Blocking mode APIs are :
 403:./Libraries/STM32F4xx_HAL_Driver/Src/stm32f4xx_hal_smartcard.c ****         (++) HAL_SMARTCARD_Transmit()
 404:./Libraries/STM32F4xx_HAL_Driver/Src/stm32f4xx_hal_smartcard.c ****         (++) HAL_SMARTCARD_Receive() 
 405:./Libraries/STM32F4xx_HAL_Driver/Src/stm32f4xx_hal_smartcard.c **** 
 406:./Libraries/STM32F4xx_HAL_Driver/Src/stm32f4xx_hal_smartcard.c ****     (#) Non Blocking mode APIs with Interrupt are :
 407:./Libraries/STM32F4xx_HAL_Driver/Src/stm32f4xx_hal_smartcard.c ****         (++) HAL_SMARTCARD_Transmit_IT()
 408:./Libraries/STM32F4xx_HAL_Driver/Src/stm32f4xx_hal_smartcard.c ****         (++) HAL_SMARTCARD_Receive_IT()
 409:./Libraries/STM32F4xx_HAL_Driver/Src/stm32f4xx_hal_smartcard.c ****         (++) HAL_SMARTCARD_IRQHandler()
 410:./Libraries/STM32F4xx_HAL_Driver/Src/stm32f4xx_hal_smartcard.c **** 
 411:./Libraries/STM32F4xx_HAL_Driver/Src/stm32f4xx_hal_smartcard.c ****     (#) Non Blocking mode functions with DMA are :
 412:./Libraries/STM32F4xx_HAL_Driver/Src/stm32f4xx_hal_smartcard.c ****         (++) HAL_SMARTCARD_Transmit_DMA()
 413:./Libraries/STM32F4xx_HAL_Driver/Src/stm32f4xx_hal_smartcard.c ****         (++) HAL_SMARTCARD_Receive_DMA()
 414:./Libraries/STM32F4xx_HAL_Driver/Src/stm32f4xx_hal_smartcard.c **** 
 415:./Libraries/STM32F4xx_HAL_Driver/Src/stm32f4xx_hal_smartcard.c ****     (#) A set of Transfer Complete Callbacks are provided in non Blocking mode:
 416:./Libraries/STM32F4xx_HAL_Driver/Src/stm32f4xx_hal_smartcard.c ****         (++) HAL_SMARTCARD_TxCpltCallback()
 417:./Libraries/STM32F4xx_HAL_Driver/Src/stm32f4xx_hal_smartcard.c ****         (++) HAL_SMARTCARD_RxCpltCallback()
 418:./Libraries/STM32F4xx_HAL_Driver/Src/stm32f4xx_hal_smartcard.c ****         (++) HAL_SMARTCARD_ErrorCallback()
 419:./Libraries/STM32F4xx_HAL_Driver/Src/stm32f4xx_hal_smartcard.c **** 
 420:./Libraries/STM32F4xx_HAL_Driver/Src/stm32f4xx_hal_smartcard.c **** @endverbatim
 421:./Libraries/STM32F4xx_HAL_Driver/Src/stm32f4xx_hal_smartcard.c ****   * @{
 422:./Libraries/STM32F4xx_HAL_Driver/Src/stm32f4xx_hal_smartcard.c ****   */
 423:./Libraries/STM32F4xx_HAL_Driver/Src/stm32f4xx_hal_smartcard.c **** 
 424:./Libraries/STM32F4xx_HAL_Driver/Src/stm32f4xx_hal_smartcard.c **** /**
 425:./Libraries/STM32F4xx_HAL_Driver/Src/stm32f4xx_hal_smartcard.c ****   * @brief Send an amount of data in blocking mode 
 426:./Libraries/STM32F4xx_HAL_Driver/Src/stm32f4xx_hal_smartcard.c ****   * @param  hsc pointer to a SMARTCARD_HandleTypeDef structure that contains
 427:./Libraries/STM32F4xx_HAL_Driver/Src/stm32f4xx_hal_smartcard.c ****   *                the configuration information for SMARTCARD module.
 428:./Libraries/STM32F4xx_HAL_Driver/Src/stm32f4xx_hal_smartcard.c ****   * @param pData pointer to data buffer
 429:./Libraries/STM32F4xx_HAL_Driver/Src/stm32f4xx_hal_smartcard.c ****   * @param Size amount of data to be sent
 430:./Libraries/STM32F4xx_HAL_Driver/Src/stm32f4xx_hal_smartcard.c ****   * @param Timeout Timeout duration 
 431:./Libraries/STM32F4xx_HAL_Driver/Src/stm32f4xx_hal_smartcard.c ****   * @retval HAL status
 432:./Libraries/STM32F4xx_HAL_Driver/Src/stm32f4xx_hal_smartcard.c ****   */
 433:./Libraries/STM32F4xx_HAL_Driver/Src/stm32f4xx_hal_smartcard.c **** HAL_StatusTypeDef HAL_SMARTCARD_Transmit(SMARTCARD_HandleTypeDef *hsc, uint8_t *pData, uint16_t Siz
 434:./Libraries/STM32F4xx_HAL_Driver/Src/stm32f4xx_hal_smartcard.c **** {
 365              		.loc 1 434 1
 366              		.cfi_startproc
 367              		@ args = 0, pretend = 0, frame = 24
 368              		@ frame_needed = 1, uses_anonymous_args = 0
 369 0000 80B5     		push	{r7, lr}
 370              	.LCFI22:
 371              		.cfi_def_cfa_offset 8
 372              		.cfi_offset 7, -8
 373              		.cfi_offset 14, -4
ARM GAS  /tmp/cc5Yvz5O.s 			page 15


 374 0002 88B0     		sub	sp, sp, #32
 375              	.LCFI23:
 376              		.cfi_def_cfa_offset 40
 377 0004 02AF     		add	r7, sp, #8
 378              	.LCFI24:
 379              		.cfi_def_cfa 7, 32
 380 0006 F860     		str	r0, [r7, #12]
 381 0008 B960     		str	r1, [r7, #8]
 382 000a 3B60     		str	r3, [r7]
 383 000c 1346     		mov	r3, r2	@ movhi
 384 000e FB80     		strh	r3, [r7, #6]	@ movhi
 435:./Libraries/STM32F4xx_HAL_Driver/Src/stm32f4xx_hal_smartcard.c ****   uint16_t* tmp;
 436:./Libraries/STM32F4xx_HAL_Driver/Src/stm32f4xx_hal_smartcard.c ****   uint32_t tickstart = 0U;
 385              		.loc 1 436 12
 386 0010 0023     		movs	r3, #0
 387 0012 7B61     		str	r3, [r7, #20]
 437:./Libraries/STM32F4xx_HAL_Driver/Src/stm32f4xx_hal_smartcard.c ****   
 438:./Libraries/STM32F4xx_HAL_Driver/Src/stm32f4xx_hal_smartcard.c ****   if(hsc->gState == HAL_SMARTCARD_STATE_READY) 
 388              		.loc 1 438 9
 389 0014 FB68     		ldr	r3, [r7, #12]
 390 0016 93F84930 		ldrb	r3, [r3, #73]
 391 001a DBB2     		uxtb	r3, r3
 392              		.loc 1 438 5
 393 001c 202B     		cmp	r3, #32
 394 001e 60D1     		bne	.L11
 439:./Libraries/STM32F4xx_HAL_Driver/Src/stm32f4xx_hal_smartcard.c ****   {
 440:./Libraries/STM32F4xx_HAL_Driver/Src/stm32f4xx_hal_smartcard.c ****     if((pData == NULL) || (Size == 0)) 
 395              		.loc 1 440 7
 396 0020 BB68     		ldr	r3, [r7, #8]
 397 0022 002B     		cmp	r3, #0
 398 0024 02D0     		beq	.L12
 399              		.loc 1 440 24 discriminator 1
 400 0026 FB88     		ldrh	r3, [r7, #6]
 401 0028 002B     		cmp	r3, #0
 402 002a 01D1     		bne	.L13
 403              	.L12:
 441:./Libraries/STM32F4xx_HAL_Driver/Src/stm32f4xx_hal_smartcard.c ****     {
 442:./Libraries/STM32F4xx_HAL_Driver/Src/stm32f4xx_hal_smartcard.c ****       return  HAL_ERROR;
 404              		.loc 1 442 15
 405 002c 0123     		movs	r3, #1
 406 002e 59E0     		b	.L14
 407              	.L13:
 443:./Libraries/STM32F4xx_HAL_Driver/Src/stm32f4xx_hal_smartcard.c ****     }
 444:./Libraries/STM32F4xx_HAL_Driver/Src/stm32f4xx_hal_smartcard.c **** 
 445:./Libraries/STM32F4xx_HAL_Driver/Src/stm32f4xx_hal_smartcard.c ****     /* Process Locked */
 446:./Libraries/STM32F4xx_HAL_Driver/Src/stm32f4xx_hal_smartcard.c ****     __HAL_LOCK(hsc);
 408              		.loc 1 446 5
 409 0030 FB68     		ldr	r3, [r7, #12]
 410 0032 93F84830 		ldrb	r3, [r3, #72]	@ zero_extendqisi2
 411 0036 012B     		cmp	r3, #1
 412 0038 01D1     		bne	.L15
 413              		.loc 1 446 5 is_stmt 0 discriminator 1
 414 003a 0223     		movs	r3, #2
 415 003c 52E0     		b	.L14
 416              	.L15:
 417              		.loc 1 446 5 discriminator 2
 418 003e FB68     		ldr	r3, [r7, #12]
ARM GAS  /tmp/cc5Yvz5O.s 			page 16


 419 0040 0122     		movs	r2, #1
 420 0042 83F84820 		strb	r2, [r3, #72]
 447:./Libraries/STM32F4xx_HAL_Driver/Src/stm32f4xx_hal_smartcard.c **** 
 448:./Libraries/STM32F4xx_HAL_Driver/Src/stm32f4xx_hal_smartcard.c ****     hsc->ErrorCode = HAL_SMARTCARD_ERROR_NONE;
 421              		.loc 1 448 20 is_stmt 1 discriminator 2
 422 0046 FB68     		ldr	r3, [r7, #12]
 423 0048 0022     		movs	r2, #0
 424 004a DA64     		str	r2, [r3, #76]
 449:./Libraries/STM32F4xx_HAL_Driver/Src/stm32f4xx_hal_smartcard.c ****     hsc->gState = HAL_SMARTCARD_STATE_BUSY_TX;
 425              		.loc 1 449 17 discriminator 2
 426 004c FB68     		ldr	r3, [r7, #12]
 427 004e 2122     		movs	r2, #33
 428 0050 83F84920 		strb	r2, [r3, #73]
 450:./Libraries/STM32F4xx_HAL_Driver/Src/stm32f4xx_hal_smartcard.c ****        
 451:./Libraries/STM32F4xx_HAL_Driver/Src/stm32f4xx_hal_smartcard.c ****     /* Init tickstart for timeout managment */ 
 452:./Libraries/STM32F4xx_HAL_Driver/Src/stm32f4xx_hal_smartcard.c ****     tickstart = HAL_GetTick();
 429              		.loc 1 452 17 discriminator 2
 430 0054 FFF7FEFF 		bl	HAL_GetTick
 431 0058 7861     		str	r0, [r7, #20]
 453:./Libraries/STM32F4xx_HAL_Driver/Src/stm32f4xx_hal_smartcard.c ****     
 454:./Libraries/STM32F4xx_HAL_Driver/Src/stm32f4xx_hal_smartcard.c ****     hsc->TxXferSize = Size;
 432              		.loc 1 454 21 discriminator 2
 433 005a FB68     		ldr	r3, [r7, #12]
 434 005c FA88     		ldrh	r2, [r7, #6]	@ movhi
 435 005e 9A86     		strh	r2, [r3, #52]	@ movhi
 455:./Libraries/STM32F4xx_HAL_Driver/Src/stm32f4xx_hal_smartcard.c ****     hsc->TxXferCount = Size;
 436              		.loc 1 455 22 discriminator 2
 437 0060 FB68     		ldr	r3, [r7, #12]
 438 0062 FA88     		ldrh	r2, [r7, #6]	@ movhi
 439 0064 DA86     		strh	r2, [r3, #54]	@ movhi
 456:./Libraries/STM32F4xx_HAL_Driver/Src/stm32f4xx_hal_smartcard.c ****     while(hsc->TxXferCount > 0U)
 440              		.loc 1 456 10 discriminator 2
 441 0066 20E0     		b	.L16
 442              	.L18:
 457:./Libraries/STM32F4xx_HAL_Driver/Src/stm32f4xx_hal_smartcard.c ****     {
 458:./Libraries/STM32F4xx_HAL_Driver/Src/stm32f4xx_hal_smartcard.c ****       hsc->TxXferCount--;
 443              		.loc 1 458 10
 444 0068 FB68     		ldr	r3, [r7, #12]
 445 006a DB8E     		ldrh	r3, [r3, #54]	@ movhi
 446 006c 9BB2     		uxth	r3, r3
 447              		.loc 1 458 23
 448 006e 013B     		subs	r3, r3, #1
 449 0070 9AB2     		uxth	r2, r3
 450 0072 FB68     		ldr	r3, [r7, #12]
 451 0074 DA86     		strh	r2, [r3, #54]	@ movhi
 459:./Libraries/STM32F4xx_HAL_Driver/Src/stm32f4xx_hal_smartcard.c ****       if(SMARTCARD_WaitOnFlagUntilTimeout(hsc, SMARTCARD_FLAG_TXE, RESET, tickstart, Timeout) != HA
 452              		.loc 1 459 10
 453 0076 3B68     		ldr	r3, [r7]
 454 0078 0093     		str	r3, [sp]
 455 007a 7B69     		ldr	r3, [r7, #20]
 456 007c 0022     		movs	r2, #0
 457 007e 8021     		movs	r1, #128
 458 0080 F868     		ldr	r0, [r7, #12]
 459 0082 FFF7FEFF 		bl	SMARTCARD_WaitOnFlagUntilTimeout
 460 0086 0346     		mov	r3, r0
 461              		.loc 1 459 9
 462 0088 002B     		cmp	r3, #0
ARM GAS  /tmp/cc5Yvz5O.s 			page 17


 463 008a 01D0     		beq	.L17
 460:./Libraries/STM32F4xx_HAL_Driver/Src/stm32f4xx_hal_smartcard.c ****       {
 461:./Libraries/STM32F4xx_HAL_Driver/Src/stm32f4xx_hal_smartcard.c ****         return HAL_TIMEOUT;
 464              		.loc 1 461 16
 465 008c 0323     		movs	r3, #3
 466 008e 29E0     		b	.L14
 467              	.L17:
 462:./Libraries/STM32F4xx_HAL_Driver/Src/stm32f4xx_hal_smartcard.c ****       }
 463:./Libraries/STM32F4xx_HAL_Driver/Src/stm32f4xx_hal_smartcard.c ****       tmp = (uint16_t*) pData;
 468              		.loc 1 463 11
 469 0090 BB68     		ldr	r3, [r7, #8]
 470 0092 3B61     		str	r3, [r7, #16]
 464:./Libraries/STM32F4xx_HAL_Driver/Src/stm32f4xx_hal_smartcard.c ****       hsc->Instance->DR = (*tmp & (uint16_t)0x01FF);
 471              		.loc 1 464 28
 472 0094 3B69     		ldr	r3, [r7, #16]
 473 0096 1B88     		ldrh	r3, [r3]
 474              		.loc 1 464 33
 475 0098 1A46     		mov	r2, r3
 476              		.loc 1 464 10
 477 009a FB68     		ldr	r3, [r7, #12]
 478 009c 1B68     		ldr	r3, [r3]
 479              		.loc 1 464 33
 480 009e C2F30802 		ubfx	r2, r2, #0, #9
 481              		.loc 1 464 25
 482 00a2 5A60     		str	r2, [r3, #4]
 465:./Libraries/STM32F4xx_HAL_Driver/Src/stm32f4xx_hal_smartcard.c ****       pData +=1U;
 483              		.loc 1 465 13
 484 00a4 BB68     		ldr	r3, [r7, #8]
 485 00a6 0133     		adds	r3, r3, #1
 486 00a8 BB60     		str	r3, [r7, #8]
 487              	.L16:
 456:./Libraries/STM32F4xx_HAL_Driver/Src/stm32f4xx_hal_smartcard.c ****     {
 488              		.loc 1 456 14
 489 00aa FB68     		ldr	r3, [r7, #12]
 490 00ac DB8E     		ldrh	r3, [r3, #54]	@ movhi
 491 00ae 9BB2     		uxth	r3, r3
 456:./Libraries/STM32F4xx_HAL_Driver/Src/stm32f4xx_hal_smartcard.c ****     {
 492              		.loc 1 456 10
 493 00b0 002B     		cmp	r3, #0
 494 00b2 D9D1     		bne	.L18
 466:./Libraries/STM32F4xx_HAL_Driver/Src/stm32f4xx_hal_smartcard.c ****     }
 467:./Libraries/STM32F4xx_HAL_Driver/Src/stm32f4xx_hal_smartcard.c ****     
 468:./Libraries/STM32F4xx_HAL_Driver/Src/stm32f4xx_hal_smartcard.c ****     if(SMARTCARD_WaitOnFlagUntilTimeout(hsc, SMARTCARD_FLAG_TC, RESET, tickstart, Timeout) != HAL_O
 495              		.loc 1 468 8
 496 00b4 3B68     		ldr	r3, [r7]
 497 00b6 0093     		str	r3, [sp]
 498 00b8 7B69     		ldr	r3, [r7, #20]
 499 00ba 0022     		movs	r2, #0
 500 00bc 4021     		movs	r1, #64
 501 00be F868     		ldr	r0, [r7, #12]
 502 00c0 FFF7FEFF 		bl	SMARTCARD_WaitOnFlagUntilTimeout
 503 00c4 0346     		mov	r3, r0
 504              		.loc 1 468 7
 505 00c6 002B     		cmp	r3, #0
 506 00c8 01D0     		beq	.L19
 469:./Libraries/STM32F4xx_HAL_Driver/Src/stm32f4xx_hal_smartcard.c ****     {
 470:./Libraries/STM32F4xx_HAL_Driver/Src/stm32f4xx_hal_smartcard.c ****       return HAL_TIMEOUT;
ARM GAS  /tmp/cc5Yvz5O.s 			page 18


 507              		.loc 1 470 14
 508 00ca 0323     		movs	r3, #3
 509 00cc 0AE0     		b	.L14
 510              	.L19:
 471:./Libraries/STM32F4xx_HAL_Driver/Src/stm32f4xx_hal_smartcard.c ****     }
 472:./Libraries/STM32F4xx_HAL_Driver/Src/stm32f4xx_hal_smartcard.c **** 
 473:./Libraries/STM32F4xx_HAL_Driver/Src/stm32f4xx_hal_smartcard.c **** 	/* At end of Tx process, restore hsc->gState to Ready */
 474:./Libraries/STM32F4xx_HAL_Driver/Src/stm32f4xx_hal_smartcard.c ****     hsc->gState = HAL_SMARTCARD_STATE_READY;
 511              		.loc 1 474 17
 512 00ce FB68     		ldr	r3, [r7, #12]
 513 00d0 2022     		movs	r2, #32
 514 00d2 83F84920 		strb	r2, [r3, #73]
 475:./Libraries/STM32F4xx_HAL_Driver/Src/stm32f4xx_hal_smartcard.c ****     
 476:./Libraries/STM32F4xx_HAL_Driver/Src/stm32f4xx_hal_smartcard.c ****     /* Process Unlocked */
 477:./Libraries/STM32F4xx_HAL_Driver/Src/stm32f4xx_hal_smartcard.c ****     __HAL_UNLOCK(hsc);
 515              		.loc 1 477 5
 516 00d6 FB68     		ldr	r3, [r7, #12]
 517 00d8 0022     		movs	r2, #0
 518 00da 83F84820 		strb	r2, [r3, #72]
 478:./Libraries/STM32F4xx_HAL_Driver/Src/stm32f4xx_hal_smartcard.c **** 
 479:./Libraries/STM32F4xx_HAL_Driver/Src/stm32f4xx_hal_smartcard.c ****     return HAL_OK;
 519              		.loc 1 479 12
 520 00de 0023     		movs	r3, #0
 521 00e0 00E0     		b	.L14
 522              	.L11:
 480:./Libraries/STM32F4xx_HAL_Driver/Src/stm32f4xx_hal_smartcard.c ****   }
 481:./Libraries/STM32F4xx_HAL_Driver/Src/stm32f4xx_hal_smartcard.c ****   else
 482:./Libraries/STM32F4xx_HAL_Driver/Src/stm32f4xx_hal_smartcard.c ****   {
 483:./Libraries/STM32F4xx_HAL_Driver/Src/stm32f4xx_hal_smartcard.c ****     return HAL_BUSY;
 523              		.loc 1 483 12
 524 00e2 0223     		movs	r3, #2
 525              	.L14:
 484:./Libraries/STM32F4xx_HAL_Driver/Src/stm32f4xx_hal_smartcard.c ****   }
 485:./Libraries/STM32F4xx_HAL_Driver/Src/stm32f4xx_hal_smartcard.c **** }
 526              		.loc 1 485 1
 527 00e4 1846     		mov	r0, r3
 528 00e6 1837     		adds	r7, r7, #24
 529              	.LCFI25:
 530              		.cfi_def_cfa_offset 8
 531 00e8 BD46     		mov	sp, r7
 532              	.LCFI26:
 533              		.cfi_def_cfa_register 13
 534              		@ sp needed
 535 00ea 80BD     		pop	{r7, pc}
 536              		.cfi_endproc
 537              	.LFE130:
 539              		.section	.text.HAL_SMARTCARD_Receive,"ax",%progbits
 540              		.align	1
 541              		.global	HAL_SMARTCARD_Receive
 542              		.syntax unified
 543              		.thumb
 544              		.thumb_func
 545              		.fpu fpv4-sp-d16
 547              	HAL_SMARTCARD_Receive:
 548              	.LFB131:
 486:./Libraries/STM32F4xx_HAL_Driver/Src/stm32f4xx_hal_smartcard.c **** 
 487:./Libraries/STM32F4xx_HAL_Driver/Src/stm32f4xx_hal_smartcard.c **** /**
ARM GAS  /tmp/cc5Yvz5O.s 			page 19


 488:./Libraries/STM32F4xx_HAL_Driver/Src/stm32f4xx_hal_smartcard.c ****   * @brief Receive an amount of data in blocking mode 
 489:./Libraries/STM32F4xx_HAL_Driver/Src/stm32f4xx_hal_smartcard.c ****   * @param  hsc pointer to a SMARTCARD_HandleTypeDef structure that contains
 490:./Libraries/STM32F4xx_HAL_Driver/Src/stm32f4xx_hal_smartcard.c ****   *                the configuration information for SMARTCARD module.
 491:./Libraries/STM32F4xx_HAL_Driver/Src/stm32f4xx_hal_smartcard.c ****   * @param pData pointer to data buffer
 492:./Libraries/STM32F4xx_HAL_Driver/Src/stm32f4xx_hal_smartcard.c ****   * @param Size amount of data to be received
 493:./Libraries/STM32F4xx_HAL_Driver/Src/stm32f4xx_hal_smartcard.c ****   * @param Timeout Timeout duration   
 494:./Libraries/STM32F4xx_HAL_Driver/Src/stm32f4xx_hal_smartcard.c ****   * @retval HAL status
 495:./Libraries/STM32F4xx_HAL_Driver/Src/stm32f4xx_hal_smartcard.c ****   */
 496:./Libraries/STM32F4xx_HAL_Driver/Src/stm32f4xx_hal_smartcard.c **** HAL_StatusTypeDef HAL_SMARTCARD_Receive(SMARTCARD_HandleTypeDef *hsc, uint8_t *pData, uint16_t Size
 497:./Libraries/STM32F4xx_HAL_Driver/Src/stm32f4xx_hal_smartcard.c **** {
 549              		.loc 1 497 1
 550              		.cfi_startproc
 551              		@ args = 0, pretend = 0, frame = 24
 552              		@ frame_needed = 1, uses_anonymous_args = 0
 553 0000 80B5     		push	{r7, lr}
 554              	.LCFI27:
 555              		.cfi_def_cfa_offset 8
 556              		.cfi_offset 7, -8
 557              		.cfi_offset 14, -4
 558 0002 88B0     		sub	sp, sp, #32
 559              	.LCFI28:
 560              		.cfi_def_cfa_offset 40
 561 0004 02AF     		add	r7, sp, #8
 562              	.LCFI29:
 563              		.cfi_def_cfa 7, 32
 564 0006 F860     		str	r0, [r7, #12]
 565 0008 B960     		str	r1, [r7, #8]
 566 000a 3B60     		str	r3, [r7]
 567 000c 1346     		mov	r3, r2	@ movhi
 568 000e FB80     		strh	r3, [r7, #6]	@ movhi
 498:./Libraries/STM32F4xx_HAL_Driver/Src/stm32f4xx_hal_smartcard.c ****   uint16_t* tmp;
 499:./Libraries/STM32F4xx_HAL_Driver/Src/stm32f4xx_hal_smartcard.c ****   uint32_t tickstart = 0U;
 569              		.loc 1 499 12
 570 0010 0023     		movs	r3, #0
 571 0012 7B61     		str	r3, [r7, #20]
 500:./Libraries/STM32F4xx_HAL_Driver/Src/stm32f4xx_hal_smartcard.c ****   
 501:./Libraries/STM32F4xx_HAL_Driver/Src/stm32f4xx_hal_smartcard.c ****   if(hsc->RxState == HAL_SMARTCARD_STATE_READY) 
 572              		.loc 1 501 9
 573 0014 FB68     		ldr	r3, [r7, #12]
 574 0016 93F84A30 		ldrb	r3, [r3, #74]
 575 001a DBB2     		uxtb	r3, r3
 576              		.loc 1 501 5
 577 001c 202B     		cmp	r3, #32
 578 001e 52D1     		bne	.L21
 502:./Libraries/STM32F4xx_HAL_Driver/Src/stm32f4xx_hal_smartcard.c ****   {
 503:./Libraries/STM32F4xx_HAL_Driver/Src/stm32f4xx_hal_smartcard.c ****     if((pData == NULL) || (Size == 0)) 
 579              		.loc 1 503 7
 580 0020 BB68     		ldr	r3, [r7, #8]
 581 0022 002B     		cmp	r3, #0
 582 0024 02D0     		beq	.L22
 583              		.loc 1 503 24 discriminator 1
 584 0026 FB88     		ldrh	r3, [r7, #6]
 585 0028 002B     		cmp	r3, #0
 586 002a 01D1     		bne	.L23
 587              	.L22:
 504:./Libraries/STM32F4xx_HAL_Driver/Src/stm32f4xx_hal_smartcard.c ****     {
 505:./Libraries/STM32F4xx_HAL_Driver/Src/stm32f4xx_hal_smartcard.c ****       return  HAL_ERROR;
ARM GAS  /tmp/cc5Yvz5O.s 			page 20


 588              		.loc 1 505 15
 589 002c 0123     		movs	r3, #1
 590 002e 4BE0     		b	.L24
 591              	.L23:
 506:./Libraries/STM32F4xx_HAL_Driver/Src/stm32f4xx_hal_smartcard.c ****     }
 507:./Libraries/STM32F4xx_HAL_Driver/Src/stm32f4xx_hal_smartcard.c **** 
 508:./Libraries/STM32F4xx_HAL_Driver/Src/stm32f4xx_hal_smartcard.c ****     /* Process Locked */
 509:./Libraries/STM32F4xx_HAL_Driver/Src/stm32f4xx_hal_smartcard.c ****     __HAL_LOCK(hsc);
 592              		.loc 1 509 5
 593 0030 FB68     		ldr	r3, [r7, #12]
 594 0032 93F84830 		ldrb	r3, [r3, #72]	@ zero_extendqisi2
 595 0036 012B     		cmp	r3, #1
 596 0038 01D1     		bne	.L25
 597              		.loc 1 509 5 is_stmt 0 discriminator 1
 598 003a 0223     		movs	r3, #2
 599 003c 44E0     		b	.L24
 600              	.L25:
 601              		.loc 1 509 5 discriminator 2
 602 003e FB68     		ldr	r3, [r7, #12]
 603 0040 0122     		movs	r2, #1
 604 0042 83F84820 		strb	r2, [r3, #72]
 510:./Libraries/STM32F4xx_HAL_Driver/Src/stm32f4xx_hal_smartcard.c ****     
 511:./Libraries/STM32F4xx_HAL_Driver/Src/stm32f4xx_hal_smartcard.c ****     hsc->ErrorCode = HAL_SMARTCARD_ERROR_NONE;
 605              		.loc 1 511 20 is_stmt 1 discriminator 2
 606 0046 FB68     		ldr	r3, [r7, #12]
 607 0048 0022     		movs	r2, #0
 608 004a DA64     		str	r2, [r3, #76]
 512:./Libraries/STM32F4xx_HAL_Driver/Src/stm32f4xx_hal_smartcard.c ****     hsc->RxState = HAL_SMARTCARD_STATE_BUSY_RX;
 609              		.loc 1 512 18 discriminator 2
 610 004c FB68     		ldr	r3, [r7, #12]
 611 004e 2222     		movs	r2, #34
 612 0050 83F84A20 		strb	r2, [r3, #74]
 513:./Libraries/STM32F4xx_HAL_Driver/Src/stm32f4xx_hal_smartcard.c ****     
 514:./Libraries/STM32F4xx_HAL_Driver/Src/stm32f4xx_hal_smartcard.c ****     /* Init tickstart for timeout managment */ 
 515:./Libraries/STM32F4xx_HAL_Driver/Src/stm32f4xx_hal_smartcard.c ****     tickstart = HAL_GetTick();
 613              		.loc 1 515 17 discriminator 2
 614 0054 FFF7FEFF 		bl	HAL_GetTick
 615 0058 7861     		str	r0, [r7, #20]
 516:./Libraries/STM32F4xx_HAL_Driver/Src/stm32f4xx_hal_smartcard.c ****   
 517:./Libraries/STM32F4xx_HAL_Driver/Src/stm32f4xx_hal_smartcard.c ****     hsc->RxXferSize = Size;
 616              		.loc 1 517 21 discriminator 2
 617 005a FB68     		ldr	r3, [r7, #12]
 618 005c FA88     		ldrh	r2, [r7, #6]	@ movhi
 619 005e 9A87     		strh	r2, [r3, #60]	@ movhi
 518:./Libraries/STM32F4xx_HAL_Driver/Src/stm32f4xx_hal_smartcard.c ****     hsc->RxXferCount = Size;
 620              		.loc 1 518 22 discriminator 2
 621 0060 FB68     		ldr	r3, [r7, #12]
 622 0062 FA88     		ldrh	r2, [r7, #6]	@ movhi
 623 0064 DA87     		strh	r2, [r3, #62]	@ movhi
 519:./Libraries/STM32F4xx_HAL_Driver/Src/stm32f4xx_hal_smartcard.c **** 
 520:./Libraries/STM32F4xx_HAL_Driver/Src/stm32f4xx_hal_smartcard.c ****     /* Check the remain data to be received */
 521:./Libraries/STM32F4xx_HAL_Driver/Src/stm32f4xx_hal_smartcard.c ****     while(hsc->RxXferCount > 0U)
 624              		.loc 1 521 10 discriminator 2
 625 0066 1FE0     		b	.L26
 626              	.L28:
 522:./Libraries/STM32F4xx_HAL_Driver/Src/stm32f4xx_hal_smartcard.c ****     {
 523:./Libraries/STM32F4xx_HAL_Driver/Src/stm32f4xx_hal_smartcard.c ****       hsc->RxXferCount--;
ARM GAS  /tmp/cc5Yvz5O.s 			page 21


 627              		.loc 1 523 10
 628 0068 FB68     		ldr	r3, [r7, #12]
 629 006a DB8F     		ldrh	r3, [r3, #62]	@ movhi
 630 006c 9BB2     		uxth	r3, r3
 631              		.loc 1 523 23
 632 006e 013B     		subs	r3, r3, #1
 633 0070 9AB2     		uxth	r2, r3
 634 0072 FB68     		ldr	r3, [r7, #12]
 635 0074 DA87     		strh	r2, [r3, #62]	@ movhi
 524:./Libraries/STM32F4xx_HAL_Driver/Src/stm32f4xx_hal_smartcard.c ****       if(SMARTCARD_WaitOnFlagUntilTimeout(hsc, SMARTCARD_FLAG_RXNE, RESET, tickstart, Timeout) != H
 636              		.loc 1 524 10
 637 0076 3B68     		ldr	r3, [r7]
 638 0078 0093     		str	r3, [sp]
 639 007a 7B69     		ldr	r3, [r7, #20]
 640 007c 0022     		movs	r2, #0
 641 007e 2021     		movs	r1, #32
 642 0080 F868     		ldr	r0, [r7, #12]
 643 0082 FFF7FEFF 		bl	SMARTCARD_WaitOnFlagUntilTimeout
 644 0086 0346     		mov	r3, r0
 645              		.loc 1 524 9
 646 0088 002B     		cmp	r3, #0
 647 008a 01D0     		beq	.L27
 525:./Libraries/STM32F4xx_HAL_Driver/Src/stm32f4xx_hal_smartcard.c ****       {
 526:./Libraries/STM32F4xx_HAL_Driver/Src/stm32f4xx_hal_smartcard.c ****         return HAL_TIMEOUT;
 648              		.loc 1 526 16
 649 008c 0323     		movs	r3, #3
 650 008e 1BE0     		b	.L24
 651              	.L27:
 527:./Libraries/STM32F4xx_HAL_Driver/Src/stm32f4xx_hal_smartcard.c ****       }
 528:./Libraries/STM32F4xx_HAL_Driver/Src/stm32f4xx_hal_smartcard.c ****       tmp = (uint16_t*) pData;
 652              		.loc 1 528 11
 653 0090 BB68     		ldr	r3, [r7, #8]
 654 0092 3B61     		str	r3, [r7, #16]
 529:./Libraries/STM32F4xx_HAL_Driver/Src/stm32f4xx_hal_smartcard.c ****       *tmp = (uint8_t)(hsc->Instance->DR & (uint8_t)0xFF);
 655              		.loc 1 529 27
 656 0094 FB68     		ldr	r3, [r7, #12]
 657 0096 1B68     		ldr	r3, [r3]
 658              		.loc 1 529 37
 659 0098 5B68     		ldr	r3, [r3, #4]
 660              		.loc 1 529 14
 661 009a DBB2     		uxtb	r3, r3
 662 009c 9AB2     		uxth	r2, r3
 663              		.loc 1 529 12
 664 009e 3B69     		ldr	r3, [r7, #16]
 665 00a0 1A80     		strh	r2, [r3]	@ movhi
 530:./Libraries/STM32F4xx_HAL_Driver/Src/stm32f4xx_hal_smartcard.c ****       pData +=1U;
 666              		.loc 1 530 13
 667 00a2 BB68     		ldr	r3, [r7, #8]
 668 00a4 0133     		adds	r3, r3, #1
 669 00a6 BB60     		str	r3, [r7, #8]
 670              	.L26:
 521:./Libraries/STM32F4xx_HAL_Driver/Src/stm32f4xx_hal_smartcard.c ****     {
 671              		.loc 1 521 14
 672 00a8 FB68     		ldr	r3, [r7, #12]
 673 00aa DB8F     		ldrh	r3, [r3, #62]	@ movhi
 674 00ac 9BB2     		uxth	r3, r3
 521:./Libraries/STM32F4xx_HAL_Driver/Src/stm32f4xx_hal_smartcard.c ****     {
ARM GAS  /tmp/cc5Yvz5O.s 			page 22


 675              		.loc 1 521 10
 676 00ae 002B     		cmp	r3, #0
 677 00b0 DAD1     		bne	.L28
 531:./Libraries/STM32F4xx_HAL_Driver/Src/stm32f4xx_hal_smartcard.c ****     }
 532:./Libraries/STM32F4xx_HAL_Driver/Src/stm32f4xx_hal_smartcard.c **** 
 533:./Libraries/STM32F4xx_HAL_Driver/Src/stm32f4xx_hal_smartcard.c ****     /* At end of Rx process, restore hsc->RxState to Ready */
 534:./Libraries/STM32F4xx_HAL_Driver/Src/stm32f4xx_hal_smartcard.c ****     hsc->RxState = HAL_SMARTCARD_STATE_READY;
 678              		.loc 1 534 18
 679 00b2 FB68     		ldr	r3, [r7, #12]
 680 00b4 2022     		movs	r2, #32
 681 00b6 83F84A20 		strb	r2, [r3, #74]
 535:./Libraries/STM32F4xx_HAL_Driver/Src/stm32f4xx_hal_smartcard.c ****     
 536:./Libraries/STM32F4xx_HAL_Driver/Src/stm32f4xx_hal_smartcard.c ****     /* Process Unlocked */
 537:./Libraries/STM32F4xx_HAL_Driver/Src/stm32f4xx_hal_smartcard.c ****     __HAL_UNLOCK(hsc);
 682              		.loc 1 537 5
 683 00ba FB68     		ldr	r3, [r7, #12]
 684 00bc 0022     		movs	r2, #0
 685 00be 83F84820 		strb	r2, [r3, #72]
 538:./Libraries/STM32F4xx_HAL_Driver/Src/stm32f4xx_hal_smartcard.c **** 
 539:./Libraries/STM32F4xx_HAL_Driver/Src/stm32f4xx_hal_smartcard.c ****     return HAL_OK;
 686              		.loc 1 539 12
 687 00c2 0023     		movs	r3, #0
 688 00c4 00E0     		b	.L24
 689              	.L21:
 540:./Libraries/STM32F4xx_HAL_Driver/Src/stm32f4xx_hal_smartcard.c ****   }
 541:./Libraries/STM32F4xx_HAL_Driver/Src/stm32f4xx_hal_smartcard.c ****   else
 542:./Libraries/STM32F4xx_HAL_Driver/Src/stm32f4xx_hal_smartcard.c ****   {
 543:./Libraries/STM32F4xx_HAL_Driver/Src/stm32f4xx_hal_smartcard.c ****     return HAL_BUSY;
 690              		.loc 1 543 12
 691 00c6 0223     		movs	r3, #2
 692              	.L24:
 544:./Libraries/STM32F4xx_HAL_Driver/Src/stm32f4xx_hal_smartcard.c ****   }
 545:./Libraries/STM32F4xx_HAL_Driver/Src/stm32f4xx_hal_smartcard.c **** }
 693              		.loc 1 545 1
 694 00c8 1846     		mov	r0, r3
 695 00ca 1837     		adds	r7, r7, #24
 696              	.LCFI30:
 697              		.cfi_def_cfa_offset 8
 698 00cc BD46     		mov	sp, r7
 699              	.LCFI31:
 700              		.cfi_def_cfa_register 13
 701              		@ sp needed
 702 00ce 80BD     		pop	{r7, pc}
 703              		.cfi_endproc
 704              	.LFE131:
 706              		.section	.text.HAL_SMARTCARD_Transmit_IT,"ax",%progbits
 707              		.align	1
 708              		.global	HAL_SMARTCARD_Transmit_IT
 709              		.syntax unified
 710              		.thumb
 711              		.thumb_func
 712              		.fpu fpv4-sp-d16
 714              	HAL_SMARTCARD_Transmit_IT:
 715              	.LFB132:
 546:./Libraries/STM32F4xx_HAL_Driver/Src/stm32f4xx_hal_smartcard.c **** 
 547:./Libraries/STM32F4xx_HAL_Driver/Src/stm32f4xx_hal_smartcard.c **** /**
 548:./Libraries/STM32F4xx_HAL_Driver/Src/stm32f4xx_hal_smartcard.c ****   * @brief Send an amount of data in non blocking mode 
ARM GAS  /tmp/cc5Yvz5O.s 			page 23


 549:./Libraries/STM32F4xx_HAL_Driver/Src/stm32f4xx_hal_smartcard.c ****   * @param  hsc pointer to a SMARTCARD_HandleTypeDef structure that contains
 550:./Libraries/STM32F4xx_HAL_Driver/Src/stm32f4xx_hal_smartcard.c ****   *                the configuration information for SMARTCARD module.
 551:./Libraries/STM32F4xx_HAL_Driver/Src/stm32f4xx_hal_smartcard.c ****   * @param pData pointer to data buffer
 552:./Libraries/STM32F4xx_HAL_Driver/Src/stm32f4xx_hal_smartcard.c ****   * @param Size amount of data to be sent
 553:./Libraries/STM32F4xx_HAL_Driver/Src/stm32f4xx_hal_smartcard.c ****   * @retval HAL status
 554:./Libraries/STM32F4xx_HAL_Driver/Src/stm32f4xx_hal_smartcard.c ****   */
 555:./Libraries/STM32F4xx_HAL_Driver/Src/stm32f4xx_hal_smartcard.c **** HAL_StatusTypeDef HAL_SMARTCARD_Transmit_IT(SMARTCARD_HandleTypeDef *hsc, uint8_t *pData, uint16_t 
 556:./Libraries/STM32F4xx_HAL_Driver/Src/stm32f4xx_hal_smartcard.c **** {
 716              		.loc 1 556 1
 717              		.cfi_startproc
 718              		@ args = 0, pretend = 0, frame = 16
 719              		@ frame_needed = 1, uses_anonymous_args = 0
 720              		@ link register save eliminated.
 721 0000 80B4     		push	{r7}
 722              	.LCFI32:
 723              		.cfi_def_cfa_offset 4
 724              		.cfi_offset 7, -4
 725 0002 85B0     		sub	sp, sp, #20
 726              	.LCFI33:
 727              		.cfi_def_cfa_offset 24
 728 0004 00AF     		add	r7, sp, #0
 729              	.LCFI34:
 730              		.cfi_def_cfa_register 7
 731 0006 F860     		str	r0, [r7, #12]
 732 0008 B960     		str	r1, [r7, #8]
 733 000a 1346     		mov	r3, r2
 734 000c FB80     		strh	r3, [r7, #6]	@ movhi
 557:./Libraries/STM32F4xx_HAL_Driver/Src/stm32f4xx_hal_smartcard.c ****   /* Check that a Tx process is not already ongoing */
 558:./Libraries/STM32F4xx_HAL_Driver/Src/stm32f4xx_hal_smartcard.c ****   if(hsc->gState == HAL_SMARTCARD_STATE_READY) 
 735              		.loc 1 558 9
 736 000e FB68     		ldr	r3, [r7, #12]
 737 0010 93F84930 		ldrb	r3, [r3, #73]
 738 0014 DBB2     		uxtb	r3, r3
 739              		.loc 1 558 5
 740 0016 202B     		cmp	r3, #32
 741 0018 40D1     		bne	.L30
 559:./Libraries/STM32F4xx_HAL_Driver/Src/stm32f4xx_hal_smartcard.c ****   {
 560:./Libraries/STM32F4xx_HAL_Driver/Src/stm32f4xx_hal_smartcard.c ****     if((pData == NULL) || (Size == 0)) 
 742              		.loc 1 560 7
 743 001a BB68     		ldr	r3, [r7, #8]
 744 001c 002B     		cmp	r3, #0
 745 001e 02D0     		beq	.L31
 746              		.loc 1 560 24 discriminator 1
 747 0020 FB88     		ldrh	r3, [r7, #6]
 748 0022 002B     		cmp	r3, #0
 749 0024 01D1     		bne	.L32
 750              	.L31:
 561:./Libraries/STM32F4xx_HAL_Driver/Src/stm32f4xx_hal_smartcard.c ****     {
 562:./Libraries/STM32F4xx_HAL_Driver/Src/stm32f4xx_hal_smartcard.c ****       return HAL_ERROR;
 751              		.loc 1 562 14
 752 0026 0123     		movs	r3, #1
 753 0028 39E0     		b	.L33
 754              	.L32:
 563:./Libraries/STM32F4xx_HAL_Driver/Src/stm32f4xx_hal_smartcard.c ****     }
 564:./Libraries/STM32F4xx_HAL_Driver/Src/stm32f4xx_hal_smartcard.c **** 
 565:./Libraries/STM32F4xx_HAL_Driver/Src/stm32f4xx_hal_smartcard.c ****     /* Process Locked */
 566:./Libraries/STM32F4xx_HAL_Driver/Src/stm32f4xx_hal_smartcard.c ****     __HAL_LOCK(hsc);
ARM GAS  /tmp/cc5Yvz5O.s 			page 24


 755              		.loc 1 566 5
 756 002a FB68     		ldr	r3, [r7, #12]
 757 002c 93F84830 		ldrb	r3, [r3, #72]	@ zero_extendqisi2
 758 0030 012B     		cmp	r3, #1
 759 0032 01D1     		bne	.L34
 760              		.loc 1 566 5 is_stmt 0 discriminator 1
 761 0034 0223     		movs	r3, #2
 762 0036 32E0     		b	.L33
 763              	.L34:
 764              		.loc 1 566 5 discriminator 2
 765 0038 FB68     		ldr	r3, [r7, #12]
 766 003a 0122     		movs	r2, #1
 767 003c 83F84820 		strb	r2, [r3, #72]
 567:./Libraries/STM32F4xx_HAL_Driver/Src/stm32f4xx_hal_smartcard.c **** 
 568:./Libraries/STM32F4xx_HAL_Driver/Src/stm32f4xx_hal_smartcard.c ****     hsc->pTxBuffPtr = pData;
 768              		.loc 1 568 21 is_stmt 1 discriminator 2
 769 0040 FB68     		ldr	r3, [r7, #12]
 770 0042 BA68     		ldr	r2, [r7, #8]
 771 0044 1A63     		str	r2, [r3, #48]
 569:./Libraries/STM32F4xx_HAL_Driver/Src/stm32f4xx_hal_smartcard.c ****     hsc->TxXferSize = Size;
 772              		.loc 1 569 21 discriminator 2
 773 0046 FB68     		ldr	r3, [r7, #12]
 774 0048 FA88     		ldrh	r2, [r7, #6]	@ movhi
 775 004a 9A86     		strh	r2, [r3, #52]	@ movhi
 570:./Libraries/STM32F4xx_HAL_Driver/Src/stm32f4xx_hal_smartcard.c ****     hsc->TxXferCount = Size;
 776              		.loc 1 570 22 discriminator 2
 777 004c FB68     		ldr	r3, [r7, #12]
 778 004e FA88     		ldrh	r2, [r7, #6]	@ movhi
 779 0050 DA86     		strh	r2, [r3, #54]	@ movhi
 571:./Libraries/STM32F4xx_HAL_Driver/Src/stm32f4xx_hal_smartcard.c **** 
 572:./Libraries/STM32F4xx_HAL_Driver/Src/stm32f4xx_hal_smartcard.c ****     hsc->ErrorCode = HAL_SMARTCARD_ERROR_NONE;
 780              		.loc 1 572 20 discriminator 2
 781 0052 FB68     		ldr	r3, [r7, #12]
 782 0054 0022     		movs	r2, #0
 783 0056 DA64     		str	r2, [r3, #76]
 573:./Libraries/STM32F4xx_HAL_Driver/Src/stm32f4xx_hal_smartcard.c ****     hsc->gState = HAL_SMARTCARD_STATE_BUSY_TX;
 784              		.loc 1 573 17 discriminator 2
 785 0058 FB68     		ldr	r3, [r7, #12]
 786 005a 2122     		movs	r2, #33
 787 005c 83F84920 		strb	r2, [r3, #73]
 574:./Libraries/STM32F4xx_HAL_Driver/Src/stm32f4xx_hal_smartcard.c ****     
 575:./Libraries/STM32F4xx_HAL_Driver/Src/stm32f4xx_hal_smartcard.c ****     /* Process Unlocked */
 576:./Libraries/STM32F4xx_HAL_Driver/Src/stm32f4xx_hal_smartcard.c ****     __HAL_UNLOCK(hsc);
 788              		.loc 1 576 5 discriminator 2
 789 0060 FB68     		ldr	r3, [r7, #12]
 790 0062 0022     		movs	r2, #0
 791 0064 83F84820 		strb	r2, [r3, #72]
 577:./Libraries/STM32F4xx_HAL_Driver/Src/stm32f4xx_hal_smartcard.c ****     
 578:./Libraries/STM32F4xx_HAL_Driver/Src/stm32f4xx_hal_smartcard.c ****     /* Enable the SMARTCARD Parity Error Interrupt */
 579:./Libraries/STM32F4xx_HAL_Driver/Src/stm32f4xx_hal_smartcard.c ****     SET_BIT(hsc->Instance->CR1, USART_CR1_PEIE);
 792              		.loc 1 579 5 discriminator 2
 793 0068 FB68     		ldr	r3, [r7, #12]
 794 006a 1B68     		ldr	r3, [r3]
 795 006c DA68     		ldr	r2, [r3, #12]
 796 006e FB68     		ldr	r3, [r7, #12]
 797 0070 1B68     		ldr	r3, [r3]
 798 0072 42F48072 		orr	r2, r2, #256
ARM GAS  /tmp/cc5Yvz5O.s 			page 25


 799 0076 DA60     		str	r2, [r3, #12]
 580:./Libraries/STM32F4xx_HAL_Driver/Src/stm32f4xx_hal_smartcard.c **** 
 581:./Libraries/STM32F4xx_HAL_Driver/Src/stm32f4xx_hal_smartcard.c ****     /* Disable the SMARTCARD Error Interrupt: (Frame error, noise error, overrun error) */
 582:./Libraries/STM32F4xx_HAL_Driver/Src/stm32f4xx_hal_smartcard.c ****     CLEAR_BIT(hsc->Instance->CR3, USART_CR3_EIE);
 800              		.loc 1 582 5 discriminator 2
 801 0078 FB68     		ldr	r3, [r7, #12]
 802 007a 1B68     		ldr	r3, [r3]
 803 007c 5A69     		ldr	r2, [r3, #20]
 804 007e FB68     		ldr	r3, [r7, #12]
 805 0080 1B68     		ldr	r3, [r3]
 806 0082 22F00102 		bic	r2, r2, #1
 807 0086 5A61     		str	r2, [r3, #20]
 583:./Libraries/STM32F4xx_HAL_Driver/Src/stm32f4xx_hal_smartcard.c **** 
 584:./Libraries/STM32F4xx_HAL_Driver/Src/stm32f4xx_hal_smartcard.c ****     /* Enable the SMARTCARD Transmit data register empty Interrupt */
 585:./Libraries/STM32F4xx_HAL_Driver/Src/stm32f4xx_hal_smartcard.c ****     SET_BIT(hsc->Instance->CR1, USART_CR1_TXEIE);
 808              		.loc 1 585 5 discriminator 2
 809 0088 FB68     		ldr	r3, [r7, #12]
 810 008a 1B68     		ldr	r3, [r3]
 811 008c DA68     		ldr	r2, [r3, #12]
 812 008e FB68     		ldr	r3, [r7, #12]
 813 0090 1B68     		ldr	r3, [r3]
 814 0092 42F08002 		orr	r2, r2, #128
 815 0096 DA60     		str	r2, [r3, #12]
 586:./Libraries/STM32F4xx_HAL_Driver/Src/stm32f4xx_hal_smartcard.c **** 
 587:./Libraries/STM32F4xx_HAL_Driver/Src/stm32f4xx_hal_smartcard.c ****     return HAL_OK;
 816              		.loc 1 587 12 discriminator 2
 817 0098 0023     		movs	r3, #0
 818 009a 00E0     		b	.L33
 819              	.L30:
 588:./Libraries/STM32F4xx_HAL_Driver/Src/stm32f4xx_hal_smartcard.c ****   }
 589:./Libraries/STM32F4xx_HAL_Driver/Src/stm32f4xx_hal_smartcard.c ****   else
 590:./Libraries/STM32F4xx_HAL_Driver/Src/stm32f4xx_hal_smartcard.c ****   {
 591:./Libraries/STM32F4xx_HAL_Driver/Src/stm32f4xx_hal_smartcard.c ****     return HAL_BUSY;
 820              		.loc 1 591 12
 821 009c 0223     		movs	r3, #2
 822              	.L33:
 592:./Libraries/STM32F4xx_HAL_Driver/Src/stm32f4xx_hal_smartcard.c ****   }
 593:./Libraries/STM32F4xx_HAL_Driver/Src/stm32f4xx_hal_smartcard.c **** }
 823              		.loc 1 593 1
 824 009e 1846     		mov	r0, r3
 825 00a0 1437     		adds	r7, r7, #20
 826              	.LCFI35:
 827              		.cfi_def_cfa_offset 4
 828 00a2 BD46     		mov	sp, r7
 829              	.LCFI36:
 830              		.cfi_def_cfa_register 13
 831              		@ sp needed
 832 00a4 5DF8047B 		ldr	r7, [sp], #4
 833              	.LCFI37:
 834              		.cfi_restore 7
 835              		.cfi_def_cfa_offset 0
 836 00a8 7047     		bx	lr
 837              		.cfi_endproc
 838              	.LFE132:
 840              		.section	.text.HAL_SMARTCARD_Receive_IT,"ax",%progbits
 841              		.align	1
 842              		.global	HAL_SMARTCARD_Receive_IT
ARM GAS  /tmp/cc5Yvz5O.s 			page 26


 843              		.syntax unified
 844              		.thumb
 845              		.thumb_func
 846              		.fpu fpv4-sp-d16
 848              	HAL_SMARTCARD_Receive_IT:
 849              	.LFB133:
 594:./Libraries/STM32F4xx_HAL_Driver/Src/stm32f4xx_hal_smartcard.c **** 
 595:./Libraries/STM32F4xx_HAL_Driver/Src/stm32f4xx_hal_smartcard.c **** /**
 596:./Libraries/STM32F4xx_HAL_Driver/Src/stm32f4xx_hal_smartcard.c ****   * @brief Receive an amount of data in non blocking mode 
 597:./Libraries/STM32F4xx_HAL_Driver/Src/stm32f4xx_hal_smartcard.c ****   * @param  hsc pointer to a SMARTCARD_HandleTypeDef structure that contains
 598:./Libraries/STM32F4xx_HAL_Driver/Src/stm32f4xx_hal_smartcard.c ****   *                the configuration information for SMARTCARD module.
 599:./Libraries/STM32F4xx_HAL_Driver/Src/stm32f4xx_hal_smartcard.c ****   * @param pData pointer to data buffer
 600:./Libraries/STM32F4xx_HAL_Driver/Src/stm32f4xx_hal_smartcard.c ****   * @param Size amount of data to be received
 601:./Libraries/STM32F4xx_HAL_Driver/Src/stm32f4xx_hal_smartcard.c ****   * @retval HAL status
 602:./Libraries/STM32F4xx_HAL_Driver/Src/stm32f4xx_hal_smartcard.c ****   */
 603:./Libraries/STM32F4xx_HAL_Driver/Src/stm32f4xx_hal_smartcard.c **** HAL_StatusTypeDef HAL_SMARTCARD_Receive_IT(SMARTCARD_HandleTypeDef *hsc, uint8_t *pData, uint16_t S
 604:./Libraries/STM32F4xx_HAL_Driver/Src/stm32f4xx_hal_smartcard.c **** {
 850              		.loc 1 604 1
 851              		.cfi_startproc
 852              		@ args = 0, pretend = 0, frame = 16
 853              		@ frame_needed = 1, uses_anonymous_args = 0
 854              		@ link register save eliminated.
 855 0000 80B4     		push	{r7}
 856              	.LCFI38:
 857              		.cfi_def_cfa_offset 4
 858              		.cfi_offset 7, -4
 859 0002 85B0     		sub	sp, sp, #20
 860              	.LCFI39:
 861              		.cfi_def_cfa_offset 24
 862 0004 00AF     		add	r7, sp, #0
 863              	.LCFI40:
 864              		.cfi_def_cfa_register 7
 865 0006 F860     		str	r0, [r7, #12]
 866 0008 B960     		str	r1, [r7, #8]
 867 000a 1346     		mov	r3, r2
 868 000c FB80     		strh	r3, [r7, #6]	@ movhi
 605:./Libraries/STM32F4xx_HAL_Driver/Src/stm32f4xx_hal_smartcard.c ****   /* Check that a Rx process is not already ongoing */ 
 606:./Libraries/STM32F4xx_HAL_Driver/Src/stm32f4xx_hal_smartcard.c ****   if(hsc->RxState == HAL_SMARTCARD_STATE_READY) 
 869              		.loc 1 606 9
 870 000e FB68     		ldr	r3, [r7, #12]
 871 0010 93F84A30 		ldrb	r3, [r3, #74]
 872 0014 DBB2     		uxtb	r3, r3
 873              		.loc 1 606 5
 874 0016 202B     		cmp	r3, #32
 875 0018 38D1     		bne	.L36
 607:./Libraries/STM32F4xx_HAL_Driver/Src/stm32f4xx_hal_smartcard.c ****   {
 608:./Libraries/STM32F4xx_HAL_Driver/Src/stm32f4xx_hal_smartcard.c ****     if((pData == NULL) || (Size == 0)) 
 876              		.loc 1 608 7
 877 001a BB68     		ldr	r3, [r7, #8]
 878 001c 002B     		cmp	r3, #0
 879 001e 02D0     		beq	.L37
 880              		.loc 1 608 24 discriminator 1
 881 0020 FB88     		ldrh	r3, [r7, #6]
 882 0022 002B     		cmp	r3, #0
 883 0024 01D1     		bne	.L38
 884              	.L37:
 609:./Libraries/STM32F4xx_HAL_Driver/Src/stm32f4xx_hal_smartcard.c ****     {
ARM GAS  /tmp/cc5Yvz5O.s 			page 27


 610:./Libraries/STM32F4xx_HAL_Driver/Src/stm32f4xx_hal_smartcard.c ****       return HAL_ERROR;
 885              		.loc 1 610 14
 886 0026 0123     		movs	r3, #1
 887 0028 31E0     		b	.L39
 888              	.L38:
 611:./Libraries/STM32F4xx_HAL_Driver/Src/stm32f4xx_hal_smartcard.c ****     }
 612:./Libraries/STM32F4xx_HAL_Driver/Src/stm32f4xx_hal_smartcard.c **** 
 613:./Libraries/STM32F4xx_HAL_Driver/Src/stm32f4xx_hal_smartcard.c ****     /* Process Locked */
 614:./Libraries/STM32F4xx_HAL_Driver/Src/stm32f4xx_hal_smartcard.c ****     __HAL_LOCK(hsc);
 889              		.loc 1 614 5
 890 002a FB68     		ldr	r3, [r7, #12]
 891 002c 93F84830 		ldrb	r3, [r3, #72]	@ zero_extendqisi2
 892 0030 012B     		cmp	r3, #1
 893 0032 01D1     		bne	.L40
 894              		.loc 1 614 5 is_stmt 0 discriminator 1
 895 0034 0223     		movs	r3, #2
 896 0036 2AE0     		b	.L39
 897              	.L40:
 898              		.loc 1 614 5 discriminator 2
 899 0038 FB68     		ldr	r3, [r7, #12]
 900 003a 0122     		movs	r2, #1
 901 003c 83F84820 		strb	r2, [r3, #72]
 615:./Libraries/STM32F4xx_HAL_Driver/Src/stm32f4xx_hal_smartcard.c **** 
 616:./Libraries/STM32F4xx_HAL_Driver/Src/stm32f4xx_hal_smartcard.c ****     hsc->pRxBuffPtr = pData;
 902              		.loc 1 616 21 is_stmt 1 discriminator 2
 903 0040 FB68     		ldr	r3, [r7, #12]
 904 0042 BA68     		ldr	r2, [r7, #8]
 905 0044 9A63     		str	r2, [r3, #56]
 617:./Libraries/STM32F4xx_HAL_Driver/Src/stm32f4xx_hal_smartcard.c ****     hsc->RxXferSize = Size;
 906              		.loc 1 617 21 discriminator 2
 907 0046 FB68     		ldr	r3, [r7, #12]
 908 0048 FA88     		ldrh	r2, [r7, #6]	@ movhi
 909 004a 9A87     		strh	r2, [r3, #60]	@ movhi
 618:./Libraries/STM32F4xx_HAL_Driver/Src/stm32f4xx_hal_smartcard.c ****     hsc->RxXferCount = Size;
 910              		.loc 1 618 22 discriminator 2
 911 004c FB68     		ldr	r3, [r7, #12]
 912 004e FA88     		ldrh	r2, [r7, #6]	@ movhi
 913 0050 DA87     		strh	r2, [r3, #62]	@ movhi
 619:./Libraries/STM32F4xx_HAL_Driver/Src/stm32f4xx_hal_smartcard.c **** 
 620:./Libraries/STM32F4xx_HAL_Driver/Src/stm32f4xx_hal_smartcard.c ****     hsc->ErrorCode = HAL_SMARTCARD_ERROR_NONE;
 914              		.loc 1 620 20 discriminator 2
 915 0052 FB68     		ldr	r3, [r7, #12]
 916 0054 0022     		movs	r2, #0
 917 0056 DA64     		str	r2, [r3, #76]
 621:./Libraries/STM32F4xx_HAL_Driver/Src/stm32f4xx_hal_smartcard.c ****     hsc->RxState = HAL_SMARTCARD_STATE_BUSY_RX;
 918              		.loc 1 621 18 discriminator 2
 919 0058 FB68     		ldr	r3, [r7, #12]
 920 005a 2222     		movs	r2, #34
 921 005c 83F84A20 		strb	r2, [r3, #74]
 622:./Libraries/STM32F4xx_HAL_Driver/Src/stm32f4xx_hal_smartcard.c ****     
 623:./Libraries/STM32F4xx_HAL_Driver/Src/stm32f4xx_hal_smartcard.c ****     /* Process Unlocked */
 624:./Libraries/STM32F4xx_HAL_Driver/Src/stm32f4xx_hal_smartcard.c ****     __HAL_UNLOCK(hsc);
 922              		.loc 1 624 5 discriminator 2
 923 0060 FB68     		ldr	r3, [r7, #12]
 924 0062 0022     		movs	r2, #0
 925 0064 83F84820 		strb	r2, [r3, #72]
 625:./Libraries/STM32F4xx_HAL_Driver/Src/stm32f4xx_hal_smartcard.c **** 
ARM GAS  /tmp/cc5Yvz5O.s 			page 28


 626:./Libraries/STM32F4xx_HAL_Driver/Src/stm32f4xx_hal_smartcard.c ****     /* Enable the SMARTCARD Parity Error and Data Register not empty Interrupts */
 627:./Libraries/STM32F4xx_HAL_Driver/Src/stm32f4xx_hal_smartcard.c ****     SET_BIT(hsc->Instance->CR1, USART_CR1_PEIE| USART_CR1_RXNEIE);
 926              		.loc 1 627 5 discriminator 2
 927 0068 FB68     		ldr	r3, [r7, #12]
 928 006a 1B68     		ldr	r3, [r3]
 929 006c DA68     		ldr	r2, [r3, #12]
 930 006e FB68     		ldr	r3, [r7, #12]
 931 0070 1B68     		ldr	r3, [r3]
 932 0072 42F49072 		orr	r2, r2, #288
 933 0076 DA60     		str	r2, [r3, #12]
 628:./Libraries/STM32F4xx_HAL_Driver/Src/stm32f4xx_hal_smartcard.c **** 
 629:./Libraries/STM32F4xx_HAL_Driver/Src/stm32f4xx_hal_smartcard.c ****     /* Enable the SMARTCARD Error Interrupt: (Frame error, noise error, overrun error) */
 630:./Libraries/STM32F4xx_HAL_Driver/Src/stm32f4xx_hal_smartcard.c ****     SET_BIT(hsc->Instance->CR3, USART_CR3_EIE);
 934              		.loc 1 630 5 discriminator 2
 935 0078 FB68     		ldr	r3, [r7, #12]
 936 007a 1B68     		ldr	r3, [r3]
 937 007c 5A69     		ldr	r2, [r3, #20]
 938 007e FB68     		ldr	r3, [r7, #12]
 939 0080 1B68     		ldr	r3, [r3]
 940 0082 42F00102 		orr	r2, r2, #1
 941 0086 5A61     		str	r2, [r3, #20]
 631:./Libraries/STM32F4xx_HAL_Driver/Src/stm32f4xx_hal_smartcard.c **** 
 632:./Libraries/STM32F4xx_HAL_Driver/Src/stm32f4xx_hal_smartcard.c ****     return HAL_OK;
 942              		.loc 1 632 12 discriminator 2
 943 0088 0023     		movs	r3, #0
 944 008a 00E0     		b	.L39
 945              	.L36:
 633:./Libraries/STM32F4xx_HAL_Driver/Src/stm32f4xx_hal_smartcard.c ****   }
 634:./Libraries/STM32F4xx_HAL_Driver/Src/stm32f4xx_hal_smartcard.c ****   else
 635:./Libraries/STM32F4xx_HAL_Driver/Src/stm32f4xx_hal_smartcard.c ****   {
 636:./Libraries/STM32F4xx_HAL_Driver/Src/stm32f4xx_hal_smartcard.c ****     return HAL_BUSY;
 946              		.loc 1 636 12
 947 008c 0223     		movs	r3, #2
 948              	.L39:
 637:./Libraries/STM32F4xx_HAL_Driver/Src/stm32f4xx_hal_smartcard.c ****   }
 638:./Libraries/STM32F4xx_HAL_Driver/Src/stm32f4xx_hal_smartcard.c **** }
 949              		.loc 1 638 1
 950 008e 1846     		mov	r0, r3
 951 0090 1437     		adds	r7, r7, #20
 952              	.LCFI41:
 953              		.cfi_def_cfa_offset 4
 954 0092 BD46     		mov	sp, r7
 955              	.LCFI42:
 956              		.cfi_def_cfa_register 13
 957              		@ sp needed
 958 0094 5DF8047B 		ldr	r7, [sp], #4
 959              	.LCFI43:
 960              		.cfi_restore 7
 961              		.cfi_def_cfa_offset 0
 962 0098 7047     		bx	lr
 963              		.cfi_endproc
 964              	.LFE133:
 966              		.section	.text.HAL_SMARTCARD_Transmit_DMA,"ax",%progbits
 967              		.align	1
 968              		.global	HAL_SMARTCARD_Transmit_DMA
 969              		.syntax unified
 970              		.thumb
ARM GAS  /tmp/cc5Yvz5O.s 			page 29


 971              		.thumb_func
 972              		.fpu fpv4-sp-d16
 974              	HAL_SMARTCARD_Transmit_DMA:
 975              	.LFB134:
 639:./Libraries/STM32F4xx_HAL_Driver/Src/stm32f4xx_hal_smartcard.c **** 
 640:./Libraries/STM32F4xx_HAL_Driver/Src/stm32f4xx_hal_smartcard.c **** /**
 641:./Libraries/STM32F4xx_HAL_Driver/Src/stm32f4xx_hal_smartcard.c ****   * @brief Send an amount of data in non blocking mode 
 642:./Libraries/STM32F4xx_HAL_Driver/Src/stm32f4xx_hal_smartcard.c ****   * @param  hsc pointer to a SMARTCARD_HandleTypeDef structure that contains
 643:./Libraries/STM32F4xx_HAL_Driver/Src/stm32f4xx_hal_smartcard.c ****   *                the configuration information for SMARTCARD module.
 644:./Libraries/STM32F4xx_HAL_Driver/Src/stm32f4xx_hal_smartcard.c ****   * @param pData pointer to data buffer
 645:./Libraries/STM32F4xx_HAL_Driver/Src/stm32f4xx_hal_smartcard.c ****   * @param Size amount of data to be sent
 646:./Libraries/STM32F4xx_HAL_Driver/Src/stm32f4xx_hal_smartcard.c ****   * @retval HAL status
 647:./Libraries/STM32F4xx_HAL_Driver/Src/stm32f4xx_hal_smartcard.c ****   */
 648:./Libraries/STM32F4xx_HAL_Driver/Src/stm32f4xx_hal_smartcard.c **** HAL_StatusTypeDef HAL_SMARTCARD_Transmit_DMA(SMARTCARD_HandleTypeDef *hsc, uint8_t *pData, uint16_t
 649:./Libraries/STM32F4xx_HAL_Driver/Src/stm32f4xx_hal_smartcard.c **** {
 976              		.loc 1 649 1
 977              		.cfi_startproc
 978              		@ args = 0, pretend = 0, frame = 24
 979              		@ frame_needed = 1, uses_anonymous_args = 0
 980 0000 80B5     		push	{r7, lr}
 981              	.LCFI44:
 982              		.cfi_def_cfa_offset 8
 983              		.cfi_offset 7, -8
 984              		.cfi_offset 14, -4
 985 0002 86B0     		sub	sp, sp, #24
 986              	.LCFI45:
 987              		.cfi_def_cfa_offset 32
 988 0004 00AF     		add	r7, sp, #0
 989              	.LCFI46:
 990              		.cfi_def_cfa_register 7
 991 0006 F860     		str	r0, [r7, #12]
 992 0008 B960     		str	r1, [r7, #8]
 993 000a 1346     		mov	r3, r2
 994 000c FB80     		strh	r3, [r7, #6]	@ movhi
 650:./Libraries/STM32F4xx_HAL_Driver/Src/stm32f4xx_hal_smartcard.c ****   uint32_t *tmp;
 651:./Libraries/STM32F4xx_HAL_Driver/Src/stm32f4xx_hal_smartcard.c ****   
 652:./Libraries/STM32F4xx_HAL_Driver/Src/stm32f4xx_hal_smartcard.c ****   /* Check that a Tx process is not already ongoing */
 653:./Libraries/STM32F4xx_HAL_Driver/Src/stm32f4xx_hal_smartcard.c ****   if(hsc->gState == HAL_SMARTCARD_STATE_READY)
 995              		.loc 1 653 9
 996 000e FB68     		ldr	r3, [r7, #12]
 997 0010 93F84930 		ldrb	r3, [r3, #73]
 998 0014 DBB2     		uxtb	r3, r3
 999              		.loc 1 653 5
 1000 0016 202B     		cmp	r3, #32
 1001 0018 4FD1     		bne	.L42
 654:./Libraries/STM32F4xx_HAL_Driver/Src/stm32f4xx_hal_smartcard.c ****   {
 655:./Libraries/STM32F4xx_HAL_Driver/Src/stm32f4xx_hal_smartcard.c ****     if((pData == NULL) || (Size == 0)) 
 1002              		.loc 1 655 15
 1003 001a BB68     		ldr	r3, [r7, #8]
 1004              		.loc 1 655 7
 1005 001c 002B     		cmp	r3, #0
 1006 001e 02D0     		beq	.L43
 1007              		.loc 1 655 24 discriminator 1
 1008 0020 FB88     		ldrh	r3, [r7, #6]
 1009 0022 002B     		cmp	r3, #0
 1010 0024 01D1     		bne	.L44
 1011              	.L43:
ARM GAS  /tmp/cc5Yvz5O.s 			page 30


 656:./Libraries/STM32F4xx_HAL_Driver/Src/stm32f4xx_hal_smartcard.c ****     {
 657:./Libraries/STM32F4xx_HAL_Driver/Src/stm32f4xx_hal_smartcard.c ****       return HAL_ERROR;
 1012              		.loc 1 657 14
 1013 0026 0123     		movs	r3, #1
 1014 0028 48E0     		b	.L45
 1015              	.L44:
 658:./Libraries/STM32F4xx_HAL_Driver/Src/stm32f4xx_hal_smartcard.c ****     }
 659:./Libraries/STM32F4xx_HAL_Driver/Src/stm32f4xx_hal_smartcard.c **** 
 660:./Libraries/STM32F4xx_HAL_Driver/Src/stm32f4xx_hal_smartcard.c ****     /* Process Locked */
 661:./Libraries/STM32F4xx_HAL_Driver/Src/stm32f4xx_hal_smartcard.c ****     __HAL_LOCK(hsc);
 1016              		.loc 1 661 5
 1017 002a FB68     		ldr	r3, [r7, #12]
 1018 002c 93F84830 		ldrb	r3, [r3, #72]	@ zero_extendqisi2
 1019 0030 012B     		cmp	r3, #1
 1020 0032 01D1     		bne	.L46
 1021              		.loc 1 661 5 is_stmt 0 discriminator 1
 1022 0034 0223     		movs	r3, #2
 1023 0036 41E0     		b	.L45
 1024              	.L46:
 1025              		.loc 1 661 5 discriminator 2
 1026 0038 FB68     		ldr	r3, [r7, #12]
 1027 003a 0122     		movs	r2, #1
 1028 003c 83F84820 		strb	r2, [r3, #72]
 662:./Libraries/STM32F4xx_HAL_Driver/Src/stm32f4xx_hal_smartcard.c **** 
 663:./Libraries/STM32F4xx_HAL_Driver/Src/stm32f4xx_hal_smartcard.c ****     hsc->pTxBuffPtr = pData;
 1029              		.loc 1 663 21 is_stmt 1 discriminator 2
 1030 0040 BA68     		ldr	r2, [r7, #8]
 1031 0042 FB68     		ldr	r3, [r7, #12]
 1032 0044 1A63     		str	r2, [r3, #48]
 664:./Libraries/STM32F4xx_HAL_Driver/Src/stm32f4xx_hal_smartcard.c ****     hsc->TxXferSize = Size;
 1033              		.loc 1 664 21 discriminator 2
 1034 0046 FB68     		ldr	r3, [r7, #12]
 1035 0048 FA88     		ldrh	r2, [r7, #6]	@ movhi
 1036 004a 9A86     		strh	r2, [r3, #52]	@ movhi
 665:./Libraries/STM32F4xx_HAL_Driver/Src/stm32f4xx_hal_smartcard.c ****     hsc->TxXferCount = Size;
 1037              		.loc 1 665 22 discriminator 2
 1038 004c FB68     		ldr	r3, [r7, #12]
 1039 004e FA88     		ldrh	r2, [r7, #6]	@ movhi
 1040 0050 DA86     		strh	r2, [r3, #54]	@ movhi
 666:./Libraries/STM32F4xx_HAL_Driver/Src/stm32f4xx_hal_smartcard.c **** 
 667:./Libraries/STM32F4xx_HAL_Driver/Src/stm32f4xx_hal_smartcard.c ****     hsc->ErrorCode = HAL_SMARTCARD_ERROR_NONE;
 1041              		.loc 1 667 20 discriminator 2
 1042 0052 FB68     		ldr	r3, [r7, #12]
 1043 0054 0022     		movs	r2, #0
 1044 0056 DA64     		str	r2, [r3, #76]
 668:./Libraries/STM32F4xx_HAL_Driver/Src/stm32f4xx_hal_smartcard.c ****     hsc->gState = HAL_SMARTCARD_STATE_BUSY_TX;
 1045              		.loc 1 668 17 discriminator 2
 1046 0058 FB68     		ldr	r3, [r7, #12]
 1047 005a 2122     		movs	r2, #33
 1048 005c 83F84920 		strb	r2, [r3, #73]
 669:./Libraries/STM32F4xx_HAL_Driver/Src/stm32f4xx_hal_smartcard.c ****     
 670:./Libraries/STM32F4xx_HAL_Driver/Src/stm32f4xx_hal_smartcard.c ****     /* Set the SMARTCARD DMA transfer complete callback */
 671:./Libraries/STM32F4xx_HAL_Driver/Src/stm32f4xx_hal_smartcard.c ****     hsc->hdmatx->XferCpltCallback = SMARTCARD_DMATransmitCplt;
 1049              		.loc 1 671 8 discriminator 2
 1050 0060 FB68     		ldr	r3, [r7, #12]
 1051 0062 1B6C     		ldr	r3, [r3, #64]
 1052              		.loc 1 671 35 discriminator 2
ARM GAS  /tmp/cc5Yvz5O.s 			page 31


 1053 0064 174A     		ldr	r2, .L47
 1054 0066 DA63     		str	r2, [r3, #60]
 672:./Libraries/STM32F4xx_HAL_Driver/Src/stm32f4xx_hal_smartcard.c **** 
 673:./Libraries/STM32F4xx_HAL_Driver/Src/stm32f4xx_hal_smartcard.c ****     /* Set the DMA error callback */
 674:./Libraries/STM32F4xx_HAL_Driver/Src/stm32f4xx_hal_smartcard.c ****     hsc->hdmatx->XferErrorCallback = SMARTCARD_DMAError;
 1055              		.loc 1 674 8 discriminator 2
 1056 0068 FB68     		ldr	r3, [r7, #12]
 1057 006a 1B6C     		ldr	r3, [r3, #64]
 1058              		.loc 1 674 36 discriminator 2
 1059 006c 164A     		ldr	r2, .L47+4
 1060 006e DA64     		str	r2, [r3, #76]
 675:./Libraries/STM32F4xx_HAL_Driver/Src/stm32f4xx_hal_smartcard.c ****     
 676:./Libraries/STM32F4xx_HAL_Driver/Src/stm32f4xx_hal_smartcard.c ****     /* Set the DMA abort callback */
 677:./Libraries/STM32F4xx_HAL_Driver/Src/stm32f4xx_hal_smartcard.c ****     hsc->hdmatx->XferAbortCallback = NULL;
 1061              		.loc 1 677 8 discriminator 2
 1062 0070 FB68     		ldr	r3, [r7, #12]
 1063 0072 1B6C     		ldr	r3, [r3, #64]
 1064              		.loc 1 677 36 discriminator 2
 1065 0074 0022     		movs	r2, #0
 1066 0076 1A65     		str	r2, [r3, #80]
 678:./Libraries/STM32F4xx_HAL_Driver/Src/stm32f4xx_hal_smartcard.c **** 
 679:./Libraries/STM32F4xx_HAL_Driver/Src/stm32f4xx_hal_smartcard.c ****     /* Enable the SMARTCARD transmit DMA Stream */
 680:./Libraries/STM32F4xx_HAL_Driver/Src/stm32f4xx_hal_smartcard.c ****     tmp = (uint32_t*)&pData;
 1067              		.loc 1 680 9 discriminator 2
 1068 0078 07F10803 		add	r3, r7, #8
 1069 007c 7B61     		str	r3, [r7, #20]
 681:./Libraries/STM32F4xx_HAL_Driver/Src/stm32f4xx_hal_smartcard.c ****     HAL_DMA_Start_IT(hsc->hdmatx, *(uint32_t*)tmp, (uint32_t)&hsc->Instance->DR, Size);
 1070              		.loc 1 681 5 discriminator 2
 1071 007e FB68     		ldr	r3, [r7, #12]
 1072 0080 186C     		ldr	r0, [r3, #64]
 1073 0082 7B69     		ldr	r3, [r7, #20]
 1074 0084 1968     		ldr	r1, [r3]
 1075              		.loc 1 681 66 discriminator 2
 1076 0086 FB68     		ldr	r3, [r7, #12]
 1077 0088 1B68     		ldr	r3, [r3]
 1078              		.loc 1 681 62 discriminator 2
 1079 008a 0433     		adds	r3, r3, #4
 1080              		.loc 1 681 5 discriminator 2
 1081 008c 1A46     		mov	r2, r3
 1082 008e FB88     		ldrh	r3, [r7, #6]
 1083 0090 FFF7FEFF 		bl	HAL_DMA_Start_IT
 682:./Libraries/STM32F4xx_HAL_Driver/Src/stm32f4xx_hal_smartcard.c **** 
 683:./Libraries/STM32F4xx_HAL_Driver/Src/stm32f4xx_hal_smartcard.c ****      /* Clear the TC flag in the SR register by writing 0 to it */
 684:./Libraries/STM32F4xx_HAL_Driver/Src/stm32f4xx_hal_smartcard.c ****     __HAL_SMARTCARD_CLEAR_FLAG(hsc, SMARTCARD_FLAG_TC);
 1084              		.loc 1 684 5 discriminator 2
 1085 0094 FB68     		ldr	r3, [r7, #12]
 1086 0096 1B68     		ldr	r3, [r3]
 1087 0098 6FF04002 		mvn	r2, #64
 1088 009c 1A60     		str	r2, [r3]
 685:./Libraries/STM32F4xx_HAL_Driver/Src/stm32f4xx_hal_smartcard.c **** 
 686:./Libraries/STM32F4xx_HAL_Driver/Src/stm32f4xx_hal_smartcard.c ****     /* Process Unlocked */
 687:./Libraries/STM32F4xx_HAL_Driver/Src/stm32f4xx_hal_smartcard.c ****     __HAL_UNLOCK(hsc);
 1089              		.loc 1 687 5 discriminator 2
 1090 009e FB68     		ldr	r3, [r7, #12]
 1091 00a0 0022     		movs	r2, #0
 1092 00a2 83F84820 		strb	r2, [r3, #72]
 688:./Libraries/STM32F4xx_HAL_Driver/Src/stm32f4xx_hal_smartcard.c ****     
ARM GAS  /tmp/cc5Yvz5O.s 			page 32


 689:./Libraries/STM32F4xx_HAL_Driver/Src/stm32f4xx_hal_smartcard.c ****     /* Enable the DMA transfer for transmit request by setting the DMAT bit
 690:./Libraries/STM32F4xx_HAL_Driver/Src/stm32f4xx_hal_smartcard.c ****     in the SMARTCARD CR3 register */
 691:./Libraries/STM32F4xx_HAL_Driver/Src/stm32f4xx_hal_smartcard.c ****     SET_BIT(hsc->Instance->CR3, USART_CR3_DMAT);
 1093              		.loc 1 691 5 discriminator 2
 1094 00a6 FB68     		ldr	r3, [r7, #12]
 1095 00a8 1B68     		ldr	r3, [r3]
 1096 00aa 5A69     		ldr	r2, [r3, #20]
 1097 00ac FB68     		ldr	r3, [r7, #12]
 1098 00ae 1B68     		ldr	r3, [r3]
 1099 00b0 42F08002 		orr	r2, r2, #128
 1100 00b4 5A61     		str	r2, [r3, #20]
 692:./Libraries/STM32F4xx_HAL_Driver/Src/stm32f4xx_hal_smartcard.c **** 
 693:./Libraries/STM32F4xx_HAL_Driver/Src/stm32f4xx_hal_smartcard.c ****     return HAL_OK;
 1101              		.loc 1 693 12 discriminator 2
 1102 00b6 0023     		movs	r3, #0
 1103 00b8 00E0     		b	.L45
 1104              	.L42:
 694:./Libraries/STM32F4xx_HAL_Driver/Src/stm32f4xx_hal_smartcard.c ****   }
 695:./Libraries/STM32F4xx_HAL_Driver/Src/stm32f4xx_hal_smartcard.c ****   else
 696:./Libraries/STM32F4xx_HAL_Driver/Src/stm32f4xx_hal_smartcard.c ****   {
 697:./Libraries/STM32F4xx_HAL_Driver/Src/stm32f4xx_hal_smartcard.c ****     return HAL_BUSY;
 1105              		.loc 1 697 12
 1106 00ba 0223     		movs	r3, #2
 1107              	.L45:
 698:./Libraries/STM32F4xx_HAL_Driver/Src/stm32f4xx_hal_smartcard.c ****   }
 699:./Libraries/STM32F4xx_HAL_Driver/Src/stm32f4xx_hal_smartcard.c **** }
 1108              		.loc 1 699 1
 1109 00bc 1846     		mov	r0, r3
 1110 00be 1837     		adds	r7, r7, #24
 1111              	.LCFI47:
 1112              		.cfi_def_cfa_offset 8
 1113 00c0 BD46     		mov	sp, r7
 1114              	.LCFI48:
 1115              		.cfi_def_cfa_register 13
 1116              		@ sp needed
 1117 00c2 80BD     		pop	{r7, pc}
 1118              	.L48:
 1119              		.align	2
 1120              	.L47:
 1121 00c4 00000000 		.word	SMARTCARD_DMATransmitCplt
 1122 00c8 00000000 		.word	SMARTCARD_DMAError
 1123              		.cfi_endproc
 1124              	.LFE134:
 1126              		.section	.text.HAL_SMARTCARD_Receive_DMA,"ax",%progbits
 1127              		.align	1
 1128              		.global	HAL_SMARTCARD_Receive_DMA
 1129              		.syntax unified
 1130              		.thumb
 1131              		.thumb_func
 1132              		.fpu fpv4-sp-d16
 1134              	HAL_SMARTCARD_Receive_DMA:
 1135              	.LFB135:
 700:./Libraries/STM32F4xx_HAL_Driver/Src/stm32f4xx_hal_smartcard.c **** 
 701:./Libraries/STM32F4xx_HAL_Driver/Src/stm32f4xx_hal_smartcard.c **** /**
 702:./Libraries/STM32F4xx_HAL_Driver/Src/stm32f4xx_hal_smartcard.c ****   * @brief Receive an amount of data in non blocking mode 
 703:./Libraries/STM32F4xx_HAL_Driver/Src/stm32f4xx_hal_smartcard.c ****   * @param  hsc pointer to a SMARTCARD_HandleTypeDef structure that contains
 704:./Libraries/STM32F4xx_HAL_Driver/Src/stm32f4xx_hal_smartcard.c ****   *                the configuration information for SMARTCARD module.
ARM GAS  /tmp/cc5Yvz5O.s 			page 33


 705:./Libraries/STM32F4xx_HAL_Driver/Src/stm32f4xx_hal_smartcard.c ****   * @param pData pointer to data buffer
 706:./Libraries/STM32F4xx_HAL_Driver/Src/stm32f4xx_hal_smartcard.c ****   * @param Size amount of data to be received
 707:./Libraries/STM32F4xx_HAL_Driver/Src/stm32f4xx_hal_smartcard.c ****   * @note   When the SMARTCARD parity is enabled (PCE = 1) the data received contain the parity bit
 708:./Libraries/STM32F4xx_HAL_Driver/Src/stm32f4xx_hal_smartcard.c ****   * @retval HAL status
 709:./Libraries/STM32F4xx_HAL_Driver/Src/stm32f4xx_hal_smartcard.c ****   */
 710:./Libraries/STM32F4xx_HAL_Driver/Src/stm32f4xx_hal_smartcard.c **** HAL_StatusTypeDef HAL_SMARTCARD_Receive_DMA(SMARTCARD_HandleTypeDef *hsc, uint8_t *pData, uint16_t 
 711:./Libraries/STM32F4xx_HAL_Driver/Src/stm32f4xx_hal_smartcard.c **** {
 1136              		.loc 1 711 1
 1137              		.cfi_startproc
 1138              		@ args = 0, pretend = 0, frame = 24
 1139              		@ frame_needed = 1, uses_anonymous_args = 0
 1140 0000 80B5     		push	{r7, lr}
 1141              	.LCFI49:
 1142              		.cfi_def_cfa_offset 8
 1143              		.cfi_offset 7, -8
 1144              		.cfi_offset 14, -4
 1145 0002 86B0     		sub	sp, sp, #24
 1146              	.LCFI50:
 1147              		.cfi_def_cfa_offset 32
 1148 0004 00AF     		add	r7, sp, #0
 1149              	.LCFI51:
 1150              		.cfi_def_cfa_register 7
 1151 0006 F860     		str	r0, [r7, #12]
 1152 0008 B960     		str	r1, [r7, #8]
 1153 000a 1346     		mov	r3, r2
 1154 000c FB80     		strh	r3, [r7, #6]	@ movhi
 712:./Libraries/STM32F4xx_HAL_Driver/Src/stm32f4xx_hal_smartcard.c ****   uint32_t *tmp;
 713:./Libraries/STM32F4xx_HAL_Driver/Src/stm32f4xx_hal_smartcard.c ****   
 714:./Libraries/STM32F4xx_HAL_Driver/Src/stm32f4xx_hal_smartcard.c ****   /* Check that a Rx process is not already ongoing */
 715:./Libraries/STM32F4xx_HAL_Driver/Src/stm32f4xx_hal_smartcard.c ****   if(hsc->RxState == HAL_SMARTCARD_STATE_READY) 
 1155              		.loc 1 715 9
 1156 000e FB68     		ldr	r3, [r7, #12]
 1157 0010 93F84A30 		ldrb	r3, [r3, #74]
 1158 0014 DBB2     		uxtb	r3, r3
 1159              		.loc 1 715 5
 1160 0016 202B     		cmp	r3, #32
 1161 0018 62D1     		bne	.L50
 716:./Libraries/STM32F4xx_HAL_Driver/Src/stm32f4xx_hal_smartcard.c ****   {
 717:./Libraries/STM32F4xx_HAL_Driver/Src/stm32f4xx_hal_smartcard.c ****     if((pData == NULL) || (Size == 0)) 
 1162              		.loc 1 717 15
 1163 001a BB68     		ldr	r3, [r7, #8]
 1164              		.loc 1 717 7
 1165 001c 002B     		cmp	r3, #0
 1166 001e 02D0     		beq	.L51
 1167              		.loc 1 717 24 discriminator 1
 1168 0020 FB88     		ldrh	r3, [r7, #6]
 1169 0022 002B     		cmp	r3, #0
 1170 0024 01D1     		bne	.L52
 1171              	.L51:
 718:./Libraries/STM32F4xx_HAL_Driver/Src/stm32f4xx_hal_smartcard.c ****     {
 719:./Libraries/STM32F4xx_HAL_Driver/Src/stm32f4xx_hal_smartcard.c ****       return HAL_ERROR;
 1172              		.loc 1 719 14
 1173 0026 0123     		movs	r3, #1
 1174 0028 5BE0     		b	.L53
 1175              	.L52:
 720:./Libraries/STM32F4xx_HAL_Driver/Src/stm32f4xx_hal_smartcard.c ****     }
 721:./Libraries/STM32F4xx_HAL_Driver/Src/stm32f4xx_hal_smartcard.c **** 
ARM GAS  /tmp/cc5Yvz5O.s 			page 34


 722:./Libraries/STM32F4xx_HAL_Driver/Src/stm32f4xx_hal_smartcard.c ****     /* Process Locked */
 723:./Libraries/STM32F4xx_HAL_Driver/Src/stm32f4xx_hal_smartcard.c ****     __HAL_LOCK(hsc);
 1176              		.loc 1 723 5
 1177 002a FB68     		ldr	r3, [r7, #12]
 1178 002c 93F84830 		ldrb	r3, [r3, #72]	@ zero_extendqisi2
 1179 0030 012B     		cmp	r3, #1
 1180 0032 01D1     		bne	.L54
 1181              		.loc 1 723 5 is_stmt 0 discriminator 1
 1182 0034 0223     		movs	r3, #2
 1183 0036 54E0     		b	.L53
 1184              	.L54:
 1185              		.loc 1 723 5 discriminator 2
 1186 0038 FB68     		ldr	r3, [r7, #12]
 1187 003a 0122     		movs	r2, #1
 1188 003c 83F84820 		strb	r2, [r3, #72]
 724:./Libraries/STM32F4xx_HAL_Driver/Src/stm32f4xx_hal_smartcard.c **** 
 725:./Libraries/STM32F4xx_HAL_Driver/Src/stm32f4xx_hal_smartcard.c ****     hsc->pRxBuffPtr = pData;
 1189              		.loc 1 725 21 is_stmt 1 discriminator 2
 1190 0040 BA68     		ldr	r2, [r7, #8]
 1191 0042 FB68     		ldr	r3, [r7, #12]
 1192 0044 9A63     		str	r2, [r3, #56]
 726:./Libraries/STM32F4xx_HAL_Driver/Src/stm32f4xx_hal_smartcard.c ****     hsc->RxXferSize = Size;
 1193              		.loc 1 726 21 discriminator 2
 1194 0046 FB68     		ldr	r3, [r7, #12]
 1195 0048 FA88     		ldrh	r2, [r7, #6]	@ movhi
 1196 004a 9A87     		strh	r2, [r3, #60]	@ movhi
 727:./Libraries/STM32F4xx_HAL_Driver/Src/stm32f4xx_hal_smartcard.c **** 
 728:./Libraries/STM32F4xx_HAL_Driver/Src/stm32f4xx_hal_smartcard.c ****     hsc->ErrorCode = HAL_SMARTCARD_ERROR_NONE;
 1197              		.loc 1 728 20 discriminator 2
 1198 004c FB68     		ldr	r3, [r7, #12]
 1199 004e 0022     		movs	r2, #0
 1200 0050 DA64     		str	r2, [r3, #76]
 729:./Libraries/STM32F4xx_HAL_Driver/Src/stm32f4xx_hal_smartcard.c ****     hsc->RxState = HAL_SMARTCARD_STATE_BUSY_RX;
 1201              		.loc 1 729 18 discriminator 2
 1202 0052 FB68     		ldr	r3, [r7, #12]
 1203 0054 2222     		movs	r2, #34
 1204 0056 83F84A20 		strb	r2, [r3, #74]
 730:./Libraries/STM32F4xx_HAL_Driver/Src/stm32f4xx_hal_smartcard.c ****     
 731:./Libraries/STM32F4xx_HAL_Driver/Src/stm32f4xx_hal_smartcard.c ****     /* Set the SMARTCARD DMA transfer complete callback */
 732:./Libraries/STM32F4xx_HAL_Driver/Src/stm32f4xx_hal_smartcard.c ****     hsc->hdmarx->XferCpltCallback = SMARTCARD_DMAReceiveCplt;
 1205              		.loc 1 732 8 discriminator 2
 1206 005a FB68     		ldr	r3, [r7, #12]
 1207 005c 5B6C     		ldr	r3, [r3, #68]
 1208              		.loc 1 732 35 discriminator 2
 1209 005e 234A     		ldr	r2, .L55
 1210 0060 DA63     		str	r2, [r3, #60]
 733:./Libraries/STM32F4xx_HAL_Driver/Src/stm32f4xx_hal_smartcard.c **** 
 734:./Libraries/STM32F4xx_HAL_Driver/Src/stm32f4xx_hal_smartcard.c ****     /* Set the DMA error callback */
 735:./Libraries/STM32F4xx_HAL_Driver/Src/stm32f4xx_hal_smartcard.c ****     hsc->hdmarx->XferErrorCallback = SMARTCARD_DMAError;
 1211              		.loc 1 735 8 discriminator 2
 1212 0062 FB68     		ldr	r3, [r7, #12]
 1213 0064 5B6C     		ldr	r3, [r3, #68]
 1214              		.loc 1 735 36 discriminator 2
 1215 0066 224A     		ldr	r2, .L55+4
 1216 0068 DA64     		str	r2, [r3, #76]
 736:./Libraries/STM32F4xx_HAL_Driver/Src/stm32f4xx_hal_smartcard.c ****     
 737:./Libraries/STM32F4xx_HAL_Driver/Src/stm32f4xx_hal_smartcard.c ****     /* Set the DMA abort callback */
ARM GAS  /tmp/cc5Yvz5O.s 			page 35


 738:./Libraries/STM32F4xx_HAL_Driver/Src/stm32f4xx_hal_smartcard.c ****     hsc->hdmatx->XferAbortCallback = NULL;
 1217              		.loc 1 738 8 discriminator 2
 1218 006a FB68     		ldr	r3, [r7, #12]
 1219 006c 1B6C     		ldr	r3, [r3, #64]
 1220              		.loc 1 738 36 discriminator 2
 1221 006e 0022     		movs	r2, #0
 1222 0070 1A65     		str	r2, [r3, #80]
 739:./Libraries/STM32F4xx_HAL_Driver/Src/stm32f4xx_hal_smartcard.c **** 
 740:./Libraries/STM32F4xx_HAL_Driver/Src/stm32f4xx_hal_smartcard.c ****     /* Enable the DMA Stream */
 741:./Libraries/STM32F4xx_HAL_Driver/Src/stm32f4xx_hal_smartcard.c ****     tmp = (uint32_t*)&pData;
 1223              		.loc 1 741 9 discriminator 2
 1224 0072 07F10803 		add	r3, r7, #8
 1225 0076 7B61     		str	r3, [r7, #20]
 742:./Libraries/STM32F4xx_HAL_Driver/Src/stm32f4xx_hal_smartcard.c ****     HAL_DMA_Start_IT(hsc->hdmarx, (uint32_t)&hsc->Instance->DR, *(uint32_t*)tmp, Size);
 1226              		.loc 1 742 5 discriminator 2
 1227 0078 FB68     		ldr	r3, [r7, #12]
 1228 007a 586C     		ldr	r0, [r3, #68]
 1229              		.loc 1 742 49 discriminator 2
 1230 007c FB68     		ldr	r3, [r7, #12]
 1231 007e 1B68     		ldr	r3, [r3]
 1232              		.loc 1 742 45 discriminator 2
 1233 0080 0433     		adds	r3, r3, #4
 1234              		.loc 1 742 5 discriminator 2
 1235 0082 1946     		mov	r1, r3
 1236 0084 7B69     		ldr	r3, [r7, #20]
 1237 0086 1A68     		ldr	r2, [r3]
 1238 0088 FB88     		ldrh	r3, [r7, #6]
 1239 008a FFF7FEFF 		bl	HAL_DMA_Start_IT
 1240              	.LBB2:
 743:./Libraries/STM32F4xx_HAL_Driver/Src/stm32f4xx_hal_smartcard.c **** 
 744:./Libraries/STM32F4xx_HAL_Driver/Src/stm32f4xx_hal_smartcard.c ****     /* Clear the Overrun flag just before enabling the DMA Rx request: can be mandatory for the sec
 745:./Libraries/STM32F4xx_HAL_Driver/Src/stm32f4xx_hal_smartcard.c ****     __HAL_SMARTCARD_CLEAR_OREFLAG(hsc);
 1241              		.loc 1 745 5 discriminator 2
 1242 008e 0023     		movs	r3, #0
 1243 0090 3B61     		str	r3, [r7, #16]
 1244 0092 FB68     		ldr	r3, [r7, #12]
 1245 0094 1B68     		ldr	r3, [r3]
 1246 0096 1B68     		ldr	r3, [r3]
 1247 0098 3B61     		str	r3, [r7, #16]
 1248 009a FB68     		ldr	r3, [r7, #12]
 1249 009c 1B68     		ldr	r3, [r3]
 1250 009e 5B68     		ldr	r3, [r3, #4]
 1251 00a0 3B61     		str	r3, [r7, #16]
 1252 00a2 3B69     		ldr	r3, [r7, #16]
 1253              	.LBE2:
 746:./Libraries/STM32F4xx_HAL_Driver/Src/stm32f4xx_hal_smartcard.c **** 
 747:./Libraries/STM32F4xx_HAL_Driver/Src/stm32f4xx_hal_smartcard.c ****     /* Process Unlocked */
 748:./Libraries/STM32F4xx_HAL_Driver/Src/stm32f4xx_hal_smartcard.c ****     __HAL_UNLOCK(hsc);
 1254              		.loc 1 748 5 discriminator 2
 1255 00a4 FB68     		ldr	r3, [r7, #12]
 1256 00a6 0022     		movs	r2, #0
 1257 00a8 83F84820 		strb	r2, [r3, #72]
 749:./Libraries/STM32F4xx_HAL_Driver/Src/stm32f4xx_hal_smartcard.c ****     
 750:./Libraries/STM32F4xx_HAL_Driver/Src/stm32f4xx_hal_smartcard.c ****     /* Enable the SMARTCARD Parity Error Interrupt */
 751:./Libraries/STM32F4xx_HAL_Driver/Src/stm32f4xx_hal_smartcard.c ****     SET_BIT(hsc->Instance->CR1, USART_CR1_PEIE);
 1258              		.loc 1 751 5 discriminator 2
 1259 00ac FB68     		ldr	r3, [r7, #12]
ARM GAS  /tmp/cc5Yvz5O.s 			page 36


 1260 00ae 1B68     		ldr	r3, [r3]
 1261 00b0 DA68     		ldr	r2, [r3, #12]
 1262 00b2 FB68     		ldr	r3, [r7, #12]
 1263 00b4 1B68     		ldr	r3, [r3]
 1264 00b6 42F48072 		orr	r2, r2, #256
 1265 00ba DA60     		str	r2, [r3, #12]
 752:./Libraries/STM32F4xx_HAL_Driver/Src/stm32f4xx_hal_smartcard.c **** 
 753:./Libraries/STM32F4xx_HAL_Driver/Src/stm32f4xx_hal_smartcard.c ****     /* Enable the SMARTCARD Error Interrupt: (Frame error, noise error, overrun error) */
 754:./Libraries/STM32F4xx_HAL_Driver/Src/stm32f4xx_hal_smartcard.c ****     SET_BIT(hsc->Instance->CR3, USART_CR3_EIE);
 1266              		.loc 1 754 5 discriminator 2
 1267 00bc FB68     		ldr	r3, [r7, #12]
 1268 00be 1B68     		ldr	r3, [r3]
 1269 00c0 5A69     		ldr	r2, [r3, #20]
 1270 00c2 FB68     		ldr	r3, [r7, #12]
 1271 00c4 1B68     		ldr	r3, [r3]
 1272 00c6 42F00102 		orr	r2, r2, #1
 1273 00ca 5A61     		str	r2, [r3, #20]
 755:./Libraries/STM32F4xx_HAL_Driver/Src/stm32f4xx_hal_smartcard.c ****     
 756:./Libraries/STM32F4xx_HAL_Driver/Src/stm32f4xx_hal_smartcard.c ****     /* Enable the DMA transfer for the receiver request by setting the DMAR bit 
 757:./Libraries/STM32F4xx_HAL_Driver/Src/stm32f4xx_hal_smartcard.c ****     in the SMARTCARD CR3 register */
 758:./Libraries/STM32F4xx_HAL_Driver/Src/stm32f4xx_hal_smartcard.c ****     SET_BIT(hsc->Instance->CR3, USART_CR3_DMAR);
 1274              		.loc 1 758 5 discriminator 2
 1275 00cc FB68     		ldr	r3, [r7, #12]
 1276 00ce 1B68     		ldr	r3, [r3]
 1277 00d0 5A69     		ldr	r2, [r3, #20]
 1278 00d2 FB68     		ldr	r3, [r7, #12]
 1279 00d4 1B68     		ldr	r3, [r3]
 1280 00d6 42F04002 		orr	r2, r2, #64
 1281 00da 5A61     		str	r2, [r3, #20]
 759:./Libraries/STM32F4xx_HAL_Driver/Src/stm32f4xx_hal_smartcard.c **** 
 760:./Libraries/STM32F4xx_HAL_Driver/Src/stm32f4xx_hal_smartcard.c ****     return HAL_OK;
 1282              		.loc 1 760 12 discriminator 2
 1283 00dc 0023     		movs	r3, #0
 1284 00de 00E0     		b	.L53
 1285              	.L50:
 761:./Libraries/STM32F4xx_HAL_Driver/Src/stm32f4xx_hal_smartcard.c ****   }
 762:./Libraries/STM32F4xx_HAL_Driver/Src/stm32f4xx_hal_smartcard.c ****   else
 763:./Libraries/STM32F4xx_HAL_Driver/Src/stm32f4xx_hal_smartcard.c ****   {
 764:./Libraries/STM32F4xx_HAL_Driver/Src/stm32f4xx_hal_smartcard.c ****     return HAL_BUSY;
 1286              		.loc 1 764 12
 1287 00e0 0223     		movs	r3, #2
 1288              	.L53:
 765:./Libraries/STM32F4xx_HAL_Driver/Src/stm32f4xx_hal_smartcard.c ****   }
 766:./Libraries/STM32F4xx_HAL_Driver/Src/stm32f4xx_hal_smartcard.c **** }
 1289              		.loc 1 766 1
 1290 00e2 1846     		mov	r0, r3
 1291 00e4 1837     		adds	r7, r7, #24
 1292              	.LCFI52:
 1293              		.cfi_def_cfa_offset 8
 1294 00e6 BD46     		mov	sp, r7
 1295              	.LCFI53:
 1296              		.cfi_def_cfa_register 13
 1297              		@ sp needed
 1298 00e8 80BD     		pop	{r7, pc}
 1299              	.L56:
 1300 00ea 00BF     		.align	2
 1301              	.L55:
ARM GAS  /tmp/cc5Yvz5O.s 			page 37


 1302 00ec 00000000 		.word	SMARTCARD_DMAReceiveCplt
 1303 00f0 00000000 		.word	SMARTCARD_DMAError
 1304              		.cfi_endproc
 1305              	.LFE135:
 1307              		.section	.text.HAL_SMARTCARD_Abort,"ax",%progbits
 1308              		.align	1
 1309              		.global	HAL_SMARTCARD_Abort
 1310              		.syntax unified
 1311              		.thumb
 1312              		.thumb_func
 1313              		.fpu fpv4-sp-d16
 1315              	HAL_SMARTCARD_Abort:
 1316              	.LFB136:
 767:./Libraries/STM32F4xx_HAL_Driver/Src/stm32f4xx_hal_smartcard.c **** 
 768:./Libraries/STM32F4xx_HAL_Driver/Src/stm32f4xx_hal_smartcard.c **** /**
 769:./Libraries/STM32F4xx_HAL_Driver/Src/stm32f4xx_hal_smartcard.c ****   * @brief  Abort ongoing transfers (blocking mode).
 770:./Libraries/STM32F4xx_HAL_Driver/Src/stm32f4xx_hal_smartcard.c ****   * @param  hsc SMARTCARD handle.
 771:./Libraries/STM32F4xx_HAL_Driver/Src/stm32f4xx_hal_smartcard.c ****   * @note   This procedure could be used for aborting any ongoing transfer started in Interrupt or 
 772:./Libraries/STM32F4xx_HAL_Driver/Src/stm32f4xx_hal_smartcard.c ****   *         This procedure performs following operations :
 773:./Libraries/STM32F4xx_HAL_Driver/Src/stm32f4xx_hal_smartcard.c ****   *           - Disable PPP Interrupts
 774:./Libraries/STM32F4xx_HAL_Driver/Src/stm32f4xx_hal_smartcard.c ****   *           - Disable the DMA transfer in the peripheral register (if enabled)
 775:./Libraries/STM32F4xx_HAL_Driver/Src/stm32f4xx_hal_smartcard.c ****   *           - Abort DMA transfer by calling HAL_DMA_Abort (in case of transfer in DMA mode)
 776:./Libraries/STM32F4xx_HAL_Driver/Src/stm32f4xx_hal_smartcard.c ****   *           - Set handle State to READY
 777:./Libraries/STM32F4xx_HAL_Driver/Src/stm32f4xx_hal_smartcard.c ****   * @note   This procedure is executed in blocking mode : when exiting function, Abort is considere
 778:./Libraries/STM32F4xx_HAL_Driver/Src/stm32f4xx_hal_smartcard.c ****   * @retval HAL status
 779:./Libraries/STM32F4xx_HAL_Driver/Src/stm32f4xx_hal_smartcard.c **** */
 780:./Libraries/STM32F4xx_HAL_Driver/Src/stm32f4xx_hal_smartcard.c **** HAL_StatusTypeDef HAL_SMARTCARD_Abort(SMARTCARD_HandleTypeDef *hsc)
 781:./Libraries/STM32F4xx_HAL_Driver/Src/stm32f4xx_hal_smartcard.c **** {
 1317              		.loc 1 781 1
 1318              		.cfi_startproc
 1319              		@ args = 0, pretend = 0, frame = 8
 1320              		@ frame_needed = 1, uses_anonymous_args = 0
 1321 0000 80B5     		push	{r7, lr}
 1322              	.LCFI54:
 1323              		.cfi_def_cfa_offset 8
 1324              		.cfi_offset 7, -8
 1325              		.cfi_offset 14, -4
 1326 0002 82B0     		sub	sp, sp, #8
 1327              	.LCFI55:
 1328              		.cfi_def_cfa_offset 16
 1329 0004 00AF     		add	r7, sp, #0
 1330              	.LCFI56:
 1331              		.cfi_def_cfa_register 7
 1332 0006 7860     		str	r0, [r7, #4]
 782:./Libraries/STM32F4xx_HAL_Driver/Src/stm32f4xx_hal_smartcard.c ****   /* Disable TXEIE, TCIE, RXNE, PE and ERR (Frame error, noise error, overrun error) interrupts */
 783:./Libraries/STM32F4xx_HAL_Driver/Src/stm32f4xx_hal_smartcard.c ****   CLEAR_BIT(hsc->Instance->CR1, (USART_CR1_RXNEIE | USART_CR1_PEIE | USART_CR1_TXEIE | USART_CR1_TC
 1333              		.loc 1 783 3
 1334 0008 7B68     		ldr	r3, [r7, #4]
 1335 000a 1B68     		ldr	r3, [r3]
 1336 000c DA68     		ldr	r2, [r3, #12]
 1337 000e 7B68     		ldr	r3, [r7, #4]
 1338 0010 1B68     		ldr	r3, [r3]
 1339 0012 22F4F072 		bic	r2, r2, #480
 1340 0016 DA60     		str	r2, [r3, #12]
 784:./Libraries/STM32F4xx_HAL_Driver/Src/stm32f4xx_hal_smartcard.c ****   CLEAR_BIT(hsc->Instance->CR3, USART_CR3_EIE);
 1341              		.loc 1 784 3
 1342 0018 7B68     		ldr	r3, [r7, #4]
ARM GAS  /tmp/cc5Yvz5O.s 			page 38


 1343 001a 1B68     		ldr	r3, [r3]
 1344 001c 5A69     		ldr	r2, [r3, #20]
 1345 001e 7B68     		ldr	r3, [r7, #4]
 1346 0020 1B68     		ldr	r3, [r3]
 1347 0022 22F00102 		bic	r2, r2, #1
 1348 0026 5A61     		str	r2, [r3, #20]
 785:./Libraries/STM32F4xx_HAL_Driver/Src/stm32f4xx_hal_smartcard.c ****   
 786:./Libraries/STM32F4xx_HAL_Driver/Src/stm32f4xx_hal_smartcard.c ****   /* Disable the SMARTCARD DMA Tx request if enabled */
 787:./Libraries/STM32F4xx_HAL_Driver/Src/stm32f4xx_hal_smartcard.c ****   if(HAL_IS_BIT_SET(hsc->Instance->CR3, USART_CR3_DMAT))
 1349              		.loc 1 787 6
 1350 0028 7B68     		ldr	r3, [r7, #4]
 1351 002a 1B68     		ldr	r3, [r3]
 1352 002c 5B69     		ldr	r3, [r3, #20]
 1353 002e 03F08003 		and	r3, r3, #128
 1354              		.loc 1 787 5
 1355 0032 002B     		cmp	r3, #0
 1356 0034 14D0     		beq	.L58
 788:./Libraries/STM32F4xx_HAL_Driver/Src/stm32f4xx_hal_smartcard.c ****   {
 789:./Libraries/STM32F4xx_HAL_Driver/Src/stm32f4xx_hal_smartcard.c ****     CLEAR_BIT(hsc->Instance->CR3, USART_CR3_DMAT);
 1357              		.loc 1 789 5
 1358 0036 7B68     		ldr	r3, [r7, #4]
 1359 0038 1B68     		ldr	r3, [r3]
 1360 003a 5A69     		ldr	r2, [r3, #20]
 1361 003c 7B68     		ldr	r3, [r7, #4]
 1362 003e 1B68     		ldr	r3, [r3]
 1363 0040 22F08002 		bic	r2, r2, #128
 1364 0044 5A61     		str	r2, [r3, #20]
 790:./Libraries/STM32F4xx_HAL_Driver/Src/stm32f4xx_hal_smartcard.c **** 
 791:./Libraries/STM32F4xx_HAL_Driver/Src/stm32f4xx_hal_smartcard.c ****     /* Abort the SMARTCARD DMA Tx channel : use blocking DMA Abort API (no callback) */
 792:./Libraries/STM32F4xx_HAL_Driver/Src/stm32f4xx_hal_smartcard.c ****     if(hsc->hdmatx != NULL)
 1365              		.loc 1 792 11
 1366 0046 7B68     		ldr	r3, [r7, #4]
 1367 0048 1B6C     		ldr	r3, [r3, #64]
 1368              		.loc 1 792 7
 1369 004a 002B     		cmp	r3, #0
 1370 004c 08D0     		beq	.L58
 793:./Libraries/STM32F4xx_HAL_Driver/Src/stm32f4xx_hal_smartcard.c ****     {
 794:./Libraries/STM32F4xx_HAL_Driver/Src/stm32f4xx_hal_smartcard.c ****       /* Set the SMARTCARD DMA Abort callback to Null. 
 795:./Libraries/STM32F4xx_HAL_Driver/Src/stm32f4xx_hal_smartcard.c ****          No call back execution at end of DMA abort procedure */
 796:./Libraries/STM32F4xx_HAL_Driver/Src/stm32f4xx_hal_smartcard.c ****       hsc->hdmatx->XferAbortCallback = NULL;
 1371              		.loc 1 796 10
 1372 004e 7B68     		ldr	r3, [r7, #4]
 1373 0050 1B6C     		ldr	r3, [r3, #64]
 1374              		.loc 1 796 38
 1375 0052 0022     		movs	r2, #0
 1376 0054 1A65     		str	r2, [r3, #80]
 797:./Libraries/STM32F4xx_HAL_Driver/Src/stm32f4xx_hal_smartcard.c **** 
 798:./Libraries/STM32F4xx_HAL_Driver/Src/stm32f4xx_hal_smartcard.c ****       HAL_DMA_Abort(hsc->hdmatx);
 1377              		.loc 1 798 7
 1378 0056 7B68     		ldr	r3, [r7, #4]
 1379 0058 1B6C     		ldr	r3, [r3, #64]
 1380 005a 1846     		mov	r0, r3
 1381 005c FFF7FEFF 		bl	HAL_DMA_Abort
 1382              	.L58:
 799:./Libraries/STM32F4xx_HAL_Driver/Src/stm32f4xx_hal_smartcard.c ****     }
 800:./Libraries/STM32F4xx_HAL_Driver/Src/stm32f4xx_hal_smartcard.c ****   }
 801:./Libraries/STM32F4xx_HAL_Driver/Src/stm32f4xx_hal_smartcard.c **** 
ARM GAS  /tmp/cc5Yvz5O.s 			page 39


 802:./Libraries/STM32F4xx_HAL_Driver/Src/stm32f4xx_hal_smartcard.c ****   /* Disable the SMARTCARD DMA Rx request if enabled */
 803:./Libraries/STM32F4xx_HAL_Driver/Src/stm32f4xx_hal_smartcard.c ****   if(HAL_IS_BIT_SET(hsc->Instance->CR3, USART_CR3_DMAR))
 1383              		.loc 1 803 6
 1384 0060 7B68     		ldr	r3, [r7, #4]
 1385 0062 1B68     		ldr	r3, [r3]
 1386 0064 5B69     		ldr	r3, [r3, #20]
 1387 0066 03F04003 		and	r3, r3, #64
 1388              		.loc 1 803 5
 1389 006a 002B     		cmp	r3, #0
 1390 006c 14D0     		beq	.L59
 804:./Libraries/STM32F4xx_HAL_Driver/Src/stm32f4xx_hal_smartcard.c ****   {
 805:./Libraries/STM32F4xx_HAL_Driver/Src/stm32f4xx_hal_smartcard.c ****     CLEAR_BIT(hsc->Instance->CR3, USART_CR3_DMAR);
 1391              		.loc 1 805 5
 1392 006e 7B68     		ldr	r3, [r7, #4]
 1393 0070 1B68     		ldr	r3, [r3]
 1394 0072 5A69     		ldr	r2, [r3, #20]
 1395 0074 7B68     		ldr	r3, [r7, #4]
 1396 0076 1B68     		ldr	r3, [r3]
 1397 0078 22F04002 		bic	r2, r2, #64
 1398 007c 5A61     		str	r2, [r3, #20]
 806:./Libraries/STM32F4xx_HAL_Driver/Src/stm32f4xx_hal_smartcard.c **** 
 807:./Libraries/STM32F4xx_HAL_Driver/Src/stm32f4xx_hal_smartcard.c ****     /* Abort the SMARTCARD DMA Rx channel : use blocking DMA Abort API (no callback) */
 808:./Libraries/STM32F4xx_HAL_Driver/Src/stm32f4xx_hal_smartcard.c ****     if(hsc->hdmarx != NULL)
 1399              		.loc 1 808 11
 1400 007e 7B68     		ldr	r3, [r7, #4]
 1401 0080 5B6C     		ldr	r3, [r3, #68]
 1402              		.loc 1 808 7
 1403 0082 002B     		cmp	r3, #0
 1404 0084 08D0     		beq	.L59
 809:./Libraries/STM32F4xx_HAL_Driver/Src/stm32f4xx_hal_smartcard.c ****     {
 810:./Libraries/STM32F4xx_HAL_Driver/Src/stm32f4xx_hal_smartcard.c ****       /* Set the SMARTCARD DMA Abort callback to Null. 
 811:./Libraries/STM32F4xx_HAL_Driver/Src/stm32f4xx_hal_smartcard.c ****          No call back execution at end of DMA abort procedure */
 812:./Libraries/STM32F4xx_HAL_Driver/Src/stm32f4xx_hal_smartcard.c ****       hsc->hdmarx->XferAbortCallback = NULL;
 1405              		.loc 1 812 10
 1406 0086 7B68     		ldr	r3, [r7, #4]
 1407 0088 5B6C     		ldr	r3, [r3, #68]
 1408              		.loc 1 812 38
 1409 008a 0022     		movs	r2, #0
 1410 008c 1A65     		str	r2, [r3, #80]
 813:./Libraries/STM32F4xx_HAL_Driver/Src/stm32f4xx_hal_smartcard.c **** 
 814:./Libraries/STM32F4xx_HAL_Driver/Src/stm32f4xx_hal_smartcard.c ****       HAL_DMA_Abort(hsc->hdmarx);
 1411              		.loc 1 814 7
 1412 008e 7B68     		ldr	r3, [r7, #4]
 1413 0090 5B6C     		ldr	r3, [r3, #68]
 1414 0092 1846     		mov	r0, r3
 1415 0094 FFF7FEFF 		bl	HAL_DMA_Abort
 1416              	.L59:
 815:./Libraries/STM32F4xx_HAL_Driver/Src/stm32f4xx_hal_smartcard.c ****     }
 816:./Libraries/STM32F4xx_HAL_Driver/Src/stm32f4xx_hal_smartcard.c ****   }
 817:./Libraries/STM32F4xx_HAL_Driver/Src/stm32f4xx_hal_smartcard.c **** 
 818:./Libraries/STM32F4xx_HAL_Driver/Src/stm32f4xx_hal_smartcard.c ****   /* Reset Tx and Rx transfer counters */
 819:./Libraries/STM32F4xx_HAL_Driver/Src/stm32f4xx_hal_smartcard.c ****   hsc->TxXferCount = 0x00U;
 1417              		.loc 1 819 20
 1418 0098 7B68     		ldr	r3, [r7, #4]
 1419 009a 0022     		movs	r2, #0
 1420 009c DA86     		strh	r2, [r3, #54]	@ movhi
 820:./Libraries/STM32F4xx_HAL_Driver/Src/stm32f4xx_hal_smartcard.c ****   hsc->RxXferCount = 0x00U;
ARM GAS  /tmp/cc5Yvz5O.s 			page 40


 1421              		.loc 1 820 20
 1422 009e 7B68     		ldr	r3, [r7, #4]
 1423 00a0 0022     		movs	r2, #0
 1424 00a2 DA87     		strh	r2, [r3, #62]	@ movhi
 821:./Libraries/STM32F4xx_HAL_Driver/Src/stm32f4xx_hal_smartcard.c **** 
 822:./Libraries/STM32F4xx_HAL_Driver/Src/stm32f4xx_hal_smartcard.c ****   /* Reset ErrorCode */
 823:./Libraries/STM32F4xx_HAL_Driver/Src/stm32f4xx_hal_smartcard.c ****   hsc->ErrorCode = HAL_SMARTCARD_ERROR_NONE;
 1425              		.loc 1 823 18
 1426 00a4 7B68     		ldr	r3, [r7, #4]
 1427 00a6 0022     		movs	r2, #0
 1428 00a8 DA64     		str	r2, [r3, #76]
 824:./Libraries/STM32F4xx_HAL_Driver/Src/stm32f4xx_hal_smartcard.c **** 
 825:./Libraries/STM32F4xx_HAL_Driver/Src/stm32f4xx_hal_smartcard.c ****   /* Restore hsc->RxState and hsc->gState to Ready */
 826:./Libraries/STM32F4xx_HAL_Driver/Src/stm32f4xx_hal_smartcard.c ****   hsc->RxState = HAL_SMARTCARD_STATE_READY;
 1429              		.loc 1 826 16
 1430 00aa 7B68     		ldr	r3, [r7, #4]
 1431 00ac 2022     		movs	r2, #32
 1432 00ae 83F84A20 		strb	r2, [r3, #74]
 827:./Libraries/STM32F4xx_HAL_Driver/Src/stm32f4xx_hal_smartcard.c ****   hsc->gState = HAL_SMARTCARD_STATE_READY;
 1433              		.loc 1 827 15
 1434 00b2 7B68     		ldr	r3, [r7, #4]
 1435 00b4 2022     		movs	r2, #32
 1436 00b6 83F84920 		strb	r2, [r3, #73]
 828:./Libraries/STM32F4xx_HAL_Driver/Src/stm32f4xx_hal_smartcard.c **** 
 829:./Libraries/STM32F4xx_HAL_Driver/Src/stm32f4xx_hal_smartcard.c ****   return HAL_OK;
 1437              		.loc 1 829 10
 1438 00ba 0023     		movs	r3, #0
 830:./Libraries/STM32F4xx_HAL_Driver/Src/stm32f4xx_hal_smartcard.c **** }
 1439              		.loc 1 830 1
 1440 00bc 1846     		mov	r0, r3
 1441 00be 0837     		adds	r7, r7, #8
 1442              	.LCFI57:
 1443              		.cfi_def_cfa_offset 8
 1444 00c0 BD46     		mov	sp, r7
 1445              	.LCFI58:
 1446              		.cfi_def_cfa_register 13
 1447              		@ sp needed
 1448 00c2 80BD     		pop	{r7, pc}
 1449              		.cfi_endproc
 1450              	.LFE136:
 1452              		.section	.text.HAL_SMARTCARD_AbortTransmit,"ax",%progbits
 1453              		.align	1
 1454              		.global	HAL_SMARTCARD_AbortTransmit
 1455              		.syntax unified
 1456              		.thumb
 1457              		.thumb_func
 1458              		.fpu fpv4-sp-d16
 1460              	HAL_SMARTCARD_AbortTransmit:
 1461              	.LFB137:
 831:./Libraries/STM32F4xx_HAL_Driver/Src/stm32f4xx_hal_smartcard.c **** 
 832:./Libraries/STM32F4xx_HAL_Driver/Src/stm32f4xx_hal_smartcard.c **** /**
 833:./Libraries/STM32F4xx_HAL_Driver/Src/stm32f4xx_hal_smartcard.c ****   * @brief  Abort ongoing Transmit transfer (blocking mode).
 834:./Libraries/STM32F4xx_HAL_Driver/Src/stm32f4xx_hal_smartcard.c ****   * @param  hsc SMARTCARD handle.
 835:./Libraries/STM32F4xx_HAL_Driver/Src/stm32f4xx_hal_smartcard.c ****   * @note   This procedure could be used for aborting any ongoing transfer started in Interrupt or 
 836:./Libraries/STM32F4xx_HAL_Driver/Src/stm32f4xx_hal_smartcard.c ****   *         This procedure performs following operations :
 837:./Libraries/STM32F4xx_HAL_Driver/Src/stm32f4xx_hal_smartcard.c ****   *           - Disable PPP Interrupts
 838:./Libraries/STM32F4xx_HAL_Driver/Src/stm32f4xx_hal_smartcard.c ****   *           - Disable the DMA transfer in the peripheral register (if enabled)
ARM GAS  /tmp/cc5Yvz5O.s 			page 41


 839:./Libraries/STM32F4xx_HAL_Driver/Src/stm32f4xx_hal_smartcard.c ****   *           - Abort DMA transfer by calling HAL_DMA_Abort (in case of transfer in DMA mode)
 840:./Libraries/STM32F4xx_HAL_Driver/Src/stm32f4xx_hal_smartcard.c ****   *           - Set handle State to READY
 841:./Libraries/STM32F4xx_HAL_Driver/Src/stm32f4xx_hal_smartcard.c ****   * @note   This procedure is executed in blocking mode : when exiting function, Abort is considere
 842:./Libraries/STM32F4xx_HAL_Driver/Src/stm32f4xx_hal_smartcard.c ****   * @retval HAL status
 843:./Libraries/STM32F4xx_HAL_Driver/Src/stm32f4xx_hal_smartcard.c **** */
 844:./Libraries/STM32F4xx_HAL_Driver/Src/stm32f4xx_hal_smartcard.c **** HAL_StatusTypeDef HAL_SMARTCARD_AbortTransmit(SMARTCARD_HandleTypeDef *hsc)
 845:./Libraries/STM32F4xx_HAL_Driver/Src/stm32f4xx_hal_smartcard.c **** {
 1462              		.loc 1 845 1
 1463              		.cfi_startproc
 1464              		@ args = 0, pretend = 0, frame = 8
 1465              		@ frame_needed = 1, uses_anonymous_args = 0
 1466 0000 80B5     		push	{r7, lr}
 1467              	.LCFI59:
 1468              		.cfi_def_cfa_offset 8
 1469              		.cfi_offset 7, -8
 1470              		.cfi_offset 14, -4
 1471 0002 82B0     		sub	sp, sp, #8
 1472              	.LCFI60:
 1473              		.cfi_def_cfa_offset 16
 1474 0004 00AF     		add	r7, sp, #0
 1475              	.LCFI61:
 1476              		.cfi_def_cfa_register 7
 1477 0006 7860     		str	r0, [r7, #4]
 846:./Libraries/STM32F4xx_HAL_Driver/Src/stm32f4xx_hal_smartcard.c ****   /* Disable TXEIE and TCIE interrupts */
 847:./Libraries/STM32F4xx_HAL_Driver/Src/stm32f4xx_hal_smartcard.c ****   CLEAR_BIT(hsc->Instance->CR1, (USART_CR1_TXEIE | USART_CR1_TCIE));
 1478              		.loc 1 847 3
 1479 0008 7B68     		ldr	r3, [r7, #4]
 1480 000a 1B68     		ldr	r3, [r3]
 1481 000c DA68     		ldr	r2, [r3, #12]
 1482 000e 7B68     		ldr	r3, [r7, #4]
 1483 0010 1B68     		ldr	r3, [r3]
 1484 0012 22F0C002 		bic	r2, r2, #192
 1485 0016 DA60     		str	r2, [r3, #12]
 848:./Libraries/STM32F4xx_HAL_Driver/Src/stm32f4xx_hal_smartcard.c **** 
 849:./Libraries/STM32F4xx_HAL_Driver/Src/stm32f4xx_hal_smartcard.c ****   /* Disable the SMARTCARD DMA Tx request if enabled */
 850:./Libraries/STM32F4xx_HAL_Driver/Src/stm32f4xx_hal_smartcard.c ****   if(HAL_IS_BIT_SET(hsc->Instance->CR3, USART_CR3_DMAT))
 1486              		.loc 1 850 6
 1487 0018 7B68     		ldr	r3, [r7, #4]
 1488 001a 1B68     		ldr	r3, [r3]
 1489 001c 5B69     		ldr	r3, [r3, #20]
 1490 001e 03F08003 		and	r3, r3, #128
 1491              		.loc 1 850 5
 1492 0022 002B     		cmp	r3, #0
 1493 0024 14D0     		beq	.L62
 851:./Libraries/STM32F4xx_HAL_Driver/Src/stm32f4xx_hal_smartcard.c ****   {
 852:./Libraries/STM32F4xx_HAL_Driver/Src/stm32f4xx_hal_smartcard.c ****     CLEAR_BIT(hsc->Instance->CR3, USART_CR3_DMAT);
 1494              		.loc 1 852 5
 1495 0026 7B68     		ldr	r3, [r7, #4]
 1496 0028 1B68     		ldr	r3, [r3]
 1497 002a 5A69     		ldr	r2, [r3, #20]
 1498 002c 7B68     		ldr	r3, [r7, #4]
 1499 002e 1B68     		ldr	r3, [r3]
 1500 0030 22F08002 		bic	r2, r2, #128
 1501 0034 5A61     		str	r2, [r3, #20]
 853:./Libraries/STM32F4xx_HAL_Driver/Src/stm32f4xx_hal_smartcard.c **** 
 854:./Libraries/STM32F4xx_HAL_Driver/Src/stm32f4xx_hal_smartcard.c ****     /* Abort the SMARTCARD DMA Tx channel : use blocking DMA Abort API (no callback) */
 855:./Libraries/STM32F4xx_HAL_Driver/Src/stm32f4xx_hal_smartcard.c ****     if(hsc->hdmatx != NULL)
ARM GAS  /tmp/cc5Yvz5O.s 			page 42


 1502              		.loc 1 855 11
 1503 0036 7B68     		ldr	r3, [r7, #4]
 1504 0038 1B6C     		ldr	r3, [r3, #64]
 1505              		.loc 1 855 7
 1506 003a 002B     		cmp	r3, #0
 1507 003c 08D0     		beq	.L62
 856:./Libraries/STM32F4xx_HAL_Driver/Src/stm32f4xx_hal_smartcard.c ****     {
 857:./Libraries/STM32F4xx_HAL_Driver/Src/stm32f4xx_hal_smartcard.c ****       /* Set the SMARTCARD DMA Abort callback to Null. 
 858:./Libraries/STM32F4xx_HAL_Driver/Src/stm32f4xx_hal_smartcard.c ****          No call back execution at end of DMA abort procedure */
 859:./Libraries/STM32F4xx_HAL_Driver/Src/stm32f4xx_hal_smartcard.c ****       hsc->hdmatx->XferAbortCallback = NULL;
 1508              		.loc 1 859 10
 1509 003e 7B68     		ldr	r3, [r7, #4]
 1510 0040 1B6C     		ldr	r3, [r3, #64]
 1511              		.loc 1 859 38
 1512 0042 0022     		movs	r2, #0
 1513 0044 1A65     		str	r2, [r3, #80]
 860:./Libraries/STM32F4xx_HAL_Driver/Src/stm32f4xx_hal_smartcard.c **** 
 861:./Libraries/STM32F4xx_HAL_Driver/Src/stm32f4xx_hal_smartcard.c ****       HAL_DMA_Abort(hsc->hdmatx);
 1514              		.loc 1 861 7
 1515 0046 7B68     		ldr	r3, [r7, #4]
 1516 0048 1B6C     		ldr	r3, [r3, #64]
 1517 004a 1846     		mov	r0, r3
 1518 004c FFF7FEFF 		bl	HAL_DMA_Abort
 1519              	.L62:
 862:./Libraries/STM32F4xx_HAL_Driver/Src/stm32f4xx_hal_smartcard.c ****     }
 863:./Libraries/STM32F4xx_HAL_Driver/Src/stm32f4xx_hal_smartcard.c ****   }
 864:./Libraries/STM32F4xx_HAL_Driver/Src/stm32f4xx_hal_smartcard.c **** 
 865:./Libraries/STM32F4xx_HAL_Driver/Src/stm32f4xx_hal_smartcard.c ****   /* Reset Tx transfer counter */
 866:./Libraries/STM32F4xx_HAL_Driver/Src/stm32f4xx_hal_smartcard.c ****   hsc->TxXferCount = 0x00U;
 1520              		.loc 1 866 20
 1521 0050 7B68     		ldr	r3, [r7, #4]
 1522 0052 0022     		movs	r2, #0
 1523 0054 DA86     		strh	r2, [r3, #54]	@ movhi
 867:./Libraries/STM32F4xx_HAL_Driver/Src/stm32f4xx_hal_smartcard.c **** 
 868:./Libraries/STM32F4xx_HAL_Driver/Src/stm32f4xx_hal_smartcard.c ****   /* Restore hsc->gState to Ready */
 869:./Libraries/STM32F4xx_HAL_Driver/Src/stm32f4xx_hal_smartcard.c ****   hsc->gState = HAL_SMARTCARD_STATE_READY;
 1524              		.loc 1 869 15
 1525 0056 7B68     		ldr	r3, [r7, #4]
 1526 0058 2022     		movs	r2, #32
 1527 005a 83F84920 		strb	r2, [r3, #73]
 870:./Libraries/STM32F4xx_HAL_Driver/Src/stm32f4xx_hal_smartcard.c **** 
 871:./Libraries/STM32F4xx_HAL_Driver/Src/stm32f4xx_hal_smartcard.c ****   return HAL_OK;
 1528              		.loc 1 871 10
 1529 005e 0023     		movs	r3, #0
 872:./Libraries/STM32F4xx_HAL_Driver/Src/stm32f4xx_hal_smartcard.c **** }
 1530              		.loc 1 872 1
 1531 0060 1846     		mov	r0, r3
 1532 0062 0837     		adds	r7, r7, #8
 1533              	.LCFI62:
 1534              		.cfi_def_cfa_offset 8
 1535 0064 BD46     		mov	sp, r7
 1536              	.LCFI63:
 1537              		.cfi_def_cfa_register 13
 1538              		@ sp needed
 1539 0066 80BD     		pop	{r7, pc}
 1540              		.cfi_endproc
 1541              	.LFE137:
ARM GAS  /tmp/cc5Yvz5O.s 			page 43


 1543              		.section	.text.HAL_SMARTCARD_AbortReceive,"ax",%progbits
 1544              		.align	1
 1545              		.global	HAL_SMARTCARD_AbortReceive
 1546              		.syntax unified
 1547              		.thumb
 1548              		.thumb_func
 1549              		.fpu fpv4-sp-d16
 1551              	HAL_SMARTCARD_AbortReceive:
 1552              	.LFB138:
 873:./Libraries/STM32F4xx_HAL_Driver/Src/stm32f4xx_hal_smartcard.c **** 
 874:./Libraries/STM32F4xx_HAL_Driver/Src/stm32f4xx_hal_smartcard.c **** /**
 875:./Libraries/STM32F4xx_HAL_Driver/Src/stm32f4xx_hal_smartcard.c ****   * @brief  Abort ongoing Receive transfer (blocking mode).
 876:./Libraries/STM32F4xx_HAL_Driver/Src/stm32f4xx_hal_smartcard.c ****   * @param  hsc SMARTCARD handle.
 877:./Libraries/STM32F4xx_HAL_Driver/Src/stm32f4xx_hal_smartcard.c ****   * @note   This procedure could be used for aborting any ongoing transfer started in Interrupt or 
 878:./Libraries/STM32F4xx_HAL_Driver/Src/stm32f4xx_hal_smartcard.c ****   *         This procedure performs following operations :
 879:./Libraries/STM32F4xx_HAL_Driver/Src/stm32f4xx_hal_smartcard.c ****   *           - Disable PPP Interrupts
 880:./Libraries/STM32F4xx_HAL_Driver/Src/stm32f4xx_hal_smartcard.c ****   *           - Disable the DMA transfer in the peripheral register (if enabled)
 881:./Libraries/STM32F4xx_HAL_Driver/Src/stm32f4xx_hal_smartcard.c ****   *           - Abort DMA transfer by calling HAL_DMA_Abort (in case of transfer in DMA mode)
 882:./Libraries/STM32F4xx_HAL_Driver/Src/stm32f4xx_hal_smartcard.c ****   *           - Set handle State to READY
 883:./Libraries/STM32F4xx_HAL_Driver/Src/stm32f4xx_hal_smartcard.c ****   * @note   This procedure is executed in blocking mode : when exiting function, Abort is considere
 884:./Libraries/STM32F4xx_HAL_Driver/Src/stm32f4xx_hal_smartcard.c ****   * @retval HAL status
 885:./Libraries/STM32F4xx_HAL_Driver/Src/stm32f4xx_hal_smartcard.c **** */
 886:./Libraries/STM32F4xx_HAL_Driver/Src/stm32f4xx_hal_smartcard.c **** HAL_StatusTypeDef HAL_SMARTCARD_AbortReceive(SMARTCARD_HandleTypeDef *hsc)
 887:./Libraries/STM32F4xx_HAL_Driver/Src/stm32f4xx_hal_smartcard.c **** {
 1553              		.loc 1 887 1
 1554              		.cfi_startproc
 1555              		@ args = 0, pretend = 0, frame = 8
 1556              		@ frame_needed = 1, uses_anonymous_args = 0
 1557 0000 80B5     		push	{r7, lr}
 1558              	.LCFI64:
 1559              		.cfi_def_cfa_offset 8
 1560              		.cfi_offset 7, -8
 1561              		.cfi_offset 14, -4
 1562 0002 82B0     		sub	sp, sp, #8
 1563              	.LCFI65:
 1564              		.cfi_def_cfa_offset 16
 1565 0004 00AF     		add	r7, sp, #0
 1566              	.LCFI66:
 1567              		.cfi_def_cfa_register 7
 1568 0006 7860     		str	r0, [r7, #4]
 888:./Libraries/STM32F4xx_HAL_Driver/Src/stm32f4xx_hal_smartcard.c ****   /* Disable RXNE, PE and ERR (Frame error, noise error, overrun error) interrupts */
 889:./Libraries/STM32F4xx_HAL_Driver/Src/stm32f4xx_hal_smartcard.c ****   CLEAR_BIT(hsc->Instance->CR1, (USART_CR1_RXNEIE | USART_CR1_PEIE));
 1569              		.loc 1 889 3
 1570 0008 7B68     		ldr	r3, [r7, #4]
 1571 000a 1B68     		ldr	r3, [r3]
 1572 000c DA68     		ldr	r2, [r3, #12]
 1573 000e 7B68     		ldr	r3, [r7, #4]
 1574 0010 1B68     		ldr	r3, [r3]
 1575 0012 22F49072 		bic	r2, r2, #288
 1576 0016 DA60     		str	r2, [r3, #12]
 890:./Libraries/STM32F4xx_HAL_Driver/Src/stm32f4xx_hal_smartcard.c ****   CLEAR_BIT(hsc->Instance->CR3, USART_CR3_EIE);
 1577              		.loc 1 890 3
 1578 0018 7B68     		ldr	r3, [r7, #4]
 1579 001a 1B68     		ldr	r3, [r3]
 1580 001c 5A69     		ldr	r2, [r3, #20]
 1581 001e 7B68     		ldr	r3, [r7, #4]
 1582 0020 1B68     		ldr	r3, [r3]
ARM GAS  /tmp/cc5Yvz5O.s 			page 44


 1583 0022 22F00102 		bic	r2, r2, #1
 1584 0026 5A61     		str	r2, [r3, #20]
 891:./Libraries/STM32F4xx_HAL_Driver/Src/stm32f4xx_hal_smartcard.c **** 
 892:./Libraries/STM32F4xx_HAL_Driver/Src/stm32f4xx_hal_smartcard.c ****   /* Disable the SMARTCARD DMA Rx request if enabled */
 893:./Libraries/STM32F4xx_HAL_Driver/Src/stm32f4xx_hal_smartcard.c ****   if(HAL_IS_BIT_SET(hsc->Instance->CR3, USART_CR3_DMAR))
 1585              		.loc 1 893 6
 1586 0028 7B68     		ldr	r3, [r7, #4]
 1587 002a 1B68     		ldr	r3, [r3]
 1588 002c 5B69     		ldr	r3, [r3, #20]
 1589 002e 03F04003 		and	r3, r3, #64
 1590              		.loc 1 893 5
 1591 0032 002B     		cmp	r3, #0
 1592 0034 14D0     		beq	.L65
 894:./Libraries/STM32F4xx_HAL_Driver/Src/stm32f4xx_hal_smartcard.c ****   {
 895:./Libraries/STM32F4xx_HAL_Driver/Src/stm32f4xx_hal_smartcard.c ****     CLEAR_BIT(hsc->Instance->CR3, USART_CR3_DMAR);
 1593              		.loc 1 895 5
 1594 0036 7B68     		ldr	r3, [r7, #4]
 1595 0038 1B68     		ldr	r3, [r3]
 1596 003a 5A69     		ldr	r2, [r3, #20]
 1597 003c 7B68     		ldr	r3, [r7, #4]
 1598 003e 1B68     		ldr	r3, [r3]
 1599 0040 22F04002 		bic	r2, r2, #64
 1600 0044 5A61     		str	r2, [r3, #20]
 896:./Libraries/STM32F4xx_HAL_Driver/Src/stm32f4xx_hal_smartcard.c **** 
 897:./Libraries/STM32F4xx_HAL_Driver/Src/stm32f4xx_hal_smartcard.c ****     /* Abort the SMARTCARD DMA Rx channel : use blocking DMA Abort API (no callback) */
 898:./Libraries/STM32F4xx_HAL_Driver/Src/stm32f4xx_hal_smartcard.c ****     if(hsc->hdmarx != NULL)
 1601              		.loc 1 898 11
 1602 0046 7B68     		ldr	r3, [r7, #4]
 1603 0048 5B6C     		ldr	r3, [r3, #68]
 1604              		.loc 1 898 7
 1605 004a 002B     		cmp	r3, #0
 1606 004c 08D0     		beq	.L65
 899:./Libraries/STM32F4xx_HAL_Driver/Src/stm32f4xx_hal_smartcard.c ****     {
 900:./Libraries/STM32F4xx_HAL_Driver/Src/stm32f4xx_hal_smartcard.c ****       /* Set the SMARTCARD DMA Abort callback to Null. 
 901:./Libraries/STM32F4xx_HAL_Driver/Src/stm32f4xx_hal_smartcard.c ****          No call back execution at end of DMA abort procedure */
 902:./Libraries/STM32F4xx_HAL_Driver/Src/stm32f4xx_hal_smartcard.c ****       hsc->hdmarx->XferAbortCallback = NULL;
 1607              		.loc 1 902 10
 1608 004e 7B68     		ldr	r3, [r7, #4]
 1609 0050 5B6C     		ldr	r3, [r3, #68]
 1610              		.loc 1 902 38
 1611 0052 0022     		movs	r2, #0
 1612 0054 1A65     		str	r2, [r3, #80]
 903:./Libraries/STM32F4xx_HAL_Driver/Src/stm32f4xx_hal_smartcard.c **** 
 904:./Libraries/STM32F4xx_HAL_Driver/Src/stm32f4xx_hal_smartcard.c ****       HAL_DMA_Abort(hsc->hdmarx);
 1613              		.loc 1 904 7
 1614 0056 7B68     		ldr	r3, [r7, #4]
 1615 0058 5B6C     		ldr	r3, [r3, #68]
 1616 005a 1846     		mov	r0, r3
 1617 005c FFF7FEFF 		bl	HAL_DMA_Abort
 1618              	.L65:
 905:./Libraries/STM32F4xx_HAL_Driver/Src/stm32f4xx_hal_smartcard.c ****     }
 906:./Libraries/STM32F4xx_HAL_Driver/Src/stm32f4xx_hal_smartcard.c ****   }
 907:./Libraries/STM32F4xx_HAL_Driver/Src/stm32f4xx_hal_smartcard.c **** 
 908:./Libraries/STM32F4xx_HAL_Driver/Src/stm32f4xx_hal_smartcard.c ****   /* Reset Rx transfer counter */
 909:./Libraries/STM32F4xx_HAL_Driver/Src/stm32f4xx_hal_smartcard.c ****   hsc->RxXferCount = 0x00U;
 1619              		.loc 1 909 20
 1620 0060 7B68     		ldr	r3, [r7, #4]
ARM GAS  /tmp/cc5Yvz5O.s 			page 45


 1621 0062 0022     		movs	r2, #0
 1622 0064 DA87     		strh	r2, [r3, #62]	@ movhi
 910:./Libraries/STM32F4xx_HAL_Driver/Src/stm32f4xx_hal_smartcard.c **** 
 911:./Libraries/STM32F4xx_HAL_Driver/Src/stm32f4xx_hal_smartcard.c ****   /* Restore hsc->RxState to Ready */
 912:./Libraries/STM32F4xx_HAL_Driver/Src/stm32f4xx_hal_smartcard.c ****   hsc->RxState = HAL_SMARTCARD_STATE_READY;
 1623              		.loc 1 912 16
 1624 0066 7B68     		ldr	r3, [r7, #4]
 1625 0068 2022     		movs	r2, #32
 1626 006a 83F84A20 		strb	r2, [r3, #74]
 913:./Libraries/STM32F4xx_HAL_Driver/Src/stm32f4xx_hal_smartcard.c **** 
 914:./Libraries/STM32F4xx_HAL_Driver/Src/stm32f4xx_hal_smartcard.c ****   return HAL_OK;
 1627              		.loc 1 914 10
 1628 006e 0023     		movs	r3, #0
 915:./Libraries/STM32F4xx_HAL_Driver/Src/stm32f4xx_hal_smartcard.c **** }
 1629              		.loc 1 915 1
 1630 0070 1846     		mov	r0, r3
 1631 0072 0837     		adds	r7, r7, #8
 1632              	.LCFI67:
 1633              		.cfi_def_cfa_offset 8
 1634 0074 BD46     		mov	sp, r7
 1635              	.LCFI68:
 1636              		.cfi_def_cfa_register 13
 1637              		@ sp needed
 1638 0076 80BD     		pop	{r7, pc}
 1639              		.cfi_endproc
 1640              	.LFE138:
 1642              		.section	.text.HAL_SMARTCARD_Abort_IT,"ax",%progbits
 1643              		.align	1
 1644              		.global	HAL_SMARTCARD_Abort_IT
 1645              		.syntax unified
 1646              		.thumb
 1647              		.thumb_func
 1648              		.fpu fpv4-sp-d16
 1650              	HAL_SMARTCARD_Abort_IT:
 1651              	.LFB139:
 916:./Libraries/STM32F4xx_HAL_Driver/Src/stm32f4xx_hal_smartcard.c **** 
 917:./Libraries/STM32F4xx_HAL_Driver/Src/stm32f4xx_hal_smartcard.c **** /**
 918:./Libraries/STM32F4xx_HAL_Driver/Src/stm32f4xx_hal_smartcard.c ****   * @brief  Abort ongoing transfers (Interrupt mode).
 919:./Libraries/STM32F4xx_HAL_Driver/Src/stm32f4xx_hal_smartcard.c ****   * @param  hsc SMARTCARD handle.
 920:./Libraries/STM32F4xx_HAL_Driver/Src/stm32f4xx_hal_smartcard.c ****   * @note   This procedure could be used for aborting any ongoing transfer started in Interrupt or 
 921:./Libraries/STM32F4xx_HAL_Driver/Src/stm32f4xx_hal_smartcard.c ****   *         This procedure performs following operations :
 922:./Libraries/STM32F4xx_HAL_Driver/Src/stm32f4xx_hal_smartcard.c ****   *           - Disable PPP Interrupts
 923:./Libraries/STM32F4xx_HAL_Driver/Src/stm32f4xx_hal_smartcard.c ****   *           - Disable the DMA transfer in the peripheral register (if enabled)
 924:./Libraries/STM32F4xx_HAL_Driver/Src/stm32f4xx_hal_smartcard.c ****   *           - Abort DMA transfer by calling HAL_DMA_Abort_IT (in case of transfer in DMA mode)
 925:./Libraries/STM32F4xx_HAL_Driver/Src/stm32f4xx_hal_smartcard.c ****   *           - Set handle State to READY
 926:./Libraries/STM32F4xx_HAL_Driver/Src/stm32f4xx_hal_smartcard.c ****   *           - At abort completion, call user abort complete callback
 927:./Libraries/STM32F4xx_HAL_Driver/Src/stm32f4xx_hal_smartcard.c ****   * @note   This procedure is executed in Interrupt mode, meaning that abort procedure could be
 928:./Libraries/STM32F4xx_HAL_Driver/Src/stm32f4xx_hal_smartcard.c ****   *         considered as completed only when user abort complete callback is executed (not when ex
 929:./Libraries/STM32F4xx_HAL_Driver/Src/stm32f4xx_hal_smartcard.c ****   * @retval HAL status
 930:./Libraries/STM32F4xx_HAL_Driver/Src/stm32f4xx_hal_smartcard.c **** */
 931:./Libraries/STM32F4xx_HAL_Driver/Src/stm32f4xx_hal_smartcard.c **** HAL_StatusTypeDef HAL_SMARTCARD_Abort_IT(SMARTCARD_HandleTypeDef *hsc)
 932:./Libraries/STM32F4xx_HAL_Driver/Src/stm32f4xx_hal_smartcard.c **** {
 1652              		.loc 1 932 1
 1653              		.cfi_startproc
 1654              		@ args = 0, pretend = 0, frame = 16
 1655              		@ frame_needed = 1, uses_anonymous_args = 0
 1656 0000 80B5     		push	{r7, lr}
ARM GAS  /tmp/cc5Yvz5O.s 			page 46


 1657              	.LCFI69:
 1658              		.cfi_def_cfa_offset 8
 1659              		.cfi_offset 7, -8
 1660              		.cfi_offset 14, -4
 1661 0002 84B0     		sub	sp, sp, #16
 1662              	.LCFI70:
 1663              		.cfi_def_cfa_offset 24
 1664 0004 00AF     		add	r7, sp, #0
 1665              	.LCFI71:
 1666              		.cfi_def_cfa_register 7
 1667 0006 7860     		str	r0, [r7, #4]
 933:./Libraries/STM32F4xx_HAL_Driver/Src/stm32f4xx_hal_smartcard.c ****   uint32_t AbortCplt = 0x01U;
 1668              		.loc 1 933 12
 1669 0008 0123     		movs	r3, #1
 1670 000a FB60     		str	r3, [r7, #12]
 934:./Libraries/STM32F4xx_HAL_Driver/Src/stm32f4xx_hal_smartcard.c **** 
 935:./Libraries/STM32F4xx_HAL_Driver/Src/stm32f4xx_hal_smartcard.c ****   /* Disable TXEIE, TCIE, RXNE, PE and ERR (Frame error, noise error, overrun error) interrupts */
 936:./Libraries/STM32F4xx_HAL_Driver/Src/stm32f4xx_hal_smartcard.c ****   CLEAR_BIT(hsc->Instance->CR1, (USART_CR1_RXNEIE | USART_CR1_PEIE | USART_CR1_TXEIE | USART_CR1_TC
 1671              		.loc 1 936 3
 1672 000c 7B68     		ldr	r3, [r7, #4]
 1673 000e 1B68     		ldr	r3, [r3]
 1674 0010 DA68     		ldr	r2, [r3, #12]
 1675 0012 7B68     		ldr	r3, [r7, #4]
 1676 0014 1B68     		ldr	r3, [r3]
 1677 0016 22F4F072 		bic	r2, r2, #480
 1678 001a DA60     		str	r2, [r3, #12]
 937:./Libraries/STM32F4xx_HAL_Driver/Src/stm32f4xx_hal_smartcard.c ****   CLEAR_BIT(hsc->Instance->CR3, USART_CR3_EIE);
 1679              		.loc 1 937 3
 1680 001c 7B68     		ldr	r3, [r7, #4]
 1681 001e 1B68     		ldr	r3, [r3]
 1682 0020 5A69     		ldr	r2, [r3, #20]
 1683 0022 7B68     		ldr	r3, [r7, #4]
 1684 0024 1B68     		ldr	r3, [r3]
 1685 0026 22F00102 		bic	r2, r2, #1
 1686 002a 5A61     		str	r2, [r3, #20]
 938:./Libraries/STM32F4xx_HAL_Driver/Src/stm32f4xx_hal_smartcard.c **** 
 939:./Libraries/STM32F4xx_HAL_Driver/Src/stm32f4xx_hal_smartcard.c ****   /* If DMA Tx and/or DMA Rx Handles are associated to SMARTCARD Handle, DMA Abort complete callbac
 940:./Libraries/STM32F4xx_HAL_Driver/Src/stm32f4xx_hal_smartcard.c ****      before any call to DMA Abort functions */
 941:./Libraries/STM32F4xx_HAL_Driver/Src/stm32f4xx_hal_smartcard.c ****   /* DMA Tx Handle is valid */
 942:./Libraries/STM32F4xx_HAL_Driver/Src/stm32f4xx_hal_smartcard.c ****   if(hsc->hdmatx != NULL)
 1687              		.loc 1 942 9
 1688 002c 7B68     		ldr	r3, [r7, #4]
 1689 002e 1B6C     		ldr	r3, [r3, #64]
 1690              		.loc 1 942 5
 1691 0030 002B     		cmp	r3, #0
 1692 0032 0FD0     		beq	.L68
 943:./Libraries/STM32F4xx_HAL_Driver/Src/stm32f4xx_hal_smartcard.c ****   {
 944:./Libraries/STM32F4xx_HAL_Driver/Src/stm32f4xx_hal_smartcard.c ****     /* Set DMA Abort Complete callback if SMARTCARD DMA Tx request if enabled.
 945:./Libraries/STM32F4xx_HAL_Driver/Src/stm32f4xx_hal_smartcard.c ****        Otherwise, set it to NULL */
 946:./Libraries/STM32F4xx_HAL_Driver/Src/stm32f4xx_hal_smartcard.c ****     if(HAL_IS_BIT_SET(hsc->Instance->CR3, USART_CR3_DMAT))
 1693              		.loc 1 946 8
 1694 0034 7B68     		ldr	r3, [r7, #4]
 1695 0036 1B68     		ldr	r3, [r3]
 1696 0038 5B69     		ldr	r3, [r3, #20]
 1697 003a 03F08003 		and	r3, r3, #128
 1698              		.loc 1 946 7
 1699 003e 002B     		cmp	r3, #0
ARM GAS  /tmp/cc5Yvz5O.s 			page 47


 1700 0040 04D0     		beq	.L69
 947:./Libraries/STM32F4xx_HAL_Driver/Src/stm32f4xx_hal_smartcard.c ****     {
 948:./Libraries/STM32F4xx_HAL_Driver/Src/stm32f4xx_hal_smartcard.c ****       hsc->hdmatx->XferAbortCallback = SMARTCARD_DMATxAbortCallback;
 1701              		.loc 1 948 10
 1702 0042 7B68     		ldr	r3, [r7, #4]
 1703 0044 1B6C     		ldr	r3, [r3, #64]
 1704              		.loc 1 948 38
 1705 0046 3E4A     		ldr	r2, .L78
 1706 0048 1A65     		str	r2, [r3, #80]
 1707 004a 03E0     		b	.L68
 1708              	.L69:
 949:./Libraries/STM32F4xx_HAL_Driver/Src/stm32f4xx_hal_smartcard.c ****     }
 950:./Libraries/STM32F4xx_HAL_Driver/Src/stm32f4xx_hal_smartcard.c ****     else
 951:./Libraries/STM32F4xx_HAL_Driver/Src/stm32f4xx_hal_smartcard.c ****     {
 952:./Libraries/STM32F4xx_HAL_Driver/Src/stm32f4xx_hal_smartcard.c ****       hsc->hdmatx->XferAbortCallback = NULL;
 1709              		.loc 1 952 10
 1710 004c 7B68     		ldr	r3, [r7, #4]
 1711 004e 1B6C     		ldr	r3, [r3, #64]
 1712              		.loc 1 952 38
 1713 0050 0022     		movs	r2, #0
 1714 0052 1A65     		str	r2, [r3, #80]
 1715              	.L68:
 953:./Libraries/STM32F4xx_HAL_Driver/Src/stm32f4xx_hal_smartcard.c ****     }
 954:./Libraries/STM32F4xx_HAL_Driver/Src/stm32f4xx_hal_smartcard.c ****   }
 955:./Libraries/STM32F4xx_HAL_Driver/Src/stm32f4xx_hal_smartcard.c ****   /* DMA Rx Handle is valid */
 956:./Libraries/STM32F4xx_HAL_Driver/Src/stm32f4xx_hal_smartcard.c ****   if(hsc->hdmarx != NULL)
 1716              		.loc 1 956 9
 1717 0054 7B68     		ldr	r3, [r7, #4]
 1718 0056 5B6C     		ldr	r3, [r3, #68]
 1719              		.loc 1 956 5
 1720 0058 002B     		cmp	r3, #0
 1721 005a 0FD0     		beq	.L70
 957:./Libraries/STM32F4xx_HAL_Driver/Src/stm32f4xx_hal_smartcard.c ****   {
 958:./Libraries/STM32F4xx_HAL_Driver/Src/stm32f4xx_hal_smartcard.c ****     /* Set DMA Abort Complete callback if SMARTCARD DMA Rx request if enabled.
 959:./Libraries/STM32F4xx_HAL_Driver/Src/stm32f4xx_hal_smartcard.c ****        Otherwise, set it to NULL */
 960:./Libraries/STM32F4xx_HAL_Driver/Src/stm32f4xx_hal_smartcard.c ****     if(HAL_IS_BIT_SET(hsc->Instance->CR3, USART_CR3_DMAR))
 1722              		.loc 1 960 8
 1723 005c 7B68     		ldr	r3, [r7, #4]
 1724 005e 1B68     		ldr	r3, [r3]
 1725 0060 5B69     		ldr	r3, [r3, #20]
 1726 0062 03F04003 		and	r3, r3, #64
 1727              		.loc 1 960 7
 1728 0066 002B     		cmp	r3, #0
 1729 0068 04D0     		beq	.L71
 961:./Libraries/STM32F4xx_HAL_Driver/Src/stm32f4xx_hal_smartcard.c ****     {
 962:./Libraries/STM32F4xx_HAL_Driver/Src/stm32f4xx_hal_smartcard.c ****       hsc->hdmarx->XferAbortCallback = SMARTCARD_DMARxAbortCallback;
 1730              		.loc 1 962 10
 1731 006a 7B68     		ldr	r3, [r7, #4]
 1732 006c 5B6C     		ldr	r3, [r3, #68]
 1733              		.loc 1 962 38
 1734 006e 354A     		ldr	r2, .L78+4
 1735 0070 1A65     		str	r2, [r3, #80]
 1736 0072 03E0     		b	.L70
 1737              	.L71:
 963:./Libraries/STM32F4xx_HAL_Driver/Src/stm32f4xx_hal_smartcard.c ****     }
 964:./Libraries/STM32F4xx_HAL_Driver/Src/stm32f4xx_hal_smartcard.c ****     else
 965:./Libraries/STM32F4xx_HAL_Driver/Src/stm32f4xx_hal_smartcard.c ****     {
ARM GAS  /tmp/cc5Yvz5O.s 			page 48


 966:./Libraries/STM32F4xx_HAL_Driver/Src/stm32f4xx_hal_smartcard.c ****       hsc->hdmarx->XferAbortCallback = NULL;
 1738              		.loc 1 966 10
 1739 0074 7B68     		ldr	r3, [r7, #4]
 1740 0076 5B6C     		ldr	r3, [r3, #68]
 1741              		.loc 1 966 38
 1742 0078 0022     		movs	r2, #0
 1743 007a 1A65     		str	r2, [r3, #80]
 1744              	.L70:
 967:./Libraries/STM32F4xx_HAL_Driver/Src/stm32f4xx_hal_smartcard.c ****     }
 968:./Libraries/STM32F4xx_HAL_Driver/Src/stm32f4xx_hal_smartcard.c ****   }
 969:./Libraries/STM32F4xx_HAL_Driver/Src/stm32f4xx_hal_smartcard.c **** 
 970:./Libraries/STM32F4xx_HAL_Driver/Src/stm32f4xx_hal_smartcard.c ****   /* Disable the SMARTCARD DMA Tx request if enabled */
 971:./Libraries/STM32F4xx_HAL_Driver/Src/stm32f4xx_hal_smartcard.c ****   if(HAL_IS_BIT_SET(hsc->Instance->CR3, USART_CR3_DMAT))
 1745              		.loc 1 971 6
 1746 007c 7B68     		ldr	r3, [r7, #4]
 1747 007e 1B68     		ldr	r3, [r3]
 1748 0080 5B69     		ldr	r3, [r3, #20]
 1749 0082 03F08003 		and	r3, r3, #128
 1750              		.loc 1 971 5
 1751 0086 002B     		cmp	r3, #0
 1752 0088 1AD0     		beq	.L72
 972:./Libraries/STM32F4xx_HAL_Driver/Src/stm32f4xx_hal_smartcard.c ****   {
 973:./Libraries/STM32F4xx_HAL_Driver/Src/stm32f4xx_hal_smartcard.c ****     /* Disable DMA Tx at SMARTCARD level */
 974:./Libraries/STM32F4xx_HAL_Driver/Src/stm32f4xx_hal_smartcard.c ****     CLEAR_BIT(hsc->Instance->CR3, USART_CR3_DMAT);
 1753              		.loc 1 974 5
 1754 008a 7B68     		ldr	r3, [r7, #4]
 1755 008c 1B68     		ldr	r3, [r3]
 1756 008e 5A69     		ldr	r2, [r3, #20]
 1757 0090 7B68     		ldr	r3, [r7, #4]
 1758 0092 1B68     		ldr	r3, [r3]
 1759 0094 22F08002 		bic	r2, r2, #128
 1760 0098 5A61     		str	r2, [r3, #20]
 975:./Libraries/STM32F4xx_HAL_Driver/Src/stm32f4xx_hal_smartcard.c **** 
 976:./Libraries/STM32F4xx_HAL_Driver/Src/stm32f4xx_hal_smartcard.c ****     /* Abort the SMARTCARD DMA Tx channel : use non blocking DMA Abort API (callback) */
 977:./Libraries/STM32F4xx_HAL_Driver/Src/stm32f4xx_hal_smartcard.c ****     if(hsc->hdmatx != NULL)
 1761              		.loc 1 977 11
 1762 009a 7B68     		ldr	r3, [r7, #4]
 1763 009c 1B6C     		ldr	r3, [r3, #64]
 1764              		.loc 1 977 7
 1765 009e 002B     		cmp	r3, #0
 1766 00a0 0ED0     		beq	.L72
 978:./Libraries/STM32F4xx_HAL_Driver/Src/stm32f4xx_hal_smartcard.c ****     {
 979:./Libraries/STM32F4xx_HAL_Driver/Src/stm32f4xx_hal_smartcard.c ****       /* SMARTCARD Tx DMA Abort callback has already been initialised : 
 980:./Libraries/STM32F4xx_HAL_Driver/Src/stm32f4xx_hal_smartcard.c ****          will lead to call HAL_SMARTCARD_AbortCpltCallback() at end of DMA abort procedure */
 981:./Libraries/STM32F4xx_HAL_Driver/Src/stm32f4xx_hal_smartcard.c **** 
 982:./Libraries/STM32F4xx_HAL_Driver/Src/stm32f4xx_hal_smartcard.c ****       /* Abort DMA TX */
 983:./Libraries/STM32F4xx_HAL_Driver/Src/stm32f4xx_hal_smartcard.c ****       if(HAL_DMA_Abort_IT(hsc->hdmatx) != HAL_OK)
 1767              		.loc 1 983 10
 1768 00a2 7B68     		ldr	r3, [r7, #4]
 1769 00a4 1B6C     		ldr	r3, [r3, #64]
 1770 00a6 1846     		mov	r0, r3
 1771 00a8 FFF7FEFF 		bl	HAL_DMA_Abort_IT
 1772 00ac 0346     		mov	r3, r0
 1773              		.loc 1 983 9
 1774 00ae 002B     		cmp	r3, #0
 1775 00b0 04D0     		beq	.L73
 984:./Libraries/STM32F4xx_HAL_Driver/Src/stm32f4xx_hal_smartcard.c ****       {
ARM GAS  /tmp/cc5Yvz5O.s 			page 49


 985:./Libraries/STM32F4xx_HAL_Driver/Src/stm32f4xx_hal_smartcard.c ****         hsc->hdmatx->XferAbortCallback = NULL;
 1776              		.loc 1 985 12
 1777 00b2 7B68     		ldr	r3, [r7, #4]
 1778 00b4 1B6C     		ldr	r3, [r3, #64]
 1779              		.loc 1 985 40
 1780 00b6 0022     		movs	r2, #0
 1781 00b8 1A65     		str	r2, [r3, #80]
 1782 00ba 01E0     		b	.L72
 1783              	.L73:
 986:./Libraries/STM32F4xx_HAL_Driver/Src/stm32f4xx_hal_smartcard.c ****       }
 987:./Libraries/STM32F4xx_HAL_Driver/Src/stm32f4xx_hal_smartcard.c ****       else
 988:./Libraries/STM32F4xx_HAL_Driver/Src/stm32f4xx_hal_smartcard.c ****       {
 989:./Libraries/STM32F4xx_HAL_Driver/Src/stm32f4xx_hal_smartcard.c ****         AbortCplt = 0x00U;
 1784              		.loc 1 989 19
 1785 00bc 0023     		movs	r3, #0
 1786 00be FB60     		str	r3, [r7, #12]
 1787              	.L72:
 990:./Libraries/STM32F4xx_HAL_Driver/Src/stm32f4xx_hal_smartcard.c ****       }
 991:./Libraries/STM32F4xx_HAL_Driver/Src/stm32f4xx_hal_smartcard.c ****     }
 992:./Libraries/STM32F4xx_HAL_Driver/Src/stm32f4xx_hal_smartcard.c ****   }
 993:./Libraries/STM32F4xx_HAL_Driver/Src/stm32f4xx_hal_smartcard.c **** 
 994:./Libraries/STM32F4xx_HAL_Driver/Src/stm32f4xx_hal_smartcard.c ****   /* Disable the SMARTCARD DMA Rx request if enabled */
 995:./Libraries/STM32F4xx_HAL_Driver/Src/stm32f4xx_hal_smartcard.c ****   if(HAL_IS_BIT_SET(hsc->Instance->CR3, USART_CR3_DMAR))
 1788              		.loc 1 995 6
 1789 00c0 7B68     		ldr	r3, [r7, #4]
 1790 00c2 1B68     		ldr	r3, [r3]
 1791 00c4 5B69     		ldr	r3, [r3, #20]
 1792 00c6 03F04003 		and	r3, r3, #64
 1793              		.loc 1 995 5
 1794 00ca 002B     		cmp	r3, #0
 1795 00cc 1CD0     		beq	.L74
 996:./Libraries/STM32F4xx_HAL_Driver/Src/stm32f4xx_hal_smartcard.c ****   {
 997:./Libraries/STM32F4xx_HAL_Driver/Src/stm32f4xx_hal_smartcard.c ****     CLEAR_BIT(hsc->Instance->CR3, USART_CR3_DMAR);
 1796              		.loc 1 997 5
 1797 00ce 7B68     		ldr	r3, [r7, #4]
 1798 00d0 1B68     		ldr	r3, [r3]
 1799 00d2 5A69     		ldr	r2, [r3, #20]
 1800 00d4 7B68     		ldr	r3, [r7, #4]
 1801 00d6 1B68     		ldr	r3, [r3]
 1802 00d8 22F04002 		bic	r2, r2, #64
 1803 00dc 5A61     		str	r2, [r3, #20]
 998:./Libraries/STM32F4xx_HAL_Driver/Src/stm32f4xx_hal_smartcard.c **** 
 999:./Libraries/STM32F4xx_HAL_Driver/Src/stm32f4xx_hal_smartcard.c ****     /* Abort the SMARTCARD DMA Rx channel : use non blocking DMA Abort API (callback) */
1000:./Libraries/STM32F4xx_HAL_Driver/Src/stm32f4xx_hal_smartcard.c ****     if(hsc->hdmarx != NULL)
 1804              		.loc 1 1000 11
 1805 00de 7B68     		ldr	r3, [r7, #4]
 1806 00e0 5B6C     		ldr	r3, [r3, #68]
 1807              		.loc 1 1000 7
 1808 00e2 002B     		cmp	r3, #0
 1809 00e4 10D0     		beq	.L74
1001:./Libraries/STM32F4xx_HAL_Driver/Src/stm32f4xx_hal_smartcard.c ****     {
1002:./Libraries/STM32F4xx_HAL_Driver/Src/stm32f4xx_hal_smartcard.c ****       /* SMARTCARD Rx DMA Abort callback has already been initialised : 
1003:./Libraries/STM32F4xx_HAL_Driver/Src/stm32f4xx_hal_smartcard.c ****          will lead to call HAL_SMARTCARD_AbortCpltCallback() at end of DMA abort procedure */
1004:./Libraries/STM32F4xx_HAL_Driver/Src/stm32f4xx_hal_smartcard.c **** 
1005:./Libraries/STM32F4xx_HAL_Driver/Src/stm32f4xx_hal_smartcard.c ****       /* Abort DMA RX */
1006:./Libraries/STM32F4xx_HAL_Driver/Src/stm32f4xx_hal_smartcard.c ****       if(HAL_DMA_Abort_IT(hsc->hdmarx) != HAL_OK)
 1810              		.loc 1 1006 10
ARM GAS  /tmp/cc5Yvz5O.s 			page 50


 1811 00e6 7B68     		ldr	r3, [r7, #4]
 1812 00e8 5B6C     		ldr	r3, [r3, #68]
 1813 00ea 1846     		mov	r0, r3
 1814 00ec FFF7FEFF 		bl	HAL_DMA_Abort_IT
 1815 00f0 0346     		mov	r3, r0
 1816              		.loc 1 1006 9
 1817 00f2 002B     		cmp	r3, #0
 1818 00f4 06D0     		beq	.L75
1007:./Libraries/STM32F4xx_HAL_Driver/Src/stm32f4xx_hal_smartcard.c ****       {
1008:./Libraries/STM32F4xx_HAL_Driver/Src/stm32f4xx_hal_smartcard.c ****         hsc->hdmarx->XferAbortCallback = NULL;
 1819              		.loc 1 1008 12
 1820 00f6 7B68     		ldr	r3, [r7, #4]
 1821 00f8 5B6C     		ldr	r3, [r3, #68]
 1822              		.loc 1 1008 40
 1823 00fa 0022     		movs	r2, #0
 1824 00fc 1A65     		str	r2, [r3, #80]
1009:./Libraries/STM32F4xx_HAL_Driver/Src/stm32f4xx_hal_smartcard.c ****         AbortCplt = 0x01U;
 1825              		.loc 1 1009 19
 1826 00fe 0123     		movs	r3, #1
 1827 0100 FB60     		str	r3, [r7, #12]
 1828 0102 01E0     		b	.L74
 1829              	.L75:
1010:./Libraries/STM32F4xx_HAL_Driver/Src/stm32f4xx_hal_smartcard.c ****       }
1011:./Libraries/STM32F4xx_HAL_Driver/Src/stm32f4xx_hal_smartcard.c ****       else
1012:./Libraries/STM32F4xx_HAL_Driver/Src/stm32f4xx_hal_smartcard.c ****       {
1013:./Libraries/STM32F4xx_HAL_Driver/Src/stm32f4xx_hal_smartcard.c ****         AbortCplt = 0x00U;
 1830              		.loc 1 1013 19
 1831 0104 0023     		movs	r3, #0
 1832 0106 FB60     		str	r3, [r7, #12]
 1833              	.L74:
1014:./Libraries/STM32F4xx_HAL_Driver/Src/stm32f4xx_hal_smartcard.c ****       }
1015:./Libraries/STM32F4xx_HAL_Driver/Src/stm32f4xx_hal_smartcard.c ****     }
1016:./Libraries/STM32F4xx_HAL_Driver/Src/stm32f4xx_hal_smartcard.c ****   }
1017:./Libraries/STM32F4xx_HAL_Driver/Src/stm32f4xx_hal_smartcard.c **** 
1018:./Libraries/STM32F4xx_HAL_Driver/Src/stm32f4xx_hal_smartcard.c ****   /* if no DMA abort complete callback execution is required => call user Abort Complete callback *
1019:./Libraries/STM32F4xx_HAL_Driver/Src/stm32f4xx_hal_smartcard.c ****   if(AbortCplt == 0x01U)
 1834              		.loc 1 1019 5
 1835 0108 FB68     		ldr	r3, [r7, #12]
 1836 010a 012B     		cmp	r3, #1
 1837 010c 13D1     		bne	.L76
1020:./Libraries/STM32F4xx_HAL_Driver/Src/stm32f4xx_hal_smartcard.c ****   {
1021:./Libraries/STM32F4xx_HAL_Driver/Src/stm32f4xx_hal_smartcard.c ****     /* Reset Tx and Rx transfer counters */
1022:./Libraries/STM32F4xx_HAL_Driver/Src/stm32f4xx_hal_smartcard.c ****     hsc->TxXferCount = 0x00U; 
 1838              		.loc 1 1022 22
 1839 010e 7B68     		ldr	r3, [r7, #4]
 1840 0110 0022     		movs	r2, #0
 1841 0112 DA86     		strh	r2, [r3, #54]	@ movhi
1023:./Libraries/STM32F4xx_HAL_Driver/Src/stm32f4xx_hal_smartcard.c ****     hsc->RxXferCount = 0x00U;
 1842              		.loc 1 1023 22
 1843 0114 7B68     		ldr	r3, [r7, #4]
 1844 0116 0022     		movs	r2, #0
 1845 0118 DA87     		strh	r2, [r3, #62]	@ movhi
1024:./Libraries/STM32F4xx_HAL_Driver/Src/stm32f4xx_hal_smartcard.c **** 
1025:./Libraries/STM32F4xx_HAL_Driver/Src/stm32f4xx_hal_smartcard.c ****     /* Reset ErrorCode */
1026:./Libraries/STM32F4xx_HAL_Driver/Src/stm32f4xx_hal_smartcard.c ****     hsc->ErrorCode = HAL_SMARTCARD_ERROR_NONE;
 1846              		.loc 1 1026 20
 1847 011a 7B68     		ldr	r3, [r7, #4]
ARM GAS  /tmp/cc5Yvz5O.s 			page 51


 1848 011c 0022     		movs	r2, #0
 1849 011e DA64     		str	r2, [r3, #76]
1027:./Libraries/STM32F4xx_HAL_Driver/Src/stm32f4xx_hal_smartcard.c **** 
1028:./Libraries/STM32F4xx_HAL_Driver/Src/stm32f4xx_hal_smartcard.c ****     /* Restore hsc->gState and hsc->RxState to Ready */
1029:./Libraries/STM32F4xx_HAL_Driver/Src/stm32f4xx_hal_smartcard.c ****     hsc->gState  = HAL_SMARTCARD_STATE_READY;
 1850              		.loc 1 1029 18
 1851 0120 7B68     		ldr	r3, [r7, #4]
 1852 0122 2022     		movs	r2, #32
 1853 0124 83F84920 		strb	r2, [r3, #73]
1030:./Libraries/STM32F4xx_HAL_Driver/Src/stm32f4xx_hal_smartcard.c ****     hsc->RxState = HAL_SMARTCARD_STATE_READY;
 1854              		.loc 1 1030 18
 1855 0128 7B68     		ldr	r3, [r7, #4]
 1856 012a 2022     		movs	r2, #32
 1857 012c 83F84A20 		strb	r2, [r3, #74]
1031:./Libraries/STM32F4xx_HAL_Driver/Src/stm32f4xx_hal_smartcard.c **** 
1032:./Libraries/STM32F4xx_HAL_Driver/Src/stm32f4xx_hal_smartcard.c ****     /* As no DMA to be aborted, call directly user Abort complete callback */
1033:./Libraries/STM32F4xx_HAL_Driver/Src/stm32f4xx_hal_smartcard.c ****     HAL_SMARTCARD_AbortCpltCallback(hsc);
 1858              		.loc 1 1033 5
 1859 0130 7868     		ldr	r0, [r7, #4]
 1860 0132 FFF7FEFF 		bl	HAL_SMARTCARD_AbortCpltCallback
 1861              	.L76:
1034:./Libraries/STM32F4xx_HAL_Driver/Src/stm32f4xx_hal_smartcard.c ****   }
1035:./Libraries/STM32F4xx_HAL_Driver/Src/stm32f4xx_hal_smartcard.c ****   return HAL_OK;
 1862              		.loc 1 1035 10
 1863 0136 0023     		movs	r3, #0
1036:./Libraries/STM32F4xx_HAL_Driver/Src/stm32f4xx_hal_smartcard.c **** }
 1864              		.loc 1 1036 1
 1865 0138 1846     		mov	r0, r3
 1866 013a 1037     		adds	r7, r7, #16
 1867              	.LCFI72:
 1868              		.cfi_def_cfa_offset 8
 1869 013c BD46     		mov	sp, r7
 1870              	.LCFI73:
 1871              		.cfi_def_cfa_register 13
 1872              		@ sp needed
 1873 013e 80BD     		pop	{r7, pc}
 1874              	.L79:
 1875              		.align	2
 1876              	.L78:
 1877 0140 00000000 		.word	SMARTCARD_DMATxAbortCallback
 1878 0144 00000000 		.word	SMARTCARD_DMARxAbortCallback
 1879              		.cfi_endproc
 1880              	.LFE139:
 1882              		.section	.text.HAL_SMARTCARD_AbortTransmit_IT,"ax",%progbits
 1883              		.align	1
 1884              		.global	HAL_SMARTCARD_AbortTransmit_IT
 1885              		.syntax unified
 1886              		.thumb
 1887              		.thumb_func
 1888              		.fpu fpv4-sp-d16
 1890              	HAL_SMARTCARD_AbortTransmit_IT:
 1891              	.LFB140:
1037:./Libraries/STM32F4xx_HAL_Driver/Src/stm32f4xx_hal_smartcard.c **** 
1038:./Libraries/STM32F4xx_HAL_Driver/Src/stm32f4xx_hal_smartcard.c **** /**
1039:./Libraries/STM32F4xx_HAL_Driver/Src/stm32f4xx_hal_smartcard.c ****   * @brief  Abort ongoing Transmit transfer (Interrupt mode).
1040:./Libraries/STM32F4xx_HAL_Driver/Src/stm32f4xx_hal_smartcard.c ****   * @param  hsc SMARTCARD handle.
1041:./Libraries/STM32F4xx_HAL_Driver/Src/stm32f4xx_hal_smartcard.c ****   * @note   This procedure could be used for aborting any ongoing transfer started in Interrupt or 
ARM GAS  /tmp/cc5Yvz5O.s 			page 52


1042:./Libraries/STM32F4xx_HAL_Driver/Src/stm32f4xx_hal_smartcard.c ****   *         This procedure performs following operations :
1043:./Libraries/STM32F4xx_HAL_Driver/Src/stm32f4xx_hal_smartcard.c ****   *           - Disable PPP Interrupts
1044:./Libraries/STM32F4xx_HAL_Driver/Src/stm32f4xx_hal_smartcard.c ****   *           - Disable the DMA transfer in the peripheral register (if enabled)
1045:./Libraries/STM32F4xx_HAL_Driver/Src/stm32f4xx_hal_smartcard.c ****   *           - Abort DMA transfer by calling HAL_DMA_Abort_IT (in case of transfer in DMA mode)
1046:./Libraries/STM32F4xx_HAL_Driver/Src/stm32f4xx_hal_smartcard.c ****   *           - Set handle State to READY
1047:./Libraries/STM32F4xx_HAL_Driver/Src/stm32f4xx_hal_smartcard.c ****   *           - At abort completion, call user abort complete callback
1048:./Libraries/STM32F4xx_HAL_Driver/Src/stm32f4xx_hal_smartcard.c ****   * @note   This procedure is executed in Interrupt mode, meaning that abort procedure could be
1049:./Libraries/STM32F4xx_HAL_Driver/Src/stm32f4xx_hal_smartcard.c ****   *         considered as completed only when user abort complete callback is executed (not when ex
1050:./Libraries/STM32F4xx_HAL_Driver/Src/stm32f4xx_hal_smartcard.c ****   * @retval HAL status
1051:./Libraries/STM32F4xx_HAL_Driver/Src/stm32f4xx_hal_smartcard.c **** */
1052:./Libraries/STM32F4xx_HAL_Driver/Src/stm32f4xx_hal_smartcard.c **** HAL_StatusTypeDef HAL_SMARTCARD_AbortTransmit_IT(SMARTCARD_HandleTypeDef *hsc)
1053:./Libraries/STM32F4xx_HAL_Driver/Src/stm32f4xx_hal_smartcard.c **** {
 1892              		.loc 1 1053 1
 1893              		.cfi_startproc
 1894              		@ args = 0, pretend = 0, frame = 8
 1895              		@ frame_needed = 1, uses_anonymous_args = 0
 1896 0000 80B5     		push	{r7, lr}
 1897              	.LCFI74:
 1898              		.cfi_def_cfa_offset 8
 1899              		.cfi_offset 7, -8
 1900              		.cfi_offset 14, -4
 1901 0002 82B0     		sub	sp, sp, #8
 1902              	.LCFI75:
 1903              		.cfi_def_cfa_offset 16
 1904 0004 00AF     		add	r7, sp, #0
 1905              	.LCFI76:
 1906              		.cfi_def_cfa_register 7
 1907 0006 7860     		str	r0, [r7, #4]
1054:./Libraries/STM32F4xx_HAL_Driver/Src/stm32f4xx_hal_smartcard.c ****   /* Disable TXEIE and TCIE interrupts */
1055:./Libraries/STM32F4xx_HAL_Driver/Src/stm32f4xx_hal_smartcard.c ****   CLEAR_BIT(hsc->Instance->CR1, (USART_CR1_TXEIE | USART_CR1_TCIE));
 1908              		.loc 1 1055 3
 1909 0008 7B68     		ldr	r3, [r7, #4]
 1910 000a 1B68     		ldr	r3, [r3]
 1911 000c DA68     		ldr	r2, [r3, #12]
 1912 000e 7B68     		ldr	r3, [r7, #4]
 1913 0010 1B68     		ldr	r3, [r3]
 1914 0012 22F0C002 		bic	r2, r2, #192
 1915 0016 DA60     		str	r2, [r3, #12]
1056:./Libraries/STM32F4xx_HAL_Driver/Src/stm32f4xx_hal_smartcard.c **** 
1057:./Libraries/STM32F4xx_HAL_Driver/Src/stm32f4xx_hal_smartcard.c ****   /* Disable the SMARTCARD DMA Tx request if enabled */
1058:./Libraries/STM32F4xx_HAL_Driver/Src/stm32f4xx_hal_smartcard.c ****   if(HAL_IS_BIT_SET(hsc->Instance->CR3, USART_CR3_DMAT))
 1916              		.loc 1 1058 6
 1917 0018 7B68     		ldr	r3, [r7, #4]
 1918 001a 1B68     		ldr	r3, [r3]
 1919 001c 5B69     		ldr	r3, [r3, #20]
 1920 001e 03F08003 		and	r3, r3, #128
 1921              		.loc 1 1058 5
 1922 0022 002B     		cmp	r3, #0
 1923 0024 2AD0     		beq	.L81
1059:./Libraries/STM32F4xx_HAL_Driver/Src/stm32f4xx_hal_smartcard.c ****   {
1060:./Libraries/STM32F4xx_HAL_Driver/Src/stm32f4xx_hal_smartcard.c ****     CLEAR_BIT(hsc->Instance->CR3, USART_CR3_DMAT);
 1924              		.loc 1 1060 5
 1925 0026 7B68     		ldr	r3, [r7, #4]
 1926 0028 1B68     		ldr	r3, [r3]
 1927 002a 5A69     		ldr	r2, [r3, #20]
 1928 002c 7B68     		ldr	r3, [r7, #4]
 1929 002e 1B68     		ldr	r3, [r3]
ARM GAS  /tmp/cc5Yvz5O.s 			page 53


 1930 0030 22F08002 		bic	r2, r2, #128
 1931 0034 5A61     		str	r2, [r3, #20]
1061:./Libraries/STM32F4xx_HAL_Driver/Src/stm32f4xx_hal_smartcard.c **** 
1062:./Libraries/STM32F4xx_HAL_Driver/Src/stm32f4xx_hal_smartcard.c ****     /* Abort the SMARTCARD DMA Tx channel : use blocking DMA Abort API (no callback) */
1063:./Libraries/STM32F4xx_HAL_Driver/Src/stm32f4xx_hal_smartcard.c ****     if(hsc->hdmatx != NULL)
 1932              		.loc 1 1063 11
 1933 0036 7B68     		ldr	r3, [r7, #4]
 1934 0038 1B6C     		ldr	r3, [r3, #64]
 1935              		.loc 1 1063 7
 1936 003a 002B     		cmp	r3, #0
 1937 003c 13D0     		beq	.L82
1064:./Libraries/STM32F4xx_HAL_Driver/Src/stm32f4xx_hal_smartcard.c ****     {
1065:./Libraries/STM32F4xx_HAL_Driver/Src/stm32f4xx_hal_smartcard.c ****       /* Set the SMARTCARD DMA Abort callback : 
1066:./Libraries/STM32F4xx_HAL_Driver/Src/stm32f4xx_hal_smartcard.c ****          will lead to call HAL_SMARTCARD_AbortCpltCallback() at end of DMA abort procedure */
1067:./Libraries/STM32F4xx_HAL_Driver/Src/stm32f4xx_hal_smartcard.c ****       hsc->hdmatx->XferAbortCallback = SMARTCARD_DMATxOnlyAbortCallback;
 1938              		.loc 1 1067 10
 1939 003e 7B68     		ldr	r3, [r7, #4]
 1940 0040 1B6C     		ldr	r3, [r3, #64]
 1941              		.loc 1 1067 38
 1942 0042 164A     		ldr	r2, .L85
 1943 0044 1A65     		str	r2, [r3, #80]
1068:./Libraries/STM32F4xx_HAL_Driver/Src/stm32f4xx_hal_smartcard.c **** 
1069:./Libraries/STM32F4xx_HAL_Driver/Src/stm32f4xx_hal_smartcard.c ****       /* Abort DMA TX */
1070:./Libraries/STM32F4xx_HAL_Driver/Src/stm32f4xx_hal_smartcard.c ****       if(HAL_DMA_Abort_IT(hsc->hdmatx) != HAL_OK)
 1944              		.loc 1 1070 10
 1945 0046 7B68     		ldr	r3, [r7, #4]
 1946 0048 1B6C     		ldr	r3, [r3, #64]
 1947 004a 1846     		mov	r0, r3
 1948 004c FFF7FEFF 		bl	HAL_DMA_Abort_IT
 1949 0050 0346     		mov	r3, r0
 1950              		.loc 1 1070 9
 1951 0052 002B     		cmp	r3, #0
 1952 0054 1CD0     		beq	.L83
1071:./Libraries/STM32F4xx_HAL_Driver/Src/stm32f4xx_hal_smartcard.c ****       {
1072:./Libraries/STM32F4xx_HAL_Driver/Src/stm32f4xx_hal_smartcard.c ****         /* Call Directly hsc->hdmatx->XferAbortCallback function in case of error */
1073:./Libraries/STM32F4xx_HAL_Driver/Src/stm32f4xx_hal_smartcard.c ****         hsc->hdmatx->XferAbortCallback(hsc->hdmatx);
 1953              		.loc 1 1073 12
 1954 0056 7B68     		ldr	r3, [r7, #4]
 1955 0058 1B6C     		ldr	r3, [r3, #64]
 1956              		.loc 1 1073 20
 1957 005a 1B6D     		ldr	r3, [r3, #80]
 1958              		.loc 1 1073 43
 1959 005c 7A68     		ldr	r2, [r7, #4]
 1960 005e 126C     		ldr	r2, [r2, #64]
 1961              		.loc 1 1073 9
 1962 0060 1046     		mov	r0, r2
 1963 0062 9847     		blx	r3
 1964              	.LVL0:
 1965 0064 14E0     		b	.L83
 1966              	.L82:
1074:./Libraries/STM32F4xx_HAL_Driver/Src/stm32f4xx_hal_smartcard.c ****       }
1075:./Libraries/STM32F4xx_HAL_Driver/Src/stm32f4xx_hal_smartcard.c ****     }
1076:./Libraries/STM32F4xx_HAL_Driver/Src/stm32f4xx_hal_smartcard.c ****     else
1077:./Libraries/STM32F4xx_HAL_Driver/Src/stm32f4xx_hal_smartcard.c ****     {
1078:./Libraries/STM32F4xx_HAL_Driver/Src/stm32f4xx_hal_smartcard.c ****       /* Reset Tx transfer counter */
1079:./Libraries/STM32F4xx_HAL_Driver/Src/stm32f4xx_hal_smartcard.c ****       hsc->TxXferCount = 0x00U;
 1967              		.loc 1 1079 24
ARM GAS  /tmp/cc5Yvz5O.s 			page 54


 1968 0066 7B68     		ldr	r3, [r7, #4]
 1969 0068 0022     		movs	r2, #0
 1970 006a DA86     		strh	r2, [r3, #54]	@ movhi
1080:./Libraries/STM32F4xx_HAL_Driver/Src/stm32f4xx_hal_smartcard.c **** 
1081:./Libraries/STM32F4xx_HAL_Driver/Src/stm32f4xx_hal_smartcard.c ****       /* Restore hsc->gState to Ready */
1082:./Libraries/STM32F4xx_HAL_Driver/Src/stm32f4xx_hal_smartcard.c ****       hsc->gState = HAL_SMARTCARD_STATE_READY;
 1971              		.loc 1 1082 19
 1972 006c 7B68     		ldr	r3, [r7, #4]
 1973 006e 2022     		movs	r2, #32
 1974 0070 83F84920 		strb	r2, [r3, #73]
1083:./Libraries/STM32F4xx_HAL_Driver/Src/stm32f4xx_hal_smartcard.c **** 
1084:./Libraries/STM32F4xx_HAL_Driver/Src/stm32f4xx_hal_smartcard.c ****       /* As no DMA to be aborted, call directly user Abort complete callback */
1085:./Libraries/STM32F4xx_HAL_Driver/Src/stm32f4xx_hal_smartcard.c ****       HAL_SMARTCARD_AbortTransmitCpltCallback(hsc);
 1975              		.loc 1 1085 7
 1976 0074 7868     		ldr	r0, [r7, #4]
 1977 0076 FFF7FEFF 		bl	HAL_SMARTCARD_AbortTransmitCpltCallback
 1978 007a 09E0     		b	.L83
 1979              	.L81:
1086:./Libraries/STM32F4xx_HAL_Driver/Src/stm32f4xx_hal_smartcard.c ****     }
1087:./Libraries/STM32F4xx_HAL_Driver/Src/stm32f4xx_hal_smartcard.c ****   }
1088:./Libraries/STM32F4xx_HAL_Driver/Src/stm32f4xx_hal_smartcard.c ****   else
1089:./Libraries/STM32F4xx_HAL_Driver/Src/stm32f4xx_hal_smartcard.c ****   {
1090:./Libraries/STM32F4xx_HAL_Driver/Src/stm32f4xx_hal_smartcard.c ****     /* Reset Tx transfer counter */
1091:./Libraries/STM32F4xx_HAL_Driver/Src/stm32f4xx_hal_smartcard.c ****     hsc->TxXferCount = 0x00U;
 1980              		.loc 1 1091 22
 1981 007c 7B68     		ldr	r3, [r7, #4]
 1982 007e 0022     		movs	r2, #0
 1983 0080 DA86     		strh	r2, [r3, #54]	@ movhi
1092:./Libraries/STM32F4xx_HAL_Driver/Src/stm32f4xx_hal_smartcard.c **** 
1093:./Libraries/STM32F4xx_HAL_Driver/Src/stm32f4xx_hal_smartcard.c ****     /* Restore hsc->gState to Ready */
1094:./Libraries/STM32F4xx_HAL_Driver/Src/stm32f4xx_hal_smartcard.c ****     hsc->gState = HAL_SMARTCARD_STATE_READY;
 1984              		.loc 1 1094 17
 1985 0082 7B68     		ldr	r3, [r7, #4]
 1986 0084 2022     		movs	r2, #32
 1987 0086 83F84920 		strb	r2, [r3, #73]
1095:./Libraries/STM32F4xx_HAL_Driver/Src/stm32f4xx_hal_smartcard.c **** 
1096:./Libraries/STM32F4xx_HAL_Driver/Src/stm32f4xx_hal_smartcard.c ****     /* As no DMA to be aborted, call directly user Abort complete callback */
1097:./Libraries/STM32F4xx_HAL_Driver/Src/stm32f4xx_hal_smartcard.c ****     HAL_SMARTCARD_AbortTransmitCpltCallback(hsc);
 1988              		.loc 1 1097 5
 1989 008a 7868     		ldr	r0, [r7, #4]
 1990 008c FFF7FEFF 		bl	HAL_SMARTCARD_AbortTransmitCpltCallback
 1991              	.L83:
1098:./Libraries/STM32F4xx_HAL_Driver/Src/stm32f4xx_hal_smartcard.c ****   }
1099:./Libraries/STM32F4xx_HAL_Driver/Src/stm32f4xx_hal_smartcard.c **** 
1100:./Libraries/STM32F4xx_HAL_Driver/Src/stm32f4xx_hal_smartcard.c ****   return HAL_OK;
 1992              		.loc 1 1100 10
 1993 0090 0023     		movs	r3, #0
1101:./Libraries/STM32F4xx_HAL_Driver/Src/stm32f4xx_hal_smartcard.c **** }
 1994              		.loc 1 1101 1
 1995 0092 1846     		mov	r0, r3
 1996 0094 0837     		adds	r7, r7, #8
 1997              	.LCFI77:
 1998              		.cfi_def_cfa_offset 8
 1999 0096 BD46     		mov	sp, r7
 2000              	.LCFI78:
 2001              		.cfi_def_cfa_register 13
 2002              		@ sp needed
ARM GAS  /tmp/cc5Yvz5O.s 			page 55


 2003 0098 80BD     		pop	{r7, pc}
 2004              	.L86:
 2005 009a 00BF     		.align	2
 2006              	.L85:
 2007 009c 00000000 		.word	SMARTCARD_DMATxOnlyAbortCallback
 2008              		.cfi_endproc
 2009              	.LFE140:
 2011              		.section	.text.HAL_SMARTCARD_AbortReceive_IT,"ax",%progbits
 2012              		.align	1
 2013              		.global	HAL_SMARTCARD_AbortReceive_IT
 2014              		.syntax unified
 2015              		.thumb
 2016              		.thumb_func
 2017              		.fpu fpv4-sp-d16
 2019              	HAL_SMARTCARD_AbortReceive_IT:
 2020              	.LFB141:
1102:./Libraries/STM32F4xx_HAL_Driver/Src/stm32f4xx_hal_smartcard.c **** 
1103:./Libraries/STM32F4xx_HAL_Driver/Src/stm32f4xx_hal_smartcard.c **** /**
1104:./Libraries/STM32F4xx_HAL_Driver/Src/stm32f4xx_hal_smartcard.c ****   * @brief  Abort ongoing Receive transfer (Interrupt mode).
1105:./Libraries/STM32F4xx_HAL_Driver/Src/stm32f4xx_hal_smartcard.c ****   * @param  hsc SMARTCARD handle.
1106:./Libraries/STM32F4xx_HAL_Driver/Src/stm32f4xx_hal_smartcard.c ****   * @note   This procedure could be used for aborting any ongoing transfer started in Interrupt or 
1107:./Libraries/STM32F4xx_HAL_Driver/Src/stm32f4xx_hal_smartcard.c ****   *         This procedure performs following operations :
1108:./Libraries/STM32F4xx_HAL_Driver/Src/stm32f4xx_hal_smartcard.c ****   *           - Disable PPP Interrupts
1109:./Libraries/STM32F4xx_HAL_Driver/Src/stm32f4xx_hal_smartcard.c ****   *           - Disable the DMA transfer in the peripheral register (if enabled)
1110:./Libraries/STM32F4xx_HAL_Driver/Src/stm32f4xx_hal_smartcard.c ****   *           - Abort DMA transfer by calling HAL_DMA_Abort_IT (in case of transfer in DMA mode)
1111:./Libraries/STM32F4xx_HAL_Driver/Src/stm32f4xx_hal_smartcard.c ****   *           - Set handle State to READY
1112:./Libraries/STM32F4xx_HAL_Driver/Src/stm32f4xx_hal_smartcard.c ****   *           - At abort completion, call user abort complete callback
1113:./Libraries/STM32F4xx_HAL_Driver/Src/stm32f4xx_hal_smartcard.c ****   * @note   This procedure is executed in Interrupt mode, meaning that abort procedure could be
1114:./Libraries/STM32F4xx_HAL_Driver/Src/stm32f4xx_hal_smartcard.c ****   *         considered as completed only when user abort complete callback is executed (not when ex
1115:./Libraries/STM32F4xx_HAL_Driver/Src/stm32f4xx_hal_smartcard.c ****   * @retval HAL status
1116:./Libraries/STM32F4xx_HAL_Driver/Src/stm32f4xx_hal_smartcard.c **** */
1117:./Libraries/STM32F4xx_HAL_Driver/Src/stm32f4xx_hal_smartcard.c **** HAL_StatusTypeDef HAL_SMARTCARD_AbortReceive_IT(SMARTCARD_HandleTypeDef *hsc)
1118:./Libraries/STM32F4xx_HAL_Driver/Src/stm32f4xx_hal_smartcard.c **** {
 2021              		.loc 1 1118 1
 2022              		.cfi_startproc
 2023              		@ args = 0, pretend = 0, frame = 8
 2024              		@ frame_needed = 1, uses_anonymous_args = 0
 2025 0000 80B5     		push	{r7, lr}
 2026              	.LCFI79:
 2027              		.cfi_def_cfa_offset 8
 2028              		.cfi_offset 7, -8
 2029              		.cfi_offset 14, -4
 2030 0002 82B0     		sub	sp, sp, #8
 2031              	.LCFI80:
 2032              		.cfi_def_cfa_offset 16
 2033 0004 00AF     		add	r7, sp, #0
 2034              	.LCFI81:
 2035              		.cfi_def_cfa_register 7
 2036 0006 7860     		str	r0, [r7, #4]
1119:./Libraries/STM32F4xx_HAL_Driver/Src/stm32f4xx_hal_smartcard.c ****   /* Disable RXNE, PE and ERR (Frame error, noise error, overrun error) interrupts */
1120:./Libraries/STM32F4xx_HAL_Driver/Src/stm32f4xx_hal_smartcard.c ****   CLEAR_BIT(hsc->Instance->CR1, (USART_CR1_RXNEIE | USART_CR1_PEIE));
 2037              		.loc 1 1120 3
 2038 0008 7B68     		ldr	r3, [r7, #4]
 2039 000a 1B68     		ldr	r3, [r3]
 2040 000c DA68     		ldr	r2, [r3, #12]
 2041 000e 7B68     		ldr	r3, [r7, #4]
 2042 0010 1B68     		ldr	r3, [r3]
ARM GAS  /tmp/cc5Yvz5O.s 			page 56


 2043 0012 22F49072 		bic	r2, r2, #288
 2044 0016 DA60     		str	r2, [r3, #12]
1121:./Libraries/STM32F4xx_HAL_Driver/Src/stm32f4xx_hal_smartcard.c ****   CLEAR_BIT(hsc->Instance->CR3, USART_CR3_EIE);
 2045              		.loc 1 1121 3
 2046 0018 7B68     		ldr	r3, [r7, #4]
 2047 001a 1B68     		ldr	r3, [r3]
 2048 001c 5A69     		ldr	r2, [r3, #20]
 2049 001e 7B68     		ldr	r3, [r7, #4]
 2050 0020 1B68     		ldr	r3, [r3]
 2051 0022 22F00102 		bic	r2, r2, #1
 2052 0026 5A61     		str	r2, [r3, #20]
1122:./Libraries/STM32F4xx_HAL_Driver/Src/stm32f4xx_hal_smartcard.c **** 
1123:./Libraries/STM32F4xx_HAL_Driver/Src/stm32f4xx_hal_smartcard.c ****   /* Disable the SMARTCARD DMA Rx request if enabled */
1124:./Libraries/STM32F4xx_HAL_Driver/Src/stm32f4xx_hal_smartcard.c ****   if(HAL_IS_BIT_SET(hsc->Instance->CR3, USART_CR3_DMAR))
 2053              		.loc 1 1124 6
 2054 0028 7B68     		ldr	r3, [r7, #4]
 2055 002a 1B68     		ldr	r3, [r3]
 2056 002c 5B69     		ldr	r3, [r3, #20]
 2057 002e 03F04003 		and	r3, r3, #64
 2058              		.loc 1 1124 5
 2059 0032 002B     		cmp	r3, #0
 2060 0034 2AD0     		beq	.L88
1125:./Libraries/STM32F4xx_HAL_Driver/Src/stm32f4xx_hal_smartcard.c ****   {
1126:./Libraries/STM32F4xx_HAL_Driver/Src/stm32f4xx_hal_smartcard.c ****     CLEAR_BIT(hsc->Instance->CR3, USART_CR3_DMAR);
 2061              		.loc 1 1126 5
 2062 0036 7B68     		ldr	r3, [r7, #4]
 2063 0038 1B68     		ldr	r3, [r3]
 2064 003a 5A69     		ldr	r2, [r3, #20]
 2065 003c 7B68     		ldr	r3, [r7, #4]
 2066 003e 1B68     		ldr	r3, [r3]
 2067 0040 22F04002 		bic	r2, r2, #64
 2068 0044 5A61     		str	r2, [r3, #20]
1127:./Libraries/STM32F4xx_HAL_Driver/Src/stm32f4xx_hal_smartcard.c **** 
1128:./Libraries/STM32F4xx_HAL_Driver/Src/stm32f4xx_hal_smartcard.c ****     /* Abort the SMARTCARD DMA Rx channel : use blocking DMA Abort API (no callback) */
1129:./Libraries/STM32F4xx_HAL_Driver/Src/stm32f4xx_hal_smartcard.c ****     if(hsc->hdmarx != NULL)
 2069              		.loc 1 1129 11
 2070 0046 7B68     		ldr	r3, [r7, #4]
 2071 0048 5B6C     		ldr	r3, [r3, #68]
 2072              		.loc 1 1129 7
 2073 004a 002B     		cmp	r3, #0
 2074 004c 13D0     		beq	.L89
1130:./Libraries/STM32F4xx_HAL_Driver/Src/stm32f4xx_hal_smartcard.c ****     {
1131:./Libraries/STM32F4xx_HAL_Driver/Src/stm32f4xx_hal_smartcard.c ****       /* Set the SMARTCARD DMA Abort callback : 
1132:./Libraries/STM32F4xx_HAL_Driver/Src/stm32f4xx_hal_smartcard.c ****          will lead to call HAL_SMARTCARD_AbortCpltCallback() at end of DMA abort procedure */
1133:./Libraries/STM32F4xx_HAL_Driver/Src/stm32f4xx_hal_smartcard.c ****       hsc->hdmarx->XferAbortCallback = SMARTCARD_DMARxOnlyAbortCallback;
 2075              		.loc 1 1133 10
 2076 004e 7B68     		ldr	r3, [r7, #4]
 2077 0050 5B6C     		ldr	r3, [r3, #68]
 2078              		.loc 1 1133 38
 2079 0052 164A     		ldr	r2, .L92
 2080 0054 1A65     		str	r2, [r3, #80]
1134:./Libraries/STM32F4xx_HAL_Driver/Src/stm32f4xx_hal_smartcard.c **** 
1135:./Libraries/STM32F4xx_HAL_Driver/Src/stm32f4xx_hal_smartcard.c ****       /* Abort DMA RX */
1136:./Libraries/STM32F4xx_HAL_Driver/Src/stm32f4xx_hal_smartcard.c ****       if(HAL_DMA_Abort_IT(hsc->hdmarx) != HAL_OK)
 2081              		.loc 1 1136 10
 2082 0056 7B68     		ldr	r3, [r7, #4]
 2083 0058 5B6C     		ldr	r3, [r3, #68]
ARM GAS  /tmp/cc5Yvz5O.s 			page 57


 2084 005a 1846     		mov	r0, r3
 2085 005c FFF7FEFF 		bl	HAL_DMA_Abort_IT
 2086 0060 0346     		mov	r3, r0
 2087              		.loc 1 1136 9
 2088 0062 002B     		cmp	r3, #0
 2089 0064 1CD0     		beq	.L90
1137:./Libraries/STM32F4xx_HAL_Driver/Src/stm32f4xx_hal_smartcard.c ****       {
1138:./Libraries/STM32F4xx_HAL_Driver/Src/stm32f4xx_hal_smartcard.c ****         /* Call Directly hsc->hdmarx->XferAbortCallback function in case of error */
1139:./Libraries/STM32F4xx_HAL_Driver/Src/stm32f4xx_hal_smartcard.c ****         hsc->hdmarx->XferAbortCallback(hsc->hdmarx);
 2090              		.loc 1 1139 12
 2091 0066 7B68     		ldr	r3, [r7, #4]
 2092 0068 5B6C     		ldr	r3, [r3, #68]
 2093              		.loc 1 1139 20
 2094 006a 1B6D     		ldr	r3, [r3, #80]
 2095              		.loc 1 1139 43
 2096 006c 7A68     		ldr	r2, [r7, #4]
 2097 006e 526C     		ldr	r2, [r2, #68]
 2098              		.loc 1 1139 9
 2099 0070 1046     		mov	r0, r2
 2100 0072 9847     		blx	r3
 2101              	.LVL1:
 2102 0074 14E0     		b	.L90
 2103              	.L89:
1140:./Libraries/STM32F4xx_HAL_Driver/Src/stm32f4xx_hal_smartcard.c ****       }
1141:./Libraries/STM32F4xx_HAL_Driver/Src/stm32f4xx_hal_smartcard.c ****     }
1142:./Libraries/STM32F4xx_HAL_Driver/Src/stm32f4xx_hal_smartcard.c ****     else
1143:./Libraries/STM32F4xx_HAL_Driver/Src/stm32f4xx_hal_smartcard.c ****     {
1144:./Libraries/STM32F4xx_HAL_Driver/Src/stm32f4xx_hal_smartcard.c ****       /* Reset Rx transfer counter */
1145:./Libraries/STM32F4xx_HAL_Driver/Src/stm32f4xx_hal_smartcard.c ****       hsc->RxXferCount = 0x00U;
 2104              		.loc 1 1145 24
 2105 0076 7B68     		ldr	r3, [r7, #4]
 2106 0078 0022     		movs	r2, #0
 2107 007a DA87     		strh	r2, [r3, #62]	@ movhi
1146:./Libraries/STM32F4xx_HAL_Driver/Src/stm32f4xx_hal_smartcard.c **** 
1147:./Libraries/STM32F4xx_HAL_Driver/Src/stm32f4xx_hal_smartcard.c ****       /* Restore hsc->RxState to Ready */
1148:./Libraries/STM32F4xx_HAL_Driver/Src/stm32f4xx_hal_smartcard.c ****       hsc->RxState = HAL_SMARTCARD_STATE_READY;
 2108              		.loc 1 1148 20
 2109 007c 7B68     		ldr	r3, [r7, #4]
 2110 007e 2022     		movs	r2, #32
 2111 0080 83F84A20 		strb	r2, [r3, #74]
1149:./Libraries/STM32F4xx_HAL_Driver/Src/stm32f4xx_hal_smartcard.c **** 
1150:./Libraries/STM32F4xx_HAL_Driver/Src/stm32f4xx_hal_smartcard.c ****       /* As no DMA to be aborted, call directly user Abort complete callback */
1151:./Libraries/STM32F4xx_HAL_Driver/Src/stm32f4xx_hal_smartcard.c ****       HAL_SMARTCARD_AbortReceiveCpltCallback(hsc);
 2112              		.loc 1 1151 7
 2113 0084 7868     		ldr	r0, [r7, #4]
 2114 0086 FFF7FEFF 		bl	HAL_SMARTCARD_AbortReceiveCpltCallback
 2115 008a 09E0     		b	.L90
 2116              	.L88:
1152:./Libraries/STM32F4xx_HAL_Driver/Src/stm32f4xx_hal_smartcard.c ****     }
1153:./Libraries/STM32F4xx_HAL_Driver/Src/stm32f4xx_hal_smartcard.c ****   }
1154:./Libraries/STM32F4xx_HAL_Driver/Src/stm32f4xx_hal_smartcard.c ****   else
1155:./Libraries/STM32F4xx_HAL_Driver/Src/stm32f4xx_hal_smartcard.c ****   {
1156:./Libraries/STM32F4xx_HAL_Driver/Src/stm32f4xx_hal_smartcard.c ****     /* Reset Rx transfer counter */
1157:./Libraries/STM32F4xx_HAL_Driver/Src/stm32f4xx_hal_smartcard.c ****     hsc->RxXferCount = 0x00U;
 2117              		.loc 1 1157 22
 2118 008c 7B68     		ldr	r3, [r7, #4]
 2119 008e 0022     		movs	r2, #0
ARM GAS  /tmp/cc5Yvz5O.s 			page 58


 2120 0090 DA87     		strh	r2, [r3, #62]	@ movhi
1158:./Libraries/STM32F4xx_HAL_Driver/Src/stm32f4xx_hal_smartcard.c **** 
1159:./Libraries/STM32F4xx_HAL_Driver/Src/stm32f4xx_hal_smartcard.c ****     /* Restore hsc->RxState to Ready */
1160:./Libraries/STM32F4xx_HAL_Driver/Src/stm32f4xx_hal_smartcard.c ****     hsc->RxState = HAL_SMARTCARD_STATE_READY;
 2121              		.loc 1 1160 18
 2122 0092 7B68     		ldr	r3, [r7, #4]
 2123 0094 2022     		movs	r2, #32
 2124 0096 83F84A20 		strb	r2, [r3, #74]
1161:./Libraries/STM32F4xx_HAL_Driver/Src/stm32f4xx_hal_smartcard.c **** 
1162:./Libraries/STM32F4xx_HAL_Driver/Src/stm32f4xx_hal_smartcard.c ****     /* As no DMA to be aborted, call directly user Abort complete callback */
1163:./Libraries/STM32F4xx_HAL_Driver/Src/stm32f4xx_hal_smartcard.c ****     HAL_SMARTCARD_AbortReceiveCpltCallback(hsc);
 2125              		.loc 1 1163 5
 2126 009a 7868     		ldr	r0, [r7, #4]
 2127 009c FFF7FEFF 		bl	HAL_SMARTCARD_AbortReceiveCpltCallback
 2128              	.L90:
1164:./Libraries/STM32F4xx_HAL_Driver/Src/stm32f4xx_hal_smartcard.c ****   }
1165:./Libraries/STM32F4xx_HAL_Driver/Src/stm32f4xx_hal_smartcard.c **** 
1166:./Libraries/STM32F4xx_HAL_Driver/Src/stm32f4xx_hal_smartcard.c ****   return HAL_OK;
 2129              		.loc 1 1166 10
 2130 00a0 0023     		movs	r3, #0
1167:./Libraries/STM32F4xx_HAL_Driver/Src/stm32f4xx_hal_smartcard.c **** }
 2131              		.loc 1 1167 1
 2132 00a2 1846     		mov	r0, r3
 2133 00a4 0837     		adds	r7, r7, #8
 2134              	.LCFI82:
 2135              		.cfi_def_cfa_offset 8
 2136 00a6 BD46     		mov	sp, r7
 2137              	.LCFI83:
 2138              		.cfi_def_cfa_register 13
 2139              		@ sp needed
 2140 00a8 80BD     		pop	{r7, pc}
 2141              	.L93:
 2142 00aa 00BF     		.align	2
 2143              	.L92:
 2144 00ac 00000000 		.word	SMARTCARD_DMARxOnlyAbortCallback
 2145              		.cfi_endproc
 2146              	.LFE141:
 2148              		.section	.text.HAL_SMARTCARD_IRQHandler,"ax",%progbits
 2149              		.align	1
 2150              		.global	HAL_SMARTCARD_IRQHandler
 2151              		.syntax unified
 2152              		.thumb
 2153              		.thumb_func
 2154              		.fpu fpv4-sp-d16
 2156              	HAL_SMARTCARD_IRQHandler:
 2157              	.LFB142:
1168:./Libraries/STM32F4xx_HAL_Driver/Src/stm32f4xx_hal_smartcard.c **** 
1169:./Libraries/STM32F4xx_HAL_Driver/Src/stm32f4xx_hal_smartcard.c **** /**
1170:./Libraries/STM32F4xx_HAL_Driver/Src/stm32f4xx_hal_smartcard.c ****   * @brief This function handles SMARTCARD interrupt request.
1171:./Libraries/STM32F4xx_HAL_Driver/Src/stm32f4xx_hal_smartcard.c ****   * @param  hsc pointer to a SMARTCARD_HandleTypeDef structure that contains
1172:./Libraries/STM32F4xx_HAL_Driver/Src/stm32f4xx_hal_smartcard.c ****   *                the configuration information for SMARTCARD module.
1173:./Libraries/STM32F4xx_HAL_Driver/Src/stm32f4xx_hal_smartcard.c ****   * @retval None
1174:./Libraries/STM32F4xx_HAL_Driver/Src/stm32f4xx_hal_smartcard.c ****   */
1175:./Libraries/STM32F4xx_HAL_Driver/Src/stm32f4xx_hal_smartcard.c **** void HAL_SMARTCARD_IRQHandler(SMARTCARD_HandleTypeDef *hsc)
1176:./Libraries/STM32F4xx_HAL_Driver/Src/stm32f4xx_hal_smartcard.c **** {
 2158              		.loc 1 1176 1
 2159              		.cfi_startproc
ARM GAS  /tmp/cc5Yvz5O.s 			page 59


 2160              		@ args = 0, pretend = 0, frame = 32
 2161              		@ frame_needed = 1, uses_anonymous_args = 0
 2162 0000 80B5     		push	{r7, lr}
 2163              	.LCFI84:
 2164              		.cfi_def_cfa_offset 8
 2165              		.cfi_offset 7, -8
 2166              		.cfi_offset 14, -4
 2167 0002 88B0     		sub	sp, sp, #32
 2168              	.LCFI85:
 2169              		.cfi_def_cfa_offset 40
 2170 0004 00AF     		add	r7, sp, #0
 2171              	.LCFI86:
 2172              		.cfi_def_cfa_register 7
 2173 0006 7860     		str	r0, [r7, #4]
1177:./Libraries/STM32F4xx_HAL_Driver/Src/stm32f4xx_hal_smartcard.c ****   uint32_t isrflags   = READ_REG(hsc->Instance->SR);
 2174              		.loc 1 1177 25
 2175 0008 7B68     		ldr	r3, [r7, #4]
 2176 000a 1B68     		ldr	r3, [r3]
 2177              		.loc 1 1177 12
 2178 000c 1B68     		ldr	r3, [r3]
 2179 000e FB61     		str	r3, [r7, #28]
1178:./Libraries/STM32F4xx_HAL_Driver/Src/stm32f4xx_hal_smartcard.c ****   uint32_t cr1its     = READ_REG(hsc->Instance->CR1);
 2180              		.loc 1 1178 25
 2181 0010 7B68     		ldr	r3, [r7, #4]
 2182 0012 1B68     		ldr	r3, [r3]
 2183              		.loc 1 1178 12
 2184 0014 DB68     		ldr	r3, [r3, #12]
 2185 0016 BB61     		str	r3, [r7, #24]
1179:./Libraries/STM32F4xx_HAL_Driver/Src/stm32f4xx_hal_smartcard.c ****   uint32_t cr3its     = READ_REG(hsc->Instance->CR3);
 2186              		.loc 1 1179 25
 2187 0018 7B68     		ldr	r3, [r7, #4]
 2188 001a 1B68     		ldr	r3, [r3]
 2189              		.loc 1 1179 12
 2190 001c 5B69     		ldr	r3, [r3, #20]
 2191 001e 7B61     		str	r3, [r7, #20]
1180:./Libraries/STM32F4xx_HAL_Driver/Src/stm32f4xx_hal_smartcard.c ****   uint32_t dmarequest = 0x00U;
 2192              		.loc 1 1180 12
 2193 0020 0023     		movs	r3, #0
 2194 0022 3B61     		str	r3, [r7, #16]
1181:./Libraries/STM32F4xx_HAL_Driver/Src/stm32f4xx_hal_smartcard.c ****   uint32_t errorflags = 0x00U;
 2195              		.loc 1 1181 12
 2196 0024 0023     		movs	r3, #0
 2197 0026 FB60     		str	r3, [r7, #12]
1182:./Libraries/STM32F4xx_HAL_Driver/Src/stm32f4xx_hal_smartcard.c **** 
1183:./Libraries/STM32F4xx_HAL_Driver/Src/stm32f4xx_hal_smartcard.c ****   /* If no error occurs */
1184:./Libraries/STM32F4xx_HAL_Driver/Src/stm32f4xx_hal_smartcard.c ****   errorflags = (isrflags & (uint32_t)(USART_SR_PE | USART_SR_FE | USART_SR_ORE | USART_SR_NE));
 2198              		.loc 1 1184 14
 2199 0028 FB69     		ldr	r3, [r7, #28]
 2200 002a 03F00F03 		and	r3, r3, #15
 2201 002e FB60     		str	r3, [r7, #12]
1185:./Libraries/STM32F4xx_HAL_Driver/Src/stm32f4xx_hal_smartcard.c ****   if(errorflags == RESET)
 2202              		.loc 1 1185 5
 2203 0030 FB68     		ldr	r3, [r7, #12]
 2204 0032 002B     		cmp	r3, #0
 2205 0034 0DD1     		bne	.L95
1186:./Libraries/STM32F4xx_HAL_Driver/Src/stm32f4xx_hal_smartcard.c ****   {
1187:./Libraries/STM32F4xx_HAL_Driver/Src/stm32f4xx_hal_smartcard.c ****     /* SMARTCARD in mode Receiver -------------------------------------------------*/
ARM GAS  /tmp/cc5Yvz5O.s 			page 60


1188:./Libraries/STM32F4xx_HAL_Driver/Src/stm32f4xx_hal_smartcard.c ****     if(((isrflags & USART_SR_RXNE) != RESET) && ((cr1its & USART_CR1_RXNEIE) != RESET))
 2206              		.loc 1 1188 19
 2207 0036 FB69     		ldr	r3, [r7, #28]
 2208 0038 03F02003 		and	r3, r3, #32
 2209              		.loc 1 1188 7
 2210 003c 002B     		cmp	r3, #0
 2211 003e 08D0     		beq	.L95
 2212              		.loc 1 1188 58 discriminator 1
 2213 0040 BB69     		ldr	r3, [r7, #24]
 2214 0042 03F02003 		and	r3, r3, #32
 2215              		.loc 1 1188 46 discriminator 1
 2216 0046 002B     		cmp	r3, #0
 2217 0048 03D0     		beq	.L95
1189:./Libraries/STM32F4xx_HAL_Driver/Src/stm32f4xx_hal_smartcard.c ****     {
1190:./Libraries/STM32F4xx_HAL_Driver/Src/stm32f4xx_hal_smartcard.c ****       SMARTCARD_Receive_IT(hsc);
 2218              		.loc 1 1190 7
 2219 004a 7868     		ldr	r0, [r7, #4]
 2220 004c FFF7FEFF 		bl	SMARTCARD_Receive_IT
1191:./Libraries/STM32F4xx_HAL_Driver/Src/stm32f4xx_hal_smartcard.c ****       return;
 2221              		.loc 1 1191 7
 2222 0050 CBE0     		b	.L94
 2223              	.L95:
1192:./Libraries/STM32F4xx_HAL_Driver/Src/stm32f4xx_hal_smartcard.c ****     }
1193:./Libraries/STM32F4xx_HAL_Driver/Src/stm32f4xx_hal_smartcard.c ****   }
1194:./Libraries/STM32F4xx_HAL_Driver/Src/stm32f4xx_hal_smartcard.c **** 
1195:./Libraries/STM32F4xx_HAL_Driver/Src/stm32f4xx_hal_smartcard.c ****   /* If some errors occur */
1196:./Libraries/STM32F4xx_HAL_Driver/Src/stm32f4xx_hal_smartcard.c ****   if((errorflags != RESET) && (((cr3its & USART_CR3_EIE) != RESET) || ((cr1its & (USART_CR1_RXNEIE 
 2224              		.loc 1 1196 5
 2225 0052 FB68     		ldr	r3, [r7, #12]
 2226 0054 002B     		cmp	r3, #0
 2227 0056 00F0AB80 		beq	.L97
 2228              		.loc 1 1196 41 discriminator 1
 2229 005a 7B69     		ldr	r3, [r7, #20]
 2230 005c 03F00103 		and	r3, r3, #1
 2231              		.loc 1 1196 28 discriminator 1
 2232 0060 002B     		cmp	r3, #0
 2233 0062 05D1     		bne	.L98
 2234              		.loc 1 1196 80 discriminator 2
 2235 0064 BB69     		ldr	r3, [r7, #24]
 2236 0066 03F49073 		and	r3, r3, #288
 2237              		.loc 1 1196 68 discriminator 2
 2238 006a 002B     		cmp	r3, #0
 2239 006c 00F0A080 		beq	.L97
 2240              	.L98:
1197:./Libraries/STM32F4xx_HAL_Driver/Src/stm32f4xx_hal_smartcard.c ****   {
1198:./Libraries/STM32F4xx_HAL_Driver/Src/stm32f4xx_hal_smartcard.c ****     /* SMARTCARD parity error interrupt occurred ---------------------------*/
1199:./Libraries/STM32F4xx_HAL_Driver/Src/stm32f4xx_hal_smartcard.c ****     if(((isrflags & SMARTCARD_FLAG_PE) != RESET) && ((cr1its & USART_CR1_PEIE) != RESET))
 2241              		.loc 1 1199 19
 2242 0070 FB69     		ldr	r3, [r7, #28]
 2243 0072 03F00103 		and	r3, r3, #1
 2244              		.loc 1 1199 7
 2245 0076 002B     		cmp	r3, #0
 2246 0078 0AD0     		beq	.L99
 2247              		.loc 1 1199 62 discriminator 1
 2248 007a BB69     		ldr	r3, [r7, #24]
 2249 007c 03F48073 		and	r3, r3, #256
 2250              		.loc 1 1199 50 discriminator 1
ARM GAS  /tmp/cc5Yvz5O.s 			page 61


 2251 0080 002B     		cmp	r3, #0
 2252 0082 05D0     		beq	.L99
1200:./Libraries/STM32F4xx_HAL_Driver/Src/stm32f4xx_hal_smartcard.c ****     { 
1201:./Libraries/STM32F4xx_HAL_Driver/Src/stm32f4xx_hal_smartcard.c ****       hsc->ErrorCode |= HAL_SMARTCARD_ERROR_PE;
 2253              		.loc 1 1201 22
 2254 0084 7B68     		ldr	r3, [r7, #4]
 2255 0086 DB6C     		ldr	r3, [r3, #76]
 2256 0088 43F00102 		orr	r2, r3, #1
 2257 008c 7B68     		ldr	r3, [r7, #4]
 2258 008e DA64     		str	r2, [r3, #76]
 2259              	.L99:
1202:./Libraries/STM32F4xx_HAL_Driver/Src/stm32f4xx_hal_smartcard.c ****     }
1203:./Libraries/STM32F4xx_HAL_Driver/Src/stm32f4xx_hal_smartcard.c **** 
1204:./Libraries/STM32F4xx_HAL_Driver/Src/stm32f4xx_hal_smartcard.c ****     /* SMARTCARD frame error interrupt occurred ----------------------------*/
1205:./Libraries/STM32F4xx_HAL_Driver/Src/stm32f4xx_hal_smartcard.c ****     if(((isrflags & SMARTCARD_FLAG_FE) != RESET) && ((cr3its & USART_CR3_EIE) != RESET))
 2260              		.loc 1 1205 19
 2261 0090 FB69     		ldr	r3, [r7, #28]
 2262 0092 03F00203 		and	r3, r3, #2
 2263              		.loc 1 1205 7
 2264 0096 002B     		cmp	r3, #0
 2265 0098 0AD0     		beq	.L100
 2266              		.loc 1 1205 62 discriminator 1
 2267 009a 7B69     		ldr	r3, [r7, #20]
 2268 009c 03F00103 		and	r3, r3, #1
 2269              		.loc 1 1205 50 discriminator 1
 2270 00a0 002B     		cmp	r3, #0
 2271 00a2 05D0     		beq	.L100
1206:./Libraries/STM32F4xx_HAL_Driver/Src/stm32f4xx_hal_smartcard.c ****     { 
1207:./Libraries/STM32F4xx_HAL_Driver/Src/stm32f4xx_hal_smartcard.c ****       hsc->ErrorCode |= HAL_SMARTCARD_ERROR_FE;
 2272              		.loc 1 1207 22
 2273 00a4 7B68     		ldr	r3, [r7, #4]
 2274 00a6 DB6C     		ldr	r3, [r3, #76]
 2275 00a8 43F00402 		orr	r2, r3, #4
 2276 00ac 7B68     		ldr	r3, [r7, #4]
 2277 00ae DA64     		str	r2, [r3, #76]
 2278              	.L100:
1208:./Libraries/STM32F4xx_HAL_Driver/Src/stm32f4xx_hal_smartcard.c ****     }
1209:./Libraries/STM32F4xx_HAL_Driver/Src/stm32f4xx_hal_smartcard.c **** 
1210:./Libraries/STM32F4xx_HAL_Driver/Src/stm32f4xx_hal_smartcard.c ****     /* SMARTCARD noise error interrupt occurred ----------------------------*/
1211:./Libraries/STM32F4xx_HAL_Driver/Src/stm32f4xx_hal_smartcard.c ****     if(((isrflags & SMARTCARD_FLAG_NE) != RESET) && ((cr3its & USART_CR3_EIE) != RESET))
 2279              		.loc 1 1211 19
 2280 00b0 FB69     		ldr	r3, [r7, #28]
 2281 00b2 03F00403 		and	r3, r3, #4
 2282              		.loc 1 1211 7
 2283 00b6 002B     		cmp	r3, #0
 2284 00b8 0AD0     		beq	.L101
 2285              		.loc 1 1211 62 discriminator 1
 2286 00ba 7B69     		ldr	r3, [r7, #20]
 2287 00bc 03F00103 		and	r3, r3, #1
 2288              		.loc 1 1211 50 discriminator 1
 2289 00c0 002B     		cmp	r3, #0
 2290 00c2 05D0     		beq	.L101
1212:./Libraries/STM32F4xx_HAL_Driver/Src/stm32f4xx_hal_smartcard.c ****     { 
1213:./Libraries/STM32F4xx_HAL_Driver/Src/stm32f4xx_hal_smartcard.c ****       hsc->ErrorCode |= HAL_SMARTCARD_ERROR_NE;
 2291              		.loc 1 1213 22
 2292 00c4 7B68     		ldr	r3, [r7, #4]
 2293 00c6 DB6C     		ldr	r3, [r3, #76]
ARM GAS  /tmp/cc5Yvz5O.s 			page 62


 2294 00c8 43F00202 		orr	r2, r3, #2
 2295 00cc 7B68     		ldr	r3, [r7, #4]
 2296 00ce DA64     		str	r2, [r3, #76]
 2297              	.L101:
1214:./Libraries/STM32F4xx_HAL_Driver/Src/stm32f4xx_hal_smartcard.c ****     }
1215:./Libraries/STM32F4xx_HAL_Driver/Src/stm32f4xx_hal_smartcard.c **** 
1216:./Libraries/STM32F4xx_HAL_Driver/Src/stm32f4xx_hal_smartcard.c ****     /* SMARTCARD Over-Run interrupt occurred -------------------------------*/
1217:./Libraries/STM32F4xx_HAL_Driver/Src/stm32f4xx_hal_smartcard.c ****     if(((isrflags & SMARTCARD_FLAG_ORE) != RESET) && ((cr3its & USART_CR3_EIE) != RESET))
 2298              		.loc 1 1217 19
 2299 00d0 FB69     		ldr	r3, [r7, #28]
 2300 00d2 03F00803 		and	r3, r3, #8
 2301              		.loc 1 1217 7
 2302 00d6 002B     		cmp	r3, #0
 2303 00d8 0AD0     		beq	.L102
 2304              		.loc 1 1217 63 discriminator 1
 2305 00da 7B69     		ldr	r3, [r7, #20]
 2306 00dc 03F00103 		and	r3, r3, #1
 2307              		.loc 1 1217 51 discriminator 1
 2308 00e0 002B     		cmp	r3, #0
 2309 00e2 05D0     		beq	.L102
1218:./Libraries/STM32F4xx_HAL_Driver/Src/stm32f4xx_hal_smartcard.c ****     { 
1219:./Libraries/STM32F4xx_HAL_Driver/Src/stm32f4xx_hal_smartcard.c ****       hsc->ErrorCode |= HAL_SMARTCARD_ERROR_ORE;
 2310              		.loc 1 1219 22
 2311 00e4 7B68     		ldr	r3, [r7, #4]
 2312 00e6 DB6C     		ldr	r3, [r3, #76]
 2313 00e8 43F00802 		orr	r2, r3, #8
 2314 00ec 7B68     		ldr	r3, [r7, #4]
 2315 00ee DA64     		str	r2, [r3, #76]
 2316              	.L102:
1220:./Libraries/STM32F4xx_HAL_Driver/Src/stm32f4xx_hal_smartcard.c ****     }
1221:./Libraries/STM32F4xx_HAL_Driver/Src/stm32f4xx_hal_smartcard.c ****     /* Call the Error call Back in case of Errors */
1222:./Libraries/STM32F4xx_HAL_Driver/Src/stm32f4xx_hal_smartcard.c ****     if(hsc->ErrorCode != HAL_SMARTCARD_ERROR_NONE)
 2317              		.loc 1 1222 11
 2318 00f0 7B68     		ldr	r3, [r7, #4]
 2319 00f2 DB6C     		ldr	r3, [r3, #76]
 2320              		.loc 1 1222 7
 2321 00f4 002B     		cmp	r3, #0
 2322 00f6 77D0     		beq	.L111
1223:./Libraries/STM32F4xx_HAL_Driver/Src/stm32f4xx_hal_smartcard.c ****     {
1224:./Libraries/STM32F4xx_HAL_Driver/Src/stm32f4xx_hal_smartcard.c ****       /* SMARTCARD in mode Receiver -----------------------------------------------*/
1225:./Libraries/STM32F4xx_HAL_Driver/Src/stm32f4xx_hal_smartcard.c ****       if(((isrflags & USART_SR_RXNE) != RESET) && ((cr1its & USART_CR1_RXNEIE) != RESET))
 2323              		.loc 1 1225 21
 2324 00f8 FB69     		ldr	r3, [r7, #28]
 2325 00fa 03F02003 		and	r3, r3, #32
 2326              		.loc 1 1225 9
 2327 00fe 002B     		cmp	r3, #0
 2328 0100 07D0     		beq	.L104
 2329              		.loc 1 1225 60 discriminator 1
 2330 0102 BB69     		ldr	r3, [r7, #24]
 2331 0104 03F02003 		and	r3, r3, #32
 2332              		.loc 1 1225 48 discriminator 1
 2333 0108 002B     		cmp	r3, #0
 2334 010a 02D0     		beq	.L104
1226:./Libraries/STM32F4xx_HAL_Driver/Src/stm32f4xx_hal_smartcard.c ****       {
1227:./Libraries/STM32F4xx_HAL_Driver/Src/stm32f4xx_hal_smartcard.c ****         SMARTCARD_Receive_IT(hsc);
 2335              		.loc 1 1227 9
 2336 010c 7868     		ldr	r0, [r7, #4]
ARM GAS  /tmp/cc5Yvz5O.s 			page 63


 2337 010e FFF7FEFF 		bl	SMARTCARD_Receive_IT
 2338              	.L104:
1228:./Libraries/STM32F4xx_HAL_Driver/Src/stm32f4xx_hal_smartcard.c ****       }
1229:./Libraries/STM32F4xx_HAL_Driver/Src/stm32f4xx_hal_smartcard.c **** 
1230:./Libraries/STM32F4xx_HAL_Driver/Src/stm32f4xx_hal_smartcard.c ****       /* If Overrun error occurs, or if any error occurs in DMA mode reception,
1231:./Libraries/STM32F4xx_HAL_Driver/Src/stm32f4xx_hal_smartcard.c ****          consider error as blocking */
1232:./Libraries/STM32F4xx_HAL_Driver/Src/stm32f4xx_hal_smartcard.c ****       dmarequest = HAL_IS_BIT_SET(hsc->Instance->CR3, USART_CR3_DMAR);
 2339              		.loc 1 1232 20
 2340 0112 7B68     		ldr	r3, [r7, #4]
 2341 0114 1B68     		ldr	r3, [r3]
 2342 0116 5B69     		ldr	r3, [r3, #20]
 2343 0118 03F04003 		and	r3, r3, #64
 2344 011c 002B     		cmp	r3, #0
 2345 011e 14BF     		ite	ne
 2346 0120 0123     		movne	r3, #1
 2347 0122 0023     		moveq	r3, #0
 2348 0124 DBB2     		uxtb	r3, r3
 2349              		.loc 1 1232 18
 2350 0126 3B61     		str	r3, [r7, #16]
1233:./Libraries/STM32F4xx_HAL_Driver/Src/stm32f4xx_hal_smartcard.c ****       if(((hsc->ErrorCode & HAL_SMARTCARD_ERROR_ORE) != RESET) || dmarequest)
 2351              		.loc 1 1233 15
 2352 0128 7B68     		ldr	r3, [r7, #4]
 2353 012a DB6C     		ldr	r3, [r3, #76]
 2354              		.loc 1 1233 27
 2355 012c 03F00803 		and	r3, r3, #8
 2356              		.loc 1 1233 9
 2357 0130 002B     		cmp	r3, #0
 2358 0132 02D1     		bne	.L105
 2359              		.loc 1 1233 64 discriminator 1
 2360 0134 3B69     		ldr	r3, [r7, #16]
 2361 0136 002B     		cmp	r3, #0
 2362 0138 31D0     		beq	.L106
 2363              	.L105:
1234:./Libraries/STM32F4xx_HAL_Driver/Src/stm32f4xx_hal_smartcard.c ****       {
1235:./Libraries/STM32F4xx_HAL_Driver/Src/stm32f4xx_hal_smartcard.c ****         /* Blocking error : transfer is aborted
1236:./Libraries/STM32F4xx_HAL_Driver/Src/stm32f4xx_hal_smartcard.c ****           Set the SMARTCARD state ready to be able to start again the process,
1237:./Libraries/STM32F4xx_HAL_Driver/Src/stm32f4xx_hal_smartcard.c ****           Disable Rx Interrupts, and disable Rx DMA request, if ongoing */
1238:./Libraries/STM32F4xx_HAL_Driver/Src/stm32f4xx_hal_smartcard.c ****         SMARTCARD_EndRxTransfer(hsc);
 2364              		.loc 1 1238 9
 2365 013a 7868     		ldr	r0, [r7, #4]
 2366 013c FFF7FEFF 		bl	SMARTCARD_EndRxTransfer
1239:./Libraries/STM32F4xx_HAL_Driver/Src/stm32f4xx_hal_smartcard.c ****         /* Disable the SMARTCARD DMA Rx request if enabled */
1240:./Libraries/STM32F4xx_HAL_Driver/Src/stm32f4xx_hal_smartcard.c ****         if(HAL_IS_BIT_SET(hsc->Instance->CR3, USART_CR3_DMAR))
 2367              		.loc 1 1240 12
 2368 0140 7B68     		ldr	r3, [r7, #4]
 2369 0142 1B68     		ldr	r3, [r3]
 2370 0144 5B69     		ldr	r3, [r3, #20]
 2371 0146 03F04003 		and	r3, r3, #64
 2372              		.loc 1 1240 11
 2373 014a 002B     		cmp	r3, #0
 2374 014c 23D0     		beq	.L107
1241:./Libraries/STM32F4xx_HAL_Driver/Src/stm32f4xx_hal_smartcard.c ****         {
1242:./Libraries/STM32F4xx_HAL_Driver/Src/stm32f4xx_hal_smartcard.c ****           CLEAR_BIT(hsc->Instance->CR3, USART_CR3_DMAR);
 2375              		.loc 1 1242 11
 2376 014e 7B68     		ldr	r3, [r7, #4]
 2377 0150 1B68     		ldr	r3, [r3]
 2378 0152 5A69     		ldr	r2, [r3, #20]
ARM GAS  /tmp/cc5Yvz5O.s 			page 64


 2379 0154 7B68     		ldr	r3, [r7, #4]
 2380 0156 1B68     		ldr	r3, [r3]
 2381 0158 22F04002 		bic	r2, r2, #64
 2382 015c 5A61     		str	r2, [r3, #20]
1243:./Libraries/STM32F4xx_HAL_Driver/Src/stm32f4xx_hal_smartcard.c **** 
1244:./Libraries/STM32F4xx_HAL_Driver/Src/stm32f4xx_hal_smartcard.c ****           /* Abort the SMARTCARD DMA Rx channel */
1245:./Libraries/STM32F4xx_HAL_Driver/Src/stm32f4xx_hal_smartcard.c ****           if(hsc->hdmarx != NULL)
 2383              		.loc 1 1245 17
 2384 015e 7B68     		ldr	r3, [r7, #4]
 2385 0160 5B6C     		ldr	r3, [r3, #68]
 2386              		.loc 1 1245 13
 2387 0162 002B     		cmp	r3, #0
 2388 0164 13D0     		beq	.L108
1246:./Libraries/STM32F4xx_HAL_Driver/Src/stm32f4xx_hal_smartcard.c ****           {
1247:./Libraries/STM32F4xx_HAL_Driver/Src/stm32f4xx_hal_smartcard.c ****             /* Set the SMARTCARD DMA Abort callback : 
1248:./Libraries/STM32F4xx_HAL_Driver/Src/stm32f4xx_hal_smartcard.c ****               will lead to call HAL_SMARTCARD_ErrorCallback() at end of DMA abort procedure */
1249:./Libraries/STM32F4xx_HAL_Driver/Src/stm32f4xx_hal_smartcard.c ****             hsc->hdmarx->XferAbortCallback = SMARTCARD_DMAAbortOnError;
 2389              		.loc 1 1249 16
 2390 0166 7B68     		ldr	r3, [r7, #4]
 2391 0168 5B6C     		ldr	r3, [r3, #68]
 2392              		.loc 1 1249 44
 2393 016a 214A     		ldr	r2, .L113
 2394 016c 1A65     		str	r2, [r3, #80]
1250:./Libraries/STM32F4xx_HAL_Driver/Src/stm32f4xx_hal_smartcard.c **** 
1251:./Libraries/STM32F4xx_HAL_Driver/Src/stm32f4xx_hal_smartcard.c ****            if(HAL_DMA_Abort_IT(hsc->hdmarx) != HAL_OK)
 2395              		.loc 1 1251 15
 2396 016e 7B68     		ldr	r3, [r7, #4]
 2397 0170 5B6C     		ldr	r3, [r3, #68]
 2398 0172 1846     		mov	r0, r3
 2399 0174 FFF7FEFF 		bl	HAL_DMA_Abort_IT
 2400 0178 0346     		mov	r3, r0
 2401              		.loc 1 1251 14
 2402 017a 002B     		cmp	r3, #0
 2403 017c 16D0     		beq	.L112
1252:./Libraries/STM32F4xx_HAL_Driver/Src/stm32f4xx_hal_smartcard.c ****             {
1253:./Libraries/STM32F4xx_HAL_Driver/Src/stm32f4xx_hal_smartcard.c ****               /* Call Directly XferAbortCallback function in case of error */
1254:./Libraries/STM32F4xx_HAL_Driver/Src/stm32f4xx_hal_smartcard.c ****               hsc->hdmarx->XferAbortCallback(hsc->hdmarx);
 2404              		.loc 1 1254 18
 2405 017e 7B68     		ldr	r3, [r7, #4]
 2406 0180 5B6C     		ldr	r3, [r3, #68]
 2407              		.loc 1 1254 26
 2408 0182 1B6D     		ldr	r3, [r3, #80]
 2409              		.loc 1 1254 49
 2410 0184 7A68     		ldr	r2, [r7, #4]
 2411 0186 526C     		ldr	r2, [r2, #68]
 2412              		.loc 1 1254 15
 2413 0188 1046     		mov	r0, r2
 2414 018a 9847     		blx	r3
 2415              	.LVL2:
1240:./Libraries/STM32F4xx_HAL_Driver/Src/stm32f4xx_hal_smartcard.c ****         {
 2416              		.loc 1 1240 11
 2417 018c 0EE0     		b	.L112
 2418              	.L108:
1255:./Libraries/STM32F4xx_HAL_Driver/Src/stm32f4xx_hal_smartcard.c ****             }
1256:./Libraries/STM32F4xx_HAL_Driver/Src/stm32f4xx_hal_smartcard.c ****           }
1257:./Libraries/STM32F4xx_HAL_Driver/Src/stm32f4xx_hal_smartcard.c ****           else
1258:./Libraries/STM32F4xx_HAL_Driver/Src/stm32f4xx_hal_smartcard.c ****           {
ARM GAS  /tmp/cc5Yvz5O.s 			page 65


1259:./Libraries/STM32F4xx_HAL_Driver/Src/stm32f4xx_hal_smartcard.c ****             /* Call user error callback */
1260:./Libraries/STM32F4xx_HAL_Driver/Src/stm32f4xx_hal_smartcard.c ****             HAL_SMARTCARD_ErrorCallback(hsc);
 2419              		.loc 1 1260 13
 2420 018e 7868     		ldr	r0, [r7, #4]
 2421 0190 FFF7FEFF 		bl	HAL_SMARTCARD_ErrorCallback
1240:./Libraries/STM32F4xx_HAL_Driver/Src/stm32f4xx_hal_smartcard.c ****         {
 2422              		.loc 1 1240 11
 2423 0194 0AE0     		b	.L112
 2424              	.L107:
1261:./Libraries/STM32F4xx_HAL_Driver/Src/stm32f4xx_hal_smartcard.c ****           }
1262:./Libraries/STM32F4xx_HAL_Driver/Src/stm32f4xx_hal_smartcard.c ****         }
1263:./Libraries/STM32F4xx_HAL_Driver/Src/stm32f4xx_hal_smartcard.c ****         else
1264:./Libraries/STM32F4xx_HAL_Driver/Src/stm32f4xx_hal_smartcard.c ****         {
1265:./Libraries/STM32F4xx_HAL_Driver/Src/stm32f4xx_hal_smartcard.c ****           /* Call user error callback */
1266:./Libraries/STM32F4xx_HAL_Driver/Src/stm32f4xx_hal_smartcard.c ****           HAL_SMARTCARD_ErrorCallback(hsc);
 2425              		.loc 1 1266 11
 2426 0196 7868     		ldr	r0, [r7, #4]
 2427 0198 FFF7FEFF 		bl	HAL_SMARTCARD_ErrorCallback
1240:./Libraries/STM32F4xx_HAL_Driver/Src/stm32f4xx_hal_smartcard.c ****         {
 2428              		.loc 1 1240 11
 2429 019c 06E0     		b	.L112
 2430              	.L106:
1267:./Libraries/STM32F4xx_HAL_Driver/Src/stm32f4xx_hal_smartcard.c ****         }
1268:./Libraries/STM32F4xx_HAL_Driver/Src/stm32f4xx_hal_smartcard.c ****       }
1269:./Libraries/STM32F4xx_HAL_Driver/Src/stm32f4xx_hal_smartcard.c ****       else
1270:./Libraries/STM32F4xx_HAL_Driver/Src/stm32f4xx_hal_smartcard.c ****       {
1271:./Libraries/STM32F4xx_HAL_Driver/Src/stm32f4xx_hal_smartcard.c ****         /* Call user error callback */
1272:./Libraries/STM32F4xx_HAL_Driver/Src/stm32f4xx_hal_smartcard.c ****         HAL_SMARTCARD_ErrorCallback(hsc);
 2431              		.loc 1 1272 9
 2432 019e 7868     		ldr	r0, [r7, #4]
 2433 01a0 FFF7FEFF 		bl	HAL_SMARTCARD_ErrorCallback
1273:./Libraries/STM32F4xx_HAL_Driver/Src/stm32f4xx_hal_smartcard.c ****         hsc->ErrorCode = HAL_SMARTCARD_ERROR_NONE;
 2434              		.loc 1 1273 24
 2435 01a4 7B68     		ldr	r3, [r7, #4]
 2436 01a6 0022     		movs	r2, #0
 2437 01a8 DA64     		str	r2, [r3, #76]
1274:./Libraries/STM32F4xx_HAL_Driver/Src/stm32f4xx_hal_smartcard.c ****       }
1275:./Libraries/STM32F4xx_HAL_Driver/Src/stm32f4xx_hal_smartcard.c ****     }
1276:./Libraries/STM32F4xx_HAL_Driver/Src/stm32f4xx_hal_smartcard.c ****     return;
 2438              		.loc 1 1276 5
 2439 01aa 1DE0     		b	.L111
 2440              	.L112:
1240:./Libraries/STM32F4xx_HAL_Driver/Src/stm32f4xx_hal_smartcard.c ****         {
 2441              		.loc 1 1240 11
 2442 01ac 00BF     		nop
 2443              		.loc 1 1276 5
 2444 01ae 1BE0     		b	.L111
 2445              	.L97:
1277:./Libraries/STM32F4xx_HAL_Driver/Src/stm32f4xx_hal_smartcard.c ****   } /* End if some error occurs */
1278:./Libraries/STM32F4xx_HAL_Driver/Src/stm32f4xx_hal_smartcard.c ****   
1279:./Libraries/STM32F4xx_HAL_Driver/Src/stm32f4xx_hal_smartcard.c ****   /* SMARTCARD in mode Transmitter -------------------------------------------*/
1280:./Libraries/STM32F4xx_HAL_Driver/Src/stm32f4xx_hal_smartcard.c ****   if(((isrflags & SMARTCARD_FLAG_TXE) != RESET) && ((cr1its & USART_CR1_TXEIE) != RESET))
 2446              		.loc 1 1280 17
 2447 01b0 FB69     		ldr	r3, [r7, #28]
 2448 01b2 03F08003 		and	r3, r3, #128
 2449              		.loc 1 1280 5
 2450 01b6 002B     		cmp	r3, #0
ARM GAS  /tmp/cc5Yvz5O.s 			page 66


 2451 01b8 08D0     		beq	.L110
 2452              		.loc 1 1280 61 discriminator 1
 2453 01ba BB69     		ldr	r3, [r7, #24]
 2454 01bc 03F08003 		and	r3, r3, #128
 2455              		.loc 1 1280 49 discriminator 1
 2456 01c0 002B     		cmp	r3, #0
 2457 01c2 03D0     		beq	.L110
1281:./Libraries/STM32F4xx_HAL_Driver/Src/stm32f4xx_hal_smartcard.c ****   {
1282:./Libraries/STM32F4xx_HAL_Driver/Src/stm32f4xx_hal_smartcard.c ****     SMARTCARD_Transmit_IT(hsc);
 2458              		.loc 1 1282 5
 2459 01c4 7868     		ldr	r0, [r7, #4]
 2460 01c6 FFF7FEFF 		bl	SMARTCARD_Transmit_IT
1283:./Libraries/STM32F4xx_HAL_Driver/Src/stm32f4xx_hal_smartcard.c ****     return;
 2461              		.loc 1 1283 5
 2462 01ca 0EE0     		b	.L94
 2463              	.L110:
1284:./Libraries/STM32F4xx_HAL_Driver/Src/stm32f4xx_hal_smartcard.c ****   }
1285:./Libraries/STM32F4xx_HAL_Driver/Src/stm32f4xx_hal_smartcard.c ****   
1286:./Libraries/STM32F4xx_HAL_Driver/Src/stm32f4xx_hal_smartcard.c ****   /* SMARTCARD in mode Transmitter (transmission end) ------------------------*/
1287:./Libraries/STM32F4xx_HAL_Driver/Src/stm32f4xx_hal_smartcard.c ****   if(((isrflags & SMARTCARD_FLAG_TC) != RESET) && ((cr1its & USART_CR1_TCIE) != RESET))
 2464              		.loc 1 1287 17
 2465 01cc FB69     		ldr	r3, [r7, #28]
 2466 01ce 03F04003 		and	r3, r3, #64
 2467              		.loc 1 1287 5
 2468 01d2 002B     		cmp	r3, #0
 2469 01d4 09D0     		beq	.L94
 2470              		.loc 1 1287 60 discriminator 1
 2471 01d6 BB69     		ldr	r3, [r7, #24]
 2472 01d8 03F04003 		and	r3, r3, #64
 2473              		.loc 1 1287 48 discriminator 1
 2474 01dc 002B     		cmp	r3, #0
 2475 01de 04D0     		beq	.L94
1288:./Libraries/STM32F4xx_HAL_Driver/Src/stm32f4xx_hal_smartcard.c ****   {
1289:./Libraries/STM32F4xx_HAL_Driver/Src/stm32f4xx_hal_smartcard.c ****     SMARTCARD_EndTransmit_IT(hsc);
 2476              		.loc 1 1289 5
 2477 01e0 7868     		ldr	r0, [r7, #4]
 2478 01e2 FFF7FEFF 		bl	SMARTCARD_EndTransmit_IT
1290:./Libraries/STM32F4xx_HAL_Driver/Src/stm32f4xx_hal_smartcard.c ****     return;
 2479              		.loc 1 1290 5
 2480 01e6 00E0     		b	.L94
 2481              	.L111:
1276:./Libraries/STM32F4xx_HAL_Driver/Src/stm32f4xx_hal_smartcard.c ****   } /* End if some error occurs */
 2482              		.loc 1 1276 5
 2483 01e8 00BF     		nop
 2484              	.L94:
1291:./Libraries/STM32F4xx_HAL_Driver/Src/stm32f4xx_hal_smartcard.c ****   }
1292:./Libraries/STM32F4xx_HAL_Driver/Src/stm32f4xx_hal_smartcard.c **** }
 2485              		.loc 1 1292 1
 2486 01ea 2037     		adds	r7, r7, #32
 2487              	.LCFI87:
 2488              		.cfi_def_cfa_offset 8
 2489 01ec BD46     		mov	sp, r7
 2490              	.LCFI88:
 2491              		.cfi_def_cfa_register 13
 2492              		@ sp needed
 2493 01ee 80BD     		pop	{r7, pc}
 2494              	.L114:
ARM GAS  /tmp/cc5Yvz5O.s 			page 67


 2495              		.align	2
 2496              	.L113:
 2497 01f0 00000000 		.word	SMARTCARD_DMAAbortOnError
 2498              		.cfi_endproc
 2499              	.LFE142:
 2501              		.section	.text.HAL_SMARTCARD_TxCpltCallback,"ax",%progbits
 2502              		.align	1
 2503              		.weak	HAL_SMARTCARD_TxCpltCallback
 2504              		.syntax unified
 2505              		.thumb
 2506              		.thumb_func
 2507              		.fpu fpv4-sp-d16
 2509              	HAL_SMARTCARD_TxCpltCallback:
 2510              	.LFB143:
1293:./Libraries/STM32F4xx_HAL_Driver/Src/stm32f4xx_hal_smartcard.c **** 
1294:./Libraries/STM32F4xx_HAL_Driver/Src/stm32f4xx_hal_smartcard.c **** /**
1295:./Libraries/STM32F4xx_HAL_Driver/Src/stm32f4xx_hal_smartcard.c ****   * @brief Tx Transfer completed callbacks
1296:./Libraries/STM32F4xx_HAL_Driver/Src/stm32f4xx_hal_smartcard.c ****   * @param  hsc pointer to a SMARTCARD_HandleTypeDef structure that contains
1297:./Libraries/STM32F4xx_HAL_Driver/Src/stm32f4xx_hal_smartcard.c ****   *                the configuration information for SMARTCARD module.
1298:./Libraries/STM32F4xx_HAL_Driver/Src/stm32f4xx_hal_smartcard.c ****   * @retval None
1299:./Libraries/STM32F4xx_HAL_Driver/Src/stm32f4xx_hal_smartcard.c ****   */
1300:./Libraries/STM32F4xx_HAL_Driver/Src/stm32f4xx_hal_smartcard.c ****  __weak void HAL_SMARTCARD_TxCpltCallback(SMARTCARD_HandleTypeDef *hsc)
1301:./Libraries/STM32F4xx_HAL_Driver/Src/stm32f4xx_hal_smartcard.c **** {
 2511              		.loc 1 1301 1
 2512              		.cfi_startproc
 2513              		@ args = 0, pretend = 0, frame = 8
 2514              		@ frame_needed = 1, uses_anonymous_args = 0
 2515              		@ link register save eliminated.
 2516 0000 80B4     		push	{r7}
 2517              	.LCFI89:
 2518              		.cfi_def_cfa_offset 4
 2519              		.cfi_offset 7, -4
 2520 0002 83B0     		sub	sp, sp, #12
 2521              	.LCFI90:
 2522              		.cfi_def_cfa_offset 16
 2523 0004 00AF     		add	r7, sp, #0
 2524              	.LCFI91:
 2525              		.cfi_def_cfa_register 7
 2526 0006 7860     		str	r0, [r7, #4]
1302:./Libraries/STM32F4xx_HAL_Driver/Src/stm32f4xx_hal_smartcard.c ****   /* Prevent unused argument(s) compilation warning */
1303:./Libraries/STM32F4xx_HAL_Driver/Src/stm32f4xx_hal_smartcard.c ****   UNUSED(hsc);
1304:./Libraries/STM32F4xx_HAL_Driver/Src/stm32f4xx_hal_smartcard.c ****   /* NOTE : This function Should not be modified, when the callback is needed,
1305:./Libraries/STM32F4xx_HAL_Driver/Src/stm32f4xx_hal_smartcard.c ****             the HAL_SMARTCARD_TxCpltCallback could be implemented in the user file
1306:./Libraries/STM32F4xx_HAL_Driver/Src/stm32f4xx_hal_smartcard.c ****    */ 
1307:./Libraries/STM32F4xx_HAL_Driver/Src/stm32f4xx_hal_smartcard.c **** }
 2527              		.loc 1 1307 1
 2528 0008 00BF     		nop
 2529 000a 0C37     		adds	r7, r7, #12
 2530              	.LCFI92:
 2531              		.cfi_def_cfa_offset 4
 2532 000c BD46     		mov	sp, r7
 2533              	.LCFI93:
 2534              		.cfi_def_cfa_register 13
 2535              		@ sp needed
 2536 000e 5DF8047B 		ldr	r7, [sp], #4
 2537              	.LCFI94:
 2538              		.cfi_restore 7
ARM GAS  /tmp/cc5Yvz5O.s 			page 68


 2539              		.cfi_def_cfa_offset 0
 2540 0012 7047     		bx	lr
 2541              		.cfi_endproc
 2542              	.LFE143:
 2544              		.section	.text.HAL_SMARTCARD_RxCpltCallback,"ax",%progbits
 2545              		.align	1
 2546              		.weak	HAL_SMARTCARD_RxCpltCallback
 2547              		.syntax unified
 2548              		.thumb
 2549              		.thumb_func
 2550              		.fpu fpv4-sp-d16
 2552              	HAL_SMARTCARD_RxCpltCallback:
 2553              	.LFB144:
1308:./Libraries/STM32F4xx_HAL_Driver/Src/stm32f4xx_hal_smartcard.c **** 
1309:./Libraries/STM32F4xx_HAL_Driver/Src/stm32f4xx_hal_smartcard.c **** /**
1310:./Libraries/STM32F4xx_HAL_Driver/Src/stm32f4xx_hal_smartcard.c ****   * @brief Rx Transfer completed callbacks
1311:./Libraries/STM32F4xx_HAL_Driver/Src/stm32f4xx_hal_smartcard.c ****   * @param  hsc pointer to a SMARTCARD_HandleTypeDef structure that contains
1312:./Libraries/STM32F4xx_HAL_Driver/Src/stm32f4xx_hal_smartcard.c ****   *                the configuration information for SMARTCARD module.
1313:./Libraries/STM32F4xx_HAL_Driver/Src/stm32f4xx_hal_smartcard.c ****   * @retval None
1314:./Libraries/STM32F4xx_HAL_Driver/Src/stm32f4xx_hal_smartcard.c ****   */
1315:./Libraries/STM32F4xx_HAL_Driver/Src/stm32f4xx_hal_smartcard.c **** __weak void HAL_SMARTCARD_RxCpltCallback(SMARTCARD_HandleTypeDef *hsc)
1316:./Libraries/STM32F4xx_HAL_Driver/Src/stm32f4xx_hal_smartcard.c **** {
 2554              		.loc 1 1316 1
 2555              		.cfi_startproc
 2556              		@ args = 0, pretend = 0, frame = 8
 2557              		@ frame_needed = 1, uses_anonymous_args = 0
 2558              		@ link register save eliminated.
 2559 0000 80B4     		push	{r7}
 2560              	.LCFI95:
 2561              		.cfi_def_cfa_offset 4
 2562              		.cfi_offset 7, -4
 2563 0002 83B0     		sub	sp, sp, #12
 2564              	.LCFI96:
 2565              		.cfi_def_cfa_offset 16
 2566 0004 00AF     		add	r7, sp, #0
 2567              	.LCFI97:
 2568              		.cfi_def_cfa_register 7
 2569 0006 7860     		str	r0, [r7, #4]
1317:./Libraries/STM32F4xx_HAL_Driver/Src/stm32f4xx_hal_smartcard.c ****   /* Prevent unused argument(s) compilation warning */
1318:./Libraries/STM32F4xx_HAL_Driver/Src/stm32f4xx_hal_smartcard.c ****   UNUSED(hsc);
1319:./Libraries/STM32F4xx_HAL_Driver/Src/stm32f4xx_hal_smartcard.c ****   /* NOTE : This function Should not be modified, when the callback is needed,
1320:./Libraries/STM32F4xx_HAL_Driver/Src/stm32f4xx_hal_smartcard.c ****             the HAL_SMARTCARD_TxCpltCallback could be implemented in the user file
1321:./Libraries/STM32F4xx_HAL_Driver/Src/stm32f4xx_hal_smartcard.c ****    */
1322:./Libraries/STM32F4xx_HAL_Driver/Src/stm32f4xx_hal_smartcard.c **** }
 2570              		.loc 1 1322 1
 2571 0008 00BF     		nop
 2572 000a 0C37     		adds	r7, r7, #12
 2573              	.LCFI98:
 2574              		.cfi_def_cfa_offset 4
 2575 000c BD46     		mov	sp, r7
 2576              	.LCFI99:
 2577              		.cfi_def_cfa_register 13
 2578              		@ sp needed
 2579 000e 5DF8047B 		ldr	r7, [sp], #4
 2580              	.LCFI100:
 2581              		.cfi_restore 7
 2582              		.cfi_def_cfa_offset 0
ARM GAS  /tmp/cc5Yvz5O.s 			page 69


 2583 0012 7047     		bx	lr
 2584              		.cfi_endproc
 2585              	.LFE144:
 2587              		.section	.text.HAL_SMARTCARD_ErrorCallback,"ax",%progbits
 2588              		.align	1
 2589              		.weak	HAL_SMARTCARD_ErrorCallback
 2590              		.syntax unified
 2591              		.thumb
 2592              		.thumb_func
 2593              		.fpu fpv4-sp-d16
 2595              	HAL_SMARTCARD_ErrorCallback:
 2596              	.LFB145:
1323:./Libraries/STM32F4xx_HAL_Driver/Src/stm32f4xx_hal_smartcard.c **** 
1324:./Libraries/STM32F4xx_HAL_Driver/Src/stm32f4xx_hal_smartcard.c **** /**
1325:./Libraries/STM32F4xx_HAL_Driver/Src/stm32f4xx_hal_smartcard.c ****   * @brief SMARTCARD error callbacks
1326:./Libraries/STM32F4xx_HAL_Driver/Src/stm32f4xx_hal_smartcard.c ****   * @param  hsc pointer to a SMARTCARD_HandleTypeDef structure that contains
1327:./Libraries/STM32F4xx_HAL_Driver/Src/stm32f4xx_hal_smartcard.c ****   *                the configuration information for SMARTCARD module.
1328:./Libraries/STM32F4xx_HAL_Driver/Src/stm32f4xx_hal_smartcard.c ****   * @retval None
1329:./Libraries/STM32F4xx_HAL_Driver/Src/stm32f4xx_hal_smartcard.c ****   */
1330:./Libraries/STM32F4xx_HAL_Driver/Src/stm32f4xx_hal_smartcard.c ****  __weak void HAL_SMARTCARD_ErrorCallback(SMARTCARD_HandleTypeDef *hsc)
1331:./Libraries/STM32F4xx_HAL_Driver/Src/stm32f4xx_hal_smartcard.c **** {
 2597              		.loc 1 1331 1
 2598              		.cfi_startproc
 2599              		@ args = 0, pretend = 0, frame = 8
 2600              		@ frame_needed = 1, uses_anonymous_args = 0
 2601              		@ link register save eliminated.
 2602 0000 80B4     		push	{r7}
 2603              	.LCFI101:
 2604              		.cfi_def_cfa_offset 4
 2605              		.cfi_offset 7, -4
 2606 0002 83B0     		sub	sp, sp, #12
 2607              	.LCFI102:
 2608              		.cfi_def_cfa_offset 16
 2609 0004 00AF     		add	r7, sp, #0
 2610              	.LCFI103:
 2611              		.cfi_def_cfa_register 7
 2612 0006 7860     		str	r0, [r7, #4]
1332:./Libraries/STM32F4xx_HAL_Driver/Src/stm32f4xx_hal_smartcard.c ****   /* Prevent unused argument(s) compilation warning */
1333:./Libraries/STM32F4xx_HAL_Driver/Src/stm32f4xx_hal_smartcard.c ****   UNUSED(hsc);
1334:./Libraries/STM32F4xx_HAL_Driver/Src/stm32f4xx_hal_smartcard.c ****   /* NOTE : This function Should not be modified, when the callback is needed,
1335:./Libraries/STM32F4xx_HAL_Driver/Src/stm32f4xx_hal_smartcard.c ****             the HAL_SMARTCARD_ErrorCallback could be implemented in the user file
1336:./Libraries/STM32F4xx_HAL_Driver/Src/stm32f4xx_hal_smartcard.c ****    */
1337:./Libraries/STM32F4xx_HAL_Driver/Src/stm32f4xx_hal_smartcard.c **** }
 2613              		.loc 1 1337 1
 2614 0008 00BF     		nop
 2615 000a 0C37     		adds	r7, r7, #12
 2616              	.LCFI104:
 2617              		.cfi_def_cfa_offset 4
 2618 000c BD46     		mov	sp, r7
 2619              	.LCFI105:
 2620              		.cfi_def_cfa_register 13
 2621              		@ sp needed
 2622 000e 5DF8047B 		ldr	r7, [sp], #4
 2623              	.LCFI106:
 2624              		.cfi_restore 7
 2625              		.cfi_def_cfa_offset 0
 2626 0012 7047     		bx	lr
ARM GAS  /tmp/cc5Yvz5O.s 			page 70


 2627              		.cfi_endproc
 2628              	.LFE145:
 2630              		.section	.text.HAL_SMARTCARD_AbortCpltCallback,"ax",%progbits
 2631              		.align	1
 2632              		.weak	HAL_SMARTCARD_AbortCpltCallback
 2633              		.syntax unified
 2634              		.thumb
 2635              		.thumb_func
 2636              		.fpu fpv4-sp-d16
 2638              	HAL_SMARTCARD_AbortCpltCallback:
 2639              	.LFB146:
1338:./Libraries/STM32F4xx_HAL_Driver/Src/stm32f4xx_hal_smartcard.c **** 
1339:./Libraries/STM32F4xx_HAL_Driver/Src/stm32f4xx_hal_smartcard.c **** /**
1340:./Libraries/STM32F4xx_HAL_Driver/Src/stm32f4xx_hal_smartcard.c ****   * @brief  SMARTCARD Abort Complete callback.
1341:./Libraries/STM32F4xx_HAL_Driver/Src/stm32f4xx_hal_smartcard.c ****   * @param  hsc SMARTCARD handle.
1342:./Libraries/STM32F4xx_HAL_Driver/Src/stm32f4xx_hal_smartcard.c ****   * @retval None
1343:./Libraries/STM32F4xx_HAL_Driver/Src/stm32f4xx_hal_smartcard.c ****   */
1344:./Libraries/STM32F4xx_HAL_Driver/Src/stm32f4xx_hal_smartcard.c **** __weak void HAL_SMARTCARD_AbortCpltCallback (SMARTCARD_HandleTypeDef *hsc)
1345:./Libraries/STM32F4xx_HAL_Driver/Src/stm32f4xx_hal_smartcard.c **** {
 2640              		.loc 1 1345 1
 2641              		.cfi_startproc
 2642              		@ args = 0, pretend = 0, frame = 8
 2643              		@ frame_needed = 1, uses_anonymous_args = 0
 2644              		@ link register save eliminated.
 2645 0000 80B4     		push	{r7}
 2646              	.LCFI107:
 2647              		.cfi_def_cfa_offset 4
 2648              		.cfi_offset 7, -4
 2649 0002 83B0     		sub	sp, sp, #12
 2650              	.LCFI108:
 2651              		.cfi_def_cfa_offset 16
 2652 0004 00AF     		add	r7, sp, #0
 2653              	.LCFI109:
 2654              		.cfi_def_cfa_register 7
 2655 0006 7860     		str	r0, [r7, #4]
1346:./Libraries/STM32F4xx_HAL_Driver/Src/stm32f4xx_hal_smartcard.c ****   /* Prevent unused argument(s) compilation warning */
1347:./Libraries/STM32F4xx_HAL_Driver/Src/stm32f4xx_hal_smartcard.c ****   UNUSED(hsc);
1348:./Libraries/STM32F4xx_HAL_Driver/Src/stm32f4xx_hal_smartcard.c **** 
1349:./Libraries/STM32F4xx_HAL_Driver/Src/stm32f4xx_hal_smartcard.c ****   /* NOTE : This function should not be modified, when the callback is needed,
1350:./Libraries/STM32F4xx_HAL_Driver/Src/stm32f4xx_hal_smartcard.c ****             the HAL_SMARTCARD_AbortCpltCallback can be implemented in the user file.
1351:./Libraries/STM32F4xx_HAL_Driver/Src/stm32f4xx_hal_smartcard.c ****    */
1352:./Libraries/STM32F4xx_HAL_Driver/Src/stm32f4xx_hal_smartcard.c **** }
 2656              		.loc 1 1352 1
 2657 0008 00BF     		nop
 2658 000a 0C37     		adds	r7, r7, #12
 2659              	.LCFI110:
 2660              		.cfi_def_cfa_offset 4
 2661 000c BD46     		mov	sp, r7
 2662              	.LCFI111:
 2663              		.cfi_def_cfa_register 13
 2664              		@ sp needed
 2665 000e 5DF8047B 		ldr	r7, [sp], #4
 2666              	.LCFI112:
 2667              		.cfi_restore 7
 2668              		.cfi_def_cfa_offset 0
 2669 0012 7047     		bx	lr
 2670              		.cfi_endproc
ARM GAS  /tmp/cc5Yvz5O.s 			page 71


 2671              	.LFE146:
 2673              		.section	.text.HAL_SMARTCARD_AbortTransmitCpltCallback,"ax",%progbits
 2674              		.align	1
 2675              		.weak	HAL_SMARTCARD_AbortTransmitCpltCallback
 2676              		.syntax unified
 2677              		.thumb
 2678              		.thumb_func
 2679              		.fpu fpv4-sp-d16
 2681              	HAL_SMARTCARD_AbortTransmitCpltCallback:
 2682              	.LFB147:
1353:./Libraries/STM32F4xx_HAL_Driver/Src/stm32f4xx_hal_smartcard.c **** 
