ARM GAS  /tmp/ccG4wPmI.s 			page 1


   1              		.cpu cortex-m4
   2              		.eabi_attribute 27, 1
   3              		.eabi_attribute 28, 1
   4              		.eabi_attribute 20, 1
   5              		.eabi_attribute 21, 1
   6              		.eabi_attribute 23, 3
   7              		.eabi_attribute 24, 1
   8              		.eabi_attribute 25, 1
   9              		.eabi_attribute 26, 1
  10              		.eabi_attribute 30, 6
  11              		.eabi_attribute 34, 1
  12              		.eabi_attribute 18, 4
  13              		.file	"stm32f4xx_it.c"
  14              		.text
  15              	.Ltext0:
  16              		.cfi_sections	.debug_frame
  17              		.section	.text.NMI_Handler,"ax",%progbits
  18              		.align	1
  19              		.global	NMI_Handler
  20              		.arch armv7e-m
  21              		.syntax unified
  22              		.thumb
  23              		.thumb_func
  24              		.fpu fpv4-sp-d16
  26              	NMI_Handler:
  27              	.LFB126:
  28              		.file 1 "./User/Src/stm32f4xx_it.c"
   1:./User/Src/stm32f4xx_it.c **** /**
   2:./User/Src/stm32f4xx_it.c ****   ******************************************************************************
   3:./User/Src/stm32f4xx_it.c ****   * @file    GPIO/GPIO_EXTI/Src/stm32f4xx_it.c 
   4:./User/Src/stm32f4xx_it.c ****   * @author  MCD Application Team
   5:./User/Src/stm32f4xx_it.c ****   * @brief   Main Interrupt Service Routines.
   6:./User/Src/stm32f4xx_it.c ****   *          This file provides template for all exceptions handler and 
   7:./User/Src/stm32f4xx_it.c ****   *          peripherals interrupt service routine.
   8:./User/Src/stm32f4xx_it.c ****   ******************************************************************************
   9:./User/Src/stm32f4xx_it.c ****   * @attention
  10:./User/Src/stm32f4xx_it.c ****   *
  11:./User/Src/stm32f4xx_it.c ****   * <h2><center>&copy; COPYRIGHT(c) 2017 STMicroelectronics</center></h2>
  12:./User/Src/stm32f4xx_it.c ****   *
  13:./User/Src/stm32f4xx_it.c ****   * Redistribution and use in source and binary forms, with or without modification,
  14:./User/Src/stm32f4xx_it.c ****   * are permitted provided that the following conditions are met:
  15:./User/Src/stm32f4xx_it.c ****   *   1. Redistributions of source code must retain the above copyright notice,
  16:./User/Src/stm32f4xx_it.c ****   *      this list of conditions and the following disclaimer.
  17:./User/Src/stm32f4xx_it.c ****   *   2. Redistributions in binary form must reproduce the above copyright notice,
  18:./User/Src/stm32f4xx_it.c ****   *      this list of conditions and the following disclaimer in the documentation
  19:./User/Src/stm32f4xx_it.c ****   *      and/or other materials provided with the distribution.
  20:./User/Src/stm32f4xx_it.c ****   *   3. Neither the name of STMicroelectronics nor the names of its contributors
  21:./User/Src/stm32f4xx_it.c ****   *      may be used to endorse or promote products derived from this software
  22:./User/Src/stm32f4xx_it.c ****   *      without specific prior written permission.
  23:./User/Src/stm32f4xx_it.c ****   *
  24:./User/Src/stm32f4xx_it.c ****   * THIS SOFTWARE IS PROVIDED BY THE COPYRIGHT HOLDERS AND CONTRIBUTORS "AS IS"
  25:./User/Src/stm32f4xx_it.c ****   * AND ANY EXPRESS OR IMPLIED WARRANTIES, INCLUDING, BUT NOT LIMITED TO, THE
  26:./User/Src/stm32f4xx_it.c ****   * IMPLIED WARRANTIES OF MERCHANTABILITY AND FITNESS FOR A PARTICULAR PURPOSE ARE
  27:./User/Src/stm32f4xx_it.c ****   * DISCLAIMED. IN NO EVENT SHALL THE COPYRIGHT HOLDER OR CONTRIBUTORS BE LIABLE
  28:./User/Src/stm32f4xx_it.c ****   * FOR ANY DIRECT, INDIRECT, INCIDENTAL, SPECIAL, EXEMPLARY, OR CONSEQUENTIAL
  29:./User/Src/stm32f4xx_it.c ****   * DAMAGES (INCLUDING, BUT NOT LIMITED TO, PROCUREMENT OF SUBSTITUTE GOODS OR
  30:./User/Src/stm32f4xx_it.c ****   * SERVICES; LOSS OF USE, DATA, OR PROFITS; OR BUSINESS INTERRUPTION) HOWEVER
ARM GAS  /tmp/ccG4wPmI.s 			page 2


  31:./User/Src/stm32f4xx_it.c ****   * CAUSED AND ON ANY THEORY OF LIABILITY, WHETHER IN CONTRACT, STRICT LIABILITY,
  32:./User/Src/stm32f4xx_it.c ****   * OR TORT (INCLUDING NEGLIGENCE OR OTHERWISE) ARISING IN ANY WAY OUT OF THE USE
  33:./User/Src/stm32f4xx_it.c ****   * OF THIS SOFTWARE, EVEN IF ADVISED OF THE POSSIBILITY OF SUCH DAMAGE.
  34:./User/Src/stm32f4xx_it.c ****   *
  35:./User/Src/stm32f4xx_it.c ****   ******************************************************************************
  36:./User/Src/stm32f4xx_it.c ****   */
  37:./User/Src/stm32f4xx_it.c **** 
  38:./User/Src/stm32f4xx_it.c **** /* Includes ------------------------------------------------------------------*/
  39:./User/Src/stm32f4xx_it.c **** #include "main.h"
  40:./User/Src/stm32f4xx_it.c **** #include "stm32f4xx_it.h"
  41:./User/Src/stm32f4xx_it.c **** 
  42:./User/Src/stm32f4xx_it.c **** /** @addtogroup STM32F4xx_HAL_Examples
  43:./User/Src/stm32f4xx_it.c ****   * @{
  44:./User/Src/stm32f4xx_it.c ****   */
  45:./User/Src/stm32f4xx_it.c **** 
  46:./User/Src/stm32f4xx_it.c **** /** @addtogroup GPIO_EXTI
  47:./User/Src/stm32f4xx_it.c ****   * @{
  48:./User/Src/stm32f4xx_it.c ****   */
  49:./User/Src/stm32f4xx_it.c **** 
  50:./User/Src/stm32f4xx_it.c **** /* Private typedef -----------------------------------------------------------*/
  51:./User/Src/stm32f4xx_it.c **** /* Private define ------------------------------------------------------------*/
  52:./User/Src/stm32f4xx_it.c **** /* Private macro -------------------------------------------------------------*/
  53:./User/Src/stm32f4xx_it.c **** /* Private variables ---------------------------------------------------------*/
  54:./User/Src/stm32f4xx_it.c **** /* Private function prototypes -----------------------------------------------*/
  55:./User/Src/stm32f4xx_it.c **** /* Private functions ---------------------------------------------------------*/
  56:./User/Src/stm32f4xx_it.c **** 
  57:./User/Src/stm32f4xx_it.c **** /******************************************************************************/
  58:./User/Src/stm32f4xx_it.c **** /*            Cortex-M4 Processor Exceptions Handlers                         */
  59:./User/Src/stm32f4xx_it.c **** /******************************************************************************/
  60:./User/Src/stm32f4xx_it.c **** 
  61:./User/Src/stm32f4xx_it.c **** /**
  62:./User/Src/stm32f4xx_it.c ****   * @brief  This function handles NMI exception.
  63:./User/Src/stm32f4xx_it.c ****   * @param  None
  64:./User/Src/stm32f4xx_it.c ****   * @retval None
  65:./User/Src/stm32f4xx_it.c ****   */
  66:./User/Src/stm32f4xx_it.c **** void NMI_Handler(void)
  67:./User/Src/stm32f4xx_it.c **** {
  29              		.loc 1 67 1
  30              		.cfi_startproc
  31              		@ args = 0, pretend = 0, frame = 0
  32              		@ frame_needed = 1, uses_anonymous_args = 0
  33              		@ link register save eliminated.
  34 0000 80B4     		push	{r7}
  35              	.LCFI0:
  36              		.cfi_def_cfa_offset 4
  37              		.cfi_offset 7, -4
  38 0002 00AF     		add	r7, sp, #0
  39              	.LCFI1:
  40              		.cfi_def_cfa_register 7
  68:./User/Src/stm32f4xx_it.c **** }
  41              		.loc 1 68 1
  42 0004 00BF     		nop
  43 0006 BD46     		mov	sp, r7
  44              	.LCFI2:
  45              		.cfi_def_cfa_register 13
  46              		@ sp needed
  47 0008 5DF8047B 		ldr	r7, [sp], #4
ARM GAS  /tmp/ccG4wPmI.s 			page 3


  48              	.LCFI3:
  49              		.cfi_restore 7
  50              		.cfi_def_cfa_offset 0
  51 000c 7047     		bx	lr
  52              		.cfi_endproc
  53              	.LFE126:
  55              		.section	.text.HardFault_Handler,"ax",%progbits
  56              		.align	1
  57              		.global	HardFault_Handler
  58              		.syntax unified
  59              		.thumb
  60              		.thumb_func
  61              		.fpu fpv4-sp-d16
  63              	HardFault_Handler:
  64              	.LFB127:
  69:./User/Src/stm32f4xx_it.c **** 
  70:./User/Src/stm32f4xx_it.c **** /**
  71:./User/Src/stm32f4xx_it.c ****   * @brief  This function handles Hard Fault exception.
  72:./User/Src/stm32f4xx_it.c ****   * @param  None
  73:./User/Src/stm32f4xx_it.c ****   * @retval None
  74:./User/Src/stm32f4xx_it.c ****   */
  75:./User/Src/stm32f4xx_it.c **** void HardFault_Handler(void)
  76:./User/Src/stm32f4xx_it.c **** {
  65              		.loc 1 76 1
  66              		.cfi_startproc
  67              		@ args = 0, pretend = 0, frame = 0
  68              		@ frame_needed = 1, uses_anonymous_args = 0
  69              		@ link register save eliminated.
  70 0000 80B4     		push	{r7}
  71              	.LCFI4:
  72              		.cfi_def_cfa_offset 4
  73              		.cfi_offset 7, -4
  74 0002 00AF     		add	r7, sp, #0
  75              	.LCFI5:
  76              		.cfi_def_cfa_register 7
  77              	.L3:
  77:./User/Src/stm32f4xx_it.c ****   /* Go to infinite loop when Hard Fault exception occurs */
  78:./User/Src/stm32f4xx_it.c ****   while (1)
  78              		.loc 1 78 9 discriminator 1
  79 0004 FEE7     		b	.L3
  80              		.cfi_endproc
  81              	.LFE127:
  83              		.section	.text.MemManage_Handler,"ax",%progbits
  84              		.align	1
  85              		.global	MemManage_Handler
  86              		.syntax unified
  87              		.thumb
  88              		.thumb_func
  89              		.fpu fpv4-sp-d16
  91              	MemManage_Handler:
  92              	.LFB128:
  79:./User/Src/stm32f4xx_it.c ****   {
  80:./User/Src/stm32f4xx_it.c ****   }
  81:./User/Src/stm32f4xx_it.c **** }
  82:./User/Src/stm32f4xx_it.c **** 
  83:./User/Src/stm32f4xx_it.c **** /**
  84:./User/Src/stm32f4xx_it.c ****   * @brief  This function handles Memory Manage exception.
ARM GAS  /tmp/ccG4wPmI.s 			page 4


  85:./User/Src/stm32f4xx_it.c ****   * @param  None
  86:./User/Src/stm32f4xx_it.c ****   * @retval None
  87:./User/Src/stm32f4xx_it.c ****   */
  88:./User/Src/stm32f4xx_it.c **** void MemManage_Handler(void)
  89:./User/Src/stm32f4xx_it.c **** {
  93              		.loc 1 89 1
  94              		.cfi_startproc
  95              		@ args = 0, pretend = 0, frame = 0
  96              		@ frame_needed = 1, uses_anonymous_args = 0
  97              		@ link register save eliminated.
  98 0000 80B4     		push	{r7}
  99              	.LCFI6:
 100              		.cfi_def_cfa_offset 4
 101              		.cfi_offset 7, -4
 102 0002 00AF     		add	r7, sp, #0
 103              	.LCFI7:
 104              		.cfi_def_cfa_register 7
 105              	.L5:
  90:./User/Src/stm32f4xx_it.c ****   /* Go to infinite loop when Memory Manage exception occurs */
  91:./User/Src/stm32f4xx_it.c ****   while (1)
 106              		.loc 1 91 9 discriminator 1
 107 0004 FEE7     		b	.L5
 108              		.cfi_endproc
 109              	.LFE128:
 111              		.section	.text.BusFault_Handler,"ax",%progbits
 112              		.align	1
 113              		.global	BusFault_Handler
 114              		.syntax unified
 115              		.thumb
 116              		.thumb_func
 117              		.fpu fpv4-sp-d16
 119              	BusFault_Handler:
 120              	.LFB129:
  92:./User/Src/stm32f4xx_it.c ****   {
  93:./User/Src/stm32f4xx_it.c ****   }
  94:./User/Src/stm32f4xx_it.c **** }
  95:./User/Src/stm32f4xx_it.c **** 
  96:./User/Src/stm32f4xx_it.c **** /**
  97:./User/Src/stm32f4xx_it.c ****   * @brief  This function handles Bus Fault exception.
  98:./User/Src/stm32f4xx_it.c ****   * @param  None
  99:./User/Src/stm32f4xx_it.c ****   * @retval None
 100:./User/Src/stm32f4xx_it.c ****   */
 101:./User/Src/stm32f4xx_it.c **** void BusFault_Handler(void)
 102:./User/Src/stm32f4xx_it.c **** {
 121              		.loc 1 102 1
 122              		.cfi_startproc
 123              		@ args = 0, pretend = 0, frame = 0
 124              		@ frame_needed = 1, uses_anonymous_args = 0
 125              		@ link register save eliminated.
 126 0000 80B4     		push	{r7}
 127              	.LCFI8:
 128              		.cfi_def_cfa_offset 4
 129              		.cfi_offset 7, -4
 130 0002 00AF     		add	r7, sp, #0
 131              	.LCFI9:
 132              		.cfi_def_cfa_register 7
 133              	.L7:
ARM GAS  /tmp/ccG4wPmI.s 			page 5


 103:./User/Src/stm32f4xx_it.c ****   /* Go to infinite loop when Bus Fault exception occurs */
 104:./User/Src/stm32f4xx_it.c ****   while (1)
 134              		.loc 1 104 9 discriminator 1
 135 0004 FEE7     		b	.L7
 136              		.cfi_endproc
 137              	.LFE129:
 139              		.section	.text.UsageFault_Handler,"ax",%progbits
 140              		.align	1
 141              		.global	UsageFault_Handler
 142              		.syntax unified
 143              		.thumb
 144              		.thumb_func
 145              		.fpu fpv4-sp-d16
 147              	UsageFault_Handler:
 148              	.LFB130:
 105:./User/Src/stm32f4xx_it.c ****   {
 106:./User/Src/stm32f4xx_it.c ****   }
 107:./User/Src/stm32f4xx_it.c **** }
 108:./User/Src/stm32f4xx_it.c **** 
 109:./User/Src/stm32f4xx_it.c **** /**
 110:./User/Src/stm32f4xx_it.c ****   * @brief  This function handles Usage Fault exception.
 111:./User/Src/stm32f4xx_it.c ****   * @param  None
 112:./User/Src/stm32f4xx_it.c ****   * @retval None
 113:./User/Src/stm32f4xx_it.c ****   */
 114:./User/Src/stm32f4xx_it.c **** void UsageFault_Handler(void)
 115:./User/Src/stm32f4xx_it.c **** {
 149              		.loc 1 115 1
 150              		.cfi_startproc
 151              		@ args = 0, pretend = 0, frame = 0
 152              		@ frame_needed = 1, uses_anonymous_args = 0
 153              		@ link register save eliminated.
 154 0000 80B4     		push	{r7}
 155              	.LCFI10:
 156              		.cfi_def_cfa_offset 4
 157              		.cfi_offset 7, -4
 158 0002 00AF     		add	r7, sp, #0
 159              	.LCFI11:
 160              		.cfi_def_cfa_register 7
 161              	.L9:
 116:./User/Src/stm32f4xx_it.c ****   /* Go to infinite loop when Usage Fault exception occurs */
 117:./User/Src/stm32f4xx_it.c ****   while (1)
 162              		.loc 1 117 9 discriminator 1
 163 0004 FEE7     		b	.L9
 164              		.cfi_endproc
 165              	.LFE130:
 167              		.section	.text.SVC_Handler,"ax",%progbits
 168              		.align	1
 169              		.global	SVC_Handler
 170              		.syntax unified
 171              		.thumb
 172              		.thumb_func
 173              		.fpu fpv4-sp-d16
 175              	SVC_Handler:
 176              	.LFB131:
 118:./User/Src/stm32f4xx_it.c ****   {
 119:./User/Src/stm32f4xx_it.c ****   }
 120:./User/Src/stm32f4xx_it.c **** }
ARM GAS  /tmp/ccG4wPmI.s 			page 6


 121:./User/Src/stm32f4xx_it.c **** 
 122:./User/Src/stm32f4xx_it.c **** /**
 123:./User/Src/stm32f4xx_it.c ****   * @brief  This function handles SVCall exception.
 124:./User/Src/stm32f4xx_it.c ****   * @param  None
 125:./User/Src/stm32f4xx_it.c ****   * @retval None
 126:./User/Src/stm32f4xx_it.c ****   */
 127:./User/Src/stm32f4xx_it.c **** void SVC_Handler(void)
 128:./User/Src/stm32f4xx_it.c **** {
 177              		.loc 1 128 1
 178              		.cfi_startproc
 179              		@ args = 0, pretend = 0, frame = 0
 180              		@ frame_needed = 1, uses_anonymous_args = 0
 181              		@ link register save eliminated.
 182 0000 80B4     		push	{r7}
 183              	.LCFI12:
 184              		.cfi_def_cfa_offset 4
 185              		.cfi_offset 7, -4
 186 0002 00AF     		add	r7, sp, #0
 187              	.LCFI13:
 188              		.cfi_def_cfa_register 7
 129:./User/Src/stm32f4xx_it.c **** }
 189              		.loc 1 129 1
 190 0004 00BF     		nop
 191 0006 BD46     		mov	sp, r7
 192              	.LCFI14:
 193              		.cfi_def_cfa_register 13
 194              		@ sp needed
 195 0008 5DF8047B 		ldr	r7, [sp], #4
 196              	.LCFI15:
 197              		.cfi_restore 7
 198              		.cfi_def_cfa_offset 0
 199 000c 7047     		bx	lr
 200              		.cfi_endproc
 201              	.LFE131:
 203              		.section	.text.DebugMon_Handler,"ax",%progbits
 204              		.align	1
 205              		.global	DebugMon_Handler
 206              		.syntax unified
 207              		.thumb
 208              		.thumb_func
 209              		.fpu fpv4-sp-d16
 211              	DebugMon_Handler:
 212              	.LFB132:
 130:./User/Src/stm32f4xx_it.c **** 
 131:./User/Src/stm32f4xx_it.c **** /**
 132:./User/Src/stm32f4xx_it.c ****   * @brief  This function handles Debug Monitor exception.
 133:./User/Src/stm32f4xx_it.c ****   * @param  None
 134:./User/Src/stm32f4xx_it.c ****   * @retval None
 135:./User/Src/stm32f4xx_it.c ****   */
 136:./User/Src/stm32f4xx_it.c **** void DebugMon_Handler(void)
 137:./User/Src/stm32f4xx_it.c **** {
 213              		.loc 1 137 1
 214              		.cfi_startproc
 215              		@ args = 0, pretend = 0, frame = 0
 216              		@ frame_needed = 1, uses_anonymous_args = 0
 217              		@ link register save eliminated.
 218 0000 80B4     		push	{r7}
ARM GAS  /tmp/ccG4wPmI.s 			page 7


 219              	.LCFI16:
 220              		.cfi_def_cfa_offset 4
 221              		.cfi_offset 7, -4
 222 0002 00AF     		add	r7, sp, #0
 223              	.LCFI17:
 224              		.cfi_def_cfa_register 7
 138:./User/Src/stm32f4xx_it.c **** }
 225              		.loc 1 138 1
 226 0004 00BF     		nop
 227 0006 BD46     		mov	sp, r7
 228              	.LCFI18:
 229              		.cfi_def_cfa_register 13
 230              		@ sp needed
 231 0008 5DF8047B 		ldr	r7, [sp], #4
 232              	.LCFI19:
 233              		.cfi_restore 7
 234              		.cfi_def_cfa_offset 0
 235 000c 7047     		bx	lr
 236              		.cfi_endproc
 237              	.LFE132:
 239              		.section	.text.PendSV_Handler,"ax",%progbits
 240              		.align	1
 241              		.global	PendSV_Handler
 242              		.syntax unified
 243              		.thumb
 244              		.thumb_func
 245              		.fpu fpv4-sp-d16
 247              	PendSV_Handler:
 248              	.LFB133:
 139:./User/Src/stm32f4xx_it.c **** 
 140:./User/Src/stm32f4xx_it.c **** /**
 141:./User/Src/stm32f4xx_it.c ****   * @brief  This function handles PendSVC exception.
 142:./User/Src/stm32f4xx_it.c ****   * @param  None
 143:./User/Src/stm32f4xx_it.c ****   * @retval None
 144:./User/Src/stm32f4xx_it.c ****   */
 145:./User/Src/stm32f4xx_it.c **** void PendSV_Handler(void)
 146:./User/Src/stm32f4xx_it.c **** {
 249              		.loc 1 146 1
 250              		.cfi_startproc
 251              		@ args = 0, pretend = 0, frame = 0
 252              		@ frame_needed = 1, uses_anonymous_args = 0
 253              		@ link register save eliminated.
 254 0000 80B4     		push	{r7}
 255              	.LCFI20:
 256              		.cfi_def_cfa_offset 4
 257              		.cfi_offset 7, -4
 258 0002 00AF     		add	r7, sp, #0
 259              	.LCFI21:
 260              		.cfi_def_cfa_register 7
 147:./User/Src/stm32f4xx_it.c **** }
 261              		.loc 1 147 1
 262 0004 00BF     		nop
 263 0006 BD46     		mov	sp, r7
 264              	.LCFI22:
 265              		.cfi_def_cfa_register 13
 266              		@ sp needed
 267 0008 5DF8047B 		ldr	r7, [sp], #4
ARM GAS  /tmp/ccG4wPmI.s 			page 8


 268              	.LCFI23:
 269              		.cfi_restore 7
 270              		.cfi_def_cfa_offset 0
 271 000c 7047     		bx	lr
 272              		.cfi_endproc
 273              	.LFE133:
 275              		.section	.text.SysTick_Handler,"ax",%progbits
 276              		.align	1
 277              		.global	SysTick_Handler
 278              		.syntax unified
 279              		.thumb
 280              		.thumb_func
 281              		.fpu fpv4-sp-d16
 283              	SysTick_Handler:
 284              	.LFB134:
 148:./User/Src/stm32f4xx_it.c **** 
 149:./User/Src/stm32f4xx_it.c **** /**
 150:./User/Src/stm32f4xx_it.c ****   * @brief  This function handles SysTick Handler.
 151:./User/Src/stm32f4xx_it.c ****   * @param  None
 152:./User/Src/stm32f4xx_it.c ****   * @retval None
 153:./User/Src/stm32f4xx_it.c ****   */
 154:./User/Src/stm32f4xx_it.c **** void SysTick_Handler(void)
 155:./User/Src/stm32f4xx_it.c **** {
 285              		.loc 1 155 1
 286              		.cfi_startproc
 287              		@ args = 0, pretend = 0, frame = 0
 288              		@ frame_needed = 1, uses_anonymous_args = 0
 289              		@ link register save eliminated.
 290 0000 80B4     		push	{r7}
 291              	.LCFI24:
 292              		.cfi_def_cfa_offset 4
 293              		.cfi_offset 7, -4
 294 0002 00AF     		add	r7, sp, #0
 295              	.LCFI25:
 296              		.cfi_def_cfa_register 7
 156:./User/Src/stm32f4xx_it.c **** 
 157:./User/Src/stm32f4xx_it.c **** }
 297              		.loc 1 157 1
 298 0004 00BF     		nop
 299 0006 BD46     		mov	sp, r7
 300              	.LCFI26:
 301              		.cfi_def_cfa_register 13
 302              		@ sp needed
 303 0008 5DF8047B 		ldr	r7, [sp], #4
 304              	.LCFI27:
 305              		.cfi_restore 7
 306              		.cfi_def_cfa_offset 0
 307 000c 7047     		bx	lr
 308              		.cfi_endproc
 309              	.LFE134:
 311              		.text
 312              	.Letext0:
ARM GAS  /tmp/ccG4wPmI.s 			page 9

