ARM GAS  /tmp/ccIGChKB.s 			page 1


   1              		.cpu cortex-m4
   2              		.eabi_attribute 27, 1
   3              		.eabi_attribute 28, 1
   4              		.eabi_attribute 20, 1
   5              		.eabi_attribute 21, 1
   6              		.eabi_attribute 23, 3
   7              		.eabi_attribute 24, 1
   8              		.eabi_attribute 25, 1
   9              		.eabi_attribute 26, 1
  10              		.eabi_attribute 30, 6
  11              		.eabi_attribute 34, 1
  12              		.eabi_attribute 18, 4
  13              		.file	"stm32f4xx_hal_usart.c"
  14              		.text
  15              	.Ltext0:
  16              		.cfi_sections	.debug_frame
  17              		.section	.text.HAL_USART_Init,"ax",%progbits
  18              		.align	1
  19              		.global	HAL_USART_Init
  20              		.arch armv7e-m
  21              		.syntax unified
  22              		.thumb
  23              		.thumb_func
  24              		.fpu fpv4-sp-d16
  26              	HAL_USART_Init:
  27              	.LFB126:
  28              		.file 1 "./Libraries/STM32F4xx_HAL_Driver/Src/stm32f4xx_hal_usart.c"
   1:./Libraries/STM32F4xx_HAL_Driver/Src/stm32f4xx_hal_usart.c **** /**
   2:./Libraries/STM32F4xx_HAL_Driver/Src/stm32f4xx_hal_usart.c ****   ******************************************************************************
   3:./Libraries/STM32F4xx_HAL_Driver/Src/stm32f4xx_hal_usart.c ****   * @file    stm32f4xx_hal_usart.c
   4:./Libraries/STM32F4xx_HAL_Driver/Src/stm32f4xx_hal_usart.c ****   * @author  MCD Application Team
   5:./Libraries/STM32F4xx_HAL_Driver/Src/stm32f4xx_hal_usart.c ****   * @brief   USART HAL module driver.
   6:./Libraries/STM32F4xx_HAL_Driver/Src/stm32f4xx_hal_usart.c ****   *          This file provides firmware functions to manage the following
   7:./Libraries/STM32F4xx_HAL_Driver/Src/stm32f4xx_hal_usart.c ****   *          functionalities of the Universal Synchronous Asynchronous Receiver Transmitter (USART)
   8:./Libraries/STM32F4xx_HAL_Driver/Src/stm32f4xx_hal_usart.c ****   *           + Initialization and de-initialization functions
   9:./Libraries/STM32F4xx_HAL_Driver/Src/stm32f4xx_hal_usart.c ****   *           + IO operation functions
  10:./Libraries/STM32F4xx_HAL_Driver/Src/stm32f4xx_hal_usart.c ****   *           + Peripheral Control functions
  11:./Libraries/STM32F4xx_HAL_Driver/Src/stm32f4xx_hal_usart.c ****   @verbatim
  12:./Libraries/STM32F4xx_HAL_Driver/Src/stm32f4xx_hal_usart.c ****   ==============================================================================
  13:./Libraries/STM32F4xx_HAL_Driver/Src/stm32f4xx_hal_usart.c ****                         ##### How to use this driver #####
  14:./Libraries/STM32F4xx_HAL_Driver/Src/stm32f4xx_hal_usart.c ****   ==============================================================================
  15:./Libraries/STM32F4xx_HAL_Driver/Src/stm32f4xx_hal_usart.c ****   [..]
  16:./Libraries/STM32F4xx_HAL_Driver/Src/stm32f4xx_hal_usart.c ****     The USART HAL driver can be used as follows:
  17:./Libraries/STM32F4xx_HAL_Driver/Src/stm32f4xx_hal_usart.c **** 
  18:./Libraries/STM32F4xx_HAL_Driver/Src/stm32f4xx_hal_usart.c ****     (#) Declare a USART_HandleTypeDef handle structure.
  19:./Libraries/STM32F4xx_HAL_Driver/Src/stm32f4xx_hal_usart.c ****     (#) Initialize the USART low level resources by implementing the HAL_USART_MspInit () API:
  20:./Libraries/STM32F4xx_HAL_Driver/Src/stm32f4xx_hal_usart.c ****         (##) Enable the USARTx interface clock.
  21:./Libraries/STM32F4xx_HAL_Driver/Src/stm32f4xx_hal_usart.c ****         (##) USART pins configuration:
  22:./Libraries/STM32F4xx_HAL_Driver/Src/stm32f4xx_hal_usart.c ****              (+++) Enable the clock for the USART GPIOs.
  23:./Libraries/STM32F4xx_HAL_Driver/Src/stm32f4xx_hal_usart.c ****              (+++) Configure these USART pins as alternate function pull-up.
  24:./Libraries/STM32F4xx_HAL_Driver/Src/stm32f4xx_hal_usart.c ****         (##) NVIC configuration if you need to use interrupt process (HAL_USART_Transmit_IT(),
  25:./Libraries/STM32F4xx_HAL_Driver/Src/stm32f4xx_hal_usart.c ****              HAL_USART_Receive_IT() and HAL_USART_TransmitReceive_IT() APIs):
  26:./Libraries/STM32F4xx_HAL_Driver/Src/stm32f4xx_hal_usart.c ****              (+++) Configure the USARTx interrupt priority.
  27:./Libraries/STM32F4xx_HAL_Driver/Src/stm32f4xx_hal_usart.c ****              (+++) Enable the NVIC USART IRQ handle.
  28:./Libraries/STM32F4xx_HAL_Driver/Src/stm32f4xx_hal_usart.c ****         (##) DMA Configuration if you need to use DMA process (HAL_USART_Transmit_DMA()
  29:./Libraries/STM32F4xx_HAL_Driver/Src/stm32f4xx_hal_usart.c ****              HAL_USART_Receive_IT() and HAL_USART_TransmitReceive_IT() APIs):
  30:./Libraries/STM32F4xx_HAL_Driver/Src/stm32f4xx_hal_usart.c ****              (+++) Declare a DMA handle structure for the Tx/Rx stream.
ARM GAS  /tmp/ccIGChKB.s 			page 2


  31:./Libraries/STM32F4xx_HAL_Driver/Src/stm32f4xx_hal_usart.c ****              (+++) Enable the DMAx interface clock.
  32:./Libraries/STM32F4xx_HAL_Driver/Src/stm32f4xx_hal_usart.c ****              (+++) Configure the declared DMA handle structure with the required Tx/Rx parameters.
  33:./Libraries/STM32F4xx_HAL_Driver/Src/stm32f4xx_hal_usart.c ****              (+++) Configure the DMA Tx/Rx Stream.
  34:./Libraries/STM32F4xx_HAL_Driver/Src/stm32f4xx_hal_usart.c ****              (+++) Associate the initialized DMA handle to the USART DMA Tx/Rx handle.
  35:./Libraries/STM32F4xx_HAL_Driver/Src/stm32f4xx_hal_usart.c ****              (+++) Configure the priority and enable the NVIC for the transfer complete interrupt o
  36:./Libraries/STM32F4xx_HAL_Driver/Src/stm32f4xx_hal_usart.c **** 
  37:./Libraries/STM32F4xx_HAL_Driver/Src/stm32f4xx_hal_usart.c ****     (#) Program the Baud Rate, Word Length, Stop Bit, Parity, Hardware
  38:./Libraries/STM32F4xx_HAL_Driver/Src/stm32f4xx_hal_usart.c ****         flow control and Mode(Receiver/Transmitter) in the husart Init structure.
  39:./Libraries/STM32F4xx_HAL_Driver/Src/stm32f4xx_hal_usart.c **** 
  40:./Libraries/STM32F4xx_HAL_Driver/Src/stm32f4xx_hal_usart.c ****     (#) Initialize the USART registers by calling the HAL_USART_Init() API:
  41:./Libraries/STM32F4xx_HAL_Driver/Src/stm32f4xx_hal_usart.c ****         (++) These APIs configures also the low level Hardware GPIO, CLOCK, CORTEX...etc)
  42:./Libraries/STM32F4xx_HAL_Driver/Src/stm32f4xx_hal_usart.c ****              by calling the customized HAL_USART_MspInit(&husart) API.
  43:./Libraries/STM32F4xx_HAL_Driver/Src/stm32f4xx_hal_usart.c **** 
  44:./Libraries/STM32F4xx_HAL_Driver/Src/stm32f4xx_hal_usart.c ****         -@@- The specific USART interrupts (Transmission complete interrupt,
  45:./Libraries/STM32F4xx_HAL_Driver/Src/stm32f4xx_hal_usart.c ****              RXNE interrupt and Error Interrupts) will be managed using the macros
  46:./Libraries/STM32F4xx_HAL_Driver/Src/stm32f4xx_hal_usart.c ****              __HAL_USART_ENABLE_IT() and __HAL_USART_DISABLE_IT() inside the transmit and receive p
  47:./Libraries/STM32F4xx_HAL_Driver/Src/stm32f4xx_hal_usart.c **** 
  48:./Libraries/STM32F4xx_HAL_Driver/Src/stm32f4xx_hal_usart.c ****     (#) Three operation modes are available within this driver :
  49:./Libraries/STM32F4xx_HAL_Driver/Src/stm32f4xx_hal_usart.c **** 
  50:./Libraries/STM32F4xx_HAL_Driver/Src/stm32f4xx_hal_usart.c ****      *** Polling mode IO operation ***
  51:./Libraries/STM32F4xx_HAL_Driver/Src/stm32f4xx_hal_usart.c ****      =================================
  52:./Libraries/STM32F4xx_HAL_Driver/Src/stm32f4xx_hal_usart.c ****      [..]
  53:./Libraries/STM32F4xx_HAL_Driver/Src/stm32f4xx_hal_usart.c ****        (+) Send an amount of data in blocking mode using HAL_USART_Transmit()
  54:./Libraries/STM32F4xx_HAL_Driver/Src/stm32f4xx_hal_usart.c ****        (+) Receive an amount of data in blocking mode using HAL_USART_Receive()
  55:./Libraries/STM32F4xx_HAL_Driver/Src/stm32f4xx_hal_usart.c **** 
  56:./Libraries/STM32F4xx_HAL_Driver/Src/stm32f4xx_hal_usart.c ****      *** Interrupt mode IO operation ***
  57:./Libraries/STM32F4xx_HAL_Driver/Src/stm32f4xx_hal_usart.c ****      ===================================
  58:./Libraries/STM32F4xx_HAL_Driver/Src/stm32f4xx_hal_usart.c ****      [..]
  59:./Libraries/STM32F4xx_HAL_Driver/Src/stm32f4xx_hal_usart.c ****        (+) Send an amount of data in non blocking mode using HAL_USART_Transmit_IT()
  60:./Libraries/STM32F4xx_HAL_Driver/Src/stm32f4xx_hal_usart.c ****        (+) At transmission end of transfer HAL_USART_TxHalfCpltCallback is executed and user can
  61:./Libraries/STM32F4xx_HAL_Driver/Src/stm32f4xx_hal_usart.c ****             add his own code by customization of function pointer HAL_USART_TxCpltCallback
  62:./Libraries/STM32F4xx_HAL_Driver/Src/stm32f4xx_hal_usart.c ****        (+) Receive an amount of data in non blocking mode using HAL_USART_Receive_IT()
  63:./Libraries/STM32F4xx_HAL_Driver/Src/stm32f4xx_hal_usart.c ****        (+) At reception end of transfer HAL_USART_RxCpltCallback is executed and user can
  64:./Libraries/STM32F4xx_HAL_Driver/Src/stm32f4xx_hal_usart.c ****             add his own code by customization of function pointer HAL_USART_RxCpltCallback
  65:./Libraries/STM32F4xx_HAL_Driver/Src/stm32f4xx_hal_usart.c ****        (+) In case of transfer Error, HAL_USART_ErrorCallback() function is executed and user can
  66:./Libraries/STM32F4xx_HAL_Driver/Src/stm32f4xx_hal_usart.c ****             add his own code by customization of function pointer HAL_USART_ErrorCallback
  67:./Libraries/STM32F4xx_HAL_Driver/Src/stm32f4xx_hal_usart.c **** 
  68:./Libraries/STM32F4xx_HAL_Driver/Src/stm32f4xx_hal_usart.c ****      *** DMA mode IO operation ***
  69:./Libraries/STM32F4xx_HAL_Driver/Src/stm32f4xx_hal_usart.c ****      ==============================
  70:./Libraries/STM32F4xx_HAL_Driver/Src/stm32f4xx_hal_usart.c ****      [..]
  71:./Libraries/STM32F4xx_HAL_Driver/Src/stm32f4xx_hal_usart.c ****        (+) Send an amount of data in non blocking mode (DMA) using HAL_USART_Transmit_DMA()
  72:./Libraries/STM32F4xx_HAL_Driver/Src/stm32f4xx_hal_usart.c ****        (+) At transmission end of half transfer HAL_USART_TxHalfCpltCallback is executed and user c
  73:./Libraries/STM32F4xx_HAL_Driver/Src/stm32f4xx_hal_usart.c ****             add his own code by customization of function pointer HAL_USART_TxHalfCpltCallback
  74:./Libraries/STM32F4xx_HAL_Driver/Src/stm32f4xx_hal_usart.c ****        (+) At transmission end of transfer HAL_USART_TxCpltCallback is executed and user can
  75:./Libraries/STM32F4xx_HAL_Driver/Src/stm32f4xx_hal_usart.c ****             add his own code by customization of function pointer HAL_USART_TxCpltCallback
  76:./Libraries/STM32F4xx_HAL_Driver/Src/stm32f4xx_hal_usart.c ****        (+) Receive an amount of data in non blocking mode (DMA) using HAL_USART_Receive_DMA()
  77:./Libraries/STM32F4xx_HAL_Driver/Src/stm32f4xx_hal_usart.c ****        (+) At reception end of half transfer HAL_USART_RxHalfCpltCallback is executed and user can
  78:./Libraries/STM32F4xx_HAL_Driver/Src/stm32f4xx_hal_usart.c ****             add his own code by customization of function pointer HAL_USART_RxHalfCpltCallback
  79:./Libraries/STM32F4xx_HAL_Driver/Src/stm32f4xx_hal_usart.c ****        (+) At reception end of transfer HAL_USART_RxCpltCallback is executed and user can
  80:./Libraries/STM32F4xx_HAL_Driver/Src/stm32f4xx_hal_usart.c ****             add his own code by customization of function pointer HAL_USART_RxCpltCallback
  81:./Libraries/STM32F4xx_HAL_Driver/Src/stm32f4xx_hal_usart.c ****        (+) In case of transfer Error, HAL_USART_ErrorCallback() function is executed and user can
  82:./Libraries/STM32F4xx_HAL_Driver/Src/stm32f4xx_hal_usart.c ****             add his own code by customization of function pointer HAL_USART_ErrorCallback
  83:./Libraries/STM32F4xx_HAL_Driver/Src/stm32f4xx_hal_usart.c ****        (+) Pause the DMA Transfer using HAL_USART_DMAPause()
  84:./Libraries/STM32F4xx_HAL_Driver/Src/stm32f4xx_hal_usart.c ****        (+) Resume the DMA Transfer using HAL_USART_DMAResume()
  85:./Libraries/STM32F4xx_HAL_Driver/Src/stm32f4xx_hal_usart.c ****        (+) Stop the DMA Transfer using HAL_USART_DMAStop()
  86:./Libraries/STM32F4xx_HAL_Driver/Src/stm32f4xx_hal_usart.c **** 
  87:./Libraries/STM32F4xx_HAL_Driver/Src/stm32f4xx_hal_usart.c ****      *** USART HAL driver macros list ***
ARM GAS  /tmp/ccIGChKB.s 			page 3


  88:./Libraries/STM32F4xx_HAL_Driver/Src/stm32f4xx_hal_usart.c ****      =============================================
  89:./Libraries/STM32F4xx_HAL_Driver/Src/stm32f4xx_hal_usart.c ****      [..]
  90:./Libraries/STM32F4xx_HAL_Driver/Src/stm32f4xx_hal_usart.c ****        Below the list of most used macros in USART HAL driver.
  91:./Libraries/STM32F4xx_HAL_Driver/Src/stm32f4xx_hal_usart.c **** 
  92:./Libraries/STM32F4xx_HAL_Driver/Src/stm32f4xx_hal_usart.c ****        (+) __HAL_USART_ENABLE: Enable the USART peripheral
  93:./Libraries/STM32F4xx_HAL_Driver/Src/stm32f4xx_hal_usart.c ****        (+) __HAL_USART_DISABLE: Disable the USART peripheral
  94:./Libraries/STM32F4xx_HAL_Driver/Src/stm32f4xx_hal_usart.c ****        (+) __HAL_USART_GET_FLAG : Check whether the specified USART flag is set or not
  95:./Libraries/STM32F4xx_HAL_Driver/Src/stm32f4xx_hal_usart.c ****        (+) __HAL_USART_CLEAR_FLAG : Clear the specified USART pending flag
  96:./Libraries/STM32F4xx_HAL_Driver/Src/stm32f4xx_hal_usart.c ****        (+) __HAL_USART_ENABLE_IT: Enable the specified USART interrupt
  97:./Libraries/STM32F4xx_HAL_Driver/Src/stm32f4xx_hal_usart.c ****        (+) __HAL_USART_DISABLE_IT: Disable the specified USART interrupt
  98:./Libraries/STM32F4xx_HAL_Driver/Src/stm32f4xx_hal_usart.c **** 
  99:./Libraries/STM32F4xx_HAL_Driver/Src/stm32f4xx_hal_usart.c ****      [..]
 100:./Libraries/STM32F4xx_HAL_Driver/Src/stm32f4xx_hal_usart.c ****        (@) You can refer to the USART HAL driver header file for more useful macros
 101:./Libraries/STM32F4xx_HAL_Driver/Src/stm32f4xx_hal_usart.c **** 
 102:./Libraries/STM32F4xx_HAL_Driver/Src/stm32f4xx_hal_usart.c ****   @endverbatim
 103:./Libraries/STM32F4xx_HAL_Driver/Src/stm32f4xx_hal_usart.c ****   ******************************************************************************
 104:./Libraries/STM32F4xx_HAL_Driver/Src/stm32f4xx_hal_usart.c ****   * @attention
 105:./Libraries/STM32F4xx_HAL_Driver/Src/stm32f4xx_hal_usart.c ****   *
 106:./Libraries/STM32F4xx_HAL_Driver/Src/stm32f4xx_hal_usart.c ****   * <h2><center>&copy; COPYRIGHT(c) 2017 STMicroelectronics</center></h2>
 107:./Libraries/STM32F4xx_HAL_Driver/Src/stm32f4xx_hal_usart.c ****   *
 108:./Libraries/STM32F4xx_HAL_Driver/Src/stm32f4xx_hal_usart.c ****   * Redistribution and use in source and binary forms, with or without modification,
 109:./Libraries/STM32F4xx_HAL_Driver/Src/stm32f4xx_hal_usart.c ****   * are permitted provided that the following conditions are met:
 110:./Libraries/STM32F4xx_HAL_Driver/Src/stm32f4xx_hal_usart.c ****   *   1. Redistributions of source code must retain the above copyright notice,
 111:./Libraries/STM32F4xx_HAL_Driver/Src/stm32f4xx_hal_usart.c ****   *      this list of conditions and the following disclaimer.
 112:./Libraries/STM32F4xx_HAL_Driver/Src/stm32f4xx_hal_usart.c ****   *   2. Redistributions in binary form must reproduce the above copyright notice,
 113:./Libraries/STM32F4xx_HAL_Driver/Src/stm32f4xx_hal_usart.c ****   *      this list of conditions and the following disclaimer in the documentation
 114:./Libraries/STM32F4xx_HAL_Driver/Src/stm32f4xx_hal_usart.c ****   *      and/or other materials provided with the distribution.
 115:./Libraries/STM32F4xx_HAL_Driver/Src/stm32f4xx_hal_usart.c ****   *   3. Neither the name of STMicroelectronics nor the names of its contributors
 116:./Libraries/STM32F4xx_HAL_Driver/Src/stm32f4xx_hal_usart.c ****   *      may be used to endorse or promote products derived from this software
 117:./Libraries/STM32F4xx_HAL_Driver/Src/stm32f4xx_hal_usart.c ****   *      without specific prior written permission.
 118:./Libraries/STM32F4xx_HAL_Driver/Src/stm32f4xx_hal_usart.c ****   *
 119:./Libraries/STM32F4xx_HAL_Driver/Src/stm32f4xx_hal_usart.c ****   * THIS SOFTWARE IS PROVIDED BY THE COPYRIGHT HOLDERS AND CONTRIBUTORS "AS IS"
 120:./Libraries/STM32F4xx_HAL_Driver/Src/stm32f4xx_hal_usart.c ****   * AND ANY EXPRESS OR IMPLIED WARRANTIES, INCLUDING, BUT NOT LIMITED TO, THE
 121:./Libraries/STM32F4xx_HAL_Driver/Src/stm32f4xx_hal_usart.c ****   * IMPLIED WARRANTIES OF MERCHANTABILITY AND FITNESS FOR A PARTICULAR PURPOSE ARE
 122:./Libraries/STM32F4xx_HAL_Driver/Src/stm32f4xx_hal_usart.c ****   * DISCLAIMED. IN NO EVENT SHALL THE COPYRIGHT HOLDER OR CONTRIBUTORS BE LIABLE
 123:./Libraries/STM32F4xx_HAL_Driver/Src/stm32f4xx_hal_usart.c ****   * FOR ANY DIRECT, INDIRECT, INCIDENTAL, SPECIAL, EXEMPLARY, OR CONSEQUENTIAL
 124:./Libraries/STM32F4xx_HAL_Driver/Src/stm32f4xx_hal_usart.c ****   * DAMAGES (INCLUDING, BUT NOT LIMITED TO, PROCUREMENT OF SUBSTITUTE GOODS OR
 125:./Libraries/STM32F4xx_HAL_Driver/Src/stm32f4xx_hal_usart.c ****   * SERVICES; LOSS OF USE, DATA, OR PROFITS; OR BUSINESS INTERRUPTION) HOWEVER
 126:./Libraries/STM32F4xx_HAL_Driver/Src/stm32f4xx_hal_usart.c ****   * CAUSED AND ON ANY THEORY OF LIABILITY, WHETHER IN CONTRACT, STRICT LIABILITY,
 127:./Libraries/STM32F4xx_HAL_Driver/Src/stm32f4xx_hal_usart.c ****   * OR TORT (INCLUDING NEGLIGENCE OR OTHERWISE) ARISING IN ANY WAY OUT OF THE USE
 128:./Libraries/STM32F4xx_HAL_Driver/Src/stm32f4xx_hal_usart.c ****   * OF THIS SOFTWARE, EVEN IF ADVISED OF THE POSSIBILITY OF SUCH DAMAGE.
 129:./Libraries/STM32F4xx_HAL_Driver/Src/stm32f4xx_hal_usart.c ****   *
 130:./Libraries/STM32F4xx_HAL_Driver/Src/stm32f4xx_hal_usart.c ****   ******************************************************************************
 131:./Libraries/STM32F4xx_HAL_Driver/Src/stm32f4xx_hal_usart.c ****   */
 132:./Libraries/STM32F4xx_HAL_Driver/Src/stm32f4xx_hal_usart.c **** 
 133:./Libraries/STM32F4xx_HAL_Driver/Src/stm32f4xx_hal_usart.c **** /* Includes ------------------------------------------------------------------*/
 134:./Libraries/STM32F4xx_HAL_Driver/Src/stm32f4xx_hal_usart.c **** #include "stm32f4xx_hal.h"
 135:./Libraries/STM32F4xx_HAL_Driver/Src/stm32f4xx_hal_usart.c **** 
 136:./Libraries/STM32F4xx_HAL_Driver/Src/stm32f4xx_hal_usart.c **** /** @addtogroup STM32F4xx_HAL_Driver
 137:./Libraries/STM32F4xx_HAL_Driver/Src/stm32f4xx_hal_usart.c ****   * @{
 138:./Libraries/STM32F4xx_HAL_Driver/Src/stm32f4xx_hal_usart.c ****   */
 139:./Libraries/STM32F4xx_HAL_Driver/Src/stm32f4xx_hal_usart.c **** 
 140:./Libraries/STM32F4xx_HAL_Driver/Src/stm32f4xx_hal_usart.c **** /** @defgroup USART USART
 141:./Libraries/STM32F4xx_HAL_Driver/Src/stm32f4xx_hal_usart.c ****   * @brief HAL USART Synchronous module driver
 142:./Libraries/STM32F4xx_HAL_Driver/Src/stm32f4xx_hal_usart.c ****   * @{
 143:./Libraries/STM32F4xx_HAL_Driver/Src/stm32f4xx_hal_usart.c ****   */
 144:./Libraries/STM32F4xx_HAL_Driver/Src/stm32f4xx_hal_usart.c **** #ifdef HAL_USART_MODULE_ENABLED
ARM GAS  /tmp/ccIGChKB.s 			page 4


 145:./Libraries/STM32F4xx_HAL_Driver/Src/stm32f4xx_hal_usart.c **** /* Private typedef -----------------------------------------------------------*/
 146:./Libraries/STM32F4xx_HAL_Driver/Src/stm32f4xx_hal_usart.c **** /* Private define ------------------------------------------------------------*/
 147:./Libraries/STM32F4xx_HAL_Driver/Src/stm32f4xx_hal_usart.c **** /** @addtogroup USART_Private_Constants
 148:./Libraries/STM32F4xx_HAL_Driver/Src/stm32f4xx_hal_usart.c ****   * @{
 149:./Libraries/STM32F4xx_HAL_Driver/Src/stm32f4xx_hal_usart.c ****   */
 150:./Libraries/STM32F4xx_HAL_Driver/Src/stm32f4xx_hal_usart.c **** #define DUMMY_DATA           0xFFFFU
 151:./Libraries/STM32F4xx_HAL_Driver/Src/stm32f4xx_hal_usart.c **** #define USART_TIMEOUT_VALUE  22000U
 152:./Libraries/STM32F4xx_HAL_Driver/Src/stm32f4xx_hal_usart.c **** /**
 153:./Libraries/STM32F4xx_HAL_Driver/Src/stm32f4xx_hal_usart.c ****   * @}
 154:./Libraries/STM32F4xx_HAL_Driver/Src/stm32f4xx_hal_usart.c ****   */
 155:./Libraries/STM32F4xx_HAL_Driver/Src/stm32f4xx_hal_usart.c **** /* Private macro -------------------------------------------------------------*/
 156:./Libraries/STM32F4xx_HAL_Driver/Src/stm32f4xx_hal_usart.c **** /* Private variables ---------------------------------------------------------*/
 157:./Libraries/STM32F4xx_HAL_Driver/Src/stm32f4xx_hal_usart.c **** /* Private function prototypes -----------------------------------------------*/
 158:./Libraries/STM32F4xx_HAL_Driver/Src/stm32f4xx_hal_usart.c **** /* Private functions ---------------------------------------------------------*/
 159:./Libraries/STM32F4xx_HAL_Driver/Src/stm32f4xx_hal_usart.c **** /** @addtogroup USART_Private_Functions
 160:./Libraries/STM32F4xx_HAL_Driver/Src/stm32f4xx_hal_usart.c ****   * @{
 161:./Libraries/STM32F4xx_HAL_Driver/Src/stm32f4xx_hal_usart.c ****   */
 162:./Libraries/STM32F4xx_HAL_Driver/Src/stm32f4xx_hal_usart.c **** static void USART_EndTxTransfer(USART_HandleTypeDef *husart);
 163:./Libraries/STM32F4xx_HAL_Driver/Src/stm32f4xx_hal_usart.c **** static void USART_EndRxTransfer(USART_HandleTypeDef *husart);
 164:./Libraries/STM32F4xx_HAL_Driver/Src/stm32f4xx_hal_usart.c **** static HAL_StatusTypeDef USART_Transmit_IT(USART_HandleTypeDef *husart);
 165:./Libraries/STM32F4xx_HAL_Driver/Src/stm32f4xx_hal_usart.c **** static HAL_StatusTypeDef USART_EndTransmit_IT(USART_HandleTypeDef *husart);
 166:./Libraries/STM32F4xx_HAL_Driver/Src/stm32f4xx_hal_usart.c **** static HAL_StatusTypeDef USART_Receive_IT(USART_HandleTypeDef *husart);
 167:./Libraries/STM32F4xx_HAL_Driver/Src/stm32f4xx_hal_usart.c **** static HAL_StatusTypeDef USART_TransmitReceive_IT(USART_HandleTypeDef *husart);
 168:./Libraries/STM32F4xx_HAL_Driver/Src/stm32f4xx_hal_usart.c **** static void USART_SetConfig (USART_HandleTypeDef *husart);
 169:./Libraries/STM32F4xx_HAL_Driver/Src/stm32f4xx_hal_usart.c **** static void USART_DMATransmitCplt(DMA_HandleTypeDef *hdma);
 170:./Libraries/STM32F4xx_HAL_Driver/Src/stm32f4xx_hal_usart.c **** static void USART_DMATxHalfCplt(DMA_HandleTypeDef *hdma);
 171:./Libraries/STM32F4xx_HAL_Driver/Src/stm32f4xx_hal_usart.c **** static void USART_DMAReceiveCplt(DMA_HandleTypeDef *hdma);
 172:./Libraries/STM32F4xx_HAL_Driver/Src/stm32f4xx_hal_usart.c **** static void USART_DMARxHalfCplt(DMA_HandleTypeDef *hdma);
 173:./Libraries/STM32F4xx_HAL_Driver/Src/stm32f4xx_hal_usart.c **** static void USART_DMAError(DMA_HandleTypeDef *hdma);
 174:./Libraries/STM32F4xx_HAL_Driver/Src/stm32f4xx_hal_usart.c **** static void USART_DMAAbortOnError(DMA_HandleTypeDef *hdma);
 175:./Libraries/STM32F4xx_HAL_Driver/Src/stm32f4xx_hal_usart.c **** static void USART_DMATxAbortCallback(DMA_HandleTypeDef *hdma);
 176:./Libraries/STM32F4xx_HAL_Driver/Src/stm32f4xx_hal_usart.c **** static void USART_DMARxAbortCallback(DMA_HandleTypeDef *hdma);
 177:./Libraries/STM32F4xx_HAL_Driver/Src/stm32f4xx_hal_usart.c **** 
 178:./Libraries/STM32F4xx_HAL_Driver/Src/stm32f4xx_hal_usart.c **** static HAL_StatusTypeDef USART_WaitOnFlagUntilTimeout(USART_HandleTypeDef *husart, uint32_t Flag, F
 179:./Libraries/STM32F4xx_HAL_Driver/Src/stm32f4xx_hal_usart.c **** /**
 180:./Libraries/STM32F4xx_HAL_Driver/Src/stm32f4xx_hal_usart.c ****   * @}
 181:./Libraries/STM32F4xx_HAL_Driver/Src/stm32f4xx_hal_usart.c ****   */
 182:./Libraries/STM32F4xx_HAL_Driver/Src/stm32f4xx_hal_usart.c **** 
 183:./Libraries/STM32F4xx_HAL_Driver/Src/stm32f4xx_hal_usart.c **** /* Exported functions --------------------------------------------------------*/
 184:./Libraries/STM32F4xx_HAL_Driver/Src/stm32f4xx_hal_usart.c **** /** @defgroup USART_Exported_Functions USART Exported Functions
 185:./Libraries/STM32F4xx_HAL_Driver/Src/stm32f4xx_hal_usart.c ****   * @{
 186:./Libraries/STM32F4xx_HAL_Driver/Src/stm32f4xx_hal_usart.c ****   */
 187:./Libraries/STM32F4xx_HAL_Driver/Src/stm32f4xx_hal_usart.c **** 
 188:./Libraries/STM32F4xx_HAL_Driver/Src/stm32f4xx_hal_usart.c **** /** @defgroup USART_Exported_Functions_Group1 USART Initialization and de-initialization functions
 189:./Libraries/STM32F4xx_HAL_Driver/Src/stm32f4xx_hal_usart.c ****   *  @brief    Initialization and Configuration functions
 190:./Libraries/STM32F4xx_HAL_Driver/Src/stm32f4xx_hal_usart.c ****   *
 191:./Libraries/STM32F4xx_HAL_Driver/Src/stm32f4xx_hal_usart.c **** @verbatim
 192:./Libraries/STM32F4xx_HAL_Driver/Src/stm32f4xx_hal_usart.c ****   ==============================================================================
 193:./Libraries/STM32F4xx_HAL_Driver/Src/stm32f4xx_hal_usart.c ****               ##### Initialization and Configuration functions #####
 194:./Libraries/STM32F4xx_HAL_Driver/Src/stm32f4xx_hal_usart.c ****   ==============================================================================
 195:./Libraries/STM32F4xx_HAL_Driver/Src/stm32f4xx_hal_usart.c ****   [..]
 196:./Libraries/STM32F4xx_HAL_Driver/Src/stm32f4xx_hal_usart.c ****   This subsection provides a set of functions allowing to initialize the USART
 197:./Libraries/STM32F4xx_HAL_Driver/Src/stm32f4xx_hal_usart.c ****   in asynchronous and in synchronous modes.
 198:./Libraries/STM32F4xx_HAL_Driver/Src/stm32f4xx_hal_usart.c ****   (+) For the asynchronous mode only these parameters can be configured:
 199:./Libraries/STM32F4xx_HAL_Driver/Src/stm32f4xx_hal_usart.c ****       (++) Baud Rate
 200:./Libraries/STM32F4xx_HAL_Driver/Src/stm32f4xx_hal_usart.c ****       (++) Word Length
 201:./Libraries/STM32F4xx_HAL_Driver/Src/stm32f4xx_hal_usart.c ****       (++) Stop Bit
ARM GAS  /tmp/ccIGChKB.s 			page 5


 202:./Libraries/STM32F4xx_HAL_Driver/Src/stm32f4xx_hal_usart.c ****       (++) Parity: If the parity is enabled, then the MSB bit of the data written
 203:./Libraries/STM32F4xx_HAL_Driver/Src/stm32f4xx_hal_usart.c ****            in the data register is transmitted but is changed by the parity bit.
 204:./Libraries/STM32F4xx_HAL_Driver/Src/stm32f4xx_hal_usart.c ****            Depending on the frame length defined by the M bit (8-bits or 9-bits),
 205:./Libraries/STM32F4xx_HAL_Driver/Src/stm32f4xx_hal_usart.c ****            please refer to Reference manual for possible USART frame formats.
 206:./Libraries/STM32F4xx_HAL_Driver/Src/stm32f4xx_hal_usart.c ****       (++) USART polarity
 207:./Libraries/STM32F4xx_HAL_Driver/Src/stm32f4xx_hal_usart.c ****       (++) USART phase
 208:./Libraries/STM32F4xx_HAL_Driver/Src/stm32f4xx_hal_usart.c ****       (++) USART LastBit
 209:./Libraries/STM32F4xx_HAL_Driver/Src/stm32f4xx_hal_usart.c ****       (++) Receiver/transmitter modes
 210:./Libraries/STM32F4xx_HAL_Driver/Src/stm32f4xx_hal_usart.c **** 
 211:./Libraries/STM32F4xx_HAL_Driver/Src/stm32f4xx_hal_usart.c ****   [..]
 212:./Libraries/STM32F4xx_HAL_Driver/Src/stm32f4xx_hal_usart.c ****     The HAL_USART_Init() function follows the USART  synchronous configuration
 213:./Libraries/STM32F4xx_HAL_Driver/Src/stm32f4xx_hal_usart.c ****     procedure (details for the procedure are available in reference manual (RM0329)).
 214:./Libraries/STM32F4xx_HAL_Driver/Src/stm32f4xx_hal_usart.c **** 
 215:./Libraries/STM32F4xx_HAL_Driver/Src/stm32f4xx_hal_usart.c **** @endverbatim
 216:./Libraries/STM32F4xx_HAL_Driver/Src/stm32f4xx_hal_usart.c ****   * @{
 217:./Libraries/STM32F4xx_HAL_Driver/Src/stm32f4xx_hal_usart.c ****   */
 218:./Libraries/STM32F4xx_HAL_Driver/Src/stm32f4xx_hal_usart.c **** 
 219:./Libraries/STM32F4xx_HAL_Driver/Src/stm32f4xx_hal_usart.c **** /**
 220:./Libraries/STM32F4xx_HAL_Driver/Src/stm32f4xx_hal_usart.c ****   * @brief  Initializes the USART mode according to the specified
 221:./Libraries/STM32F4xx_HAL_Driver/Src/stm32f4xx_hal_usart.c ****   *         parameters in the USART_InitTypeDef and create the associated handle.
 222:./Libraries/STM32F4xx_HAL_Driver/Src/stm32f4xx_hal_usart.c ****   * @param  husart pointer to a USART_HandleTypeDef structure that contains
 223:./Libraries/STM32F4xx_HAL_Driver/Src/stm32f4xx_hal_usart.c ****   *                the configuration information for the specified USART module.
 224:./Libraries/STM32F4xx_HAL_Driver/Src/stm32f4xx_hal_usart.c ****   * @retval HAL status
 225:./Libraries/STM32F4xx_HAL_Driver/Src/stm32f4xx_hal_usart.c ****   */
 226:./Libraries/STM32F4xx_HAL_Driver/Src/stm32f4xx_hal_usart.c **** HAL_StatusTypeDef HAL_USART_Init(USART_HandleTypeDef *husart)
 227:./Libraries/STM32F4xx_HAL_Driver/Src/stm32f4xx_hal_usart.c **** {
  29              		.loc 1 227 1
  30              		.cfi_startproc
  31              		@ args = 0, pretend = 0, frame = 8
  32              		@ frame_needed = 1, uses_anonymous_args = 0
  33 0000 80B5     		push	{r7, lr}
  34              	.LCFI0:
  35              		.cfi_def_cfa_offset 8
  36              		.cfi_offset 7, -8
  37              		.cfi_offset 14, -4
  38 0002 82B0     		sub	sp, sp, #8
  39              	.LCFI1:
  40              		.cfi_def_cfa_offset 16
  41 0004 00AF     		add	r7, sp, #0
  42              	.LCFI2:
  43              		.cfi_def_cfa_register 7
  44 0006 7860     		str	r0, [r7, #4]
 228:./Libraries/STM32F4xx_HAL_Driver/Src/stm32f4xx_hal_usart.c ****   /* Check the USART handle allocation */
 229:./Libraries/STM32F4xx_HAL_Driver/Src/stm32f4xx_hal_usart.c ****   if(husart == NULL)
  45              		.loc 1 229 5
  46 0008 7B68     		ldr	r3, [r7, #4]
  47 000a 002B     		cmp	r3, #0
  48 000c 01D1     		bne	.L2
 230:./Libraries/STM32F4xx_HAL_Driver/Src/stm32f4xx_hal_usart.c ****   {
 231:./Libraries/STM32F4xx_HAL_Driver/Src/stm32f4xx_hal_usart.c ****     return HAL_ERROR;
  49              		.loc 1 231 12
  50 000e 0123     		movs	r3, #1
  51 0010 33E0     		b	.L3
  52              	.L2:
 232:./Libraries/STM32F4xx_HAL_Driver/Src/stm32f4xx_hal_usart.c ****   }
 233:./Libraries/STM32F4xx_HAL_Driver/Src/stm32f4xx_hal_usart.c **** 
 234:./Libraries/STM32F4xx_HAL_Driver/Src/stm32f4xx_hal_usart.c ****   /* Check the parameters */
ARM GAS  /tmp/ccIGChKB.s 			page 6


 235:./Libraries/STM32F4xx_HAL_Driver/Src/stm32f4xx_hal_usart.c ****   assert_param(IS_USART_INSTANCE(husart->Instance));
 236:./Libraries/STM32F4xx_HAL_Driver/Src/stm32f4xx_hal_usart.c **** 
 237:./Libraries/STM32F4xx_HAL_Driver/Src/stm32f4xx_hal_usart.c ****   if(husart->State == HAL_USART_STATE_RESET)
  53              		.loc 1 237 12
  54 0012 7B68     		ldr	r3, [r7, #4]
  55 0014 93F83D30 		ldrb	r3, [r3, #61]
  56 0018 DBB2     		uxtb	r3, r3
  57              		.loc 1 237 5
  58 001a 002B     		cmp	r3, #0
  59 001c 06D1     		bne	.L4
 238:./Libraries/STM32F4xx_HAL_Driver/Src/stm32f4xx_hal_usart.c ****   {
 239:./Libraries/STM32F4xx_HAL_Driver/Src/stm32f4xx_hal_usart.c ****     /* Allocate lock resource and initialize it */
 240:./Libraries/STM32F4xx_HAL_Driver/Src/stm32f4xx_hal_usart.c ****     husart->Lock = HAL_UNLOCKED;
  60              		.loc 1 240 18
  61 001e 7B68     		ldr	r3, [r7, #4]
  62 0020 0022     		movs	r2, #0
  63 0022 83F83C20 		strb	r2, [r3, #60]
 241:./Libraries/STM32F4xx_HAL_Driver/Src/stm32f4xx_hal_usart.c ****     /* Init the low level hardware */
 242:./Libraries/STM32F4xx_HAL_Driver/Src/stm32f4xx_hal_usart.c ****     HAL_USART_MspInit(husart);
  64              		.loc 1 242 5
  65 0026 7868     		ldr	r0, [r7, #4]
  66 0028 FFF7FEFF 		bl	HAL_USART_MspInit
  67              	.L4:
 243:./Libraries/STM32F4xx_HAL_Driver/Src/stm32f4xx_hal_usart.c ****   }
 244:./Libraries/STM32F4xx_HAL_Driver/Src/stm32f4xx_hal_usart.c **** 
 245:./Libraries/STM32F4xx_HAL_Driver/Src/stm32f4xx_hal_usart.c ****   husart->State = HAL_USART_STATE_BUSY;
  68              		.loc 1 245 17
  69 002c 7B68     		ldr	r3, [r7, #4]
  70 002e 0222     		movs	r2, #2
  71 0030 83F83D20 		strb	r2, [r3, #61]
 246:./Libraries/STM32F4xx_HAL_Driver/Src/stm32f4xx_hal_usart.c **** 
 247:./Libraries/STM32F4xx_HAL_Driver/Src/stm32f4xx_hal_usart.c ****   /* Set the USART Communication parameters */
 248:./Libraries/STM32F4xx_HAL_Driver/Src/stm32f4xx_hal_usart.c ****   USART_SetConfig(husart);
  72              		.loc 1 248 3
  73 0034 7868     		ldr	r0, [r7, #4]
  74 0036 FFF7FEFF 		bl	USART_SetConfig
 249:./Libraries/STM32F4xx_HAL_Driver/Src/stm32f4xx_hal_usart.c **** 
 250:./Libraries/STM32F4xx_HAL_Driver/Src/stm32f4xx_hal_usart.c ****   /* In USART mode, the following bits must be kept cleared:
 251:./Libraries/STM32F4xx_HAL_Driver/Src/stm32f4xx_hal_usart.c ****      - LINEN bit in the USART_CR2 register
 252:./Libraries/STM32F4xx_HAL_Driver/Src/stm32f4xx_hal_usart.c ****      - HDSEL, SCEN and IREN bits in the USART_CR3 register */
 253:./Libraries/STM32F4xx_HAL_Driver/Src/stm32f4xx_hal_usart.c ****   CLEAR_BIT(husart->Instance->CR2, USART_CR2_LINEN);
  75              		.loc 1 253 3
  76 003a 7B68     		ldr	r3, [r7, #4]
  77 003c 1B68     		ldr	r3, [r3]
  78 003e 1A69     		ldr	r2, [r3, #16]
  79 0040 7B68     		ldr	r3, [r7, #4]
  80 0042 1B68     		ldr	r3, [r3]
  81 0044 22F48042 		bic	r2, r2, #16384
  82 0048 1A61     		str	r2, [r3, #16]
 254:./Libraries/STM32F4xx_HAL_Driver/Src/stm32f4xx_hal_usart.c ****   CLEAR_BIT(husart->Instance->CR3, (USART_CR3_SCEN | USART_CR3_HDSEL | USART_CR3_IREN));
  83              		.loc 1 254 3
  84 004a 7B68     		ldr	r3, [r7, #4]
  85 004c 1B68     		ldr	r3, [r3]
  86 004e 5A69     		ldr	r2, [r3, #20]
  87 0050 7B68     		ldr	r3, [r7, #4]
  88 0052 1B68     		ldr	r3, [r3]
  89 0054 22F02A02 		bic	r2, r2, #42
ARM GAS  /tmp/ccIGChKB.s 			page 7


  90 0058 5A61     		str	r2, [r3, #20]
 255:./Libraries/STM32F4xx_HAL_Driver/Src/stm32f4xx_hal_usart.c **** 
 256:./Libraries/STM32F4xx_HAL_Driver/Src/stm32f4xx_hal_usart.c ****   /* Enable the Peripheral */
 257:./Libraries/STM32F4xx_HAL_Driver/Src/stm32f4xx_hal_usart.c ****   __HAL_USART_ENABLE(husart);
  91              		.loc 1 257 3
  92 005a 7B68     		ldr	r3, [r7, #4]
  93 005c 1B68     		ldr	r3, [r3]
  94 005e DA68     		ldr	r2, [r3, #12]
  95 0060 7B68     		ldr	r3, [r7, #4]
  96 0062 1B68     		ldr	r3, [r3]
  97 0064 42F40052 		orr	r2, r2, #8192
  98 0068 DA60     		str	r2, [r3, #12]
 258:./Libraries/STM32F4xx_HAL_Driver/Src/stm32f4xx_hal_usart.c **** 
 259:./Libraries/STM32F4xx_HAL_Driver/Src/stm32f4xx_hal_usart.c ****   /* Initialize the USART state */
 260:./Libraries/STM32F4xx_HAL_Driver/Src/stm32f4xx_hal_usart.c ****   husart->ErrorCode = HAL_USART_ERROR_NONE;
  99              		.loc 1 260 21
 100 006a 7B68     		ldr	r3, [r7, #4]
 101 006c 0022     		movs	r2, #0
 102 006e 1A64     		str	r2, [r3, #64]
 261:./Libraries/STM32F4xx_HAL_Driver/Src/stm32f4xx_hal_usart.c ****   husart->State= HAL_USART_STATE_READY;
 103              		.loc 1 261 16
 104 0070 7B68     		ldr	r3, [r7, #4]
 105 0072 0122     		movs	r2, #1
 106 0074 83F83D20 		strb	r2, [r3, #61]
 262:./Libraries/STM32F4xx_HAL_Driver/Src/stm32f4xx_hal_usart.c **** 
 263:./Libraries/STM32F4xx_HAL_Driver/Src/stm32f4xx_hal_usart.c ****   return HAL_OK;
 107              		.loc 1 263 10
 108 0078 0023     		movs	r3, #0
 109              	.L3:
 264:./Libraries/STM32F4xx_HAL_Driver/Src/stm32f4xx_hal_usart.c **** }
 110              		.loc 1 264 1
 111 007a 1846     		mov	r0, r3
 112 007c 0837     		adds	r7, r7, #8
 113              	.LCFI3:
 114              		.cfi_def_cfa_offset 8
 115 007e BD46     		mov	sp, r7
 116              	.LCFI4:
 117              		.cfi_def_cfa_register 13
 118              		@ sp needed
 119 0080 80BD     		pop	{r7, pc}
 120              		.cfi_endproc
 121              	.LFE126:
 123              		.section	.text.HAL_USART_DeInit,"ax",%progbits
 124              		.align	1
 125              		.global	HAL_USART_DeInit
 126              		.syntax unified
 127              		.thumb
 128              		.thumb_func
 129              		.fpu fpv4-sp-d16
 131              	HAL_USART_DeInit:
 132              	.LFB127:
 265:./Libraries/STM32F4xx_HAL_Driver/Src/stm32f4xx_hal_usart.c **** 
 266:./Libraries/STM32F4xx_HAL_Driver/Src/stm32f4xx_hal_usart.c **** /**
 267:./Libraries/STM32F4xx_HAL_Driver/Src/stm32f4xx_hal_usart.c ****   * @brief  DeInitializes the USART peripheral.
 268:./Libraries/STM32F4xx_HAL_Driver/Src/stm32f4xx_hal_usart.c ****   * @param  husart pointer to a USART_HandleTypeDef structure that contains
 269:./Libraries/STM32F4xx_HAL_Driver/Src/stm32f4xx_hal_usart.c ****   *                the configuration information for the specified USART module.
 270:./Libraries/STM32F4xx_HAL_Driver/Src/stm32f4xx_hal_usart.c ****   * @retval HAL status
ARM GAS  /tmp/ccIGChKB.s 			page 8


 271:./Libraries/STM32F4xx_HAL_Driver/Src/stm32f4xx_hal_usart.c ****   */
 272:./Libraries/STM32F4xx_HAL_Driver/Src/stm32f4xx_hal_usart.c **** HAL_StatusTypeDef HAL_USART_DeInit(USART_HandleTypeDef *husart)
 273:./Libraries/STM32F4xx_HAL_Driver/Src/stm32f4xx_hal_usart.c **** {
 133              		.loc 1 273 1
 134              		.cfi_startproc
 135              		@ args = 0, pretend = 0, frame = 8
 136              		@ frame_needed = 1, uses_anonymous_args = 0
 137 0000 80B5     		push	{r7, lr}
 138              	.LCFI5:
 139              		.cfi_def_cfa_offset 8
 140              		.cfi_offset 7, -8
 141              		.cfi_offset 14, -4
 142 0002 82B0     		sub	sp, sp, #8
 143              	.LCFI6:
 144              		.cfi_def_cfa_offset 16
 145 0004 00AF     		add	r7, sp, #0
 146              	.LCFI7:
 147              		.cfi_def_cfa_register 7
 148 0006 7860     		str	r0, [r7, #4]
 274:./Libraries/STM32F4xx_HAL_Driver/Src/stm32f4xx_hal_usart.c ****   /* Check the USART handle allocation */
 275:./Libraries/STM32F4xx_HAL_Driver/Src/stm32f4xx_hal_usart.c ****   if(husart == NULL)
 149              		.loc 1 275 5
 150 0008 7B68     		ldr	r3, [r7, #4]
 151 000a 002B     		cmp	r3, #0
 152 000c 01D1     		bne	.L6
 276:./Libraries/STM32F4xx_HAL_Driver/Src/stm32f4xx_hal_usart.c ****   {
 277:./Libraries/STM32F4xx_HAL_Driver/Src/stm32f4xx_hal_usart.c ****     return HAL_ERROR;
 153              		.loc 1 277 12
 154 000e 0123     		movs	r3, #1
 155 0010 1AE0     		b	.L7
 156              	.L6:
 278:./Libraries/STM32F4xx_HAL_Driver/Src/stm32f4xx_hal_usart.c ****   }
 279:./Libraries/STM32F4xx_HAL_Driver/Src/stm32f4xx_hal_usart.c **** 
 280:./Libraries/STM32F4xx_HAL_Driver/Src/stm32f4xx_hal_usart.c ****   /* Check the parameters */
 281:./Libraries/STM32F4xx_HAL_Driver/Src/stm32f4xx_hal_usart.c ****   assert_param(IS_USART_INSTANCE(husart->Instance));
 282:./Libraries/STM32F4xx_HAL_Driver/Src/stm32f4xx_hal_usart.c **** 
 283:./Libraries/STM32F4xx_HAL_Driver/Src/stm32f4xx_hal_usart.c ****   husart->State = HAL_USART_STATE_BUSY;
 157              		.loc 1 283 17
 158 0012 7B68     		ldr	r3, [r7, #4]
 159 0014 0222     		movs	r2, #2
 160 0016 83F83D20 		strb	r2, [r3, #61]
 284:./Libraries/STM32F4xx_HAL_Driver/Src/stm32f4xx_hal_usart.c **** 
 285:./Libraries/STM32F4xx_HAL_Driver/Src/stm32f4xx_hal_usart.c ****   /* Disable the Peripheral */
 286:./Libraries/STM32F4xx_HAL_Driver/Src/stm32f4xx_hal_usart.c ****   __HAL_USART_DISABLE(husart);
 161              		.loc 1 286 3
 162 001a 7B68     		ldr	r3, [r7, #4]
 163 001c 1B68     		ldr	r3, [r3]
 164 001e DA68     		ldr	r2, [r3, #12]
 165 0020 7B68     		ldr	r3, [r7, #4]
 166 0022 1B68     		ldr	r3, [r3]
 167 0024 22F40052 		bic	r2, r2, #8192
 168 0028 DA60     		str	r2, [r3, #12]
 287:./Libraries/STM32F4xx_HAL_Driver/Src/stm32f4xx_hal_usart.c **** 
 288:./Libraries/STM32F4xx_HAL_Driver/Src/stm32f4xx_hal_usart.c ****   /* DeInit the low level hardware */
 289:./Libraries/STM32F4xx_HAL_Driver/Src/stm32f4xx_hal_usart.c ****   HAL_USART_MspDeInit(husart);
 169              		.loc 1 289 3
 170 002a 7868     		ldr	r0, [r7, #4]
ARM GAS  /tmp/ccIGChKB.s 			page 9


 171 002c FFF7FEFF 		bl	HAL_USART_MspDeInit
 290:./Libraries/STM32F4xx_HAL_Driver/Src/stm32f4xx_hal_usart.c **** 
 291:./Libraries/STM32F4xx_HAL_Driver/Src/stm32f4xx_hal_usart.c ****   husart->ErrorCode = HAL_USART_ERROR_NONE;
 172              		.loc 1 291 21
 173 0030 7B68     		ldr	r3, [r7, #4]
 174 0032 0022     		movs	r2, #0
 175 0034 1A64     		str	r2, [r3, #64]
 292:./Libraries/STM32F4xx_HAL_Driver/Src/stm32f4xx_hal_usart.c ****   husart->State = HAL_USART_STATE_RESET;
 176              		.loc 1 292 17
 177 0036 7B68     		ldr	r3, [r7, #4]
 178 0038 0022     		movs	r2, #0
 179 003a 83F83D20 		strb	r2, [r3, #61]
 293:./Libraries/STM32F4xx_HAL_Driver/Src/stm32f4xx_hal_usart.c **** 
 294:./Libraries/STM32F4xx_HAL_Driver/Src/stm32f4xx_hal_usart.c ****   /* Release Lock */
 295:./Libraries/STM32F4xx_HAL_Driver/Src/stm32f4xx_hal_usart.c ****   __HAL_UNLOCK(husart);
 180              		.loc 1 295 3
 181 003e 7B68     		ldr	r3, [r7, #4]
 182 0040 0022     		movs	r2, #0
 183 0042 83F83C20 		strb	r2, [r3, #60]
 296:./Libraries/STM32F4xx_HAL_Driver/Src/stm32f4xx_hal_usart.c **** 
 297:./Libraries/STM32F4xx_HAL_Driver/Src/stm32f4xx_hal_usart.c ****   return HAL_OK;
 184              		.loc 1 297 10
 185 0046 0023     		movs	r3, #0
 186              	.L7:
 298:./Libraries/STM32F4xx_HAL_Driver/Src/stm32f4xx_hal_usart.c **** }
 187              		.loc 1 298 1
 188 0048 1846     		mov	r0, r3
 189 004a 0837     		adds	r7, r7, #8
 190              	.LCFI8:
 191              		.cfi_def_cfa_offset 8
 192 004c BD46     		mov	sp, r7
 193              	.LCFI9:
 194              		.cfi_def_cfa_register 13
 195              		@ sp needed
 196 004e 80BD     		pop	{r7, pc}
 197              		.cfi_endproc
 198              	.LFE127:
 200              		.section	.text.HAL_USART_MspInit,"ax",%progbits
 201              		.align	1
 202              		.weak	HAL_USART_MspInit
 203              		.syntax unified
 204              		.thumb
 205              		.thumb_func
 206              		.fpu fpv4-sp-d16
 208              	HAL_USART_MspInit:
 209              	.LFB128:
 299:./Libraries/STM32F4xx_HAL_Driver/Src/stm32f4xx_hal_usart.c **** 
 300:./Libraries/STM32F4xx_HAL_Driver/Src/stm32f4xx_hal_usart.c **** /**
 301:./Libraries/STM32F4xx_HAL_Driver/Src/stm32f4xx_hal_usart.c ****   * @brief  USART MSP Init.
 302:./Libraries/STM32F4xx_HAL_Driver/Src/stm32f4xx_hal_usart.c ****   * @param  husart pointer to a USART_HandleTypeDef structure that contains
 303:./Libraries/STM32F4xx_HAL_Driver/Src/stm32f4xx_hal_usart.c ****   *                the configuration information for the specified USART module.
 304:./Libraries/STM32F4xx_HAL_Driver/Src/stm32f4xx_hal_usart.c ****   * @retval None
 305:./Libraries/STM32F4xx_HAL_Driver/Src/stm32f4xx_hal_usart.c ****   */
 306:./Libraries/STM32F4xx_HAL_Driver/Src/stm32f4xx_hal_usart.c ****  __weak void HAL_USART_MspInit(USART_HandleTypeDef *husart)
 307:./Libraries/STM32F4xx_HAL_Driver/Src/stm32f4xx_hal_usart.c **** {
 210              		.loc 1 307 1
 211              		.cfi_startproc
ARM GAS  /tmp/ccIGChKB.s 			page 10


 212              		@ args = 0, pretend = 0, frame = 8
 213              		@ frame_needed = 1, uses_anonymous_args = 0
 214              		@ link register save eliminated.
 215 0000 80B4     		push	{r7}
 216              	.LCFI10:
 217              		.cfi_def_cfa_offset 4
 218              		.cfi_offset 7, -4
 219 0002 83B0     		sub	sp, sp, #12
 220              	.LCFI11:
 221              		.cfi_def_cfa_offset 16
 222 0004 00AF     		add	r7, sp, #0
 223              	.LCFI12:
 224              		.cfi_def_cfa_register 7
 225 0006 7860     		str	r0, [r7, #4]
 308:./Libraries/STM32F4xx_HAL_Driver/Src/stm32f4xx_hal_usart.c ****   /* Prevent unused argument(s) compilation warning */
 309:./Libraries/STM32F4xx_HAL_Driver/Src/stm32f4xx_hal_usart.c ****   UNUSED(husart);
 310:./Libraries/STM32F4xx_HAL_Driver/Src/stm32f4xx_hal_usart.c ****   /* NOTE: This function Should not be modified, when the callback is needed,
 311:./Libraries/STM32F4xx_HAL_Driver/Src/stm32f4xx_hal_usart.c ****            the HAL_USART_MspInit could be implemented in the user file
 312:./Libraries/STM32F4xx_HAL_Driver/Src/stm32f4xx_hal_usart.c ****    */
 313:./Libraries/STM32F4xx_HAL_Driver/Src/stm32f4xx_hal_usart.c **** }
 226              		.loc 1 313 1
 227 0008 00BF     		nop
 228 000a 0C37     		adds	r7, r7, #12
 229              	.LCFI13:
 230              		.cfi_def_cfa_offset 4
 231 000c BD46     		mov	sp, r7
 232              	.LCFI14:
 233              		.cfi_def_cfa_register 13
 234              		@ sp needed
 235 000e 5DF8047B 		ldr	r7, [sp], #4
 236              	.LCFI15:
 237              		.cfi_restore 7
 238              		.cfi_def_cfa_offset 0
 239 0012 7047     		bx	lr
 240              		.cfi_endproc
 241              	.LFE128:
 243              		.section	.text.HAL_USART_MspDeInit,"ax",%progbits
 244              		.align	1
 245              		.weak	HAL_USART_MspDeInit
 246              		.syntax unified
 247              		.thumb
 248              		.thumb_func
 249              		.fpu fpv4-sp-d16
 251              	HAL_USART_MspDeInit:
 252              	.LFB129:
 314:./Libraries/STM32F4xx_HAL_Driver/Src/stm32f4xx_hal_usart.c **** 
 315:./Libraries/STM32F4xx_HAL_Driver/Src/stm32f4xx_hal_usart.c **** /**
 316:./Libraries/STM32F4xx_HAL_Driver/Src/stm32f4xx_hal_usart.c ****   * @brief  USART MSP DeInit.
 317:./Libraries/STM32F4xx_HAL_Driver/Src/stm32f4xx_hal_usart.c ****   * @param  husart pointer to a USART_HandleTypeDef structure that contains
 318:./Libraries/STM32F4xx_HAL_Driver/Src/stm32f4xx_hal_usart.c ****   *                the configuration information for the specified USART module.
 319:./Libraries/STM32F4xx_HAL_Driver/Src/stm32f4xx_hal_usart.c ****   * @retval None
 320:./Libraries/STM32F4xx_HAL_Driver/Src/stm32f4xx_hal_usart.c ****   */
 321:./Libraries/STM32F4xx_HAL_Driver/Src/stm32f4xx_hal_usart.c ****  __weak void HAL_USART_MspDeInit(USART_HandleTypeDef *husart)
 322:./Libraries/STM32F4xx_HAL_Driver/Src/stm32f4xx_hal_usart.c **** {
 253              		.loc 1 322 1
 254              		.cfi_startproc
 255              		@ args = 0, pretend = 0, frame = 8
ARM GAS  /tmp/ccIGChKB.s 			page 11


 256              		@ frame_needed = 1, uses_anonymous_args = 0
 257              		@ link register save eliminated.
 258 0000 80B4     		push	{r7}
 259              	.LCFI16:
 260              		.cfi_def_cfa_offset 4
 261              		.cfi_offset 7, -4
 262 0002 83B0     		sub	sp, sp, #12
 263              	.LCFI17:
 264              		.cfi_def_cfa_offset 16
 265 0004 00AF     		add	r7, sp, #0
 266              	.LCFI18:
 267              		.cfi_def_cfa_register 7
 268 0006 7860     		str	r0, [r7, #4]
 323:./Libraries/STM32F4xx_HAL_Driver/Src/stm32f4xx_hal_usart.c ****   /* Prevent unused argument(s) compilation warning */
 324:./Libraries/STM32F4xx_HAL_Driver/Src/stm32f4xx_hal_usart.c ****   UNUSED(husart);
 325:./Libraries/STM32F4xx_HAL_Driver/Src/stm32f4xx_hal_usart.c ****   /* NOTE: This function Should not be modified, when the callback is needed,
 326:./Libraries/STM32F4xx_HAL_Driver/Src/stm32f4xx_hal_usart.c ****            the HAL_USART_MspDeInit could be implemented in the user file
 327:./Libraries/STM32F4xx_HAL_Driver/Src/stm32f4xx_hal_usart.c ****    */
 328:./Libraries/STM32F4xx_HAL_Driver/Src/stm32f4xx_hal_usart.c **** }
 269              		.loc 1 328 1
 270 0008 00BF     		nop
 271 000a 0C37     		adds	r7, r7, #12
 272              	.LCFI19:
 273              		.cfi_def_cfa_offset 4
 274 000c BD46     		mov	sp, r7
 275              	.LCFI20:
 276              		.cfi_def_cfa_register 13
 277              		@ sp needed
 278 000e 5DF8047B 		ldr	r7, [sp], #4
 279              	.LCFI21:
 280              		.cfi_restore 7
 281              		.cfi_def_cfa_offset 0
 282 0012 7047     		bx	lr
 283              		.cfi_endproc
 284              	.LFE129:
 286              		.section	.text.HAL_USART_Transmit,"ax",%progbits
 287              		.align	1
 288              		.global	HAL_USART_Transmit
 289              		.syntax unified
 290              		.thumb
 291              		.thumb_func
 292              		.fpu fpv4-sp-d16
 294              	HAL_USART_Transmit:
 295              	.LFB130:
 329:./Libraries/STM32F4xx_HAL_Driver/Src/stm32f4xx_hal_usart.c **** 
 330:./Libraries/STM32F4xx_HAL_Driver/Src/stm32f4xx_hal_usart.c **** /**
 331:./Libraries/STM32F4xx_HAL_Driver/Src/stm32f4xx_hal_usart.c ****   * @}
 332:./Libraries/STM32F4xx_HAL_Driver/Src/stm32f4xx_hal_usart.c ****   */
 333:./Libraries/STM32F4xx_HAL_Driver/Src/stm32f4xx_hal_usart.c **** 
 334:./Libraries/STM32F4xx_HAL_Driver/Src/stm32f4xx_hal_usart.c **** /** @defgroup USART_Exported_Functions_Group2 IO operation functions
 335:./Libraries/STM32F4xx_HAL_Driver/Src/stm32f4xx_hal_usart.c ****   *  @brief   USART Transmit and Receive functions
 336:./Libraries/STM32F4xx_HAL_Driver/Src/stm32f4xx_hal_usart.c ****   *
 337:./Libraries/STM32F4xx_HAL_Driver/Src/stm32f4xx_hal_usart.c **** @verbatim
 338:./Libraries/STM32F4xx_HAL_Driver/Src/stm32f4xx_hal_usart.c ****   ==============================================================================
 339:./Libraries/STM32F4xx_HAL_Driver/Src/stm32f4xx_hal_usart.c ****                          ##### IO operation functions #####
 340:./Libraries/STM32F4xx_HAL_Driver/Src/stm32f4xx_hal_usart.c ****   ==============================================================================
 341:./Libraries/STM32F4xx_HAL_Driver/Src/stm32f4xx_hal_usart.c ****   [..]
ARM GAS  /tmp/ccIGChKB.s 			page 12


 342:./Libraries/STM32F4xx_HAL_Driver/Src/stm32f4xx_hal_usart.c ****     This subsection provides a set of functions allowing to manage the USART synchronous
 343:./Libraries/STM32F4xx_HAL_Driver/Src/stm32f4xx_hal_usart.c ****     data transfers.
 344:./Libraries/STM32F4xx_HAL_Driver/Src/stm32f4xx_hal_usart.c **** 
 345:./Libraries/STM32F4xx_HAL_Driver/Src/stm32f4xx_hal_usart.c ****   [..]
 346:./Libraries/STM32F4xx_HAL_Driver/Src/stm32f4xx_hal_usart.c ****     The USART supports master mode only: it cannot receive or send data related to an input
 347:./Libraries/STM32F4xx_HAL_Driver/Src/stm32f4xx_hal_usart.c ****     clock (SCLK is always an output).
 348:./Libraries/STM32F4xx_HAL_Driver/Src/stm32f4xx_hal_usart.c **** 
 349:./Libraries/STM32F4xx_HAL_Driver/Src/stm32f4xx_hal_usart.c ****     (#) There are two modes of transfer:
 350:./Libraries/STM32F4xx_HAL_Driver/Src/stm32f4xx_hal_usart.c ****         (++) Blocking mode: The communication is performed in polling mode.
 351:./Libraries/STM32F4xx_HAL_Driver/Src/stm32f4xx_hal_usart.c ****              The HAL status of all data processing is returned by the same function
 352:./Libraries/STM32F4xx_HAL_Driver/Src/stm32f4xx_hal_usart.c ****              after finishing transfer.
 353:./Libraries/STM32F4xx_HAL_Driver/Src/stm32f4xx_hal_usart.c ****         (++) No-Blocking mode: The communication is performed using Interrupts
 354:./Libraries/STM32F4xx_HAL_Driver/Src/stm32f4xx_hal_usart.c ****              or DMA, These API's return the HAL status.
 355:./Libraries/STM32F4xx_HAL_Driver/Src/stm32f4xx_hal_usart.c ****              The end of the data processing will be indicated through the
 356:./Libraries/STM32F4xx_HAL_Driver/Src/stm32f4xx_hal_usart.c ****              dedicated USART IRQ when using Interrupt mode or the DMA IRQ when
 357:./Libraries/STM32F4xx_HAL_Driver/Src/stm32f4xx_hal_usart.c ****              using DMA mode.
 358:./Libraries/STM32F4xx_HAL_Driver/Src/stm32f4xx_hal_usart.c ****              The HAL_USART_TxCpltCallback(), HAL_USART_RxCpltCallback() and HAL_USART_TxRxCpltCallb
 359:./Libraries/STM32F4xx_HAL_Driver/Src/stm32f4xx_hal_usart.c ****               user callbacks
 360:./Libraries/STM32F4xx_HAL_Driver/Src/stm32f4xx_hal_usart.c ****              will be executed respectively at the end of the transmit or Receive process
 361:./Libraries/STM32F4xx_HAL_Driver/Src/stm32f4xx_hal_usart.c ****              The HAL_USART_ErrorCallback() user callback will be executed when a communication
 362:./Libraries/STM32F4xx_HAL_Driver/Src/stm32f4xx_hal_usart.c ****              error is detected
 363:./Libraries/STM32F4xx_HAL_Driver/Src/stm32f4xx_hal_usart.c **** 
 364:./Libraries/STM32F4xx_HAL_Driver/Src/stm32f4xx_hal_usart.c ****     (#) Blocking mode APIs are :
 365:./Libraries/STM32F4xx_HAL_Driver/Src/stm32f4xx_hal_usart.c ****         (++) HAL_USART_Transmit() in simplex mode
 366:./Libraries/STM32F4xx_HAL_Driver/Src/stm32f4xx_hal_usart.c ****         (++) HAL_USART_Receive() in full duplex receive only
 367:./Libraries/STM32F4xx_HAL_Driver/Src/stm32f4xx_hal_usart.c ****         (++) HAL_USART_TransmitReceive() in full duplex mode
 368:./Libraries/STM32F4xx_HAL_Driver/Src/stm32f4xx_hal_usart.c **** 
 369:./Libraries/STM32F4xx_HAL_Driver/Src/stm32f4xx_hal_usart.c ****     (#) Non Blocking mode APIs with Interrupt are :
 370:./Libraries/STM32F4xx_HAL_Driver/Src/stm32f4xx_hal_usart.c ****         (++) HAL_USART_Transmit_IT()in simplex mode
 371:./Libraries/STM32F4xx_HAL_Driver/Src/stm32f4xx_hal_usart.c ****         (++) HAL_USART_Receive_IT() in full duplex receive only
 372:./Libraries/STM32F4xx_HAL_Driver/Src/stm32f4xx_hal_usart.c ****         (++) HAL_USART_TransmitReceive_IT() in full duplex mode
 373:./Libraries/STM32F4xx_HAL_Driver/Src/stm32f4xx_hal_usart.c ****         (++) HAL_USART_IRQHandler()
 374:./Libraries/STM32F4xx_HAL_Driver/Src/stm32f4xx_hal_usart.c **** 
 375:./Libraries/STM32F4xx_HAL_Driver/Src/stm32f4xx_hal_usart.c ****     (#) Non Blocking mode functions with DMA are :
 376:./Libraries/STM32F4xx_HAL_Driver/Src/stm32f4xx_hal_usart.c ****         (++) HAL_USART_Transmit_DMA()in simplex mode
 377:./Libraries/STM32F4xx_HAL_Driver/Src/stm32f4xx_hal_usart.c ****         (++) HAL_USART_Receive_DMA() in full duplex receive only
 378:./Libraries/STM32F4xx_HAL_Driver/Src/stm32f4xx_hal_usart.c ****         (++) HAL_USART_TransmitReceie_DMA() in full duplex mode
 379:./Libraries/STM32F4xx_HAL_Driver/Src/stm32f4xx_hal_usart.c ****         (++) HAL_USART_DMAPause()
 380:./Libraries/STM32F4xx_HAL_Driver/Src/stm32f4xx_hal_usart.c ****         (++) HAL_USART_DMAResume()
 381:./Libraries/STM32F4xx_HAL_Driver/Src/stm32f4xx_hal_usart.c ****         (++) HAL_USART_DMAStop()
 382:./Libraries/STM32F4xx_HAL_Driver/Src/stm32f4xx_hal_usart.c **** 
 383:./Libraries/STM32F4xx_HAL_Driver/Src/stm32f4xx_hal_usart.c ****     (#) A set of Transfer Complete Callbacks are provided in non Blocking mode:
 384:./Libraries/STM32F4xx_HAL_Driver/Src/stm32f4xx_hal_usart.c ****         (++) HAL_USART_TxHalfCpltCallback()
 385:./Libraries/STM32F4xx_HAL_Driver/Src/stm32f4xx_hal_usart.c ****         (++) HAL_USART_TxCpltCallback()
 386:./Libraries/STM32F4xx_HAL_Driver/Src/stm32f4xx_hal_usart.c ****         (++) HAL_USART_RxHalfCpltCallback()
 387:./Libraries/STM32F4xx_HAL_Driver/Src/stm32f4xx_hal_usart.c ****         (++) HAL_USART_RxCpltCallback()
 388:./Libraries/STM32F4xx_HAL_Driver/Src/stm32f4xx_hal_usart.c ****         (++) HAL_USART_ErrorCallback()
 389:./Libraries/STM32F4xx_HAL_Driver/Src/stm32f4xx_hal_usart.c ****         (++) HAL_USART_TxRxCpltCallback()
 390:./Libraries/STM32F4xx_HAL_Driver/Src/stm32f4xx_hal_usart.c **** 
 391:./Libraries/STM32F4xx_HAL_Driver/Src/stm32f4xx_hal_usart.c **** @endverbatim
 392:./Libraries/STM32F4xx_HAL_Driver/Src/stm32f4xx_hal_usart.c ****   * @{
 393:./Libraries/STM32F4xx_HAL_Driver/Src/stm32f4xx_hal_usart.c ****   */
 394:./Libraries/STM32F4xx_HAL_Driver/Src/stm32f4xx_hal_usart.c **** 
 395:./Libraries/STM32F4xx_HAL_Driver/Src/stm32f4xx_hal_usart.c **** /**
 396:./Libraries/STM32F4xx_HAL_Driver/Src/stm32f4xx_hal_usart.c ****   * @brief  Simplex Send an amount of data in blocking mode.
 397:./Libraries/STM32F4xx_HAL_Driver/Src/stm32f4xx_hal_usart.c ****   * @param  husart pointer to a USART_HandleTypeDef structure that contains
 398:./Libraries/STM32F4xx_HAL_Driver/Src/stm32f4xx_hal_usart.c ****   *                the configuration information for the specified USART module.
ARM GAS  /tmp/ccIGChKB.s 			page 13


 399:./Libraries/STM32F4xx_HAL_Driver/Src/stm32f4xx_hal_usart.c ****   * @param  pTxData Pointer to data buffer
 400:./Libraries/STM32F4xx_HAL_Driver/Src/stm32f4xx_hal_usart.c ****   * @param  Size Amount of data to be sent
 401:./Libraries/STM32F4xx_HAL_Driver/Src/stm32f4xx_hal_usart.c ****   * @param  Timeout Timeout duration
 402:./Libraries/STM32F4xx_HAL_Driver/Src/stm32f4xx_hal_usart.c ****   * @retval HAL status
 403:./Libraries/STM32F4xx_HAL_Driver/Src/stm32f4xx_hal_usart.c ****   */
 404:./Libraries/STM32F4xx_HAL_Driver/Src/stm32f4xx_hal_usart.c **** HAL_StatusTypeDef HAL_USART_Transmit(USART_HandleTypeDef *husart, uint8_t *pTxData, uint16_t Size, 
 405:./Libraries/STM32F4xx_HAL_Driver/Src/stm32f4xx_hal_usart.c **** {
 296              		.loc 1 405 1
 297              		.cfi_startproc
 298              		@ args = 0, pretend = 0, frame = 24
 299              		@ frame_needed = 1, uses_anonymous_args = 0
 300 0000 80B5     		push	{r7, lr}
 301              	.LCFI22:
 302              		.cfi_def_cfa_offset 8
 303              		.cfi_offset 7, -8
 304              		.cfi_offset 14, -4
 305 0002 88B0     		sub	sp, sp, #32
 306              	.LCFI23:
 307              		.cfi_def_cfa_offset 40
 308 0004 02AF     		add	r7, sp, #8
 309              	.LCFI24:
 310              		.cfi_def_cfa 7, 32
 311 0006 F860     		str	r0, [r7, #12]
 312 0008 B960     		str	r1, [r7, #8]
 313 000a 3B60     		str	r3, [r7]
 314 000c 1346     		mov	r3, r2	@ movhi
 315 000e FB80     		strh	r3, [r7, #6]	@ movhi
 406:./Libraries/STM32F4xx_HAL_Driver/Src/stm32f4xx_hal_usart.c ****   uint16_t* tmp;
 407:./Libraries/STM32F4xx_HAL_Driver/Src/stm32f4xx_hal_usart.c ****   uint32_t tickstart = 0U;
 316              		.loc 1 407 12
 317 0010 0023     		movs	r3, #0
 318 0012 7B61     		str	r3, [r7, #20]
 408:./Libraries/STM32F4xx_HAL_Driver/Src/stm32f4xx_hal_usart.c **** 
 409:./Libraries/STM32F4xx_HAL_Driver/Src/stm32f4xx_hal_usart.c ****   if(husart->State == HAL_USART_STATE_READY)
 319              		.loc 1 409 12
 320 0014 FB68     		ldr	r3, [r7, #12]
 321 0016 93F83D30 		ldrb	r3, [r3, #61]
 322 001a DBB2     		uxtb	r3, r3
 323              		.loc 1 409 5
 324 001c 012B     		cmp	r3, #1
 325 001e 40F08380 		bne	.L11
 410:./Libraries/STM32F4xx_HAL_Driver/Src/stm32f4xx_hal_usart.c ****   {
 411:./Libraries/STM32F4xx_HAL_Driver/Src/stm32f4xx_hal_usart.c ****     if((pTxData == NULL) || (Size == 0))
 326              		.loc 1 411 7
 327 0022 BB68     		ldr	r3, [r7, #8]
 328 0024 002B     		cmp	r3, #0
 329 0026 02D0     		beq	.L12
 330              		.loc 1 411 26 discriminator 1
 331 0028 FB88     		ldrh	r3, [r7, #6]
 332 002a 002B     		cmp	r3, #0
 333 002c 01D1     		bne	.L13
 334              	.L12:
 412:./Libraries/STM32F4xx_HAL_Driver/Src/stm32f4xx_hal_usart.c ****     {
 413:./Libraries/STM32F4xx_HAL_Driver/Src/stm32f4xx_hal_usart.c ****       return  HAL_ERROR;
 335              		.loc 1 413 15
 336 002e 0123     		movs	r3, #1
 337 0030 7BE0     		b	.L14
ARM GAS  /tmp/ccIGChKB.s 			page 14


 338              	.L13:
 414:./Libraries/STM32F4xx_HAL_Driver/Src/stm32f4xx_hal_usart.c ****     }
 415:./Libraries/STM32F4xx_HAL_Driver/Src/stm32f4xx_hal_usart.c **** 
 416:./Libraries/STM32F4xx_HAL_Driver/Src/stm32f4xx_hal_usart.c ****     /* Process Locked */
 417:./Libraries/STM32F4xx_HAL_Driver/Src/stm32f4xx_hal_usart.c ****     __HAL_LOCK(husart);
 339              		.loc 1 417 5
 340 0032 FB68     		ldr	r3, [r7, #12]
 341 0034 93F83C30 		ldrb	r3, [r3, #60]	@ zero_extendqisi2
 342 0038 012B     		cmp	r3, #1
 343 003a 01D1     		bne	.L15
 344              		.loc 1 417 5 is_stmt 0 discriminator 1
 345 003c 0223     		movs	r3, #2
 346 003e 74E0     		b	.L14
 347              	.L15:
 348              		.loc 1 417 5 discriminator 2
 349 0040 FB68     		ldr	r3, [r7, #12]
 350 0042 0122     		movs	r2, #1
 351 0044 83F83C20 		strb	r2, [r3, #60]
 418:./Libraries/STM32F4xx_HAL_Driver/Src/stm32f4xx_hal_usart.c **** 
 419:./Libraries/STM32F4xx_HAL_Driver/Src/stm32f4xx_hal_usart.c ****     husart->ErrorCode = HAL_USART_ERROR_NONE;
 352              		.loc 1 419 23 is_stmt 1 discriminator 2
 353 0048 FB68     		ldr	r3, [r7, #12]
 354 004a 0022     		movs	r2, #0
 355 004c 1A64     		str	r2, [r3, #64]
 420:./Libraries/STM32F4xx_HAL_Driver/Src/stm32f4xx_hal_usart.c ****     husart->State = HAL_USART_STATE_BUSY_TX;
 356              		.loc 1 420 19 discriminator 2
 357 004e FB68     		ldr	r3, [r7, #12]
 358 0050 1222     		movs	r2, #18
 359 0052 83F83D20 		strb	r2, [r3, #61]
 421:./Libraries/STM32F4xx_HAL_Driver/Src/stm32f4xx_hal_usart.c **** 
 422:./Libraries/STM32F4xx_HAL_Driver/Src/stm32f4xx_hal_usart.c ****     /* Init tickstart for timeout managment */
 423:./Libraries/STM32F4xx_HAL_Driver/Src/stm32f4xx_hal_usart.c ****     tickstart = HAL_GetTick();
 360              		.loc 1 423 17 discriminator 2
 361 0056 FFF7FEFF 		bl	HAL_GetTick
 362 005a 7861     		str	r0, [r7, #20]
 424:./Libraries/STM32F4xx_HAL_Driver/Src/stm32f4xx_hal_usart.c **** 
 425:./Libraries/STM32F4xx_HAL_Driver/Src/stm32f4xx_hal_usart.c ****     husart->TxXferSize = Size;
 363              		.loc 1 425 24 discriminator 2
 364 005c FB68     		ldr	r3, [r7, #12]
 365 005e FA88     		ldrh	r2, [r7, #6]	@ movhi
 366 0060 1A85     		strh	r2, [r3, #40]	@ movhi
 426:./Libraries/STM32F4xx_HAL_Driver/Src/stm32f4xx_hal_usart.c ****     husart->TxXferCount = Size;
 367              		.loc 1 426 25 discriminator 2
 368 0062 FB68     		ldr	r3, [r7, #12]
 369 0064 FA88     		ldrh	r2, [r7, #6]	@ movhi
 370 0066 5A85     		strh	r2, [r3, #42]	@ movhi
 427:./Libraries/STM32F4xx_HAL_Driver/Src/stm32f4xx_hal_usart.c ****     while(husart->TxXferCount > 0U)
 371              		.loc 1 427 10 discriminator 2
 372 0068 42E0     		b	.L16
 373              	.L21:
 428:./Libraries/STM32F4xx_HAL_Driver/Src/stm32f4xx_hal_usart.c ****     {
 429:./Libraries/STM32F4xx_HAL_Driver/Src/stm32f4xx_hal_usart.c ****       husart->TxXferCount--;
 374              		.loc 1 429 13
 375 006a FB68     		ldr	r3, [r7, #12]
 376 006c 5B8D     		ldrh	r3, [r3, #42]	@ movhi
 377 006e 9BB2     		uxth	r3, r3
 378              		.loc 1 429 26
ARM GAS  /tmp/ccIGChKB.s 			page 15


 379 0070 013B     		subs	r3, r3, #1
 380 0072 9AB2     		uxth	r2, r3
 381 0074 FB68     		ldr	r3, [r7, #12]
 382 0076 5A85     		strh	r2, [r3, #42]	@ movhi
 430:./Libraries/STM32F4xx_HAL_Driver/Src/stm32f4xx_hal_usart.c ****       if(husart->Init.WordLength == USART_WORDLENGTH_9B)
 383              		.loc 1 430 22
 384 0078 FB68     		ldr	r3, [r7, #12]
 385 007a 9B68     		ldr	r3, [r3, #8]
 386              		.loc 1 430 9
 387 007c B3F5805F 		cmp	r3, #4096
 388 0080 22D1     		bne	.L17
 431:./Libraries/STM32F4xx_HAL_Driver/Src/stm32f4xx_hal_usart.c ****       {
 432:./Libraries/STM32F4xx_HAL_Driver/Src/stm32f4xx_hal_usart.c ****         /* Wait for TC flag in order to write data in DR */
 433:./Libraries/STM32F4xx_HAL_Driver/Src/stm32f4xx_hal_usart.c ****         if(USART_WaitOnFlagUntilTimeout(husart, USART_FLAG_TXE, RESET, tickstart, Timeout) != HAL_O
 389              		.loc 1 433 12
 390 0082 3B68     		ldr	r3, [r7]
 391 0084 0093     		str	r3, [sp]
 392 0086 7B69     		ldr	r3, [r7, #20]
 393 0088 0022     		movs	r2, #0
 394 008a 8021     		movs	r1, #128
 395 008c F868     		ldr	r0, [r7, #12]
 396 008e FFF7FEFF 		bl	USART_WaitOnFlagUntilTimeout
 397 0092 0346     		mov	r3, r0
 398              		.loc 1 433 11
 399 0094 002B     		cmp	r3, #0
 400 0096 01D0     		beq	.L18
 434:./Libraries/STM32F4xx_HAL_Driver/Src/stm32f4xx_hal_usart.c ****         {
 435:./Libraries/STM32F4xx_HAL_Driver/Src/stm32f4xx_hal_usart.c ****           return HAL_TIMEOUT;
 401              		.loc 1 435 18
 402 0098 0323     		movs	r3, #3
 403 009a 46E0     		b	.L14
 404              	.L18:
 436:./Libraries/STM32F4xx_HAL_Driver/Src/stm32f4xx_hal_usart.c ****         }
 437:./Libraries/STM32F4xx_HAL_Driver/Src/stm32f4xx_hal_usart.c ****         tmp = (uint16_t*) pTxData;
 405              		.loc 1 437 13
 406 009c BB68     		ldr	r3, [r7, #8]
 407 009e 3B61     		str	r3, [r7, #16]
 438:./Libraries/STM32F4xx_HAL_Driver/Src/stm32f4xx_hal_usart.c ****         husart->Instance->DR = (*tmp & (uint16_t)0x01FF);
 408              		.loc 1 438 33
 409 00a0 3B69     		ldr	r3, [r7, #16]
 410 00a2 1B88     		ldrh	r3, [r3]
 411              		.loc 1 438 38
 412 00a4 1A46     		mov	r2, r3
 413              		.loc 1 438 15
 414 00a6 FB68     		ldr	r3, [r7, #12]
 415 00a8 1B68     		ldr	r3, [r3]
 416              		.loc 1 438 38
 417 00aa C2F30802 		ubfx	r2, r2, #0, #9
 418              		.loc 1 438 30
 419 00ae 5A60     		str	r2, [r3, #4]
 439:./Libraries/STM32F4xx_HAL_Driver/Src/stm32f4xx_hal_usart.c ****         if(husart->Init.Parity == USART_PARITY_NONE)
 420              		.loc 1 439 24
 421 00b0 FB68     		ldr	r3, [r7, #12]
 422 00b2 1B69     		ldr	r3, [r3, #16]
 423              		.loc 1 439 11
 424 00b4 002B     		cmp	r3, #0
 425 00b6 03D1     		bne	.L19
ARM GAS  /tmp/ccIGChKB.s 			page 16


 440:./Libraries/STM32F4xx_HAL_Driver/Src/stm32f4xx_hal_usart.c ****         {
 441:./Libraries/STM32F4xx_HAL_Driver/Src/stm32f4xx_hal_usart.c ****           pTxData += 2U;
 426              		.loc 1 441 19
 427 00b8 BB68     		ldr	r3, [r7, #8]
 428 00ba 0233     		adds	r3, r3, #2
 429 00bc BB60     		str	r3, [r7, #8]
 430 00be 17E0     		b	.L16
 431              	.L19:
 442:./Libraries/STM32F4xx_HAL_Driver/Src/stm32f4xx_hal_usart.c ****         }
 443:./Libraries/STM32F4xx_HAL_Driver/Src/stm32f4xx_hal_usart.c ****         else
 444:./Libraries/STM32F4xx_HAL_Driver/Src/stm32f4xx_hal_usart.c ****         {
 445:./Libraries/STM32F4xx_HAL_Driver/Src/stm32f4xx_hal_usart.c ****           pTxData += 1U;
 432              		.loc 1 445 19
 433 00c0 BB68     		ldr	r3, [r7, #8]
 434 00c2 0133     		adds	r3, r3, #1
 435 00c4 BB60     		str	r3, [r7, #8]
 436 00c6 13E0     		b	.L16
 437              	.L17:
 446:./Libraries/STM32F4xx_HAL_Driver/Src/stm32f4xx_hal_usart.c ****         }
 447:./Libraries/STM32F4xx_HAL_Driver/Src/stm32f4xx_hal_usart.c ****       }
 448:./Libraries/STM32F4xx_HAL_Driver/Src/stm32f4xx_hal_usart.c ****       else
 449:./Libraries/STM32F4xx_HAL_Driver/Src/stm32f4xx_hal_usart.c ****       {
 450:./Libraries/STM32F4xx_HAL_Driver/Src/stm32f4xx_hal_usart.c ****         if(USART_WaitOnFlagUntilTimeout(husart, USART_FLAG_TXE, RESET, tickstart, Timeout) != HAL_O
 438              		.loc 1 450 12
 439 00c8 3B68     		ldr	r3, [r7]
 440 00ca 0093     		str	r3, [sp]
 441 00cc 7B69     		ldr	r3, [r7, #20]
 442 00ce 0022     		movs	r2, #0
 443 00d0 8021     		movs	r1, #128
 444 00d2 F868     		ldr	r0, [r7, #12]
 445 00d4 FFF7FEFF 		bl	USART_WaitOnFlagUntilTimeout
 446 00d8 0346     		mov	r3, r0
 447              		.loc 1 450 11
 448 00da 002B     		cmp	r3, #0
 449 00dc 01D0     		beq	.L20
 451:./Libraries/STM32F4xx_HAL_Driver/Src/stm32f4xx_hal_usart.c ****         {
 452:./Libraries/STM32F4xx_HAL_Driver/Src/stm32f4xx_hal_usart.c ****           return HAL_TIMEOUT;
 450              		.loc 1 452 18
 451 00de 0323     		movs	r3, #3
 452 00e0 23E0     		b	.L14
 453              	.L20:
 453:./Libraries/STM32F4xx_HAL_Driver/Src/stm32f4xx_hal_usart.c ****         }
 454:./Libraries/STM32F4xx_HAL_Driver/Src/stm32f4xx_hal_usart.c ****         husart->Instance->DR = (*pTxData++ & (uint8_t)0xFF);
 454              		.loc 1 454 41
 455 00e2 BB68     		ldr	r3, [r7, #8]
 456 00e4 5A1C     		adds	r2, r3, #1
 457 00e6 BA60     		str	r2, [r7, #8]
 458              		.loc 1 454 33
 459 00e8 1A78     		ldrb	r2, [r3]	@ zero_extendqisi2
 460              		.loc 1 454 15
 461 00ea FB68     		ldr	r3, [r7, #12]
 462 00ec 1B68     		ldr	r3, [r3]
 463              		.loc 1 454 30
 464 00ee 5A60     		str	r2, [r3, #4]
 465              	.L16:
 427:./Libraries/STM32F4xx_HAL_Driver/Src/stm32f4xx_hal_usart.c ****     {
 466              		.loc 1 427 17
ARM GAS  /tmp/ccIGChKB.s 			page 17


 467 00f0 FB68     		ldr	r3, [r7, #12]
 468 00f2 5B8D     		ldrh	r3, [r3, #42]	@ movhi
 469 00f4 9BB2     		uxth	r3, r3
 427:./Libraries/STM32F4xx_HAL_Driver/Src/stm32f4xx_hal_usart.c ****     {
 470              		.loc 1 427 10
 471 00f6 002B     		cmp	r3, #0
 472 00f8 B7D1     		bne	.L21
 455:./Libraries/STM32F4xx_HAL_Driver/Src/stm32f4xx_hal_usart.c ****       }
 456:./Libraries/STM32F4xx_HAL_Driver/Src/stm32f4xx_hal_usart.c ****     }
 457:./Libraries/STM32F4xx_HAL_Driver/Src/stm32f4xx_hal_usart.c **** 
 458:./Libraries/STM32F4xx_HAL_Driver/Src/stm32f4xx_hal_usart.c ****     if(USART_WaitOnFlagUntilTimeout(husart, USART_FLAG_TC, RESET, tickstart, Timeout) != HAL_OK)
 473              		.loc 1 458 8
 474 00fa 3B68     		ldr	r3, [r7]
 475 00fc 0093     		str	r3, [sp]
 476 00fe 7B69     		ldr	r3, [r7, #20]
 477 0100 0022     		movs	r2, #0
 478 0102 4021     		movs	r1, #64
 479 0104 F868     		ldr	r0, [r7, #12]
 480 0106 FFF7FEFF 		bl	USART_WaitOnFlagUntilTimeout
 481 010a 0346     		mov	r3, r0
 482              		.loc 1 458 7
 483 010c 002B     		cmp	r3, #0
 484 010e 01D0     		beq	.L22
 459:./Libraries/STM32F4xx_HAL_Driver/Src/stm32f4xx_hal_usart.c ****     {
 460:./Libraries/STM32F4xx_HAL_Driver/Src/stm32f4xx_hal_usart.c ****       return HAL_TIMEOUT;
 485              		.loc 1 460 14
 486 0110 0323     		movs	r3, #3
 487 0112 0AE0     		b	.L14
 488              	.L22:
 461:./Libraries/STM32F4xx_HAL_Driver/Src/stm32f4xx_hal_usart.c ****     }
 462:./Libraries/STM32F4xx_HAL_Driver/Src/stm32f4xx_hal_usart.c **** 
 463:./Libraries/STM32F4xx_HAL_Driver/Src/stm32f4xx_hal_usart.c ****     husart->State = HAL_USART_STATE_READY;
 489              		.loc 1 463 19
 490 0114 FB68     		ldr	r3, [r7, #12]
 491 0116 0122     		movs	r2, #1
 492 0118 83F83D20 		strb	r2, [r3, #61]
 464:./Libraries/STM32F4xx_HAL_Driver/Src/stm32f4xx_hal_usart.c **** 
 465:./Libraries/STM32F4xx_HAL_Driver/Src/stm32f4xx_hal_usart.c ****     /* Process Unlocked */
 466:./Libraries/STM32F4xx_HAL_Driver/Src/stm32f4xx_hal_usart.c ****     __HAL_UNLOCK(husart);
 493              		.loc 1 466 5
 494 011c FB68     		ldr	r3, [r7, #12]
 495 011e 0022     		movs	r2, #0
 496 0120 83F83C20 		strb	r2, [r3, #60]
 467:./Libraries/STM32F4xx_HAL_Driver/Src/stm32f4xx_hal_usart.c **** 
 468:./Libraries/STM32F4xx_HAL_Driver/Src/stm32f4xx_hal_usart.c ****     return HAL_OK;
 497              		.loc 1 468 12
 498 0124 0023     		movs	r3, #0
 499 0126 00E0     		b	.L14
 500              	.L11:
 469:./Libraries/STM32F4xx_HAL_Driver/Src/stm32f4xx_hal_usart.c ****   }
 470:./Libraries/STM32F4xx_HAL_Driver/Src/stm32f4xx_hal_usart.c ****   else
 471:./Libraries/STM32F4xx_HAL_Driver/Src/stm32f4xx_hal_usart.c ****   {
 472:./Libraries/STM32F4xx_HAL_Driver/Src/stm32f4xx_hal_usart.c ****     return HAL_BUSY;
 501              		.loc 1 472 12
 502 0128 0223     		movs	r3, #2
 503              	.L14:
 473:./Libraries/STM32F4xx_HAL_Driver/Src/stm32f4xx_hal_usart.c ****   }
ARM GAS  /tmp/ccIGChKB.s 			page 18


 474:./Libraries/STM32F4xx_HAL_Driver/Src/stm32f4xx_hal_usart.c **** }
 504              		.loc 1 474 1
 505 012a 1846     		mov	r0, r3
 506 012c 1837     		adds	r7, r7, #24
 507              	.LCFI25:
 508              		.cfi_def_cfa_offset 8
 509 012e BD46     		mov	sp, r7
 510              	.LCFI26:
 511              		.cfi_def_cfa_register 13
 512              		@ sp needed
 513 0130 80BD     		pop	{r7, pc}
 514              		.cfi_endproc
 515              	.LFE130:
 517              		.section	.text.HAL_USART_Receive,"ax",%progbits
 518              		.align	1
 519              		.global	HAL_USART_Receive
 520              		.syntax unified
 521              		.thumb
 522              		.thumb_func
 523              		.fpu fpv4-sp-d16
 525              	HAL_USART_Receive:
 526              	.LFB131:
 475:./Libraries/STM32F4xx_HAL_Driver/Src/stm32f4xx_hal_usart.c **** 
 476:./Libraries/STM32F4xx_HAL_Driver/Src/stm32f4xx_hal_usart.c **** /**
 477:./Libraries/STM32F4xx_HAL_Driver/Src/stm32f4xx_hal_usart.c ****   * @brief  Full-Duplex Receive an amount of data in blocking mode.
 478:./Libraries/STM32F4xx_HAL_Driver/Src/stm32f4xx_hal_usart.c ****   * @param  husart pointer to a USART_HandleTypeDef structure that contains
 479:./Libraries/STM32F4xx_HAL_Driver/Src/stm32f4xx_hal_usart.c ****   *                the configuration information for the specified USART module.
 480:./Libraries/STM32F4xx_HAL_Driver/Src/stm32f4xx_hal_usart.c ****   * @param  pRxData Pointer to data buffer
 481:./Libraries/STM32F4xx_HAL_Driver/Src/stm32f4xx_hal_usart.c ****   * @param  Size Amount of data to be received
 482:./Libraries/STM32F4xx_HAL_Driver/Src/stm32f4xx_hal_usart.c ****   * @param  Timeout Timeout duration
 483:./Libraries/STM32F4xx_HAL_Driver/Src/stm32f4xx_hal_usart.c ****   * @retval HAL status
 484:./Libraries/STM32F4xx_HAL_Driver/Src/stm32f4xx_hal_usart.c ****   */
 485:./Libraries/STM32F4xx_HAL_Driver/Src/stm32f4xx_hal_usart.c **** HAL_StatusTypeDef HAL_USART_Receive(USART_HandleTypeDef *husart, uint8_t *pRxData, uint16_t Size, u
 486:./Libraries/STM32F4xx_HAL_Driver/Src/stm32f4xx_hal_usart.c **** {
 527              		.loc 1 486 1
 528              		.cfi_startproc
 529              		@ args = 0, pretend = 0, frame = 24
 530              		@ frame_needed = 1, uses_anonymous_args = 0
 531 0000 80B5     		push	{r7, lr}
 532              	.LCFI27:
 533              		.cfi_def_cfa_offset 8
 534              		.cfi_offset 7, -8
 535              		.cfi_offset 14, -4
 536 0002 88B0     		sub	sp, sp, #32
 537              	.LCFI28:
 538              		.cfi_def_cfa_offset 40
 539 0004 02AF     		add	r7, sp, #8
 540              	.LCFI29:
 541              		.cfi_def_cfa 7, 32
 542 0006 F860     		str	r0, [r7, #12]
 543 0008 B960     		str	r1, [r7, #8]
 544 000a 3B60     		str	r3, [r7]
 545 000c 1346     		mov	r3, r2	@ movhi
 546 000e FB80     		strh	r3, [r7, #6]	@ movhi
 487:./Libraries/STM32F4xx_HAL_Driver/Src/stm32f4xx_hal_usart.c ****   uint16_t* tmp;
 488:./Libraries/STM32F4xx_HAL_Driver/Src/stm32f4xx_hal_usart.c ****   uint32_t tickstart = 0U;
 547              		.loc 1 488 12
ARM GAS  /tmp/ccIGChKB.s 			page 19


 548 0010 0023     		movs	r3, #0
 549 0012 7B61     		str	r3, [r7, #20]
 489:./Libraries/STM32F4xx_HAL_Driver/Src/stm32f4xx_hal_usart.c **** 
 490:./Libraries/STM32F4xx_HAL_Driver/Src/stm32f4xx_hal_usart.c ****   if(husart->State == HAL_USART_STATE_READY)
 550              		.loc 1 490 12
 551 0014 FB68     		ldr	r3, [r7, #12]
 552 0016 93F83D30 		ldrb	r3, [r3, #61]
 553 001a DBB2     		uxtb	r3, r3
 554              		.loc 1 490 5
 555 001c 012B     		cmp	r3, #1
 556 001e 40F0B480 		bne	.L24
 491:./Libraries/STM32F4xx_HAL_Driver/Src/stm32f4xx_hal_usart.c ****   {
 492:./Libraries/STM32F4xx_HAL_Driver/Src/stm32f4xx_hal_usart.c ****     if((pRxData == NULL) || (Size == 0))
 557              		.loc 1 492 7
 558 0022 BB68     		ldr	r3, [r7, #8]
 559 0024 002B     		cmp	r3, #0
 560 0026 02D0     		beq	.L25
 561              		.loc 1 492 26 discriminator 1
 562 0028 FB88     		ldrh	r3, [r7, #6]
 563 002a 002B     		cmp	r3, #0
 564 002c 01D1     		bne	.L26
 565              	.L25:
 493:./Libraries/STM32F4xx_HAL_Driver/Src/stm32f4xx_hal_usart.c ****     {
 494:./Libraries/STM32F4xx_HAL_Driver/Src/stm32f4xx_hal_usart.c ****       return  HAL_ERROR;
 566              		.loc 1 494 15
 567 002e 0123     		movs	r3, #1
 568 0030 ACE0     		b	.L27
 569              	.L26:
 495:./Libraries/STM32F4xx_HAL_Driver/Src/stm32f4xx_hal_usart.c ****     }
 496:./Libraries/STM32F4xx_HAL_Driver/Src/stm32f4xx_hal_usart.c ****     /* Process Locked */
 497:./Libraries/STM32F4xx_HAL_Driver/Src/stm32f4xx_hal_usart.c ****     __HAL_LOCK(husart);
 570              		.loc 1 497 5
 571 0032 FB68     		ldr	r3, [r7, #12]
 572 0034 93F83C30 		ldrb	r3, [r3, #60]	@ zero_extendqisi2
 573 0038 012B     		cmp	r3, #1
 574 003a 01D1     		bne	.L28
 575              		.loc 1 497 5 is_stmt 0 discriminator 1
 576 003c 0223     		movs	r3, #2
 577 003e A5E0     		b	.L27
 578              	.L28:
 579              		.loc 1 497 5 discriminator 2
 580 0040 FB68     		ldr	r3, [r7, #12]
 581 0042 0122     		movs	r2, #1
 582 0044 83F83C20 		strb	r2, [r3, #60]
 498:./Libraries/STM32F4xx_HAL_Driver/Src/stm32f4xx_hal_usart.c **** 
 499:./Libraries/STM32F4xx_HAL_Driver/Src/stm32f4xx_hal_usart.c ****     husart->ErrorCode = HAL_USART_ERROR_NONE;
 583              		.loc 1 499 23 is_stmt 1 discriminator 2
 584 0048 FB68     		ldr	r3, [r7, #12]
 585 004a 0022     		movs	r2, #0
 586 004c 1A64     		str	r2, [r3, #64]
 500:./Libraries/STM32F4xx_HAL_Driver/Src/stm32f4xx_hal_usart.c ****     husart->State = HAL_USART_STATE_BUSY_RX;
 587              		.loc 1 500 19 discriminator 2
 588 004e FB68     		ldr	r3, [r7, #12]
 589 0050 2222     		movs	r2, #34
 590 0052 83F83D20 		strb	r2, [r3, #61]
 501:./Libraries/STM32F4xx_HAL_Driver/Src/stm32f4xx_hal_usart.c **** 
 502:./Libraries/STM32F4xx_HAL_Driver/Src/stm32f4xx_hal_usart.c ****     /* Init tickstart for timeout managment */
ARM GAS  /tmp/ccIGChKB.s 			page 20


 503:./Libraries/STM32F4xx_HAL_Driver/Src/stm32f4xx_hal_usart.c ****     tickstart = HAL_GetTick();
 591              		.loc 1 503 17 discriminator 2
 592 0056 FFF7FEFF 		bl	HAL_GetTick
 593 005a 7861     		str	r0, [r7, #20]
 504:./Libraries/STM32F4xx_HAL_Driver/Src/stm32f4xx_hal_usart.c **** 
 505:./Libraries/STM32F4xx_HAL_Driver/Src/stm32f4xx_hal_usart.c ****     husart->RxXferSize = Size;
 594              		.loc 1 505 24 discriminator 2
 595 005c FB68     		ldr	r3, [r7, #12]
 596 005e FA88     		ldrh	r2, [r7, #6]	@ movhi
 597 0060 1A86     		strh	r2, [r3, #48]	@ movhi
 506:./Libraries/STM32F4xx_HAL_Driver/Src/stm32f4xx_hal_usart.c ****     husart->RxXferCount = Size;
 598              		.loc 1 506 25 discriminator 2
 599 0062 FB68     		ldr	r3, [r7, #12]
 600 0064 FA88     		ldrh	r2, [r7, #6]	@ movhi
 601 0066 5A86     		strh	r2, [r3, #50]	@ movhi
 507:./Libraries/STM32F4xx_HAL_Driver/Src/stm32f4xx_hal_usart.c ****     /* Check the remain data to be received */
 508:./Libraries/STM32F4xx_HAL_Driver/Src/stm32f4xx_hal_usart.c ****     while(husart->RxXferCount > 0U)
 602              		.loc 1 508 10 discriminator 2
 603 0068 7FE0     		b	.L29
 604              	.L37:
 509:./Libraries/STM32F4xx_HAL_Driver/Src/stm32f4xx_hal_usart.c ****     {
 510:./Libraries/STM32F4xx_HAL_Driver/Src/stm32f4xx_hal_usart.c ****       husart->RxXferCount--;
 605              		.loc 1 510 13
 606 006a FB68     		ldr	r3, [r7, #12]
 607 006c 5B8E     		ldrh	r3, [r3, #50]	@ movhi
 608 006e 9BB2     		uxth	r3, r3
 609              		.loc 1 510 26
 610 0070 013B     		subs	r3, r3, #1
 611 0072 9AB2     		uxth	r2, r3
 612 0074 FB68     		ldr	r3, [r7, #12]
 613 0076 5A86     		strh	r2, [r3, #50]	@ movhi
 511:./Libraries/STM32F4xx_HAL_Driver/Src/stm32f4xx_hal_usart.c ****       if(husart->Init.WordLength == USART_WORDLENGTH_9B)
 614              		.loc 1 511 22
 615 0078 FB68     		ldr	r3, [r7, #12]
 616 007a 9B68     		ldr	r3, [r3, #8]
 617              		.loc 1 511 9
 618 007c B3F5805F 		cmp	r3, #4096
 619 0080 3DD1     		bne	.L30
 512:./Libraries/STM32F4xx_HAL_Driver/Src/stm32f4xx_hal_usart.c ****       {
 513:./Libraries/STM32F4xx_HAL_Driver/Src/stm32f4xx_hal_usart.c ****         /* Wait until TXE flag is set to send dummy byte in order to generate the clock for the sla
 514:./Libraries/STM32F4xx_HAL_Driver/Src/stm32f4xx_hal_usart.c ****         if(USART_WaitOnFlagUntilTimeout(husart, USART_FLAG_TXE, RESET, tickstart, Timeout) != HAL_O
 620              		.loc 1 514 12
 621 0082 3B68     		ldr	r3, [r7]
 622 0084 0093     		str	r3, [sp]
 623 0086 7B69     		ldr	r3, [r7, #20]
 624 0088 0022     		movs	r2, #0
 625 008a 8021     		movs	r1, #128
 626 008c F868     		ldr	r0, [r7, #12]
 627 008e FFF7FEFF 		bl	USART_WaitOnFlagUntilTimeout
 628 0092 0346     		mov	r3, r0
 629              		.loc 1 514 11
 630 0094 002B     		cmp	r3, #0
 631 0096 01D0     		beq	.L31
 515:./Libraries/STM32F4xx_HAL_Driver/Src/stm32f4xx_hal_usart.c ****         {
 516:./Libraries/STM32F4xx_HAL_Driver/Src/stm32f4xx_hal_usart.c ****           return HAL_TIMEOUT;
 632              		.loc 1 516 18
 633 0098 0323     		movs	r3, #3
ARM GAS  /tmp/ccIGChKB.s 			page 21


 634 009a 77E0     		b	.L27
 635              	.L31:
 517:./Libraries/STM32F4xx_HAL_Driver/Src/stm32f4xx_hal_usart.c ****         }
 518:./Libraries/STM32F4xx_HAL_Driver/Src/stm32f4xx_hal_usart.c ****         /* Send dummy byte in order to generate clock */
 519:./Libraries/STM32F4xx_HAL_Driver/Src/stm32f4xx_hal_usart.c ****         husart->Instance->DR = (DUMMY_DATA & (uint16_t)0x01FF);
 636              		.loc 1 519 15
 637 009c FB68     		ldr	r3, [r7, #12]
 638 009e 1B68     		ldr	r3, [r3]
 639              		.loc 1 519 30
 640 00a0 40F2FF12 		movw	r2, #511
 641 00a4 5A60     		str	r2, [r3, #4]
 520:./Libraries/STM32F4xx_HAL_Driver/Src/stm32f4xx_hal_usart.c **** 
 521:./Libraries/STM32F4xx_HAL_Driver/Src/stm32f4xx_hal_usart.c ****         /* Wait for RXNE Flag */
 522:./Libraries/STM32F4xx_HAL_Driver/Src/stm32f4xx_hal_usart.c ****         if(USART_WaitOnFlagUntilTimeout(husart, USART_FLAG_RXNE, RESET, tickstart, Timeout) != HAL_
 642              		.loc 1 522 12
 643 00a6 3B68     		ldr	r3, [r7]
 644 00a8 0093     		str	r3, [sp]
 645 00aa 7B69     		ldr	r3, [r7, #20]
 646 00ac 0022     		movs	r2, #0
 647 00ae 2021     		movs	r1, #32
 648 00b0 F868     		ldr	r0, [r7, #12]
 649 00b2 FFF7FEFF 		bl	USART_WaitOnFlagUntilTimeout
 650 00b6 0346     		mov	r3, r0
 651              		.loc 1 522 11
 652 00b8 002B     		cmp	r3, #0
 653 00ba 01D0     		beq	.L32
 523:./Libraries/STM32F4xx_HAL_Driver/Src/stm32f4xx_hal_usart.c ****         {
 524:./Libraries/STM32F4xx_HAL_Driver/Src/stm32f4xx_hal_usart.c ****           return HAL_TIMEOUT;
 654              		.loc 1 524 18
 655 00bc 0323     		movs	r3, #3
 656 00be 65E0     		b	.L27
 657              	.L32:
 525:./Libraries/STM32F4xx_HAL_Driver/Src/stm32f4xx_hal_usart.c ****         }
 526:./Libraries/STM32F4xx_HAL_Driver/Src/stm32f4xx_hal_usart.c ****         tmp = (uint16_t*) pRxData ;
 658              		.loc 1 526 13
 659 00c0 BB68     		ldr	r3, [r7, #8]
 660 00c2 3B61     		str	r3, [r7, #16]
 527:./Libraries/STM32F4xx_HAL_Driver/Src/stm32f4xx_hal_usart.c ****         if(husart->Init.Parity == USART_PARITY_NONE)
 661              		.loc 1 527 24
 662 00c4 FB68     		ldr	r3, [r7, #12]
 663 00c6 1B69     		ldr	r3, [r3, #16]
 664              		.loc 1 527 11
 665 00c8 002B     		cmp	r3, #0
 666 00ca 0CD1     		bne	.L33
 528:./Libraries/STM32F4xx_HAL_Driver/Src/stm32f4xx_hal_usart.c ****         {
 529:./Libraries/STM32F4xx_HAL_Driver/Src/stm32f4xx_hal_usart.c ****           *tmp = (uint16_t)(husart->Instance->DR & (uint16_t)0x01FF);
 667              		.loc 1 529 35
 668 00cc FB68     		ldr	r3, [r7, #12]
 669 00ce 1B68     		ldr	r3, [r3]
 670              		.loc 1 529 45
 671 00d0 5B68     		ldr	r3, [r3, #4]
 672              		.loc 1 529 18
 673 00d2 9BB2     		uxth	r3, r3
 674 00d4 C3F30803 		ubfx	r3, r3, #0, #9
 675 00d8 9AB2     		uxth	r2, r3
 676              		.loc 1 529 16
 677 00da 3B69     		ldr	r3, [r7, #16]
ARM GAS  /tmp/ccIGChKB.s 			page 22


 678 00dc 1A80     		strh	r2, [r3]	@ movhi
 530:./Libraries/STM32F4xx_HAL_Driver/Src/stm32f4xx_hal_usart.c ****           pRxData +=2U;
 679              		.loc 1 530 19
 680 00de BB68     		ldr	r3, [r7, #8]
 681 00e0 0233     		adds	r3, r3, #2
 682 00e2 BB60     		str	r3, [r7, #8]
 683 00e4 41E0     		b	.L29
 684              	.L33:
 531:./Libraries/STM32F4xx_HAL_Driver/Src/stm32f4xx_hal_usart.c ****         }
 532:./Libraries/STM32F4xx_HAL_Driver/Src/stm32f4xx_hal_usart.c ****         else
 533:./Libraries/STM32F4xx_HAL_Driver/Src/stm32f4xx_hal_usart.c ****         {
 534:./Libraries/STM32F4xx_HAL_Driver/Src/stm32f4xx_hal_usart.c ****           *tmp = (uint16_t)(husart->Instance->DR & (uint16_t)0x00FF);
 685              		.loc 1 534 35
 686 00e6 FB68     		ldr	r3, [r7, #12]
 687 00e8 1B68     		ldr	r3, [r3]
 688              		.loc 1 534 45
 689 00ea 5B68     		ldr	r3, [r3, #4]
 690              		.loc 1 534 18
 691 00ec 9BB2     		uxth	r3, r3
 692 00ee DBB2     		uxtb	r3, r3
 693 00f0 9AB2     		uxth	r2, r3
 694              		.loc 1 534 16
 695 00f2 3B69     		ldr	r3, [r7, #16]
 696 00f4 1A80     		strh	r2, [r3]	@ movhi
 535:./Libraries/STM32F4xx_HAL_Driver/Src/stm32f4xx_hal_usart.c ****           pRxData +=1U;
 697              		.loc 1 535 19
 698 00f6 BB68     		ldr	r3, [r7, #8]
 699 00f8 0133     		adds	r3, r3, #1
 700 00fa BB60     		str	r3, [r7, #8]
 701 00fc 35E0     		b	.L29
 702              	.L30:
 536:./Libraries/STM32F4xx_HAL_Driver/Src/stm32f4xx_hal_usart.c ****         }
 537:./Libraries/STM32F4xx_HAL_Driver/Src/stm32f4xx_hal_usart.c ****       }
 538:./Libraries/STM32F4xx_HAL_Driver/Src/stm32f4xx_hal_usart.c ****       else
 539:./Libraries/STM32F4xx_HAL_Driver/Src/stm32f4xx_hal_usart.c ****       {
 540:./Libraries/STM32F4xx_HAL_Driver/Src/stm32f4xx_hal_usart.c ****         /* Wait until TXE flag is set to send dummy byte in order to generate the clock for the sla
 541:./Libraries/STM32F4xx_HAL_Driver/Src/stm32f4xx_hal_usart.c ****         if(USART_WaitOnFlagUntilTimeout(husart, USART_FLAG_TXE, RESET, tickstart, Timeout) != HAL_O
 703              		.loc 1 541 12
 704 00fe 3B68     		ldr	r3, [r7]
 705 0100 0093     		str	r3, [sp]
 706 0102 7B69     		ldr	r3, [r7, #20]
 707 0104 0022     		movs	r2, #0
 708 0106 8021     		movs	r1, #128
 709 0108 F868     		ldr	r0, [r7, #12]
 710 010a FFF7FEFF 		bl	USART_WaitOnFlagUntilTimeout
 711 010e 0346     		mov	r3, r0
 712              		.loc 1 541 11
 713 0110 002B     		cmp	r3, #0
 714 0112 01D0     		beq	.L34
 542:./Libraries/STM32F4xx_HAL_Driver/Src/stm32f4xx_hal_usart.c ****         {
 543:./Libraries/STM32F4xx_HAL_Driver/Src/stm32f4xx_hal_usart.c ****           return HAL_TIMEOUT;
 715              		.loc 1 543 18
 716 0114 0323     		movs	r3, #3
 717 0116 39E0     		b	.L27
 718              	.L34:
 544:./Libraries/STM32F4xx_HAL_Driver/Src/stm32f4xx_hal_usart.c ****         }
 545:./Libraries/STM32F4xx_HAL_Driver/Src/stm32f4xx_hal_usart.c **** 
ARM GAS  /tmp/ccIGChKB.s 			page 23


 546:./Libraries/STM32F4xx_HAL_Driver/Src/stm32f4xx_hal_usart.c ****         /* Send Dummy Byte in order to generate clock */
 547:./Libraries/STM32F4xx_HAL_Driver/Src/stm32f4xx_hal_usart.c ****         husart->Instance->DR = (DUMMY_DATA & (uint16_t)0x00FF);
 719              		.loc 1 547 15
 720 0118 FB68     		ldr	r3, [r7, #12]
 721 011a 1B68     		ldr	r3, [r3]
 722              		.loc 1 547 30
 723 011c FF22     		movs	r2, #255
 724 011e 5A60     		str	r2, [r3, #4]
 548:./Libraries/STM32F4xx_HAL_Driver/Src/stm32f4xx_hal_usart.c **** 
 549:./Libraries/STM32F4xx_HAL_Driver/Src/stm32f4xx_hal_usart.c ****         /* Wait until RXNE flag is set to receive the byte */
 550:./Libraries/STM32F4xx_HAL_Driver/Src/stm32f4xx_hal_usart.c ****         if(USART_WaitOnFlagUntilTimeout(husart, USART_FLAG_RXNE, RESET, tickstart, Timeout) != HAL_
 725              		.loc 1 550 12
 726 0120 3B68     		ldr	r3, [r7]
 727 0122 0093     		str	r3, [sp]
 728 0124 7B69     		ldr	r3, [r7, #20]
 729 0126 0022     		movs	r2, #0
 730 0128 2021     		movs	r1, #32
 731 012a F868     		ldr	r0, [r7, #12]
 732 012c FFF7FEFF 		bl	USART_WaitOnFlagUntilTimeout
 733 0130 0346     		mov	r3, r0
 734              		.loc 1 550 11
 735 0132 002B     		cmp	r3, #0
 736 0134 01D0     		beq	.L35
 551:./Libraries/STM32F4xx_HAL_Driver/Src/stm32f4xx_hal_usart.c ****         {
 552:./Libraries/STM32F4xx_HAL_Driver/Src/stm32f4xx_hal_usart.c ****           return HAL_TIMEOUT;
 737              		.loc 1 552 18
 738 0136 0323     		movs	r3, #3
 739 0138 28E0     		b	.L27
 740              	.L35:
 553:./Libraries/STM32F4xx_HAL_Driver/Src/stm32f4xx_hal_usart.c ****         }
 554:./Libraries/STM32F4xx_HAL_Driver/Src/stm32f4xx_hal_usart.c ****         if(husart->Init.Parity == USART_PARITY_NONE)
 741              		.loc 1 554 24
 742 013a FB68     		ldr	r3, [r7, #12]
 743 013c 1B69     		ldr	r3, [r3, #16]
 744              		.loc 1 554 11
 745 013e 002B     		cmp	r3, #0
 746 0140 08D1     		bne	.L36
 555:./Libraries/STM32F4xx_HAL_Driver/Src/stm32f4xx_hal_usart.c ****         {
 556:./Libraries/STM32F4xx_HAL_Driver/Src/stm32f4xx_hal_usart.c ****           /* Receive data */
 557:./Libraries/STM32F4xx_HAL_Driver/Src/stm32f4xx_hal_usart.c ****           *pRxData++ = (uint8_t)(husart->Instance->DR & (uint8_t)0x00FF);
 747              		.loc 1 557 40
 748 0142 FB68     		ldr	r3, [r7, #12]
 749 0144 1B68     		ldr	r3, [r3]
 750              		.loc 1 557 50
 751 0146 5968     		ldr	r1, [r3, #4]
 752              		.loc 1 557 19
 753 0148 BB68     		ldr	r3, [r7, #8]
 754 014a 5A1C     		adds	r2, r3, #1
 755 014c BA60     		str	r2, [r7, #8]
 756              		.loc 1 557 24
 757 014e CAB2     		uxtb	r2, r1
 758              		.loc 1 557 22
 759 0150 1A70     		strb	r2, [r3]
 760 0152 0AE0     		b	.L29
 761              	.L36:
 558:./Libraries/STM32F4xx_HAL_Driver/Src/stm32f4xx_hal_usart.c ****         }
 559:./Libraries/STM32F4xx_HAL_Driver/Src/stm32f4xx_hal_usart.c ****         else
ARM GAS  /tmp/ccIGChKB.s 			page 24


 560:./Libraries/STM32F4xx_HAL_Driver/Src/stm32f4xx_hal_usart.c ****         {
 561:./Libraries/STM32F4xx_HAL_Driver/Src/stm32f4xx_hal_usart.c ****           /* Receive data */
 562:./Libraries/STM32F4xx_HAL_Driver/Src/stm32f4xx_hal_usart.c ****           *pRxData++ = (uint8_t)(husart->Instance->DR & (uint8_t)0x007F);
 762              		.loc 1 562 40
 763 0154 FB68     		ldr	r3, [r7, #12]
 764 0156 1B68     		ldr	r3, [r3]
 765              		.loc 1 562 50
 766 0158 5B68     		ldr	r3, [r3, #4]
 767              		.loc 1 562 24
 768 015a DAB2     		uxtb	r2, r3
 769              		.loc 1 562 19
 770 015c BB68     		ldr	r3, [r7, #8]
 771 015e 591C     		adds	r1, r3, #1
 772 0160 B960     		str	r1, [r7, #8]
 773              		.loc 1 562 24
 774 0162 02F07F02 		and	r2, r2, #127
 775 0166 D2B2     		uxtb	r2, r2
 776              		.loc 1 562 22
 777 0168 1A70     		strb	r2, [r3]
 778              	.L29:
 508:./Libraries/STM32F4xx_HAL_Driver/Src/stm32f4xx_hal_usart.c ****     {
 779              		.loc 1 508 17
 780 016a FB68     		ldr	r3, [r7, #12]
 781 016c 5B8E     		ldrh	r3, [r3, #50]	@ movhi
 782 016e 9BB2     		uxth	r3, r3
 508:./Libraries/STM32F4xx_HAL_Driver/Src/stm32f4xx_hal_usart.c ****     {
 783              		.loc 1 508 10
 784 0170 002B     		cmp	r3, #0
 785 0172 7FF47AAF 		bne	.L37
 563:./Libraries/STM32F4xx_HAL_Driver/Src/stm32f4xx_hal_usart.c ****         }
 564:./Libraries/STM32F4xx_HAL_Driver/Src/stm32f4xx_hal_usart.c **** 
 565:./Libraries/STM32F4xx_HAL_Driver/Src/stm32f4xx_hal_usart.c ****       }
 566:./Libraries/STM32F4xx_HAL_Driver/Src/stm32f4xx_hal_usart.c ****     }
 567:./Libraries/STM32F4xx_HAL_Driver/Src/stm32f4xx_hal_usart.c **** 
 568:./Libraries/STM32F4xx_HAL_Driver/Src/stm32f4xx_hal_usart.c ****     husart->State = HAL_USART_STATE_READY;
 786              		.loc 1 568 19
 787 0176 FB68     		ldr	r3, [r7, #12]
 788 0178 0122     		movs	r2, #1
 789 017a 83F83D20 		strb	r2, [r3, #61]
 569:./Libraries/STM32F4xx_HAL_Driver/Src/stm32f4xx_hal_usart.c **** 
 570:./Libraries/STM32F4xx_HAL_Driver/Src/stm32f4xx_hal_usart.c ****     /* Process Unlocked */
 571:./Libraries/STM32F4xx_HAL_Driver/Src/stm32f4xx_hal_usart.c ****     __HAL_UNLOCK(husart);
 790              		.loc 1 571 5
 791 017e FB68     		ldr	r3, [r7, #12]
 792 0180 0022     		movs	r2, #0
 793 0182 83F83C20 		strb	r2, [r3, #60]
 572:./Libraries/STM32F4xx_HAL_Driver/Src/stm32f4xx_hal_usart.c **** 
 573:./Libraries/STM32F4xx_HAL_Driver/Src/stm32f4xx_hal_usart.c ****     return HAL_OK;
 794              		.loc 1 573 12
 795 0186 0023     		movs	r3, #0
 796 0188 00E0     		b	.L27
 797              	.L24:
 574:./Libraries/STM32F4xx_HAL_Driver/Src/stm32f4xx_hal_usart.c ****   }
 575:./Libraries/STM32F4xx_HAL_Driver/Src/stm32f4xx_hal_usart.c ****   else
 576:./Libraries/STM32F4xx_HAL_Driver/Src/stm32f4xx_hal_usart.c ****   {
 577:./Libraries/STM32F4xx_HAL_Driver/Src/stm32f4xx_hal_usart.c ****     return HAL_BUSY;
 798              		.loc 1 577 12
ARM GAS  /tmp/ccIGChKB.s 			page 25


 799 018a 0223     		movs	r3, #2
 800              	.L27:
 578:./Libraries/STM32F4xx_HAL_Driver/Src/stm32f4xx_hal_usart.c ****   }
 579:./Libraries/STM32F4xx_HAL_Driver/Src/stm32f4xx_hal_usart.c **** }
 801              		.loc 1 579 1
 802 018c 1846     		mov	r0, r3
 803 018e 1837     		adds	r7, r7, #24
 804              	.LCFI30:
 805              		.cfi_def_cfa_offset 8
 806 0190 BD46     		mov	sp, r7
 807              	.LCFI31:
 808              		.cfi_def_cfa_register 13
 809              		@ sp needed
 810 0192 80BD     		pop	{r7, pc}
 811              		.cfi_endproc
 812              	.LFE131:
 814              		.section	.text.HAL_USART_TransmitReceive,"ax",%progbits
 815              		.align	1
 816              		.global	HAL_USART_TransmitReceive
 817              		.syntax unified
 818              		.thumb
 819              		.thumb_func
 820              		.fpu fpv4-sp-d16
 822              	HAL_USART_TransmitReceive:
 823              	.LFB132:
 580:./Libraries/STM32F4xx_HAL_Driver/Src/stm32f4xx_hal_usart.c **** 
 581:./Libraries/STM32F4xx_HAL_Driver/Src/stm32f4xx_hal_usart.c **** /**
 582:./Libraries/STM32F4xx_HAL_Driver/Src/stm32f4xx_hal_usart.c ****   * @brief  Full-Duplex Send receive an amount of data in full-duplex mode (blocking mode).
 583:./Libraries/STM32F4xx_HAL_Driver/Src/stm32f4xx_hal_usart.c ****   * @param  husart pointer to a USART_HandleTypeDef structure that contains
 584:./Libraries/STM32F4xx_HAL_Driver/Src/stm32f4xx_hal_usart.c ****   *                the configuration information for the specified USART module.
 585:./Libraries/STM32F4xx_HAL_Driver/Src/stm32f4xx_hal_usart.c ****   * @param  pTxData Pointer to data transmitted buffer
 586:./Libraries/STM32F4xx_HAL_Driver/Src/stm32f4xx_hal_usart.c ****   * @param  pRxData Pointer to data received buffer
 587:./Libraries/STM32F4xx_HAL_Driver/Src/stm32f4xx_hal_usart.c ****   * @param  Size Amount of data to be sent
 588:./Libraries/STM32F4xx_HAL_Driver/Src/stm32f4xx_hal_usart.c ****    * @param  Timeout Timeout duration
 589:./Libraries/STM32F4xx_HAL_Driver/Src/stm32f4xx_hal_usart.c ****   * @retval HAL status
 590:./Libraries/STM32F4xx_HAL_Driver/Src/stm32f4xx_hal_usart.c ****   */
 591:./Libraries/STM32F4xx_HAL_Driver/Src/stm32f4xx_hal_usart.c **** HAL_StatusTypeDef HAL_USART_TransmitReceive(USART_HandleTypeDef *husart, uint8_t *pTxData, uint8_t 
 592:./Libraries/STM32F4xx_HAL_Driver/Src/stm32f4xx_hal_usart.c **** {
 824              		.loc 1 592 1
 825              		.cfi_startproc
 826              		@ args = 4, pretend = 0, frame = 24
 827              		@ frame_needed = 1, uses_anonymous_args = 0
 828 0000 80B5     		push	{r7, lr}
 829              	.LCFI32:
 830              		.cfi_def_cfa_offset 8
 831              		.cfi_offset 7, -8
 832              		.cfi_offset 14, -4
 833 0002 88B0     		sub	sp, sp, #32
 834              	.LCFI33:
 835              		.cfi_def_cfa_offset 40
 836 0004 02AF     		add	r7, sp, #8
 837              	.LCFI34:
 838              		.cfi_def_cfa 7, 32
 839 0006 F860     		str	r0, [r7, #12]
 840 0008 B960     		str	r1, [r7, #8]
 841 000a 7A60     		str	r2, [r7, #4]
 842 000c 7B80     		strh	r3, [r7, #2]	@ movhi
ARM GAS  /tmp/ccIGChKB.s 			page 26


 593:./Libraries/STM32F4xx_HAL_Driver/Src/stm32f4xx_hal_usart.c ****   uint16_t* tmp;
 594:./Libraries/STM32F4xx_HAL_Driver/Src/stm32f4xx_hal_usart.c ****   uint32_t tickstart = 0U;
 843              		.loc 1 594 12
 844 000e 0023     		movs	r3, #0
 845 0010 7B61     		str	r3, [r7, #20]
 595:./Libraries/STM32F4xx_HAL_Driver/Src/stm32f4xx_hal_usart.c **** 
 596:./Libraries/STM32F4xx_HAL_Driver/Src/stm32f4xx_hal_usart.c ****   if(husart->State == HAL_USART_STATE_READY)
 846              		.loc 1 596 12
 847 0012 FB68     		ldr	r3, [r7, #12]
 848 0014 93F83D30 		ldrb	r3, [r3, #61]
 849 0018 DBB2     		uxtb	r3, r3
 850              		.loc 1 596 5
 851 001a 012B     		cmp	r3, #1
 852 001c 40F0D780 		bne	.L39
 597:./Libraries/STM32F4xx_HAL_Driver/Src/stm32f4xx_hal_usart.c ****   {
 598:./Libraries/STM32F4xx_HAL_Driver/Src/stm32f4xx_hal_usart.c ****     if((pTxData == NULL) || (pRxData == NULL) || (Size == 0))
 853              		.loc 1 598 7
 854 0020 BB68     		ldr	r3, [r7, #8]
 855 0022 002B     		cmp	r3, #0
 856 0024 05D0     		beq	.L40
 857              		.loc 1 598 26 discriminator 1
 858 0026 7B68     		ldr	r3, [r7, #4]
 859 0028 002B     		cmp	r3, #0
 860 002a 02D0     		beq	.L40
 861              		.loc 1 598 47 discriminator 2
 862 002c 7B88     		ldrh	r3, [r7, #2]
 863 002e 002B     		cmp	r3, #0
 864 0030 01D1     		bne	.L41
 865              	.L40:
 599:./Libraries/STM32F4xx_HAL_Driver/Src/stm32f4xx_hal_usart.c ****     {
 600:./Libraries/STM32F4xx_HAL_Driver/Src/stm32f4xx_hal_usart.c ****       return  HAL_ERROR;
 866              		.loc 1 600 15
 867 0032 0123     		movs	r3, #1
 868 0034 CCE0     		b	.L42
 869              	.L41:
 601:./Libraries/STM32F4xx_HAL_Driver/Src/stm32f4xx_hal_usart.c ****     }
 602:./Libraries/STM32F4xx_HAL_Driver/Src/stm32f4xx_hal_usart.c ****     /* Process Locked */
 603:./Libraries/STM32F4xx_HAL_Driver/Src/stm32f4xx_hal_usart.c ****     __HAL_LOCK(husart);
 870              		.loc 1 603 5
 871 0036 FB68     		ldr	r3, [r7, #12]
 872 0038 93F83C30 		ldrb	r3, [r3, #60]	@ zero_extendqisi2
 873 003c 012B     		cmp	r3, #1
 874 003e 01D1     		bne	.L43
 875              		.loc 1 603 5 is_stmt 0 discriminator 1
 876 0040 0223     		movs	r3, #2
 877 0042 C5E0     		b	.L42
 878              	.L43:
 879              		.loc 1 603 5 discriminator 2
 880 0044 FB68     		ldr	r3, [r7, #12]
 881 0046 0122     		movs	r2, #1
 882 0048 83F83C20 		strb	r2, [r3, #60]
 604:./Libraries/STM32F4xx_HAL_Driver/Src/stm32f4xx_hal_usart.c **** 
 605:./Libraries/STM32F4xx_HAL_Driver/Src/stm32f4xx_hal_usart.c ****     husart->ErrorCode = HAL_USART_ERROR_NONE;
 883              		.loc 1 605 23 is_stmt 1 discriminator 2
 884 004c FB68     		ldr	r3, [r7, #12]
 885 004e 0022     		movs	r2, #0
 886 0050 1A64     		str	r2, [r3, #64]
ARM GAS  /tmp/ccIGChKB.s 			page 27


 606:./Libraries/STM32F4xx_HAL_Driver/Src/stm32f4xx_hal_usart.c ****     husart->State = HAL_USART_STATE_BUSY_RX;
 887              		.loc 1 606 19 discriminator 2
 888 0052 FB68     		ldr	r3, [r7, #12]
 889 0054 2222     		movs	r2, #34
 890 0056 83F83D20 		strb	r2, [r3, #61]
 607:./Libraries/STM32F4xx_HAL_Driver/Src/stm32f4xx_hal_usart.c **** 
 608:./Libraries/STM32F4xx_HAL_Driver/Src/stm32f4xx_hal_usart.c ****     /* Init tickstart for timeout managment */
 609:./Libraries/STM32F4xx_HAL_Driver/Src/stm32f4xx_hal_usart.c ****     tickstart = HAL_GetTick();
 891              		.loc 1 609 17 discriminator 2
 892 005a FFF7FEFF 		bl	HAL_GetTick
 893 005e 7861     		str	r0, [r7, #20]
 610:./Libraries/STM32F4xx_HAL_Driver/Src/stm32f4xx_hal_usart.c **** 
 611:./Libraries/STM32F4xx_HAL_Driver/Src/stm32f4xx_hal_usart.c ****     husart->RxXferSize = Size;
 894              		.loc 1 611 24 discriminator 2
 895 0060 FB68     		ldr	r3, [r7, #12]
 896 0062 7A88     		ldrh	r2, [r7, #2]	@ movhi
 897 0064 1A86     		strh	r2, [r3, #48]	@ movhi
 612:./Libraries/STM32F4xx_HAL_Driver/Src/stm32f4xx_hal_usart.c ****     husart->TxXferSize = Size;
 898              		.loc 1 612 24 discriminator 2
 899 0066 FB68     		ldr	r3, [r7, #12]
 900 0068 7A88     		ldrh	r2, [r7, #2]	@ movhi
 901 006a 1A85     		strh	r2, [r3, #40]	@ movhi
 613:./Libraries/STM32F4xx_HAL_Driver/Src/stm32f4xx_hal_usart.c ****     husart->TxXferCount = Size;
 902              		.loc 1 613 25 discriminator 2
 903 006c FB68     		ldr	r3, [r7, #12]
 904 006e 7A88     		ldrh	r2, [r7, #2]	@ movhi
 905 0070 5A85     		strh	r2, [r3, #42]	@ movhi
 614:./Libraries/STM32F4xx_HAL_Driver/Src/stm32f4xx_hal_usart.c ****     husart->RxXferCount = Size;
 906              		.loc 1 614 25 discriminator 2
 907 0072 FB68     		ldr	r3, [r7, #12]
 908 0074 7A88     		ldrh	r2, [r7, #2]	@ movhi
 909 0076 5A86     		strh	r2, [r3, #50]	@ movhi
 615:./Libraries/STM32F4xx_HAL_Driver/Src/stm32f4xx_hal_usart.c **** 
 616:./Libraries/STM32F4xx_HAL_Driver/Src/stm32f4xx_hal_usart.c ****     /* Check the remain data to be received */
 617:./Libraries/STM32F4xx_HAL_Driver/Src/stm32f4xx_hal_usart.c ****     while(husart->TxXferCount > 0U)
 910              		.loc 1 617 10 discriminator 2
 911 0078 99E0     		b	.L44
 912              	.L54:
 618:./Libraries/STM32F4xx_HAL_Driver/Src/stm32f4xx_hal_usart.c ****     {
 619:./Libraries/STM32F4xx_HAL_Driver/Src/stm32f4xx_hal_usart.c ****       husart->TxXferCount--;
 913              		.loc 1 619 13
 914 007a FB68     		ldr	r3, [r7, #12]
 915 007c 5B8D     		ldrh	r3, [r3, #42]	@ movhi
 916 007e 9BB2     		uxth	r3, r3
 917              		.loc 1 619 26
 918 0080 013B     		subs	r3, r3, #1
 919 0082 9AB2     		uxth	r2, r3
 920 0084 FB68     		ldr	r3, [r7, #12]
 921 0086 5A85     		strh	r2, [r3, #42]	@ movhi
 620:./Libraries/STM32F4xx_HAL_Driver/Src/stm32f4xx_hal_usart.c ****       husart->RxXferCount--;
 922              		.loc 1 620 13
 923 0088 FB68     		ldr	r3, [r7, #12]
 924 008a 5B8E     		ldrh	r3, [r3, #50]	@ movhi
 925 008c 9BB2     		uxth	r3, r3
 926              		.loc 1 620 26
 927 008e 013B     		subs	r3, r3, #1
 928 0090 9AB2     		uxth	r2, r3
ARM GAS  /tmp/ccIGChKB.s 			page 28


 929 0092 FB68     		ldr	r3, [r7, #12]
 930 0094 5A86     		strh	r2, [r3, #50]	@ movhi
 621:./Libraries/STM32F4xx_HAL_Driver/Src/stm32f4xx_hal_usart.c ****       if(husart->Init.WordLength == USART_WORDLENGTH_9B)
 931              		.loc 1 621 22
 932 0096 FB68     		ldr	r3, [r7, #12]
 933 0098 9B68     		ldr	r3, [r3, #8]
 934              		.loc 1 621 9
 935 009a B3F5805F 		cmp	r3, #4096
 936 009e 4DD1     		bne	.L45
 622:./Libraries/STM32F4xx_HAL_Driver/Src/stm32f4xx_hal_usart.c ****       {
 623:./Libraries/STM32F4xx_HAL_Driver/Src/stm32f4xx_hal_usart.c ****         /* Wait for TC flag in order to write data in DR */
 624:./Libraries/STM32F4xx_HAL_Driver/Src/stm32f4xx_hal_usart.c ****         if(USART_WaitOnFlagUntilTimeout(husart, USART_FLAG_TXE, RESET, tickstart, Timeout) != HAL_O
 937              		.loc 1 624 12
 938 00a0 3B6A     		ldr	r3, [r7, #32]
 939 00a2 0093     		str	r3, [sp]
 940 00a4 7B69     		ldr	r3, [r7, #20]
 941 00a6 0022     		movs	r2, #0
 942 00a8 8021     		movs	r1, #128
 943 00aa F868     		ldr	r0, [r7, #12]
 944 00ac FFF7FEFF 		bl	USART_WaitOnFlagUntilTimeout
 945 00b0 0346     		mov	r3, r0
 946              		.loc 1 624 11
 947 00b2 002B     		cmp	r3, #0
 948 00b4 01D0     		beq	.L46
 625:./Libraries/STM32F4xx_HAL_Driver/Src/stm32f4xx_hal_usart.c ****         {
 626:./Libraries/STM32F4xx_HAL_Driver/Src/stm32f4xx_hal_usart.c ****           return HAL_TIMEOUT;
 949              		.loc 1 626 18
 950 00b6 0323     		movs	r3, #3
 951 00b8 8AE0     		b	.L42
 952              	.L46:
 627:./Libraries/STM32F4xx_HAL_Driver/Src/stm32f4xx_hal_usart.c ****         }
 628:./Libraries/STM32F4xx_HAL_Driver/Src/stm32f4xx_hal_usart.c ****         tmp = (uint16_t*) pTxData;
 953              		.loc 1 628 13
 954 00ba BB68     		ldr	r3, [r7, #8]
 955 00bc 3B61     		str	r3, [r7, #16]
 629:./Libraries/STM32F4xx_HAL_Driver/Src/stm32f4xx_hal_usart.c ****         husart->Instance->DR = (*tmp & (uint16_t)0x01FF);
 956              		.loc 1 629 33
 957 00be 3B69     		ldr	r3, [r7, #16]
 958 00c0 1B88     		ldrh	r3, [r3]
 959              		.loc 1 629 38
 960 00c2 1A46     		mov	r2, r3
 961              		.loc 1 629 15
 962 00c4 FB68     		ldr	r3, [r7, #12]
 963 00c6 1B68     		ldr	r3, [r3]
 964              		.loc 1 629 38
 965 00c8 C2F30802 		ubfx	r2, r2, #0, #9
 966              		.loc 1 629 30
 967 00cc 5A60     		str	r2, [r3, #4]
 630:./Libraries/STM32F4xx_HAL_Driver/Src/stm32f4xx_hal_usart.c ****         if(husart->Init.Parity == USART_PARITY_NONE)
 968              		.loc 1 630 24
 969 00ce FB68     		ldr	r3, [r7, #12]
 970 00d0 1B69     		ldr	r3, [r3, #16]
 971              		.loc 1 630 11
 972 00d2 002B     		cmp	r3, #0
 973 00d4 03D1     		bne	.L47
 631:./Libraries/STM32F4xx_HAL_Driver/Src/stm32f4xx_hal_usart.c ****         {
 632:./Libraries/STM32F4xx_HAL_Driver/Src/stm32f4xx_hal_usart.c ****           pTxData += 2U;
ARM GAS  /tmp/ccIGChKB.s 			page 29


 974              		.loc 1 632 19
 975 00d6 BB68     		ldr	r3, [r7, #8]
 976 00d8 0233     		adds	r3, r3, #2
 977 00da BB60     		str	r3, [r7, #8]
 978 00dc 02E0     		b	.L48
 979              	.L47:
 633:./Libraries/STM32F4xx_HAL_Driver/Src/stm32f4xx_hal_usart.c ****         }
 634:./Libraries/STM32F4xx_HAL_Driver/Src/stm32f4xx_hal_usart.c ****         else
 635:./Libraries/STM32F4xx_HAL_Driver/Src/stm32f4xx_hal_usart.c ****         {
 636:./Libraries/STM32F4xx_HAL_Driver/Src/stm32f4xx_hal_usart.c ****           pTxData += 1U;
 980              		.loc 1 636 19
 981 00de BB68     		ldr	r3, [r7, #8]
 982 00e0 0133     		adds	r3, r3, #1
 983 00e2 BB60     		str	r3, [r7, #8]
 984              	.L48:
 637:./Libraries/STM32F4xx_HAL_Driver/Src/stm32f4xx_hal_usart.c ****         }
 638:./Libraries/STM32F4xx_HAL_Driver/Src/stm32f4xx_hal_usart.c **** 
 639:./Libraries/STM32F4xx_HAL_Driver/Src/stm32f4xx_hal_usart.c ****         /* Wait for RXNE Flag */
 640:./Libraries/STM32F4xx_HAL_Driver/Src/stm32f4xx_hal_usart.c ****         if(USART_WaitOnFlagUntilTimeout(husart, USART_FLAG_RXNE, RESET, tickstart, Timeout) != HAL_
 985              		.loc 1 640 12
 986 00e4 3B6A     		ldr	r3, [r7, #32]
 987 00e6 0093     		str	r3, [sp]
 988 00e8 7B69     		ldr	r3, [r7, #20]
 989 00ea 0022     		movs	r2, #0
 990 00ec 2021     		movs	r1, #32
 991 00ee F868     		ldr	r0, [r7, #12]
 992 00f0 FFF7FEFF 		bl	USART_WaitOnFlagUntilTimeout
 993 00f4 0346     		mov	r3, r0
 994              		.loc 1 640 11
 995 00f6 002B     		cmp	r3, #0
 996 00f8 01D0     		beq	.L49
 641:./Libraries/STM32F4xx_HAL_Driver/Src/stm32f4xx_hal_usart.c ****         {
 642:./Libraries/STM32F4xx_HAL_Driver/Src/stm32f4xx_hal_usart.c ****           return HAL_TIMEOUT;
 997              		.loc 1 642 18
 998 00fa 0323     		movs	r3, #3
 999 00fc 68E0     		b	.L42
 1000              	.L49:
 643:./Libraries/STM32F4xx_HAL_Driver/Src/stm32f4xx_hal_usart.c ****         }
 644:./Libraries/STM32F4xx_HAL_Driver/Src/stm32f4xx_hal_usart.c ****         tmp = (uint16_t*) pRxData ;
 1001              		.loc 1 644 13
 1002 00fe 7B68     		ldr	r3, [r7, #4]
 1003 0100 3B61     		str	r3, [r7, #16]
 645:./Libraries/STM32F4xx_HAL_Driver/Src/stm32f4xx_hal_usart.c ****         if(husart->Init.Parity == USART_PARITY_NONE)
 1004              		.loc 1 645 24
 1005 0102 FB68     		ldr	r3, [r7, #12]
 1006 0104 1B69     		ldr	r3, [r3, #16]
 1007              		.loc 1 645 11
 1008 0106 002B     		cmp	r3, #0
 1009 0108 0CD1     		bne	.L50
 646:./Libraries/STM32F4xx_HAL_Driver/Src/stm32f4xx_hal_usart.c ****         {
 647:./Libraries/STM32F4xx_HAL_Driver/Src/stm32f4xx_hal_usart.c ****           *tmp = (uint16_t)(husart->Instance->DR & (uint16_t)0x01FF);
 1010              		.loc 1 647 35
 1011 010a FB68     		ldr	r3, [r7, #12]
 1012 010c 1B68     		ldr	r3, [r3]
 1013              		.loc 1 647 45
 1014 010e 5B68     		ldr	r3, [r3, #4]
 1015              		.loc 1 647 18
ARM GAS  /tmp/ccIGChKB.s 			page 30


 1016 0110 9BB2     		uxth	r3, r3
 1017 0112 C3F30803 		ubfx	r3, r3, #0, #9
 1018 0116 9AB2     		uxth	r2, r3
 1019              		.loc 1 647 16
 1020 0118 3B69     		ldr	r3, [r7, #16]
 1021 011a 1A80     		strh	r2, [r3]	@ movhi
 648:./Libraries/STM32F4xx_HAL_Driver/Src/stm32f4xx_hal_usart.c ****           pRxData += 2U;
 1022              		.loc 1 648 19
 1023 011c 7B68     		ldr	r3, [r7, #4]
 1024 011e 0233     		adds	r3, r3, #2
 1025 0120 7B60     		str	r3, [r7, #4]
 1026 0122 44E0     		b	.L44
 1027              	.L50:
 649:./Libraries/STM32F4xx_HAL_Driver/Src/stm32f4xx_hal_usart.c ****         }
 650:./Libraries/STM32F4xx_HAL_Driver/Src/stm32f4xx_hal_usart.c ****         else
 651:./Libraries/STM32F4xx_HAL_Driver/Src/stm32f4xx_hal_usart.c ****         {
 652:./Libraries/STM32F4xx_HAL_Driver/Src/stm32f4xx_hal_usart.c ****           *tmp = (uint16_t)(husart->Instance->DR & (uint16_t)0x00FF);
 1028              		.loc 1 652 35
 1029 0124 FB68     		ldr	r3, [r7, #12]
 1030 0126 1B68     		ldr	r3, [r3]
 1031              		.loc 1 652 45
 1032 0128 5B68     		ldr	r3, [r3, #4]
 1033              		.loc 1 652 18
 1034 012a 9BB2     		uxth	r3, r3
 1035 012c DBB2     		uxtb	r3, r3
 1036 012e 9AB2     		uxth	r2, r3
 1037              		.loc 1 652 16
 1038 0130 3B69     		ldr	r3, [r7, #16]
 1039 0132 1A80     		strh	r2, [r3]	@ movhi
 653:./Libraries/STM32F4xx_HAL_Driver/Src/stm32f4xx_hal_usart.c ****           pRxData += 1U;
 1040              		.loc 1 653 19
 1041 0134 7B68     		ldr	r3, [r7, #4]
 1042 0136 0133     		adds	r3, r3, #1
 1043 0138 7B60     		str	r3, [r7, #4]
 1044 013a 38E0     		b	.L44
 1045              	.L45:
 654:./Libraries/STM32F4xx_HAL_Driver/Src/stm32f4xx_hal_usart.c ****         }
 655:./Libraries/STM32F4xx_HAL_Driver/Src/stm32f4xx_hal_usart.c ****       }
 656:./Libraries/STM32F4xx_HAL_Driver/Src/stm32f4xx_hal_usart.c ****       else
 657:./Libraries/STM32F4xx_HAL_Driver/Src/stm32f4xx_hal_usart.c ****       {
 658:./Libraries/STM32F4xx_HAL_Driver/Src/stm32f4xx_hal_usart.c ****         /* Wait for TC flag in order to write data in DR */
 659:./Libraries/STM32F4xx_HAL_Driver/Src/stm32f4xx_hal_usart.c ****         if(USART_WaitOnFlagUntilTimeout(husart, USART_FLAG_TXE, RESET, tickstart, Timeout) != HAL_O
 1046              		.loc 1 659 12
 1047 013c 3B6A     		ldr	r3, [r7, #32]
 1048 013e 0093     		str	r3, [sp]
 1049 0140 7B69     		ldr	r3, [r7, #20]
 1050 0142 0022     		movs	r2, #0
 1051 0144 8021     		movs	r1, #128
 1052 0146 F868     		ldr	r0, [r7, #12]
 1053 0148 FFF7FEFF 		bl	USART_WaitOnFlagUntilTimeout
 1054 014c 0346     		mov	r3, r0
 1055              		.loc 1 659 11
 1056 014e 002B     		cmp	r3, #0
 1057 0150 01D0     		beq	.L51
 660:./Libraries/STM32F4xx_HAL_Driver/Src/stm32f4xx_hal_usart.c ****         {
 661:./Libraries/STM32F4xx_HAL_Driver/Src/stm32f4xx_hal_usart.c ****           return HAL_TIMEOUT;
 1058              		.loc 1 661 18
ARM GAS  /tmp/ccIGChKB.s 			page 31


 1059 0152 0323     		movs	r3, #3
 1060 0154 3CE0     		b	.L42
 1061              	.L51:
 662:./Libraries/STM32F4xx_HAL_Driver/Src/stm32f4xx_hal_usart.c ****         }
 663:./Libraries/STM32F4xx_HAL_Driver/Src/stm32f4xx_hal_usart.c ****         husart->Instance->DR = (*pTxData++ & (uint8_t)0x00FF);
 1062              		.loc 1 663 41
 1063 0156 BB68     		ldr	r3, [r7, #8]
 1064 0158 5A1C     		adds	r2, r3, #1
 1065 015a BA60     		str	r2, [r7, #8]
 1066              		.loc 1 663 33
 1067 015c 1A78     		ldrb	r2, [r3]	@ zero_extendqisi2
 1068              		.loc 1 663 15
 1069 015e FB68     		ldr	r3, [r7, #12]
 1070 0160 1B68     		ldr	r3, [r3]
 1071              		.loc 1 663 30
 1072 0162 5A60     		str	r2, [r3, #4]
 664:./Libraries/STM32F4xx_HAL_Driver/Src/stm32f4xx_hal_usart.c **** 
 665:./Libraries/STM32F4xx_HAL_Driver/Src/stm32f4xx_hal_usart.c ****         /* Wait for RXNE Flag */
 666:./Libraries/STM32F4xx_HAL_Driver/Src/stm32f4xx_hal_usart.c ****         if(USART_WaitOnFlagUntilTimeout(husart, USART_FLAG_RXNE, RESET, tickstart, Timeout) != HAL_
 1073              		.loc 1 666 12
 1074 0164 3B6A     		ldr	r3, [r7, #32]
 1075 0166 0093     		str	r3, [sp]
 1076 0168 7B69     		ldr	r3, [r7, #20]
 1077 016a 0022     		movs	r2, #0
 1078 016c 2021     		movs	r1, #32
 1079 016e F868     		ldr	r0, [r7, #12]
 1080 0170 FFF7FEFF 		bl	USART_WaitOnFlagUntilTimeout
 1081 0174 0346     		mov	r3, r0
 1082              		.loc 1 666 11
 1083 0176 002B     		cmp	r3, #0
 1084 0178 01D0     		beq	.L52
 667:./Libraries/STM32F4xx_HAL_Driver/Src/stm32f4xx_hal_usart.c ****         {
 668:./Libraries/STM32F4xx_HAL_Driver/Src/stm32f4xx_hal_usart.c ****           return HAL_TIMEOUT;
 1085              		.loc 1 668 18
 1086 017a 0323     		movs	r3, #3
 1087 017c 28E0     		b	.L42
 1088              	.L52:
 669:./Libraries/STM32F4xx_HAL_Driver/Src/stm32f4xx_hal_usart.c ****         }
 670:./Libraries/STM32F4xx_HAL_Driver/Src/stm32f4xx_hal_usart.c ****         if(husart->Init.Parity == USART_PARITY_NONE)
 1089              		.loc 1 670 24
 1090 017e FB68     		ldr	r3, [r7, #12]
 1091 0180 1B69     		ldr	r3, [r3, #16]
 1092              		.loc 1 670 11
 1093 0182 002B     		cmp	r3, #0
 1094 0184 08D1     		bne	.L53
 671:./Libraries/STM32F4xx_HAL_Driver/Src/stm32f4xx_hal_usart.c ****         {
 672:./Libraries/STM32F4xx_HAL_Driver/Src/stm32f4xx_hal_usart.c ****           /* Receive data */
 673:./Libraries/STM32F4xx_HAL_Driver/Src/stm32f4xx_hal_usart.c ****           *pRxData++ = (uint8_t)(husart->Instance->DR & (uint8_t)0x00FF);
 1095              		.loc 1 673 40
 1096 0186 FB68     		ldr	r3, [r7, #12]
 1097 0188 1B68     		ldr	r3, [r3]
 1098              		.loc 1 673 50
 1099 018a 5968     		ldr	r1, [r3, #4]
 1100              		.loc 1 673 19
 1101 018c 7B68     		ldr	r3, [r7, #4]
 1102 018e 5A1C     		adds	r2, r3, #1
 1103 0190 7A60     		str	r2, [r7, #4]
ARM GAS  /tmp/ccIGChKB.s 			page 32


 1104              		.loc 1 673 24
 1105 0192 CAB2     		uxtb	r2, r1
 1106              		.loc 1 673 22
 1107 0194 1A70     		strb	r2, [r3]
 1108 0196 0AE0     		b	.L44
 1109              	.L53:
 674:./Libraries/STM32F4xx_HAL_Driver/Src/stm32f4xx_hal_usart.c ****         }
 675:./Libraries/STM32F4xx_HAL_Driver/Src/stm32f4xx_hal_usart.c ****         else
 676:./Libraries/STM32F4xx_HAL_Driver/Src/stm32f4xx_hal_usart.c ****         {
 677:./Libraries/STM32F4xx_HAL_Driver/Src/stm32f4xx_hal_usart.c ****           /* Receive data */
 678:./Libraries/STM32F4xx_HAL_Driver/Src/stm32f4xx_hal_usart.c ****           *pRxData++ = (uint8_t)(husart->Instance->DR & (uint8_t)0x007F);
 1110              		.loc 1 678 40
 1111 0198 FB68     		ldr	r3, [r7, #12]
 1112 019a 1B68     		ldr	r3, [r3]
 1113              		.loc 1 678 50
 1114 019c 5B68     		ldr	r3, [r3, #4]
 1115              		.loc 1 678 24
 1116 019e DAB2     		uxtb	r2, r3
 1117              		.loc 1 678 19
 1118 01a0 7B68     		ldr	r3, [r7, #4]
 1119 01a2 591C     		adds	r1, r3, #1
 1120 01a4 7960     		str	r1, [r7, #4]
 1121              		.loc 1 678 24
 1122 01a6 02F07F02 		and	r2, r2, #127
 1123 01aa D2B2     		uxtb	r2, r2
 1124              		.loc 1 678 22
 1125 01ac 1A70     		strb	r2, [r3]
 1126              	.L44:
 617:./Libraries/STM32F4xx_HAL_Driver/Src/stm32f4xx_hal_usart.c ****     {
 1127              		.loc 1 617 17
 1128 01ae FB68     		ldr	r3, [r7, #12]
 1129 01b0 5B8D     		ldrh	r3, [r3, #42]	@ movhi
 1130 01b2 9BB2     		uxth	r3, r3
 617:./Libraries/STM32F4xx_HAL_Driver/Src/stm32f4xx_hal_usart.c ****     {
 1131              		.loc 1 617 10
 1132 01b4 002B     		cmp	r3, #0
 1133 01b6 7FF460AF 		bne	.L54
 679:./Libraries/STM32F4xx_HAL_Driver/Src/stm32f4xx_hal_usart.c ****         }
 680:./Libraries/STM32F4xx_HAL_Driver/Src/stm32f4xx_hal_usart.c ****       }
 681:./Libraries/STM32F4xx_HAL_Driver/Src/stm32f4xx_hal_usart.c ****     }
 682:./Libraries/STM32F4xx_HAL_Driver/Src/stm32f4xx_hal_usart.c **** 
 683:./Libraries/STM32F4xx_HAL_Driver/Src/stm32f4xx_hal_usart.c ****     husart->State = HAL_USART_STATE_READY;
 1134              		.loc 1 683 19
 1135 01ba FB68     		ldr	r3, [r7, #12]
 1136 01bc 0122     		movs	r2, #1
 1137 01be 83F83D20 		strb	r2, [r3, #61]
 684:./Libraries/STM32F4xx_HAL_Driver/Src/stm32f4xx_hal_usart.c **** 
 685:./Libraries/STM32F4xx_HAL_Driver/Src/stm32f4xx_hal_usart.c ****     /* Process Unlocked */
 686:./Libraries/STM32F4xx_HAL_Driver/Src/stm32f4xx_hal_usart.c ****     __HAL_UNLOCK(husart);
 1138              		.loc 1 686 5
 1139 01c2 FB68     		ldr	r3, [r7, #12]
 1140 01c4 0022     		movs	r2, #0
 1141 01c6 83F83C20 		strb	r2, [r3, #60]
 687:./Libraries/STM32F4xx_HAL_Driver/Src/stm32f4xx_hal_usart.c **** 
 688:./Libraries/STM32F4xx_HAL_Driver/Src/stm32f4xx_hal_usart.c ****     return HAL_OK;
 1142              		.loc 1 688 12
 1143 01ca 0023     		movs	r3, #0
ARM GAS  /tmp/ccIGChKB.s 			page 33


 1144 01cc 00E0     		b	.L42
 1145              	.L39:
 689:./Libraries/STM32F4xx_HAL_Driver/Src/stm32f4xx_hal_usart.c ****   }
 690:./Libraries/STM32F4xx_HAL_Driver/Src/stm32f4xx_hal_usart.c ****   else
 691:./Libraries/STM32F4xx_HAL_Driver/Src/stm32f4xx_hal_usart.c ****   {
 692:./Libraries/STM32F4xx_HAL_Driver/Src/stm32f4xx_hal_usart.c ****     return HAL_BUSY;
 1146              		.loc 1 692 12
 1147 01ce 0223     		movs	r3, #2
 1148              	.L42:
 693:./Libraries/STM32F4xx_HAL_Driver/Src/stm32f4xx_hal_usart.c ****   }
 694:./Libraries/STM32F4xx_HAL_Driver/Src/stm32f4xx_hal_usart.c **** }
 1149              		.loc 1 694 1
 1150 01d0 1846     		mov	r0, r3
 1151 01d2 1837     		adds	r7, r7, #24
 1152              	.LCFI35:
 1153              		.cfi_def_cfa_offset 8
 1154 01d4 BD46     		mov	sp, r7
 1155              	.LCFI36:
 1156              		.cfi_def_cfa_register 13
 1157              		@ sp needed
 1158 01d6 80BD     		pop	{r7, pc}
 1159              		.cfi_endproc
 1160              	.LFE132:
 1162              		.section	.text.HAL_USART_Transmit_IT,"ax",%progbits
 1163              		.align	1
 1164              		.global	HAL_USART_Transmit_IT
 1165              		.syntax unified
 1166              		.thumb
 1167              		.thumb_func
 1168              		.fpu fpv4-sp-d16
 1170              	HAL_USART_Transmit_IT:
 1171              	.LFB133:
 695:./Libraries/STM32F4xx_HAL_Driver/Src/stm32f4xx_hal_usart.c **** 
 696:./Libraries/STM32F4xx_HAL_Driver/Src/stm32f4xx_hal_usart.c **** /**
 697:./Libraries/STM32F4xx_HAL_Driver/Src/stm32f4xx_hal_usart.c ****   * @brief  Simplex Send an amount of data in non-blocking mode.
 698:./Libraries/STM32F4xx_HAL_Driver/Src/stm32f4xx_hal_usart.c ****   * @param  husart pointer to a USART_HandleTypeDef structure that contains
 699:./Libraries/STM32F4xx_HAL_Driver/Src/stm32f4xx_hal_usart.c ****   *                the configuration information for the specified USART module.
 700:./Libraries/STM32F4xx_HAL_Driver/Src/stm32f4xx_hal_usart.c ****   * @param  pTxData Pointer to data buffer
 701:./Libraries/STM32F4xx_HAL_Driver/Src/stm32f4xx_hal_usart.c ****   * @param  Size Amount of data to be sent
 702:./Libraries/STM32F4xx_HAL_Driver/Src/stm32f4xx_hal_usart.c ****   * @retval HAL status
 703:./Libraries/STM32F4xx_HAL_Driver/Src/stm32f4xx_hal_usart.c ****   * @note   The USART errors are not managed to avoid the overrun error.
 704:./Libraries/STM32F4xx_HAL_Driver/Src/stm32f4xx_hal_usart.c ****   */
 705:./Libraries/STM32F4xx_HAL_Driver/Src/stm32f4xx_hal_usart.c **** HAL_StatusTypeDef HAL_USART_Transmit_IT(USART_HandleTypeDef *husart, uint8_t *pTxData, uint16_t Siz
 706:./Libraries/STM32F4xx_HAL_Driver/Src/stm32f4xx_hal_usart.c **** {
 1172              		.loc 1 706 1
 1173              		.cfi_startproc
 1174              		@ args = 0, pretend = 0, frame = 16
 1175              		@ frame_needed = 1, uses_anonymous_args = 0
 1176              		@ link register save eliminated.
 1177 0000 80B4     		push	{r7}
 1178              	.LCFI37:
 1179              		.cfi_def_cfa_offset 4
 1180              		.cfi_offset 7, -4
 1181 0002 85B0     		sub	sp, sp, #20
 1182              	.LCFI38:
 1183              		.cfi_def_cfa_offset 24
 1184 0004 00AF     		add	r7, sp, #0
ARM GAS  /tmp/ccIGChKB.s 			page 34


 1185              	.LCFI39:
 1186              		.cfi_def_cfa_register 7
 1187 0006 F860     		str	r0, [r7, #12]
 1188 0008 B960     		str	r1, [r7, #8]
 1189 000a 1346     		mov	r3, r2
 1190 000c FB80     		strh	r3, [r7, #6]	@ movhi
 707:./Libraries/STM32F4xx_HAL_Driver/Src/stm32f4xx_hal_usart.c ****   if(husart->State == HAL_USART_STATE_READY)
 1191              		.loc 1 707 12
 1192 000e FB68     		ldr	r3, [r7, #12]
 1193 0010 93F83D30 		ldrb	r3, [r3, #61]
 1194 0014 DBB2     		uxtb	r3, r3
 1195              		.loc 1 707 5
 1196 0016 012B     		cmp	r3, #1
 1197 0018 30D1     		bne	.L56
 708:./Libraries/STM32F4xx_HAL_Driver/Src/stm32f4xx_hal_usart.c ****   {
 709:./Libraries/STM32F4xx_HAL_Driver/Src/stm32f4xx_hal_usart.c ****     if((pTxData == NULL) || (Size == 0))
 1198              		.loc 1 709 7
 1199 001a BB68     		ldr	r3, [r7, #8]
 1200 001c 002B     		cmp	r3, #0
 1201 001e 02D0     		beq	.L57
 1202              		.loc 1 709 26 discriminator 1
 1203 0020 FB88     		ldrh	r3, [r7, #6]
 1204 0022 002B     		cmp	r3, #0
 1205 0024 01D1     		bne	.L58
 1206              	.L57:
 710:./Libraries/STM32F4xx_HAL_Driver/Src/stm32f4xx_hal_usart.c ****     {
 711:./Libraries/STM32F4xx_HAL_Driver/Src/stm32f4xx_hal_usart.c ****       return HAL_ERROR;
 1207              		.loc 1 711 14
 1208 0026 0123     		movs	r3, #1
 1209 0028 29E0     		b	.L59
 1210              	.L58:
 712:./Libraries/STM32F4xx_HAL_Driver/Src/stm32f4xx_hal_usart.c ****     }
 713:./Libraries/STM32F4xx_HAL_Driver/Src/stm32f4xx_hal_usart.c **** 
 714:./Libraries/STM32F4xx_HAL_Driver/Src/stm32f4xx_hal_usart.c ****     /* Process Locked */
 715:./Libraries/STM32F4xx_HAL_Driver/Src/stm32f4xx_hal_usart.c ****     __HAL_LOCK(husart);
 1211              		.loc 1 715 5
 1212 002a FB68     		ldr	r3, [r7, #12]
 1213 002c 93F83C30 		ldrb	r3, [r3, #60]	@ zero_extendqisi2
 1214 0030 012B     		cmp	r3, #1
 1215 0032 01D1     		bne	.L60
 1216              		.loc 1 715 5 is_stmt 0 discriminator 1
 1217 0034 0223     		movs	r3, #2
 1218 0036 22E0     		b	.L59
 1219              	.L60:
 1220              		.loc 1 715 5 discriminator 2
 1221 0038 FB68     		ldr	r3, [r7, #12]
 1222 003a 0122     		movs	r2, #1
 1223 003c 83F83C20 		strb	r2, [r3, #60]
 716:./Libraries/STM32F4xx_HAL_Driver/Src/stm32f4xx_hal_usart.c **** 
 717:./Libraries/STM32F4xx_HAL_Driver/Src/stm32f4xx_hal_usart.c ****     husart->pTxBuffPtr = pTxData;
 1224              		.loc 1 717 24 is_stmt 1 discriminator 2
 1225 0040 FB68     		ldr	r3, [r7, #12]
 1226 0042 BA68     		ldr	r2, [r7, #8]
 1227 0044 5A62     		str	r2, [r3, #36]
 718:./Libraries/STM32F4xx_HAL_Driver/Src/stm32f4xx_hal_usart.c ****     husart->TxXferSize = Size;
 1228              		.loc 1 718 24 discriminator 2
 1229 0046 FB68     		ldr	r3, [r7, #12]
ARM GAS  /tmp/ccIGChKB.s 			page 35


 1230 0048 FA88     		ldrh	r2, [r7, #6]	@ movhi
 1231 004a 1A85     		strh	r2, [r3, #40]	@ movhi
 719:./Libraries/STM32F4xx_HAL_Driver/Src/stm32f4xx_hal_usart.c ****     husart->TxXferCount = Size;
 1232              		.loc 1 719 25 discriminator 2
 1233 004c FB68     		ldr	r3, [r7, #12]
 1234 004e FA88     		ldrh	r2, [r7, #6]	@ movhi
 1235 0050 5A85     		strh	r2, [r3, #42]	@ movhi
 720:./Libraries/STM32F4xx_HAL_Driver/Src/stm32f4xx_hal_usart.c **** 
 721:./Libraries/STM32F4xx_HAL_Driver/Src/stm32f4xx_hal_usart.c ****     husart->ErrorCode = HAL_USART_ERROR_NONE;
 1236              		.loc 1 721 23 discriminator 2
 1237 0052 FB68     		ldr	r3, [r7, #12]
 1238 0054 0022     		movs	r2, #0
 1239 0056 1A64     		str	r2, [r3, #64]
 722:./Libraries/STM32F4xx_HAL_Driver/Src/stm32f4xx_hal_usart.c ****     husart->State = HAL_USART_STATE_BUSY_TX;
 1240              		.loc 1 722 19 discriminator 2
 1241 0058 FB68     		ldr	r3, [r7, #12]
 1242 005a 1222     		movs	r2, #18
 1243 005c 83F83D20 		strb	r2, [r3, #61]
 723:./Libraries/STM32F4xx_HAL_Driver/Src/stm32f4xx_hal_usart.c **** 
 724:./Libraries/STM32F4xx_HAL_Driver/Src/stm32f4xx_hal_usart.c ****     /* The USART Error Interrupts: (Frame error, Noise error, Overrun error)
 725:./Libraries/STM32F4xx_HAL_Driver/Src/stm32f4xx_hal_usart.c ****        are not managed by the USART transmit process to avoid the overrun interrupt
 726:./Libraries/STM32F4xx_HAL_Driver/Src/stm32f4xx_hal_usart.c ****        when the USART mode is configured for transmit and receive "USART_MODE_TX_RX"
 727:./Libraries/STM32F4xx_HAL_Driver/Src/stm32f4xx_hal_usart.c ****        to benefit for the frame error and noise interrupts the USART mode should be
 728:./Libraries/STM32F4xx_HAL_Driver/Src/stm32f4xx_hal_usart.c ****        configured only for transmit "USART_MODE_TX"
 729:./Libraries/STM32F4xx_HAL_Driver/Src/stm32f4xx_hal_usart.c ****        The __HAL_USART_ENABLE_IT(husart, USART_IT_ERR) can be used to enable the Frame error,
 730:./Libraries/STM32F4xx_HAL_Driver/Src/stm32f4xx_hal_usart.c ****        Noise error interrupt */
 731:./Libraries/STM32F4xx_HAL_Driver/Src/stm32f4xx_hal_usart.c **** 
 732:./Libraries/STM32F4xx_HAL_Driver/Src/stm32f4xx_hal_usart.c ****     /* Process Unlocked */
 733:./Libraries/STM32F4xx_HAL_Driver/Src/stm32f4xx_hal_usart.c ****     __HAL_UNLOCK(husart);
 1244              		.loc 1 733 5 discriminator 2
 1245 0060 FB68     		ldr	r3, [r7, #12]
 1246 0062 0022     		movs	r2, #0
 1247 0064 83F83C20 		strb	r2, [r3, #60]
 734:./Libraries/STM32F4xx_HAL_Driver/Src/stm32f4xx_hal_usart.c **** 
 735:./Libraries/STM32F4xx_HAL_Driver/Src/stm32f4xx_hal_usart.c ****     /* Enable the USART Transmit Data Register Empty Interrupt */
 736:./Libraries/STM32F4xx_HAL_Driver/Src/stm32f4xx_hal_usart.c ****     SET_BIT(husart->Instance->CR1, USART_CR1_TXEIE);
 1248              		.loc 1 736 5 discriminator 2
 1249 0068 FB68     		ldr	r3, [r7, #12]
 1250 006a 1B68     		ldr	r3, [r3]
 1251 006c DA68     		ldr	r2, [r3, #12]
 1252 006e FB68     		ldr	r3, [r7, #12]
 1253 0070 1B68     		ldr	r3, [r3]
 1254 0072 42F08002 		orr	r2, r2, #128
 1255 0076 DA60     		str	r2, [r3, #12]
 737:./Libraries/STM32F4xx_HAL_Driver/Src/stm32f4xx_hal_usart.c **** 
 738:./Libraries/STM32F4xx_HAL_Driver/Src/stm32f4xx_hal_usart.c ****     return HAL_OK;
 1256              		.loc 1 738 12 discriminator 2
 1257 0078 0023     		movs	r3, #0
 1258 007a 00E0     		b	.L59
 1259              	.L56:
 739:./Libraries/STM32F4xx_HAL_Driver/Src/stm32f4xx_hal_usart.c ****   }
 740:./Libraries/STM32F4xx_HAL_Driver/Src/stm32f4xx_hal_usart.c ****   else
 741:./Libraries/STM32F4xx_HAL_Driver/Src/stm32f4xx_hal_usart.c ****   {
 742:./Libraries/STM32F4xx_HAL_Driver/Src/stm32f4xx_hal_usart.c ****     return HAL_BUSY;
 1260              		.loc 1 742 12
 1261 007c 0223     		movs	r3, #2
 1262              	.L59:
ARM GAS  /tmp/ccIGChKB.s 			page 36


 743:./Libraries/STM32F4xx_HAL_Driver/Src/stm32f4xx_hal_usart.c ****   }
 744:./Libraries/STM32F4xx_HAL_Driver/Src/stm32f4xx_hal_usart.c **** }
 1263              		.loc 1 744 1
 1264 007e 1846     		mov	r0, r3
 1265 0080 1437     		adds	r7, r7, #20
 1266              	.LCFI40:
 1267              		.cfi_def_cfa_offset 4
 1268 0082 BD46     		mov	sp, r7
 1269              	.LCFI41:
 1270              		.cfi_def_cfa_register 13
 1271              		@ sp needed
 1272 0084 5DF8047B 		ldr	r7, [sp], #4
 1273              	.LCFI42:
 1274              		.cfi_restore 7
 1275              		.cfi_def_cfa_offset 0
 1276 0088 7047     		bx	lr
 1277              		.cfi_endproc
 1278              	.LFE133:
 1280              		.section	.text.HAL_USART_Receive_IT,"ax",%progbits
 1281              		.align	1
 1282              		.global	HAL_USART_Receive_IT
 1283              		.syntax unified
 1284              		.thumb
 1285              		.thumb_func
 1286              		.fpu fpv4-sp-d16
 1288              	HAL_USART_Receive_IT:
 1289              	.LFB134:
 745:./Libraries/STM32F4xx_HAL_Driver/Src/stm32f4xx_hal_usart.c **** 
 746:./Libraries/STM32F4xx_HAL_Driver/Src/stm32f4xx_hal_usart.c **** /**
 747:./Libraries/STM32F4xx_HAL_Driver/Src/stm32f4xx_hal_usart.c ****   * @brief  Simplex Receive an amount of data in non-blocking mode.
 748:./Libraries/STM32F4xx_HAL_Driver/Src/stm32f4xx_hal_usart.c ****   * @param  husart pointer to a USART_HandleTypeDef structure that contains
 749:./Libraries/STM32F4xx_HAL_Driver/Src/stm32f4xx_hal_usart.c ****   *                the configuration information for the specified USART module.
 750:./Libraries/STM32F4xx_HAL_Driver/Src/stm32f4xx_hal_usart.c ****   * @param  pRxData Pointer to data buffer
 751:./Libraries/STM32F4xx_HAL_Driver/Src/stm32f4xx_hal_usart.c ****   * @param  Size Amount of data to be received
 752:./Libraries/STM32F4xx_HAL_Driver/Src/stm32f4xx_hal_usart.c ****   * @retval HAL status
 753:./Libraries/STM32F4xx_HAL_Driver/Src/stm32f4xx_hal_usart.c ****   */
 754:./Libraries/STM32F4xx_HAL_Driver/Src/stm32f4xx_hal_usart.c **** HAL_StatusTypeDef HAL_USART_Receive_IT(USART_HandleTypeDef *husart, uint8_t *pRxData, uint16_t Size
 755:./Libraries/STM32F4xx_HAL_Driver/Src/stm32f4xx_hal_usart.c **** {
 1290              		.loc 1 755 1
 1291              		.cfi_startproc
 1292              		@ args = 0, pretend = 0, frame = 16
 1293              		@ frame_needed = 1, uses_anonymous_args = 0
 1294              		@ link register save eliminated.
 1295 0000 80B4     		push	{r7}
 1296              	.LCFI43:
 1297              		.cfi_def_cfa_offset 4
 1298              		.cfi_offset 7, -4
 1299 0002 85B0     		sub	sp, sp, #20
 1300              	.LCFI44:
 1301              		.cfi_def_cfa_offset 24
 1302 0004 00AF     		add	r7, sp, #0
 1303              	.LCFI45:
 1304              		.cfi_def_cfa_register 7
 1305 0006 F860     		str	r0, [r7, #12]
 1306 0008 B960     		str	r1, [r7, #8]
 1307 000a 1346     		mov	r3, r2
 1308 000c FB80     		strh	r3, [r7, #6]	@ movhi
ARM GAS  /tmp/ccIGChKB.s 			page 37


 756:./Libraries/STM32F4xx_HAL_Driver/Src/stm32f4xx_hal_usart.c ****   if(husart->State == HAL_USART_STATE_READY)
 1309              		.loc 1 756 12
 1310 000e FB68     		ldr	r3, [r7, #12]
 1311 0010 93F83D30 		ldrb	r3, [r3, #61]
 1312 0014 DBB2     		uxtb	r3, r3
 1313              		.loc 1 756 5
 1314 0016 012B     		cmp	r3, #1
 1315 0018 3DD1     		bne	.L62
 757:./Libraries/STM32F4xx_HAL_Driver/Src/stm32f4xx_hal_usart.c ****   {
 758:./Libraries/STM32F4xx_HAL_Driver/Src/stm32f4xx_hal_usart.c ****     if((pRxData == NULL) || (Size == 0))
 1316              		.loc 1 758 7
 1317 001a BB68     		ldr	r3, [r7, #8]
 1318 001c 002B     		cmp	r3, #0
 1319 001e 02D0     		beq	.L63
 1320              		.loc 1 758 26 discriminator 1
 1321 0020 FB88     		ldrh	r3, [r7, #6]
 1322 0022 002B     		cmp	r3, #0
 1323 0024 01D1     		bne	.L64
 1324              	.L63:
 759:./Libraries/STM32F4xx_HAL_Driver/Src/stm32f4xx_hal_usart.c ****     {
 760:./Libraries/STM32F4xx_HAL_Driver/Src/stm32f4xx_hal_usart.c ****       return HAL_ERROR;
 1325              		.loc 1 760 14
 1326 0026 0123     		movs	r3, #1
 1327 0028 36E0     		b	.L65
 1328              	.L64:
 761:./Libraries/STM32F4xx_HAL_Driver/Src/stm32f4xx_hal_usart.c ****     }
 762:./Libraries/STM32F4xx_HAL_Driver/Src/stm32f4xx_hal_usart.c ****     /* Process Locked */
 763:./Libraries/STM32F4xx_HAL_Driver/Src/stm32f4xx_hal_usart.c ****     __HAL_LOCK(husart);
 1329              		.loc 1 763 5
 1330 002a FB68     		ldr	r3, [r7, #12]
 1331 002c 93F83C30 		ldrb	r3, [r3, #60]	@ zero_extendqisi2
 1332 0030 012B     		cmp	r3, #1
 1333 0032 01D1     		bne	.L66
 1334              		.loc 1 763 5 is_stmt 0 discriminator 1
 1335 0034 0223     		movs	r3, #2
 1336 0036 2FE0     		b	.L65
 1337              	.L66:
 1338              		.loc 1 763 5 discriminator 2
 1339 0038 FB68     		ldr	r3, [r7, #12]
 1340 003a 0122     		movs	r2, #1
 1341 003c 83F83C20 		strb	r2, [r3, #60]
 764:./Libraries/STM32F4xx_HAL_Driver/Src/stm32f4xx_hal_usart.c **** 
 765:./Libraries/STM32F4xx_HAL_Driver/Src/stm32f4xx_hal_usart.c ****     husart->pRxBuffPtr = pRxData;
 1342              		.loc 1 765 24 is_stmt 1 discriminator 2
 1343 0040 FB68     		ldr	r3, [r7, #12]
 1344 0042 BA68     		ldr	r2, [r7, #8]
 1345 0044 DA62     		str	r2, [r3, #44]
 766:./Libraries/STM32F4xx_HAL_Driver/Src/stm32f4xx_hal_usart.c ****     husart->RxXferSize = Size;
 1346              		.loc 1 766 24 discriminator 2
 1347 0046 FB68     		ldr	r3, [r7, #12]
 1348 0048 FA88     		ldrh	r2, [r7, #6]	@ movhi
 1349 004a 1A86     		strh	r2, [r3, #48]	@ movhi
 767:./Libraries/STM32F4xx_HAL_Driver/Src/stm32f4xx_hal_usart.c ****     husart->RxXferCount = Size;
 1350              		.loc 1 767 25 discriminator 2
 1351 004c FB68     		ldr	r3, [r7, #12]
 1352 004e FA88     		ldrh	r2, [r7, #6]	@ movhi
 1353 0050 5A86     		strh	r2, [r3, #50]	@ movhi
ARM GAS  /tmp/ccIGChKB.s 			page 38


 768:./Libraries/STM32F4xx_HAL_Driver/Src/stm32f4xx_hal_usart.c **** 
 769:./Libraries/STM32F4xx_HAL_Driver/Src/stm32f4xx_hal_usart.c ****     husart->ErrorCode = HAL_USART_ERROR_NONE;
 1354              		.loc 1 769 23 discriminator 2
 1355 0052 FB68     		ldr	r3, [r7, #12]
 1356 0054 0022     		movs	r2, #0
 1357 0056 1A64     		str	r2, [r3, #64]
 770:./Libraries/STM32F4xx_HAL_Driver/Src/stm32f4xx_hal_usart.c ****     husart->State = HAL_USART_STATE_BUSY_RX;
 1358              		.loc 1 770 19 discriminator 2
 1359 0058 FB68     		ldr	r3, [r7, #12]
 1360 005a 2222     		movs	r2, #34
 1361 005c 83F83D20 		strb	r2, [r3, #61]
 771:./Libraries/STM32F4xx_HAL_Driver/Src/stm32f4xx_hal_usart.c **** 
 772:./Libraries/STM32F4xx_HAL_Driver/Src/stm32f4xx_hal_usart.c ****     /* Process Unlocked */
 773:./Libraries/STM32F4xx_HAL_Driver/Src/stm32f4xx_hal_usart.c ****     __HAL_UNLOCK(husart);
 1362              		.loc 1 773 5 discriminator 2
 1363 0060 FB68     		ldr	r3, [r7, #12]
 1364 0062 0022     		movs	r2, #0
 1365 0064 83F83C20 		strb	r2, [r3, #60]
 774:./Libraries/STM32F4xx_HAL_Driver/Src/stm32f4xx_hal_usart.c **** 
 775:./Libraries/STM32F4xx_HAL_Driver/Src/stm32f4xx_hal_usart.c ****     /* Enable the USART Parity Error and Data Register not empty Interrupts */
 776:./Libraries/STM32F4xx_HAL_Driver/Src/stm32f4xx_hal_usart.c ****     SET_BIT(husart->Instance->CR1, USART_CR1_PEIE | USART_CR1_RXNEIE);
 1366              		.loc 1 776 5 discriminator 2
 1367 0068 FB68     		ldr	r3, [r7, #12]
 1368 006a 1B68     		ldr	r3, [r3]
 1369 006c DA68     		ldr	r2, [r3, #12]
 1370 006e FB68     		ldr	r3, [r7, #12]
 1371 0070 1B68     		ldr	r3, [r3]
 1372 0072 42F49072 		orr	r2, r2, #288
 1373 0076 DA60     		str	r2, [r3, #12]
 777:./Libraries/STM32F4xx_HAL_Driver/Src/stm32f4xx_hal_usart.c **** 
 778:./Libraries/STM32F4xx_HAL_Driver/Src/stm32f4xx_hal_usart.c ****     /* Enable the USART Error Interrupt: (Frame error, noise error, overrun error) */
 779:./Libraries/STM32F4xx_HAL_Driver/Src/stm32f4xx_hal_usart.c ****     SET_BIT(husart->Instance->CR3, USART_CR3_EIE);
 1374              		.loc 1 779 5 discriminator 2
 1375 0078 FB68     		ldr	r3, [r7, #12]
 1376 007a 1B68     		ldr	r3, [r3]
 1377 007c 5A69     		ldr	r2, [r3, #20]
 1378 007e FB68     		ldr	r3, [r7, #12]
 1379 0080 1B68     		ldr	r3, [r3]
 1380 0082 42F00102 		orr	r2, r2, #1
 1381 0086 5A61     		str	r2, [r3, #20]
 780:./Libraries/STM32F4xx_HAL_Driver/Src/stm32f4xx_hal_usart.c **** 
 781:./Libraries/STM32F4xx_HAL_Driver/Src/stm32f4xx_hal_usart.c ****     /* Send dummy byte in order to generate the clock for the slave to send data */
 782:./Libraries/STM32F4xx_HAL_Driver/Src/stm32f4xx_hal_usart.c ****     husart->Instance->DR = (DUMMY_DATA & (uint16_t)0x01FF);
 1382              		.loc 1 782 11 discriminator 2
 1383 0088 FB68     		ldr	r3, [r7, #12]
 1384 008a 1B68     		ldr	r3, [r3]
 1385              		.loc 1 782 26 discriminator 2
 1386 008c 40F2FF12 		movw	r2, #511
 1387 0090 5A60     		str	r2, [r3, #4]
 783:./Libraries/STM32F4xx_HAL_Driver/Src/stm32f4xx_hal_usart.c **** 
 784:./Libraries/STM32F4xx_HAL_Driver/Src/stm32f4xx_hal_usart.c ****     return HAL_OK;
 1388              		.loc 1 784 12 discriminator 2
 1389 0092 0023     		movs	r3, #0
 1390 0094 00E0     		b	.L65
 1391              	.L62:
 785:./Libraries/STM32F4xx_HAL_Driver/Src/stm32f4xx_hal_usart.c ****   }
 786:./Libraries/STM32F4xx_HAL_Driver/Src/stm32f4xx_hal_usart.c ****   else
ARM GAS  /tmp/ccIGChKB.s 			page 39


 787:./Libraries/STM32F4xx_HAL_Driver/Src/stm32f4xx_hal_usart.c ****   {
 788:./Libraries/STM32F4xx_HAL_Driver/Src/stm32f4xx_hal_usart.c ****     return HAL_BUSY;
 1392              		.loc 1 788 12
 1393 0096 0223     		movs	r3, #2
 1394              	.L65:
 789:./Libraries/STM32F4xx_HAL_Driver/Src/stm32f4xx_hal_usart.c ****   }
 790:./Libraries/STM32F4xx_HAL_Driver/Src/stm32f4xx_hal_usart.c **** }
 1395              		.loc 1 790 1
 1396 0098 1846     		mov	r0, r3
 1397 009a 1437     		adds	r7, r7, #20
 1398              	.LCFI46:
 1399              		.cfi_def_cfa_offset 4
 1400 009c BD46     		mov	sp, r7
 1401              	.LCFI47:
 1402              		.cfi_def_cfa_register 13
 1403              		@ sp needed
 1404 009e 5DF8047B 		ldr	r7, [sp], #4
 1405              	.LCFI48:
 1406              		.cfi_restore 7
 1407              		.cfi_def_cfa_offset 0
 1408 00a2 7047     		bx	lr
 1409              		.cfi_endproc
 1410              	.LFE134:
 1412              		.section	.text.HAL_USART_TransmitReceive_IT,"ax",%progbits
 1413              		.align	1
 1414              		.global	HAL_USART_TransmitReceive_IT
 1415              		.syntax unified
 1416              		.thumb
 1417              		.thumb_func
 1418              		.fpu fpv4-sp-d16
 1420              	HAL_USART_TransmitReceive_IT:
 1421              	.LFB135:
 791:./Libraries/STM32F4xx_HAL_Driver/Src/stm32f4xx_hal_usart.c **** 
 792:./Libraries/STM32F4xx_HAL_Driver/Src/stm32f4xx_hal_usart.c **** /**
 793:./Libraries/STM32F4xx_HAL_Driver/Src/stm32f4xx_hal_usart.c ****   * @brief  Full-Duplex Send receive an amount of data in full-duplex mode (non-blocking).
 794:./Libraries/STM32F4xx_HAL_Driver/Src/stm32f4xx_hal_usart.c ****   * @param  husart pointer to a USART_HandleTypeDef structure that contains
 795:./Libraries/STM32F4xx_HAL_Driver/Src/stm32f4xx_hal_usart.c ****   *                the configuration information for the specified USART module.
 796:./Libraries/STM32F4xx_HAL_Driver/Src/stm32f4xx_hal_usart.c ****   * @param  pTxData Pointer to data transmitted buffer
 797:./Libraries/STM32F4xx_HAL_Driver/Src/stm32f4xx_hal_usart.c ****   * @param  pRxData Pointer to data received buffer
 798:./Libraries/STM32F4xx_HAL_Driver/Src/stm32f4xx_hal_usart.c ****   * @param  Size Amount of data to be received
 799:./Libraries/STM32F4xx_HAL_Driver/Src/stm32f4xx_hal_usart.c ****   * @retval HAL status
 800:./Libraries/STM32F4xx_HAL_Driver/Src/stm32f4xx_hal_usart.c ****   */
 801:./Libraries/STM32F4xx_HAL_Driver/Src/stm32f4xx_hal_usart.c **** HAL_StatusTypeDef HAL_USART_TransmitReceive_IT(USART_HandleTypeDef *husart, uint8_t *pTxData, uint8
 802:./Libraries/STM32F4xx_HAL_Driver/Src/stm32f4xx_hal_usart.c **** {
 1422              		.loc 1 802 1
 1423              		.cfi_startproc
 1424              		@ args = 0, pretend = 0, frame = 16
 1425              		@ frame_needed = 1, uses_anonymous_args = 0
 1426              		@ link register save eliminated.
 1427 0000 80B4     		push	{r7}
 1428              	.LCFI49:
 1429              		.cfi_def_cfa_offset 4
 1430              		.cfi_offset 7, -4
 1431 0002 85B0     		sub	sp, sp, #20
 1432              	.LCFI50:
 1433              		.cfi_def_cfa_offset 24
 1434 0004 00AF     		add	r7, sp, #0
ARM GAS  /tmp/ccIGChKB.s 			page 40


 1435              	.LCFI51:
 1436              		.cfi_def_cfa_register 7
 1437 0006 F860     		str	r0, [r7, #12]
 1438 0008 B960     		str	r1, [r7, #8]
 1439 000a 7A60     		str	r2, [r7, #4]
 1440 000c 7B80     		strh	r3, [r7, #2]	@ movhi
 803:./Libraries/STM32F4xx_HAL_Driver/Src/stm32f4xx_hal_usart.c ****   if(husart->State == HAL_USART_STATE_READY)
 1441              		.loc 1 803 12
 1442 000e FB68     		ldr	r3, [r7, #12]
 1443 0010 93F83D30 		ldrb	r3, [r3, #61]
 1444 0014 DBB2     		uxtb	r3, r3
 1445              		.loc 1 803 5
 1446 0016 012B     		cmp	r3, #1
 1447 0018 54D1     		bne	.L68
 804:./Libraries/STM32F4xx_HAL_Driver/Src/stm32f4xx_hal_usart.c ****   {
 805:./Libraries/STM32F4xx_HAL_Driver/Src/stm32f4xx_hal_usart.c ****     if((pTxData == NULL) || (pRxData == NULL) || (Size == 0))
 1448              		.loc 1 805 7
 1449 001a BB68     		ldr	r3, [r7, #8]
 1450 001c 002B     		cmp	r3, #0
 1451 001e 05D0     		beq	.L69
 1452              		.loc 1 805 26 discriminator 1
 1453 0020 7B68     		ldr	r3, [r7, #4]
 1454 0022 002B     		cmp	r3, #0
 1455 0024 02D0     		beq	.L69
 1456              		.loc 1 805 47 discriminator 2
 1457 0026 7B88     		ldrh	r3, [r7, #2]
 1458 0028 002B     		cmp	r3, #0
 1459 002a 01D1     		bne	.L70
 1460              	.L69:
 806:./Libraries/STM32F4xx_HAL_Driver/Src/stm32f4xx_hal_usart.c ****     {
 807:./Libraries/STM32F4xx_HAL_Driver/Src/stm32f4xx_hal_usart.c ****       return HAL_ERROR;
 1461              		.loc 1 807 14
 1462 002c 0123     		movs	r3, #1
 1463 002e 4AE0     		b	.L71
 1464              	.L70:
 808:./Libraries/STM32F4xx_HAL_Driver/Src/stm32f4xx_hal_usart.c ****     }
 809:./Libraries/STM32F4xx_HAL_Driver/Src/stm32f4xx_hal_usart.c ****     /* Process Locked */
 810:./Libraries/STM32F4xx_HAL_Driver/Src/stm32f4xx_hal_usart.c ****     __HAL_LOCK(husart);
 1465              		.loc 1 810 5
 1466 0030 FB68     		ldr	r3, [r7, #12]
 1467 0032 93F83C30 		ldrb	r3, [r3, #60]	@ zero_extendqisi2
 1468 0036 012B     		cmp	r3, #1
 1469 0038 01D1     		bne	.L72
 1470              		.loc 1 810 5 is_stmt 0 discriminator 1
 1471 003a 0223     		movs	r3, #2
 1472 003c 43E0     		b	.L71
 1473              	.L72:
 1474              		.loc 1 810 5 discriminator 2
 1475 003e FB68     		ldr	r3, [r7, #12]
 1476 0040 0122     		movs	r2, #1
 1477 0042 83F83C20 		strb	r2, [r3, #60]
 811:./Libraries/STM32F4xx_HAL_Driver/Src/stm32f4xx_hal_usart.c **** 
 812:./Libraries/STM32F4xx_HAL_Driver/Src/stm32f4xx_hal_usart.c ****     husart->pRxBuffPtr = pRxData;
 1478              		.loc 1 812 24 is_stmt 1 discriminator 2
 1479 0046 FB68     		ldr	r3, [r7, #12]
 1480 0048 7A68     		ldr	r2, [r7, #4]
 1481 004a DA62     		str	r2, [r3, #44]
ARM GAS  /tmp/ccIGChKB.s 			page 41


 813:./Libraries/STM32F4xx_HAL_Driver/Src/stm32f4xx_hal_usart.c ****     husart->RxXferSize = Size;
 1482              		.loc 1 813 24 discriminator 2
 1483 004c FB68     		ldr	r3, [r7, #12]
 1484 004e 7A88     		ldrh	r2, [r7, #2]	@ movhi
 1485 0050 1A86     		strh	r2, [r3, #48]	@ movhi
 814:./Libraries/STM32F4xx_HAL_Driver/Src/stm32f4xx_hal_usart.c ****     husart->RxXferCount = Size;
 1486              		.loc 1 814 25 discriminator 2
 1487 0052 FB68     		ldr	r3, [r7, #12]
 1488 0054 7A88     		ldrh	r2, [r7, #2]	@ movhi
 1489 0056 5A86     		strh	r2, [r3, #50]	@ movhi
 815:./Libraries/STM32F4xx_HAL_Driver/Src/stm32f4xx_hal_usart.c ****     husart->pTxBuffPtr = pTxData;
 1490              		.loc 1 815 24 discriminator 2
 1491 0058 FB68     		ldr	r3, [r7, #12]
 1492 005a BA68     		ldr	r2, [r7, #8]
 1493 005c 5A62     		str	r2, [r3, #36]
 816:./Libraries/STM32F4xx_HAL_Driver/Src/stm32f4xx_hal_usart.c ****     husart->TxXferSize = Size;
 1494              		.loc 1 816 24 discriminator 2
 1495 005e FB68     		ldr	r3, [r7, #12]
 1496 0060 7A88     		ldrh	r2, [r7, #2]	@ movhi
 1497 0062 1A85     		strh	r2, [r3, #40]	@ movhi
 817:./Libraries/STM32F4xx_HAL_Driver/Src/stm32f4xx_hal_usart.c ****     husart->TxXferCount = Size;
 1498              		.loc 1 817 25 discriminator 2
 1499 0064 FB68     		ldr	r3, [r7, #12]
 1500 0066 7A88     		ldrh	r2, [r7, #2]	@ movhi
 1501 0068 5A85     		strh	r2, [r3, #42]	@ movhi
 818:./Libraries/STM32F4xx_HAL_Driver/Src/stm32f4xx_hal_usart.c **** 
 819:./Libraries/STM32F4xx_HAL_Driver/Src/stm32f4xx_hal_usart.c ****     husart->ErrorCode = HAL_USART_ERROR_NONE;
 1502              		.loc 1 819 23 discriminator 2
 1503 006a FB68     		ldr	r3, [r7, #12]
 1504 006c 0022     		movs	r2, #0
 1505 006e 1A64     		str	r2, [r3, #64]
 820:./Libraries/STM32F4xx_HAL_Driver/Src/stm32f4xx_hal_usart.c ****     husart->State = HAL_USART_STATE_BUSY_TX_RX;
 1506              		.loc 1 820 19 discriminator 2
 1507 0070 FB68     		ldr	r3, [r7, #12]
 1508 0072 3222     		movs	r2, #50
 1509 0074 83F83D20 		strb	r2, [r3, #61]
 821:./Libraries/STM32F4xx_HAL_Driver/Src/stm32f4xx_hal_usart.c **** 
 822:./Libraries/STM32F4xx_HAL_Driver/Src/stm32f4xx_hal_usart.c ****     /* Process Unlocked */
 823:./Libraries/STM32F4xx_HAL_Driver/Src/stm32f4xx_hal_usart.c ****     __HAL_UNLOCK(husart);
 1510              		.loc 1 823 5 discriminator 2
 1511 0078 FB68     		ldr	r3, [r7, #12]
 1512 007a 0022     		movs	r2, #0
 1513 007c 83F83C20 		strb	r2, [r3, #60]
 824:./Libraries/STM32F4xx_HAL_Driver/Src/stm32f4xx_hal_usart.c **** 
 825:./Libraries/STM32F4xx_HAL_Driver/Src/stm32f4xx_hal_usart.c ****     /* Enable the USART Data Register not empty Interrupt */
 826:./Libraries/STM32F4xx_HAL_Driver/Src/stm32f4xx_hal_usart.c ****     SET_BIT(husart->Instance->CR1, USART_CR1_RXNEIE);
 1514              		.loc 1 826 5 discriminator 2
 1515 0080 FB68     		ldr	r3, [r7, #12]
 1516 0082 1B68     		ldr	r3, [r3]
 1517 0084 DA68     		ldr	r2, [r3, #12]
 1518 0086 FB68     		ldr	r3, [r7, #12]
 1519 0088 1B68     		ldr	r3, [r3]
 1520 008a 42F02002 		orr	r2, r2, #32
 1521 008e DA60     		str	r2, [r3, #12]
 827:./Libraries/STM32F4xx_HAL_Driver/Src/stm32f4xx_hal_usart.c **** 
 828:./Libraries/STM32F4xx_HAL_Driver/Src/stm32f4xx_hal_usart.c ****     /* Enable the USART Parity Error Interrupt */
 829:./Libraries/STM32F4xx_HAL_Driver/Src/stm32f4xx_hal_usart.c ****     SET_BIT(husart->Instance->CR1, USART_CR1_PEIE);
ARM GAS  /tmp/ccIGChKB.s 			page 42


 1522              		.loc 1 829 5 discriminator 2
 1523 0090 FB68     		ldr	r3, [r7, #12]
 1524 0092 1B68     		ldr	r3, [r3]
 1525 0094 DA68     		ldr	r2, [r3, #12]
 1526 0096 FB68     		ldr	r3, [r7, #12]
 1527 0098 1B68     		ldr	r3, [r3]
 1528 009a 42F48072 		orr	r2, r2, #256
 1529 009e DA60     		str	r2, [r3, #12]
 830:./Libraries/STM32F4xx_HAL_Driver/Src/stm32f4xx_hal_usart.c **** 
 831:./Libraries/STM32F4xx_HAL_Driver/Src/stm32f4xx_hal_usart.c ****     /* Enable the USART Error Interrupt: (Frame error, noise error, overrun error) */
 832:./Libraries/STM32F4xx_HAL_Driver/Src/stm32f4xx_hal_usart.c ****     SET_BIT(husart->Instance->CR3, USART_CR3_EIE);
 1530              		.loc 1 832 5 discriminator 2
 1531 00a0 FB68     		ldr	r3, [r7, #12]
 1532 00a2 1B68     		ldr	r3, [r3]
 1533 00a4 5A69     		ldr	r2, [r3, #20]
 1534 00a6 FB68     		ldr	r3, [r7, #12]
 1535 00a8 1B68     		ldr	r3, [r3]
 1536 00aa 42F00102 		orr	r2, r2, #1
 1537 00ae 5A61     		str	r2, [r3, #20]
 833:./Libraries/STM32F4xx_HAL_Driver/Src/stm32f4xx_hal_usart.c **** 
 834:./Libraries/STM32F4xx_HAL_Driver/Src/stm32f4xx_hal_usart.c ****     /* Enable the USART Transmit Data Register Empty Interrupt */
 835:./Libraries/STM32F4xx_HAL_Driver/Src/stm32f4xx_hal_usart.c ****     SET_BIT(husart->Instance->CR1, USART_CR1_TXEIE);
 1538              		.loc 1 835 5 discriminator 2
 1539 00b0 FB68     		ldr	r3, [r7, #12]
 1540 00b2 1B68     		ldr	r3, [r3]
 1541 00b4 DA68     		ldr	r2, [r3, #12]
 1542 00b6 FB68     		ldr	r3, [r7, #12]
 1543 00b8 1B68     		ldr	r3, [r3]
 1544 00ba 42F08002 		orr	r2, r2, #128
 1545 00be DA60     		str	r2, [r3, #12]
 836:./Libraries/STM32F4xx_HAL_Driver/Src/stm32f4xx_hal_usart.c **** 
 837:./Libraries/STM32F4xx_HAL_Driver/Src/stm32f4xx_hal_usart.c ****     return HAL_OK;
 1546              		.loc 1 837 12 discriminator 2
 1547 00c0 0023     		movs	r3, #0
 1548 00c2 00E0     		b	.L71
 1549              	.L68:
 838:./Libraries/STM32F4xx_HAL_Driver/Src/stm32f4xx_hal_usart.c ****   }
 839:./Libraries/STM32F4xx_HAL_Driver/Src/stm32f4xx_hal_usart.c ****   else
 840:./Libraries/STM32F4xx_HAL_Driver/Src/stm32f4xx_hal_usart.c ****   {
 841:./Libraries/STM32F4xx_HAL_Driver/Src/stm32f4xx_hal_usart.c ****     return HAL_BUSY;
 1550              		.loc 1 841 12
 1551 00c4 0223     		movs	r3, #2
 1552              	.L71:
 842:./Libraries/STM32F4xx_HAL_Driver/Src/stm32f4xx_hal_usart.c ****   }
 843:./Libraries/STM32F4xx_HAL_Driver/Src/stm32f4xx_hal_usart.c **** }
 1553              		.loc 1 843 1
 1554 00c6 1846     		mov	r0, r3
 1555 00c8 1437     		adds	r7, r7, #20
 1556              	.LCFI52:
 1557              		.cfi_def_cfa_offset 4
 1558 00ca BD46     		mov	sp, r7
 1559              	.LCFI53:
 1560              		.cfi_def_cfa_register 13
 1561              		@ sp needed
 1562 00cc 5DF8047B 		ldr	r7, [sp], #4
 1563              	.LCFI54:
 1564              		.cfi_restore 7
ARM GAS  /tmp/ccIGChKB.s 			page 43


 1565              		.cfi_def_cfa_offset 0
 1566 00d0 7047     		bx	lr
 1567              		.cfi_endproc
 1568              	.LFE135:
 1570              		.section	.text.HAL_USART_Transmit_DMA,"ax",%progbits
 1571              		.align	1
 1572              		.global	HAL_USART_Transmit_DMA
 1573              		.syntax unified
 1574              		.thumb
 1575              		.thumb_func
 1576              		.fpu fpv4-sp-d16
 1578              	HAL_USART_Transmit_DMA:
 1579              	.LFB136:
 844:./Libraries/STM32F4xx_HAL_Driver/Src/stm32f4xx_hal_usart.c **** 
 845:./Libraries/STM32F4xx_HAL_Driver/Src/stm32f4xx_hal_usart.c **** /**
 846:./Libraries/STM32F4xx_HAL_Driver/Src/stm32f4xx_hal_usart.c ****   * @brief  Simplex Send an amount of data in non-blocking mode.
 847:./Libraries/STM32F4xx_HAL_Driver/Src/stm32f4xx_hal_usart.c ****   * @param  husart pointer to a USART_HandleTypeDef structure that contains
 848:./Libraries/STM32F4xx_HAL_Driver/Src/stm32f4xx_hal_usart.c ****   *                the configuration information for the specified USART module.
 849:./Libraries/STM32F4xx_HAL_Driver/Src/stm32f4xx_hal_usart.c ****   * @param  pTxData Pointer to data buffer
 850:./Libraries/STM32F4xx_HAL_Driver/Src/stm32f4xx_hal_usart.c ****   * @param  Size Amount of data to be sent
 851:./Libraries/STM32F4xx_HAL_Driver/Src/stm32f4xx_hal_usart.c ****   * @retval HAL status
 852:./Libraries/STM32F4xx_HAL_Driver/Src/stm32f4xx_hal_usart.c ****   */
 853:./Libraries/STM32F4xx_HAL_Driver/Src/stm32f4xx_hal_usart.c **** HAL_StatusTypeDef HAL_USART_Transmit_DMA(USART_HandleTypeDef *husart, uint8_t *pTxData, uint16_t Si
 854:./Libraries/STM32F4xx_HAL_Driver/Src/stm32f4xx_hal_usart.c **** {
 1580              		.loc 1 854 1
 1581              		.cfi_startproc
 1582              		@ args = 0, pretend = 0, frame = 24
 1583              		@ frame_needed = 1, uses_anonymous_args = 0
 1584 0000 80B5     		push	{r7, lr}
 1585              	.LCFI55:
 1586              		.cfi_def_cfa_offset 8
 1587              		.cfi_offset 7, -8
 1588              		.cfi_offset 14, -4
 1589 0002 86B0     		sub	sp, sp, #24
 1590              	.LCFI56:
 1591              		.cfi_def_cfa_offset 32
 1592 0004 00AF     		add	r7, sp, #0
 1593              	.LCFI57:
 1594              		.cfi_def_cfa_register 7
 1595 0006 F860     		str	r0, [r7, #12]
 1596 0008 B960     		str	r1, [r7, #8]
 1597 000a 1346     		mov	r3, r2
 1598 000c FB80     		strh	r3, [r7, #6]	@ movhi
 855:./Libraries/STM32F4xx_HAL_Driver/Src/stm32f4xx_hal_usart.c ****   uint32_t *tmp;
 856:./Libraries/STM32F4xx_HAL_Driver/Src/stm32f4xx_hal_usart.c **** 
 857:./Libraries/STM32F4xx_HAL_Driver/Src/stm32f4xx_hal_usart.c ****   if(husart->State == HAL_USART_STATE_READY)
 1599              		.loc 1 857 12
 1600 000e FB68     		ldr	r3, [r7, #12]
 1601 0010 93F83D30 		ldrb	r3, [r3, #61]
 1602 0014 DBB2     		uxtb	r3, r3
 1603              		.loc 1 857 5
 1604 0016 012B     		cmp	r3, #1
 1605 0018 53D1     		bne	.L74
 858:./Libraries/STM32F4xx_HAL_Driver/Src/stm32f4xx_hal_usart.c ****   {
 859:./Libraries/STM32F4xx_HAL_Driver/Src/stm32f4xx_hal_usart.c ****     if((pTxData == NULL) || (Size == 0))
 1606              		.loc 1 859 17
 1607 001a BB68     		ldr	r3, [r7, #8]
ARM GAS  /tmp/ccIGChKB.s 			page 44


 1608              		.loc 1 859 7
 1609 001c 002B     		cmp	r3, #0
 1610 001e 02D0     		beq	.L75
 1611              		.loc 1 859 26 discriminator 1
 1612 0020 FB88     		ldrh	r3, [r7, #6]
 1613 0022 002B     		cmp	r3, #0
 1614 0024 01D1     		bne	.L76
 1615              	.L75:
 860:./Libraries/STM32F4xx_HAL_Driver/Src/stm32f4xx_hal_usart.c ****     {
 861:./Libraries/STM32F4xx_HAL_Driver/Src/stm32f4xx_hal_usart.c ****       return HAL_ERROR;
 1616              		.loc 1 861 14
 1617 0026 0123     		movs	r3, #1
 1618 0028 4CE0     		b	.L77
 1619              	.L76:
 862:./Libraries/STM32F4xx_HAL_Driver/Src/stm32f4xx_hal_usart.c ****     }
 863:./Libraries/STM32F4xx_HAL_Driver/Src/stm32f4xx_hal_usart.c ****     /* Process Locked */
 864:./Libraries/STM32F4xx_HAL_Driver/Src/stm32f4xx_hal_usart.c ****     __HAL_LOCK(husart);
 1620              		.loc 1 864 5
 1621 002a FB68     		ldr	r3, [r7, #12]
 1622 002c 93F83C30 		ldrb	r3, [r3, #60]	@ zero_extendqisi2
 1623 0030 012B     		cmp	r3, #1
 1624 0032 01D1     		bne	.L78
 1625              		.loc 1 864 5 is_stmt 0 discriminator 1
 1626 0034 0223     		movs	r3, #2
 1627 0036 45E0     		b	.L77
 1628              	.L78:
 1629              		.loc 1 864 5 discriminator 2
 1630 0038 FB68     		ldr	r3, [r7, #12]
 1631 003a 0122     		movs	r2, #1
 1632 003c 83F83C20 		strb	r2, [r3, #60]
 865:./Libraries/STM32F4xx_HAL_Driver/Src/stm32f4xx_hal_usart.c **** 
 866:./Libraries/STM32F4xx_HAL_Driver/Src/stm32f4xx_hal_usart.c ****     husart->pTxBuffPtr = pTxData;
 1633              		.loc 1 866 24 is_stmt 1 discriminator 2
 1634 0040 BA68     		ldr	r2, [r7, #8]
 1635 0042 FB68     		ldr	r3, [r7, #12]
 1636 0044 5A62     		str	r2, [r3, #36]
 867:./Libraries/STM32F4xx_HAL_Driver/Src/stm32f4xx_hal_usart.c ****     husart->TxXferSize = Size;
 1637              		.loc 1 867 24 discriminator 2
 1638 0046 FB68     		ldr	r3, [r7, #12]
 1639 0048 FA88     		ldrh	r2, [r7, #6]	@ movhi
 1640 004a 1A85     		strh	r2, [r3, #40]	@ movhi
 868:./Libraries/STM32F4xx_HAL_Driver/Src/stm32f4xx_hal_usart.c ****     husart->TxXferCount = Size;
 1641              		.loc 1 868 25 discriminator 2
 1642 004c FB68     		ldr	r3, [r7, #12]
 1643 004e FA88     		ldrh	r2, [r7, #6]	@ movhi
 1644 0050 5A85     		strh	r2, [r3, #42]	@ movhi
 869:./Libraries/STM32F4xx_HAL_Driver/Src/stm32f4xx_hal_usart.c **** 
 870:./Libraries/STM32F4xx_HAL_Driver/Src/stm32f4xx_hal_usart.c ****     husart->ErrorCode = HAL_USART_ERROR_NONE;
 1645              		.loc 1 870 23 discriminator 2
 1646 0052 FB68     		ldr	r3, [r7, #12]
 1647 0054 0022     		movs	r2, #0
 1648 0056 1A64     		str	r2, [r3, #64]
 871:./Libraries/STM32F4xx_HAL_Driver/Src/stm32f4xx_hal_usart.c ****     husart->State = HAL_USART_STATE_BUSY_TX;
 1649              		.loc 1 871 19 discriminator 2
 1650 0058 FB68     		ldr	r3, [r7, #12]
 1651 005a 1222     		movs	r2, #18
 1652 005c 83F83D20 		strb	r2, [r3, #61]
ARM GAS  /tmp/ccIGChKB.s 			page 45


 872:./Libraries/STM32F4xx_HAL_Driver/Src/stm32f4xx_hal_usart.c **** 
 873:./Libraries/STM32F4xx_HAL_Driver/Src/stm32f4xx_hal_usart.c ****     /* Set the USART DMA transfer complete callback */
 874:./Libraries/STM32F4xx_HAL_Driver/Src/stm32f4xx_hal_usart.c ****     husart->hdmatx->XferCpltCallback = USART_DMATransmitCplt;
 1653              		.loc 1 874 11 discriminator 2
 1654 0060 FB68     		ldr	r3, [r7, #12]
 1655 0062 5B6B     		ldr	r3, [r3, #52]
 1656              		.loc 1 874 38 discriminator 2
 1657 0064 194A     		ldr	r2, .L79
 1658 0066 DA63     		str	r2, [r3, #60]
 875:./Libraries/STM32F4xx_HAL_Driver/Src/stm32f4xx_hal_usart.c **** 
 876:./Libraries/STM32F4xx_HAL_Driver/Src/stm32f4xx_hal_usart.c ****     /* Set the USART DMA Half transfer complete callback */
 877:./Libraries/STM32F4xx_HAL_Driver/Src/stm32f4xx_hal_usart.c ****     husart->hdmatx->XferHalfCpltCallback = USART_DMATxHalfCplt;
 1659              		.loc 1 877 11 discriminator 2
 1660 0068 FB68     		ldr	r3, [r7, #12]
 1661 006a 5B6B     		ldr	r3, [r3, #52]
 1662              		.loc 1 877 42 discriminator 2
 1663 006c 184A     		ldr	r2, .L79+4
 1664 006e 1A64     		str	r2, [r3, #64]
 878:./Libraries/STM32F4xx_HAL_Driver/Src/stm32f4xx_hal_usart.c **** 
 879:./Libraries/STM32F4xx_HAL_Driver/Src/stm32f4xx_hal_usart.c ****     /* Set the DMA error callback */
 880:./Libraries/STM32F4xx_HAL_Driver/Src/stm32f4xx_hal_usart.c ****     husart->hdmatx->XferErrorCallback = USART_DMAError;
 1665              		.loc 1 880 11 discriminator 2
 1666 0070 FB68     		ldr	r3, [r7, #12]
 1667 0072 5B6B     		ldr	r3, [r3, #52]
 1668              		.loc 1 880 39 discriminator 2
 1669 0074 174A     		ldr	r2, .L79+8
 1670 0076 DA64     		str	r2, [r3, #76]
 881:./Libraries/STM32F4xx_HAL_Driver/Src/stm32f4xx_hal_usart.c **** 
 882:./Libraries/STM32F4xx_HAL_Driver/Src/stm32f4xx_hal_usart.c ****     /* Set the DMA abort callback */
 883:./Libraries/STM32F4xx_HAL_Driver/Src/stm32f4xx_hal_usart.c ****     husart->hdmatx->XferAbortCallback = NULL;
 1671              		.loc 1 883 11 discriminator 2
 1672 0078 FB68     		ldr	r3, [r7, #12]
 1673 007a 5B6B     		ldr	r3, [r3, #52]
 1674              		.loc 1 883 39 discriminator 2
 1675 007c 0022     		movs	r2, #0
 1676 007e 1A65     		str	r2, [r3, #80]
 884:./Libraries/STM32F4xx_HAL_Driver/Src/stm32f4xx_hal_usart.c **** 
 885:./Libraries/STM32F4xx_HAL_Driver/Src/stm32f4xx_hal_usart.c ****     /* Enable the USART transmit DMA Stream */
 886:./Libraries/STM32F4xx_HAL_Driver/Src/stm32f4xx_hal_usart.c ****     tmp = (uint32_t*)&pTxData;
 1677              		.loc 1 886 9 discriminator 2
 1678 0080 07F10803 		add	r3, r7, #8
 1679 0084 7B61     		str	r3, [r7, #20]
 887:./Libraries/STM32F4xx_HAL_Driver/Src/stm32f4xx_hal_usart.c ****     HAL_DMA_Start_IT(husart->hdmatx, *(uint32_t*)tmp, (uint32_t)&husart->Instance->DR, Size);
 1680              		.loc 1 887 5 discriminator 2
 1681 0086 FB68     		ldr	r3, [r7, #12]
 1682 0088 586B     		ldr	r0, [r3, #52]
 1683 008a 7B69     		ldr	r3, [r7, #20]
 1684 008c 1968     		ldr	r1, [r3]
 1685              		.loc 1 887 72 discriminator 2
 1686 008e FB68     		ldr	r3, [r7, #12]
 1687 0090 1B68     		ldr	r3, [r3]
 1688              		.loc 1 887 65 discriminator 2
 1689 0092 0433     		adds	r3, r3, #4
 1690              		.loc 1 887 5 discriminator 2
 1691 0094 1A46     		mov	r2, r3
 1692 0096 FB88     		ldrh	r3, [r7, #6]
 1693 0098 FFF7FEFF 		bl	HAL_DMA_Start_IT
ARM GAS  /tmp/ccIGChKB.s 			page 46


 888:./Libraries/STM32F4xx_HAL_Driver/Src/stm32f4xx_hal_usart.c **** 
 889:./Libraries/STM32F4xx_HAL_Driver/Src/stm32f4xx_hal_usart.c ****     /* Clear the TC flag in the SR register by writing 0 to it */
 890:./Libraries/STM32F4xx_HAL_Driver/Src/stm32f4xx_hal_usart.c ****     __HAL_USART_CLEAR_FLAG(husart, USART_FLAG_TC);
 1694              		.loc 1 890 5 discriminator 2
 1695 009c FB68     		ldr	r3, [r7, #12]
 1696 009e 1B68     		ldr	r3, [r3]
 1697 00a0 6FF04002 		mvn	r2, #64
 1698 00a4 1A60     		str	r2, [r3]
 891:./Libraries/STM32F4xx_HAL_Driver/Src/stm32f4xx_hal_usart.c **** 
 892:./Libraries/STM32F4xx_HAL_Driver/Src/stm32f4xx_hal_usart.c ****     /* Process Unlocked */
 893:./Libraries/STM32F4xx_HAL_Driver/Src/stm32f4xx_hal_usart.c ****     __HAL_UNLOCK(husart);
 1699              		.loc 1 893 5 discriminator 2
 1700 00a6 FB68     		ldr	r3, [r7, #12]
 1701 00a8 0022     		movs	r2, #0
 1702 00aa 83F83C20 		strb	r2, [r3, #60]
 894:./Libraries/STM32F4xx_HAL_Driver/Src/stm32f4xx_hal_usart.c **** 
 895:./Libraries/STM32F4xx_HAL_Driver/Src/stm32f4xx_hal_usart.c ****     /* Enable the DMA transfer for transmit request by setting the DMAT bit
 896:./Libraries/STM32F4xx_HAL_Driver/Src/stm32f4xx_hal_usart.c ****     in the USART CR3 register */
 897:./Libraries/STM32F4xx_HAL_Driver/Src/stm32f4xx_hal_usart.c ****     SET_BIT(husart->Instance->CR3, USART_CR3_DMAT);
 1703              		.loc 1 897 5 discriminator 2
 1704 00ae FB68     		ldr	r3, [r7, #12]
 1705 00b0 1B68     		ldr	r3, [r3]
 1706 00b2 5A69     		ldr	r2, [r3, #20]
 1707 00b4 FB68     		ldr	r3, [r7, #12]
 1708 00b6 1B68     		ldr	r3, [r3]
 1709 00b8 42F08002 		orr	r2, r2, #128
 1710 00bc 5A61     		str	r2, [r3, #20]
 898:./Libraries/STM32F4xx_HAL_Driver/Src/stm32f4xx_hal_usart.c **** 
 899:./Libraries/STM32F4xx_HAL_Driver/Src/stm32f4xx_hal_usart.c ****     return HAL_OK;
 1711              		.loc 1 899 12 discriminator 2
 1712 00be 0023     		movs	r3, #0
 1713 00c0 00E0     		b	.L77
 1714              	.L74:
 900:./Libraries/STM32F4xx_HAL_Driver/Src/stm32f4xx_hal_usart.c ****   }
 901:./Libraries/STM32F4xx_HAL_Driver/Src/stm32f4xx_hal_usart.c ****   else
 902:./Libraries/STM32F4xx_HAL_Driver/Src/stm32f4xx_hal_usart.c ****   {
 903:./Libraries/STM32F4xx_HAL_Driver/Src/stm32f4xx_hal_usart.c ****     return HAL_BUSY;
 1715              		.loc 1 903 12
 1716 00c2 0223     		movs	r3, #2
 1717              	.L77:
 904:./Libraries/STM32F4xx_HAL_Driver/Src/stm32f4xx_hal_usart.c ****   }
 905:./Libraries/STM32F4xx_HAL_Driver/Src/stm32f4xx_hal_usart.c **** }
 1718              		.loc 1 905 1
 1719 00c4 1846     		mov	r0, r3
 1720 00c6 1837     		adds	r7, r7, #24
 1721              	.LCFI58:
 1722              		.cfi_def_cfa_offset 8
 1723 00c8 BD46     		mov	sp, r7
 1724              	.LCFI59:
 1725              		.cfi_def_cfa_register 13
 1726              		@ sp needed
 1727 00ca 80BD     		pop	{r7, pc}
 1728              	.L80:
 1729              		.align	2
 1730              	.L79:
 1731 00cc 00000000 		.word	USART_DMATransmitCplt
 1732 00d0 00000000 		.word	USART_DMATxHalfCplt
ARM GAS  /tmp/ccIGChKB.s 			page 47


 1733 00d4 00000000 		.word	USART_DMAError
 1734              		.cfi_endproc
 1735              	.LFE136:
 1737              		.section	.text.HAL_USART_Receive_DMA,"ax",%progbits
 1738              		.align	1
 1739              		.global	HAL_USART_Receive_DMA
 1740              		.syntax unified
 1741              		.thumb
 1742              		.thumb_func
 1743              		.fpu fpv4-sp-d16
 1745              	HAL_USART_Receive_DMA:
 1746              	.LFB137:
 906:./Libraries/STM32F4xx_HAL_Driver/Src/stm32f4xx_hal_usart.c **** 
 907:./Libraries/STM32F4xx_HAL_Driver/Src/stm32f4xx_hal_usart.c **** /**
 908:./Libraries/STM32F4xx_HAL_Driver/Src/stm32f4xx_hal_usart.c ****   * @brief  Full-Duplex Receive an amount of data in non-blocking mode.
 909:./Libraries/STM32F4xx_HAL_Driver/Src/stm32f4xx_hal_usart.c ****   * @param  husart pointer to a USART_HandleTypeDef structure that contains
 910:./Libraries/STM32F4xx_HAL_Driver/Src/stm32f4xx_hal_usart.c ****   *                the configuration information for the specified USART module.
 911:./Libraries/STM32F4xx_HAL_Driver/Src/stm32f4xx_hal_usart.c ****   * @param  pRxData Pointer to data buffer
 912:./Libraries/STM32F4xx_HAL_Driver/Src/stm32f4xx_hal_usart.c ****   * @param  Size Amount of data to be received
 913:./Libraries/STM32F4xx_HAL_Driver/Src/stm32f4xx_hal_usart.c ****   * @retval HAL status
 914:./Libraries/STM32F4xx_HAL_Driver/Src/stm32f4xx_hal_usart.c ****   * @note   The USART DMA transmit stream must be configured in order to generate the clock for the
 915:./Libraries/STM32F4xx_HAL_Driver/Src/stm32f4xx_hal_usart.c ****   * @note   When the USART parity is enabled (PCE = 1) the data received contain the parity bit.
 916:./Libraries/STM32F4xx_HAL_Driver/Src/stm32f4xx_hal_usart.c ****   */
 917:./Libraries/STM32F4xx_HAL_Driver/Src/stm32f4xx_hal_usart.c **** HAL_StatusTypeDef HAL_USART_Receive_DMA(USART_HandleTypeDef *husart, uint8_t *pRxData, uint16_t Siz
 918:./Libraries/STM32F4xx_HAL_Driver/Src/stm32f4xx_hal_usart.c **** {
 1747              		.loc 1 918 1
 1748              		.cfi_startproc
 1749              		@ args = 0, pretend = 0, frame = 24
 1750              		@ frame_needed = 1, uses_anonymous_args = 0
 1751 0000 80B5     		push	{r7, lr}
 1752              	.LCFI60:
 1753              		.cfi_def_cfa_offset 8
 1754              		.cfi_offset 7, -8
 1755              		.cfi_offset 14, -4
 1756 0002 86B0     		sub	sp, sp, #24
 1757              	.LCFI61:
 1758              		.cfi_def_cfa_offset 32
 1759 0004 00AF     		add	r7, sp, #0
 1760              	.LCFI62:
 1761              		.cfi_def_cfa_register 7
 1762 0006 F860     		str	r0, [r7, #12]
 1763 0008 B960     		str	r1, [r7, #8]
 1764 000a 1346     		mov	r3, r2
 1765 000c FB80     		strh	r3, [r7, #6]	@ movhi
 919:./Libraries/STM32F4xx_HAL_Driver/Src/stm32f4xx_hal_usart.c ****   uint32_t *tmp;
 920:./Libraries/STM32F4xx_HAL_Driver/Src/stm32f4xx_hal_usart.c **** 
 921:./Libraries/STM32F4xx_HAL_Driver/Src/stm32f4xx_hal_usart.c ****   if(husart->State == HAL_USART_STATE_READY)
 1766              		.loc 1 921 12
 1767 000e FB68     		ldr	r3, [r7, #12]
 1768 0010 93F83D30 		ldrb	r3, [r3, #61]
 1769 0014 DBB2     		uxtb	r3, r3
 1770              		.loc 1 921 5
 1771 0016 012B     		cmp	r3, #1
 1772 0018 40F09080 		bne	.L82
 922:./Libraries/STM32F4xx_HAL_Driver/Src/stm32f4xx_hal_usart.c ****   {
 923:./Libraries/STM32F4xx_HAL_Driver/Src/stm32f4xx_hal_usart.c ****     if((pRxData == NULL) || (Size == 0))
 1773              		.loc 1 923 17
ARM GAS  /tmp/ccIGChKB.s 			page 48


 1774 001c BB68     		ldr	r3, [r7, #8]
 1775              		.loc 1 923 7
 1776 001e 002B     		cmp	r3, #0
 1777 0020 02D0     		beq	.L83
 1778              		.loc 1 923 26 discriminator 1
 1779 0022 FB88     		ldrh	r3, [r7, #6]
 1780 0024 002B     		cmp	r3, #0
 1781 0026 01D1     		bne	.L84
 1782              	.L83:
 924:./Libraries/STM32F4xx_HAL_Driver/Src/stm32f4xx_hal_usart.c ****     {
 925:./Libraries/STM32F4xx_HAL_Driver/Src/stm32f4xx_hal_usart.c ****       return HAL_ERROR;
 1783              		.loc 1 925 14
 1784 0028 0123     		movs	r3, #1
 1785 002a 88E0     		b	.L85
 1786              	.L84:
 926:./Libraries/STM32F4xx_HAL_Driver/Src/stm32f4xx_hal_usart.c ****     }
 927:./Libraries/STM32F4xx_HAL_Driver/Src/stm32f4xx_hal_usart.c **** 
 928:./Libraries/STM32F4xx_HAL_Driver/Src/stm32f4xx_hal_usart.c ****     /* Process Locked */
 929:./Libraries/STM32F4xx_HAL_Driver/Src/stm32f4xx_hal_usart.c ****     __HAL_LOCK(husart);
 1787              		.loc 1 929 5
 1788 002c FB68     		ldr	r3, [r7, #12]
 1789 002e 93F83C30 		ldrb	r3, [r3, #60]	@ zero_extendqisi2
 1790 0032 012B     		cmp	r3, #1
 1791 0034 01D1     		bne	.L86
 1792              		.loc 1 929 5 is_stmt 0 discriminator 1
 1793 0036 0223     		movs	r3, #2
 1794 0038 81E0     		b	.L85
 1795              	.L86:
 1796              		.loc 1 929 5 discriminator 2
 1797 003a FB68     		ldr	r3, [r7, #12]
 1798 003c 0122     		movs	r2, #1
 1799 003e 83F83C20 		strb	r2, [r3, #60]
 930:./Libraries/STM32F4xx_HAL_Driver/Src/stm32f4xx_hal_usart.c **** 
 931:./Libraries/STM32F4xx_HAL_Driver/Src/stm32f4xx_hal_usart.c ****     husart->pRxBuffPtr = pRxData;
 1800              		.loc 1 931 24 is_stmt 1 discriminator 2
 1801 0042 BA68     		ldr	r2, [r7, #8]
 1802 0044 FB68     		ldr	r3, [r7, #12]
 1803 0046 DA62     		str	r2, [r3, #44]
 932:./Libraries/STM32F4xx_HAL_Driver/Src/stm32f4xx_hal_usart.c ****     husart->RxXferSize = Size;
 1804              		.loc 1 932 24 discriminator 2
 1805 0048 FB68     		ldr	r3, [r7, #12]
 1806 004a FA88     		ldrh	r2, [r7, #6]	@ movhi
 1807 004c 1A86     		strh	r2, [r3, #48]	@ movhi
 933:./Libraries/STM32F4xx_HAL_Driver/Src/stm32f4xx_hal_usart.c ****     husart->pTxBuffPtr = pRxData;
 1808              		.loc 1 933 24 discriminator 2
 1809 004e BA68     		ldr	r2, [r7, #8]
 1810 0050 FB68     		ldr	r3, [r7, #12]
 1811 0052 5A62     		str	r2, [r3, #36]
 934:./Libraries/STM32F4xx_HAL_Driver/Src/stm32f4xx_hal_usart.c ****     husart->TxXferSize = Size;
 1812              		.loc 1 934 24 discriminator 2
 1813 0054 FB68     		ldr	r3, [r7, #12]
 1814 0056 FA88     		ldrh	r2, [r7, #6]	@ movhi
 1815 0058 1A85     		strh	r2, [r3, #40]	@ movhi
 935:./Libraries/STM32F4xx_HAL_Driver/Src/stm32f4xx_hal_usart.c **** 
 936:./Libraries/STM32F4xx_HAL_Driver/Src/stm32f4xx_hal_usart.c ****     husart->ErrorCode = HAL_USART_ERROR_NONE;
 1816              		.loc 1 936 23 discriminator 2
 1817 005a FB68     		ldr	r3, [r7, #12]
ARM GAS  /tmp/ccIGChKB.s 			page 49


 1818 005c 0022     		movs	r2, #0
 1819 005e 1A64     		str	r2, [r3, #64]
 937:./Libraries/STM32F4xx_HAL_Driver/Src/stm32f4xx_hal_usart.c ****     husart->State = HAL_USART_STATE_BUSY_RX;
 1820              		.loc 1 937 19 discriminator 2
 1821 0060 FB68     		ldr	r3, [r7, #12]
 1822 0062 2222     		movs	r2, #34
 1823 0064 83F83D20 		strb	r2, [r3, #61]
 938:./Libraries/STM32F4xx_HAL_Driver/Src/stm32f4xx_hal_usart.c **** 
 939:./Libraries/STM32F4xx_HAL_Driver/Src/stm32f4xx_hal_usart.c ****     /* Set the USART DMA Rx transfer complete callback */
 940:./Libraries/STM32F4xx_HAL_Driver/Src/stm32f4xx_hal_usart.c ****     husart->hdmarx->XferCpltCallback = USART_DMAReceiveCplt;
 1824              		.loc 1 940 11 discriminator 2
 1825 0068 FB68     		ldr	r3, [r7, #12]
 1826 006a 9B6B     		ldr	r3, [r3, #56]
 1827              		.loc 1 940 38 discriminator 2
 1828 006c 364A     		ldr	r2, .L87
 1829 006e DA63     		str	r2, [r3, #60]
 941:./Libraries/STM32F4xx_HAL_Driver/Src/stm32f4xx_hal_usart.c **** 
 942:./Libraries/STM32F4xx_HAL_Driver/Src/stm32f4xx_hal_usart.c ****     /* Set the USART DMA Half transfer complete callback */
 943:./Libraries/STM32F4xx_HAL_Driver/Src/stm32f4xx_hal_usart.c ****     husart->hdmarx->XferHalfCpltCallback = USART_DMARxHalfCplt;
 1830              		.loc 1 943 11 discriminator 2
 1831 0070 FB68     		ldr	r3, [r7, #12]
 1832 0072 9B6B     		ldr	r3, [r3, #56]
 1833              		.loc 1 943 42 discriminator 2
 1834 0074 354A     		ldr	r2, .L87+4
 1835 0076 1A64     		str	r2, [r3, #64]
 944:./Libraries/STM32F4xx_HAL_Driver/Src/stm32f4xx_hal_usart.c **** 
 945:./Libraries/STM32F4xx_HAL_Driver/Src/stm32f4xx_hal_usart.c ****     /* Set the USART DMA Rx transfer error callback */
 946:./Libraries/STM32F4xx_HAL_Driver/Src/stm32f4xx_hal_usart.c ****     husart->hdmarx->XferErrorCallback = USART_DMAError;
 1836              		.loc 1 946 11 discriminator 2
 1837 0078 FB68     		ldr	r3, [r7, #12]
 1838 007a 9B6B     		ldr	r3, [r3, #56]
 1839              		.loc 1 946 39 discriminator 2
 1840 007c 344A     		ldr	r2, .L87+8
 1841 007e DA64     		str	r2, [r3, #76]
 947:./Libraries/STM32F4xx_HAL_Driver/Src/stm32f4xx_hal_usart.c **** 
 948:./Libraries/STM32F4xx_HAL_Driver/Src/stm32f4xx_hal_usart.c ****     /* Set the DMA abort callback */
 949:./Libraries/STM32F4xx_HAL_Driver/Src/stm32f4xx_hal_usart.c ****     husart->hdmarx->XferAbortCallback = NULL;
 1842              		.loc 1 949 11 discriminator 2
 1843 0080 FB68     		ldr	r3, [r7, #12]
 1844 0082 9B6B     		ldr	r3, [r3, #56]
 1845              		.loc 1 949 39 discriminator 2
 1846 0084 0022     		movs	r2, #0
 1847 0086 1A65     		str	r2, [r3, #80]
 950:./Libraries/STM32F4xx_HAL_Driver/Src/stm32f4xx_hal_usart.c **** 
 951:./Libraries/STM32F4xx_HAL_Driver/Src/stm32f4xx_hal_usart.c ****     /* Set the USART Tx DMA transfer complete callback as NULL because the communication closing
 952:./Libraries/STM32F4xx_HAL_Driver/Src/stm32f4xx_hal_usart.c ****     is performed in DMA reception complete callback  */
 953:./Libraries/STM32F4xx_HAL_Driver/Src/stm32f4xx_hal_usart.c ****     husart->hdmatx->XferHalfCpltCallback = NULL;
 1848              		.loc 1 953 11 discriminator 2
 1849 0088 FB68     		ldr	r3, [r7, #12]
 1850 008a 5B6B     		ldr	r3, [r3, #52]
 1851              		.loc 1 953 42 discriminator 2
 1852 008c 0022     		movs	r2, #0
 1853 008e 1A64     		str	r2, [r3, #64]
 954:./Libraries/STM32F4xx_HAL_Driver/Src/stm32f4xx_hal_usart.c ****     husart->hdmatx->XferCpltCallback = NULL;
 1854              		.loc 1 954 11 discriminator 2
 1855 0090 FB68     		ldr	r3, [r7, #12]
 1856 0092 5B6B     		ldr	r3, [r3, #52]
ARM GAS  /tmp/ccIGChKB.s 			page 50


 1857              		.loc 1 954 38 discriminator 2
 1858 0094 0022     		movs	r2, #0
 1859 0096 DA63     		str	r2, [r3, #60]
 955:./Libraries/STM32F4xx_HAL_Driver/Src/stm32f4xx_hal_usart.c **** 
 956:./Libraries/STM32F4xx_HAL_Driver/Src/stm32f4xx_hal_usart.c ****     /* Set the DMA error callback */
 957:./Libraries/STM32F4xx_HAL_Driver/Src/stm32f4xx_hal_usart.c ****     husart->hdmatx->XferErrorCallback = USART_DMAError;
 1860              		.loc 1 957 11 discriminator 2
 1861 0098 FB68     		ldr	r3, [r7, #12]
 1862 009a 5B6B     		ldr	r3, [r3, #52]
 1863              		.loc 1 957 39 discriminator 2
 1864 009c 2C4A     		ldr	r2, .L87+8
 1865 009e DA64     		str	r2, [r3, #76]
 958:./Libraries/STM32F4xx_HAL_Driver/Src/stm32f4xx_hal_usart.c **** 
 959:./Libraries/STM32F4xx_HAL_Driver/Src/stm32f4xx_hal_usart.c ****     /* Set the DMA AbortCpltCallback */
 960:./Libraries/STM32F4xx_HAL_Driver/Src/stm32f4xx_hal_usart.c ****     husart->hdmatx->XferAbortCallback = NULL;
 1866              		.loc 1 960 11 discriminator 2
 1867 00a0 FB68     		ldr	r3, [r7, #12]
 1868 00a2 5B6B     		ldr	r3, [r3, #52]
 1869              		.loc 1 960 39 discriminator 2
 1870 00a4 0022     		movs	r2, #0
 1871 00a6 1A65     		str	r2, [r3, #80]
 961:./Libraries/STM32F4xx_HAL_Driver/Src/stm32f4xx_hal_usart.c **** 
 962:./Libraries/STM32F4xx_HAL_Driver/Src/stm32f4xx_hal_usart.c ****     /* Enable the USART receive DMA Stream */
 963:./Libraries/STM32F4xx_HAL_Driver/Src/stm32f4xx_hal_usart.c ****     tmp = (uint32_t*)&pRxData;
 1872              		.loc 1 963 9 discriminator 2
 1873 00a8 07F10803 		add	r3, r7, #8
 1874 00ac 7B61     		str	r3, [r7, #20]
 964:./Libraries/STM32F4xx_HAL_Driver/Src/stm32f4xx_hal_usart.c ****     HAL_DMA_Start_IT(husart->hdmarx, (uint32_t)&husart->Instance->DR, *(uint32_t*)tmp, Size);
 1875              		.loc 1 964 5 discriminator 2
 1876 00ae FB68     		ldr	r3, [r7, #12]
 1877 00b0 986B     		ldr	r0, [r3, #56]
 1878              		.loc 1 964 55 discriminator 2
 1879 00b2 FB68     		ldr	r3, [r7, #12]
 1880 00b4 1B68     		ldr	r3, [r3]
 1881              		.loc 1 964 48 discriminator 2
 1882 00b6 0433     		adds	r3, r3, #4
 1883              		.loc 1 964 5 discriminator 2
 1884 00b8 1946     		mov	r1, r3
 1885 00ba 7B69     		ldr	r3, [r7, #20]
 1886 00bc 1A68     		ldr	r2, [r3]
 1887 00be FB88     		ldrh	r3, [r7, #6]
 1888 00c0 FFF7FEFF 		bl	HAL_DMA_Start_IT
 965:./Libraries/STM32F4xx_HAL_Driver/Src/stm32f4xx_hal_usart.c **** 
 966:./Libraries/STM32F4xx_HAL_Driver/Src/stm32f4xx_hal_usart.c ****     /* Enable the USART transmit DMA Stream: the transmit stream is used in order
 967:./Libraries/STM32F4xx_HAL_Driver/Src/stm32f4xx_hal_usart.c ****        to generate in the non-blocking mode the clock to the slave device,
 968:./Libraries/STM32F4xx_HAL_Driver/Src/stm32f4xx_hal_usart.c ****        this mode isn't a simplex receive mode but a full-duplex receive one */
 969:./Libraries/STM32F4xx_HAL_Driver/Src/stm32f4xx_hal_usart.c ****     HAL_DMA_Start_IT(husart->hdmatx, *(uint32_t*)tmp, (uint32_t)&husart->Instance->DR, Size);
 1889              		.loc 1 969 5 discriminator 2
 1890 00c4 FB68     		ldr	r3, [r7, #12]
 1891 00c6 586B     		ldr	r0, [r3, #52]
 1892 00c8 7B69     		ldr	r3, [r7, #20]
 1893 00ca 1968     		ldr	r1, [r3]
 1894              		.loc 1 969 72 discriminator 2
 1895 00cc FB68     		ldr	r3, [r7, #12]
 1896 00ce 1B68     		ldr	r3, [r3]
 1897              		.loc 1 969 65 discriminator 2
 1898 00d0 0433     		adds	r3, r3, #4
ARM GAS  /tmp/ccIGChKB.s 			page 51


 1899              		.loc 1 969 5 discriminator 2
 1900 00d2 1A46     		mov	r2, r3
 1901 00d4 FB88     		ldrh	r3, [r7, #6]
 1902 00d6 FFF7FEFF 		bl	HAL_DMA_Start_IT
 1903              	.LBB2:
 970:./Libraries/STM32F4xx_HAL_Driver/Src/stm32f4xx_hal_usart.c **** 
 971:./Libraries/STM32F4xx_HAL_Driver/Src/stm32f4xx_hal_usart.c ****     /* Clear the Overrun flag just before enabling the DMA Rx request: mandatory for the second tra
 972:./Libraries/STM32F4xx_HAL_Driver/Src/stm32f4xx_hal_usart.c ****     __HAL_USART_CLEAR_OREFLAG(husart);
 1904              		.loc 1 972 5 discriminator 2
 1905 00da 0023     		movs	r3, #0
 1906 00dc 3B61     		str	r3, [r7, #16]
 1907 00de FB68     		ldr	r3, [r7, #12]
 1908 00e0 1B68     		ldr	r3, [r3]
 1909 00e2 1B68     		ldr	r3, [r3]
 1910 00e4 3B61     		str	r3, [r7, #16]
 1911 00e6 FB68     		ldr	r3, [r7, #12]
 1912 00e8 1B68     		ldr	r3, [r3]
 1913 00ea 5B68     		ldr	r3, [r3, #4]
 1914 00ec 3B61     		str	r3, [r7, #16]
 1915 00ee 3B69     		ldr	r3, [r7, #16]
 1916              	.LBE2:
 973:./Libraries/STM32F4xx_HAL_Driver/Src/stm32f4xx_hal_usart.c **** 
 974:./Libraries/STM32F4xx_HAL_Driver/Src/stm32f4xx_hal_usart.c ****     /* Process Unlocked */
 975:./Libraries/STM32F4xx_HAL_Driver/Src/stm32f4xx_hal_usart.c ****     __HAL_UNLOCK(husart);
 1917              		.loc 1 975 5 discriminator 2
 1918 00f0 FB68     		ldr	r3, [r7, #12]
 1919 00f2 0022     		movs	r2, #0
 1920 00f4 83F83C20 		strb	r2, [r3, #60]
 976:./Libraries/STM32F4xx_HAL_Driver/Src/stm32f4xx_hal_usart.c **** 
 977:./Libraries/STM32F4xx_HAL_Driver/Src/stm32f4xx_hal_usart.c ****     /* Enable the USART Parity Error Interrupt */
 978:./Libraries/STM32F4xx_HAL_Driver/Src/stm32f4xx_hal_usart.c ****     SET_BIT(husart->Instance->CR1, USART_CR1_PEIE);
 1921              		.loc 1 978 5 discriminator 2
 1922 00f8 FB68     		ldr	r3, [r7, #12]
 1923 00fa 1B68     		ldr	r3, [r3]
 1924 00fc DA68     		ldr	r2, [r3, #12]
 1925 00fe FB68     		ldr	r3, [r7, #12]
 1926 0100 1B68     		ldr	r3, [r3]
 1927 0102 42F48072 		orr	r2, r2, #256
 1928 0106 DA60     		str	r2, [r3, #12]
 979:./Libraries/STM32F4xx_HAL_Driver/Src/stm32f4xx_hal_usart.c **** 
 980:./Libraries/STM32F4xx_HAL_Driver/Src/stm32f4xx_hal_usart.c ****     /* Enable the USART Error Interrupt: (Frame error, noise error, overrun error) */
 981:./Libraries/STM32F4xx_HAL_Driver/Src/stm32f4xx_hal_usart.c ****     SET_BIT(husart->Instance->CR3, USART_CR3_EIE);
 1929              		.loc 1 981 5 discriminator 2
 1930 0108 FB68     		ldr	r3, [r7, #12]
 1931 010a 1B68     		ldr	r3, [r3]
 1932 010c 5A69     		ldr	r2, [r3, #20]
 1933 010e FB68     		ldr	r3, [r7, #12]
 1934 0110 1B68     		ldr	r3, [r3]
 1935 0112 42F00102 		orr	r2, r2, #1
 1936 0116 5A61     		str	r2, [r3, #20]
 982:./Libraries/STM32F4xx_HAL_Driver/Src/stm32f4xx_hal_usart.c **** 
 983:./Libraries/STM32F4xx_HAL_Driver/Src/stm32f4xx_hal_usart.c ****     /* Enable the DMA transfer for the receiver request by setting the DMAR bit
 984:./Libraries/STM32F4xx_HAL_Driver/Src/stm32f4xx_hal_usart.c ****        in the USART CR3 register */
 985:./Libraries/STM32F4xx_HAL_Driver/Src/stm32f4xx_hal_usart.c ****     SET_BIT(husart->Instance->CR3, USART_CR3_DMAR);
 1937              		.loc 1 985 5 discriminator 2
 1938 0118 FB68     		ldr	r3, [r7, #12]
 1939 011a 1B68     		ldr	r3, [r3]
ARM GAS  /tmp/ccIGChKB.s 			page 52


 1940 011c 5A69     		ldr	r2, [r3, #20]
 1941 011e FB68     		ldr	r3, [r7, #12]
 1942 0120 1B68     		ldr	r3, [r3]
 1943 0122 42F04002 		orr	r2, r2, #64
 1944 0126 5A61     		str	r2, [r3, #20]
 986:./Libraries/STM32F4xx_HAL_Driver/Src/stm32f4xx_hal_usart.c **** 
 987:./Libraries/STM32F4xx_HAL_Driver/Src/stm32f4xx_hal_usart.c ****     /* Enable the DMA transfer for transmit request by setting the DMAT bit
 988:./Libraries/STM32F4xx_HAL_Driver/Src/stm32f4xx_hal_usart.c ****        in the USART CR3 register */
 989:./Libraries/STM32F4xx_HAL_Driver/Src/stm32f4xx_hal_usart.c ****     SET_BIT(husart->Instance->CR3, USART_CR3_DMAT);
 1945              		.loc 1 989 5 discriminator 2
 1946 0128 FB68     		ldr	r3, [r7, #12]
 1947 012a 1B68     		ldr	r3, [r3]
 1948 012c 5A69     		ldr	r2, [r3, #20]
 1949 012e FB68     		ldr	r3, [r7, #12]
 1950 0130 1B68     		ldr	r3, [r3]
 1951 0132 42F08002 		orr	r2, r2, #128
 1952 0136 5A61     		str	r2, [r3, #20]
 990:./Libraries/STM32F4xx_HAL_Driver/Src/stm32f4xx_hal_usart.c **** 
 991:./Libraries/STM32F4xx_HAL_Driver/Src/stm32f4xx_hal_usart.c ****     return HAL_OK;
 1953              		.loc 1 991 12 discriminator 2
 1954 0138 0023     		movs	r3, #0
 1955 013a 00E0     		b	.L85
 1956              	.L82:
 992:./Libraries/STM32F4xx_HAL_Driver/Src/stm32f4xx_hal_usart.c ****   }
 993:./Libraries/STM32F4xx_HAL_Driver/Src/stm32f4xx_hal_usart.c ****   else
 994:./Libraries/STM32F4xx_HAL_Driver/Src/stm32f4xx_hal_usart.c ****   {
 995:./Libraries/STM32F4xx_HAL_Driver/Src/stm32f4xx_hal_usart.c ****     return HAL_BUSY;
 1957              		.loc 1 995 12
 1958 013c 0223     		movs	r3, #2
 1959              	.L85:
 996:./Libraries/STM32F4xx_HAL_Driver/Src/stm32f4xx_hal_usart.c ****   }
 997:./Libraries/STM32F4xx_HAL_Driver/Src/stm32f4xx_hal_usart.c **** }
 1960              		.loc 1 997 1
 1961 013e 1846     		mov	r0, r3
 1962 0140 1837     		adds	r7, r7, #24
 1963              	.LCFI63:
 1964              		.cfi_def_cfa_offset 8
 1965 0142 BD46     		mov	sp, r7
 1966              	.LCFI64:
 1967              		.cfi_def_cfa_register 13
 1968              		@ sp needed
 1969 0144 80BD     		pop	{r7, pc}
 1970              	.L88:
 1971 0146 00BF     		.align	2
 1972              	.L87:
 1973 0148 00000000 		.word	USART_DMAReceiveCplt
 1974 014c 00000000 		.word	USART_DMARxHalfCplt
 1975 0150 00000000 		.word	USART_DMAError
 1976              		.cfi_endproc
 1977              	.LFE137:
 1979              		.section	.text.HAL_USART_TransmitReceive_DMA,"ax",%progbits
 1980              		.align	1
 1981              		.global	HAL_USART_TransmitReceive_DMA
 1982              		.syntax unified
 1983              		.thumb
 1984              		.thumb_func
 1985              		.fpu fpv4-sp-d16
ARM GAS  /tmp/ccIGChKB.s 			page 53


 1987              	HAL_USART_TransmitReceive_DMA:
 1988              	.LFB138:
 998:./Libraries/STM32F4xx_HAL_Driver/Src/stm32f4xx_hal_usart.c **** 
 999:./Libraries/STM32F4xx_HAL_Driver/Src/stm32f4xx_hal_usart.c **** /**
1000:./Libraries/STM32F4xx_HAL_Driver/Src/stm32f4xx_hal_usart.c ****   * @brief  Full-Duplex Transmit Receive an amount of data in non-blocking mode.
1001:./Libraries/STM32F4xx_HAL_Driver/Src/stm32f4xx_hal_usart.c ****   * @param  husart pointer to a USART_HandleTypeDef structure that contains
1002:./Libraries/STM32F4xx_HAL_Driver/Src/stm32f4xx_hal_usart.c ****   *                the configuration information for the specified USART module.
1003:./Libraries/STM32F4xx_HAL_Driver/Src/stm32f4xx_hal_usart.c ****   * @param  pTxData Pointer to data transmitted buffer
1004:./Libraries/STM32F4xx_HAL_Driver/Src/stm32f4xx_hal_usart.c ****   * @param  pRxData Pointer to data received buffer
1005:./Libraries/STM32F4xx_HAL_Driver/Src/stm32f4xx_hal_usart.c ****   * @param  Size Amount of data to be received
1006:./Libraries/STM32F4xx_HAL_Driver/Src/stm32f4xx_hal_usart.c ****   * @note   When the USART parity is enabled (PCE = 1) the data received contain the parity bit.
1007:./Libraries/STM32F4xx_HAL_Driver/Src/stm32f4xx_hal_usart.c ****   * @retval HAL status
1008:./Libraries/STM32F4xx_HAL_Driver/Src/stm32f4xx_hal_usart.c ****   */
1009:./Libraries/STM32F4xx_HAL_Driver/Src/stm32f4xx_hal_usart.c **** HAL_StatusTypeDef HAL_USART_TransmitReceive_DMA(USART_HandleTypeDef *husart, uint8_t *pTxData, uint
1010:./Libraries/STM32F4xx_HAL_Driver/Src/stm32f4xx_hal_usart.c **** {
 1989              		.loc 1 1010 1
 1990              		.cfi_startproc
 1991              		@ args = 0, pretend = 0, frame = 24
 1992              		@ frame_needed = 1, uses_anonymous_args = 0
 1993 0000 80B5     		push	{r7, lr}
 1994              	.LCFI65:
 1995              		.cfi_def_cfa_offset 8
 1996              		.cfi_offset 7, -8
 1997              		.cfi_offset 14, -4
 1998 0002 86B0     		sub	sp, sp, #24
 1999              	.LCFI66:
 2000              		.cfi_def_cfa_offset 32
 2001 0004 00AF     		add	r7, sp, #0
 2002              	.LCFI67:
 2003              		.cfi_def_cfa_register 7
 2004 0006 F860     		str	r0, [r7, #12]
 2005 0008 B960     		str	r1, [r7, #8]
 2006 000a 7A60     		str	r2, [r7, #4]
 2007 000c 7B80     		strh	r3, [r7, #2]	@ movhi
1011:./Libraries/STM32F4xx_HAL_Driver/Src/stm32f4xx_hal_usart.c ****   uint32_t *tmp;
1012:./Libraries/STM32F4xx_HAL_Driver/Src/stm32f4xx_hal_usart.c **** 
1013:./Libraries/STM32F4xx_HAL_Driver/Src/stm32f4xx_hal_usart.c ****   if(husart->State == HAL_USART_STATE_READY)
 2008              		.loc 1 1013 12
 2009 000e FB68     		ldr	r3, [r7, #12]
 2010 0010 93F83D30 		ldrb	r3, [r3, #61]
 2011 0014 DBB2     		uxtb	r3, r3
 2012              		.loc 1 1013 5
 2013 0016 012B     		cmp	r3, #1
 2014 0018 40F09680 		bne	.L90
1014:./Libraries/STM32F4xx_HAL_Driver/Src/stm32f4xx_hal_usart.c ****   {
1015:./Libraries/STM32F4xx_HAL_Driver/Src/stm32f4xx_hal_usart.c ****     if((pTxData == NULL) || (pRxData == NULL) || (Size == 0))
 2015              		.loc 1 1015 17
 2016 001c BB68     		ldr	r3, [r7, #8]
 2017              		.loc 1 1015 7
 2018 001e 002B     		cmp	r3, #0
 2019 0020 05D0     		beq	.L91
 2020              		.loc 1 1015 38 discriminator 1
 2021 0022 7B68     		ldr	r3, [r7, #4]
 2022              		.loc 1 1015 26 discriminator 1
 2023 0024 002B     		cmp	r3, #0
 2024 0026 02D0     		beq	.L91
 2025              		.loc 1 1015 47 discriminator 2
ARM GAS  /tmp/ccIGChKB.s 			page 54


 2026 0028 7B88     		ldrh	r3, [r7, #2]
 2027 002a 002B     		cmp	r3, #0
 2028 002c 01D1     		bne	.L92
 2029              	.L91:
1016:./Libraries/STM32F4xx_HAL_Driver/Src/stm32f4xx_hal_usart.c ****     {
1017:./Libraries/STM32F4xx_HAL_Driver/Src/stm32f4xx_hal_usart.c ****       return HAL_ERROR;
 2030              		.loc 1 1017 14
 2031 002e 0123     		movs	r3, #1
 2032 0030 8BE0     		b	.L93
 2033              	.L92:
1018:./Libraries/STM32F4xx_HAL_Driver/Src/stm32f4xx_hal_usart.c ****     }
1019:./Libraries/STM32F4xx_HAL_Driver/Src/stm32f4xx_hal_usart.c ****     /* Process Locked */
1020:./Libraries/STM32F4xx_HAL_Driver/Src/stm32f4xx_hal_usart.c ****     __HAL_LOCK(husart);
 2034              		.loc 1 1020 5
 2035 0032 FB68     		ldr	r3, [r7, #12]
 2036 0034 93F83C30 		ldrb	r3, [r3, #60]	@ zero_extendqisi2
 2037 0038 012B     		cmp	r3, #1
 2038 003a 01D1     		bne	.L94
 2039              		.loc 1 1020 5 is_stmt 0 discriminator 1
 2040 003c 0223     		movs	r3, #2
 2041 003e 84E0     		b	.L93
 2042              	.L94:
 2043              		.loc 1 1020 5 discriminator 2
 2044 0040 FB68     		ldr	r3, [r7, #12]
 2045 0042 0122     		movs	r2, #1
 2046 0044 83F83C20 		strb	r2, [r3, #60]
1021:./Libraries/STM32F4xx_HAL_Driver/Src/stm32f4xx_hal_usart.c **** 
1022:./Libraries/STM32F4xx_HAL_Driver/Src/stm32f4xx_hal_usart.c ****     husart->pRxBuffPtr = pRxData;
 2047              		.loc 1 1022 24 is_stmt 1 discriminator 2
 2048 0048 7A68     		ldr	r2, [r7, #4]
 2049 004a FB68     		ldr	r3, [r7, #12]
 2050 004c DA62     		str	r2, [r3, #44]
1023:./Libraries/STM32F4xx_HAL_Driver/Src/stm32f4xx_hal_usart.c ****     husart->RxXferSize = Size;
 2051              		.loc 1 1023 24 discriminator 2
 2052 004e FB68     		ldr	r3, [r7, #12]
 2053 0050 7A88     		ldrh	r2, [r7, #2]	@ movhi
 2054 0052 1A86     		strh	r2, [r3, #48]	@ movhi
1024:./Libraries/STM32F4xx_HAL_Driver/Src/stm32f4xx_hal_usart.c ****     husart->pTxBuffPtr = pTxData;
 2055              		.loc 1 1024 24 discriminator 2
 2056 0054 BA68     		ldr	r2, [r7, #8]
 2057 0056 FB68     		ldr	r3, [r7, #12]
 2058 0058 5A62     		str	r2, [r3, #36]
1025:./Libraries/STM32F4xx_HAL_Driver/Src/stm32f4xx_hal_usart.c ****     husart->TxXferSize = Size;
 2059              		.loc 1 1025 24 discriminator 2
 2060 005a FB68     		ldr	r3, [r7, #12]
 2061 005c 7A88     		ldrh	r2, [r7, #2]	@ movhi
 2062 005e 1A85     		strh	r2, [r3, #40]	@ movhi
1026:./Libraries/STM32F4xx_HAL_Driver/Src/stm32f4xx_hal_usart.c **** 
1027:./Libraries/STM32F4xx_HAL_Driver/Src/stm32f4xx_hal_usart.c ****     husart->ErrorCode = HAL_USART_ERROR_NONE;
 2063              		.loc 1 1027 23 discriminator 2
 2064 0060 FB68     		ldr	r3, [r7, #12]
 2065 0062 0022     		movs	r2, #0
 2066 0064 1A64     		str	r2, [r3, #64]
1028:./Libraries/STM32F4xx_HAL_Driver/Src/stm32f4xx_hal_usart.c ****     husart->State = HAL_USART_STATE_BUSY_TX_RX;
 2067              		.loc 1 1028 19 discriminator 2
 2068 0066 FB68     		ldr	r3, [r7, #12]
 2069 0068 3222     		movs	r2, #50
ARM GAS  /tmp/ccIGChKB.s 			page 55


 2070 006a 83F83D20 		strb	r2, [r3, #61]
1029:./Libraries/STM32F4xx_HAL_Driver/Src/stm32f4xx_hal_usart.c **** 
1030:./Libraries/STM32F4xx_HAL_Driver/Src/stm32f4xx_hal_usart.c ****     /* Set the USART DMA Rx transfer complete callback */
1031:./Libraries/STM32F4xx_HAL_Driver/Src/stm32f4xx_hal_usart.c ****     husart->hdmarx->XferCpltCallback = USART_DMAReceiveCplt;
 2071              		.loc 1 1031 11 discriminator 2
 2072 006e FB68     		ldr	r3, [r7, #12]
 2073 0070 9B6B     		ldr	r3, [r3, #56]
 2074              		.loc 1 1031 38 discriminator 2
 2075 0072 384A     		ldr	r2, .L95
 2076 0074 DA63     		str	r2, [r3, #60]
1032:./Libraries/STM32F4xx_HAL_Driver/Src/stm32f4xx_hal_usart.c **** 
1033:./Libraries/STM32F4xx_HAL_Driver/Src/stm32f4xx_hal_usart.c ****     /* Set the USART DMA Half transfer complete callback */
1034:./Libraries/STM32F4xx_HAL_Driver/Src/stm32f4xx_hal_usart.c ****     husart->hdmarx->XferHalfCpltCallback = USART_DMARxHalfCplt;
 2077              		.loc 1 1034 11 discriminator 2
 2078 0076 FB68     		ldr	r3, [r7, #12]
 2079 0078 9B6B     		ldr	r3, [r3, #56]
 2080              		.loc 1 1034 42 discriminator 2
 2081 007a 374A     		ldr	r2, .L95+4
 2082 007c 1A64     		str	r2, [r3, #64]
1035:./Libraries/STM32F4xx_HAL_Driver/Src/stm32f4xx_hal_usart.c **** 
1036:./Libraries/STM32F4xx_HAL_Driver/Src/stm32f4xx_hal_usart.c ****     /* Set the USART DMA Tx transfer complete callback */
1037:./Libraries/STM32F4xx_HAL_Driver/Src/stm32f4xx_hal_usart.c ****     husart->hdmatx->XferCpltCallback = USART_DMATransmitCplt;
 2083              		.loc 1 1037 11 discriminator 2
 2084 007e FB68     		ldr	r3, [r7, #12]
 2085 0080 5B6B     		ldr	r3, [r3, #52]
 2086              		.loc 1 1037 38 discriminator 2
 2087 0082 364A     		ldr	r2, .L95+8
 2088 0084 DA63     		str	r2, [r3, #60]
1038:./Libraries/STM32F4xx_HAL_Driver/Src/stm32f4xx_hal_usart.c **** 
1039:./Libraries/STM32F4xx_HAL_Driver/Src/stm32f4xx_hal_usart.c ****     /* Set the USART DMA Half transfer complete callback */
1040:./Libraries/STM32F4xx_HAL_Driver/Src/stm32f4xx_hal_usart.c ****     husart->hdmatx->XferHalfCpltCallback = USART_DMATxHalfCplt;
 2089              		.loc 1 1040 11 discriminator 2
 2090 0086 FB68     		ldr	r3, [r7, #12]
 2091 0088 5B6B     		ldr	r3, [r3, #52]
 2092              		.loc 1 1040 42 discriminator 2
 2093 008a 354A     		ldr	r2, .L95+12
 2094 008c 1A64     		str	r2, [r3, #64]
1041:./Libraries/STM32F4xx_HAL_Driver/Src/stm32f4xx_hal_usart.c **** 
1042:./Libraries/STM32F4xx_HAL_Driver/Src/stm32f4xx_hal_usart.c ****     /* Set the USART DMA Tx transfer error callback */
1043:./Libraries/STM32F4xx_HAL_Driver/Src/stm32f4xx_hal_usart.c ****     husart->hdmatx->XferErrorCallback = USART_DMAError;
 2095              		.loc 1 1043 11 discriminator 2
 2096 008e FB68     		ldr	r3, [r7, #12]
 2097 0090 5B6B     		ldr	r3, [r3, #52]
 2098              		.loc 1 1043 39 discriminator 2
 2099 0092 344A     		ldr	r2, .L95+16
 2100 0094 DA64     		str	r2, [r3, #76]
1044:./Libraries/STM32F4xx_HAL_Driver/Src/stm32f4xx_hal_usart.c **** 
1045:./Libraries/STM32F4xx_HAL_Driver/Src/stm32f4xx_hal_usart.c ****     /* Set the USART DMA Rx transfer error callback */
1046:./Libraries/STM32F4xx_HAL_Driver/Src/stm32f4xx_hal_usart.c ****     husart->hdmarx->XferErrorCallback = USART_DMAError;
 2101              		.loc 1 1046 11 discriminator 2
 2102 0096 FB68     		ldr	r3, [r7, #12]
 2103 0098 9B6B     		ldr	r3, [r3, #56]
 2104              		.loc 1 1046 39 discriminator 2
 2105 009a 324A     		ldr	r2, .L95+16
 2106 009c DA64     		str	r2, [r3, #76]
1047:./Libraries/STM32F4xx_HAL_Driver/Src/stm32f4xx_hal_usart.c **** 
1048:./Libraries/STM32F4xx_HAL_Driver/Src/stm32f4xx_hal_usart.c ****     /* Set the DMA abort callback */
ARM GAS  /tmp/ccIGChKB.s 			page 56


1049:./Libraries/STM32F4xx_HAL_Driver/Src/stm32f4xx_hal_usart.c ****     husart->hdmarx->XferAbortCallback = NULL;
 2107              		.loc 1 1049 11 discriminator 2
 2108 009e FB68     		ldr	r3, [r7, #12]
 2109 00a0 9B6B     		ldr	r3, [r3, #56]
 2110              		.loc 1 1049 39 discriminator 2
 2111 00a2 0022     		movs	r2, #0
 2112 00a4 1A65     		str	r2, [r3, #80]
1050:./Libraries/STM32F4xx_HAL_Driver/Src/stm32f4xx_hal_usart.c **** 
1051:./Libraries/STM32F4xx_HAL_Driver/Src/stm32f4xx_hal_usart.c ****     /* Enable the USART receive DMA Stream */
1052:./Libraries/STM32F4xx_HAL_Driver/Src/stm32f4xx_hal_usart.c ****     tmp = (uint32_t*)&pRxData;
 2113              		.loc 1 1052 9 discriminator 2
 2114 00a6 3B1D     		adds	r3, r7, #4
 2115 00a8 7B61     		str	r3, [r7, #20]
1053:./Libraries/STM32F4xx_HAL_Driver/Src/stm32f4xx_hal_usart.c ****     HAL_DMA_Start_IT(husart->hdmarx, (uint32_t)&husart->Instance->DR, *(uint32_t*)tmp, Size);
 2116              		.loc 1 1053 5 discriminator 2
 2117 00aa FB68     		ldr	r3, [r7, #12]
 2118 00ac 986B     		ldr	r0, [r3, #56]
 2119              		.loc 1 1053 55 discriminator 2
 2120 00ae FB68     		ldr	r3, [r7, #12]
 2121 00b0 1B68     		ldr	r3, [r3]
 2122              		.loc 1 1053 48 discriminator 2
 2123 00b2 0433     		adds	r3, r3, #4
 2124              		.loc 1 1053 5 discriminator 2
 2125 00b4 1946     		mov	r1, r3
 2126 00b6 7B69     		ldr	r3, [r7, #20]
 2127 00b8 1A68     		ldr	r2, [r3]
 2128 00ba 7B88     		ldrh	r3, [r7, #2]
 2129 00bc FFF7FEFF 		bl	HAL_DMA_Start_IT
1054:./Libraries/STM32F4xx_HAL_Driver/Src/stm32f4xx_hal_usart.c **** 
1055:./Libraries/STM32F4xx_HAL_Driver/Src/stm32f4xx_hal_usart.c ****     /* Enable the USART transmit DMA Stream */
1056:./Libraries/STM32F4xx_HAL_Driver/Src/stm32f4xx_hal_usart.c ****     tmp = (uint32_t*)&pTxData;
 2130              		.loc 1 1056 9 discriminator 2
 2131 00c0 07F10803 		add	r3, r7, #8
 2132 00c4 7B61     		str	r3, [r7, #20]
1057:./Libraries/STM32F4xx_HAL_Driver/Src/stm32f4xx_hal_usart.c ****     HAL_DMA_Start_IT(husart->hdmatx, *(uint32_t*)tmp, (uint32_t)&husart->Instance->DR, Size);
 2133              		.loc 1 1057 5 discriminator 2
 2134 00c6 FB68     		ldr	r3, [r7, #12]
 2135 00c8 586B     		ldr	r0, [r3, #52]
 2136 00ca 7B69     		ldr	r3, [r7, #20]
 2137 00cc 1968     		ldr	r1, [r3]
 2138              		.loc 1 1057 72 discriminator 2
 2139 00ce FB68     		ldr	r3, [r7, #12]
 2140 00d0 1B68     		ldr	r3, [r3]
 2141              		.loc 1 1057 65 discriminator 2
 2142 00d2 0433     		adds	r3, r3, #4
 2143              		.loc 1 1057 5 discriminator 2
 2144 00d4 1A46     		mov	r2, r3
 2145 00d6 7B88     		ldrh	r3, [r7, #2]
 2146 00d8 FFF7FEFF 		bl	HAL_DMA_Start_IT
1058:./Libraries/STM32F4xx_HAL_Driver/Src/stm32f4xx_hal_usart.c **** 
1059:./Libraries/STM32F4xx_HAL_Driver/Src/stm32f4xx_hal_usart.c ****     /* Clear the TC flag in the SR register by writing 0 to it */
1060:./Libraries/STM32F4xx_HAL_Driver/Src/stm32f4xx_hal_usart.c ****     __HAL_USART_CLEAR_FLAG(husart, USART_FLAG_TC);
 2147              		.loc 1 1060 5 discriminator 2
 2148 00dc FB68     		ldr	r3, [r7, #12]
 2149 00de 1B68     		ldr	r3, [r3]
 2150 00e0 6FF04002 		mvn	r2, #64
 2151 00e4 1A60     		str	r2, [r3]
ARM GAS  /tmp/ccIGChKB.s 			page 57


 2152              	.LBB3:
1061:./Libraries/STM32F4xx_HAL_Driver/Src/stm32f4xx_hal_usart.c **** 
1062:./Libraries/STM32F4xx_HAL_Driver/Src/stm32f4xx_hal_usart.c ****     /* Clear the Overrun flag: mandatory for the second transfer in circular mode */
1063:./Libraries/STM32F4xx_HAL_Driver/Src/stm32f4xx_hal_usart.c ****     __HAL_USART_CLEAR_OREFLAG(husart);
 2153              		.loc 1 1063 5 discriminator 2
 2154 00e6 0023     		movs	r3, #0
 2155 00e8 3B61     		str	r3, [r7, #16]
 2156 00ea FB68     		ldr	r3, [r7, #12]
 2157 00ec 1B68     		ldr	r3, [r3]
 2158 00ee 1B68     		ldr	r3, [r3]
 2159 00f0 3B61     		str	r3, [r7, #16]
 2160 00f2 FB68     		ldr	r3, [r7, #12]
 2161 00f4 1B68     		ldr	r3, [r3]
 2162 00f6 5B68     		ldr	r3, [r3, #4]
 2163 00f8 3B61     		str	r3, [r7, #16]
 2164 00fa 3B69     		ldr	r3, [r7, #16]
 2165              	.LBE3:
1064:./Libraries/STM32F4xx_HAL_Driver/Src/stm32f4xx_hal_usart.c **** 
1065:./Libraries/STM32F4xx_HAL_Driver/Src/stm32f4xx_hal_usart.c ****     /* Process Unlocked */
1066:./Libraries/STM32F4xx_HAL_Driver/Src/stm32f4xx_hal_usart.c ****     __HAL_UNLOCK(husart);
 2166              		.loc 1 1066 5 discriminator 2
 2167 00fc FB68     		ldr	r3, [r7, #12]
 2168 00fe 0022     		movs	r2, #0
 2169 0100 83F83C20 		strb	r2, [r3, #60]
1067:./Libraries/STM32F4xx_HAL_Driver/Src/stm32f4xx_hal_usart.c **** 
1068:./Libraries/STM32F4xx_HAL_Driver/Src/stm32f4xx_hal_usart.c ****     /* Enable the USART Parity Error Interrupt */
1069:./Libraries/STM32F4xx_HAL_Driver/Src/stm32f4xx_hal_usart.c ****     SET_BIT(husart->Instance->CR1, USART_CR1_PEIE);
 2170              		.loc 1 1069 5 discriminator 2
 2171 0104 FB68     		ldr	r3, [r7, #12]
 2172 0106 1B68     		ldr	r3, [r3]
 2173 0108 DA68     		ldr	r2, [r3, #12]
 2174 010a FB68     		ldr	r3, [r7, #12]
 2175 010c 1B68     		ldr	r3, [r3]
 2176 010e 42F48072 		orr	r2, r2, #256
 2177 0112 DA60     		str	r2, [r3, #12]
1070:./Libraries/STM32F4xx_HAL_Driver/Src/stm32f4xx_hal_usart.c **** 
1071:./Libraries/STM32F4xx_HAL_Driver/Src/stm32f4xx_hal_usart.c ****     /* Enable the USART Error Interrupt: (Frame error, noise error, overrun error) */
1072:./Libraries/STM32F4xx_HAL_Driver/Src/stm32f4xx_hal_usart.c ****     SET_BIT(husart->Instance->CR3, USART_CR3_EIE);
 2178              		.loc 1 1072 5 discriminator 2
 2179 0114 FB68     		ldr	r3, [r7, #12]
 2180 0116 1B68     		ldr	r3, [r3]
 2181 0118 5A69     		ldr	r2, [r3, #20]
 2182 011a FB68     		ldr	r3, [r7, #12]
 2183 011c 1B68     		ldr	r3, [r3]
 2184 011e 42F00102 		orr	r2, r2, #1
 2185 0122 5A61     		str	r2, [r3, #20]
1073:./Libraries/STM32F4xx_HAL_Driver/Src/stm32f4xx_hal_usart.c **** 
1074:./Libraries/STM32F4xx_HAL_Driver/Src/stm32f4xx_hal_usart.c ****     /* Enable the DMA transfer for the receiver request by setting the DMAR bit
1075:./Libraries/STM32F4xx_HAL_Driver/Src/stm32f4xx_hal_usart.c ****        in the USART CR3 register */
1076:./Libraries/STM32F4xx_HAL_Driver/Src/stm32f4xx_hal_usart.c ****     SET_BIT(husart->Instance->CR3, USART_CR3_DMAR);
 2186              		.loc 1 1076 5 discriminator 2
 2187 0124 FB68     		ldr	r3, [r7, #12]
 2188 0126 1B68     		ldr	r3, [r3]
 2189 0128 5A69     		ldr	r2, [r3, #20]
 2190 012a FB68     		ldr	r3, [r7, #12]
 2191 012c 1B68     		ldr	r3, [r3]
 2192 012e 42F04002 		orr	r2, r2, #64
ARM GAS  /tmp/ccIGChKB.s 			page 58


 2193 0132 5A61     		str	r2, [r3, #20]
1077:./Libraries/STM32F4xx_HAL_Driver/Src/stm32f4xx_hal_usart.c **** 
1078:./Libraries/STM32F4xx_HAL_Driver/Src/stm32f4xx_hal_usart.c ****     /* Enable the DMA transfer for transmit request by setting the DMAT bit
1079:./Libraries/STM32F4xx_HAL_Driver/Src/stm32f4xx_hal_usart.c ****        in the USART CR3 register */
1080:./Libraries/STM32F4xx_HAL_Driver/Src/stm32f4xx_hal_usart.c ****     SET_BIT(husart->Instance->CR3, USART_CR3_DMAT);
 2194              		.loc 1 1080 5 discriminator 2
 2195 0134 FB68     		ldr	r3, [r7, #12]
 2196 0136 1B68     		ldr	r3, [r3]
 2197 0138 5A69     		ldr	r2, [r3, #20]
 2198 013a FB68     		ldr	r3, [r7, #12]
 2199 013c 1B68     		ldr	r3, [r3]
 2200 013e 42F08002 		orr	r2, r2, #128
 2201 0142 5A61     		str	r2, [r3, #20]
1081:./Libraries/STM32F4xx_HAL_Driver/Src/stm32f4xx_hal_usart.c **** 
1082:./Libraries/STM32F4xx_HAL_Driver/Src/stm32f4xx_hal_usart.c ****     return HAL_OK;
 2202              		.loc 1 1082 12 discriminator 2
 2203 0144 0023     		movs	r3, #0
 2204 0146 00E0     		b	.L93
 2205              	.L90:
1083:./Libraries/STM32F4xx_HAL_Driver/Src/stm32f4xx_hal_usart.c ****   }
1084:./Libraries/STM32F4xx_HAL_Driver/Src/stm32f4xx_hal_usart.c ****   else
1085:./Libraries/STM32F4xx_HAL_Driver/Src/stm32f4xx_hal_usart.c ****   {
1086:./Libraries/STM32F4xx_HAL_Driver/Src/stm32f4xx_hal_usart.c ****     return HAL_BUSY;
 2206              		.loc 1 1086 12
 2207 0148 0223     		movs	r3, #2
 2208              	.L93:
1087:./Libraries/STM32F4xx_HAL_Driver/Src/stm32f4xx_hal_usart.c ****   }
1088:./Libraries/STM32F4xx_HAL_Driver/Src/stm32f4xx_hal_usart.c **** }
 2209              		.loc 1 1088 1
 2210 014a 1846     		mov	r0, r3
 2211 014c 1837     		adds	r7, r7, #24
 2212              	.LCFI68:
 2213              		.cfi_def_cfa_offset 8
 2214 014e BD46     		mov	sp, r7
 2215              	.LCFI69:
 2216              		.cfi_def_cfa_register 13
 2217              		@ sp needed
 2218 0150 80BD     		pop	{r7, pc}
 2219              	.L96:
 2220 0152 00BF     		.align	2
 2221              	.L95:
 2222 0154 00000000 		.word	USART_DMAReceiveCplt
 2223 0158 00000000 		.word	USART_DMARxHalfCplt
 2224 015c 00000000 		.word	USART_DMATransmitCplt
 2225 0160 00000000 		.word	USART_DMATxHalfCplt
 2226 0164 00000000 		.word	USART_DMAError
 2227              		.cfi_endproc
 2228              	.LFE138:
 2230              		.section	.text.HAL_USART_DMAPause,"ax",%progbits
 2231              		.align	1
 2232              		.global	HAL_USART_DMAPause
 2233              		.syntax unified
 2234              		.thumb
 2235              		.thumb_func
 2236              		.fpu fpv4-sp-d16
 2238              	HAL_USART_DMAPause:
 2239              	.LFB139:
ARM GAS  /tmp/ccIGChKB.s 			page 59


1089:./Libraries/STM32F4xx_HAL_Driver/Src/stm32f4xx_hal_usart.c **** 
1090:./Libraries/STM32F4xx_HAL_Driver/Src/stm32f4xx_hal_usart.c **** /**
1091:./Libraries/STM32F4xx_HAL_Driver/Src/stm32f4xx_hal_usart.c ****   * @brief Pauses the DMA Transfer.
1092:./Libraries/STM32F4xx_HAL_Driver/Src/stm32f4xx_hal_usart.c ****   * @param  husart pointer to a USART_HandleTypeDef structure that contains
1093:./Libraries/STM32F4xx_HAL_Driver/Src/stm32f4xx_hal_usart.c ****   *                the configuration information for the specified USART module.
1094:./Libraries/STM32F4xx_HAL_Driver/Src/stm32f4xx_hal_usart.c ****   * @retval HAL status
1095:./Libraries/STM32F4xx_HAL_Driver/Src/stm32f4xx_hal_usart.c ****   */
1096:./Libraries/STM32F4xx_HAL_Driver/Src/stm32f4xx_hal_usart.c **** HAL_StatusTypeDef HAL_USART_DMAPause(USART_HandleTypeDef *husart)
1097:./Libraries/STM32F4xx_HAL_Driver/Src/stm32f4xx_hal_usart.c **** {
 2240              		.loc 1 1097 1
 2241              		.cfi_startproc
 2242              		@ args = 0, pretend = 0, frame = 8
 2243              		@ frame_needed = 1, uses_anonymous_args = 0
 2244              		@ link register save eliminated.
 2245 0000 80B4     		push	{r7}
 2246              	.LCFI70:
 2247              		.cfi_def_cfa_offset 4
 2248              		.cfi_offset 7, -4
 2249 0002 83B0     		sub	sp, sp, #12
 2250              	.LCFI71:
 2251              		.cfi_def_cfa_offset 16
 2252 0004 00AF     		add	r7, sp, #0
 2253              	.LCFI72:
 2254              		.cfi_def_cfa_register 7
 2255 0006 7860     		str	r0, [r7, #4]
1098:./Libraries/STM32F4xx_HAL_Driver/Src/stm32f4xx_hal_usart.c ****   /* Process Locked */
1099:./Libraries/STM32F4xx_HAL_Driver/Src/stm32f4xx_hal_usart.c ****   __HAL_LOCK(husart);
 2256              		.loc 1 1099 3
 2257 0008 7B68     		ldr	r3, [r7, #4]
 2258 000a 93F83C30 		ldrb	r3, [r3, #60]	@ zero_extendqisi2
 2259 000e 012B     		cmp	r3, #1
 2260 0010 01D1     		bne	.L98
 2261              		.loc 1 1099 3 is_stmt 0 discriminator 1
 2262 0012 0223     		movs	r3, #2
 2263 0014 10E0     		b	.L99
 2264              	.L98:
 2265              		.loc 1 1099 3 discriminator 2
 2266 0016 7B68     		ldr	r3, [r7, #4]
 2267 0018 0122     		movs	r2, #1
 2268 001a 83F83C20 		strb	r2, [r3, #60]
1100:./Libraries/STM32F4xx_HAL_Driver/Src/stm32f4xx_hal_usart.c **** 
1101:./Libraries/STM32F4xx_HAL_Driver/Src/stm32f4xx_hal_usart.c ****   /* Disable the USART DMA Tx request */
1102:./Libraries/STM32F4xx_HAL_Driver/Src/stm32f4xx_hal_usart.c ****   CLEAR_BIT(husart->Instance->CR3, USART_CR3_DMAT);
 2269              		.loc 1 1102 3 is_stmt 1 discriminator 2
 2270 001e 7B68     		ldr	r3, [r7, #4]
 2271 0020 1B68     		ldr	r3, [r3]
 2272 0022 5A69     		ldr	r2, [r3, #20]
 2273 0024 7B68     		ldr	r3, [r7, #4]
 2274 0026 1B68     		ldr	r3, [r3]
 2275 0028 22F08002 		bic	r2, r2, #128
 2276 002c 5A61     		str	r2, [r3, #20]
1103:./Libraries/STM32F4xx_HAL_Driver/Src/stm32f4xx_hal_usart.c **** 
1104:./Libraries/STM32F4xx_HAL_Driver/Src/stm32f4xx_hal_usart.c ****   /* Process Unlocked */
1105:./Libraries/STM32F4xx_HAL_Driver/Src/stm32f4xx_hal_usart.c ****   __HAL_UNLOCK(husart);
 2277              		.loc 1 1105 3 discriminator 2
 2278 002e 7B68     		ldr	r3, [r7, #4]
 2279 0030 0022     		movs	r2, #0
ARM GAS  /tmp/ccIGChKB.s 			page 60


 2280 0032 83F83C20 		strb	r2, [r3, #60]
1106:./Libraries/STM32F4xx_HAL_Driver/Src/stm32f4xx_hal_usart.c **** 
1107:./Libraries/STM32F4xx_HAL_Driver/Src/stm32f4xx_hal_usart.c ****   return HAL_OK;
 2281              		.loc 1 1107 10 discriminator 2
 2282 0036 0023     		movs	r3, #0
 2283              	.L99:
1108:./Libraries/STM32F4xx_HAL_Driver/Src/stm32f4xx_hal_usart.c **** }
 2284              		.loc 1 1108 1
 2285 0038 1846     		mov	r0, r3
 2286 003a 0C37     		adds	r7, r7, #12
 2287              	.LCFI73:
 2288              		.cfi_def_cfa_offset 4
 2289 003c BD46     		mov	sp, r7
 2290              	.LCFI74:
 2291              		.cfi_def_cfa_register 13
 2292              		@ sp needed
 2293 003e 5DF8047B 		ldr	r7, [sp], #4
 2294              	.LCFI75:
 2295              		.cfi_restore 7
 2296              		.cfi_def_cfa_offset 0
 2297 0042 7047     		bx	lr
 2298              		.cfi_endproc
 2299              	.LFE139:
 2301              		.section	.text.HAL_USART_DMAResume,"ax",%progbits
 2302              		.align	1
 2303              		.global	HAL_USART_DMAResume
 2304              		.syntax unified
 2305              		.thumb
 2306              		.thumb_func
 2307              		.fpu fpv4-sp-d16
 2309              	HAL_USART_DMAResume:
 2310              	.LFB140:
1109:./Libraries/STM32F4xx_HAL_Driver/Src/stm32f4xx_hal_usart.c **** 
1110:./Libraries/STM32F4xx_HAL_Driver/Src/stm32f4xx_hal_usart.c **** /**
1111:./Libraries/STM32F4xx_HAL_Driver/Src/stm32f4xx_hal_usart.c ****   * @brief Resumes the DMA Transfer.
1112:./Libraries/STM32F4xx_HAL_Driver/Src/stm32f4xx_hal_usart.c ****   * @param  husart pointer to a USART_HandleTypeDef structure that contains
1113:./Libraries/STM32F4xx_HAL_Driver/Src/stm32f4xx_hal_usart.c ****   *                the configuration information for the specified USART module.
1114:./Libraries/STM32F4xx_HAL_Driver/Src/stm32f4xx_hal_usart.c ****   * @retval HAL status
1115:./Libraries/STM32F4xx_HAL_Driver/Src/stm32f4xx_hal_usart.c ****   */
1116:./Libraries/STM32F4xx_HAL_Driver/Src/stm32f4xx_hal_usart.c **** HAL_StatusTypeDef HAL_USART_DMAResume(USART_HandleTypeDef *husart)
1117:./Libraries/STM32F4xx_HAL_Driver/Src/stm32f4xx_hal_usart.c **** {
 2311              		.loc 1 1117 1
 2312              		.cfi_startproc
 2313              		@ args = 0, pretend = 0, frame = 8
 2314              		@ frame_needed = 1, uses_anonymous_args = 0
 2315              		@ link register save eliminated.
 2316 0000 80B4     		push	{r7}
 2317              	.LCFI76:
 2318              		.cfi_def_cfa_offset 4
 2319              		.cfi_offset 7, -4
 2320 0002 83B0     		sub	sp, sp, #12
 2321              	.LCFI77:
 2322              		.cfi_def_cfa_offset 16
 2323 0004 00AF     		add	r7, sp, #0
 2324              	.LCFI78:
 2325              		.cfi_def_cfa_register 7
 2326 0006 7860     		str	r0, [r7, #4]
ARM GAS  /tmp/ccIGChKB.s 			page 61


1118:./Libraries/STM32F4xx_HAL_Driver/Src/stm32f4xx_hal_usart.c ****   /* Process Locked */
1119:./Libraries/STM32F4xx_HAL_Driver/Src/stm32f4xx_hal_usart.c ****   __HAL_LOCK(husart);
 2327              		.loc 1 1119 3
 2328 0008 7B68     		ldr	r3, [r7, #4]
 2329 000a 93F83C30 		ldrb	r3, [r3, #60]	@ zero_extendqisi2
 2330 000e 012B     		cmp	r3, #1
 2331 0010 01D1     		bne	.L101
 2332              		.loc 1 1119 3 is_stmt 0 discriminator 1
 2333 0012 0223     		movs	r3, #2
 2334 0014 10E0     		b	.L102
 2335              	.L101:
 2336              		.loc 1 1119 3 discriminator 2
 2337 0016 7B68     		ldr	r3, [r7, #4]
 2338 0018 0122     		movs	r2, #1
 2339 001a 83F83C20 		strb	r2, [r3, #60]
1120:./Libraries/STM32F4xx_HAL_Driver/Src/stm32f4xx_hal_usart.c **** 
1121:./Libraries/STM32F4xx_HAL_Driver/Src/stm32f4xx_hal_usart.c ****   /* Enable the USART DMA Tx request */
1122:./Libraries/STM32F4xx_HAL_Driver/Src/stm32f4xx_hal_usart.c ****   SET_BIT(husart->Instance->CR3, USART_CR3_DMAT);
 2340              		.loc 1 1122 3 is_stmt 1 discriminator 2
 2341 001e 7B68     		ldr	r3, [r7, #4]
 2342 0020 1B68     		ldr	r3, [r3]
 2343 0022 5A69     		ldr	r2, [r3, #20]
 2344 0024 7B68     		ldr	r3, [r7, #4]
 2345 0026 1B68     		ldr	r3, [r3]
 2346 0028 42F08002 		orr	r2, r2, #128
 2347 002c 5A61     		str	r2, [r3, #20]
1123:./Libraries/STM32F4xx_HAL_Driver/Src/stm32f4xx_hal_usart.c **** 
1124:./Libraries/STM32F4xx_HAL_Driver/Src/stm32f4xx_hal_usart.c ****   /* Process Unlocked */
1125:./Libraries/STM32F4xx_HAL_Driver/Src/stm32f4xx_hal_usart.c ****   __HAL_UNLOCK(husart);
 2348              		.loc 1 1125 3 discriminator 2
 2349 002e 7B68     		ldr	r3, [r7, #4]
 2350 0030 0022     		movs	r2, #0
 2351 0032 83F83C20 		strb	r2, [r3, #60]
1126:./Libraries/STM32F4xx_HAL_Driver/Src/stm32f4xx_hal_usart.c **** 
1127:./Libraries/STM32F4xx_HAL_Driver/Src/stm32f4xx_hal_usart.c ****   return HAL_OK;
 2352              		.loc 1 1127 10 discriminator 2
 2353 0036 0023     		movs	r3, #0
 2354              	.L102:
1128:./Libraries/STM32F4xx_HAL_Driver/Src/stm32f4xx_hal_usart.c **** }
 2355              		.loc 1 1128 1
 2356 0038 1846     		mov	r0, r3
 2357 003a 0C37     		adds	r7, r7, #12
 2358              	.LCFI79:
 2359              		.cfi_def_cfa_offset 4
 2360 003c BD46     		mov	sp, r7
 2361              	.LCFI80:
 2362              		.cfi_def_cfa_register 13
 2363              		@ sp needed
 2364 003e 5DF8047B 		ldr	r7, [sp], #4
 2365              	.LCFI81:
 2366              		.cfi_restore 7
 2367              		.cfi_def_cfa_offset 0
 2368 0042 7047     		bx	lr
 2369              		.cfi_endproc
 2370              	.LFE140:
 2372              		.section	.text.HAL_USART_DMAStop,"ax",%progbits
 2373              		.align	1
ARM GAS  /tmp/ccIGChKB.s 			page 62


 2374              		.global	HAL_USART_DMAStop
 2375              		.syntax unified
 2376              		.thumb
 2377              		.thumb_func
 2378              		.fpu fpv4-sp-d16
 2380              	HAL_USART_DMAStop:
 2381              	.LFB141:
1129:./Libraries/STM32F4xx_HAL_Driver/Src/stm32f4xx_hal_usart.c **** 
1130:./Libraries/STM32F4xx_HAL_Driver/Src/stm32f4xx_hal_usart.c **** /**
1131:./Libraries/STM32F4xx_HAL_Driver/Src/stm32f4xx_hal_usart.c ****   * @brief Stops the DMA Transfer.
1132:./Libraries/STM32F4xx_HAL_Driver/Src/stm32f4xx_hal_usart.c ****   * @param  husart pointer to a USART_HandleTypeDef structure that contains
1133:./Libraries/STM32F4xx_HAL_Driver/Src/stm32f4xx_hal_usart.c ****   *                the configuration information for the specified USART module.
1134:./Libraries/STM32F4xx_HAL_Driver/Src/stm32f4xx_hal_usart.c ****   * @retval HAL status
1135:./Libraries/STM32F4xx_HAL_Driver/Src/stm32f4xx_hal_usart.c ****   */
1136:./Libraries/STM32F4xx_HAL_Driver/Src/stm32f4xx_hal_usart.c **** HAL_StatusTypeDef HAL_USART_DMAStop(USART_HandleTypeDef *husart)
1137:./Libraries/STM32F4xx_HAL_Driver/Src/stm32f4xx_hal_usart.c **** {
 2382              		.loc 1 1137 1
 2383              		.cfi_startproc
 2384              		@ args = 0, pretend = 0, frame = 16
 2385              		@ frame_needed = 1, uses_anonymous_args = 0
 2386 0000 80B5     		push	{r7, lr}
 2387              	.LCFI82:
 2388              		.cfi_def_cfa_offset 8
 2389              		.cfi_offset 7, -8
 2390              		.cfi_offset 14, -4
 2391 0002 84B0     		sub	sp, sp, #16
 2392              	.LCFI83:
 2393              		.cfi_def_cfa_offset 24
 2394 0004 00AF     		add	r7, sp, #0
 2395              	.LCFI84:
 2396              		.cfi_def_cfa_register 7
 2397 0006 7860     		str	r0, [r7, #4]
1138:./Libraries/STM32F4xx_HAL_Driver/Src/stm32f4xx_hal_usart.c ****   uint32_t dmarequest = 0x00U;
 2398              		.loc 1 1138 12
 2399 0008 0023     		movs	r3, #0
 2400 000a FB60     		str	r3, [r7, #12]
1139:./Libraries/STM32F4xx_HAL_Driver/Src/stm32f4xx_hal_usart.c ****   /* The Lock is not implemented on this API to allow the user application
1140:./Libraries/STM32F4xx_HAL_Driver/Src/stm32f4xx_hal_usart.c ****      to call the HAL USART API under callbacks HAL_USART_TxCpltCallback() / HAL_USART_RxCpltCallbac
1141:./Libraries/STM32F4xx_HAL_Driver/Src/stm32f4xx_hal_usart.c ****      when calling HAL_DMA_Abort() API the DMA TX/RX Transfer complete interrupt is generated
1142:./Libraries/STM32F4xx_HAL_Driver/Src/stm32f4xx_hal_usart.c ****      and the correspond call back is executed HAL_USART_TxCpltCallback() / HAL_USART_RxCpltCallback
1143:./Libraries/STM32F4xx_HAL_Driver/Src/stm32f4xx_hal_usart.c ****      */
1144:./Libraries/STM32F4xx_HAL_Driver/Src/stm32f4xx_hal_usart.c **** 
1145:./Libraries/STM32F4xx_HAL_Driver/Src/stm32f4xx_hal_usart.c ****   /* Stop USART DMA Tx request if ongoing */
1146:./Libraries/STM32F4xx_HAL_Driver/Src/stm32f4xx_hal_usart.c ****   dmarequest = HAL_IS_BIT_SET(husart->Instance->CR3, USART_CR3_DMAT);
 2401              		.loc 1 1146 16
 2402 000c 7B68     		ldr	r3, [r7, #4]
 2403 000e 1B68     		ldr	r3, [r3]
 2404 0010 5B69     		ldr	r3, [r3, #20]
 2405 0012 03F08003 		and	r3, r3, #128
 2406 0016 002B     		cmp	r3, #0
 2407 0018 14BF     		ite	ne
 2408 001a 0123     		movne	r3, #1
 2409 001c 0023     		moveq	r3, #0
 2410 001e DBB2     		uxtb	r3, r3
 2411              		.loc 1 1146 14
 2412 0020 FB60     		str	r3, [r7, #12]
1147:./Libraries/STM32F4xx_HAL_Driver/Src/stm32f4xx_hal_usart.c ****   if((husart->State == HAL_USART_STATE_BUSY_TX) && dmarequest)
ARM GAS  /tmp/ccIGChKB.s 			page 63


 2413              		.loc 1 1147 13
 2414 0022 7B68     		ldr	r3, [r7, #4]
 2415 0024 93F83D30 		ldrb	r3, [r3, #61]
 2416 0028 DBB2     		uxtb	r3, r3
 2417              		.loc 1 1147 5
 2418 002a 122B     		cmp	r3, #18
 2419 002c 16D1     		bne	.L104
 2420              		.loc 1 1147 49 discriminator 1
 2421 002e FB68     		ldr	r3, [r7, #12]
 2422 0030 002B     		cmp	r3, #0
 2423 0032 13D0     		beq	.L104
1148:./Libraries/STM32F4xx_HAL_Driver/Src/stm32f4xx_hal_usart.c ****   {
1149:./Libraries/STM32F4xx_HAL_Driver/Src/stm32f4xx_hal_usart.c ****     USART_EndTxTransfer(husart);
 2424              		.loc 1 1149 5
 2425 0034 7868     		ldr	r0, [r7, #4]
 2426 0036 FFF7FEFF 		bl	USART_EndTxTransfer
1150:./Libraries/STM32F4xx_HAL_Driver/Src/stm32f4xx_hal_usart.c **** 
1151:./Libraries/STM32F4xx_HAL_Driver/Src/stm32f4xx_hal_usart.c ****     /* Abort the USART DMA Tx channel */
1152:./Libraries/STM32F4xx_HAL_Driver/Src/stm32f4xx_hal_usart.c ****     if(husart->hdmatx != NULL)
 2427              		.loc 1 1152 14
 2428 003a 7B68     		ldr	r3, [r7, #4]
 2429 003c 5B6B     		ldr	r3, [r3, #52]
 2430              		.loc 1 1152 7
 2431 003e 002B     		cmp	r3, #0
 2432 0040 04D0     		beq	.L105
1153:./Libraries/STM32F4xx_HAL_Driver/Src/stm32f4xx_hal_usart.c ****     {
1154:./Libraries/STM32F4xx_HAL_Driver/Src/stm32f4xx_hal_usart.c ****       HAL_DMA_Abort(husart->hdmatx);
 2433              		.loc 1 1154 7
 2434 0042 7B68     		ldr	r3, [r7, #4]
 2435 0044 5B6B     		ldr	r3, [r3, #52]
 2436 0046 1846     		mov	r0, r3
 2437 0048 FFF7FEFF 		bl	HAL_DMA_Abort
 2438              	.L105:
1155:./Libraries/STM32F4xx_HAL_Driver/Src/stm32f4xx_hal_usart.c ****     }
1156:./Libraries/STM32F4xx_HAL_Driver/Src/stm32f4xx_hal_usart.c **** 
1157:./Libraries/STM32F4xx_HAL_Driver/Src/stm32f4xx_hal_usart.c ****     /* Disable the USART Tx DMA request */
1158:./Libraries/STM32F4xx_HAL_Driver/Src/stm32f4xx_hal_usart.c ****     CLEAR_BIT(husart->Instance->CR3, USART_CR3_DMAT);
 2439              		.loc 1 1158 5
 2440 004c 7B68     		ldr	r3, [r7, #4]
 2441 004e 1B68     		ldr	r3, [r3]
 2442 0050 5A69     		ldr	r2, [r3, #20]
 2443 0052 7B68     		ldr	r3, [r7, #4]
 2444 0054 1B68     		ldr	r3, [r3]
 2445 0056 22F08002 		bic	r2, r2, #128
 2446 005a 5A61     		str	r2, [r3, #20]
 2447              	.L104:
1159:./Libraries/STM32F4xx_HAL_Driver/Src/stm32f4xx_hal_usart.c ****   }
1160:./Libraries/STM32F4xx_HAL_Driver/Src/stm32f4xx_hal_usart.c **** 
1161:./Libraries/STM32F4xx_HAL_Driver/Src/stm32f4xx_hal_usart.c ****   /* Stop USART DMA Rx request if ongoing */
1162:./Libraries/STM32F4xx_HAL_Driver/Src/stm32f4xx_hal_usart.c ****   dmarequest = HAL_IS_BIT_SET(husart->Instance->CR3, USART_CR3_DMAR);
 2448              		.loc 1 1162 16
 2449 005c 7B68     		ldr	r3, [r7, #4]
 2450 005e 1B68     		ldr	r3, [r3]
 2451 0060 5B69     		ldr	r3, [r3, #20]
 2452 0062 03F04003 		and	r3, r3, #64
 2453 0066 002B     		cmp	r3, #0
 2454 0068 14BF     		ite	ne
ARM GAS  /tmp/ccIGChKB.s 			page 64


 2455 006a 0123     		movne	r3, #1
 2456 006c 0023     		moveq	r3, #0
 2457 006e DBB2     		uxtb	r3, r3
 2458              		.loc 1 1162 14
 2459 0070 FB60     		str	r3, [r7, #12]
1163:./Libraries/STM32F4xx_HAL_Driver/Src/stm32f4xx_hal_usart.c ****   if((husart->State == HAL_USART_STATE_BUSY_RX) && dmarequest)
 2460              		.loc 1 1163 13
 2461 0072 7B68     		ldr	r3, [r7, #4]
 2462 0074 93F83D30 		ldrb	r3, [r3, #61]
 2463 0078 DBB2     		uxtb	r3, r3
 2464              		.loc 1 1163 5
 2465 007a 222B     		cmp	r3, #34
 2466 007c 16D1     		bne	.L106
 2467              		.loc 1 1163 49 discriminator 1
 2468 007e FB68     		ldr	r3, [r7, #12]
 2469 0080 002B     		cmp	r3, #0
 2470 0082 13D0     		beq	.L106
1164:./Libraries/STM32F4xx_HAL_Driver/Src/stm32f4xx_hal_usart.c ****   {
1165:./Libraries/STM32F4xx_HAL_Driver/Src/stm32f4xx_hal_usart.c ****     USART_EndRxTransfer(husart);
 2471              		.loc 1 1165 5
 2472 0084 7868     		ldr	r0, [r7, #4]
 2473 0086 FFF7FEFF 		bl	USART_EndRxTransfer
1166:./Libraries/STM32F4xx_HAL_Driver/Src/stm32f4xx_hal_usart.c **** 
1167:./Libraries/STM32F4xx_HAL_Driver/Src/stm32f4xx_hal_usart.c ****     /* Abort the USART DMA Rx channel */
1168:./Libraries/STM32F4xx_HAL_Driver/Src/stm32f4xx_hal_usart.c ****     if(husart->hdmarx != NULL)
 2474              		.loc 1 1168 14
 2475 008a 7B68     		ldr	r3, [r7, #4]
 2476 008c 9B6B     		ldr	r3, [r3, #56]
 2477              		.loc 1 1168 7
 2478 008e 002B     		cmp	r3, #0
 2479 0090 04D0     		beq	.L107
1169:./Libraries/STM32F4xx_HAL_Driver/Src/stm32f4xx_hal_usart.c ****     {
1170:./Libraries/STM32F4xx_HAL_Driver/Src/stm32f4xx_hal_usart.c ****       HAL_DMA_Abort(husart->hdmarx);
 2480              		.loc 1 1170 7
 2481 0092 7B68     		ldr	r3, [r7, #4]
 2482 0094 9B6B     		ldr	r3, [r3, #56]
 2483 0096 1846     		mov	r0, r3
 2484 0098 FFF7FEFF 		bl	HAL_DMA_Abort
 2485              	.L107:
1171:./Libraries/STM32F4xx_HAL_Driver/Src/stm32f4xx_hal_usart.c ****     }
1172:./Libraries/STM32F4xx_HAL_Driver/Src/stm32f4xx_hal_usart.c **** 
1173:./Libraries/STM32F4xx_HAL_Driver/Src/stm32f4xx_hal_usart.c ****     /* Disable the USART Rx DMA request */
1174:./Libraries/STM32F4xx_HAL_Driver/Src/stm32f4xx_hal_usart.c ****     CLEAR_BIT(husart->Instance->CR3, USART_CR3_DMAR);
 2486              		.loc 1 1174 5
 2487 009c 7B68     		ldr	r3, [r7, #4]
 2488 009e 1B68     		ldr	r3, [r3]
 2489 00a0 5A69     		ldr	r2, [r3, #20]
 2490 00a2 7B68     		ldr	r3, [r7, #4]
 2491 00a4 1B68     		ldr	r3, [r3]
 2492 00a6 22F04002 		bic	r2, r2, #64
 2493 00aa 5A61     		str	r2, [r3, #20]
 2494              	.L106:
1175:./Libraries/STM32F4xx_HAL_Driver/Src/stm32f4xx_hal_usart.c ****   }
1176:./Libraries/STM32F4xx_HAL_Driver/Src/stm32f4xx_hal_usart.c **** 
1177:./Libraries/STM32F4xx_HAL_Driver/Src/stm32f4xx_hal_usart.c ****   return HAL_OK;
 2495              		.loc 1 1177 10
 2496 00ac 0023     		movs	r3, #0
ARM GAS  /tmp/ccIGChKB.s 			page 65


1178:./Libraries/STM32F4xx_HAL_Driver/Src/stm32f4xx_hal_usart.c **** }
 2497              		.loc 1 1178 1
 2498 00ae 1846     		mov	r0, r3
 2499 00b0 1037     		adds	r7, r7, #16
 2500              	.LCFI85:
 2501              		.cfi_def_cfa_offset 8
 2502 00b2 BD46     		mov	sp, r7
 2503              	.LCFI86:
 2504              		.cfi_def_cfa_register 13
 2505              		@ sp needed
 2506 00b4 80BD     		pop	{r7, pc}
 2507              		.cfi_endproc
 2508              	.LFE141:
 2510              		.section	.text.HAL_USART_Abort,"ax",%progbits
 2511              		.align	1
 2512              		.global	HAL_USART_Abort
 2513              		.syntax unified
 2514              		.thumb
 2515              		.thumb_func
 2516              		.fpu fpv4-sp-d16
 2518              	HAL_USART_Abort:
 2519              	.LFB142:
1179:./Libraries/STM32F4xx_HAL_Driver/Src/stm32f4xx_hal_usart.c **** 
1180:./Libraries/STM32F4xx_HAL_Driver/Src/stm32f4xx_hal_usart.c **** /**
1181:./Libraries/STM32F4xx_HAL_Driver/Src/stm32f4xx_hal_usart.c ****   * @brief  Abort ongoing transfer (blocking mode).
1182:./Libraries/STM32F4xx_HAL_Driver/Src/stm32f4xx_hal_usart.c ****   * @param  husart USART handle.
1183:./Libraries/STM32F4xx_HAL_Driver/Src/stm32f4xx_hal_usart.c ****   * @note   This procedure could be used for aborting any ongoing transfer (either Tx or Rx,
1184:./Libraries/STM32F4xx_HAL_Driver/Src/stm32f4xx_hal_usart.c ****   *         as described by TransferType parameter) started in Interrupt or DMA mode.
1185:./Libraries/STM32F4xx_HAL_Driver/Src/stm32f4xx_hal_usart.c ****   *         This procedure performs following operations :
1186:./Libraries/STM32F4xx_HAL_Driver/Src/stm32f4xx_hal_usart.c ****   *           - Disable PPP Interrupts (depending of transfer direction)
1187:./Libraries/STM32F4xx_HAL_Driver/Src/stm32f4xx_hal_usart.c ****   *           - Disable the DMA transfer in the peripheral register (if enabled)
1188:./Libraries/STM32F4xx_HAL_Driver/Src/stm32f4xx_hal_usart.c ****   *           - Abort DMA transfer by calling HAL_DMA_Abort (in case of transfer in DMA mode)
1189:./Libraries/STM32F4xx_HAL_Driver/Src/stm32f4xx_hal_usart.c ****   *           - Set handle State to READY
1190:./Libraries/STM32F4xx_HAL_Driver/Src/stm32f4xx_hal_usart.c ****   * @note   This procedure is executed in blocking mode : when exiting function, Abort is considere
1191:./Libraries/STM32F4xx_HAL_Driver/Src/stm32f4xx_hal_usart.c ****   * @retval HAL status
1192:./Libraries/STM32F4xx_HAL_Driver/Src/stm32f4xx_hal_usart.c **** */
1193:./Libraries/STM32F4xx_HAL_Driver/Src/stm32f4xx_hal_usart.c **** HAL_StatusTypeDef HAL_USART_Abort(USART_HandleTypeDef *husart)
1194:./Libraries/STM32F4xx_HAL_Driver/Src/stm32f4xx_hal_usart.c **** {
 2520              		.loc 1 1194 1
 2521              		.cfi_startproc
 2522              		@ args = 0, pretend = 0, frame = 8
 2523              		@ frame_needed = 1, uses_anonymous_args = 0
 2524 0000 80B5     		push	{r7, lr}
 2525              	.LCFI87:
 2526              		.cfi_def_cfa_offset 8
 2527              		.cfi_offset 7, -8
 2528              		.cfi_offset 14, -4
 2529 0002 82B0     		sub	sp, sp, #8
 2530              	.LCFI88:
 2531              		.cfi_def_cfa_offset 16
 2532 0004 00AF     		add	r7, sp, #0
 2533              	.LCFI89:
 2534              		.cfi_def_cfa_register 7
 2535 0006 7860     		str	r0, [r7, #4]
1195:./Libraries/STM32F4xx_HAL_Driver/Src/stm32f4xx_hal_usart.c ****   /* Disable TXEIE, TCIE, RXNE, PE and ERR (Frame error, noise error, overrun error) interrupts */
1196:./Libraries/STM32F4xx_HAL_Driver/Src/stm32f4xx_hal_usart.c ****   CLEAR_BIT(husart->Instance->CR1, (USART_CR1_RXNEIE | USART_CR1_PEIE | USART_CR1_TXEIE | USART_CR1
 2536              		.loc 1 1196 3
ARM GAS  /tmp/ccIGChKB.s 			page 66


 2537 0008 7B68     		ldr	r3, [r7, #4]
 2538 000a 1B68     		ldr	r3, [r3]
 2539 000c DA68     		ldr	r2, [r3, #12]
 2540 000e 7B68     		ldr	r3, [r7, #4]
 2541 0010 1B68     		ldr	r3, [r3]
 2542 0012 22F4F072 		bic	r2, r2, #480
 2543 0016 DA60     		str	r2, [r3, #12]
1197:./Libraries/STM32F4xx_HAL_Driver/Src/stm32f4xx_hal_usart.c ****   CLEAR_BIT(husart->Instance->CR3, USART_CR3_EIE);
 2544              		.loc 1 1197 3
 2545 0018 7B68     		ldr	r3, [r7, #4]
 2546 001a 1B68     		ldr	r3, [r3]
 2547 001c 5A69     		ldr	r2, [r3, #20]
 2548 001e 7B68     		ldr	r3, [r7, #4]
 2549 0020 1B68     		ldr	r3, [r3]
 2550 0022 22F00102 		bic	r2, r2, #1
 2551 0026 5A61     		str	r2, [r3, #20]
1198:./Libraries/STM32F4xx_HAL_Driver/Src/stm32f4xx_hal_usart.c **** 
1199:./Libraries/STM32F4xx_HAL_Driver/Src/stm32f4xx_hal_usart.c ****   /* Disable the USART DMA Tx request if enabled */
1200:./Libraries/STM32F4xx_HAL_Driver/Src/stm32f4xx_hal_usart.c ****   if(HAL_IS_BIT_SET(husart->Instance->CR3, USART_CR3_DMAT))
 2552              		.loc 1 1200 6
 2553 0028 7B68     		ldr	r3, [r7, #4]
 2554 002a 1B68     		ldr	r3, [r3]
 2555 002c 5B69     		ldr	r3, [r3, #20]
 2556 002e 03F08003 		and	r3, r3, #128
 2557              		.loc 1 1200 5
 2558 0032 002B     		cmp	r3, #0
 2559 0034 14D0     		beq	.L110
1201:./Libraries/STM32F4xx_HAL_Driver/Src/stm32f4xx_hal_usart.c ****   {
1202:./Libraries/STM32F4xx_HAL_Driver/Src/stm32f4xx_hal_usart.c ****     CLEAR_BIT(husart->Instance->CR3, USART_CR3_DMAT);
 2560              		.loc 1 1202 5
 2561 0036 7B68     		ldr	r3, [r7, #4]
 2562 0038 1B68     		ldr	r3, [r3]
 2563 003a 5A69     		ldr	r2, [r3, #20]
 2564 003c 7B68     		ldr	r3, [r7, #4]
 2565 003e 1B68     		ldr	r3, [r3]
 2566 0040 22F08002 		bic	r2, r2, #128
 2567 0044 5A61     		str	r2, [r3, #20]
1203:./Libraries/STM32F4xx_HAL_Driver/Src/stm32f4xx_hal_usart.c **** 
1204:./Libraries/STM32F4xx_HAL_Driver/Src/stm32f4xx_hal_usart.c ****     /* Abort the USART DMA Tx channel : use blocking DMA Abort API (no callback) */
1205:./Libraries/STM32F4xx_HAL_Driver/Src/stm32f4xx_hal_usart.c ****     if(husart->hdmatx != NULL)
 2568              		.loc 1 1205 14
 2569 0046 7B68     		ldr	r3, [r7, #4]
 2570 0048 5B6B     		ldr	r3, [r3, #52]
 2571              		.loc 1 1205 7
 2572 004a 002B     		cmp	r3, #0
 2573 004c 08D0     		beq	.L110
1206:./Libraries/STM32F4xx_HAL_Driver/Src/stm32f4xx_hal_usart.c ****     {
1207:./Libraries/STM32F4xx_HAL_Driver/Src/stm32f4xx_hal_usart.c ****       /* Set the USART DMA Abort callback to Null. 
1208:./Libraries/STM32F4xx_HAL_Driver/Src/stm32f4xx_hal_usart.c ****          No call back execution at end of DMA abort procedure */
1209:./Libraries/STM32F4xx_HAL_Driver/Src/stm32f4xx_hal_usart.c ****       husart->hdmatx->XferAbortCallback = NULL;
 2574              		.loc 1 1209 13
 2575 004e 7B68     		ldr	r3, [r7, #4]
 2576 0050 5B6B     		ldr	r3, [r3, #52]
 2577              		.loc 1 1209 41
 2578 0052 0022     		movs	r2, #0
 2579 0054 1A65     		str	r2, [r3, #80]
1210:./Libraries/STM32F4xx_HAL_Driver/Src/stm32f4xx_hal_usart.c **** 
ARM GAS  /tmp/ccIGChKB.s 			page 67


1211:./Libraries/STM32F4xx_HAL_Driver/Src/stm32f4xx_hal_usart.c ****       HAL_DMA_Abort(husart->hdmatx);
 2580              		.loc 1 1211 7
 2581 0056 7B68     		ldr	r3, [r7, #4]
 2582 0058 5B6B     		ldr	r3, [r3, #52]
 2583 005a 1846     		mov	r0, r3
 2584 005c FFF7FEFF 		bl	HAL_DMA_Abort
 2585              	.L110:
1212:./Libraries/STM32F4xx_HAL_Driver/Src/stm32f4xx_hal_usart.c ****     }
1213:./Libraries/STM32F4xx_HAL_Driver/Src/stm32f4xx_hal_usart.c ****   }
1214:./Libraries/STM32F4xx_HAL_Driver/Src/stm32f4xx_hal_usart.c **** 
1215:./Libraries/STM32F4xx_HAL_Driver/Src/stm32f4xx_hal_usart.c ****   /* Disable the USART DMA Rx request if enabled */
1216:./Libraries/STM32F4xx_HAL_Driver/Src/stm32f4xx_hal_usart.c ****   if(HAL_IS_BIT_SET(husart->Instance->CR3, USART_CR3_DMAR))
 2586              		.loc 1 1216 6
 2587 0060 7B68     		ldr	r3, [r7, #4]
 2588 0062 1B68     		ldr	r3, [r3]
 2589 0064 5B69     		ldr	r3, [r3, #20]
 2590 0066 03F04003 		and	r3, r3, #64
 2591              		.loc 1 1216 5
 2592 006a 002B     		cmp	r3, #0
 2593 006c 14D0     		beq	.L111
1217:./Libraries/STM32F4xx_HAL_Driver/Src/stm32f4xx_hal_usart.c ****   {
1218:./Libraries/STM32F4xx_HAL_Driver/Src/stm32f4xx_hal_usart.c ****     CLEAR_BIT(husart->Instance->CR3, USART_CR3_DMAR);
 2594              		.loc 1 1218 5
 2595 006e 7B68     		ldr	r3, [r7, #4]
 2596 0070 1B68     		ldr	r3, [r3]
 2597 0072 5A69     		ldr	r2, [r3, #20]
 2598 0074 7B68     		ldr	r3, [r7, #4]
 2599 0076 1B68     		ldr	r3, [r3]
 2600 0078 22F04002 		bic	r2, r2, #64
 2601 007c 5A61     		str	r2, [r3, #20]
1219:./Libraries/STM32F4xx_HAL_Driver/Src/stm32f4xx_hal_usart.c **** 
1220:./Libraries/STM32F4xx_HAL_Driver/Src/stm32f4xx_hal_usart.c ****     /* Abort the USART DMA Rx channel : use blocking DMA Abort API (no callback) */
1221:./Libraries/STM32F4xx_HAL_Driver/Src/stm32f4xx_hal_usart.c ****     if(husart->hdmarx != NULL)
 2602              		.loc 1 1221 14
 2603 007e 7B68     		ldr	r3, [r7, #4]
 2604 0080 9B6B     		ldr	r3, [r3, #56]
 2605              		.loc 1 1221 7
 2606 0082 002B     		cmp	r3, #0
 2607 0084 08D0     		beq	.L111
1222:./Libraries/STM32F4xx_HAL_Driver/Src/stm32f4xx_hal_usart.c ****     {
1223:./Libraries/STM32F4xx_HAL_Driver/Src/stm32f4xx_hal_usart.c ****       /* Set the USART DMA Abort callback to Null. 
1224:./Libraries/STM32F4xx_HAL_Driver/Src/stm32f4xx_hal_usart.c ****          No call back execution at end of DMA abort procedure */
1225:./Libraries/STM32F4xx_HAL_Driver/Src/stm32f4xx_hal_usart.c ****       husart->hdmarx->XferAbortCallback = NULL;
 2608              		.loc 1 1225 13
 2609 0086 7B68     		ldr	r3, [r7, #4]
 2610 0088 9B6B     		ldr	r3, [r3, #56]
 2611              		.loc 1 1225 41
 2612 008a 0022     		movs	r2, #0
 2613 008c 1A65     		str	r2, [r3, #80]
1226:./Libraries/STM32F4xx_HAL_Driver/Src/stm32f4xx_hal_usart.c **** 
1227:./Libraries/STM32F4xx_HAL_Driver/Src/stm32f4xx_hal_usart.c ****       HAL_DMA_Abort(husart->hdmarx);
 2614              		.loc 1 1227 7
 2615 008e 7B68     		ldr	r3, [r7, #4]
 2616 0090 9B6B     		ldr	r3, [r3, #56]
 2617 0092 1846     		mov	r0, r3
 2618 0094 FFF7FEFF 		bl	HAL_DMA_Abort
 2619              	.L111:
ARM GAS  /tmp/ccIGChKB.s 			page 68


1228:./Libraries/STM32F4xx_HAL_Driver/Src/stm32f4xx_hal_usart.c ****     }
1229:./Libraries/STM32F4xx_HAL_Driver/Src/stm32f4xx_hal_usart.c ****   }
1230:./Libraries/STM32F4xx_HAL_Driver/Src/stm32f4xx_hal_usart.c **** 
1231:./Libraries/STM32F4xx_HAL_Driver/Src/stm32f4xx_hal_usart.c ****   /* Reset Tx and Rx transfer counters */
1232:./Libraries/STM32F4xx_HAL_Driver/Src/stm32f4xx_hal_usart.c ****   husart->TxXferCount = 0x00U; 
 2620              		.loc 1 1232 23
 2621 0098 7B68     		ldr	r3, [r7, #4]
 2622 009a 0022     		movs	r2, #0
 2623 009c 5A85     		strh	r2, [r3, #42]	@ movhi
1233:./Libraries/STM32F4xx_HAL_Driver/Src/stm32f4xx_hal_usart.c ****   husart->RxXferCount = 0x00U; 
 2624              		.loc 1 1233 23
 2625 009e 7B68     		ldr	r3, [r7, #4]
 2626 00a0 0022     		movs	r2, #0
 2627 00a2 5A86     		strh	r2, [r3, #50]	@ movhi
1234:./Libraries/STM32F4xx_HAL_Driver/Src/stm32f4xx_hal_usart.c **** 
1235:./Libraries/STM32F4xx_HAL_Driver/Src/stm32f4xx_hal_usart.c ****   /* Restore husart->State to Ready */
1236:./Libraries/STM32F4xx_HAL_Driver/Src/stm32f4xx_hal_usart.c ****   husart->State  = HAL_USART_STATE_READY;
 2628              		.loc 1 1236 18
 2629 00a4 7B68     		ldr	r3, [r7, #4]
 2630 00a6 0122     		movs	r2, #1
 2631 00a8 83F83D20 		strb	r2, [r3, #61]
1237:./Libraries/STM32F4xx_HAL_Driver/Src/stm32f4xx_hal_usart.c **** 
1238:./Libraries/STM32F4xx_HAL_Driver/Src/stm32f4xx_hal_usart.c ****   /* Reset Handle ErrorCode to No Error */
1239:./Libraries/STM32F4xx_HAL_Driver/Src/stm32f4xx_hal_usart.c ****   husart->ErrorCode = HAL_USART_ERROR_NONE;
 2632              		.loc 1 1239 21
 2633 00ac 7B68     		ldr	r3, [r7, #4]
 2634 00ae 0022     		movs	r2, #0
 2635 00b0 1A64     		str	r2, [r3, #64]
1240:./Libraries/STM32F4xx_HAL_Driver/Src/stm32f4xx_hal_usart.c **** 
1241:./Libraries/STM32F4xx_HAL_Driver/Src/stm32f4xx_hal_usart.c ****   return HAL_OK;
 2636              		.loc 1 1241 10
 2637 00b2 0023     		movs	r3, #0
1242:./Libraries/STM32F4xx_HAL_Driver/Src/stm32f4xx_hal_usart.c **** }
 2638              		.loc 1 1242 1
 2639 00b4 1846     		mov	r0, r3
 2640 00b6 0837     		adds	r7, r7, #8
 2641              	.LCFI90:
 2642              		.cfi_def_cfa_offset 8
 2643 00b8 BD46     		mov	sp, r7
 2644              	.LCFI91:
 2645              		.cfi_def_cfa_register 13
 2646              		@ sp needed
 2647 00ba 80BD     		pop	{r7, pc}
 2648              		.cfi_endproc
 2649              	.LFE142:
 2651              		.section	.text.HAL_USART_Abort_IT,"ax",%progbits
 2652              		.align	1
 2653              		.global	HAL_USART_Abort_IT
 2654              		.syntax unified
 2655              		.thumb
 2656              		.thumb_func
 2657              		.fpu fpv4-sp-d16
 2659              	HAL_USART_Abort_IT:
 2660              	.LFB143:
1243:./Libraries/STM32F4xx_HAL_Driver/Src/stm32f4xx_hal_usart.c **** 
1244:./Libraries/STM32F4xx_HAL_Driver/Src/stm32f4xx_hal_usart.c **** /**
1245:./Libraries/STM32F4xx_HAL_Driver/Src/stm32f4xx_hal_usart.c ****   * @brief  Abort ongoing transfer (Interrupt mode).
ARM GAS  /tmp/ccIGChKB.s 			page 69


1246:./Libraries/STM32F4xx_HAL_Driver/Src/stm32f4xx_hal_usart.c ****   * @param  husart USART handle.
1247:./Libraries/STM32F4xx_HAL_Driver/Src/stm32f4xx_hal_usart.c ****   * @note   This procedure could be used for aborting any ongoing transfer (either Tx or Rx,
1248:./Libraries/STM32F4xx_HAL_Driver/Src/stm32f4xx_hal_usart.c ****   *         as described by TransferType parameter) started in Interrupt or DMA mode.
1249:./Libraries/STM32F4xx_HAL_Driver/Src/stm32f4xx_hal_usart.c ****   *         This procedure performs following operations :
1250:./Libraries/STM32F4xx_HAL_Driver/Src/stm32f4xx_hal_usart.c ****   *           - Disable PPP Interrupts (depending of transfer direction)
1251:./Libraries/STM32F4xx_HAL_Driver/Src/stm32f4xx_hal_usart.c ****   *           - Disable the DMA transfer in the peripheral register (if enabled)
1252:./Libraries/STM32F4xx_HAL_Driver/Src/stm32f4xx_hal_usart.c ****   *           - Abort DMA transfer by calling HAL_DMA_Abort_IT (in case of transfer in DMA mode)
1253:./Libraries/STM32F4xx_HAL_Driver/Src/stm32f4xx_hal_usart.c ****   *           - Set handle State to READY
1254:./Libraries/STM32F4xx_HAL_Driver/Src/stm32f4xx_hal_usart.c ****   *           - At abort completion, call user abort complete callback
1255:./Libraries/STM32F4xx_HAL_Driver/Src/stm32f4xx_hal_usart.c ****   * @note   This procedure is executed in Interrupt mode, meaning that abort procedure could be
1256:./Libraries/STM32F4xx_HAL_Driver/Src/stm32f4xx_hal_usart.c ****   *         considered as completed only when user abort complete callback is executed (not when ex
1257:./Libraries/STM32F4xx_HAL_Driver/Src/stm32f4xx_hal_usart.c ****   * @retval HAL status
1258:./Libraries/STM32F4xx_HAL_Driver/Src/stm32f4xx_hal_usart.c **** */
1259:./Libraries/STM32F4xx_HAL_Driver/Src/stm32f4xx_hal_usart.c **** HAL_StatusTypeDef HAL_USART_Abort_IT(USART_HandleTypeDef *husart)
1260:./Libraries/STM32F4xx_HAL_Driver/Src/stm32f4xx_hal_usart.c **** {
 2661              		.loc 1 1260 1
 2662              		.cfi_startproc
 2663              		@ args = 0, pretend = 0, frame = 16
 2664              		@ frame_needed = 1, uses_anonymous_args = 0
 2665 0000 80B5     		push	{r7, lr}
 2666              	.LCFI92:
 2667              		.cfi_def_cfa_offset 8
 2668              		.cfi_offset 7, -8
 2669              		.cfi_offset 14, -4
 2670 0002 84B0     		sub	sp, sp, #16
 2671              	.LCFI93:
 2672              		.cfi_def_cfa_offset 24
 2673 0004 00AF     		add	r7, sp, #0
 2674              	.LCFI94:
 2675              		.cfi_def_cfa_register 7
 2676 0006 7860     		str	r0, [r7, #4]
1261:./Libraries/STM32F4xx_HAL_Driver/Src/stm32f4xx_hal_usart.c ****   uint32_t AbortCplt = 0x01U;
 2677              		.loc 1 1261 12
 2678 0008 0123     		movs	r3, #1
 2679 000a FB60     		str	r3, [r7, #12]
1262:./Libraries/STM32F4xx_HAL_Driver/Src/stm32f4xx_hal_usart.c ****   
1263:./Libraries/STM32F4xx_HAL_Driver/Src/stm32f4xx_hal_usart.c ****   /* Disable TXEIE, TCIE, RXNE, PE and ERR (Frame error, noise error, overrun error) interrupts */
1264:./Libraries/STM32F4xx_HAL_Driver/Src/stm32f4xx_hal_usart.c ****   CLEAR_BIT(husart->Instance->CR1, (USART_CR1_RXNEIE | USART_CR1_PEIE | USART_CR1_TXEIE | USART_CR1
 2680              		.loc 1 1264 3
 2681 000c 7B68     		ldr	r3, [r7, #4]
 2682 000e 1B68     		ldr	r3, [r3]
 2683 0010 DA68     		ldr	r2, [r3, #12]
 2684 0012 7B68     		ldr	r3, [r7, #4]
 2685 0014 1B68     		ldr	r3, [r3]
 2686 0016 22F4F072 		bic	r2, r2, #480
 2687 001a DA60     		str	r2, [r3, #12]
1265:./Libraries/STM32F4xx_HAL_Driver/Src/stm32f4xx_hal_usart.c ****   CLEAR_BIT(husart->Instance->CR3, USART_CR3_EIE);
 2688              		.loc 1 1265 3
 2689 001c 7B68     		ldr	r3, [r7, #4]
 2690 001e 1B68     		ldr	r3, [r3]
 2691 0020 5A69     		ldr	r2, [r3, #20]
 2692 0022 7B68     		ldr	r3, [r7, #4]
 2693 0024 1B68     		ldr	r3, [r3]
 2694 0026 22F00102 		bic	r2, r2, #1
 2695 002a 5A61     		str	r2, [r3, #20]
1266:./Libraries/STM32F4xx_HAL_Driver/Src/stm32f4xx_hal_usart.c **** 
1267:./Libraries/STM32F4xx_HAL_Driver/Src/stm32f4xx_hal_usart.c ****   /* If DMA Tx and/or DMA Rx Handles are associated to USART Handle, DMA Abort complete callbacks s
ARM GAS  /tmp/ccIGChKB.s 			page 70


1268:./Libraries/STM32F4xx_HAL_Driver/Src/stm32f4xx_hal_usart.c ****      before any call to DMA Abort functions */
1269:./Libraries/STM32F4xx_HAL_Driver/Src/stm32f4xx_hal_usart.c ****   /* DMA Tx Handle is valid */
1270:./Libraries/STM32F4xx_HAL_Driver/Src/stm32f4xx_hal_usart.c ****   if(husart->hdmatx != NULL)
 2696              		.loc 1 1270 12
 2697 002c 7B68     		ldr	r3, [r7, #4]
 2698 002e 5B6B     		ldr	r3, [r3, #52]
 2699              		.loc 1 1270 5
 2700 0030 002B     		cmp	r3, #0
 2701 0032 0FD0     		beq	.L114
1271:./Libraries/STM32F4xx_HAL_Driver/Src/stm32f4xx_hal_usart.c ****   {
1272:./Libraries/STM32F4xx_HAL_Driver/Src/stm32f4xx_hal_usart.c ****     /* Set DMA Abort Complete callback if USART DMA Tx request if enabled.
1273:./Libraries/STM32F4xx_HAL_Driver/Src/stm32f4xx_hal_usart.c ****        Otherwise, set it to NULL */
1274:./Libraries/STM32F4xx_HAL_Driver/Src/stm32f4xx_hal_usart.c ****     if(HAL_IS_BIT_SET(husart->Instance->CR3, USART_CR3_DMAT))
 2702              		.loc 1 1274 8
 2703 0034 7B68     		ldr	r3, [r7, #4]
 2704 0036 1B68     		ldr	r3, [r3]
 2705 0038 5B69     		ldr	r3, [r3, #20]
 2706 003a 03F08003 		and	r3, r3, #128
 2707              		.loc 1 1274 7
 2708 003e 002B     		cmp	r3, #0
 2709 0040 04D0     		beq	.L115
1275:./Libraries/STM32F4xx_HAL_Driver/Src/stm32f4xx_hal_usart.c ****     {
1276:./Libraries/STM32F4xx_HAL_Driver/Src/stm32f4xx_hal_usart.c ****       husart->hdmatx->XferAbortCallback = USART_DMATxAbortCallback;
 2710              		.loc 1 1276 13
 2711 0042 7B68     		ldr	r3, [r7, #4]
 2712 0044 5B6B     		ldr	r3, [r3, #52]
 2713              		.loc 1 1276 41
 2714 0046 3C4A     		ldr	r2, .L124
 2715 0048 1A65     		str	r2, [r3, #80]
 2716 004a 03E0     		b	.L114
 2717              	.L115:
1277:./Libraries/STM32F4xx_HAL_Driver/Src/stm32f4xx_hal_usart.c ****     }
1278:./Libraries/STM32F4xx_HAL_Driver/Src/stm32f4xx_hal_usart.c ****     else
1279:./Libraries/STM32F4xx_HAL_Driver/Src/stm32f4xx_hal_usart.c ****     {
1280:./Libraries/STM32F4xx_HAL_Driver/Src/stm32f4xx_hal_usart.c ****       husart->hdmatx->XferAbortCallback = NULL;
 2718              		.loc 1 1280 13
 2719 004c 7B68     		ldr	r3, [r7, #4]
 2720 004e 5B6B     		ldr	r3, [r3, #52]
 2721              		.loc 1 1280 41
 2722 0050 0022     		movs	r2, #0
 2723 0052 1A65     		str	r2, [r3, #80]
 2724              	.L114:
1281:./Libraries/STM32F4xx_HAL_Driver/Src/stm32f4xx_hal_usart.c ****     }
1282:./Libraries/STM32F4xx_HAL_Driver/Src/stm32f4xx_hal_usart.c ****   }
1283:./Libraries/STM32F4xx_HAL_Driver/Src/stm32f4xx_hal_usart.c ****   /* DMA Rx Handle is valid */
1284:./Libraries/STM32F4xx_HAL_Driver/Src/stm32f4xx_hal_usart.c ****   if(husart->hdmarx != NULL)
 2725              		.loc 1 1284 12
 2726 0054 7B68     		ldr	r3, [r7, #4]
 2727 0056 9B6B     		ldr	r3, [r3, #56]
 2728              		.loc 1 1284 5
 2729 0058 002B     		cmp	r3, #0
 2730 005a 0FD0     		beq	.L116
1285:./Libraries/STM32F4xx_HAL_Driver/Src/stm32f4xx_hal_usart.c ****   {
1286:./Libraries/STM32F4xx_HAL_Driver/Src/stm32f4xx_hal_usart.c ****     /* Set DMA Abort Complete callback if USART DMA Rx request if enabled.
1287:./Libraries/STM32F4xx_HAL_Driver/Src/stm32f4xx_hal_usart.c ****        Otherwise, set it to NULL */
1288:./Libraries/STM32F4xx_HAL_Driver/Src/stm32f4xx_hal_usart.c ****     if(HAL_IS_BIT_SET(husart->Instance->CR3, USART_CR3_DMAR))
 2731              		.loc 1 1288 8
ARM GAS  /tmp/ccIGChKB.s 			page 71


 2732 005c 7B68     		ldr	r3, [r7, #4]
 2733 005e 1B68     		ldr	r3, [r3]
 2734 0060 5B69     		ldr	r3, [r3, #20]
 2735 0062 03F04003 		and	r3, r3, #64
 2736              		.loc 1 1288 7
 2737 0066 002B     		cmp	r3, #0
 2738 0068 04D0     		beq	.L117
1289:./Libraries/STM32F4xx_HAL_Driver/Src/stm32f4xx_hal_usart.c ****     {
1290:./Libraries/STM32F4xx_HAL_Driver/Src/stm32f4xx_hal_usart.c ****       husart->hdmarx->XferAbortCallback = USART_DMARxAbortCallback;
 2739              		.loc 1 1290 13
 2740 006a 7B68     		ldr	r3, [r7, #4]
 2741 006c 9B6B     		ldr	r3, [r3, #56]
 2742              		.loc 1 1290 41
 2743 006e 334A     		ldr	r2, .L124+4
 2744 0070 1A65     		str	r2, [r3, #80]
 2745 0072 03E0     		b	.L116
 2746              	.L117:
1291:./Libraries/STM32F4xx_HAL_Driver/Src/stm32f4xx_hal_usart.c ****     }
1292:./Libraries/STM32F4xx_HAL_Driver/Src/stm32f4xx_hal_usart.c ****     else
1293:./Libraries/STM32F4xx_HAL_Driver/Src/stm32f4xx_hal_usart.c ****     {
1294:./Libraries/STM32F4xx_HAL_Driver/Src/stm32f4xx_hal_usart.c ****       husart->hdmarx->XferAbortCallback = NULL;
 2747              		.loc 1 1294 13
 2748 0074 7B68     		ldr	r3, [r7, #4]
 2749 0076 9B6B     		ldr	r3, [r3, #56]
 2750              		.loc 1 1294 41
 2751 0078 0022     		movs	r2, #0
 2752 007a 1A65     		str	r2, [r3, #80]
 2753              	.L116:
1295:./Libraries/STM32F4xx_HAL_Driver/Src/stm32f4xx_hal_usart.c ****     }
1296:./Libraries/STM32F4xx_HAL_Driver/Src/stm32f4xx_hal_usart.c ****   }
1297:./Libraries/STM32F4xx_HAL_Driver/Src/stm32f4xx_hal_usart.c ****   
1298:./Libraries/STM32F4xx_HAL_Driver/Src/stm32f4xx_hal_usart.c ****   /* Disable the USART DMA Tx request if enabled */
1299:./Libraries/STM32F4xx_HAL_Driver/Src/stm32f4xx_hal_usart.c ****   if(HAL_IS_BIT_SET(husart->Instance->CR3, USART_CR3_DMAT))
 2754              		.loc 1 1299 6
 2755 007c 7B68     		ldr	r3, [r7, #4]
 2756 007e 1B68     		ldr	r3, [r3]
 2757 0080 5B69     		ldr	r3, [r3, #20]
 2758 0082 03F08003 		and	r3, r3, #128
 2759              		.loc 1 1299 5
 2760 0086 002B     		cmp	r3, #0
 2761 0088 1AD0     		beq	.L118
1300:./Libraries/STM32F4xx_HAL_Driver/Src/stm32f4xx_hal_usart.c ****   {
1301:./Libraries/STM32F4xx_HAL_Driver/Src/stm32f4xx_hal_usart.c ****     /* Disable DMA Tx at USART level */
1302:./Libraries/STM32F4xx_HAL_Driver/Src/stm32f4xx_hal_usart.c ****     CLEAR_BIT(husart->Instance->CR3, USART_CR3_DMAT);
 2762              		.loc 1 1302 5
 2763 008a 7B68     		ldr	r3, [r7, #4]
 2764 008c 1B68     		ldr	r3, [r3]
 2765 008e 5A69     		ldr	r2, [r3, #20]
 2766 0090 7B68     		ldr	r3, [r7, #4]
 2767 0092 1B68     		ldr	r3, [r3]
 2768 0094 22F08002 		bic	r2, r2, #128
 2769 0098 5A61     		str	r2, [r3, #20]
1303:./Libraries/STM32F4xx_HAL_Driver/Src/stm32f4xx_hal_usart.c **** 
1304:./Libraries/STM32F4xx_HAL_Driver/Src/stm32f4xx_hal_usart.c ****     /* Abort the USART DMA Tx channel : use non blocking DMA Abort API (callback) */
1305:./Libraries/STM32F4xx_HAL_Driver/Src/stm32f4xx_hal_usart.c ****     if(husart->hdmatx != NULL)
 2770              		.loc 1 1305 14
 2771 009a 7B68     		ldr	r3, [r7, #4]
ARM GAS  /tmp/ccIGChKB.s 			page 72


 2772 009c 5B6B     		ldr	r3, [r3, #52]
 2773              		.loc 1 1305 7
 2774 009e 002B     		cmp	r3, #0
 2775 00a0 0ED0     		beq	.L118
1306:./Libraries/STM32F4xx_HAL_Driver/Src/stm32f4xx_hal_usart.c ****     {
1307:./Libraries/STM32F4xx_HAL_Driver/Src/stm32f4xx_hal_usart.c ****       /* USART Tx DMA Abort callback has already been initialised : 
1308:./Libraries/STM32F4xx_HAL_Driver/Src/stm32f4xx_hal_usart.c ****          will lead to call HAL_USART_AbortCpltCallback() at end of DMA abort procedure */
1309:./Libraries/STM32F4xx_HAL_Driver/Src/stm32f4xx_hal_usart.c **** 
1310:./Libraries/STM32F4xx_HAL_Driver/Src/stm32f4xx_hal_usart.c ****       /* Abort DMA TX */
1311:./Libraries/STM32F4xx_HAL_Driver/Src/stm32f4xx_hal_usart.c ****       if(HAL_DMA_Abort_IT(husart->hdmatx) != HAL_OK)
 2776              		.loc 1 1311 10
 2777 00a2 7B68     		ldr	r3, [r7, #4]
 2778 00a4 5B6B     		ldr	r3, [r3, #52]
 2779 00a6 1846     		mov	r0, r3
 2780 00a8 FFF7FEFF 		bl	HAL_DMA_Abort_IT
 2781 00ac 0346     		mov	r3, r0
 2782              		.loc 1 1311 9
 2783 00ae 002B     		cmp	r3, #0
 2784 00b0 04D0     		beq	.L119
1312:./Libraries/STM32F4xx_HAL_Driver/Src/stm32f4xx_hal_usart.c ****       {
1313:./Libraries/STM32F4xx_HAL_Driver/Src/stm32f4xx_hal_usart.c ****         husart->hdmatx->XferAbortCallback = NULL;
 2785              		.loc 1 1313 15
 2786 00b2 7B68     		ldr	r3, [r7, #4]
 2787 00b4 5B6B     		ldr	r3, [r3, #52]
 2788              		.loc 1 1313 43
 2789 00b6 0022     		movs	r2, #0
 2790 00b8 1A65     		str	r2, [r3, #80]
 2791 00ba 01E0     		b	.L118
 2792              	.L119:
1314:./Libraries/STM32F4xx_HAL_Driver/Src/stm32f4xx_hal_usart.c ****       }
1315:./Libraries/STM32F4xx_HAL_Driver/Src/stm32f4xx_hal_usart.c ****       else
1316:./Libraries/STM32F4xx_HAL_Driver/Src/stm32f4xx_hal_usart.c ****       {
1317:./Libraries/STM32F4xx_HAL_Driver/Src/stm32f4xx_hal_usart.c ****         AbortCplt = 0x00U;
 2793              		.loc 1 1317 19
 2794 00bc 0023     		movs	r3, #0
 2795 00be FB60     		str	r3, [r7, #12]
 2796              	.L118:
1318:./Libraries/STM32F4xx_HAL_Driver/Src/stm32f4xx_hal_usart.c ****       }
1319:./Libraries/STM32F4xx_HAL_Driver/Src/stm32f4xx_hal_usart.c ****     }
1320:./Libraries/STM32F4xx_HAL_Driver/Src/stm32f4xx_hal_usart.c ****   }
1321:./Libraries/STM32F4xx_HAL_Driver/Src/stm32f4xx_hal_usart.c **** 
1322:./Libraries/STM32F4xx_HAL_Driver/Src/stm32f4xx_hal_usart.c ****   /* Disable the USART DMA Rx request if enabled */
1323:./Libraries/STM32F4xx_HAL_Driver/Src/stm32f4xx_hal_usart.c ****   if(HAL_IS_BIT_SET(husart->Instance->CR3, USART_CR3_DMAR))
 2797              		.loc 1 1323 6
 2798 00c0 7B68     		ldr	r3, [r7, #4]
 2799 00c2 1B68     		ldr	r3, [r3]
 2800 00c4 5B69     		ldr	r3, [r3, #20]
 2801 00c6 03F04003 		and	r3, r3, #64
 2802              		.loc 1 1323 5
 2803 00ca 002B     		cmp	r3, #0
 2804 00cc 1CD0     		beq	.L120
1324:./Libraries/STM32F4xx_HAL_Driver/Src/stm32f4xx_hal_usart.c ****   {
1325:./Libraries/STM32F4xx_HAL_Driver/Src/stm32f4xx_hal_usart.c ****     CLEAR_BIT(husart->Instance->CR3, USART_CR3_DMAR);
 2805              		.loc 1 1325 5
 2806 00ce 7B68     		ldr	r3, [r7, #4]
 2807 00d0 1B68     		ldr	r3, [r3]
 2808 00d2 5A69     		ldr	r2, [r3, #20]
ARM GAS  /tmp/ccIGChKB.s 			page 73


 2809 00d4 7B68     		ldr	r3, [r7, #4]
 2810 00d6 1B68     		ldr	r3, [r3]
 2811 00d8 22F04002 		bic	r2, r2, #64
 2812 00dc 5A61     		str	r2, [r3, #20]
1326:./Libraries/STM32F4xx_HAL_Driver/Src/stm32f4xx_hal_usart.c **** 
1327:./Libraries/STM32F4xx_HAL_Driver/Src/stm32f4xx_hal_usart.c ****     /* Abort the USART DMA Rx channel : use non blocking DMA Abort API (callback) */
1328:./Libraries/STM32F4xx_HAL_Driver/Src/stm32f4xx_hal_usart.c ****     if(husart->hdmarx != NULL)
 2813              		.loc 1 1328 14
 2814 00de 7B68     		ldr	r3, [r7, #4]
 2815 00e0 9B6B     		ldr	r3, [r3, #56]
 2816              		.loc 1 1328 7
 2817 00e2 002B     		cmp	r3, #0
 2818 00e4 10D0     		beq	.L120
1329:./Libraries/STM32F4xx_HAL_Driver/Src/stm32f4xx_hal_usart.c ****     {
1330:./Libraries/STM32F4xx_HAL_Driver/Src/stm32f4xx_hal_usart.c ****       /* USART Rx DMA Abort callback has already been initialised : 
1331:./Libraries/STM32F4xx_HAL_Driver/Src/stm32f4xx_hal_usart.c ****          will lead to call HAL_USART_AbortCpltCallback() at end of DMA abort procedure */
1332:./Libraries/STM32F4xx_HAL_Driver/Src/stm32f4xx_hal_usart.c **** 
1333:./Libraries/STM32F4xx_HAL_Driver/Src/stm32f4xx_hal_usart.c ****       /* Abort DMA RX */
1334:./Libraries/STM32F4xx_HAL_Driver/Src/stm32f4xx_hal_usart.c ****       if(HAL_DMA_Abort_IT(husart->hdmarx) != HAL_OK)
 2819              		.loc 1 1334 10
 2820 00e6 7B68     		ldr	r3, [r7, #4]
 2821 00e8 9B6B     		ldr	r3, [r3, #56]
 2822 00ea 1846     		mov	r0, r3
 2823 00ec FFF7FEFF 		bl	HAL_DMA_Abort_IT
 2824 00f0 0346     		mov	r3, r0
 2825              		.loc 1 1334 9
 2826 00f2 002B     		cmp	r3, #0
 2827 00f4 06D0     		beq	.L121
1335:./Libraries/STM32F4xx_HAL_Driver/Src/stm32f4xx_hal_usart.c ****       {
1336:./Libraries/STM32F4xx_HAL_Driver/Src/stm32f4xx_hal_usart.c ****         husart->hdmarx->XferAbortCallback = NULL;
 2828              		.loc 1 1336 15
 2829 00f6 7B68     		ldr	r3, [r7, #4]
 2830 00f8 9B6B     		ldr	r3, [r3, #56]
 2831              		.loc 1 1336 43
 2832 00fa 0022     		movs	r2, #0
 2833 00fc 1A65     		str	r2, [r3, #80]
1337:./Libraries/STM32F4xx_HAL_Driver/Src/stm32f4xx_hal_usart.c ****         AbortCplt = 0x01U;
 2834              		.loc 1 1337 19
 2835 00fe 0123     		movs	r3, #1
 2836 0100 FB60     		str	r3, [r7, #12]
 2837 0102 01E0     		b	.L120
 2838              	.L121:
1338:./Libraries/STM32F4xx_HAL_Driver/Src/stm32f4xx_hal_usart.c ****       }
1339:./Libraries/STM32F4xx_HAL_Driver/Src/stm32f4xx_hal_usart.c ****       else
1340:./Libraries/STM32F4xx_HAL_Driver/Src/stm32f4xx_hal_usart.c ****       {
1341:./Libraries/STM32F4xx_HAL_Driver/Src/stm32f4xx_hal_usart.c ****         AbortCplt = 0x00U;
 2839              		.loc 1 1341 19
 2840 0104 0023     		movs	r3, #0
 2841 0106 FB60     		str	r3, [r7, #12]
 2842              	.L120:
1342:./Libraries/STM32F4xx_HAL_Driver/Src/stm32f4xx_hal_usart.c ****       }
1343:./Libraries/STM32F4xx_HAL_Driver/Src/stm32f4xx_hal_usart.c ****     }
1344:./Libraries/STM32F4xx_HAL_Driver/Src/stm32f4xx_hal_usart.c ****   }
1345:./Libraries/STM32F4xx_HAL_Driver/Src/stm32f4xx_hal_usart.c **** 
1346:./Libraries/STM32F4xx_HAL_Driver/Src/stm32f4xx_hal_usart.c ****   /* if no DMA abort complete callback execution is required => call user Abort Complete callback *
1347:./Libraries/STM32F4xx_HAL_Driver/Src/stm32f4xx_hal_usart.c ****   if(AbortCplt  == 0x01U)
 2843              		.loc 1 1347 5
ARM GAS  /tmp/ccIGChKB.s 			page 74


 2844 0108 FB68     		ldr	r3, [r7, #12]
 2845 010a 012B     		cmp	r3, #1
 2846 010c 0FD1     		bne	.L122
1348:./Libraries/STM32F4xx_HAL_Driver/Src/stm32f4xx_hal_usart.c ****   {
1349:./Libraries/STM32F4xx_HAL_Driver/Src/stm32f4xx_hal_usart.c ****     /* Reset Tx and Rx transfer counters */
