ARM GAS  /tmp/ccEZa6GA.s 			page 1


   1              		.cpu cortex-m4
   2              		.eabi_attribute 27, 1
   3              		.eabi_attribute 28, 1
   4              		.eabi_attribute 20, 1
   5              		.eabi_attribute 21, 1
   6              		.eabi_attribute 23, 3
   7              		.eabi_attribute 24, 1
   8              		.eabi_attribute 25, 1
   9              		.eabi_attribute 26, 1
  10              		.eabi_attribute 30, 6
  11              		.eabi_attribute 34, 1
  12              		.eabi_attribute 18, 4
  13              		.file	"stm32f4xx_hal_i2s_ex.c"
  14              		.text
  15              	.Ltext0:
  16              		.cfi_sections	.debug_frame
  17              		.section	.text.HAL_I2SEx_TransmitReceive,"ax",%progbits
  18              		.align	1
  19              		.global	HAL_I2SEx_TransmitReceive
  20              		.arch armv7e-m
  21              		.syntax unified
  22              		.thumb
  23              		.thumb_func
  24              		.fpu fpv4-sp-d16
  26              	HAL_I2SEx_TransmitReceive:
  27              	.LFB126:
  28              		.file 1 "./Libraries/STM32F4xx_HAL_Driver/Src/stm32f4xx_hal_i2s_ex.c"
   1:./Libraries/STM32F4xx_HAL_Driver/Src/stm32f4xx_hal_i2s_ex.c **** /**
   2:./Libraries/STM32F4xx_HAL_Driver/Src/stm32f4xx_hal_i2s_ex.c ****   ******************************************************************************
   3:./Libraries/STM32F4xx_HAL_Driver/Src/stm32f4xx_hal_i2s_ex.c ****   * @file    stm32f4xx_hal_i2s_ex.c
   4:./Libraries/STM32F4xx_HAL_Driver/Src/stm32f4xx_hal_i2s_ex.c ****   * @author  MCD Application Team
   5:./Libraries/STM32F4xx_HAL_Driver/Src/stm32f4xx_hal_i2s_ex.c ****   * @brief   I2S HAL module driver.
   6:./Libraries/STM32F4xx_HAL_Driver/Src/stm32f4xx_hal_i2s_ex.c ****   *          This file provides firmware functions to manage the following
   7:./Libraries/STM32F4xx_HAL_Driver/Src/stm32f4xx_hal_i2s_ex.c ****   *          functionalities of I2S extension peripheral:
   8:./Libraries/STM32F4xx_HAL_Driver/Src/stm32f4xx_hal_i2s_ex.c ****   *           + Extension features Functions
   9:./Libraries/STM32F4xx_HAL_Driver/Src/stm32f4xx_hal_i2s_ex.c ****   *
  10:./Libraries/STM32F4xx_HAL_Driver/Src/stm32f4xx_hal_i2s_ex.c ****   @verbatim
  11:./Libraries/STM32F4xx_HAL_Driver/Src/stm32f4xx_hal_i2s_ex.c ****   ==============================================================================
  12:./Libraries/STM32F4xx_HAL_Driver/Src/stm32f4xx_hal_i2s_ex.c ****                     ##### I2S Extension features #####
  13:./Libraries/STM32F4xx_HAL_Driver/Src/stm32f4xx_hal_i2s_ex.c ****   ==============================================================================
  14:./Libraries/STM32F4xx_HAL_Driver/Src/stm32f4xx_hal_i2s_ex.c ****   [..]
  15:./Libraries/STM32F4xx_HAL_Driver/Src/stm32f4xx_hal_i2s_ex.c ****      (#) In I2S full duplex mode, each SPI peripheral is able to manage sending and receiving
  16:./Libraries/STM32F4xx_HAL_Driver/Src/stm32f4xx_hal_i2s_ex.c ****          data simultaneously using two data lines. Each SPI peripheral has an extended block
  17:./Libraries/STM32F4xx_HAL_Driver/Src/stm32f4xx_hal_i2s_ex.c ****          called I2Sxext (i.e I2S2ext for SPI2 and I2S3ext for SPI3).
  18:./Libraries/STM32F4xx_HAL_Driver/Src/stm32f4xx_hal_i2s_ex.c ****      (#) The extension block is not a full SPI IP, it is used only as I2S slave to
  19:./Libraries/STM32F4xx_HAL_Driver/Src/stm32f4xx_hal_i2s_ex.c ****          implement full duplex mode. The extension block uses the same clock sources
  20:./Libraries/STM32F4xx_HAL_Driver/Src/stm32f4xx_hal_i2s_ex.c ****          as its master.
  21:./Libraries/STM32F4xx_HAL_Driver/Src/stm32f4xx_hal_i2s_ex.c **** 
  22:./Libraries/STM32F4xx_HAL_Driver/Src/stm32f4xx_hal_i2s_ex.c ****      (#) Both I2Sx and I2Sx_ext can be configured as transmitters or receivers.
  23:./Libraries/STM32F4xx_HAL_Driver/Src/stm32f4xx_hal_i2s_ex.c **** 
  24:./Libraries/STM32F4xx_HAL_Driver/Src/stm32f4xx_hal_i2s_ex.c ****      [..]
  25:./Libraries/STM32F4xx_HAL_Driver/Src/stm32f4xx_hal_i2s_ex.c ****        (@) Only I2Sx can deliver SCK and WS to I2Sx_ext in full duplex mode, where
  26:./Libraries/STM32F4xx_HAL_Driver/Src/stm32f4xx_hal_i2s_ex.c ****          I2Sx can be I2S2 or I2S3.
  27:./Libraries/STM32F4xx_HAL_Driver/Src/stm32f4xx_hal_i2s_ex.c **** 
  28:./Libraries/STM32F4xx_HAL_Driver/Src/stm32f4xx_hal_i2s_ex.c ****                   ##### How to use this driver #####
  29:./Libraries/STM32F4xx_HAL_Driver/Src/stm32f4xx_hal_i2s_ex.c ****  ===============================================================================
  30:./Libraries/STM32F4xx_HAL_Driver/Src/stm32f4xx_hal_i2s_ex.c ****  [..]
ARM GAS  /tmp/ccEZa6GA.s 			page 2


  31:./Libraries/STM32F4xx_HAL_Driver/Src/stm32f4xx_hal_i2s_ex.c ****    Three operation modes are available within this driver :
  32:./Libraries/STM32F4xx_HAL_Driver/Src/stm32f4xx_hal_i2s_ex.c **** 
  33:./Libraries/STM32F4xx_HAL_Driver/Src/stm32f4xx_hal_i2s_ex.c ****    *** Polling mode IO operation ***
  34:./Libraries/STM32F4xx_HAL_Driver/Src/stm32f4xx_hal_i2s_ex.c ****    =================================
  35:./Libraries/STM32F4xx_HAL_Driver/Src/stm32f4xx_hal_i2s_ex.c ****    [..]
  36:./Libraries/STM32F4xx_HAL_Driver/Src/stm32f4xx_hal_i2s_ex.c ****      (+) Send and receive in the same time an amount of data in blocking mode using HAL_I2SEx_Trans
  37:./Libraries/STM32F4xx_HAL_Driver/Src/stm32f4xx_hal_i2s_ex.c **** 
  38:./Libraries/STM32F4xx_HAL_Driver/Src/stm32f4xx_hal_i2s_ex.c ****    *** Interrupt mode IO operation ***
  39:./Libraries/STM32F4xx_HAL_Driver/Src/stm32f4xx_hal_i2s_ex.c ****    ===================================
  40:./Libraries/STM32F4xx_HAL_Driver/Src/stm32f4xx_hal_i2s_ex.c ****    [..]
  41:./Libraries/STM32F4xx_HAL_Driver/Src/stm32f4xx_hal_i2s_ex.c ****      (+) Send and receive in the same time an amount of data in non blocking mode using HAL_I2SEx_T
  42:./Libraries/STM32F4xx_HAL_Driver/Src/stm32f4xx_hal_i2s_ex.c ****      (+) At transmission/reception end of transfer HAL_I2SEx_TxRxCpltCallback is executed and user 
  43:./Libraries/STM32F4xx_HAL_Driver/Src/stm32f4xx_hal_i2s_ex.c ****          add his own code by customization of function pointer HAL_I2SEx_TxRxCpltCallback
  44:./Libraries/STM32F4xx_HAL_Driver/Src/stm32f4xx_hal_i2s_ex.c ****      (+) In case of transfer Error, HAL_I2S_ErrorCallback() function is executed and user can
  45:./Libraries/STM32F4xx_HAL_Driver/Src/stm32f4xx_hal_i2s_ex.c ****          add his own code by customization of function pointer HAL_I2S_ErrorCallback
  46:./Libraries/STM32F4xx_HAL_Driver/Src/stm32f4xx_hal_i2s_ex.c **** 
  47:./Libraries/STM32F4xx_HAL_Driver/Src/stm32f4xx_hal_i2s_ex.c ****    *** DMA mode IO operation ***
  48:./Libraries/STM32F4xx_HAL_Driver/Src/stm32f4xx_hal_i2s_ex.c ****    ==============================
  49:./Libraries/STM32F4xx_HAL_Driver/Src/stm32f4xx_hal_i2s_ex.c ****    [..]
  50:./Libraries/STM32F4xx_HAL_Driver/Src/stm32f4xx_hal_i2s_ex.c ****      (+) Send and receive an amount of data in non blocking mode (DMA) using HAL_I2SEx_TransmitRece
  51:./Libraries/STM32F4xx_HAL_Driver/Src/stm32f4xx_hal_i2s_ex.c ****      (+) At transmission/reception end of transfer HAL_I2SEx_TxRxCpltCallback is executed and user 
  52:./Libraries/STM32F4xx_HAL_Driver/Src/stm32f4xx_hal_i2s_ex.c ****          add his own code by customization of function pointer HAL_I2S_TxRxCpltCallback
  53:./Libraries/STM32F4xx_HAL_Driver/Src/stm32f4xx_hal_i2s_ex.c ****      (+) In case of transfer Error, HAL_I2S_ErrorCallback() function is executed and user can
  54:./Libraries/STM32F4xx_HAL_Driver/Src/stm32f4xx_hal_i2s_ex.c ****          add his own code by customization of function pointer HAL_I2S_ErrorCallback
  55:./Libraries/STM32F4xx_HAL_Driver/Src/stm32f4xx_hal_i2s_ex.c ****   @endverbatim
  56:./Libraries/STM32F4xx_HAL_Driver/Src/stm32f4xx_hal_i2s_ex.c **** 
  57:./Libraries/STM32F4xx_HAL_Driver/Src/stm32f4xx_hal_i2s_ex.c ****  Additional Figure: The Extended block uses the same clock sources as its master.
  58:./Libraries/STM32F4xx_HAL_Driver/Src/stm32f4xx_hal_i2s_ex.c **** 
  59:./Libraries/STM32F4xx_HAL_Driver/Src/stm32f4xx_hal_i2s_ex.c ****                 +-----------------------+
  60:./Libraries/STM32F4xx_HAL_Driver/Src/stm32f4xx_hal_i2s_ex.c ****     I2Sx_SCK    |                       |
  61:./Libraries/STM32F4xx_HAL_Driver/Src/stm32f4xx_hal_i2s_ex.c ****  ----------+-->|          I2Sx         |------------------->I2Sx_SD(in/out)
  62:./Libraries/STM32F4xx_HAL_Driver/Src/stm32f4xx_hal_i2s_ex.c ****          +--|-->|                       |
  63:./Libraries/STM32F4xx_HAL_Driver/Src/stm32f4xx_hal_i2s_ex.c ****         |   |   +-----------------------+
  64:./Libraries/STM32F4xx_HAL_Driver/Src/stm32f4xx_hal_i2s_ex.c ****         |   |
  65:./Libraries/STM32F4xx_HAL_Driver/Src/stm32f4xx_hal_i2s_ex.c ****  I2S_WS |   |
  66:./Libraries/STM32F4xx_HAL_Driver/Src/stm32f4xx_hal_i2s_ex.c ****  ------>|   |
  67:./Libraries/STM32F4xx_HAL_Driver/Src/stm32f4xx_hal_i2s_ex.c ****         |   |   +-----------------------+
  68:./Libraries/STM32F4xx_HAL_Driver/Src/stm32f4xx_hal_i2s_ex.c ****         |   +-->|                       |
  69:./Libraries/STM32F4xx_HAL_Driver/Src/stm32f4xx_hal_i2s_ex.c ****         |       |       I2Sx_ext        |------------------->I2Sx_extSD(in/out)
  70:./Libraries/STM32F4xx_HAL_Driver/Src/stm32f4xx_hal_i2s_ex.c ****          +----->|                       |
  71:./Libraries/STM32F4xx_HAL_Driver/Src/stm32f4xx_hal_i2s_ex.c ****                 +-----------------------+
  72:./Libraries/STM32F4xx_HAL_Driver/Src/stm32f4xx_hal_i2s_ex.c ****   ******************************************************************************
  73:./Libraries/STM32F4xx_HAL_Driver/Src/stm32f4xx_hal_i2s_ex.c ****   * @attention
  74:./Libraries/STM32F4xx_HAL_Driver/Src/stm32f4xx_hal_i2s_ex.c ****   *
  75:./Libraries/STM32F4xx_HAL_Driver/Src/stm32f4xx_hal_i2s_ex.c ****   * <h2><center>&copy; COPYRIGHT(c) 2017 STMicroelectronics</center></h2>
  76:./Libraries/STM32F4xx_HAL_Driver/Src/stm32f4xx_hal_i2s_ex.c ****   *
  77:./Libraries/STM32F4xx_HAL_Driver/Src/stm32f4xx_hal_i2s_ex.c ****   * Redistribution and use in source and binary forms, with or without modification,
  78:./Libraries/STM32F4xx_HAL_Driver/Src/stm32f4xx_hal_i2s_ex.c ****   * are permitted provided that the following conditions are met:
  79:./Libraries/STM32F4xx_HAL_Driver/Src/stm32f4xx_hal_i2s_ex.c ****   *   1. Redistributions of source code must retain the above copyright notice,
  80:./Libraries/STM32F4xx_HAL_Driver/Src/stm32f4xx_hal_i2s_ex.c ****   *      this list of conditions and the following disclaimer.
  81:./Libraries/STM32F4xx_HAL_Driver/Src/stm32f4xx_hal_i2s_ex.c ****   *   2. Redistributions in binary form must reproduce the above copyright notice,
  82:./Libraries/STM32F4xx_HAL_Driver/Src/stm32f4xx_hal_i2s_ex.c ****   *      this list of conditions and the following disclaimer in the documentation
  83:./Libraries/STM32F4xx_HAL_Driver/Src/stm32f4xx_hal_i2s_ex.c ****   *      and/or other materials provided with the distribution.
  84:./Libraries/STM32F4xx_HAL_Driver/Src/stm32f4xx_hal_i2s_ex.c ****   *   3. Neither the name of STMicroelectronics nor the names of its contributors
  85:./Libraries/STM32F4xx_HAL_Driver/Src/stm32f4xx_hal_i2s_ex.c ****   *      may be used to endorse or promote products derived from this software
  86:./Libraries/STM32F4xx_HAL_Driver/Src/stm32f4xx_hal_i2s_ex.c ****   *      without specific prior written permission.
  87:./Libraries/STM32F4xx_HAL_Driver/Src/stm32f4xx_hal_i2s_ex.c ****   *
ARM GAS  /tmp/ccEZa6GA.s 			page 3


  88:./Libraries/STM32F4xx_HAL_Driver/Src/stm32f4xx_hal_i2s_ex.c ****   * THIS SOFTWARE IS PROVIDED BY THE COPYRIGHT HOLDERS AND CONTRIBUTORS "AS IS"
  89:./Libraries/STM32F4xx_HAL_Driver/Src/stm32f4xx_hal_i2s_ex.c ****   * AND ANY EXPRESS OR IMPLIED WARRANTIES, INCLUDING, BUT NOT LIMITED TO, THE
  90:./Libraries/STM32F4xx_HAL_Driver/Src/stm32f4xx_hal_i2s_ex.c ****   * IMPLIED WARRANTIES OF MERCHANTABILITY AND FITNESS FOR A PARTICULAR PURPOSE ARE
  91:./Libraries/STM32F4xx_HAL_Driver/Src/stm32f4xx_hal_i2s_ex.c ****   * DISCLAIMED. IN NO EVENT SHALL THE COPYRIGHT HOLDER OR CONTRIBUTORS BE LIABLE
  92:./Libraries/STM32F4xx_HAL_Driver/Src/stm32f4xx_hal_i2s_ex.c ****   * FOR ANY DIRECT, INDIRECT, INCIDENTAL, SPECIAL, EXEMPLARY, OR CONSEQUENTIAL
  93:./Libraries/STM32F4xx_HAL_Driver/Src/stm32f4xx_hal_i2s_ex.c ****   * DAMAGES (INCLUDING, BUT NOT LIMITED TO, PROCUREMENT OF SUBSTITUTE GOODS OR
  94:./Libraries/STM32F4xx_HAL_Driver/Src/stm32f4xx_hal_i2s_ex.c ****   * SERVICES; LOSS OF USE, DATA, OR PROFITS; OR BUSINESS INTERRUPTION) HOWEVER
  95:./Libraries/STM32F4xx_HAL_Driver/Src/stm32f4xx_hal_i2s_ex.c ****   * CAUSED AND ON ANY THEORY OF LIABILITY, WHETHER IN CONTRACT, STRICT LIABILITY,
  96:./Libraries/STM32F4xx_HAL_Driver/Src/stm32f4xx_hal_i2s_ex.c ****   * OR TORT (INCLUDING NEGLIGENCE OR OTHERWISE) ARISING IN ANY WAY OUT OF THE USE
  97:./Libraries/STM32F4xx_HAL_Driver/Src/stm32f4xx_hal_i2s_ex.c ****   * OF THIS SOFTWARE, EVEN IF ADVISED OF THE POSSIBILITY OF SUCH DAMAGE.
  98:./Libraries/STM32F4xx_HAL_Driver/Src/stm32f4xx_hal_i2s_ex.c ****   *
  99:./Libraries/STM32F4xx_HAL_Driver/Src/stm32f4xx_hal_i2s_ex.c ****   ******************************************************************************
 100:./Libraries/STM32F4xx_HAL_Driver/Src/stm32f4xx_hal_i2s_ex.c ****   */
 101:./Libraries/STM32F4xx_HAL_Driver/Src/stm32f4xx_hal_i2s_ex.c **** 
 102:./Libraries/STM32F4xx_HAL_Driver/Src/stm32f4xx_hal_i2s_ex.c **** /* Includes ------------------------------------------------------------------*/
 103:./Libraries/STM32F4xx_HAL_Driver/Src/stm32f4xx_hal_i2s_ex.c **** #include "stm32f4xx_hal.h"
 104:./Libraries/STM32F4xx_HAL_Driver/Src/stm32f4xx_hal_i2s_ex.c **** 
 105:./Libraries/STM32F4xx_HAL_Driver/Src/stm32f4xx_hal_i2s_ex.c **** /** @addtogroup STM32F4xx_HAL_Driver
 106:./Libraries/STM32F4xx_HAL_Driver/Src/stm32f4xx_hal_i2s_ex.c ****   * @{
 107:./Libraries/STM32F4xx_HAL_Driver/Src/stm32f4xx_hal_i2s_ex.c ****   */
 108:./Libraries/STM32F4xx_HAL_Driver/Src/stm32f4xx_hal_i2s_ex.c **** 
 109:./Libraries/STM32F4xx_HAL_Driver/Src/stm32f4xx_hal_i2s_ex.c **** #ifdef HAL_I2S_MODULE_ENABLED
 110:./Libraries/STM32F4xx_HAL_Driver/Src/stm32f4xx_hal_i2s_ex.c **** 
 111:./Libraries/STM32F4xx_HAL_Driver/Src/stm32f4xx_hal_i2s_ex.c **** /** @defgroup I2SEx I2SEx
 112:./Libraries/STM32F4xx_HAL_Driver/Src/stm32f4xx_hal_i2s_ex.c ****   * @brief I2S Extended HAL module driver
 113:./Libraries/STM32F4xx_HAL_Driver/Src/stm32f4xx_hal_i2s_ex.c ****   * @{
 114:./Libraries/STM32F4xx_HAL_Driver/Src/stm32f4xx_hal_i2s_ex.c ****   */
 115:./Libraries/STM32F4xx_HAL_Driver/Src/stm32f4xx_hal_i2s_ex.c **** 
 116:./Libraries/STM32F4xx_HAL_Driver/Src/stm32f4xx_hal_i2s_ex.c **** #if defined (SPI_I2S_FULLDUPLEX_SUPPORT)
 117:./Libraries/STM32F4xx_HAL_Driver/Src/stm32f4xx_hal_i2s_ex.c **** 
 118:./Libraries/STM32F4xx_HAL_Driver/Src/stm32f4xx_hal_i2s_ex.c **** /* Private typedef -----------------------------------------------------------*/
 119:./Libraries/STM32F4xx_HAL_Driver/Src/stm32f4xx_hal_i2s_ex.c **** /** @defgroup I2SEx_Private_Typedef I2S Extended Private Typedef
 120:./Libraries/STM32F4xx_HAL_Driver/Src/stm32f4xx_hal_i2s_ex.c ****   * @{
 121:./Libraries/STM32F4xx_HAL_Driver/Src/stm32f4xx_hal_i2s_ex.c ****   */
 122:./Libraries/STM32F4xx_HAL_Driver/Src/stm32f4xx_hal_i2s_ex.c **** typedef enum
 123:./Libraries/STM32F4xx_HAL_Driver/Src/stm32f4xx_hal_i2s_ex.c **** {
 124:./Libraries/STM32F4xx_HAL_Driver/Src/stm32f4xx_hal_i2s_ex.c ****   I2S_USE_I2S      = 0x00U,   /*!< I2Sx should be used      */
 125:./Libraries/STM32F4xx_HAL_Driver/Src/stm32f4xx_hal_i2s_ex.c ****   I2S_USE_I2SEXT   = 0x01U,   /*!< I2Sx_ext should be used  */
 126:./Libraries/STM32F4xx_HAL_Driver/Src/stm32f4xx_hal_i2s_ex.c **** }I2S_UseTypeDef;
 127:./Libraries/STM32F4xx_HAL_Driver/Src/stm32f4xx_hal_i2s_ex.c **** /**
 128:./Libraries/STM32F4xx_HAL_Driver/Src/stm32f4xx_hal_i2s_ex.c ****   * @}
 129:./Libraries/STM32F4xx_HAL_Driver/Src/stm32f4xx_hal_i2s_ex.c ****   */
 130:./Libraries/STM32F4xx_HAL_Driver/Src/stm32f4xx_hal_i2s_ex.c **** /* Private define ------------------------------------------------------------*/
 131:./Libraries/STM32F4xx_HAL_Driver/Src/stm32f4xx_hal_i2s_ex.c **** /* Private macro -------------------------------------------------------------*/
 132:./Libraries/STM32F4xx_HAL_Driver/Src/stm32f4xx_hal_i2s_ex.c **** /* Private variables ---------------------------------------------------------*/
 133:./Libraries/STM32F4xx_HAL_Driver/Src/stm32f4xx_hal_i2s_ex.c **** /* Private function prototypes -----------------------------------------------*/
 134:./Libraries/STM32F4xx_HAL_Driver/Src/stm32f4xx_hal_i2s_ex.c **** /** @defgroup I2SEx_Private_Functions I2S Extended Private Functions
 135:./Libraries/STM32F4xx_HAL_Driver/Src/stm32f4xx_hal_i2s_ex.c ****   * @{
 136:./Libraries/STM32F4xx_HAL_Driver/Src/stm32f4xx_hal_i2s_ex.c ****   */
 137:./Libraries/STM32F4xx_HAL_Driver/Src/stm32f4xx_hal_i2s_ex.c **** static void I2SEx_TxRxDMAHalfCplt(DMA_HandleTypeDef *hdma);
 138:./Libraries/STM32F4xx_HAL_Driver/Src/stm32f4xx_hal_i2s_ex.c **** static void I2SEx_TxRxDMACplt(DMA_HandleTypeDef *hdma);
 139:./Libraries/STM32F4xx_HAL_Driver/Src/stm32f4xx_hal_i2s_ex.c **** static void I2SEx_TxRxDMAError(DMA_HandleTypeDef *hdma);
 140:./Libraries/STM32F4xx_HAL_Driver/Src/stm32f4xx_hal_i2s_ex.c **** static void I2SEx_FullDuplexTx_IT(I2S_HandleTypeDef *hi2s, I2S_UseTypeDef i2sUsed);
 141:./Libraries/STM32F4xx_HAL_Driver/Src/stm32f4xx_hal_i2s_ex.c **** static void I2SEx_FullDuplexRx_IT(I2S_HandleTypeDef *hi2s, I2S_UseTypeDef i2sUsed);
 142:./Libraries/STM32F4xx_HAL_Driver/Src/stm32f4xx_hal_i2s_ex.c **** static HAL_StatusTypeDef I2SEx_FullDuplexWaitFlagStateUntilTimeout(I2S_HandleTypeDef *hi2s, uint32_
 143:./Libraries/STM32F4xx_HAL_Driver/Src/stm32f4xx_hal_i2s_ex.c ****                                                                    uint32_t State, uint32_t Timeout
 144:./Libraries/STM32F4xx_HAL_Driver/Src/stm32f4xx_hal_i2s_ex.c **** /**
ARM GAS  /tmp/ccEZa6GA.s 			page 4


 145:./Libraries/STM32F4xx_HAL_Driver/Src/stm32f4xx_hal_i2s_ex.c ****   * @}
 146:./Libraries/STM32F4xx_HAL_Driver/Src/stm32f4xx_hal_i2s_ex.c ****   */
 147:./Libraries/STM32F4xx_HAL_Driver/Src/stm32f4xx_hal_i2s_ex.c **** 
 148:./Libraries/STM32F4xx_HAL_Driver/Src/stm32f4xx_hal_i2s_ex.c **** /**
 149:./Libraries/STM32F4xx_HAL_Driver/Src/stm32f4xx_hal_i2s_ex.c ****   * @}
 150:./Libraries/STM32F4xx_HAL_Driver/Src/stm32f4xx_hal_i2s_ex.c ****   */
 151:./Libraries/STM32F4xx_HAL_Driver/Src/stm32f4xx_hal_i2s_ex.c **** 
 152:./Libraries/STM32F4xx_HAL_Driver/Src/stm32f4xx_hal_i2s_ex.c **** /* Private functions ---------------------------------------------------------*/
 153:./Libraries/STM32F4xx_HAL_Driver/Src/stm32f4xx_hal_i2s_ex.c **** /* Exported functions --------------------------------------------------------*/
 154:./Libraries/STM32F4xx_HAL_Driver/Src/stm32f4xx_hal_i2s_ex.c **** 
 155:./Libraries/STM32F4xx_HAL_Driver/Src/stm32f4xx_hal_i2s_ex.c **** /** @addtogroup I2SEx I2SEx
 156:./Libraries/STM32F4xx_HAL_Driver/Src/stm32f4xx_hal_i2s_ex.c ****   * @{
 157:./Libraries/STM32F4xx_HAL_Driver/Src/stm32f4xx_hal_i2s_ex.c ****   */
 158:./Libraries/STM32F4xx_HAL_Driver/Src/stm32f4xx_hal_i2s_ex.c **** 
 159:./Libraries/STM32F4xx_HAL_Driver/Src/stm32f4xx_hal_i2s_ex.c **** /** @addtogroup I2SEx_Exported_Functions I2S Extended Exported Functions
 160:./Libraries/STM32F4xx_HAL_Driver/Src/stm32f4xx_hal_i2s_ex.c ****   * @{
 161:./Libraries/STM32F4xx_HAL_Driver/Src/stm32f4xx_hal_i2s_ex.c ****   */
 162:./Libraries/STM32F4xx_HAL_Driver/Src/stm32f4xx_hal_i2s_ex.c **** 
 163:./Libraries/STM32F4xx_HAL_Driver/Src/stm32f4xx_hal_i2s_ex.c **** /** @defgroup I2SEx_Exported_Functions_Group1 I2S Extended IO operation functions
 164:./Libraries/STM32F4xx_HAL_Driver/Src/stm32f4xx_hal_i2s_ex.c ****   *  @brief   I2SEx IO operation functions
 165:./Libraries/STM32F4xx_HAL_Driver/Src/stm32f4xx_hal_i2s_ex.c ****   *
 166:./Libraries/STM32F4xx_HAL_Driver/Src/stm32f4xx_hal_i2s_ex.c **** @verbatim
 167:./Libraries/STM32F4xx_HAL_Driver/Src/stm32f4xx_hal_i2s_ex.c ****  ===============================================================================
 168:./Libraries/STM32F4xx_HAL_Driver/Src/stm32f4xx_hal_i2s_ex.c ****                        ##### IO operation functions#####
 169:./Libraries/STM32F4xx_HAL_Driver/Src/stm32f4xx_hal_i2s_ex.c ****  ===============================================================================
 170:./Libraries/STM32F4xx_HAL_Driver/Src/stm32f4xx_hal_i2s_ex.c ****     [..]
 171:./Libraries/STM32F4xx_HAL_Driver/Src/stm32f4xx_hal_i2s_ex.c ****     This subsection provides a set of functions allowing to manage the I2S data
 172:./Libraries/STM32F4xx_HAL_Driver/Src/stm32f4xx_hal_i2s_ex.c ****     transfers.
 173:./Libraries/STM32F4xx_HAL_Driver/Src/stm32f4xx_hal_i2s_ex.c **** 
 174:./Libraries/STM32F4xx_HAL_Driver/Src/stm32f4xx_hal_i2s_ex.c ****     (#) There are two modes of transfer:
 175:./Libraries/STM32F4xx_HAL_Driver/Src/stm32f4xx_hal_i2s_ex.c ****        (++) Blocking mode : The communication is performed in the polling mode.
 176:./Libraries/STM32F4xx_HAL_Driver/Src/stm32f4xx_hal_i2s_ex.c ****             The status of all data processing is returned by the same function
 177:./Libraries/STM32F4xx_HAL_Driver/Src/stm32f4xx_hal_i2s_ex.c ****             after finishing transfer.
 178:./Libraries/STM32F4xx_HAL_Driver/Src/stm32f4xx_hal_i2s_ex.c ****        (++) No-Blocking mode : The communication is performed using Interrupts
 179:./Libraries/STM32F4xx_HAL_Driver/Src/stm32f4xx_hal_i2s_ex.c ****             or DMA. These functions return the status of the transfer startup.
 180:./Libraries/STM32F4xx_HAL_Driver/Src/stm32f4xx_hal_i2s_ex.c ****             The end of the data processing will be indicated through the
 181:./Libraries/STM32F4xx_HAL_Driver/Src/stm32f4xx_hal_i2s_ex.c ****             dedicated I2S IRQ when using Interrupt mode or the DMA IRQ when
 182:./Libraries/STM32F4xx_HAL_Driver/Src/stm32f4xx_hal_i2s_ex.c ****             using DMA mode.
 183:./Libraries/STM32F4xx_HAL_Driver/Src/stm32f4xx_hal_i2s_ex.c **** 
 184:./Libraries/STM32F4xx_HAL_Driver/Src/stm32f4xx_hal_i2s_ex.c ****     (#) Blocking mode functions are :
 185:./Libraries/STM32F4xx_HAL_Driver/Src/stm32f4xx_hal_i2s_ex.c ****         (++) HAL_I2SEx_TransmitReceive()
 186:./Libraries/STM32F4xx_HAL_Driver/Src/stm32f4xx_hal_i2s_ex.c **** 
 187:./Libraries/STM32F4xx_HAL_Driver/Src/stm32f4xx_hal_i2s_ex.c ****     (#) No-Blocking mode functions with Interrupt are :
 188:./Libraries/STM32F4xx_HAL_Driver/Src/stm32f4xx_hal_i2s_ex.c ****         (++) HAL_I2SEx_TransmitReceive_IT()
 189:./Libraries/STM32F4xx_HAL_Driver/Src/stm32f4xx_hal_i2s_ex.c ****         (++) HAL_I2SEx_FullDuplex_IRQHandler()
 190:./Libraries/STM32F4xx_HAL_Driver/Src/stm32f4xx_hal_i2s_ex.c **** 
 191:./Libraries/STM32F4xx_HAL_Driver/Src/stm32f4xx_hal_i2s_ex.c ****     (#) No-Blocking mode functions with DMA are :
 192:./Libraries/STM32F4xx_HAL_Driver/Src/stm32f4xx_hal_i2s_ex.c ****         (++) HAL_I2SEx_TransmitReceive_DMA()
 193:./Libraries/STM32F4xx_HAL_Driver/Src/stm32f4xx_hal_i2s_ex.c **** 
 194:./Libraries/STM32F4xx_HAL_Driver/Src/stm32f4xx_hal_i2s_ex.c ****     (#) A set of Transfer Complete Callback are provided in non Blocking mode:
 195:./Libraries/STM32F4xx_HAL_Driver/Src/stm32f4xx_hal_i2s_ex.c ****         (++) HAL_I2SEx_TxRxCpltCallback()
 196:./Libraries/STM32F4xx_HAL_Driver/Src/stm32f4xx_hal_i2s_ex.c **** @endverbatim
 197:./Libraries/STM32F4xx_HAL_Driver/Src/stm32f4xx_hal_i2s_ex.c ****   * @{
 198:./Libraries/STM32F4xx_HAL_Driver/Src/stm32f4xx_hal_i2s_ex.c ****   */
 199:./Libraries/STM32F4xx_HAL_Driver/Src/stm32f4xx_hal_i2s_ex.c **** /**
 200:./Libraries/STM32F4xx_HAL_Driver/Src/stm32f4xx_hal_i2s_ex.c ****   * @brief Full-Duplex Transmit/Receive data in blocking mode.
 201:./Libraries/STM32F4xx_HAL_Driver/Src/stm32f4xx_hal_i2s_ex.c ****   * @param  hi2s pointer to a I2S_HandleTypeDef structure that contains
ARM GAS  /tmp/ccEZa6GA.s 			page 5


 202:./Libraries/STM32F4xx_HAL_Driver/Src/stm32f4xx_hal_i2s_ex.c ****   *         the configuration information for I2S module
 203:./Libraries/STM32F4xx_HAL_Driver/Src/stm32f4xx_hal_i2s_ex.c ****   * @param pTxData a 16-bit pointer to the Transmit data buffer.
 204:./Libraries/STM32F4xx_HAL_Driver/Src/stm32f4xx_hal_i2s_ex.c ****   * @param pRxData a 16-bit pointer to the Receive data buffer.
 205:./Libraries/STM32F4xx_HAL_Driver/Src/stm32f4xx_hal_i2s_ex.c ****   * @param Size number of data sample to be sent:
 206:./Libraries/STM32F4xx_HAL_Driver/Src/stm32f4xx_hal_i2s_ex.c ****   * @note When a 16-bit data frame or a 16-bit data frame extended is selected during the I2S
 207:./Libraries/STM32F4xx_HAL_Driver/Src/stm32f4xx_hal_i2s_ex.c ****   *       configuration phase, the Size parameter means the number of 16-bit data length
 208:./Libraries/STM32F4xx_HAL_Driver/Src/stm32f4xx_hal_i2s_ex.c ****   *       in the transaction and when a 24-bit data frame or a 32-bit data frame is selected
 209:./Libraries/STM32F4xx_HAL_Driver/Src/stm32f4xx_hal_i2s_ex.c ****   *       the Size parameter means the number of 16-bit data length.
 210:./Libraries/STM32F4xx_HAL_Driver/Src/stm32f4xx_hal_i2s_ex.c ****   * @param Timeout Timeout duration
 211:./Libraries/STM32F4xx_HAL_Driver/Src/stm32f4xx_hal_i2s_ex.c ****   * @note The I2S is kept enabled at the end of transaction to avoid the clock de-synchronization
 212:./Libraries/STM32F4xx_HAL_Driver/Src/stm32f4xx_hal_i2s_ex.c ****   *       between Master and Slave(example: audio streaming).
 213:./Libraries/STM32F4xx_HAL_Driver/Src/stm32f4xx_hal_i2s_ex.c ****   * @retval HAL status
 214:./Libraries/STM32F4xx_HAL_Driver/Src/stm32f4xx_hal_i2s_ex.c ****   */
 215:./Libraries/STM32F4xx_HAL_Driver/Src/stm32f4xx_hal_i2s_ex.c **** HAL_StatusTypeDef HAL_I2SEx_TransmitReceive(I2S_HandleTypeDef *hi2s, uint16_t *pTxData, uint16_t *p
 216:./Libraries/STM32F4xx_HAL_Driver/Src/stm32f4xx_hal_i2s_ex.c ****                                             uint16_t Size, uint32_t Timeout)
 217:./Libraries/STM32F4xx_HAL_Driver/Src/stm32f4xx_hal_i2s_ex.c **** {
  29              		.loc 1 217 1
  30              		.cfi_startproc
  31              		@ args = 4, pretend = 0, frame = 48
  32              		@ frame_needed = 1, uses_anonymous_args = 0
  33 0000 80B5     		push	{r7, lr}
  34              	.LCFI0:
  35              		.cfi_def_cfa_offset 8
  36              		.cfi_offset 7, -8
  37              		.cfi_offset 14, -4
  38 0002 8EB0     		sub	sp, sp, #56
  39              	.LCFI1:
  40              		.cfi_def_cfa_offset 64
  41 0004 02AF     		add	r7, sp, #8
  42              	.LCFI2:
  43              		.cfi_def_cfa 7, 56
  44 0006 F860     		str	r0, [r7, #12]
  45 0008 B960     		str	r1, [r7, #8]
  46 000a 7A60     		str	r2, [r7, #4]
  47 000c 7B80     		strh	r3, [r7, #2]	@ movhi
 218:./Libraries/STM32F4xx_HAL_Driver/Src/stm32f4xx_hal_i2s_ex.c ****   uint32_t tmp1 = 0U;
  48              		.loc 1 218 12
  49 000e 0023     		movs	r3, #0
  50 0010 FB62     		str	r3, [r7, #44]
 219:./Libraries/STM32F4xx_HAL_Driver/Src/stm32f4xx_hal_i2s_ex.c **** 
 220:./Libraries/STM32F4xx_HAL_Driver/Src/stm32f4xx_hal_i2s_ex.c ****   if((pTxData == NULL ) || (pRxData == NULL ) || (Size == 0U))
  51              		.loc 1 220 5
  52 0012 BB68     		ldr	r3, [r7, #8]
  53 0014 002B     		cmp	r3, #0
  54 0016 05D0     		beq	.L2
  55              		.loc 1 220 25 discriminator 1
  56 0018 7B68     		ldr	r3, [r7, #4]
  57 001a 002B     		cmp	r3, #0
  58 001c 02D0     		beq	.L2
  59              		.loc 1 220 47 discriminator 2
  60 001e 7B88     		ldrh	r3, [r7, #2]
  61 0020 002B     		cmp	r3, #0
  62 0022 01D1     		bne	.L3
  63              	.L2:
 221:./Libraries/STM32F4xx_HAL_Driver/Src/stm32f4xx_hal_i2s_ex.c ****   {
 222:./Libraries/STM32F4xx_HAL_Driver/Src/stm32f4xx_hal_i2s_ex.c ****     return  HAL_ERROR;
  64              		.loc 1 222 13
ARM GAS  /tmp/ccEZa6GA.s 			page 6


  65 0024 0123     		movs	r3, #1
  66 0026 6AE2     		b	.L4
  67              	.L3:
 223:./Libraries/STM32F4xx_HAL_Driver/Src/stm32f4xx_hal_i2s_ex.c ****   }
 224:./Libraries/STM32F4xx_HAL_Driver/Src/stm32f4xx_hal_i2s_ex.c **** 
 225:./Libraries/STM32F4xx_HAL_Driver/Src/stm32f4xx_hal_i2s_ex.c ****   /* Check the I2S State */
 226:./Libraries/STM32F4xx_HAL_Driver/Src/stm32f4xx_hal_i2s_ex.c ****   if(hi2s->State == HAL_I2S_STATE_READY)
  68              		.loc 1 226 10
  69 0028 FB68     		ldr	r3, [r7, #12]
  70 002a 93F84130 		ldrb	r3, [r3, #65]
  71 002e DBB2     		uxtb	r3, r3
  72              		.loc 1 226 5
  73 0030 012B     		cmp	r3, #1
  74 0032 40F06382 		bne	.L5
 227:./Libraries/STM32F4xx_HAL_Driver/Src/stm32f4xx_hal_i2s_ex.c ****   {
 228:./Libraries/STM32F4xx_HAL_Driver/Src/stm32f4xx_hal_i2s_ex.c ****     tmp1 = hi2s->Instance->I2SCFGR & (SPI_I2SCFGR_DATLEN | SPI_I2SCFGR_CHLEN);
  75              		.loc 1 228 16
  76 0036 FB68     		ldr	r3, [r7, #12]
  77 0038 1B68     		ldr	r3, [r3]
  78              		.loc 1 228 26
  79 003a DB69     		ldr	r3, [r3, #28]
  80              		.loc 1 228 10
  81 003c 03F00703 		and	r3, r3, #7
  82 0040 FB62     		str	r3, [r7, #44]
 229:./Libraries/STM32F4xx_HAL_Driver/Src/stm32f4xx_hal_i2s_ex.c ****     /* Check the Data format: When a 16-bit data frame or a 16-bit data frame extended
 230:./Libraries/STM32F4xx_HAL_Driver/Src/stm32f4xx_hal_i2s_ex.c ****        is selected during the I2S configuration phase, the Size parameter means the number
 231:./Libraries/STM32F4xx_HAL_Driver/Src/stm32f4xx_hal_i2s_ex.c ****        of 16-bit data length in the transaction and when a 24-bit data frame or a 32-bit data
 232:./Libraries/STM32F4xx_HAL_Driver/Src/stm32f4xx_hal_i2s_ex.c ****        frame is selected the Size parameter means the number of 16-bit data length. */
 233:./Libraries/STM32F4xx_HAL_Driver/Src/stm32f4xx_hal_i2s_ex.c ****     if((tmp1 == I2S_DATAFORMAT_24B) || (tmp1 == I2S_DATAFORMAT_32B))
  83              		.loc 1 233 7
  84 0042 FB6A     		ldr	r3, [r7, #44]
  85 0044 032B     		cmp	r3, #3
  86 0046 02D0     		beq	.L6
  87              		.loc 1 233 37 discriminator 1
  88 0048 FB6A     		ldr	r3, [r7, #44]
  89 004a 052B     		cmp	r3, #5
  90 004c 14D1     		bne	.L7
  91              	.L6:
 234:./Libraries/STM32F4xx_HAL_Driver/Src/stm32f4xx_hal_i2s_ex.c ****     {
 235:./Libraries/STM32F4xx_HAL_Driver/Src/stm32f4xx_hal_i2s_ex.c ****       hi2s->TxXferSize  = (Size << 1U);
  92              		.loc 1 235 33
  93 004e 7B88     		ldrh	r3, [r7, #2]	@ movhi
  94 0050 5B00     		lsls	r3, r3, #1
  95 0052 9AB2     		uxth	r2, r3
  96              		.loc 1 235 25
  97 0054 FB68     		ldr	r3, [r7, #12]
  98 0056 1A85     		strh	r2, [r3, #40]	@ movhi
 236:./Libraries/STM32F4xx_HAL_Driver/Src/stm32f4xx_hal_i2s_ex.c ****       hi2s->TxXferCount = (Size << 1U);
  99              		.loc 1 236 33
 100 0058 7B88     		ldrh	r3, [r7, #2]	@ movhi
 101 005a 5B00     		lsls	r3, r3, #1
 102 005c 9AB2     		uxth	r2, r3
 103              		.loc 1 236 25
 104 005e FB68     		ldr	r3, [r7, #12]
 105 0060 5A85     		strh	r2, [r3, #42]	@ movhi
 237:./Libraries/STM32F4xx_HAL_Driver/Src/stm32f4xx_hal_i2s_ex.c ****       hi2s->RxXferSize  = (Size << 1U);
 106              		.loc 1 237 33
ARM GAS  /tmp/ccEZa6GA.s 			page 7


 107 0062 7B88     		ldrh	r3, [r7, #2]	@ movhi
 108 0064 5B00     		lsls	r3, r3, #1
 109 0066 9AB2     		uxth	r2, r3
 110              		.loc 1 237 25
 111 0068 FB68     		ldr	r3, [r7, #12]
 112 006a 1A86     		strh	r2, [r3, #48]	@ movhi
 238:./Libraries/STM32F4xx_HAL_Driver/Src/stm32f4xx_hal_i2s_ex.c ****       hi2s->RxXferCount = (Size << 1U);
 113              		.loc 1 238 33
 114 006c 7B88     		ldrh	r3, [r7, #2]	@ movhi
 115 006e 5B00     		lsls	r3, r3, #1
 116 0070 9AB2     		uxth	r2, r3
 117              		.loc 1 238 25
 118 0072 FB68     		ldr	r3, [r7, #12]
 119 0074 5A86     		strh	r2, [r3, #50]	@ movhi
 120 0076 0BE0     		b	.L8
 121              	.L7:
 239:./Libraries/STM32F4xx_HAL_Driver/Src/stm32f4xx_hal_i2s_ex.c ****     }
 240:./Libraries/STM32F4xx_HAL_Driver/Src/stm32f4xx_hal_i2s_ex.c ****     else
 241:./Libraries/STM32F4xx_HAL_Driver/Src/stm32f4xx_hal_i2s_ex.c ****     {
 242:./Libraries/STM32F4xx_HAL_Driver/Src/stm32f4xx_hal_i2s_ex.c ****       hi2s->TxXferSize  = Size;
 122              		.loc 1 242 25
 123 0078 FB68     		ldr	r3, [r7, #12]
 124 007a 7A88     		ldrh	r2, [r7, #2]	@ movhi
 125 007c 1A85     		strh	r2, [r3, #40]	@ movhi
 243:./Libraries/STM32F4xx_HAL_Driver/Src/stm32f4xx_hal_i2s_ex.c ****       hi2s->TxXferCount = Size;
 126              		.loc 1 243 25
 127 007e FB68     		ldr	r3, [r7, #12]
 128 0080 7A88     		ldrh	r2, [r7, #2]	@ movhi
 129 0082 5A85     		strh	r2, [r3, #42]	@ movhi
 244:./Libraries/STM32F4xx_HAL_Driver/Src/stm32f4xx_hal_i2s_ex.c ****       hi2s->RxXferSize  = Size;
 130              		.loc 1 244 25
 131 0084 FB68     		ldr	r3, [r7, #12]
 132 0086 7A88     		ldrh	r2, [r7, #2]	@ movhi
 133 0088 1A86     		strh	r2, [r3, #48]	@ movhi
 245:./Libraries/STM32F4xx_HAL_Driver/Src/stm32f4xx_hal_i2s_ex.c ****       hi2s->RxXferCount = Size;
 134              		.loc 1 245 25
 135 008a FB68     		ldr	r3, [r7, #12]
 136 008c 7A88     		ldrh	r2, [r7, #2]	@ movhi
 137 008e 5A86     		strh	r2, [r3, #50]	@ movhi
 138              	.L8:
 246:./Libraries/STM32F4xx_HAL_Driver/Src/stm32f4xx_hal_i2s_ex.c ****     }
 247:./Libraries/STM32F4xx_HAL_Driver/Src/stm32f4xx_hal_i2s_ex.c **** 
 248:./Libraries/STM32F4xx_HAL_Driver/Src/stm32f4xx_hal_i2s_ex.c ****     /* Process Locked */
 249:./Libraries/STM32F4xx_HAL_Driver/Src/stm32f4xx_hal_i2s_ex.c ****     __HAL_LOCK(hi2s);
 139              		.loc 1 249 5
 140 0090 FB68     		ldr	r3, [r7, #12]
 141 0092 93F84030 		ldrb	r3, [r3, #64]
 142 0096 DBB2     		uxtb	r3, r3
 143 0098 012B     		cmp	r3, #1
 144 009a 01D1     		bne	.L9
 145              		.loc 1 249 5 is_stmt 0 discriminator 1
 146 009c 0223     		movs	r3, #2
 147 009e 2EE2     		b	.L4
 148              	.L9:
 149              		.loc 1 249 5 discriminator 2
 150 00a0 FB68     		ldr	r3, [r7, #12]
 151 00a2 0122     		movs	r2, #1
ARM GAS  /tmp/ccEZa6GA.s 			page 8


 152 00a4 83F84020 		strb	r2, [r3, #64]
 250:./Libraries/STM32F4xx_HAL_Driver/Src/stm32f4xx_hal_i2s_ex.c **** 
 251:./Libraries/STM32F4xx_HAL_Driver/Src/stm32f4xx_hal_i2s_ex.c ****     hi2s->ErrorCode = HAL_I2S_ERROR_NONE;
 153              		.loc 1 251 21 is_stmt 1 discriminator 2
 154 00a8 FB68     		ldr	r3, [r7, #12]
 155 00aa 0022     		movs	r2, #0
 156 00ac 5A64     		str	r2, [r3, #68]
 252:./Libraries/STM32F4xx_HAL_Driver/Src/stm32f4xx_hal_i2s_ex.c **** 
 253:./Libraries/STM32F4xx_HAL_Driver/Src/stm32f4xx_hal_i2s_ex.c ****     /* Set the I2S State busy TX/RX */
 254:./Libraries/STM32F4xx_HAL_Driver/Src/stm32f4xx_hal_i2s_ex.c ****     hi2s->State = HAL_I2S_STATE_BUSY_TX_RX;
 157              		.loc 1 254 17 discriminator 2
 158 00ae FB68     		ldr	r3, [r7, #12]
 159 00b0 0522     		movs	r2, #5
 160 00b2 83F84120 		strb	r2, [r3, #65]
 255:./Libraries/STM32F4xx_HAL_Driver/Src/stm32f4xx_hal_i2s_ex.c **** 
 256:./Libraries/STM32F4xx_HAL_Driver/Src/stm32f4xx_hal_i2s_ex.c ****     tmp1 = hi2s->Instance->I2SCFGR & SPI_I2SCFGR_I2SCFG;
 161              		.loc 1 256 16 discriminator 2
 162 00b6 FB68     		ldr	r3, [r7, #12]
 163 00b8 1B68     		ldr	r3, [r3]
 164              		.loc 1 256 26 discriminator 2
 165 00ba DB69     		ldr	r3, [r3, #28]
 166              		.loc 1 256 10 discriminator 2
 167 00bc 03F44073 		and	r3, r3, #768
 168 00c0 FB62     		str	r3, [r7, #44]
 257:./Libraries/STM32F4xx_HAL_Driver/Src/stm32f4xx_hal_i2s_ex.c ****     /* Check if the I2S_MODE_MASTER_TX or I2S_MODE_SLAVE_TX Mode is selected */
 258:./Libraries/STM32F4xx_HAL_Driver/Src/stm32f4xx_hal_i2s_ex.c ****     if((tmp1 == I2S_MODE_MASTER_TX) || (tmp1 == I2S_MODE_SLAVE_TX))
 169              		.loc 1 258 7 discriminator 2
 170 00c2 FB6A     		ldr	r3, [r7, #44]
 171 00c4 B3F5007F 		cmp	r3, #512
 172 00c8 03D0     		beq	.L10
 173              		.loc 1 258 37 discriminator 1
 174 00ca FB6A     		ldr	r3, [r7, #44]
 175 00cc 002B     		cmp	r3, #0
 176 00ce 40F00681 		bne	.L11
 177              	.L10:
 259:./Libraries/STM32F4xx_HAL_Driver/Src/stm32f4xx_hal_i2s_ex.c ****     {
 260:./Libraries/STM32F4xx_HAL_Driver/Src/stm32f4xx_hal_i2s_ex.c ****       /* Prepare the First Data before enabling the I2S */
 261:./Libraries/STM32F4xx_HAL_Driver/Src/stm32f4xx_hal_i2s_ex.c ****       hi2s->Instance->DR = (*pTxData++);
 178              		.loc 1 261 37
 179 00d2 BB68     		ldr	r3, [r7, #8]
 180 00d4 9A1C     		adds	r2, r3, #2
 181 00d6 BA60     		str	r2, [r7, #8]
 182              		.loc 1 261 29
 183 00d8 1A88     		ldrh	r2, [r3]
 184              		.loc 1 261 11
 185 00da FB68     		ldr	r3, [r7, #12]
 186 00dc 1B68     		ldr	r3, [r3]
 187              		.loc 1 261 26
 188 00de DA60     		str	r2, [r3, #12]
 262:./Libraries/STM32F4xx_HAL_Driver/Src/stm32f4xx_hal_i2s_ex.c ****       hi2s->TxXferCount--;
 189              		.loc 1 262 11
 190 00e0 FB68     		ldr	r3, [r7, #12]
 191 00e2 5B8D     		ldrh	r3, [r3, #42]	@ movhi
 192 00e4 9BB2     		uxth	r3, r3
 193              		.loc 1 262 24
 194 00e6 013B     		subs	r3, r3, #1
 195 00e8 9AB2     		uxth	r2, r3
ARM GAS  /tmp/ccEZa6GA.s 			page 9


 196 00ea FB68     		ldr	r3, [r7, #12]
 197 00ec 5A85     		strh	r2, [r3, #42]	@ movhi
 263:./Libraries/STM32F4xx_HAL_Driver/Src/stm32f4xx_hal_i2s_ex.c **** 
 264:./Libraries/STM32F4xx_HAL_Driver/Src/stm32f4xx_hal_i2s_ex.c ****       /* Enable I2Sext(receiver) before enabling I2Sx peripheral */
 265:./Libraries/STM32F4xx_HAL_Driver/Src/stm32f4xx_hal_i2s_ex.c ****       __HAL_I2SEXT_ENABLE(hi2s);
 198              		.loc 1 265 7
 199 00ee FB68     		ldr	r3, [r7, #12]
 200 00f0 1B68     		ldr	r3, [r3]
 201 00f2 8E4A     		ldr	r2, .L47
 202 00f4 9342     		cmp	r3, r2
 203 00f6 01D1     		bne	.L12
 204              		.loc 1 265 7 is_stmt 0 discriminator 1
 205 00f8 8D4B     		ldr	r3, .L47+4
 206 00fa 01E0     		b	.L13
 207              	.L12:
 208              		.loc 1 265 7 discriminator 2
 209 00fc 4FF04023 		mov	r3, #1073758208
 210              	.L13:
 211              		.loc 1 265 7 discriminator 4
 212 0100 DA69     		ldr	r2, [r3, #28]
 213 0102 FB68     		ldr	r3, [r7, #12]
 214 0104 1B68     		ldr	r3, [r3]
 215 0106 8949     		ldr	r1, .L47
 216 0108 8B42     		cmp	r3, r1
 217 010a 01D1     		bne	.L14
 218              		.loc 1 265 7 discriminator 5
 219 010c 884B     		ldr	r3, .L47+4
 220 010e 01E0     		b	.L15
 221              	.L14:
 222              		.loc 1 265 7 discriminator 6
 223 0110 4FF04023 		mov	r3, #1073758208
 224              	.L15:
 225              		.loc 1 265 7 discriminator 8
 226 0114 42F48062 		orr	r2, r2, #1024
 227 0118 DA61     		str	r2, [r3, #28]
 266:./Libraries/STM32F4xx_HAL_Driver/Src/stm32f4xx_hal_i2s_ex.c **** 
 267:./Libraries/STM32F4xx_HAL_Driver/Src/stm32f4xx_hal_i2s_ex.c ****       /* Enable I2Sx peripheral */
 268:./Libraries/STM32F4xx_HAL_Driver/Src/stm32f4xx_hal_i2s_ex.c ****       __HAL_I2S_ENABLE(hi2s);
 228              		.loc 1 268 7 is_stmt 1 discriminator 8
 229 011a FB68     		ldr	r3, [r7, #12]
 230 011c 1B68     		ldr	r3, [r3]
 231 011e DA69     		ldr	r2, [r3, #28]
 232 0120 FB68     		ldr	r3, [r7, #12]
 233 0122 1B68     		ldr	r3, [r3]
 234 0124 42F48062 		orr	r2, r2, #1024
 235 0128 DA61     		str	r2, [r3, #28]
 269:./Libraries/STM32F4xx_HAL_Driver/Src/stm32f4xx_hal_i2s_ex.c **** 
 270:./Libraries/STM32F4xx_HAL_Driver/Src/stm32f4xx_hal_i2s_ex.c ****       /* Check if Master Receiver mode is selected */
 271:./Libraries/STM32F4xx_HAL_Driver/Src/stm32f4xx_hal_i2s_ex.c ****       if((hi2s->Instance->I2SCFGR & SPI_I2SCFGR_I2SCFG) == I2S_MODE_MASTER_TX)
 236              		.loc 1 271 15 discriminator 8
 237 012a FB68     		ldr	r3, [r7, #12]
 238 012c 1B68     		ldr	r3, [r3]
 239              		.loc 1 271 25 discriminator 8
 240 012e DB69     		ldr	r3, [r3, #28]
 241              		.loc 1 271 35 discriminator 8
 242 0130 03F44073 		and	r3, r3, #768
 243              		.loc 1 271 9 discriminator 8
ARM GAS  /tmp/ccEZa6GA.s 			page 10


 244 0134 B3F5007F 		cmp	r3, #512
 245 0138 40F0C480 		bne	.L21
 246              	.LBB2:
 272:./Libraries/STM32F4xx_HAL_Driver/Src/stm32f4xx_hal_i2s_ex.c ****       {
 273:./Libraries/STM32F4xx_HAL_Driver/Src/stm32f4xx_hal_i2s_ex.c ****         /* Clear the Overrun Flag by a read operation on the SPI_DR register followed by a read
 274:./Libraries/STM32F4xx_HAL_Driver/Src/stm32f4xx_hal_i2s_ex.c ****         access to the SPI_SR register. */
 275:./Libraries/STM32F4xx_HAL_Driver/Src/stm32f4xx_hal_i2s_ex.c ****         __HAL_I2SEXT_CLEAR_OVRFLAG(hi2s);
 247              		.loc 1 275 9
 248 013c 0023     		movs	r3, #0
 249 013e BB62     		str	r3, [r7, #40]
 250 0140 FB68     		ldr	r3, [r7, #12]
 251 0142 1B68     		ldr	r3, [r3]
 252 0144 794A     		ldr	r2, .L47
 253 0146 9342     		cmp	r3, r2
 254 0148 01D1     		bne	.L17
 255              		.loc 1 275 9 is_stmt 0 discriminator 1
 256 014a 794B     		ldr	r3, .L47+4
 257 014c 01E0     		b	.L18
 258              	.L17:
 259              		.loc 1 275 9 discriminator 2
 260 014e 4FF04023 		mov	r3, #1073758208
 261              	.L18:
 262              		.loc 1 275 9 discriminator 4
 263 0152 DB68     		ldr	r3, [r3, #12]
 264 0154 BB62     		str	r3, [r7, #40]
 265 0156 FB68     		ldr	r3, [r7, #12]
 266 0158 1B68     		ldr	r3, [r3]
 267 015a 744A     		ldr	r2, .L47
 268 015c 9342     		cmp	r3, r2
 269 015e 01D1     		bne	.L19
 270              		.loc 1 275 9 discriminator 5
 271 0160 734B     		ldr	r3, .L47+4
 272 0162 01E0     		b	.L20
 273              	.L19:
 274              		.loc 1 275 9 discriminator 6
 275 0164 4FF04023 		mov	r3, #1073758208
 276              	.L20:
 277              		.loc 1 275 9 discriminator 8
 278 0168 9B68     		ldr	r3, [r3, #8]
 279 016a BB62     		str	r3, [r7, #40]
 280 016c BB6A     		ldr	r3, [r7, #40]
 281              	.LBE2:
 276:./Libraries/STM32F4xx_HAL_Driver/Src/stm32f4xx_hal_i2s_ex.c ****       }
 277:./Libraries/STM32F4xx_HAL_Driver/Src/stm32f4xx_hal_i2s_ex.c **** 
 278:./Libraries/STM32F4xx_HAL_Driver/Src/stm32f4xx_hal_i2s_ex.c ****       while((hi2s->RxXferCount > 0U) || (hi2s->TxXferCount > 0U))
 282              		.loc 1 278 12 is_stmt 1 discriminator 8
 283 016e A9E0     		b	.L21
 284              	.L29:
 279:./Libraries/STM32F4xx_HAL_Driver/Src/stm32f4xx_hal_i2s_ex.c ****       {
 280:./Libraries/STM32F4xx_HAL_Driver/Src/stm32f4xx_hal_i2s_ex.c ****         if(hi2s->TxXferCount > 0U)
 285              		.loc 1 280 16
 286 0170 FB68     		ldr	r3, [r7, #12]
 287 0172 5B8D     		ldrh	r3, [r3, #42]	@ movhi
 288 0174 9BB2     		uxth	r3, r3
 289              		.loc 1 280 11
 290 0176 002B     		cmp	r3, #0
 291 0178 47D0     		beq	.L22
ARM GAS  /tmp/ccEZa6GA.s 			page 11


 281:./Libraries/STM32F4xx_HAL_Driver/Src/stm32f4xx_hal_i2s_ex.c ****         {
 282:./Libraries/STM32F4xx_HAL_Driver/Src/stm32f4xx_hal_i2s_ex.c ****           /* Wait until TXE flag is set */
 283:./Libraries/STM32F4xx_HAL_Driver/Src/stm32f4xx_hal_i2s_ex.c ****           if (I2SEx_FullDuplexWaitFlagStateUntilTimeout(hi2s, I2S_FLAG_TXE, SET, Timeout, I2S_USE_I
 292              		.loc 1 283 15
 293 017a 0023     		movs	r3, #0
 294 017c 0093     		str	r3, [sp]
 295 017e BB6B     		ldr	r3, [r7, #56]
 296 0180 0122     		movs	r2, #1
 297 0182 0221     		movs	r1, #2
 298 0184 F868     		ldr	r0, [r7, #12]
 299 0186 FFF7FEFF 		bl	I2SEx_FullDuplexWaitFlagStateUntilTimeout
 300 018a 0346     		mov	r3, r0
 301              		.loc 1 283 14
 302 018c 002B     		cmp	r3, #0
 303 018e 0AD0     		beq	.L23
 284:./Libraries/STM32F4xx_HAL_Driver/Src/stm32f4xx_hal_i2s_ex.c ****           {
 285:./Libraries/STM32F4xx_HAL_Driver/Src/stm32f4xx_hal_i2s_ex.c ****             /* Set the error code and execute error callback*/
 286:./Libraries/STM32F4xx_HAL_Driver/Src/stm32f4xx_hal_i2s_ex.c ****             SET_BIT(hi2s->ErrorCode, HAL_I2S_ERROR_TIMEOUT);
 304              		.loc 1 286 13
 305 0190 FB68     		ldr	r3, [r7, #12]
 306 0192 5B6C     		ldr	r3, [r3, #68]
 307 0194 43F00102 		orr	r2, r3, #1
 308 0198 FB68     		ldr	r3, [r7, #12]
 309 019a 5A64     		str	r2, [r3, #68]
 287:./Libraries/STM32F4xx_HAL_Driver/Src/stm32f4xx_hal_i2s_ex.c ****             HAL_I2S_ErrorCallback(hi2s);
 310              		.loc 1 287 13
 311 019c F868     		ldr	r0, [r7, #12]
 312 019e FFF7FEFF 		bl	HAL_I2S_ErrorCallback
 288:./Libraries/STM32F4xx_HAL_Driver/Src/stm32f4xx_hal_i2s_ex.c ****             return HAL_TIMEOUT;
 313              		.loc 1 288 20
 314 01a2 0323     		movs	r3, #3
 315 01a4 ABE1     		b	.L4
 316              	.L23:
 289:./Libraries/STM32F4xx_HAL_Driver/Src/stm32f4xx_hal_i2s_ex.c ****           }
 290:./Libraries/STM32F4xx_HAL_Driver/Src/stm32f4xx_hal_i2s_ex.c ****           /* Write Data on DR register */
 291:./Libraries/STM32F4xx_HAL_Driver/Src/stm32f4xx_hal_i2s_ex.c ****           hi2s->Instance->DR = (*pTxData++);
 317              		.loc 1 291 41
 318 01a6 BB68     		ldr	r3, [r7, #8]
 319 01a8 9A1C     		adds	r2, r3, #2
 320 01aa BA60     		str	r2, [r7, #8]
 321              		.loc 1 291 33
 322 01ac 1A88     		ldrh	r2, [r3]
 323              		.loc 1 291 15
 324 01ae FB68     		ldr	r3, [r7, #12]
 325 01b0 1B68     		ldr	r3, [r3]
 326              		.loc 1 291 30
 327 01b2 DA60     		str	r2, [r3, #12]
 292:./Libraries/STM32F4xx_HAL_Driver/Src/stm32f4xx_hal_i2s_ex.c ****           hi2s->TxXferCount--;
 328              		.loc 1 292 15
 329 01b4 FB68     		ldr	r3, [r7, #12]
 330 01b6 5B8D     		ldrh	r3, [r3, #42]	@ movhi
 331 01b8 9BB2     		uxth	r3, r3
 332              		.loc 1 292 28
 333 01ba 013B     		subs	r3, r3, #1
 334 01bc 9AB2     		uxth	r2, r3
 335 01be FB68     		ldr	r3, [r7, #12]
 336 01c0 5A85     		strh	r2, [r3, #42]	@ movhi
ARM GAS  /tmp/ccEZa6GA.s 			page 12


 293:./Libraries/STM32F4xx_HAL_Driver/Src/stm32f4xx_hal_i2s_ex.c **** 
 294:./Libraries/STM32F4xx_HAL_Driver/Src/stm32f4xx_hal_i2s_ex.c ****           /* Check if an underrun occurs */
 295:./Libraries/STM32F4xx_HAL_Driver/Src/stm32f4xx_hal_i2s_ex.c ****           if((__HAL_I2S_GET_FLAG(hi2s, I2S_FLAG_UDR) == SET) && (tmp1 == I2S_MODE_SLAVE_TX))
 337              		.loc 1 295 15
 338 01c2 FB68     		ldr	r3, [r7, #12]
 339 01c4 1B68     		ldr	r3, [r3]
 340 01c6 9B68     		ldr	r3, [r3, #8]
 341 01c8 03F00803 		and	r3, r3, #8
 342              		.loc 1 295 13
 343 01cc 082B     		cmp	r3, #8
 344 01ce 1CD1     		bne	.L22
 345              		.loc 1 295 62 discriminator 1
 346 01d0 FB6A     		ldr	r3, [r7, #44]
 347 01d2 002B     		cmp	r3, #0
 348 01d4 19D1     		bne	.L22
 349              	.LBB3:
 296:./Libraries/STM32F4xx_HAL_Driver/Src/stm32f4xx_hal_i2s_ex.c ****           {
 297:./Libraries/STM32F4xx_HAL_Driver/Src/stm32f4xx_hal_i2s_ex.c ****             /* Clear Underrun flag */
 298:./Libraries/STM32F4xx_HAL_Driver/Src/stm32f4xx_hal_i2s_ex.c ****             __HAL_I2S_CLEAR_UDRFLAG(hi2s);
 350              		.loc 1 298 13
 351 01d6 0023     		movs	r3, #0
 352 01d8 7B62     		str	r3, [r7, #36]
 353 01da FB68     		ldr	r3, [r7, #12]
 354 01dc 1B68     		ldr	r3, [r3]
 355 01de 9B68     		ldr	r3, [r3, #8]
 356 01e0 7B62     		str	r3, [r7, #36]
 357 01e2 7B6A     		ldr	r3, [r7, #36]
 358              	.LBE3:
 299:./Libraries/STM32F4xx_HAL_Driver/Src/stm32f4xx_hal_i2s_ex.c **** 
 300:./Libraries/STM32F4xx_HAL_Driver/Src/stm32f4xx_hal_i2s_ex.c ****             /* Set the I2S State ready */
 301:./Libraries/STM32F4xx_HAL_Driver/Src/stm32f4xx_hal_i2s_ex.c ****             hi2s->State = HAL_I2S_STATE_READY;
 359              		.loc 1 301 25
 360 01e4 FB68     		ldr	r3, [r7, #12]
 361 01e6 0122     		movs	r2, #1
 362 01e8 83F84120 		strb	r2, [r3, #65]
 302:./Libraries/STM32F4xx_HAL_Driver/Src/stm32f4xx_hal_i2s_ex.c **** 
 303:./Libraries/STM32F4xx_HAL_Driver/Src/stm32f4xx_hal_i2s_ex.c ****             /* Process Unlocked */
 304:./Libraries/STM32F4xx_HAL_Driver/Src/stm32f4xx_hal_i2s_ex.c ****             __HAL_UNLOCK(hi2s);
 363              		.loc 1 304 13
 364 01ec FB68     		ldr	r3, [r7, #12]
 365 01ee 0022     		movs	r2, #0
 366 01f0 83F84020 		strb	r2, [r3, #64]
 305:./Libraries/STM32F4xx_HAL_Driver/Src/stm32f4xx_hal_i2s_ex.c **** 
 306:./Libraries/STM32F4xx_HAL_Driver/Src/stm32f4xx_hal_i2s_ex.c ****             /* Set the error code and execute error callback*/
 307:./Libraries/STM32F4xx_HAL_Driver/Src/stm32f4xx_hal_i2s_ex.c ****             SET_BIT(hi2s->ErrorCode,HAL_I2S_ERROR_UDR);
 367              		.loc 1 307 13
 368 01f4 FB68     		ldr	r3, [r7, #12]
 369 01f6 5B6C     		ldr	r3, [r3, #68]
 370 01f8 43F00402 		orr	r2, r3, #4
 371 01fc FB68     		ldr	r3, [r7, #12]
 372 01fe 5A64     		str	r2, [r3, #68]
 308:./Libraries/STM32F4xx_HAL_Driver/Src/stm32f4xx_hal_i2s_ex.c ****             HAL_I2S_ErrorCallback(hi2s);
 373              		.loc 1 308 13
 374 0200 F868     		ldr	r0, [r7, #12]
 375 0202 FFF7FEFF 		bl	HAL_I2S_ErrorCallback
 309:./Libraries/STM32F4xx_HAL_Driver/Src/stm32f4xx_hal_i2s_ex.c **** 
 310:./Libraries/STM32F4xx_HAL_Driver/Src/stm32f4xx_hal_i2s_ex.c ****             return HAL_ERROR;
ARM GAS  /tmp/ccEZa6GA.s 			page 13


 376              		.loc 1 310 20
 377 0206 0123     		movs	r3, #1
 378 0208 79E1     		b	.L4
 379              	.L22:
 311:./Libraries/STM32F4xx_HAL_Driver/Src/stm32f4xx_hal_i2s_ex.c ****           }
 312:./Libraries/STM32F4xx_HAL_Driver/Src/stm32f4xx_hal_i2s_ex.c ****         }
 313:./Libraries/STM32F4xx_HAL_Driver/Src/stm32f4xx_hal_i2s_ex.c ****         if(hi2s->RxXferCount > 0U)
 380              		.loc 1 313 16
 381 020a FB68     		ldr	r3, [r7, #12]
 382 020c 5B8E     		ldrh	r3, [r3, #50]	@ movhi
 383 020e 9BB2     		uxth	r3, r3
 384              		.loc 1 313 11
 385 0210 002B     		cmp	r3, #0
 386 0212 57D0     		beq	.L21
 314:./Libraries/STM32F4xx_HAL_Driver/Src/stm32f4xx_hal_i2s_ex.c ****         {
 315:./Libraries/STM32F4xx_HAL_Driver/Src/stm32f4xx_hal_i2s_ex.c ****           /* Wait until RXNE flag is set */
 316:./Libraries/STM32F4xx_HAL_Driver/Src/stm32f4xx_hal_i2s_ex.c ****           if (I2SEx_FullDuplexWaitFlagStateUntilTimeout(hi2s, I2S_FLAG_RXNE, SET, Timeout, I2S_USE_
 387              		.loc 1 316 15
 388 0214 0123     		movs	r3, #1
 389 0216 0093     		str	r3, [sp]
 390 0218 BB6B     		ldr	r3, [r7, #56]
 391 021a 0122     		movs	r2, #1
 392 021c 0121     		movs	r1, #1
 393 021e F868     		ldr	r0, [r7, #12]
 394 0220 FFF7FEFF 		bl	I2SEx_FullDuplexWaitFlagStateUntilTimeout
 395 0224 0346     		mov	r3, r0
 396              		.loc 1 316 14
 397 0226 002B     		cmp	r3, #0
 398 0228 0AD0     		beq	.L24
 317:./Libraries/STM32F4xx_HAL_Driver/Src/stm32f4xx_hal_i2s_ex.c ****           {
 318:./Libraries/STM32F4xx_HAL_Driver/Src/stm32f4xx_hal_i2s_ex.c ****             /* Set the error code and execute error callback*/
 319:./Libraries/STM32F4xx_HAL_Driver/Src/stm32f4xx_hal_i2s_ex.c ****             SET_BIT(hi2s->ErrorCode,HAL_I2S_ERROR_TIMEOUT);
 399              		.loc 1 319 13
 400 022a FB68     		ldr	r3, [r7, #12]
 401 022c 5B6C     		ldr	r3, [r3, #68]
 402 022e 43F00102 		orr	r2, r3, #1
 403 0232 FB68     		ldr	r3, [r7, #12]
 404 0234 5A64     		str	r2, [r3, #68]
 320:./Libraries/STM32F4xx_HAL_Driver/Src/stm32f4xx_hal_i2s_ex.c ****             HAL_I2S_ErrorCallback(hi2s);
 405              		.loc 1 320 13
 406 0236 F868     		ldr	r0, [r7, #12]
 407 0238 FFF7FEFF 		bl	HAL_I2S_ErrorCallback
 321:./Libraries/STM32F4xx_HAL_Driver/Src/stm32f4xx_hal_i2s_ex.c ****             return HAL_TIMEOUT;
 408              		.loc 1 321 20
 409 023c 0323     		movs	r3, #3
 410 023e 5EE1     		b	.L4
 411              	.L24:
 322:./Libraries/STM32F4xx_HAL_Driver/Src/stm32f4xx_hal_i2s_ex.c ****           }
 323:./Libraries/STM32F4xx_HAL_Driver/Src/stm32f4xx_hal_i2s_ex.c ****           /* Read Data from DR register */
 324:./Libraries/STM32F4xx_HAL_Driver/Src/stm32f4xx_hal_i2s_ex.c ****           (*pRxData++) = I2SxEXT(hi2s->Instance)->DR;
 412              		.loc 1 324 26
 413 0240 FB68     		ldr	r3, [r7, #12]
 414 0242 1B68     		ldr	r3, [r3]
 415 0244 394A     		ldr	r2, .L47
 416 0246 9342     		cmp	r3, r2
 417 0248 01D1     		bne	.L25
 418              		.loc 1 324 26 is_stmt 0 discriminator 1
ARM GAS  /tmp/ccEZa6GA.s 			page 14


 419 024a 394B     		ldr	r3, .L47+4
 420 024c 01E0     		b	.L26
 421              	.L25:
 422              		.loc 1 324 26 discriminator 2
 423 024e 4FF04023 		mov	r3, #1073758208
 424              	.L26:
 425              		.loc 1 324 49 is_stmt 1 discriminator 4
 426 0252 D968     		ldr	r1, [r3, #12]
 427              		.loc 1 324 20 discriminator 4
 428 0254 7B68     		ldr	r3, [r7, #4]
 429 0256 9A1C     		adds	r2, r3, #2
 430 0258 7A60     		str	r2, [r7, #4]
 431              		.loc 1 324 24 discriminator 4
 432 025a 8AB2     		uxth	r2, r1
 433 025c 1A80     		strh	r2, [r3]	@ movhi
 325:./Libraries/STM32F4xx_HAL_Driver/Src/stm32f4xx_hal_i2s_ex.c ****           hi2s->RxXferCount--;
 434              		.loc 1 325 15 discriminator 4
 435 025e FB68     		ldr	r3, [r7, #12]
 436 0260 5B8E     		ldrh	r3, [r3, #50]	@ movhi
 437 0262 9BB2     		uxth	r3, r3
 438              		.loc 1 325 28 discriminator 4
 439 0264 013B     		subs	r3, r3, #1
 440 0266 9AB2     		uxth	r2, r3
 441 0268 FB68     		ldr	r3, [r7, #12]
 442 026a 5A86     		strh	r2, [r3, #50]	@ movhi
 326:./Libraries/STM32F4xx_HAL_Driver/Src/stm32f4xx_hal_i2s_ex.c **** 
 327:./Libraries/STM32F4xx_HAL_Driver/Src/stm32f4xx_hal_i2s_ex.c ****           /* Check if an overrun occurs */
 328:./Libraries/STM32F4xx_HAL_Driver/Src/stm32f4xx_hal_i2s_ex.c ****           if(__HAL_I2SEXT_GET_FLAG(hi2s, I2S_FLAG_OVR) == SET)
 443              		.loc 1 328 14 discriminator 4
 444 026c FB68     		ldr	r3, [r7, #12]
 445 026e 1B68     		ldr	r3, [r3]
 446 0270 2E4A     		ldr	r2, .L47
 447 0272 9342     		cmp	r3, r2
 448 0274 01D1     		bne	.L27
 449              		.loc 1 328 14 is_stmt 0 discriminator 1
 450 0276 2E4B     		ldr	r3, .L47+4
 451 0278 01E0     		b	.L28
 452              	.L27:
 453              		.loc 1 328 14 discriminator 2
 454 027a 4FF04023 		mov	r3, #1073758208
 455              	.L28:
 456              		.loc 1 328 14 discriminator 4
 457 027e 9B68     		ldr	r3, [r3, #8]
 458 0280 03F04003 		and	r3, r3, #64
 459              		.loc 1 328 13 is_stmt 1 discriminator 4
 460 0284 402B     		cmp	r3, #64
 461 0286 1DD1     		bne	.L21
 462              	.LBB4:
 329:./Libraries/STM32F4xx_HAL_Driver/Src/stm32f4xx_hal_i2s_ex.c ****           {
 330:./Libraries/STM32F4xx_HAL_Driver/Src/stm32f4xx_hal_i2s_ex.c ****             /* Clear Overrun flag */
 331:./Libraries/STM32F4xx_HAL_Driver/Src/stm32f4xx_hal_i2s_ex.c ****             __HAL_I2S_CLEAR_OVRFLAG(hi2s);
 463              		.loc 1 331 13
 464 0288 0023     		movs	r3, #0
 465 028a 3B62     		str	r3, [r7, #32]
 466 028c FB68     		ldr	r3, [r7, #12]
 467 028e 1B68     		ldr	r3, [r3]
 468 0290 DB68     		ldr	r3, [r3, #12]
ARM GAS  /tmp/ccEZa6GA.s 			page 15


 469 0292 3B62     		str	r3, [r7, #32]
 470 0294 FB68     		ldr	r3, [r7, #12]
 471 0296 1B68     		ldr	r3, [r3]
 472 0298 9B68     		ldr	r3, [r3, #8]
 473 029a 3B62     		str	r3, [r7, #32]
 474 029c 3B6A     		ldr	r3, [r7, #32]
 475              	.LBE4:
 332:./Libraries/STM32F4xx_HAL_Driver/Src/stm32f4xx_hal_i2s_ex.c **** 
 333:./Libraries/STM32F4xx_HAL_Driver/Src/stm32f4xx_hal_i2s_ex.c ****             /* Set the I2S State ready */
 334:./Libraries/STM32F4xx_HAL_Driver/Src/stm32f4xx_hal_i2s_ex.c ****             hi2s->State = HAL_I2S_STATE_READY;
 476              		.loc 1 334 25
 477 029e FB68     		ldr	r3, [r7, #12]
 478 02a0 0122     		movs	r2, #1
 479 02a2 83F84120 		strb	r2, [r3, #65]
 335:./Libraries/STM32F4xx_HAL_Driver/Src/stm32f4xx_hal_i2s_ex.c **** 
 336:./Libraries/STM32F4xx_HAL_Driver/Src/stm32f4xx_hal_i2s_ex.c ****             /* Process Unlocked */
 337:./Libraries/STM32F4xx_HAL_Driver/Src/stm32f4xx_hal_i2s_ex.c ****             __HAL_UNLOCK(hi2s);
 480              		.loc 1 337 13
 481 02a6 FB68     		ldr	r3, [r7, #12]
 482 02a8 0022     		movs	r2, #0
 483 02aa 83F84020 		strb	r2, [r3, #64]
 338:./Libraries/STM32F4xx_HAL_Driver/Src/stm32f4xx_hal_i2s_ex.c **** 
 339:./Libraries/STM32F4xx_HAL_Driver/Src/stm32f4xx_hal_i2s_ex.c ****             /* Set the error code and execute error callback*/
 340:./Libraries/STM32F4xx_HAL_Driver/Src/stm32f4xx_hal_i2s_ex.c ****             SET_BIT(hi2s->ErrorCode,HAL_I2S_ERROR_OVR);
 484              		.loc 1 340 13
 485 02ae FB68     		ldr	r3, [r7, #12]
 486 02b0 5B6C     		ldr	r3, [r3, #68]
 487 02b2 43F00202 		orr	r2, r3, #2
 488 02b6 FB68     		ldr	r3, [r7, #12]
 489 02b8 5A64     		str	r2, [r3, #68]
 341:./Libraries/STM32F4xx_HAL_Driver/Src/stm32f4xx_hal_i2s_ex.c ****             HAL_I2S_ErrorCallback(hi2s);
 490              		.loc 1 341 13
 491 02ba F868     		ldr	r0, [r7, #12]
 492 02bc FFF7FEFF 		bl	HAL_I2S_ErrorCallback
 342:./Libraries/STM32F4xx_HAL_Driver/Src/stm32f4xx_hal_i2s_ex.c **** 
 343:./Libraries/STM32F4xx_HAL_Driver/Src/stm32f4xx_hal_i2s_ex.c ****             return HAL_ERROR;
 493              		.loc 1 343 20
 494 02c0 0123     		movs	r3, #1
 495 02c2 1CE1     		b	.L4
 496              	.L21:
 278:./Libraries/STM32F4xx_HAL_Driver/Src/stm32f4xx_hal_i2s_ex.c ****       {
 497              		.loc 1 278 18
 498 02c4 FB68     		ldr	r3, [r7, #12]
 499 02c6 5B8E     		ldrh	r3, [r3, #50]	@ movhi
 500 02c8 9BB2     		uxth	r3, r3
 278:./Libraries/STM32F4xx_HAL_Driver/Src/stm32f4xx_hal_i2s_ex.c ****       {
 501              		.loc 1 278 12
 502 02ca 002B     		cmp	r3, #0
 503 02cc 7FF450AF 		bne	.L29
 278:./Libraries/STM32F4xx_HAL_Driver/Src/stm32f4xx_hal_i2s_ex.c ****       {
 504              		.loc 1 278 46 discriminator 1
 505 02d0 FB68     		ldr	r3, [r7, #12]
 506 02d2 5B8D     		ldrh	r3, [r3, #42]	@ movhi
 507 02d4 9BB2     		uxth	r3, r3
 278:./Libraries/STM32F4xx_HAL_Driver/Src/stm32f4xx_hal_i2s_ex.c ****       {
 508              		.loc 1 278 38 discriminator 1
 509 02d6 002B     		cmp	r3, #0
ARM GAS  /tmp/ccEZa6GA.s 			page 16


 510 02d8 7FF44AAF 		bne	.L29
 258:./Libraries/STM32F4xx_HAL_Driver/Src/stm32f4xx_hal_i2s_ex.c ****     {
 511              		.loc 1 258 7
 512 02dc 04E1     		b	.L30
 513              	.L11:
 344:./Libraries/STM32F4xx_HAL_Driver/Src/stm32f4xx_hal_i2s_ex.c ****           }
 345:./Libraries/STM32F4xx_HAL_Driver/Src/stm32f4xx_hal_i2s_ex.c ****         }
 346:./Libraries/STM32F4xx_HAL_Driver/Src/stm32f4xx_hal_i2s_ex.c ****       }
 347:./Libraries/STM32F4xx_HAL_Driver/Src/stm32f4xx_hal_i2s_ex.c ****     }
 348:./Libraries/STM32F4xx_HAL_Driver/Src/stm32f4xx_hal_i2s_ex.c ****     /* The I2S_MODE_MASTER_RX or I2S_MODE_SLAVE_RX Mode is selected */
 349:./Libraries/STM32F4xx_HAL_Driver/Src/stm32f4xx_hal_i2s_ex.c ****     else
 350:./Libraries/STM32F4xx_HAL_Driver/Src/stm32f4xx_hal_i2s_ex.c ****     {
 351:./Libraries/STM32F4xx_HAL_Driver/Src/stm32f4xx_hal_i2s_ex.c ****       /* Prepare the First Data before enabling the I2S */
 352:./Libraries/STM32F4xx_HAL_Driver/Src/stm32f4xx_hal_i2s_ex.c ****       I2SxEXT(hi2s->Instance)->DR = (*pTxData++);
 514              		.loc 1 352 46
 515 02de BB68     		ldr	r3, [r7, #8]
 516 02e0 9A1C     		adds	r2, r3, #2
 517 02e2 BA60     		str	r2, [r7, #8]
 518              		.loc 1 352 38
 519 02e4 1988     		ldrh	r1, [r3]
 520              		.loc 1 352 7
 521 02e6 FB68     		ldr	r3, [r7, #12]
 522 02e8 1B68     		ldr	r3, [r3]
 523 02ea 104A     		ldr	r2, .L47
 524 02ec 9342     		cmp	r3, r2
 525 02ee 01D1     		bne	.L31
 526              		.loc 1 352 7 is_stmt 0 discriminator 1
 527 02f0 0F4B     		ldr	r3, .L47+4
 528 02f2 01E0     		b	.L32
 529              	.L31:
 530              		.loc 1 352 7 discriminator 2
 531 02f4 4FF04023 		mov	r3, #1073758208
 532              	.L32:
 533              		.loc 1 352 38 is_stmt 1 discriminator 4
 534 02f8 0A46     		mov	r2, r1
 535              		.loc 1 352 35 discriminator 4
 536 02fa DA60     		str	r2, [r3, #12]
 353:./Libraries/STM32F4xx_HAL_Driver/Src/stm32f4xx_hal_i2s_ex.c ****       hi2s->TxXferCount--;
 537              		.loc 1 353 11 discriminator 4
 538 02fc FB68     		ldr	r3, [r7, #12]
 539 02fe 5B8D     		ldrh	r3, [r3, #42]	@ movhi
 540 0300 9BB2     		uxth	r3, r3
 541              		.loc 1 353 24 discriminator 4
 542 0302 013B     		subs	r3, r3, #1
 543 0304 9AB2     		uxth	r2, r3
 544 0306 FB68     		ldr	r3, [r7, #12]
 545 0308 5A85     		strh	r2, [r3, #42]	@ movhi
 354:./Libraries/STM32F4xx_HAL_Driver/Src/stm32f4xx_hal_i2s_ex.c **** 
 355:./Libraries/STM32F4xx_HAL_Driver/Src/stm32f4xx_hal_i2s_ex.c ****       /* Enable I2Sext(transmitter) after enabling I2Sx peripheral */
 356:./Libraries/STM32F4xx_HAL_Driver/Src/stm32f4xx_hal_i2s_ex.c ****       __HAL_I2SEXT_ENABLE(hi2s);
 546              		.loc 1 356 7 discriminator 4
 547 030a FB68     		ldr	r3, [r7, #12]
 548 030c 1B68     		ldr	r3, [r3]
 549 030e 074A     		ldr	r2, .L47
 550 0310 9342     		cmp	r3, r2
 551 0312 01D1     		bne	.L33
 552              		.loc 1 356 7 is_stmt 0 discriminator 1
ARM GAS  /tmp/ccEZa6GA.s 			page 17


 553 0314 064B     		ldr	r3, .L47+4
 554 0316 01E0     		b	.L34
 555              	.L33:
 556              		.loc 1 356 7 discriminator 2
 557 0318 4FF04023 		mov	r3, #1073758208
 558              	.L34:
 559              		.loc 1 356 7 discriminator 4
 560 031c DA69     		ldr	r2, [r3, #28]
 561 031e FB68     		ldr	r3, [r7, #12]
 562 0320 1B68     		ldr	r3, [r3]
 563 0322 0249     		ldr	r1, .L47
 564 0324 8B42     		cmp	r3, r1
 565 0326 05D1     		bne	.L35
 566              		.loc 1 356 7 discriminator 5
 567 0328 014B     		ldr	r3, .L47+4
 568 032a 05E0     		b	.L36
 569              	.L48:
 570              		.align	2
 571              	.L47:
 572 032c 00380040 		.word	1073756160
 573 0330 00340040 		.word	1073755136
 574              	.L35:
 575              		.loc 1 356 7 discriminator 6
 576 0334 4FF04023 		mov	r3, #1073758208
 577              	.L36:
 578              		.loc 1 356 7 discriminator 8
 579 0338 42F48062 		orr	r2, r2, #1024
 580 033c DA61     		str	r2, [r3, #28]
 357:./Libraries/STM32F4xx_HAL_Driver/Src/stm32f4xx_hal_i2s_ex.c ****       
 358:./Libraries/STM32F4xx_HAL_Driver/Src/stm32f4xx_hal_i2s_ex.c ****       /* Enable I2S peripheral before the I2Sext*/
 359:./Libraries/STM32F4xx_HAL_Driver/Src/stm32f4xx_hal_i2s_ex.c ****       __HAL_I2S_ENABLE(hi2s);
 581              		.loc 1 359 7 is_stmt 1 discriminator 8
 582 033e FB68     		ldr	r3, [r7, #12]
 583 0340 1B68     		ldr	r3, [r3]
 584 0342 DA69     		ldr	r2, [r3, #28]
 585 0344 FB68     		ldr	r3, [r7, #12]
 586 0346 1B68     		ldr	r3, [r3]
 587 0348 42F48062 		orr	r2, r2, #1024
 588 034c DA61     		str	r2, [r3, #28]
 360:./Libraries/STM32F4xx_HAL_Driver/Src/stm32f4xx_hal_i2s_ex.c **** 
 361:./Libraries/STM32F4xx_HAL_Driver/Src/stm32f4xx_hal_i2s_ex.c ****       /* Check if Master Receiver mode is selected */
 362:./Libraries/STM32F4xx_HAL_Driver/Src/stm32f4xx_hal_i2s_ex.c ****       if((hi2s->Instance->I2SCFGR & SPI_I2SCFGR_I2SCFG) == I2S_MODE_MASTER_RX)
 589              		.loc 1 362 15 discriminator 8
 590 034e FB68     		ldr	r3, [r7, #12]
 591 0350 1B68     		ldr	r3, [r3]
 592              		.loc 1 362 25 discriminator 8
 593 0352 DB69     		ldr	r3, [r3, #28]
 594              		.loc 1 362 35 discriminator 8
 595 0354 03F44073 		and	r3, r3, #768
 596              		.loc 1 362 9 discriminator 8
 597 0358 B3F5407F 		cmp	r3, #768
 598 035c 40F0B880 		bne	.L38
 599              	.LBB5:
 363:./Libraries/STM32F4xx_HAL_Driver/Src/stm32f4xx_hal_i2s_ex.c ****       {
 364:./Libraries/STM32F4xx_HAL_Driver/Src/stm32f4xx_hal_i2s_ex.c ****         /* Clear the Overrun Flag by a read operation on the SPI_DR register followed by a read
 365:./Libraries/STM32F4xx_HAL_Driver/Src/stm32f4xx_hal_i2s_ex.c ****         access to the SPI_SR register. */
 366:./Libraries/STM32F4xx_HAL_Driver/Src/stm32f4xx_hal_i2s_ex.c ****         __HAL_I2S_CLEAR_OVRFLAG(hi2s);
ARM GAS  /tmp/ccEZa6GA.s 			page 18


 600              		.loc 1 366 9
 601 0360 0023     		movs	r3, #0
 602 0362 FB61     		str	r3, [r7, #28]
 603 0364 FB68     		ldr	r3, [r7, #12]
 604 0366 1B68     		ldr	r3, [r3]
 605 0368 DB68     		ldr	r3, [r3, #12]
 606 036a FB61     		str	r3, [r7, #28]
 607 036c FB68     		ldr	r3, [r7, #12]
 608 036e 1B68     		ldr	r3, [r3]
 609 0370 9B68     		ldr	r3, [r3, #8]
 610 0372 FB61     		str	r3, [r7, #28]
 611 0374 FB69     		ldr	r3, [r7, #28]
 612              	.LBE5:
 367:./Libraries/STM32F4xx_HAL_Driver/Src/stm32f4xx_hal_i2s_ex.c ****       }
 368:./Libraries/STM32F4xx_HAL_Driver/Src/stm32f4xx_hal_i2s_ex.c **** 
 369:./Libraries/STM32F4xx_HAL_Driver/Src/stm32f4xx_hal_i2s_ex.c ****       while((hi2s->RxXferCount > 0U) || (hi2s->TxXferCount > 0U))
 613              		.loc 1 369 12
 614 0376 ABE0     		b	.L38
 615              	.L46:
 370:./Libraries/STM32F4xx_HAL_Driver/Src/stm32f4xx_hal_i2s_ex.c ****       {
 371:./Libraries/STM32F4xx_HAL_Driver/Src/stm32f4xx_hal_i2s_ex.c ****         if(hi2s->TxXferCount > 0U)
 616              		.loc 1 371 16
 617 0378 FB68     		ldr	r3, [r7, #12]
 618 037a 5B8D     		ldrh	r3, [r3, #42]	@ movhi
 619 037c 9BB2     		uxth	r3, r3
 620              		.loc 1 371 11
 621 037e 002B     		cmp	r3, #0
 622 0380 57D0     		beq	.L39
 372:./Libraries/STM32F4xx_HAL_Driver/Src/stm32f4xx_hal_i2s_ex.c ****         {
 373:./Libraries/STM32F4xx_HAL_Driver/Src/stm32f4xx_hal_i2s_ex.c ****           /* Wait until TXE flag is set */
 374:./Libraries/STM32F4xx_HAL_Driver/Src/stm32f4xx_hal_i2s_ex.c ****           if (I2SEx_FullDuplexWaitFlagStateUntilTimeout(hi2s, I2S_FLAG_TXE, SET, Timeout, I2S_USE_I
 623              		.loc 1 374 15
 624 0382 0123     		movs	r3, #1
 625 0384 0093     		str	r3, [sp]
 626 0386 BB6B     		ldr	r3, [r7, #56]
 627 0388 0122     		movs	r2, #1
 628 038a 0221     		movs	r1, #2
 629 038c F868     		ldr	r0, [r7, #12]
 630 038e FFF7FEFF 		bl	I2SEx_FullDuplexWaitFlagStateUntilTimeout
 631 0392 0346     		mov	r3, r0
 632              		.loc 1 374 14
 633 0394 002B     		cmp	r3, #0
 634 0396 0AD0     		beq	.L40
 375:./Libraries/STM32F4xx_HAL_Driver/Src/stm32f4xx_hal_i2s_ex.c ****           {
 376:./Libraries/STM32F4xx_HAL_Driver/Src/stm32f4xx_hal_i2s_ex.c ****             /* Set the error code and execute error callback*/
 377:./Libraries/STM32F4xx_HAL_Driver/Src/stm32f4xx_hal_i2s_ex.c ****             SET_BIT(hi2s->ErrorCode,HAL_I2S_ERROR_TIMEOUT);
 635              		.loc 1 377 13
 636 0398 FB68     		ldr	r3, [r7, #12]
 637 039a 5B6C     		ldr	r3, [r3, #68]
 638 039c 43F00102 		orr	r2, r3, #1
 639 03a0 FB68     		ldr	r3, [r7, #12]
 640 03a2 5A64     		str	r2, [r3, #68]
 378:./Libraries/STM32F4xx_HAL_Driver/Src/stm32f4xx_hal_i2s_ex.c ****             HAL_I2S_ErrorCallback(hi2s);
 641              		.loc 1 378 13
 642 03a4 F868     		ldr	r0, [r7, #12]
 643 03a6 FFF7FEFF 		bl	HAL_I2S_ErrorCallback
 379:./Libraries/STM32F4xx_HAL_Driver/Src/stm32f4xx_hal_i2s_ex.c ****             return HAL_TIMEOUT;
ARM GAS  /tmp/ccEZa6GA.s 			page 19


 644              		.loc 1 379 20
 645 03aa 0323     		movs	r3, #3
 646 03ac A7E0     		b	.L4
 647              	.L40:
 380:./Libraries/STM32F4xx_HAL_Driver/Src/stm32f4xx_hal_i2s_ex.c ****           }
 381:./Libraries/STM32F4xx_HAL_Driver/Src/stm32f4xx_hal_i2s_ex.c ****           /* Write Data on DR register */
 382:./Libraries/STM32F4xx_HAL_Driver/Src/stm32f4xx_hal_i2s_ex.c ****           I2SxEXT(hi2s->Instance)->DR = (*pTxData++);
 648              		.loc 1 382 50
 649 03ae BB68     		ldr	r3, [r7, #8]
 650 03b0 9A1C     		adds	r2, r3, #2
 651 03b2 BA60     		str	r2, [r7, #8]
 652              		.loc 1 382 42
 653 03b4 1988     		ldrh	r1, [r3]
 654              		.loc 1 382 11
 655 03b6 FB68     		ldr	r3, [r7, #12]
 656 03b8 1B68     		ldr	r3, [r3]
 657 03ba 534A     		ldr	r2, .L49
 658 03bc 9342     		cmp	r3, r2
 659 03be 01D1     		bne	.L41
 660              		.loc 1 382 11 is_stmt 0 discriminator 1
 661 03c0 524B     		ldr	r3, .L49+4
 662 03c2 01E0     		b	.L42
 663              	.L41:
 664              		.loc 1 382 11 discriminator 2
 665 03c4 4FF04023 		mov	r3, #1073758208
 666              	.L42:
 667              		.loc 1 382 42 is_stmt 1 discriminator 4
 668 03c8 0A46     		mov	r2, r1
 669              		.loc 1 382 39 discriminator 4
 670 03ca DA60     		str	r2, [r3, #12]
 383:./Libraries/STM32F4xx_HAL_Driver/Src/stm32f4xx_hal_i2s_ex.c ****           hi2s->TxXferCount--;
 671              		.loc 1 383 15 discriminator 4
 672 03cc FB68     		ldr	r3, [r7, #12]
 673 03ce 5B8D     		ldrh	r3, [r3, #42]	@ movhi
 674 03d0 9BB2     		uxth	r3, r3
 675              		.loc 1 383 28 discriminator 4
 676 03d2 013B     		subs	r3, r3, #1
 677 03d4 9AB2     		uxth	r2, r3
 678 03d6 FB68     		ldr	r3, [r7, #12]
 679 03d8 5A85     		strh	r2, [r3, #42]	@ movhi
 384:./Libraries/STM32F4xx_HAL_Driver/Src/stm32f4xx_hal_i2s_ex.c **** 
 385:./Libraries/STM32F4xx_HAL_Driver/Src/stm32f4xx_hal_i2s_ex.c ****           /* Check if an underrun occurs */
 386:./Libraries/STM32F4xx_HAL_Driver/Src/stm32f4xx_hal_i2s_ex.c ****           if((__HAL_I2SEXT_GET_FLAG(hi2s, I2S_FLAG_UDR) == SET) && (tmp1 == I2S_MODE_SLAVE_RX))
 680              		.loc 1 386 15 discriminator 4
 681 03da FB68     		ldr	r3, [r7, #12]
 682 03dc 1B68     		ldr	r3, [r3]
 683 03de 4A4A     		ldr	r2, .L49
 684 03e0 9342     		cmp	r3, r2
 685 03e2 01D1     		bne	.L43
 686              		.loc 1 386 15 is_stmt 0 discriminator 1
 687 03e4 494B     		ldr	r3, .L49+4
 688 03e6 01E0     		b	.L44
 689              	.L43:
 690              		.loc 1 386 15 discriminator 2
 691 03e8 4FF04023 		mov	r3, #1073758208
 692              	.L44:
 693              		.loc 1 386 15 discriminator 4
ARM GAS  /tmp/ccEZa6GA.s 			page 20


 694 03ec 9B68     		ldr	r3, [r3, #8]
 695 03ee 03F00803 		and	r3, r3, #8
 696              		.loc 1 386 13 is_stmt 1 discriminator 4
 697 03f2 082B     		cmp	r3, #8
 698 03f4 1DD1     		bne	.L39
 699              		.loc 1 386 65 discriminator 5
 700 03f6 FB6A     		ldr	r3, [r7, #44]
 701 03f8 B3F5807F 		cmp	r3, #256
 702 03fc 19D1     		bne	.L39
 703              	.LBB6:
 387:./Libraries/STM32F4xx_HAL_Driver/Src/stm32f4xx_hal_i2s_ex.c ****           {
 388:./Libraries/STM32F4xx_HAL_Driver/Src/stm32f4xx_hal_i2s_ex.c ****             /* Clear Underrun flag */
 389:./Libraries/STM32F4xx_HAL_Driver/Src/stm32f4xx_hal_i2s_ex.c ****             __HAL_I2S_CLEAR_UDRFLAG(hi2s);
 704              		.loc 1 389 13
 705 03fe 0023     		movs	r3, #0
 706 0400 BB61     		str	r3, [r7, #24]
 707 0402 FB68     		ldr	r3, [r7, #12]
 708 0404 1B68     		ldr	r3, [r3]
 709 0406 9B68     		ldr	r3, [r3, #8]
 710 0408 BB61     		str	r3, [r7, #24]
 711 040a BB69     		ldr	r3, [r7, #24]
 712              	.LBE6:
 390:./Libraries/STM32F4xx_HAL_Driver/Src/stm32f4xx_hal_i2s_ex.c **** 
 391:./Libraries/STM32F4xx_HAL_Driver/Src/stm32f4xx_hal_i2s_ex.c ****             /* Set the I2S State ready */
 392:./Libraries/STM32F4xx_HAL_Driver/Src/stm32f4xx_hal_i2s_ex.c ****             hi2s->State = HAL_I2S_STATE_READY;
 713              		.loc 1 392 25
 714 040c FB68     		ldr	r3, [r7, #12]
 715 040e 0122     		movs	r2, #1
 716 0410 83F84120 		strb	r2, [r3, #65]
 393:./Libraries/STM32F4xx_HAL_Driver/Src/stm32f4xx_hal_i2s_ex.c **** 
 394:./Libraries/STM32F4xx_HAL_Driver/Src/stm32f4xx_hal_i2s_ex.c ****             /* Process Unlocked */
 395:./Libraries/STM32F4xx_HAL_Driver/Src/stm32f4xx_hal_i2s_ex.c ****             __HAL_UNLOCK(hi2s);
 717              		.loc 1 395 13
 718 0414 FB68     		ldr	r3, [r7, #12]
 719 0416 0022     		movs	r2, #0
 720 0418 83F84020 		strb	r2, [r3, #64]
 396:./Libraries/STM32F4xx_HAL_Driver/Src/stm32f4xx_hal_i2s_ex.c **** 
 397:./Libraries/STM32F4xx_HAL_Driver/Src/stm32f4xx_hal_i2s_ex.c ****             /* Set the error code and execute error callback*/
 398:./Libraries/STM32F4xx_HAL_Driver/Src/stm32f4xx_hal_i2s_ex.c ****             SET_BIT(hi2s->ErrorCode,HAL_I2S_ERROR_UDR);
 721              		.loc 1 398 13
 722 041c FB68     		ldr	r3, [r7, #12]
 723 041e 5B6C     		ldr	r3, [r3, #68]
 724 0420 43F00402 		orr	r2, r3, #4
 725 0424 FB68     		ldr	r3, [r7, #12]
 726 0426 5A64     		str	r2, [r3, #68]
 399:./Libraries/STM32F4xx_HAL_Driver/Src/stm32f4xx_hal_i2s_ex.c ****             HAL_I2S_ErrorCallback(hi2s);
 727              		.loc 1 399 13
 728 0428 F868     		ldr	r0, [r7, #12]
 729 042a FFF7FEFF 		bl	HAL_I2S_ErrorCallback
 400:./Libraries/STM32F4xx_HAL_Driver/Src/stm32f4xx_hal_i2s_ex.c **** 
 401:./Libraries/STM32F4xx_HAL_Driver/Src/stm32f4xx_hal_i2s_ex.c ****             return HAL_ERROR;
 730              		.loc 1 401 20
 731 042e 0123     		movs	r3, #1
 732 0430 65E0     		b	.L4
 733              	.L39:
 402:./Libraries/STM32F4xx_HAL_Driver/Src/stm32f4xx_hal_i2s_ex.c ****           }
 403:./Libraries/STM32F4xx_HAL_Driver/Src/stm32f4xx_hal_i2s_ex.c ****         }
ARM GAS  /tmp/ccEZa6GA.s 			page 21


 404:./Libraries/STM32F4xx_HAL_Driver/Src/stm32f4xx_hal_i2s_ex.c ****         if(hi2s->RxXferCount > 0U)
 734              		.loc 1 404 16
 735 0432 FB68     		ldr	r3, [r7, #12]
 736 0434 5B8E     		ldrh	r3, [r3, #50]	@ movhi
 737 0436 9BB2     		uxth	r3, r3
 738              		.loc 1 404 11
 739 0438 002B     		cmp	r3, #0
 740 043a 49D0     		beq	.L38
 405:./Libraries/STM32F4xx_HAL_Driver/Src/stm32f4xx_hal_i2s_ex.c ****         {
 406:./Libraries/STM32F4xx_HAL_Driver/Src/stm32f4xx_hal_i2s_ex.c ****           /* Wait until RXNE flag is set */
 407:./Libraries/STM32F4xx_HAL_Driver/Src/stm32f4xx_hal_i2s_ex.c ****           if (I2SEx_FullDuplexWaitFlagStateUntilTimeout(hi2s, I2S_FLAG_RXNE, SET, Timeout, I2S_USE_
 741              		.loc 1 407 15
 742 043c 0023     		movs	r3, #0
 743 043e 0093     		str	r3, [sp]
 744 0440 BB6B     		ldr	r3, [r7, #56]
 745 0442 0122     		movs	r2, #1
 746 0444 0121     		movs	r1, #1
 747 0446 F868     		ldr	r0, [r7, #12]
 748 0448 FFF7FEFF 		bl	I2SEx_FullDuplexWaitFlagStateUntilTimeout
 749 044c 0346     		mov	r3, r0
 750              		.loc 1 407 14
 751 044e 002B     		cmp	r3, #0
 752 0450 0AD0     		beq	.L45
 408:./Libraries/STM32F4xx_HAL_Driver/Src/stm32f4xx_hal_i2s_ex.c ****           {
 409:./Libraries/STM32F4xx_HAL_Driver/Src/stm32f4xx_hal_i2s_ex.c ****             /* Set the error code and execute error callback*/
 410:./Libraries/STM32F4xx_HAL_Driver/Src/stm32f4xx_hal_i2s_ex.c ****             SET_BIT(hi2s->ErrorCode,HAL_I2S_ERROR_TIMEOUT);
 753              		.loc 1 410 13
 754 0452 FB68     		ldr	r3, [r7, #12]
 755 0454 5B6C     		ldr	r3, [r3, #68]
 756 0456 43F00102 		orr	r2, r3, #1
 757 045a FB68     		ldr	r3, [r7, #12]
 758 045c 5A64     		str	r2, [r3, #68]
 411:./Libraries/STM32F4xx_HAL_Driver/Src/stm32f4xx_hal_i2s_ex.c ****             HAL_I2S_ErrorCallback(hi2s);
 759              		.loc 1 411 13
 760 045e F868     		ldr	r0, [r7, #12]
 761 0460 FFF7FEFF 		bl	HAL_I2S_ErrorCallback
 412:./Libraries/STM32F4xx_HAL_Driver/Src/stm32f4xx_hal_i2s_ex.c ****             return HAL_TIMEOUT;
 762              		.loc 1 412 20
 763 0464 0323     		movs	r3, #3
 764 0466 4AE0     		b	.L4
 765              	.L45:
 413:./Libraries/STM32F4xx_HAL_Driver/Src/stm32f4xx_hal_i2s_ex.c ****           }
 414:./Libraries/STM32F4xx_HAL_Driver/Src/stm32f4xx_hal_i2s_ex.c ****           /* Read Data from DR register */
 415:./Libraries/STM32F4xx_HAL_Driver/Src/stm32f4xx_hal_i2s_ex.c ****           (*pRxData++) = hi2s->Instance->DR;
 766              		.loc 1 415 30
 767 0468 FB68     		ldr	r3, [r7, #12]
 768 046a 1B68     		ldr	r3, [r3]
 769              		.loc 1 415 40
 770 046c D968     		ldr	r1, [r3, #12]
 771              		.loc 1 415 20
 772 046e 7B68     		ldr	r3, [r7, #4]
 773 0470 9A1C     		adds	r2, r3, #2
 774 0472 7A60     		str	r2, [r7, #4]
 775              		.loc 1 415 24
 776 0474 8AB2     		uxth	r2, r1
 777 0476 1A80     		strh	r2, [r3]	@ movhi
 416:./Libraries/STM32F4xx_HAL_Driver/Src/stm32f4xx_hal_i2s_ex.c ****           hi2s->RxXferCount--;
ARM GAS  /tmp/ccEZa6GA.s 			page 22


 778              		.loc 1 416 15
 779 0478 FB68     		ldr	r3, [r7, #12]
 780 047a 5B8E     		ldrh	r3, [r3, #50]	@ movhi
 781 047c 9BB2     		uxth	r3, r3
 782              		.loc 1 416 28
 783 047e 013B     		subs	r3, r3, #1
 784 0480 9AB2     		uxth	r2, r3
 785 0482 FB68     		ldr	r3, [r7, #12]
 786 0484 5A86     		strh	r2, [r3, #50]	@ movhi
 417:./Libraries/STM32F4xx_HAL_Driver/Src/stm32f4xx_hal_i2s_ex.c **** 
 418:./Libraries/STM32F4xx_HAL_Driver/Src/stm32f4xx_hal_i2s_ex.c ****           /* Check if an overrun occurs */
 419:./Libraries/STM32F4xx_HAL_Driver/Src/stm32f4xx_hal_i2s_ex.c ****           if(__HAL_I2S_GET_FLAG(hi2s, I2S_FLAG_OVR) == SET)
 787              		.loc 1 419 14
 788 0486 FB68     		ldr	r3, [r7, #12]
 789 0488 1B68     		ldr	r3, [r3]
 790 048a 9B68     		ldr	r3, [r3, #8]
 791 048c 03F04003 		and	r3, r3, #64
 792              		.loc 1 419 13
 793 0490 402B     		cmp	r3, #64
 794 0492 1DD1     		bne	.L38
 795              	.LBB7:
 420:./Libraries/STM32F4xx_HAL_Driver/Src/stm32f4xx_hal_i2s_ex.c ****           {
 421:./Libraries/STM32F4xx_HAL_Driver/Src/stm32f4xx_hal_i2s_ex.c ****             /* Clear Overrun flag */
 422:./Libraries/STM32F4xx_HAL_Driver/Src/stm32f4xx_hal_i2s_ex.c ****             __HAL_I2S_CLEAR_OVRFLAG(hi2s);
 796              		.loc 1 422 13
 797 0494 0023     		movs	r3, #0
 798 0496 7B61     		str	r3, [r7, #20]
 799 0498 FB68     		ldr	r3, [r7, #12]
 800 049a 1B68     		ldr	r3, [r3]
 801 049c DB68     		ldr	r3, [r3, #12]
 802 049e 7B61     		str	r3, [r7, #20]
 803 04a0 FB68     		ldr	r3, [r7, #12]
 804 04a2 1B68     		ldr	r3, [r3]
 805 04a4 9B68     		ldr	r3, [r3, #8]
 806 04a6 7B61     		str	r3, [r7, #20]
 807 04a8 7B69     		ldr	r3, [r7, #20]
 808              	.LBE7:
 423:./Libraries/STM32F4xx_HAL_Driver/Src/stm32f4xx_hal_i2s_ex.c **** 
 424:./Libraries/STM32F4xx_HAL_Driver/Src/stm32f4xx_hal_i2s_ex.c ****             /* Set the I2S State ready */
 425:./Libraries/STM32F4xx_HAL_Driver/Src/stm32f4xx_hal_i2s_ex.c ****             hi2s->State = HAL_I2S_STATE_READY;
 809              		.loc 1 425 25
 810 04aa FB68     		ldr	r3, [r7, #12]
 811 04ac 0122     		movs	r2, #1
 812 04ae 83F84120 		strb	r2, [r3, #65]
 426:./Libraries/STM32F4xx_HAL_Driver/Src/stm32f4xx_hal_i2s_ex.c **** 
 427:./Libraries/STM32F4xx_HAL_Driver/Src/stm32f4xx_hal_i2s_ex.c ****             /* Process Unlocked */
 428:./Libraries/STM32F4xx_HAL_Driver/Src/stm32f4xx_hal_i2s_ex.c ****             __HAL_UNLOCK(hi2s);
 813              		.loc 1 428 13
 814 04b2 FB68     		ldr	r3, [r7, #12]
 815 04b4 0022     		movs	r2, #0
 816 04b6 83F84020 		strb	r2, [r3, #64]
 429:./Libraries/STM32F4xx_HAL_Driver/Src/stm32f4xx_hal_i2s_ex.c **** 
 430:./Libraries/STM32F4xx_HAL_Driver/Src/stm32f4xx_hal_i2s_ex.c ****             /* Set the error code and execute error callback*/
 431:./Libraries/STM32F4xx_HAL_Driver/Src/stm32f4xx_hal_i2s_ex.c ****             SET_BIT(hi2s->ErrorCode,HAL_I2S_ERROR_OVR);
 817              		.loc 1 431 13
 818 04ba FB68     		ldr	r3, [r7, #12]
 819 04bc 5B6C     		ldr	r3, [r3, #68]
ARM GAS  /tmp/ccEZa6GA.s 			page 23


 820 04be 43F00202 		orr	r2, r3, #2
 821 04c2 FB68     		ldr	r3, [r7, #12]
 822 04c4 5A64     		str	r2, [r3, #68]
 432:./Libraries/STM32F4xx_HAL_Driver/Src/stm32f4xx_hal_i2s_ex.c ****             HAL_I2S_ErrorCallback(hi2s);
 823              		.loc 1 432 13
 824 04c6 F868     		ldr	r0, [r7, #12]
 825 04c8 FFF7FEFF 		bl	HAL_I2S_ErrorCallback
 433:./Libraries/STM32F4xx_HAL_Driver/Src/stm32f4xx_hal_i2s_ex.c **** 
 434:./Libraries/STM32F4xx_HAL_Driver/Src/stm32f4xx_hal_i2s_ex.c ****             return HAL_ERROR;
 826              		.loc 1 434 20
 827 04cc 0123     		movs	r3, #1
 828 04ce 16E0     		b	.L4
 829              	.L38:
 369:./Libraries/STM32F4xx_HAL_Driver/Src/stm32f4xx_hal_i2s_ex.c ****       {
 830              		.loc 1 369 18
 831 04d0 FB68     		ldr	r3, [r7, #12]
 832 04d2 5B8E     		ldrh	r3, [r3, #50]	@ movhi
 833 04d4 9BB2     		uxth	r3, r3
 369:./Libraries/STM32F4xx_HAL_Driver/Src/stm32f4xx_hal_i2s_ex.c ****       {
 834              		.loc 1 369 12
 835 04d6 002B     		cmp	r3, #0
 836 04d8 7FF44EAF 		bne	.L46
 369:./Libraries/STM32F4xx_HAL_Driver/Src/stm32f4xx_hal_i2s_ex.c ****       {
 837              		.loc 1 369 46 discriminator 1
 838 04dc FB68     		ldr	r3, [r7, #12]
 839 04de 5B8D     		ldrh	r3, [r3, #42]	@ movhi
 840 04e0 9BB2     		uxth	r3, r3
 369:./Libraries/STM32F4xx_HAL_Driver/Src/stm32f4xx_hal_i2s_ex.c ****       {
 841              		.loc 1 369 38 discriminator 1
 842 04e2 002B     		cmp	r3, #0
 843 04e4 7FF448AF 		bne	.L46
 844              	.L30:
 435:./Libraries/STM32F4xx_HAL_Driver/Src/stm32f4xx_hal_i2s_ex.c ****           }
 436:./Libraries/STM32F4xx_HAL_Driver/Src/stm32f4xx_hal_i2s_ex.c ****         }
 437:./Libraries/STM32F4xx_HAL_Driver/Src/stm32f4xx_hal_i2s_ex.c ****       }
 438:./Libraries/STM32F4xx_HAL_Driver/Src/stm32f4xx_hal_i2s_ex.c ****     }
 439:./Libraries/STM32F4xx_HAL_Driver/Src/stm32f4xx_hal_i2s_ex.c **** 
 440:./Libraries/STM32F4xx_HAL_Driver/Src/stm32f4xx_hal_i2s_ex.c ****     /* Set the I2S State ready */
 441:./Libraries/STM32F4xx_HAL_Driver/Src/stm32f4xx_hal_i2s_ex.c ****     hi2s->State = HAL_I2S_STATE_READY;
 845              		.loc 1 441 17
 846 04e8 FB68     		ldr	r3, [r7, #12]
 847 04ea 0122     		movs	r2, #1
 848 04ec 83F84120 		strb	r2, [r3, #65]
 442:./Libraries/STM32F4xx_HAL_Driver/Src/stm32f4xx_hal_i2s_ex.c **** 
 443:./Libraries/STM32F4xx_HAL_Driver/Src/stm32f4xx_hal_i2s_ex.c ****     /* Process Unlocked */
 444:./Libraries/STM32F4xx_HAL_Driver/Src/stm32f4xx_hal_i2s_ex.c ****     __HAL_UNLOCK(hi2s);
 849              		.loc 1 444 5
 850 04f0 FB68     		ldr	r3, [r7, #12]
 851 04f2 0022     		movs	r2, #0
 852 04f4 83F84020 		strb	r2, [r3, #64]
 445:./Libraries/STM32F4xx_HAL_Driver/Src/stm32f4xx_hal_i2s_ex.c **** 
 446:./Libraries/STM32F4xx_HAL_Driver/Src/stm32f4xx_hal_i2s_ex.c ****     return HAL_OK;
 853              		.loc 1 446 12
 854 04f8 0023     		movs	r3, #0
 855 04fa 00E0     		b	.L4
 856              	.L5:
 447:./Libraries/STM32F4xx_HAL_Driver/Src/stm32f4xx_hal_i2s_ex.c ****   }
ARM GAS  /tmp/ccEZa6GA.s 			page 24


 448:./Libraries/STM32F4xx_HAL_Driver/Src/stm32f4xx_hal_i2s_ex.c ****   else
 449:./Libraries/STM32F4xx_HAL_Driver/Src/stm32f4xx_hal_i2s_ex.c ****   {
 450:./Libraries/STM32F4xx_HAL_Driver/Src/stm32f4xx_hal_i2s_ex.c ****     return HAL_BUSY;
 857              		.loc 1 450 12
 858 04fc 0223     		movs	r3, #2
 859              	.L4:
 451:./Libraries/STM32F4xx_HAL_Driver/Src/stm32f4xx_hal_i2s_ex.c ****   }
 452:./Libraries/STM32F4xx_HAL_Driver/Src/stm32f4xx_hal_i2s_ex.c **** }
 860              		.loc 1 452 1
 861 04fe 1846     		mov	r0, r3
 862 0500 3037     		adds	r7, r7, #48
 863              	.LCFI3:
 864              		.cfi_def_cfa_offset 8
 865 0502 BD46     		mov	sp, r7
 866              	.LCFI4:
 867              		.cfi_def_cfa_register 13
 868              		@ sp needed
 869 0504 80BD     		pop	{r7, pc}
 870              	.L50:
 871 0506 00BF     		.align	2
 872              	.L49:
 873 0508 00380040 		.word	1073756160
 874 050c 00340040 		.word	1073755136
 875              		.cfi_endproc
 876              	.LFE126:
 878              		.section	.text.HAL_I2SEx_TransmitReceive_IT,"ax",%progbits
 879              		.align	1
 880              		.global	HAL_I2SEx_TransmitReceive_IT
 881              		.syntax unified
 882              		.thumb
 883              		.thumb_func
 884              		.fpu fpv4-sp-d16
 886              	HAL_I2SEx_TransmitReceive_IT:
 887              	.LFB127:
 453:./Libraries/STM32F4xx_HAL_Driver/Src/stm32f4xx_hal_i2s_ex.c **** 
 454:./Libraries/STM32F4xx_HAL_Driver/Src/stm32f4xx_hal_i2s_ex.c **** /**
 455:./Libraries/STM32F4xx_HAL_Driver/Src/stm32f4xx_hal_i2s_ex.c ****   * @brief Full-Duplex Transmit/Receive data in non-blocking mode using Interrupt
 456:./Libraries/STM32F4xx_HAL_Driver/Src/stm32f4xx_hal_i2s_ex.c ****   * @param  hi2s pointer to a I2S_HandleTypeDef structure that contains
 457:./Libraries/STM32F4xx_HAL_Driver/Src/stm32f4xx_hal_i2s_ex.c ****   *         the configuration information for I2S module
 458:./Libraries/STM32F4xx_HAL_Driver/Src/stm32f4xx_hal_i2s_ex.c ****   * @param pTxData a 16-bit pointer to the Transmit data buffer.
 459:./Libraries/STM32F4xx_HAL_Driver/Src/stm32f4xx_hal_i2s_ex.c ****   * @param pRxData a 16-bit pointer to the Receive data buffer.
 460:./Libraries/STM32F4xx_HAL_Driver/Src/stm32f4xx_hal_i2s_ex.c ****   * @param Size number of data sample to be sent:
 461:./Libraries/STM32F4xx_HAL_Driver/Src/stm32f4xx_hal_i2s_ex.c ****   * @note When a 16-bit data frame or a 16-bit data frame extended is selected during the I2S
 462:./Libraries/STM32F4xx_HAL_Driver/Src/stm32f4xx_hal_i2s_ex.c ****   *       configuration phase, the Size parameter means the number of 16-bit data length
 463:./Libraries/STM32F4xx_HAL_Driver/Src/stm32f4xx_hal_i2s_ex.c ****   *       in the transaction and when a 24-bit data frame or a 32-bit data frame is selected
 464:./Libraries/STM32F4xx_HAL_Driver/Src/stm32f4xx_hal_i2s_ex.c ****   *       the Size parameter means the number of 16-bit data length.
 465:./Libraries/STM32F4xx_HAL_Driver/Src/stm32f4xx_hal_i2s_ex.c ****   * @note The I2S is kept enabled at the end of transaction to avoid the clock de-synchronization
 466:./Libraries/STM32F4xx_HAL_Driver/Src/stm32f4xx_hal_i2s_ex.c ****   *       between Master and Slave(example: audio streaming).
 467:./Libraries/STM32F4xx_HAL_Driver/Src/stm32f4xx_hal_i2s_ex.c ****   * @retval HAL status
 468:./Libraries/STM32F4xx_HAL_Driver/Src/stm32f4xx_hal_i2s_ex.c ****   */
 469:./Libraries/STM32F4xx_HAL_Driver/Src/stm32f4xx_hal_i2s_ex.c **** HAL_StatusTypeDef HAL_I2SEx_TransmitReceive_IT(I2S_HandleTypeDef *hi2s, uint16_t *pTxData, uint16_t
 470:./Libraries/STM32F4xx_HAL_Driver/Src/stm32f4xx_hal_i2s_ex.c ****                                                uint16_t Size)
 471:./Libraries/STM32F4xx_HAL_Driver/Src/stm32f4xx_hal_i2s_ex.c **** {
 888              		.loc 1 471 1
 889              		.cfi_startproc
 890              		@ args = 0, pretend = 0, frame = 24
 891              		@ frame_needed = 1, uses_anonymous_args = 0
ARM GAS  /tmp/ccEZa6GA.s 			page 25


 892 0000 80B5     		push	{r7, lr}
 893              	.LCFI5:
 894              		.cfi_def_cfa_offset 8
 895              		.cfi_offset 7, -8
 896              		.cfi_offset 14, -4
 897 0002 86B0     		sub	sp, sp, #24
 898              	.LCFI6:
 899              		.cfi_def_cfa_offset 32
 900 0004 00AF     		add	r7, sp, #0
 901              	.LCFI7:
 902              		.cfi_def_cfa_register 7
 903 0006 F860     		str	r0, [r7, #12]
 904 0008 B960     		str	r1, [r7, #8]
 905 000a 7A60     		str	r2, [r7, #4]
 906 000c 7B80     		strh	r3, [r7, #2]	@ movhi
 472:./Libraries/STM32F4xx_HAL_Driver/Src/stm32f4xx_hal_i2s_ex.c ****   uint32_t tmp1 = 0U;
 907              		.loc 1 472 12
 908 000e 0023     		movs	r3, #0
 909 0010 7B61     		str	r3, [r7, #20]
 473:./Libraries/STM32F4xx_HAL_Driver/Src/stm32f4xx_hal_i2s_ex.c **** 
 474:./Libraries/STM32F4xx_HAL_Driver/Src/stm32f4xx_hal_i2s_ex.c ****   if(hi2s->State == HAL_I2S_STATE_READY)
 910              		.loc 1 474 10
 911 0012 FB68     		ldr	r3, [r7, #12]
 912 0014 93F84130 		ldrb	r3, [r3, #65]
 913 0018 DBB2     		uxtb	r3, r3
 914              		.loc 1 474 5
 915 001a 012B     		cmp	r3, #1
 916 001c 40F09581 		bne	.L52
 475:./Libraries/STM32F4xx_HAL_Driver/Src/stm32f4xx_hal_i2s_ex.c ****   {
 476:./Libraries/STM32F4xx_HAL_Driver/Src/stm32f4xx_hal_i2s_ex.c ****     if((pTxData == NULL ) || (pRxData == NULL ) || (Size == 0U))
 917              		.loc 1 476 7
 918 0020 BB68     		ldr	r3, [r7, #8]
 919 0022 002B     		cmp	r3, #0
 920 0024 05D0     		beq	.L53
 921              		.loc 1 476 27 discriminator 1
 922 0026 7B68     		ldr	r3, [r7, #4]
 923 0028 002B     		cmp	r3, #0
 924 002a 02D0     		beq	.L53
 925              		.loc 1 476 49 discriminator 2
 926 002c 7B88     		ldrh	r3, [r7, #2]
 927 002e 002B     		cmp	r3, #0
 928 0030 01D1     		bne	.L54
 929              	.L53:
 477:./Libraries/STM32F4xx_HAL_Driver/Src/stm32f4xx_hal_i2s_ex.c ****     {
 478:./Libraries/STM32F4xx_HAL_Driver/Src/stm32f4xx_hal_i2s_ex.c ****       return  HAL_ERROR;
 930              		.loc 1 478 15
 931 0032 0123     		movs	r3, #1
 932 0034 8AE1     		b	.L55
 933              	.L54:
 479:./Libraries/STM32F4xx_HAL_Driver/Src/stm32f4xx_hal_i2s_ex.c ****     }
 480:./Libraries/STM32F4xx_HAL_Driver/Src/stm32f4xx_hal_i2s_ex.c **** 
 481:./Libraries/STM32F4xx_HAL_Driver/Src/stm32f4xx_hal_i2s_ex.c ****     hi2s->pTxBuffPtr = pTxData;
 934              		.loc 1 481 22
 935 0036 FB68     		ldr	r3, [r7, #12]
 936 0038 BA68     		ldr	r2, [r7, #8]
 937 003a 5A62     		str	r2, [r3, #36]
 482:./Libraries/STM32F4xx_HAL_Driver/Src/stm32f4xx_hal_i2s_ex.c ****     hi2s->pRxBuffPtr = pRxData;
ARM GAS  /tmp/ccEZa6GA.s 			page 26


 938              		.loc 1 482 22
 939 003c FB68     		ldr	r3, [r7, #12]
 940 003e 7A68     		ldr	r2, [r7, #4]
 941 0040 DA62     		str	r2, [r3, #44]
 483:./Libraries/STM32F4xx_HAL_Driver/Src/stm32f4xx_hal_i2s_ex.c **** 
 484:./Libraries/STM32F4xx_HAL_Driver/Src/stm32f4xx_hal_i2s_ex.c ****     tmp1 = hi2s->Instance->I2SCFGR & (SPI_I2SCFGR_DATLEN | SPI_I2SCFGR_CHLEN);
 942              		.loc 1 484 16
 943 0042 FB68     		ldr	r3, [r7, #12]
 944 0044 1B68     		ldr	r3, [r3]
 945              		.loc 1 484 26
 946 0046 DB69     		ldr	r3, [r3, #28]
 947              		.loc 1 484 10
 948 0048 03F00703 		and	r3, r3, #7
 949 004c 7B61     		str	r3, [r7, #20]
 485:./Libraries/STM32F4xx_HAL_Driver/Src/stm32f4xx_hal_i2s_ex.c ****     /* Check the Data format: When a 16-bit data frame or a 16-bit data frame extended
 486:./Libraries/STM32F4xx_HAL_Driver/Src/stm32f4xx_hal_i2s_ex.c ****     is selected during the I2S configuration phase, the Size parameter means the number
 487:./Libraries/STM32F4xx_HAL_Driver/Src/stm32f4xx_hal_i2s_ex.c ****     of 16-bit data length in the transaction and when a 24-bit data frame or a 32-bit data
 488:./Libraries/STM32F4xx_HAL_Driver/Src/stm32f4xx_hal_i2s_ex.c ****     frame is selected the Size parameter means the number of 16-bit data length. */
 489:./Libraries/STM32F4xx_HAL_Driver/Src/stm32f4xx_hal_i2s_ex.c ****     if((tmp1 == I2S_DATAFORMAT_24B) || (tmp1 == I2S_DATAFORMAT_32B))
 950              		.loc 1 489 7
 951 004e 7B69     		ldr	r3, [r7, #20]
 952 0050 032B     		cmp	r3, #3
 953 0052 02D0     		beq	.L56
 954              		.loc 1 489 37 discriminator 1
 955 0054 7B69     		ldr	r3, [r7, #20]
 956 0056 052B     		cmp	r3, #5
 957 0058 14D1     		bne	.L57
 958              	.L56:
 490:./Libraries/STM32F4xx_HAL_Driver/Src/stm32f4xx_hal_i2s_ex.c ****     {
 491:./Libraries/STM32F4xx_HAL_Driver/Src/stm32f4xx_hal_i2s_ex.c ****       hi2s->TxXferSize  = (Size << 1U);
 959              		.loc 1 491 33
 960 005a 7B88     		ldrh	r3, [r7, #2]	@ movhi
 961 005c 5B00     		lsls	r3, r3, #1
 962 005e 9AB2     		uxth	r2, r3
 963              		.loc 1 491 25
 964 0060 FB68     		ldr	r3, [r7, #12]
 965 0062 1A85     		strh	r2, [r3, #40]	@ movhi
 492:./Libraries/STM32F4xx_HAL_Driver/Src/stm32f4xx_hal_i2s_ex.c ****       hi2s->TxXferCount = (Size << 1U);
 966              		.loc 1 492 33
 967 0064 7B88     		ldrh	r3, [r7, #2]	@ movhi
 968 0066 5B00     		lsls	r3, r3, #1
 969 0068 9AB2     		uxth	r2, r3
 970              		.loc 1 492 25
 971 006a FB68     		ldr	r3, [r7, #12]
 972 006c 5A85     		strh	r2, [r3, #42]	@ movhi
 493:./Libraries/STM32F4xx_HAL_Driver/Src/stm32f4xx_hal_i2s_ex.c ****       hi2s->RxXferSize  = (Size << 1U);
 973              		.loc 1 493 33
 974 006e 7B88     		ldrh	r3, [r7, #2]	@ movhi
 975 0070 5B00     		lsls	r3, r3, #1
 976 0072 9AB2     		uxth	r2, r3
 977              		.loc 1 493 25
 978 0074 FB68     		ldr	r3, [r7, #12]
 979 0076 1A86     		strh	r2, [r3, #48]	@ movhi
 494:./Libraries/STM32F4xx_HAL_Driver/Src/stm32f4xx_hal_i2s_ex.c ****       hi2s->RxXferCount = (Size << 1U);
 980              		.loc 1 494 33
 981 0078 7B88     		ldrh	r3, [r7, #2]	@ movhi
 982 007a 5B00     		lsls	r3, r3, #1
ARM GAS  /tmp/ccEZa6GA.s 			page 27


 983 007c 9AB2     		uxth	r2, r3
 984              		.loc 1 494 25
 985 007e FB68     		ldr	r3, [r7, #12]
 986 0080 5A86     		strh	r2, [r3, #50]	@ movhi
 987 0082 0BE0     		b	.L58
 988              	.L57:
 495:./Libraries/STM32F4xx_HAL_Driver/Src/stm32f4xx_hal_i2s_ex.c ****     }
 496:./Libraries/STM32F4xx_HAL_Driver/Src/stm32f4xx_hal_i2s_ex.c ****     else
 497:./Libraries/STM32F4xx_HAL_Driver/Src/stm32f4xx_hal_i2s_ex.c ****     {
 498:./Libraries/STM32F4xx_HAL_Driver/Src/stm32f4xx_hal_i2s_ex.c ****       hi2s->TxXferSize  = Size;
 989              		.loc 1 498 25
 990 0084 FB68     		ldr	r3, [r7, #12]
 991 0086 7A88     		ldrh	r2, [r7, #2]	@ movhi
 992 0088 1A85     		strh	r2, [r3, #40]	@ movhi
 499:./Libraries/STM32F4xx_HAL_Driver/Src/stm32f4xx_hal_i2s_ex.c ****       hi2s->TxXferCount = Size;
 993              		.loc 1 499 25
 994 008a FB68     		ldr	r3, [r7, #12]
 995 008c 7A88     		ldrh	r2, [r7, #2]	@ movhi
 996 008e 5A85     		strh	r2, [r3, #42]	@ movhi
 500:./Libraries/STM32F4xx_HAL_Driver/Src/stm32f4xx_hal_i2s_ex.c ****       hi2s->RxXferSize  = Size;
 997              		.loc 1 500 25
 998 0090 FB68     		ldr	r3, [r7, #12]
 999 0092 7A88     		ldrh	r2, [r7, #2]	@ movhi
 1000 0094 1A86     		strh	r2, [r3, #48]	@ movhi
 501:./Libraries/STM32F4xx_HAL_Driver/Src/stm32f4xx_hal_i2s_ex.c ****       hi2s->RxXferCount = Size;
 1001              		.loc 1 501 25
 1002 0096 FB68     		ldr	r3, [r7, #12]
 1003 0098 7A88     		ldrh	r2, [r7, #2]	@ movhi
 1004 009a 5A86     		strh	r2, [r3, #50]	@ movhi
 1005              	.L58:
 502:./Libraries/STM32F4xx_HAL_Driver/Src/stm32f4xx_hal_i2s_ex.c ****     }
 503:./Libraries/STM32F4xx_HAL_Driver/Src/stm32f4xx_hal_i2s_ex.c **** 
 504:./Libraries/STM32F4xx_HAL_Driver/Src/stm32f4xx_hal_i2s_ex.c ****     /* Process Locked */
 505:./Libraries/STM32F4xx_HAL_Driver/Src/stm32f4xx_hal_i2s_ex.c ****     __HAL_LOCK(hi2s);
 1006              		.loc 1 505 5
 1007 009c FB68     		ldr	r3, [r7, #12]
 1008 009e 93F84030 		ldrb	r3, [r3, #64]
 1009 00a2 DBB2     		uxtb	r3, r3
 1010 00a4 012B     		cmp	r3, #1
 1011 00a6 01D1     		bne	.L59
 1012              		.loc 1 505 5 is_stmt 0 discriminator 1
 1013 00a8 0223     		movs	r3, #2
 1014 00aa 4FE1     		b	.L55
 1015              	.L59:
 1016              		.loc 1 505 5 discriminator 2
 1017 00ac FB68     		ldr	r3, [r7, #12]
 1018 00ae 0122     		movs	r2, #1
 1019 00b0 83F84020 		strb	r2, [r3, #64]
 506:./Libraries/STM32F4xx_HAL_Driver/Src/stm32f4xx_hal_i2s_ex.c **** 
 507:./Libraries/STM32F4xx_HAL_Driver/Src/stm32f4xx_hal_i2s_ex.c ****     hi2s->ErrorCode = HAL_I2S_ERROR_NONE;
 1020              		.loc 1 507 21 is_stmt 1 discriminator 2
 1021 00b4 FB68     		ldr	r3, [r7, #12]
 1022 00b6 0022     		movs	r2, #0
 1023 00b8 5A64     		str	r2, [r3, #68]
 508:./Libraries/STM32F4xx_HAL_Driver/Src/stm32f4xx_hal_i2s_ex.c ****     hi2s->State     = HAL_I2S_STATE_BUSY_TX_RX;
 1024              		.loc 1 508 21 discriminator 2
 1025 00ba FB68     		ldr	r3, [r7, #12]
ARM GAS  /tmp/ccEZa6GA.s 			page 28


 1026 00bc 0522     		movs	r2, #5
 1027 00be 83F84120 		strb	r2, [r3, #65]
 509:./Libraries/STM32F4xx_HAL_Driver/Src/stm32f4xx_hal_i2s_ex.c **** 
 510:./Libraries/STM32F4xx_HAL_Driver/Src/stm32f4xx_hal_i2s_ex.c ****     tmp1 = hi2s->Instance->I2SCFGR & SPI_I2SCFGR_I2SCFG;
 1028              		.loc 1 510 16 discriminator 2
 1029 00c2 FB68     		ldr	r3, [r7, #12]
 1030 00c4 1B68     		ldr	r3, [r3]
 1031              		.loc 1 510 26 discriminator 2
 1032 00c6 DB69     		ldr	r3, [r3, #28]
 1033              		.loc 1 510 10 discriminator 2
 1034 00c8 03F44073 		and	r3, r3, #768
 1035 00cc 7B61     		str	r3, [r7, #20]
 511:./Libraries/STM32F4xx_HAL_Driver/Src/stm32f4xx_hal_i2s_ex.c ****     /* Check if the I2S_MODE_MASTER_TX or I2S_MODE_SLAVE_TX Mode is selected */
 512:./Libraries/STM32F4xx_HAL_Driver/Src/stm32f4xx_hal_i2s_ex.c ****     if((tmp1 == I2S_MODE_MASTER_TX) || (tmp1 == I2S_MODE_SLAVE_TX))
 1036              		.loc 1 512 7 discriminator 2
 1037 00ce 7B69     		ldr	r3, [r7, #20]
 1038 00d0 B3F5007F 		cmp	r3, #512
 1039 00d4 03D0     		beq	.L60
 1040              		.loc 1 512 37 discriminator 1
 1041 00d6 7B69     		ldr	r3, [r7, #20]
 1042 00d8 002B     		cmp	r3, #0
 1043 00da 40F09280 		bne	.L61
 1044              	.L60:
 513:./Libraries/STM32F4xx_HAL_Driver/Src/stm32f4xx_hal_i2s_ex.c ****     {
 514:./Libraries/STM32F4xx_HAL_Driver/Src/stm32f4xx_hal_i2s_ex.c ****       /* Enable I2Sext RXNE and ERR interrupts */
 515:./Libraries/STM32F4xx_HAL_Driver/Src/stm32f4xx_hal_i2s_ex.c ****       __HAL_I2SEXT_ENABLE_IT(hi2s, (I2S_IT_RXNE | I2S_IT_ERR));
 1045              		.loc 1 515 7
 1046 00de FB68     		ldr	r3, [r7, #12]
 1047 00e0 1B68     		ldr	r3, [r3]
 1048 00e2 8E4A     		ldr	r2, .L92
 1049 00e4 9342     		cmp	r3, r2
 1050 00e6 01D1     		bne	.L62
 1051              		.loc 1 515 7 is_stmt 0 discriminator 1
 1052 00e8 8D4B     		ldr	r3, .L92+4
 1053 00ea 01E0     		b	.L63
 1054              	.L62:
 1055              		.loc 1 515 7 discriminator 2
 1056 00ec 4FF04023 		mov	r3, #1073758208
 1057              	.L63:
 1058              		.loc 1 515 7 discriminator 4
 1059 00f0 5A68     		ldr	r2, [r3, #4]
 1060 00f2 FB68     		ldr	r3, [r7, #12]
 1061 00f4 1B68     		ldr	r3, [r3]
 1062 00f6 8949     		ldr	r1, .L92
 1063 00f8 8B42     		cmp	r3, r1
 1064 00fa 01D1     		bne	.L64
 1065              		.loc 1 515 7 discriminator 5
 1066 00fc 884B     		ldr	r3, .L92+4
 1067 00fe 01E0     		b	.L65
 1068              	.L64:
 1069              		.loc 1 515 7 discriminator 6
 1070 0100 4FF04023 		mov	r3, #1073758208
 1071              	.L65:
 1072              		.loc 1 515 7 discriminator 8
 1073 0104 42F06002 		orr	r2, r2, #96
 1074 0108 5A60     		str	r2, [r3, #4]
 516:./Libraries/STM32F4xx_HAL_Driver/Src/stm32f4xx_hal_i2s_ex.c **** 
ARM GAS  /tmp/ccEZa6GA.s 			page 29


 517:./Libraries/STM32F4xx_HAL_Driver/Src/stm32f4xx_hal_i2s_ex.c ****       /* Enable I2Sx TXE and ERR interrupts */
 518:./Libraries/STM32F4xx_HAL_Driver/Src/stm32f4xx_hal_i2s_ex.c ****       __HAL_I2S_ENABLE_IT(hi2s, (I2S_IT_TXE | I2S_IT_ERR));
 1075              		.loc 1 518 7 is_stmt 1 discriminator 8
 1076 010a FB68     		ldr	r3, [r7, #12]
 1077 010c 1B68     		ldr	r3, [r3]
 1078 010e 5A68     		ldr	r2, [r3, #4]
 1079 0110 FB68     		ldr	r3, [r7, #12]
 1080 0112 1B68     		ldr	r3, [r3]
 1081 0114 42F0A002 		orr	r2, r2, #160
 1082 0118 5A60     		str	r2, [r3, #4]
 519:./Libraries/STM32F4xx_HAL_Driver/Src/stm32f4xx_hal_i2s_ex.c **** 
 520:./Libraries/STM32F4xx_HAL_Driver/Src/stm32f4xx_hal_i2s_ex.c ****       /* Check if the I2S is already enabled */
 521:./Libraries/STM32F4xx_HAL_Driver/Src/stm32f4xx_hal_i2s_ex.c ****       if((hi2s->Instance->I2SCFGR &SPI_I2SCFGR_I2SE) != SPI_I2SCFGR_I2SE)
 1083              		.loc 1 521 15 discriminator 8
 1084 011a FB68     		ldr	r3, [r7, #12]
 1085 011c 1B68     		ldr	r3, [r3]
 1086              		.loc 1 521 25 discriminator 8
 1087 011e DB69     		ldr	r3, [r3, #28]
 1088              		.loc 1 521 35 discriminator 8
 1089 0120 03F48063 		and	r3, r3, #1024
 1090              		.loc 1 521 9 discriminator 8
 1091 0124 B3F5806F 		cmp	r3, #1024
 1092 0128 00F00981 		beq	.L76
 522:./Libraries/STM32F4xx_HAL_Driver/Src/stm32f4xx_hal_i2s_ex.c ****       {
 523:./Libraries/STM32F4xx_HAL_Driver/Src/stm32f4xx_hal_i2s_ex.c ****         if((hi2s->Instance->I2SCFGR & SPI_I2SCFGR_I2SCFG) == I2S_MODE_SLAVE_TX)
 1093              		.loc 1 523 17
 1094 012c FB68     		ldr	r3, [r7, #12]
 1095 012e 1B68     		ldr	r3, [r3]
 1096              		.loc 1 523 27
 1097 0130 DB69     		ldr	r3, [r3, #28]
 1098              		.loc 1 523 37
 1099 0132 03F44073 		and	r3, r3, #768
 1100              		.loc 1 523 11
 1101 0136 002B     		cmp	r3, #0
 1102 0138 44D1     		bne	.L67
 524:./Libraries/STM32F4xx_HAL_Driver/Src/stm32f4xx_hal_i2s_ex.c ****         {
 525:./Libraries/STM32F4xx_HAL_Driver/Src/stm32f4xx_hal_i2s_ex.c ****           /* Prepare the First Data before enabling the I2S */
 526:./Libraries/STM32F4xx_HAL_Driver/Src/stm32f4xx_hal_i2s_ex.c ****           if(hi2s->TxXferCount != 0U)
 1103              		.loc 1 526 18
 1104 013a FB68     		ldr	r3, [r7, #12]
 1105 013c 5B8D     		ldrh	r3, [r3, #42]	@ movhi
 1106 013e 9BB2     		uxth	r3, r3
 1107              		.loc 1 526 13
 1108 0140 002B     		cmp	r3, #0
 1109 0142 3FD0     		beq	.L67
 527:./Libraries/STM32F4xx_HAL_Driver/Src/stm32f4xx_hal_i2s_ex.c ****           {
 528:./Libraries/STM32F4xx_HAL_Driver/Src/stm32f4xx_hal_i2s_ex.c ****             /* Transmit First data */
 529:./Libraries/STM32F4xx_HAL_Driver/Src/stm32f4xx_hal_i2s_ex.c ****             hi2s->Instance->DR = (*hi2s->pTxBuffPtr++);
 1110              		.loc 1 529 40
 1111 0144 FB68     		ldr	r3, [r7, #12]
 1112 0146 5B6A     		ldr	r3, [r3, #36]
 1113              		.loc 1 529 52
 1114 0148 991C     		adds	r1, r3, #2
 1115 014a FA68     		ldr	r2, [r7, #12]
 1116 014c 5162     		str	r1, [r2, #36]
 1117              		.loc 1 529 35
 1118 014e 1A88     		ldrh	r2, [r3]
ARM GAS  /tmp/ccEZa6GA.s 			page 30


 1119              		.loc 1 529 17
 1120 0150 FB68     		ldr	r3, [r7, #12]
 1121 0152 1B68     		ldr	r3, [r3]
 1122              		.loc 1 529 32
 1123 0154 DA60     		str	r2, [r3, #12]
 530:./Libraries/STM32F4xx_HAL_Driver/Src/stm32f4xx_hal_i2s_ex.c ****             hi2s->TxXferCount--;
 1124              		.loc 1 530 17
 1125 0156 FB68     		ldr	r3, [r7, #12]
 1126 0158 5B8D     		ldrh	r3, [r3, #42]	@ movhi
 1127 015a 9BB2     		uxth	r3, r3
 1128              		.loc 1 530 30
 1129 015c 013B     		subs	r3, r3, #1
 1130 015e 9AB2     		uxth	r2, r3
 1131 0160 FB68     		ldr	r3, [r7, #12]
 1132 0162 5A85     		strh	r2, [r3, #42]	@ movhi
 531:./Libraries/STM32F4xx_HAL_Driver/Src/stm32f4xx_hal_i2s_ex.c **** 
 532:./Libraries/STM32F4xx_HAL_Driver/Src/stm32f4xx_hal_i2s_ex.c ****             if(hi2s->TxXferCount == 0U)
 1133              		.loc 1 532 20
 1134 0164 FB68     		ldr	r3, [r7, #12]
 1135 0166 5B8D     		ldrh	r3, [r3, #42]	@ movhi
 1136 0168 9BB2     		uxth	r3, r3
 1137              		.loc 1 532 15
 1138 016a 002B     		cmp	r3, #0
 1139 016c 2AD1     		bne	.L67
 533:./Libraries/STM32F4xx_HAL_Driver/Src/stm32f4xx_hal_i2s_ex.c ****             {
 534:./Libraries/STM32F4xx_HAL_Driver/Src/stm32f4xx_hal_i2s_ex.c ****               /* Disable TXE and ERR interrupt */
 535:./Libraries/STM32F4xx_HAL_Driver/Src/stm32f4xx_hal_i2s_ex.c ****               __HAL_I2S_DISABLE_IT(hi2s, (I2S_IT_TXE | I2S_IT_ERR));
 1140              		.loc 1 535 15
 1141 016e FB68     		ldr	r3, [r7, #12]
 1142 0170 1B68     		ldr	r3, [r3]
 1143 0172 5968     		ldr	r1, [r3, #4]
 1144 0174 FB68     		ldr	r3, [r7, #12]
 1145 0176 1A68     		ldr	r2, [r3]
 1146 0178 4FF65F73 		movw	r3, #65375
 1147 017c 0B40     		ands	r3, r3, r1
 1148 017e 5360     		str	r3, [r2, #4]
 536:./Libraries/STM32F4xx_HAL_Driver/Src/stm32f4xx_hal_i2s_ex.c **** 
 537:./Libraries/STM32F4xx_HAL_Driver/Src/stm32f4xx_hal_i2s_ex.c ****               if(hi2s->RxXferCount == 0U)
 1149              		.loc 1 537 22
 1150 0180 FB68     		ldr	r3, [r7, #12]
 1151 0182 5B8E     		ldrh	r3, [r3, #50]	@ movhi
 1152 0184 9BB2     		uxth	r3, r3
 1153              		.loc 1 537 17
 1154 0186 002B     		cmp	r3, #0
 1155 0188 1CD1     		bne	.L67
 538:./Libraries/STM32F4xx_HAL_Driver/Src/stm32f4xx_hal_i2s_ex.c ****               {
 539:./Libraries/STM32F4xx_HAL_Driver/Src/stm32f4xx_hal_i2s_ex.c ****                 /* Disable I2Sext RXNE and ERR interrupt */
 540:./Libraries/STM32F4xx_HAL_Driver/Src/stm32f4xx_hal_i2s_ex.c ****                 __HAL_I2SEXT_DISABLE_IT(hi2s, (I2S_IT_RXNE| I2S_IT_ERR));
 1156              		.loc 1 540 17
 1157 018a FB68     		ldr	r3, [r7, #12]
 1158 018c 1B68     		ldr	r3, [r3]
 1159 018e 634A     		ldr	r2, .L92
 1160 0190 9342     		cmp	r3, r2
 1161 0192 01D1     		bne	.L68
 1162              		.loc 1 540 17 is_stmt 0 discriminator 1
 1163 0194 624B     		ldr	r3, .L92+4
 1164 0196 01E0     		b	.L69
ARM GAS  /tmp/ccEZa6GA.s 			page 31


 1165              	.L68:
 1166              		.loc 1 540 17 discriminator 2
 1167 0198 4FF04023 		mov	r3, #1073758208
 1168              	.L69:
 1169              		.loc 1 540 17 discriminator 4
 1170 019c 5A68     		ldr	r2, [r3, #4]
 1171 019e FB68     		ldr	r3, [r7, #12]
 1172 01a0 1B68     		ldr	r3, [r3]
 1173 01a2 5E49     		ldr	r1, .L92
 1174 01a4 8B42     		cmp	r3, r1
 1175 01a6 01D1     		bne	.L70
 1176              		.loc 1 540 17 discriminator 5
 1177 01a8 5D4B     		ldr	r3, .L92+4
 1178 01aa 01E0     		b	.L71
 1179              	.L70:
 1180              		.loc 1 540 17 discriminator 6
 1181 01ac 4FF04023 		mov	r3, #1073758208
 1182              	.L71:
 1183              		.loc 1 540 17 discriminator 8
 1184 01b0 22F06002 		bic	r2, r2, #96
 1185 01b4 5A60     		str	r2, [r3, #4]
 541:./Libraries/STM32F4xx_HAL_Driver/Src/stm32f4xx_hal_i2s_ex.c **** 
 542:./Libraries/STM32F4xx_HAL_Driver/Src/stm32f4xx_hal_i2s_ex.c ****                 hi2s->State = HAL_I2S_STATE_READY;
 1186              		.loc 1 542 29 is_stmt 1 discriminator 8
 1187 01b6 FB68     		ldr	r3, [r7, #12]
 1188 01b8 0122     		movs	r2, #1
 1189 01ba 83F84120 		strb	r2, [r3, #65]
 543:./Libraries/STM32F4xx_HAL_Driver/Src/stm32f4xx_hal_i2s_ex.c ****                 HAL_I2SEx_TxRxCpltCallback(hi2s);
 1190              		.loc 1 543 17 discriminator 8
 1191 01be F868     		ldr	r0, [r7, #12]
 1192 01c0 FFF7FEFF 		bl	HAL_I2SEx_TxRxCpltCallback
 1193              	.L67:
 544:./Libraries/STM32F4xx_HAL_Driver/Src/stm32f4xx_hal_i2s_ex.c ****               }
 545:./Libraries/STM32F4xx_HAL_Driver/Src/stm32f4xx_hal_i2s_ex.c ****             }
 546:./Libraries/STM32F4xx_HAL_Driver/Src/stm32f4xx_hal_i2s_ex.c ****           }
 547:./Libraries/STM32F4xx_HAL_Driver/Src/stm32f4xx_hal_i2s_ex.c ****         }
 548:./Libraries/STM32F4xx_HAL_Driver/Src/stm32f4xx_hal_i2s_ex.c ****         /* Enable I2Sext(receiver) before enabling I2Sx peripheral */
 549:./Libraries/STM32F4xx_HAL_Driver/Src/stm32f4xx_hal_i2s_ex.c ****         __HAL_I2SEXT_ENABLE(hi2s);
 1194              		.loc 1 549 9
 1195 01c4 FB68     		ldr	r3, [r7, #12]
 1196 01c6 1B68     		ldr	r3, [r3]
 1197 01c8 544A     		ldr	r2, .L92
 1198 01ca 9342     		cmp	r3, r2
 1199 01cc 01D1     		bne	.L72
 1200              		.loc 1 549 9 is_stmt 0 discriminator 1
 1201 01ce 544B     		ldr	r3, .L92+4
 1202 01d0 01E0     		b	.L73
 1203              	.L72:
 1204              		.loc 1 549 9 discriminator 2
 1205 01d2 4FF04023 		mov	r3, #1073758208
 1206              	.L73:
 1207              		.loc 1 549 9 discriminator 4
 1208 01d6 DA69     		ldr	r2, [r3, #28]
 1209 01d8 FB68     		ldr	r3, [r7, #12]
 1210 01da 1B68     		ldr	r3, [r3]
 1211 01dc 4F49     		ldr	r1, .L92
 1212 01de 8B42     		cmp	r3, r1
ARM GAS  /tmp/ccEZa6GA.s 			page 32


 1213 01e0 01D1     		bne	.L74
 1214              		.loc 1 549 9 discriminator 5
 1215 01e2 4F4B     		ldr	r3, .L92+4
 1216 01e4 01E0     		b	.L75
 1217              	.L74:
 1218              		.loc 1 549 9 discriminator 6
 1219 01e6 4FF04023 		mov	r3, #1073758208
 1220              	.L75:
 1221              		.loc 1 549 9 discriminator 8
 1222 01ea 42F48062 		orr	r2, r2, #1024
 1223 01ee DA61     		str	r2, [r3, #28]
 550:./Libraries/STM32F4xx_HAL_Driver/Src/stm32f4xx_hal_i2s_ex.c **** 
 551:./Libraries/STM32F4xx_HAL_Driver/Src/stm32f4xx_hal_i2s_ex.c ****         /* Enable I2Sx peripheral */
 552:./Libraries/STM32F4xx_HAL_Driver/Src/stm32f4xx_hal_i2s_ex.c ****         __HAL_I2S_ENABLE(hi2s);
 1224              		.loc 1 552 9 is_stmt 1 discriminator 8
 1225 01f0 FB68     		ldr	r3, [r7, #12]
 1226 01f2 1B68     		ldr	r3, [r3]
 1227 01f4 DA69     		ldr	r2, [r3, #28]
 1228 01f6 FB68     		ldr	r3, [r7, #12]
 1229 01f8 1B68     		ldr	r3, [r3]
 1230 01fa 42F48062 		orr	r2, r2, #1024
 1231 01fe DA61     		str	r2, [r3, #28]
 521:./Libraries/STM32F4xx_HAL_Driver/Src/stm32f4xx_hal_i2s_ex.c ****       {
 1232              		.loc 1 521 9 discriminator 8
 1233 0200 9DE0     		b	.L76
 1234              	.L61:
 553:./Libraries/STM32F4xx_HAL_Driver/Src/stm32f4xx_hal_i2s_ex.c ****       }
 554:./Libraries/STM32F4xx_HAL_Driver/Src/stm32f4xx_hal_i2s_ex.c ****     }
 555:./Libraries/STM32F4xx_HAL_Driver/Src/stm32f4xx_hal_i2s_ex.c ****     /* The I2S_MODE_MASTER_RX or I2S_MODE_SLAVE_RX Mode is selected */
 556:./Libraries/STM32F4xx_HAL_Driver/Src/stm32f4xx_hal_i2s_ex.c ****     else
 557:./Libraries/STM32F4xx_HAL_Driver/Src/stm32f4xx_hal_i2s_ex.c ****     {
 558:./Libraries/STM32F4xx_HAL_Driver/Src/stm32f4xx_hal_i2s_ex.c ****       /* Enable I2Sext TXE and ERR interrupts */
 559:./Libraries/STM32F4xx_HAL_Driver/Src/stm32f4xx_hal_i2s_ex.c ****       __HAL_I2SEXT_ENABLE_IT(hi2s, (I2S_IT_TXE | I2S_IT_ERR));
 1235              		.loc 1 559 7
 1236 0202 FB68     		ldr	r3, [r7, #12]
 1237 0204 1B68     		ldr	r3, [r3]
 1238 0206 454A     		ldr	r2, .L92
 1239 0208 9342     		cmp	r3, r2
 1240 020a 01D1     		bne	.L77
 1241              		.loc 1 559 7 is_stmt 0 discriminator 1
 1242 020c 444B     		ldr	r3, .L92+4
 1243 020e 01E0     		b	.L78
 1244              	.L77:
 1245              		.loc 1 559 7 discriminator 2
 1246 0210 4FF04023 		mov	r3, #1073758208
 1247              	.L78:
 1248              		.loc 1 559 7 discriminator 4
 1249 0214 5A68     		ldr	r2, [r3, #4]
 1250 0216 FB68     		ldr	r3, [r7, #12]
 1251 0218 1B68     		ldr	r3, [r3]
 1252 021a 4049     		ldr	r1, .L92
 1253 021c 8B42     		cmp	r3, r1
 1254 021e 01D1     		bne	.L79
 1255              		.loc 1 559 7 discriminator 5
 1256 0220 3F4B     		ldr	r3, .L92+4
 1257 0222 01E0     		b	.L80
 1258              	.L79:
ARM GAS  /tmp/ccEZa6GA.s 			page 33


 1259              		.loc 1 559 7 discriminator 6
 1260 0224 4FF04023 		mov	r3, #1073758208
 1261              	.L80:
 1262              		.loc 1 559 7 discriminator 8
 1263 0228 42F0A002 		orr	r2, r2, #160
 1264 022c 5A60     		str	r2, [r3, #4]
 560:./Libraries/STM32F4xx_HAL_Driver/Src/stm32f4xx_hal_i2s_ex.c **** 
 561:./Libraries/STM32F4xx_HAL_Driver/Src/stm32f4xx_hal_i2s_ex.c ****       /* Enable I2Sext RXNE and ERR interrupts */
 562:./Libraries/STM32F4xx_HAL_Driver/Src/stm32f4xx_hal_i2s_ex.c ****       __HAL_I2S_ENABLE_IT(hi2s, (I2S_IT_RXNE | I2S_IT_ERR));
 1265              		.loc 1 562 7 is_stmt 1 discriminator 8
 1266 022e FB68     		ldr	r3, [r7, #12]
 1267 0230 1B68     		ldr	r3, [r3]
 1268 0232 5A68     		ldr	r2, [r3, #4]
 1269 0234 FB68     		ldr	r3, [r7, #12]
 1270 0236 1B68     		ldr	r3, [r3]
 1271 0238 42F06002 		orr	r2, r2, #96
 1272 023c 5A60     		str	r2, [r3, #4]
 563:./Libraries/STM32F4xx_HAL_Driver/Src/stm32f4xx_hal_i2s_ex.c **** 
 564:./Libraries/STM32F4xx_HAL_Driver/Src/stm32f4xx_hal_i2s_ex.c ****       /* Check if the I2S is already enabled */
 565:./Libraries/STM32F4xx_HAL_Driver/Src/stm32f4xx_hal_i2s_ex.c ****       if((hi2s->Instance->I2SCFGR &SPI_I2SCFGR_I2SE) != SPI_I2SCFGR_I2SE)
 1273              		.loc 1 565 15 discriminator 8
 1274 023e FB68     		ldr	r3, [r7, #12]
 1275 0240 1B68     		ldr	r3, [r3]
 1276              		.loc 1 565 25 discriminator 8
 1277 0242 DB69     		ldr	r3, [r3, #28]
 1278              		.loc 1 565 35 discriminator 8
 1279 0244 03F48063 		and	r3, r3, #1024
 1280              		.loc 1 565 9 discriminator 8
 1281 0248 B3F5806F 		cmp	r3, #1024
 1282 024c 77D0     		beq	.L76
 566:./Libraries/STM32F4xx_HAL_Driver/Src/stm32f4xx_hal_i2s_ex.c ****       {
 567:./Libraries/STM32F4xx_HAL_Driver/Src/stm32f4xx_hal_i2s_ex.c ****         /* Check if the I2S_MODE_MASTER_RX is selected */
 568:./Libraries/STM32F4xx_HAL_Driver/Src/stm32f4xx_hal_i2s_ex.c ****         if((hi2s->Instance->I2SCFGR & SPI_I2SCFGR_I2SCFG) == I2S_MODE_MASTER_RX)
 1283              		.loc 1 568 17
 1284 024e FB68     		ldr	r3, [r7, #12]
 1285 0250 1B68     		ldr	r3, [r3]
 1286              		.loc 1 568 27
 1287 0252 DB69     		ldr	r3, [r3, #28]
 1288              		.loc 1 568 37
 1289 0254 03F44073 		and	r3, r3, #768
 1290              		.loc 1 568 11
 1291 0258 B3F5407F 		cmp	r3, #768
 1292 025c 4CD1     		bne	.L81
 569:./Libraries/STM32F4xx_HAL_Driver/Src/stm32f4xx_hal_i2s_ex.c ****         {
 570:./Libraries/STM32F4xx_HAL_Driver/Src/stm32f4xx_hal_i2s_ex.c ****           /* Prepare the First Data before enabling the I2S */
 571:./Libraries/STM32F4xx_HAL_Driver/Src/stm32f4xx_hal_i2s_ex.c ****           if(hi2s->TxXferCount != 0U)
 1293              		.loc 1 571 18
 1294 025e FB68     		ldr	r3, [r7, #12]
 1295 0260 5B8D     		ldrh	r3, [r3, #42]	@ movhi
 1296 0262 9BB2     		uxth	r3, r3
 1297              		.loc 1 571 13
 1298 0264 002B     		cmp	r3, #0
 1299 0266 47D0     		beq	.L81
 572:./Libraries/STM32F4xx_HAL_Driver/Src/stm32f4xx_hal_i2s_ex.c ****           {
 573:./Libraries/STM32F4xx_HAL_Driver/Src/stm32f4xx_hal_i2s_ex.c ****             /* Transmit First data */
 574:./Libraries/STM32F4xx_HAL_Driver/Src/stm32f4xx_hal_i2s_ex.c ****             I2SxEXT(hi2s->Instance)->DR = (*hi2s->pTxBuffPtr++);
 1300              		.loc 1 574 49
ARM GAS  /tmp/ccEZa6GA.s 			page 34


 1301 0268 FB68     		ldr	r3, [r7, #12]
 1302 026a 5B6A     		ldr	r3, [r3, #36]
 1303              		.loc 1 574 61
 1304 026c 991C     		adds	r1, r3, #2
 1305 026e FA68     		ldr	r2, [r7, #12]
 1306 0270 5162     		str	r1, [r2, #36]
 1307              		.loc 1 574 44
 1308 0272 1988     		ldrh	r1, [r3]
 1309              		.loc 1 574 13
 1310 0274 FB68     		ldr	r3, [r7, #12]
 1311 0276 1B68     		ldr	r3, [r3]
 1312 0278 284A     		ldr	r2, .L92
 1313 027a 9342     		cmp	r3, r2
 1314 027c 01D1     		bne	.L82
 1315              		.loc 1 574 13 is_stmt 0 discriminator 1
 1316 027e 284B     		ldr	r3, .L92+4
 1317 0280 01E0     		b	.L83
 1318              	.L82:
 1319              		.loc 1 574 13 discriminator 2
 1320 0282 4FF04023 		mov	r3, #1073758208
 1321              	.L83:
 1322              		.loc 1 574 44 is_stmt 1 discriminator 4
 1323 0286 0A46     		mov	r2, r1
 1324              		.loc 1 574 41 discriminator 4
 1325 0288 DA60     		str	r2, [r3, #12]
 575:./Libraries/STM32F4xx_HAL_Driver/Src/stm32f4xx_hal_i2s_ex.c ****             hi2s->TxXferCount--;
 1326              		.loc 1 575 17 discriminator 4
 1327 028a FB68     		ldr	r3, [r7, #12]
 1328 028c 5B8D     		ldrh	r3, [r3, #42]	@ movhi
 1329 028e 9BB2     		uxth	r3, r3
 1330              		.loc 1 575 30 discriminator 4
 1331 0290 013B     		subs	r3, r3, #1
 1332 0292 9AB2     		uxth	r2, r3
 1333 0294 FB68     		ldr	r3, [r7, #12]
 1334 0296 5A85     		strh	r2, [r3, #42]	@ movhi
 576:./Libraries/STM32F4xx_HAL_Driver/Src/stm32f4xx_hal_i2s_ex.c **** 
 577:./Libraries/STM32F4xx_HAL_Driver/Src/stm32f4xx_hal_i2s_ex.c ****             if(hi2s->TxXferCount == 0U)
 1335              		.loc 1 577 20 discriminator 4
 1336 0298 FB68     		ldr	r3, [r7, #12]
 1337 029a 5B8D     		ldrh	r3, [r3, #42]	@ movhi
 1338 029c 9BB2     		uxth	r3, r3
 1339              		.loc 1 577 15 discriminator 4
 1340 029e 002B     		cmp	r3, #0
 1341 02a0 2AD1     		bne	.L81
 578:./Libraries/STM32F4xx_HAL_Driver/Src/stm32f4xx_hal_i2s_ex.c ****             {
 579:./Libraries/STM32F4xx_HAL_Driver/Src/stm32f4xx_hal_i2s_ex.c ****               /* Disable I2Sext TXE and ERR interrupt */
 580:./Libraries/STM32F4xx_HAL_Driver/Src/stm32f4xx_hal_i2s_ex.c ****               __HAL_I2SEXT_DISABLE_IT(hi2s, (I2S_IT_TXE | I2S_IT_ERR));
 1342              		.loc 1 580 15
 1343 02a2 FB68     		ldr	r3, [r7, #12]
 1344 02a4 1B68     		ldr	r3, [r3]
 1345 02a6 1D4A     		ldr	r2, .L92
 1346 02a8 9342     		cmp	r3, r2
 1347 02aa 01D1     		bne	.L84
 1348              		.loc 1 580 15 is_stmt 0 discriminator 1
 1349 02ac 1C4B     		ldr	r3, .L92+4
 1350 02ae 01E0     		b	.L85
 1351              	.L84:
ARM GAS  /tmp/ccEZa6GA.s 			page 35


 1352              		.loc 1 580 15 discriminator 2
 1353 02b0 4FF04023 		mov	r3, #1073758208
 1354              	.L85:
 1355              		.loc 1 580 15 discriminator 4
 1356 02b4 5A68     		ldr	r2, [r3, #4]
 1357 02b6 FB68     		ldr	r3, [r7, #12]
 1358 02b8 1B68     		ldr	r3, [r3]
 1359 02ba 1849     		ldr	r1, .L92
 1360 02bc 8B42     		cmp	r3, r1
 1361 02be 01D1     		bne	.L86
 1362              		.loc 1 580 15 discriminator 5
 1363 02c0 174B     		ldr	r3, .L92+4
 1364 02c2 01E0     		b	.L87
 1365              	.L86:
 1366              		.loc 1 580 15 discriminator 6
 1367 02c4 4FF04023 		mov	r3, #1073758208
 1368              	.L87:
 1369              		.loc 1 580 15 discriminator 8
 1370 02c8 22F0A002 		bic	r2, r2, #160
 1371 02cc 5A60     		str	r2, [r3, #4]
 581:./Libraries/STM32F4xx_HAL_Driver/Src/stm32f4xx_hal_i2s_ex.c ****               if(hi2s->RxXferCount == 0U)
 1372              		.loc 1 581 22 is_stmt 1 discriminator 8
 1373 02ce FB68     		ldr	r3, [r7, #12]
 1374 02d0 5B8E     		ldrh	r3, [r3, #50]	@ movhi
 1375 02d2 9BB2     		uxth	r3, r3
 1376              		.loc 1 581 17 discriminator 8
 1377 02d4 002B     		cmp	r3, #0
 1378 02d6 0FD1     		bne	.L81
 582:./Libraries/STM32F4xx_HAL_Driver/Src/stm32f4xx_hal_i2s_ex.c ****               {
 583:./Libraries/STM32F4xx_HAL_Driver/Src/stm32f4xx_hal_i2s_ex.c ****                 /* Disable RXNE and ERR interrupt */
 584:./Libraries/STM32F4xx_HAL_Driver/Src/stm32f4xx_hal_i2s_ex.c ****                 __HAL_I2S_DISABLE_IT(hi2s, (I2S_IT_RXNE| I2S_IT_ERR));
 1379              		.loc 1 584 17
 1380 02d8 FB68     		ldr	r3, [r7, #12]
 1381 02da 1B68     		ldr	r3, [r3]
 1382 02dc 5968     		ldr	r1, [r3, #4]
 1383 02de FB68     		ldr	r3, [r7, #12]
 1384 02e0 1A68     		ldr	r2, [r3]
 1385 02e2 4FF69F73 		movw	r3, #65439
 1386 02e6 0B40     		ands	r3, r3, r1
 1387 02e8 5360     		str	r3, [r2, #4]
 585:./Libraries/STM32F4xx_HAL_Driver/Src/stm32f4xx_hal_i2s_ex.c **** 
 586:./Libraries/STM32F4xx_HAL_Driver/Src/stm32f4xx_hal_i2s_ex.c ****                 hi2s->State = HAL_I2S_STATE_READY;
 1388              		.loc 1 586 29
 1389 02ea FB68     		ldr	r3, [r7, #12]
 1390 02ec 0122     		movs	r2, #1
 1391 02ee 83F84120 		strb	r2, [r3, #65]
 587:./Libraries/STM32F4xx_HAL_Driver/Src/stm32f4xx_hal_i2s_ex.c ****                 HAL_I2SEx_TxRxCpltCallback(hi2s);
 1392              		.loc 1 587 17
 1393 02f2 F868     		ldr	r0, [r7, #12]
 1394 02f4 FFF7FEFF 		bl	HAL_I2SEx_TxRxCpltCallback
 1395              	.L81:
 588:./Libraries/STM32F4xx_HAL_Driver/Src/stm32f4xx_hal_i2s_ex.c ****               }
 589:./Libraries/STM32F4xx_HAL_Driver/Src/stm32f4xx_hal_i2s_ex.c ****             }
 590:./Libraries/STM32F4xx_HAL_Driver/Src/stm32f4xx_hal_i2s_ex.c ****           }
 591:./Libraries/STM32F4xx_HAL_Driver/Src/stm32f4xx_hal_i2s_ex.c ****         }
 592:./Libraries/STM32F4xx_HAL_Driver/Src/stm32f4xx_hal_i2s_ex.c ****         /* Enable I2Sext(transmitter) after enabling I2Sx peripheral */
 593:./Libraries/STM32F4xx_HAL_Driver/Src/stm32f4xx_hal_i2s_ex.c ****         __HAL_I2SEXT_ENABLE(hi2s);
ARM GAS  /tmp/ccEZa6GA.s 			page 36


 1396              		.loc 1 593 9
 1397 02f8 FB68     		ldr	r3, [r7, #12]
 1398 02fa 1B68     		ldr	r3, [r3]
 1399 02fc 074A     		ldr	r2, .L92
 1400 02fe 9342     		cmp	r3, r2
 1401 0300 01D1     		bne	.L88
 1402              		.loc 1 593 9 is_stmt 0 discriminator 1
 1403 0302 074B     		ldr	r3, .L92+4
 1404 0304 01E0     		b	.L89
 1405              	.L88:
 1406              		.loc 1 593 9 discriminator 2
 1407 0306 4FF04023 		mov	r3, #1073758208
 1408              	.L89:
 1409              		.loc 1 593 9 discriminator 4
 1410 030a DA69     		ldr	r2, [r3, #28]
 1411 030c FB68     		ldr	r3, [r7, #12]
 1412 030e 1B68     		ldr	r3, [r3]
 1413 0310 0249     		ldr	r1, .L92
 1414 0312 8B42     		cmp	r3, r1
 1415 0314 06D1     		bne	.L90
 1416              		.loc 1 593 9 discriminator 5
 1417 0316 024B     		ldr	r3, .L92+4
 1418 0318 06E0     		b	.L91
 1419              	.L93:
 1420 031a 00BF     		.align	2
 1421              	.L92:
 1422 031c 00380040 		.word	1073756160
 1423 0320 00340040 		.word	1073755136
 1424              	.L90:
 1425              		.loc 1 593 9 discriminator 6
 1426 0324 4FF04023 		mov	r3, #1073758208
 1427              	.L91:
 1428              		.loc 1 593 9 discriminator 8
 1429 0328 42F48062 		orr	r2, r2, #1024
 1430 032c DA61     		str	r2, [r3, #28]
 594:./Libraries/STM32F4xx_HAL_Driver/Src/stm32f4xx_hal_i2s_ex.c **** 
 595:./Libraries/STM32F4xx_HAL_Driver/Src/stm32f4xx_hal_i2s_ex.c ****         /* Enable I2S peripheral */
 596:./Libraries/STM32F4xx_HAL_Driver/Src/stm32f4xx_hal_i2s_ex.c ****         __HAL_I2S_ENABLE(hi2s);
 1431              		.loc 1 596 9 is_stmt 1 discriminator 8
 1432 032e FB68     		ldr	r3, [r7, #12]
 1433 0330 1B68     		ldr	r3, [r3]
 1434 0332 DA69     		ldr	r2, [r3, #28]
 1435 0334 FB68     		ldr	r3, [r7, #12]
 1436 0336 1B68     		ldr	r3, [r3]
 1437 0338 42F48062 		orr	r2, r2, #1024
 1438 033c DA61     		str	r2, [r3, #28]
 1439              	.L76:
 597:./Libraries/STM32F4xx_HAL_Driver/Src/stm32f4xx_hal_i2s_ex.c ****       }
 598:./Libraries/STM32F4xx_HAL_Driver/Src/stm32f4xx_hal_i2s_ex.c ****     }
 599:./Libraries/STM32F4xx_HAL_Driver/Src/stm32f4xx_hal_i2s_ex.c ****     /* Process Unlocked */
 600:./Libraries/STM32F4xx_HAL_Driver/Src/stm32f4xx_hal_i2s_ex.c ****     __HAL_UNLOCK(hi2s);
 1440              		.loc 1 600 5
 1441 033e FB68     		ldr	r3, [r7, #12]
 1442 0340 0022     		movs	r2, #0
 1443 0342 83F84020 		strb	r2, [r3, #64]
 601:./Libraries/STM32F4xx_HAL_Driver/Src/stm32f4xx_hal_i2s_ex.c **** 
 602:./Libraries/STM32F4xx_HAL_Driver/Src/stm32f4xx_hal_i2s_ex.c ****     return HAL_OK;
ARM GAS  /tmp/ccEZa6GA.s 			page 37


 1444              		.loc 1 602 12
 1445 0346 0023     		movs	r3, #0
 1446 0348 00E0     		b	.L55
 1447              	.L52:
 603:./Libraries/STM32F4xx_HAL_Driver/Src/stm32f4xx_hal_i2s_ex.c ****   }
 604:./Libraries/STM32F4xx_HAL_Driver/Src/stm32f4xx_hal_i2s_ex.c ****   else
 605:./Libraries/STM32F4xx_HAL_Driver/Src/stm32f4xx_hal_i2s_ex.c ****   {
 606:./Libraries/STM32F4xx_HAL_Driver/Src/stm32f4xx_hal_i2s_ex.c ****     return HAL_BUSY;
 1448              		.loc 1 606 12
 1449 034a 0223     		movs	r3, #2
 1450              	.L55:
 607:./Libraries/STM32F4xx_HAL_Driver/Src/stm32f4xx_hal_i2s_ex.c ****   }
 608:./Libraries/STM32F4xx_HAL_Driver/Src/stm32f4xx_hal_i2s_ex.c **** }
 1451              		.loc 1 608 1
 1452 034c 1846     		mov	r0, r3
 1453 034e 1837     		adds	r7, r7, #24
 1454              	.LCFI8:
 1455              		.cfi_def_cfa_offset 8
 1456 0350 BD46     		mov	sp, r7
 1457              	.LCFI9:
 1458              		.cfi_def_cfa_register 13
 1459              		@ sp needed
 1460 0352 80BD     		pop	{r7, pc}
 1461              		.cfi_endproc
 1462              	.LFE127:
 1464              		.section	.text.HAL_I2SEx_TransmitReceive_DMA,"ax",%progbits
 1465              		.align	1
 1466              		.global	HAL_I2SEx_TransmitReceive_DMA
 1467              		.syntax unified
 1468              		.thumb
 1469              		.thumb_func
 1470              		.fpu fpv4-sp-d16
 1472              	HAL_I2SEx_TransmitReceive_DMA:
 1473              	.LFB128:
 609:./Libraries/STM32F4xx_HAL_Driver/Src/stm32f4xx_hal_i2s_ex.c **** 
 610:./Libraries/STM32F4xx_HAL_Driver/Src/stm32f4xx_hal_i2s_ex.c **** /**
 611:./Libraries/STM32F4xx_HAL_Driver/Src/stm32f4xx_hal_i2s_ex.c ****   * @brief Full-Duplex Transmit/Receive data in non-blocking mode using DMA
 612:./Libraries/STM32F4xx_HAL_Driver/Src/stm32f4xx_hal_i2s_ex.c ****   * @param  hi2s pointer to a I2S_HandleTypeDef structure that contains
 613:./Libraries/STM32F4xx_HAL_Driver/Src/stm32f4xx_hal_i2s_ex.c ****   *         the configuration information for I2S module
 614:./Libraries/STM32F4xx_HAL_Driver/Src/stm32f4xx_hal_i2s_ex.c ****   * @param pTxData a 16-bit pointer to the Transmit data buffer.
 615:./Libraries/STM32F4xx_HAL_Driver/Src/stm32f4xx_hal_i2s_ex.c ****   * @param pRxData a 16-bit pointer to the Receive data buffer.
 616:./Libraries/STM32F4xx_HAL_Driver/Src/stm32f4xx_hal_i2s_ex.c ****   * @param Size number of data sample to be sent:
 617:./Libraries/STM32F4xx_HAL_Driver/Src/stm32f4xx_hal_i2s_ex.c ****   * @note When a 16-bit data frame or a 16-bit data frame extended is selected during the I2S
 618:./Libraries/STM32F4xx_HAL_Driver/Src/stm32f4xx_hal_i2s_ex.c ****   *       configuration phase, the Size parameter means the number of 16-bit data length
 619:./Libraries/STM32F4xx_HAL_Driver/Src/stm32f4xx_hal_i2s_ex.c ****   *       in the transaction and when a 24-bit data frame or a 32-bit data frame is selected
 620:./Libraries/STM32F4xx_HAL_Driver/Src/stm32f4xx_hal_i2s_ex.c ****   *       the Size parameter means the number of 16-bit data length.
 621:./Libraries/STM32F4xx_HAL_Driver/Src/stm32f4xx_hal_i2s_ex.c ****   * @note The I2S is kept enabled at the end of transaction to avoid the clock de-synchronization
 622:./Libraries/STM32F4xx_HAL_Driver/Src/stm32f4xx_hal_i2s_ex.c ****   *       between Master and Slave(example: audio streaming).
 623:./Libraries/STM32F4xx_HAL_Driver/Src/stm32f4xx_hal_i2s_ex.c ****   * @retval HAL status
 624:./Libraries/STM32F4xx_HAL_Driver/Src/stm32f4xx_hal_i2s_ex.c ****   */
 625:./Libraries/STM32F4xx_HAL_Driver/Src/stm32f4xx_hal_i2s_ex.c **** HAL_StatusTypeDef HAL_I2SEx_TransmitReceive_DMA(I2S_HandleTypeDef *hi2s, uint16_t *pTxData, uint16_
 626:./Libraries/STM32F4xx_HAL_Driver/Src/stm32f4xx_hal_i2s_ex.c ****                                                 uint16_t Size)
 627:./Libraries/STM32F4xx_HAL_Driver/Src/stm32f4xx_hal_i2s_ex.c **** {
 1474              		.loc 1 627 1
 1475              		.cfi_startproc
 1476              		@ args = 0, pretend = 0, frame = 32
 1477              		@ frame_needed = 1, uses_anonymous_args = 0
ARM GAS  /tmp/ccEZa6GA.s 			page 38


 1478 0000 80B5     		push	{r7, lr}
 1479              	.LCFI10:
 1480              		.cfi_def_cfa_offset 8
 1481              		.cfi_offset 7, -8
 1482              		.cfi_offset 14, -4
 1483 0002 88B0     		sub	sp, sp, #32
 1484              	.LCFI11:
 1485              		.cfi_def_cfa_offset 40
 1486 0004 00AF     		add	r7, sp, #0
 1487              	.LCFI12:
 1488              		.cfi_def_cfa_register 7
 1489 0006 F860     		str	r0, [r7, #12]
 1490 0008 B960     		str	r1, [r7, #8]
 1491 000a 7A60     		str	r2, [r7, #4]
 1492 000c 7B80     		strh	r3, [r7, #2]	@ movhi
 628:./Libraries/STM32F4xx_HAL_Driver/Src/stm32f4xx_hal_i2s_ex.c ****   uint32_t *tmp = NULL;
 1493              		.loc 1 628 13
 1494 000e 0023     		movs	r3, #0
 1495 0010 FB61     		str	r3, [r7, #28]
 629:./Libraries/STM32F4xx_HAL_Driver/Src/stm32f4xx_hal_i2s_ex.c ****   uint32_t tmp1 = 0U;
 1496              		.loc 1 629 12
 1497 0012 0023     		movs	r3, #0
 1498 0014 BB61     		str	r3, [r7, #24]
 630:./Libraries/STM32F4xx_HAL_Driver/Src/stm32f4xx_hal_i2s_ex.c **** 
 631:./Libraries/STM32F4xx_HAL_Driver/Src/stm32f4xx_hal_i2s_ex.c ****   if((pTxData == NULL ) || (pRxData == NULL ) || (Size == 0U))
 1499              		.loc 1 631 15
 1500 0016 BB68     		ldr	r3, [r7, #8]
 1501              		.loc 1 631 5
 1502 0018 002B     		cmp	r3, #0
 1503 001a 05D0     		beq	.L95
 1504              		.loc 1 631 37 discriminator 1
 1505 001c 7B68     		ldr	r3, [r7, #4]
 1506              		.loc 1 631 25 discriminator 1
 1507 001e 002B     		cmp	r3, #0
 1508 0020 02D0     		beq	.L95
 1509              		.loc 1 631 47 discriminator 2
 1510 0022 7B88     		ldrh	r3, [r7, #2]
 1511 0024 002B     		cmp	r3, #0
 1512 0026 01D1     		bne	.L96
 1513              	.L95:
 632:./Libraries/STM32F4xx_HAL_Driver/Src/stm32f4xx_hal_i2s_ex.c ****   {
 633:./Libraries/STM32F4xx_HAL_Driver/Src/stm32f4xx_hal_i2s_ex.c ****     return  HAL_ERROR;
 1514              		.loc 1 633 13
 1515 0028 0123     		movs	r3, #1
 1516 002a 61E1     		b	.L97
 1517              	.L96:
 634:./Libraries/STM32F4xx_HAL_Driver/Src/stm32f4xx_hal_i2s_ex.c ****   }
 635:./Libraries/STM32F4xx_HAL_Driver/Src/stm32f4xx_hal_i2s_ex.c **** 
 636:./Libraries/STM32F4xx_HAL_Driver/Src/stm32f4xx_hal_i2s_ex.c ****   if(hi2s->State == HAL_I2S_STATE_READY)
 1518              		.loc 1 636 10
 1519 002c FB68     		ldr	r3, [r7, #12]
 1520 002e 93F84130 		ldrb	r3, [r3, #65]
 1521 0032 DBB2     		uxtb	r3, r3
 1522              		.loc 1 636 5
 1523 0034 012B     		cmp	r3, #1
 1524 0036 40F05A81 		bne	.L98
 637:./Libraries/STM32F4xx_HAL_Driver/Src/stm32f4xx_hal_i2s_ex.c ****   {
ARM GAS  /tmp/ccEZa6GA.s 			page 39


 638:./Libraries/STM32F4xx_HAL_Driver/Src/stm32f4xx_hal_i2s_ex.c ****     hi2s->pTxBuffPtr = pTxData;
 1525              		.loc 1 638 22
 1526 003a BA68     		ldr	r2, [r7, #8]
 1527 003c FB68     		ldr	r3, [r7, #12]
 1528 003e 5A62     		str	r2, [r3, #36]
 639:./Libraries/STM32F4xx_HAL_Driver/Src/stm32f4xx_hal_i2s_ex.c ****     hi2s->pRxBuffPtr = pRxData;
 1529              		.loc 1 639 22
 1530 0040 7A68     		ldr	r2, [r7, #4]
 1531 0042 FB68     		ldr	r3, [r7, #12]
 1532 0044 DA62     		str	r2, [r3, #44]
 640:./Libraries/STM32F4xx_HAL_Driver/Src/stm32f4xx_hal_i2s_ex.c **** 
 641:./Libraries/STM32F4xx_HAL_Driver/Src/stm32f4xx_hal_i2s_ex.c ****     tmp1 = hi2s->Instance->I2SCFGR & (SPI_I2SCFGR_DATLEN | SPI_I2SCFGR_CHLEN);
 1533              		.loc 1 641 16
 1534 0046 FB68     		ldr	r3, [r7, #12]
 1535 0048 1B68     		ldr	r3, [r3]
 1536              		.loc 1 641 26
 1537 004a DB69     		ldr	r3, [r3, #28]
 1538              		.loc 1 641 10
 1539 004c 03F00703 		and	r3, r3, #7
 1540 0050 BB61     		str	r3, [r7, #24]
 642:./Libraries/STM32F4xx_HAL_Driver/Src/stm32f4xx_hal_i2s_ex.c ****     /* Check the Data format: When a 16-bit data frame or a 16-bit data frame extended
 643:./Libraries/STM32F4xx_HAL_Driver/Src/stm32f4xx_hal_i2s_ex.c ****     is selected during the I2S configuration phase, the Size parameter means the number
 644:./Libraries/STM32F4xx_HAL_Driver/Src/stm32f4xx_hal_i2s_ex.c ****     of 16-bit data length in the transaction and when a 24-bit data frame or a 32-bit data
 645:./Libraries/STM32F4xx_HAL_Driver/Src/stm32f4xx_hal_i2s_ex.c ****     frame is selected the Size parameter means the number of 16-bit data length. */
 646:./Libraries/STM32F4xx_HAL_Driver/Src/stm32f4xx_hal_i2s_ex.c ****     if((tmp1 == I2S_DATAFORMAT_24B) || (tmp1 == I2S_DATAFORMAT_32B))
 1541              		.loc 1 646 7
 1542 0052 BB69     		ldr	r3, [r7, #24]
 1543 0054 032B     		cmp	r3, #3
 1544 0056 02D0     		beq	.L99
 1545              		.loc 1 646 37 discriminator 1
 1546 0058 BB69     		ldr	r3, [r7, #24]
 1547 005a 052B     		cmp	r3, #5
 1548 005c 14D1     		bne	.L100
 1549              	.L99:
 647:./Libraries/STM32F4xx_HAL_Driver/Src/stm32f4xx_hal_i2s_ex.c ****     {
 648:./Libraries/STM32F4xx_HAL_Driver/Src/stm32f4xx_hal_i2s_ex.c ****       hi2s->TxXferSize  = (Size << 1U);
 1550              		.loc 1 648 33
 1551 005e 7B88     		ldrh	r3, [r7, #2]	@ movhi
 1552 0060 5B00     		lsls	r3, r3, #1
 1553 0062 9AB2     		uxth	r2, r3
 1554              		.loc 1 648 25
 1555 0064 FB68     		ldr	r3, [r7, #12]
 1556 0066 1A85     		strh	r2, [r3, #40]	@ movhi
 649:./Libraries/STM32F4xx_HAL_Driver/Src/stm32f4xx_hal_i2s_ex.c ****       hi2s->TxXferCount = (Size << 1U);
 1557              		.loc 1 649 33
 1558 0068 7B88     		ldrh	r3, [r7, #2]	@ movhi
 1559 006a 5B00     		lsls	r3, r3, #1
 1560 006c 9AB2     		uxth	r2, r3
 1561              		.loc 1 649 25
 1562 006e FB68     		ldr	r3, [r7, #12]
 1563 0070 5A85     		strh	r2, [r3, #42]	@ movhi
 650:./Libraries/STM32F4xx_HAL_Driver/Src/stm32f4xx_hal_i2s_ex.c ****       hi2s->RxXferSize  = (Size << 1U);
 1564              		.loc 1 650 33
 1565 0072 7B88     		ldrh	r3, [r7, #2]	@ movhi
 1566 0074 5B00     		lsls	r3, r3, #1
 1567 0076 9AB2     		uxth	r2, r3
 1568              		.loc 1 650 25
ARM GAS  /tmp/ccEZa6GA.s 			page 40


 1569 0078 FB68     		ldr	r3, [r7, #12]
 1570 007a 1A86     		strh	r2, [r3, #48]	@ movhi
 651:./Libraries/STM32F4xx_HAL_Driver/Src/stm32f4xx_hal_i2s_ex.c ****       hi2s->RxXferCount = (Size << 1U);
 1571              		.loc 1 651 33
 1572 007c 7B88     		ldrh	r3, [r7, #2]	@ movhi
 1573 007e 5B00     		lsls	r3, r3, #1
 1574 0080 9AB2     		uxth	r2, r3
 1575              		.loc 1 651 25
 1576 0082 FB68     		ldr	r3, [r7, #12]
 1577 0084 5A86     		strh	r2, [r3, #50]	@ movhi
 1578 0086 0BE0     		b	.L101
 1579              	.L100:
 652:./Libraries/STM32F4xx_HAL_Driver/Src/stm32f4xx_hal_i2s_ex.c ****     }
 653:./Libraries/STM32F4xx_HAL_Driver/Src/stm32f4xx_hal_i2s_ex.c ****     else
 654:./Libraries/STM32F4xx_HAL_Driver/Src/stm32f4xx_hal_i2s_ex.c ****     {
 655:./Libraries/STM32F4xx_HAL_Driver/Src/stm32f4xx_hal_i2s_ex.c ****       hi2s->TxXferSize  = Size;
 1580              		.loc 1 655 25
 1581 0088 FB68     		ldr	r3, [r7, #12]
 1582 008a 7A88     		ldrh	r2, [r7, #2]	@ movhi
 1583 008c 1A85     		strh	r2, [r3, #40]	@ movhi
 656:./Libraries/STM32F4xx_HAL_Driver/Src/stm32f4xx_hal_i2s_ex.c ****       hi2s->TxXferCount = Size;
 1584              		.loc 1 656 25
 1585 008e FB68     		ldr	r3, [r7, #12]
 1586 0090 7A88     		ldrh	r2, [r7, #2]	@ movhi
 1587 0092 5A85     		strh	r2, [r3, #42]	@ movhi
 657:./Libraries/STM32F4xx_HAL_Driver/Src/stm32f4xx_hal_i2s_ex.c ****       hi2s->RxXferSize  = Size;
 1588              		.loc 1 657 25
 1589 0094 FB68     		ldr	r3, [r7, #12]
 1590 0096 7A88     		ldrh	r2, [r7, #2]	@ movhi
 1591 0098 1A86     		strh	r2, [r3, #48]	@ movhi
 658:./Libraries/STM32F4xx_HAL_Driver/Src/stm32f4xx_hal_i2s_ex.c ****       hi2s->RxXferCount = Size;
 1592              		.loc 1 658 25
 1593 009a FB68     		ldr	r3, [r7, #12]
 1594 009c 7A88     		ldrh	r2, [r7, #2]	@ movhi
 1595 009e 5A86     		strh	r2, [r3, #50]	@ movhi
 1596              	.L101:
 659:./Libraries/STM32F4xx_HAL_Driver/Src/stm32f4xx_hal_i2s_ex.c ****     }
 660:./Libraries/STM32F4xx_HAL_Driver/Src/stm32f4xx_hal_i2s_ex.c **** 
 661:./Libraries/STM32F4xx_HAL_Driver/Src/stm32f4xx_hal_i2s_ex.c ****     /* Process Locked */
 662:./Libraries/STM32F4xx_HAL_Driver/Src/stm32f4xx_hal_i2s_ex.c ****     __HAL_LOCK(hi2s);
 1597              		.loc 1 662 5
 1598 00a0 FB68     		ldr	r3, [r7, #12]
 1599 00a2 93F84030 		ldrb	r3, [r3, #64]
 1600 00a6 DBB2     		uxtb	r3, r3
 1601 00a8 012B     		cmp	r3, #1
 1602 00aa 01D1     		bne	.L102
 1603              		.loc 1 662 5 is_stmt 0 discriminator 1
 1604 00ac 0223     		movs	r3, #2
 1605 00ae 1FE1     		b	.L97
 1606              	.L102:
 1607              		.loc 1 662 5 discriminator 2
 1608 00b0 FB68     		ldr	r3, [r7, #12]
 1609 00b2 0122     		movs	r2, #1
 1610 00b4 83F84020 		strb	r2, [r3, #64]
 663:./Libraries/STM32F4xx_HAL_Driver/Src/stm32f4xx_hal_i2s_ex.c **** 
 664:./Libraries/STM32F4xx_HAL_Driver/Src/stm32f4xx_hal_i2s_ex.c ****     hi2s->ErrorCode = HAL_I2S_ERROR_NONE;
 1611              		.loc 1 664 21 is_stmt 1 discriminator 2
ARM GAS  /tmp/ccEZa6GA.s 			page 41


 1612 00b8 FB68     		ldr	r3, [r7, #12]
 1613 00ba 0022     		movs	r2, #0
 1614 00bc 5A64     		str	r2, [r3, #68]
 665:./Libraries/STM32F4xx_HAL_Driver/Src/stm32f4xx_hal_i2s_ex.c ****     hi2s->State     = HAL_I2S_STATE_BUSY_TX_RX;
 1615              		.loc 1 665 21 discriminator 2
 1616 00be FB68     		ldr	r3, [r7, #12]
 1617 00c0 0522     		movs	r2, #5
 1618 00c2 83F84120 		strb	r2, [r3, #65]
 666:./Libraries/STM32F4xx_HAL_Driver/Src/stm32f4xx_hal_i2s_ex.c **** 
 667:./Libraries/STM32F4xx_HAL_Driver/Src/stm32f4xx_hal_i2s_ex.c ****     /* Set the I2S Rx DMA Half transfer complete callback */
 668:./Libraries/STM32F4xx_HAL_Driver/Src/stm32f4xx_hal_i2s_ex.c ****     hi2s->hdmarx->XferHalfCpltCallback = I2SEx_TxRxDMAHalfCplt;
 1619              		.loc 1 668 9 discriminator 2
 1620 00c6 FB68     		ldr	r3, [r7, #12]
 1621 00c8 DB6B     		ldr	r3, [r3, #60]
 1622              		.loc 1 668 40 discriminator 2
 1623 00ca 8B4A     		ldr	r2, .L128
 1624 00cc 1A64     		str	r2, [r3, #64]
 669:./Libraries/STM32F4xx_HAL_Driver/Src/stm32f4xx_hal_i2s_ex.c **** 
 670:./Libraries/STM32F4xx_HAL_Driver/Src/stm32f4xx_hal_i2s_ex.c ****     /* Set the I2S Rx DMA transfer complete callback */
 671:./Libraries/STM32F4xx_HAL_Driver/Src/stm32f4xx_hal_i2s_ex.c ****     hi2s->hdmarx->XferCpltCallback  = I2SEx_TxRxDMACplt;
 1625              		.loc 1 671 9 discriminator 2
 1626 00ce FB68     		ldr	r3, [r7, #12]
 1627 00d0 DB6B     		ldr	r3, [r3, #60]
 1628              		.loc 1 671 37 discriminator 2
 1629 00d2 8A4A     		ldr	r2, .L128+4
 1630 00d4 DA63     		str	r2, [r3, #60]
 672:./Libraries/STM32F4xx_HAL_Driver/Src/stm32f4xx_hal_i2s_ex.c **** 
 673:./Libraries/STM32F4xx_HAL_Driver/Src/stm32f4xx_hal_i2s_ex.c ****     /* Set the I2S Rx DMA error callback */
 674:./Libraries/STM32F4xx_HAL_Driver/Src/stm32f4xx_hal_i2s_ex.c ****     hi2s->hdmarx->XferErrorCallback = I2SEx_TxRxDMAError;
 1631              		.loc 1 674 9 discriminator 2
 1632 00d6 FB68     		ldr	r3, [r7, #12]
 1633 00d8 DB6B     		ldr	r3, [r3, #60]
 1634              		.loc 1 674 37 discriminator 2
 1635 00da 894A     		ldr	r2, .L128+8
 1636 00dc DA64     		str	r2, [r3, #76]
 675:./Libraries/STM32F4xx_HAL_Driver/Src/stm32f4xx_hal_i2s_ex.c **** 
 676:./Libraries/STM32F4xx_HAL_Driver/Src/stm32f4xx_hal_i2s_ex.c ****     /* Set the I2S Tx DMA Half transfer complete callback */
 677:./Libraries/STM32F4xx_HAL_Driver/Src/stm32f4xx_hal_i2s_ex.c ****     hi2s->hdmatx->XferHalfCpltCallback  = I2SEx_TxRxDMAHalfCplt;
 1637              		.loc 1 677 9 discriminator 2
 1638 00de FB68     		ldr	r3, [r7, #12]
 1639 00e0 9B6B     		ldr	r3, [r3, #56]
 1640              		.loc 1 677 41 discriminator 2
 1641 00e2 854A     		ldr	r2, .L128
 1642 00e4 1A64     		str	r2, [r3, #64]
 678:./Libraries/STM32F4xx_HAL_Driver/Src/stm32f4xx_hal_i2s_ex.c **** 
 679:./Libraries/STM32F4xx_HAL_Driver/Src/stm32f4xx_hal_i2s_ex.c ****     /* Set the I2S Tx DMA transfer complete callback */
 680:./Libraries/STM32F4xx_HAL_Driver/Src/stm32f4xx_hal_i2s_ex.c ****     hi2s->hdmatx->XferCpltCallback  = I2SEx_TxRxDMACplt;
 1643              		.loc 1 680 9 discriminator 2
 1644 00e6 FB68     		ldr	r3, [r7, #12]
 1645 00e8 9B6B     		ldr	r3, [r3, #56]
 1646              		.loc 1 680 37 discriminator 2
 1647 00ea 844A     		ldr	r2, .L128+4
 1648 00ec DA63     		str	r2, [r3, #60]
 681:./Libraries/STM32F4xx_HAL_Driver/Src/stm32f4xx_hal_i2s_ex.c **** 
 682:./Libraries/STM32F4xx_HAL_Driver/Src/stm32f4xx_hal_i2s_ex.c ****     /* Set the I2S Tx DMA error callback */
 683:./Libraries/STM32F4xx_HAL_Driver/Src/stm32f4xx_hal_i2s_ex.c ****     hi2s->hdmatx->XferErrorCallback = I2SEx_TxRxDMAError;
 1649              		.loc 1 683 9 discriminator 2
ARM GAS  /tmp/ccEZa6GA.s 			page 42


 1650 00ee FB68     		ldr	r3, [r7, #12]
 1651 00f0 9B6B     		ldr	r3, [r3, #56]
 1652              		.loc 1 683 37 discriminator 2
 1653 00f2 834A     		ldr	r2, .L128+8
 1654 00f4 DA64     		str	r2, [r3, #76]
 684:./Libraries/STM32F4xx_HAL_Driver/Src/stm32f4xx_hal_i2s_ex.c **** 
 685:./Libraries/STM32F4xx_HAL_Driver/Src/stm32f4xx_hal_i2s_ex.c ****     tmp1 = hi2s->Instance->I2SCFGR & SPI_I2SCFGR_I2SCFG;
 1655              		.loc 1 685 16 discriminator 2
 1656 00f6 FB68     		ldr	r3, [r7, #12]
 1657 00f8 1B68     		ldr	r3, [r3]
 1658              		.loc 1 685 26 discriminator 2
 1659 00fa DB69     		ldr	r3, [r3, #28]
 1660              		.loc 1 685 10 discriminator 2
 1661 00fc 03F44073 		and	r3, r3, #768
 1662 0100 BB61     		str	r3, [r7, #24]
 686:./Libraries/STM32F4xx_HAL_Driver/Src/stm32f4xx_hal_i2s_ex.c ****     /* Check if the I2S_MODE_MASTER_TX or I2S_MODE_SLAVE_TX Mode is selected */
 687:./Libraries/STM32F4xx_HAL_Driver/Src/stm32f4xx_hal_i2s_ex.c ****     if((tmp1 == I2S_MODE_MASTER_TX) || (tmp1 == I2S_MODE_SLAVE_TX))
 1663              		.loc 1 687 7 discriminator 2
 1664 0102 BB69     		ldr	r3, [r7, #24]
 1665 0104 B3F5007F 		cmp	r3, #512
 1666 0108 02D0     		beq	.L103
 1667              		.loc 1 687 37 discriminator 1
 1668 010a BB69     		ldr	r3, [r7, #24]
 1669 010c 002B     		cmp	r3, #0
 1670 010e 6BD1     		bne	.L104
 1671              	.L103:
 688:./Libraries/STM32F4xx_HAL_Driver/Src/stm32f4xx_hal_i2s_ex.c ****     {
 689:./Libraries/STM32F4xx_HAL_Driver/Src/stm32f4xx_hal_i2s_ex.c ****       /* Enable the Rx DMA Stream */
 690:./Libraries/STM32F4xx_HAL_Driver/Src/stm32f4xx_hal_i2s_ex.c ****       tmp = (uint32_t*)&pRxData;
 1672              		.loc 1 690 11
 1673 0110 3B1D     		adds	r3, r7, #4
 1674 0112 FB61     		str	r3, [r7, #28]
 691:./Libraries/STM32F4xx_HAL_Driver/Src/stm32f4xx_hal_i2s_ex.c ****       HAL_DMA_Start_IT(hi2s->hdmarx, (uint32_t)&I2SxEXT(hi2s->Instance)->DR, *(uint32_t*)tmp, hi2s-
 1675              		.loc 1 691 7
 1676 0114 FB68     		ldr	r3, [r7, #12]
 1677 0116 D86B     		ldr	r0, [r3, #60]
 1678              		.loc 1 691 49
 1679 0118 FB68     		ldr	r3, [r7, #12]
 1680 011a 1B68     		ldr	r3, [r3]
 1681 011c 794A     		ldr	r2, .L128+12
 1682 011e 9342     		cmp	r3, r2
 1683 0120 01D1     		bne	.L105
 1684              		.loc 1 691 49 is_stmt 0 discriminator 1
 1685 0122 794B     		ldr	r3, .L128+16
 1686 0124 01E0     		b	.L106
 1687              	.L105:
 1688              		.loc 1 691 49 discriminator 2
 1689 0126 4FF04023 		mov	r3, #1073758208
 1690              	.L106:
 1691              		.loc 1 691 48 is_stmt 1 discriminator 4
 1692 012a 0C33     		adds	r3, r3, #12
 1693              		.loc 1 691 7 discriminator 4
 1694 012c 1946     		mov	r1, r3
 1695 012e FB69     		ldr	r3, [r7, #28]
 1696 0130 1A68     		ldr	r2, [r3]
 1697              		.loc 1 691 99 discriminator 4
 1698 0132 FB68     		ldr	r3, [r7, #12]
ARM GAS  /tmp/ccEZa6GA.s 			page 43


 1699 0134 1B8E     		ldrh	r3, [r3, #48]	@ movhi
 1700 0136 9BB2     		uxth	r3, r3
 1701              		.loc 1 691 7 discriminator 4
 1702 0138 FFF7FEFF 		bl	HAL_DMA_Start_IT
 692:./Libraries/STM32F4xx_HAL_Driver/Src/stm32f4xx_hal_i2s_ex.c **** 
 693:./Libraries/STM32F4xx_HAL_Driver/Src/stm32f4xx_hal_i2s_ex.c ****       /* Enable Rx DMA Request */
 694:./Libraries/STM32F4xx_HAL_Driver/Src/stm32f4xx_hal_i2s_ex.c ****       SET_BIT(I2SxEXT(hi2s->Instance)->CR2,SPI_CR2_RXDMAEN);
 1703              		.loc 1 694 7 discriminator 4
 1704 013c FB68     		ldr	r3, [r7, #12]
 1705 013e 1B68     		ldr	r3, [r3]
 1706 0140 704A     		ldr	r2, .L128+12
 1707 0142 9342     		cmp	r3, r2
 1708 0144 01D1     		bne	.L107
 1709              		.loc 1 694 7 is_stmt 0 discriminator 1
 1710 0146 704B     		ldr	r3, .L128+16
 1711 0148 01E0     		b	.L108
 1712              	.L107:
 1713              		.loc 1 694 7 discriminator 2
 1714 014a 4FF04023 		mov	r3, #1073758208
 1715              	.L108:
 1716              		.loc 1 694 7 discriminator 4
 1717 014e 5A68     		ldr	r2, [r3, #4]
 1718 0150 FB68     		ldr	r3, [r7, #12]
 1719 0152 1B68     		ldr	r3, [r3]
 1720 0154 6B49     		ldr	r1, .L128+12
 1721 0156 8B42     		cmp	r3, r1
 1722 0158 01D1     		bne	.L109
 1723              		.loc 1 694 7 discriminator 5
 1724 015a 6B4B     		ldr	r3, .L128+16
 1725 015c 01E0     		b	.L110
 1726              	.L109:
 1727              		.loc 1 694 7 discriminator 6
 1728 015e 4FF04023 		mov	r3, #1073758208
 1729              	.L110:
 1730              		.loc 1 694 7 discriminator 8
 1731 0162 42F00102 		orr	r2, r2, #1
 1732 0166 5A60     		str	r2, [r3, #4]
 695:./Libraries/STM32F4xx_HAL_Driver/Src/stm32f4xx_hal_i2s_ex.c **** 
 696:./Libraries/STM32F4xx_HAL_Driver/Src/stm32f4xx_hal_i2s_ex.c ****       /* Enable the Tx DMA Stream */
 697:./Libraries/STM32F4xx_HAL_Driver/Src/stm32f4xx_hal_i2s_ex.c ****       tmp = (uint32_t*)&pTxData;
 1733              		.loc 1 697 11 is_stmt 1 discriminator 8
 1734 0168 07F10803 		add	r3, r7, #8
 1735 016c FB61     		str	r3, [r7, #28]
 698:./Libraries/STM32F4xx_HAL_Driver/Src/stm32f4xx_hal_i2s_ex.c ****       HAL_DMA_Start_IT(hi2s->hdmatx, *(uint32_t*)tmp, (uint32_t)&hi2s->Instance->DR, hi2s->TxXferSi
 1736              		.loc 1 698 7 discriminator 8
 1737 016e FB68     		ldr	r3, [r7, #12]
 1738 0170 986B     		ldr	r0, [r3, #56]
 1739 0172 FB69     		ldr	r3, [r7, #28]
 1740 0174 1968     		ldr	r1, [r3]
 1741              		.loc 1 698 70 discriminator 8
 1742 0176 FB68     		ldr	r3, [r7, #12]
 1743 0178 1B68     		ldr	r3, [r3]
 1744              		.loc 1 698 65 discriminator 8
 1745 017a 0C33     		adds	r3, r3, #12
 1746              		.loc 1 698 7 discriminator 8
 1747 017c 1A46     		mov	r2, r3
 1748              		.loc 1 698 90 discriminator 8
ARM GAS  /tmp/ccEZa6GA.s 			page 44


 1749 017e FB68     		ldr	r3, [r7, #12]
 1750 0180 1B8D     		ldrh	r3, [r3, #40]	@ movhi
 1751 0182 9BB2     		uxth	r3, r3
 1752              		.loc 1 698 7 discriminator 8
 1753 0184 FFF7FEFF 		bl	HAL_DMA_Start_IT
 699:./Libraries/STM32F4xx_HAL_Driver/Src/stm32f4xx_hal_i2s_ex.c **** 
 700:./Libraries/STM32F4xx_HAL_Driver/Src/stm32f4xx_hal_i2s_ex.c ****       /* Enable Tx DMA Request */
 701:./Libraries/STM32F4xx_HAL_Driver/Src/stm32f4xx_hal_i2s_ex.c ****       SET_BIT(hi2s->Instance->CR2,SPI_CR2_TXDMAEN);
 1754              		.loc 1 701 7 discriminator 8
 1755 0188 FB68     		ldr	r3, [r7, #12]
 1756 018a 1B68     		ldr	r3, [r3]
 1757 018c 5A68     		ldr	r2, [r3, #4]
 1758 018e FB68     		ldr	r3, [r7, #12]
 1759 0190 1B68     		ldr	r3, [r3]
 1760 0192 42F00202 		orr	r2, r2, #2
 1761 0196 5A60     		str	r2, [r3, #4]
 702:./Libraries/STM32F4xx_HAL_Driver/Src/stm32f4xx_hal_i2s_ex.c **** 
 703:./Libraries/STM32F4xx_HAL_Driver/Src/stm32f4xx_hal_i2s_ex.c ****       /* Check if the I2S is already enabled */
 704:./Libraries/STM32F4xx_HAL_Driver/Src/stm32f4xx_hal_i2s_ex.c ****       if((hi2s->Instance->I2SCFGR &SPI_I2SCFGR_I2SE) != SPI_I2SCFGR_I2SE)
 1762              		.loc 1 704 15 discriminator 8
 1763 0198 FB68     		ldr	r3, [r7, #12]
 1764 019a 1B68     		ldr	r3, [r3]
 1765              		.loc 1 704 25 discriminator 8
 1766 019c DB69     		ldr	r3, [r3, #28]
 1767              		.loc 1 704 35 discriminator 8
 1768 019e 03F48063 		and	r3, r3, #1024
 1769              		.loc 1 704 9 discriminator 8
 1770 01a2 B3F5806F 		cmp	r3, #1024
 1771 01a6 00F09C80 		beq	.L116
 705:./Libraries/STM32F4xx_HAL_Driver/Src/stm32f4xx_hal_i2s_ex.c ****       {
 706:./Libraries/STM32F4xx_HAL_Driver/Src/stm32f4xx_hal_i2s_ex.c ****         /* Enable I2Sext(receiver) before enabling I2Sx peripheral */
 707:./Libraries/STM32F4xx_HAL_Driver/Src/stm32f4xx_hal_i2s_ex.c ****         __HAL_I2SEXT_ENABLE(hi2s);
 1772              		.loc 1 707 9
 1773 01aa FB68     		ldr	r3, [r7, #12]
 1774 01ac 1B68     		ldr	r3, [r3]
 1775 01ae 554A     		ldr	r2, .L128+12
 1776 01b0 9342     		cmp	r3, r2
 1777 01b2 01D1     		bne	.L112
 1778              		.loc 1 707 9 is_stmt 0 discriminator 1
 1779 01b4 544B     		ldr	r3, .L128+16
 1780 01b6 01E0     		b	.L113
 1781              	.L112:
 1782              		.loc 1 707 9 discriminator 2
 1783 01b8 4FF04023 		mov	r3, #1073758208
 1784              	.L113:
 1785              		.loc 1 707 9 discriminator 4
 1786 01bc DA69     		ldr	r2, [r3, #28]
 1787 01be FB68     		ldr	r3, [r7, #12]
 1788 01c0 1B68     		ldr	r3, [r3]
 1789 01c2 5049     		ldr	r1, .L128+12
 1790 01c4 8B42     		cmp	r3, r1
 1791 01c6 01D1     		bne	.L114
 1792              		.loc 1 707 9 discriminator 5
 1793 01c8 4F4B     		ldr	r3, .L128+16
 1794 01ca 01E0     		b	.L115
 1795              	.L114:
 1796              		.loc 1 707 9 discriminator 6
ARM GAS  /tmp/ccEZa6GA.s 			page 45


 1797 01cc 4FF04023 		mov	r3, #1073758208
 1798              	.L115:
 1799              		.loc 1 707 9 discriminator 8
 1800 01d0 42F48062 		orr	r2, r2, #1024
 1801 01d4 DA61     		str	r2, [r3, #28]
 708:./Libraries/STM32F4xx_HAL_Driver/Src/stm32f4xx_hal_i2s_ex.c **** 
 709:./Libraries/STM32F4xx_HAL_Driver/Src/stm32f4xx_hal_i2s_ex.c ****         /* Enable I2S peripheral after the I2Sext */
 710:./Libraries/STM32F4xx_HAL_Driver/Src/stm32f4xx_hal_i2s_ex.c ****         __HAL_I2S_ENABLE(hi2s);
 1802              		.loc 1 710 9 is_stmt 1 discriminator 8
 1803 01d6 FB68     		ldr	r3, [r7, #12]
 1804 01d8 1B68     		ldr	r3, [r3]
 1805 01da DA69     		ldr	r2, [r3, #28]
 1806 01dc FB68     		ldr	r3, [r7, #12]
 1807 01de 1B68     		ldr	r3, [r3]
 1808 01e0 42F48062 		orr	r2, r2, #1024
 1809 01e4 DA61     		str	r2, [r3, #28]
 704:./Libraries/STM32F4xx_HAL_Driver/Src/stm32f4xx_hal_i2s_ex.c ****       {
 1810              		.loc 1 704 9 discriminator 8
 1811 01e6 7CE0     		b	.L116
 1812              	.L104:
 711:./Libraries/STM32F4xx_HAL_Driver/Src/stm32f4xx_hal_i2s_ex.c ****       }
 712:./Libraries/STM32F4xx_HAL_Driver/Src/stm32f4xx_hal_i2s_ex.c ****     }
 713:./Libraries/STM32F4xx_HAL_Driver/Src/stm32f4xx_hal_i2s_ex.c ****     else
 714:./Libraries/STM32F4xx_HAL_Driver/Src/stm32f4xx_hal_i2s_ex.c ****     {
 715:./Libraries/STM32F4xx_HAL_Driver/Src/stm32f4xx_hal_i2s_ex.c ****       /* Check if Master Receiver mode is selected */
 716:./Libraries/STM32F4xx_HAL_Driver/Src/stm32f4xx_hal_i2s_ex.c ****       if((hi2s->Instance->I2SCFGR & SPI_I2SCFGR_I2SCFG) == I2S_MODE_MASTER_RX)
 1813              		.loc 1 716 15
 1814 01e8 FB68     		ldr	r3, [r7, #12]
 1815 01ea 1B68     		ldr	r3, [r3]
 1816              		.loc 1 716 25
 1817 01ec DB69     		ldr	r3, [r3, #28]
 1818              		.loc 1 716 35
 1819 01ee 03F44073 		and	r3, r3, #768
 1820              		.loc 1 716 9
 1821 01f2 B3F5407F 		cmp	r3, #768
 1822 01f6 0AD1     		bne	.L117
 1823              	.LBB8:
 717:./Libraries/STM32F4xx_HAL_Driver/Src/stm32f4xx_hal_i2s_ex.c ****       {
 718:./Libraries/STM32F4xx_HAL_Driver/Src/stm32f4xx_hal_i2s_ex.c ****         /* Clear the Overrun Flag by a read operation on the SPI_DR register followed by a read
 719:./Libraries/STM32F4xx_HAL_Driver/Src/stm32f4xx_hal_i2s_ex.c ****         access to the SPI_SR register. */
 720:./Libraries/STM32F4xx_HAL_Driver/Src/stm32f4xx_hal_i2s_ex.c ****         __HAL_I2S_CLEAR_OVRFLAG(hi2s);
 1824              		.loc 1 720 9
 1825 01f8 0023     		movs	r3, #0
 1826 01fa 7B61     		str	r3, [r7, #20]
 1827 01fc FB68     		ldr	r3, [r7, #12]
 1828 01fe 1B68     		ldr	r3, [r3]
 1829 0200 DB68     		ldr	r3, [r3, #12]
 1830 0202 7B61     		str	r3, [r7, #20]
 1831 0204 FB68     		ldr	r3, [r7, #12]
 1832 0206 1B68     		ldr	r3, [r3]
 1833 0208 9B68     		ldr	r3, [r3, #8]
 1834 020a 7B61     		str	r3, [r7, #20]
 1835 020c 7B69     		ldr	r3, [r7, #20]
 1836              	.L117:
 1837              	.LBE8:
 721:./Libraries/STM32F4xx_HAL_Driver/Src/stm32f4xx_hal_i2s_ex.c ****       }
 722:./Libraries/STM32F4xx_HAL_Driver/Src/stm32f4xx_hal_i2s_ex.c ****       /* Enable the Tx DMA Stream */
ARM GAS  /tmp/ccEZa6GA.s 			page 46


 723:./Libraries/STM32F4xx_HAL_Driver/Src/stm32f4xx_hal_i2s_ex.c ****       tmp = (uint32_t*)&pTxData;
 1838              		.loc 1 723 11
 1839 020e 07F10803 		add	r3, r7, #8
 1840 0212 FB61     		str	r3, [r7, #28]
 724:./Libraries/STM32F4xx_HAL_Driver/Src/stm32f4xx_hal_i2s_ex.c ****       HAL_DMA_Start_IT(hi2s->hdmatx, *(uint32_t*)tmp, (uint32_t)&I2SxEXT(hi2s->Instance)->DR, hi2s-
 1841              		.loc 1 724 7
 1842 0214 FB68     		ldr	r3, [r7, #12]
 1843 0216 986B     		ldr	r0, [r3, #56]
 1844 0218 FB69     		ldr	r3, [r7, #28]
 1845 021a 1968     		ldr	r1, [r3]
 1846              		.loc 1 724 66
 1847 021c FB68     		ldr	r3, [r7, #12]
 1848 021e 1B68     		ldr	r3, [r3]
 1849 0220 384A     		ldr	r2, .L128+12
 1850 0222 9342     		cmp	r3, r2
 1851 0224 01D1     		bne	.L118
 1852              		.loc 1 724 66 is_stmt 0 discriminator 1
 1853 0226 384B     		ldr	r3, .L128+16
 1854 0228 01E0     		b	.L119
 1855              	.L118:
 1856              		.loc 1 724 66 discriminator 2
 1857 022a 4FF04023 		mov	r3, #1073758208
 1858              	.L119:
 1859              		.loc 1 724 65 is_stmt 1 discriminator 4
 1860 022e 0C33     		adds	r3, r3, #12
 1861              		.loc 1 724 7 discriminator 4
 1862 0230 1A46     		mov	r2, r3
 1863              		.loc 1 724 99 discriminator 4
 1864 0232 FB68     		ldr	r3, [r7, #12]
 1865 0234 1B8D     		ldrh	r3, [r3, #40]	@ movhi
 1866 0236 9BB2     		uxth	r3, r3
 1867              		.loc 1 724 7 discriminator 4
 1868 0238 FFF7FEFF 		bl	HAL_DMA_Start_IT
 725:./Libraries/STM32F4xx_HAL_Driver/Src/stm32f4xx_hal_i2s_ex.c **** 
 726:./Libraries/STM32F4xx_HAL_Driver/Src/stm32f4xx_hal_i2s_ex.c ****       /* Enable Tx DMA Request */
 727:./Libraries/STM32F4xx_HAL_Driver/Src/stm32f4xx_hal_i2s_ex.c ****       SET_BIT(I2SxEXT(hi2s->Instance)->CR2,SPI_CR2_TXDMAEN);
 1869              		.loc 1 727 7 discriminator 4
 1870 023c FB68     		ldr	r3, [r7, #12]
 1871 023e 1B68     		ldr	r3, [r3]
 1872 0240 304A     		ldr	r2, .L128+12
 1873 0242 9342     		cmp	r3, r2
 1874 0244 01D1     		bne	.L120
 1875              		.loc 1 727 7 is_stmt 0 discriminator 1
 1876 0246 304B     		ldr	r3, .L128+16
 1877 0248 01E0     		b	.L121
 1878              	.L120:
 1879              		.loc 1 727 7 discriminator 2
 1880 024a 4FF04023 		mov	r3, #1073758208
 1881              	.L121:
 1882              		.loc 1 727 7 discriminator 4
 1883 024e 5A68     		ldr	r2, [r3, #4]
 1884 0250 FB68     		ldr	r3, [r7, #12]
 1885 0252 1B68     		ldr	r3, [r3]
 1886 0254 2B49     		ldr	r1, .L128+12
 1887 0256 8B42     		cmp	r3, r1
 1888 0258 01D1     		bne	.L122
 1889              		.loc 1 727 7 discriminator 5
ARM GAS  /tmp/ccEZa6GA.s 			page 47


 1890 025a 2B4B     		ldr	r3, .L128+16
 1891 025c 01E0     		b	.L123
 1892              	.L122:
 1893              		.loc 1 727 7 discriminator 6
 1894 025e 4FF04023 		mov	r3, #1073758208
 1895              	.L123:
 1896              		.loc 1 727 7 discriminator 8
 1897 0262 42F00202 		orr	r2, r2, #2
 1898 0266 5A60     		str	r2, [r3, #4]
 728:./Libraries/STM32F4xx_HAL_Driver/Src/stm32f4xx_hal_i2s_ex.c **** 
 729:./Libraries/STM32F4xx_HAL_Driver/Src/stm32f4xx_hal_i2s_ex.c ****       /* Enable the Rx DMA Stream */
 730:./Libraries/STM32F4xx_HAL_Driver/Src/stm32f4xx_hal_i2s_ex.c ****       tmp = (uint32_t*)&pRxData;
 1899              		.loc 1 730 11 is_stmt 1 discriminator 8
 1900 0268 3B1D     		adds	r3, r7, #4
 1901 026a FB61     		str	r3, [r7, #28]
 731:./Libraries/STM32F4xx_HAL_Driver/Src/stm32f4xx_hal_i2s_ex.c ****       HAL_DMA_Start_IT(hi2s->hdmarx, (uint32_t)&hi2s->Instance->DR, *(uint32_t*)tmp, hi2s->RxXferSi
 1902              		.loc 1 731 7 discriminator 8
 1903 026c FB68     		ldr	r3, [r7, #12]
 1904 026e D86B     		ldr	r0, [r3, #60]
 1905              		.loc 1 731 53 discriminator 8
 1906 0270 FB68     		ldr	r3, [r7, #12]
 1907 0272 1B68     		ldr	r3, [r3]
 1908              		.loc 1 731 48 discriminator 8
 1909 0274 0C33     		adds	r3, r3, #12
 1910              		.loc 1 731 7 discriminator 8
 1911 0276 1946     		mov	r1, r3
 1912 0278 FB69     		ldr	r3, [r7, #28]
 1913 027a 1A68     		ldr	r2, [r3]
 1914              		.loc 1 731 90 discriminator 8
 1915 027c FB68     		ldr	r3, [r7, #12]
 1916 027e 1B8E     		ldrh	r3, [r3, #48]	@ movhi
 1917 0280 9BB2     		uxth	r3, r3
 1918              		.loc 1 731 7 discriminator 8
 1919 0282 FFF7FEFF 		bl	HAL_DMA_Start_IT
 732:./Libraries/STM32F4xx_HAL_Driver/Src/stm32f4xx_hal_i2s_ex.c **** 
 733:./Libraries/STM32F4xx_HAL_Driver/Src/stm32f4xx_hal_i2s_ex.c ****       /* Enable Rx DMA Request */
 734:./Libraries/STM32F4xx_HAL_Driver/Src/stm32f4xx_hal_i2s_ex.c ****       SET_BIT(hi2s->Instance->CR2,SPI_CR2_RXDMAEN);
 1920              		.loc 1 734 7 discriminator 8
 1921 0286 FB68     		ldr	r3, [r7, #12]
 1922 0288 1B68     		ldr	r3, [r3]
 1923 028a 5A68     		ldr	r2, [r3, #4]
 1924 028c FB68     		ldr	r3, [r7, #12]
 1925 028e 1B68     		ldr	r3, [r3]
 1926 0290 42F00102 		orr	r2, r2, #1
 1927 0294 5A60     		str	r2, [r3, #4]
 735:./Libraries/STM32F4xx_HAL_Driver/Src/stm32f4xx_hal_i2s_ex.c **** 
 736:./Libraries/STM32F4xx_HAL_Driver/Src/stm32f4xx_hal_i2s_ex.c ****       /* Check if the I2S is already enabled */
 737:./Libraries/STM32F4xx_HAL_Driver/Src/stm32f4xx_hal_i2s_ex.c ****       if((hi2s->Instance->I2SCFGR &SPI_I2SCFGR_I2SE) != SPI_I2SCFGR_I2SE)
 1928              		.loc 1 737 15 discriminator 8
 1929 0296 FB68     		ldr	r3, [r7, #12]
 1930 0298 1B68     		ldr	r3, [r3]
 1931              		.loc 1 737 25 discriminator 8
 1932 029a DB69     		ldr	r3, [r3, #28]
 1933              		.loc 1 737 35 discriminator 8
 1934 029c 03F48063 		and	r3, r3, #1024
 1935              		.loc 1 737 9 discriminator 8
 1936 02a0 B3F5806F 		cmp	r3, #1024
ARM GAS  /tmp/ccEZa6GA.s 			page 48


 1937 02a4 1DD0     		beq	.L116
 738:./Libraries/STM32F4xx_HAL_Driver/Src/stm32f4xx_hal_i2s_ex.c ****       {
 739:./Libraries/STM32F4xx_HAL_Driver/Src/stm32f4xx_hal_i2s_ex.c ****         /* Enable I2Sext(transmitter) before enabling I2Sx peripheral */
 740:./Libraries/STM32F4xx_HAL_Driver/Src/stm32f4xx_hal_i2s_ex.c ****         __HAL_I2SEXT_ENABLE(hi2s);
 1938              		.loc 1 740 9
 1939 02a6 FB68     		ldr	r3, [r7, #12]
 1940 02a8 1B68     		ldr	r3, [r3]
 1941 02aa 164A     		ldr	r2, .L128+12
 1942 02ac 9342     		cmp	r3, r2
 1943 02ae 01D1     		bne	.L124
 1944              		.loc 1 740 9 is_stmt 0 discriminator 1
 1945 02b0 154B     		ldr	r3, .L128+16
 1946 02b2 01E0     		b	.L125
 1947              	.L124:
 1948              		.loc 1 740 9 discriminator 2
 1949 02b4 4FF04023 		mov	r3, #1073758208
 1950              	.L125:
 1951              		.loc 1 740 9 discriminator 4
 1952 02b8 DA69     		ldr	r2, [r3, #28]
 1953 02ba FB68     		ldr	r3, [r7, #12]
 1954 02bc 1B68     		ldr	r3, [r3]
 1955 02be 1149     		ldr	r1, .L128+12
 1956 02c0 8B42     		cmp	r3, r1
 1957 02c2 01D1     		bne	.L126
 1958              		.loc 1 740 9 discriminator 5
 1959 02c4 104B     		ldr	r3, .L128+16
 1960 02c6 01E0     		b	.L127
 1961              	.L126:
 1962              		.loc 1 740 9 discriminator 6
 1963 02c8 4FF04023 		mov	r3, #1073758208
 1964              	.L127:
 1965              		.loc 1 740 9 discriminator 8
 1966 02cc 42F48062 		orr	r2, r2, #1024
 1967 02d0 DA61     		str	r2, [r3, #28]
 741:./Libraries/STM32F4xx_HAL_Driver/Src/stm32f4xx_hal_i2s_ex.c ****         /* Enable I2S peripheral before the I2Sext */
 742:./Libraries/STM32F4xx_HAL_Driver/Src/stm32f4xx_hal_i2s_ex.c ****         __HAL_I2S_ENABLE(hi2s);
 1968              		.loc 1 742 9 is_stmt 1 discriminator 8
 1969 02d2 FB68     		ldr	r3, [r7, #12]
 1970 02d4 1B68     		ldr	r3, [r3]
 1971 02d6 DA69     		ldr	r2, [r3, #28]
 1972 02d8 FB68     		ldr	r3, [r7, #12]
 1973 02da 1B68     		ldr	r3, [r3]
 1974 02dc 42F48062 		orr	r2, r2, #1024
 1975 02e0 DA61     		str	r2, [r3, #28]
 1976              	.L116:
 743:./Libraries/STM32F4xx_HAL_Driver/Src/stm32f4xx_hal_i2s_ex.c ****       }
 744:./Libraries/STM32F4xx_HAL_Driver/Src/stm32f4xx_hal_i2s_ex.c ****     }
 745:./Libraries/STM32F4xx_HAL_Driver/Src/stm32f4xx_hal_i2s_ex.c **** 
 746:./Libraries/STM32F4xx_HAL_Driver/Src/stm32f4xx_hal_i2s_ex.c ****     /* Process Unlocked */
 747:./Libraries/STM32F4xx_HAL_Driver/Src/stm32f4xx_hal_i2s_ex.c ****     __HAL_UNLOCK(hi2s);
 1977              		.loc 1 747 5
 1978 02e2 FB68     		ldr	r3, [r7, #12]
 1979 02e4 0022     		movs	r2, #0
 1980 02e6 83F84020 		strb	r2, [r3, #64]
 748:./Libraries/STM32F4xx_HAL_Driver/Src/stm32f4xx_hal_i2s_ex.c **** 
 749:./Libraries/STM32F4xx_HAL_Driver/Src/stm32f4xx_hal_i2s_ex.c ****     return HAL_OK;
 1981              		.loc 1 749 12
ARM GAS  /tmp/ccEZa6GA.s 			page 49


 1982 02ea 0023     		movs	r3, #0
 1983 02ec 00E0     		b	.L97
 1984              	.L98:
 750:./Libraries/STM32F4xx_HAL_Driver/Src/stm32f4xx_hal_i2s_ex.c ****   }
 751:./Libraries/STM32F4xx_HAL_Driver/Src/stm32f4xx_hal_i2s_ex.c ****   else
 752:./Libraries/STM32F4xx_HAL_Driver/Src/stm32f4xx_hal_i2s_ex.c ****   {
 753:./Libraries/STM32F4xx_HAL_Driver/Src/stm32f4xx_hal_i2s_ex.c ****     return HAL_BUSY;
 1985              		.loc 1 753 12
 1986 02ee 0223     		movs	r3, #2
 1987              	.L97:
 754:./Libraries/STM32F4xx_HAL_Driver/Src/stm32f4xx_hal_i2s_ex.c ****   }
 755:./Libraries/STM32F4xx_HAL_Driver/Src/stm32f4xx_hal_i2s_ex.c **** }
 1988              		.loc 1 755 1
 1989 02f0 1846     		mov	r0, r3
 1990 02f2 2037     		adds	r7, r7, #32
 1991              	.LCFI13:
 1992              		.cfi_def_cfa_offset 8
 1993 02f4 BD46     		mov	sp, r7
 1994              	.LCFI14:
 1995              		.cfi_def_cfa_register 13
 1996              		@ sp needed
 1997 02f6 80BD     		pop	{r7, pc}
 1998              	.L129:
 1999              		.align	2
 2000              	.L128:
 2001 02f8 00000000 		.word	I2SEx_TxRxDMAHalfCplt
 2002 02fc 00000000 		.word	I2SEx_TxRxDMACplt
 2003 0300 00000000 		.word	I2SEx_TxRxDMAError
 2004 0304 00380040 		.word	1073756160
 2005 0308 00340040 		.word	1073755136
 2006              		.cfi_endproc
 2007              	.LFE128:
 2009              		.section	.text.HAL_I2SEx_FullDuplex_IRQHandler,"ax",%progbits
 2010              		.align	1
 2011              		.global	HAL_I2SEx_FullDuplex_IRQHandler
 2012              		.syntax unified
 2013              		.thumb
 2014              		.thumb_func
 2015              		.fpu fpv4-sp-d16
 2017              	HAL_I2SEx_FullDuplex_IRQHandler:
 2018              	.LFB129:
 756:./Libraries/STM32F4xx_HAL_Driver/Src/stm32f4xx_hal_i2s_ex.c **** 
 757:./Libraries/STM32F4xx_HAL_Driver/Src/stm32f4xx_hal_i2s_ex.c **** /**
 758:./Libraries/STM32F4xx_HAL_Driver/Src/stm32f4xx_hal_i2s_ex.c ****   * @brief  This function handles I2S/I2Sext interrupt requests in full-duplex mode.
 759:./Libraries/STM32F4xx_HAL_Driver/Src/stm32f4xx_hal_i2s_ex.c ****   * @param  hi2s I2S handle
 760:./Libraries/STM32F4xx_HAL_Driver/Src/stm32f4xx_hal_i2s_ex.c ****   * @retval HAL status
 761:./Libraries/STM32F4xx_HAL_Driver/Src/stm32f4xx_hal_i2s_ex.c ****   */
 762:./Libraries/STM32F4xx_HAL_Driver/Src/stm32f4xx_hal_i2s_ex.c **** void HAL_I2SEx_FullDuplex_IRQHandler(I2S_HandleTypeDef *hi2s)
 763:./Libraries/STM32F4xx_HAL_Driver/Src/stm32f4xx_hal_i2s_ex.c **** {
 2019              		.loc 1 763 1
 2020              		.cfi_startproc
 2021              		@ args = 0, pretend = 0, frame = 24
 2022              		@ frame_needed = 1, uses_anonymous_args = 0
 2023 0000 80B5     		push	{r7, lr}
 2024              	.LCFI15:
 2025              		.cfi_def_cfa_offset 8
 2026              		.cfi_offset 7, -8
ARM GAS  /tmp/ccEZa6GA.s 			page 50


 2027              		.cfi_offset 14, -4
 2028 0002 86B0     		sub	sp, sp, #24
 2029              	.LCFI16:
 2030              		.cfi_def_cfa_offset 32
 2031 0004 00AF     		add	r7, sp, #0
 2032              	.LCFI17:
 2033              		.cfi_def_cfa_register 7
 2034 0006 7860     		str	r0, [r7, #4]
 764:./Libraries/STM32F4xx_HAL_Driver/Src/stm32f4xx_hal_i2s_ex.c ****   __IO uint32_t i2ssr    = hi2s->Instance->SR ;
 2035              		.loc 1 764 32
 2036 0008 7B68     		ldr	r3, [r7, #4]
 2037 000a 1B68     		ldr	r3, [r3]
 2038              		.loc 1 764 42
 2039 000c 9B68     		ldr	r3, [r3, #8]
 2040              		.loc 1 764 17
 2041 000e 7B61     		str	r3, [r7, #20]
 765:./Libraries/STM32F4xx_HAL_Driver/Src/stm32f4xx_hal_i2s_ex.c ****   __IO uint32_t i2sextsr = I2SxEXT(hi2s->Instance)->SR;
 2042              		.loc 1 765 28
 2043 0010 7B68     		ldr	r3, [r7, #4]
 2044 0012 1B68     		ldr	r3, [r3]
 2045 0014 8C4A     		ldr	r2, .L169
 2046 0016 9342     		cmp	r3, r2
 2047 0018 01D1     		bne	.L131
 2048              		.loc 1 765 28 is_stmt 0 discriminator 1
 2049 001a 8C4B     		ldr	r3, .L169+4
 2050 001c 01E0     		b	.L132
 2051              	.L131:
 2052              		.loc 1 765 28 discriminator 2
 2053 001e 4FF04023 		mov	r3, #1073758208
 2054              	.L132:
 2055              		.loc 1 765 51 is_stmt 1 discriminator 4
 2056 0022 9B68     		ldr	r3, [r3, #8]
 2057              		.loc 1 765 17 discriminator 4
 2058 0024 3B61     		str	r3, [r7, #16]
 766:./Libraries/STM32F4xx_HAL_Driver/Src/stm32f4xx_hal_i2s_ex.c **** 
 767:./Libraries/STM32F4xx_HAL_Driver/Src/stm32f4xx_hal_i2s_ex.c ****   /* Check if the I2S_MODE_MASTER_TX or I2S_MODE_SLAVE_TX Mode is selected */
 768:./Libraries/STM32F4xx_HAL_Driver/Src/stm32f4xx_hal_i2s_ex.c ****   if (((hi2s->Instance->I2SCFGR & SPI_I2SCFGR_I2SCFG) == I2S_MODE_MASTER_TX)
 2059              		.loc 1 768 13 discriminator 4
 2060 0026 7B68     		ldr	r3, [r7, #4]
 2061 0028 1B68     		ldr	r3, [r3]
 2062              		.loc 1 768 23 discriminator 4
 2063 002a DB69     		ldr	r3, [r3, #28]
 2064              		.loc 1 768 33 discriminator 4
 2065 002c 03F44073 		and	r3, r3, #768
 2066              		.loc 1 768 6 discriminator 4
 2067 0030 B3F5007F 		cmp	r3, #512
 2068 0034 07D0     		beq	.L133
 769:./Libraries/STM32F4xx_HAL_Driver/Src/stm32f4xx_hal_i2s_ex.c ****       || ((hi2s->Instance->I2SCFGR & SPI_I2SCFGR_I2SCFG) == I2S_MODE_SLAVE_TX))
 2069              		.loc 1 769 16
 2070 0036 7B68     		ldr	r3, [r7, #4]
 2071 0038 1B68     		ldr	r3, [r3]
 2072              		.loc 1 769 26
 2073 003a DB69     		ldr	r3, [r3, #28]
 2074              		.loc 1 769 36
 2075 003c 03F44073 		and	r3, r3, #768
 2076              		.loc 1 769 7
 2077 0040 002B     		cmp	r3, #0
ARM GAS  /tmp/ccEZa6GA.s 			page 51


 2078 0042 40F0B380 		bne	.L134
 2079              	.L133:
 770:./Libraries/STM32F4xx_HAL_Driver/Src/stm32f4xx_hal_i2s_ex.c ****   {
 771:./Libraries/STM32F4xx_HAL_Driver/Src/stm32f4xx_hal_i2s_ex.c ****     /* I2S in mode Transmitter -------------------------------------------------*/
 772:./Libraries/STM32F4xx_HAL_Driver/Src/stm32f4xx_hal_i2s_ex.c ****     if(((i2ssr & I2S_FLAG_TXE) == I2S_FLAG_TXE) && (__HAL_I2S_GET_IT_SOURCE(hi2s, I2S_IT_TXE) != RE
 2080              		.loc 1 772 16
 2081 0046 7B69     		ldr	r3, [r7, #20]
 2082 0048 03F00203 		and	r3, r3, #2
 2083              		.loc 1 772 7
 2084 004c 022B     		cmp	r3, #2
 2085 004e 0AD1     		bne	.L135
 2086              		.loc 1 772 53 discriminator 1
 2087 0050 7B68     		ldr	r3, [r7, #4]
 2088 0052 1B68     		ldr	r3, [r3]
 2089 0054 5B68     		ldr	r3, [r3, #4]
 2090 0056 03F08003 		and	r3, r3, #128
 2091              		.loc 1 772 49 discriminator 1
 2092 005a 802B     		cmp	r3, #128
 2093 005c 03D1     		bne	.L135
 773:./Libraries/STM32F4xx_HAL_Driver/Src/stm32f4xx_hal_i2s_ex.c ****     {
 774:./Libraries/STM32F4xx_HAL_Driver/Src/stm32f4xx_hal_i2s_ex.c ****       /* When the I2S mode is configured as I2S_MODE_MASTER_TX or I2S_MODE_SLAVE_TX,
 775:./Libraries/STM32F4xx_HAL_Driver/Src/stm32f4xx_hal_i2s_ex.c ****       the I2S TXE interrupt will be generated to manage the full-duplex transmit phase. */
 776:./Libraries/STM32F4xx_HAL_Driver/Src/stm32f4xx_hal_i2s_ex.c ****       I2SEx_FullDuplexTx_IT(hi2s, I2S_USE_I2S);
 2094              		.loc 1 776 7
 2095 005e 0021     		movs	r1, #0
 2096 0060 7868     		ldr	r0, [r7, #4]
 2097 0062 FFF7FEFF 		bl	I2SEx_FullDuplexTx_IT
 2098              	.L135:
 777:./Libraries/STM32F4xx_HAL_Driver/Src/stm32f4xx_hal_i2s_ex.c ****     }
 778:./Libraries/STM32F4xx_HAL_Driver/Src/stm32f4xx_hal_i2s_ex.c **** 
 779:./Libraries/STM32F4xx_HAL_Driver/Src/stm32f4xx_hal_i2s_ex.c ****     /* I2Sext in mode Receiver -----------------------------------------------*/
 780:./Libraries/STM32F4xx_HAL_Driver/Src/stm32f4xx_hal_i2s_ex.c ****     if(((i2sextsr & I2S_FLAG_RXNE) == I2S_FLAG_RXNE) && (__HAL_I2SEXT_GET_IT_SOURCE(hi2s, I2S_IT_RX
 2099              		.loc 1 780 19
 2100 0066 3B69     		ldr	r3, [r7, #16]
 2101 0068 03F00103 		and	r3, r3, #1
 2102              		.loc 1 780 7
 2103 006c 012B     		cmp	r3, #1
 2104 006e 11D1     		bne	.L136
 2105              		.loc 1 780 58 discriminator 1
 2106 0070 7B68     		ldr	r3, [r7, #4]
 2107 0072 1B68     		ldr	r3, [r3]
 2108 0074 744A     		ldr	r2, .L169
 2109 0076 9342     		cmp	r3, r2
 2110 0078 01D1     		bne	.L137
 2111              		.loc 1 780 58 is_stmt 0 discriminator 2
 2112 007a 744B     		ldr	r3, .L169+4
 2113 007c 01E0     		b	.L138
 2114              	.L137:
 2115              		.loc 1 780 58 discriminator 3
 2116 007e 4FF04023 		mov	r3, #1073758208
 2117              	.L138:
 2118              		.loc 1 780 58 discriminator 5
 2119 0082 5B68     		ldr	r3, [r3, #4]
 2120 0084 03F04003 		and	r3, r3, #64
 2121              		.loc 1 780 54 is_stmt 1 discriminator 5
 2122 0088 402B     		cmp	r3, #64
 2123 008a 03D1     		bne	.L136
ARM GAS  /tmp/ccEZa6GA.s 			page 52


 781:./Libraries/STM32F4xx_HAL_Driver/Src/stm32f4xx_hal_i2s_ex.c ****     {
 782:./Libraries/STM32F4xx_HAL_Driver/Src/stm32f4xx_hal_i2s_ex.c ****       /* When the I2S mode is configured as I2S_MODE_MASTER_TX or I2S_MODE_SLAVE_TX,
 783:./Libraries/STM32F4xx_HAL_Driver/Src/stm32f4xx_hal_i2s_ex.c ****       the I2Sext RXNE interrupt will be generated to manage the full-duplex receive phase. */
 784:./Libraries/STM32F4xx_HAL_Driver/Src/stm32f4xx_hal_i2s_ex.c ****       I2SEx_FullDuplexRx_IT(hi2s, I2S_USE_I2SEXT);
 2124              		.loc 1 784 7
 2125 008c 0121     		movs	r1, #1
 2126 008e 7868     		ldr	r0, [r7, #4]
 2127 0090 FFF7FEFF 		bl	I2SEx_FullDuplexRx_IT
 2128              	.L136:
 785:./Libraries/STM32F4xx_HAL_Driver/Src/stm32f4xx_hal_i2s_ex.c ****     }
 786:./Libraries/STM32F4xx_HAL_Driver/Src/stm32f4xx_hal_i2s_ex.c **** 
 787:./Libraries/STM32F4xx_HAL_Driver/Src/stm32f4xx_hal_i2s_ex.c ****     /* I2Sext Overrun error interrupt occured --------------------------------*/
 788:./Libraries/STM32F4xx_HAL_Driver/Src/stm32f4xx_hal_i2s_ex.c ****     if(((i2sextsr & I2S_FLAG_OVR) == I2S_FLAG_OVR) && (__HAL_I2SEXT_GET_IT_SOURCE(hi2s, I2S_IT_ERR)
 2129              		.loc 1 788 19
 2130 0094 3B69     		ldr	r3, [r7, #16]
 2131 0096 03F04003 		and	r3, r3, #64
 2132              		.loc 1 788 7
 2133 009a 402B     		cmp	r3, #64
 2134 009c 44D1     		bne	.L139
 2135              		.loc 1 788 56 discriminator 1
 2136 009e 7B68     		ldr	r3, [r7, #4]
 2137 00a0 1B68     		ldr	r3, [r3]
 2138 00a2 694A     		ldr	r2, .L169
 2139 00a4 9342     		cmp	r3, r2
 2140 00a6 01D1     		bne	.L140
 2141              		.loc 1 788 56 is_stmt 0 discriminator 2
 2142 00a8 684B     		ldr	r3, .L169+4
 2143 00aa 01E0     		b	.L141
 2144              	.L140:
 2145              		.loc 1 788 56 discriminator 3
 2146 00ac 4FF04023 		mov	r3, #1073758208
 2147              	.L141:
 2148              		.loc 1 788 56 discriminator 5
 2149 00b0 5B68     		ldr	r3, [r3, #4]
 2150 00b2 03F02003 		and	r3, r3, #32
 2151              		.loc 1 788 52 is_stmt 1 discriminator 5
 2152 00b6 202B     		cmp	r3, #32
 2153 00b8 36D1     		bne	.L139
 789:./Libraries/STM32F4xx_HAL_Driver/Src/stm32f4xx_hal_i2s_ex.c ****     {
 790:./Libraries/STM32F4xx_HAL_Driver/Src/stm32f4xx_hal_i2s_ex.c ****       /* Disable RXNE and ERR interrupt */
 791:./Libraries/STM32F4xx_HAL_Driver/Src/stm32f4xx_hal_i2s_ex.c ****       __HAL_I2SEXT_DISABLE_IT(hi2s, (I2S_IT_RXNE | I2S_IT_ERR));
 2154              		.loc 1 791 7
 2155 00ba 7B68     		ldr	r3, [r7, #4]
 2156 00bc 1B68     		ldr	r3, [r3]
 2157 00be 624A     		ldr	r2, .L169
 2158 00c0 9342     		cmp	r3, r2
 2159 00c2 01D1     		bne	.L142
 2160              		.loc 1 791 7 is_stmt 0 discriminator 1
 2161 00c4 614B     		ldr	r3, .L169+4
 2162 00c6 01E0     		b	.L143
 2163              	.L142:
 2164              		.loc 1 791 7 discriminator 2
 2165 00c8 4FF04023 		mov	r3, #1073758208
 2166              	.L143:
 2167              		.loc 1 791 7 discriminator 4
 2168 00cc 5A68     		ldr	r2, [r3, #4]
 2169 00ce 7B68     		ldr	r3, [r7, #4]
ARM GAS  /tmp/ccEZa6GA.s 			page 53


 2170 00d0 1B68     		ldr	r3, [r3]
 2171 00d2 5D49     		ldr	r1, .L169
 2172 00d4 8B42     		cmp	r3, r1
 2173 00d6 01D1     		bne	.L144
 2174              		.loc 1 791 7 discriminator 5
 2175 00d8 5C4B     		ldr	r3, .L169+4
 2176 00da 01E0     		b	.L145
 2177              	.L144:
 2178              		.loc 1 791 7 discriminator 6
 2179 00dc 4FF04023 		mov	r3, #1073758208
 2180              	.L145:
 2181              		.loc 1 791 7 discriminator 8
 2182 00e0 22F06002 		bic	r2, r2, #96
 2183 00e4 5A60     		str	r2, [r3, #4]
 792:./Libraries/STM32F4xx_HAL_Driver/Src/stm32f4xx_hal_i2s_ex.c **** 
 793:./Libraries/STM32F4xx_HAL_Driver/Src/stm32f4xx_hal_i2s_ex.c ****       /* Disable TXE and ERR interrupt */
 794:./Libraries/STM32F4xx_HAL_Driver/Src/stm32f4xx_hal_i2s_ex.c ****       __HAL_I2S_DISABLE_IT(hi2s, (I2S_IT_TXE | I2S_IT_ERR));
 2184              		.loc 1 794 7 is_stmt 1 discriminator 8
 2185 00e6 7B68     		ldr	r3, [r7, #4]
 2186 00e8 1B68     		ldr	r3, [r3]
 2187 00ea 5968     		ldr	r1, [r3, #4]
 2188 00ec 7B68     		ldr	r3, [r7, #4]
 2189 00ee 1A68     		ldr	r2, [r3]
 2190 00f0 4FF65F73 		movw	r3, #65375
 2191 00f4 0B40     		ands	r3, r3, r1
 2192 00f6 5360     		str	r3, [r2, #4]
 2193              	.LBB9:
 795:./Libraries/STM32F4xx_HAL_Driver/Src/stm32f4xx_hal_i2s_ex.c **** 
 796:./Libraries/STM32F4xx_HAL_Driver/Src/stm32f4xx_hal_i2s_ex.c ****       /* Clear Overrun flag */
 797:./Libraries/STM32F4xx_HAL_Driver/Src/stm32f4xx_hal_i2s_ex.c ****       __HAL_I2S_CLEAR_OVRFLAG(hi2s);
 2194              		.loc 1 797 7 discriminator 8
 2195 00f8 0023     		movs	r3, #0
 2196 00fa FB60     		str	r3, [r7, #12]
 2197 00fc 7B68     		ldr	r3, [r7, #4]
 2198 00fe 1B68     		ldr	r3, [r3]
 2199 0100 DB68     		ldr	r3, [r3, #12]
 2200 0102 FB60     		str	r3, [r7, #12]
 2201 0104 7B68     		ldr	r3, [r7, #4]
 2202 0106 1B68     		ldr	r3, [r3]
 2203 0108 9B68     		ldr	r3, [r3, #8]
 2204 010a FB60     		str	r3, [r7, #12]
 2205 010c FB68     		ldr	r3, [r7, #12]
 2206              	.LBE9:
 798:./Libraries/STM32F4xx_HAL_Driver/Src/stm32f4xx_hal_i2s_ex.c **** 
 799:./Libraries/STM32F4xx_HAL_Driver/Src/stm32f4xx_hal_i2s_ex.c ****       /* Set the I2S State ready */
 800:./Libraries/STM32F4xx_HAL_Driver/Src/stm32f4xx_hal_i2s_ex.c ****       hi2s->State = HAL_I2S_STATE_READY;
 2207              		.loc 1 800 19 discriminator 8
 2208 010e 7B68     		ldr	r3, [r7, #4]
 2209 0110 0122     		movs	r2, #1
 2210 0112 83F84120 		strb	r2, [r3, #65]
 801:./Libraries/STM32F4xx_HAL_Driver/Src/stm32f4xx_hal_i2s_ex.c **** 
 802:./Libraries/STM32F4xx_HAL_Driver/Src/stm32f4xx_hal_i2s_ex.c ****       /* Set the error code and execute error callback*/
 803:./Libraries/STM32F4xx_HAL_Driver/Src/stm32f4xx_hal_i2s_ex.c ****       SET_BIT(hi2s->ErrorCode,HAL_I2S_ERROR_OVR);
 2211              		.loc 1 803 7 discriminator 8
 2212 0116 7B68     		ldr	r3, [r7, #4]
 2213 0118 5B6C     		ldr	r3, [r3, #68]
 2214 011a 43F00202 		orr	r2, r3, #2
ARM GAS  /tmp/ccEZa6GA.s 			page 54


 2215 011e 7B68     		ldr	r3, [r7, #4]
 2216 0120 5A64     		str	r2, [r3, #68]
 804:./Libraries/STM32F4xx_HAL_Driver/Src/stm32f4xx_hal_i2s_ex.c ****       HAL_I2S_ErrorCallback(hi2s);
 2217              		.loc 1 804 7 discriminator 8
 2218 0122 7868     		ldr	r0, [r7, #4]
 2219 0124 FFF7FEFF 		bl	HAL_I2S_ErrorCallback
 2220              	.L139:
 805:./Libraries/STM32F4xx_HAL_Driver/Src/stm32f4xx_hal_i2s_ex.c ****     }
 806:./Libraries/STM32F4xx_HAL_Driver/Src/stm32f4xx_hal_i2s_ex.c **** 
 807:./Libraries/STM32F4xx_HAL_Driver/Src/stm32f4xx_hal_i2s_ex.c ****     /* I2S Underrun error interrupt occured ----------------------------------*/
 808:./Libraries/STM32F4xx_HAL_Driver/Src/stm32f4xx_hal_i2s_ex.c ****     if(((i2ssr & I2S_FLAG_UDR) == I2S_FLAG_UDR) && (__HAL_I2S_GET_IT_SOURCE(hi2s, I2S_IT_ERR) != RE
 2221              		.loc 1 808 16
 2222 0128 7B69     		ldr	r3, [r7, #20]
 2223 012a 03F00803 		and	r3, r3, #8
 2224              		.loc 1 808 7
 2225 012e 082B     		cmp	r3, #8
 2226 0130 40F0E080 		bne	.L167
 2227              		.loc 1 808 53 discriminator 1
 2228 0134 7B68     		ldr	r3, [r7, #4]
 2229 0136 1B68     		ldr	r3, [r3]
 2230 0138 5B68     		ldr	r3, [r3, #4]
 2231 013a 03F02003 		and	r3, r3, #32
 2232              		.loc 1 808 49 discriminator 1
 2233 013e 202B     		cmp	r3, #32
 2234 0140 40F0D880 		bne	.L167
 809:./Libraries/STM32F4xx_HAL_Driver/Src/stm32f4xx_hal_i2s_ex.c ****     {
 810:./Libraries/STM32F4xx_HAL_Driver/Src/stm32f4xx_hal_i2s_ex.c ****       /* Disable TXE and ERR interrupt */
 811:./Libraries/STM32F4xx_HAL_Driver/Src/stm32f4xx_hal_i2s_ex.c ****       __HAL_I2S_DISABLE_IT(hi2s, (I2S_IT_TXE | I2S_IT_ERR));
 2235              		.loc 1 811 7
 2236 0144 7B68     		ldr	r3, [r7, #4]
 2237 0146 1B68     		ldr	r3, [r3]
 2238 0148 5968     		ldr	r1, [r3, #4]
 2239 014a 7B68     		ldr	r3, [r7, #4]
 2240 014c 1A68     		ldr	r2, [r3]
 2241 014e 4FF65F73 		movw	r3, #65375
 2242 0152 0B40     		ands	r3, r3, r1
 2243 0154 5360     		str	r3, [r2, #4]
 812:./Libraries/STM32F4xx_HAL_Driver/Src/stm32f4xx_hal_i2s_ex.c **** 
 813:./Libraries/STM32F4xx_HAL_Driver/Src/stm32f4xx_hal_i2s_ex.c ****       /* Disable RXNE and ERR interrupt */
 814:./Libraries/STM32F4xx_HAL_Driver/Src/stm32f4xx_hal_i2s_ex.c ****       __HAL_I2SEXT_DISABLE_IT(hi2s, (I2S_IT_RXNE | I2S_IT_ERR));
 2244              		.loc 1 814 7
 2245 0156 7B68     		ldr	r3, [r7, #4]
 2246 0158 1B68     		ldr	r3, [r3]
 2247 015a 3B4A     		ldr	r2, .L169
 2248 015c 9342     		cmp	r3, r2
 2249 015e 01D1     		bne	.L147
 2250              		.loc 1 814 7 is_stmt 0 discriminator 1
 2251 0160 3A4B     		ldr	r3, .L169+4
 2252 0162 01E0     		b	.L148
 2253              	.L147:
 2254              		.loc 1 814 7 discriminator 2
 2255 0164 4FF04023 		mov	r3, #1073758208
 2256              	.L148:
 2257              		.loc 1 814 7 discriminator 4
 2258 0168 5A68     		ldr	r2, [r3, #4]
 2259 016a 7B68     		ldr	r3, [r7, #4]
 2260 016c 1B68     		ldr	r3, [r3]
ARM GAS  /tmp/ccEZa6GA.s 			page 55


 2261 016e 3649     		ldr	r1, .L169
 2262 0170 8B42     		cmp	r3, r1
 2263 0172 01D1     		bne	.L149
 2264              		.loc 1 814 7 discriminator 5
 2265 0174 354B     		ldr	r3, .L169+4
 2266 0176 01E0     		b	.L150
 2267              	.L149:
 2268              		.loc 1 814 7 discriminator 6
 2269 0178 4FF04023 		mov	r3, #1073758208
 2270              	.L150:
 2271              		.loc 1 814 7 discriminator 8
 2272 017c 22F06002 		bic	r2, r2, #96
 2273 0180 5A60     		str	r2, [r3, #4]
 2274              	.LBB10:
 815:./Libraries/STM32F4xx_HAL_Driver/Src/stm32f4xx_hal_i2s_ex.c **** 
 816:./Libraries/STM32F4xx_HAL_Driver/Src/stm32f4xx_hal_i2s_ex.c ****       /* Clear underrun flag */
 817:./Libraries/STM32F4xx_HAL_Driver/Src/stm32f4xx_hal_i2s_ex.c ****       __HAL_I2S_CLEAR_UDRFLAG(hi2s);
 2275              		.loc 1 817 7 is_stmt 1 discriminator 8
 2276 0182 0023     		movs	r3, #0
 2277 0184 BB60     		str	r3, [r7, #8]
 2278 0186 7B68     		ldr	r3, [r7, #4]
 2279 0188 1B68     		ldr	r3, [r3]
 2280 018a 9B68     		ldr	r3, [r3, #8]
 2281 018c BB60     		str	r3, [r7, #8]
 2282 018e BB68     		ldr	r3, [r7, #8]
 2283              	.LBE10:
 818:./Libraries/STM32F4xx_HAL_Driver/Src/stm32f4xx_hal_i2s_ex.c **** 
 819:./Libraries/STM32F4xx_HAL_Driver/Src/stm32f4xx_hal_i2s_ex.c ****       /* Set the I2S State ready */
 820:./Libraries/STM32F4xx_HAL_Driver/Src/stm32f4xx_hal_i2s_ex.c ****       hi2s->State = HAL_I2S_STATE_READY;
 2284              		.loc 1 820 19 discriminator 8
 2285 0190 7B68     		ldr	r3, [r7, #4]
 2286 0192 0122     		movs	r2, #1
 2287 0194 83F84120 		strb	r2, [r3, #65]
 821:./Libraries/STM32F4xx_HAL_Driver/Src/stm32f4xx_hal_i2s_ex.c **** 
 822:./Libraries/STM32F4xx_HAL_Driver/Src/stm32f4xx_hal_i2s_ex.c ****       /* Set the error code and execute error callback*/
 823:./Libraries/STM32F4xx_HAL_Driver/Src/stm32f4xx_hal_i2s_ex.c ****       SET_BIT(hi2s->ErrorCode,HAL_I2S_ERROR_UDR);
 2288              		.loc 1 823 7 discriminator 8
 2289 0198 7B68     		ldr	r3, [r7, #4]
 2290 019a 5B6C     		ldr	r3, [r3, #68]
 2291 019c 43F00402 		orr	r2, r3, #4
 2292 01a0 7B68     		ldr	r3, [r7, #4]
 2293 01a2 5A64     		str	r2, [r3, #68]
 824:./Libraries/STM32F4xx_HAL_Driver/Src/stm32f4xx_hal_i2s_ex.c ****       HAL_I2S_ErrorCallback(hi2s);
 2294              		.loc 1 824 7 discriminator 8
 2295 01a4 7868     		ldr	r0, [r7, #4]
 2296 01a6 FFF7FEFF 		bl	HAL_I2S_ErrorCallback
 808:./Libraries/STM32F4xx_HAL_Driver/Src/stm32f4xx_hal_i2s_ex.c ****     {
 2297              		.loc 1 808 7 discriminator 8
 2298 01aa A3E0     		b	.L167
 2299              	.L134:
 825:./Libraries/STM32F4xx_HAL_Driver/Src/stm32f4xx_hal_i2s_ex.c ****     }
 826:./Libraries/STM32F4xx_HAL_Driver/Src/stm32f4xx_hal_i2s_ex.c ****   }
 827:./Libraries/STM32F4xx_HAL_Driver/Src/stm32f4xx_hal_i2s_ex.c ****   /* The I2S_MODE_MASTER_RX or I2S_MODE_SLAVE_RX Mode is selected */
 828:./Libraries/STM32F4xx_HAL_Driver/Src/stm32f4xx_hal_i2s_ex.c ****   else
 829:./Libraries/STM32F4xx_HAL_Driver/Src/stm32f4xx_hal_i2s_ex.c ****   {
 830:./Libraries/STM32F4xx_HAL_Driver/Src/stm32f4xx_hal_i2s_ex.c ****     /* I2Sext in mode Transmitter ----------------------------------------------*/
 831:./Libraries/STM32F4xx_HAL_Driver/Src/stm32f4xx_hal_i2s_ex.c ****     if(((i2sextsr & I2S_FLAG_TXE) == I2S_FLAG_TXE) && (__HAL_I2SEXT_GET_IT_SOURCE(hi2s, I2S_IT_TXE)
ARM GAS  /tmp/ccEZa6GA.s 			page 56


 2300              		.loc 1 831 19
 2301 01ac 3B69     		ldr	r3, [r7, #16]
 2302 01ae 03F00203 		and	r3, r3, #2
 2303              		.loc 1 831 7
 2304 01b2 022B     		cmp	r3, #2
 2305 01b4 11D1     		bne	.L152
 2306              		.loc 1 831 56 discriminator 1
 2307 01b6 7B68     		ldr	r3, [r7, #4]
 2308 01b8 1B68     		ldr	r3, [r3]
 2309 01ba 234A     		ldr	r2, .L169
 2310 01bc 9342     		cmp	r3, r2
 2311 01be 01D1     		bne	.L153
 2312              		.loc 1 831 56 is_stmt 0 discriminator 2
 2313 01c0 224B     		ldr	r3, .L169+4
 2314 01c2 01E0     		b	.L154
 2315              	.L153:
 2316              		.loc 1 831 56 discriminator 3
 2317 01c4 4FF04023 		mov	r3, #1073758208
 2318              	.L154:
 2319              		.loc 1 831 56 discriminator 5
 2320 01c8 5B68     		ldr	r3, [r3, #4]
 2321 01ca 03F08003 		and	r3, r3, #128
 2322              		.loc 1 831 52 is_stmt 1 discriminator 5
 2323 01ce 802B     		cmp	r3, #128
 2324 01d0 03D1     		bne	.L152
 832:./Libraries/STM32F4xx_HAL_Driver/Src/stm32f4xx_hal_i2s_ex.c ****     {
 833:./Libraries/STM32F4xx_HAL_Driver/Src/stm32f4xx_hal_i2s_ex.c ****       /* When the I2S mode is configured as I2S_MODE_MASTER_RX or I2S_MODE_SLAVE_RX,
 834:./Libraries/STM32F4xx_HAL_Driver/Src/stm32f4xx_hal_i2s_ex.c ****       the I2Sext TXE interrupt will be generated to manage the full-duplex transmit phase. */
 835:./Libraries/STM32F4xx_HAL_Driver/Src/stm32f4xx_hal_i2s_ex.c ****       I2SEx_FullDuplexTx_IT(hi2s, I2S_USE_I2SEXT);
 2325              		.loc 1 835 7
 2326 01d2 0121     		movs	r1, #1
 2327 01d4 7868     		ldr	r0, [r7, #4]
 2328 01d6 FFF7FEFF 		bl	I2SEx_FullDuplexTx_IT
 2329              	.L152:
 836:./Libraries/STM32F4xx_HAL_Driver/Src/stm32f4xx_hal_i2s_ex.c ****     }
 837:./Libraries/STM32F4xx_HAL_Driver/Src/stm32f4xx_hal_i2s_ex.c **** 
 838:./Libraries/STM32F4xx_HAL_Driver/Src/stm32f4xx_hal_i2s_ex.c ****     /* I2S in mode Receiver --------------------------------------------------*/
 839:./Libraries/STM32F4xx_HAL_Driver/Src/stm32f4xx_hal_i2s_ex.c ****     if(((i2ssr & I2S_FLAG_RXNE) == I2S_FLAG_RXNE) && (__HAL_I2S_GET_IT_SOURCE(hi2s, I2S_IT_RXNE) !=
 2330              		.loc 1 839 16
 2331 01da 7B69     		ldr	r3, [r7, #20]
 2332 01dc 03F00103 		and	r3, r3, #1
 2333              		.loc 1 839 7
 2334 01e0 012B     		cmp	r3, #1
 2335 01e2 0AD1     		bne	.L155
 2336              		.loc 1 839 55 discriminator 1
 2337 01e4 7B68     		ldr	r3, [r7, #4]
 2338 01e6 1B68     		ldr	r3, [r3]
 2339 01e8 5B68     		ldr	r3, [r3, #4]
 2340 01ea 03F04003 		and	r3, r3, #64
 2341              		.loc 1 839 51 discriminator 1
 2342 01ee 402B     		cmp	r3, #64
 2343 01f0 03D1     		bne	.L155
 840:./Libraries/STM32F4xx_HAL_Driver/Src/stm32f4xx_hal_i2s_ex.c ****     {
 841:./Libraries/STM32F4xx_HAL_Driver/Src/stm32f4xx_hal_i2s_ex.c ****       /* When the I2S mode is configured as I2S_MODE_MASTER_RX or I2S_MODE_SLAVE_RX,
 842:./Libraries/STM32F4xx_HAL_Driver/Src/stm32f4xx_hal_i2s_ex.c ****       the I2S RXNE interrupt will be generated to manage the full-duplex receive phase. */
 843:./Libraries/STM32F4xx_HAL_Driver/Src/stm32f4xx_hal_i2s_ex.c ****       I2SEx_FullDuplexRx_IT(hi2s, I2S_USE_I2S);
 2344              		.loc 1 843 7
ARM GAS  /tmp/ccEZa6GA.s 			page 57


 2345 01f2 0021     		movs	r1, #0
 2346 01f4 7868     		ldr	r0, [r7, #4]
 2347 01f6 FFF7FEFF 		bl	I2SEx_FullDuplexRx_IT
 2348              	.L155:
 844:./Libraries/STM32F4xx_HAL_Driver/Src/stm32f4xx_hal_i2s_ex.c ****     }
 845:./Libraries/STM32F4xx_HAL_Driver/Src/stm32f4xx_hal_i2s_ex.c **** 
 846:./Libraries/STM32F4xx_HAL_Driver/Src/stm32f4xx_hal_i2s_ex.c ****     /* I2S Overrun error interrupt occured -------------------------------------*/
 847:./Libraries/STM32F4xx_HAL_Driver/Src/stm32f4xx_hal_i2s_ex.c ****     if(((i2ssr & I2S_FLAG_OVR) == I2S_FLAG_OVR) && (__HAL_I2S_GET_IT_SOURCE(hi2s, I2S_IT_ERR) != RE
 2349              		.loc 1 847 16
 2350 01fa 7B69     		ldr	r3, [r7, #20]
 2351 01fc 03F04003 		and	r3, r3, #64
 2352              		.loc 1 847 7
 2353 0200 402B     		cmp	r3, #64
 2354 0202 37D1     		bne	.L156
 2355              		.loc 1 847 53 discriminator 1
 2356 0204 7B68     		ldr	r3, [r7, #4]
 2357 0206 1B68     		ldr	r3, [r3]
 2358 0208 5B68     		ldr	r3, [r3, #4]
 2359 020a 03F02003 		and	r3, r3, #32
 2360              		.loc 1 847 49 discriminator 1
 2361 020e 202B     		cmp	r3, #32
 2362 0210 30D1     		bne	.L156
 848:./Libraries/STM32F4xx_HAL_Driver/Src/stm32f4xx_hal_i2s_ex.c ****     {
 849:./Libraries/STM32F4xx_HAL_Driver/Src/stm32f4xx_hal_i2s_ex.c ****       /* Disable RXNE and ERR interrupt */
 850:./Libraries/STM32F4xx_HAL_Driver/Src/stm32f4xx_hal_i2s_ex.c ****       __HAL_I2S_DISABLE_IT(hi2s, (I2S_IT_RXNE | I2S_IT_ERR));
 2363              		.loc 1 850 7
 2364 0212 7B68     		ldr	r3, [r7, #4]
 2365 0214 1B68     		ldr	r3, [r3]
 2366 0216 5968     		ldr	r1, [r3, #4]
 2367 0218 7B68     		ldr	r3, [r7, #4]
 2368 021a 1A68     		ldr	r2, [r3]
 2369 021c 4FF69F73 		movw	r3, #65439
 2370 0220 0B40     		ands	r3, r3, r1
 2371 0222 5360     		str	r3, [r2, #4]
 851:./Libraries/STM32F4xx_HAL_Driver/Src/stm32f4xx_hal_i2s_ex.c **** 
 852:./Libraries/STM32F4xx_HAL_Driver/Src/stm32f4xx_hal_i2s_ex.c ****       /* Disable TXE and ERR interrupt */
 853:./Libraries/STM32F4xx_HAL_Driver/Src/stm32f4xx_hal_i2s_ex.c ****       __HAL_I2SEXT_DISABLE_IT(hi2s, (I2S_IT_TXE | I2S_IT_ERR));
 2372              		.loc 1 853 7
 2373 0224 7B68     		ldr	r3, [r7, #4]
 2374 0226 1B68     		ldr	r3, [r3]
 2375 0228 074A     		ldr	r2, .L169
 2376 022a 9342     		cmp	r3, r2
 2377 022c 01D1     		bne	.L157
 2378              		.loc 1 853 7 is_stmt 0 discriminator 1
 2379 022e 074B     		ldr	r3, .L169+4
 2380 0230 01E0     		b	.L158
 2381              	.L157:
 2382              		.loc 1 853 7 discriminator 2
 2383 0232 4FF04023 		mov	r3, #1073758208
 2384              	.L158:
 2385              		.loc 1 853 7 discriminator 4
 2386 0236 5A68     		ldr	r2, [r3, #4]
 2387 0238 7B68     		ldr	r3, [r7, #4]
 2388 023a 1B68     		ldr	r3, [r3]
 2389 023c 0249     		ldr	r1, .L169
 2390 023e 8B42     		cmp	r3, r1
 2391 0240 06D1     		bne	.L159
ARM GAS  /tmp/ccEZa6GA.s 			page 58


 2392              		.loc 1 853 7 discriminator 5
 2393 0242 024B     		ldr	r3, .L169+4
 2394 0244 06E0     		b	.L160
 2395              	.L170:
 2396 0246 00BF     		.align	2
 2397              	.L169:
 2398 0248 00380040 		.word	1073756160
 2399 024c 00340040 		.word	1073755136
 2400              	.L159:
 2401              		.loc 1 853 7 discriminator 6
 2402 0250 4FF04023 		mov	r3, #1073758208
 2403              	.L160:
 2404              		.loc 1 853 7 discriminator 8
 2405 0254 22F0A002 		bic	r2, r2, #160
 2406 0258 5A60     		str	r2, [r3, #4]
 854:./Libraries/STM32F4xx_HAL_Driver/Src/stm32f4xx_hal_i2s_ex.c **** 
 855:./Libraries/STM32F4xx_HAL_Driver/Src/stm32f4xx_hal_i2s_ex.c ****       /* Set the I2S State ready */
 856:./Libraries/STM32F4xx_HAL_Driver/Src/stm32f4xx_hal_i2s_ex.c ****       hi2s->State = HAL_I2S_STATE_READY;
 2407              		.loc 1 856 19 is_stmt 1 discriminator 8
 2408 025a 7B68     		ldr	r3, [r7, #4]
 2409 025c 0122     		movs	r2, #1
 2410 025e 83F84120 		strb	r2, [r3, #65]
 857:./Libraries/STM32F4xx_HAL_Driver/Src/stm32f4xx_hal_i2s_ex.c **** 
 858:./Libraries/STM32F4xx_HAL_Driver/Src/stm32f4xx_hal_i2s_ex.c ****       /* Set the error code and execute error callback*/
 859:./Libraries/STM32F4xx_HAL_Driver/Src/stm32f4xx_hal_i2s_ex.c ****       SET_BIT(hi2s->ErrorCode,HAL_I2S_ERROR_OVR);
 2411              		.loc 1 859 7 discriminator 8
 2412 0262 7B68     		ldr	r3, [r7, #4]
 2413 0264 5B6C     		ldr	r3, [r3, #68]
 2414 0266 43F00202 		orr	r2, r3, #2
 2415 026a 7B68     		ldr	r3, [r7, #4]
 2416 026c 5A64     		str	r2, [r3, #68]
 860:./Libraries/STM32F4xx_HAL_Driver/Src/stm32f4xx_hal_i2s_ex.c ****       HAL_I2S_ErrorCallback(hi2s);
 2417              		.loc 1 860 7 discriminator 8
 2418 026e 7868     		ldr	r0, [r7, #4]
 2419 0270 FFF7FEFF 		bl	HAL_I2S_ErrorCallback
 2420              	.L156:
 861:./Libraries/STM32F4xx_HAL_Driver/Src/stm32f4xx_hal_i2s_ex.c ****     }
 862:./Libraries/STM32F4xx_HAL_Driver/Src/stm32f4xx_hal_i2s_ex.c **** 
 863:./Libraries/STM32F4xx_HAL_Driver/Src/stm32f4xx_hal_i2s_ex.c ****     /* I2Sext Underrun error interrupt occured -------------------------------*/
 864:./Libraries/STM32F4xx_HAL_Driver/Src/stm32f4xx_hal_i2s_ex.c ****     if(((i2sextsr & I2S_FLAG_UDR) == I2S_FLAG_UDR) && (__HAL_I2SEXT_GET_IT_SOURCE(hi2s, I2S_IT_ERR)
 2421              		.loc 1 864 19
 2422 0274 3B69     		ldr	r3, [r7, #16]
 2423 0276 03F00803 		and	r3, r3, #8
 2424              		.loc 1 864 7
 2425 027a 082B     		cmp	r3, #8
 2426 027c 3BD1     		bne	.L168
 2427              		.loc 1 864 56 discriminator 1
 2428 027e 7B68     		ldr	r3, [r7, #4]
 2429 0280 1B68     		ldr	r3, [r3]
 2430 0282 1F4A     		ldr	r2, .L171
 2431 0284 9342     		cmp	r3, r2
 2432 0286 01D1     		bne	.L161
 2433              		.loc 1 864 56 is_stmt 0 discriminator 2
 2434 0288 1E4B     		ldr	r3, .L171+4
 2435 028a 01E0     		b	.L162
 2436              	.L161:
 2437              		.loc 1 864 56 discriminator 3
ARM GAS  /tmp/ccEZa6GA.s 			page 59


 2438 028c 4FF04023 		mov	r3, #1073758208
 2439              	.L162:
 2440              		.loc 1 864 56 discriminator 5
 2441 0290 5B68     		ldr	r3, [r3, #4]
 2442 0292 03F02003 		and	r3, r3, #32
 2443              		.loc 1 864 52 is_stmt 1 discriminator 5
 2444 0296 202B     		cmp	r3, #32
 2445 0298 2DD1     		bne	.L168
 865:./Libraries/STM32F4xx_HAL_Driver/Src/stm32f4xx_hal_i2s_ex.c ****     {
 866:./Libraries/STM32F4xx_HAL_Driver/Src/stm32f4xx_hal_i2s_ex.c ****       /* Disable TXE and ERR interrupt */
 867:./Libraries/STM32F4xx_HAL_Driver/Src/stm32f4xx_hal_i2s_ex.c ****       __HAL_I2SEXT_DISABLE_IT(hi2s, (I2S_IT_TXE | I2S_IT_ERR));
 2446              		.loc 1 867 7
 2447 029a 7B68     		ldr	r3, [r7, #4]
 2448 029c 1B68     		ldr	r3, [r3]
 2449 029e 184A     		ldr	r2, .L171
 2450 02a0 9342     		cmp	r3, r2
 2451 02a2 01D1     		bne	.L163
 2452              		.loc 1 867 7 is_stmt 0 discriminator 1
 2453 02a4 174B     		ldr	r3, .L171+4
 2454 02a6 01E0     		b	.L164
 2455              	.L163:
 2456              		.loc 1 867 7 discriminator 2
 2457 02a8 4FF04023 		mov	r3, #1073758208
 2458              	.L164:
 2459              		.loc 1 867 7 discriminator 4
 2460 02ac 5A68     		ldr	r2, [r3, #4]
 2461 02ae 7B68     		ldr	r3, [r7, #4]
 2462 02b0 1B68     		ldr	r3, [r3]
 2463 02b2 1349     		ldr	r1, .L171
 2464 02b4 8B42     		cmp	r3, r1
 2465 02b6 01D1     		bne	.L165
 2466              		.loc 1 867 7 discriminator 5
 2467 02b8 124B     		ldr	r3, .L171+4
 2468 02ba 01E0     		b	.L166
 2469              	.L165:
 2470              		.loc 1 867 7 discriminator 6
 2471 02bc 4FF04023 		mov	r3, #1073758208
 2472              	.L166:
 2473              		.loc 1 867 7 discriminator 8
 2474 02c0 22F0A002 		bic	r2, r2, #160
 2475 02c4 5A60     		str	r2, [r3, #4]
 868:./Libraries/STM32F4xx_HAL_Driver/Src/stm32f4xx_hal_i2s_ex.c **** 
 869:./Libraries/STM32F4xx_HAL_Driver/Src/stm32f4xx_hal_i2s_ex.c ****       /* Disable RXNE and ERR interrupt */
 870:./Libraries/STM32F4xx_HAL_Driver/Src/stm32f4xx_hal_i2s_ex.c ****       __HAL_I2S_DISABLE_IT(hi2s, (I2S_IT_RXNE | I2S_IT_ERR));
 2476              		.loc 1 870 7 is_stmt 1 discriminator 8
 2477 02c6 7B68     		ldr	r3, [r7, #4]
 2478 02c8 1B68     		ldr	r3, [r3]
 2479 02ca 5968     		ldr	r1, [r3, #4]
 2480 02cc 7B68     		ldr	r3, [r7, #4]
 2481 02ce 1A68     		ldr	r2, [r3]
 2482 02d0 4FF69F73 		movw	r3, #65439
 2483 02d4 0B40     		ands	r3, r3, r1
 2484 02d6 5360     		str	r3, [r2, #4]
 871:./Libraries/STM32F4xx_HAL_Driver/Src/stm32f4xx_hal_i2s_ex.c **** 
 872:./Libraries/STM32F4xx_HAL_Driver/Src/stm32f4xx_hal_i2s_ex.c ****       /* Set the I2S State ready */
 873:./Libraries/STM32F4xx_HAL_Driver/Src/stm32f4xx_hal_i2s_ex.c ****       hi2s->State = HAL_I2S_STATE_READY;
 2485              		.loc 1 873 19 discriminator 8
ARM GAS  /tmp/ccEZa6GA.s 			page 60


 2486 02d8 7B68     		ldr	r3, [r7, #4]
 2487 02da 0122     		movs	r2, #1
 2488 02dc 83F84120 		strb	r2, [r3, #65]
 874:./Libraries/STM32F4xx_HAL_Driver/Src/stm32f4xx_hal_i2s_ex.c **** 
 875:./Libraries/STM32F4xx_HAL_Driver/Src/stm32f4xx_hal_i2s_ex.c ****       /* Set the error code and execute error callback*/
 876:./Libraries/STM32F4xx_HAL_Driver/Src/stm32f4xx_hal_i2s_ex.c ****       SET_BIT(hi2s->ErrorCode,HAL_I2S_ERROR_UDR);
 2489              		.loc 1 876 7 discriminator 8
 2490 02e0 7B68     		ldr	r3, [r7, #4]
 2491 02e2 5B6C     		ldr	r3, [r3, #68]
 2492 02e4 43F00402 		orr	r2, r3, #4
 2493 02e8 7B68     		ldr	r3, [r7, #4]
 2494 02ea 5A64     		str	r2, [r3, #68]
 877:./Libraries/STM32F4xx_HAL_Driver/Src/stm32f4xx_hal_i2s_ex.c ****       HAL_I2S_ErrorCallback(hi2s);
 2495              		.loc 1 877 7 discriminator 8
 2496 02ec 7868     		ldr	r0, [r7, #4]
 2497 02ee FFF7FEFF 		bl	HAL_I2S_ErrorCallback
 878:./Libraries/STM32F4xx_HAL_Driver/Src/stm32f4xx_hal_i2s_ex.c ****     }
 879:./Libraries/STM32F4xx_HAL_Driver/Src/stm32f4xx_hal_i2s_ex.c ****   }
 880:./Libraries/STM32F4xx_HAL_Driver/Src/stm32f4xx_hal_i2s_ex.c **** }
 2498              		.loc 1 880 1 discriminator 8
 2499 02f2 00E0     		b	.L168
 2500              	.L167:
 808:./Libraries/STM32F4xx_HAL_Driver/Src/stm32f4xx_hal_i2s_ex.c ****     {
 2501              		.loc 1 808 7
 2502 02f4 00BF     		nop
 2503              	.L168:
 2504              		.loc 1 880 1
 2505 02f6 00BF     		nop
 2506 02f8 1837     		adds	r7, r7, #24
 2507              	.LCFI18:
 2508              		.cfi_def_cfa_offset 8
 2509 02fa BD46     		mov	sp, r7
 2510              	.LCFI19:
 2511              		.cfi_def_cfa_register 13
 2512              		@ sp needed
 2513 02fc 80BD     		pop	{r7, pc}
 2514              	.L172:
 2515 02fe 00BF     		.align	2
 2516              	.L171:
 2517 0300 00380040 		.word	1073756160
 2518 0304 00340040 		.word	1073755136
 2519              		.cfi_endproc
 2520              	.LFE129:
 2522              		.section	.text.HAL_I2SEx_TxRxHalfCpltCallback,"ax",%progbits
 2523              		.align	1
 2524              		.weak	HAL_I2SEx_TxRxHalfCpltCallback
 2525              		.syntax unified
 2526              		.thumb
 2527              		.thumb_func
 2528              		.fpu fpv4-sp-d16
 2530              	HAL_I2SEx_TxRxHalfCpltCallback:
 2531              	.LFB130:
 881:./Libraries/STM32F4xx_HAL_Driver/Src/stm32f4xx_hal_i2s_ex.c **** 
 882:./Libraries/STM32F4xx_HAL_Driver/Src/stm32f4xx_hal_i2s_ex.c **** /**
 883:./Libraries/STM32F4xx_HAL_Driver/Src/stm32f4xx_hal_i2s_ex.c ****   * @brief Tx and Rx Transfer half completed callback
 884:./Libraries/STM32F4xx_HAL_Driver/Src/stm32f4xx_hal_i2s_ex.c ****   * @param hi2s I2S handle
 885:./Libraries/STM32F4xx_HAL_Driver/Src/stm32f4xx_hal_i2s_ex.c ****   * @retval None
ARM GAS  /tmp/ccEZa6GA.s 			page 61


 886:./Libraries/STM32F4xx_HAL_Driver/Src/stm32f4xx_hal_i2s_ex.c ****   */
 887:./Libraries/STM32F4xx_HAL_Driver/Src/stm32f4xx_hal_i2s_ex.c **** __weak void HAL_I2SEx_TxRxHalfCpltCallback(I2S_HandleTypeDef *hi2s)
 888:./Libraries/STM32F4xx_HAL_Driver/Src/stm32f4xx_hal_i2s_ex.c **** {
 2532              		.loc 1 888 1
 2533              		.cfi_startproc
 2534              		@ args = 0, pretend = 0, frame = 8
 2535              		@ frame_needed = 1, uses_anonymous_args = 0
 2536              		@ link register save eliminated.
 2537 0000 80B4     		push	{r7}
 2538              	.LCFI20:
 2539              		.cfi_def_cfa_offset 4
 2540              		.cfi_offset 7, -4
 2541 0002 83B0     		sub	sp, sp, #12
 2542              	.LCFI21:
 2543              		.cfi_def_cfa_offset 16
 2544 0004 00AF     		add	r7, sp, #0
 2545              	.LCFI22:
 2546              		.cfi_def_cfa_register 7
 2547 0006 7860     		str	r0, [r7, #4]
 889:./Libraries/STM32F4xx_HAL_Driver/Src/stm32f4xx_hal_i2s_ex.c ****   /* Prevent unused argument(s) compilation warning */
 890:./Libraries/STM32F4xx_HAL_Driver/Src/stm32f4xx_hal_i2s_ex.c ****   UNUSED(hi2s);
 891:./Libraries/STM32F4xx_HAL_Driver/Src/stm32f4xx_hal_i2s_ex.c **** 
 892:./Libraries/STM32F4xx_HAL_Driver/Src/stm32f4xx_hal_i2s_ex.c ****   /* NOTE : This function Should not be modified, when the callback is needed,
 893:./Libraries/STM32F4xx_HAL_Driver/Src/stm32f4xx_hal_i2s_ex.c ****             the HAL_I2SEx_TxRxHalfCpltCallback could be implemented in the user file
 894:./Libraries/STM32F4xx_HAL_Driver/Src/stm32f4xx_hal_i2s_ex.c ****    */
 895:./Libraries/STM32F4xx_HAL_Driver/Src/stm32f4xx_hal_i2s_ex.c **** }
 2548              		.loc 1 895 1
 2549 0008 00BF     		nop
 2550 000a 0C37     		adds	r7, r7, #12
 2551              	.LCFI23:
 2552              		.cfi_def_cfa_offset 4
 2553 000c BD46     		mov	sp, r7
 2554              	.LCFI24:
 2555              		.cfi_def_cfa_register 13
 2556              		@ sp needed
 2557 000e 5DF8047B 		ldr	r7, [sp], #4
 2558              	.LCFI25:
 2559              		.cfi_restore 7
 2560              		.cfi_def_cfa_offset 0
 2561 0012 7047     		bx	lr
 2562              		.cfi_endproc
 2563              	.LFE130:
 2565              		.section	.text.HAL_I2SEx_TxRxCpltCallback,"ax",%progbits
 2566              		.align	1
 2567              		.weak	HAL_I2SEx_TxRxCpltCallback
 2568              		.syntax unified
 2569              		.thumb
 2570              		.thumb_func
 2571              		.fpu fpv4-sp-d16
 2573              	HAL_I2SEx_TxRxCpltCallback:
 2574              	.LFB131:
 896:./Libraries/STM32F4xx_HAL_Driver/Src/stm32f4xx_hal_i2s_ex.c **** 
 897:./Libraries/STM32F4xx_HAL_Driver/Src/stm32f4xx_hal_i2s_ex.c **** /**
 898:./Libraries/STM32F4xx_HAL_Driver/Src/stm32f4xx_hal_i2s_ex.c ****   * @brief Tx and Rx Transfer completed callback
 899:./Libraries/STM32F4xx_HAL_Driver/Src/stm32f4xx_hal_i2s_ex.c ****   * @param hi2s I2S handle
 900:./Libraries/STM32F4xx_HAL_Driver/Src/stm32f4xx_hal_i2s_ex.c ****   * @retval None
 901:./Libraries/STM32F4xx_HAL_Driver/Src/stm32f4xx_hal_i2s_ex.c ****   */
ARM GAS  /tmp/ccEZa6GA.s 			page 62


 902:./Libraries/STM32F4xx_HAL_Driver/Src/stm32f4xx_hal_i2s_ex.c **** __weak void HAL_I2SEx_TxRxCpltCallback(I2S_HandleTypeDef *hi2s)
 903:./Libraries/STM32F4xx_HAL_Driver/Src/stm32f4xx_hal_i2s_ex.c **** {
 2575              		.loc 1 903 1
 2576              		.cfi_startproc
 2577              		@ args = 0, pretend = 0, frame = 8
 2578              		@ frame_needed = 1, uses_anonymous_args = 0
 2579              		@ link register save eliminated.
 2580 0000 80B4     		push	{r7}
 2581              	.LCFI26:
 2582              		.cfi_def_cfa_offset 4
 2583              		.cfi_offset 7, -4
 2584 0002 83B0     		sub	sp, sp, #12
 2585              	.LCFI27:
 2586              		.cfi_def_cfa_offset 16
 2587 0004 00AF     		add	r7, sp, #0
 2588              	.LCFI28:
 2589              		.cfi_def_cfa_register 7
 2590 0006 7860     		str	r0, [r7, #4]
 904:./Libraries/STM32F4xx_HAL_Driver/Src/stm32f4xx_hal_i2s_ex.c ****   /* Prevent unused argument(s) compilation warning */
 905:./Libraries/STM32F4xx_HAL_Driver/Src/stm32f4xx_hal_i2s_ex.c ****   UNUSED(hi2s);
 906:./Libraries/STM32F4xx_HAL_Driver/Src/stm32f4xx_hal_i2s_ex.c **** 
 907:./Libraries/STM32F4xx_HAL_Driver/Src/stm32f4xx_hal_i2s_ex.c ****   /* NOTE : This function Should not be modified, when the callback is needed,
 908:./Libraries/STM32F4xx_HAL_Driver/Src/stm32f4xx_hal_i2s_ex.c ****             the HAL_I2SEx_TxRxCpltCallback could be implemented in the user file
 909:./Libraries/STM32F4xx_HAL_Driver/Src/stm32f4xx_hal_i2s_ex.c ****    */
 910:./Libraries/STM32F4xx_HAL_Driver/Src/stm32f4xx_hal_i2s_ex.c **** }
 2591              		.loc 1 910 1
 2592 0008 00BF     		nop
 2593 000a 0C37     		adds	r7, r7, #12
 2594              	.LCFI29:
 2595              		.cfi_def_cfa_offset 4
 2596 000c BD46     		mov	sp, r7
 2597              	.LCFI30:
 2598              		.cfi_def_cfa_register 13
 2599              		@ sp needed
 2600 000e 5DF8047B 		ldr	r7, [sp], #4
 2601              	.LCFI31:
 2602              		.cfi_restore 7
 2603              		.cfi_def_cfa_offset 0
 2604 0012 7047     		bx	lr
 2605              		.cfi_endproc
 2606              	.LFE131:
 2608              		.section	.text.I2SEx_TxRxDMAHalfCplt,"ax",%progbits
 2609              		.align	1
 2610              		.syntax unified
 2611              		.thumb
 2612              		.thumb_func
 2613              		.fpu fpv4-sp-d16
 2615              	I2SEx_TxRxDMAHalfCplt:
 2616              	.LFB132:
 911:./Libraries/STM32F4xx_HAL_Driver/Src/stm32f4xx_hal_i2s_ex.c **** 
 912:./Libraries/STM32F4xx_HAL_Driver/Src/stm32f4xx_hal_i2s_ex.c **** /**
 913:./Libraries/STM32F4xx_HAL_Driver/Src/stm32f4xx_hal_i2s_ex.c ****   * @}
 914:./Libraries/STM32F4xx_HAL_Driver/Src/stm32f4xx_hal_i2s_ex.c ****   */
 915:./Libraries/STM32F4xx_HAL_Driver/Src/stm32f4xx_hal_i2s_ex.c **** 
 916:./Libraries/STM32F4xx_HAL_Driver/Src/stm32f4xx_hal_i2s_ex.c **** /**
 917:./Libraries/STM32F4xx_HAL_Driver/Src/stm32f4xx_hal_i2s_ex.c ****   * @}
 918:./Libraries/STM32F4xx_HAL_Driver/Src/stm32f4xx_hal_i2s_ex.c ****   */
ARM GAS  /tmp/ccEZa6GA.s 			page 63


 919:./Libraries/STM32F4xx_HAL_Driver/Src/stm32f4xx_hal_i2s_ex.c **** 
 920:./Libraries/STM32F4xx_HAL_Driver/Src/stm32f4xx_hal_i2s_ex.c **** /** @addtogroup I2SEx_Private_Functions I2S Extended Private Functions
 921:./Libraries/STM32F4xx_HAL_Driver/Src/stm32f4xx_hal_i2s_ex.c ****   * @{
 922:./Libraries/STM32F4xx_HAL_Driver/Src/stm32f4xx_hal_i2s_ex.c ****   */
 923:./Libraries/STM32F4xx_HAL_Driver/Src/stm32f4xx_hal_i2s_ex.c **** 
 924:./Libraries/STM32F4xx_HAL_Driver/Src/stm32f4xx_hal_i2s_ex.c **** /**
 925:./Libraries/STM32F4xx_HAL_Driver/Src/stm32f4xx_hal_i2s_ex.c ****   * @brief DMA I2S transmit receive process half complete callback
 926:./Libraries/STM32F4xx_HAL_Driver/Src/stm32f4xx_hal_i2s_ex.c ****   * @param  hdma pointer to a DMA_HandleTypeDef structure that contains
 927:./Libraries/STM32F4xx_HAL_Driver/Src/stm32f4xx_hal_i2s_ex.c ****   *               the configuration information for the specified DMA module.
 928:./Libraries/STM32F4xx_HAL_Driver/Src/stm32f4xx_hal_i2s_ex.c ****   * @retval None
 929:./Libraries/STM32F4xx_HAL_Driver/Src/stm32f4xx_hal_i2s_ex.c ****   */
 930:./Libraries/STM32F4xx_HAL_Driver/Src/stm32f4xx_hal_i2s_ex.c **** static void I2SEx_TxRxDMAHalfCplt(DMA_HandleTypeDef *hdma)
 931:./Libraries/STM32F4xx_HAL_Driver/Src/stm32f4xx_hal_i2s_ex.c **** {
 2617              		.loc 1 931 1
 2618              		.cfi_startproc
 2619              		@ args = 0, pretend = 0, frame = 16
 2620              		@ frame_needed = 1, uses_anonymous_args = 0
 2621 0000 80B5     		push	{r7, lr}
 2622              	.LCFI32:
 2623              		.cfi_def_cfa_offset 8
 2624              		.cfi_offset 7, -8
 2625              		.cfi_offset 14, -4
 2626 0002 84B0     		sub	sp, sp, #16
 2627              	.LCFI33:
 2628              		.cfi_def_cfa_offset 24
 2629 0004 00AF     		add	r7, sp, #0
 2630              	.LCFI34:
 2631              		.cfi_def_cfa_register 7
 2632 0006 7860     		str	r0, [r7, #4]
 932:./Libraries/STM32F4xx_HAL_Driver/Src/stm32f4xx_hal_i2s_ex.c ****   I2S_HandleTypeDef* hi2s = (I2S_HandleTypeDef*)((DMA_HandleTypeDef*)hdma)->Parent;
 2633              		.loc 1 932 22
 2634 0008 7B68     		ldr	r3, [r7, #4]
 2635 000a 9B6B     		ldr	r3, [r3, #56]
 2636 000c FB60     		str	r3, [r7, #12]
 933:./Libraries/STM32F4xx_HAL_Driver/Src/stm32f4xx_hal_i2s_ex.c **** 
 934:./Libraries/STM32F4xx_HAL_Driver/Src/stm32f4xx_hal_i2s_ex.c ****    HAL_I2SEx_TxRxHalfCpltCallback(hi2s);
 2637              		.loc 1 934 4
 2638 000e F868     		ldr	r0, [r7, #12]
 2639 0010 FFF7FEFF 		bl	HAL_I2SEx_TxRxHalfCpltCallback
 935:./Libraries/STM32F4xx_HAL_Driver/Src/stm32f4xx_hal_i2s_ex.c **** }
 2640              		.loc 1 935 1
 2641 0014 00BF     		nop
 2642 0016 1037     		adds	r7, r7, #16
 2643              	.LCFI35:
 2644              		.cfi_def_cfa_offset 8
 2645 0018 BD46     		mov	sp, r7
 2646              	.LCFI36:
 2647              		.cfi_def_cfa_register 13
 2648              		@ sp needed
 2649 001a 80BD     		pop	{r7, pc}
 2650              		.cfi_endproc
 2651              	.LFE132:
 2653              		.section	.text.I2SEx_TxRxDMACplt,"ax",%progbits
 2654              		.align	1
 2655              		.syntax unified
 2656              		.thumb
 2657              		.thumb_func
ARM GAS  /tmp/ccEZa6GA.s 			page 64


 2658              		.fpu fpv4-sp-d16
 2660              	I2SEx_TxRxDMACplt:
 2661              	.LFB133:
 936:./Libraries/STM32F4xx_HAL_Driver/Src/stm32f4xx_hal_i2s_ex.c **** 
 937:./Libraries/STM32F4xx_HAL_Driver/Src/stm32f4xx_hal_i2s_ex.c **** /**
 938:./Libraries/STM32F4xx_HAL_Driver/Src/stm32f4xx_hal_i2s_ex.c ****   * @brief DMA I2S transmit receive process complete callback
 939:./Libraries/STM32F4xx_HAL_Driver/Src/stm32f4xx_hal_i2s_ex.c ****   * @param  hdma pointer to a DMA_HandleTypeDef structure that contains
 940:./Libraries/STM32F4xx_HAL_Driver/Src/stm32f4xx_hal_i2s_ex.c ****   *               the configuration information for the specified DMA module.
 941:./Libraries/STM32F4xx_HAL_Driver/Src/stm32f4xx_hal_i2s_ex.c ****   * @retval None
 942:./Libraries/STM32F4xx_HAL_Driver/Src/stm32f4xx_hal_i2s_ex.c ****   */
 943:./Libraries/STM32F4xx_HAL_Driver/Src/stm32f4xx_hal_i2s_ex.c **** static void I2SEx_TxRxDMACplt(DMA_HandleTypeDef *hdma)
 944:./Libraries/STM32F4xx_HAL_Driver/Src/stm32f4xx_hal_i2s_ex.c **** {
 2662              		.loc 1 944 1
 2663              		.cfi_startproc
 2664              		@ args = 0, pretend = 0, frame = 16
 2665              		@ frame_needed = 1, uses_anonymous_args = 0
 2666 0000 80B5     		push	{r7, lr}
 2667              	.LCFI37:
 2668              		.cfi_def_cfa_offset 8
 2669              		.cfi_offset 7, -8
 2670              		.cfi_offset 14, -4
 2671 0002 84B0     		sub	sp, sp, #16
 2672              	.LCFI38:
 2673              		.cfi_def_cfa_offset 24
 2674 0004 00AF     		add	r7, sp, #0
 2675              	.LCFI39:
 2676              		.cfi_def_cfa_register 7
 2677 0006 7860     		str	r0, [r7, #4]
 945:./Libraries/STM32F4xx_HAL_Driver/Src/stm32f4xx_hal_i2s_ex.c ****   I2S_HandleTypeDef* hi2s = (I2S_HandleTypeDef*)((DMA_HandleTypeDef*)hdma)->Parent;
 2678              		.loc 1 945 22
 2679 0008 7B68     		ldr	r3, [r7, #4]
 2680 000a 9B6B     		ldr	r3, [r3, #56]
 2681 000c FB60     		str	r3, [r7, #12]
 946:./Libraries/STM32F4xx_HAL_Driver/Src/stm32f4xx_hal_i2s_ex.c **** 
 947:./Libraries/STM32F4xx_HAL_Driver/Src/stm32f4xx_hal_i2s_ex.c ****   /* if DMA is not configured in DMA_CIRCULAR mode */
 948:./Libraries/STM32F4xx_HAL_Driver/Src/stm32f4xx_hal_i2s_ex.c ****   if((hdma->Instance->CR & DMA_SxCR_CIRC) == 0U)
 2682              		.loc 1 948 11
 2683 000e 7B68     		ldr	r3, [r7, #4]
 2684 0010 1B68     		ldr	r3, [r3]
 2685              		.loc 1 948 21
 2686 0012 1B68     		ldr	r3, [r3]
 2687              		.loc 1 948 26
 2688 0014 03F48073 		and	r3, r3, #256
 2689              		.loc 1 948 5
 2690 0018 002B     		cmp	r3, #0
 2691 001a 40F08480 		bne	.L193
 949:./Libraries/STM32F4xx_HAL_Driver/Src/stm32f4xx_hal_i2s_ex.c ****   {
 950:./Libraries/STM32F4xx_HAL_Driver/Src/stm32f4xx_hal_i2s_ex.c ****     if (hi2s->hdmarx == hdma)
 2692              		.loc 1 950 13
 2693 001e FB68     		ldr	r3, [r7, #12]
 2694 0020 DB6B     		ldr	r3, [r3, #60]
 2695              		.loc 1 950 8
 2696 0022 7A68     		ldr	r2, [r7, #4]
 2697 0024 9A42     		cmp	r2, r3
 2698 0026 3CD1     		bne	.L178
 951:./Libraries/STM32F4xx_HAL_Driver/Src/stm32f4xx_hal_i2s_ex.c ****     {
 952:./Libraries/STM32F4xx_HAL_Driver/Src/stm32f4xx_hal_i2s_ex.c ****       /* Disable Rx DMA Request */
ARM GAS  /tmp/ccEZa6GA.s 			page 65


 953:./Libraries/STM32F4xx_HAL_Driver/Src/stm32f4xx_hal_i2s_ex.c ****       if (((hi2s->Instance->I2SCFGR & SPI_I2SCFGR_I2SCFG) == I2S_MODE_MASTER_TX) ||\
 2699              		.loc 1 953 17
 2700 0028 FB68     		ldr	r3, [r7, #12]
 2701 002a 1B68     		ldr	r3, [r3]
 2702              		.loc 1 953 27
 2703 002c DB69     		ldr	r3, [r3, #28]
 2704              		.loc 1 953 37
 2705 002e 03F44073 		and	r3, r3, #768
 2706              		.loc 1 953 10
 2707 0032 B3F5007F 		cmp	r3, #512
 2708 0036 06D0     		beq	.L179
 954:./Libraries/STM32F4xx_HAL_Driver/Src/stm32f4xx_hal_i2s_ex.c ****           ((hi2s->Instance->I2SCFGR & SPI_I2SCFGR_I2SCFG) == I2S_MODE_SLAVE_TX))
 2709              		.loc 1 954 17 discriminator 1
 2710 0038 FB68     		ldr	r3, [r7, #12]
 2711 003a 1B68     		ldr	r3, [r3]
 2712              		.loc 1 954 27 discriminator 1
 2713 003c DB69     		ldr	r3, [r3, #28]
 2714              		.loc 1 954 37 discriminator 1
 2715 003e 03F44073 		and	r3, r3, #768
 953:./Libraries/STM32F4xx_HAL_Driver/Src/stm32f4xx_hal_i2s_ex.c ****           ((hi2s->Instance->I2SCFGR & SPI_I2SCFGR_I2SCFG) == I2S_MODE_SLAVE_TX))
 2716              		.loc 1 953 82 discriminator 1
 2717 0042 002B     		cmp	r3, #0
 2718 0044 16D1     		bne	.L180
 2719              	.L179:
 955:./Libraries/STM32F4xx_HAL_Driver/Src/stm32f4xx_hal_i2s_ex.c ****       {
 956:./Libraries/STM32F4xx_HAL_Driver/Src/stm32f4xx_hal_i2s_ex.c ****         CLEAR_BIT(I2SxEXT(hi2s->Instance)->CR2,SPI_CR2_RXDMAEN);
 2720              		.loc 1 956 9
 2721 0046 FB68     		ldr	r3, [r7, #12]
 2722 0048 1B68     		ldr	r3, [r3]
 2723 004a 394A     		ldr	r2, .L194
 2724 004c 9342     		cmp	r3, r2
 2725 004e 01D1     		bne	.L181
 2726              		.loc 1 956 9 is_stmt 0 discriminator 1
 2727 0050 384B     		ldr	r3, .L194+4
 2728 0052 01E0     		b	.L182
 2729              	.L181:
 2730              		.loc 1 956 9 discriminator 2
 2731 0054 4FF04023 		mov	r3, #1073758208
 2732              	.L182:
 2733              		.loc 1 956 9 discriminator 4
 2734 0058 5A68     		ldr	r2, [r3, #4]
 2735 005a FB68     		ldr	r3, [r7, #12]
 2736 005c 1B68     		ldr	r3, [r3]
 2737 005e 3449     		ldr	r1, .L194
 2738 0060 8B42     		cmp	r3, r1
 2739 0062 01D1     		bne	.L183
 2740              		.loc 1 956 9 discriminator 5
 2741 0064 334B     		ldr	r3, .L194+4
 2742 0066 01E0     		b	.L184
 2743              	.L183:
 2744              		.loc 1 956 9 discriminator 6
 2745 0068 4FF04023 		mov	r3, #1073758208
 2746              	.L184:
 2747              		.loc 1 956 9 discriminator 8
 2748 006c 22F00102 		bic	r2, r2, #1
 2749 0070 5A60     		str	r2, [r3, #4]
 2750 0072 07E0     		b	.L185
ARM GAS  /tmp/ccEZa6GA.s 			page 66


 2751              	.L180:
 957:./Libraries/STM32F4xx_HAL_Driver/Src/stm32f4xx_hal_i2s_ex.c ****       }
 958:./Libraries/STM32F4xx_HAL_Driver/Src/stm32f4xx_hal_i2s_ex.c ****       else
 959:./Libraries/STM32F4xx_HAL_Driver/Src/stm32f4xx_hal_i2s_ex.c ****       {
 960:./Libraries/STM32F4xx_HAL_Driver/Src/stm32f4xx_hal_i2s_ex.c ****         CLEAR_BIT(hi2s->Instance->CR2,SPI_CR2_RXDMAEN);
 2752              		.loc 1 960 9 is_stmt 1
 2753 0074 FB68     		ldr	r3, [r7, #12]
 2754 0076 1B68     		ldr	r3, [r3]
 2755 0078 5A68     		ldr	r2, [r3, #4]
 2756 007a FB68     		ldr	r3, [r7, #12]
 2757 007c 1B68     		ldr	r3, [r3]
 2758 007e 22F00102 		bic	r2, r2, #1
 2759 0082 5A60     		str	r2, [r3, #4]
 2760              	.L185:
 961:./Libraries/STM32F4xx_HAL_Driver/Src/stm32f4xx_hal_i2s_ex.c ****       }
 962:./Libraries/STM32F4xx_HAL_Driver/Src/stm32f4xx_hal_i2s_ex.c **** 
 963:./Libraries/STM32F4xx_HAL_Driver/Src/stm32f4xx_hal_i2s_ex.c ****       hi2s->RxXferCount = 0U;
 2761              		.loc 1 963 25
 2762 0084 FB68     		ldr	r3, [r7, #12]
 2763 0086 0022     		movs	r2, #0
 2764 0088 5A86     		strh	r2, [r3, #50]	@ movhi
 964:./Libraries/STM32F4xx_HAL_Driver/Src/stm32f4xx_hal_i2s_ex.c **** 
 965:./Libraries/STM32F4xx_HAL_Driver/Src/stm32f4xx_hal_i2s_ex.c ****       if (hi2s->TxXferCount == 0U)
 2765              		.loc 1 965 15
 2766 008a FB68     		ldr	r3, [r7, #12]
 2767 008c 5B8D     		ldrh	r3, [r3, #42]	@ movhi
 2768 008e 9BB2     		uxth	r3, r3
 2769              		.loc 1 965 10
 2770 0090 002B     		cmp	r3, #0
 2771 0092 06D1     		bne	.L178
 966:./Libraries/STM32F4xx_HAL_Driver/Src/stm32f4xx_hal_i2s_ex.c ****       {
 967:./Libraries/STM32F4xx_HAL_Driver/Src/stm32f4xx_hal_i2s_ex.c ****         hi2s->State = HAL_I2S_STATE_READY;
 2772              		.loc 1 967 21
 2773 0094 FB68     		ldr	r3, [r7, #12]
 2774 0096 0122     		movs	r2, #1
 2775 0098 83F84120 		strb	r2, [r3, #65]
 968:./Libraries/STM32F4xx_HAL_Driver/Src/stm32f4xx_hal_i2s_ex.c **** 
 969:./Libraries/STM32F4xx_HAL_Driver/Src/stm32f4xx_hal_i2s_ex.c ****         HAL_I2SEx_TxRxCpltCallback(hi2s);
 2776              		.loc 1 969 9
 2777 009c F868     		ldr	r0, [r7, #12]
 2778 009e FFF7FEFF 		bl	HAL_I2SEx_TxRxCpltCallback
 2779              	.L178:
 970:./Libraries/STM32F4xx_HAL_Driver/Src/stm32f4xx_hal_i2s_ex.c ****       }
 971:./Libraries/STM32F4xx_HAL_Driver/Src/stm32f4xx_hal_i2s_ex.c ****     }
 972:./Libraries/STM32F4xx_HAL_Driver/Src/stm32f4xx_hal_i2s_ex.c **** 
 973:./Libraries/STM32F4xx_HAL_Driver/Src/stm32f4xx_hal_i2s_ex.c ****     if (hi2s->hdmatx == hdma)
 2780              		.loc 1 973 13
 2781 00a2 FB68     		ldr	r3, [r7, #12]
 2782 00a4 9B6B     		ldr	r3, [r3, #56]
 2783              		.loc 1 973 8
 2784 00a6 7A68     		ldr	r2, [r7, #4]
 2785 00a8 9A42     		cmp	r2, r3
 2786 00aa 3CD1     		bne	.L193
 974:./Libraries/STM32F4xx_HAL_Driver/Src/stm32f4xx_hal_i2s_ex.c ****     {
 975:./Libraries/STM32F4xx_HAL_Driver/Src/stm32f4xx_hal_i2s_ex.c ****       /* Disable Tx DMA Request */
 976:./Libraries/STM32F4xx_HAL_Driver/Src/stm32f4xx_hal_i2s_ex.c ****       if (((hi2s->Instance->I2SCFGR & SPI_I2SCFGR_I2SCFG) == I2S_MODE_MASTER_TX) ||\
 2787              		.loc 1 976 17
ARM GAS  /tmp/ccEZa6GA.s 			page 67


 2788 00ac FB68     		ldr	r3, [r7, #12]
 2789 00ae 1B68     		ldr	r3, [r3]
 2790              		.loc 1 976 27
 2791 00b0 DB69     		ldr	r3, [r3, #28]
 2792              		.loc 1 976 37
 2793 00b2 03F44073 		and	r3, r3, #768
 2794              		.loc 1 976 10
 2795 00b6 B3F5007F 		cmp	r3, #512
 2796 00ba 06D0     		beq	.L186
 977:./Libraries/STM32F4xx_HAL_Driver/Src/stm32f4xx_hal_i2s_ex.c ****           ((hi2s->Instance->I2SCFGR & SPI_I2SCFGR_I2SCFG) == I2S_MODE_SLAVE_TX))
 2797              		.loc 1 977 17 discriminator 1
 2798 00bc FB68     		ldr	r3, [r7, #12]
 2799 00be 1B68     		ldr	r3, [r3]
 2800              		.loc 1 977 27 discriminator 1
 2801 00c0 DB69     		ldr	r3, [r3, #28]
 2802              		.loc 1 977 37 discriminator 1
 2803 00c2 03F44073 		and	r3, r3, #768
 976:./Libraries/STM32F4xx_HAL_Driver/Src/stm32f4xx_hal_i2s_ex.c ****           ((hi2s->Instance->I2SCFGR & SPI_I2SCFGR_I2SCFG) == I2S_MODE_SLAVE_TX))
 2804              		.loc 1 976 82 discriminator 1
 2805 00c6 002B     		cmp	r3, #0
 2806 00c8 08D1     		bne	.L187
 2807              	.L186:
 978:./Libraries/STM32F4xx_HAL_Driver/Src/stm32f4xx_hal_i2s_ex.c ****       {
 979:./Libraries/STM32F4xx_HAL_Driver/Src/stm32f4xx_hal_i2s_ex.c ****         CLEAR_BIT(hi2s->Instance->CR2,SPI_CR2_TXDMAEN);
 2808              		.loc 1 979 9
 2809 00ca FB68     		ldr	r3, [r7, #12]
 2810 00cc 1B68     		ldr	r3, [r3]
 2811 00ce 5A68     		ldr	r2, [r3, #4]
 2812 00d0 FB68     		ldr	r3, [r7, #12]
 2813 00d2 1B68     		ldr	r3, [r3]
 2814 00d4 22F00202 		bic	r2, r2, #2
 2815 00d8 5A60     		str	r2, [r3, #4]
 2816 00da 15E0     		b	.L188
 2817              	.L187:
 980:./Libraries/STM32F4xx_HAL_Driver/Src/stm32f4xx_hal_i2s_ex.c ****       }
 981:./Libraries/STM32F4xx_HAL_Driver/Src/stm32f4xx_hal_i2s_ex.c ****       else
 982:./Libraries/STM32F4xx_HAL_Driver/Src/stm32f4xx_hal_i2s_ex.c ****       {
 983:./Libraries/STM32F4xx_HAL_Driver/Src/stm32f4xx_hal_i2s_ex.c ****         CLEAR_BIT(I2SxEXT(hi2s->Instance)->CR2,SPI_CR2_TXDMAEN);
 2818              		.loc 1 983 9
 2819 00dc FB68     		ldr	r3, [r7, #12]
 2820 00de 1B68     		ldr	r3, [r3]
 2821 00e0 134A     		ldr	r2, .L194
 2822 00e2 9342     		cmp	r3, r2
 2823 00e4 01D1     		bne	.L189
 2824              		.loc 1 983 9 is_stmt 0 discriminator 1
 2825 00e6 134B     		ldr	r3, .L194+4
 2826 00e8 01E0     		b	.L190
 2827              	.L189:
 2828              		.loc 1 983 9 discriminator 2
 2829 00ea 4FF04023 		mov	r3, #1073758208
 2830              	.L190:
 2831              		.loc 1 983 9 discriminator 4
 2832 00ee 5A68     		ldr	r2, [r3, #4]
 2833 00f0 FB68     		ldr	r3, [r7, #12]
 2834 00f2 1B68     		ldr	r3, [r3]
 2835 00f4 0E49     		ldr	r1, .L194
 2836 00f6 8B42     		cmp	r3, r1
ARM GAS  /tmp/ccEZa6GA.s 			page 68


 2837 00f8 01D1     		bne	.L191
 2838              		.loc 1 983 9 discriminator 5
 2839 00fa 0E4B     		ldr	r3, .L194+4
 2840 00fc 01E0     		b	.L192
 2841              	.L191:
 2842              		.loc 1 983 9 discriminator 6
 2843 00fe 4FF04023 		mov	r3, #1073758208
 2844              	.L192:
 2845              		.loc 1 983 9 discriminator 8
 2846 0102 22F00202 		bic	r2, r2, #2
 2847 0106 5A60     		str	r2, [r3, #4]
 2848              	.L188:
 984:./Libraries/STM32F4xx_HAL_Driver/Src/stm32f4xx_hal_i2s_ex.c ****       }
 985:./Libraries/STM32F4xx_HAL_Driver/Src/stm32f4xx_hal_i2s_ex.c **** 
 986:./Libraries/STM32F4xx_HAL_Driver/Src/stm32f4xx_hal_i2s_ex.c ****       hi2s->TxXferCount = 0U;
 2849              		.loc 1 986 25 is_stmt 1
 2850 0108 FB68     		ldr	r3, [r7, #12]
 2851 010a 0022     		movs	r2, #0
 2852 010c 5A85     		strh	r2, [r3, #42]	@ movhi
 987:./Libraries/STM32F4xx_HAL_Driver/Src/stm32f4xx_hal_i2s_ex.c **** 
 988:./Libraries/STM32F4xx_HAL_Driver/Src/stm32f4xx_hal_i2s_ex.c ****       if (hi2s->RxXferCount == 0U)
 2853              		.loc 1 988 15
 2854 010e FB68     		ldr	r3, [r7, #12]
 2855 0110 5B8E     		ldrh	r3, [r3, #50]	@ movhi
 2856 0112 9BB2     		uxth	r3, r3
 2857              		.loc 1 988 10
 2858 0114 002B     		cmp	r3, #0
 2859 0116 06D1     		bne	.L193
 989:./Libraries/STM32F4xx_HAL_Driver/Src/stm32f4xx_hal_i2s_ex.c ****       {
 990:./Libraries/STM32F4xx_HAL_Driver/Src/stm32f4xx_hal_i2s_ex.c ****         hi2s->State = HAL_I2S_STATE_READY;
 2860              		.loc 1 990 21
 2861 0118 FB68     		ldr	r3, [r7, #12]
 2862 011a 0122     		movs	r2, #1
 2863 011c 83F84120 		strb	r2, [r3, #65]
 991:./Libraries/STM32F4xx_HAL_Driver/Src/stm32f4xx_hal_i2s_ex.c **** 
 992:./Libraries/STM32F4xx_HAL_Driver/Src/stm32f4xx_hal_i2s_ex.c ****         HAL_I2SEx_TxRxCpltCallback(hi2s);
 2864              		.loc 1 992 9
 2865 0120 F868     		ldr	r0, [r7, #12]
 2866 0122 FFF7FEFF 		bl	HAL_I2SEx_TxRxCpltCallback
 2867              	.L193:
 993:./Libraries/STM32F4xx_HAL_Driver/Src/stm32f4xx_hal_i2s_ex.c ****       }
 994:./Libraries/STM32F4xx_HAL_Driver/Src/stm32f4xx_hal_i2s_ex.c ****     }
 995:./Libraries/STM32F4xx_HAL_Driver/Src/stm32f4xx_hal_i2s_ex.c ****   }
 996:./Libraries/STM32F4xx_HAL_Driver/Src/stm32f4xx_hal_i2s_ex.c **** }
 2868              		.loc 1 996 1
 2869 0126 00BF     		nop
 2870 0128 1037     		adds	r7, r7, #16
 2871              	.LCFI40:
 2872              		.cfi_def_cfa_offset 8
 2873 012a BD46     		mov	sp, r7
 2874              	.LCFI41:
 2875              		.cfi_def_cfa_register 13
 2876              		@ sp needed
 2877 012c 80BD     		pop	{r7, pc}
 2878              	.L195:
 2879 012e 00BF     		.align	2
 2880              	.L194:
ARM GAS  /tmp/ccEZa6GA.s 			page 69


 2881 0130 00380040 		.word	1073756160
 2882 0134 00340040 		.word	1073755136
 2883              		.cfi_endproc
 2884              	.LFE133:
 2886              		.section	.text.I2SEx_TxRxDMAError,"ax",%progbits
 2887              		.align	1
 2888              		.syntax unified
 2889              		.thumb
 2890              		.thumb_func
 2891              		.fpu fpv4-sp-d16
 2893              	I2SEx_TxRxDMAError:
 2894              	.LFB134:
 997:./Libraries/STM32F4xx_HAL_Driver/Src/stm32f4xx_hal_i2s_ex.c **** 
 998:./Libraries/STM32F4xx_HAL_Driver/Src/stm32f4xx_hal_i2s_ex.c **** /**
 999:./Libraries/STM32F4xx_HAL_Driver/Src/stm32f4xx_hal_i2s_ex.c ****   * @brief DMA I2S communication error callback
1000:./Libraries/STM32F4xx_HAL_Driver/Src/stm32f4xx_hal_i2s_ex.c ****   * @param hdma  DMA handle
1001:./Libraries/STM32F4xx_HAL_Driver/Src/stm32f4xx_hal_i2s_ex.c ****   * @retval None
1002:./Libraries/STM32F4xx_HAL_Driver/Src/stm32f4xx_hal_i2s_ex.c ****   */
1003:./Libraries/STM32F4xx_HAL_Driver/Src/stm32f4xx_hal_i2s_ex.c **** static void I2SEx_TxRxDMAError(DMA_HandleTypeDef *hdma)
1004:./Libraries/STM32F4xx_HAL_Driver/Src/stm32f4xx_hal_i2s_ex.c **** {
 2895              		.loc 1 1004 1
 2896              		.cfi_startproc
 2897              		@ args = 0, pretend = 0, frame = 16
 2898              		@ frame_needed = 1, uses_anonymous_args = 0
 2899 0000 80B5     		push	{r7, lr}
 2900              	.LCFI42:
 2901              		.cfi_def_cfa_offset 8
 2902              		.cfi_offset 7, -8
 2903              		.cfi_offset 14, -4
 2904 0002 84B0     		sub	sp, sp, #16
 2905              	.LCFI43:
 2906              		.cfi_def_cfa_offset 24
 2907 0004 00AF     		add	r7, sp, #0
 2908              	.LCFI44:
 2909              		.cfi_def_cfa_register 7
 2910 0006 7860     		str	r0, [r7, #4]
1005:./Libraries/STM32F4xx_HAL_Driver/Src/stm32f4xx_hal_i2s_ex.c ****   I2S_HandleTypeDef* hi2s = ( I2S_HandleTypeDef* )((DMA_HandleTypeDef* )hdma)->Parent;
 2911              		.loc 1 1005 22
 2912 0008 7B68     		ldr	r3, [r7, #4]
 2913 000a 9B6B     		ldr	r3, [r3, #56]
 2914 000c FB60     		str	r3, [r7, #12]
1006:./Libraries/STM32F4xx_HAL_Driver/Src/stm32f4xx_hal_i2s_ex.c **** 
1007:./Libraries/STM32F4xx_HAL_Driver/Src/stm32f4xx_hal_i2s_ex.c ****   /* Disable Rx and Tx DMA Request */
1008:./Libraries/STM32F4xx_HAL_Driver/Src/stm32f4xx_hal_i2s_ex.c ****   CLEAR_BIT(hi2s->Instance->CR2,(SPI_CR2_RXDMAEN | SPI_CR2_TXDMAEN));
 2915              		.loc 1 1008 3
 2916 000e FB68     		ldr	r3, [r7, #12]
 2917 0010 1B68     		ldr	r3, [r3]
 2918 0012 5A68     		ldr	r2, [r3, #4]
 2919 0014 FB68     		ldr	r3, [r7, #12]
 2920 0016 1B68     		ldr	r3, [r3]
 2921 0018 22F00302 		bic	r2, r2, #3
 2922 001c 5A60     		str	r2, [r3, #4]
1009:./Libraries/STM32F4xx_HAL_Driver/Src/stm32f4xx_hal_i2s_ex.c ****   CLEAR_BIT(I2SxEXT(hi2s->Instance)->CR2,(SPI_CR2_RXDMAEN | SPI_CR2_TXDMAEN));
 2923              		.loc 1 1009 3
 2924 001e FB68     		ldr	r3, [r7, #12]
 2925 0020 1B68     		ldr	r3, [r3]
 2926 0022 154A     		ldr	r2, .L201
ARM GAS  /tmp/ccEZa6GA.s 			page 70


 2927 0024 9342     		cmp	r3, r2
 2928 0026 01D1     		bne	.L197
 2929              		.loc 1 1009 3 is_stmt 0 discriminator 1
 2930 0028 144B     		ldr	r3, .L201+4
 2931 002a 01E0     		b	.L198
 2932              	.L197:
 2933              		.loc 1 1009 3 discriminator 2
 2934 002c 4FF04023 		mov	r3, #1073758208
 2935              	.L198:
 2936              		.loc 1 1009 3 discriminator 4
 2937 0030 5A68     		ldr	r2, [r3, #4]
 2938 0032 FB68     		ldr	r3, [r7, #12]
 2939 0034 1B68     		ldr	r3, [r3]
 2940 0036 1049     		ldr	r1, .L201
 2941 0038 8B42     		cmp	r3, r1
 2942 003a 01D1     		bne	.L199
 2943              		.loc 1 1009 3 discriminator 5
 2944 003c 0F4B     		ldr	r3, .L201+4
 2945 003e 01E0     		b	.L200
 2946              	.L199:
 2947              		.loc 1 1009 3 discriminator 6
 2948 0040 4FF04023 		mov	r3, #1073758208
 2949              	.L200:
 2950              		.loc 1 1009 3 discriminator 8
 2951 0044 22F00302 		bic	r2, r2, #3
 2952 0048 5A60     		str	r2, [r3, #4]
1010:./Libraries/STM32F4xx_HAL_Driver/Src/stm32f4xx_hal_i2s_ex.c **** 
1011:./Libraries/STM32F4xx_HAL_Driver/Src/stm32f4xx_hal_i2s_ex.c ****   hi2s->TxXferCount = 0U;
 2953              		.loc 1 1011 21 is_stmt 1 discriminator 8
 2954 004a FB68     		ldr	r3, [r7, #12]
 2955 004c 0022     		movs	r2, #0
 2956 004e 5A85     		strh	r2, [r3, #42]	@ movhi
1012:./Libraries/STM32F4xx_HAL_Driver/Src/stm32f4xx_hal_i2s_ex.c ****   hi2s->RxXferCount = 0U;
 2957              		.loc 1 1012 21 discriminator 8
 2958 0050 FB68     		ldr	r3, [r7, #12]
 2959 0052 0022     		movs	r2, #0
 2960 0054 5A86     		strh	r2, [r3, #50]	@ movhi
1013:./Libraries/STM32F4xx_HAL_Driver/Src/stm32f4xx_hal_i2s_ex.c **** 
1014:./Libraries/STM32F4xx_HAL_Driver/Src/stm32f4xx_hal_i2s_ex.c ****   hi2s->State= HAL_I2S_STATE_READY;
 2961              		.loc 1 1014 14 discriminator 8
 2962 0056 FB68     		ldr	r3, [r7, #12]
 2963 0058 0122     		movs	r2, #1
 2964 005a 83F84120 		strb	r2, [r3, #65]
1015:./Libraries/STM32F4xx_HAL_Driver/Src/stm32f4xx_hal_i2s_ex.c **** 
1016:./Libraries/STM32F4xx_HAL_Driver/Src/stm32f4xx_hal_i2s_ex.c ****   /* Set the error code and execute error callback*/
1017:./Libraries/STM32F4xx_HAL_Driver/Src/stm32f4xx_hal_i2s_ex.c ****   SET_BIT(hi2s->ErrorCode,HAL_I2S_ERROR_DMA);
 2965              		.loc 1 1017 3 discriminator 8
 2966 005e FB68     		ldr	r3, [r7, #12]
 2967 0060 5B6C     		ldr	r3, [r3, #68]
 2968 0062 43F00802 		orr	r2, r3, #8
 2969 0066 FB68     		ldr	r3, [r7, #12]
 2970 0068 5A64     		str	r2, [r3, #68]
1018:./Libraries/STM32F4xx_HAL_Driver/Src/stm32f4xx_hal_i2s_ex.c ****   HAL_I2S_ErrorCallback(hi2s);
 2971              		.loc 1 1018 3 discriminator 8
 2972 006a F868     		ldr	r0, [r7, #12]
 2973 006c FFF7FEFF 		bl	HAL_I2S_ErrorCallback
1019:./Libraries/STM32F4xx_HAL_Driver/Src/stm32f4xx_hal_i2s_ex.c **** }
ARM GAS  /tmp/ccEZa6GA.s 			page 71


 2974              		.loc 1 1019 1 discriminator 8
 2975 0070 00BF     		nop
 2976 0072 1037     		adds	r7, r7, #16
 2977              	.LCFI45:
 2978              		.cfi_def_cfa_offset 8
 2979 0074 BD46     		mov	sp, r7
 2980              	.LCFI46:
 2981              		.cfi_def_cfa_register 13
 2982              		@ sp needed
 2983 0076 80BD     		pop	{r7, pc}
 2984              	.L202:
 2985              		.align	2
 2986              	.L201:
 2987 0078 00380040 		.word	1073756160
 2988 007c 00340040 		.word	1073755136
 2989              		.cfi_endproc
 2990              	.LFE134:
 2992              		.section	.text.I2SEx_FullDuplexTx_IT,"ax",%progbits
 2993              		.align	1
 2994              		.syntax unified
 2995              		.thumb
 2996              		.thumb_func
 2997              		.fpu fpv4-sp-d16
 2999              	I2SEx_FullDuplexTx_IT:
 3000              	.LFB135:
1020:./Libraries/STM32F4xx_HAL_Driver/Src/stm32f4xx_hal_i2s_ex.c **** 
1021:./Libraries/STM32F4xx_HAL_Driver/Src/stm32f4xx_hal_i2s_ex.c **** /**
1022:./Libraries/STM32F4xx_HAL_Driver/Src/stm32f4xx_hal_i2s_ex.c ****   * @brief Full-Duplex IT handler transmit function
1023:./Libraries/STM32F4xx_HAL_Driver/Src/stm32f4xx_hal_i2s_ex.c ****   * @param hi2s I2S handle
1024:./Libraries/STM32F4xx_HAL_Driver/Src/stm32f4xx_hal_i2s_ex.c ****   * @param i2sUsed indicate if I2Sx or I2Sx_ext is concerned
1025:./Libraries/STM32F4xx_HAL_Driver/Src/stm32f4xx_hal_i2s_ex.c ****   * @retval None
1026:./Libraries/STM32F4xx_HAL_Driver/Src/stm32f4xx_hal_i2s_ex.c ****   */
1027:./Libraries/STM32F4xx_HAL_Driver/Src/stm32f4xx_hal_i2s_ex.c **** static void I2SEx_FullDuplexTx_IT(I2S_HandleTypeDef *hi2s, I2S_UseTypeDef i2sUsed)
1028:./Libraries/STM32F4xx_HAL_Driver/Src/stm32f4xx_hal_i2s_ex.c **** {
 3001              		.loc 1 1028 1
 3002              		.cfi_startproc
 3003              		@ args = 0, pretend = 0, frame = 8
 3004              		@ frame_needed = 1, uses_anonymous_args = 0
 3005 0000 80B5     		push	{r7, lr}
 3006              	.LCFI47:
 3007              		.cfi_def_cfa_offset 8
 3008              		.cfi_offset 7, -8
 3009              		.cfi_offset 14, -4
 3010 0002 82B0     		sub	sp, sp, #8
 3011              	.LCFI48:
 3012              		.cfi_def_cfa_offset 16
 3013 0004 00AF     		add	r7, sp, #0
 3014              	.LCFI49:
 3015              		.cfi_def_cfa_register 7
 3016 0006 7860     		str	r0, [r7, #4]
 3017 0008 0B46     		mov	r3, r1
 3018 000a FB70     		strb	r3, [r7, #3]
1029:./Libraries/STM32F4xx_HAL_Driver/Src/stm32f4xx_hal_i2s_ex.c ****   if(i2sUsed == I2S_USE_I2S)
 3019              		.loc 1 1029 5
 3020 000c FB78     		ldrb	r3, [r7, #3]	@ zero_extendqisi2
 3021 000e 002B     		cmp	r3, #0
 3022 0010 2AD1     		bne	.L204
ARM GAS  /tmp/ccEZa6GA.s 			page 72


1030:./Libraries/STM32F4xx_HAL_Driver/Src/stm32f4xx_hal_i2s_ex.c ****   {
1031:./Libraries/STM32F4xx_HAL_Driver/Src/stm32f4xx_hal_i2s_ex.c ****     /* Write Data on DR register */
1032:./Libraries/STM32F4xx_HAL_Driver/Src/stm32f4xx_hal_i2s_ex.c ****     hi2s->Instance->DR = (*hi2s->pTxBuffPtr++);
 3023              		.loc 1 1032 32
 3024 0012 7B68     		ldr	r3, [r7, #4]
 3025 0014 5B6A     		ldr	r3, [r3, #36]
 3026              		.loc 1 1032 44
 3027 0016 991C     		adds	r1, r3, #2
 3028 0018 7A68     		ldr	r2, [r7, #4]
 3029 001a 5162     		str	r1, [r2, #36]
 3030              		.loc 1 1032 27
 3031 001c 1A88     		ldrh	r2, [r3]
 3032              		.loc 1 1032 9
 3033 001e 7B68     		ldr	r3, [r7, #4]
 3034 0020 1B68     		ldr	r3, [r3]
 3035              		.loc 1 1032 24
 3036 0022 DA60     		str	r2, [r3, #12]
1033:./Libraries/STM32F4xx_HAL_Driver/Src/stm32f4xx_hal_i2s_ex.c ****     hi2s->TxXferCount--;
 3037              		.loc 1 1033 9
 3038 0024 7B68     		ldr	r3, [r7, #4]
 3039 0026 5B8D     		ldrh	r3, [r3, #42]	@ movhi
 3040 0028 9BB2     		uxth	r3, r3
 3041              		.loc 1 1033 22
 3042 002a 013B     		subs	r3, r3, #1
 3043 002c 9AB2     		uxth	r2, r3
 3044 002e 7B68     		ldr	r3, [r7, #4]
 3045 0030 5A85     		strh	r2, [r3, #42]	@ movhi
1034:./Libraries/STM32F4xx_HAL_Driver/Src/stm32f4xx_hal_i2s_ex.c **** 
1035:./Libraries/STM32F4xx_HAL_Driver/Src/stm32f4xx_hal_i2s_ex.c ****     if(hi2s->TxXferCount == 0U)
 3046              		.loc 1 1035 12
 3047 0032 7B68     		ldr	r3, [r7, #4]
 3048 0034 5B8D     		ldrh	r3, [r3, #42]	@ movhi
 3049 0036 9BB2     		uxth	r3, r3
 3050              		.loc 1 1035 7
 3051 0038 002B     		cmp	r3, #0
 3052 003a 54D1     		bne	.L212
1036:./Libraries/STM32F4xx_HAL_Driver/Src/stm32f4xx_hal_i2s_ex.c ****     {
1037:./Libraries/STM32F4xx_HAL_Driver/Src/stm32f4xx_hal_i2s_ex.c ****       /* Disable TXE and ERR interrupt */
1038:./Libraries/STM32F4xx_HAL_Driver/Src/stm32f4xx_hal_i2s_ex.c ****       __HAL_I2S_DISABLE_IT(hi2s, (I2S_IT_TXE | I2S_IT_ERR));
 3053              		.loc 1 1038 7
 3054 003c 7B68     		ldr	r3, [r7, #4]
 3055 003e 1B68     		ldr	r3, [r3]
 3056 0040 5968     		ldr	r1, [r3, #4]
 3057 0042 7B68     		ldr	r3, [r7, #4]
 3058 0044 1A68     		ldr	r2, [r3]
 3059 0046 4FF65F73 		movw	r3, #65375
 3060 004a 0B40     		ands	r3, r3, r1
 3061 004c 5360     		str	r3, [r2, #4]
1039:./Libraries/STM32F4xx_HAL_Driver/Src/stm32f4xx_hal_i2s_ex.c **** 
1040:./Libraries/STM32F4xx_HAL_Driver/Src/stm32f4xx_hal_i2s_ex.c ****       if(hi2s->RxXferCount == 0U)
 3062              		.loc 1 1040 14
 3063 004e 7B68     		ldr	r3, [r7, #4]
 3064 0050 5B8E     		ldrh	r3, [r3, #50]	@ movhi
 3065 0052 9BB2     		uxth	r3, r3
 3066              		.loc 1 1040 9
 3067 0054 002B     		cmp	r3, #0
 3068 0056 46D1     		bne	.L212
ARM GAS  /tmp/ccEZa6GA.s 			page 73


1041:./Libraries/STM32F4xx_HAL_Driver/Src/stm32f4xx_hal_i2s_ex.c ****       {
1042:./Libraries/STM32F4xx_HAL_Driver/Src/stm32f4xx_hal_i2s_ex.c ****         hi2s->State = HAL_I2S_STATE_READY;
 3069              		.loc 1 1042 21
 3070 0058 7B68     		ldr	r3, [r7, #4]
 3071 005a 0122     		movs	r2, #1
 3072 005c 83F84120 		strb	r2, [r3, #65]
1043:./Libraries/STM32F4xx_HAL_Driver/Src/stm32f4xx_hal_i2s_ex.c ****         HAL_I2SEx_TxRxCpltCallback(hi2s);
 3073              		.loc 1 1043 9
 3074 0060 7868     		ldr	r0, [r7, #4]
 3075 0062 FFF7FEFF 		bl	HAL_I2SEx_TxRxCpltCallback
1044:./Libraries/STM32F4xx_HAL_Driver/Src/stm32f4xx_hal_i2s_ex.c ****       }
1045:./Libraries/STM32F4xx_HAL_Driver/Src/stm32f4xx_hal_i2s_ex.c ****     }
1046:./Libraries/STM32F4xx_HAL_Driver/Src/stm32f4xx_hal_i2s_ex.c ****   }
1047:./Libraries/STM32F4xx_HAL_Driver/Src/stm32f4xx_hal_i2s_ex.c ****   else
1048:./Libraries/STM32F4xx_HAL_Driver/Src/stm32f4xx_hal_i2s_ex.c ****   {
1049:./Libraries/STM32F4xx_HAL_Driver/Src/stm32f4xx_hal_i2s_ex.c ****     /* Write Data on DR register */
1050:./Libraries/STM32F4xx_HAL_Driver/Src/stm32f4xx_hal_i2s_ex.c ****     I2SxEXT(hi2s->Instance)->DR = (*hi2s->pTxBuffPtr++);
1051:./Libraries/STM32F4xx_HAL_Driver/Src/stm32f4xx_hal_i2s_ex.c ****     hi2s->TxXferCount--;
1052:./Libraries/STM32F4xx_HAL_Driver/Src/stm32f4xx_hal_i2s_ex.c **** 
1053:./Libraries/STM32F4xx_HAL_Driver/Src/stm32f4xx_hal_i2s_ex.c ****     if(hi2s->TxXferCount == 0U)
1054:./Libraries/STM32F4xx_HAL_Driver/Src/stm32f4xx_hal_i2s_ex.c ****     {
1055:./Libraries/STM32F4xx_HAL_Driver/Src/stm32f4xx_hal_i2s_ex.c ****       /* Disable I2Sext TXE and ERR interrupt */
1056:./Libraries/STM32F4xx_HAL_Driver/Src/stm32f4xx_hal_i2s_ex.c ****       __HAL_I2SEXT_DISABLE_IT(hi2s, (I2S_IT_TXE | I2S_IT_ERR));
1057:./Libraries/STM32F4xx_HAL_Driver/Src/stm32f4xx_hal_i2s_ex.c **** 
1058:./Libraries/STM32F4xx_HAL_Driver/Src/stm32f4xx_hal_i2s_ex.c ****       if(hi2s->RxXferCount == 0U)
1059:./Libraries/STM32F4xx_HAL_Driver/Src/stm32f4xx_hal_i2s_ex.c ****       {
1060:./Libraries/STM32F4xx_HAL_Driver/Src/stm32f4xx_hal_i2s_ex.c ****         hi2s->State = HAL_I2S_STATE_READY;
1061:./Libraries/STM32F4xx_HAL_Driver/Src/stm32f4xx_hal_i2s_ex.c ****         HAL_I2SEx_TxRxCpltCallback(hi2s);
1062:./Libraries/STM32F4xx_HAL_Driver/Src/stm32f4xx_hal_i2s_ex.c ****       }
1063:./Libraries/STM32F4xx_HAL_Driver/Src/stm32f4xx_hal_i2s_ex.c ****     }
1064:./Libraries/STM32F4xx_HAL_Driver/Src/stm32f4xx_hal_i2s_ex.c ****   }
1065:./Libraries/STM32F4xx_HAL_Driver/Src/stm32f4xx_hal_i2s_ex.c **** }
 3076              		.loc 1 1065 1
 3077 0066 3EE0     		b	.L212
 3078              	.L204:
1050:./Libraries/STM32F4xx_HAL_Driver/Src/stm32f4xx_hal_i2s_ex.c ****     hi2s->TxXferCount--;
 3079              		.loc 1 1050 41
 3080 0068 7B68     		ldr	r3, [r7, #4]
 3081 006a 5B6A     		ldr	r3, [r3, #36]
1050:./Libraries/STM32F4xx_HAL_Driver/Src/stm32f4xx_hal_i2s_ex.c ****     hi2s->TxXferCount--;
 3082              		.loc 1 1050 53
 3083 006c 991C     		adds	r1, r3, #2
 3084 006e 7A68     		ldr	r2, [r7, #4]
 3085 0070 5162     		str	r1, [r2, #36]
1050:./Libraries/STM32F4xx_HAL_Driver/Src/stm32f4xx_hal_i2s_ex.c ****     hi2s->TxXferCount--;
 3086              		.loc 1 1050 36
 3087 0072 1988     		ldrh	r1, [r3]
1050:./Libraries/STM32F4xx_HAL_Driver/Src/stm32f4xx_hal_i2s_ex.c ****     hi2s->TxXferCount--;
 3088              		.loc 1 1050 5
 3089 0074 7B68     		ldr	r3, [r7, #4]
 3090 0076 1B68     		ldr	r3, [r3]
 3091 0078 1D4A     		ldr	r2, .L213
 3092 007a 9342     		cmp	r3, r2
 3093 007c 01D1     		bne	.L206
1050:./Libraries/STM32F4xx_HAL_Driver/Src/stm32f4xx_hal_i2s_ex.c ****     hi2s->TxXferCount--;
 3094              		.loc 1 1050 5 is_stmt 0 discriminator 1
 3095 007e 1D4B     		ldr	r3, .L213+4
ARM GAS  /tmp/ccEZa6GA.s 			page 74


 3096 0080 01E0     		b	.L207
 3097              	.L206:
1050:./Libraries/STM32F4xx_HAL_Driver/Src/stm32f4xx_hal_i2s_ex.c ****     hi2s->TxXferCount--;
 3098              		.loc 1 1050 5 discriminator 2
 3099 0082 4FF04023 		mov	r3, #1073758208
 3100              	.L207:
1050:./Libraries/STM32F4xx_HAL_Driver/Src/stm32f4xx_hal_i2s_ex.c ****     hi2s->TxXferCount--;
 3101              		.loc 1 1050 36 is_stmt 1 discriminator 4
 3102 0086 0A46     		mov	r2, r1
1050:./Libraries/STM32F4xx_HAL_Driver/Src/stm32f4xx_hal_i2s_ex.c ****     hi2s->TxXferCount--;
 3103              		.loc 1 1050 33 discriminator 4
 3104 0088 DA60     		str	r2, [r3, #12]
1051:./Libraries/STM32F4xx_HAL_Driver/Src/stm32f4xx_hal_i2s_ex.c **** 
 3105              		.loc 1 1051 9 discriminator 4
 3106 008a 7B68     		ldr	r3, [r7, #4]
 3107 008c 5B8D     		ldrh	r3, [r3, #42]	@ movhi
 3108 008e 9BB2     		uxth	r3, r3
1051:./Libraries/STM32F4xx_HAL_Driver/Src/stm32f4xx_hal_i2s_ex.c **** 
 3109              		.loc 1 1051 22 discriminator 4
 3110 0090 013B     		subs	r3, r3, #1
 3111 0092 9AB2     		uxth	r2, r3
 3112 0094 7B68     		ldr	r3, [r7, #4]
 3113 0096 5A85     		strh	r2, [r3, #42]	@ movhi
1053:./Libraries/STM32F4xx_HAL_Driver/Src/stm32f4xx_hal_i2s_ex.c ****     {
 3114              		.loc 1 1053 12 discriminator 4
 3115 0098 7B68     		ldr	r3, [r7, #4]
 3116 009a 5B8D     		ldrh	r3, [r3, #42]	@ movhi
 3117 009c 9BB2     		uxth	r3, r3
1053:./Libraries/STM32F4xx_HAL_Driver/Src/stm32f4xx_hal_i2s_ex.c ****     {
 3118              		.loc 1 1053 7 discriminator 4
 3119 009e 002B     		cmp	r3, #0
 3120 00a0 21D1     		bne	.L212
1056:./Libraries/STM32F4xx_HAL_Driver/Src/stm32f4xx_hal_i2s_ex.c **** 
 3121              		.loc 1 1056 7
 3122 00a2 7B68     		ldr	r3, [r7, #4]
 3123 00a4 1B68     		ldr	r3, [r3]
 3124 00a6 124A     		ldr	r2, .L213
 3125 00a8 9342     		cmp	r3, r2
 3126 00aa 01D1     		bne	.L208
1056:./Libraries/STM32F4xx_HAL_Driver/Src/stm32f4xx_hal_i2s_ex.c **** 
 3127              		.loc 1 1056 7 is_stmt 0 discriminator 1
 3128 00ac 114B     		ldr	r3, .L213+4
 3129 00ae 01E0     		b	.L209
 3130              	.L208:
1056:./Libraries/STM32F4xx_HAL_Driver/Src/stm32f4xx_hal_i2s_ex.c **** 
 3131              		.loc 1 1056 7 discriminator 2
 3132 00b0 4FF04023 		mov	r3, #1073758208
 3133              	.L209:
1056:./Libraries/STM32F4xx_HAL_Driver/Src/stm32f4xx_hal_i2s_ex.c **** 
 3134              		.loc 1 1056 7 discriminator 4
 3135 00b4 5A68     		ldr	r2, [r3, #4]
 3136 00b6 7B68     		ldr	r3, [r7, #4]
 3137 00b8 1B68     		ldr	r3, [r3]
 3138 00ba 0D49     		ldr	r1, .L213
 3139 00bc 8B42     		cmp	r3, r1
 3140 00be 01D1     		bne	.L210
1056:./Libraries/STM32F4xx_HAL_Driver/Src/stm32f4xx_hal_i2s_ex.c **** 
ARM GAS  /tmp/ccEZa6GA.s 			page 75


 3141              		.loc 1 1056 7 discriminator 5
 3142 00c0 0C4B     		ldr	r3, .L213+4
 3143 00c2 01E0     		b	.L211
 3144              	.L210:
1056:./Libraries/STM32F4xx_HAL_Driver/Src/stm32f4xx_hal_i2s_ex.c **** 
 3145              		.loc 1 1056 7 discriminator 6
 3146 00c4 4FF04023 		mov	r3, #1073758208
 3147              	.L211:
1056:./Libraries/STM32F4xx_HAL_Driver/Src/stm32f4xx_hal_i2s_ex.c **** 
 3148              		.loc 1 1056 7 discriminator 8
 3149 00c8 22F0A002 		bic	r2, r2, #160
 3150 00cc 5A60     		str	r2, [r3, #4]
1058:./Libraries/STM32F4xx_HAL_Driver/Src/stm32f4xx_hal_i2s_ex.c ****       {
 3151              		.loc 1 1058 14 is_stmt 1 discriminator 8
 3152 00ce 7B68     		ldr	r3, [r7, #4]
 3153 00d0 5B8E     		ldrh	r3, [r3, #50]	@ movhi
 3154 00d2 9BB2     		uxth	r3, r3
1058:./Libraries/STM32F4xx_HAL_Driver/Src/stm32f4xx_hal_i2s_ex.c ****       {
 3155              		.loc 1 1058 9 discriminator 8
 3156 00d4 002B     		cmp	r3, #0
 3157 00d6 06D1     		bne	.L212
1060:./Libraries/STM32F4xx_HAL_Driver/Src/stm32f4xx_hal_i2s_ex.c ****         HAL_I2SEx_TxRxCpltCallback(hi2s);
 3158              		.loc 1 1060 21
 3159 00d8 7B68     		ldr	r3, [r7, #4]
 3160 00da 0122     		movs	r2, #1
 3161 00dc 83F84120 		strb	r2, [r3, #65]
1061:./Libraries/STM32F4xx_HAL_Driver/Src/stm32f4xx_hal_i2s_ex.c ****       }
 3162              		.loc 1 1061 9
 3163 00e0 7868     		ldr	r0, [r7, #4]
 3164 00e2 FFF7FEFF 		bl	HAL_I2SEx_TxRxCpltCallback
 3165              	.L212:
 3166              		.loc 1 1065 1
 3167 00e6 00BF     		nop
 3168 00e8 0837     		adds	r7, r7, #8
 3169              	.LCFI50:
 3170              		.cfi_def_cfa_offset 8
 3171 00ea BD46     		mov	sp, r7
 3172              	.LCFI51:
 3173              		.cfi_def_cfa_register 13
 3174              		@ sp needed
 3175 00ec 80BD     		pop	{r7, pc}
 3176              	.L214:
 3177 00ee 00BF     		.align	2
 3178              	.L213:
 3179 00f0 00380040 		.word	1073756160
 3180 00f4 00340040 		.word	1073755136
 3181              		.cfi_endproc
 3182              	.LFE135:
 3184              		.section	.text.I2SEx_FullDuplexRx_IT,"ax",%progbits
 3185              		.align	1
 3186              		.syntax unified
 3187              		.thumb
 3188              		.thumb_func
 3189              		.fpu fpv4-sp-d16
 3191              	I2SEx_FullDuplexRx_IT:
 3192              	.LFB136:
1066:./Libraries/STM32F4xx_HAL_Driver/Src/stm32f4xx_hal_i2s_ex.c **** 
ARM GAS  /tmp/ccEZa6GA.s 			page 76


1067:./Libraries/STM32F4xx_HAL_Driver/Src/stm32f4xx_hal_i2s_ex.c **** /**
1068:./Libraries/STM32F4xx_HAL_Driver/Src/stm32f4xx_hal_i2s_ex.c ****   * @brief Full-Duplex IT handler receive function
1069:./Libraries/STM32F4xx_HAL_Driver/Src/stm32f4xx_hal_i2s_ex.c ****   * @param hi2s I2S handle
1070:./Libraries/STM32F4xx_HAL_Driver/Src/stm32f4xx_hal_i2s_ex.c ****   * @param i2sUsed indicate if I2Sx or I2Sx_ext is concerned
1071:./Libraries/STM32F4xx_HAL_Driver/Src/stm32f4xx_hal_i2s_ex.c ****   * @retval None
1072:./Libraries/STM32F4xx_HAL_Driver/Src/stm32f4xx_hal_i2s_ex.c ****   */
1073:./Libraries/STM32F4xx_HAL_Driver/Src/stm32f4xx_hal_i2s_ex.c **** static void I2SEx_FullDuplexRx_IT(I2S_HandleTypeDef *hi2s, I2S_UseTypeDef i2sUsed)
1074:./Libraries/STM32F4xx_HAL_Driver/Src/stm32f4xx_hal_i2s_ex.c **** {
 3193              		.loc 1 1074 1
 3194              		.cfi_startproc
 3195              		@ args = 0, pretend = 0, frame = 8
 3196              		@ frame_needed = 1, uses_anonymous_args = 0
 3197 0000 80B5     		push	{r7, lr}
 3198              	.LCFI52:
 3199              		.cfi_def_cfa_offset 8
 3200              		.cfi_offset 7, -8
 3201              		.cfi_offset 14, -4
 3202 0002 82B0     		sub	sp, sp, #8
 3203              	.LCFI53:
 3204              		.cfi_def_cfa_offset 16
 3205 0004 00AF     		add	r7, sp, #0
 3206              	.LCFI54:
 3207              		.cfi_def_cfa_register 7
 3208 0006 7860     		str	r0, [r7, #4]
 3209 0008 0B46     		mov	r3, r1
 3210 000a FB70     		strb	r3, [r7, #3]
1075:./Libraries/STM32F4xx_HAL_Driver/Src/stm32f4xx_hal_i2s_ex.c ****   if(i2sUsed == I2S_USE_I2S)
 3211              		.loc 1 1075 5
 3212 000c FB78     		ldrb	r3, [r7, #3]	@ zero_extendqisi2
 3213 000e 002B     		cmp	r3, #0
 3214 0010 2BD1     		bne	.L216
1076:./Libraries/STM32F4xx_HAL_Driver/Src/stm32f4xx_hal_i2s_ex.c ****   {
1077:./Libraries/STM32F4xx_HAL_Driver/Src/stm32f4xx_hal_i2s_ex.c ****     /* Read Data from DR register */
1078:./Libraries/STM32F4xx_HAL_Driver/Src/stm32f4xx_hal_i2s_ex.c ****     (*hi2s->pRxBuffPtr++) = hi2s->Instance->DR;
 3215              		.loc 1 1078 33
 3216 0012 7B68     		ldr	r3, [r7, #4]
 3217 0014 1B68     		ldr	r3, [r3]
 3218              		.loc 1 1078 43
 3219 0016 D868     		ldr	r0, [r3, #12]
 3220              		.loc 1 1078 11
 3221 0018 7B68     		ldr	r3, [r7, #4]
 3222 001a DB6A     		ldr	r3, [r3, #44]
 3223              		.loc 1 1078 23
 3224 001c 991C     		adds	r1, r3, #2
 3225 001e 7A68     		ldr	r2, [r7, #4]
 3226 0020 D162     		str	r1, [r2, #44]
 3227              		.loc 1 1078 27
 3228 0022 82B2     		uxth	r2, r0
 3229 0024 1A80     		strh	r2, [r3]	@ movhi
1079:./Libraries/STM32F4xx_HAL_Driver/Src/stm32f4xx_hal_i2s_ex.c ****     hi2s->RxXferCount--;
 3230              		.loc 1 1079 9
 3231 0026 7B68     		ldr	r3, [r7, #4]
 3232 0028 5B8E     		ldrh	r3, [r3, #50]	@ movhi
 3233 002a 9BB2     		uxth	r3, r3
 3234              		.loc 1 1079 22
 3235 002c 013B     		subs	r3, r3, #1
 3236 002e 9AB2     		uxth	r2, r3
ARM GAS  /tmp/ccEZa6GA.s 			page 77


 3237 0030 7B68     		ldr	r3, [r7, #4]
 3238 0032 5A86     		strh	r2, [r3, #50]	@ movhi
1080:./Libraries/STM32F4xx_HAL_Driver/Src/stm32f4xx_hal_i2s_ex.c **** 
1081:./Libraries/STM32F4xx_HAL_Driver/Src/stm32f4xx_hal_i2s_ex.c ****     if(hi2s->RxXferCount == 0U)
 3239              		.loc 1 1081 12
 3240 0034 7B68     		ldr	r3, [r7, #4]
 3241 0036 5B8E     		ldrh	r3, [r3, #50]	@ movhi
 3242 0038 9BB2     		uxth	r3, r3
 3243              		.loc 1 1081 7
 3244 003a 002B     		cmp	r3, #0
 3245 003c 54D1     		bne	.L224
1082:./Libraries/STM32F4xx_HAL_Driver/Src/stm32f4xx_hal_i2s_ex.c ****     {
1083:./Libraries/STM32F4xx_HAL_Driver/Src/stm32f4xx_hal_i2s_ex.c ****       /* Disable RXNE and ERR interrupt */
1084:./Libraries/STM32F4xx_HAL_Driver/Src/stm32f4xx_hal_i2s_ex.c ****       __HAL_I2S_DISABLE_IT(hi2s, (I2S_IT_RXNE | I2S_IT_ERR));
 3246              		.loc 1 1084 7
 3247 003e 7B68     		ldr	r3, [r7, #4]
 3248 0040 1B68     		ldr	r3, [r3]
 3249 0042 5968     		ldr	r1, [r3, #4]
 3250 0044 7B68     		ldr	r3, [r7, #4]
 3251 0046 1A68     		ldr	r2, [r3]
 3252 0048 4FF69F73 		movw	r3, #65439
 3253 004c 0B40     		ands	r3, r3, r1
 3254 004e 5360     		str	r3, [r2, #4]
1085:./Libraries/STM32F4xx_HAL_Driver/Src/stm32f4xx_hal_i2s_ex.c **** 
1086:./Libraries/STM32F4xx_HAL_Driver/Src/stm32f4xx_hal_i2s_ex.c ****       if(hi2s->TxXferCount == 0U)
 3255              		.loc 1 1086 14
 3256 0050 7B68     		ldr	r3, [r7, #4]
 3257 0052 5B8D     		ldrh	r3, [r3, #42]	@ movhi
 3258 0054 9BB2     		uxth	r3, r3
 3259              		.loc 1 1086 9
 3260 0056 002B     		cmp	r3, #0
 3261 0058 46D1     		bne	.L224
1087:./Libraries/STM32F4xx_HAL_Driver/Src/stm32f4xx_hal_i2s_ex.c ****       {
1088:./Libraries/STM32F4xx_HAL_Driver/Src/stm32f4xx_hal_i2s_ex.c ****         hi2s->State = HAL_I2S_STATE_READY;
 3262              		.loc 1 1088 21
 3263 005a 7B68     		ldr	r3, [r7, #4]
 3264 005c 0122     		movs	r2, #1
 3265 005e 83F84120 		strb	r2, [r3, #65]
1089:./Libraries/STM32F4xx_HAL_Driver/Src/stm32f4xx_hal_i2s_ex.c ****         HAL_I2SEx_TxRxCpltCallback(hi2s);
 3266              		.loc 1 1089 9
 3267 0062 7868     		ldr	r0, [r7, #4]
 3268 0064 FFF7FEFF 		bl	HAL_I2SEx_TxRxCpltCallback
1090:./Libraries/STM32F4xx_HAL_Driver/Src/stm32f4xx_hal_i2s_ex.c ****       }
1091:./Libraries/STM32F4xx_HAL_Driver/Src/stm32f4xx_hal_i2s_ex.c ****     }
1092:./Libraries/STM32F4xx_HAL_Driver/Src/stm32f4xx_hal_i2s_ex.c ****   }
1093:./Libraries/STM32F4xx_HAL_Driver/Src/stm32f4xx_hal_i2s_ex.c ****   else
1094:./Libraries/STM32F4xx_HAL_Driver/Src/stm32f4xx_hal_i2s_ex.c ****   {
1095:./Libraries/STM32F4xx_HAL_Driver/Src/stm32f4xx_hal_i2s_ex.c ****     /* Read Data from DR register */
1096:./Libraries/STM32F4xx_HAL_Driver/Src/stm32f4xx_hal_i2s_ex.c ****     (*hi2s->pRxBuffPtr++) = I2SxEXT(hi2s->Instance)->DR;
1097:./Libraries/STM32F4xx_HAL_Driver/Src/stm32f4xx_hal_i2s_ex.c ****     hi2s->RxXferCount--;
1098:./Libraries/STM32F4xx_HAL_Driver/Src/stm32f4xx_hal_i2s_ex.c **** 
1099:./Libraries/STM32F4xx_HAL_Driver/Src/stm32f4xx_hal_i2s_ex.c ****     if(hi2s->RxXferCount == 0U)
1100:./Libraries/STM32F4xx_HAL_Driver/Src/stm32f4xx_hal_i2s_ex.c ****     {
1101:./Libraries/STM32F4xx_HAL_Driver/Src/stm32f4xx_hal_i2s_ex.c ****       /* Disable I2Sext RXNE and ERR interrupt */
1102:./Libraries/STM32F4xx_HAL_Driver/Src/stm32f4xx_hal_i2s_ex.c ****       __HAL_I2SEXT_DISABLE_IT(hi2s, (I2S_IT_RXNE | I2S_IT_ERR));
1103:./Libraries/STM32F4xx_HAL_Driver/Src/stm32f4xx_hal_i2s_ex.c **** 
1104:./Libraries/STM32F4xx_HAL_Driver/Src/stm32f4xx_hal_i2s_ex.c ****       if(hi2s->TxXferCount == 0U)
ARM GAS  /tmp/ccEZa6GA.s 			page 78


1105:./Libraries/STM32F4xx_HAL_Driver/Src/stm32f4xx_hal_i2s_ex.c ****       {
1106:./Libraries/STM32F4xx_HAL_Driver/Src/stm32f4xx_hal_i2s_ex.c ****         hi2s->State = HAL_I2S_STATE_READY;
1107:./Libraries/STM32F4xx_HAL_Driver/Src/stm32f4xx_hal_i2s_ex.c ****         HAL_I2SEx_TxRxCpltCallback(hi2s);
1108:./Libraries/STM32F4xx_HAL_Driver/Src/stm32f4xx_hal_i2s_ex.c ****       }
1109:./Libraries/STM32F4xx_HAL_Driver/Src/stm32f4xx_hal_i2s_ex.c ****     }
1110:./Libraries/STM32F4xx_HAL_Driver/Src/stm32f4xx_hal_i2s_ex.c ****   }
1111:./Libraries/STM32F4xx_HAL_Driver/Src/stm32f4xx_hal_i2s_ex.c **** }
 3269              		.loc 1 1111 1
 3270 0068 3EE0     		b	.L224
 3271              	.L216:
1096:./Libraries/STM32F4xx_HAL_Driver/Src/stm32f4xx_hal_i2s_ex.c ****     hi2s->RxXferCount--;
 3272              		.loc 1 1096 29
 3273 006a 7B68     		ldr	r3, [r7, #4]
 3274 006c 1B68     		ldr	r3, [r3]
 3275 006e 204A     		ldr	r2, .L225
 3276 0070 9342     		cmp	r3, r2
 3277 0072 01D1     		bne	.L218
1096:./Libraries/STM32F4xx_HAL_Driver/Src/stm32f4xx_hal_i2s_ex.c ****     hi2s->RxXferCount--;
 3278              		.loc 1 1096 29 is_stmt 0 discriminator 1
 3279 0074 1F4B     		ldr	r3, .L225+4
 3280 0076 01E0     		b	.L219
 3281              	.L218:
1096:./Libraries/STM32F4xx_HAL_Driver/Src/stm32f4xx_hal_i2s_ex.c ****     hi2s->RxXferCount--;
 3282              		.loc 1 1096 29 discriminator 2
 3283 0078 4FF04023 		mov	r3, #1073758208
 3284              	.L219:
1096:./Libraries/STM32F4xx_HAL_Driver/Src/stm32f4xx_hal_i2s_ex.c ****     hi2s->RxXferCount--;
 3285              		.loc 1 1096 52 is_stmt 1 discriminator 4
 3286 007c D868     		ldr	r0, [r3, #12]
1096:./Libraries/STM32F4xx_HAL_Driver/Src/stm32f4xx_hal_i2s_ex.c ****     hi2s->RxXferCount--;
 3287              		.loc 1 1096 11 discriminator 4
 3288 007e 7B68     		ldr	r3, [r7, #4]
 3289 0080 DB6A     		ldr	r3, [r3, #44]
1096:./Libraries/STM32F4xx_HAL_Driver/Src/stm32f4xx_hal_i2s_ex.c ****     hi2s->RxXferCount--;
 3290              		.loc 1 1096 23 discriminator 4
 3291 0082 991C     		adds	r1, r3, #2
 3292 0084 7A68     		ldr	r2, [r7, #4]
 3293 0086 D162     		str	r1, [r2, #44]
1096:./Libraries/STM32F4xx_HAL_Driver/Src/stm32f4xx_hal_i2s_ex.c ****     hi2s->RxXferCount--;
 3294              		.loc 1 1096 27 discriminator 4
 3295 0088 82B2     		uxth	r2, r0
 3296 008a 1A80     		strh	r2, [r3]	@ movhi
1097:./Libraries/STM32F4xx_HAL_Driver/Src/stm32f4xx_hal_i2s_ex.c **** 
 3297              		.loc 1 1097 9 discriminator 4
 3298 008c 7B68     		ldr	r3, [r7, #4]
 3299 008e 5B8E     		ldrh	r3, [r3, #50]	@ movhi
 3300 0090 9BB2     		uxth	r3, r3
1097:./Libraries/STM32F4xx_HAL_Driver/Src/stm32f4xx_hal_i2s_ex.c **** 
 3301              		.loc 1 1097 22 discriminator 4
 3302 0092 013B     		subs	r3, r3, #1
 3303 0094 9AB2     		uxth	r2, r3
 3304 0096 7B68     		ldr	r3, [r7, #4]
 3305 0098 5A86     		strh	r2, [r3, #50]	@ movhi
1099:./Libraries/STM32F4xx_HAL_Driver/Src/stm32f4xx_hal_i2s_ex.c ****     {
 3306              		.loc 1 1099 12 discriminator 4
 3307 009a 7B68     		ldr	r3, [r7, #4]
 3308 009c 5B8E     		ldrh	r3, [r3, #50]	@ movhi
ARM GAS  /tmp/ccEZa6GA.s 			page 79


 3309 009e 9BB2     		uxth	r3, r3
1099:./Libraries/STM32F4xx_HAL_Driver/Src/stm32f4xx_hal_i2s_ex.c ****     {
 3310              		.loc 1 1099 7 discriminator 4
 3311 00a0 002B     		cmp	r3, #0
 3312 00a2 21D1     		bne	.L224
1102:./Libraries/STM32F4xx_HAL_Driver/Src/stm32f4xx_hal_i2s_ex.c **** 
 3313              		.loc 1 1102 7
 3314 00a4 7B68     		ldr	r3, [r7, #4]
 3315 00a6 1B68     		ldr	r3, [r3]
