ARM GAS  /tmp/ccYHp8fH.s 			page 1


   1              		.cpu cortex-m4
   2              		.eabi_attribute 27, 1
   3              		.eabi_attribute 28, 1
   4              		.eabi_attribute 20, 1
   5              		.eabi_attribute 21, 1
   6              		.eabi_attribute 23, 3
   7              		.eabi_attribute 24, 1
   8              		.eabi_attribute 25, 1
   9              		.eabi_attribute 26, 1
  10              		.eabi_attribute 30, 6
  11              		.eabi_attribute 34, 1
  12              		.eabi_attribute 18, 4
  13              		.file	"stm32f4xx_hal_hcd.c"
  14              		.text
  15              	.Ltext0:
  16              		.cfi_sections	.debug_frame
  17              		.section	.text.HAL_HCD_Init,"ax",%progbits
  18              		.align	1
  19              		.global	HAL_HCD_Init
  20              		.arch armv7e-m
  21              		.syntax unified
  22              		.thumb
  23              		.thumb_func
  24              		.fpu fpv4-sp-d16
  26              	HAL_HCD_Init:
  27              	.LFB126:
  28              		.file 1 "./Libraries/STM32F4xx_HAL_Driver/Src/stm32f4xx_hal_hcd.c"
   1:./Libraries/STM32F4xx_HAL_Driver/Src/stm32f4xx_hal_hcd.c **** /**
   2:./Libraries/STM32F4xx_HAL_Driver/Src/stm32f4xx_hal_hcd.c ****   ******************************************************************************
   3:./Libraries/STM32F4xx_HAL_Driver/Src/stm32f4xx_hal_hcd.c ****   * @file    stm32f4xx_hal_hcd.c
   4:./Libraries/STM32F4xx_HAL_Driver/Src/stm32f4xx_hal_hcd.c ****   * @author  MCD Application Team
   5:./Libraries/STM32F4xx_HAL_Driver/Src/stm32f4xx_hal_hcd.c ****   * @brief   HCD HAL module driver.
   6:./Libraries/STM32F4xx_HAL_Driver/Src/stm32f4xx_hal_hcd.c ****   *          This file provides firmware functions to manage the following 
   7:./Libraries/STM32F4xx_HAL_Driver/Src/stm32f4xx_hal_hcd.c ****   *          functionalities of the USB Peripheral Controller:
   8:./Libraries/STM32F4xx_HAL_Driver/Src/stm32f4xx_hal_hcd.c ****   *           + Initialization and de-initialization functions
   9:./Libraries/STM32F4xx_HAL_Driver/Src/stm32f4xx_hal_hcd.c ****   *           + IO operation functions
  10:./Libraries/STM32F4xx_HAL_Driver/Src/stm32f4xx_hal_hcd.c ****   *           + Peripheral Control functions 
  11:./Libraries/STM32F4xx_HAL_Driver/Src/stm32f4xx_hal_hcd.c ****   *           + Peripheral State functions
  12:./Libraries/STM32F4xx_HAL_Driver/Src/stm32f4xx_hal_hcd.c ****   *         
  13:./Libraries/STM32F4xx_HAL_Driver/Src/stm32f4xx_hal_hcd.c ****   @verbatim
  14:./Libraries/STM32F4xx_HAL_Driver/Src/stm32f4xx_hal_hcd.c ****   ==============================================================================
  15:./Libraries/STM32F4xx_HAL_Driver/Src/stm32f4xx_hal_hcd.c ****                     ##### How to use this driver #####
  16:./Libraries/STM32F4xx_HAL_Driver/Src/stm32f4xx_hal_hcd.c ****   ==============================================================================
  17:./Libraries/STM32F4xx_HAL_Driver/Src/stm32f4xx_hal_hcd.c ****   [..]
  18:./Libraries/STM32F4xx_HAL_Driver/Src/stm32f4xx_hal_hcd.c ****     (#)Declare a HCD_HandleTypeDef handle structure, for example:
  19:./Libraries/STM32F4xx_HAL_Driver/Src/stm32f4xx_hal_hcd.c ****        HCD_HandleTypeDef  hhcd;
  20:./Libraries/STM32F4xx_HAL_Driver/Src/stm32f4xx_hal_hcd.c ****         
  21:./Libraries/STM32F4xx_HAL_Driver/Src/stm32f4xx_hal_hcd.c ****     (#)Fill parameters of Init structure in HCD handle
  22:./Libraries/STM32F4xx_HAL_Driver/Src/stm32f4xx_hal_hcd.c ****   
  23:./Libraries/STM32F4xx_HAL_Driver/Src/stm32f4xx_hal_hcd.c ****     (#)Call HAL_HCD_Init() API to initialize the HCD peripheral (Core, Host core, ...) 
  24:./Libraries/STM32F4xx_HAL_Driver/Src/stm32f4xx_hal_hcd.c **** 
  25:./Libraries/STM32F4xx_HAL_Driver/Src/stm32f4xx_hal_hcd.c ****     (#)Initialize the HCD low level resources through the HAL_HCD_MspInit() API:
  26:./Libraries/STM32F4xx_HAL_Driver/Src/stm32f4xx_hal_hcd.c ****         (##) Enable the HCD/USB Low Level interface clock using the following macros
  27:./Libraries/STM32F4xx_HAL_Driver/Src/stm32f4xx_hal_hcd.c ****              (+++) __HAL_RCC_USB_OTG_FS_CLK_ENABLE();
  28:./Libraries/STM32F4xx_HAL_Driver/Src/stm32f4xx_hal_hcd.c ****              (+++) __HAL_RCC_USB_OTG_HS_CLK_ENABLE(); (For High Speed Mode)
  29:./Libraries/STM32F4xx_HAL_Driver/Src/stm32f4xx_hal_hcd.c ****              (+++) __HAL_RCC_USB_OTG_HS_ULPI_CLK_ENABLE(); (For High Speed Mode)
  30:./Libraries/STM32F4xx_HAL_Driver/Src/stm32f4xx_hal_hcd.c ****            
ARM GAS  /tmp/ccYHp8fH.s 			page 2


  31:./Libraries/STM32F4xx_HAL_Driver/Src/stm32f4xx_hal_hcd.c ****         (##) Initialize the related GPIO clocks
  32:./Libraries/STM32F4xx_HAL_Driver/Src/stm32f4xx_hal_hcd.c ****         (##) Configure HCD pin-out
  33:./Libraries/STM32F4xx_HAL_Driver/Src/stm32f4xx_hal_hcd.c ****         (##) Configure HCD NVIC interrupt
  34:./Libraries/STM32F4xx_HAL_Driver/Src/stm32f4xx_hal_hcd.c ****     
  35:./Libraries/STM32F4xx_HAL_Driver/Src/stm32f4xx_hal_hcd.c ****     (#)Associate the Upper USB Host stack to the HAL HCD Driver:
  36:./Libraries/STM32F4xx_HAL_Driver/Src/stm32f4xx_hal_hcd.c ****         (##) hhcd.pData = phost;
  37:./Libraries/STM32F4xx_HAL_Driver/Src/stm32f4xx_hal_hcd.c **** 
  38:./Libraries/STM32F4xx_HAL_Driver/Src/stm32f4xx_hal_hcd.c ****     (#)Enable HCD transmission and reception:
  39:./Libraries/STM32F4xx_HAL_Driver/Src/stm32f4xx_hal_hcd.c ****         (##) HAL_HCD_Start();
  40:./Libraries/STM32F4xx_HAL_Driver/Src/stm32f4xx_hal_hcd.c **** 
  41:./Libraries/STM32F4xx_HAL_Driver/Src/stm32f4xx_hal_hcd.c ****   @endverbatim
  42:./Libraries/STM32F4xx_HAL_Driver/Src/stm32f4xx_hal_hcd.c ****   ******************************************************************************
  43:./Libraries/STM32F4xx_HAL_Driver/Src/stm32f4xx_hal_hcd.c ****   * @attention
  44:./Libraries/STM32F4xx_HAL_Driver/Src/stm32f4xx_hal_hcd.c ****   *
  45:./Libraries/STM32F4xx_HAL_Driver/Src/stm32f4xx_hal_hcd.c ****   * <h2><center>&copy; COPYRIGHT(c) 2017 STMicroelectronics</center></h2>
  46:./Libraries/STM32F4xx_HAL_Driver/Src/stm32f4xx_hal_hcd.c ****   *
  47:./Libraries/STM32F4xx_HAL_Driver/Src/stm32f4xx_hal_hcd.c ****   * Redistribution and use in source and binary forms, with or without modification,
  48:./Libraries/STM32F4xx_HAL_Driver/Src/stm32f4xx_hal_hcd.c ****   * are permitted provided that the following conditions are met:
  49:./Libraries/STM32F4xx_HAL_Driver/Src/stm32f4xx_hal_hcd.c ****   *   1. Redistributions of source code must retain the above copyright notice,
  50:./Libraries/STM32F4xx_HAL_Driver/Src/stm32f4xx_hal_hcd.c ****   *      this list of conditions and the following disclaimer.
  51:./Libraries/STM32F4xx_HAL_Driver/Src/stm32f4xx_hal_hcd.c ****   *   2. Redistributions in binary form must reproduce the above copyright notice,
  52:./Libraries/STM32F4xx_HAL_Driver/Src/stm32f4xx_hal_hcd.c ****   *      this list of conditions and the following disclaimer in the documentation
  53:./Libraries/STM32F4xx_HAL_Driver/Src/stm32f4xx_hal_hcd.c ****   *      and/or other materials provided with the distribution.
  54:./Libraries/STM32F4xx_HAL_Driver/Src/stm32f4xx_hal_hcd.c ****   *   3. Neither the name of STMicroelectronics nor the names of its contributors
  55:./Libraries/STM32F4xx_HAL_Driver/Src/stm32f4xx_hal_hcd.c ****   *      may be used to endorse or promote products derived from this software
  56:./Libraries/STM32F4xx_HAL_Driver/Src/stm32f4xx_hal_hcd.c ****   *      without specific prior written permission.
  57:./Libraries/STM32F4xx_HAL_Driver/Src/stm32f4xx_hal_hcd.c ****   *
  58:./Libraries/STM32F4xx_HAL_Driver/Src/stm32f4xx_hal_hcd.c ****   * THIS SOFTWARE IS PROVIDED BY THE COPYRIGHT HOLDERS AND CONTRIBUTORS "AS IS"
  59:./Libraries/STM32F4xx_HAL_Driver/Src/stm32f4xx_hal_hcd.c ****   * AND ANY EXPRESS OR IMPLIED WARRANTIES, INCLUDING, BUT NOT LIMITED TO, THE
  60:./Libraries/STM32F4xx_HAL_Driver/Src/stm32f4xx_hal_hcd.c ****   * IMPLIED WARRANTIES OF MERCHANTABILITY AND FITNESS FOR A PARTICULAR PURPOSE ARE
  61:./Libraries/STM32F4xx_HAL_Driver/Src/stm32f4xx_hal_hcd.c ****   * DISCLAIMED. IN NO EVENT SHALL THE COPYRIGHT HOLDER OR CONTRIBUTORS BE LIABLE
  62:./Libraries/STM32F4xx_HAL_Driver/Src/stm32f4xx_hal_hcd.c ****   * FOR ANY DIRECT, INDIRECT, INCIDENTAL, SPECIAL, EXEMPLARY, OR CONSEQUENTIAL
  63:./Libraries/STM32F4xx_HAL_Driver/Src/stm32f4xx_hal_hcd.c ****   * DAMAGES (INCLUDING, BUT NOT LIMITED TO, PROCUREMENT OF SUBSTITUTE GOODS OR
  64:./Libraries/STM32F4xx_HAL_Driver/Src/stm32f4xx_hal_hcd.c ****   * SERVICES; LOSS OF USE, DATA, OR PROFITS; OR BUSINESS INTERRUPTION) HOWEVER
  65:./Libraries/STM32F4xx_HAL_Driver/Src/stm32f4xx_hal_hcd.c ****   * CAUSED AND ON ANY THEORY OF LIABILITY, WHETHER IN CONTRACT, STRICT LIABILITY,
  66:./Libraries/STM32F4xx_HAL_Driver/Src/stm32f4xx_hal_hcd.c ****   * OR TORT (INCLUDING NEGLIGENCE OR OTHERWISE) ARISING IN ANY WAY OUT OF THE USE
  67:./Libraries/STM32F4xx_HAL_Driver/Src/stm32f4xx_hal_hcd.c ****   * OF THIS SOFTWARE, EVEN IF ADVISED OF THE POSSIBILITY OF SUCH DAMAGE.
  68:./Libraries/STM32F4xx_HAL_Driver/Src/stm32f4xx_hal_hcd.c ****   *
  69:./Libraries/STM32F4xx_HAL_Driver/Src/stm32f4xx_hal_hcd.c ****   ******************************************************************************
  70:./Libraries/STM32F4xx_HAL_Driver/Src/stm32f4xx_hal_hcd.c ****   */ 
  71:./Libraries/STM32F4xx_HAL_Driver/Src/stm32f4xx_hal_hcd.c **** 
  72:./Libraries/STM32F4xx_HAL_Driver/Src/stm32f4xx_hal_hcd.c **** /* Includes ------------------------------------------------------------------*/
  73:./Libraries/STM32F4xx_HAL_Driver/Src/stm32f4xx_hal_hcd.c **** #include "stm32f4xx_hal.h"
  74:./Libraries/STM32F4xx_HAL_Driver/Src/stm32f4xx_hal_hcd.c **** 
  75:./Libraries/STM32F4xx_HAL_Driver/Src/stm32f4xx_hal_hcd.c **** /** @addtogroup STM32F4xx_HAL_Driver
  76:./Libraries/STM32F4xx_HAL_Driver/Src/stm32f4xx_hal_hcd.c ****   * @{
  77:./Libraries/STM32F4xx_HAL_Driver/Src/stm32f4xx_hal_hcd.c ****   */
  78:./Libraries/STM32F4xx_HAL_Driver/Src/stm32f4xx_hal_hcd.c **** 
  79:./Libraries/STM32F4xx_HAL_Driver/Src/stm32f4xx_hal_hcd.c **** /** @defgroup HCD HCD 
  80:./Libraries/STM32F4xx_HAL_Driver/Src/stm32f4xx_hal_hcd.c ****   * @brief HCD HAL module driver
  81:./Libraries/STM32F4xx_HAL_Driver/Src/stm32f4xx_hal_hcd.c ****   * @{
  82:./Libraries/STM32F4xx_HAL_Driver/Src/stm32f4xx_hal_hcd.c ****   */
  83:./Libraries/STM32F4xx_HAL_Driver/Src/stm32f4xx_hal_hcd.c **** 
  84:./Libraries/STM32F4xx_HAL_Driver/Src/stm32f4xx_hal_hcd.c **** #ifdef HAL_HCD_MODULE_ENABLED
  85:./Libraries/STM32F4xx_HAL_Driver/Src/stm32f4xx_hal_hcd.c **** #if defined(STM32F405xx) || defined(STM32F415xx) || defined(STM32F407xx) || defined(STM32F417xx) ||
  86:./Libraries/STM32F4xx_HAL_Driver/Src/stm32f4xx_hal_hcd.c ****     defined(STM32F427xx) || defined(STM32F437xx) || defined(STM32F429xx) || defined(STM32F439xx) ||
  87:./Libraries/STM32F4xx_HAL_Driver/Src/stm32f4xx_hal_hcd.c ****     defined(STM32F401xC) || defined(STM32F401xE) || defined(STM32F411xE) || defined(STM32F446xx) ||
ARM GAS  /tmp/ccYHp8fH.s 			page 3


  88:./Libraries/STM32F4xx_HAL_Driver/Src/stm32f4xx_hal_hcd.c ****     defined(STM32F469xx) || defined(STM32F479xx) || defined(STM32F412Zx) || defined(STM32F412Vx) ||
  89:./Libraries/STM32F4xx_HAL_Driver/Src/stm32f4xx_hal_hcd.c ****     defined(STM32F412Rx) || defined(STM32F412Cx) || defined(STM32F413xx) || defined(STM32F423xx)
  90:./Libraries/STM32F4xx_HAL_Driver/Src/stm32f4xx_hal_hcd.c **** /* Private typedef -----------------------------------------------------------*/
  91:./Libraries/STM32F4xx_HAL_Driver/Src/stm32f4xx_hal_hcd.c **** /* Private define ------------------------------------------------------------*/
  92:./Libraries/STM32F4xx_HAL_Driver/Src/stm32f4xx_hal_hcd.c **** /* Private macro -------------------------------------------------------------*/
  93:./Libraries/STM32F4xx_HAL_Driver/Src/stm32f4xx_hal_hcd.c **** /* Private variables ---------------------------------------------------------*/
  94:./Libraries/STM32F4xx_HAL_Driver/Src/stm32f4xx_hal_hcd.c **** /* Private function prototypes -----------------------------------------------*/
  95:./Libraries/STM32F4xx_HAL_Driver/Src/stm32f4xx_hal_hcd.c **** /** @defgroup HCD_Private_Functions HCD Private Functions
  96:./Libraries/STM32F4xx_HAL_Driver/Src/stm32f4xx_hal_hcd.c ****   * @{
  97:./Libraries/STM32F4xx_HAL_Driver/Src/stm32f4xx_hal_hcd.c ****   */
  98:./Libraries/STM32F4xx_HAL_Driver/Src/stm32f4xx_hal_hcd.c **** static void HCD_HC_IN_IRQHandler(HCD_HandleTypeDef *hhcd, uint8_t chnum);
  99:./Libraries/STM32F4xx_HAL_Driver/Src/stm32f4xx_hal_hcd.c **** static void HCD_HC_OUT_IRQHandler(HCD_HandleTypeDef *hhcd, uint8_t chnum); 
 100:./Libraries/STM32F4xx_HAL_Driver/Src/stm32f4xx_hal_hcd.c **** static void HCD_RXQLVL_IRQHandler(HCD_HandleTypeDef *hhcd);
 101:./Libraries/STM32F4xx_HAL_Driver/Src/stm32f4xx_hal_hcd.c **** static void HCD_Port_IRQHandler(HCD_HandleTypeDef *hhcd);
 102:./Libraries/STM32F4xx_HAL_Driver/Src/stm32f4xx_hal_hcd.c **** /**
 103:./Libraries/STM32F4xx_HAL_Driver/Src/stm32f4xx_hal_hcd.c ****   * @}
 104:./Libraries/STM32F4xx_HAL_Driver/Src/stm32f4xx_hal_hcd.c ****   */
 105:./Libraries/STM32F4xx_HAL_Driver/Src/stm32f4xx_hal_hcd.c **** 
 106:./Libraries/STM32F4xx_HAL_Driver/Src/stm32f4xx_hal_hcd.c **** /* Exported functions --------------------------------------------------------*/
 107:./Libraries/STM32F4xx_HAL_Driver/Src/stm32f4xx_hal_hcd.c **** /** @defgroup HCD_Exported_Functions HCD Exported Functions
 108:./Libraries/STM32F4xx_HAL_Driver/Src/stm32f4xx_hal_hcd.c ****   * @{
 109:./Libraries/STM32F4xx_HAL_Driver/Src/stm32f4xx_hal_hcd.c ****   */
 110:./Libraries/STM32F4xx_HAL_Driver/Src/stm32f4xx_hal_hcd.c **** 
 111:./Libraries/STM32F4xx_HAL_Driver/Src/stm32f4xx_hal_hcd.c **** /** @defgroup HCD_Exported_Functions_Group1 Initialization and de-initialization functions 
 112:./Libraries/STM32F4xx_HAL_Driver/Src/stm32f4xx_hal_hcd.c ****  *  @brief    Initialization and Configuration functions 
 113:./Libraries/STM32F4xx_HAL_Driver/Src/stm32f4xx_hal_hcd.c ****  *
 114:./Libraries/STM32F4xx_HAL_Driver/Src/stm32f4xx_hal_hcd.c **** @verbatim     
 115:./Libraries/STM32F4xx_HAL_Driver/Src/stm32f4xx_hal_hcd.c ****  ===============================================================================
 116:./Libraries/STM32F4xx_HAL_Driver/Src/stm32f4xx_hal_hcd.c ****           ##### Initialization and de-initialization functions #####
 117:./Libraries/STM32F4xx_HAL_Driver/Src/stm32f4xx_hal_hcd.c ****  ===============================================================================
 118:./Libraries/STM32F4xx_HAL_Driver/Src/stm32f4xx_hal_hcd.c ****     [..]  This section provides functions allowing to:
 119:./Libraries/STM32F4xx_HAL_Driver/Src/stm32f4xx_hal_hcd.c ****  
 120:./Libraries/STM32F4xx_HAL_Driver/Src/stm32f4xx_hal_hcd.c **** @endverbatim
 121:./Libraries/STM32F4xx_HAL_Driver/Src/stm32f4xx_hal_hcd.c ****   * @{
 122:./Libraries/STM32F4xx_HAL_Driver/Src/stm32f4xx_hal_hcd.c ****   */
 123:./Libraries/STM32F4xx_HAL_Driver/Src/stm32f4xx_hal_hcd.c **** 
 124:./Libraries/STM32F4xx_HAL_Driver/Src/stm32f4xx_hal_hcd.c **** /**
 125:./Libraries/STM32F4xx_HAL_Driver/Src/stm32f4xx_hal_hcd.c ****   * @brief  Initialize the host driver.
 126:./Libraries/STM32F4xx_HAL_Driver/Src/stm32f4xx_hal_hcd.c ****   * @param  hhcd HCD handle
 127:./Libraries/STM32F4xx_HAL_Driver/Src/stm32f4xx_hal_hcd.c ****   * @retval HAL status
 128:./Libraries/STM32F4xx_HAL_Driver/Src/stm32f4xx_hal_hcd.c ****   */
 129:./Libraries/STM32F4xx_HAL_Driver/Src/stm32f4xx_hal_hcd.c **** HAL_StatusTypeDef HAL_HCD_Init(HCD_HandleTypeDef *hhcd)
 130:./Libraries/STM32F4xx_HAL_Driver/Src/stm32f4xx_hal_hcd.c **** { 
  29              		.loc 1 130 1
  30              		.cfi_startproc
  31              		@ args = 0, pretend = 0, frame = 8
  32              		@ frame_needed = 1, uses_anonymous_args = 0
  33 0000 F0B5     		push	{r4, r5, r6, r7, lr}
  34              	.LCFI0:
  35              		.cfi_def_cfa_offset 20
  36              		.cfi_offset 4, -20
  37              		.cfi_offset 5, -16
  38              		.cfi_offset 6, -12
  39              		.cfi_offset 7, -8
  40              		.cfi_offset 14, -4
  41 0002 8DB0     		sub	sp, sp, #52
  42              	.LCFI1:
ARM GAS  /tmp/ccYHp8fH.s 			page 4


  43              		.cfi_def_cfa_offset 72
  44 0004 0AAF     		add	r7, sp, #40
  45              	.LCFI2:
  46              		.cfi_def_cfa 7, 32
  47 0006 7860     		str	r0, [r7, #4]
 131:./Libraries/STM32F4xx_HAL_Driver/Src/stm32f4xx_hal_hcd.c ****   /* Check the HCD handle allocation */
 132:./Libraries/STM32F4xx_HAL_Driver/Src/stm32f4xx_hal_hcd.c ****   if(hhcd == NULL)
  48              		.loc 1 132 5
  49 0008 7B68     		ldr	r3, [r7, #4]
  50 000a 002B     		cmp	r3, #0
  51 000c 01D1     		bne	.L2
 133:./Libraries/STM32F4xx_HAL_Driver/Src/stm32f4xx_hal_hcd.c ****   {
 134:./Libraries/STM32F4xx_HAL_Driver/Src/stm32f4xx_hal_hcd.c ****     return HAL_ERROR;
  52              		.loc 1 134 12
  53 000e 0123     		movs	r3, #1
  54 0010 3EE0     		b	.L3
  55              	.L2:
 135:./Libraries/STM32F4xx_HAL_Driver/Src/stm32f4xx_hal_hcd.c ****   }
 136:./Libraries/STM32F4xx_HAL_Driver/Src/stm32f4xx_hal_hcd.c ****   
 137:./Libraries/STM32F4xx_HAL_Driver/Src/stm32f4xx_hal_hcd.c ****   /* Check the parameters */
 138:./Libraries/STM32F4xx_HAL_Driver/Src/stm32f4xx_hal_hcd.c ****   assert_param(IS_HCD_ALL_INSTANCE(hhcd->Instance));
 139:./Libraries/STM32F4xx_HAL_Driver/Src/stm32f4xx_hal_hcd.c ****   
 140:./Libraries/STM32F4xx_HAL_Driver/Src/stm32f4xx_hal_hcd.c ****   hhcd->State = HAL_HCD_STATE_BUSY;
  56              		.loc 1 140 15
  57 0012 7B68     		ldr	r3, [r7, #4]
  58 0014 0322     		movs	r2, #3
  59 0016 83F89122 		strb	r2, [r3, #657]
 141:./Libraries/STM32F4xx_HAL_Driver/Src/stm32f4xx_hal_hcd.c ****   
 142:./Libraries/STM32F4xx_HAL_Driver/Src/stm32f4xx_hal_hcd.c ****   /* Init the low level hardware : GPIO, CLOCK, NVIC... */
 143:./Libraries/STM32F4xx_HAL_Driver/Src/stm32f4xx_hal_hcd.c ****   HAL_HCD_MspInit(hhcd);
  60              		.loc 1 143 3
  61 001a 7868     		ldr	r0, [r7, #4]
  62 001c FFF7FEFF 		bl	HAL_HCD_MspInit
 144:./Libraries/STM32F4xx_HAL_Driver/Src/stm32f4xx_hal_hcd.c ****   
 145:./Libraries/STM32F4xx_HAL_Driver/Src/stm32f4xx_hal_hcd.c ****   /* Disable the Interrupts */
 146:./Libraries/STM32F4xx_HAL_Driver/Src/stm32f4xx_hal_hcd.c ****   __HAL_HCD_DISABLE(hhcd);
  63              		.loc 1 146 3
  64 0020 7B68     		ldr	r3, [r7, #4]
  65 0022 1B68     		ldr	r3, [r3]
  66 0024 1846     		mov	r0, r3
  67 0026 FFF7FEFF 		bl	USB_DisableGlobalInt
 147:./Libraries/STM32F4xx_HAL_Driver/Src/stm32f4xx_hal_hcd.c ****   
 148:./Libraries/STM32F4xx_HAL_Driver/Src/stm32f4xx_hal_hcd.c ****   /* Init the Core (common init.) */
 149:./Libraries/STM32F4xx_HAL_Driver/Src/stm32f4xx_hal_hcd.c ****   USB_CoreInit(hhcd->Instance, hhcd->Init);
  68              		.loc 1 149 20
  69 002a 7B68     		ldr	r3, [r7, #4]
  70 002c 1B68     		ldr	r3, [r3]
  71 002e 3B60     		str	r3, [r7]
  72              		.loc 1 149 3
  73 0030 7E68     		ldr	r6, [r7, #4]
  74 0032 6D46     		mov	r5, sp
  75 0034 06F11004 		add	r4, r6, #16
  76 0038 0FCC     		ldmia	r4!, {r0, r1, r2, r3}
  77 003a 0FC5     		stmia	r5!, {r0, r1, r2, r3}
  78 003c 0FCC     		ldmia	r4!, {r0, r1, r2, r3}
  79 003e 0FC5     		stmia	r5!, {r0, r1, r2, r3}
  80 0040 94E80300 		ldm	r4, {r0, r1}
ARM GAS  /tmp/ccYHp8fH.s 			page 5


  81 0044 85E80300 		stm	r5, {r0, r1}
  82 0048 331D     		adds	r3, r6, #4
  83 004a 0ECB     		ldm	r3, {r1, r2, r3}
  84 004c 3868     		ldr	r0, [r7]
  85 004e FFF7FEFF 		bl	USB_CoreInit
 150:./Libraries/STM32F4xx_HAL_Driver/Src/stm32f4xx_hal_hcd.c ****   
 151:./Libraries/STM32F4xx_HAL_Driver/Src/stm32f4xx_hal_hcd.c ****   /* Force Host Mode*/
 152:./Libraries/STM32F4xx_HAL_Driver/Src/stm32f4xx_hal_hcd.c ****   USB_SetCurrentMode(hhcd->Instance , USB_OTG_HOST_MODE);
  86              		.loc 1 152 26
  87 0052 7B68     		ldr	r3, [r7, #4]
  88 0054 1B68     		ldr	r3, [r3]
  89              		.loc 1 152 3
  90 0056 0121     		movs	r1, #1
  91 0058 1846     		mov	r0, r3
  92 005a FFF7FEFF 		bl	USB_SetCurrentMode
 153:./Libraries/STM32F4xx_HAL_Driver/Src/stm32f4xx_hal_hcd.c ****   
 154:./Libraries/STM32F4xx_HAL_Driver/Src/stm32f4xx_hal_hcd.c ****   /* Init Host */
 155:./Libraries/STM32F4xx_HAL_Driver/Src/stm32f4xx_hal_hcd.c ****   USB_HostInit(hhcd->Instance, hhcd->Init);
  93              		.loc 1 155 20
  94 005e 7B68     		ldr	r3, [r7, #4]
  95 0060 1B68     		ldr	r3, [r3]
  96 0062 3B60     		str	r3, [r7]
  97              		.loc 1 155 3
  98 0064 7E68     		ldr	r6, [r7, #4]
  99 0066 6D46     		mov	r5, sp
 100 0068 06F11004 		add	r4, r6, #16
 101 006c 0FCC     		ldmia	r4!, {r0, r1, r2, r3}
 102 006e 0FC5     		stmia	r5!, {r0, r1, r2, r3}
 103 0070 0FCC     		ldmia	r4!, {r0, r1, r2, r3}
 104 0072 0FC5     		stmia	r5!, {r0, r1, r2, r3}
 105 0074 94E80300 		ldm	r4, {r0, r1}
 106 0078 85E80300 		stm	r5, {r0, r1}
 107 007c 331D     		adds	r3, r6, #4
 108 007e 0ECB     		ldm	r3, {r1, r2, r3}
 109 0080 3868     		ldr	r0, [r7]
 110 0082 FFF7FEFF 		bl	USB_HostInit
 156:./Libraries/STM32F4xx_HAL_Driver/Src/stm32f4xx_hal_hcd.c ****   
 157:./Libraries/STM32F4xx_HAL_Driver/Src/stm32f4xx_hal_hcd.c ****   hhcd->State= HAL_HCD_STATE_READY;
 111              		.loc 1 157 14
 112 0086 7B68     		ldr	r3, [r7, #4]
 113 0088 0122     		movs	r2, #1
 114 008a 83F89122 		strb	r2, [r3, #657]
 158:./Libraries/STM32F4xx_HAL_Driver/Src/stm32f4xx_hal_hcd.c ****   
 159:./Libraries/STM32F4xx_HAL_Driver/Src/stm32f4xx_hal_hcd.c ****   return HAL_OK;
 115              		.loc 1 159 10
 116 008e 0023     		movs	r3, #0
 117              	.L3:
 160:./Libraries/STM32F4xx_HAL_Driver/Src/stm32f4xx_hal_hcd.c **** }
 118              		.loc 1 160 1
 119 0090 1846     		mov	r0, r3
 120 0092 0C37     		adds	r7, r7, #12
 121              	.LCFI3:
 122              		.cfi_def_cfa_offset 20
 123 0094 BD46     		mov	sp, r7
 124              	.LCFI4:
 125              		.cfi_def_cfa_register 13
 126              		@ sp needed
ARM GAS  /tmp/ccYHp8fH.s 			page 6


 127 0096 F0BD     		pop	{r4, r5, r6, r7, pc}
 128              		.cfi_endproc
 129              	.LFE126:
 131              		.section	.text.HAL_HCD_HC_Init,"ax",%progbits
 132              		.align	1
 133              		.global	HAL_HCD_HC_Init
 134              		.syntax unified
 135              		.thumb
 136              		.thumb_func
 137              		.fpu fpv4-sp-d16
 139              	HAL_HCD_HC_Init:
 140              	.LFB127:
 161:./Libraries/STM32F4xx_HAL_Driver/Src/stm32f4xx_hal_hcd.c **** 
 162:./Libraries/STM32F4xx_HAL_Driver/Src/stm32f4xx_hal_hcd.c **** /**
 163:./Libraries/STM32F4xx_HAL_Driver/Src/stm32f4xx_hal_hcd.c ****   * @brief  Initialize a host channel.
 164:./Libraries/STM32F4xx_HAL_Driver/Src/stm32f4xx_hal_hcd.c ****   * @param  hhcd HCD handle
 165:./Libraries/STM32F4xx_HAL_Driver/Src/stm32f4xx_hal_hcd.c ****   * @param  ch_num Channel number.
 166:./Libraries/STM32F4xx_HAL_Driver/Src/stm32f4xx_hal_hcd.c ****   *         This parameter can be a value from 1 to 15
 167:./Libraries/STM32F4xx_HAL_Driver/Src/stm32f4xx_hal_hcd.c ****   * @param  epnum Endpoint number.
 168:./Libraries/STM32F4xx_HAL_Driver/Src/stm32f4xx_hal_hcd.c ****   *          This parameter can be a value from 1 to 15
 169:./Libraries/STM32F4xx_HAL_Driver/Src/stm32f4xx_hal_hcd.c ****   * @param  dev_address  Current device address
 170:./Libraries/STM32F4xx_HAL_Driver/Src/stm32f4xx_hal_hcd.c ****   *          This parameter can be a value from 0 to 255
 171:./Libraries/STM32F4xx_HAL_Driver/Src/stm32f4xx_hal_hcd.c ****   * @param  speed Current device speed.
 172:./Libraries/STM32F4xx_HAL_Driver/Src/stm32f4xx_hal_hcd.c ****   *          This parameter can be one of these values:
 173:./Libraries/STM32F4xx_HAL_Driver/Src/stm32f4xx_hal_hcd.c ****   *            HCD_SPEED_HIGH: High speed mode,
 174:./Libraries/STM32F4xx_HAL_Driver/Src/stm32f4xx_hal_hcd.c ****   *            HCD_SPEED_FULL: Full speed mode,
 175:./Libraries/STM32F4xx_HAL_Driver/Src/stm32f4xx_hal_hcd.c ****   *            HCD_SPEED_LOW: Low speed mode
 176:./Libraries/STM32F4xx_HAL_Driver/Src/stm32f4xx_hal_hcd.c ****   * @param  ep_type Endpoint Type.
 177:./Libraries/STM32F4xx_HAL_Driver/Src/stm32f4xx_hal_hcd.c ****   *          This parameter can be one of these values:
 178:./Libraries/STM32F4xx_HAL_Driver/Src/stm32f4xx_hal_hcd.c ****   *            EP_TYPE_CTRL: Control type,
 179:./Libraries/STM32F4xx_HAL_Driver/Src/stm32f4xx_hal_hcd.c ****   *            EP_TYPE_ISOC: Isochronous type,
 180:./Libraries/STM32F4xx_HAL_Driver/Src/stm32f4xx_hal_hcd.c ****   *            EP_TYPE_BULK: Bulk type,
 181:./Libraries/STM32F4xx_HAL_Driver/Src/stm32f4xx_hal_hcd.c ****   *            EP_TYPE_INTR: Interrupt type
 182:./Libraries/STM32F4xx_HAL_Driver/Src/stm32f4xx_hal_hcd.c ****   * @param  mps Max Packet Size.
 183:./Libraries/STM32F4xx_HAL_Driver/Src/stm32f4xx_hal_hcd.c ****   *          This parameter can be a value from 0 to32K
 184:./Libraries/STM32F4xx_HAL_Driver/Src/stm32f4xx_hal_hcd.c ****   * @retval HAL status
 185:./Libraries/STM32F4xx_HAL_Driver/Src/stm32f4xx_hal_hcd.c ****   */
 186:./Libraries/STM32F4xx_HAL_Driver/Src/stm32f4xx_hal_hcd.c **** HAL_StatusTypeDef HAL_HCD_HC_Init(HCD_HandleTypeDef *hhcd,  
 187:./Libraries/STM32F4xx_HAL_Driver/Src/stm32f4xx_hal_hcd.c ****                                   uint8_t ch_num,
 188:./Libraries/STM32F4xx_HAL_Driver/Src/stm32f4xx_hal_hcd.c ****                                   uint8_t epnum,
 189:./Libraries/STM32F4xx_HAL_Driver/Src/stm32f4xx_hal_hcd.c ****                                   uint8_t dev_address,
 190:./Libraries/STM32F4xx_HAL_Driver/Src/stm32f4xx_hal_hcd.c ****                                   uint8_t speed,
 191:./Libraries/STM32F4xx_HAL_Driver/Src/stm32f4xx_hal_hcd.c ****                                   uint8_t ep_type,
 192:./Libraries/STM32F4xx_HAL_Driver/Src/stm32f4xx_hal_hcd.c ****                                   uint16_t mps)
 193:./Libraries/STM32F4xx_HAL_Driver/Src/stm32f4xx_hal_hcd.c **** {
 141              		.loc 1 193 1
 142              		.cfi_startproc
 143              		@ args = 12, pretend = 0, frame = 16
 144              		@ frame_needed = 1, uses_anonymous_args = 0
 145 0000 90B5     		push	{r4, r7, lr}
 146              	.LCFI5:
 147              		.cfi_def_cfa_offset 12
 148              		.cfi_offset 4, -12
 149              		.cfi_offset 7, -8
 150              		.cfi_offset 14, -4
 151 0002 89B0     		sub	sp, sp, #36
 152              	.LCFI6:
ARM GAS  /tmp/ccYHp8fH.s 			page 7


 153              		.cfi_def_cfa_offset 48
 154 0004 04AF     		add	r7, sp, #16
 155              	.LCFI7:
 156              		.cfi_def_cfa 7, 32
 157 0006 7860     		str	r0, [r7, #4]
 158 0008 0846     		mov	r0, r1
 159 000a 1146     		mov	r1, r2
 160 000c 1A46     		mov	r2, r3
 161 000e 0346     		mov	r3, r0
 162 0010 FB70     		strb	r3, [r7, #3]
 163 0012 0B46     		mov	r3, r1
 164 0014 BB70     		strb	r3, [r7, #2]
 165 0016 1346     		mov	r3, r2
 166 0018 7B70     		strb	r3, [r7, #1]
 194:./Libraries/STM32F4xx_HAL_Driver/Src/stm32f4xx_hal_hcd.c ****   HAL_StatusTypeDef status = HAL_OK;
 167              		.loc 1 194 21
 168 001a 0023     		movs	r3, #0
 169 001c FB73     		strb	r3, [r7, #15]
 195:./Libraries/STM32F4xx_HAL_Driver/Src/stm32f4xx_hal_hcd.c ****   
 196:./Libraries/STM32F4xx_HAL_Driver/Src/stm32f4xx_hal_hcd.c ****   __HAL_LOCK(hhcd); 
 170              		.loc 1 196 3
 171 001e 7B68     		ldr	r3, [r7, #4]
 172 0020 93F89032 		ldrb	r3, [r3, #656]	@ zero_extendqisi2
 173 0024 012B     		cmp	r3, #1
 174 0026 01D1     		bne	.L5
 175              		.loc 1 196 3 is_stmt 0 discriminator 1
 176 0028 0223     		movs	r3, #2
 177 002a 6CE0     		b	.L6
 178              	.L5:
 179              		.loc 1 196 3 discriminator 2
 180 002c 7B68     		ldr	r3, [r7, #4]
 181 002e 0122     		movs	r2, #1
 182 0030 83F89022 		strb	r2, [r3, #656]
 197:./Libraries/STM32F4xx_HAL_Driver/Src/stm32f4xx_hal_hcd.c ****   
 198:./Libraries/STM32F4xx_HAL_Driver/Src/stm32f4xx_hal_hcd.c ****   hhcd->hc[ch_num].dev_addr = dev_address;
 183              		.loc 1 198 19 is_stmt 1 discriminator 2
 184 0034 FA78     		ldrb	r2, [r7, #3]	@ zero_extendqisi2
 185              		.loc 1 198 29 discriminator 2
 186 0036 7968     		ldr	r1, [r7, #4]
 187 0038 1346     		mov	r3, r2
 188 003a 9B00     		lsls	r3, r3, #2
 189 003c 1344     		add	r3, r3, r2
 190 003e DB00     		lsls	r3, r3, #3
 191 0040 0B44     		add	r3, r3, r1
 192 0042 3833     		adds	r3, r3, #56
 193 0044 7A78     		ldrb	r2, [r7, #1]
 194 0046 1A70     		strb	r2, [r3]
 199:./Libraries/STM32F4xx_HAL_Driver/Src/stm32f4xx_hal_hcd.c ****   hhcd->hc[ch_num].max_packet = mps;
 195              		.loc 1 199 19 discriminator 2
 196 0048 FA78     		ldrb	r2, [r7, #3]	@ zero_extendqisi2
 197              		.loc 1 199 31 discriminator 2
 198 004a 7968     		ldr	r1, [r7, #4]
 199 004c 1346     		mov	r3, r2
 200 004e 9B00     		lsls	r3, r3, #2
 201 0050 1344     		add	r3, r3, r2
 202 0052 DB00     		lsls	r3, r3, #3
 203 0054 0B44     		add	r3, r3, r1
ARM GAS  /tmp/ccYHp8fH.s 			page 8


 204 0056 4033     		adds	r3, r3, #64
 205 0058 3A8D     		ldrh	r2, [r7, #40]	@ movhi
 206 005a 1A80     		strh	r2, [r3]	@ movhi
 200:./Libraries/STM32F4xx_HAL_Driver/Src/stm32f4xx_hal_hcd.c ****   hhcd->hc[ch_num].ch_num = ch_num;
 207              		.loc 1 200 19 discriminator 2
 208 005c FA78     		ldrb	r2, [r7, #3]	@ zero_extendqisi2
 209              		.loc 1 200 27 discriminator 2
 210 005e 7968     		ldr	r1, [r7, #4]
 211 0060 1346     		mov	r3, r2
 212 0062 9B00     		lsls	r3, r3, #2
 213 0064 1344     		add	r3, r3, r2
 214 0066 DB00     		lsls	r3, r3, #3
 215 0068 0B44     		add	r3, r3, r1
 216 006a 3933     		adds	r3, r3, #57
 217 006c FA78     		ldrb	r2, [r7, #3]
 218 006e 1A70     		strb	r2, [r3]
 201:./Libraries/STM32F4xx_HAL_Driver/Src/stm32f4xx_hal_hcd.c ****   hhcd->hc[ch_num].ep_type = ep_type;
 219              		.loc 1 201 19 discriminator 2
 220 0070 FA78     		ldrb	r2, [r7, #3]	@ zero_extendqisi2
 221              		.loc 1 201 28 discriminator 2
 222 0072 7968     		ldr	r1, [r7, #4]
 223 0074 1346     		mov	r3, r2
 224 0076 9B00     		lsls	r3, r3, #2
 225 0078 1344     		add	r3, r3, r2
 226 007a DB00     		lsls	r3, r3, #3
 227 007c 0B44     		add	r3, r3, r1
 228 007e 3F33     		adds	r3, r3, #63
 229 0080 97F82420 		ldrb	r2, [r7, #36]
 230 0084 1A70     		strb	r2, [r3]
 202:./Libraries/STM32F4xx_HAL_Driver/Src/stm32f4xx_hal_hcd.c ****   hhcd->hc[ch_num].ep_num = epnum & 0x7F;
 231              		.loc 1 202 19 discriminator 2
 232 0086 FA78     		ldrb	r2, [r7, #3]	@ zero_extendqisi2
 233              		.loc 1 202 35 discriminator 2
 234 0088 BB78     		ldrb	r3, [r7, #2]
 235 008a 03F07F03 		and	r3, r3, #127
 236 008e D8B2     		uxtb	r0, r3
 237              		.loc 1 202 27 discriminator 2
 238 0090 7968     		ldr	r1, [r7, #4]
 239 0092 1346     		mov	r3, r2
 240 0094 9B00     		lsls	r3, r3, #2
 241 0096 1344     		add	r3, r3, r2
 242 0098 DB00     		lsls	r3, r3, #3
 243 009a 0B44     		add	r3, r3, r1
 244 009c 3A33     		adds	r3, r3, #58
 245 009e 0246     		mov	r2, r0
 246 00a0 1A70     		strb	r2, [r3]
 203:./Libraries/STM32F4xx_HAL_Driver/Src/stm32f4xx_hal_hcd.c ****   hhcd->hc[ch_num].ep_is_in = ((epnum & 0x80) == 0x80);
 247              		.loc 1 203 47 discriminator 2
 248 00a2 97F90230 		ldrsb	r3, [r7, #2]
 249 00a6 DBB2     		uxtb	r3, r3
 250 00a8 DB09     		lsrs	r3, r3, #7
 251 00aa DBB2     		uxtb	r3, r3
 252              		.loc 1 203 19 discriminator 2
 253 00ac FA78     		ldrb	r2, [r7, #3]	@ zero_extendqisi2
 254              		.loc 1 203 47 discriminator 2
 255 00ae 1846     		mov	r0, r3
 256              		.loc 1 203 29 discriminator 2
ARM GAS  /tmp/ccYHp8fH.s 			page 9


 257 00b0 7968     		ldr	r1, [r7, #4]
 258 00b2 1346     		mov	r3, r2
 259 00b4 9B00     		lsls	r3, r3, #2
 260 00b6 1344     		add	r3, r3, r2
 261 00b8 DB00     		lsls	r3, r3, #3
 262 00ba 0B44     		add	r3, r3, r1
 263 00bc 3B33     		adds	r3, r3, #59
 264 00be 0246     		mov	r2, r0
 265 00c0 1A70     		strb	r2, [r3]
 204:./Libraries/STM32F4xx_HAL_Driver/Src/stm32f4xx_hal_hcd.c ****   hhcd->hc[ch_num].speed = speed;
 266              		.loc 1 204 19 discriminator 2
 267 00c2 FA78     		ldrb	r2, [r7, #3]	@ zero_extendqisi2
 268              		.loc 1 204 26 discriminator 2
 269 00c4 7968     		ldr	r1, [r7, #4]
 270 00c6 1346     		mov	r3, r2
 271 00c8 9B00     		lsls	r3, r3, #2
 272 00ca 1344     		add	r3, r3, r2
 273 00cc DB00     		lsls	r3, r3, #3
 274 00ce 0B44     		add	r3, r3, r1
 275 00d0 3C33     		adds	r3, r3, #60
 276 00d2 97F82020 		ldrb	r2, [r7, #32]
 277 00d6 1A70     		strb	r2, [r3]
 205:./Libraries/STM32F4xx_HAL_Driver/Src/stm32f4xx_hal_hcd.c ****   
 206:./Libraries/STM32F4xx_HAL_Driver/Src/stm32f4xx_hal_hcd.c ****   status =  USB_HC_Init(hhcd->Instance, 
 278              		.loc 1 206 29 discriminator 2
 279 00d8 7B68     		ldr	r3, [r7, #4]
 280 00da 1868     		ldr	r0, [r3]
 281              		.loc 1 206 13 discriminator 2
 282 00dc 7C78     		ldrb	r4, [r7, #1]	@ zero_extendqisi2
 283 00de BA78     		ldrb	r2, [r7, #2]	@ zero_extendqisi2
 284 00e0 F978     		ldrb	r1, [r7, #3]	@ zero_extendqisi2
 285 00e2 3B8D     		ldrh	r3, [r7, #40]
 286 00e4 0293     		str	r3, [sp, #8]
 287 00e6 97F82430 		ldrb	r3, [r7, #36]	@ zero_extendqisi2
 288 00ea 0193     		str	r3, [sp, #4]
 289 00ec 97F82030 		ldrb	r3, [r7, #32]	@ zero_extendqisi2
 290 00f0 0093     		str	r3, [sp]
 291 00f2 2346     		mov	r3, r4
 292 00f4 FFF7FEFF 		bl	USB_HC_Init
 293 00f8 0346     		mov	r3, r0
 294 00fa FB73     		strb	r3, [r7, #15]
 207:./Libraries/STM32F4xx_HAL_Driver/Src/stm32f4xx_hal_hcd.c ****                         ch_num,
 208:./Libraries/STM32F4xx_HAL_Driver/Src/stm32f4xx_hal_hcd.c ****                         epnum,
 209:./Libraries/STM32F4xx_HAL_Driver/Src/stm32f4xx_hal_hcd.c ****                         dev_address,
 210:./Libraries/STM32F4xx_HAL_Driver/Src/stm32f4xx_hal_hcd.c ****                         speed,
 211:./Libraries/STM32F4xx_HAL_Driver/Src/stm32f4xx_hal_hcd.c ****                         ep_type,
 212:./Libraries/STM32F4xx_HAL_Driver/Src/stm32f4xx_hal_hcd.c ****                         mps);
 213:./Libraries/STM32F4xx_HAL_Driver/Src/stm32f4xx_hal_hcd.c ****   __HAL_UNLOCK(hhcd); 
 295              		.loc 1 213 3 discriminator 2
 296 00fc 7B68     		ldr	r3, [r7, #4]
 297 00fe 0022     		movs	r2, #0
 298 0100 83F89022 		strb	r2, [r3, #656]
 214:./Libraries/STM32F4xx_HAL_Driver/Src/stm32f4xx_hal_hcd.c ****   
 215:./Libraries/STM32F4xx_HAL_Driver/Src/stm32f4xx_hal_hcd.c ****   return status;
 299              		.loc 1 215 10 discriminator 2
 300 0104 FB7B     		ldrb	r3, [r7, #15]	@ zero_extendqisi2
 301              	.L6:
ARM GAS  /tmp/ccYHp8fH.s 			page 10


 216:./Libraries/STM32F4xx_HAL_Driver/Src/stm32f4xx_hal_hcd.c **** }
 302              		.loc 1 216 1
 303 0106 1846     		mov	r0, r3
 304 0108 1437     		adds	r7, r7, #20
 305              	.LCFI8:
 306              		.cfi_def_cfa_offset 12
 307 010a BD46     		mov	sp, r7
 308              	.LCFI9:
 309              		.cfi_def_cfa_register 13
 310              		@ sp needed
 311 010c 90BD     		pop	{r4, r7, pc}
 312              		.cfi_endproc
 313              	.LFE127:
 315              		.section	.text.HAL_HCD_HC_Halt,"ax",%progbits
 316              		.align	1
 317              		.global	HAL_HCD_HC_Halt
 318              		.syntax unified
 319              		.thumb
 320              		.thumb_func
 321              		.fpu fpv4-sp-d16
 323              	HAL_HCD_HC_Halt:
 324              	.LFB128:
 217:./Libraries/STM32F4xx_HAL_Driver/Src/stm32f4xx_hal_hcd.c **** 
 218:./Libraries/STM32F4xx_HAL_Driver/Src/stm32f4xx_hal_hcd.c **** /**
 219:./Libraries/STM32F4xx_HAL_Driver/Src/stm32f4xx_hal_hcd.c ****   * @brief  Halt a host channel.
 220:./Libraries/STM32F4xx_HAL_Driver/Src/stm32f4xx_hal_hcd.c ****   * @param  hhcd HCD handle
 221:./Libraries/STM32F4xx_HAL_Driver/Src/stm32f4xx_hal_hcd.c ****   * @param  ch_num Channel number.
 222:./Libraries/STM32F4xx_HAL_Driver/Src/stm32f4xx_hal_hcd.c ****   *         This parameter can be a value from 1 to 15
 223:./Libraries/STM32F4xx_HAL_Driver/Src/stm32f4xx_hal_hcd.c ****   * @retval HAL status
 224:./Libraries/STM32F4xx_HAL_Driver/Src/stm32f4xx_hal_hcd.c ****   */
 225:./Libraries/STM32F4xx_HAL_Driver/Src/stm32f4xx_hal_hcd.c **** HAL_StatusTypeDef HAL_HCD_HC_Halt(HCD_HandleTypeDef *hhcd, uint8_t ch_num)
 226:./Libraries/STM32F4xx_HAL_Driver/Src/stm32f4xx_hal_hcd.c **** {
 325              		.loc 1 226 1
 326              		.cfi_startproc
 327              		@ args = 0, pretend = 0, frame = 16
 328              		@ frame_needed = 1, uses_anonymous_args = 0
 329 0000 80B5     		push	{r7, lr}
 330              	.LCFI10:
 331              		.cfi_def_cfa_offset 8
 332              		.cfi_offset 7, -8
 333              		.cfi_offset 14, -4
 334 0002 84B0     		sub	sp, sp, #16
 335              	.LCFI11:
 336              		.cfi_def_cfa_offset 24
 337 0004 00AF     		add	r7, sp, #0
 338              	.LCFI12:
 339              		.cfi_def_cfa_register 7
 340 0006 7860     		str	r0, [r7, #4]
 341 0008 0B46     		mov	r3, r1
 342 000a FB70     		strb	r3, [r7, #3]
 227:./Libraries/STM32F4xx_HAL_Driver/Src/stm32f4xx_hal_hcd.c ****   HAL_StatusTypeDef status = HAL_OK;
 343              		.loc 1 227 21
 344 000c 0023     		movs	r3, #0
 345 000e FB73     		strb	r3, [r7, #15]
 228:./Libraries/STM32F4xx_HAL_Driver/Src/stm32f4xx_hal_hcd.c ****   
 229:./Libraries/STM32F4xx_HAL_Driver/Src/stm32f4xx_hal_hcd.c ****   __HAL_LOCK(hhcd);   
 346              		.loc 1 229 3
ARM GAS  /tmp/ccYHp8fH.s 			page 11


 347 0010 7B68     		ldr	r3, [r7, #4]
 348 0012 93F89032 		ldrb	r3, [r3, #656]	@ zero_extendqisi2
 349 0016 012B     		cmp	r3, #1
 350 0018 01D1     		bne	.L8
 351              		.loc 1 229 3 is_stmt 0 discriminator 1
 352 001a 0223     		movs	r3, #2
 353 001c 0FE0     		b	.L9
 354              	.L8:
 355              		.loc 1 229 3 discriminator 2
 356 001e 7B68     		ldr	r3, [r7, #4]
 357 0020 0122     		movs	r2, #1
 358 0022 83F89022 		strb	r2, [r3, #656]
 230:./Libraries/STM32F4xx_HAL_Driver/Src/stm32f4xx_hal_hcd.c ****   USB_HC_Halt(hhcd->Instance, ch_num);   
 359              		.loc 1 230 19 is_stmt 1 discriminator 2
 360 0026 7B68     		ldr	r3, [r7, #4]
 361 0028 1B68     		ldr	r3, [r3]
 362              		.loc 1 230 3 discriminator 2
 363 002a FA78     		ldrb	r2, [r7, #3]	@ zero_extendqisi2
 364 002c 1146     		mov	r1, r2
 365 002e 1846     		mov	r0, r3
 366 0030 FFF7FEFF 		bl	USB_HC_Halt
 231:./Libraries/STM32F4xx_HAL_Driver/Src/stm32f4xx_hal_hcd.c ****   __HAL_UNLOCK(hhcd);
 367              		.loc 1 231 3 discriminator 2
 368 0034 7B68     		ldr	r3, [r7, #4]
 369 0036 0022     		movs	r2, #0
 370 0038 83F89022 		strb	r2, [r3, #656]
 232:./Libraries/STM32F4xx_HAL_Driver/Src/stm32f4xx_hal_hcd.c ****   
 233:./Libraries/STM32F4xx_HAL_Driver/Src/stm32f4xx_hal_hcd.c ****   return status;
 371              		.loc 1 233 10 discriminator 2
 372 003c FB7B     		ldrb	r3, [r7, #15]	@ zero_extendqisi2
 373              	.L9:
 234:./Libraries/STM32F4xx_HAL_Driver/Src/stm32f4xx_hal_hcd.c **** }
 374              		.loc 1 234 1
 375 003e 1846     		mov	r0, r3
 376 0040 1037     		adds	r7, r7, #16
 377              	.LCFI13:
 378              		.cfi_def_cfa_offset 8
 379 0042 BD46     		mov	sp, r7
 380              	.LCFI14:
 381              		.cfi_def_cfa_register 13
 382              		@ sp needed
 383 0044 80BD     		pop	{r7, pc}
 384              		.cfi_endproc
 385              	.LFE128:
 387              		.section	.text.HAL_HCD_DeInit,"ax",%progbits
 388              		.align	1
 389              		.global	HAL_HCD_DeInit
 390              		.syntax unified
 391              		.thumb
 392              		.thumb_func
 393              		.fpu fpv4-sp-d16
 395              	HAL_HCD_DeInit:
 396              	.LFB129:
 235:./Libraries/STM32F4xx_HAL_Driver/Src/stm32f4xx_hal_hcd.c **** 
 236:./Libraries/STM32F4xx_HAL_Driver/Src/stm32f4xx_hal_hcd.c **** /**
 237:./Libraries/STM32F4xx_HAL_Driver/Src/stm32f4xx_hal_hcd.c ****   * @brief  DeInitialize the host driver.
 238:./Libraries/STM32F4xx_HAL_Driver/Src/stm32f4xx_hal_hcd.c ****   * @param  hhcd HCD handle
ARM GAS  /tmp/ccYHp8fH.s 			page 12


 239:./Libraries/STM32F4xx_HAL_Driver/Src/stm32f4xx_hal_hcd.c ****   * @retval HAL status
 240:./Libraries/STM32F4xx_HAL_Driver/Src/stm32f4xx_hal_hcd.c ****   */
 241:./Libraries/STM32F4xx_HAL_Driver/Src/stm32f4xx_hal_hcd.c **** HAL_StatusTypeDef HAL_HCD_DeInit(HCD_HandleTypeDef *hhcd)
 242:./Libraries/STM32F4xx_HAL_Driver/Src/stm32f4xx_hal_hcd.c **** {
 397              		.loc 1 242 1
 398              		.cfi_startproc
 399              		@ args = 0, pretend = 0, frame = 8
 400              		@ frame_needed = 1, uses_anonymous_args = 0
 401 0000 80B5     		push	{r7, lr}
 402              	.LCFI15:
 403              		.cfi_def_cfa_offset 8
 404              		.cfi_offset 7, -8
 405              		.cfi_offset 14, -4
 406 0002 82B0     		sub	sp, sp, #8
 407              	.LCFI16:
 408              		.cfi_def_cfa_offset 16
 409 0004 00AF     		add	r7, sp, #0
 410              	.LCFI17:
 411              		.cfi_def_cfa_register 7
 412 0006 7860     		str	r0, [r7, #4]
 243:./Libraries/STM32F4xx_HAL_Driver/Src/stm32f4xx_hal_hcd.c ****   /* Check the HCD handle allocation */
 244:./Libraries/STM32F4xx_HAL_Driver/Src/stm32f4xx_hal_hcd.c ****   if(hhcd == NULL)
 413              		.loc 1 244 5
 414 0008 7B68     		ldr	r3, [r7, #4]
 415 000a 002B     		cmp	r3, #0
 416 000c 01D1     		bne	.L11
 245:./Libraries/STM32F4xx_HAL_Driver/Src/stm32f4xx_hal_hcd.c ****   {
 246:./Libraries/STM32F4xx_HAL_Driver/Src/stm32f4xx_hal_hcd.c ****     return HAL_ERROR;
 417              		.loc 1 246 12
 418 000e 0123     		movs	r3, #1
 419 0010 10E0     		b	.L12
 420              	.L11:
 247:./Libraries/STM32F4xx_HAL_Driver/Src/stm32f4xx_hal_hcd.c ****   }
 248:./Libraries/STM32F4xx_HAL_Driver/Src/stm32f4xx_hal_hcd.c ****   
 249:./Libraries/STM32F4xx_HAL_Driver/Src/stm32f4xx_hal_hcd.c ****   hhcd->State = HAL_HCD_STATE_BUSY;
 421              		.loc 1 249 15
 422 0012 7B68     		ldr	r3, [r7, #4]
 423 0014 0322     		movs	r2, #3
 424 0016 83F89122 		strb	r2, [r3, #657]
 250:./Libraries/STM32F4xx_HAL_Driver/Src/stm32f4xx_hal_hcd.c ****   
 251:./Libraries/STM32F4xx_HAL_Driver/Src/stm32f4xx_hal_hcd.c ****   /* DeInit the low level hardware */
 252:./Libraries/STM32F4xx_HAL_Driver/Src/stm32f4xx_hal_hcd.c ****   HAL_HCD_MspDeInit(hhcd);
 425              		.loc 1 252 3
 426 001a 7868     		ldr	r0, [r7, #4]
 427 001c FFF7FEFF 		bl	HAL_HCD_MspDeInit
 253:./Libraries/STM32F4xx_HAL_Driver/Src/stm32f4xx_hal_hcd.c ****   
 254:./Libraries/STM32F4xx_HAL_Driver/Src/stm32f4xx_hal_hcd.c ****   __HAL_HCD_DISABLE(hhcd);
 428              		.loc 1 254 3
 429 0020 7B68     		ldr	r3, [r7, #4]
 430 0022 1B68     		ldr	r3, [r3]
 431 0024 1846     		mov	r0, r3
 432 0026 FFF7FEFF 		bl	USB_DisableGlobalInt
 255:./Libraries/STM32F4xx_HAL_Driver/Src/stm32f4xx_hal_hcd.c ****   
 256:./Libraries/STM32F4xx_HAL_Driver/Src/stm32f4xx_hal_hcd.c ****   hhcd->State = HAL_HCD_STATE_RESET; 
 433              		.loc 1 256 15
 434 002a 7B68     		ldr	r3, [r7, #4]
 435 002c 0022     		movs	r2, #0
ARM GAS  /tmp/ccYHp8fH.s 			page 13


 436 002e 83F89122 		strb	r2, [r3, #657]
 257:./Libraries/STM32F4xx_HAL_Driver/Src/stm32f4xx_hal_hcd.c ****   
 258:./Libraries/STM32F4xx_HAL_Driver/Src/stm32f4xx_hal_hcd.c ****   return HAL_OK;
 437              		.loc 1 258 10
 438 0032 0023     		movs	r3, #0
 439              	.L12:
 259:./Libraries/STM32F4xx_HAL_Driver/Src/stm32f4xx_hal_hcd.c **** }
 440              		.loc 1 259 1
 441 0034 1846     		mov	r0, r3
 442 0036 0837     		adds	r7, r7, #8
 443              	.LCFI18:
 444              		.cfi_def_cfa_offset 8
 445 0038 BD46     		mov	sp, r7
 446              	.LCFI19:
 447              		.cfi_def_cfa_register 13
 448              		@ sp needed
 449 003a 80BD     		pop	{r7, pc}
 450              		.cfi_endproc
 451              	.LFE129:
 453              		.section	.text.HAL_HCD_MspInit,"ax",%progbits
 454              		.align	1
 455              		.weak	HAL_HCD_MspInit
 456              		.syntax unified
 457              		.thumb
 458              		.thumb_func
 459              		.fpu fpv4-sp-d16
 461              	HAL_HCD_MspInit:
 462              	.LFB130:
 260:./Libraries/STM32F4xx_HAL_Driver/Src/stm32f4xx_hal_hcd.c **** 
 261:./Libraries/STM32F4xx_HAL_Driver/Src/stm32f4xx_hal_hcd.c **** /**
 262:./Libraries/STM32F4xx_HAL_Driver/Src/stm32f4xx_hal_hcd.c ****   * @brief  Initialize the HCD MSP.
 263:./Libraries/STM32F4xx_HAL_Driver/Src/stm32f4xx_hal_hcd.c ****   * @param  hhcd HCD handle
 264:./Libraries/STM32F4xx_HAL_Driver/Src/stm32f4xx_hal_hcd.c ****   * @retval None
 265:./Libraries/STM32F4xx_HAL_Driver/Src/stm32f4xx_hal_hcd.c ****   */
 266:./Libraries/STM32F4xx_HAL_Driver/Src/stm32f4xx_hal_hcd.c **** __weak void  HAL_HCD_MspInit(HCD_HandleTypeDef *hhcd)
 267:./Libraries/STM32F4xx_HAL_Driver/Src/stm32f4xx_hal_hcd.c **** {
 463              		.loc 1 267 1
 464              		.cfi_startproc
 465              		@ args = 0, pretend = 0, frame = 8
 466              		@ frame_needed = 1, uses_anonymous_args = 0
 467              		@ link register save eliminated.
 468 0000 80B4     		push	{r7}
 469              	.LCFI20:
 470              		.cfi_def_cfa_offset 4
 471              		.cfi_offset 7, -4
 472 0002 83B0     		sub	sp, sp, #12
 473              	.LCFI21:
 474              		.cfi_def_cfa_offset 16
 475 0004 00AF     		add	r7, sp, #0
 476              	.LCFI22:
 477              		.cfi_def_cfa_register 7
 478 0006 7860     		str	r0, [r7, #4]
 268:./Libraries/STM32F4xx_HAL_Driver/Src/stm32f4xx_hal_hcd.c ****   /* Prevent unused argument(s) compilation warning */
 269:./Libraries/STM32F4xx_HAL_Driver/Src/stm32f4xx_hal_hcd.c ****   UNUSED(hhcd);
 270:./Libraries/STM32F4xx_HAL_Driver/Src/stm32f4xx_hal_hcd.c ****   /* NOTE : This function Should not be modified, when the callback is needed,
 271:./Libraries/STM32F4xx_HAL_Driver/Src/stm32f4xx_hal_hcd.c ****             the HAL_PCD_MspInit could be implemented in the user file
 272:./Libraries/STM32F4xx_HAL_Driver/Src/stm32f4xx_hal_hcd.c ****    */
ARM GAS  /tmp/ccYHp8fH.s 			page 14


 273:./Libraries/STM32F4xx_HAL_Driver/Src/stm32f4xx_hal_hcd.c **** }
 479              		.loc 1 273 1
 480 0008 00BF     		nop
 481 000a 0C37     		adds	r7, r7, #12
 482              	.LCFI23:
 483              		.cfi_def_cfa_offset 4
 484 000c BD46     		mov	sp, r7
 485              	.LCFI24:
 486              		.cfi_def_cfa_register 13
 487              		@ sp needed
 488 000e 5DF8047B 		ldr	r7, [sp], #4
 489              	.LCFI25:
 490              		.cfi_restore 7
 491              		.cfi_def_cfa_offset 0
 492 0012 7047     		bx	lr
 493              		.cfi_endproc
 494              	.LFE130:
 496              		.section	.text.HAL_HCD_MspDeInit,"ax",%progbits
 497              		.align	1
 498              		.weak	HAL_HCD_MspDeInit
 499              		.syntax unified
 500              		.thumb
 501              		.thumb_func
 502              		.fpu fpv4-sp-d16
 504              	HAL_HCD_MspDeInit:
 505              	.LFB131:
 274:./Libraries/STM32F4xx_HAL_Driver/Src/stm32f4xx_hal_hcd.c **** 
 275:./Libraries/STM32F4xx_HAL_Driver/Src/stm32f4xx_hal_hcd.c **** /**
 276:./Libraries/STM32F4xx_HAL_Driver/Src/stm32f4xx_hal_hcd.c ****   * @brief  DeInitialize the HCD MSP.
 277:./Libraries/STM32F4xx_HAL_Driver/Src/stm32f4xx_hal_hcd.c ****   * @param  hhcd HCD handle
 278:./Libraries/STM32F4xx_HAL_Driver/Src/stm32f4xx_hal_hcd.c ****   * @retval None
 279:./Libraries/STM32F4xx_HAL_Driver/Src/stm32f4xx_hal_hcd.c ****   */
 280:./Libraries/STM32F4xx_HAL_Driver/Src/stm32f4xx_hal_hcd.c **** __weak void  HAL_HCD_MspDeInit(HCD_HandleTypeDef *hhcd)
 281:./Libraries/STM32F4xx_HAL_Driver/Src/stm32f4xx_hal_hcd.c **** {
 506              		.loc 1 281 1
 507              		.cfi_startproc
 508              		@ args = 0, pretend = 0, frame = 8
 509              		@ frame_needed = 1, uses_anonymous_args = 0
 510              		@ link register save eliminated.
 511 0000 80B4     		push	{r7}
 512              	.LCFI26:
 513              		.cfi_def_cfa_offset 4
 514              		.cfi_offset 7, -4
 515 0002 83B0     		sub	sp, sp, #12
 516              	.LCFI27:
 517              		.cfi_def_cfa_offset 16
 518 0004 00AF     		add	r7, sp, #0
 519              	.LCFI28:
 520              		.cfi_def_cfa_register 7
 521 0006 7860     		str	r0, [r7, #4]
 282:./Libraries/STM32F4xx_HAL_Driver/Src/stm32f4xx_hal_hcd.c ****   /* Prevent unused argument(s) compilation warning */
 283:./Libraries/STM32F4xx_HAL_Driver/Src/stm32f4xx_hal_hcd.c ****   UNUSED(hhcd);
 284:./Libraries/STM32F4xx_HAL_Driver/Src/stm32f4xx_hal_hcd.c ****   /* NOTE : This function Should not be modified, when the callback is needed,
 285:./Libraries/STM32F4xx_HAL_Driver/Src/stm32f4xx_hal_hcd.c ****             the HAL_PCD_MspDeInit could be implemented in the user file
 286:./Libraries/STM32F4xx_HAL_Driver/Src/stm32f4xx_hal_hcd.c ****    */
 287:./Libraries/STM32F4xx_HAL_Driver/Src/stm32f4xx_hal_hcd.c **** }
 522              		.loc 1 287 1
ARM GAS  /tmp/ccYHp8fH.s 			page 15


 523 0008 00BF     		nop
 524 000a 0C37     		adds	r7, r7, #12
 525              	.LCFI29:
 526              		.cfi_def_cfa_offset 4
 527 000c BD46     		mov	sp, r7
 528              	.LCFI30:
 529              		.cfi_def_cfa_register 13
 530              		@ sp needed
 531 000e 5DF8047B 		ldr	r7, [sp], #4
 532              	.LCFI31:
 533              		.cfi_restore 7
 534              		.cfi_def_cfa_offset 0
 535 0012 7047     		bx	lr
 536              		.cfi_endproc
 537              	.LFE131:
 539              		.section	.text.HAL_HCD_HC_SubmitRequest,"ax",%progbits
 540              		.align	1
 541              		.global	HAL_HCD_HC_SubmitRequest
 542              		.syntax unified
 543              		.thumb
 544              		.thumb_func
 545              		.fpu fpv4-sp-d16
 547              	HAL_HCD_HC_SubmitRequest:
 548              	.LFB132:
 288:./Libraries/STM32F4xx_HAL_Driver/Src/stm32f4xx_hal_hcd.c **** 
 289:./Libraries/STM32F4xx_HAL_Driver/Src/stm32f4xx_hal_hcd.c **** /**
 290:./Libraries/STM32F4xx_HAL_Driver/Src/stm32f4xx_hal_hcd.c ****   * @}
 291:./Libraries/STM32F4xx_HAL_Driver/Src/stm32f4xx_hal_hcd.c ****   */
 292:./Libraries/STM32F4xx_HAL_Driver/Src/stm32f4xx_hal_hcd.c **** 
 293:./Libraries/STM32F4xx_HAL_Driver/Src/stm32f4xx_hal_hcd.c **** /** @defgroup HCD_Exported_Functions_Group2 Input and Output operation functions
 294:./Libraries/STM32F4xx_HAL_Driver/Src/stm32f4xx_hal_hcd.c ****   *  @brief   HCD IO operation functions
 295:./Libraries/STM32F4xx_HAL_Driver/Src/stm32f4xx_hal_hcd.c ****   *
 296:./Libraries/STM32F4xx_HAL_Driver/Src/stm32f4xx_hal_hcd.c **** @verbatim
 297:./Libraries/STM32F4xx_HAL_Driver/Src/stm32f4xx_hal_hcd.c ****  ===============================================================================
 298:./Libraries/STM32F4xx_HAL_Driver/Src/stm32f4xx_hal_hcd.c ****                       ##### IO operation functions #####
 299:./Libraries/STM32F4xx_HAL_Driver/Src/stm32f4xx_hal_hcd.c ****  ===============================================================================
 300:./Libraries/STM32F4xx_HAL_Driver/Src/stm32f4xx_hal_hcd.c ****  [..] This subsection provides a set of functions allowing to manage the USB Host Data 
 301:./Libraries/STM32F4xx_HAL_Driver/Src/stm32f4xx_hal_hcd.c ****     Transfer
 302:./Libraries/STM32F4xx_HAL_Driver/Src/stm32f4xx_hal_hcd.c ****        
 303:./Libraries/STM32F4xx_HAL_Driver/Src/stm32f4xx_hal_hcd.c **** @endverbatim
 304:./Libraries/STM32F4xx_HAL_Driver/Src/stm32f4xx_hal_hcd.c ****   * @{
 305:./Libraries/STM32F4xx_HAL_Driver/Src/stm32f4xx_hal_hcd.c ****   */
 306:./Libraries/STM32F4xx_HAL_Driver/Src/stm32f4xx_hal_hcd.c ****   
 307:./Libraries/STM32F4xx_HAL_Driver/Src/stm32f4xx_hal_hcd.c **** /**                                
 308:./Libraries/STM32F4xx_HAL_Driver/Src/stm32f4xx_hal_hcd.c ****   * @brief  Submit a new URB for processing. 
 309:./Libraries/STM32F4xx_HAL_Driver/Src/stm32f4xx_hal_hcd.c ****   * @param  hhcd HCD handle
 310:./Libraries/STM32F4xx_HAL_Driver/Src/stm32f4xx_hal_hcd.c ****   * @param  ch_num Channel number.
 311:./Libraries/STM32F4xx_HAL_Driver/Src/stm32f4xx_hal_hcd.c ****   *         This parameter can be a value from 1 to 15
 312:./Libraries/STM32F4xx_HAL_Driver/Src/stm32f4xx_hal_hcd.c ****   * @param  direction Channel number.
 313:./Libraries/STM32F4xx_HAL_Driver/Src/stm32f4xx_hal_hcd.c ****   *          This parameter can be one of these values:
 314:./Libraries/STM32F4xx_HAL_Driver/Src/stm32f4xx_hal_hcd.c ****   *           0 : Output / 1 : Input
 315:./Libraries/STM32F4xx_HAL_Driver/Src/stm32f4xx_hal_hcd.c ****   * @param  ep_type Endpoint Type.
 316:./Libraries/STM32F4xx_HAL_Driver/Src/stm32f4xx_hal_hcd.c ****   *          This parameter can be one of these values:
 317:./Libraries/STM32F4xx_HAL_Driver/Src/stm32f4xx_hal_hcd.c ****   *            EP_TYPE_CTRL: Control type/
 318:./Libraries/STM32F4xx_HAL_Driver/Src/stm32f4xx_hal_hcd.c ****   *            EP_TYPE_ISOC: Isochronous type/
 319:./Libraries/STM32F4xx_HAL_Driver/Src/stm32f4xx_hal_hcd.c ****   *            EP_TYPE_BULK: Bulk type/
 320:./Libraries/STM32F4xx_HAL_Driver/Src/stm32f4xx_hal_hcd.c ****   *            EP_TYPE_INTR: Interrupt type/
ARM GAS  /tmp/ccYHp8fH.s 			page 16


 321:./Libraries/STM32F4xx_HAL_Driver/Src/stm32f4xx_hal_hcd.c ****   * @param  token Endpoint Type.
 322:./Libraries/STM32F4xx_HAL_Driver/Src/stm32f4xx_hal_hcd.c ****   *          This parameter can be one of these values:
 323:./Libraries/STM32F4xx_HAL_Driver/Src/stm32f4xx_hal_hcd.c ****   *            0: HC_PID_SETUP / 1: HC_PID_DATA1
 324:./Libraries/STM32F4xx_HAL_Driver/Src/stm32f4xx_hal_hcd.c ****   * @param  pbuff pointer to URB data
 325:./Libraries/STM32F4xx_HAL_Driver/Src/stm32f4xx_hal_hcd.c ****   * @param  length Length of URB data
 326:./Libraries/STM32F4xx_HAL_Driver/Src/stm32f4xx_hal_hcd.c ****   * @param  do_ping activate do ping protocol (for high speed only).
 327:./Libraries/STM32F4xx_HAL_Driver/Src/stm32f4xx_hal_hcd.c ****   *          This parameter can be one of these values:
 328:./Libraries/STM32F4xx_HAL_Driver/Src/stm32f4xx_hal_hcd.c ****   *           0 : do ping inactive / 1 : do ping active 
 329:./Libraries/STM32F4xx_HAL_Driver/Src/stm32f4xx_hal_hcd.c ****   * @retval HAL status
 330:./Libraries/STM32F4xx_HAL_Driver/Src/stm32f4xx_hal_hcd.c ****   */
 331:./Libraries/STM32F4xx_HAL_Driver/Src/stm32f4xx_hal_hcd.c **** HAL_StatusTypeDef HAL_HCD_HC_SubmitRequest(HCD_HandleTypeDef *hhcd,
 332:./Libraries/STM32F4xx_HAL_Driver/Src/stm32f4xx_hal_hcd.c ****                                            uint8_t ch_num, 
 333:./Libraries/STM32F4xx_HAL_Driver/Src/stm32f4xx_hal_hcd.c ****                                            uint8_t direction,
 334:./Libraries/STM32F4xx_HAL_Driver/Src/stm32f4xx_hal_hcd.c ****                                            uint8_t ep_type,  
 335:./Libraries/STM32F4xx_HAL_Driver/Src/stm32f4xx_hal_hcd.c ****                                            uint8_t token, 
 336:./Libraries/STM32F4xx_HAL_Driver/Src/stm32f4xx_hal_hcd.c ****                                            uint8_t* pbuff, 
 337:./Libraries/STM32F4xx_HAL_Driver/Src/stm32f4xx_hal_hcd.c ****                                            uint16_t length,
 338:./Libraries/STM32F4xx_HAL_Driver/Src/stm32f4xx_hal_hcd.c ****                                            uint8_t do_ping) 
 339:./Libraries/STM32F4xx_HAL_Driver/Src/stm32f4xx_hal_hcd.c **** {
 549              		.loc 1 339 1
 550              		.cfi_startproc
 551              		@ args = 16, pretend = 0, frame = 8
 552              		@ frame_needed = 1, uses_anonymous_args = 0
 553 0000 80B5     		push	{r7, lr}
 554              	.LCFI32:
 555              		.cfi_def_cfa_offset 8
 556              		.cfi_offset 7, -8
 557              		.cfi_offset 14, -4
 558 0002 82B0     		sub	sp, sp, #8
 559              	.LCFI33:
 560              		.cfi_def_cfa_offset 16
 561 0004 00AF     		add	r7, sp, #0
 562              	.LCFI34:
 563              		.cfi_def_cfa_register 7
 564 0006 7860     		str	r0, [r7, #4]
 565 0008 0846     		mov	r0, r1
 566 000a 1146     		mov	r1, r2
 567 000c 1A46     		mov	r2, r3
 568 000e 0346     		mov	r3, r0
 569 0010 FB70     		strb	r3, [r7, #3]
 570 0012 0B46     		mov	r3, r1
 571 0014 BB70     		strb	r3, [r7, #2]
 572 0016 1346     		mov	r3, r2
 573 0018 7B70     		strb	r3, [r7, #1]
 340:./Libraries/STM32F4xx_HAL_Driver/Src/stm32f4xx_hal_hcd.c ****   hhcd->hc[ch_num].ep_is_in = direction;
 574              		.loc 1 340 19
 575 001a FA78     		ldrb	r2, [r7, #3]	@ zero_extendqisi2
 576              		.loc 1 340 29
 577 001c 7968     		ldr	r1, [r7, #4]
 578 001e 1346     		mov	r3, r2
 579 0020 9B00     		lsls	r3, r3, #2
 580 0022 1344     		add	r3, r3, r2
 581 0024 DB00     		lsls	r3, r3, #3
 582 0026 0B44     		add	r3, r3, r1
 583 0028 3B33     		adds	r3, r3, #59
 584 002a BA78     		ldrb	r2, [r7, #2]
 585 002c 1A70     		strb	r2, [r3]
ARM GAS  /tmp/ccYHp8fH.s 			page 17


 341:./Libraries/STM32F4xx_HAL_Driver/Src/stm32f4xx_hal_hcd.c ****   hhcd->hc[ch_num].ep_type  = ep_type; 
 586              		.loc 1 341 19
 587 002e FA78     		ldrb	r2, [r7, #3]	@ zero_extendqisi2
 588              		.loc 1 341 29
 589 0030 7968     		ldr	r1, [r7, #4]
 590 0032 1346     		mov	r3, r2
 591 0034 9B00     		lsls	r3, r3, #2
 592 0036 1344     		add	r3, r3, r2
 593 0038 DB00     		lsls	r3, r3, #3
 594 003a 0B44     		add	r3, r3, r1
 595 003c 3F33     		adds	r3, r3, #63
 596 003e 7A78     		ldrb	r2, [r7, #1]
 597 0040 1A70     		strb	r2, [r3]
 342:./Libraries/STM32F4xx_HAL_Driver/Src/stm32f4xx_hal_hcd.c ****   
 343:./Libraries/STM32F4xx_HAL_Driver/Src/stm32f4xx_hal_hcd.c ****   if(token == 0)
 598              		.loc 1 343 5
 599 0042 3B7C     		ldrb	r3, [r7, #16]	@ zero_extendqisi2
 600 0044 002B     		cmp	r3, #0
 601 0046 0AD1     		bne	.L16
 344:./Libraries/STM32F4xx_HAL_Driver/Src/stm32f4xx_hal_hcd.c ****   {
 345:./Libraries/STM32F4xx_HAL_Driver/Src/stm32f4xx_hal_hcd.c ****     hhcd->hc[ch_num].data_pid = HC_PID_SETUP;
 602              		.loc 1 345 21
 603 0048 FA78     		ldrb	r2, [r7, #3]	@ zero_extendqisi2
 604              		.loc 1 345 31
 605 004a 7968     		ldr	r1, [r7, #4]
 606 004c 1346     		mov	r3, r2
 607 004e 9B00     		lsls	r3, r3, #2
 608 0050 1344     		add	r3, r3, r2
 609 0052 DB00     		lsls	r3, r3, #3
 610 0054 0B44     		add	r3, r3, r1
 611 0056 4233     		adds	r3, r3, #66
 612 0058 0322     		movs	r2, #3
 613 005a 1A70     		strb	r2, [r3]
 614 005c 09E0     		b	.L17
 615              	.L16:
 346:./Libraries/STM32F4xx_HAL_Driver/Src/stm32f4xx_hal_hcd.c ****   }
 347:./Libraries/STM32F4xx_HAL_Driver/Src/stm32f4xx_hal_hcd.c ****   else
 348:./Libraries/STM32F4xx_HAL_Driver/Src/stm32f4xx_hal_hcd.c ****   {
 349:./Libraries/STM32F4xx_HAL_Driver/Src/stm32f4xx_hal_hcd.c ****     hhcd->hc[ch_num].data_pid = HC_PID_DATA1;
 616              		.loc 1 349 21
 617 005e FA78     		ldrb	r2, [r7, #3]	@ zero_extendqisi2
 618              		.loc 1 349 31
 619 0060 7968     		ldr	r1, [r7, #4]
 620 0062 1346     		mov	r3, r2
 621 0064 9B00     		lsls	r3, r3, #2
 622 0066 1344     		add	r3, r3, r2
 623 0068 DB00     		lsls	r3, r3, #3
 624 006a 0B44     		add	r3, r3, r1
 625 006c 4233     		adds	r3, r3, #66
 626 006e 0222     		movs	r2, #2
 627 0070 1A70     		strb	r2, [r3]
 628              	.L17:
 350:./Libraries/STM32F4xx_HAL_Driver/Src/stm32f4xx_hal_hcd.c ****   }
 351:./Libraries/STM32F4xx_HAL_Driver/Src/stm32f4xx_hal_hcd.c ****   
 352:./Libraries/STM32F4xx_HAL_Driver/Src/stm32f4xx_hal_hcd.c ****   /* Manage Data Toggle */
 353:./Libraries/STM32F4xx_HAL_Driver/Src/stm32f4xx_hal_hcd.c ****   switch(ep_type)
 629              		.loc 1 353 3
ARM GAS  /tmp/ccYHp8fH.s 			page 18


 630 0072 7B78     		ldrb	r3, [r7, #1]	@ zero_extendqisi2
 631 0074 032B     		cmp	r3, #3
 632 0076 00F20481 		bhi	.L18
 633 007a 01A2     		adr	r2, .L20
 634 007c 52F823F0 		ldr	pc, [r2, r3, lsl #2]
 635              		.p2align 2
 636              	.L20:
 637 0080 91000000 		.word	.L23+1
 638 0084 67020000 		.word	.L22+1
 639 0088 29010000 		.word	.L21+1
 640 008c DD010000 		.word	.L19+1
 641              		.p2align 1
 642              	.L23:
 354:./Libraries/STM32F4xx_HAL_Driver/Src/stm32f4xx_hal_hcd.c ****   {
 355:./Libraries/STM32F4xx_HAL_Driver/Src/stm32f4xx_hal_hcd.c ****   case EP_TYPE_CTRL:
 356:./Libraries/STM32F4xx_HAL_Driver/Src/stm32f4xx_hal_hcd.c ****     if((token == 1) && (direction == 0)) /*send data */
 643              		.loc 1 356 7
 644 0090 3B7C     		ldrb	r3, [r7, #16]	@ zero_extendqisi2
 645 0092 012B     		cmp	r3, #1
 646 0094 40F0F280 		bne	.L38
 647              		.loc 1 356 21 discriminator 1
 648 0098 BB78     		ldrb	r3, [r7, #2]	@ zero_extendqisi2
 649 009a 002B     		cmp	r3, #0
 650 009c 40F0EE80 		bne	.L38
 357:./Libraries/STM32F4xx_HAL_Driver/Src/stm32f4xx_hal_hcd.c ****     {
 358:./Libraries/STM32F4xx_HAL_Driver/Src/stm32f4xx_hal_hcd.c ****       if (length == 0)
 651              		.loc 1 358 10
 652 00a0 3B8B     		ldrh	r3, [r7, #24]
 653 00a2 002B     		cmp	r3, #0
 654 00a4 09D1     		bne	.L25
 359:./Libraries/STM32F4xx_HAL_Driver/Src/stm32f4xx_hal_hcd.c ****       { /* For Status OUT stage, Length==0, Status Out PID = 1 */
 360:./Libraries/STM32F4xx_HAL_Driver/Src/stm32f4xx_hal_hcd.c ****         hhcd->hc[ch_num].toggle_out = 1;
 655              		.loc 1 360 25
 656 00a6 FA78     		ldrb	r2, [r7, #3]	@ zero_extendqisi2
 657              		.loc 1 360 37
 658 00a8 7968     		ldr	r1, [r7, #4]
 659 00aa 1346     		mov	r3, r2
 660 00ac 9B00     		lsls	r3, r3, #2
 661 00ae 1344     		add	r3, r3, r2
 662 00b0 DB00     		lsls	r3, r3, #3
 663 00b2 0B44     		add	r3, r3, r1
 664 00b4 5133     		adds	r3, r3, #81
 665 00b6 0122     		movs	r2, #1
 666 00b8 1A70     		strb	r2, [r3]
 667              	.L25:
 361:./Libraries/STM32F4xx_HAL_Driver/Src/stm32f4xx_hal_hcd.c ****       }
 362:./Libraries/STM32F4xx_HAL_Driver/Src/stm32f4xx_hal_hcd.c ****       
 363:./Libraries/STM32F4xx_HAL_Driver/Src/stm32f4xx_hal_hcd.c ****       /* Set the Data Toggle bit as per the Flag */
 364:./Libraries/STM32F4xx_HAL_Driver/Src/stm32f4xx_hal_hcd.c ****       if (hhcd->hc[ch_num].toggle_out == 0)
 668              		.loc 1 364 27
 669 00ba FA78     		ldrb	r2, [r7, #3]	@ zero_extendqisi2
 670 00bc 7968     		ldr	r1, [r7, #4]
 671 00be 1346     		mov	r3, r2
 672 00c0 9B00     		lsls	r3, r3, #2
 673 00c2 1344     		add	r3, r3, r2
 674 00c4 DB00     		lsls	r3, r3, #3
 675 00c6 0B44     		add	r3, r3, r1
ARM GAS  /tmp/ccYHp8fH.s 			page 19


 676 00c8 5133     		adds	r3, r3, #81
 677 00ca 1B78     		ldrb	r3, [r3]	@ zero_extendqisi2
 678              		.loc 1 364 10
 679 00cc 002B     		cmp	r3, #0
 680 00ce 0AD1     		bne	.L26
 365:./Libraries/STM32F4xx_HAL_Driver/Src/stm32f4xx_hal_hcd.c ****       { /* Put the PID 0 */
 366:./Libraries/STM32F4xx_HAL_Driver/Src/stm32f4xx_hal_hcd.c ****         hhcd->hc[ch_num].data_pid = HC_PID_DATA0;    
 681              		.loc 1 366 25
 682 00d0 FA78     		ldrb	r2, [r7, #3]	@ zero_extendqisi2
 683              		.loc 1 366 35
 684 00d2 7968     		ldr	r1, [r7, #4]
 685 00d4 1346     		mov	r3, r2
 686 00d6 9B00     		lsls	r3, r3, #2
 687 00d8 1344     		add	r3, r3, r2
 688 00da DB00     		lsls	r3, r3, #3
 689 00dc 0B44     		add	r3, r3, r1
 690 00de 4233     		adds	r3, r3, #66
 691 00e0 0022     		movs	r2, #0
 692 00e2 1A70     		strb	r2, [r3]
 693 00e4 09E0     		b	.L27
 694              	.L26:
 367:./Libraries/STM32F4xx_HAL_Driver/Src/stm32f4xx_hal_hcd.c ****       }
 368:./Libraries/STM32F4xx_HAL_Driver/Src/stm32f4xx_hal_hcd.c ****       else
 369:./Libraries/STM32F4xx_HAL_Driver/Src/stm32f4xx_hal_hcd.c ****       { /* Put the PID 1 */
 370:./Libraries/STM32F4xx_HAL_Driver/Src/stm32f4xx_hal_hcd.c ****         hhcd->hc[ch_num].data_pid = HC_PID_DATA1;
 695              		.loc 1 370 25
 696 00e6 FA78     		ldrb	r2, [r7, #3]	@ zero_extendqisi2
 697              		.loc 1 370 35
 698 00e8 7968     		ldr	r1, [r7, #4]
 699 00ea 1346     		mov	r3, r2
 700 00ec 9B00     		lsls	r3, r3, #2
 701 00ee 1344     		add	r3, r3, r2
 702 00f0 DB00     		lsls	r3, r3, #3
 703 00f2 0B44     		add	r3, r3, r1
 704 00f4 4233     		adds	r3, r3, #66
 705 00f6 0222     		movs	r2, #2
 706 00f8 1A70     		strb	r2, [r3]
 707              	.L27:
 371:./Libraries/STM32F4xx_HAL_Driver/Src/stm32f4xx_hal_hcd.c ****       }
 372:./Libraries/STM32F4xx_HAL_Driver/Src/stm32f4xx_hal_hcd.c ****       if(hhcd->hc[ch_num].urb_state  != URB_NOTREADY)
 708              		.loc 1 372 26
 709 00fa FA78     		ldrb	r2, [r7, #3]	@ zero_extendqisi2
 710 00fc 7968     		ldr	r1, [r7, #4]
 711 00fe 1346     		mov	r3, r2
 712 0100 9B00     		lsls	r3, r3, #2
 713 0102 1344     		add	r3, r3, r2
 714 0104 DB00     		lsls	r3, r3, #3
 715 0106 0B44     		add	r3, r3, r1
 716 0108 5C33     		adds	r3, r3, #92
 717 010a 1B78     		ldrb	r3, [r3]	@ zero_extendqisi2
 718              		.loc 1 372 9
 719 010c 022B     		cmp	r3, #2
 720 010e 00F0B580 		beq	.L38
 373:./Libraries/STM32F4xx_HAL_Driver/Src/stm32f4xx_hal_hcd.c ****       {
 374:./Libraries/STM32F4xx_HAL_Driver/Src/stm32f4xx_hal_hcd.c ****         hhcd->hc[ch_num].do_ping = do_ping;
 721              		.loc 1 374 25
 722 0112 FA78     		ldrb	r2, [r7, #3]	@ zero_extendqisi2
ARM GAS  /tmp/ccYHp8fH.s 			page 20


 723              		.loc 1 374 34
 724 0114 7968     		ldr	r1, [r7, #4]
 725 0116 1346     		mov	r3, r2
 726 0118 9B00     		lsls	r3, r3, #2
 727 011a 1344     		add	r3, r3, r2
 728 011c DB00     		lsls	r3, r3, #3
 729 011e 0B44     		add	r3, r3, r1
 730 0120 3D33     		adds	r3, r3, #61
 731 0122 3A7F     		ldrb	r2, [r7, #28]
 732 0124 1A70     		strb	r2, [r3]
 375:./Libraries/STM32F4xx_HAL_Driver/Src/stm32f4xx_hal_hcd.c ****       }
 376:./Libraries/STM32F4xx_HAL_Driver/Src/stm32f4xx_hal_hcd.c ****     }
 377:./Libraries/STM32F4xx_HAL_Driver/Src/stm32f4xx_hal_hcd.c ****     break;
 733              		.loc 1 377 5
 734 0126 A9E0     		b	.L38
 735              	.L21:
 378:./Libraries/STM32F4xx_HAL_Driver/Src/stm32f4xx_hal_hcd.c ****   
 379:./Libraries/STM32F4xx_HAL_Driver/Src/stm32f4xx_hal_hcd.c ****   case EP_TYPE_BULK:
 380:./Libraries/STM32F4xx_HAL_Driver/Src/stm32f4xx_hal_hcd.c ****     if(direction == 0)
 736              		.loc 1 380 7
 737 0128 BB78     		ldrb	r3, [r7, #2]	@ zero_extendqisi2
 738 012a 002B     		cmp	r3, #0
 739 012c 35D1     		bne	.L28
 381:./Libraries/STM32F4xx_HAL_Driver/Src/stm32f4xx_hal_hcd.c ****     {
 382:./Libraries/STM32F4xx_HAL_Driver/Src/stm32f4xx_hal_hcd.c ****       /* Set the Data Toggle bit as per the Flag */
 383:./Libraries/STM32F4xx_HAL_Driver/Src/stm32f4xx_hal_hcd.c ****       if ( hhcd->hc[ch_num].toggle_out == 0)
 740              		.loc 1 383 28
 741 012e FA78     		ldrb	r2, [r7, #3]	@ zero_extendqisi2
 742 0130 7968     		ldr	r1, [r7, #4]
 743 0132 1346     		mov	r3, r2
 744 0134 9B00     		lsls	r3, r3, #2
 745 0136 1344     		add	r3, r3, r2
 746 0138 DB00     		lsls	r3, r3, #3
 747 013a 0B44     		add	r3, r3, r1
 748 013c 5133     		adds	r3, r3, #81
 749 013e 1B78     		ldrb	r3, [r3]	@ zero_extendqisi2
 750              		.loc 1 383 10
 751 0140 002B     		cmp	r3, #0
 752 0142 0AD1     		bne	.L29
 384:./Libraries/STM32F4xx_HAL_Driver/Src/stm32f4xx_hal_hcd.c ****       { /* Put the PID 0 */
 385:./Libraries/STM32F4xx_HAL_Driver/Src/stm32f4xx_hal_hcd.c ****         hhcd->hc[ch_num].data_pid = HC_PID_DATA0;    
 753              		.loc 1 385 25
 754 0144 FA78     		ldrb	r2, [r7, #3]	@ zero_extendqisi2
 755              		.loc 1 385 35
 756 0146 7968     		ldr	r1, [r7, #4]
 757 0148 1346     		mov	r3, r2
 758 014a 9B00     		lsls	r3, r3, #2
 759 014c 1344     		add	r3, r3, r2
 760 014e DB00     		lsls	r3, r3, #3
 761 0150 0B44     		add	r3, r3, r1
 762 0152 4233     		adds	r3, r3, #66
 763 0154 0022     		movs	r2, #0
 764 0156 1A70     		strb	r2, [r3]
 765 0158 09E0     		b	.L30
 766              	.L29:
 386:./Libraries/STM32F4xx_HAL_Driver/Src/stm32f4xx_hal_hcd.c ****       }
 387:./Libraries/STM32F4xx_HAL_Driver/Src/stm32f4xx_hal_hcd.c ****       else
ARM GAS  /tmp/ccYHp8fH.s 			page 21


 388:./Libraries/STM32F4xx_HAL_Driver/Src/stm32f4xx_hal_hcd.c ****       { /* Put the PID 1 */
 389:./Libraries/STM32F4xx_HAL_Driver/Src/stm32f4xx_hal_hcd.c ****         hhcd->hc[ch_num].data_pid = HC_PID_DATA1;
 767              		.loc 1 389 25
 768 015a FA78     		ldrb	r2, [r7, #3]	@ zero_extendqisi2
 769              		.loc 1 389 35
 770 015c 7968     		ldr	r1, [r7, #4]
 771 015e 1346     		mov	r3, r2
 772 0160 9B00     		lsls	r3, r3, #2
 773 0162 1344     		add	r3, r3, r2
 774 0164 DB00     		lsls	r3, r3, #3
 775 0166 0B44     		add	r3, r3, r1
 776 0168 4233     		adds	r3, r3, #66
 777 016a 0222     		movs	r2, #2
 778 016c 1A70     		strb	r2, [r3]
 779              	.L30:
 390:./Libraries/STM32F4xx_HAL_Driver/Src/stm32f4xx_hal_hcd.c ****       }
 391:./Libraries/STM32F4xx_HAL_Driver/Src/stm32f4xx_hal_hcd.c ****       if(hhcd->hc[ch_num].urb_state  != URB_NOTREADY)
 780              		.loc 1 391 26
 781 016e FA78     		ldrb	r2, [r7, #3]	@ zero_extendqisi2
 782 0170 7968     		ldr	r1, [r7, #4]
 783 0172 1346     		mov	r3, r2
 784 0174 9B00     		lsls	r3, r3, #2
 785 0176 1344     		add	r3, r3, r2
 786 0178 DB00     		lsls	r3, r3, #3
 787 017a 0B44     		add	r3, r3, r1
 788 017c 5C33     		adds	r3, r3, #92
 789 017e 1B78     		ldrb	r3, [r3]	@ zero_extendqisi2
 790              		.loc 1 391 9
 791 0180 022B     		cmp	r3, #2
 792 0182 7DD0     		beq	.L39
 392:./Libraries/STM32F4xx_HAL_Driver/Src/stm32f4xx_hal_hcd.c ****       {
 393:./Libraries/STM32F4xx_HAL_Driver/Src/stm32f4xx_hal_hcd.c ****         hhcd->hc[ch_num].do_ping = do_ping;
 793              		.loc 1 393 25
 794 0184 FA78     		ldrb	r2, [r7, #3]	@ zero_extendqisi2
 795              		.loc 1 393 34
 796 0186 7968     		ldr	r1, [r7, #4]
 797 0188 1346     		mov	r3, r2
 798 018a 9B00     		lsls	r3, r3, #2
 799 018c 1344     		add	r3, r3, r2
 800 018e DB00     		lsls	r3, r3, #3
 801 0190 0B44     		add	r3, r3, r1
 802 0192 3D33     		adds	r3, r3, #61
 803 0194 3A7F     		ldrb	r2, [r7, #28]
 804 0196 1A70     		strb	r2, [r3]
 394:./Libraries/STM32F4xx_HAL_Driver/Src/stm32f4xx_hal_hcd.c ****       }
 395:./Libraries/STM32F4xx_HAL_Driver/Src/stm32f4xx_hal_hcd.c ****     }
 396:./Libraries/STM32F4xx_HAL_Driver/Src/stm32f4xx_hal_hcd.c ****     else
 397:./Libraries/STM32F4xx_HAL_Driver/Src/stm32f4xx_hal_hcd.c ****     {
 398:./Libraries/STM32F4xx_HAL_Driver/Src/stm32f4xx_hal_hcd.c ****       if( hhcd->hc[ch_num].toggle_in == 0)
 399:./Libraries/STM32F4xx_HAL_Driver/Src/stm32f4xx_hal_hcd.c ****       {
 400:./Libraries/STM32F4xx_HAL_Driver/Src/stm32f4xx_hal_hcd.c ****         hhcd->hc[ch_num].data_pid = HC_PID_DATA0;
 401:./Libraries/STM32F4xx_HAL_Driver/Src/stm32f4xx_hal_hcd.c ****       }
 402:./Libraries/STM32F4xx_HAL_Driver/Src/stm32f4xx_hal_hcd.c ****       else
 403:./Libraries/STM32F4xx_HAL_Driver/Src/stm32f4xx_hal_hcd.c ****       {
 404:./Libraries/STM32F4xx_HAL_Driver/Src/stm32f4xx_hal_hcd.c ****         hhcd->hc[ch_num].data_pid = HC_PID_DATA1;
 405:./Libraries/STM32F4xx_HAL_Driver/Src/stm32f4xx_hal_hcd.c ****       }
 406:./Libraries/STM32F4xx_HAL_Driver/Src/stm32f4xx_hal_hcd.c ****     }
ARM GAS  /tmp/ccYHp8fH.s 			page 22


 407:./Libraries/STM32F4xx_HAL_Driver/Src/stm32f4xx_hal_hcd.c ****     
 408:./Libraries/STM32F4xx_HAL_Driver/Src/stm32f4xx_hal_hcd.c ****     break;
 805              		.loc 1 408 5
 806 0198 72E0     		b	.L39
 807              	.L28:
 398:./Libraries/STM32F4xx_HAL_Driver/Src/stm32f4xx_hal_hcd.c ****       {
 808              		.loc 1 398 27
 809 019a FA78     		ldrb	r2, [r7, #3]	@ zero_extendqisi2
 810 019c 7968     		ldr	r1, [r7, #4]
 811 019e 1346     		mov	r3, r2
 812 01a0 9B00     		lsls	r3, r3, #2
 813 01a2 1344     		add	r3, r3, r2
 814 01a4 DB00     		lsls	r3, r3, #3
 815 01a6 0B44     		add	r3, r3, r1
 816 01a8 5033     		adds	r3, r3, #80
 817 01aa 1B78     		ldrb	r3, [r3]	@ zero_extendqisi2
 398:./Libraries/STM32F4xx_HAL_Driver/Src/stm32f4xx_hal_hcd.c ****       {
 818              		.loc 1 398 9
 819 01ac 002B     		cmp	r3, #0
 820 01ae 0AD1     		bne	.L32
 400:./Libraries/STM32F4xx_HAL_Driver/Src/stm32f4xx_hal_hcd.c ****       }
 821              		.loc 1 400 25
 822 01b0 FA78     		ldrb	r2, [r7, #3]	@ zero_extendqisi2
 400:./Libraries/STM32F4xx_HAL_Driver/Src/stm32f4xx_hal_hcd.c ****       }
 823              		.loc 1 400 35
 824 01b2 7968     		ldr	r1, [r7, #4]
 825 01b4 1346     		mov	r3, r2
 826 01b6 9B00     		lsls	r3, r3, #2
 827 01b8 1344     		add	r3, r3, r2
 828 01ba DB00     		lsls	r3, r3, #3
 829 01bc 0B44     		add	r3, r3, r1
 830 01be 4233     		adds	r3, r3, #66
 831 01c0 0022     		movs	r2, #0
 832 01c2 1A70     		strb	r2, [r3]
 833              		.loc 1 408 5
 834 01c4 5CE0     		b	.L39
 835              	.L32:
 404:./Libraries/STM32F4xx_HAL_Driver/Src/stm32f4xx_hal_hcd.c ****       }
 836              		.loc 1 404 25
 837 01c6 FA78     		ldrb	r2, [r7, #3]	@ zero_extendqisi2
 404:./Libraries/STM32F4xx_HAL_Driver/Src/stm32f4xx_hal_hcd.c ****       }
 838              		.loc 1 404 35
 839 01c8 7968     		ldr	r1, [r7, #4]
 840 01ca 1346     		mov	r3, r2
 841 01cc 9B00     		lsls	r3, r3, #2
 842 01ce 1344     		add	r3, r3, r2
 843 01d0 DB00     		lsls	r3, r3, #3
 844 01d2 0B44     		add	r3, r3, r1
 845 01d4 4233     		adds	r3, r3, #66
 846 01d6 0222     		movs	r2, #2
 847 01d8 1A70     		strb	r2, [r3]
 848              		.loc 1 408 5
 849 01da 51E0     		b	.L39
 850              	.L19:
 409:./Libraries/STM32F4xx_HAL_Driver/Src/stm32f4xx_hal_hcd.c ****   case EP_TYPE_INTR:
 410:./Libraries/STM32F4xx_HAL_Driver/Src/stm32f4xx_hal_hcd.c ****     if(direction == 0)
 851              		.loc 1 410 7
ARM GAS  /tmp/ccYHp8fH.s 			page 23


 852 01dc BB78     		ldrb	r3, [r7, #2]	@ zero_extendqisi2
 853 01de 002B     		cmp	r3, #0
 854 01e0 20D1     		bne	.L33
 411:./Libraries/STM32F4xx_HAL_Driver/Src/stm32f4xx_hal_hcd.c ****     {
 412:./Libraries/STM32F4xx_HAL_Driver/Src/stm32f4xx_hal_hcd.c ****       /* Set the Data Toggle bit as per the Flag */
 413:./Libraries/STM32F4xx_HAL_Driver/Src/stm32f4xx_hal_hcd.c ****       if ( hhcd->hc[ch_num].toggle_out == 0)
 855              		.loc 1 413 28
 856 01e2 FA78     		ldrb	r2, [r7, #3]	@ zero_extendqisi2
 857 01e4 7968     		ldr	r1, [r7, #4]
 858 01e6 1346     		mov	r3, r2
 859 01e8 9B00     		lsls	r3, r3, #2
 860 01ea 1344     		add	r3, r3, r2
 861 01ec DB00     		lsls	r3, r3, #3
 862 01ee 0B44     		add	r3, r3, r1
 863 01f0 5133     		adds	r3, r3, #81
 864 01f2 1B78     		ldrb	r3, [r3]	@ zero_extendqisi2
 865              		.loc 1 413 10
 866 01f4 002B     		cmp	r3, #0
 867 01f6 0AD1     		bne	.L34
 414:./Libraries/STM32F4xx_HAL_Driver/Src/stm32f4xx_hal_hcd.c ****       { /* Put the PID 0 */
 415:./Libraries/STM32F4xx_HAL_Driver/Src/stm32f4xx_hal_hcd.c ****         hhcd->hc[ch_num].data_pid = HC_PID_DATA0;    
 868              		.loc 1 415 25
 869 01f8 FA78     		ldrb	r2, [r7, #3]	@ zero_extendqisi2
 870              		.loc 1 415 35
 871 01fa 7968     		ldr	r1, [r7, #4]
 872 01fc 1346     		mov	r3, r2
 873 01fe 9B00     		lsls	r3, r3, #2
 874 0200 1344     		add	r3, r3, r2
 875 0202 DB00     		lsls	r3, r3, #3
 876 0204 0B44     		add	r3, r3, r1
 877 0206 4233     		adds	r3, r3, #66
 878 0208 0022     		movs	r2, #0
 879 020a 1A70     		strb	r2, [r3]
 416:./Libraries/STM32F4xx_HAL_Driver/Src/stm32f4xx_hal_hcd.c ****       }
 417:./Libraries/STM32F4xx_HAL_Driver/Src/stm32f4xx_hal_hcd.c ****       else
 418:./Libraries/STM32F4xx_HAL_Driver/Src/stm32f4xx_hal_hcd.c ****       { /* Put the PID 1 */
 419:./Libraries/STM32F4xx_HAL_Driver/Src/stm32f4xx_hal_hcd.c ****         hhcd->hc[ch_num].data_pid = HC_PID_DATA1;
 420:./Libraries/STM32F4xx_HAL_Driver/Src/stm32f4xx_hal_hcd.c ****       }
 421:./Libraries/STM32F4xx_HAL_Driver/Src/stm32f4xx_hal_hcd.c ****     }
 422:./Libraries/STM32F4xx_HAL_Driver/Src/stm32f4xx_hal_hcd.c ****     else
 423:./Libraries/STM32F4xx_HAL_Driver/Src/stm32f4xx_hal_hcd.c ****     {
 424:./Libraries/STM32F4xx_HAL_Driver/Src/stm32f4xx_hal_hcd.c ****       if( hhcd->hc[ch_num].toggle_in == 0)
 425:./Libraries/STM32F4xx_HAL_Driver/Src/stm32f4xx_hal_hcd.c ****       {
 426:./Libraries/STM32F4xx_HAL_Driver/Src/stm32f4xx_hal_hcd.c ****         hhcd->hc[ch_num].data_pid = HC_PID_DATA0;
 427:./Libraries/STM32F4xx_HAL_Driver/Src/stm32f4xx_hal_hcd.c ****       }
 428:./Libraries/STM32F4xx_HAL_Driver/Src/stm32f4xx_hal_hcd.c ****       else
 429:./Libraries/STM32F4xx_HAL_Driver/Src/stm32f4xx_hal_hcd.c ****       {
 430:./Libraries/STM32F4xx_HAL_Driver/Src/stm32f4xx_hal_hcd.c ****         hhcd->hc[ch_num].data_pid = HC_PID_DATA1;
 431:./Libraries/STM32F4xx_HAL_Driver/Src/stm32f4xx_hal_hcd.c ****       }
 432:./Libraries/STM32F4xx_HAL_Driver/Src/stm32f4xx_hal_hcd.c ****     }
 433:./Libraries/STM32F4xx_HAL_Driver/Src/stm32f4xx_hal_hcd.c ****     break;
 880              		.loc 1 433 5
 881 020c 39E0     		b	.L18
 882              	.L34:
 419:./Libraries/STM32F4xx_HAL_Driver/Src/stm32f4xx_hal_hcd.c ****       }
 883              		.loc 1 419 25
 884 020e FA78     		ldrb	r2, [r7, #3]	@ zero_extendqisi2
ARM GAS  /tmp/ccYHp8fH.s 			page 24


 419:./Libraries/STM32F4xx_HAL_Driver/Src/stm32f4xx_hal_hcd.c ****       }
 885              		.loc 1 419 35
 886 0210 7968     		ldr	r1, [r7, #4]
 887 0212 1346     		mov	r3, r2
 888 0214 9B00     		lsls	r3, r3, #2
 889 0216 1344     		add	r3, r3, r2
 890 0218 DB00     		lsls	r3, r3, #3
 891 021a 0B44     		add	r3, r3, r1
 892 021c 4233     		adds	r3, r3, #66
 893 021e 0222     		movs	r2, #2
 894 0220 1A70     		strb	r2, [r3]
 895              		.loc 1 433 5
 896 0222 2EE0     		b	.L18
 897              	.L33:
 424:./Libraries/STM32F4xx_HAL_Driver/Src/stm32f4xx_hal_hcd.c ****       {
 898              		.loc 1 424 27
 899 0224 FA78     		ldrb	r2, [r7, #3]	@ zero_extendqisi2
 900 0226 7968     		ldr	r1, [r7, #4]
 901 0228 1346     		mov	r3, r2
 902 022a 9B00     		lsls	r3, r3, #2
 903 022c 1344     		add	r3, r3, r2
 904 022e DB00     		lsls	r3, r3, #3
 905 0230 0B44     		add	r3, r3, r1
 906 0232 5033     		adds	r3, r3, #80
 907 0234 1B78     		ldrb	r3, [r3]	@ zero_extendqisi2
 424:./Libraries/STM32F4xx_HAL_Driver/Src/stm32f4xx_hal_hcd.c ****       {
 908              		.loc 1 424 9
 909 0236 002B     		cmp	r3, #0
 910 0238 0AD1     		bne	.L36
 426:./Libraries/STM32F4xx_HAL_Driver/Src/stm32f4xx_hal_hcd.c ****       }
 911              		.loc 1 426 25
 912 023a FA78     		ldrb	r2, [r7, #3]	@ zero_extendqisi2
 426:./Libraries/STM32F4xx_HAL_Driver/Src/stm32f4xx_hal_hcd.c ****       }
 913              		.loc 1 426 35
 914 023c 7968     		ldr	r1, [r7, #4]
 915 023e 1346     		mov	r3, r2
 916 0240 9B00     		lsls	r3, r3, #2
 917 0242 1344     		add	r3, r3, r2
 918 0244 DB00     		lsls	r3, r3, #3
 919 0246 0B44     		add	r3, r3, r1
 920 0248 4233     		adds	r3, r3, #66
 921 024a 0022     		movs	r2, #0
 922 024c 1A70     		strb	r2, [r3]
 923              		.loc 1 433 5
 924 024e 18E0     		b	.L18
 925              	.L36:
 430:./Libraries/STM32F4xx_HAL_Driver/Src/stm32f4xx_hal_hcd.c ****       }
 926              		.loc 1 430 25
 927 0250 FA78     		ldrb	r2, [r7, #3]	@ zero_extendqisi2
 430:./Libraries/STM32F4xx_HAL_Driver/Src/stm32f4xx_hal_hcd.c ****       }
 928              		.loc 1 430 35
 929 0252 7968     		ldr	r1, [r7, #4]
 930 0254 1346     		mov	r3, r2
 931 0256 9B00     		lsls	r3, r3, #2
 932 0258 1344     		add	r3, r3, r2
 933 025a DB00     		lsls	r3, r3, #3
 934 025c 0B44     		add	r3, r3, r1
ARM GAS  /tmp/ccYHp8fH.s 			page 25


 935 025e 4233     		adds	r3, r3, #66
 936 0260 0222     		movs	r2, #2
 937 0262 1A70     		strb	r2, [r3]
 938              		.loc 1 433 5
 939 0264 0DE0     		b	.L18
 940              	.L22:
 434:./Libraries/STM32F4xx_HAL_Driver/Src/stm32f4xx_hal_hcd.c ****     
 435:./Libraries/STM32F4xx_HAL_Driver/Src/stm32f4xx_hal_hcd.c ****   case EP_TYPE_ISOC: 
 436:./Libraries/STM32F4xx_HAL_Driver/Src/stm32f4xx_hal_hcd.c ****     hhcd->hc[ch_num].data_pid = HC_PID_DATA0;
 941              		.loc 1 436 21
 942 0266 FA78     		ldrb	r2, [r7, #3]	@ zero_extendqisi2
 943              		.loc 1 436 31
 944 0268 7968     		ldr	r1, [r7, #4]
 945 026a 1346     		mov	r3, r2
 946 026c 9B00     		lsls	r3, r3, #2
 947 026e 1344     		add	r3, r3, r2
 948 0270 DB00     		lsls	r3, r3, #3
 949 0272 0B44     		add	r3, r3, r1
 950 0274 4233     		adds	r3, r3, #66
 951 0276 0022     		movs	r2, #0
 952 0278 1A70     		strb	r2, [r3]
 437:./Libraries/STM32F4xx_HAL_Driver/Src/stm32f4xx_hal_hcd.c ****     break;  
 953              		.loc 1 437 5
 954 027a 02E0     		b	.L18
 955              	.L38:
 377:./Libraries/STM32F4xx_HAL_Driver/Src/stm32f4xx_hal_hcd.c ****   
 956              		.loc 1 377 5
 957 027c 00BF     		nop
 958 027e 00E0     		b	.L18
 959              	.L39:
 408:./Libraries/STM32F4xx_HAL_Driver/Src/stm32f4xx_hal_hcd.c ****   case EP_TYPE_INTR:
 960              		.loc 1 408 5
 961 0280 00BF     		nop
 962              	.L18:
 438:./Libraries/STM32F4xx_HAL_Driver/Src/stm32f4xx_hal_hcd.c ****   }
 439:./Libraries/STM32F4xx_HAL_Driver/Src/stm32f4xx_hal_hcd.c ****   
 440:./Libraries/STM32F4xx_HAL_Driver/Src/stm32f4xx_hal_hcd.c ****   hhcd->hc[ch_num].xfer_buff = pbuff;
 963              		.loc 1 440 19
 964 0282 FA78     		ldrb	r2, [r7, #3]	@ zero_extendqisi2
 965              		.loc 1 440 30
 966 0284 7968     		ldr	r1, [r7, #4]
 967 0286 1346     		mov	r3, r2
 968 0288 9B00     		lsls	r3, r3, #2
 969 028a 1344     		add	r3, r3, r2
 970 028c DB00     		lsls	r3, r3, #3
 971 028e 0B44     		add	r3, r3, r1
 972 0290 4433     		adds	r3, r3, #68
 973 0292 7A69     		ldr	r2, [r7, #20]
 974 0294 1A60     		str	r2, [r3]
 441:./Libraries/STM32F4xx_HAL_Driver/Src/stm32f4xx_hal_hcd.c ****   hhcd->hc[ch_num].xfer_len  = length;
 975              		.loc 1 441 19
 976 0296 FA78     		ldrb	r2, [r7, #3]	@ zero_extendqisi2
 977              		.loc 1 441 30
 978 0298 398B     		ldrh	r1, [r7, #24]
 979 029a 7868     		ldr	r0, [r7, #4]
 980 029c 1346     		mov	r3, r2
 981 029e 9B00     		lsls	r3, r3, #2
ARM GAS  /tmp/ccYHp8fH.s 			page 26


 982 02a0 1344     		add	r3, r3, r2
 983 02a2 DB00     		lsls	r3, r3, #3
 984 02a4 0344     		add	r3, r3, r0
 985 02a6 4833     		adds	r3, r3, #72
 986 02a8 1960     		str	r1, [r3]
 442:./Libraries/STM32F4xx_HAL_Driver/Src/stm32f4xx_hal_hcd.c ****   hhcd->hc[ch_num].urb_state = URB_IDLE;  
 987              		.loc 1 442 19
 988 02aa FA78     		ldrb	r2, [r7, #3]	@ zero_extendqisi2
 989              		.loc 1 442 30
 990 02ac 7968     		ldr	r1, [r7, #4]
 991 02ae 1346     		mov	r3, r2
 992 02b0 9B00     		lsls	r3, r3, #2
 993 02b2 1344     		add	r3, r3, r2
 994 02b4 DB00     		lsls	r3, r3, #3
 995 02b6 0B44     		add	r3, r3, r1
 996 02b8 5C33     		adds	r3, r3, #92
 997 02ba 0022     		movs	r2, #0
 998 02bc 1A70     		strb	r2, [r3]
 443:./Libraries/STM32F4xx_HAL_Driver/Src/stm32f4xx_hal_hcd.c ****   hhcd->hc[ch_num].xfer_count = 0;
 999              		.loc 1 443 19
 1000 02be FA78     		ldrb	r2, [r7, #3]	@ zero_extendqisi2
 1001              		.loc 1 443 31
 1002 02c0 7968     		ldr	r1, [r7, #4]
 1003 02c2 1346     		mov	r3, r2
 1004 02c4 9B00     		lsls	r3, r3, #2
 1005 02c6 1344     		add	r3, r3, r2
 1006 02c8 DB00     		lsls	r3, r3, #3
 1007 02ca 0B44     		add	r3, r3, r1
 1008 02cc 4C33     		adds	r3, r3, #76
 1009 02ce 0022     		movs	r2, #0
 1010 02d0 1A60     		str	r2, [r3]
 444:./Libraries/STM32F4xx_HAL_Driver/Src/stm32f4xx_hal_hcd.c ****   hhcd->hc[ch_num].ch_num = ch_num;
 1011              		.loc 1 444 19
 1012 02d2 FA78     		ldrb	r2, [r7, #3]	@ zero_extendqisi2
 1013              		.loc 1 444 27
 1014 02d4 7968     		ldr	r1, [r7, #4]
 1015 02d6 1346     		mov	r3, r2
 1016 02d8 9B00     		lsls	r3, r3, #2
 1017 02da 1344     		add	r3, r3, r2
 1018 02dc DB00     		lsls	r3, r3, #3
 1019 02de 0B44     		add	r3, r3, r1
 1020 02e0 3933     		adds	r3, r3, #57
 1021 02e2 FA78     		ldrb	r2, [r7, #3]
 1022 02e4 1A70     		strb	r2, [r3]
 445:./Libraries/STM32F4xx_HAL_Driver/Src/stm32f4xx_hal_hcd.c ****   hhcd->hc[ch_num].state = HC_IDLE;
 1023              		.loc 1 445 19
 1024 02e6 FA78     		ldrb	r2, [r7, #3]	@ zero_extendqisi2
 1025              		.loc 1 445 26
 1026 02e8 7968     		ldr	r1, [r7, #4]
 1027 02ea 1346     		mov	r3, r2
 1028 02ec 9B00     		lsls	r3, r3, #2
 1029 02ee 1344     		add	r3, r3, r2
 1030 02f0 DB00     		lsls	r3, r3, #3
 1031 02f2 0B44     		add	r3, r3, r1
 1032 02f4 5D33     		adds	r3, r3, #93
 1033 02f6 0022     		movs	r2, #0
 1034 02f8 1A70     		strb	r2, [r3]
ARM GAS  /tmp/ccYHp8fH.s 			page 27


 446:./Libraries/STM32F4xx_HAL_Driver/Src/stm32f4xx_hal_hcd.c ****   
 447:./Libraries/STM32F4xx_HAL_Driver/Src/stm32f4xx_hal_hcd.c ****   return USB_HC_StartXfer(hhcd->Instance, &(hhcd->hc[ch_num]), hhcd->Init.dma_enable);
 1035              		.loc 1 447 31
 1036 02fa 7B68     		ldr	r3, [r7, #4]
 1037 02fc 1868     		ldr	r0, [r3]
 1038              		.loc 1 447 53
 1039 02fe FA78     		ldrb	r2, [r7, #3]	@ zero_extendqisi2
 1040              		.loc 1 447 43
 1041 0300 1346     		mov	r3, r2
 1042 0302 9B00     		lsls	r3, r3, #2
 1043 0304 1344     		add	r3, r3, r2
 1044 0306 DB00     		lsls	r3, r3, #3
 1045 0308 3833     		adds	r3, r3, #56
 1046 030a 7A68     		ldr	r2, [r7, #4]
 1047 030c D118     		adds	r1, r2, r3
 1048              		.loc 1 447 74
 1049 030e 7B68     		ldr	r3, [r7, #4]
 1050 0310 1B69     		ldr	r3, [r3, #16]
 1051              		.loc 1 447 10
 1052 0312 DBB2     		uxtb	r3, r3
 1053 0314 1A46     		mov	r2, r3
 1054 0316 FFF7FEFF 		bl	USB_HC_StartXfer
 1055 031a 0346     		mov	r3, r0
 448:./Libraries/STM32F4xx_HAL_Driver/Src/stm32f4xx_hal_hcd.c **** }
 1056              		.loc 1 448 1
 1057 031c 1846     		mov	r0, r3
 1058 031e 0837     		adds	r7, r7, #8
 1059              	.LCFI35:
 1060              		.cfi_def_cfa_offset 8
 1061 0320 BD46     		mov	sp, r7
 1062              	.LCFI36:
 1063              		.cfi_def_cfa_register 13
 1064              		@ sp needed
 1065 0322 80BD     		pop	{r7, pc}
 1066              		.cfi_endproc
 1067              	.LFE132:
 1069              		.section	.text.HAL_HCD_IRQHandler,"ax",%progbits
 1070              		.align	1
 1071              		.global	HAL_HCD_IRQHandler
 1072              		.syntax unified
 1073              		.thumb
 1074              		.thumb_func
 1075              		.fpu fpv4-sp-d16
 1077              	HAL_HCD_IRQHandler:
 1078              	.LFB133:
 449:./Libraries/STM32F4xx_HAL_Driver/Src/stm32f4xx_hal_hcd.c **** 
 450:./Libraries/STM32F4xx_HAL_Driver/Src/stm32f4xx_hal_hcd.c **** /**
 451:./Libraries/STM32F4xx_HAL_Driver/Src/stm32f4xx_hal_hcd.c ****   * @brief  Handle HCD interrupt request.
 452:./Libraries/STM32F4xx_HAL_Driver/Src/stm32f4xx_hal_hcd.c ****   * @param  hhcd HCD handle
 453:./Libraries/STM32F4xx_HAL_Driver/Src/stm32f4xx_hal_hcd.c ****   * @retval None
 454:./Libraries/STM32F4xx_HAL_Driver/Src/stm32f4xx_hal_hcd.c ****   */
 455:./Libraries/STM32F4xx_HAL_Driver/Src/stm32f4xx_hal_hcd.c **** void HAL_HCD_IRQHandler(HCD_HandleTypeDef *hhcd)
 456:./Libraries/STM32F4xx_HAL_Driver/Src/stm32f4xx_hal_hcd.c **** {
 1079              		.loc 1 456 1
 1080              		.cfi_startproc
 1081              		@ args = 0, pretend = 0, frame = 24
 1082              		@ frame_needed = 1, uses_anonymous_args = 0
ARM GAS  /tmp/ccYHp8fH.s 			page 28


 1083 0000 80B5     		push	{r7, lr}
 1084              	.LCFI37:
 1085              		.cfi_def_cfa_offset 8
 1086              		.cfi_offset 7, -8
 1087              		.cfi_offset 14, -4
 1088 0002 86B0     		sub	sp, sp, #24
 1089              	.LCFI38:
 1090              		.cfi_def_cfa_offset 32
 1091 0004 00AF     		add	r7, sp, #0
 1092              	.LCFI39:
 1093              		.cfi_def_cfa_register 7
 1094 0006 7860     		str	r0, [r7, #4]
 457:./Libraries/STM32F4xx_HAL_Driver/Src/stm32f4xx_hal_hcd.c ****   USB_OTG_GlobalTypeDef *USBx = hhcd->Instance;
 1095              		.loc 1 457 26
 1096 0008 7B68     		ldr	r3, [r7, #4]
 1097 000a 1B68     		ldr	r3, [r3]
 1098 000c 3B61     		str	r3, [r7, #16]
 458:./Libraries/STM32F4xx_HAL_Driver/Src/stm32f4xx_hal_hcd.c ****   uint32_t i = 0U , interrupt = 0U;
 1099              		.loc 1 458 12
 1100 000e 0023     		movs	r3, #0
 1101 0010 7B61     		str	r3, [r7, #20]
 1102              		.loc 1 458 21
 1103 0012 0023     		movs	r3, #0
 1104 0014 FB60     		str	r3, [r7, #12]
 459:./Libraries/STM32F4xx_HAL_Driver/Src/stm32f4xx_hal_hcd.c ****   
 460:./Libraries/STM32F4xx_HAL_Driver/Src/stm32f4xx_hal_hcd.c ****   /* Ensure that we are in device mode */
 461:./Libraries/STM32F4xx_HAL_Driver/Src/stm32f4xx_hal_hcd.c ****   if (USB_GetMode(hhcd->Instance) == USB_OTG_MODE_HOST)
 1105              		.loc 1 461 23
 1106 0016 7B68     		ldr	r3, [r7, #4]
 1107 0018 1B68     		ldr	r3, [r3]
 1108              		.loc 1 461 7
 1109 001a 1846     		mov	r0, r3
 1110 001c FFF7FEFF 		bl	USB_GetMode
 1111 0020 0346     		mov	r3, r0
 1112              		.loc 1 461 6
 1113 0022 012B     		cmp	r3, #1
 1114 0024 40F0E880 		bne	.L40
 462:./Libraries/STM32F4xx_HAL_Driver/Src/stm32f4xx_hal_hcd.c ****   {
 463:./Libraries/STM32F4xx_HAL_Driver/Src/stm32f4xx_hal_hcd.c ****     /* Avoid spurious interrupt */
 464:./Libraries/STM32F4xx_HAL_Driver/Src/stm32f4xx_hal_hcd.c ****     if(__HAL_HCD_IS_INVALID_INTERRUPT(hhcd)) 
 1115              		.loc 1 464 8
 1116 0028 7B68     		ldr	r3, [r7, #4]
 1117 002a 1B68     		ldr	r3, [r3]
 1118 002c 1846     		mov	r0, r3
 1119 002e FFF7FEFF 		bl	USB_ReadInterrupts
 1120 0032 0346     		mov	r3, r0
 1121              		.loc 1 464 7
 1122 0034 002B     		cmp	r3, #0
 1123 0036 00F0DE80 		beq	.L55
 465:./Libraries/STM32F4xx_HAL_Driver/Src/stm32f4xx_hal_hcd.c ****     {
 466:./Libraries/STM32F4xx_HAL_Driver/Src/stm32f4xx_hal_hcd.c ****       return;
 467:./Libraries/STM32F4xx_HAL_Driver/Src/stm32f4xx_hal_hcd.c ****     }
 468:./Libraries/STM32F4xx_HAL_Driver/Src/stm32f4xx_hal_hcd.c ****     
 469:./Libraries/STM32F4xx_HAL_Driver/Src/stm32f4xx_hal_hcd.c ****     if(__HAL_HCD_GET_FLAG(hhcd, USB_OTG_GINTSTS_PXFR_INCOMPISOOUT))
 1124              		.loc 1 469 8
 1125 003a 7B68     		ldr	r3, [r7, #4]
 1126 003c 1B68     		ldr	r3, [r3]
ARM GAS  /tmp/ccYHp8fH.s 			page 29


 1127 003e 1846     		mov	r0, r3
 1128 0040 FFF7FEFF 		bl	USB_ReadInterrupts
 1129 0044 0346     		mov	r3, r0
 1130 0046 03F40013 		and	r3, r3, #2097152
 1131              		.loc 1 469 7
 1132 004a B3F5001F 		cmp	r3, #2097152
 1133 004e 04D1     		bne	.L43
 470:./Libraries/STM32F4xx_HAL_Driver/Src/stm32f4xx_hal_hcd.c ****     {
 471:./Libraries/STM32F4xx_HAL_Driver/Src/stm32f4xx_hal_hcd.c ****       /* Incorrect mode, acknowledge the interrupt */
 472:./Libraries/STM32F4xx_HAL_Driver/Src/stm32f4xx_hal_hcd.c ****       __HAL_HCD_CLEAR_FLAG(hhcd, USB_OTG_GINTSTS_PXFR_INCOMPISOOUT);
 1134              		.loc 1 472 7
 1135 0050 7B68     		ldr	r3, [r7, #4]
 1136 0052 1B68     		ldr	r3, [r3]
 1137 0054 4FF40012 		mov	r2, #2097152
 1138 0058 5A61     		str	r2, [r3, #20]
 1139              	.L43:
 473:./Libraries/STM32F4xx_HAL_Driver/Src/stm32f4xx_hal_hcd.c ****     }
 474:./Libraries/STM32F4xx_HAL_Driver/Src/stm32f4xx_hal_hcd.c ****     
 475:./Libraries/STM32F4xx_HAL_Driver/Src/stm32f4xx_hal_hcd.c ****     if(__HAL_HCD_GET_FLAG(hhcd, USB_OTG_GINTSTS_IISOIXFR))
 1140              		.loc 1 475 8
 1141 005a 7B68     		ldr	r3, [r7, #4]
 1142 005c 1B68     		ldr	r3, [r3]
 1143 005e 1846     		mov	r0, r3
 1144 0060 FFF7FEFF 		bl	USB_ReadInterrupts
 1145 0064 0346     		mov	r3, r0
 1146 0066 03F48013 		and	r3, r3, #1048576
 1147              		.loc 1 475 7
 1148 006a B3F5801F 		cmp	r3, #1048576
 1149 006e 04D1     		bne	.L44
 476:./Libraries/STM32F4xx_HAL_Driver/Src/stm32f4xx_hal_hcd.c ****     {
 477:./Libraries/STM32F4xx_HAL_Driver/Src/stm32f4xx_hal_hcd.c ****       /* Incorrect mode, acknowledge the interrupt */
 478:./Libraries/STM32F4xx_HAL_Driver/Src/stm32f4xx_hal_hcd.c ****       __HAL_HCD_CLEAR_FLAG(hhcd, USB_OTG_GINTSTS_IISOIXFR);
 1150              		.loc 1 478 7
 1151 0070 7B68     		ldr	r3, [r7, #4]
 1152 0072 1B68     		ldr	r3, [r3]
 1153 0074 4FF48012 		mov	r2, #1048576
 1154 0078 5A61     		str	r2, [r3, #20]
 1155              	.L44:
 479:./Libraries/STM32F4xx_HAL_Driver/Src/stm32f4xx_hal_hcd.c ****     }
 480:./Libraries/STM32F4xx_HAL_Driver/Src/stm32f4xx_hal_hcd.c ****     
 481:./Libraries/STM32F4xx_HAL_Driver/Src/stm32f4xx_hal_hcd.c ****     if(__HAL_HCD_GET_FLAG(hhcd, USB_OTG_GINTSTS_PTXFE))
 1156              		.loc 1 481 8
 1157 007a 7B68     		ldr	r3, [r7, #4]
 1158 007c 1B68     		ldr	r3, [r3]
 1159 007e 1846     		mov	r0, r3
 1160 0080 FFF7FEFF 		bl	USB_ReadInterrupts
 1161 0084 0346     		mov	r3, r0
 1162 0086 03F08063 		and	r3, r3, #67108864
 1163              		.loc 1 481 7
 1164 008a B3F1806F 		cmp	r3, #67108864
 1165 008e 04D1     		bne	.L45
 482:./Libraries/STM32F4xx_HAL_Driver/Src/stm32f4xx_hal_hcd.c ****     {
 483:./Libraries/STM32F4xx_HAL_Driver/Src/stm32f4xx_hal_hcd.c ****       /* Incorrect mode, acknowledge the interrupt */
 484:./Libraries/STM32F4xx_HAL_Driver/Src/stm32f4xx_hal_hcd.c ****       __HAL_HCD_CLEAR_FLAG(hhcd, USB_OTG_GINTSTS_PTXFE);
 1166              		.loc 1 484 7
 1167 0090 7B68     		ldr	r3, [r7, #4]
 1168 0092 1B68     		ldr	r3, [r3]
ARM GAS  /tmp/ccYHp8fH.s 			page 30


 1169 0094 4FF08062 		mov	r2, #67108864
 1170 0098 5A61     		str	r2, [r3, #20]
 1171              	.L45:
 485:./Libraries/STM32F4xx_HAL_Driver/Src/stm32f4xx_hal_hcd.c ****     }   
 486:./Libraries/STM32F4xx_HAL_Driver/Src/stm32f4xx_hal_hcd.c ****     
 487:./Libraries/STM32F4xx_HAL_Driver/Src/stm32f4xx_hal_hcd.c ****     if(__HAL_HCD_GET_FLAG(hhcd, USB_OTG_GINTSTS_MMIS))
 1172              		.loc 1 487 8
 1173 009a 7B68     		ldr	r3, [r7, #4]
 1174 009c 1B68     		ldr	r3, [r3]
 1175 009e 1846     		mov	r0, r3
 1176 00a0 FFF7FEFF 		bl	USB_ReadInterrupts
 1177 00a4 0346     		mov	r3, r0
 1178 00a6 03F00203 		and	r3, r3, #2
 1179              		.loc 1 487 7
 1180 00aa 022B     		cmp	r3, #2
 1181 00ac 03D1     		bne	.L46
 488:./Libraries/STM32F4xx_HAL_Driver/Src/stm32f4xx_hal_hcd.c ****     {
 489:./Libraries/STM32F4xx_HAL_Driver/Src/stm32f4xx_hal_hcd.c ****       /* Incorrect mode, acknowledge the interrupt */
 490:./Libraries/STM32F4xx_HAL_Driver/Src/stm32f4xx_hal_hcd.c ****       __HAL_HCD_CLEAR_FLAG(hhcd, USB_OTG_GINTSTS_MMIS);
 1182              		.loc 1 490 7
 1183 00ae 7B68     		ldr	r3, [r7, #4]
 1184 00b0 1B68     		ldr	r3, [r3]
 1185 00b2 0222     		movs	r2, #2
 1186 00b4 5A61     		str	r2, [r3, #20]
 1187              	.L46:
 491:./Libraries/STM32F4xx_HAL_Driver/Src/stm32f4xx_hal_hcd.c ****     }     
 492:./Libraries/STM32F4xx_HAL_Driver/Src/stm32f4xx_hal_hcd.c ****     
 493:./Libraries/STM32F4xx_HAL_Driver/Src/stm32f4xx_hal_hcd.c ****     /* Handle Host Disconnect Interrupts */
 494:./Libraries/STM32F4xx_HAL_Driver/Src/stm32f4xx_hal_hcd.c ****     if(__HAL_HCD_GET_FLAG(hhcd, USB_OTG_GINTSTS_DISCINT))
 1188              		.loc 1 494 8
 1189 00b6 7B68     		ldr	r3, [r7, #4]
 1190 00b8 1B68     		ldr	r3, [r3]
 1191 00ba 1846     		mov	r0, r3
 1192 00bc FFF7FEFF 		bl	USB_ReadInterrupts
 1193 00c0 0346     		mov	r3, r0
 1194 00c2 03F00053 		and	r3, r3, #536870912
 1195              		.loc 1 494 7
 1196 00c6 B3F1005F 		cmp	r3, #536870912
 1197 00ca 17D1     		bne	.L47
 495:./Libraries/STM32F4xx_HAL_Driver/Src/stm32f4xx_hal_hcd.c ****     {
 496:./Libraries/STM32F4xx_HAL_Driver/Src/stm32f4xx_hal_hcd.c ****       
 497:./Libraries/STM32F4xx_HAL_Driver/Src/stm32f4xx_hal_hcd.c ****       /* Cleanup HPRT */
 498:./Libraries/STM32F4xx_HAL_Driver/Src/stm32f4xx_hal_hcd.c ****       USBx_HPRT0 &= ~(USB_OTG_HPRT_PENA | USB_OTG_HPRT_PCDET |\
 1198              		.loc 1 498 18
 1199 00cc 3B69     		ldr	r3, [r7, #16]
 1200 00ce 03F58863 		add	r3, r3, #1088
 1201 00d2 1B68     		ldr	r3, [r3]
 1202 00d4 3A69     		ldr	r2, [r7, #16]
 1203 00d6 02F58862 		add	r2, r2, #1088
 1204 00da 23F02E03 		bic	r3, r3, #46
 1205 00de 1360     		str	r3, [r2]
 499:./Libraries/STM32F4xx_HAL_Driver/Src/stm32f4xx_hal_hcd.c ****         USB_OTG_HPRT_PENCHNG | USB_OTG_HPRT_POCCHNG );
 500:./Libraries/STM32F4xx_HAL_Driver/Src/stm32f4xx_hal_hcd.c ****       
 501:./Libraries/STM32F4xx_HAL_Driver/Src/stm32f4xx_hal_hcd.c ****       /* Handle Host Port Interrupts */
 502:./Libraries/STM32F4xx_HAL_Driver/Src/stm32f4xx_hal_hcd.c ****       HAL_HCD_Disconnect_Callback(hhcd);
 1206              		.loc 1 502 7
 1207 00e0 7868     		ldr	r0, [r7, #4]
ARM GAS  /tmp/ccYHp8fH.s 			page 31


 1208 00e2 FFF7FEFF 		bl	HAL_HCD_Disconnect_Callback
 503:./Libraries/STM32F4xx_HAL_Driver/Src/stm32f4xx_hal_hcd.c ****       USB_InitFSLSPClkSel(hhcd->Instance ,HCFG_48_MHZ );
 1209              		.loc 1 503 31
 1210 00e6 7B68     		ldr	r3, [r7, #4]
 1211 00e8 1B68     		ldr	r3, [r3]
 1212              		.loc 1 503 7
 1213 00ea 0121     		movs	r1, #1
 1214 00ec 1846     		mov	r0, r3
 1215 00ee FFF7FEFF 		bl	USB_InitFSLSPClkSel
 504:./Libraries/STM32F4xx_HAL_Driver/Src/stm32f4xx_hal_hcd.c ****       __HAL_HCD_CLEAR_FLAG(hhcd, USB_OTG_GINTSTS_DISCINT);
 1216              		.loc 1 504 7
 1217 00f2 7B68     		ldr	r3, [r7, #4]
 1218 00f4 1B68     		ldr	r3, [r3]
 1219 00f6 4FF00052 		mov	r2, #536870912
 1220 00fa 5A61     		str	r2, [r3, #20]
 1221              	.L47:
 505:./Libraries/STM32F4xx_HAL_Driver/Src/stm32f4xx_hal_hcd.c ****     }
 506:./Libraries/STM32F4xx_HAL_Driver/Src/stm32f4xx_hal_hcd.c ****     
 507:./Libraries/STM32F4xx_HAL_Driver/Src/stm32f4xx_hal_hcd.c ****     /* Handle Host Port Interrupts */
 508:./Libraries/STM32F4xx_HAL_Driver/Src/stm32f4xx_hal_hcd.c ****     if(__HAL_HCD_GET_FLAG(hhcd, USB_OTG_GINTSTS_HPRTINT))
 1222              		.loc 1 508 8
 1223 00fc 7B68     		ldr	r3, [r7, #4]
 1224 00fe 1B68     		ldr	r3, [r3]
 1225 0100 1846     		mov	r0, r3
 1226 0102 FFF7FEFF 		bl	USB_ReadInterrupts
 1227 0106 0346     		mov	r3, r0
 1228 0108 03F08073 		and	r3, r3, #16777216
 1229              		.loc 1 508 7
 1230 010c B3F1807F 		cmp	r3, #16777216
 1231 0110 02D1     		bne	.L48
 509:./Libraries/STM32F4xx_HAL_Driver/Src/stm32f4xx_hal_hcd.c ****     {
 510:./Libraries/STM32F4xx_HAL_Driver/Src/stm32f4xx_hal_hcd.c ****       HCD_Port_IRQHandler (hhcd);
 1232              		.loc 1 510 7
 1233 0112 7868     		ldr	r0, [r7, #4]
 1234 0114 FFF7FEFF 		bl	HCD_Port_IRQHandler
 1235              	.L48:
 511:./Libraries/STM32F4xx_HAL_Driver/Src/stm32f4xx_hal_hcd.c ****     }
 512:./Libraries/STM32F4xx_HAL_Driver/Src/stm32f4xx_hal_hcd.c ****     
 513:./Libraries/STM32F4xx_HAL_Driver/Src/stm32f4xx_hal_hcd.c ****     /* Handle Host SOF Interrupts */
 514:./Libraries/STM32F4xx_HAL_Driver/Src/stm32f4xx_hal_hcd.c ****     if(__HAL_HCD_GET_FLAG(hhcd, USB_OTG_GINTSTS_SOF))
 1236              		.loc 1 514 8
 1237 0118 7B68     		ldr	r3, [r7, #4]
 1238 011a 1B68     		ldr	r3, [r3]
 1239 011c 1846     		mov	r0, r3
 1240 011e FFF7FEFF 		bl	USB_ReadInterrupts
 1241 0122 0346     		mov	r3, r0
 1242 0124 03F00803 		and	r3, r3, #8
 1243              		.loc 1 514 7
 1244 0128 082B     		cmp	r3, #8
 1245 012a 06D1     		bne	.L49
 515:./Libraries/STM32F4xx_HAL_Driver/Src/stm32f4xx_hal_hcd.c ****     {
 516:./Libraries/STM32F4xx_HAL_Driver/Src/stm32f4xx_hal_hcd.c ****       HAL_HCD_SOF_Callback(hhcd);
 1246              		.loc 1 516 7
 1247 012c 7868     		ldr	r0, [r7, #4]
 1248 012e FFF7FEFF 		bl	HAL_HCD_SOF_Callback
 517:./Libraries/STM32F4xx_HAL_Driver/Src/stm32f4xx_hal_hcd.c ****       __HAL_HCD_CLEAR_FLAG(hhcd, USB_OTG_GINTSTS_SOF);
 1249              		.loc 1 517 7
ARM GAS  /tmp/ccYHp8fH.s 			page 32


 1250 0132 7B68     		ldr	r3, [r7, #4]
 1251 0134 1B68     		ldr	r3, [r3]
 1252 0136 0822     		movs	r2, #8
 1253 0138 5A61     		str	r2, [r3, #20]
 1254              	.L49:
 518:./Libraries/STM32F4xx_HAL_Driver/Src/stm32f4xx_hal_hcd.c ****     }
 519:./Libraries/STM32F4xx_HAL_Driver/Src/stm32f4xx_hal_hcd.c ****     
 520:./Libraries/STM32F4xx_HAL_Driver/Src/stm32f4xx_hal_hcd.c ****     /* Handle Host channel Interrupts */
 521:./Libraries/STM32F4xx_HAL_Driver/Src/stm32f4xx_hal_hcd.c ****     if(__HAL_HCD_GET_FLAG(hhcd, USB_OTG_GINTSTS_HCINT))
 1255              		.loc 1 521 8
 1256 013a 7B68     		ldr	r3, [r7, #4]
 1257 013c 1B68     		ldr	r3, [r3]
 1258 013e 1846     		mov	r0, r3
 1259 0140 FFF7FEFF 		bl	USB_ReadInterrupts
 1260 0144 0346     		mov	r3, r0
 1261 0146 03F00073 		and	r3, r3, #33554432
 1262              		.loc 1 521 7
 1263 014a B3F1007F 		cmp	r3, #33554432
 1264 014e 34D1     		bne	.L50
 522:./Libraries/STM32F4xx_HAL_Driver/Src/stm32f4xx_hal_hcd.c ****     {
 523:./Libraries/STM32F4xx_HAL_Driver/Src/stm32f4xx_hal_hcd.c ****       interrupt = USB_HC_ReadInterrupt(hhcd->Instance);
 1265              		.loc 1 523 44
 1266 0150 7B68     		ldr	r3, [r7, #4]
 1267 0152 1B68     		ldr	r3, [r3]
 1268              		.loc 1 523 19
 1269 0154 1846     		mov	r0, r3
 1270 0156 FFF7FEFF 		bl	USB_HC_ReadInterrupt
 1271 015a F860     		str	r0, [r7, #12]
 524:./Libraries/STM32F4xx_HAL_Driver/Src/stm32f4xx_hal_hcd.c ****       for (i = 0U; i < hhcd->Init.Host_channels; i++)
 1272              		.loc 1 524 14
 1273 015c 0023     		movs	r3, #0
 1274 015e 7B61     		str	r3, [r7, #20]
 1275              		.loc 1 524 7
 1276 0160 21E0     		b	.L51
 1277              	.L54:
 525:./Libraries/STM32F4xx_HAL_Driver/Src/stm32f4xx_hal_hcd.c ****       {
 526:./Libraries/STM32F4xx_HAL_Driver/Src/stm32f4xx_hal_hcd.c ****         if (interrupt & (1U << i))
 1278              		.loc 1 526 29
 1279 0162 0122     		movs	r2, #1
 1280 0164 7B69     		ldr	r3, [r7, #20]
 1281 0166 9A40     		lsls	r2, r2, r3
 1282              		.loc 1 526 23
 1283 0168 FB68     		ldr	r3, [r7, #12]
 1284 016a 1340     		ands	r3, r3, r2
 1285              		.loc 1 526 12
 1286 016c 002B     		cmp	r3, #0
 1287 016e 17D0     		beq	.L52
 527:./Libraries/STM32F4xx_HAL_Driver/Src/stm32f4xx_hal_hcd.c ****         {
 528:./Libraries/STM32F4xx_HAL_Driver/Src/stm32f4xx_hal_hcd.c ****           if ((USBx_HC(i)->HCCHAR) &  USB_OTG_HCCHAR_EPDIR)
 1288              		.loc 1 528 16
 1289 0170 7B69     		ldr	r3, [r7, #20]
 1290 0172 5A01     		lsls	r2, r3, #5
 1291 0174 3B69     		ldr	r3, [r7, #16]
 1292 0176 1344     		add	r3, r3, r2
 1293 0178 03F5A063 		add	r3, r3, #1280
 1294              		.loc 1 528 26
 1295 017c 1B68     		ldr	r3, [r3]
ARM GAS  /tmp/ccYHp8fH.s 			page 33


 1296              		.loc 1 528 36
 1297 017e 03F40043 		and	r3, r3, #32768
 1298              		.loc 1 528 14
 1299 0182 002B     		cmp	r3, #0
 1300 0184 06D0     		beq	.L53
 529:./Libraries/STM32F4xx_HAL_Driver/Src/stm32f4xx_hal_hcd.c ****           {
 530:./Libraries/STM32F4xx_HAL_Driver/Src/stm32f4xx_hal_hcd.c ****             HCD_HC_IN_IRQHandler(hhcd, i);
 1301              		.loc 1 530 13
 1302 0186 7B69     		ldr	r3, [r7, #20]
 1303 0188 DBB2     		uxtb	r3, r3
 1304 018a 1946     		mov	r1, r3
 1305 018c 7868     		ldr	r0, [r7, #4]
 1306 018e FFF7FEFF 		bl	HCD_HC_IN_IRQHandler
 1307 0192 05E0     		b	.L52
 1308              	.L53:
 531:./Libraries/STM32F4xx_HAL_Driver/Src/stm32f4xx_hal_hcd.c ****           }
 532:./Libraries/STM32F4xx_HAL_Driver/Src/stm32f4xx_hal_hcd.c ****           else
 533:./Libraries/STM32F4xx_HAL_Driver/Src/stm32f4xx_hal_hcd.c ****           {
 534:./Libraries/STM32F4xx_HAL_Driver/Src/stm32f4xx_hal_hcd.c ****             HCD_HC_OUT_IRQHandler (hhcd, i);
 1309              		.loc 1 534 13
 1310 0194 7B69     		ldr	r3, [r7, #20]
 1311 0196 DBB2     		uxtb	r3, r3
 1312 0198 1946     		mov	r1, r3
 1313 019a 7868     		ldr	r0, [r7, #4]
 1314 019c FFF7FEFF 		bl	HCD_HC_OUT_IRQHandler
 1315              	.L52:
 524:./Libraries/STM32F4xx_HAL_Driver/Src/stm32f4xx_hal_hcd.c ****       {
 1316              		.loc 1 524 51 discriminator 2
 1317 01a0 7B69     		ldr	r3, [r7, #20]
 1318 01a2 0133     		adds	r3, r3, #1
 1319 01a4 7B61     		str	r3, [r7, #20]
 1320              	.L51:
 524:./Libraries/STM32F4xx_HAL_Driver/Src/stm32f4xx_hal_hcd.c ****       {
 1321              		.loc 1 524 34 discriminator 1
 1322 01a6 7B68     		ldr	r3, [r7, #4]
 1323 01a8 9B68     		ldr	r3, [r3, #8]
 524:./Libraries/STM32F4xx_HAL_Driver/Src/stm32f4xx_hal_hcd.c ****       {
 1324              		.loc 1 524 7 discriminator 1
 1325 01aa 7A69     		ldr	r2, [r7, #20]
 1326 01ac 9A42     		cmp	r2, r3
 1327 01ae D8D3     		bcc	.L54
 535:./Libraries/STM32F4xx_HAL_Driver/Src/stm32f4xx_hal_hcd.c ****           }
 536:./Libraries/STM32F4xx_HAL_Driver/Src/stm32f4xx_hal_hcd.c ****         }
 537:./Libraries/STM32F4xx_HAL_Driver/Src/stm32f4xx_hal_hcd.c ****       }
 538:./Libraries/STM32F4xx_HAL_Driver/Src/stm32f4xx_hal_hcd.c ****       __HAL_HCD_CLEAR_FLAG(hhcd, USB_OTG_GINTSTS_HCINT);
 1328              		.loc 1 538 7
 1329 01b0 7B68     		ldr	r3, [r7, #4]
 1330 01b2 1B68     		ldr	r3, [r3]
 1331 01b4 4FF00072 		mov	r2, #33554432
 1332 01b8 5A61     		str	r2, [r3, #20]
 1333              	.L50:
 539:./Libraries/STM32F4xx_HAL_Driver/Src/stm32f4xx_hal_hcd.c ****     } 
 540:./Libraries/STM32F4xx_HAL_Driver/Src/stm32f4xx_hal_hcd.c ****     
 541:./Libraries/STM32F4xx_HAL_Driver/Src/stm32f4xx_hal_hcd.c ****     /* Handle Rx Queue Level Interrupts */
 542:./Libraries/STM32F4xx_HAL_Driver/Src/stm32f4xx_hal_hcd.c ****     if(__HAL_HCD_GET_FLAG(hhcd, USB_OTG_GINTSTS_RXFLVL))
 1334              		.loc 1 542 8
 1335 01ba 7B68     		ldr	r3, [r7, #4]
ARM GAS  /tmp/ccYHp8fH.s 			page 34


 1336 01bc 1B68     		ldr	r3, [r3]
 1337 01be 1846     		mov	r0, r3
 1338 01c0 FFF7FEFF 		bl	USB_ReadInterrupts
 1339 01c4 0346     		mov	r3, r0
 1340 01c6 03F01003 		and	r3, r3, #16
 1341              		.loc 1 542 7
 1342 01ca 102B     		cmp	r3, #16
 1343 01cc 14D1     		bne	.L40
 543:./Libraries/STM32F4xx_HAL_Driver/Src/stm32f4xx_hal_hcd.c ****     {
 544:./Libraries/STM32F4xx_HAL_Driver/Src/stm32f4xx_hal_hcd.c ****       USB_MASK_INTERRUPT(hhcd->Instance, USB_OTG_GINTSTS_RXFLVL);
 1344              		.loc 1 544 7
 1345 01ce 7B68     		ldr	r3, [r7, #4]
 1346 01d0 1B68     		ldr	r3, [r3]
 1347 01d2 9A69     		ldr	r2, [r3, #24]
 1348 01d4 7B68     		ldr	r3, [r7, #4]
 1349 01d6 1B68     		ldr	r3, [r3]
 1350 01d8 22F01002 		bic	r2, r2, #16
 1351 01dc 9A61     		str	r2, [r3, #24]
 545:./Libraries/STM32F4xx_HAL_Driver/Src/stm32f4xx_hal_hcd.c ****       
 546:./Libraries/STM32F4xx_HAL_Driver/Src/stm32f4xx_hal_hcd.c ****       HCD_RXQLVL_IRQHandler (hhcd);
 1352              		.loc 1 546 7
 1353 01de 7868     		ldr	r0, [r7, #4]
 1354 01e0 FFF7FEFF 		bl	HCD_RXQLVL_IRQHandler
 547:./Libraries/STM32F4xx_HAL_Driver/Src/stm32f4xx_hal_hcd.c ****       
 548:./Libraries/STM32F4xx_HAL_Driver/Src/stm32f4xx_hal_hcd.c ****       USB_UNMASK_INTERRUPT(hhcd->Instance, USB_OTG_GINTSTS_RXFLVL);
 1355              		.loc 1 548 7
 1356 01e4 7B68     		ldr	r3, [r7, #4]
 1357 01e6 1B68     		ldr	r3, [r3]
 1358 01e8 9A69     		ldr	r2, [r3, #24]
 1359 01ea 7B68     		ldr	r3, [r7, #4]
 1360 01ec 1B68     		ldr	r3, [r3]
 1361 01ee 42F01002 		orr	r2, r2, #16
 1362 01f2 9A61     		str	r2, [r3, #24]
 1363 01f4 00E0     		b	.L40
 1364              	.L55:
 466:./Libraries/STM32F4xx_HAL_Driver/Src/stm32f4xx_hal_hcd.c ****     }
 1365              		.loc 1 466 7
 1366 01f6 00BF     		nop
 1367              	.L40:
 549:./Libraries/STM32F4xx_HAL_Driver/Src/stm32f4xx_hal_hcd.c ****     }
 550:./Libraries/STM32F4xx_HAL_Driver/Src/stm32f4xx_hal_hcd.c ****   }
 551:./Libraries/STM32F4xx_HAL_Driver/Src/stm32f4xx_hal_hcd.c **** }
 1368              		.loc 1 551 1
 1369 01f8 1837     		adds	r7, r7, #24
 1370              	.LCFI40:
 1371              		.cfi_def_cfa_offset 8
 1372 01fa BD46     		mov	sp, r7
 1373              	.LCFI41:
 1374              		.cfi_def_cfa_register 13
 1375              		@ sp needed
 1376 01fc 80BD     		pop	{r7, pc}
 1377              		.cfi_endproc
 1378              	.LFE133:
 1380              		.section	.text.HAL_HCD_SOF_Callback,"ax",%progbits
 1381              		.align	1
 1382              		.weak	HAL_HCD_SOF_Callback
 1383              		.syntax unified
ARM GAS  /tmp/ccYHp8fH.s 			page 35


 1384              		.thumb
 1385              		.thumb_func
 1386              		.fpu fpv4-sp-d16
 1388              	HAL_HCD_SOF_Callback:
 1389              	.LFB134:
 552:./Libraries/STM32F4xx_HAL_Driver/Src/stm32f4xx_hal_hcd.c **** 
 553:./Libraries/STM32F4xx_HAL_Driver/Src/stm32f4xx_hal_hcd.c **** /**
 554:./Libraries/STM32F4xx_HAL_Driver/Src/stm32f4xx_hal_hcd.c ****   * @brief  SOF callback.
 555:./Libraries/STM32F4xx_HAL_Driver/Src/stm32f4xx_hal_hcd.c ****   * @param  hhcd HCD handle
 556:./Libraries/STM32F4xx_HAL_Driver/Src/stm32f4xx_hal_hcd.c ****   * @retval None
 557:./Libraries/STM32F4xx_HAL_Driver/Src/stm32f4xx_hal_hcd.c ****   */
 558:./Libraries/STM32F4xx_HAL_Driver/Src/stm32f4xx_hal_hcd.c **** __weak void HAL_HCD_SOF_Callback(HCD_HandleTypeDef *hhcd)
 559:./Libraries/STM32F4xx_HAL_Driver/Src/stm32f4xx_hal_hcd.c **** {
 1390              		.loc 1 559 1
 1391              		.cfi_startproc
 1392              		@ args = 0, pretend = 0, frame = 8
 1393              		@ frame_needed = 1, uses_anonymous_args = 0
 1394              		@ link register save eliminated.
 1395 0000 80B4     		push	{r7}
 1396              	.LCFI42:
 1397              		.cfi_def_cfa_offset 4
 1398              		.cfi_offset 7, -4
 1399 0002 83B0     		sub	sp, sp, #12
 1400              	.LCFI43:
 1401              		.cfi_def_cfa_offset 16
 1402 0004 00AF     		add	r7, sp, #0
 1403              	.LCFI44:
 1404              		.cfi_def_cfa_register 7
 1405 0006 7860     		str	r0, [r7, #4]
 560:./Libraries/STM32F4xx_HAL_Driver/Src/stm32f4xx_hal_hcd.c ****   /* Prevent unused argument(s) compilation warning */
 561:./Libraries/STM32F4xx_HAL_Driver/Src/stm32f4xx_hal_hcd.c ****   UNUSED(hhcd);
 562:./Libraries/STM32F4xx_HAL_Driver/Src/stm32f4xx_hal_hcd.c ****   /* NOTE : This function Should not be modified, when the callback is needed,
 563:./Libraries/STM32F4xx_HAL_Driver/Src/stm32f4xx_hal_hcd.c ****             the HAL_HCD_SOF_Callback could be implemented in the user file
 564:./Libraries/STM32F4xx_HAL_Driver/Src/stm32f4xx_hal_hcd.c ****    */
 565:./Libraries/STM32F4xx_HAL_Driver/Src/stm32f4xx_hal_hcd.c **** }
 1406              		.loc 1 565 1
 1407 0008 00BF     		nop
 1408 000a 0C37     		adds	r7, r7, #12
 1409              	.LCFI45:
 1410              		.cfi_def_cfa_offset 4
 1411 000c BD46     		mov	sp, r7
 1412              	.LCFI46:
 1413              		.cfi_def_cfa_register 13
 1414              		@ sp needed
 1415 000e 5DF8047B 		ldr	r7, [sp], #4
 1416              	.LCFI47:
 1417              		.cfi_restore 7
 1418              		.cfi_def_cfa_offset 0
 1419 0012 7047     		bx	lr
 1420              		.cfi_endproc
 1421              	.LFE134:
 1423              		.section	.text.HAL_HCD_Connect_Callback,"ax",%progbits
 1424              		.align	1
 1425              		.weak	HAL_HCD_Connect_Callback
 1426              		.syntax unified
 1427              		.thumb
 1428              		.thumb_func
ARM GAS  /tmp/ccYHp8fH.s 			page 36


 1429              		.fpu fpv4-sp-d16
 1431              	HAL_HCD_Connect_Callback:
 1432              	.LFB135:
 566:./Libraries/STM32F4xx_HAL_Driver/Src/stm32f4xx_hal_hcd.c **** 
 567:./Libraries/STM32F4xx_HAL_Driver/Src/stm32f4xx_hal_hcd.c **** /**
 568:./Libraries/STM32F4xx_HAL_Driver/Src/stm32f4xx_hal_hcd.c ****   * @brief Connection Event callback.
 569:./Libraries/STM32F4xx_HAL_Driver/Src/stm32f4xx_hal_hcd.c ****   * @param  hhcd HCD handle
 570:./Libraries/STM32F4xx_HAL_Driver/Src/stm32f4xx_hal_hcd.c ****   * @retval None
 571:./Libraries/STM32F4xx_HAL_Driver/Src/stm32f4xx_hal_hcd.c ****   */
 572:./Libraries/STM32F4xx_HAL_Driver/Src/stm32f4xx_hal_hcd.c **** __weak void HAL_HCD_Connect_Callback(HCD_HandleTypeDef *hhcd)
 573:./Libraries/STM32F4xx_HAL_Driver/Src/stm32f4xx_hal_hcd.c **** {
 1433              		.loc 1 573 1
 1434              		.cfi_startproc
 1435              		@ args = 0, pretend = 0, frame = 8
 1436              		@ frame_needed = 1, uses_anonymous_args = 0
 1437              		@ link register save eliminated.
 1438 0000 80B4     		push	{r7}
 1439              	.LCFI48:
 1440              		.cfi_def_cfa_offset 4
 1441              		.cfi_offset 7, -4
 1442 0002 83B0     		sub	sp, sp, #12
 1443              	.LCFI49:
 1444              		.cfi_def_cfa_offset 16
 1445 0004 00AF     		add	r7, sp, #0
 1446              	.LCFI50:
 1447              		.cfi_def_cfa_register 7
 1448 0006 7860     		str	r0, [r7, #4]
 574:./Libraries/STM32F4xx_HAL_Driver/Src/stm32f4xx_hal_hcd.c ****   /* Prevent unused argument(s) compilation warning */
 575:./Libraries/STM32F4xx_HAL_Driver/Src/stm32f4xx_hal_hcd.c ****   UNUSED(hhcd);
 576:./Libraries/STM32F4xx_HAL_Driver/Src/stm32f4xx_hal_hcd.c ****   /* NOTE : This function Should not be modified, when the callback is needed,
 577:./Libraries/STM32F4xx_HAL_Driver/Src/stm32f4xx_hal_hcd.c ****             the HAL_HCD_Connect_Callback could be implemented in the user file
 578:./Libraries/STM32F4xx_HAL_Driver/Src/stm32f4xx_hal_hcd.c ****    */
 579:./Libraries/STM32F4xx_HAL_Driver/Src/stm32f4xx_hal_hcd.c **** }
 1449              		.loc 1 579 1
 1450 0008 00BF     		nop
 1451 000a 0C37     		adds	r7, r7, #12
 1452              	.LCFI51:
 1453              		.cfi_def_cfa_offset 4
 1454 000c BD46     		mov	sp, r7
 1455              	.LCFI52:
 1456              		.cfi_def_cfa_register 13
 1457              		@ sp needed
 1458 000e 5DF8047B 		ldr	r7, [sp], #4
 1459              	.LCFI53:
 1460              		.cfi_restore 7
 1461              		.cfi_def_cfa_offset 0
 1462 0012 7047     		bx	lr
 1463              		.cfi_endproc
 1464              	.LFE135:
 1466              		.section	.text.HAL_HCD_Disconnect_Callback,"ax",%progbits
 1467              		.align	1
 1468              		.weak	HAL_HCD_Disconnect_Callback
 1469              		.syntax unified
 1470              		.thumb
 1471              		.thumb_func
 1472              		.fpu fpv4-sp-d16
 1474              	HAL_HCD_Disconnect_Callback:
ARM GAS  /tmp/ccYHp8fH.s 			page 37


 1475              	.LFB136:
 580:./Libraries/STM32F4xx_HAL_Driver/Src/stm32f4xx_hal_hcd.c **** 
 581:./Libraries/STM32F4xx_HAL_Driver/Src/stm32f4xx_hal_hcd.c **** /**
 582:./Libraries/STM32F4xx_HAL_Driver/Src/stm32f4xx_hal_hcd.c ****   * @brief  Disconnection Event callback.
 583:./Libraries/STM32F4xx_HAL_Driver/Src/stm32f4xx_hal_hcd.c ****   * @param  hhcd HCD handle
 584:./Libraries/STM32F4xx_HAL_Driver/Src/stm32f4xx_hal_hcd.c ****   * @retval None
 585:./Libraries/STM32F4xx_HAL_Driver/Src/stm32f4xx_hal_hcd.c ****   */
 586:./Libraries/STM32F4xx_HAL_Driver/Src/stm32f4xx_hal_hcd.c **** __weak void HAL_HCD_Disconnect_Callback(HCD_HandleTypeDef *hhcd)
 587:./Libraries/STM32F4xx_HAL_Driver/Src/stm32f4xx_hal_hcd.c **** {
 1476              		.loc 1 587 1
 1477              		.cfi_startproc
 1478              		@ args = 0, pretend = 0, frame = 8
 1479              		@ frame_needed = 1, uses_anonymous_args = 0
 1480              		@ link register save eliminated.
 1481 0000 80B4     		push	{r7}
 1482              	.LCFI54:
 1483              		.cfi_def_cfa_offset 4
 1484              		.cfi_offset 7, -4
 1485 0002 83B0     		sub	sp, sp, #12
 1486              	.LCFI55:
 1487              		.cfi_def_cfa_offset 16
 1488 0004 00AF     		add	r7, sp, #0
 1489              	.LCFI56:
 1490              		.cfi_def_cfa_register 7
 1491 0006 7860     		str	r0, [r7, #4]
 588:./Libraries/STM32F4xx_HAL_Driver/Src/stm32f4xx_hal_hcd.c ****   /* Prevent unused argument(s) compilation warning */
 589:./Libraries/STM32F4xx_HAL_Driver/Src/stm32f4xx_hal_hcd.c ****   UNUSED(hhcd);
 590:./Libraries/STM32F4xx_HAL_Driver/Src/stm32f4xx_hal_hcd.c ****   /* NOTE : This function Should not be modified, when the callback is needed,
 591:./Libraries/STM32F4xx_HAL_Driver/Src/stm32f4xx_hal_hcd.c ****             the HAL_HCD_Disconnect_Callback could be implemented in the user file
 592:./Libraries/STM32F4xx_HAL_Driver/Src/stm32f4xx_hal_hcd.c ****    */
 593:./Libraries/STM32F4xx_HAL_Driver/Src/stm32f4xx_hal_hcd.c **** } 
 1492              		.loc 1 593 1
 1493 0008 00BF     		nop
 1494 000a 0C37     		adds	r7, r7, #12
 1495              	.LCFI57:
 1496              		.cfi_def_cfa_offset 4
 1497 000c BD46     		mov	sp, r7
 1498              	.LCFI58:
 1499              		.cfi_def_cfa_register 13
 1500              		@ sp needed
 1501 000e 5DF8047B 		ldr	r7, [sp], #4
 1502              	.LCFI59:
 1503              		.cfi_restore 7
 1504              		.cfi_def_cfa_offset 0
 1505 0012 7047     		bx	lr
 1506              		.cfi_endproc
 1507              	.LFE136:
 1509              		.section	.text.HAL_HCD_HC_NotifyURBChange_Callback,"ax",%progbits
 1510              		.align	1
 1511              		.weak	HAL_HCD_HC_NotifyURBChange_Callback
 1512              		.syntax unified
 1513              		.thumb
 1514              		.thumb_func
 1515              		.fpu fpv4-sp-d16
 1517              	HAL_HCD_HC_NotifyURBChange_Callback:
 1518              	.LFB137:
 594:./Libraries/STM32F4xx_HAL_Driver/Src/stm32f4xx_hal_hcd.c **** 
ARM GAS  /tmp/ccYHp8fH.s 			page 38


 595:./Libraries/STM32F4xx_HAL_Driver/Src/stm32f4xx_hal_hcd.c **** /**
 596:./Libraries/STM32F4xx_HAL_Driver/Src/stm32f4xx_hal_hcd.c ****   * @brief  Notify URB state change callback.
 597:./Libraries/STM32F4xx_HAL_Driver/Src/stm32f4xx_hal_hcd.c ****   * @param  hhcd HCD handle
 598:./Libraries/STM32F4xx_HAL_Driver/Src/stm32f4xx_hal_hcd.c ****   * @param  chnum Channel number.
 599:./Libraries/STM32F4xx_HAL_Driver/Src/stm32f4xx_hal_hcd.c ****   *         This parameter can be a value from 1 to 15
 600:./Libraries/STM32F4xx_HAL_Driver/Src/stm32f4xx_hal_hcd.c ****   * @param  urb_state:
 601:./Libraries/STM32F4xx_HAL_Driver/Src/stm32f4xx_hal_hcd.c ****   *          This parameter can be one of these values:
 602:./Libraries/STM32F4xx_HAL_Driver/Src/stm32f4xx_hal_hcd.c ****   *            URB_IDLE/
 603:./Libraries/STM32F4xx_HAL_Driver/Src/stm32f4xx_hal_hcd.c ****   *            URB_DONE/
 604:./Libraries/STM32F4xx_HAL_Driver/Src/stm32f4xx_hal_hcd.c ****   *            URB_NOTREADY/
 605:./Libraries/STM32F4xx_HAL_Driver/Src/stm32f4xx_hal_hcd.c ****   *            URB_NYET/
 606:./Libraries/STM32F4xx_HAL_Driver/Src/stm32f4xx_hal_hcd.c ****   *            URB_ERROR/
 607:./Libraries/STM32F4xx_HAL_Driver/Src/stm32f4xx_hal_hcd.c ****   *            URB_STALL/
 608:./Libraries/STM32F4xx_HAL_Driver/Src/stm32f4xx_hal_hcd.c ****   * @retval None
 609:./Libraries/STM32F4xx_HAL_Driver/Src/stm32f4xx_hal_hcd.c ****   */
 610:./Libraries/STM32F4xx_HAL_Driver/Src/stm32f4xx_hal_hcd.c **** __weak void HAL_HCD_HC_NotifyURBChange_Callback(HCD_HandleTypeDef *hhcd, uint8_t chnum, HCD_URBStat
 611:./Libraries/STM32F4xx_HAL_Driver/Src/stm32f4xx_hal_hcd.c **** {
 1519              		.loc 1 611 1
 1520              		.cfi_startproc
 1521              		@ args = 0, pretend = 0, frame = 8
 1522              		@ frame_needed = 1, uses_anonymous_args = 0
 1523              		@ link register save eliminated.
 1524 0000 80B4     		push	{r7}
 1525              	.LCFI60:
 1526              		.cfi_def_cfa_offset 4
 1527              		.cfi_offset 7, -4
 1528 0002 83B0     		sub	sp, sp, #12
 1529              	.LCFI61:
 1530              		.cfi_def_cfa_offset 16
 1531 0004 00AF     		add	r7, sp, #0
 1532              	.LCFI62:
 1533              		.cfi_def_cfa_register 7
 1534 0006 7860     		str	r0, [r7, #4]
 1535 0008 0B46     		mov	r3, r1
 1536 000a FB70     		strb	r3, [r7, #3]
 1537 000c 1346     		mov	r3, r2
 1538 000e BB70     		strb	r3, [r7, #2]
 612:./Libraries/STM32F4xx_HAL_Driver/Src/stm32f4xx_hal_hcd.c ****   /* Prevent unused argument(s) compilation warning */
 613:./Libraries/STM32F4xx_HAL_Driver/Src/stm32f4xx_hal_hcd.c ****   UNUSED(hhcd);
 614:./Libraries/STM32F4xx_HAL_Driver/Src/stm32f4xx_hal_hcd.c ****   UNUSED(chnum);
 615:./Libraries/STM32F4xx_HAL_Driver/Src/stm32f4xx_hal_hcd.c ****   UNUSED(urb_state);
 616:./Libraries/STM32F4xx_HAL_Driver/Src/stm32f4xx_hal_hcd.c ****   /* NOTE : This function Should not be modified, when the callback is needed,
 617:./Libraries/STM32F4xx_HAL_Driver/Src/stm32f4xx_hal_hcd.c ****             the HAL_HCD_HC_NotifyURBChange_Callback could be implemented in the user file
 618:./Libraries/STM32F4xx_HAL_Driver/Src/stm32f4xx_hal_hcd.c ****    */
 619:./Libraries/STM32F4xx_HAL_Driver/Src/stm32f4xx_hal_hcd.c **** }
 1539              		.loc 1 619 1
 1540 0010 00BF     		nop
 1541 0012 0C37     		adds	r7, r7, #12
 1542              	.LCFI63:
 1543              		.cfi_def_cfa_offset 4
 1544 0014 BD46     		mov	sp, r7
 1545              	.LCFI64:
 1546              		.cfi_def_cfa_register 13
 1547              		@ sp needed
 1548 0016 5DF8047B 		ldr	r7, [sp], #4
 1549              	.LCFI65:
 1550              		.cfi_restore 7
ARM GAS  /tmp/ccYHp8fH.s 			page 39


 1551              		.cfi_def_cfa_offset 0
 1552 001a 7047     		bx	lr
 1553              		.cfi_endproc
 1554              	.LFE137:
 1556              		.section	.text.HAL_HCD_Start,"ax",%progbits
 1557              		.align	1
 1558              		.global	HAL_HCD_Start
 1559              		.syntax unified
 1560              		.thumb
 1561              		.thumb_func
 1562              		.fpu fpv4-sp-d16
 1564              	HAL_HCD_Start:
 1565              	.LFB138:
 620:./Libraries/STM32F4xx_HAL_Driver/Src/stm32f4xx_hal_hcd.c **** 
 621:./Libraries/STM32F4xx_HAL_Driver/Src/stm32f4xx_hal_hcd.c **** /**
 622:./Libraries/STM32F4xx_HAL_Driver/Src/stm32f4xx_hal_hcd.c ****   * @}
 623:./Libraries/STM32F4xx_HAL_Driver/Src/stm32f4xx_hal_hcd.c ****   */
 624:./Libraries/STM32F4xx_HAL_Driver/Src/stm32f4xx_hal_hcd.c **** 
 625:./Libraries/STM32F4xx_HAL_Driver/Src/stm32f4xx_hal_hcd.c **** /** @defgroup HCD_Exported_Functions_Group3 Peripheral Control functions 
 626:./Libraries/STM32F4xx_HAL_Driver/Src/stm32f4xx_hal_hcd.c ****  *  @brief   Management functions 
 627:./Libraries/STM32F4xx_HAL_Driver/Src/stm32f4xx_hal_hcd.c ****  *
 628:./Libraries/STM32F4xx_HAL_Driver/Src/stm32f4xx_hal_hcd.c **** @verbatim 
 629:./Libraries/STM32F4xx_HAL_Driver/Src/stm32f4xx_hal_hcd.c ****  ===============================================================================
 630:./Libraries/STM32F4xx_HAL_Driver/Src/stm32f4xx_hal_hcd.c ****                       ##### Peripheral Control functions #####
 631:./Libraries/STM32F4xx_HAL_Driver/Src/stm32f4xx_hal_hcd.c ****  ===============================================================================  
 632:./Libraries/STM32F4xx_HAL_Driver/Src/stm32f4xx_hal_hcd.c ****     [..]
 633:./Libraries/STM32F4xx_HAL_Driver/Src/stm32f4xx_hal_hcd.c ****     This subsection provides a set of functions allowing to control the HCD data 
 634:./Libraries/STM32F4xx_HAL_Driver/Src/stm32f4xx_hal_hcd.c ****     transfers.
 635:./Libraries/STM32F4xx_HAL_Driver/Src/stm32f4xx_hal_hcd.c **** 
 636:./Libraries/STM32F4xx_HAL_Driver/Src/stm32f4xx_hal_hcd.c **** @endverbatim
 637:./Libraries/STM32F4xx_HAL_Driver/Src/stm32f4xx_hal_hcd.c ****   * @{
 638:./Libraries/STM32F4xx_HAL_Driver/Src/stm32f4xx_hal_hcd.c ****   */
 639:./Libraries/STM32F4xx_HAL_Driver/Src/stm32f4xx_hal_hcd.c **** 
 640:./Libraries/STM32F4xx_HAL_Driver/Src/stm32f4xx_hal_hcd.c **** /**
 641:./Libraries/STM32F4xx_HAL_Driver/Src/stm32f4xx_hal_hcd.c ****   * @brief  Start the host driver.
 642:./Libraries/STM32F4xx_HAL_Driver/Src/stm32f4xx_hal_hcd.c ****   * @param  hhcd HCD handle
 643:./Libraries/STM32F4xx_HAL_Driver/Src/stm32f4xx_hal_hcd.c ****   * @retval HAL status
 644:./Libraries/STM32F4xx_HAL_Driver/Src/stm32f4xx_hal_hcd.c ****   */
 645:./Libraries/STM32F4xx_HAL_Driver/Src/stm32f4xx_hal_hcd.c **** HAL_StatusTypeDef HAL_HCD_Start(HCD_HandleTypeDef *hhcd)
 646:./Libraries/STM32F4xx_HAL_Driver/Src/stm32f4xx_hal_hcd.c **** { 
 1566              		.loc 1 646 1
 1567              		.cfi_startproc
 1568              		@ args = 0, pretend = 0, frame = 8
 1569              		@ frame_needed = 1, uses_anonymous_args = 0
 1570 0000 80B5     		push	{r7, lr}
 1571              	.LCFI66:
 1572              		.cfi_def_cfa_offset 8
 1573              		.cfi_offset 7, -8
 1574              		.cfi_offset 14, -4
 1575 0002 82B0     		sub	sp, sp, #8
 1576              	.LCFI67:
 1577              		.cfi_def_cfa_offset 16
 1578 0004 00AF     		add	r7, sp, #0
 1579              	.LCFI68:
 1580              		.cfi_def_cfa_register 7
 1581 0006 7860     		str	r0, [r7, #4]
 647:./Libraries/STM32F4xx_HAL_Driver/Src/stm32f4xx_hal_hcd.c ****   __HAL_LOCK(hhcd); 
ARM GAS  /tmp/ccYHp8fH.s 			page 40


 1582              		.loc 1 647 3
 1583 0008 7B68     		ldr	r3, [r7, #4]
 1584 000a 93F89032 		ldrb	r3, [r3, #656]	@ zero_extendqisi2
 1585 000e 012B     		cmp	r3, #1
 1586 0010 01D1     		bne	.L61
 1587              		.loc 1 647 3 is_stmt 0 discriminator 1
 1588 0012 0223     		movs	r3, #2
 1589 0014 13E0     		b	.L62
 1590              	.L61:
 1591              		.loc 1 647 3 discriminator 2
 1592 0016 7B68     		ldr	r3, [r7, #4]
 1593 0018 0122     		movs	r2, #1
 1594 001a 83F89022 		strb	r2, [r3, #656]
 648:./Libraries/STM32F4xx_HAL_Driver/Src/stm32f4xx_hal_hcd.c ****   __HAL_HCD_ENABLE(hhcd);
 1595              		.loc 1 648 3 is_stmt 1 discriminator 2
 1596 001e 7B68     		ldr	r3, [r7, #4]
 1597 0020 1B68     		ldr	r3, [r3]
 1598 0022 1846     		mov	r0, r3
 1599 0024 FFF7FEFF 		bl	USB_EnableGlobalInt
 649:./Libraries/STM32F4xx_HAL_Driver/Src/stm32f4xx_hal_hcd.c ****   USB_DriveVbus(hhcd->Instance, 1U);  
 1600              		.loc 1 649 21 discriminator 2
 1601 0028 7B68     		ldr	r3, [r7, #4]
 1602 002a 1B68     		ldr	r3, [r3]
 1603              		.loc 1 649 3 discriminator 2
 1604 002c 0121     		movs	r1, #1
 1605 002e 1846     		mov	r0, r3
 1606 0030 FFF7FEFF 		bl	USB_DriveVbus
 650:./Libraries/STM32F4xx_HAL_Driver/Src/stm32f4xx_hal_hcd.c ****   __HAL_UNLOCK(hhcd); 
 1607              		.loc 1 650 3 discriminator 2
 1608 0034 7B68     		ldr	r3, [r7, #4]
 1609 0036 0022     		movs	r2, #0
 1610 0038 83F89022 		strb	r2, [r3, #656]
 651:./Libraries/STM32F4xx_HAL_Driver/Src/stm32f4xx_hal_hcd.c ****   return HAL_OK;
 1611              		.loc 1 651 10 discriminator 2
 1612 003c 0023     		movs	r3, #0
 1613              	.L62:
 652:./Libraries/STM32F4xx_HAL_Driver/Src/stm32f4xx_hal_hcd.c **** }
 1614              		.loc 1 652 1
 1615 003e 1846     		mov	r0, r3
 1616 0040 0837     		adds	r7, r7, #8
 1617              	.LCFI69:
 1618              		.cfi_def_cfa_offset 8
 1619 0042 BD46     		mov	sp, r7
 1620              	.LCFI70:
 1621              		.cfi_def_cfa_register 13
 1622              		@ sp needed
 1623 0044 80BD     		pop	{r7, pc}
 1624              		.cfi_endproc
 1625              	.LFE138:
 1627              		.section	.text.HAL_HCD_Stop,"ax",%progbits
 1628              		.align	1
 1629              		.global	HAL_HCD_Stop
 1630              		.syntax unified
 1631              		.thumb
 1632              		.thumb_func
 1633              		.fpu fpv4-sp-d16
 1635              	HAL_HCD_Stop:
ARM GAS  /tmp/ccYHp8fH.s 			page 41


 1636              	.LFB139:
 653:./Libraries/STM32F4xx_HAL_Driver/Src/stm32f4xx_hal_hcd.c **** 
 654:./Libraries/STM32F4xx_HAL_Driver/Src/stm32f4xx_hal_hcd.c **** /**
 655:./Libraries/STM32F4xx_HAL_Driver/Src/stm32f4xx_hal_hcd.c ****   * @brief  Stop the host driver.
 656:./Libraries/STM32F4xx_HAL_Driver/Src/stm32f4xx_hal_hcd.c ****   * @param  hhcd HCD handle
 657:./Libraries/STM32F4xx_HAL_Driver/Src/stm32f4xx_hal_hcd.c ****   * @retval HAL status
 658:./Libraries/STM32F4xx_HAL_Driver/Src/stm32f4xx_hal_hcd.c ****   */
 659:./Libraries/STM32F4xx_HAL_Driver/Src/stm32f4xx_hal_hcd.c **** 
 660:./Libraries/STM32F4xx_HAL_Driver/Src/stm32f4xx_hal_hcd.c **** HAL_StatusTypeDef HAL_HCD_Stop(HCD_HandleTypeDef *hhcd)
 661:./Libraries/STM32F4xx_HAL_Driver/Src/stm32f4xx_hal_hcd.c **** { 
 1637              		.loc 1 661 1
 1638              		.cfi_startproc
 1639              		@ args = 0, pretend = 0, frame = 8
 1640              		@ frame_needed = 1, uses_anonymous_args = 0
 1641 0000 80B5     		push	{r7, lr}
 1642              	.LCFI71:
 1643              		.cfi_def_cfa_offset 8
 1644              		.cfi_offset 7, -8
 1645              		.cfi_offset 14, -4
 1646 0002 82B0     		sub	sp, sp, #8
 1647              	.LCFI72:
 1648              		.cfi_def_cfa_offset 16
 1649 0004 00AF     		add	r7, sp, #0
 1650              	.LCFI73:
 1651              		.cfi_def_cfa_register 7
 1652 0006 7860     		str	r0, [r7, #4]
 662:./Libraries/STM32F4xx_HAL_Driver/Src/stm32f4xx_hal_hcd.c ****   __HAL_LOCK(hhcd); 
 1653              		.loc 1 662 3
 1654 0008 7B68     		ldr	r3, [r7, #4]
 1655 000a 93F89032 		ldrb	r3, [r3, #656]	@ zero_extendqisi2
 1656 000e 012B     		cmp	r3, #1
 1657 0010 01D1     		bne	.L64
 1658              		.loc 1 662 3 is_stmt 0 discriminator 1
 1659 0012 0223     		movs	r3, #2
 1660 0014 0DE0     		b	.L65
 1661              	.L64:
 1662              		.loc 1 662 3 discriminator 2
 1663 0016 7B68     		ldr	r3, [r7, #4]
 1664 0018 0122     		movs	r2, #1
 1665 001a 83F89022 		strb	r2, [r3, #656]
 663:./Libraries/STM32F4xx_HAL_Driver/Src/stm32f4xx_hal_hcd.c ****   USB_StopHost(hhcd->Instance);
 1666              		.loc 1 663 20 is_stmt 1 discriminator 2
 1667 001e 7B68     		ldr	r3, [r7, #4]
 1668 0020 1B68     		ldr	r3, [r3]
 1669              		.loc 1 663 3 discriminator 2
 1670 0022 1846     		mov	r0, r3
 1671 0024 FFF7FEFF 		bl	USB_StopHost
 664:./Libraries/STM32F4xx_HAL_Driver/Src/stm32f4xx_hal_hcd.c ****   __HAL_UNLOCK(hhcd); 
 1672              		.loc 1 664 3 discriminator 2
 1673 0028 7B68     		ldr	r3, [r7, #4]
 1674 002a 0022     		movs	r2, #0
 1675 002c 83F89022 		strb	r2, [r3, #656]
 665:./Libraries/STM32F4xx_HAL_Driver/Src/stm32f4xx_hal_hcd.c ****   return HAL_OK;
 1676              		.loc 1 665 10 discriminator 2
 1677 0030 0023     		movs	r3, #0
 1678              	.L65:
 666:./Libraries/STM32F4xx_HAL_Driver/Src/stm32f4xx_hal_hcd.c **** }
ARM GAS  /tmp/ccYHp8fH.s 			page 42


 1679              		.loc 1 666 1
 1680 0032 1846     		mov	r0, r3
 1681 0034 0837     		adds	r7, r7, #8
 1682              	.LCFI74:
 1683              		.cfi_def_cfa_offset 8
 1684 0036 BD46     		mov	sp, r7
 1685              	.LCFI75:
 1686              		.cfi_def_cfa_register 13
 1687              		@ sp needed
 1688 0038 80BD     		pop	{r7, pc}
 1689              		.cfi_endproc
 1690              	.LFE139:
 1692              		.section	.text.HAL_HCD_ResetPort,"ax",%progbits
 1693              		.align	1
 1694              		.global	HAL_HCD_ResetPort
 1695              		.syntax unified
 1696              		.thumb
 1697              		.thumb_func
 1698              		.fpu fpv4-sp-d16
 1700              	HAL_HCD_ResetPort:
 1701              	.LFB140:
 667:./Libraries/STM32F4xx_HAL_Driver/Src/stm32f4xx_hal_hcd.c **** 
 668:./Libraries/STM32F4xx_HAL_Driver/Src/stm32f4xx_hal_hcd.c **** /**
 669:./Libraries/STM32F4xx_HAL_Driver/Src/stm32f4xx_hal_hcd.c ****   * @brief  Reset the host port.
 670:./Libraries/STM32F4xx_HAL_Driver/Src/stm32f4xx_hal_hcd.c ****   * @param  hhcd HCD handle
 671:./Libraries/STM32F4xx_HAL_Driver/Src/stm32f4xx_hal_hcd.c ****   * @retval HAL status
 672:./Libraries/STM32F4xx_HAL_Driver/Src/stm32f4xx_hal_hcd.c ****   */
 673:./Libraries/STM32F4xx_HAL_Driver/Src/stm32f4xx_hal_hcd.c **** HAL_StatusTypeDef HAL_HCD_ResetPort(HCD_HandleTypeDef *hhcd)
 674:./Libraries/STM32F4xx_HAL_Driver/Src/stm32f4xx_hal_hcd.c **** {
 1702              		.loc 1 674 1
 1703              		.cfi_startproc
 1704              		@ args = 0, pretend = 0, frame = 8
 1705              		@ frame_needed = 1, uses_anonymous_args = 0
 1706 0000 80B5     		push	{r7, lr}
 1707              	.LCFI76:
 1708              		.cfi_def_cfa_offset 8
 1709              		.cfi_offset 7, -8
 1710              		.cfi_offset 14, -4
 1711 0002 82B0     		sub	sp, sp, #8
 1712              	.LCFI77:
 1713              		.cfi_def_cfa_offset 16
 1714 0004 00AF     		add	r7, sp, #0
 1715              	.LCFI78:
 1716              		.cfi_def_cfa_register 7
 1717 0006 7860     		str	r0, [r7, #4]
 675:./Libraries/STM32F4xx_HAL_Driver/Src/stm32f4xx_hal_hcd.c ****   return (USB_ResetPort(hhcd->Instance));
 1718              		.loc 1 675 29
 1719 0008 7B68     		ldr	r3, [r7, #4]
 1720 000a 1B68     		ldr	r3, [r3]
 1721              		.loc 1 675 11
 1722 000c 1846     		mov	r0, r3
 1723 000e FFF7FEFF 		bl	USB_ResetPort
 1724 0012 0346     		mov	r3, r0
 676:./Libraries/STM32F4xx_HAL_Driver/Src/stm32f4xx_hal_hcd.c **** }
 1725              		.loc 1 676 1
 1726 0014 1846     		mov	r0, r3
 1727 0016 0837     		adds	r7, r7, #8
ARM GAS  /tmp/ccYHp8fH.s 			page 43


 1728              	.LCFI79:
 1729              		.cfi_def_cfa_offset 8
 1730 0018 BD46     		mov	sp, r7
 1731              	.LCFI80:
 1732              		.cfi_def_cfa_register 13
 1733              		@ sp needed
 1734 001a 80BD     		pop	{r7, pc}
 1735              		.cfi_endproc
 1736              	.LFE140:
 1738              		.section	.text.HAL_HCD_GetState,"ax",%progbits
 1739              		.align	1
 1740              		.global	HAL_HCD_GetState
 1741              		.syntax unified
 1742              		.thumb
 1743              		.thumb_func
 1744              		.fpu fpv4-sp-d16
 1746              	HAL_HCD_GetState:
 1747              	.LFB141:
 677:./Libraries/STM32F4xx_HAL_Driver/Src/stm32f4xx_hal_hcd.c **** 
 678:./Libraries/STM32F4xx_HAL_Driver/Src/stm32f4xx_hal_hcd.c **** /**
 679:./Libraries/STM32F4xx_HAL_Driver/Src/stm32f4xx_hal_hcd.c ****   * @}
 680:./Libraries/STM32F4xx_HAL_Driver/Src/stm32f4xx_hal_hcd.c ****   */
 681:./Libraries/STM32F4xx_HAL_Driver/Src/stm32f4xx_hal_hcd.c **** 
 682:./Libraries/STM32F4xx_HAL_Driver/Src/stm32f4xx_hal_hcd.c **** /** @defgroup HCD_Exported_Functions_Group4 Peripheral State functions 
 683:./Libraries/STM32F4xx_HAL_Driver/Src/stm32f4xx_hal_hcd.c ****  *  @brief   Peripheral State functions 
 684:./Libraries/STM32F4xx_HAL_Driver/Src/stm32f4xx_hal_hcd.c ****  *
 685:./Libraries/STM32F4xx_HAL_Driver/Src/stm32f4xx_hal_hcd.c **** @verbatim 
 686:./Libraries/STM32F4xx_HAL_Driver/Src/stm32f4xx_hal_hcd.c ****  ===============================================================================
 687:./Libraries/STM32F4xx_HAL_Driver/Src/stm32f4xx_hal_hcd.c ****                       ##### Peripheral State functions #####
 688:./Libraries/STM32F4xx_HAL_Driver/Src/stm32f4xx_hal_hcd.c ****  ===============================================================================  
 689:./Libraries/STM32F4xx_HAL_Driver/Src/stm32f4xx_hal_hcd.c ****     [..]
 690:./Libraries/STM32F4xx_HAL_Driver/Src/stm32f4xx_hal_hcd.c ****     This subsection permits to get in run-time the status of the peripheral 
 691:./Libraries/STM32F4xx_HAL_Driver/Src/stm32f4xx_hal_hcd.c ****     and the data flow.
 692:./Libraries/STM32F4xx_HAL_Driver/Src/stm32f4xx_hal_hcd.c **** 
 693:./Libraries/STM32F4xx_HAL_Driver/Src/stm32f4xx_hal_hcd.c **** @endverbatim
 694:./Libraries/STM32F4xx_HAL_Driver/Src/stm32f4xx_hal_hcd.c ****   * @{
 695:./Libraries/STM32F4xx_HAL_Driver/Src/stm32f4xx_hal_hcd.c ****   */
 696:./Libraries/STM32F4xx_HAL_Driver/Src/stm32f4xx_hal_hcd.c **** 
 697:./Libraries/STM32F4xx_HAL_Driver/Src/stm32f4xx_hal_hcd.c **** /**
 698:./Libraries/STM32F4xx_HAL_Driver/Src/stm32f4xx_hal_hcd.c ****   * @brief  Return the HCD handle state.
 699:./Libraries/STM32F4xx_HAL_Driver/Src/stm32f4xx_hal_hcd.c ****   * @param  hhcd HCD handle
 700:./Libraries/STM32F4xx_HAL_Driver/Src/stm32f4xx_hal_hcd.c ****   * @retval HAL state
 701:./Libraries/STM32F4xx_HAL_Driver/Src/stm32f4xx_hal_hcd.c ****   */
 702:./Libraries/STM32F4xx_HAL_Driver/Src/stm32f4xx_hal_hcd.c **** HCD_StateTypeDef HAL_HCD_GetState(HCD_HandleTypeDef *hhcd)
 703:./Libraries/STM32F4xx_HAL_Driver/Src/stm32f4xx_hal_hcd.c **** {
 1748              		.loc 1 703 1
 1749              		.cfi_startproc
 1750              		@ args = 0, pretend = 0, frame = 8
 1751              		@ frame_needed = 1, uses_anonymous_args = 0
 1752              		@ link register save eliminated.
 1753 0000 80B4     		push	{r7}
 1754              	.LCFI81:
 1755              		.cfi_def_cfa_offset 4
 1756              		.cfi_offset 7, -4
 1757 0002 83B0     		sub	sp, sp, #12
 1758              	.LCFI82:
 1759              		.cfi_def_cfa_offset 16
ARM GAS  /tmp/ccYHp8fH.s 			page 44


 1760 0004 00AF     		add	r7, sp, #0
 1761              	.LCFI83:
 1762              		.cfi_def_cfa_register 7
 1763 0006 7860     		str	r0, [r7, #4]
 704:./Libraries/STM32F4xx_HAL_Driver/Src/stm32f4xx_hal_hcd.c ****   return hhcd->State;
 1764              		.loc 1 704 14
 1765 0008 7B68     		ldr	r3, [r7, #4]
 1766 000a 93F89132 		ldrb	r3, [r3, #657]
 1767 000e DBB2     		uxtb	r3, r3
 705:./Libraries/STM32F4xx_HAL_Driver/Src/stm32f4xx_hal_hcd.c **** }
 1768              		.loc 1 705 1
 1769 0010 1846     		mov	r0, r3
 1770 0012 0C37     		adds	r7, r7, #12
 1771              	.LCFI84:
 1772              		.cfi_def_cfa_offset 4
 1773 0014 BD46     		mov	sp, r7
 1774              	.LCFI85:
 1775              		.cfi_def_cfa_register 13
 1776              		@ sp needed
 1777 0016 5DF8047B 		ldr	r7, [sp], #4
 1778              	.LCFI86:
 1779              		.cfi_restore 7
 1780              		.cfi_def_cfa_offset 0
 1781 001a 7047     		bx	lr
 1782              		.cfi_endproc
 1783              	.LFE141:
 1785              		.section	.text.HAL_HCD_HC_GetURBState,"ax",%progbits
 1786              		.align	1
 1787              		.global	HAL_HCD_HC_GetURBState
 1788              		.syntax unified
 1789              		.thumb
 1790              		.thumb_func
 1791              		.fpu fpv4-sp-d16
 1793              	HAL_HCD_HC_GetURBState:
 1794              	.LFB142:
 706:./Libraries/STM32F4xx_HAL_Driver/Src/stm32f4xx_hal_hcd.c **** 
 707:./Libraries/STM32F4xx_HAL_Driver/Src/stm32f4xx_hal_hcd.c **** /**
 708:./Libraries/STM32F4xx_HAL_Driver/Src/stm32f4xx_hal_hcd.c ****   * @brief  Return  URB state for a channel.
 709:./Libraries/STM32F4xx_HAL_Driver/Src/stm32f4xx_hal_hcd.c ****   * @param  hhcd HCD handle
 710:./Libraries/STM32F4xx_HAL_Driver/Src/stm32f4xx_hal_hcd.c ****   * @param  chnum Channel number.
 711:./Libraries/STM32F4xx_HAL_Driver/Src/stm32f4xx_hal_hcd.c ****   *         This parameter can be a value from 1 to 15
 712:./Libraries/STM32F4xx_HAL_Driver/Src/stm32f4xx_hal_hcd.c ****   * @retval URB state.
 713:./Libraries/STM32F4xx_HAL_Driver/Src/stm32f4xx_hal_hcd.c ****   *          This parameter can be one of these values:
 714:./Libraries/STM32F4xx_HAL_Driver/Src/stm32f4xx_hal_hcd.c ****   *            URB_IDLE/
 715:./Libraries/STM32F4xx_HAL_Driver/Src/stm32f4xx_hal_hcd.c ****   *            URB_DONE/
 716:./Libraries/STM32F4xx_HAL_Driver/Src/stm32f4xx_hal_hcd.c ****   *            URB_NOTREADY/
 717:./Libraries/STM32F4xx_HAL_Driver/Src/stm32f4xx_hal_hcd.c ****   *            URB_NYET/ 
 718:./Libraries/STM32F4xx_HAL_Driver/Src/stm32f4xx_hal_hcd.c ****   *            URB_ERROR/  
 719:./Libraries/STM32F4xx_HAL_Driver/Src/stm32f4xx_hal_hcd.c ****   *            URB_STALL      
 720:./Libraries/STM32F4xx_HAL_Driver/Src/stm32f4xx_hal_hcd.c ****   */
 721:./Libraries/STM32F4xx_HAL_Driver/Src/stm32f4xx_hal_hcd.c **** HCD_URBStateTypeDef HAL_HCD_HC_GetURBState(HCD_HandleTypeDef *hhcd, uint8_t chnum)
 722:./Libraries/STM32F4xx_HAL_Driver/Src/stm32f4xx_hal_hcd.c **** {
 1795              		.loc 1 722 1
 1796              		.cfi_startproc
 1797              		@ args = 0, pretend = 0, frame = 8
 1798              		@ frame_needed = 1, uses_anonymous_args = 0
 1799              		@ link register save eliminated.
ARM GAS  /tmp/ccYHp8fH.s 			page 45


 1800 0000 80B4     		push	{r7}
 1801              	.LCFI87:
 1802              		.cfi_def_cfa_offset 4
 1803              		.cfi_offset 7, -4
 1804 0002 83B0     		sub	sp, sp, #12
 1805              	.LCFI88:
 1806              		.cfi_def_cfa_offset 16
 1807 0004 00AF     		add	r7, sp, #0
 1808              	.LCFI89:
 1809              		.cfi_def_cfa_register 7
 1810 0006 7860     		str	r0, [r7, #4]
 1811 0008 0B46     		mov	r3, r1
 1812 000a FB70     		strb	r3, [r7, #3]
 723:./Libraries/STM32F4xx_HAL_Driver/Src/stm32f4xx_hal_hcd.c ****   return hhcd->hc[chnum].urb_state;
 1813              		.loc 1 723 25
 1814 000c FA78     		ldrb	r2, [r7, #3]	@ zero_extendqisi2
 1815 000e 7968     		ldr	r1, [r7, #4]
 1816 0010 1346     		mov	r3, r2
 1817 0012 9B00     		lsls	r3, r3, #2
 1818 0014 1344     		add	r3, r3, r2
 1819 0016 DB00     		lsls	r3, r3, #3
 1820 0018 0B44     		add	r3, r3, r1
 1821 001a 5C33     		adds	r3, r3, #92
 1822 001c 1B78     		ldrb	r3, [r3]	@ zero_extendqisi2
 724:./Libraries/STM32F4xx_HAL_Driver/Src/stm32f4xx_hal_hcd.c **** }
 1823              		.loc 1 724 1
 1824 001e 1846     		mov	r0, r3
 1825 0020 0C37     		adds	r7, r7, #12
 1826              	.LCFI90:
 1827              		.cfi_def_cfa_offset 4
 1828 0022 BD46     		mov	sp, r7
 1829              	.LCFI91:
 1830              		.cfi_def_cfa_register 13
 1831              		@ sp needed
 1832 0024 5DF8047B 		ldr	r7, [sp], #4
 1833              	.LCFI92:
 1834              		.cfi_restore 7
 1835              		.cfi_def_cfa_offset 0
 1836 0028 7047     		bx	lr
 1837              		.cfi_endproc
 1838              	.LFE142:
 1840              		.section	.text.HAL_HCD_HC_GetXferCount,"ax",%progbits
 1841              		.align	1
 1842              		.global	HAL_HCD_HC_GetXferCount
 1843              		.syntax unified
 1844              		.thumb
 1845              		.thumb_func
 1846              		.fpu fpv4-sp-d16
 1848              	HAL_HCD_HC_GetXferCount:
 1849              	.LFB143:
 725:./Libraries/STM32F4xx_HAL_Driver/Src/stm32f4xx_hal_hcd.c **** 
 726:./Libraries/STM32F4xx_HAL_Driver/Src/stm32f4xx_hal_hcd.c **** 
 727:./Libraries/STM32F4xx_HAL_Driver/Src/stm32f4xx_hal_hcd.c **** /**
 728:./Libraries/STM32F4xx_HAL_Driver/Src/stm32f4xx_hal_hcd.c ****   * @brief  Return the last host transfer size.
 729:./Libraries/STM32F4xx_HAL_Driver/Src/stm32f4xx_hal_hcd.c ****   * @param  hhcd HCD handle
 730:./Libraries/STM32F4xx_HAL_Driver/Src/stm32f4xx_hal_hcd.c ****   * @param  chnum Channel number.
 731:./Libraries/STM32F4xx_HAL_Driver/Src/stm32f4xx_hal_hcd.c ****   *         This parameter can be a value from 1 to 15
ARM GAS  /tmp/ccYHp8fH.s 			page 46


 732:./Libraries/STM32F4xx_HAL_Driver/Src/stm32f4xx_hal_hcd.c ****   * @retval last transfer size in byte
 733:./Libraries/STM32F4xx_HAL_Driver/Src/stm32f4xx_hal_hcd.c ****   */
 734:./Libraries/STM32F4xx_HAL_Driver/Src/stm32f4xx_hal_hcd.c **** uint32_t HAL_HCD_HC_GetXferCount(HCD_HandleTypeDef *hhcd, uint8_t chnum)
 735:./Libraries/STM32F4xx_HAL_Driver/Src/stm32f4xx_hal_hcd.c **** {
 1850              		.loc 1 735 1
 1851              		.cfi_startproc
 1852              		@ args = 0, pretend = 0, frame = 8
 1853              		@ frame_needed = 1, uses_anonymous_args = 0
 1854              		@ link register save eliminated.
 1855 0000 80B4     		push	{r7}
 1856              	.LCFI93:
 1857              		.cfi_def_cfa_offset 4
 1858              		.cfi_offset 7, -4
 1859 0002 83B0     		sub	sp, sp, #12
 1860              	.LCFI94:
 1861              		.cfi_def_cfa_offset 16
 1862 0004 00AF     		add	r7, sp, #0
 1863              	.LCFI95:
 1864              		.cfi_def_cfa_register 7
 1865 0006 7860     		str	r0, [r7, #4]
 1866 0008 0B46     		mov	r3, r1
 1867 000a FB70     		strb	r3, [r7, #3]
 736:./Libraries/STM32F4xx_HAL_Driver/Src/stm32f4xx_hal_hcd.c ****   return hhcd->hc[chnum].xfer_count; 
 1868              		.loc 1 736 25
 1869 000c FA78     		ldrb	r2, [r7, #3]	@ zero_extendqisi2
 1870 000e 7968     		ldr	r1, [r7, #4]
 1871 0010 1346     		mov	r3, r2
 1872 0012 9B00     		lsls	r3, r3, #2
 1873 0014 1344     		add	r3, r3, r2
 1874 0016 DB00     		lsls	r3, r3, #3
 1875 0018 0B44     		add	r3, r3, r1
 1876 001a 4C33     		adds	r3, r3, #76
 1877 001c 1B68     		ldr	r3, [r3]
 737:./Libraries/STM32F4xx_HAL_Driver/Src/stm32f4xx_hal_hcd.c **** }
 1878              		.loc 1 737 1
 1879 001e 1846     		mov	r0, r3
 1880 0020 0C37     		adds	r7, r7, #12
 1881              	.LCFI96:
 1882              		.cfi_def_cfa_offset 4
 1883 0022 BD46     		mov	sp, r7
 1884              	.LCFI97:
 1885              		.cfi_def_cfa_register 13
 1886              		@ sp needed
 1887 0024 5DF8047B 		ldr	r7, [sp], #4
 1888              	.LCFI98:
 1889              		.cfi_restore 7
 1890              		.cfi_def_cfa_offset 0
 1891 0028 7047     		bx	lr
 1892              		.cfi_endproc
 1893              	.LFE143:
 1895              		.section	.text.HAL_HCD_HC_GetState,"ax",%progbits
 1896              		.align	1
 1897              		.global	HAL_HCD_HC_GetState
 1898              		.syntax unified
 1899              		.thumb
 1900              		.thumb_func
 1901              		.fpu fpv4-sp-d16
ARM GAS  /tmp/ccYHp8fH.s 			page 47


 1903              	HAL_HCD_HC_GetState:
 1904              	.LFB144:
 738:./Libraries/STM32F4xx_HAL_Driver/Src/stm32f4xx_hal_hcd.c ****   
 739:./Libraries/STM32F4xx_HAL_Driver/Src/stm32f4xx_hal_hcd.c **** /**
 740:./Libraries/STM32F4xx_HAL_Driver/Src/stm32f4xx_hal_hcd.c ****   * @brief  Return the Host Channel state.
 741:./Libraries/STM32F4xx_HAL_Driver/Src/stm32f4xx_hal_hcd.c ****   * @param  hhcd HCD handle
 742:./Libraries/STM32F4xx_HAL_Driver/Src/stm32f4xx_hal_hcd.c ****   * @param  chnum Channel number.
 743:./Libraries/STM32F4xx_HAL_Driver/Src/stm32f4xx_hal_hcd.c ****   *         This parameter can be a value from 1 to 15
 744:./Libraries/STM32F4xx_HAL_Driver/Src/stm32f4xx_hal_hcd.c ****   * @retval Host channel state
 745:./Libraries/STM32F4xx_HAL_Driver/Src/stm32f4xx_hal_hcd.c ****   *          This parameter can be one of these values:
 746:./Libraries/STM32F4xx_HAL_Driver/Src/stm32f4xx_hal_hcd.c ****   *            HC_IDLE/
 747:./Libraries/STM32F4xx_HAL_Driver/Src/stm32f4xx_hal_hcd.c ****   *            HC_XFRC/
 748:./Libraries/STM32F4xx_HAL_Driver/Src/stm32f4xx_hal_hcd.c ****   *            HC_HALTED/
 749:./Libraries/STM32F4xx_HAL_Driver/Src/stm32f4xx_hal_hcd.c ****   *            HC_NYET/ 
 750:./Libraries/STM32F4xx_HAL_Driver/Src/stm32f4xx_hal_hcd.c ****   *            HC_NAK/  
 751:./Libraries/STM32F4xx_HAL_Driver/Src/stm32f4xx_hal_hcd.c ****   *            HC_STALL/ 
 752:./Libraries/STM32F4xx_HAL_Driver/Src/stm32f4xx_hal_hcd.c ****   *            HC_XACTERR/  
 753:./Libraries/STM32F4xx_HAL_Driver/Src/stm32f4xx_hal_hcd.c ****   *            HC_BBLERR/  
 754:./Libraries/STM32F4xx_HAL_Driver/Src/stm32f4xx_hal_hcd.c ****   *            HC_DATATGLERR    
 755:./Libraries/STM32F4xx_HAL_Driver/Src/stm32f4xx_hal_hcd.c ****   */
 756:./Libraries/STM32F4xx_HAL_Driver/Src/stm32f4xx_hal_hcd.c **** HCD_HCStateTypeDef  HAL_HCD_HC_GetState(HCD_HandleTypeDef *hhcd, uint8_t chnum)
 757:./Libraries/STM32F4xx_HAL_Driver/Src/stm32f4xx_hal_hcd.c **** {
 1905              		.loc 1 757 1
 1906              		.cfi_startproc
 1907              		@ args = 0, pretend = 0, frame = 8
 1908              		@ frame_needed = 1, uses_anonymous_args = 0
 1909              		@ link register save eliminated.
 1910 0000 80B4     		push	{r7}
 1911              	.LCFI99:
 1912              		.cfi_def_cfa_offset 4
 1913              		.cfi_offset 7, -4
 1914 0002 83B0     		sub	sp, sp, #12
 1915              	.LCFI100:
 1916              		.cfi_def_cfa_offset 16
 1917 0004 00AF     		add	r7, sp, #0
 1918              	.LCFI101:
 1919              		.cfi_def_cfa_register 7
 1920 0006 7860     		str	r0, [r7, #4]
 1921 0008 0B46     		mov	r3, r1
 1922 000a FB70     		strb	r3, [r7, #3]
 758:./Libraries/STM32F4xx_HAL_Driver/Src/stm32f4xx_hal_hcd.c ****   return hhcd->hc[chnum].state;
 1923              		.loc 1 758 25
 1924 000c FA78     		ldrb	r2, [r7, #3]	@ zero_extendqisi2
 1925 000e 7968     		ldr	r1, [r7, #4]
 1926 0010 1346     		mov	r3, r2
 1927 0012 9B00     		lsls	r3, r3, #2
 1928 0014 1344     		add	r3, r3, r2
 1929 0016 DB00     		lsls	r3, r3, #3
 1930 0018 0B44     		add	r3, r3, r1
 1931 001a 5D33     		adds	r3, r3, #93
 1932 001c 1B78     		ldrb	r3, [r3]	@ zero_extendqisi2
 759:./Libraries/STM32F4xx_HAL_Driver/Src/stm32f4xx_hal_hcd.c **** }
 1933              		.loc 1 759 1
 1934 001e 1846     		mov	r0, r3
 1935 0020 0C37     		adds	r7, r7, #12
 1936              	.LCFI102:
 1937              		.cfi_def_cfa_offset 4
ARM GAS  /tmp/ccYHp8fH.s 			page 48


 1938 0022 BD46     		mov	sp, r7
 1939              	.LCFI103:
 1940              		.cfi_def_cfa_register 13
 1941              		@ sp needed
 1942 0024 5DF8047B 		ldr	r7, [sp], #4
 1943              	.LCFI104:
 1944              		.cfi_restore 7
 1945              		.cfi_def_cfa_offset 0
 1946 0028 7047     		bx	lr
 1947              		.cfi_endproc
 1948              	.LFE144:
 1950              		.section	.text.HAL_HCD_GetCurrentFrame,"ax",%progbits
 1951              		.align	1
 1952              		.global	HAL_HCD_GetCurrentFrame
 1953              		.syntax unified
 1954              		.thumb
 1955              		.thumb_func
 1956              		.fpu fpv4-sp-d16
 1958              	HAL_HCD_GetCurrentFrame:
 1959              	.LFB145:
 760:./Libraries/STM32F4xx_HAL_Driver/Src/stm32f4xx_hal_hcd.c **** 
 761:./Libraries/STM32F4xx_HAL_Driver/Src/stm32f4xx_hal_hcd.c **** /**
 762:./Libraries/STM32F4xx_HAL_Driver/Src/stm32f4xx_hal_hcd.c ****   * @brief  Return the current Host frame number.
 763:./Libraries/STM32F4xx_HAL_Driver/Src/stm32f4xx_hal_hcd.c ****   * @param  hhcd HCD handle
 764:./Libraries/STM32F4xx_HAL_Driver/Src/stm32f4xx_hal_hcd.c ****   * @retval Current Host frame number
 765:./Libraries/STM32F4xx_HAL_Driver/Src/stm32f4xx_hal_hcd.c ****   */
 766:./Libraries/STM32F4xx_HAL_Driver/Src/stm32f4xx_hal_hcd.c **** uint32_t HAL_HCD_GetCurrentFrame(HCD_HandleTypeDef *hhcd)
 767:./Libraries/STM32F4xx_HAL_Driver/Src/stm32f4xx_hal_hcd.c **** {
 1960              		.loc 1 767 1
 1961              		.cfi_startproc
 1962              		@ args = 0, pretend = 0, frame = 8
 1963              		@ frame_needed = 1, uses_anonymous_args = 0
 1964 0000 80B5     		push	{r7, lr}
 1965              	.LCFI105:
 1966              		.cfi_def_cfa_offset 8
 1967              		.cfi_offset 7, -8
 1968              		.cfi_offset 14, -4
 1969 0002 82B0     		sub	sp, sp, #8
 1970              	.LCFI106:
 1971              		.cfi_def_cfa_offset 16
 1972 0004 00AF     		add	r7, sp, #0
 1973              	.LCFI107:
 1974              		.cfi_def_cfa_register 7
 1975 0006 7860     		str	r0, [r7, #4]
 768:./Libraries/STM32F4xx_HAL_Driver/Src/stm32f4xx_hal_hcd.c ****   return (USB_GetCurrentFrame(hhcd->Instance));
 1976              		.loc 1 768 35
 1977 0008 7B68     		ldr	r3, [r7, #4]
 1978 000a 1B68     		ldr	r3, [r3]
 1979              		.loc 1 768 11
 1980 000c 1846     		mov	r0, r3
 1981 000e FFF7FEFF 		bl	USB_GetCurrentFrame
 1982 0012 0346     		mov	r3, r0
 769:./Libraries/STM32F4xx_HAL_Driver/Src/stm32f4xx_hal_hcd.c **** }
 1983              		.loc 1 769 1
 1984 0014 1846     		mov	r0, r3
 1985 0016 0837     		adds	r7, r7, #8
 1986              	.LCFI108:
ARM GAS  /tmp/ccYHp8fH.s 			page 49


 1987              		.cfi_def_cfa_offset 8
 1988 0018 BD46     		mov	sp, r7
 1989              	.LCFI109:
 1990              		.cfi_def_cfa_register 13
 1991              		@ sp needed
 1992 001a 80BD     		pop	{r7, pc}
 1993              		.cfi_endproc
 1994              	.LFE145:
 1996              		.section	.text.HAL_HCD_GetCurrentSpeed,"ax",%progbits
 1997              		.align	1
 1998              		.global	HAL_HCD_GetCurrentSpeed
 1999              		.syntax unified
 2000              		.thumb
 2001              		.thumb_func
 2002              		.fpu fpv4-sp-d16
 2004              	HAL_HCD_GetCurrentSpeed:
 2005              	.LFB146:
 770:./Libraries/STM32F4xx_HAL_Driver/Src/stm32f4xx_hal_hcd.c **** 
 771:./Libraries/STM32F4xx_HAL_Driver/Src/stm32f4xx_hal_hcd.c **** /**
 772:./Libraries/STM32F4xx_HAL_Driver/Src/stm32f4xx_hal_hcd.c ****   * @brief  Return the Host enumeration speed.
 773:./Libraries/STM32F4xx_HAL_Driver/Src/stm32f4xx_hal_hcd.c ****   * @param  hhcd HCD handle
 774:./Libraries/STM32F4xx_HAL_Driver/Src/stm32f4xx_hal_hcd.c ****   * @retval Enumeration speed
 775:./Libraries/STM32F4xx_HAL_Driver/Src/stm32f4xx_hal_hcd.c ****   */
 776:./Libraries/STM32F4xx_HAL_Driver/Src/stm32f4xx_hal_hcd.c **** uint32_t HAL_HCD_GetCurrentSpeed(HCD_HandleTypeDef *hhcd)
 777:./Libraries/STM32F4xx_HAL_Driver/Src/stm32f4xx_hal_hcd.c **** {
 2006              		.loc 1 777 1
 2007              		.cfi_startproc
 2008              		@ args = 0, pretend = 0, frame = 8
 2009              		@ frame_needed = 1, uses_anonymous_args = 0
 2010 0000 80B5     		push	{r7, lr}
 2011              	.LCFI110:
 2012              		.cfi_def_cfa_offset 8
 2013              		.cfi_offset 7, -8
 2014              		.cfi_offset 14, -4
 2015 0002 82B0     		sub	sp, sp, #8
 2016              	.LCFI111:
 2017              		.cfi_def_cfa_offset 16
 2018 0004 00AF     		add	r7, sp, #0
 2019              	.LCFI112:
 2020              		.cfi_def_cfa_register 7
 2021 0006 7860     		str	r0, [r7, #4]
 778:./Libraries/STM32F4xx_HAL_Driver/Src/stm32f4xx_hal_hcd.c ****   return (USB_GetHostSpeed(hhcd->Instance));
 2022              		.loc 1 778 32
 2023 0008 7B68     		ldr	r3, [r7, #4]
 2024 000a 1B68     		ldr	r3, [r3]
 2025              		.loc 1 778 11
 2026 000c 1846     		mov	r0, r3
 2027 000e FFF7FEFF 		bl	USB_GetHostSpeed
 2028 0012 0346     		mov	r3, r0
 779:./Libraries/STM32F4xx_HAL_Driver/Src/stm32f4xx_hal_hcd.c **** }
 2029              		.loc 1 779 1
 2030 0014 1846     		mov	r0, r3
 2031 0016 0837     		adds	r7, r7, #8
 2032              	.LCFI113:
 2033              		.cfi_def_cfa_offset 8
 2034 0018 BD46     		mov	sp, r7
 2035              	.LCFI114:
ARM GAS  /tmp/ccYHp8fH.s 			page 50


 2036              		.cfi_def_cfa_register 13
 2037              		@ sp needed
 2038 001a 80BD     		pop	{r7, pc}
 2039              		.cfi_endproc
 2040              	.LFE146:
 2042              		.section	.text.HCD_HC_IN_IRQHandler,"ax",%progbits
 2043              		.align	1
 2044              		.syntax unified
 2045              		.thumb
 2046              		.thumb_func
 2047              		.fpu fpv4-sp-d16
 2049              	HCD_HC_IN_IRQHandler:
 2050              	.LFB147:
 780:./Libraries/STM32F4xx_HAL_Driver/Src/stm32f4xx_hal_hcd.c **** 
 781:./Libraries/STM32F4xx_HAL_Driver/Src/stm32f4xx_hal_hcd.c **** /**
 782:./Libraries/STM32F4xx_HAL_Driver/Src/stm32f4xx_hal_hcd.c ****   * @}
 783:./Libraries/STM32F4xx_HAL_Driver/Src/stm32f4xx_hal_hcd.c ****   */
 784:./Libraries/STM32F4xx_HAL_Driver/Src/stm32f4xx_hal_hcd.c **** 
 785:./Libraries/STM32F4xx_HAL_Driver/Src/stm32f4xx_hal_hcd.c **** /**
 786:./Libraries/STM32F4xx_HAL_Driver/Src/stm32f4xx_hal_hcd.c ****   * @}
 787:./Libraries/STM32F4xx_HAL_Driver/Src/stm32f4xx_hal_hcd.c ****   */
 788:./Libraries/STM32F4xx_HAL_Driver/Src/stm32f4xx_hal_hcd.c **** 
 789:./Libraries/STM32F4xx_HAL_Driver/Src/stm32f4xx_hal_hcd.c **** /** @addtogroup HCD_Private_Functions
 790:./Libraries/STM32F4xx_HAL_Driver/Src/stm32f4xx_hal_hcd.c ****   * @{
 791:./Libraries/STM32F4xx_HAL_Driver/Src/stm32f4xx_hal_hcd.c ****   */
 792:./Libraries/STM32F4xx_HAL_Driver/Src/stm32f4xx_hal_hcd.c **** /**
 793:./Libraries/STM32F4xx_HAL_Driver/Src/stm32f4xx_hal_hcd.c ****   * @brief  Handle Host Channel IN interrupt requests.
 794:./Libraries/STM32F4xx_HAL_Driver/Src/stm32f4xx_hal_hcd.c ****   * @param  hhcd HCD handle
 795:./Libraries/STM32F4xx_HAL_Driver/Src/stm32f4xx_hal_hcd.c ****   * @param  chnum Channel number.
 796:./Libraries/STM32F4xx_HAL_Driver/Src/stm32f4xx_hal_hcd.c ****   *         This parameter can be a value from 1 to 15
 797:./Libraries/STM32F4xx_HAL_Driver/Src/stm32f4xx_hal_hcd.c ****   * @retval None
 798:./Libraries/STM32F4xx_HAL_Driver/Src/stm32f4xx_hal_hcd.c ****   */
 799:./Libraries/STM32F4xx_HAL_Driver/Src/stm32f4xx_hal_hcd.c **** static void HCD_HC_IN_IRQHandler(HCD_HandleTypeDef *hhcd, uint8_t chnum)
 800:./Libraries/STM32F4xx_HAL_Driver/Src/stm32f4xx_hal_hcd.c **** {
 2051              		.loc 1 800 1
 2052              		.cfi_startproc
 2053              		@ args = 0, pretend = 0, frame = 16
 2054              		@ frame_needed = 1, uses_anonymous_args = 0
 2055 0000 90B5     		push	{r4, r7, lr}
 2056              	.LCFI115:
 2057              		.cfi_def_cfa_offset 12
 2058              		.cfi_offset 4, -12
 2059              		.cfi_offset 7, -8
 2060              		.cfi_offset 14, -4
 2061 0002 85B0     		sub	sp, sp, #20
 2062              	.LCFI116:
 2063              		.cfi_def_cfa_offset 32
 2064 0004 00AF     		add	r7, sp, #0
 2065              	.LCFI117:
 2066              		.cfi_def_cfa_register 7
 2067 0006 7860     		str	r0, [r7, #4]
 2068 0008 0B46     		mov	r3, r1
 2069 000a FB70     		strb	r3, [r7, #3]
 801:./Libraries/STM32F4xx_HAL_Driver/Src/stm32f4xx_hal_hcd.c ****   USB_OTG_GlobalTypeDef *USBx = hhcd->Instance;
 2070              		.loc 1 801 26
 2071 000c 7B68     		ldr	r3, [r7, #4]
 2072 000e 1B68     		ldr	r3, [r3]
ARM GAS  /tmp/ccYHp8fH.s 			page 51


 2073 0010 FB60     		str	r3, [r7, #12]
 802:./Libraries/STM32F4xx_HAL_Driver/Src/stm32f4xx_hal_hcd.c ****   uint32_t tmpreg = 0U;
 2074              		.loc 1 802 12
 2075 0012 0023     		movs	r3, #0
 2076 0014 BB60     		str	r3, [r7, #8]
 803:./Libraries/STM32F4xx_HAL_Driver/Src/stm32f4xx_hal_hcd.c ****   
 804:./Libraries/STM32F4xx_HAL_Driver/Src/stm32f4xx_hal_hcd.c ****   if ((USBx_HC(chnum)->HCINT) &  USB_OTG_HCINT_AHBERR)
 2077              		.loc 1 804 8
 2078 0016 FB78     		ldrb	r3, [r7, #3]	@ zero_extendqisi2
 2079 0018 5A01     		lsls	r2, r3, #5
 2080 001a FB68     		ldr	r3, [r7, #12]
 2081 001c 1344     		add	r3, r3, r2
 2082 001e 03F5A063 		add	r3, r3, #1280
 2083              		.loc 1 804 22
 2084 0022 9B68     		ldr	r3, [r3, #8]
 2085              		.loc 1 804 31
 2086 0024 03F00403 		and	r3, r3, #4
 2087              		.loc 1 804 6
 2088 0028 002B     		cmp	r3, #0
 2089 002a 19D0     		beq	.L81
 805:./Libraries/STM32F4xx_HAL_Driver/Src/stm32f4xx_hal_hcd.c ****   {
 806:./Libraries/STM32F4xx_HAL_Driver/Src/stm32f4xx_hal_hcd.c ****     __HAL_HCD_CLEAR_HC_INT(chnum, USB_OTG_HCINT_AHBERR);
 2090              		.loc 1 806 5
 2091 002c FB78     		ldrb	r3, [r7, #3]	@ zero_extendqisi2
 2092 002e 5A01     		lsls	r2, r3, #5
 2093 0030 FB68     		ldr	r3, [r7, #12]
 2094 0032 1344     		add	r3, r3, r2
 2095 0034 03F5A063 		add	r3, r3, #1280
 2096 0038 1A46     		mov	r2, r3
 2097 003a 0423     		movs	r3, #4
 2098 003c 9360     		str	r3, [r2, #8]
 807:./Libraries/STM32F4xx_HAL_Driver/Src/stm32f4xx_hal_hcd.c ****     __HAL_HCD_UNMASK_HALT_HC_INT(chnum);
 2099              		.loc 1 807 5
 2100 003e FB78     		ldrb	r3, [r7, #3]	@ zero_extendqisi2
 2101 0040 5A01     		lsls	r2, r3, #5
 2102 0042 FB68     		ldr	r3, [r7, #12]
 2103 0044 1344     		add	r3, r3, r2
 2104 0046 03F5A063 		add	r3, r3, #1280
 2105 004a DB68     		ldr	r3, [r3, #12]
 2106 004c FA78     		ldrb	r2, [r7, #3]	@ zero_extendqisi2
 2107 004e 5101     		lsls	r1, r2, #5
 2108 0050 FA68     		ldr	r2, [r7, #12]
 2109 0052 0A44     		add	r2, r2, r1
 2110 0054 02F5A062 		add	r2, r2, #1280
 2111 0058 43F00203 		orr	r3, r3, #2
 2112 005c D360     		str	r3, [r2, #12]
 2113 005e 92E0     		b	.L82
 2114              	.L81:
 808:./Libraries/STM32F4xx_HAL_Driver/Src/stm32f4xx_hal_hcd.c ****   }  
 809:./Libraries/STM32F4xx_HAL_Driver/Src/stm32f4xx_hal_hcd.c ****   else if ((USBx_HC(chnum)->HCINT) &  USB_OTG_HCINT_ACK)
 2115              		.loc 1 809 13
 2116 0060 FB78     		ldrb	r3, [r7, #3]	@ zero_extendqisi2
 2117 0062 5A01     		lsls	r2, r3, #5
 2118 0064 FB68     		ldr	r3, [r7, #12]
 2119 0066 1344     		add	r3, r3, r2
 2120 0068 03F5A063 		add	r3, r3, #1280
 2121              		.loc 1 809 27
ARM GAS  /tmp/ccYHp8fH.s 			page 52


 2122 006c 9B68     		ldr	r3, [r3, #8]
 2123              		.loc 1 809 36
 2124 006e 03F02003 		and	r3, r3, #32
 2125              		.loc 1 809 11
 2126 0072 002B     		cmp	r3, #0
 2127 0074 09D0     		beq	.L83
 810:./Libraries/STM32F4xx_HAL_Driver/Src/stm32f4xx_hal_hcd.c ****   {
 811:./Libraries/STM32F4xx_HAL_Driver/Src/stm32f4xx_hal_hcd.c ****     __HAL_HCD_CLEAR_HC_INT(chnum, USB_OTG_HCINT_ACK);
 2128              		.loc 1 811 5
 2129 0076 FB78     		ldrb	r3, [r7, #3]	@ zero_extendqisi2
 2130 0078 5A01     		lsls	r2, r3, #5
 2131 007a FB68     		ldr	r3, [r7, #12]
 2132 007c 1344     		add	r3, r3, r2
 2133 007e 03F5A063 		add	r3, r3, #1280
 2134 0082 1A46     		mov	r2, r3
 2135 0084 2023     		movs	r3, #32
 2136 0086 9360     		str	r3, [r2, #8]
 2137 0088 7DE0     		b	.L82
 2138              	.L83:
 812:./Libraries/STM32F4xx_HAL_Driver/Src/stm32f4xx_hal_hcd.c ****   }
 813:./Libraries/STM32F4xx_HAL_Driver/Src/stm32f4xx_hal_hcd.c ****   
 814:./Libraries/STM32F4xx_HAL_Driver/Src/stm32f4xx_hal_hcd.c ****   else if ((USBx_HC(chnum)->HCINT) &  USB_OTG_HCINT_STALL)  
 2139              		.loc 1 814 13
 2140 008a FB78     		ldrb	r3, [r7, #3]	@ zero_extendqisi2
 2141 008c 5A01     		lsls	r2, r3, #5
 2142 008e FB68     		ldr	r3, [r7, #12]
 2143 0090 1344     		add	r3, r3, r2
 2144 0092 03F5A063 		add	r3, r3, #1280
 2145              		.loc 1 814 27
 2146 0096 9B68     		ldr	r3, [r3, #8]
 2147              		.loc 1 814 36
 2148 0098 03F00803 		and	r3, r3, #8
 2149              		.loc 1 814 11
 2150 009c 002B     		cmp	r3, #0
 2151 009e 33D0     		beq	.L84
 815:./Libraries/STM32F4xx_HAL_Driver/Src/stm32f4xx_hal_hcd.c ****   {
 816:./Libraries/STM32F4xx_HAL_Driver/Src/stm32f4xx_hal_hcd.c ****     __HAL_HCD_UNMASK_HALT_HC_INT(chnum);
 2152              		.loc 1 816 5
 2153 00a0 FB78     		ldrb	r3, [r7, #3]	@ zero_extendqisi2
 2154 00a2 5A01     		lsls	r2, r3, #5
 2155 00a4 FB68     		ldr	r3, [r7, #12]
 2156 00a6 1344     		add	r3, r3, r2
 2157 00a8 03F5A063 		add	r3, r3, #1280
 2158 00ac DB68     		ldr	r3, [r3, #12]
 2159 00ae FA78     		ldrb	r2, [r7, #3]	@ zero_extendqisi2
 2160 00b0 5101     		lsls	r1, r2, #5
 2161 00b2 FA68     		ldr	r2, [r7, #12]
 2162 00b4 0A44     		add	r2, r2, r1
 2163 00b6 02F5A062 		add	r2, r2, #1280
 2164 00ba 43F00203 		orr	r3, r3, #2
 2165 00be D360     		str	r3, [r2, #12]
 817:./Libraries/STM32F4xx_HAL_Driver/Src/stm32f4xx_hal_hcd.c ****     hhcd->hc[chnum].state = HC_STALL;
 2166              		.loc 1 817 20
 2167 00c0 FA78     		ldrb	r2, [r7, #3]	@ zero_extendqisi2
 2168              		.loc 1 817 27
 2169 00c2 7968     		ldr	r1, [r7, #4]
 2170 00c4 1346     		mov	r3, r2
ARM GAS  /tmp/ccYHp8fH.s 			page 53


 2171 00c6 9B00     		lsls	r3, r3, #2
 2172 00c8 1344     		add	r3, r3, r2
 2173 00ca DB00     		lsls	r3, r3, #3
 2174 00cc 0B44     		add	r3, r3, r1
 2175 00ce 5D33     		adds	r3, r3, #93
 2176 00d0 0522     		movs	r2, #5
 2177 00d2 1A70     		strb	r2, [r3]
 818:./Libraries/STM32F4xx_HAL_Driver/Src/stm32f4xx_hal_hcd.c ****     __HAL_HCD_CLEAR_HC_INT(chnum, USB_OTG_HCINT_NAK);
 2178              		.loc 1 818 5
 2179 00d4 FB78     		ldrb	r3, [r7, #3]	@ zero_extendqisi2
 2180 00d6 5A01     		lsls	r2, r3, #5
 2181 00d8 FB68     		ldr	r3, [r7, #12]
 2182 00da 1344     		add	r3, r3, r2
 2183 00dc 03F5A063 		add	r3, r3, #1280
 2184 00e0 1A46     		mov	r2, r3
 2185 00e2 1023     		movs	r3, #16
 2186 00e4 9360     		str	r3, [r2, #8]
 819:./Libraries/STM32F4xx_HAL_Driver/Src/stm32f4xx_hal_hcd.c ****     __HAL_HCD_CLEAR_HC_INT(chnum, USB_OTG_HCINT_STALL);    
 2187              		.loc 1 819 5
 2188 00e6 FB78     		ldrb	r3, [r7, #3]	@ zero_extendqisi2
 2189 00e8 5A01     		lsls	r2, r3, #5
 2190 00ea FB68     		ldr	r3, [r7, #12]
 2191 00ec 1344     		add	r3, r3, r2
 2192 00ee 03F5A063 		add	r3, r3, #1280
 2193 00f2 1A46     		mov	r2, r3
 2194 00f4 0823     		movs	r3, #8
 2195 00f6 9360     		str	r3, [r2, #8]
 820:./Libraries/STM32F4xx_HAL_Driver/Src/stm32f4xx_hal_hcd.c ****     USB_HC_Halt(hhcd->Instance, chnum);    
 2196              		.loc 1 820 21
 2197 00f8 7B68     		ldr	r3, [r7, #4]
 2198 00fa 1B68     		ldr	r3, [r3]
 2199              		.loc 1 820 5
 2200 00fc FA78     		ldrb	r2, [r7, #3]	@ zero_extendqisi2
 2201 00fe 1146     		mov	r1, r2
 2202 0100 1846     		mov	r0, r3
 2203 0102 FFF7FEFF 		bl	USB_HC_Halt
 2204 0106 3EE0     		b	.L82
 2205              	.L84:
 821:./Libraries/STM32F4xx_HAL_Driver/Src/stm32f4xx_hal_hcd.c ****   }
 822:./Libraries/STM32F4xx_HAL_Driver/Src/stm32f4xx_hal_hcd.c ****   else if ((USBx_HC(chnum)->HCINT) &  USB_OTG_HCINT_DTERR)
 2206              		.loc 1 822 13
 2207 0108 FB78     		ldrb	r3, [r7, #3]	@ zero_extendqisi2
 2208 010a 5A01     		lsls	r2, r3, #5
 2209 010c FB68     		ldr	r3, [r7, #12]
 2210 010e 1344     		add	r3, r3, r2
 2211 0110 03F5A063 		add	r3, r3, #1280
 2212              		.loc 1 822 27
 2213 0114 9B68     		ldr	r3, [r3, #8]
 2214              		.loc 1 822 36
 2215 0116 03F48063 		and	r3, r3, #1024
 2216              		.loc 1 822 11
 2217 011a 002B     		cmp	r3, #0
 2218 011c 33D0     		beq	.L82
 823:./Libraries/STM32F4xx_HAL_Driver/Src/stm32f4xx_hal_hcd.c ****   {
 824:./Libraries/STM32F4xx_HAL_Driver/Src/stm32f4xx_hal_hcd.c ****     __HAL_HCD_UNMASK_HALT_HC_INT(chnum);
 2219              		.loc 1 824 5
 2220 011e FB78     		ldrb	r3, [r7, #3]	@ zero_extendqisi2
ARM GAS  /tmp/ccYHp8fH.s 			page 54


 2221 0120 5A01     		lsls	r2, r3, #5
 2222 0122 FB68     		ldr	r3, [r7, #12]
 2223 0124 1344     		add	r3, r3, r2
 2224 0126 03F5A063 		add	r3, r3, #1280
 2225 012a DB68     		ldr	r3, [r3, #12]
 2226 012c FA78     		ldrb	r2, [r7, #3]	@ zero_extendqisi2
 2227 012e 5101     		lsls	r1, r2, #5
 2228 0130 FA68     		ldr	r2, [r7, #12]
 2229 0132 0A44     		add	r2, r2, r1
 2230 0134 02F5A062 		add	r2, r2, #1280
 2231 0138 43F00203 		orr	r3, r3, #2
 2232 013c D360     		str	r3, [r2, #12]
 825:./Libraries/STM32F4xx_HAL_Driver/Src/stm32f4xx_hal_hcd.c ****     USB_HC_Halt(hhcd->Instance, chnum);  
 2233              		.loc 1 825 21
 2234 013e 7B68     		ldr	r3, [r7, #4]
 2235 0140 1B68     		ldr	r3, [r3]
 2236              		.loc 1 825 5
 2237 0142 FA78     		ldrb	r2, [r7, #3]	@ zero_extendqisi2
 2238 0144 1146     		mov	r1, r2
 2239 0146 1846     		mov	r0, r3
 2240 0148 FFF7FEFF 		bl	USB_HC_Halt
 826:./Libraries/STM32F4xx_HAL_Driver/Src/stm32f4xx_hal_hcd.c ****     __HAL_HCD_CLEAR_HC_INT(chnum, USB_OTG_HCINT_NAK);    
 2241              		.loc 1 826 5
 2242 014c FB78     		ldrb	r3, [r7, #3]	@ zero_extendqisi2
 2243 014e 5A01     		lsls	r2, r3, #5
 2244 0150 FB68     		ldr	r3, [r7, #12]
 2245 0152 1344     		add	r3, r3, r2
 2246 0154 03F5A063 		add	r3, r3, #1280
 2247 0158 1A46     		mov	r2, r3
 2248 015a 1023     		movs	r3, #16
 2249 015c 9360     		str	r3, [r2, #8]
 827:./Libraries/STM32F4xx_HAL_Driver/Src/stm32f4xx_hal_hcd.c ****     hhcd->hc[chnum].state = HC_DATATGLERR;
 2250              		.loc 1 827 20
 2251 015e FA78     		ldrb	r2, [r7, #3]	@ zero_extendqisi2
 2252              		.loc 1 827 27
 2253 0160 7968     		ldr	r1, [r7, #4]
 2254 0162 1346     		mov	r3, r2
 2255 0164 9B00     		lsls	r3, r3, #2
 2256 0166 1344     		add	r3, r3, r2
 2257 0168 DB00     		lsls	r3, r3, #3
 2258 016a 0B44     		add	r3, r3, r1
 2259 016c 5D33     		adds	r3, r3, #93
 2260 016e 0822     		movs	r2, #8
 2261 0170 1A70     		strb	r2, [r3]
 828:./Libraries/STM32F4xx_HAL_Driver/Src/stm32f4xx_hal_hcd.c ****     __HAL_HCD_CLEAR_HC_INT(chnum, USB_OTG_HCINT_DTERR);
 2262              		.loc 1 828 5
 2263 0172 FB78     		ldrb	r3, [r7, #3]	@ zero_extendqisi2
 2264 0174 5A01     		lsls	r2, r3, #5
 2265 0176 FB68     		ldr	r3, [r7, #12]
 2266 0178 1344     		add	r3, r3, r2
 2267 017a 03F5A063 		add	r3, r3, #1280
 2268 017e 1A46     		mov	r2, r3
 2269 0180 4FF48063 		mov	r3, #1024
 2270 0184 9360     		str	r3, [r2, #8]
 2271              	.L82:
 829:./Libraries/STM32F4xx_HAL_Driver/Src/stm32f4xx_hal_hcd.c ****   }    
 830:./Libraries/STM32F4xx_HAL_Driver/Src/stm32f4xx_hal_hcd.c ****   
ARM GAS  /tmp/ccYHp8fH.s 			page 55


 831:./Libraries/STM32F4xx_HAL_Driver/Src/stm32f4xx_hal_hcd.c ****   if ((USBx_HC(chnum)->HCINT) &  USB_OTG_HCINT_FRMOR)
 2272              		.loc 1 831 8
 2273 0186 FB78     		ldrb	r3, [r7, #3]	@ zero_extendqisi2
 2274 0188 5A01     		lsls	r2, r3, #5
 2275 018a FB68     		ldr	r3, [r7, #12]
 2276 018c 1344     		add	r3, r3, r2
 2277 018e 03F5A063 		add	r3, r3, #1280
 2278              		.loc 1 831 22
 2279 0192 9B68     		ldr	r3, [r3, #8]
 2280              		.loc 1 831 31
 2281 0194 03F40073 		and	r3, r3, #512
 2282              		.loc 1 831 6
 2283 0198 002B     		cmp	r3, #0
 2284 019a 21D0     		beq	.L85
 832:./Libraries/STM32F4xx_HAL_Driver/Src/stm32f4xx_hal_hcd.c ****   {
 833:./Libraries/STM32F4xx_HAL_Driver/Src/stm32f4xx_hal_hcd.c ****     __HAL_HCD_UNMASK_HALT_HC_INT(chnum); 
 2285              		.loc 1 833 5
 2286 019c FB78     		ldrb	r3, [r7, #3]	@ zero_extendqisi2
 2287 019e 5A01     		lsls	r2, r3, #5
 2288 01a0 FB68     		ldr	r3, [r7, #12]
 2289 01a2 1344     		add	r3, r3, r2
 2290 01a4 03F5A063 		add	r3, r3, #1280
 2291 01a8 DB68     		ldr	r3, [r3, #12]
 2292 01aa FA78     		ldrb	r2, [r7, #3]	@ zero_extendqisi2
 2293 01ac 5101     		lsls	r1, r2, #5
 2294 01ae FA68     		ldr	r2, [r7, #12]
 2295 01b0 0A44     		add	r2, r2, r1
 2296 01b2 02F5A062 		add	r2, r2, #1280
 2297 01b6 43F00203 		orr	r3, r3, #2
 2298 01ba D360     		str	r3, [r2, #12]
 834:./Libraries/STM32F4xx_HAL_Driver/Src/stm32f4xx_hal_hcd.c ****     USB_HC_Halt(hhcd->Instance, chnum);  
 2299              		.loc 1 834 21
 2300 01bc 7B68     		ldr	r3, [r7, #4]
 2301 01be 1B68     		ldr	r3, [r3]
 2302              		.loc 1 834 5
 2303 01c0 FA78     		ldrb	r2, [r7, #3]	@ zero_extendqisi2
 2304 01c2 1146     		mov	r1, r2
 2305 01c4 1846     		mov	r0, r3
 2306 01c6 FFF7FEFF 		bl	USB_HC_Halt
 835:./Libraries/STM32F4xx_HAL_Driver/Src/stm32f4xx_hal_hcd.c ****     __HAL_HCD_CLEAR_HC_INT(chnum, USB_OTG_HCINT_FRMOR);
 2307              		.loc 1 835 5
 2308 01ca FB78     		ldrb	r3, [r7, #3]	@ zero_extendqisi2
 2309 01cc 5A01     		lsls	r2, r3, #5
 2310 01ce FB68     		ldr	r3, [r7, #12]
 2311 01d0 1344     		add	r3, r3, r2
 2312 01d2 03F5A063 		add	r3, r3, #1280
 2313 01d6 1A46     		mov	r2, r3
 2314 01d8 4FF40073 		mov	r3, #512
 2315 01dc 9360     		str	r3, [r2, #8]
 836:./Libraries/STM32F4xx_HAL_Driver/Src/stm32f4xx_hal_hcd.c ****   }
 837:./Libraries/STM32F4xx_HAL_Driver/Src/stm32f4xx_hal_hcd.c ****   
 838:./Libraries/STM32F4xx_HAL_Driver/Src/stm32f4xx_hal_hcd.c ****   else if ((USBx_HC(chnum)->HCINT) &  USB_OTG_HCINT_XFRC)
 839:./Libraries/STM32F4xx_HAL_Driver/Src/stm32f4xx_hal_hcd.c ****   {
 840:./Libraries/STM32F4xx_HAL_Driver/Src/stm32f4xx_hal_hcd.c ****     
 841:./Libraries/STM32F4xx_HAL_Driver/Src/stm32f4xx_hal_hcd.c ****     if (hhcd->Init.dma_enable)
 842:./Libraries/STM32F4xx_HAL_Driver/Src/stm32f4xx_hal_hcd.c ****     {
 843:./Libraries/STM32F4xx_HAL_Driver/Src/stm32f4xx_hal_hcd.c ****       hhcd->hc[chnum].xfer_count = hhcd->hc[chnum].xfer_len - \
ARM GAS  /tmp/ccYHp8fH.s 			page 56


 844:./Libraries/STM32F4xx_HAL_Driver/Src/stm32f4xx_hal_hcd.c ****         (USBx_HC(chnum)->HCTSIZ & USB_OTG_HCTSIZ_XFRSIZ);
 845:./Libraries/STM32F4xx_HAL_Driver/Src/stm32f4xx_hal_hcd.c ****     }
 846:./Libraries/STM32F4xx_HAL_Driver/Src/stm32f4xx_hal_hcd.c ****     
 847:./Libraries/STM32F4xx_HAL_Driver/Src/stm32f4xx_hal_hcd.c ****     hhcd->hc[chnum].state = HC_XFRC;
 848:./Libraries/STM32F4xx_HAL_Driver/Src/stm32f4xx_hal_hcd.c ****     hhcd->hc[chnum].ErrCnt = 0U;
 849:./Libraries/STM32F4xx_HAL_Driver/Src/stm32f4xx_hal_hcd.c ****     __HAL_HCD_CLEAR_HC_INT(chnum, USB_OTG_HCINT_XFRC);
 850:./Libraries/STM32F4xx_HAL_Driver/Src/stm32f4xx_hal_hcd.c ****     
 851:./Libraries/STM32F4xx_HAL_Driver/Src/stm32f4xx_hal_hcd.c ****     
 852:./Libraries/STM32F4xx_HAL_Driver/Src/stm32f4xx_hal_hcd.c ****     if ((hhcd->hc[chnum].ep_type == EP_TYPE_CTRL)||
 853:./Libraries/STM32F4xx_HAL_Driver/Src/stm32f4xx_hal_hcd.c ****         (hhcd->hc[chnum].ep_type == EP_TYPE_BULK))
 854:./Libraries/STM32F4xx_HAL_Driver/Src/stm32f4xx_hal_hcd.c ****     {
 855:./Libraries/STM32F4xx_HAL_Driver/Src/stm32f4xx_hal_hcd.c ****       __HAL_HCD_UNMASK_HALT_HC_INT(chnum); 
 856:./Libraries/STM32F4xx_HAL_Driver/Src/stm32f4xx_hal_hcd.c ****       USB_HC_Halt(hhcd->Instance, chnum); 
 857:./Libraries/STM32F4xx_HAL_Driver/Src/stm32f4xx_hal_hcd.c ****       __HAL_HCD_CLEAR_HC_INT(chnum, USB_OTG_HCINT_NAK);
 858:./Libraries/STM32F4xx_HAL_Driver/Src/stm32f4xx_hal_hcd.c ****       
 859:./Libraries/STM32F4xx_HAL_Driver/Src/stm32f4xx_hal_hcd.c ****     }
 860:./Libraries/STM32F4xx_HAL_Driver/Src/stm32f4xx_hal_hcd.c ****     else if(hhcd->hc[chnum].ep_type == EP_TYPE_INTR)
 861:./Libraries/STM32F4xx_HAL_Driver/Src/stm32f4xx_hal_hcd.c ****     {
 862:./Libraries/STM32F4xx_HAL_Driver/Src/stm32f4xx_hal_hcd.c ****       USBx_HC(chnum)->HCCHAR |= USB_OTG_HCCHAR_ODDFRM;
 863:./Libraries/STM32F4xx_HAL_Driver/Src/stm32f4xx_hal_hcd.c ****       hhcd->hc[chnum].urb_state = URB_DONE; 
 864:./Libraries/STM32F4xx_HAL_Driver/Src/stm32f4xx_hal_hcd.c ****       HAL_HCD_HC_NotifyURBChange_Callback(hhcd, chnum, hhcd->hc[chnum].urb_state);
 865:./Libraries/STM32F4xx_HAL_Driver/Src/stm32f4xx_hal_hcd.c ****     }
 866:./Libraries/STM32F4xx_HAL_Driver/Src/stm32f4xx_hal_hcd.c ****     hhcd->hc[chnum].toggle_in ^= 1U;
 867:./Libraries/STM32F4xx_HAL_Driver/Src/stm32f4xx_hal_hcd.c ****     
 868:./Libraries/STM32F4xx_HAL_Driver/Src/stm32f4xx_hal_hcd.c ****   }
 869:./Libraries/STM32F4xx_HAL_Driver/Src/stm32f4xx_hal_hcd.c ****   else if ((USBx_HC(chnum)->HCINT) &  USB_OTG_HCINT_CHH)
 870:./Libraries/STM32F4xx_HAL_Driver/Src/stm32f4xx_hal_hcd.c ****   {
 871:./Libraries/STM32F4xx_HAL_Driver/Src/stm32f4xx_hal_hcd.c ****     __HAL_HCD_MASK_HALT_HC_INT(chnum); 
 872:./Libraries/STM32F4xx_HAL_Driver/Src/stm32f4xx_hal_hcd.c ****     
 873:./Libraries/STM32F4xx_HAL_Driver/Src/stm32f4xx_hal_hcd.c ****     if(hhcd->hc[chnum].state == HC_XFRC)
 874:./Libraries/STM32F4xx_HAL_Driver/Src/stm32f4xx_hal_hcd.c ****     {
 875:./Libraries/STM32F4xx_HAL_Driver/Src/stm32f4xx_hal_hcd.c ****       hhcd->hc[chnum].urb_state  = URB_DONE;      
 876:./Libraries/STM32F4xx_HAL_Driver/Src/stm32f4xx_hal_hcd.c ****     }
 877:./Libraries/STM32F4xx_HAL_Driver/Src/stm32f4xx_hal_hcd.c ****     
 878:./Libraries/STM32F4xx_HAL_Driver/Src/stm32f4xx_hal_hcd.c ****     else if (hhcd->hc[chnum].state == HC_STALL) 
 879:./Libraries/STM32F4xx_HAL_Driver/Src/stm32f4xx_hal_hcd.c ****     {
 880:./Libraries/STM32F4xx_HAL_Driver/Src/stm32f4xx_hal_hcd.c ****       hhcd->hc[chnum].urb_state  = URB_STALL;
 881:./Libraries/STM32F4xx_HAL_Driver/Src/stm32f4xx_hal_hcd.c ****     }   
 882:./Libraries/STM32F4xx_HAL_Driver/Src/stm32f4xx_hal_hcd.c ****     
 883:./Libraries/STM32F4xx_HAL_Driver/Src/stm32f4xx_hal_hcd.c ****     else if((hhcd->hc[chnum].state == HC_XACTERR) ||
 884:./Libraries/STM32F4xx_HAL_Driver/Src/stm32f4xx_hal_hcd.c ****             (hhcd->hc[chnum].state == HC_DATATGLERR))
 885:./Libraries/STM32F4xx_HAL_Driver/Src/stm32f4xx_hal_hcd.c ****     {
 886:./Libraries/STM32F4xx_HAL_Driver/Src/stm32f4xx_hal_hcd.c ****       if(hhcd->hc[chnum].ErrCnt++ > 3U)
 887:./Libraries/STM32F4xx_HAL_Driver/Src/stm32f4xx_hal_hcd.c ****       {      
 888:./Libraries/STM32F4xx_HAL_Driver/Src/stm32f4xx_hal_hcd.c ****         hhcd->hc[chnum].ErrCnt = 0U;
 889:./Libraries/STM32F4xx_HAL_Driver/Src/stm32f4xx_hal_hcd.c ****         hhcd->hc[chnum].urb_state = URB_ERROR;
 890:./Libraries/STM32F4xx_HAL_Driver/Src/stm32f4xx_hal_hcd.c ****       }
 891:./Libraries/STM32F4xx_HAL_Driver/Src/stm32f4xx_hal_hcd.c ****       else
 892:./Libraries/STM32F4xx_HAL_Driver/Src/stm32f4xx_hal_hcd.c ****       {
 893:./Libraries/STM32F4xx_HAL_Driver/Src/stm32f4xx_hal_hcd.c ****         hhcd->hc[chnum].urb_state = URB_NOTREADY;
 894:./Libraries/STM32F4xx_HAL_Driver/Src/stm32f4xx_hal_hcd.c ****       }
 895:./Libraries/STM32F4xx_HAL_Driver/Src/stm32f4xx_hal_hcd.c ****       
 896:./Libraries/STM32F4xx_HAL_Driver/Src/stm32f4xx_hal_hcd.c ****       /* re-activate the channel  */
 897:./Libraries/STM32F4xx_HAL_Driver/Src/stm32f4xx_hal_hcd.c ****       tmpreg = USBx_HC(chnum)->HCCHAR;
 898:./Libraries/STM32F4xx_HAL_Driver/Src/stm32f4xx_hal_hcd.c ****       tmpreg &= ~USB_OTG_HCCHAR_CHDIS;
 899:./Libraries/STM32F4xx_HAL_Driver/Src/stm32f4xx_hal_hcd.c ****       tmpreg |= USB_OTG_HCCHAR_CHENA;
 900:./Libraries/STM32F4xx_HAL_Driver/Src/stm32f4xx_hal_hcd.c ****       USBx_HC(chnum)->HCCHAR = tmpreg;
ARM GAS  /tmp/ccYHp8fH.s 			page 57


 901:./Libraries/STM32F4xx_HAL_Driver/Src/stm32f4xx_hal_hcd.c ****     }
 902:./Libraries/STM32F4xx_HAL_Driver/Src/stm32f4xx_hal_hcd.c ****     __HAL_HCD_CLEAR_HC_INT(chnum, USB_OTG_HCINT_CHH);
 903:./Libraries/STM32F4xx_HAL_Driver/Src/stm32f4xx_hal_hcd.c ****     HAL_HCD_HC_NotifyURBChange_Callback(hhcd, chnum, hhcd->hc[chnum].urb_state);
 904:./Libraries/STM32F4xx_HAL_Driver/Src/stm32f4xx_hal_hcd.c ****   }  
 905:./Libraries/STM32F4xx_HAL_Driver/Src/stm32f4xx_hal_hcd.c ****   
 906:./Libraries/STM32F4xx_HAL_Driver/Src/stm32f4xx_hal_hcd.c ****   else if ((USBx_HC(chnum)->HCINT) &  USB_OTG_HCINT_TXERR)
 907:./Libraries/STM32F4xx_HAL_Driver/Src/stm32f4xx_hal_hcd.c ****   {
 908:./Libraries/STM32F4xx_HAL_Driver/Src/stm32f4xx_hal_hcd.c ****     __HAL_HCD_UNMASK_HALT_HC_INT(chnum); 
 909:./Libraries/STM32F4xx_HAL_Driver/Src/stm32f4xx_hal_hcd.c ****     hhcd->hc[chnum].ErrCnt++;
 910:./Libraries/STM32F4xx_HAL_Driver/Src/stm32f4xx_hal_hcd.c ****     hhcd->hc[chnum].state = HC_XACTERR;
 911:./Libraries/STM32F4xx_HAL_Driver/Src/stm32f4xx_hal_hcd.c ****     USB_HC_Halt(hhcd->Instance, chnum);     
 912:./Libraries/STM32F4xx_HAL_Driver/Src/stm32f4xx_hal_hcd.c ****     __HAL_HCD_CLEAR_HC_INT(chnum, USB_OTG_HCINT_TXERR);
 913:./Libraries/STM32F4xx_HAL_Driver/Src/stm32f4xx_hal_hcd.c ****   }
 914:./Libraries/STM32F4xx_HAL_Driver/Src/stm32f4xx_hal_hcd.c ****   else if ((USBx_HC(chnum)->HCINT) &  USB_OTG_HCINT_NAK)
 915:./Libraries/STM32F4xx_HAL_Driver/Src/stm32f4xx_hal_hcd.c ****   {  
 916:./Libraries/STM32F4xx_HAL_Driver/Src/stm32f4xx_hal_hcd.c ****     if(hhcd->hc[chnum].ep_type == EP_TYPE_INTR)
 917:./Libraries/STM32F4xx_HAL_Driver/Src/stm32f4xx_hal_hcd.c ****     {
 918:./Libraries/STM32F4xx_HAL_Driver/Src/stm32f4xx_hal_hcd.c ****       __HAL_HCD_UNMASK_HALT_HC_INT(chnum); 
 919:./Libraries/STM32F4xx_HAL_Driver/Src/stm32f4xx_hal_hcd.c ****       USB_HC_Halt(hhcd->Instance, chnum);  
 920:./Libraries/STM32F4xx_HAL_Driver/Src/stm32f4xx_hal_hcd.c ****     }
 921:./Libraries/STM32F4xx_HAL_Driver/Src/stm32f4xx_hal_hcd.c ****     
 922:./Libraries/STM32F4xx_HAL_Driver/Src/stm32f4xx_hal_hcd.c ****      /* Clear the NAK flag before re-enabling the channel for new IN request */
 923:./Libraries/STM32F4xx_HAL_Driver/Src/stm32f4xx_hal_hcd.c ****     hhcd->hc[chnum].state = HC_NAK;
 924:./Libraries/STM32F4xx_HAL_Driver/Src/stm32f4xx_hal_hcd.c ****     __HAL_HCD_CLEAR_HC_INT(chnum, USB_OTG_HCINT_NAK);
 925:./Libraries/STM32F4xx_HAL_Driver/Src/stm32f4xx_hal_hcd.c ****     
 926:./Libraries/STM32F4xx_HAL_Driver/Src/stm32f4xx_hal_hcd.c ****     if  ((hhcd->hc[chnum].ep_type == EP_TYPE_CTRL)||
 927:./Libraries/STM32F4xx_HAL_Driver/Src/stm32f4xx_hal_hcd.c ****               (hhcd->hc[chnum].ep_type == EP_TYPE_BULK))
 928:./Libraries/STM32F4xx_HAL_Driver/Src/stm32f4xx_hal_hcd.c ****     {
 929:./Libraries/STM32F4xx_HAL_Driver/Src/stm32f4xx_hal_hcd.c ****       /* re-activate the channel */
 930:./Libraries/STM32F4xx_HAL_Driver/Src/stm32f4xx_hal_hcd.c ****       tmpreg = USBx_HC(chnum)->HCCHAR;
 931:./Libraries/STM32F4xx_HAL_Driver/Src/stm32f4xx_hal_hcd.c ****       tmpreg &= ~USB_OTG_HCCHAR_CHDIS;
 932:./Libraries/STM32F4xx_HAL_Driver/Src/stm32f4xx_hal_hcd.c ****       tmpreg |= USB_OTG_HCCHAR_CHENA;
 933:./Libraries/STM32F4xx_HAL_Driver/Src/stm32f4xx_hal_hcd.c ****       USBx_HC(chnum)->HCCHAR = tmpreg;
 934:./Libraries/STM32F4xx_HAL_Driver/Src/stm32f4xx_hal_hcd.c ****     }
 935:./Libraries/STM32F4xx_HAL_Driver/Src/stm32f4xx_hal_hcd.c ****   }
 936:./Libraries/STM32F4xx_HAL_Driver/Src/stm32f4xx_hal_hcd.c **** }
 2316              		.loc 1 936 1
 2317 01de 42E2     		b	.L102
 2318              	.L85:
 838:./Libraries/STM32F4xx_HAL_Driver/Src/stm32f4xx_hal_hcd.c ****   {
 2319              		.loc 1 838 13
 2320 01e0 FB78     		ldrb	r3, [r7, #3]	@ zero_extendqisi2
 2321 01e2 5A01     		lsls	r2, r3, #5
 2322 01e4 FB68     		ldr	r3, [r7, #12]
 2323 01e6 1344     		add	r3, r3, r2
 2324 01e8 03F5A063 		add	r3, r3, #1280
 838:./Libraries/STM32F4xx_HAL_Driver/Src/stm32f4xx_hal_hcd.c ****   {
 2325              		.loc 1 838 27
 2326 01ec 9B68     		ldr	r3, [r3, #8]
 838:./Libraries/STM32F4xx_HAL_Driver/Src/stm32f4xx_hal_hcd.c ****   {
 2327              		.loc 1 838 36
 2328 01ee 03F00103 		and	r3, r3, #1
 838:./Libraries/STM32F4xx_HAL_Driver/Src/stm32f4xx_hal_hcd.c ****   {
 2329              		.loc 1 838 11
 2330 01f2 002B     		cmp	r3, #0
 2331 01f4 00F0BE80 		beq	.L87
 841:./Libraries/STM32F4xx_HAL_Driver/Src/stm32f4xx_hal_hcd.c ****     {
ARM GAS  /tmp/ccYHp8fH.s 			page 58


 2332              		.loc 1 841 19
 2333 01f8 7B68     		ldr	r3, [r7, #4]
 2334 01fa 1B69     		ldr	r3, [r3, #16]
 841:./Libraries/STM32F4xx_HAL_Driver/Src/stm32f4xx_hal_hcd.c ****     {
 2335              		.loc 1 841 8
 2336 01fc 002B     		cmp	r3, #0
 2337 01fe 1BD0     		beq	.L88
 843:./Libraries/STM32F4xx_HAL_Driver/Src/stm32f4xx_hal_hcd.c ****         (USBx_HC(chnum)->HCTSIZ & USB_OTG_HCTSIZ_XFRSIZ);
 2338              		.loc 1 843 51
 2339 0200 FA78     		ldrb	r2, [r7, #3]	@ zero_extendqisi2
 2340 0202 7968     		ldr	r1, [r7, #4]
 2341 0204 1346     		mov	r3, r2
 2342 0206 9B00     		lsls	r3, r3, #2
 2343 0208 1344     		add	r3, r3, r2
 2344 020a DB00     		lsls	r3, r3, #3
 2345 020c 0B44     		add	r3, r3, r1
 2346 020e 4833     		adds	r3, r3, #72
 2347 0210 1968     		ldr	r1, [r3]
 844:./Libraries/STM32F4xx_HAL_Driver/Src/stm32f4xx_hal_hcd.c ****     }
 2348              		.loc 1 844 10
 2349 0212 FB78     		ldrb	r3, [r7, #3]	@ zero_extendqisi2
 2350 0214 5A01     		lsls	r2, r3, #5
 2351 0216 FB68     		ldr	r3, [r7, #12]
 2352 0218 1344     		add	r3, r3, r2
 2353 021a 03F5A063 		add	r3, r3, #1280
 844:./Libraries/STM32F4xx_HAL_Driver/Src/stm32f4xx_hal_hcd.c ****     }
 2354              		.loc 1 844 24
 2355 021e 1B69     		ldr	r3, [r3, #16]
 844:./Libraries/STM32F4xx_HAL_Driver/Src/stm32f4xx_hal_hcd.c ****     }
 2356              		.loc 1 844 33
 2357 0220 C3F31203 		ubfx	r3, r3, #0, #19
 843:./Libraries/STM32F4xx_HAL_Driver/Src/stm32f4xx_hal_hcd.c ****         (USBx_HC(chnum)->HCTSIZ & USB_OTG_HCTSIZ_XFRSIZ);
 2358              		.loc 1 843 22
 2359 0224 FA78     		ldrb	r2, [r7, #3]	@ zero_extendqisi2
 843:./Libraries/STM32F4xx_HAL_Driver/Src/stm32f4xx_hal_hcd.c ****         (USBx_HC(chnum)->HCTSIZ & USB_OTG_HCTSIZ_XFRSIZ);
 2360              		.loc 1 843 61
 2361 0226 C91A     		subs	r1, r1, r3
 843:./Libraries/STM32F4xx_HAL_Driver/Src/stm32f4xx_hal_hcd.c ****         (USBx_HC(chnum)->HCTSIZ & USB_OTG_HCTSIZ_XFRSIZ);
 2362              		.loc 1 843 34
 2363 0228 7868     		ldr	r0, [r7, #4]
 2364 022a 1346     		mov	r3, r2
 2365 022c 9B00     		lsls	r3, r3, #2
 2366 022e 1344     		add	r3, r3, r2
 2367 0230 DB00     		lsls	r3, r3, #3
 2368 0232 0344     		add	r3, r3, r0
 2369 0234 4C33     		adds	r3, r3, #76
 2370 0236 1960     		str	r1, [r3]
 2371              	.L88:
 847:./Libraries/STM32F4xx_HAL_Driver/Src/stm32f4xx_hal_hcd.c ****     hhcd->hc[chnum].ErrCnt = 0U;
 2372              		.loc 1 847 20
 2373 0238 FA78     		ldrb	r2, [r7, #3]	@ zero_extendqisi2
 847:./Libraries/STM32F4xx_HAL_Driver/Src/stm32f4xx_hal_hcd.c ****     hhcd->hc[chnum].ErrCnt = 0U;
 2374              		.loc 1 847 27
 2375 023a 7968     		ldr	r1, [r7, #4]
 2376 023c 1346     		mov	r3, r2
 2377 023e 9B00     		lsls	r3, r3, #2
 2378 0240 1344     		add	r3, r3, r2
ARM GAS  /tmp/ccYHp8fH.s 			page 59


 2379 0242 DB00     		lsls	r3, r3, #3
 2380 0244 0B44     		add	r3, r3, r1
 2381 0246 5D33     		adds	r3, r3, #93
 2382 0248 0122     		movs	r2, #1
 2383 024a 1A70     		strb	r2, [r3]
 848:./Libraries/STM32F4xx_HAL_Driver/Src/stm32f4xx_hal_hcd.c ****     __HAL_HCD_CLEAR_HC_INT(chnum, USB_OTG_HCINT_XFRC);
 2384              		.loc 1 848 20
 2385 024c FA78     		ldrb	r2, [r7, #3]	@ zero_extendqisi2
 848:./Libraries/STM32F4xx_HAL_Driver/Src/stm32f4xx_hal_hcd.c ****     __HAL_HCD_CLEAR_HC_INT(chnum, USB_OTG_HCINT_XFRC);
 2386              		.loc 1 848 28
 2387 024e 7968     		ldr	r1, [r7, #4]
 2388 0250 1346     		mov	r3, r2
 2389 0252 9B00     		lsls	r3, r3, #2
 2390 0254 1344     		add	r3, r3, r2
 2391 0256 DB00     		lsls	r3, r3, #3
 2392 0258 0B44     		add	r3, r3, r1
 2393 025a 5833     		adds	r3, r3, #88
 2394 025c 0022     		movs	r2, #0
 2395 025e 1A60     		str	r2, [r3]
 849:./Libraries/STM32F4xx_HAL_Driver/Src/stm32f4xx_hal_hcd.c ****     
 2396              		.loc 1 849 5
 2397 0260 FB78     		ldrb	r3, [r7, #3]	@ zero_extendqisi2
 2398 0262 5A01     		lsls	r2, r3, #5
 2399 0264 FB68     		ldr	r3, [r7, #12]
 2400 0266 1344     		add	r3, r3, r2
 2401 0268 03F5A063 		add	r3, r3, #1280
 2402 026c 1A46     		mov	r2, r3
 2403 026e 0123     		movs	r3, #1
 2404 0270 9360     		str	r3, [r2, #8]
 852:./Libraries/STM32F4xx_HAL_Driver/Src/stm32f4xx_hal_hcd.c ****         (hhcd->hc[chnum].ep_type == EP_TYPE_BULK))
 2405              		.loc 1 852 25
 2406 0272 FA78     		ldrb	r2, [r7, #3]	@ zero_extendqisi2
 2407 0274 7968     		ldr	r1, [r7, #4]
 2408 0276 1346     		mov	r3, r2
 2409 0278 9B00     		lsls	r3, r3, #2
 2410 027a 1344     		add	r3, r3, r2
 2411 027c DB00     		lsls	r3, r3, #3
 2412 027e 0B44     		add	r3, r3, r1
 2413 0280 3F33     		adds	r3, r3, #63
 2414 0282 1B78     		ldrb	r3, [r3]	@ zero_extendqisi2
 852:./Libraries/STM32F4xx_HAL_Driver/Src/stm32f4xx_hal_hcd.c ****         (hhcd->hc[chnum].ep_type == EP_TYPE_BULK))
 2415              		.loc 1 852 8
 2416 0284 002B     		cmp	r3, #0
 2417 0286 0AD0     		beq	.L89
 853:./Libraries/STM32F4xx_HAL_Driver/Src/stm32f4xx_hal_hcd.c ****     {
 2418              		.loc 1 853 25 discriminator 1
 2419 0288 FA78     		ldrb	r2, [r7, #3]	@ zero_extendqisi2
 2420 028a 7968     		ldr	r1, [r7, #4]
 2421 028c 1346     		mov	r3, r2
 2422 028e 9B00     		lsls	r3, r3, #2
 2423 0290 1344     		add	r3, r3, r2
 2424 0292 DB00     		lsls	r3, r3, #3
 2425 0294 0B44     		add	r3, r3, r1
 2426 0296 3F33     		adds	r3, r3, #63
 2427 0298 1B78     		ldrb	r3, [r3]	@ zero_extendqisi2
 852:./Libraries/STM32F4xx_HAL_Driver/Src/stm32f4xx_hal_hcd.c ****         (hhcd->hc[chnum].ep_type == EP_TYPE_BULK))
 2428              		.loc 1 852 50 discriminator 1
ARM GAS  /tmp/ccYHp8fH.s 			page 60


 2429 029a 022B     		cmp	r3, #2
 2430 029c 20D1     		bne	.L90
 2431              	.L89:
 855:./Libraries/STM32F4xx_HAL_Driver/Src/stm32f4xx_hal_hcd.c ****       USB_HC_Halt(hhcd->Instance, chnum); 
 2432              		.loc 1 855 7
 2433 029e FB78     		ldrb	r3, [r7, #3]	@ zero_extendqisi2
 2434 02a0 5A01     		lsls	r2, r3, #5
 2435 02a2 FB68     		ldr	r3, [r7, #12]
 2436 02a4 1344     		add	r3, r3, r2
 2437 02a6 03F5A063 		add	r3, r3, #1280
 2438 02aa DB68     		ldr	r3, [r3, #12]
 2439 02ac FA78     		ldrb	r2, [r7, #3]	@ zero_extendqisi2
 2440 02ae 5101     		lsls	r1, r2, #5
 2441 02b0 FA68     		ldr	r2, [r7, #12]
 2442 02b2 0A44     		add	r2, r2, r1
 2443 02b4 02F5A062 		add	r2, r2, #1280
 2444 02b8 43F00203 		orr	r3, r3, #2
 2445 02bc D360     		str	r3, [r2, #12]
 856:./Libraries/STM32F4xx_HAL_Driver/Src/stm32f4xx_hal_hcd.c ****       __HAL_HCD_CLEAR_HC_INT(chnum, USB_OTG_HCINT_NAK);
 2446              		.loc 1 856 23
 2447 02be 7B68     		ldr	r3, [r7, #4]
 2448 02c0 1B68     		ldr	r3, [r3]
 856:./Libraries/STM32F4xx_HAL_Driver/Src/stm32f4xx_hal_hcd.c ****       __HAL_HCD_CLEAR_HC_INT(chnum, USB_OTG_HCINT_NAK);
 2449              		.loc 1 856 7
 2450 02c2 FA78     		ldrb	r2, [r7, #3]	@ zero_extendqisi2
 2451 02c4 1146     		mov	r1, r2
 2452 02c6 1846     		mov	r0, r3
 2453 02c8 FFF7FEFF 		bl	USB_HC_Halt
 857:./Libraries/STM32F4xx_HAL_Driver/Src/stm32f4xx_hal_hcd.c ****       
 2454              		.loc 1 857 7
 2455 02cc FB78     		ldrb	r3, [r7, #3]	@ zero_extendqisi2
 2456 02ce 5A01     		lsls	r2, r3, #5
 2457 02d0 FB68     		ldr	r3, [r7, #12]
 2458 02d2 1344     		add	r3, r3, r2
 2459 02d4 03F5A063 		add	r3, r3, #1280
 2460 02d8 1A46     		mov	r2, r3
 2461 02da 1023     		movs	r3, #16
 2462 02dc 9360     		str	r3, [r2, #8]
 2463 02de 32E0     		b	.L91
 2464              	.L90:
 860:./Libraries/STM32F4xx_HAL_Driver/Src/stm32f4xx_hal_hcd.c ****     {
 2465              		.loc 1 860 28
 2466 02e0 FA78     		ldrb	r2, [r7, #3]	@ zero_extendqisi2
 2467 02e2 7968     		ldr	r1, [r7, #4]
 2468 02e4 1346     		mov	r3, r2
 2469 02e6 9B00     		lsls	r3, r3, #2
 2470 02e8 1344     		add	r3, r3, r2
 2471 02ea DB00     		lsls	r3, r3, #3
 2472 02ec 0B44     		add	r3, r3, r1
 2473 02ee 3F33     		adds	r3, r3, #63
 2474 02f0 1B78     		ldrb	r3, [r3]	@ zero_extendqisi2
 860:./Libraries/STM32F4xx_HAL_Driver/Src/stm32f4xx_hal_hcd.c ****     {
 2475              		.loc 1 860 12
 2476 02f2 032B     		cmp	r3, #3
 2477 02f4 27D1     		bne	.L91
 862:./Libraries/STM32F4xx_HAL_Driver/Src/stm32f4xx_hal_hcd.c ****       hhcd->hc[chnum].urb_state = URB_DONE; 
 2478              		.loc 1 862 30
ARM GAS  /tmp/ccYHp8fH.s 			page 61


 2479 02f6 FB78     		ldrb	r3, [r7, #3]	@ zero_extendqisi2
 2480 02f8 5A01     		lsls	r2, r3, #5
 2481 02fa FB68     		ldr	r3, [r7, #12]
 2482 02fc 1344     		add	r3, r3, r2
 2483 02fe 03F5A063 		add	r3, r3, #1280
 2484 0302 1B68     		ldr	r3, [r3]
 2485 0304 FA78     		ldrb	r2, [r7, #3]	@ zero_extendqisi2
 2486 0306 5101     		lsls	r1, r2, #5
 2487 0308 FA68     		ldr	r2, [r7, #12]
 2488 030a 0A44     		add	r2, r2, r1
 2489 030c 02F5A062 		add	r2, r2, #1280
 2490 0310 43F00053 		orr	r3, r3, #536870912
 2491 0314 1360     		str	r3, [r2]
 863:./Libraries/STM32F4xx_HAL_Driver/Src/stm32f4xx_hal_hcd.c ****       HAL_HCD_HC_NotifyURBChange_Callback(hhcd, chnum, hhcd->hc[chnum].urb_state);
 2492              		.loc 1 863 22
 2493 0316 FA78     		ldrb	r2, [r7, #3]	@ zero_extendqisi2
 863:./Libraries/STM32F4xx_HAL_Driver/Src/stm32f4xx_hal_hcd.c ****       HAL_HCD_HC_NotifyURBChange_Callback(hhcd, chnum, hhcd->hc[chnum].urb_state);
 2494              		.loc 1 863 33
 2495 0318 7968     		ldr	r1, [r7, #4]
 2496 031a 1346     		mov	r3, r2
 2497 031c 9B00     		lsls	r3, r3, #2
 2498 031e 1344     		add	r3, r3, r2
 2499 0320 DB00     		lsls	r3, r3, #3
 2500 0322 0B44     		add	r3, r3, r1
 2501 0324 5C33     		adds	r3, r3, #92
 2502 0326 0122     		movs	r2, #1
 2503 0328 1A70     		strb	r2, [r3]
 864:./Libraries/STM32F4xx_HAL_Driver/Src/stm32f4xx_hal_hcd.c ****     }
 2504              		.loc 1 864 7
 2505 032a FA78     		ldrb	r2, [r7, #3]	@ zero_extendqisi2
 2506 032c 7968     		ldr	r1, [r7, #4]
 2507 032e 1346     		mov	r3, r2
 2508 0330 9B00     		lsls	r3, r3, #2
 2509 0332 1344     		add	r3, r3, r2
 2510 0334 DB00     		lsls	r3, r3, #3
 2511 0336 0B44     		add	r3, r3, r1
 2512 0338 5C33     		adds	r3, r3, #92
 2513 033a 1A78     		ldrb	r2, [r3]	@ zero_extendqisi2
 2514 033c FB78     		ldrb	r3, [r7, #3]	@ zero_extendqisi2
 2515 033e 1946     		mov	r1, r3
 2516 0340 7868     		ldr	r0, [r7, #4]
 2517 0342 FFF7FEFF 		bl	HAL_HCD_HC_NotifyURBChange_Callback
 2518              	.L91:
 866:./Libraries/STM32F4xx_HAL_Driver/Src/stm32f4xx_hal_hcd.c ****     
 2519              		.loc 1 866 31
 2520 0346 FA78     		ldrb	r2, [r7, #3]	@ zero_extendqisi2
 2521 0348 7968     		ldr	r1, [r7, #4]
 2522 034a 1346     		mov	r3, r2
 2523 034c 9B00     		lsls	r3, r3, #2
 2524 034e 1344     		add	r3, r3, r2
 2525 0350 DB00     		lsls	r3, r3, #3
 2526 0352 0B44     		add	r3, r3, r1
 2527 0354 5033     		adds	r3, r3, #80
 2528 0356 1B78     		ldrb	r3, [r3]	@ zero_extendqisi2
 2529 0358 FA78     		ldrb	r2, [r7, #3]	@ zero_extendqisi2
 2530 035a 83F00103 		eor	r3, r3, #1
 2531 035e D8B2     		uxtb	r0, r3
ARM GAS  /tmp/ccYHp8fH.s 			page 62


 2532 0360 7968     		ldr	r1, [r7, #4]
 2533 0362 1346     		mov	r3, r2
 2534 0364 9B00     		lsls	r3, r3, #2
 2535 0366 1344     		add	r3, r3, r2
 2536 0368 DB00     		lsls	r3, r3, #3
 2537 036a 0B44     		add	r3, r3, r1
 2538 036c 5033     		adds	r3, r3, #80
 2539 036e 0246     		mov	r2, r0
 2540 0370 1A70     		strb	r2, [r3]
 2541              		.loc 1 936 1
 2542 0372 78E1     		b	.L102
 2543              	.L87:
 869:./Libraries/STM32F4xx_HAL_Driver/Src/stm32f4xx_hal_hcd.c ****   {
 2544              		.loc 1 869 13
 2545 0374 FB78     		ldrb	r3, [r7, #3]	@ zero_extendqisi2
 2546 0376 5A01     		lsls	r2, r3, #5
 2547 0378 FB68     		ldr	r3, [r7, #12]
 2548 037a 1344     		add	r3, r3, r2
 2549 037c 03F5A063 		add	r3, r3, #1280
 869:./Libraries/STM32F4xx_HAL_Driver/Src/stm32f4xx_hal_hcd.c ****   {
 2550              		.loc 1 869 27
 2551 0380 9B68     		ldr	r3, [r3, #8]
 869:./Libraries/STM32F4xx_HAL_Driver/Src/stm32f4xx_hal_hcd.c ****   {
 2552              		.loc 1 869 36
 2553 0382 03F00203 		and	r3, r3, #2
 869:./Libraries/STM32F4xx_HAL_Driver/Src/stm32f4xx_hal_hcd.c ****   {
 2554              		.loc 1 869 11
 2555 0386 002B     		cmp	r3, #0
 2556 0388 00F0B680 		beq	.L92
 871:./Libraries/STM32F4xx_HAL_Driver/Src/stm32f4xx_hal_hcd.c ****     
 2557              		.loc 1 871 5
 2558 038c FB78     		ldrb	r3, [r7, #3]	@ zero_extendqisi2
 2559 038e 5A01     		lsls	r2, r3, #5
 2560 0390 FB68     		ldr	r3, [r7, #12]
 2561 0392 1344     		add	r3, r3, r2
 2562 0394 03F5A063 		add	r3, r3, #1280
 2563 0398 DB68     		ldr	r3, [r3, #12]
 2564 039a FA78     		ldrb	r2, [r7, #3]	@ zero_extendqisi2
 2565 039c 5101     		lsls	r1, r2, #5
 2566 039e FA68     		ldr	r2, [r7, #12]
 2567 03a0 0A44     		add	r2, r2, r1
 2568 03a2 02F5A062 		add	r2, r2, #1280
 2569 03a6 23F00203 		bic	r3, r3, #2
 2570 03aa D360     		str	r3, [r2, #12]
 873:./Libraries/STM32F4xx_HAL_Driver/Src/stm32f4xx_hal_hcd.c ****     {
 2571              		.loc 1 873 23
 2572 03ac FA78     		ldrb	r2, [r7, #3]	@ zero_extendqisi2
 2573 03ae 7968     		ldr	r1, [r7, #4]
 2574 03b0 1346     		mov	r3, r2
 2575 03b2 9B00     		lsls	r3, r3, #2
 2576 03b4 1344     		add	r3, r3, r2
 2577 03b6 DB00     		lsls	r3, r3, #3
 2578 03b8 0B44     		add	r3, r3, r1
 2579 03ba 5D33     		adds	r3, r3, #93
 2580 03bc 1B78     		ldrb	r3, [r3]	@ zero_extendqisi2
 873:./Libraries/STM32F4xx_HAL_Driver/Src/stm32f4xx_hal_hcd.c ****     {
 2581              		.loc 1 873 7
ARM GAS  /tmp/ccYHp8fH.s 			page 63


 2582 03be 012B     		cmp	r3, #1
 2583 03c0 0AD1     		bne	.L93
 875:./Libraries/STM32F4xx_HAL_Driver/Src/stm32f4xx_hal_hcd.c ****     }
 2584              		.loc 1 875 22
 2585 03c2 FA78     		ldrb	r2, [r7, #3]	@ zero_extendqisi2
 875:./Libraries/STM32F4xx_HAL_Driver/Src/stm32f4xx_hal_hcd.c ****     }
 2586              		.loc 1 875 34
 2587 03c4 7968     		ldr	r1, [r7, #4]
 2588 03c6 1346     		mov	r3, r2
 2589 03c8 9B00     		lsls	r3, r3, #2
 2590 03ca 1344     		add	r3, r3, r2
 2591 03cc DB00     		lsls	r3, r3, #3
 2592 03ce 0B44     		add	r3, r3, r1
 2593 03d0 5C33     		adds	r3, r3, #92
 2594 03d2 0122     		movs	r2, #1
 2595 03d4 1A70     		strb	r2, [r3]
 2596 03d6 77E0     		b	.L94
 2597              	.L93:
 878:./Libraries/STM32F4xx_HAL_Driver/Src/stm32f4xx_hal_hcd.c ****     {
 2598              		.loc 1 878 29
 2599 03d8 FA78     		ldrb	r2, [r7, #3]	@ zero_extendqisi2
 2600 03da 7968     		ldr	r1, [r7, #4]
 2601 03dc 1346     		mov	r3, r2
 2602 03de 9B00     		lsls	r3, r3, #2
 2603 03e0 1344     		add	r3, r3, r2
 2604 03e2 DB00     		lsls	r3, r3, #3
 2605 03e4 0B44     		add	r3, r3, r1
 2606 03e6 5D33     		adds	r3, r3, #93
 2607 03e8 1B78     		ldrb	r3, [r3]	@ zero_extendqisi2
 878:./Libraries/STM32F4xx_HAL_Driver/Src/stm32f4xx_hal_hcd.c ****     {
 2608              		.loc 1 878 13
 2609 03ea 052B     		cmp	r3, #5
 2610 03ec 0AD1     		bne	.L95
 880:./Libraries/STM32F4xx_HAL_Driver/Src/stm32f4xx_hal_hcd.c ****     }   
 2611              		.loc 1 880 22
 2612 03ee FA78     		ldrb	r2, [r7, #3]	@ zero_extendqisi2
 880:./Libraries/STM32F4xx_HAL_Driver/Src/stm32f4xx_hal_hcd.c ****     }   
 2613              		.loc 1 880 34
 2614 03f0 7968     		ldr	r1, [r7, #4]
 2615 03f2 1346     		mov	r3, r2
 2616 03f4 9B00     		lsls	r3, r3, #2
 2617 03f6 1344     		add	r3, r3, r2
 2618 03f8 DB00     		lsls	r3, r3, #3
 2619 03fa 0B44     		add	r3, r3, r1
 2620 03fc 5C33     		adds	r3, r3, #92
 2621 03fe 0522     		movs	r2, #5
 2622 0400 1A70     		strb	r2, [r3]
 2623 0402 61E0     		b	.L94
 2624              	.L95:
 883:./Libraries/STM32F4xx_HAL_Driver/Src/stm32f4xx_hal_hcd.c ****             (hhcd->hc[chnum].state == HC_DATATGLERR))
 2625              		.loc 1 883 29
 2626 0404 FA78     		ldrb	r2, [r7, #3]	@ zero_extendqisi2
 2627 0406 7968     		ldr	r1, [r7, #4]
 2628 0408 1346     		mov	r3, r2
 2629 040a 9B00     		lsls	r3, r3, #2
 2630 040c 1344     		add	r3, r3, r2
 2631 040e DB00     		lsls	r3, r3, #3
ARM GAS  /tmp/ccYHp8fH.s 			page 64


 2632 0410 0B44     		add	r3, r3, r1
 2633 0412 5D33     		adds	r3, r3, #93
 2634 0414 1B78     		ldrb	r3, [r3]	@ zero_extendqisi2
 883:./Libraries/STM32F4xx_HAL_Driver/Src/stm32f4xx_hal_hcd.c ****             (hhcd->hc[chnum].state == HC_DATATGLERR))
 2635              		.loc 1 883 12
 2636 0416 062B     		cmp	r3, #6
 2637 0418 0AD0     		beq	.L96
 884:./Libraries/STM32F4xx_HAL_Driver/Src/stm32f4xx_hal_hcd.c ****     {
 2638              		.loc 1 884 29 discriminator 1
 2639 041a FA78     		ldrb	r2, [r7, #3]	@ zero_extendqisi2
 2640 041c 7968     		ldr	r1, [r7, #4]
 2641 041e 1346     		mov	r3, r2
 2642 0420 9B00     		lsls	r3, r3, #2
 2643 0422 1344     		add	r3, r3, r2
 2644 0424 DB00     		lsls	r3, r3, #3
 2645 0426 0B44     		add	r3, r3, r1
 2646 0428 5D33     		adds	r3, r3, #93
 2647 042a 1B78     		ldrb	r3, [r3]	@ zero_extendqisi2
 883:./Libraries/STM32F4xx_HAL_Driver/Src/stm32f4xx_hal_hcd.c ****             (hhcd->hc[chnum].state == HC_DATATGLERR))
 2648              		.loc 1 883 51 discriminator 1
 2649 042c 082B     		cmp	r3, #8
 2650 042e 4BD1     		bne	.L94
 2651              	.L96:
 886:./Libraries/STM32F4xx_HAL_Driver/Src/stm32f4xx_hal_hcd.c ****       {      
 2652              		.loc 1 886 25
 2653 0430 FA78     		ldrb	r2, [r7, #3]	@ zero_extendqisi2
 2654 0432 7968     		ldr	r1, [r7, #4]
 2655 0434 1346     		mov	r3, r2
 2656 0436 9B00     		lsls	r3, r3, #2
 2657 0438 1344     		add	r3, r3, r2
 2658 043a DB00     		lsls	r3, r3, #3
 2659 043c 0B44     		add	r3, r3, r1
 2660 043e 5833     		adds	r3, r3, #88
 2661 0440 1968     		ldr	r1, [r3]
 886:./Libraries/STM32F4xx_HAL_Driver/Src/stm32f4xx_hal_hcd.c ****       {      
 2662              		.loc 1 886 32
 2663 0442 481C     		adds	r0, r1, #1
 2664 0444 7C68     		ldr	r4, [r7, #4]
 2665 0446 1346     		mov	r3, r2
 2666 0448 9B00     		lsls	r3, r3, #2
 2667 044a 1344     		add	r3, r3, r2
 2668 044c DB00     		lsls	r3, r3, #3
 2669 044e 2344     		add	r3, r3, r4
 2670 0450 5833     		adds	r3, r3, #88
 2671 0452 1860     		str	r0, [r3]
 886:./Libraries/STM32F4xx_HAL_Driver/Src/stm32f4xx_hal_hcd.c ****       {      
 2672              		.loc 1 886 9
 2673 0454 0329     		cmp	r1, #3
 2674 0456 14D9     		bls	.L97
 888:./Libraries/STM32F4xx_HAL_Driver/Src/stm32f4xx_hal_hcd.c ****         hhcd->hc[chnum].urb_state = URB_ERROR;
 2675              		.loc 1 888 24
 2676 0458 FA78     		ldrb	r2, [r7, #3]	@ zero_extendqisi2
 888:./Libraries/STM32F4xx_HAL_Driver/Src/stm32f4xx_hal_hcd.c ****         hhcd->hc[chnum].urb_state = URB_ERROR;
 2677              		.loc 1 888 32
 2678 045a 7968     		ldr	r1, [r7, #4]
 2679 045c 1346     		mov	r3, r2
 2680 045e 9B00     		lsls	r3, r3, #2
ARM GAS  /tmp/ccYHp8fH.s 			page 65


 2681 0460 1344     		add	r3, r3, r2
 2682 0462 DB00     		lsls	r3, r3, #3
 2683 0464 0B44     		add	r3, r3, r1
 2684 0466 5833     		adds	r3, r3, #88
 2685 0468 0022     		movs	r2, #0
 2686 046a 1A60     		str	r2, [r3]
 889:./Libraries/STM32F4xx_HAL_Driver/Src/stm32f4xx_hal_hcd.c ****       }
 2687              		.loc 1 889 24
 2688 046c FA78     		ldrb	r2, [r7, #3]	@ zero_extendqisi2
 889:./Libraries/STM32F4xx_HAL_Driver/Src/stm32f4xx_hal_hcd.c ****       }
 2689              		.loc 1 889 35
 2690 046e 7968     		ldr	r1, [r7, #4]
 2691 0470 1346     		mov	r3, r2
 2692 0472 9B00     		lsls	r3, r3, #2
 2693 0474 1344     		add	r3, r3, r2
 2694 0476 DB00     		lsls	r3, r3, #3
 2695 0478 0B44     		add	r3, r3, r1
 2696 047a 5C33     		adds	r3, r3, #92
 2697 047c 0422     		movs	r2, #4
 2698 047e 1A70     		strb	r2, [r3]
 2699 0480 09E0     		b	.L98
 2700              	.L97:
 893:./Libraries/STM32F4xx_HAL_Driver/Src/stm32f4xx_hal_hcd.c ****       }
 2701              		.loc 1 893 24
 2702 0482 FA78     		ldrb	r2, [r7, #3]	@ zero_extendqisi2
 893:./Libraries/STM32F4xx_HAL_Driver/Src/stm32f4xx_hal_hcd.c ****       }
 2703              		.loc 1 893 35
 2704 0484 7968     		ldr	r1, [r7, #4]
 2705 0486 1346     		mov	r3, r2
 2706 0488 9B00     		lsls	r3, r3, #2
 2707 048a 1344     		add	r3, r3, r2
 2708 048c DB00     		lsls	r3, r3, #3
 2709 048e 0B44     		add	r3, r3, r1
 2710 0490 5C33     		adds	r3, r3, #92
 2711 0492 0222     		movs	r2, #2
 2712 0494 1A70     		strb	r2, [r3]
 2713              	.L98:
 897:./Libraries/STM32F4xx_HAL_Driver/Src/stm32f4xx_hal_hcd.c ****       tmpreg &= ~USB_OTG_HCCHAR_CHDIS;
 2714              		.loc 1 897 16
 2715 0496 FB78     		ldrb	r3, [r7, #3]	@ zero_extendqisi2
 2716 0498 5A01     		lsls	r2, r3, #5
 2717 049a FB68     		ldr	r3, [r7, #12]
 2718 049c 1344     		add	r3, r3, r2
 2719 049e 03F5A063 		add	r3, r3, #1280
 897:./Libraries/STM32F4xx_HAL_Driver/Src/stm32f4xx_hal_hcd.c ****       tmpreg &= ~USB_OTG_HCCHAR_CHDIS;
 2720              		.loc 1 897 14
 2721 04a2 1B68     		ldr	r3, [r3]
 2722 04a4 BB60     		str	r3, [r7, #8]
 898:./Libraries/STM32F4xx_HAL_Driver/Src/stm32f4xx_hal_hcd.c ****       tmpreg |= USB_OTG_HCCHAR_CHENA;
 2723              		.loc 1 898 14
 2724 04a6 BB68     		ldr	r3, [r7, #8]
 2725 04a8 23F08043 		bic	r3, r3, #1073741824
 2726 04ac BB60     		str	r3, [r7, #8]
 899:./Libraries/STM32F4xx_HAL_Driver/Src/stm32f4xx_hal_hcd.c ****       USBx_HC(chnum)->HCCHAR = tmpreg;
 2727              		.loc 1 899 14
 2728 04ae BB68     		ldr	r3, [r7, #8]
 2729 04b0 43F00043 		orr	r3, r3, #-2147483648
ARM GAS  /tmp/ccYHp8fH.s 			page 66


 2730 04b4 BB60     		str	r3, [r7, #8]
 900:./Libraries/STM32F4xx_HAL_Driver/Src/stm32f4xx_hal_hcd.c ****     }
 2731              		.loc 1 900 7
 2732 04b6 FB78     		ldrb	r3, [r7, #3]	@ zero_extendqisi2
 2733 04b8 5A01     		lsls	r2, r3, #5
 2734 04ba FB68     		ldr	r3, [r7, #12]
 2735 04bc 1344     		add	r3, r3, r2
 2736 04be 03F5A063 		add	r3, r3, #1280
 2737 04c2 1A46     		mov	r2, r3
 900:./Libraries/STM32F4xx_HAL_Driver/Src/stm32f4xx_hal_hcd.c ****     }
 2738              		.loc 1 900 30
 2739 04c4 BB68     		ldr	r3, [r7, #8]
 2740 04c6 1360     		str	r3, [r2]
 2741              	.L94:
 902:./Libraries/STM32F4xx_HAL_Driver/Src/stm32f4xx_hal_hcd.c ****     HAL_HCD_HC_NotifyURBChange_Callback(hhcd, chnum, hhcd->hc[chnum].urb_state);
 2742              		.loc 1 902 5
 2743 04c8 FB78     		ldrb	r3, [r7, #3]	@ zero_extendqisi2
 2744 04ca 5A01     		lsls	r2, r3, #5
 2745 04cc FB68     		ldr	r3, [r7, #12]
 2746 04ce 1344     		add	r3, r3, r2
 2747 04d0 03F5A063 		add	r3, r3, #1280
 2748 04d4 1A46     		mov	r2, r3
 2749 04d6 0223     		movs	r3, #2
 2750 04d8 9360     		str	r3, [r2, #8]
 903:./Libraries/STM32F4xx_HAL_Driver/Src/stm32f4xx_hal_hcd.c ****   }  
 2751              		.loc 1 903 5
 2752 04da FA78     		ldrb	r2, [r7, #3]	@ zero_extendqisi2
 2753 04dc 7968     		ldr	r1, [r7, #4]
 2754 04de 1346     		mov	r3, r2
 2755 04e0 9B00     		lsls	r3, r3, #2
 2756 04e2 1344     		add	r3, r3, r2
 2757 04e4 DB00     		lsls	r3, r3, #3
 2758 04e6 0B44     		add	r3, r3, r1
 2759 04e8 5C33     		adds	r3, r3, #92
 2760 04ea 1A78     		ldrb	r2, [r3]	@ zero_extendqisi2
 2761 04ec FB78     		ldrb	r3, [r7, #3]	@ zero_extendqisi2
 2762 04ee 1946     		mov	r1, r3
 2763 04f0 7868     		ldr	r0, [r7, #4]
 2764 04f2 FFF7FEFF 		bl	HAL_HCD_HC_NotifyURBChange_Callback
 2765              		.loc 1 936 1
 2766 04f6 B6E0     		b	.L102
 2767              	.L92:
 906:./Libraries/STM32F4xx_HAL_Driver/Src/stm32f4xx_hal_hcd.c ****   {
 2768              		.loc 1 906 13
 2769 04f8 FB78     		ldrb	r3, [r7, #3]	@ zero_extendqisi2
 2770 04fa 5A01     		lsls	r2, r3, #5
 2771 04fc FB68     		ldr	r3, [r7, #12]
 2772 04fe 1344     		add	r3, r3, r2
 2773 0500 03F5A063 		add	r3, r3, #1280
 906:./Libraries/STM32F4xx_HAL_Driver/Src/stm32f4xx_hal_hcd.c ****   {
 2774              		.loc 1 906 27
 2775 0504 9B68     		ldr	r3, [r3, #8]
 906:./Libraries/STM32F4xx_HAL_Driver/Src/stm32f4xx_hal_hcd.c ****   {
 2776              		.loc 1 906 36
 2777 0506 03F08003 		and	r3, r3, #128
 906:./Libraries/STM32F4xx_HAL_Driver/Src/stm32f4xx_hal_hcd.c ****   {
 2778              		.loc 1 906 11
ARM GAS  /tmp/ccYHp8fH.s 			page 67


 2779 050a 002B     		cmp	r3, #0
 2780 050c 3CD0     		beq	.L99
 908:./Libraries/STM32F4xx_HAL_Driver/Src/stm32f4xx_hal_hcd.c ****     hhcd->hc[chnum].ErrCnt++;
 2781              		.loc 1 908 5
 2782 050e FB78     		ldrb	r3, [r7, #3]	@ zero_extendqisi2
 2783 0510 5A01     		lsls	r2, r3, #5
 2784 0512 FB68     		ldr	r3, [r7, #12]
 2785 0514 1344     		add	r3, r3, r2
 2786 0516 03F5A063 		add	r3, r3, #1280
 2787 051a DB68     		ldr	r3, [r3, #12]
 2788 051c FA78     		ldrb	r2, [r7, #3]	@ zero_extendqisi2
 2789 051e 5101     		lsls	r1, r2, #5
 2790 0520 FA68     		ldr	r2, [r7, #12]
 2791 0522 0A44     		add	r2, r2, r1
 2792 0524 02F5A062 		add	r2, r2, #1280
 2793 0528 43F00203 		orr	r3, r3, #2
 2794 052c D360     		str	r3, [r2, #12]
 909:./Libraries/STM32F4xx_HAL_Driver/Src/stm32f4xx_hal_hcd.c ****     hhcd->hc[chnum].state = HC_XACTERR;
 2795              		.loc 1 909 20
 2796 052e FA78     		ldrb	r2, [r7, #3]	@ zero_extendqisi2
 2797 0530 7968     		ldr	r1, [r7, #4]
 2798 0532 1346     		mov	r3, r2
 2799 0534 9B00     		lsls	r3, r3, #2
 2800 0536 1344     		add	r3, r3, r2
 2801 0538 DB00     		lsls	r3, r3, #3
 2802 053a 0B44     		add	r3, r3, r1
 2803 053c 5833     		adds	r3, r3, #88
 2804 053e 1B68     		ldr	r3, [r3]
 909:./Libraries/STM32F4xx_HAL_Driver/Src/stm32f4xx_hal_hcd.c ****     hhcd->hc[chnum].state = HC_XACTERR;
 2805              		.loc 1 909 27
 2806 0540 591C     		adds	r1, r3, #1
 2807 0542 7868     		ldr	r0, [r7, #4]
 2808 0544 1346     		mov	r3, r2
 2809 0546 9B00     		lsls	r3, r3, #2
 2810 0548 1344     		add	r3, r3, r2
 2811 054a DB00     		lsls	r3, r3, #3
 2812 054c 0344     		add	r3, r3, r0
 2813 054e 5833     		adds	r3, r3, #88
 2814 0550 1960     		str	r1, [r3]
 910:./Libraries/STM32F4xx_HAL_Driver/Src/stm32f4xx_hal_hcd.c ****     USB_HC_Halt(hhcd->Instance, chnum);     
 2815              		.loc 1 910 20
 2816 0552 FA78     		ldrb	r2, [r7, #3]	@ zero_extendqisi2
 910:./Libraries/STM32F4xx_HAL_Driver/Src/stm32f4xx_hal_hcd.c ****     USB_HC_Halt(hhcd->Instance, chnum);     
 2817              		.loc 1 910 27
 2818 0554 7968     		ldr	r1, [r7, #4]
 2819 0556 1346     		mov	r3, r2
 2820 0558 9B00     		lsls	r3, r3, #2
 2821 055a 1344     		add	r3, r3, r2
 2822 055c DB00     		lsls	r3, r3, #3
 2823 055e 0B44     		add	r3, r3, r1
 2824 0560 5D33     		adds	r3, r3, #93
 2825 0562 0622     		movs	r2, #6
 2826 0564 1A70     		strb	r2, [r3]
 911:./Libraries/STM32F4xx_HAL_Driver/Src/stm32f4xx_hal_hcd.c ****     __HAL_HCD_CLEAR_HC_INT(chnum, USB_OTG_HCINT_TXERR);
 2827              		.loc 1 911 21
 2828 0566 7B68     		ldr	r3, [r7, #4]
 2829 0568 1B68     		ldr	r3, [r3]
ARM GAS  /tmp/ccYHp8fH.s 			page 68


 911:./Libraries/STM32F4xx_HAL_Driver/Src/stm32f4xx_hal_hcd.c ****     __HAL_HCD_CLEAR_HC_INT(chnum, USB_OTG_HCINT_TXERR);
 2830              		.loc 1 911 5
 2831 056a FA78     		ldrb	r2, [r7, #3]	@ zero_extendqisi2
 2832 056c 1146     		mov	r1, r2
 2833 056e 1846     		mov	r0, r3
 2834 0570 FFF7FEFF 		bl	USB_HC_Halt
 912:./Libraries/STM32F4xx_HAL_Driver/Src/stm32f4xx_hal_hcd.c ****   }
 2835              		.loc 1 912 5
 2836 0574 FB78     		ldrb	r3, [r7, #3]	@ zero_extendqisi2
 2837 0576 5A01     		lsls	r2, r3, #5
 2838 0578 FB68     		ldr	r3, [r7, #12]
 2839 057a 1344     		add	r3, r3, r2
 2840 057c 03F5A063 		add	r3, r3, #1280
 2841 0580 1A46     		mov	r2, r3
 2842 0582 8023     		movs	r3, #128
 2843 0584 9360     		str	r3, [r2, #8]
 2844              		.loc 1 936 1
 2845 0586 6EE0     		b	.L102
 2846              	.L99:
 914:./Libraries/STM32F4xx_HAL_Driver/Src/stm32f4xx_hal_hcd.c ****   {  
 2847              		.loc 1 914 13
 2848 0588 FB78     		ldrb	r3, [r7, #3]	@ zero_extendqisi2
 2849 058a 5A01     		lsls	r2, r3, #5
 2850 058c FB68     		ldr	r3, [r7, #12]
 2851 058e 1344     		add	r3, r3, r2
 2852 0590 03F5A063 		add	r3, r3, #1280
 914:./Libraries/STM32F4xx_HAL_Driver/Src/stm32f4xx_hal_hcd.c ****   {  
 2853              		.loc 1 914 27
 2854 0594 9B68     		ldr	r3, [r3, #8]
 914:./Libraries/STM32F4xx_HAL_Driver/Src/stm32f4xx_hal_hcd.c ****   {  
 2855              		.loc 1 914 36
 2856 0596 03F01003 		and	r3, r3, #16
 914:./Libraries/STM32F4xx_HAL_Driver/Src/stm32f4xx_hal_hcd.c ****   {  
 2857              		.loc 1 914 11
 2858 059a 002B     		cmp	r3, #0
 2859 059c 63D0     		beq	.L102
 916:./Libraries/STM32F4xx_HAL_Driver/Src/stm32f4xx_hal_hcd.c ****     {
 2860              		.loc 1 916 23
 2861 059e FA78     		ldrb	r2, [r7, #3]	@ zero_extendqisi2
 2862 05a0 7968     		ldr	r1, [r7, #4]
 2863 05a2 1346     		mov	r3, r2
 2864 05a4 9B00     		lsls	r3, r3, #2
 2865 05a6 1344     		add	r3, r3, r2
 2866 05a8 DB00     		lsls	r3, r3, #3
 2867 05aa 0B44     		add	r3, r3, r1
 2868 05ac 3F33     		adds	r3, r3, #63
 2869 05ae 1B78     		ldrb	r3, [r3]	@ zero_extendqisi2
 916:./Libraries/STM32F4xx_HAL_Driver/Src/stm32f4xx_hal_hcd.c ****     {
 2870              		.loc 1 916 7
 2871 05b0 032B     		cmp	r3, #3
 2872 05b2 16D1     		bne	.L100
 918:./Libraries/STM32F4xx_HAL_Driver/Src/stm32f4xx_hal_hcd.c ****       USB_HC_Halt(hhcd->Instance, chnum);  
 2873              		.loc 1 918 7
 2874 05b4 FB78     		ldrb	r3, [r7, #3]	@ zero_extendqisi2
 2875 05b6 5A01     		lsls	r2, r3, #5
 2876 05b8 FB68     		ldr	r3, [r7, #12]
 2877 05ba 1344     		add	r3, r3, r2
ARM GAS  /tmp/ccYHp8fH.s 			page 69


 2878 05bc 03F5A063 		add	r3, r3, #1280
 2879 05c0 DB68     		ldr	r3, [r3, #12]
 2880 05c2 FA78     		ldrb	r2, [r7, #3]	@ zero_extendqisi2
 2881 05c4 5101     		lsls	r1, r2, #5
 2882 05c6 FA68     		ldr	r2, [r7, #12]
 2883 05c8 0A44     		add	r2, r2, r1
 2884 05ca 02F5A062 		add	r2, r2, #1280
 2885 05ce 43F00203 		orr	r3, r3, #2
 2886 05d2 D360     		str	r3, [r2, #12]
 919:./Libraries/STM32F4xx_HAL_Driver/Src/stm32f4xx_hal_hcd.c ****     }
 2887              		.loc 1 919 23
 2888 05d4 7B68     		ldr	r3, [r7, #4]
 2889 05d6 1B68     		ldr	r3, [r3]
 919:./Libraries/STM32F4xx_HAL_Driver/Src/stm32f4xx_hal_hcd.c ****     }
 2890              		.loc 1 919 7
 2891 05d8 FA78     		ldrb	r2, [r7, #3]	@ zero_extendqisi2
 2892 05da 1146     		mov	r1, r2
 2893 05dc 1846     		mov	r0, r3
 2894 05de FFF7FEFF 		bl	USB_HC_Halt
 2895              	.L100:
 923:./Libraries/STM32F4xx_HAL_Driver/Src/stm32f4xx_hal_hcd.c ****     __HAL_HCD_CLEAR_HC_INT(chnum, USB_OTG_HCINT_NAK);
 2896              		.loc 1 923 20
 2897 05e2 FA78     		ldrb	r2, [r7, #3]	@ zero_extendqisi2
 923:./Libraries/STM32F4xx_HAL_Driver/Src/stm32f4xx_hal_hcd.c ****     __HAL_HCD_CLEAR_HC_INT(chnum, USB_OTG_HCINT_NAK);
 2898              		.loc 1 923 27
 2899 05e4 7968     		ldr	r1, [r7, #4]
 2900 05e6 1346     		mov	r3, r2
 2901 05e8 9B00     		lsls	r3, r3, #2
 2902 05ea 1344     		add	r3, r3, r2
 2903 05ec DB00     		lsls	r3, r3, #3
 2904 05ee 0B44     		add	r3, r3, r1
 2905 05f0 5D33     		adds	r3, r3, #93
 2906 05f2 0322     		movs	r2, #3
 2907 05f4 1A70     		strb	r2, [r3]
 924:./Libraries/STM32F4xx_HAL_Driver/Src/stm32f4xx_hal_hcd.c ****     
 2908              		.loc 1 924 5
 2909 05f6 FB78     		ldrb	r3, [r7, #3]	@ zero_extendqisi2
 2910 05f8 5A01     		lsls	r2, r3, #5
 2911 05fa FB68     		ldr	r3, [r7, #12]
 2912 05fc 1344     		add	r3, r3, r2
 2913 05fe 03F5A063 		add	r3, r3, #1280
 2914 0602 1A46     		mov	r2, r3
 2915 0604 1023     		movs	r3, #16
 2916 0606 9360     		str	r3, [r2, #8]
 926:./Libraries/STM32F4xx_HAL_Driver/Src/stm32f4xx_hal_hcd.c ****               (hhcd->hc[chnum].ep_type == EP_TYPE_BULK))
 2917              		.loc 1 926 26
 2918 0608 FA78     		ldrb	r2, [r7, #3]	@ zero_extendqisi2
 2919 060a 7968     		ldr	r1, [r7, #4]
 2920 060c 1346     		mov	r3, r2
 2921 060e 9B00     		lsls	r3, r3, #2
 2922 0610 1344     		add	r3, r3, r2
 2923 0612 DB00     		lsls	r3, r3, #3
 2924 0614 0B44     		add	r3, r3, r1
 2925 0616 3F33     		adds	r3, r3, #63
 2926 0618 1B78     		ldrb	r3, [r3]	@ zero_extendqisi2
 926:./Libraries/STM32F4xx_HAL_Driver/Src/stm32f4xx_hal_hcd.c ****               (hhcd->hc[chnum].ep_type == EP_TYPE_BULK))
 2927              		.loc 1 926 9
ARM GAS  /tmp/ccYHp8fH.s 			page 70


 2928 061a 002B     		cmp	r3, #0
 2929 061c 0AD0     		beq	.L101
 927:./Libraries/STM32F4xx_HAL_Driver/Src/stm32f4xx_hal_hcd.c ****     {
 2930              		.loc 1 927 31 discriminator 1
 2931 061e FA78     		ldrb	r2, [r7, #3]	@ zero_extendqisi2
 2932 0620 7968     		ldr	r1, [r7, #4]
 2933 0622 1346     		mov	r3, r2
 2934 0624 9B00     		lsls	r3, r3, #2
 2935 0626 1344     		add	r3, r3, r2
 2936 0628 DB00     		lsls	r3, r3, #3
 2937 062a 0B44     		add	r3, r3, r1
 2938 062c 3F33     		adds	r3, r3, #63
 2939 062e 1B78     		ldrb	r3, [r3]	@ zero_extendqisi2
 926:./Libraries/STM32F4xx_HAL_Driver/Src/stm32f4xx_hal_hcd.c ****               (hhcd->hc[chnum].ep_type == EP_TYPE_BULK))
 2940              		.loc 1 926 51 discriminator 1
 2941 0630 022B     		cmp	r3, #2
 2942 0632 18D1     		bne	.L102
 2943              	.L101:
 930:./Libraries/STM32F4xx_HAL_Driver/Src/stm32f4xx_hal_hcd.c ****       tmpreg &= ~USB_OTG_HCCHAR_CHDIS;
 2944              		.loc 1 930 16
 2945 0634 FB78     		ldrb	r3, [r7, #3]	@ zero_extendqisi2
 2946 0636 5A01     		lsls	r2, r3, #5
 2947 0638 FB68     		ldr	r3, [r7, #12]
 2948 063a 1344     		add	r3, r3, r2
 2949 063c 03F5A063 		add	r3, r3, #1280
 930:./Libraries/STM32F4xx_HAL_Driver/Src/stm32f4xx_hal_hcd.c ****       tmpreg &= ~USB_OTG_HCCHAR_CHDIS;
 2950              		.loc 1 930 14
 2951 0640 1B68     		ldr	r3, [r3]
 2952 0642 BB60     		str	r3, [r7, #8]
 931:./Libraries/STM32F4xx_HAL_Driver/Src/stm32f4xx_hal_hcd.c ****       tmpreg |= USB_OTG_HCCHAR_CHENA;
 2953              		.loc 1 931 14
 2954 0644 BB68     		ldr	r3, [r7, #8]
 2955 0646 23F08043 		bic	r3, r3, #1073741824
 2956 064a BB60     		str	r3, [r7, #8]
 932:./Libraries/STM32F4xx_HAL_Driver/Src/stm32f4xx_hal_hcd.c ****       USBx_HC(chnum)->HCCHAR = tmpreg;
 2957              		.loc 1 932 14
 2958 064c BB68     		ldr	r3, [r7, #8]
 2959 064e 43F00043 		orr	r3, r3, #-2147483648
 2960 0652 BB60     		str	r3, [r7, #8]
 933:./Libraries/STM32F4xx_HAL_Driver/Src/stm32f4xx_hal_hcd.c ****     }
 2961              		.loc 1 933 7
 2962 0654 FB78     		ldrb	r3, [r7, #3]	@ zero_extendqisi2
 2963 0656 5A01     		lsls	r2, r3, #5
 2964 0658 FB68     		ldr	r3, [r7, #12]
 2965 065a 1344     		add	r3, r3, r2
 2966 065c 03F5A063 		add	r3, r3, #1280
 2967 0660 1A46     		mov	r2, r3
 933:./Libraries/STM32F4xx_HAL_Driver/Src/stm32f4xx_hal_hcd.c ****     }
 2968              		.loc 1 933 30
 2969 0662 BB68     		ldr	r3, [r7, #8]
 2970 0664 1360     		str	r3, [r2]
 2971              	.L102:
 2972              		.loc 1 936 1
 2973 0666 00BF     		nop
 2974 0668 1437     		adds	r7, r7, #20
 2975              	.LCFI118:
 2976              		.cfi_def_cfa_offset 12
ARM GAS  /tmp/ccYHp8fH.s 			page 71


 2977 066a BD46     		mov	sp, r7
 2978              	.LCFI119:
 2979              		.cfi_def_cfa_register 13
 2980              		@ sp needed
 2981 066c 90BD     		pop	{r4, r7, pc}
 2982              		.cfi_endproc
 2983              	.LFE147:
 2985              		.section	.text.HCD_HC_OUT_IRQHandler,"ax",%progbits
 2986              		.align	1
 2987              		.syntax unified
 2988              		.thumb
 2989              		.thumb_func
 2990              		.fpu fpv4-sp-d16
 2992              	HCD_HC_OUT_IRQHandler:
 2993              	.LFB148:
 937:./Libraries/STM32F4xx_HAL_Driver/Src/stm32f4xx_hal_hcd.c **** 
 938:./Libraries/STM32F4xx_HAL_Driver/Src/stm32f4xx_hal_hcd.c **** /**
 939:./Libraries/STM32F4xx_HAL_Driver/Src/stm32f4xx_hal_hcd.c ****   * @brief  Handle Host Channel OUT interrupt requests.
 940:./Libraries/STM32F4xx_HAL_Driver/Src/stm32f4xx_hal_hcd.c ****   * @param  hhcd HCD handle
 941:./Libraries/STM32F4xx_HAL_Driver/Src/stm32f4xx_hal_hcd.c ****   * @param  chnum Channel number.
 942:./Libraries/STM32F4xx_HAL_Driver/Src/stm32f4xx_hal_hcd.c ****   *         This parameter can be a value from 1 to 15
 943:./Libraries/STM32F4xx_HAL_Driver/Src/stm32f4xx_hal_hcd.c ****   * @retval None
 944:./Libraries/STM32F4xx_HAL_Driver/Src/stm32f4xx_hal_hcd.c ****   */
 945:./Libraries/STM32F4xx_HAL_Driver/Src/stm32f4xx_hal_hcd.c **** static void HCD_HC_OUT_IRQHandler  (HCD_HandleTypeDef *hhcd, uint8_t chnum)
 946:./Libraries/STM32F4xx_HAL_Driver/Src/stm32f4xx_hal_hcd.c **** {
 2994              		.loc 1 946 1
 2995              		.cfi_startproc
 2996              		@ args = 0, pretend = 0, frame = 16
 2997              		@ frame_needed = 1, uses_anonymous_args = 0
 2998 0000 90B5     		push	{r4, r7, lr}
 2999              	.LCFI120:
 3000              		.cfi_def_cfa_offset 12
 3001              		.cfi_offset 4, -12
 3002              		.cfi_offset 7, -8
 3003              		.cfi_offset 14, -4
 3004 0002 85B0     		sub	sp, sp, #20
 3005              	.LCFI121:
 3006              		.cfi_def_cfa_offset 32
 3007 0004 00AF     		add	r7, sp, #0
 3008              	.LCFI122:
 3009              		.cfi_def_cfa_register 7
 3010 0006 7860     		str	r0, [r7, #4]
 3011 0008 0B46     		mov	r3, r1
 3012 000a FB70     		strb	r3, [r7, #3]
 947:./Libraries/STM32F4xx_HAL_Driver/Src/stm32f4xx_hal_hcd.c ****   USB_OTG_GlobalTypeDef *USBx = hhcd->Instance;
 3013              		.loc 1 947 26
 3014 000c 7B68     		ldr	r3, [r7, #4]
 3015 000e 1B68     		ldr	r3, [r3]
 3016 0010 FB60     		str	r3, [r7, #12]
 948:./Libraries/STM32F4xx_HAL_Driver/Src/stm32f4xx_hal_hcd.c ****   
 949:./Libraries/STM32F4xx_HAL_Driver/Src/stm32f4xx_hal_hcd.c ****   if ((USBx_HC(chnum)->HCINT) &  USB_OTG_HCINT_AHBERR)
 3017              		.loc 1 949 8
 3018 0012 FB78     		ldrb	r3, [r7, #3]	@ zero_extendqisi2
 3019 0014 5A01     		lsls	r2, r3, #5
 3020 0016 FB68     		ldr	r3, [r7, #12]
 3021 0018 1344     		add	r3, r3, r2
 3022 001a 03F5A063 		add	r3, r3, #1280
ARM GAS  /tmp/ccYHp8fH.s 			page 72


 3023              		.loc 1 949 22
 3024 001e 9B68     		ldr	r3, [r3, #8]
 3025              		.loc 1 949 31
 3026 0020 03F00403 		and	r3, r3, #4
 3027              		.loc 1 949 6
 3028 0024 002B     		cmp	r3, #0
 3029 0026 19D0     		beq	.L104
 950:./Libraries/STM32F4xx_HAL_Driver/Src/stm32f4xx_hal_hcd.c ****   {
 951:./Libraries/STM32F4xx_HAL_Driver/Src/stm32f4xx_hal_hcd.c ****     __HAL_HCD_CLEAR_HC_INT(chnum, USB_OTG_HCINT_AHBERR);
 3030              		.loc 1 951 5
 3031 0028 FB78     		ldrb	r3, [r7, #3]	@ zero_extendqisi2
 3032 002a 5A01     		lsls	r2, r3, #5
 3033 002c FB68     		ldr	r3, [r7, #12]
 3034 002e 1344     		add	r3, r3, r2
 3035 0030 03F5A063 		add	r3, r3, #1280
 3036 0034 1A46     		mov	r2, r3
 3037 0036 0423     		movs	r3, #4
 3038 0038 9360     		str	r3, [r2, #8]
 952:./Libraries/STM32F4xx_HAL_Driver/Src/stm32f4xx_hal_hcd.c ****     __HAL_HCD_UNMASK_HALT_HC_INT(chnum);
 3039              		.loc 1 952 5
 3040 003a FB78     		ldrb	r3, [r7, #3]	@ zero_extendqisi2
 3041 003c 5A01     		lsls	r2, r3, #5
 3042 003e FB68     		ldr	r3, [r7, #12]
 3043 0040 1344     		add	r3, r3, r2
 3044 0042 03F5A063 		add	r3, r3, #1280
 3045 0046 DB68     		ldr	r3, [r3, #12]
 3046 0048 FA78     		ldrb	r2, [r7, #3]	@ zero_extendqisi2
 3047 004a 5101     		lsls	r1, r2, #5
 3048 004c FA68     		ldr	r2, [r7, #12]
 3049 004e 0A44     		add	r2, r2, r1
 3050 0050 02F5A062 		add	r2, r2, #1280
 3051 0054 43F00203 		orr	r3, r3, #2
 3052 0058 D360     		str	r3, [r2, #12]
 953:./Libraries/STM32F4xx_HAL_Driver/Src/stm32f4xx_hal_hcd.c ****   }  
 954:./Libraries/STM32F4xx_HAL_Driver/Src/stm32f4xx_hal_hcd.c ****   else if ((USBx_HC(chnum)->HCINT) &  USB_OTG_HCINT_ACK)
 955:./Libraries/STM32F4xx_HAL_Driver/Src/stm32f4xx_hal_hcd.c ****   {
 956:./Libraries/STM32F4xx_HAL_Driver/Src/stm32f4xx_hal_hcd.c ****     __HAL_HCD_CLEAR_HC_INT(chnum, USB_OTG_HCINT_ACK);
 957:./Libraries/STM32F4xx_HAL_Driver/Src/stm32f4xx_hal_hcd.c ****     
 958:./Libraries/STM32F4xx_HAL_Driver/Src/stm32f4xx_hal_hcd.c ****     if( hhcd->hc[chnum].do_ping == 1U)
 959:./Libraries/STM32F4xx_HAL_Driver/Src/stm32f4xx_hal_hcd.c ****     {
 960:./Libraries/STM32F4xx_HAL_Driver/Src/stm32f4xx_hal_hcd.c ****       hhcd->hc[chnum].state = HC_NYET;     
 961:./Libraries/STM32F4xx_HAL_Driver/Src/stm32f4xx_hal_hcd.c ****       __HAL_HCD_UNMASK_HALT_HC_INT(chnum); 
 962:./Libraries/STM32F4xx_HAL_Driver/Src/stm32f4xx_hal_hcd.c ****       USB_HC_Halt(hhcd->Instance, chnum); 
 963:./Libraries/STM32F4xx_HAL_Driver/Src/stm32f4xx_hal_hcd.c ****       hhcd->hc[chnum].urb_state  = URB_NOTREADY;
 964:./Libraries/STM32F4xx_HAL_Driver/Src/stm32f4xx_hal_hcd.c ****     }
 965:./Libraries/STM32F4xx_HAL_Driver/Src/stm32f4xx_hal_hcd.c ****   }
 966:./Libraries/STM32F4xx_HAL_Driver/Src/stm32f4xx_hal_hcd.c ****   
 967:./Libraries/STM32F4xx_HAL_Driver/Src/stm32f4xx_hal_hcd.c ****   else if ((USBx_HC(chnum)->HCINT) &  USB_OTG_HCINT_NYET)
 968:./Libraries/STM32F4xx_HAL_Driver/Src/stm32f4xx_hal_hcd.c ****   {
 969:./Libraries/STM32F4xx_HAL_Driver/Src/stm32f4xx_hal_hcd.c ****     hhcd->hc[chnum].state = HC_NYET;
 970:./Libraries/STM32F4xx_HAL_Driver/Src/stm32f4xx_hal_hcd.c ****     hhcd->hc[chnum].ErrCnt= 0U;    
 971:./Libraries/STM32F4xx_HAL_Driver/Src/stm32f4xx_hal_hcd.c ****     __HAL_HCD_UNMASK_HALT_HC_INT(chnum); 
 972:./Libraries/STM32F4xx_HAL_Driver/Src/stm32f4xx_hal_hcd.c ****     USB_HC_Halt(hhcd->Instance, chnum);      
 973:./Libraries/STM32F4xx_HAL_Driver/Src/stm32f4xx_hal_hcd.c ****     __HAL_HCD_CLEAR_HC_INT(chnum, USB_OTG_HCINT_NYET);
 974:./Libraries/STM32F4xx_HAL_Driver/Src/stm32f4xx_hal_hcd.c ****     
 975:./Libraries/STM32F4xx_HAL_Driver/Src/stm32f4xx_hal_hcd.c ****   }  
 976:./Libraries/STM32F4xx_HAL_Driver/Src/stm32f4xx_hal_hcd.c ****   
ARM GAS  /tmp/ccYHp8fH.s 			page 73


 977:./Libraries/STM32F4xx_HAL_Driver/Src/stm32f4xx_hal_hcd.c ****   else if ((USBx_HC(chnum)->HCINT) &  USB_OTG_HCINT_FRMOR)
 978:./Libraries/STM32F4xx_HAL_Driver/Src/stm32f4xx_hal_hcd.c ****   {
 979:./Libraries/STM32F4xx_HAL_Driver/Src/stm32f4xx_hal_hcd.c ****     __HAL_HCD_UNMASK_HALT_HC_INT(chnum); 
 980:./Libraries/STM32F4xx_HAL_Driver/Src/stm32f4xx_hal_hcd.c ****     USB_HC_Halt(hhcd->Instance, chnum);  
 981:./Libraries/STM32F4xx_HAL_Driver/Src/stm32f4xx_hal_hcd.c ****     __HAL_HCD_CLEAR_HC_INT(chnum, USB_OTG_HCINT_FRMOR);
 982:./Libraries/STM32F4xx_HAL_Driver/Src/stm32f4xx_hal_hcd.c ****   }
 983:./Libraries/STM32F4xx_HAL_Driver/Src/stm32f4xx_hal_hcd.c ****   
 984:./Libraries/STM32F4xx_HAL_Driver/Src/stm32f4xx_hal_hcd.c ****   else if ((USBx_HC(chnum)->HCINT) &  USB_OTG_HCINT_XFRC)
 985:./Libraries/STM32F4xx_HAL_Driver/Src/stm32f4xx_hal_hcd.c ****   {
 986:./Libraries/STM32F4xx_HAL_Driver/Src/stm32f4xx_hal_hcd.c ****       hhcd->hc[chnum].ErrCnt = 0U;  
 987:./Libraries/STM32F4xx_HAL_Driver/Src/stm32f4xx_hal_hcd.c ****     __HAL_HCD_UNMASK_HALT_HC_INT(chnum);
 988:./Libraries/STM32F4xx_HAL_Driver/Src/stm32f4xx_hal_hcd.c ****     USB_HC_Halt(hhcd->Instance, chnum);   
 989:./Libraries/STM32F4xx_HAL_Driver/Src/stm32f4xx_hal_hcd.c ****     __HAL_HCD_CLEAR_HC_INT(chnum, USB_OTG_HCINT_XFRC);
 990:./Libraries/STM32F4xx_HAL_Driver/Src/stm32f4xx_hal_hcd.c ****     hhcd->hc[chnum].state = HC_XFRC;
 991:./Libraries/STM32F4xx_HAL_Driver/Src/stm32f4xx_hal_hcd.c **** 
 992:./Libraries/STM32F4xx_HAL_Driver/Src/stm32f4xx_hal_hcd.c ****   }  
 993:./Libraries/STM32F4xx_HAL_Driver/Src/stm32f4xx_hal_hcd.c **** 
 994:./Libraries/STM32F4xx_HAL_Driver/Src/stm32f4xx_hal_hcd.c ****   else if ((USBx_HC(chnum)->HCINT) &  USB_OTG_HCINT_STALL)  
 995:./Libraries/STM32F4xx_HAL_Driver/Src/stm32f4xx_hal_hcd.c ****   {
 996:./Libraries/STM32F4xx_HAL_Driver/Src/stm32f4xx_hal_hcd.c ****     __HAL_HCD_CLEAR_HC_INT(chnum, USB_OTG_HCINT_STALL);  
 997:./Libraries/STM32F4xx_HAL_Driver/Src/stm32f4xx_hal_hcd.c ****     __HAL_HCD_UNMASK_HALT_HC_INT(chnum);
 998:./Libraries/STM32F4xx_HAL_Driver/Src/stm32f4xx_hal_hcd.c ****     USB_HC_Halt(hhcd->Instance, chnum);   
 999:./Libraries/STM32F4xx_HAL_Driver/Src/stm32f4xx_hal_hcd.c ****     hhcd->hc[chnum].state = HC_STALL;    
1000:./Libraries/STM32F4xx_HAL_Driver/Src/stm32f4xx_hal_hcd.c ****   }
1001:./Libraries/STM32F4xx_HAL_Driver/Src/stm32f4xx_hal_hcd.c **** 
1002:./Libraries/STM32F4xx_HAL_Driver/Src/stm32f4xx_hal_hcd.c ****   else if ((USBx_HC(chnum)->HCINT) &  USB_OTG_HCINT_NAK)
1003:./Libraries/STM32F4xx_HAL_Driver/Src/stm32f4xx_hal_hcd.c ****   {  
1004:./Libraries/STM32F4xx_HAL_Driver/Src/stm32f4xx_hal_hcd.c ****     hhcd->hc[chnum].ErrCnt = 0U;  
1005:./Libraries/STM32F4xx_HAL_Driver/Src/stm32f4xx_hal_hcd.c ****     __HAL_HCD_UNMASK_HALT_HC_INT(chnum); 
1006:./Libraries/STM32F4xx_HAL_Driver/Src/stm32f4xx_hal_hcd.c ****     USB_HC_Halt(hhcd->Instance, chnum);   
1007:./Libraries/STM32F4xx_HAL_Driver/Src/stm32f4xx_hal_hcd.c ****     hhcd->hc[chnum].state = HC_NAK;
1008:./Libraries/STM32F4xx_HAL_Driver/Src/stm32f4xx_hal_hcd.c ****     __HAL_HCD_CLEAR_HC_INT(chnum, USB_OTG_HCINT_NAK);
1009:./Libraries/STM32F4xx_HAL_Driver/Src/stm32f4xx_hal_hcd.c ****   }
1010:./Libraries/STM32F4xx_HAL_Driver/Src/stm32f4xx_hal_hcd.c **** 
1011:./Libraries/STM32F4xx_HAL_Driver/Src/stm32f4xx_hal_hcd.c ****   else if ((USBx_HC(chnum)->HCINT) &  USB_OTG_HCINT_TXERR)
1012:./Libraries/STM32F4xx_HAL_Driver/Src/stm32f4xx_hal_hcd.c ****   {
1013:./Libraries/STM32F4xx_HAL_Driver/Src/stm32f4xx_hal_hcd.c ****     __HAL_HCD_UNMASK_HALT_HC_INT(chnum); 
1014:./Libraries/STM32F4xx_HAL_Driver/Src/stm32f4xx_hal_hcd.c ****     USB_HC_Halt(hhcd->Instance, chnum);      
1015:./Libraries/STM32F4xx_HAL_Driver/Src/stm32f4xx_hal_hcd.c ****     hhcd->hc[chnum].state = HC_XACTERR;  
1016:./Libraries/STM32F4xx_HAL_Driver/Src/stm32f4xx_hal_hcd.c ****      __HAL_HCD_CLEAR_HC_INT(chnum, USB_OTG_HCINT_TXERR);
1017:./Libraries/STM32F4xx_HAL_Driver/Src/stm32f4xx_hal_hcd.c ****   }
1018:./Libraries/STM32F4xx_HAL_Driver/Src/stm32f4xx_hal_hcd.c ****   
1019:./Libraries/STM32F4xx_HAL_Driver/Src/stm32f4xx_hal_hcd.c ****   else if ((USBx_HC(chnum)->HCINT) &  USB_OTG_HCINT_DTERR)
1020:./Libraries/STM32F4xx_HAL_Driver/Src/stm32f4xx_hal_hcd.c ****   {
1021:./Libraries/STM32F4xx_HAL_Driver/Src/stm32f4xx_hal_hcd.c ****     __HAL_HCD_UNMASK_HALT_HC_INT(chnum); 
1022:./Libraries/STM32F4xx_HAL_Driver/Src/stm32f4xx_hal_hcd.c ****     USB_HC_Halt(hhcd->Instance, chnum);      
1023:./Libraries/STM32F4xx_HAL_Driver/Src/stm32f4xx_hal_hcd.c ****     __HAL_HCD_CLEAR_HC_INT(chnum, USB_OTG_HCINT_NAK);
1024:./Libraries/STM32F4xx_HAL_Driver/Src/stm32f4xx_hal_hcd.c ****     __HAL_HCD_CLEAR_HC_INT(chnum, USB_OTG_HCINT_DTERR);    
1025:./Libraries/STM32F4xx_HAL_Driver/Src/stm32f4xx_hal_hcd.c ****     hhcd->hc[chnum].state = HC_DATATGLERR;
1026:./Libraries/STM32F4xx_HAL_Driver/Src/stm32f4xx_hal_hcd.c ****   }
1027:./Libraries/STM32F4xx_HAL_Driver/Src/stm32f4xx_hal_hcd.c ****   
1028:./Libraries/STM32F4xx_HAL_Driver/Src/stm32f4xx_hal_hcd.c ****   
1029:./Libraries/STM32F4xx_HAL_Driver/Src/stm32f4xx_hal_hcd.c ****   else if ((USBx_HC(chnum)->HCINT) &  USB_OTG_HCINT_CHH)
1030:./Libraries/STM32F4xx_HAL_Driver/Src/stm32f4xx_hal_hcd.c ****   {
1031:./Libraries/STM32F4xx_HAL_Driver/Src/stm32f4xx_hal_hcd.c ****     __HAL_HCD_MASK_HALT_HC_INT(chnum); 
1032:./Libraries/STM32F4xx_HAL_Driver/Src/stm32f4xx_hal_hcd.c ****     
1033:./Libraries/STM32F4xx_HAL_Driver/Src/stm32f4xx_hal_hcd.c ****     if(hhcd->hc[chnum].state == HC_XFRC)
ARM GAS  /tmp/ccYHp8fH.s 			page 74


1034:./Libraries/STM32F4xx_HAL_Driver/Src/stm32f4xx_hal_hcd.c ****     {
1035:./Libraries/STM32F4xx_HAL_Driver/Src/stm32f4xx_hal_hcd.c ****       hhcd->hc[chnum].urb_state  = URB_DONE;
1036:./Libraries/STM32F4xx_HAL_Driver/Src/stm32f4xx_hal_hcd.c ****       if (hhcd->hc[chnum].ep_type == EP_TYPE_BULK)
1037:./Libraries/STM32F4xx_HAL_Driver/Src/stm32f4xx_hal_hcd.c ****       {
1038:./Libraries/STM32F4xx_HAL_Driver/Src/stm32f4xx_hal_hcd.c ****         hhcd->hc[chnum].toggle_out ^= 1U; 
1039:./Libraries/STM32F4xx_HAL_Driver/Src/stm32f4xx_hal_hcd.c ****       }      
1040:./Libraries/STM32F4xx_HAL_Driver/Src/stm32f4xx_hal_hcd.c ****     }
1041:./Libraries/STM32F4xx_HAL_Driver/Src/stm32f4xx_hal_hcd.c ****     else if (hhcd->hc[chnum].state == HC_NAK) 
1042:./Libraries/STM32F4xx_HAL_Driver/Src/stm32f4xx_hal_hcd.c ****     {
1043:./Libraries/STM32F4xx_HAL_Driver/Src/stm32f4xx_hal_hcd.c ****       hhcd->hc[chnum].urb_state  = URB_NOTREADY;
1044:./Libraries/STM32F4xx_HAL_Driver/Src/stm32f4xx_hal_hcd.c ****     }  
1045:./Libraries/STM32F4xx_HAL_Driver/Src/stm32f4xx_hal_hcd.c ****     
1046:./Libraries/STM32F4xx_HAL_Driver/Src/stm32f4xx_hal_hcd.c ****     else if (hhcd->hc[chnum].state == HC_NYET) 
1047:./Libraries/STM32F4xx_HAL_Driver/Src/stm32f4xx_hal_hcd.c ****     {
1048:./Libraries/STM32F4xx_HAL_Driver/Src/stm32f4xx_hal_hcd.c ****       hhcd->hc[chnum].urb_state  = URB_NOTREADY;
1049:./Libraries/STM32F4xx_HAL_Driver/Src/stm32f4xx_hal_hcd.c ****       hhcd->hc[chnum].do_ping = 0U;
1050:./Libraries/STM32F4xx_HAL_Driver/Src/stm32f4xx_hal_hcd.c ****     }   
1051:./Libraries/STM32F4xx_HAL_Driver/Src/stm32f4xx_hal_hcd.c ****     
1052:./Libraries/STM32F4xx_HAL_Driver/Src/stm32f4xx_hal_hcd.c ****     else if (hhcd->hc[chnum].state == HC_STALL) 
1053:./Libraries/STM32F4xx_HAL_Driver/Src/stm32f4xx_hal_hcd.c ****     {
1054:./Libraries/STM32F4xx_HAL_Driver/Src/stm32f4xx_hal_hcd.c ****       hhcd->hc[chnum].urb_state  = URB_STALL;
1055:./Libraries/STM32F4xx_HAL_Driver/Src/stm32f4xx_hal_hcd.c ****     } 
1056:./Libraries/STM32F4xx_HAL_Driver/Src/stm32f4xx_hal_hcd.c ****     
1057:./Libraries/STM32F4xx_HAL_Driver/Src/stm32f4xx_hal_hcd.c ****     else if((hhcd->hc[chnum].state == HC_XACTERR) ||
1058:./Libraries/STM32F4xx_HAL_Driver/Src/stm32f4xx_hal_hcd.c ****             (hhcd->hc[chnum].state == HC_DATATGLERR))
1059:./Libraries/STM32F4xx_HAL_Driver/Src/stm32f4xx_hal_hcd.c ****     {
1060:./Libraries/STM32F4xx_HAL_Driver/Src/stm32f4xx_hal_hcd.c ****       if(hhcd->hc[chnum].ErrCnt++ > 3U)
1061:./Libraries/STM32F4xx_HAL_Driver/Src/stm32f4xx_hal_hcd.c ****       {      
1062:./Libraries/STM32F4xx_HAL_Driver/Src/stm32f4xx_hal_hcd.c ****         hhcd->hc[chnum].ErrCnt = 0U;
1063:./Libraries/STM32F4xx_HAL_Driver/Src/stm32f4xx_hal_hcd.c ****         hhcd->hc[chnum].urb_state = URB_ERROR;
1064:./Libraries/STM32F4xx_HAL_Driver/Src/stm32f4xx_hal_hcd.c ****       }
1065:./Libraries/STM32F4xx_HAL_Driver/Src/stm32f4xx_hal_hcd.c ****       else
1066:./Libraries/STM32F4xx_HAL_Driver/Src/stm32f4xx_hal_hcd.c ****       {
1067:./Libraries/STM32F4xx_HAL_Driver/Src/stm32f4xx_hal_hcd.c ****         hhcd->hc[chnum].urb_state = URB_NOTREADY;
1068:./Libraries/STM32F4xx_HAL_Driver/Src/stm32f4xx_hal_hcd.c ****       }
1069:./Libraries/STM32F4xx_HAL_Driver/Src/stm32f4xx_hal_hcd.c ****     }
1070:./Libraries/STM32F4xx_HAL_Driver/Src/stm32f4xx_hal_hcd.c ****     
1071:./Libraries/STM32F4xx_HAL_Driver/Src/stm32f4xx_hal_hcd.c ****     __HAL_HCD_CLEAR_HC_INT(chnum, USB_OTG_HCINT_CHH);
1072:./Libraries/STM32F4xx_HAL_Driver/Src/stm32f4xx_hal_hcd.c ****     HAL_HCD_HC_NotifyURBChange_Callback(hhcd, chnum, hhcd->hc[chnum].urb_state);  
1073:./Libraries/STM32F4xx_HAL_Driver/Src/stm32f4xx_hal_hcd.c ****   }
1074:./Libraries/STM32F4xx_HAL_Driver/Src/stm32f4xx_hal_hcd.c **** } 
 3053              		.loc 1 1074 1
 3054 005a E4E2     		b	.L121
 3055              	.L104:
 954:./Libraries/STM32F4xx_HAL_Driver/Src/stm32f4xx_hal_hcd.c ****   {
 3056              		.loc 1 954 13
 3057 005c FB78     		ldrb	r3, [r7, #3]	@ zero_extendqisi2
 3058 005e 5A01     		lsls	r2, r3, #5
 3059 0060 FB68     		ldr	r3, [r7, #12]
 3060 0062 1344     		add	r3, r3, r2
 3061 0064 03F5A063 		add	r3, r3, #1280
 954:./Libraries/STM32F4xx_HAL_Driver/Src/stm32f4xx_hal_hcd.c ****   {
 3062              		.loc 1 954 27
 3063 0068 9B68     		ldr	r3, [r3, #8]
 954:./Libraries/STM32F4xx_HAL_Driver/Src/stm32f4xx_hal_hcd.c ****   {
 3064              		.loc 1 954 36
 3065 006a 03F02003 		and	r3, r3, #32
ARM GAS  /tmp/ccYHp8fH.s 			page 75


 954:./Libraries/STM32F4xx_HAL_Driver/Src/stm32f4xx_hal_hcd.c ****   {
 3066              		.loc 1 954 11
 3067 006e 002B     		cmp	r3, #0
 3068 0070 40D0     		beq	.L106
 956:./Libraries/STM32F4xx_HAL_Driver/Src/stm32f4xx_hal_hcd.c ****     
 3069              		.loc 1 956 5
 3070 0072 FB78     		ldrb	r3, [r7, #3]	@ zero_extendqisi2
 3071 0074 5A01     		lsls	r2, r3, #5
 3072 0076 FB68     		ldr	r3, [r7, #12]
 3073 0078 1344     		add	r3, r3, r2
 3074 007a 03F5A063 		add	r3, r3, #1280
 3075 007e 1A46     		mov	r2, r3
 3076 0080 2023     		movs	r3, #32
 3077 0082 9360     		str	r3, [r2, #8]
 958:./Libraries/STM32F4xx_HAL_Driver/Src/stm32f4xx_hal_hcd.c ****     {
 3078              		.loc 1 958 24
 3079 0084 FA78     		ldrb	r2, [r7, #3]	@ zero_extendqisi2
 3080 0086 7968     		ldr	r1, [r7, #4]
 3081 0088 1346     		mov	r3, r2
 3082 008a 9B00     		lsls	r3, r3, #2
 3083 008c 1344     		add	r3, r3, r2
 3084 008e DB00     		lsls	r3, r3, #3
 3085 0090 0B44     		add	r3, r3, r1
 3086 0092 3D33     		adds	r3, r3, #61
 3087 0094 1B78     		ldrb	r3, [r3]	@ zero_extendqisi2
 958:./Libraries/STM32F4xx_HAL_Driver/Src/stm32f4xx_hal_hcd.c ****     {
 3088              		.loc 1 958 7
 3089 0096 012B     		cmp	r3, #1
 3090 0098 40F0C582 		bne	.L121
 960:./Libraries/STM32F4xx_HAL_Driver/Src/stm32f4xx_hal_hcd.c ****       __HAL_HCD_UNMASK_HALT_HC_INT(chnum); 
 3091              		.loc 1 960 22
 3092 009c FA78     		ldrb	r2, [r7, #3]	@ zero_extendqisi2
 960:./Libraries/STM32F4xx_HAL_Driver/Src/stm32f4xx_hal_hcd.c ****       __HAL_HCD_UNMASK_HALT_HC_INT(chnum); 
 3093              		.loc 1 960 29
 3094 009e 7968     		ldr	r1, [r7, #4]
 3095 00a0 1346     		mov	r3, r2
 3096 00a2 9B00     		lsls	r3, r3, #2
 3097 00a4 1344     		add	r3, r3, r2
 3098 00a6 DB00     		lsls	r3, r3, #3
 3099 00a8 0B44     		add	r3, r3, r1
 3100 00aa 5D33     		adds	r3, r3, #93
 3101 00ac 0422     		movs	r2, #4
 3102 00ae 1A70     		strb	r2, [r3]
 961:./Libraries/STM32F4xx_HAL_Driver/Src/stm32f4xx_hal_hcd.c ****       USB_HC_Halt(hhcd->Instance, chnum); 
 3103              		.loc 1 961 7
 3104 00b0 FB78     		ldrb	r3, [r7, #3]	@ zero_extendqisi2
 3105 00b2 5A01     		lsls	r2, r3, #5
 3106 00b4 FB68     		ldr	r3, [r7, #12]
 3107 00b6 1344     		add	r3, r3, r2
 3108 00b8 03F5A063 		add	r3, r3, #1280
 3109 00bc DB68     		ldr	r3, [r3, #12]
 3110 00be FA78     		ldrb	r2, [r7, #3]	@ zero_extendqisi2
 3111 00c0 5101     		lsls	r1, r2, #5
 3112 00c2 FA68     		ldr	r2, [r7, #12]
 3113 00c4 0A44     		add	r2, r2, r1
 3114 00c6 02F5A062 		add	r2, r2, #1280
 3115 00ca 43F00203 		orr	r3, r3, #2
ARM GAS  /tmp/ccYHp8fH.s 			page 76


 3116 00ce D360     		str	r3, [r2, #12]
 962:./Libraries/STM32F4xx_HAL_Driver/Src/stm32f4xx_hal_hcd.c ****       hhcd->hc[chnum].urb_state  = URB_NOTREADY;
 3117              		.loc 1 962 23
 3118 00d0 7B68     		ldr	r3, [r7, #4]
 3119 00d2 1B68     		ldr	r3, [r3]
 962:./Libraries/STM32F4xx_HAL_Driver/Src/stm32f4xx_hal_hcd.c ****       hhcd->hc[chnum].urb_state  = URB_NOTREADY;
 3120              		.loc 1 962 7
 3121 00d4 FA78     		ldrb	r2, [r7, #3]	@ zero_extendqisi2
 3122 00d6 1146     		mov	r1, r2
 3123 00d8 1846     		mov	r0, r3
 3124 00da FFF7FEFF 		bl	USB_HC_Halt
 963:./Libraries/STM32F4xx_HAL_Driver/Src/stm32f4xx_hal_hcd.c ****     }
 3125              		.loc 1 963 22
 3126 00de FA78     		ldrb	r2, [r7, #3]	@ zero_extendqisi2
 963:./Libraries/STM32F4xx_HAL_Driver/Src/stm32f4xx_hal_hcd.c ****     }
 3127              		.loc 1 963 34
 3128 00e0 7968     		ldr	r1, [r7, #4]
 3129 00e2 1346     		mov	r3, r2
 3130 00e4 9B00     		lsls	r3, r3, #2
 3131 00e6 1344     		add	r3, r3, r2
 3132 00e8 DB00     		lsls	r3, r3, #3
 3133 00ea 0B44     		add	r3, r3, r1
 3134 00ec 5C33     		adds	r3, r3, #92
 3135 00ee 0222     		movs	r2, #2
 3136 00f0 1A70     		strb	r2, [r3]
 3137              		.loc 1 1074 1
 3138 00f2 98E2     		b	.L121
 3139              	.L106:
 967:./Libraries/STM32F4xx_HAL_Driver/Src/stm32f4xx_hal_hcd.c ****   {
 3140              		.loc 1 967 13
 3141 00f4 FB78     		ldrb	r3, [r7, #3]	@ zero_extendqisi2
 3142 00f6 5A01     		lsls	r2, r3, #5
 3143 00f8 FB68     		ldr	r3, [r7, #12]
 3144 00fa 1344     		add	r3, r3, r2
 3145 00fc 03F5A063 		add	r3, r3, #1280
 967:./Libraries/STM32F4xx_HAL_Driver/Src/stm32f4xx_hal_hcd.c ****   {
 3146              		.loc 1 967 27
 3147 0100 9B68     		ldr	r3, [r3, #8]
 967:./Libraries/STM32F4xx_HAL_Driver/Src/stm32f4xx_hal_hcd.c ****   {
 3148              		.loc 1 967 36
 3149 0102 03F04003 		and	r3, r3, #64
 967:./Libraries/STM32F4xx_HAL_Driver/Src/stm32f4xx_hal_hcd.c ****   {
 3150              		.loc 1 967 11
 3151 0106 002B     		cmp	r3, #0
 3152 0108 34D0     		beq	.L107
 969:./Libraries/STM32F4xx_HAL_Driver/Src/stm32f4xx_hal_hcd.c ****     hhcd->hc[chnum].ErrCnt= 0U;    
 3153              		.loc 1 969 20
 3154 010a FA78     		ldrb	r2, [r7, #3]	@ zero_extendqisi2
 969:./Libraries/STM32F4xx_HAL_Driver/Src/stm32f4xx_hal_hcd.c ****     hhcd->hc[chnum].ErrCnt= 0U;    
 3155              		.loc 1 969 27
 3156 010c 7968     		ldr	r1, [r7, #4]
 3157 010e 1346     		mov	r3, r2
 3158 0110 9B00     		lsls	r3, r3, #2
 3159 0112 1344     		add	r3, r3, r2
 3160 0114 DB00     		lsls	r3, r3, #3
 3161 0116 0B44     		add	r3, r3, r1
 3162 0118 5D33     		adds	r3, r3, #93
ARM GAS  /tmp/ccYHp8fH.s 			page 77


 3163 011a 0422     		movs	r2, #4
 3164 011c 1A70     		strb	r2, [r3]
 970:./Libraries/STM32F4xx_HAL_Driver/Src/stm32f4xx_hal_hcd.c ****     __HAL_HCD_UNMASK_HALT_HC_INT(chnum); 
 3165              		.loc 1 970 20
 3166 011e FA78     		ldrb	r2, [r7, #3]	@ zero_extendqisi2
 970:./Libraries/STM32F4xx_HAL_Driver/Src/stm32f4xx_hal_hcd.c ****     __HAL_HCD_UNMASK_HALT_HC_INT(chnum); 
 3167              		.loc 1 970 27
 3168 0120 7968     		ldr	r1, [r7, #4]
 3169 0122 1346     		mov	r3, r2
 3170 0124 9B00     		lsls	r3, r3, #2
 3171 0126 1344     		add	r3, r3, r2
 3172 0128 DB00     		lsls	r3, r3, #3
 3173 012a 0B44     		add	r3, r3, r1
 3174 012c 5833     		adds	r3, r3, #88
 3175 012e 0022     		movs	r2, #0
 3176 0130 1A60     		str	r2, [r3]
 971:./Libraries/STM32F4xx_HAL_Driver/Src/stm32f4xx_hal_hcd.c ****     USB_HC_Halt(hhcd->Instance, chnum);      
 3177              		.loc 1 971 5
 3178 0132 FB78     		ldrb	r3, [r7, #3]	@ zero_extendqisi2
 3179 0134 5A01     		lsls	r2, r3, #5
 3180 0136 FB68     		ldr	r3, [r7, #12]
 3181 0138 1344     		add	r3, r3, r2
 3182 013a 03F5A063 		add	r3, r3, #1280
 3183 013e DB68     		ldr	r3, [r3, #12]
 3184 0140 FA78     		ldrb	r2, [r7, #3]	@ zero_extendqisi2
 3185 0142 5101     		lsls	r1, r2, #5
 3186 0144 FA68     		ldr	r2, [r7, #12]
 3187 0146 0A44     		add	r2, r2, r1
 3188 0148 02F5A062 		add	r2, r2, #1280
 3189 014c 43F00203 		orr	r3, r3, #2
 3190 0150 D360     		str	r3, [r2, #12]
 972:./Libraries/STM32F4xx_HAL_Driver/Src/stm32f4xx_hal_hcd.c ****     __HAL_HCD_CLEAR_HC_INT(chnum, USB_OTG_HCINT_NYET);
 3191              		.loc 1 972 21
 3192 0152 7B68     		ldr	r3, [r7, #4]
 3193 0154 1B68     		ldr	r3, [r3]
 972:./Libraries/STM32F4xx_HAL_Driver/Src/stm32f4xx_hal_hcd.c ****     __HAL_HCD_CLEAR_HC_INT(chnum, USB_OTG_HCINT_NYET);
 3194              		.loc 1 972 5
 3195 0156 FA78     		ldrb	r2, [r7, #3]	@ zero_extendqisi2
 3196 0158 1146     		mov	r1, r2
 3197 015a 1846     		mov	r0, r3
 3198 015c FFF7FEFF 		bl	USB_HC_Halt
 973:./Libraries/STM32F4xx_HAL_Driver/Src/stm32f4xx_hal_hcd.c ****     
 3199              		.loc 1 973 5
 3200 0160 FB78     		ldrb	r3, [r7, #3]	@ zero_extendqisi2
 3201 0162 5A01     		lsls	r2, r3, #5
 3202 0164 FB68     		ldr	r3, [r7, #12]
 3203 0166 1344     		add	r3, r3, r2
 3204 0168 03F5A063 		add	r3, r3, #1280
 3205 016c 1A46     		mov	r2, r3
 3206 016e 4023     		movs	r3, #64
 3207 0170 9360     		str	r3, [r2, #8]
 3208              		.loc 1 1074 1
 3209 0172 58E2     		b	.L121
 3210              	.L107:
 977:./Libraries/STM32F4xx_HAL_Driver/Src/stm32f4xx_hal_hcd.c ****   {
 3211              		.loc 1 977 13
 3212 0174 FB78     		ldrb	r3, [r7, #3]	@ zero_extendqisi2
ARM GAS  /tmp/ccYHp8fH.s 			page 78


 3213 0176 5A01     		lsls	r2, r3, #5
 3214 0178 FB68     		ldr	r3, [r7, #12]
 3215 017a 1344     		add	r3, r3, r2
 3216 017c 03F5A063 		add	r3, r3, #1280
 977:./Libraries/STM32F4xx_HAL_Driver/Src/stm32f4xx_hal_hcd.c ****   {
 3217              		.loc 1 977 27
 3218 0180 9B68     		ldr	r3, [r3, #8]
 977:./Libraries/STM32F4xx_HAL_Driver/Src/stm32f4xx_hal_hcd.c ****   {
 3219              		.loc 1 977 36
 3220 0182 03F40073 		and	r3, r3, #512
 977:./Libraries/STM32F4xx_HAL_Driver/Src/stm32f4xx_hal_hcd.c ****   {
 3221              		.loc 1 977 11
 3222 0186 002B     		cmp	r3, #0
 3223 0188 21D0     		beq	.L108
 979:./Libraries/STM32F4xx_HAL_Driver/Src/stm32f4xx_hal_hcd.c ****     USB_HC_Halt(hhcd->Instance, chnum);  
 3224              		.loc 1 979 5
 3225 018a FB78     		ldrb	r3, [r7, #3]	@ zero_extendqisi2
 3226 018c 5A01     		lsls	r2, r3, #5
 3227 018e FB68     		ldr	r3, [r7, #12]
 3228 0190 1344     		add	r3, r3, r2
 3229 0192 03F5A063 		add	r3, r3, #1280
 3230 0196 DB68     		ldr	r3, [r3, #12]
 3231 0198 FA78     		ldrb	r2, [r7, #3]	@ zero_extendqisi2
 3232 019a 5101     		lsls	r1, r2, #5
 3233 019c FA68     		ldr	r2, [r7, #12]
 3234 019e 0A44     		add	r2, r2, r1
 3235 01a0 02F5A062 		add	r2, r2, #1280
 3236 01a4 43F00203 		orr	r3, r3, #2
 3237 01a8 D360     		str	r3, [r2, #12]
 980:./Libraries/STM32F4xx_HAL_Driver/Src/stm32f4xx_hal_hcd.c ****     __HAL_HCD_CLEAR_HC_INT(chnum, USB_OTG_HCINT_FRMOR);
 3238              		.loc 1 980 21
 3239 01aa 7B68     		ldr	r3, [r7, #4]
 3240 01ac 1B68     		ldr	r3, [r3]
 980:./Libraries/STM32F4xx_HAL_Driver/Src/stm32f4xx_hal_hcd.c ****     __HAL_HCD_CLEAR_HC_INT(chnum, USB_OTG_HCINT_FRMOR);
 3241              		.loc 1 980 5
 3242 01ae FA78     		ldrb	r2, [r7, #3]	@ zero_extendqisi2
 3243 01b0 1146     		mov	r1, r2
 3244 01b2 1846     		mov	r0, r3
 3245 01b4 FFF7FEFF 		bl	USB_HC_Halt
 981:./Libraries/STM32F4xx_HAL_Driver/Src/stm32f4xx_hal_hcd.c ****   }
 3246              		.loc 1 981 5
 3247 01b8 FB78     		ldrb	r3, [r7, #3]	@ zero_extendqisi2
 3248 01ba 5A01     		lsls	r2, r3, #5
 3249 01bc FB68     		ldr	r3, [r7, #12]
 3250 01be 1344     		add	r3, r3, r2
 3251 01c0 03F5A063 		add	r3, r3, #1280
 3252 01c4 1A46     		mov	r2, r3
 3253 01c6 4FF40073 		mov	r3, #512
 3254 01ca 9360     		str	r3, [r2, #8]
 3255              		.loc 1 1074 1
 3256 01cc 2BE2     		b	.L121
 3257              	.L108:
 984:./Libraries/STM32F4xx_HAL_Driver/Src/stm32f4xx_hal_hcd.c ****   {
 3258              		.loc 1 984 13
 3259 01ce FB78     		ldrb	r3, [r7, #3]	@ zero_extendqisi2
 3260 01d0 5A01     		lsls	r2, r3, #5
 3261 01d2 FB68     		ldr	r3, [r7, #12]
ARM GAS  /tmp/ccYHp8fH.s 			page 79


 3262 01d4 1344     		add	r3, r3, r2
 3263 01d6 03F5A063 		add	r3, r3, #1280
 984:./Libraries/STM32F4xx_HAL_Driver/Src/stm32f4xx_hal_hcd.c ****   {
 3264              		.loc 1 984 27
 3265 01da 9B68     		ldr	r3, [r3, #8]
 984:./Libraries/STM32F4xx_HAL_Driver/Src/stm32f4xx_hal_hcd.c ****   {
 3266              		.loc 1 984 36
 3267 01dc 03F00103 		and	r3, r3, #1
 984:./Libraries/STM32F4xx_HAL_Driver/Src/stm32f4xx_hal_hcd.c ****   {
 3268              		.loc 1 984 11
 3269 01e0 002B     		cmp	r3, #0
 3270 01e2 34D0     		beq	.L109
 986:./Libraries/STM32F4xx_HAL_Driver/Src/stm32f4xx_hal_hcd.c ****     __HAL_HCD_UNMASK_HALT_HC_INT(chnum);
 3271              		.loc 1 986 22
 3272 01e4 FA78     		ldrb	r2, [r7, #3]	@ zero_extendqisi2
 986:./Libraries/STM32F4xx_HAL_Driver/Src/stm32f4xx_hal_hcd.c ****     __HAL_HCD_UNMASK_HALT_HC_INT(chnum);
 3273              		.loc 1 986 30
 3274 01e6 7968     		ldr	r1, [r7, #4]
 3275 01e8 1346     		mov	r3, r2
 3276 01ea 9B00     		lsls	r3, r3, #2
 3277 01ec 1344     		add	r3, r3, r2
 3278 01ee DB00     		lsls	r3, r3, #3
 3279 01f0 0B44     		add	r3, r3, r1
 3280 01f2 5833     		adds	r3, r3, #88
 3281 01f4 0022     		movs	r2, #0
 3282 01f6 1A60     		str	r2, [r3]
 987:./Libraries/STM32F4xx_HAL_Driver/Src/stm32f4xx_hal_hcd.c ****     USB_HC_Halt(hhcd->Instance, chnum);   
 3283              		.loc 1 987 5
 3284 01f8 FB78     		ldrb	r3, [r7, #3]	@ zero_extendqisi2
 3285 01fa 5A01     		lsls	r2, r3, #5
 3286 01fc FB68     		ldr	r3, [r7, #12]
 3287 01fe 1344     		add	r3, r3, r2
 3288 0200 03F5A063 		add	r3, r3, #1280
 3289 0204 DB68     		ldr	r3, [r3, #12]
 3290 0206 FA78     		ldrb	r2, [r7, #3]	@ zero_extendqisi2
 3291 0208 5101     		lsls	r1, r2, #5
 3292 020a FA68     		ldr	r2, [r7, #12]
 3293 020c 0A44     		add	r2, r2, r1
 3294 020e 02F5A062 		add	r2, r2, #1280
 3295 0212 43F00203 		orr	r3, r3, #2
 3296 0216 D360     		str	r3, [r2, #12]
 988:./Libraries/STM32F4xx_HAL_Driver/Src/stm32f4xx_hal_hcd.c ****     __HAL_HCD_CLEAR_HC_INT(chnum, USB_OTG_HCINT_XFRC);
 3297              		.loc 1 988 21
 3298 0218 7B68     		ldr	r3, [r7, #4]
 3299 021a 1B68     		ldr	r3, [r3]
 988:./Libraries/STM32F4xx_HAL_Driver/Src/stm32f4xx_hal_hcd.c ****     __HAL_HCD_CLEAR_HC_INT(chnum, USB_OTG_HCINT_XFRC);
 3300              		.loc 1 988 5
 3301 021c FA78     		ldrb	r2, [r7, #3]	@ zero_extendqisi2
 3302 021e 1146     		mov	r1, r2
 3303 0220 1846     		mov	r0, r3
 3304 0222 FFF7FEFF 		bl	USB_HC_Halt
 989:./Libraries/STM32F4xx_HAL_Driver/Src/stm32f4xx_hal_hcd.c ****     hhcd->hc[chnum].state = HC_XFRC;
 3305              		.loc 1 989 5
 3306 0226 FB78     		ldrb	r3, [r7, #3]	@ zero_extendqisi2
 3307 0228 5A01     		lsls	r2, r3, #5
 3308 022a FB68     		ldr	r3, [r7, #12]
 3309 022c 1344     		add	r3, r3, r2
ARM GAS  /tmp/ccYHp8fH.s 			page 80


 3310 022e 03F5A063 		add	r3, r3, #1280
 3311 0232 1A46     		mov	r2, r3
 3312 0234 0123     		movs	r3, #1
 3313 0236 9360     		str	r3, [r2, #8]
 990:./Libraries/STM32F4xx_HAL_Driver/Src/stm32f4xx_hal_hcd.c **** 
 3314              		.loc 1 990 20
 3315 0238 FA78     		ldrb	r2, [r7, #3]	@ zero_extendqisi2
 990:./Libraries/STM32F4xx_HAL_Driver/Src/stm32f4xx_hal_hcd.c **** 
 3316              		.loc 1 990 27
 3317 023a 7968     		ldr	r1, [r7, #4]
 3318 023c 1346     		mov	r3, r2
 3319 023e 9B00     		lsls	r3, r3, #2
 3320 0240 1344     		add	r3, r3, r2
 3321 0242 DB00     		lsls	r3, r3, #3
 3322 0244 0B44     		add	r3, r3, r1
 3323 0246 5D33     		adds	r3, r3, #93
 3324 0248 0122     		movs	r2, #1
 3325 024a 1A70     		strb	r2, [r3]
 3326              		.loc 1 1074 1
 3327 024c EBE1     		b	.L121
 3328              	.L109:
 994:./Libraries/STM32F4xx_HAL_Driver/Src/stm32f4xx_hal_hcd.c ****   {
 3329              		.loc 1 994 13
 3330 024e FB78     		ldrb	r3, [r7, #3]	@ zero_extendqisi2
 3331 0250 5A01     		lsls	r2, r3, #5
 3332 0252 FB68     		ldr	r3, [r7, #12]
 3333 0254 1344     		add	r3, r3, r2
 3334 0256 03F5A063 		add	r3, r3, #1280
 994:./Libraries/STM32F4xx_HAL_Driver/Src/stm32f4xx_hal_hcd.c ****   {
 3335              		.loc 1 994 27
 3336 025a 9B68     		ldr	r3, [r3, #8]
 994:./Libraries/STM32F4xx_HAL_Driver/Src/stm32f4xx_hal_hcd.c ****   {
 3337              		.loc 1 994 36
 3338 025c 03F00803 		and	r3, r3, #8
 994:./Libraries/STM32F4xx_HAL_Driver/Src/stm32f4xx_hal_hcd.c ****   {
 3339              		.loc 1 994 11
 3340 0260 002B     		cmp	r3, #0
 3341 0262 2AD0     		beq	.L110
 996:./Libraries/STM32F4xx_HAL_Driver/Src/stm32f4xx_hal_hcd.c ****     __HAL_HCD_UNMASK_HALT_HC_INT(chnum);
 3342              		.loc 1 996 5
 3343 0264 FB78     		ldrb	r3, [r7, #3]	@ zero_extendqisi2
 3344 0266 5A01     		lsls	r2, r3, #5
 3345 0268 FB68     		ldr	r3, [r7, #12]
 3346 026a 1344     		add	r3, r3, r2
 3347 026c 03F5A063 		add	r3, r3, #1280
 3348 0270 1A46     		mov	r2, r3
 3349 0272 0823     		movs	r3, #8
 3350 0274 9360     		str	r3, [r2, #8]
 997:./Libraries/STM32F4xx_HAL_Driver/Src/stm32f4xx_hal_hcd.c ****     USB_HC_Halt(hhcd->Instance, chnum);   
 3351              		.loc 1 997 5
 3352 0276 FB78     		ldrb	r3, [r7, #3]	@ zero_extendqisi2
 3353 0278 5A01     		lsls	r2, r3, #5
 3354 027a FB68     		ldr	r3, [r7, #12]
 3355 027c 1344     		add	r3, r3, r2
 3356 027e 03F5A063 		add	r3, r3, #1280
 3357 0282 DB68     		ldr	r3, [r3, #12]
 3358 0284 FA78     		ldrb	r2, [r7, #3]	@ zero_extendqisi2
ARM GAS  /tmp/ccYHp8fH.s 			page 81


 3359 0286 5101     		lsls	r1, r2, #5
 3360 0288 FA68     		ldr	r2, [r7, #12]
 3361 028a 0A44     		add	r2, r2, r1
 3362 028c 02F5A062 		add	r2, r2, #1280
 3363 0290 43F00203 		orr	r3, r3, #2
 3364 0294 D360     		str	r3, [r2, #12]
 998:./Libraries/STM32F4xx_HAL_Driver/Src/stm32f4xx_hal_hcd.c ****     hhcd->hc[chnum].state = HC_STALL;    
 3365              		.loc 1 998 21
 3366 0296 7B68     		ldr	r3, [r7, #4]
 3367 0298 1B68     		ldr	r3, [r3]
 998:./Libraries/STM32F4xx_HAL_Driver/Src/stm32f4xx_hal_hcd.c ****     hhcd->hc[chnum].state = HC_STALL;    
 3368              		.loc 1 998 5
 3369 029a FA78     		ldrb	r2, [r7, #3]	@ zero_extendqisi2
 3370 029c 1146     		mov	r1, r2
 3371 029e 1846     		mov	r0, r3
 3372 02a0 FFF7FEFF 		bl	USB_HC_Halt
 999:./Libraries/STM32F4xx_HAL_Driver/Src/stm32f4xx_hal_hcd.c ****   }
 3373              		.loc 1 999 20
 3374 02a4 FA78     		ldrb	r2, [r7, #3]	@ zero_extendqisi2
 999:./Libraries/STM32F4xx_HAL_Driver/Src/stm32f4xx_hal_hcd.c ****   }
 3375              		.loc 1 999 27
 3376 02a6 7968     		ldr	r1, [r7, #4]
 3377 02a8 1346     		mov	r3, r2
 3378 02aa 9B00     		lsls	r3, r3, #2
 3379 02ac 1344     		add	r3, r3, r2
 3380 02ae DB00     		lsls	r3, r3, #3
 3381 02b0 0B44     		add	r3, r3, r1
 3382 02b2 5D33     		adds	r3, r3, #93
 3383 02b4 0522     		movs	r2, #5
 3384 02b6 1A70     		strb	r2, [r3]
 3385              		.loc 1 1074 1
