ARM GAS  /tmp/cc63z5Jm.s 			page 1


   1              		.cpu cortex-m4
   2              		.eabi_attribute 27, 1
   3              		.eabi_attribute 28, 1
   4              		.eabi_attribute 20, 1
   5              		.eabi_attribute 21, 1
   6              		.eabi_attribute 23, 3
   7              		.eabi_attribute 24, 1
   8              		.eabi_attribute 25, 1
   9              		.eabi_attribute 26, 1
  10              		.eabi_attribute 30, 6
  11              		.eabi_attribute 34, 1
  12              		.eabi_attribute 18, 4
  13              		.file	"stm32f4xx_hal_timebase_rtc_alarm_template.c"
  14              		.text
  15              	.Ltext0:
  16              		.cfi_sections	.debug_frame
  17              		.global	hRTC_Handle
  18              		.section	.bss.hRTC_Handle,"aw",%nobits
  19              		.align	2
  22              	hRTC_Handle:
  23 0000 00000000 		.space	32
  23      00000000 
  23      00000000 
  23      00000000 
  23      00000000 
  24              		.section	.text.HAL_InitTick,"ax",%progbits
  25              		.align	1
  26              		.global	HAL_InitTick
  27              		.arch armv7e-m
  28              		.syntax unified
  29              		.thumb
  30              		.thumb_func
  31              		.fpu fpv4-sp-d16
  33              	HAL_InitTick:
  34              	.LFB126:
  35              		.file 1 "./Libraries/STM32F4xx_HAL_Driver/Src/stm32f4xx_hal_timebase_rtc_alarm_template.c"
   1:./Libraries/STM32F4xx_HAL_Driver/Src/stm32f4xx_hal_timebase_rtc_alarm_template.c **** /**
   2:./Libraries/STM32F4xx_HAL_Driver/Src/stm32f4xx_hal_timebase_rtc_alarm_template.c ****   ******************************************************************************
   3:./Libraries/STM32F4xx_HAL_Driver/Src/stm32f4xx_hal_timebase_rtc_alarm_template.c ****   * @file    stm32f4xx_hal_timebase_rtc_alarm_template.c 
   4:./Libraries/STM32F4xx_HAL_Driver/Src/stm32f4xx_hal_timebase_rtc_alarm_template.c ****   * @author  MCD Application Team
   5:./Libraries/STM32F4xx_HAL_Driver/Src/stm32f4xx_hal_timebase_rtc_alarm_template.c ****   * @brief   HAL time base based on the hardware RTC_ALARM Template.
   6:./Libraries/STM32F4xx_HAL_Driver/Src/stm32f4xx_hal_timebase_rtc_alarm_template.c ****   *
   7:./Libraries/STM32F4xx_HAL_Driver/Src/stm32f4xx_hal_timebase_rtc_alarm_template.c ****   *          This file override the native HAL time base functions (defined as weak)
   8:./Libraries/STM32F4xx_HAL_Driver/Src/stm32f4xx_hal_timebase_rtc_alarm_template.c ****   *          to use the RTC ALARM for time base generation:
   9:./Libraries/STM32F4xx_HAL_Driver/Src/stm32f4xx_hal_timebase_rtc_alarm_template.c ****   *           + Intializes the RTC peripheral to increment the seconds registers each 1ms
  10:./Libraries/STM32F4xx_HAL_Driver/Src/stm32f4xx_hal_timebase_rtc_alarm_template.c ****   *           + The alarm is configured to assert an interrupt when the RTC reaches 1ms 
  11:./Libraries/STM32F4xx_HAL_Driver/Src/stm32f4xx_hal_timebase_rtc_alarm_template.c ****   *           + HAL_IncTick is called at each Alarm event and the time is reset to 00:00:00
  12:./Libraries/STM32F4xx_HAL_Driver/Src/stm32f4xx_hal_timebase_rtc_alarm_template.c ****   *           + HSE (default), LSE or LSI can be selected as RTC clock source  
  13:./Libraries/STM32F4xx_HAL_Driver/Src/stm32f4xx_hal_timebase_rtc_alarm_template.c ****  @verbatim
  14:./Libraries/STM32F4xx_HAL_Driver/Src/stm32f4xx_hal_timebase_rtc_alarm_template.c ****   ==============================================================================
  15:./Libraries/STM32F4xx_HAL_Driver/Src/stm32f4xx_hal_timebase_rtc_alarm_template.c ****                         ##### How to use this driver #####
  16:./Libraries/STM32F4xx_HAL_Driver/Src/stm32f4xx_hal_timebase_rtc_alarm_template.c ****   ==============================================================================
  17:./Libraries/STM32F4xx_HAL_Driver/Src/stm32f4xx_hal_timebase_rtc_alarm_template.c ****     [..]
  18:./Libraries/STM32F4xx_HAL_Driver/Src/stm32f4xx_hal_timebase_rtc_alarm_template.c ****     This file must be copied to the application folder and modified as follows:
  19:./Libraries/STM32F4xx_HAL_Driver/Src/stm32f4xx_hal_timebase_rtc_alarm_template.c ****     (#) Rename it to 'stm32f4xx_hal_timebase_rtc_alarm.c'
  20:./Libraries/STM32F4xx_HAL_Driver/Src/stm32f4xx_hal_timebase_rtc_alarm_template.c ****     (#) Add this file and the RTC HAL drivers to your project and uncomment
  21:./Libraries/STM32F4xx_HAL_Driver/Src/stm32f4xx_hal_timebase_rtc_alarm_template.c ****        HAL_RTC_MODULE_ENABLED define in stm32f4xx_hal_conf.h 
ARM GAS  /tmp/cc63z5Jm.s 			page 2


  22:./Libraries/STM32F4xx_HAL_Driver/Src/stm32f4xx_hal_timebase_rtc_alarm_template.c **** 
  23:./Libraries/STM32F4xx_HAL_Driver/Src/stm32f4xx_hal_timebase_rtc_alarm_template.c ****     [..]
  24:./Libraries/STM32F4xx_HAL_Driver/Src/stm32f4xx_hal_timebase_rtc_alarm_template.c ****     (@) HAL RTC alarm and HAL RTC wakeup drivers can’t be used with low power modes:
  25:./Libraries/STM32F4xx_HAL_Driver/Src/stm32f4xx_hal_timebase_rtc_alarm_template.c ****         The wake up capability of the RTC may be intrusive in case of prior low power mode
  26:./Libraries/STM32F4xx_HAL_Driver/Src/stm32f4xx_hal_timebase_rtc_alarm_template.c ****         configuration requiring different wake up sources.
  27:./Libraries/STM32F4xx_HAL_Driver/Src/stm32f4xx_hal_timebase_rtc_alarm_template.c ****         Application/Example behavior is no more guaranteed 
  28:./Libraries/STM32F4xx_HAL_Driver/Src/stm32f4xx_hal_timebase_rtc_alarm_template.c ****     (@) The stm32f4xx_hal_timebase_tim use is recommended for the Applications/Examples
  29:./Libraries/STM32F4xx_HAL_Driver/Src/stm32f4xx_hal_timebase_rtc_alarm_template.c ****           requiring low power modes
  30:./Libraries/STM32F4xx_HAL_Driver/Src/stm32f4xx_hal_timebase_rtc_alarm_template.c **** 
  31:./Libraries/STM32F4xx_HAL_Driver/Src/stm32f4xx_hal_timebase_rtc_alarm_template.c ****   @endverbatim
  32:./Libraries/STM32F4xx_HAL_Driver/Src/stm32f4xx_hal_timebase_rtc_alarm_template.c ****   ******************************************************************************
  33:./Libraries/STM32F4xx_HAL_Driver/Src/stm32f4xx_hal_timebase_rtc_alarm_template.c ****   * @attention
  34:./Libraries/STM32F4xx_HAL_Driver/Src/stm32f4xx_hal_timebase_rtc_alarm_template.c ****   *
  35:./Libraries/STM32F4xx_HAL_Driver/Src/stm32f4xx_hal_timebase_rtc_alarm_template.c ****   * <h2><center>&copy; COPYRIGHT(c) 2017 STMicroelectronics</center></h2>
  36:./Libraries/STM32F4xx_HAL_Driver/Src/stm32f4xx_hal_timebase_rtc_alarm_template.c ****   *
  37:./Libraries/STM32F4xx_HAL_Driver/Src/stm32f4xx_hal_timebase_rtc_alarm_template.c ****   * Redistribution and use in source and binary forms, with or without modification,
  38:./Libraries/STM32F4xx_HAL_Driver/Src/stm32f4xx_hal_timebase_rtc_alarm_template.c ****   * are permitted provided that the following conditions are met:
  39:./Libraries/STM32F4xx_HAL_Driver/Src/stm32f4xx_hal_timebase_rtc_alarm_template.c ****   *   1. Redistributions of source code must retain the above copyright notice,
  40:./Libraries/STM32F4xx_HAL_Driver/Src/stm32f4xx_hal_timebase_rtc_alarm_template.c ****   *      this list of conditions and the following disclaimer.
  41:./Libraries/STM32F4xx_HAL_Driver/Src/stm32f4xx_hal_timebase_rtc_alarm_template.c ****   *   2. Redistributions in binary form must reproduce the above copyright notice,
  42:./Libraries/STM32F4xx_HAL_Driver/Src/stm32f4xx_hal_timebase_rtc_alarm_template.c ****   *      this list of conditions and the following disclaimer in the documentation
  43:./Libraries/STM32F4xx_HAL_Driver/Src/stm32f4xx_hal_timebase_rtc_alarm_template.c ****   *      and/or other materials provided with the distribution.
  44:./Libraries/STM32F4xx_HAL_Driver/Src/stm32f4xx_hal_timebase_rtc_alarm_template.c ****   *   3. Neither the name of STMicroelectronics nor the names of its contributors
  45:./Libraries/STM32F4xx_HAL_Driver/Src/stm32f4xx_hal_timebase_rtc_alarm_template.c ****   *      may be used to endorse or promote products derived from this software
  46:./Libraries/STM32F4xx_HAL_Driver/Src/stm32f4xx_hal_timebase_rtc_alarm_template.c ****   *      without specific prior written permission.
  47:./Libraries/STM32F4xx_HAL_Driver/Src/stm32f4xx_hal_timebase_rtc_alarm_template.c ****   *
  48:./Libraries/STM32F4xx_HAL_Driver/Src/stm32f4xx_hal_timebase_rtc_alarm_template.c ****   * THIS SOFTWARE IS PROVIDED BY THE COPYRIGHT HOLDERS AND CONTRIBUTORS "AS IS"
  49:./Libraries/STM32F4xx_HAL_Driver/Src/stm32f4xx_hal_timebase_rtc_alarm_template.c ****   * AND ANY EXPRESS OR IMPLIED WARRANTIES, INCLUDING, BUT NOT LIMITED TO, THE
  50:./Libraries/STM32F4xx_HAL_Driver/Src/stm32f4xx_hal_timebase_rtc_alarm_template.c ****   * IMPLIED WARRANTIES OF MERCHANTABILITY AND FITNESS FOR A PARTICULAR PURPOSE ARE
  51:./Libraries/STM32F4xx_HAL_Driver/Src/stm32f4xx_hal_timebase_rtc_alarm_template.c ****   * DISCLAIMED. IN NO EVENT SHALL THE COPYRIGHT HOLDER OR CONTRIBUTORS BE LIABLE
  52:./Libraries/STM32F4xx_HAL_Driver/Src/stm32f4xx_hal_timebase_rtc_alarm_template.c ****   * FOR ANY DIRECT, INDIRECT, INCIDENTAL, SPECIAL, EXEMPLARY, OR CONSEQUENTIAL
  53:./Libraries/STM32F4xx_HAL_Driver/Src/stm32f4xx_hal_timebase_rtc_alarm_template.c ****   * DAMAGES (INCLUDING, BUT NOT LIMITED TO, PROCUREMENT OF SUBSTITUTE GOODS OR
  54:./Libraries/STM32F4xx_HAL_Driver/Src/stm32f4xx_hal_timebase_rtc_alarm_template.c ****   * SERVICES; LOSS OF USE, DATA, OR PROFITS; OR BUSINESS INTERRUPTION) HOWEVER
  55:./Libraries/STM32F4xx_HAL_Driver/Src/stm32f4xx_hal_timebase_rtc_alarm_template.c ****   * CAUSED AND ON ANY THEORY OF LIABILITY, WHETHER IN CONTRACT, STRICT LIABILITY,
  56:./Libraries/STM32F4xx_HAL_Driver/Src/stm32f4xx_hal_timebase_rtc_alarm_template.c ****   * OR TORT (INCLUDING NEGLIGENCE OR OTHERWISE) ARISING IN ANY WAY OUT OF THE USE
  57:./Libraries/STM32F4xx_HAL_Driver/Src/stm32f4xx_hal_timebase_rtc_alarm_template.c ****   * OF THIS SOFTWARE, EVEN IF ADVISED OF THE POSSIBILITY OF SUCH DAMAGE.
  58:./Libraries/STM32F4xx_HAL_Driver/Src/stm32f4xx_hal_timebase_rtc_alarm_template.c ****   *
  59:./Libraries/STM32F4xx_HAL_Driver/Src/stm32f4xx_hal_timebase_rtc_alarm_template.c ****   ******************************************************************************
  60:./Libraries/STM32F4xx_HAL_Driver/Src/stm32f4xx_hal_timebase_rtc_alarm_template.c ****   */
  61:./Libraries/STM32F4xx_HAL_Driver/Src/stm32f4xx_hal_timebase_rtc_alarm_template.c **** 
  62:./Libraries/STM32F4xx_HAL_Driver/Src/stm32f4xx_hal_timebase_rtc_alarm_template.c **** /* Includes ------------------------------------------------------------------*/
  63:./Libraries/STM32F4xx_HAL_Driver/Src/stm32f4xx_hal_timebase_rtc_alarm_template.c **** #include "stm32f4xx_hal.h"
  64:./Libraries/STM32F4xx_HAL_Driver/Src/stm32f4xx_hal_timebase_rtc_alarm_template.c **** /** @addtogroup STM32F4xx_HAL_Driver
  65:./Libraries/STM32F4xx_HAL_Driver/Src/stm32f4xx_hal_timebase_rtc_alarm_template.c ****   * @{
  66:./Libraries/STM32F4xx_HAL_Driver/Src/stm32f4xx_hal_timebase_rtc_alarm_template.c ****   */
  67:./Libraries/STM32F4xx_HAL_Driver/Src/stm32f4xx_hal_timebase_rtc_alarm_template.c **** 
  68:./Libraries/STM32F4xx_HAL_Driver/Src/stm32f4xx_hal_timebase_rtc_alarm_template.c **** /** @defgroup HAL_TimeBase_RTC_Alarm_Template  HAL TimeBase RTC Alarm Template
  69:./Libraries/STM32F4xx_HAL_Driver/Src/stm32f4xx_hal_timebase_rtc_alarm_template.c ****   * @{
  70:./Libraries/STM32F4xx_HAL_Driver/Src/stm32f4xx_hal_timebase_rtc_alarm_template.c ****   */ 
  71:./Libraries/STM32F4xx_HAL_Driver/Src/stm32f4xx_hal_timebase_rtc_alarm_template.c **** 
  72:./Libraries/STM32F4xx_HAL_Driver/Src/stm32f4xx_hal_timebase_rtc_alarm_template.c **** /* Private typedef -----------------------------------------------------------*/
  73:./Libraries/STM32F4xx_HAL_Driver/Src/stm32f4xx_hal_timebase_rtc_alarm_template.c **** /* Private define ------------------------------------------------------------*/
  74:./Libraries/STM32F4xx_HAL_Driver/Src/stm32f4xx_hal_timebase_rtc_alarm_template.c **** 
  75:./Libraries/STM32F4xx_HAL_Driver/Src/stm32f4xx_hal_timebase_rtc_alarm_template.c **** /* Uncomment the line below to select the appropriate RTC Clock source for your application: 
  76:./Libraries/STM32F4xx_HAL_Driver/Src/stm32f4xx_hal_timebase_rtc_alarm_template.c ****   + RTC_CLOCK_SOURCE_HSE: can be selected for applications requiring timing precision.
  77:./Libraries/STM32F4xx_HAL_Driver/Src/stm32f4xx_hal_timebase_rtc_alarm_template.c ****   + RTC_CLOCK_SOURCE_LSE: can be selected for applications with low constraint on timing
  78:./Libraries/STM32F4xx_HAL_Driver/Src/stm32f4xx_hal_timebase_rtc_alarm_template.c ****                           precision.
ARM GAS  /tmp/cc63z5Jm.s 			page 3


  79:./Libraries/STM32F4xx_HAL_Driver/Src/stm32f4xx_hal_timebase_rtc_alarm_template.c ****   + RTC_CLOCK_SOURCE_LSI: can be selected for applications with low constraint on timing
  80:./Libraries/STM32F4xx_HAL_Driver/Src/stm32f4xx_hal_timebase_rtc_alarm_template.c ****                           precision.
  81:./Libraries/STM32F4xx_HAL_Driver/Src/stm32f4xx_hal_timebase_rtc_alarm_template.c ****   */
  82:./Libraries/STM32F4xx_HAL_Driver/Src/stm32f4xx_hal_timebase_rtc_alarm_template.c **** #define RTC_CLOCK_SOURCE_HSE
  83:./Libraries/STM32F4xx_HAL_Driver/Src/stm32f4xx_hal_timebase_rtc_alarm_template.c **** /* #define RTC_CLOCK_SOURCE_LSE */
  84:./Libraries/STM32F4xx_HAL_Driver/Src/stm32f4xx_hal_timebase_rtc_alarm_template.c **** /* #define RTC_CLOCK_SOURCE_LSI */
  85:./Libraries/STM32F4xx_HAL_Driver/Src/stm32f4xx_hal_timebase_rtc_alarm_template.c **** 
  86:./Libraries/STM32F4xx_HAL_Driver/Src/stm32f4xx_hal_timebase_rtc_alarm_template.c **** #ifdef RTC_CLOCK_SOURCE_HSE
  87:./Libraries/STM32F4xx_HAL_Driver/Src/stm32f4xx_hal_timebase_rtc_alarm_template.c ****   #define RTC_ASYNCH_PREDIV       99U
  88:./Libraries/STM32F4xx_HAL_Driver/Src/stm32f4xx_hal_timebase_rtc_alarm_template.c ****   #define RTC_SYNCH_PREDIV        9U
  89:./Libraries/STM32F4xx_HAL_Driver/Src/stm32f4xx_hal_timebase_rtc_alarm_template.c ****   #define RCC_RTCCLKSOURCE_1MHZ   ((uint32_t)((uint32_t)RCC_BDCR_RTCSEL | (uint32_t)((HSE_VALUE/100
  90:./Libraries/STM32F4xx_HAL_Driver/Src/stm32f4xx_hal_timebase_rtc_alarm_template.c **** #else /* RTC_CLOCK_SOURCE_LSE || RTC_CLOCK_SOURCE_LSI */
  91:./Libraries/STM32F4xx_HAL_Driver/Src/stm32f4xx_hal_timebase_rtc_alarm_template.c ****   #define RTC_ASYNCH_PREDIV       0U
  92:./Libraries/STM32F4xx_HAL_Driver/Src/stm32f4xx_hal_timebase_rtc_alarm_template.c ****   #define RTC_SYNCH_PREDIV        31U
  93:./Libraries/STM32F4xx_HAL_Driver/Src/stm32f4xx_hal_timebase_rtc_alarm_template.c **** #endif /* RTC_CLOCK_SOURCE_HSE */
  94:./Libraries/STM32F4xx_HAL_Driver/Src/stm32f4xx_hal_timebase_rtc_alarm_template.c **** 
  95:./Libraries/STM32F4xx_HAL_Driver/Src/stm32f4xx_hal_timebase_rtc_alarm_template.c **** /* Private macro -------------------------------------------------------------*/
  96:./Libraries/STM32F4xx_HAL_Driver/Src/stm32f4xx_hal_timebase_rtc_alarm_template.c **** /* Private variables ---------------------------------------------------------*/
  97:./Libraries/STM32F4xx_HAL_Driver/Src/stm32f4xx_hal_timebase_rtc_alarm_template.c **** RTC_HandleTypeDef        hRTC_Handle;
  98:./Libraries/STM32F4xx_HAL_Driver/Src/stm32f4xx_hal_timebase_rtc_alarm_template.c **** /* Private function prototypes -----------------------------------------------*/
  99:./Libraries/STM32F4xx_HAL_Driver/Src/stm32f4xx_hal_timebase_rtc_alarm_template.c **** void RTC_Alarm_IRQHandler(void);
 100:./Libraries/STM32F4xx_HAL_Driver/Src/stm32f4xx_hal_timebase_rtc_alarm_template.c **** /* Private functions ---------------------------------------------------------*/
 101:./Libraries/STM32F4xx_HAL_Driver/Src/stm32f4xx_hal_timebase_rtc_alarm_template.c **** 
 102:./Libraries/STM32F4xx_HAL_Driver/Src/stm32f4xx_hal_timebase_rtc_alarm_template.c **** /**
 103:./Libraries/STM32F4xx_HAL_Driver/Src/stm32f4xx_hal_timebase_rtc_alarm_template.c ****   * @brief  This function configures the RTC_ALARMA as a time base source. 
 104:./Libraries/STM32F4xx_HAL_Driver/Src/stm32f4xx_hal_timebase_rtc_alarm_template.c ****   *         The time source is configured  to have 1ms time base with a dedicated 
 105:./Libraries/STM32F4xx_HAL_Driver/Src/stm32f4xx_hal_timebase_rtc_alarm_template.c ****   *         Tick interrupt priority. 
 106:./Libraries/STM32F4xx_HAL_Driver/Src/stm32f4xx_hal_timebase_rtc_alarm_template.c ****   * @note   This function is called  automatically at the beginning of program after
 107:./Libraries/STM32F4xx_HAL_Driver/Src/stm32f4xx_hal_timebase_rtc_alarm_template.c ****   *         reset by HAL_Init() or at any time when clock is configured, by HAL_RCC_ClockConfig().
 108:./Libraries/STM32F4xx_HAL_Driver/Src/stm32f4xx_hal_timebase_rtc_alarm_template.c ****   * @param  TickPriority Tick interrupt priority.
 109:./Libraries/STM32F4xx_HAL_Driver/Src/stm32f4xx_hal_timebase_rtc_alarm_template.c ****   * @retval HAL status
 110:./Libraries/STM32F4xx_HAL_Driver/Src/stm32f4xx_hal_timebase_rtc_alarm_template.c ****   */
 111:./Libraries/STM32F4xx_HAL_Driver/Src/stm32f4xx_hal_timebase_rtc_alarm_template.c **** HAL_StatusTypeDef HAL_InitTick (uint32_t TickPriority)
 112:./Libraries/STM32F4xx_HAL_Driver/Src/stm32f4xx_hal_timebase_rtc_alarm_template.c **** {
  36              		.loc 1 112 1
  37              		.cfi_startproc
  38              		@ args = 0, pretend = 0, frame = 112
  39              		@ frame_needed = 1, uses_anonymous_args = 0
  40 0000 80B5     		push	{r7, lr}
  41              	.LCFI0:
  42              		.cfi_def_cfa_offset 8
  43              		.cfi_offset 7, -8
  44              		.cfi_offset 14, -4
  45 0002 9CB0     		sub	sp, sp, #112
  46              	.LCFI1:
  47              		.cfi_def_cfa_offset 120
  48 0004 00AF     		add	r7, sp, #0
  49              	.LCFI2:
  50              		.cfi_def_cfa_register 7
  51 0006 7860     		str	r0, [r7, #4]
 113:./Libraries/STM32F4xx_HAL_Driver/Src/stm32f4xx_hal_timebase_rtc_alarm_template.c ****   __IO uint32_t counter = 0U;
  52              		.loc 1 113 17
  53 0008 0023     		movs	r3, #0
  54 000a FB66     		str	r3, [r7, #108]
 114:./Libraries/STM32F4xx_HAL_Driver/Src/stm32f4xx_hal_timebase_rtc_alarm_template.c **** 
 115:./Libraries/STM32F4xx_HAL_Driver/Src/stm32f4xx_hal_timebase_rtc_alarm_template.c ****   RCC_OscInitTypeDef        RCC_OscInitStruct;
 116:./Libraries/STM32F4xx_HAL_Driver/Src/stm32f4xx_hal_timebase_rtc_alarm_template.c ****   RCC_PeriphCLKInitTypeDef  PeriphClkInitStruct;
ARM GAS  /tmp/cc63z5Jm.s 			page 4


 117:./Libraries/STM32F4xx_HAL_Driver/Src/stm32f4xx_hal_timebase_rtc_alarm_template.c **** 
 118:./Libraries/STM32F4xx_HAL_Driver/Src/stm32f4xx_hal_timebase_rtc_alarm_template.c **** #ifdef RTC_CLOCK_SOURCE_LSE
 119:./Libraries/STM32F4xx_HAL_Driver/Src/stm32f4xx_hal_timebase_rtc_alarm_template.c ****   /* Configue LSE as RTC clock soucre */
 120:./Libraries/STM32F4xx_HAL_Driver/Src/stm32f4xx_hal_timebase_rtc_alarm_template.c ****   RCC_OscInitStruct.OscillatorType = RCC_OSCILLATORTYPE_LSE;
 121:./Libraries/STM32F4xx_HAL_Driver/Src/stm32f4xx_hal_timebase_rtc_alarm_template.c ****   RCC_OscInitStruct.PLL.PLLState = RCC_PLL_NONE;
 122:./Libraries/STM32F4xx_HAL_Driver/Src/stm32f4xx_hal_timebase_rtc_alarm_template.c ****   RCC_OscInitStruct.LSEState = RCC_LSE_ON;
 123:./Libraries/STM32F4xx_HAL_Driver/Src/stm32f4xx_hal_timebase_rtc_alarm_template.c ****   PeriphClkInitStruct.RTCClockSelection = RCC_RTCCLKSOURCE_LSE;
 124:./Libraries/STM32F4xx_HAL_Driver/Src/stm32f4xx_hal_timebase_rtc_alarm_template.c **** #elif defined (RTC_CLOCK_SOURCE_LSI)
 125:./Libraries/STM32F4xx_HAL_Driver/Src/stm32f4xx_hal_timebase_rtc_alarm_template.c ****   /* Configue LSI as RTC clock soucre */
 126:./Libraries/STM32F4xx_HAL_Driver/Src/stm32f4xx_hal_timebase_rtc_alarm_template.c ****   RCC_OscInitStruct.OscillatorType = RCC_OSCILLATORTYPE_LSI;
 127:./Libraries/STM32F4xx_HAL_Driver/Src/stm32f4xx_hal_timebase_rtc_alarm_template.c ****   RCC_OscInitStruct.PLL.PLLState = RCC_PLL_NONE;
 128:./Libraries/STM32F4xx_HAL_Driver/Src/stm32f4xx_hal_timebase_rtc_alarm_template.c ****   RCC_OscInitStruct.LSIState = RCC_LSI_ON;
 129:./Libraries/STM32F4xx_HAL_Driver/Src/stm32f4xx_hal_timebase_rtc_alarm_template.c ****   PeriphClkInitStruct.RTCClockSelection = RCC_RTCCLKSOURCE_LSI;
 130:./Libraries/STM32F4xx_HAL_Driver/Src/stm32f4xx_hal_timebase_rtc_alarm_template.c **** #elif defined (RTC_CLOCK_SOURCE_HSE)
 131:./Libraries/STM32F4xx_HAL_Driver/Src/stm32f4xx_hal_timebase_rtc_alarm_template.c ****   /* Configue HSE as RTC clock soucre */
 132:./Libraries/STM32F4xx_HAL_Driver/Src/stm32f4xx_hal_timebase_rtc_alarm_template.c ****   RCC_OscInitStruct.OscillatorType = RCC_OSCILLATORTYPE_HSE;
  55              		.loc 1 132 36
  56 000c 0123     		movs	r3, #1
  57 000e FB63     		str	r3, [r7, #60]
 133:./Libraries/STM32F4xx_HAL_Driver/Src/stm32f4xx_hal_timebase_rtc_alarm_template.c ****   RCC_OscInitStruct.PLL.PLLState = RCC_PLL_NONE;
  58              		.loc 1 133 34
  59 0010 0023     		movs	r3, #0
  60 0012 7B65     		str	r3, [r7, #84]
 134:./Libraries/STM32F4xx_HAL_Driver/Src/stm32f4xx_hal_timebase_rtc_alarm_template.c ****   RCC_OscInitStruct.HSEState = RCC_HSE_ON;
  61              		.loc 1 134 30
  62 0014 4FF48033 		mov	r3, #65536
  63 0018 3B64     		str	r3, [r7, #64]
 135:./Libraries/STM32F4xx_HAL_Driver/Src/stm32f4xx_hal_timebase_rtc_alarm_template.c ****   /* Ensure that RTC is clocked by 1MHz */
 136:./Libraries/STM32F4xx_HAL_Driver/Src/stm32f4xx_hal_timebase_rtc_alarm_template.c ****   PeriphClkInitStruct.RTCClockSelection = RCC_RTCCLKSOURCE_1MHZ;
  64              		.loc 1 136 41
  65 001a 634B     		ldr	r3, .L10
  66 001c 7B63     		str	r3, [r7, #52]
 137:./Libraries/STM32F4xx_HAL_Driver/Src/stm32f4xx_hal_timebase_rtc_alarm_template.c **** #else
 138:./Libraries/STM32F4xx_HAL_Driver/Src/stm32f4xx_hal_timebase_rtc_alarm_template.c **** #error Please select the RTC Clock source
 139:./Libraries/STM32F4xx_HAL_Driver/Src/stm32f4xx_hal_timebase_rtc_alarm_template.c **** #endif /* RTC_CLOCK_SOURCE_LSE */
 140:./Libraries/STM32F4xx_HAL_Driver/Src/stm32f4xx_hal_timebase_rtc_alarm_template.c **** 
 141:./Libraries/STM32F4xx_HAL_Driver/Src/stm32f4xx_hal_timebase_rtc_alarm_template.c ****   if(HAL_RCC_OscConfig(&RCC_OscInitStruct) == HAL_OK)
  67              		.loc 1 141 6
  68 001e 07F13C03 		add	r3, r7, #60
  69 0022 1846     		mov	r0, r3
  70 0024 FFF7FEFF 		bl	HAL_RCC_OscConfig
  71 0028 0346     		mov	r3, r0
  72              		.loc 1 141 5
  73 002a 002B     		cmp	r3, #0
  74 002c 40F0B780 		bne	.L2
 142:./Libraries/STM32F4xx_HAL_Driver/Src/stm32f4xx_hal_timebase_rtc_alarm_template.c ****   {
 143:./Libraries/STM32F4xx_HAL_Driver/Src/stm32f4xx_hal_timebase_rtc_alarm_template.c ****     PeriphClkInitStruct.PeriphClockSelection = RCC_PERIPHCLK_RTC;
  75              		.loc 1 143 46
  76 0030 2023     		movs	r3, #32
  77 0032 FB60     		str	r3, [r7, #12]
 144:./Libraries/STM32F4xx_HAL_Driver/Src/stm32f4xx_hal_timebase_rtc_alarm_template.c ****     if(HAL_RCCEx_PeriphCLKConfig(&PeriphClkInitStruct) == HAL_OK)
  78              		.loc 1 144 8
  79 0034 07F10C03 		add	r3, r7, #12
  80 0038 1846     		mov	r0, r3
  81 003a FFF7FEFF 		bl	HAL_RCCEx_PeriphCLKConfig
  82 003e 0346     		mov	r3, r0
  83              		.loc 1 144 7
ARM GAS  /tmp/cc63z5Jm.s 			page 5


  84 0040 002B     		cmp	r3, #0
  85 0042 40F0AC80 		bne	.L2
 145:./Libraries/STM32F4xx_HAL_Driver/Src/stm32f4xx_hal_timebase_rtc_alarm_template.c ****     {
 146:./Libraries/STM32F4xx_HAL_Driver/Src/stm32f4xx_hal_timebase_rtc_alarm_template.c ****       /* Enable RTC Clock */
 147:./Libraries/STM32F4xx_HAL_Driver/Src/stm32f4xx_hal_timebase_rtc_alarm_template.c ****       __HAL_RCC_RTC_ENABLE();
  86              		.loc 1 147 7
  87 0046 594B     		ldr	r3, .L10+4
  88 0048 0122     		movs	r2, #1
  89 004a 1A60     		str	r2, [r3]
 148:./Libraries/STM32F4xx_HAL_Driver/Src/stm32f4xx_hal_timebase_rtc_alarm_template.c ****       /* The time base should be 1ms
 149:./Libraries/STM32F4xx_HAL_Driver/Src/stm32f4xx_hal_timebase_rtc_alarm_template.c ****          Time base = ((RTC_ASYNCH_PREDIV + 1) * (RTC_SYNCH_PREDIV + 1)) / RTC_CLOCK 
 150:./Libraries/STM32F4xx_HAL_Driver/Src/stm32f4xx_hal_timebase_rtc_alarm_template.c ****          HSE as RTC clock 
 151:./Libraries/STM32F4xx_HAL_Driver/Src/stm32f4xx_hal_timebase_rtc_alarm_template.c ****            Time base = ((99 + 1) * (9 + 1)) / 1MHz
 152:./Libraries/STM32F4xx_HAL_Driver/Src/stm32f4xx_hal_timebase_rtc_alarm_template.c ****                      = 1ms
 153:./Libraries/STM32F4xx_HAL_Driver/Src/stm32f4xx_hal_timebase_rtc_alarm_template.c ****          LSE as RTC clock 
 154:./Libraries/STM32F4xx_HAL_Driver/Src/stm32f4xx_hal_timebase_rtc_alarm_template.c ****            Time base = ((31 + 1) * (0 + 1)) / 32.768KHz
 155:./Libraries/STM32F4xx_HAL_Driver/Src/stm32f4xx_hal_timebase_rtc_alarm_template.c ****                      = ~1ms
 156:./Libraries/STM32F4xx_HAL_Driver/Src/stm32f4xx_hal_timebase_rtc_alarm_template.c ****          LSI as RTC clock 
 157:./Libraries/STM32F4xx_HAL_Driver/Src/stm32f4xx_hal_timebase_rtc_alarm_template.c ****            Time base = ((31 + 1) * (0 + 1)) / 32KHz
 158:./Libraries/STM32F4xx_HAL_Driver/Src/stm32f4xx_hal_timebase_rtc_alarm_template.c ****                      = 1ms
 159:./Libraries/STM32F4xx_HAL_Driver/Src/stm32f4xx_hal_timebase_rtc_alarm_template.c ****       */
 160:./Libraries/STM32F4xx_HAL_Driver/Src/stm32f4xx_hal_timebase_rtc_alarm_template.c ****       hRTC_Handle.Instance = RTC;
  90              		.loc 1 160 28
  91 004c 584B     		ldr	r3, .L10+8
  92 004e 594A     		ldr	r2, .L10+12
  93 0050 1A60     		str	r2, [r3]
 161:./Libraries/STM32F4xx_HAL_Driver/Src/stm32f4xx_hal_timebase_rtc_alarm_template.c ****       hRTC_Handle.Init.HourFormat = RTC_HOURFORMAT_24;
  94              		.loc 1 161 35
  95 0052 574B     		ldr	r3, .L10+8
  96 0054 0022     		movs	r2, #0
  97 0056 5A60     		str	r2, [r3, #4]
 162:./Libraries/STM32F4xx_HAL_Driver/Src/stm32f4xx_hal_timebase_rtc_alarm_template.c ****       hRTC_Handle.Init.AsynchPrediv = RTC_ASYNCH_PREDIV;
  98              		.loc 1 162 37
  99 0058 554B     		ldr	r3, .L10+8
 100 005a 6322     		movs	r2, #99
 101 005c 9A60     		str	r2, [r3, #8]
 163:./Libraries/STM32F4xx_HAL_Driver/Src/stm32f4xx_hal_timebase_rtc_alarm_template.c ****       hRTC_Handle.Init.SynchPrediv = RTC_SYNCH_PREDIV;
 102              		.loc 1 163 36
 103 005e 544B     		ldr	r3, .L10+8
 104 0060 0922     		movs	r2, #9
 105 0062 DA60     		str	r2, [r3, #12]
 164:./Libraries/STM32F4xx_HAL_Driver/Src/stm32f4xx_hal_timebase_rtc_alarm_template.c ****       hRTC_Handle.Init.OutPut = RTC_OUTPUT_DISABLE;
 106              		.loc 1 164 31
 107 0064 524B     		ldr	r3, .L10+8
 108 0066 0022     		movs	r2, #0
 109 0068 1A61     		str	r2, [r3, #16]
 165:./Libraries/STM32F4xx_HAL_Driver/Src/stm32f4xx_hal_timebase_rtc_alarm_template.c ****       hRTC_Handle.Init.OutPutPolarity = RTC_OUTPUT_POLARITY_HIGH;
 110              		.loc 1 165 39
 111 006a 514B     		ldr	r3, .L10+8
 112 006c 0022     		movs	r2, #0
 113 006e 5A61     		str	r2, [r3, #20]
 166:./Libraries/STM32F4xx_HAL_Driver/Src/stm32f4xx_hal_timebase_rtc_alarm_template.c ****       hRTC_Handle.Init.OutPutType = RTC_OUTPUT_TYPE_OPENDRAIN;
 114              		.loc 1 166 35
 115 0070 4F4B     		ldr	r3, .L10+8
 116 0072 0022     		movs	r2, #0
 117 0074 9A61     		str	r2, [r3, #24]
 167:./Libraries/STM32F4xx_HAL_Driver/Src/stm32f4xx_hal_timebase_rtc_alarm_template.c ****       HAL_RTC_Init(&hRTC_Handle);
ARM GAS  /tmp/cc63z5Jm.s 			page 6


 118              		.loc 1 167 7
 119 0076 4E48     		ldr	r0, .L10+8
 120 0078 FFF7FEFF 		bl	HAL_RTC_Init
 168:./Libraries/STM32F4xx_HAL_Driver/Src/stm32f4xx_hal_timebase_rtc_alarm_template.c **** 
 169:./Libraries/STM32F4xx_HAL_Driver/Src/stm32f4xx_hal_timebase_rtc_alarm_template.c ****       /* Disable the write protection for RTC registers */
 170:./Libraries/STM32F4xx_HAL_Driver/Src/stm32f4xx_hal_timebase_rtc_alarm_template.c ****       __HAL_RTC_WRITEPROTECTION_DISABLE(&hRTC_Handle);
 121              		.loc 1 170 7
 122 007c 4C4B     		ldr	r3, .L10+8
 123 007e 1B68     		ldr	r3, [r3]
 124 0080 CA22     		movs	r2, #202
 125 0082 5A62     		str	r2, [r3, #36]
 126 0084 4A4B     		ldr	r3, .L10+8
 127 0086 1B68     		ldr	r3, [r3]
 128 0088 5322     		movs	r2, #83
 129 008a 5A62     		str	r2, [r3, #36]
 171:./Libraries/STM32F4xx_HAL_Driver/Src/stm32f4xx_hal_timebase_rtc_alarm_template.c **** 
 172:./Libraries/STM32F4xx_HAL_Driver/Src/stm32f4xx_hal_timebase_rtc_alarm_template.c ****       /* Disable the Alarm A interrupt */
 173:./Libraries/STM32F4xx_HAL_Driver/Src/stm32f4xx_hal_timebase_rtc_alarm_template.c ****       __HAL_RTC_ALARMA_DISABLE(&hRTC_Handle);
 130              		.loc 1 173 7
 131 008c 484B     		ldr	r3, .L10+8
 132 008e 1B68     		ldr	r3, [r3]
 133 0090 9A68     		ldr	r2, [r3, #8]
 134 0092 474B     		ldr	r3, .L10+8
 135 0094 1B68     		ldr	r3, [r3]
 136 0096 22F48072 		bic	r2, r2, #256
 137 009a 9A60     		str	r2, [r3, #8]
 174:./Libraries/STM32F4xx_HAL_Driver/Src/stm32f4xx_hal_timebase_rtc_alarm_template.c **** 
 175:./Libraries/STM32F4xx_HAL_Driver/Src/stm32f4xx_hal_timebase_rtc_alarm_template.c ****       /* Clear flag alarm A */
 176:./Libraries/STM32F4xx_HAL_Driver/Src/stm32f4xx_hal_timebase_rtc_alarm_template.c ****       __HAL_RTC_ALARM_CLEAR_FLAG(&hRTC_Handle, RTC_FLAG_ALRAF);
 138              		.loc 1 176 7
 139 009c 444B     		ldr	r3, .L10+8
 140 009e 1B68     		ldr	r3, [r3]
 141 00a0 DB68     		ldr	r3, [r3, #12]
 142 00a2 DAB2     		uxtb	r2, r3
 143 00a4 424B     		ldr	r3, .L10+8
 144 00a6 1B68     		ldr	r3, [r3]
 145 00a8 62F4C072 		orn	r2, r2, #384
 146 00ac DA60     		str	r2, [r3, #12]
 177:./Libraries/STM32F4xx_HAL_Driver/Src/stm32f4xx_hal_timebase_rtc_alarm_template.c **** 
 178:./Libraries/STM32F4xx_HAL_Driver/Src/stm32f4xx_hal_timebase_rtc_alarm_template.c ****       counter = 0U;
 147              		.loc 1 178 15
 148 00ae 0023     		movs	r3, #0
 149 00b0 FB66     		str	r3, [r7, #108]
 179:./Libraries/STM32F4xx_HAL_Driver/Src/stm32f4xx_hal_timebase_rtc_alarm_template.c ****       /* Wait till RTC ALRAWF flag is set and if Time out is reached exit */
 180:./Libraries/STM32F4xx_HAL_Driver/Src/stm32f4xx_hal_timebase_rtc_alarm_template.c ****       while(__HAL_RTC_ALARM_GET_FLAG(&hRTC_Handle, RTC_FLAG_ALRAWF) == RESET)
 150              		.loc 1 180 12
 151 00b2 0CE0     		b	.L3
 152              	.L5:
 181:./Libraries/STM32F4xx_HAL_Driver/Src/stm32f4xx_hal_timebase_rtc_alarm_template.c ****       {
 182:./Libraries/STM32F4xx_HAL_Driver/Src/stm32f4xx_hal_timebase_rtc_alarm_template.c ****         if(counter++ == (SystemCoreClock /48U)) /* Timeout = ~ 1s */
 153              		.loc 1 182 19
 154 00b4 FB6E     		ldr	r3, [r7, #108]
 155 00b6 5A1C     		adds	r2, r3, #1
 156 00b8 FA66     		str	r2, [r7, #108]
 157              		.loc 1 182 42
 158 00ba 3F4A     		ldr	r2, .L10+16
 159 00bc 1268     		ldr	r2, [r2]
ARM GAS  /tmp/cc63z5Jm.s 			page 7


 160 00be 3F49     		ldr	r1, .L10+20
 161 00c0 A1FB0212 		umull	r1, r2, r1, r2
 162 00c4 5209     		lsrs	r2, r2, #5
 163              		.loc 1 182 11
 164 00c6 9342     		cmp	r3, r2
 165 00c8 01D1     		bne	.L3
 183:./Libraries/STM32F4xx_HAL_Driver/Src/stm32f4xx_hal_timebase_rtc_alarm_template.c ****         {
 184:./Libraries/STM32F4xx_HAL_Driver/Src/stm32f4xx_hal_timebase_rtc_alarm_template.c ****           return HAL_ERROR;
 166              		.loc 1 184 18
 167 00ca 0123     		movs	r3, #1
 168 00cc 68E0     		b	.L9
 169              	.L3:
 180:./Libraries/STM32F4xx_HAL_Driver/Src/stm32f4xx_hal_timebase_rtc_alarm_template.c ****       {
 170              		.loc 1 180 13
 171 00ce 384B     		ldr	r3, .L10+8
 172 00d0 1B68     		ldr	r3, [r3]
 173 00d2 DB68     		ldr	r3, [r3, #12]
 174 00d4 03F00103 		and	r3, r3, #1
 180:./Libraries/STM32F4xx_HAL_Driver/Src/stm32f4xx_hal_timebase_rtc_alarm_template.c ****       {
 175              		.loc 1 180 12
 176 00d8 002B     		cmp	r3, #0
 177 00da EBD0     		beq	.L5
 185:./Libraries/STM32F4xx_HAL_Driver/Src/stm32f4xx_hal_timebase_rtc_alarm_template.c ****         }
 186:./Libraries/STM32F4xx_HAL_Driver/Src/stm32f4xx_hal_timebase_rtc_alarm_template.c ****       }
 187:./Libraries/STM32F4xx_HAL_Driver/Src/stm32f4xx_hal_timebase_rtc_alarm_template.c **** 
 188:./Libraries/STM32F4xx_HAL_Driver/Src/stm32f4xx_hal_timebase_rtc_alarm_template.c ****       hRTC_Handle.Instance->ALRMAR = (uint32_t)0x01U;
 178              		.loc 1 188 18
 179 00dc 344B     		ldr	r3, .L10+8
 180 00de 1B68     		ldr	r3, [r3]
 181              		.loc 1 188 36
 182 00e0 0122     		movs	r2, #1
 183 00e2 DA61     		str	r2, [r3, #28]
 189:./Libraries/STM32F4xx_HAL_Driver/Src/stm32f4xx_hal_timebase_rtc_alarm_template.c **** 
 190:./Libraries/STM32F4xx_HAL_Driver/Src/stm32f4xx_hal_timebase_rtc_alarm_template.c ****       /* Configure the Alarm state: Enable Alarm */
 191:./Libraries/STM32F4xx_HAL_Driver/Src/stm32f4xx_hal_timebase_rtc_alarm_template.c ****       __HAL_RTC_ALARMA_ENABLE(&hRTC_Handle);
 184              		.loc 1 191 7
 185 00e4 324B     		ldr	r3, .L10+8
 186 00e6 1B68     		ldr	r3, [r3]
 187 00e8 9A68     		ldr	r2, [r3, #8]
 188 00ea 314B     		ldr	r3, .L10+8
 189 00ec 1B68     		ldr	r3, [r3]
 190 00ee 42F48072 		orr	r2, r2, #256
 191 00f2 9A60     		str	r2, [r3, #8]
 192:./Libraries/STM32F4xx_HAL_Driver/Src/stm32f4xx_hal_timebase_rtc_alarm_template.c ****       /* Configure the Alarm interrupt */
 193:./Libraries/STM32F4xx_HAL_Driver/Src/stm32f4xx_hal_timebase_rtc_alarm_template.c ****       __HAL_RTC_ALARM_ENABLE_IT(&hRTC_Handle, RTC_IT_ALRA);
 192              		.loc 1 193 7
 193 00f4 2E4B     		ldr	r3, .L10+8
 194 00f6 1B68     		ldr	r3, [r3]
 195 00f8 9A68     		ldr	r2, [r3, #8]
 196 00fa 2D4B     		ldr	r3, .L10+8
 197 00fc 1B68     		ldr	r3, [r3]
 198 00fe 42F48052 		orr	r2, r2, #4096
 199 0102 9A60     		str	r2, [r3, #8]
 194:./Libraries/STM32F4xx_HAL_Driver/Src/stm32f4xx_hal_timebase_rtc_alarm_template.c **** 
 195:./Libraries/STM32F4xx_HAL_Driver/Src/stm32f4xx_hal_timebase_rtc_alarm_template.c ****       /* RTC Alarm Interrupt Configuration: EXTI configuration */
 196:./Libraries/STM32F4xx_HAL_Driver/Src/stm32f4xx_hal_timebase_rtc_alarm_template.c ****       __HAL_RTC_ALARM_EXTI_ENABLE_IT();
 200              		.loc 1 196 7
ARM GAS  /tmp/cc63z5Jm.s 			page 8


 201 0104 2E4B     		ldr	r3, .L10+24
 202 0106 1B68     		ldr	r3, [r3]
 203 0108 2D4A     		ldr	r2, .L10+24
 204 010a 43F40033 		orr	r3, r3, #131072
 205 010e 1360     		str	r3, [r2]
 197:./Libraries/STM32F4xx_HAL_Driver/Src/stm32f4xx_hal_timebase_rtc_alarm_template.c ****       __HAL_RTC_ALARM_EXTI_ENABLE_RISING_EDGE();
 206              		.loc 1 197 7
 207 0110 2B4B     		ldr	r3, .L10+24
 208 0112 9B68     		ldr	r3, [r3, #8]
 209 0114 2A4A     		ldr	r2, .L10+24
 210 0116 43F40033 		orr	r3, r3, #131072
 211 011a 9360     		str	r3, [r2, #8]
 198:./Libraries/STM32F4xx_HAL_Driver/Src/stm32f4xx_hal_timebase_rtc_alarm_template.c **** 
 199:./Libraries/STM32F4xx_HAL_Driver/Src/stm32f4xx_hal_timebase_rtc_alarm_template.c ****       /* Check if the Initialization mode is set */
 200:./Libraries/STM32F4xx_HAL_Driver/Src/stm32f4xx_hal_timebase_rtc_alarm_template.c ****       if((hRTC_Handle.Instance->ISR & RTC_ISR_INITF) == (uint32_t)RESET)
 212              		.loc 1 200 22
 213 011c 244B     		ldr	r3, .L10+8
 214 011e 1B68     		ldr	r3, [r3]
 215              		.loc 1 200 31
 216 0120 DB68     		ldr	r3, [r3, #12]
 217              		.loc 1 200 37
 218 0122 03F04003 		and	r3, r3, #64
 219              		.loc 1 200 9
 220 0126 002B     		cmp	r3, #0
 221 0128 1BD1     		bne	.L6
 201:./Libraries/STM32F4xx_HAL_Driver/Src/stm32f4xx_hal_timebase_rtc_alarm_template.c ****       {
 202:./Libraries/STM32F4xx_HAL_Driver/Src/stm32f4xx_hal_timebase_rtc_alarm_template.c ****         /* Set the Initialization mode */
 203:./Libraries/STM32F4xx_HAL_Driver/Src/stm32f4xx_hal_timebase_rtc_alarm_template.c ****         hRTC_Handle.Instance->ISR = (uint32_t)RTC_INIT_MASK;
 222              		.loc 1 203 20
 223 012a 214B     		ldr	r3, .L10+8
 224 012c 1B68     		ldr	r3, [r3]
 225              		.loc 1 203 35
 226 012e 4FF0FF32 		mov	r2, #-1
 227 0132 DA60     		str	r2, [r3, #12]
 204:./Libraries/STM32F4xx_HAL_Driver/Src/stm32f4xx_hal_timebase_rtc_alarm_template.c ****         counter = 0U;
 228              		.loc 1 204 17
 229 0134 0023     		movs	r3, #0
 230 0136 FB66     		str	r3, [r7, #108]
 205:./Libraries/STM32F4xx_HAL_Driver/Src/stm32f4xx_hal_timebase_rtc_alarm_template.c ****         while((hRTC_Handle.Instance->ISR & RTC_ISR_INITF) == (uint32_t)RESET)
 231              		.loc 1 205 14
 232 0138 0CE0     		b	.L7
 233              	.L8:
 206:./Libraries/STM32F4xx_HAL_Driver/Src/stm32f4xx_hal_timebase_rtc_alarm_template.c ****         {
 207:./Libraries/STM32F4xx_HAL_Driver/Src/stm32f4xx_hal_timebase_rtc_alarm_template.c ****           if(counter++ == (SystemCoreClock /48U)) /* Timeout = ~ 1s */
 234              		.loc 1 207 21
 235 013a FB6E     		ldr	r3, [r7, #108]
 236 013c 5A1C     		adds	r2, r3, #1
 237 013e FA66     		str	r2, [r7, #108]
 238              		.loc 1 207 44
 239 0140 1D4A     		ldr	r2, .L10+16
 240 0142 1268     		ldr	r2, [r2]
 241 0144 1D49     		ldr	r1, .L10+20
 242 0146 A1FB0212 		umull	r1, r2, r1, r2
 243 014a 5209     		lsrs	r2, r2, #5
 244              		.loc 1 207 13
 245 014c 9342     		cmp	r3, r2
 246 014e 01D1     		bne	.L7
ARM GAS  /tmp/cc63z5Jm.s 			page 9


 208:./Libraries/STM32F4xx_HAL_Driver/Src/stm32f4xx_hal_timebase_rtc_alarm_template.c ****           {
 209:./Libraries/STM32F4xx_HAL_Driver/Src/stm32f4xx_hal_timebase_rtc_alarm_template.c ****             return HAL_ERROR;
 247              		.loc 1 209 20
 248 0150 0123     		movs	r3, #1
 249 0152 25E0     		b	.L9
 250              	.L7:
 205:./Libraries/STM32F4xx_HAL_Driver/Src/stm32f4xx_hal_timebase_rtc_alarm_template.c ****         {
 251              		.loc 1 205 27
 252 0154 164B     		ldr	r3, .L10+8
 253 0156 1B68     		ldr	r3, [r3]
 205:./Libraries/STM32F4xx_HAL_Driver/Src/stm32f4xx_hal_timebase_rtc_alarm_template.c ****         {
 254              		.loc 1 205 36
 255 0158 DB68     		ldr	r3, [r3, #12]
 205:./Libraries/STM32F4xx_HAL_Driver/Src/stm32f4xx_hal_timebase_rtc_alarm_template.c ****         {
 256              		.loc 1 205 42
 257 015a 03F04003 		and	r3, r3, #64
 205:./Libraries/STM32F4xx_HAL_Driver/Src/stm32f4xx_hal_timebase_rtc_alarm_template.c ****         {
 258              		.loc 1 205 14
 259 015e 002B     		cmp	r3, #0
 260 0160 EBD0     		beq	.L8
 261              	.L6:
 210:./Libraries/STM32F4xx_HAL_Driver/Src/stm32f4xx_hal_timebase_rtc_alarm_template.c ****           }
 211:./Libraries/STM32F4xx_HAL_Driver/Src/stm32f4xx_hal_timebase_rtc_alarm_template.c ****         }
 212:./Libraries/STM32F4xx_HAL_Driver/Src/stm32f4xx_hal_timebase_rtc_alarm_template.c ****       }
 213:./Libraries/STM32F4xx_HAL_Driver/Src/stm32f4xx_hal_timebase_rtc_alarm_template.c ****       hRTC_Handle.Instance->DR = 0U;
 262              		.loc 1 213 18
 263 0162 134B     		ldr	r3, .L10+8
 264 0164 1B68     		ldr	r3, [r3]
 265              		.loc 1 213 32
 266 0166 0022     		movs	r2, #0
 267 0168 5A60     		str	r2, [r3, #4]
 214:./Libraries/STM32F4xx_HAL_Driver/Src/stm32f4xx_hal_timebase_rtc_alarm_template.c ****       hRTC_Handle.Instance->TR = 0U;
 268              		.loc 1 214 18
 269 016a 114B     		ldr	r3, .L10+8
 270 016c 1B68     		ldr	r3, [r3]
 271              		.loc 1 214 32
 272 016e 0022     		movs	r2, #0
 273 0170 1A60     		str	r2, [r3]
 215:./Libraries/STM32F4xx_HAL_Driver/Src/stm32f4xx_hal_timebase_rtc_alarm_template.c **** 
 216:./Libraries/STM32F4xx_HAL_Driver/Src/stm32f4xx_hal_timebase_rtc_alarm_template.c ****       hRTC_Handle.Instance->ISR &= (uint32_t)~RTC_ISR_INIT;
 274              		.loc 1 216 18
 275 0172 0F4B     		ldr	r3, .L10+8
 276 0174 1B68     		ldr	r3, [r3]
 277              		.loc 1 216 33
 278 0176 DA68     		ldr	r2, [r3, #12]
 279              		.loc 1 216 18
 280 0178 0D4B     		ldr	r3, .L10+8
 281 017a 1B68     		ldr	r3, [r3]
 282              		.loc 1 216 33
 283 017c 22F08002 		bic	r2, r2, #128
 284 0180 DA60     		str	r2, [r3, #12]
 217:./Libraries/STM32F4xx_HAL_Driver/Src/stm32f4xx_hal_timebase_rtc_alarm_template.c **** 
 218:./Libraries/STM32F4xx_HAL_Driver/Src/stm32f4xx_hal_timebase_rtc_alarm_template.c ****       /* Enable the write protection for RTC registers */
 219:./Libraries/STM32F4xx_HAL_Driver/Src/stm32f4xx_hal_timebase_rtc_alarm_template.c ****       __HAL_RTC_WRITEPROTECTION_ENABLE(&hRTC_Handle);
 285              		.loc 1 219 7
 286 0182 0B4B     		ldr	r3, .L10+8
 287 0184 1B68     		ldr	r3, [r3]
ARM GAS  /tmp/cc63z5Jm.s 			page 10


 288 0186 FF22     		movs	r2, #255
 289 0188 5A62     		str	r2, [r3, #36]
 220:./Libraries/STM32F4xx_HAL_Driver/Src/stm32f4xx_hal_timebase_rtc_alarm_template.c **** 
 221:./Libraries/STM32F4xx_HAL_Driver/Src/stm32f4xx_hal_timebase_rtc_alarm_template.c ****       HAL_NVIC_SetPriority(RTC_Alarm_IRQn, TickPriority, 0U);
 290              		.loc 1 221 7
 291 018a 0022     		movs	r2, #0
 292 018c 7968     		ldr	r1, [r7, #4]
 293 018e 2920     		movs	r0, #41
 294 0190 FFF7FEFF 		bl	HAL_NVIC_SetPriority
 222:./Libraries/STM32F4xx_HAL_Driver/Src/stm32f4xx_hal_timebase_rtc_alarm_template.c ****       HAL_NVIC_EnableIRQ(RTC_Alarm_IRQn);
 295              		.loc 1 222 7
 296 0194 2920     		movs	r0, #41
 297 0196 FFF7FEFF 		bl	HAL_NVIC_EnableIRQ
 223:./Libraries/STM32F4xx_HAL_Driver/Src/stm32f4xx_hal_timebase_rtc_alarm_template.c ****       return HAL_OK;
 298              		.loc 1 223 14
 299 019a 0023     		movs	r3, #0
 300 019c 00E0     		b	.L9
 301              	.L2:
 224:./Libraries/STM32F4xx_HAL_Driver/Src/stm32f4xx_hal_timebase_rtc_alarm_template.c ****     }
 225:./Libraries/STM32F4xx_HAL_Driver/Src/stm32f4xx_hal_timebase_rtc_alarm_template.c ****   }
 226:./Libraries/STM32F4xx_HAL_Driver/Src/stm32f4xx_hal_timebase_rtc_alarm_template.c ****   return HAL_ERROR;
 302              		.loc 1 226 10
 303 019e 0123     		movs	r3, #1
 304              	.L9:
 227:./Libraries/STM32F4xx_HAL_Driver/Src/stm32f4xx_hal_timebase_rtc_alarm_template.c **** }
 305              		.loc 1 227 1 discriminator 1
 306 01a0 1846     		mov	r0, r3
 307 01a2 7037     		adds	r7, r7, #112
 308              	.LCFI3:
 309              		.cfi_def_cfa_offset 8
 310 01a4 BD46     		mov	sp, r7
 311              	.LCFI4:
 312              		.cfi_def_cfa_register 13
 313              		@ sp needed
 314 01a6 80BD     		pop	{r7, pc}
 315              	.L11:
 316              		.align	2
 317              	.L10:
 318 01a8 00031900 		.word	1639168
 319 01ac 3C0E4742 		.word	1111952956
 320 01b0 00000000 		.word	hRTC_Handle
 321 01b4 00280040 		.word	1073752064
 322 01b8 00000000 		.word	SystemCoreClock
 323 01bc ABAAAAAA 		.word	-1431655765
 324 01c0 003C0140 		.word	1073822720
 325              		.cfi_endproc
 326              	.LFE126:
 328              		.section	.text.HAL_SuspendTick,"ax",%progbits
 329              		.align	1
 330              		.global	HAL_SuspendTick
 331              		.syntax unified
 332              		.thumb
 333              		.thumb_func
 334              		.fpu fpv4-sp-d16
 336              	HAL_SuspendTick:
 337              	.LFB127:
 228:./Libraries/STM32F4xx_HAL_Driver/Src/stm32f4xx_hal_timebase_rtc_alarm_template.c **** 
ARM GAS  /tmp/cc63z5Jm.s 			page 11


 229:./Libraries/STM32F4xx_HAL_Driver/Src/stm32f4xx_hal_timebase_rtc_alarm_template.c **** /**
 230:./Libraries/STM32F4xx_HAL_Driver/Src/stm32f4xx_hal_timebase_rtc_alarm_template.c ****   * @brief  Suspend Tick increment.
 231:./Libraries/STM32F4xx_HAL_Driver/Src/stm32f4xx_hal_timebase_rtc_alarm_template.c ****   * @note   Disable the tick increment by disabling RTC ALARM interrupt.
 232:./Libraries/STM32F4xx_HAL_Driver/Src/stm32f4xx_hal_timebase_rtc_alarm_template.c ****   * @retval None
 233:./Libraries/STM32F4xx_HAL_Driver/Src/stm32f4xx_hal_timebase_rtc_alarm_template.c ****   */
 234:./Libraries/STM32F4xx_HAL_Driver/Src/stm32f4xx_hal_timebase_rtc_alarm_template.c **** void HAL_SuspendTick(void)
 235:./Libraries/STM32F4xx_HAL_Driver/Src/stm32f4xx_hal_timebase_rtc_alarm_template.c **** {
 338              		.loc 1 235 1
 339              		.cfi_startproc
 340              		@ args = 0, pretend = 0, frame = 0
 341              		@ frame_needed = 1, uses_anonymous_args = 0
 342              		@ link register save eliminated.
 343 0000 80B4     		push	{r7}
 344              	.LCFI5:
 345              		.cfi_def_cfa_offset 4
 346              		.cfi_offset 7, -4
 347 0002 00AF     		add	r7, sp, #0
 348              	.LCFI6:
 349              		.cfi_def_cfa_register 7
 236:./Libraries/STM32F4xx_HAL_Driver/Src/stm32f4xx_hal_timebase_rtc_alarm_template.c ****   /* Disable the write protection for RTC registers */
 237:./Libraries/STM32F4xx_HAL_Driver/Src/stm32f4xx_hal_timebase_rtc_alarm_template.c ****   __HAL_RTC_WRITEPROTECTION_DISABLE(&hRTC_Handle);
 350              		.loc 1 237 3
 351 0004 0C4B     		ldr	r3, .L13
 352 0006 1B68     		ldr	r3, [r3]
 353 0008 CA22     		movs	r2, #202
 354 000a 5A62     		str	r2, [r3, #36]
 355 000c 0A4B     		ldr	r3, .L13
 356 000e 1B68     		ldr	r3, [r3]
 357 0010 5322     		movs	r2, #83
 358 0012 5A62     		str	r2, [r3, #36]
 238:./Libraries/STM32F4xx_HAL_Driver/Src/stm32f4xx_hal_timebase_rtc_alarm_template.c ****   /* Disable RTC ALARM update Interrupt */
 239:./Libraries/STM32F4xx_HAL_Driver/Src/stm32f4xx_hal_timebase_rtc_alarm_template.c ****   __HAL_RTC_ALARM_DISABLE_IT(&hRTC_Handle, RTC_IT_ALRA);
 359              		.loc 1 239 3
 360 0014 084B     		ldr	r3, .L13
 361 0016 1B68     		ldr	r3, [r3]
 362 0018 9A68     		ldr	r2, [r3, #8]
 363 001a 074B     		ldr	r3, .L13
 364 001c 1B68     		ldr	r3, [r3]
 365 001e 22F48052 		bic	r2, r2, #4096
 366 0022 9A60     		str	r2, [r3, #8]
 240:./Libraries/STM32F4xx_HAL_Driver/Src/stm32f4xx_hal_timebase_rtc_alarm_template.c ****   /* Enable the write protection for RTC registers */
 241:./Libraries/STM32F4xx_HAL_Driver/Src/stm32f4xx_hal_timebase_rtc_alarm_template.c ****   __HAL_RTC_WRITEPROTECTION_ENABLE(&hRTC_Handle);
 367              		.loc 1 241 3
 368 0024 044B     		ldr	r3, .L13
 369 0026 1B68     		ldr	r3, [r3]
 370 0028 FF22     		movs	r2, #255
 371 002a 5A62     		str	r2, [r3, #36]
 242:./Libraries/STM32F4xx_HAL_Driver/Src/stm32f4xx_hal_timebase_rtc_alarm_template.c **** }
 372              		.loc 1 242 1
 373 002c 00BF     		nop
 374 002e BD46     		mov	sp, r7
 375              	.LCFI7:
 376              		.cfi_def_cfa_register 13
 377              		@ sp needed
 378 0030 5DF8047B 		ldr	r7, [sp], #4
 379              	.LCFI8:
 380              		.cfi_restore 7
ARM GAS  /tmp/cc63z5Jm.s 			page 12


 381              		.cfi_def_cfa_offset 0
 382 0034 7047     		bx	lr
 383              	.L14:
 384 0036 00BF     		.align	2
 385              	.L13:
 386 0038 00000000 		.word	hRTC_Handle
 387              		.cfi_endproc
 388              	.LFE127:
 390              		.section	.text.HAL_ResumeTick,"ax",%progbits
 391              		.align	1
 392              		.global	HAL_ResumeTick
 393              		.syntax unified
 394              		.thumb
 395              		.thumb_func
 396              		.fpu fpv4-sp-d16
 398              	HAL_ResumeTick:
 399              	.LFB128:
 243:./Libraries/STM32F4xx_HAL_Driver/Src/stm32f4xx_hal_timebase_rtc_alarm_template.c **** 
 244:./Libraries/STM32F4xx_HAL_Driver/Src/stm32f4xx_hal_timebase_rtc_alarm_template.c **** /**
 245:./Libraries/STM32F4xx_HAL_Driver/Src/stm32f4xx_hal_timebase_rtc_alarm_template.c ****   * @brief  Resume Tick increment.
 246:./Libraries/STM32F4xx_HAL_Driver/Src/stm32f4xx_hal_timebase_rtc_alarm_template.c ****   * @note   Enable the tick increment by Enabling RTC ALARM interrupt.
 247:./Libraries/STM32F4xx_HAL_Driver/Src/stm32f4xx_hal_timebase_rtc_alarm_template.c ****   * @retval None
 248:./Libraries/STM32F4xx_HAL_Driver/Src/stm32f4xx_hal_timebase_rtc_alarm_template.c ****   */
 249:./Libraries/STM32F4xx_HAL_Driver/Src/stm32f4xx_hal_timebase_rtc_alarm_template.c **** void HAL_ResumeTick(void)
 250:./Libraries/STM32F4xx_HAL_Driver/Src/stm32f4xx_hal_timebase_rtc_alarm_template.c **** {
 400              		.loc 1 250 1
 401              		.cfi_startproc
 402              		@ args = 0, pretend = 0, frame = 0
 403              		@ frame_needed = 1, uses_anonymous_args = 0
 404              		@ link register save eliminated.
 405 0000 80B4     		push	{r7}
 406              	.LCFI9:
 407              		.cfi_def_cfa_offset 4
 408              		.cfi_offset 7, -4
 409 0002 00AF     		add	r7, sp, #0
 410              	.LCFI10:
 411              		.cfi_def_cfa_register 7
 251:./Libraries/STM32F4xx_HAL_Driver/Src/stm32f4xx_hal_timebase_rtc_alarm_template.c ****   /* Disable the write protection for RTC registers */
 252:./Libraries/STM32F4xx_HAL_Driver/Src/stm32f4xx_hal_timebase_rtc_alarm_template.c ****   __HAL_RTC_WRITEPROTECTION_DISABLE(&hRTC_Handle);
 412              		.loc 1 252 3
 413 0004 0C4B     		ldr	r3, .L16
 414 0006 1B68     		ldr	r3, [r3]
 415 0008 CA22     		movs	r2, #202
 416 000a 5A62     		str	r2, [r3, #36]
 417 000c 0A4B     		ldr	r3, .L16
 418 000e 1B68     		ldr	r3, [r3]
 419 0010 5322     		movs	r2, #83
 420 0012 5A62     		str	r2, [r3, #36]
 253:./Libraries/STM32F4xx_HAL_Driver/Src/stm32f4xx_hal_timebase_rtc_alarm_template.c ****   /* Enable RTC ALARM Update interrupt */
 254:./Libraries/STM32F4xx_HAL_Driver/Src/stm32f4xx_hal_timebase_rtc_alarm_template.c ****   __HAL_RTC_ALARM_ENABLE_IT(&hRTC_Handle, RTC_IT_ALRA);
 421              		.loc 1 254 3
 422 0014 084B     		ldr	r3, .L16
 423 0016 1B68     		ldr	r3, [r3]
 424 0018 9A68     		ldr	r2, [r3, #8]
 425 001a 074B     		ldr	r3, .L16
 426 001c 1B68     		ldr	r3, [r3]
 427 001e 42F48052 		orr	r2, r2, #4096
ARM GAS  /tmp/cc63z5Jm.s 			page 13


 428 0022 9A60     		str	r2, [r3, #8]
 255:./Libraries/STM32F4xx_HAL_Driver/Src/stm32f4xx_hal_timebase_rtc_alarm_template.c ****   /* Enable the write protection for RTC registers */
 256:./Libraries/STM32F4xx_HAL_Driver/Src/stm32f4xx_hal_timebase_rtc_alarm_template.c ****   __HAL_RTC_WRITEPROTECTION_ENABLE(&hRTC_Handle);
 429              		.loc 1 256 3
 430 0024 044B     		ldr	r3, .L16
 431 0026 1B68     		ldr	r3, [r3]
 432 0028 FF22     		movs	r2, #255
 433 002a 5A62     		str	r2, [r3, #36]
 257:./Libraries/STM32F4xx_HAL_Driver/Src/stm32f4xx_hal_timebase_rtc_alarm_template.c **** }
 434              		.loc 1 257 1
 435 002c 00BF     		nop
 436 002e BD46     		mov	sp, r7
 437              	.LCFI11:
 438              		.cfi_def_cfa_register 13
 439              		@ sp needed
 440 0030 5DF8047B 		ldr	r7, [sp], #4
 441              	.LCFI12:
 442              		.cfi_restore 7
 443              		.cfi_def_cfa_offset 0
 444 0034 7047     		bx	lr
 445              	.L17:
 446 0036 00BF     		.align	2
 447              	.L16:
 448 0038 00000000 		.word	hRTC_Handle
 449              		.cfi_endproc
 450              	.LFE128:
 452              		.section	.text.HAL_RTC_AlarmAEventCallback,"ax",%progbits
 453              		.align	1
 454              		.global	HAL_RTC_AlarmAEventCallback
 455              		.syntax unified
 456              		.thumb
 457              		.thumb_func
 458              		.fpu fpv4-sp-d16
 460              	HAL_RTC_AlarmAEventCallback:
 461              	.LFB129:
 258:./Libraries/STM32F4xx_HAL_Driver/Src/stm32f4xx_hal_timebase_rtc_alarm_template.c **** 
 259:./Libraries/STM32F4xx_HAL_Driver/Src/stm32f4xx_hal_timebase_rtc_alarm_template.c **** /**
 260:./Libraries/STM32F4xx_HAL_Driver/Src/stm32f4xx_hal_timebase_rtc_alarm_template.c ****   * @brief  ALARM A Event Callback in non blocking mode
 261:./Libraries/STM32F4xx_HAL_Driver/Src/stm32f4xx_hal_timebase_rtc_alarm_template.c ****   * @note   This function is called  when RTC_ALARM interrupt took place, inside
 262:./Libraries/STM32F4xx_HAL_Driver/Src/stm32f4xx_hal_timebase_rtc_alarm_template.c ****   * RTC_ALARM_IRQHandler(). It makes a direct call to HAL_IncTick() to increment
 263:./Libraries/STM32F4xx_HAL_Driver/Src/stm32f4xx_hal_timebase_rtc_alarm_template.c ****   * a global variable "uwTick" used as application time base.
 264:./Libraries/STM32F4xx_HAL_Driver/Src/stm32f4xx_hal_timebase_rtc_alarm_template.c ****   * @param  hrtc  RTC handle
 265:./Libraries/STM32F4xx_HAL_Driver/Src/stm32f4xx_hal_timebase_rtc_alarm_template.c ****   * @retval None
 266:./Libraries/STM32F4xx_HAL_Driver/Src/stm32f4xx_hal_timebase_rtc_alarm_template.c ****   */
 267:./Libraries/STM32F4xx_HAL_Driver/Src/stm32f4xx_hal_timebase_rtc_alarm_template.c **** void HAL_RTC_AlarmAEventCallback(RTC_HandleTypeDef *hrtc)
 268:./Libraries/STM32F4xx_HAL_Driver/Src/stm32f4xx_hal_timebase_rtc_alarm_template.c **** {
 462              		.loc 1 268 1
 463              		.cfi_startproc
 464              		@ args = 0, pretend = 0, frame = 16
 465              		@ frame_needed = 1, uses_anonymous_args = 0
 466 0000 80B5     		push	{r7, lr}
 467              	.LCFI13:
 468              		.cfi_def_cfa_offset 8
 469              		.cfi_offset 7, -8
 470              		.cfi_offset 14, -4
 471 0002 84B0     		sub	sp, sp, #16
 472              	.LCFI14:
ARM GAS  /tmp/cc63z5Jm.s 			page 14


 473              		.cfi_def_cfa_offset 24
 474 0004 00AF     		add	r7, sp, #0
 475              	.LCFI15:
 476              		.cfi_def_cfa_register 7
 477 0006 7860     		str	r0, [r7, #4]
 269:./Libraries/STM32F4xx_HAL_Driver/Src/stm32f4xx_hal_timebase_rtc_alarm_template.c ****   __IO uint32_t counter = 0U;
 478              		.loc 1 269 17
 479 0008 0023     		movs	r3, #0
 480 000a FB60     		str	r3, [r7, #12]
 270:./Libraries/STM32F4xx_HAL_Driver/Src/stm32f4xx_hal_timebase_rtc_alarm_template.c **** 
 271:./Libraries/STM32F4xx_HAL_Driver/Src/stm32f4xx_hal_timebase_rtc_alarm_template.c ****   HAL_IncTick();
 481              		.loc 1 271 3
 482 000c FFF7FEFF 		bl	HAL_IncTick
 272:./Libraries/STM32F4xx_HAL_Driver/Src/stm32f4xx_hal_timebase_rtc_alarm_template.c **** 
 273:./Libraries/STM32F4xx_HAL_Driver/Src/stm32f4xx_hal_timebase_rtc_alarm_template.c ****   __HAL_RTC_WRITEPROTECTION_DISABLE(hrtc);
 483              		.loc 1 273 3
 484 0010 7B68     		ldr	r3, [r7, #4]
 485 0012 1B68     		ldr	r3, [r3]
 486 0014 CA22     		movs	r2, #202
 487 0016 5A62     		str	r2, [r3, #36]
 488 0018 7B68     		ldr	r3, [r7, #4]
 489 001a 1B68     		ldr	r3, [r3]
 490 001c 5322     		movs	r2, #83
 491 001e 5A62     		str	r2, [r3, #36]
 274:./Libraries/STM32F4xx_HAL_Driver/Src/stm32f4xx_hal_timebase_rtc_alarm_template.c **** 
 275:./Libraries/STM32F4xx_HAL_Driver/Src/stm32f4xx_hal_timebase_rtc_alarm_template.c ****   /* Set the Initialization mode */
 276:./Libraries/STM32F4xx_HAL_Driver/Src/stm32f4xx_hal_timebase_rtc_alarm_template.c ****   hrtc->Instance->ISR = (uint32_t)RTC_INIT_MASK;
 492              		.loc 1 276 7
 493 0020 7B68     		ldr	r3, [r7, #4]
 494 0022 1B68     		ldr	r3, [r3]
 495              		.loc 1 276 23
 496 0024 4FF0FF32 		mov	r2, #-1
 497 0028 DA60     		str	r2, [r3, #12]
 277:./Libraries/STM32F4xx_HAL_Driver/Src/stm32f4xx_hal_timebase_rtc_alarm_template.c **** 
 278:./Libraries/STM32F4xx_HAL_Driver/Src/stm32f4xx_hal_timebase_rtc_alarm_template.c ****   while((hrtc->Instance->ISR & RTC_ISR_INITF) == (uint32_t)RESET)
 498              		.loc 1 278 8
 499 002a 0AE0     		b	.L19
 500              	.L21:
 279:./Libraries/STM32F4xx_HAL_Driver/Src/stm32f4xx_hal_timebase_rtc_alarm_template.c ****   {
 280:./Libraries/STM32F4xx_HAL_Driver/Src/stm32f4xx_hal_timebase_rtc_alarm_template.c ****     if(counter++ == (SystemCoreClock /48U)) /* Timeout = ~ 1s */
 501              		.loc 1 280 15
 502 002c FB68     		ldr	r3, [r7, #12]
 503 002e 5A1C     		adds	r2, r3, #1
 504 0030 FA60     		str	r2, [r7, #12]
 505              		.loc 1 280 38
 506 0032 144A     		ldr	r2, .L23
 507 0034 1268     		ldr	r2, [r2]
 508 0036 1449     		ldr	r1, .L23+4
 509 0038 A1FB0212 		umull	r1, r2, r1, r2
 510 003c 5209     		lsrs	r2, r2, #5
 511              		.loc 1 280 7
 512 003e 9342     		cmp	r3, r2
 513 0040 07D0     		beq	.L22
 514              	.L19:
 278:./Libraries/STM32F4xx_HAL_Driver/Src/stm32f4xx_hal_timebase_rtc_alarm_template.c ****   {
 515              		.loc 1 278 14
 516 0042 7B68     		ldr	r3, [r7, #4]
ARM GAS  /tmp/cc63z5Jm.s 			page 15


 517 0044 1B68     		ldr	r3, [r3]
 278:./Libraries/STM32F4xx_HAL_Driver/Src/stm32f4xx_hal_timebase_rtc_alarm_template.c ****   {
 518              		.loc 1 278 24
 519 0046 DB68     		ldr	r3, [r3, #12]
 278:./Libraries/STM32F4xx_HAL_Driver/Src/stm32f4xx_hal_timebase_rtc_alarm_template.c ****   {
 520              		.loc 1 278 30
 521 0048 03F04003 		and	r3, r3, #64
 278:./Libraries/STM32F4xx_HAL_Driver/Src/stm32f4xx_hal_timebase_rtc_alarm_template.c ****   {
 522              		.loc 1 278 8
 523 004c 002B     		cmp	r3, #0
 524 004e EDD0     		beq	.L21
 525 0050 00E0     		b	.L20
 526              	.L22:
 281:./Libraries/STM32F4xx_HAL_Driver/Src/stm32f4xx_hal_timebase_rtc_alarm_template.c ****     {
 282:./Libraries/STM32F4xx_HAL_Driver/Src/stm32f4xx_hal_timebase_rtc_alarm_template.c ****       break;
 527              		.loc 1 282 7
 528 0052 00BF     		nop
 529              	.L20:
 283:./Libraries/STM32F4xx_HAL_Driver/Src/stm32f4xx_hal_timebase_rtc_alarm_template.c ****     }
 284:./Libraries/STM32F4xx_HAL_Driver/Src/stm32f4xx_hal_timebase_rtc_alarm_template.c ****   }
 285:./Libraries/STM32F4xx_HAL_Driver/Src/stm32f4xx_hal_timebase_rtc_alarm_template.c **** 
 286:./Libraries/STM32F4xx_HAL_Driver/Src/stm32f4xx_hal_timebase_rtc_alarm_template.c ****   hrtc->Instance->DR = 0U;
 530              		.loc 1 286 7
 531 0054 7B68     		ldr	r3, [r7, #4]
 532 0056 1B68     		ldr	r3, [r3]
 533              		.loc 1 286 22
 534 0058 0022     		movs	r2, #0
 535 005a 5A60     		str	r2, [r3, #4]
 287:./Libraries/STM32F4xx_HAL_Driver/Src/stm32f4xx_hal_timebase_rtc_alarm_template.c ****   hrtc->Instance->TR = 0U;
 536              		.loc 1 287 7
 537 005c 7B68     		ldr	r3, [r7, #4]
 538 005e 1B68     		ldr	r3, [r3]
 539              		.loc 1 287 22
 540 0060 0022     		movs	r2, #0
 541 0062 1A60     		str	r2, [r3]
 288:./Libraries/STM32F4xx_HAL_Driver/Src/stm32f4xx_hal_timebase_rtc_alarm_template.c **** 
 289:./Libraries/STM32F4xx_HAL_Driver/Src/stm32f4xx_hal_timebase_rtc_alarm_template.c ****   hrtc->Instance->ISR &= (uint32_t)~RTC_ISR_INIT;
 542              		.loc 1 289 7
 543 0064 7B68     		ldr	r3, [r7, #4]
 544 0066 1B68     		ldr	r3, [r3]
 545              		.loc 1 289 23
 546 0068 DA68     		ldr	r2, [r3, #12]
 547              		.loc 1 289 7
 548 006a 7B68     		ldr	r3, [r7, #4]
 549 006c 1B68     		ldr	r3, [r3]
 550              		.loc 1 289 23
 551 006e 22F08002 		bic	r2, r2, #128
 552 0072 DA60     		str	r2, [r3, #12]
 290:./Libraries/STM32F4xx_HAL_Driver/Src/stm32f4xx_hal_timebase_rtc_alarm_template.c **** 
 291:./Libraries/STM32F4xx_HAL_Driver/Src/stm32f4xx_hal_timebase_rtc_alarm_template.c ****   /* Enable the write protection for RTC registers */
 292:./Libraries/STM32F4xx_HAL_Driver/Src/stm32f4xx_hal_timebase_rtc_alarm_template.c ****   __HAL_RTC_WRITEPROTECTION_ENABLE(hrtc);
 553              		.loc 1 292 3
 554 0074 7B68     		ldr	r3, [r7, #4]
 555 0076 1B68     		ldr	r3, [r3]
 556 0078 FF22     		movs	r2, #255
 557 007a 5A62     		str	r2, [r3, #36]
 293:./Libraries/STM32F4xx_HAL_Driver/Src/stm32f4xx_hal_timebase_rtc_alarm_template.c **** }
ARM GAS  /tmp/cc63z5Jm.s 			page 16


 558              		.loc 1 293 1
 559 007c 00BF     		nop
 560 007e 1037     		adds	r7, r7, #16
 561              	.LCFI16:
 562              		.cfi_def_cfa_offset 8
 563 0080 BD46     		mov	sp, r7
 564              	.LCFI17:
 565              		.cfi_def_cfa_register 13
 566              		@ sp needed
 567 0082 80BD     		pop	{r7, pc}
 568              	.L24:
 569              		.align	2
 570              	.L23:
 571 0084 00000000 		.word	SystemCoreClock
 572 0088 ABAAAAAA 		.word	-1431655765
 573              		.cfi_endproc
 574              	.LFE129:
 576              		.section	.text.RTC_Alarm_IRQHandler,"ax",%progbits
 577              		.align	1
 578              		.global	RTC_Alarm_IRQHandler
 579              		.syntax unified
 580              		.thumb
 581              		.thumb_func
 582              		.fpu fpv4-sp-d16
 584              	RTC_Alarm_IRQHandler:
 585              	.LFB130:
 294:./Libraries/STM32F4xx_HAL_Driver/Src/stm32f4xx_hal_timebase_rtc_alarm_template.c **** 
 295:./Libraries/STM32F4xx_HAL_Driver/Src/stm32f4xx_hal_timebase_rtc_alarm_template.c **** /**
 296:./Libraries/STM32F4xx_HAL_Driver/Src/stm32f4xx_hal_timebase_rtc_alarm_template.c ****   * @brief  This function handles RTC ALARM interrupt request.
 297:./Libraries/STM32F4xx_HAL_Driver/Src/stm32f4xx_hal_timebase_rtc_alarm_template.c ****   * @retval None
 298:./Libraries/STM32F4xx_HAL_Driver/Src/stm32f4xx_hal_timebase_rtc_alarm_template.c ****   */
 299:./Libraries/STM32F4xx_HAL_Driver/Src/stm32f4xx_hal_timebase_rtc_alarm_template.c **** void RTC_Alarm_IRQHandler(void)
 300:./Libraries/STM32F4xx_HAL_Driver/Src/stm32f4xx_hal_timebase_rtc_alarm_template.c **** {
 586              		.loc 1 300 1
 587              		.cfi_startproc
 588              		@ args = 0, pretend = 0, frame = 0
 589              		@ frame_needed = 1, uses_anonymous_args = 0
 590 0000 80B5     		push	{r7, lr}
 591              	.LCFI18:
 592              		.cfi_def_cfa_offset 8
 593              		.cfi_offset 7, -8
 594              		.cfi_offset 14, -4
 595 0002 00AF     		add	r7, sp, #0
 596              	.LCFI19:
 597              		.cfi_def_cfa_register 7
 301:./Libraries/STM32F4xx_HAL_Driver/Src/stm32f4xx_hal_timebase_rtc_alarm_template.c ****   HAL_RTC_AlarmIRQHandler(&hRTC_Handle);
 598              		.loc 1 301 3
 599 0004 0248     		ldr	r0, .L26
 600 0006 FFF7FEFF 		bl	HAL_RTC_AlarmIRQHandler
 302:./Libraries/STM32F4xx_HAL_Driver/Src/stm32f4xx_hal_timebase_rtc_alarm_template.c **** }
 601              		.loc 1 302 1
 602 000a 00BF     		nop
 603 000c 80BD     		pop	{r7, pc}
 604              	.L27:
 605 000e 00BF     		.align	2
 606              	.L26:
 607 0010 00000000 		.word	hRTC_Handle
ARM GAS  /tmp/cc63z5Jm.s 			page 17


 608              		.cfi_endproc
 609              	.LFE130:
 611              		.text
 612              	.Letext0:
 613              		.file 2 "/home/hao/Documents/gcc-arm-none-eabi/arm-none-eabi/include/machine/_default_types.h"
 614              		.file 3 "/home/hao/Documents/gcc-arm-none-eabi/arm-none-eabi/include/sys/_stdint.h"
 615              		.file 4 "./Libraries/CMSIS/Device/ST/STM32F4xx/Include/stm32f429xx.h"
 616              		.file 5 "./Libraries/CMSIS/Device/ST/STM32F4xx/Include/stm32f4xx.h"
 617              		.file 6 "./Libraries/STM32F4xx_HAL_Driver/Inc/stm32f4xx_hal_def.h"
 618              		.file 7 "./Libraries/STM32F4xx_HAL_Driver/Inc/stm32f4xx_hal_rcc_ex.h"
 619              		.file 8 "./Libraries/STM32F4xx_HAL_Driver/Inc/stm32f4xx_hal_rcc.h"
 620              		.file 9 "./Libraries/STM32F4xx_HAL_Driver/Inc/stm32f4xx_hal_rtc.h"
 621              		.file 10 "./Libraries/CMSIS/Device/ST/STM32F4xx/Include/system_stm32f4xx.h"
ARM GAS  /tmp/cc63z5Jm.s 			page 18

