ARM GAS  /tmp/cciLPtso.s 			page 1


   1              		.cpu cortex-m4
   2              		.eabi_attribute 27, 1
   3              		.eabi_attribute 28, 1
   4              		.eabi_attribute 20, 1
   5              		.eabi_attribute 21, 1
   6              		.eabi_attribute 23, 3
   7              		.eabi_attribute 24, 1
   8              		.eabi_attribute 25, 1
   9              		.eabi_attribute 26, 1
  10              		.eabi_attribute 30, 6
  11              		.eabi_attribute 34, 1
  12              		.eabi_attribute 18, 4
  13              		.file	"stm32f4xx_hal_adc_ex.c"
  14              		.text
  15              	.Ltext0:
  16              		.cfi_sections	.debug_frame
  17              		.section	.text.HAL_ADCEx_InjectedStart,"ax",%progbits
  18              		.align	1
  19              		.global	HAL_ADCEx_InjectedStart
  20              		.arch armv7e-m
  21              		.syntax unified
  22              		.thumb
  23              		.thumb_func
  24              		.fpu fpv4-sp-d16
  26              	HAL_ADCEx_InjectedStart:
  27              	.LFB126:
  28              		.file 1 "./Libraries/STM32F4xx_HAL_Driver/Src/stm32f4xx_hal_adc_ex.c"
   1:./Libraries/STM32F4xx_HAL_Driver/Src/stm32f4xx_hal_adc_ex.c **** /**
   2:./Libraries/STM32F4xx_HAL_Driver/Src/stm32f4xx_hal_adc_ex.c ****   ******************************************************************************
   3:./Libraries/STM32F4xx_HAL_Driver/Src/stm32f4xx_hal_adc_ex.c ****   * @file    stm32f4xx_hal_adc_ex.c
   4:./Libraries/STM32F4xx_HAL_Driver/Src/stm32f4xx_hal_adc_ex.c ****   * @author  MCD Application Team
   5:./Libraries/STM32F4xx_HAL_Driver/Src/stm32f4xx_hal_adc_ex.c ****   * @brief   This file provides firmware functions to manage the following 
   6:./Libraries/STM32F4xx_HAL_Driver/Src/stm32f4xx_hal_adc_ex.c ****   *          functionalities of the ADC extension peripheral:
   7:./Libraries/STM32F4xx_HAL_Driver/Src/stm32f4xx_hal_adc_ex.c ****   *           + Extended features functions
   8:./Libraries/STM32F4xx_HAL_Driver/Src/stm32f4xx_hal_adc_ex.c ****   *         
   9:./Libraries/STM32F4xx_HAL_Driver/Src/stm32f4xx_hal_adc_ex.c ****   @verbatim
  10:./Libraries/STM32F4xx_HAL_Driver/Src/stm32f4xx_hal_adc_ex.c ****   ==============================================================================
  11:./Libraries/STM32F4xx_HAL_Driver/Src/stm32f4xx_hal_adc_ex.c ****                     ##### How to use this driver #####
  12:./Libraries/STM32F4xx_HAL_Driver/Src/stm32f4xx_hal_adc_ex.c ****   ==============================================================================
  13:./Libraries/STM32F4xx_HAL_Driver/Src/stm32f4xx_hal_adc_ex.c ****     [..]
  14:./Libraries/STM32F4xx_HAL_Driver/Src/stm32f4xx_hal_adc_ex.c ****     (#)Initialize the ADC low level resources by implementing the HAL_ADC_MspInit():
  15:./Libraries/STM32F4xx_HAL_Driver/Src/stm32f4xx_hal_adc_ex.c ****        (##) Enable the ADC interface clock using __HAL_RCC_ADC_CLK_ENABLE()
  16:./Libraries/STM32F4xx_HAL_Driver/Src/stm32f4xx_hal_adc_ex.c ****        (##) ADC pins configuration
  17:./Libraries/STM32F4xx_HAL_Driver/Src/stm32f4xx_hal_adc_ex.c ****              (+++) Enable the clock for the ADC GPIOs using the following function:
  18:./Libraries/STM32F4xx_HAL_Driver/Src/stm32f4xx_hal_adc_ex.c ****                    __HAL_RCC_GPIOx_CLK_ENABLE()  
  19:./Libraries/STM32F4xx_HAL_Driver/Src/stm32f4xx_hal_adc_ex.c ****              (+++) Configure these ADC pins in analog mode using HAL_GPIO_Init() 
  20:./Libraries/STM32F4xx_HAL_Driver/Src/stm32f4xx_hal_adc_ex.c ****        (##) In case of using interrupts (e.g. HAL_ADC_Start_IT())
  21:./Libraries/STM32F4xx_HAL_Driver/Src/stm32f4xx_hal_adc_ex.c ****              (+++) Configure the ADC interrupt priority using HAL_NVIC_SetPriority()
  22:./Libraries/STM32F4xx_HAL_Driver/Src/stm32f4xx_hal_adc_ex.c ****              (+++) Enable the ADC IRQ handler using HAL_NVIC_EnableIRQ()
  23:./Libraries/STM32F4xx_HAL_Driver/Src/stm32f4xx_hal_adc_ex.c ****              (+++) In ADC IRQ handler, call HAL_ADC_IRQHandler()
  24:./Libraries/STM32F4xx_HAL_Driver/Src/stm32f4xx_hal_adc_ex.c ****       (##) In case of using DMA to control data transfer (e.g. HAL_ADC_Start_DMA())
  25:./Libraries/STM32F4xx_HAL_Driver/Src/stm32f4xx_hal_adc_ex.c ****              (+++) Enable the DMAx interface clock using __HAL_RCC_DMAx_CLK_ENABLE()
  26:./Libraries/STM32F4xx_HAL_Driver/Src/stm32f4xx_hal_adc_ex.c ****              (+++) Configure and enable two DMA streams stream for managing data
  27:./Libraries/STM32F4xx_HAL_Driver/Src/stm32f4xx_hal_adc_ex.c ****                  transfer from peripheral to memory (output stream)
  28:./Libraries/STM32F4xx_HAL_Driver/Src/stm32f4xx_hal_adc_ex.c ****              (+++) Associate the initialized DMA handle to the ADC DMA handle
  29:./Libraries/STM32F4xx_HAL_Driver/Src/stm32f4xx_hal_adc_ex.c ****                  using  __HAL_LINKDMA()
  30:./Libraries/STM32F4xx_HAL_Driver/Src/stm32f4xx_hal_adc_ex.c ****              (+++) Configure the priority and enable the NVIC for the transfer complete
ARM GAS  /tmp/cciLPtso.s 			page 2


  31:./Libraries/STM32F4xx_HAL_Driver/Src/stm32f4xx_hal_adc_ex.c ****                  interrupt on the two DMA Streams. The output stream should have higher
  32:./Libraries/STM32F4xx_HAL_Driver/Src/stm32f4xx_hal_adc_ex.c ****                  priority than the input stream.
  33:./Libraries/STM32F4xx_HAL_Driver/Src/stm32f4xx_hal_adc_ex.c ****      (#) Configure the ADC Prescaler, conversion resolution and data alignment 
  34:./Libraries/STM32F4xx_HAL_Driver/Src/stm32f4xx_hal_adc_ex.c ****          using the HAL_ADC_Init() function. 
  35:./Libraries/STM32F4xx_HAL_Driver/Src/stm32f4xx_hal_adc_ex.c ****   
  36:./Libraries/STM32F4xx_HAL_Driver/Src/stm32f4xx_hal_adc_ex.c ****      (#) Configure the ADC Injected channels group features, use HAL_ADC_Init()
  37:./Libraries/STM32F4xx_HAL_Driver/Src/stm32f4xx_hal_adc_ex.c ****          and HAL_ADC_ConfigChannel() functions.
  38:./Libraries/STM32F4xx_HAL_Driver/Src/stm32f4xx_hal_adc_ex.c ****          
  39:./Libraries/STM32F4xx_HAL_Driver/Src/stm32f4xx_hal_adc_ex.c ****      (#) Three operation modes are available within this driver :     
  40:./Libraries/STM32F4xx_HAL_Driver/Src/stm32f4xx_hal_adc_ex.c ****   
  41:./Libraries/STM32F4xx_HAL_Driver/Src/stm32f4xx_hal_adc_ex.c ****      *** Polling mode IO operation ***
  42:./Libraries/STM32F4xx_HAL_Driver/Src/stm32f4xx_hal_adc_ex.c ****      =================================
  43:./Libraries/STM32F4xx_HAL_Driver/Src/stm32f4xx_hal_adc_ex.c ****      [..]    
  44:./Libraries/STM32F4xx_HAL_Driver/Src/stm32f4xx_hal_adc_ex.c ****        (+) Start the ADC peripheral using HAL_ADCEx_InjectedStart() 
  45:./Libraries/STM32F4xx_HAL_Driver/Src/stm32f4xx_hal_adc_ex.c ****        (+) Wait for end of conversion using HAL_ADC_PollForConversion(), at this stage
  46:./Libraries/STM32F4xx_HAL_Driver/Src/stm32f4xx_hal_adc_ex.c ****            user can specify the value of timeout according to his end application      
  47:./Libraries/STM32F4xx_HAL_Driver/Src/stm32f4xx_hal_adc_ex.c ****        (+) To read the ADC converted values, use the HAL_ADCEx_InjectedGetValue() function.
  48:./Libraries/STM32F4xx_HAL_Driver/Src/stm32f4xx_hal_adc_ex.c ****        (+) Stop the ADC peripheral using HAL_ADCEx_InjectedStop()
  49:./Libraries/STM32F4xx_HAL_Driver/Src/stm32f4xx_hal_adc_ex.c ****   
  50:./Libraries/STM32F4xx_HAL_Driver/Src/stm32f4xx_hal_adc_ex.c ****      *** Interrupt mode IO operation ***    
  51:./Libraries/STM32F4xx_HAL_Driver/Src/stm32f4xx_hal_adc_ex.c ****      ===================================
  52:./Libraries/STM32F4xx_HAL_Driver/Src/stm32f4xx_hal_adc_ex.c ****      [..]    
  53:./Libraries/STM32F4xx_HAL_Driver/Src/stm32f4xx_hal_adc_ex.c ****        (+) Start the ADC peripheral using HAL_ADCEx_InjectedStart_IT() 
  54:./Libraries/STM32F4xx_HAL_Driver/Src/stm32f4xx_hal_adc_ex.c ****        (+) Use HAL_ADC_IRQHandler() called under ADC_IRQHandler() Interrupt subroutine
  55:./Libraries/STM32F4xx_HAL_Driver/Src/stm32f4xx_hal_adc_ex.c ****        (+) At ADC end of conversion HAL_ADCEx_InjectedConvCpltCallback() function is executed and u
  56:./Libraries/STM32F4xx_HAL_Driver/Src/stm32f4xx_hal_adc_ex.c ****             add his own code by customization of function pointer HAL_ADCEx_InjectedConvCpltCallbac
  57:./Libraries/STM32F4xx_HAL_Driver/Src/stm32f4xx_hal_adc_ex.c ****        (+) In case of ADC Error, HAL_ADCEx_InjectedErrorCallback() function is executed and user ca
  58:./Libraries/STM32F4xx_HAL_Driver/Src/stm32f4xx_hal_adc_ex.c ****             add his own code by customization of function pointer HAL_ADCEx_InjectedErrorCallback
  59:./Libraries/STM32F4xx_HAL_Driver/Src/stm32f4xx_hal_adc_ex.c ****        (+) Stop the ADC peripheral using HAL_ADCEx_InjectedStop_IT()
  60:./Libraries/STM32F4xx_HAL_Driver/Src/stm32f4xx_hal_adc_ex.c ****        
  61:./Libraries/STM32F4xx_HAL_Driver/Src/stm32f4xx_hal_adc_ex.c ****             
  62:./Libraries/STM32F4xx_HAL_Driver/Src/stm32f4xx_hal_adc_ex.c ****      *** DMA mode IO operation ***    
  63:./Libraries/STM32F4xx_HAL_Driver/Src/stm32f4xx_hal_adc_ex.c ****      ==============================
  64:./Libraries/STM32F4xx_HAL_Driver/Src/stm32f4xx_hal_adc_ex.c ****      [..]    
  65:./Libraries/STM32F4xx_HAL_Driver/Src/stm32f4xx_hal_adc_ex.c ****        (+) Start the ADC peripheral using HAL_ADCEx_InjectedStart_DMA(), at this stage the user spe
  66:./Libraries/STM32F4xx_HAL_Driver/Src/stm32f4xx_hal_adc_ex.c ****            of data to be transferred at each end of conversion 
  67:./Libraries/STM32F4xx_HAL_Driver/Src/stm32f4xx_hal_adc_ex.c ****        (+) At The end of data transfer ba HAL_ADCEx_InjectedConvCpltCallback() function is executed
  68:./Libraries/STM32F4xx_HAL_Driver/Src/stm32f4xx_hal_adc_ex.c ****             add his own code by customization of function pointer HAL_ADCEx_InjectedConvCpltCallbac
  69:./Libraries/STM32F4xx_HAL_Driver/Src/stm32f4xx_hal_adc_ex.c ****        (+) In case of transfer Error, HAL_ADCEx_InjectedErrorCallback() function is executed and us
  70:./Libraries/STM32F4xx_HAL_Driver/Src/stm32f4xx_hal_adc_ex.c ****             add his own code by customization of function pointer HAL_ADCEx_InjectedErrorCallback
  71:./Libraries/STM32F4xx_HAL_Driver/Src/stm32f4xx_hal_adc_ex.c ****         (+) Stop the ADC peripheral using HAL_ADCEx_InjectedStop_DMA()
  72:./Libraries/STM32F4xx_HAL_Driver/Src/stm32f4xx_hal_adc_ex.c ****         
  73:./Libraries/STM32F4xx_HAL_Driver/Src/stm32f4xx_hal_adc_ex.c ****      *** Multi mode ADCs Regular channels configuration ***
  74:./Libraries/STM32F4xx_HAL_Driver/Src/stm32f4xx_hal_adc_ex.c ****      ======================================================
  75:./Libraries/STM32F4xx_HAL_Driver/Src/stm32f4xx_hal_adc_ex.c ****      [..]        
  76:./Libraries/STM32F4xx_HAL_Driver/Src/stm32f4xx_hal_adc_ex.c ****        (+) Select the Multi mode ADC regular channels features (dual or triple mode)  
  77:./Libraries/STM32F4xx_HAL_Driver/Src/stm32f4xx_hal_adc_ex.c ****           and configure the DMA mode using HAL_ADCEx_MultiModeConfigChannel() functions. 
  78:./Libraries/STM32F4xx_HAL_Driver/Src/stm32f4xx_hal_adc_ex.c ****        (+) Start the ADC peripheral using HAL_ADCEx_MultiModeStart_DMA(), at this stage the user sp
  79:./Libraries/STM32F4xx_HAL_Driver/Src/stm32f4xx_hal_adc_ex.c ****            of data to be transferred at each end of conversion           
  80:./Libraries/STM32F4xx_HAL_Driver/Src/stm32f4xx_hal_adc_ex.c ****        (+) Read the ADCs converted values using the HAL_ADCEx_MultiModeGetValue() function.
  81:./Libraries/STM32F4xx_HAL_Driver/Src/stm32f4xx_hal_adc_ex.c ****   
  82:./Libraries/STM32F4xx_HAL_Driver/Src/stm32f4xx_hal_adc_ex.c ****   
  83:./Libraries/STM32F4xx_HAL_Driver/Src/stm32f4xx_hal_adc_ex.c ****     @endverbatim
  84:./Libraries/STM32F4xx_HAL_Driver/Src/stm32f4xx_hal_adc_ex.c ****   ******************************************************************************
  85:./Libraries/STM32F4xx_HAL_Driver/Src/stm32f4xx_hal_adc_ex.c ****   * @attention
  86:./Libraries/STM32F4xx_HAL_Driver/Src/stm32f4xx_hal_adc_ex.c ****   *
  87:./Libraries/STM32F4xx_HAL_Driver/Src/stm32f4xx_hal_adc_ex.c ****   * <h2><center>&copy; COPYRIGHT(c) 2017 STMicroelectronics</center></h2>
ARM GAS  /tmp/cciLPtso.s 			page 3


  88:./Libraries/STM32F4xx_HAL_Driver/Src/stm32f4xx_hal_adc_ex.c ****   *
  89:./Libraries/STM32F4xx_HAL_Driver/Src/stm32f4xx_hal_adc_ex.c ****   * Redistribution and use in source and binary forms, with or without modification,
  90:./Libraries/STM32F4xx_HAL_Driver/Src/stm32f4xx_hal_adc_ex.c ****   * are permitted provided that the following conditions are met:
  91:./Libraries/STM32F4xx_HAL_Driver/Src/stm32f4xx_hal_adc_ex.c ****   *   1. Redistributions of source code must retain the above copyright notice,
  92:./Libraries/STM32F4xx_HAL_Driver/Src/stm32f4xx_hal_adc_ex.c ****   *      this list of conditions and the following disclaimer.
  93:./Libraries/STM32F4xx_HAL_Driver/Src/stm32f4xx_hal_adc_ex.c ****   *   2. Redistributions in binary form must reproduce the above copyright notice,
  94:./Libraries/STM32F4xx_HAL_Driver/Src/stm32f4xx_hal_adc_ex.c ****   *      this list of conditions and the following disclaimer in the documentation
  95:./Libraries/STM32F4xx_HAL_Driver/Src/stm32f4xx_hal_adc_ex.c ****   *      and/or other materials provided with the distribution.
  96:./Libraries/STM32F4xx_HAL_Driver/Src/stm32f4xx_hal_adc_ex.c ****   *   3. Neither the name of STMicroelectronics nor the names of its contributors
  97:./Libraries/STM32F4xx_HAL_Driver/Src/stm32f4xx_hal_adc_ex.c ****   *      may be used to endorse or promote products derived from this software
  98:./Libraries/STM32F4xx_HAL_Driver/Src/stm32f4xx_hal_adc_ex.c ****   *      without specific prior written permission.
  99:./Libraries/STM32F4xx_HAL_Driver/Src/stm32f4xx_hal_adc_ex.c ****   *
 100:./Libraries/STM32F4xx_HAL_Driver/Src/stm32f4xx_hal_adc_ex.c ****   * THIS SOFTWARE IS PROVIDED BY THE COPYRIGHT HOLDERS AND CONTRIBUTORS "AS IS"
 101:./Libraries/STM32F4xx_HAL_Driver/Src/stm32f4xx_hal_adc_ex.c ****   * AND ANY EXPRESS OR IMPLIED WARRANTIES, INCLUDING, BUT NOT LIMITED TO, THE
 102:./Libraries/STM32F4xx_HAL_Driver/Src/stm32f4xx_hal_adc_ex.c ****   * IMPLIED WARRANTIES OF MERCHANTABILITY AND FITNESS FOR A PARTICULAR PURPOSE ARE
 103:./Libraries/STM32F4xx_HAL_Driver/Src/stm32f4xx_hal_adc_ex.c ****   * DISCLAIMED. IN NO EVENT SHALL THE COPYRIGHT HOLDER OR CONTRIBUTORS BE LIABLE
 104:./Libraries/STM32F4xx_HAL_Driver/Src/stm32f4xx_hal_adc_ex.c ****   * FOR ANY DIRECT, INDIRECT, INCIDENTAL, SPECIAL, EXEMPLARY, OR CONSEQUENTIAL
 105:./Libraries/STM32F4xx_HAL_Driver/Src/stm32f4xx_hal_adc_ex.c ****   * DAMAGES (INCLUDING, BUT NOT LIMITED TO, PROCUREMENT OF SUBSTITUTE GOODS OR
 106:./Libraries/STM32F4xx_HAL_Driver/Src/stm32f4xx_hal_adc_ex.c ****   * SERVICES; LOSS OF USE, DATA, OR PROFITS; OR BUSINESS INTERRUPTION) HOWEVER
 107:./Libraries/STM32F4xx_HAL_Driver/Src/stm32f4xx_hal_adc_ex.c ****   * CAUSED AND ON ANY THEORY OF LIABILITY, WHETHER IN CONTRACT, STRICT LIABILITY,
 108:./Libraries/STM32F4xx_HAL_Driver/Src/stm32f4xx_hal_adc_ex.c ****   * OR TORT (INCLUDING NEGLIGENCE OR OTHERWISE) ARISING IN ANY WAY OUT OF THE USE
 109:./Libraries/STM32F4xx_HAL_Driver/Src/stm32f4xx_hal_adc_ex.c ****   * OF THIS SOFTWARE, EVEN IF ADVISED OF THE POSSIBILITY OF SUCH DAMAGE.
 110:./Libraries/STM32F4xx_HAL_Driver/Src/stm32f4xx_hal_adc_ex.c ****   *
 111:./Libraries/STM32F4xx_HAL_Driver/Src/stm32f4xx_hal_adc_ex.c ****   ******************************************************************************
 112:./Libraries/STM32F4xx_HAL_Driver/Src/stm32f4xx_hal_adc_ex.c ****   */ 
 113:./Libraries/STM32F4xx_HAL_Driver/Src/stm32f4xx_hal_adc_ex.c **** 
 114:./Libraries/STM32F4xx_HAL_Driver/Src/stm32f4xx_hal_adc_ex.c **** /* Includes ------------------------------------------------------------------*/
 115:./Libraries/STM32F4xx_HAL_Driver/Src/stm32f4xx_hal_adc_ex.c **** #include "stm32f4xx_hal.h"
 116:./Libraries/STM32F4xx_HAL_Driver/Src/stm32f4xx_hal_adc_ex.c **** 
 117:./Libraries/STM32F4xx_HAL_Driver/Src/stm32f4xx_hal_adc_ex.c **** /** @addtogroup STM32F4xx_HAL_Driver
 118:./Libraries/STM32F4xx_HAL_Driver/Src/stm32f4xx_hal_adc_ex.c ****   * @{
 119:./Libraries/STM32F4xx_HAL_Driver/Src/stm32f4xx_hal_adc_ex.c ****   */
 120:./Libraries/STM32F4xx_HAL_Driver/Src/stm32f4xx_hal_adc_ex.c **** 
 121:./Libraries/STM32F4xx_HAL_Driver/Src/stm32f4xx_hal_adc_ex.c **** /** @defgroup ADCEx ADCEx
 122:./Libraries/STM32F4xx_HAL_Driver/Src/stm32f4xx_hal_adc_ex.c ****   * @brief ADC Extended driver modules
 123:./Libraries/STM32F4xx_HAL_Driver/Src/stm32f4xx_hal_adc_ex.c ****   * @{
 124:./Libraries/STM32F4xx_HAL_Driver/Src/stm32f4xx_hal_adc_ex.c ****   */ 
 125:./Libraries/STM32F4xx_HAL_Driver/Src/stm32f4xx_hal_adc_ex.c **** 
 126:./Libraries/STM32F4xx_HAL_Driver/Src/stm32f4xx_hal_adc_ex.c **** #ifdef HAL_ADC_MODULE_ENABLED
 127:./Libraries/STM32F4xx_HAL_Driver/Src/stm32f4xx_hal_adc_ex.c ****     
 128:./Libraries/STM32F4xx_HAL_Driver/Src/stm32f4xx_hal_adc_ex.c **** /* Private typedef -----------------------------------------------------------*/
 129:./Libraries/STM32F4xx_HAL_Driver/Src/stm32f4xx_hal_adc_ex.c **** /* Private define ------------------------------------------------------------*/ 
 130:./Libraries/STM32F4xx_HAL_Driver/Src/stm32f4xx_hal_adc_ex.c **** /* Private macro -------------------------------------------------------------*/
 131:./Libraries/STM32F4xx_HAL_Driver/Src/stm32f4xx_hal_adc_ex.c **** /* Private variables ---------------------------------------------------------*/
 132:./Libraries/STM32F4xx_HAL_Driver/Src/stm32f4xx_hal_adc_ex.c **** /** @addtogroup ADCEx_Private_Functions
 133:./Libraries/STM32F4xx_HAL_Driver/Src/stm32f4xx_hal_adc_ex.c ****   * @{
 134:./Libraries/STM32F4xx_HAL_Driver/Src/stm32f4xx_hal_adc_ex.c ****   */
 135:./Libraries/STM32F4xx_HAL_Driver/Src/stm32f4xx_hal_adc_ex.c **** /* Private function prototypes -----------------------------------------------*/
 136:./Libraries/STM32F4xx_HAL_Driver/Src/stm32f4xx_hal_adc_ex.c **** static void ADC_MultiModeDMAConvCplt(DMA_HandleTypeDef *hdma);
 137:./Libraries/STM32F4xx_HAL_Driver/Src/stm32f4xx_hal_adc_ex.c **** static void ADC_MultiModeDMAError(DMA_HandleTypeDef *hdma);
 138:./Libraries/STM32F4xx_HAL_Driver/Src/stm32f4xx_hal_adc_ex.c **** static void ADC_MultiModeDMAHalfConvCplt(DMA_HandleTypeDef *hdma); 
 139:./Libraries/STM32F4xx_HAL_Driver/Src/stm32f4xx_hal_adc_ex.c **** /**
 140:./Libraries/STM32F4xx_HAL_Driver/Src/stm32f4xx_hal_adc_ex.c ****   * @}
 141:./Libraries/STM32F4xx_HAL_Driver/Src/stm32f4xx_hal_adc_ex.c ****   */
 142:./Libraries/STM32F4xx_HAL_Driver/Src/stm32f4xx_hal_adc_ex.c **** 
 143:./Libraries/STM32F4xx_HAL_Driver/Src/stm32f4xx_hal_adc_ex.c **** /* Exported functions --------------------------------------------------------*/
 144:./Libraries/STM32F4xx_HAL_Driver/Src/stm32f4xx_hal_adc_ex.c **** /** @defgroup ADCEx_Exported_Functions ADC Exported Functions
ARM GAS  /tmp/cciLPtso.s 			page 4


 145:./Libraries/STM32F4xx_HAL_Driver/Src/stm32f4xx_hal_adc_ex.c ****   * @{
 146:./Libraries/STM32F4xx_HAL_Driver/Src/stm32f4xx_hal_adc_ex.c ****   */
 147:./Libraries/STM32F4xx_HAL_Driver/Src/stm32f4xx_hal_adc_ex.c **** 
 148:./Libraries/STM32F4xx_HAL_Driver/Src/stm32f4xx_hal_adc_ex.c **** /** @defgroup ADCEx_Exported_Functions_Group1  Extended features functions 
 149:./Libraries/STM32F4xx_HAL_Driver/Src/stm32f4xx_hal_adc_ex.c ****   *  @brief    Extended features functions  
 150:./Libraries/STM32F4xx_HAL_Driver/Src/stm32f4xx_hal_adc_ex.c ****   *
 151:./Libraries/STM32F4xx_HAL_Driver/Src/stm32f4xx_hal_adc_ex.c **** @verbatim   
 152:./Libraries/STM32F4xx_HAL_Driver/Src/stm32f4xx_hal_adc_ex.c ****  ===============================================================================
 153:./Libraries/STM32F4xx_HAL_Driver/Src/stm32f4xx_hal_adc_ex.c ****                  ##### Extended features functions #####
 154:./Libraries/STM32F4xx_HAL_Driver/Src/stm32f4xx_hal_adc_ex.c ****  ===============================================================================  
 155:./Libraries/STM32F4xx_HAL_Driver/Src/stm32f4xx_hal_adc_ex.c ****     [..]  This section provides functions allowing to:
 156:./Libraries/STM32F4xx_HAL_Driver/Src/stm32f4xx_hal_adc_ex.c ****       (+) Start conversion of injected channel.
 157:./Libraries/STM32F4xx_HAL_Driver/Src/stm32f4xx_hal_adc_ex.c ****       (+) Stop conversion of injected channel.
 158:./Libraries/STM32F4xx_HAL_Driver/Src/stm32f4xx_hal_adc_ex.c ****       (+) Start multimode and enable DMA transfer.
 159:./Libraries/STM32F4xx_HAL_Driver/Src/stm32f4xx_hal_adc_ex.c ****       (+) Stop multimode and disable DMA transfer.
 160:./Libraries/STM32F4xx_HAL_Driver/Src/stm32f4xx_hal_adc_ex.c ****       (+) Get result of injected channel conversion.
 161:./Libraries/STM32F4xx_HAL_Driver/Src/stm32f4xx_hal_adc_ex.c ****       (+) Get result of multimode conversion.
 162:./Libraries/STM32F4xx_HAL_Driver/Src/stm32f4xx_hal_adc_ex.c ****       (+) Configure injected channels.
 163:./Libraries/STM32F4xx_HAL_Driver/Src/stm32f4xx_hal_adc_ex.c ****       (+) Configure multimode.
 164:./Libraries/STM32F4xx_HAL_Driver/Src/stm32f4xx_hal_adc_ex.c ****                
 165:./Libraries/STM32F4xx_HAL_Driver/Src/stm32f4xx_hal_adc_ex.c **** @endverbatim
 166:./Libraries/STM32F4xx_HAL_Driver/Src/stm32f4xx_hal_adc_ex.c ****   * @{
 167:./Libraries/STM32F4xx_HAL_Driver/Src/stm32f4xx_hal_adc_ex.c ****   */
 168:./Libraries/STM32F4xx_HAL_Driver/Src/stm32f4xx_hal_adc_ex.c **** 
 169:./Libraries/STM32F4xx_HAL_Driver/Src/stm32f4xx_hal_adc_ex.c **** /**
 170:./Libraries/STM32F4xx_HAL_Driver/Src/stm32f4xx_hal_adc_ex.c ****   * @brief  Enables the selected ADC software start conversion of the injected channels.
 171:./Libraries/STM32F4xx_HAL_Driver/Src/stm32f4xx_hal_adc_ex.c ****   * @param  hadc pointer to a ADC_HandleTypeDef structure that contains
 172:./Libraries/STM32F4xx_HAL_Driver/Src/stm32f4xx_hal_adc_ex.c ****   *         the configuration information for the specified ADC.
 173:./Libraries/STM32F4xx_HAL_Driver/Src/stm32f4xx_hal_adc_ex.c ****   * @retval HAL status
 174:./Libraries/STM32F4xx_HAL_Driver/Src/stm32f4xx_hal_adc_ex.c ****   */
 175:./Libraries/STM32F4xx_HAL_Driver/Src/stm32f4xx_hal_adc_ex.c **** HAL_StatusTypeDef HAL_ADCEx_InjectedStart(ADC_HandleTypeDef* hadc)
 176:./Libraries/STM32F4xx_HAL_Driver/Src/stm32f4xx_hal_adc_ex.c **** {
  29              		.loc 1 176 1
  30              		.cfi_startproc
  31              		@ args = 0, pretend = 0, frame = 24
  32              		@ frame_needed = 1, uses_anonymous_args = 0
  33              		@ link register save eliminated.
  34 0000 80B4     		push	{r7}
  35              	.LCFI0:
  36              		.cfi_def_cfa_offset 4
  37              		.cfi_offset 7, -4
  38 0002 87B0     		sub	sp, sp, #28
  39              	.LCFI1:
  40              		.cfi_def_cfa_offset 32
  41 0004 00AF     		add	r7, sp, #0
  42              	.LCFI2:
  43              		.cfi_def_cfa_register 7
  44 0006 7860     		str	r0, [r7, #4]
 177:./Libraries/STM32F4xx_HAL_Driver/Src/stm32f4xx_hal_adc_ex.c ****   __IO uint32_t counter = 0U;
  45              		.loc 1 177 17
  46 0008 0023     		movs	r3, #0
  47 000a BB60     		str	r3, [r7, #8]
 178:./Libraries/STM32F4xx_HAL_Driver/Src/stm32f4xx_hal_adc_ex.c ****   uint32_t tmp1 = 0U, tmp2 = 0U;
  48              		.loc 1 178 12
  49 000c 0023     		movs	r3, #0
  50 000e 7B61     		str	r3, [r7, #20]
  51              		.loc 1 178 23
ARM GAS  /tmp/cciLPtso.s 			page 5


  52 0010 0023     		movs	r3, #0
  53 0012 3B61     		str	r3, [r7, #16]
 179:./Libraries/STM32F4xx_HAL_Driver/Src/stm32f4xx_hal_adc_ex.c ****   ADC_Common_TypeDef *tmpADC_Common;
 180:./Libraries/STM32F4xx_HAL_Driver/Src/stm32f4xx_hal_adc_ex.c ****   
 181:./Libraries/STM32F4xx_HAL_Driver/Src/stm32f4xx_hal_adc_ex.c ****   /* Process locked */
 182:./Libraries/STM32F4xx_HAL_Driver/Src/stm32f4xx_hal_adc_ex.c ****   __HAL_LOCK(hadc);
  54              		.loc 1 182 3
  55 0014 7B68     		ldr	r3, [r7, #4]
  56 0016 93F83C30 		ldrb	r3, [r3, #60]	@ zero_extendqisi2
  57 001a 012B     		cmp	r3, #1
  58 001c 01D1     		bne	.L2
  59              		.loc 1 182 3 is_stmt 0 discriminator 1
  60 001e 0223     		movs	r3, #2
  61 0020 9DE0     		b	.L3
  62              	.L2:
  63              		.loc 1 182 3 discriminator 2
  64 0022 7B68     		ldr	r3, [r7, #4]
  65 0024 0122     		movs	r2, #1
  66 0026 83F83C20 		strb	r2, [r3, #60]
 183:./Libraries/STM32F4xx_HAL_Driver/Src/stm32f4xx_hal_adc_ex.c ****   
 184:./Libraries/STM32F4xx_HAL_Driver/Src/stm32f4xx_hal_adc_ex.c ****   /* Enable the ADC peripheral */
 185:./Libraries/STM32F4xx_HAL_Driver/Src/stm32f4xx_hal_adc_ex.c ****   
 186:./Libraries/STM32F4xx_HAL_Driver/Src/stm32f4xx_hal_adc_ex.c ****   /* Check if ADC peripheral is disabled in order to enable it and wait during 
 187:./Libraries/STM32F4xx_HAL_Driver/Src/stm32f4xx_hal_adc_ex.c ****      Tstab time the ADC's stabilization */
 188:./Libraries/STM32F4xx_HAL_Driver/Src/stm32f4xx_hal_adc_ex.c ****   if((hadc->Instance->CR2 & ADC_CR2_ADON) != ADC_CR2_ADON)
  67              		.loc 1 188 11 is_stmt 1 discriminator 2
  68 002a 7B68     		ldr	r3, [r7, #4]
  69 002c 1B68     		ldr	r3, [r3]
  70              		.loc 1 188 21 discriminator 2
  71 002e 9B68     		ldr	r3, [r3, #8]
  72              		.loc 1 188 27 discriminator 2
  73 0030 03F00103 		and	r3, r3, #1
  74              		.loc 1 188 5 discriminator 2
  75 0034 012B     		cmp	r3, #1
  76 0036 18D0     		beq	.L4
 189:./Libraries/STM32F4xx_HAL_Driver/Src/stm32f4xx_hal_adc_ex.c ****   {  
 190:./Libraries/STM32F4xx_HAL_Driver/Src/stm32f4xx_hal_adc_ex.c ****     /* Enable the Peripheral */
 191:./Libraries/STM32F4xx_HAL_Driver/Src/stm32f4xx_hal_adc_ex.c ****     __HAL_ADC_ENABLE(hadc);
  77              		.loc 1 191 5
  78 0038 7B68     		ldr	r3, [r7, #4]
  79 003a 1B68     		ldr	r3, [r3]
  80 003c 9A68     		ldr	r2, [r3, #8]
  81 003e 7B68     		ldr	r3, [r7, #4]
  82 0040 1B68     		ldr	r3, [r3]
  83 0042 42F00102 		orr	r2, r2, #1
  84 0046 9A60     		str	r2, [r3, #8]
 192:./Libraries/STM32F4xx_HAL_Driver/Src/stm32f4xx_hal_adc_ex.c ****     
 193:./Libraries/STM32F4xx_HAL_Driver/Src/stm32f4xx_hal_adc_ex.c ****     /* Delay for ADC stabilization time */
 194:./Libraries/STM32F4xx_HAL_Driver/Src/stm32f4xx_hal_adc_ex.c ****     /* Compute number of CPU cycles to wait for */
 195:./Libraries/STM32F4xx_HAL_Driver/Src/stm32f4xx_hal_adc_ex.c ****     counter = (ADC_STAB_DELAY_US * (SystemCoreClock / 1000000U));
  85              		.loc 1 195 53
  86 0048 484B     		ldr	r3, .L10
  87 004a 1B68     		ldr	r3, [r3]
  88 004c 484A     		ldr	r2, .L10+4
  89 004e A2FB0323 		umull	r2, r3, r2, r3
  90 0052 9A0C     		lsrs	r2, r3, #18
  91              		.loc 1 195 34
ARM GAS  /tmp/cciLPtso.s 			page 6


  92 0054 1346     		mov	r3, r2
  93 0056 5B00     		lsls	r3, r3, #1
  94 0058 1344     		add	r3, r3, r2
  95              		.loc 1 195 13
  96 005a BB60     		str	r3, [r7, #8]
 196:./Libraries/STM32F4xx_HAL_Driver/Src/stm32f4xx_hal_adc_ex.c ****     while(counter != 0U)
  97              		.loc 1 196 10
  98 005c 02E0     		b	.L5
  99              	.L6:
 197:./Libraries/STM32F4xx_HAL_Driver/Src/stm32f4xx_hal_adc_ex.c ****     {
 198:./Libraries/STM32F4xx_HAL_Driver/Src/stm32f4xx_hal_adc_ex.c ****       counter--;
 100              		.loc 1 198 14
 101 005e BB68     		ldr	r3, [r7, #8]
 102 0060 013B     		subs	r3, r3, #1
 103 0062 BB60     		str	r3, [r7, #8]
 104              	.L5:
 196:./Libraries/STM32F4xx_HAL_Driver/Src/stm32f4xx_hal_adc_ex.c ****     while(counter != 0U)
 105              		.loc 1 196 19
 106 0064 BB68     		ldr	r3, [r7, #8]
 196:./Libraries/STM32F4xx_HAL_Driver/Src/stm32f4xx_hal_adc_ex.c ****     while(counter != 0U)
 107              		.loc 1 196 10
 108 0066 002B     		cmp	r3, #0
 109 0068 F9D1     		bne	.L6
 110              	.L4:
 199:./Libraries/STM32F4xx_HAL_Driver/Src/stm32f4xx_hal_adc_ex.c ****     }
 200:./Libraries/STM32F4xx_HAL_Driver/Src/stm32f4xx_hal_adc_ex.c ****   }
 201:./Libraries/STM32F4xx_HAL_Driver/Src/stm32f4xx_hal_adc_ex.c ****   
 202:./Libraries/STM32F4xx_HAL_Driver/Src/stm32f4xx_hal_adc_ex.c ****   /* Start conversion if ADC is effectively enabled */
 203:./Libraries/STM32F4xx_HAL_Driver/Src/stm32f4xx_hal_adc_ex.c ****   if(HAL_IS_BIT_SET(hadc->Instance->CR2, ADC_CR2_ADON))
 111              		.loc 1 203 6
 112 006a 7B68     		ldr	r3, [r7, #4]
 113 006c 1B68     		ldr	r3, [r3]
 114 006e 9B68     		ldr	r3, [r3, #8]
 115 0070 03F00103 		and	r3, r3, #1
 116              		.loc 1 203 5
 117 0074 002B     		cmp	r3, #0
 118 0076 71D0     		beq	.L7
 204:./Libraries/STM32F4xx_HAL_Driver/Src/stm32f4xx_hal_adc_ex.c ****   {
 205:./Libraries/STM32F4xx_HAL_Driver/Src/stm32f4xx_hal_adc_ex.c ****     /* Set ADC state                                                          */
 206:./Libraries/STM32F4xx_HAL_Driver/Src/stm32f4xx_hal_adc_ex.c ****     /* - Clear state bitfield related to injected group conversion results    */
 207:./Libraries/STM32F4xx_HAL_Driver/Src/stm32f4xx_hal_adc_ex.c ****     /* - Set state bitfield related to injected operation                     */
 208:./Libraries/STM32F4xx_HAL_Driver/Src/stm32f4xx_hal_adc_ex.c ****     ADC_STATE_CLR_SET(hadc->State,
 119              		.loc 1 208 5
 120 0078 7B68     		ldr	r3, [r7, #4]
 121 007a 1B6C     		ldr	r3, [r3, #64]
 122 007c 23F44053 		bic	r3, r3, #12288
 123 0080 23F00103 		bic	r3, r3, #1
 124 0084 43F48052 		orr	r2, r3, #4096
 125 0088 7B68     		ldr	r3, [r7, #4]
 126 008a 1A64     		str	r2, [r3, #64]
 209:./Libraries/STM32F4xx_HAL_Driver/Src/stm32f4xx_hal_adc_ex.c ****                       HAL_ADC_STATE_READY | HAL_ADC_STATE_INJ_EOC,
 210:./Libraries/STM32F4xx_HAL_Driver/Src/stm32f4xx_hal_adc_ex.c ****                       HAL_ADC_STATE_INJ_BUSY);
 211:./Libraries/STM32F4xx_HAL_Driver/Src/stm32f4xx_hal_adc_ex.c ****     
 212:./Libraries/STM32F4xx_HAL_Driver/Src/stm32f4xx_hal_adc_ex.c ****     /* Check if a regular conversion is ongoing */
 213:./Libraries/STM32F4xx_HAL_Driver/Src/stm32f4xx_hal_adc_ex.c ****     /* Note: On this device, there is no ADC error code fields related to     */
 214:./Libraries/STM32F4xx_HAL_Driver/Src/stm32f4xx_hal_adc_ex.c ****     /*       conversions on group injected only. In case of conversion on     */
 215:./Libraries/STM32F4xx_HAL_Driver/Src/stm32f4xx_hal_adc_ex.c ****     /*       going on group regular, no error code is reset.                  */
ARM GAS  /tmp/cciLPtso.s 			page 7


 216:./Libraries/STM32F4xx_HAL_Driver/Src/stm32f4xx_hal_adc_ex.c ****     if (HAL_IS_BIT_CLR(hadc->State, HAL_ADC_STATE_REG_BUSY))
 127              		.loc 1 216 9
 128 008c 7B68     		ldr	r3, [r7, #4]
 129 008e 1B6C     		ldr	r3, [r3, #64]
 130 0090 03F48073 		and	r3, r3, #256
 131              		.loc 1 216 8
 132 0094 002B     		cmp	r3, #0
 133 0096 02D1     		bne	.L8
 217:./Libraries/STM32F4xx_HAL_Driver/Src/stm32f4xx_hal_adc_ex.c ****     {
 218:./Libraries/STM32F4xx_HAL_Driver/Src/stm32f4xx_hal_adc_ex.c ****       /* Reset ADC all error code fields */
 219:./Libraries/STM32F4xx_HAL_Driver/Src/stm32f4xx_hal_adc_ex.c ****       ADC_CLEAR_ERRORCODE(hadc);
 134              		.loc 1 219 7
 135 0098 7B68     		ldr	r3, [r7, #4]
 136 009a 0022     		movs	r2, #0
 137 009c 5A64     		str	r2, [r3, #68]
 138              	.L8:
 220:./Libraries/STM32F4xx_HAL_Driver/Src/stm32f4xx_hal_adc_ex.c ****     }
 221:./Libraries/STM32F4xx_HAL_Driver/Src/stm32f4xx_hal_adc_ex.c ****     
 222:./Libraries/STM32F4xx_HAL_Driver/Src/stm32f4xx_hal_adc_ex.c ****     /* Process unlocked */
 223:./Libraries/STM32F4xx_HAL_Driver/Src/stm32f4xx_hal_adc_ex.c ****     /* Unlock before starting ADC conversions: in case of potential           */
 224:./Libraries/STM32F4xx_HAL_Driver/Src/stm32f4xx_hal_adc_ex.c ****     /* interruption, to let the process to ADC IRQ Handler.                   */
 225:./Libraries/STM32F4xx_HAL_Driver/Src/stm32f4xx_hal_adc_ex.c ****     __HAL_UNLOCK(hadc);
 139              		.loc 1 225 5
 140 009e 7B68     		ldr	r3, [r7, #4]
 141 00a0 0022     		movs	r2, #0
 142 00a2 83F83C20 		strb	r2, [r3, #60]
 226:./Libraries/STM32F4xx_HAL_Driver/Src/stm32f4xx_hal_adc_ex.c ****     
 227:./Libraries/STM32F4xx_HAL_Driver/Src/stm32f4xx_hal_adc_ex.c ****     /* Clear injected group conversion flag */
 228:./Libraries/STM32F4xx_HAL_Driver/Src/stm32f4xx_hal_adc_ex.c ****     /* (To ensure of no unknown state from potential previous ADC operations) */
 229:./Libraries/STM32F4xx_HAL_Driver/Src/stm32f4xx_hal_adc_ex.c ****     __HAL_ADC_CLEAR_FLAG(hadc, ADC_FLAG_JEOC);
 143              		.loc 1 229 5
 144 00a6 7B68     		ldr	r3, [r7, #4]
 145 00a8 1B68     		ldr	r3, [r3]
 146 00aa 6FF00402 		mvn	r2, #4
 147 00ae 1A60     		str	r2, [r3]
 230:./Libraries/STM32F4xx_HAL_Driver/Src/stm32f4xx_hal_adc_ex.c **** 
 231:./Libraries/STM32F4xx_HAL_Driver/Src/stm32f4xx_hal_adc_ex.c ****     /* Pointer to the common control register to which is belonging hadc    */
 232:./Libraries/STM32F4xx_HAL_Driver/Src/stm32f4xx_hal_adc_ex.c ****     /* (Depending on STM32F4 product, there may be up to 3 ADC and 1 common */
 233:./Libraries/STM32F4xx_HAL_Driver/Src/stm32f4xx_hal_adc_ex.c ****     /* control register)                                                    */
 234:./Libraries/STM32F4xx_HAL_Driver/Src/stm32f4xx_hal_adc_ex.c ****     tmpADC_Common = ADC_COMMON_REGISTER(hadc);
 148              		.loc 1 234 19
 149 00b0 304B     		ldr	r3, .L10+8
 150 00b2 FB60     		str	r3, [r7, #12]
 235:./Libraries/STM32F4xx_HAL_Driver/Src/stm32f4xx_hal_adc_ex.c **** 
 236:./Libraries/STM32F4xx_HAL_Driver/Src/stm32f4xx_hal_adc_ex.c ****     /* Check if Multimode enabled */
 237:./Libraries/STM32F4xx_HAL_Driver/Src/stm32f4xx_hal_adc_ex.c ****     if(HAL_IS_BIT_CLR(tmpADC_Common->CCR, ADC_CCR_MULTI))
 151              		.loc 1 237 8
 152 00b4 FB68     		ldr	r3, [r7, #12]
 153 00b6 5B68     		ldr	r3, [r3, #4]
 154 00b8 03F01F03 		and	r3, r3, #31
 155              		.loc 1 237 7
 156 00bc 002B     		cmp	r3, #0
 157 00be 24D1     		bne	.L9
 238:./Libraries/STM32F4xx_HAL_Driver/Src/stm32f4xx_hal_adc_ex.c ****     {
 239:./Libraries/STM32F4xx_HAL_Driver/Src/stm32f4xx_hal_adc_ex.c ****       tmp1 = HAL_IS_BIT_CLR(hadc->Instance->CR2, ADC_CR2_JEXTEN);
 158              		.loc 1 239 14
 159 00c0 7B68     		ldr	r3, [r7, #4]
ARM GAS  /tmp/cciLPtso.s 			page 8


 160 00c2 1B68     		ldr	r3, [r3]
 161 00c4 9B68     		ldr	r3, [r3, #8]
 162 00c6 03F44013 		and	r3, r3, #3145728
 163 00ca 002B     		cmp	r3, #0
 164 00cc 0CBF     		ite	eq
 165 00ce 0123     		moveq	r3, #1
 166 00d0 0023     		movne	r3, #0
 167 00d2 DBB2     		uxtb	r3, r3
 168              		.loc 1 239 12
 169 00d4 7B61     		str	r3, [r7, #20]
 240:./Libraries/STM32F4xx_HAL_Driver/Src/stm32f4xx_hal_adc_ex.c ****       tmp2 = HAL_IS_BIT_CLR(hadc->Instance->CR1, ADC_CR1_JAUTO);
 170              		.loc 1 240 14
 171 00d6 7B68     		ldr	r3, [r7, #4]
 172 00d8 1B68     		ldr	r3, [r3]
 173 00da 5B68     		ldr	r3, [r3, #4]
 174 00dc 03F48063 		and	r3, r3, #1024
 175 00e0 002B     		cmp	r3, #0
 176 00e2 0CBF     		ite	eq
 177 00e4 0123     		moveq	r3, #1
 178 00e6 0023     		movne	r3, #0
 179 00e8 DBB2     		uxtb	r3, r3
 180              		.loc 1 240 12
 181 00ea 3B61     		str	r3, [r7, #16]
 241:./Libraries/STM32F4xx_HAL_Driver/Src/stm32f4xx_hal_adc_ex.c ****       if(tmp1 && tmp2)
 182              		.loc 1 241 9
 183 00ec 7B69     		ldr	r3, [r7, #20]
 184 00ee 002B     		cmp	r3, #0
 185 00f0 34D0     		beq	.L7
 186              		.loc 1 241 15 discriminator 1
 187 00f2 3B69     		ldr	r3, [r7, #16]
 188 00f4 002B     		cmp	r3, #0
 189 00f6 31D0     		beq	.L7
 242:./Libraries/STM32F4xx_HAL_Driver/Src/stm32f4xx_hal_adc_ex.c ****       {
 243:./Libraries/STM32F4xx_HAL_Driver/Src/stm32f4xx_hal_adc_ex.c ****         /* Enable the selected ADC software conversion for injected group */
 244:./Libraries/STM32F4xx_HAL_Driver/Src/stm32f4xx_hal_adc_ex.c ****         hadc->Instance->CR2 |= ADC_CR2_JSWSTART;
 190              		.loc 1 244 13
 191 00f8 7B68     		ldr	r3, [r7, #4]
 192 00fa 1B68     		ldr	r3, [r3]
 193              		.loc 1 244 29
 194 00fc 9A68     		ldr	r2, [r3, #8]
 195              		.loc 1 244 13
 196 00fe 7B68     		ldr	r3, [r7, #4]
 197 0100 1B68     		ldr	r3, [r3]
 198              		.loc 1 244 29
 199 0102 42F48002 		orr	r2, r2, #4194304
 200 0106 9A60     		str	r2, [r3, #8]
 201 0108 28E0     		b	.L7
 202              	.L9:
 245:./Libraries/STM32F4xx_HAL_Driver/Src/stm32f4xx_hal_adc_ex.c ****       }
 246:./Libraries/STM32F4xx_HAL_Driver/Src/stm32f4xx_hal_adc_ex.c ****     }
 247:./Libraries/STM32F4xx_HAL_Driver/Src/stm32f4xx_hal_adc_ex.c ****     else
 248:./Libraries/STM32F4xx_HAL_Driver/Src/stm32f4xx_hal_adc_ex.c ****     {
 249:./Libraries/STM32F4xx_HAL_Driver/Src/stm32f4xx_hal_adc_ex.c ****       tmp1 = HAL_IS_BIT_CLR(hadc->Instance->CR2, ADC_CR2_JEXTEN);
 203              		.loc 1 249 14
 204 010a 7B68     		ldr	r3, [r7, #4]
 205 010c 1B68     		ldr	r3, [r3]
 206 010e 9B68     		ldr	r3, [r3, #8]
ARM GAS  /tmp/cciLPtso.s 			page 9


 207 0110 03F44013 		and	r3, r3, #3145728
 208 0114 002B     		cmp	r3, #0
 209 0116 0CBF     		ite	eq
 210 0118 0123     		moveq	r3, #1
 211 011a 0023     		movne	r3, #0
 212 011c DBB2     		uxtb	r3, r3
 213              		.loc 1 249 12
 214 011e 7B61     		str	r3, [r7, #20]
 250:./Libraries/STM32F4xx_HAL_Driver/Src/stm32f4xx_hal_adc_ex.c ****       tmp2 = HAL_IS_BIT_CLR(hadc->Instance->CR1, ADC_CR1_JAUTO);
 215              		.loc 1 250 14
 216 0120 7B68     		ldr	r3, [r7, #4]
 217 0122 1B68     		ldr	r3, [r3]
 218 0124 5B68     		ldr	r3, [r3, #4]
 219 0126 03F48063 		and	r3, r3, #1024
 220 012a 002B     		cmp	r3, #0
 221 012c 0CBF     		ite	eq
 222 012e 0123     		moveq	r3, #1
 223 0130 0023     		movne	r3, #0
 224 0132 DBB2     		uxtb	r3, r3
 225              		.loc 1 250 12
 226 0134 3B61     		str	r3, [r7, #16]
 251:./Libraries/STM32F4xx_HAL_Driver/Src/stm32f4xx_hal_adc_ex.c ****       if((hadc->Instance == ADC1) && tmp1 && tmp2)  
 227              		.loc 1 251 15
 228 0136 7B68     		ldr	r3, [r7, #4]
 229 0138 1B68     		ldr	r3, [r3]
 230              		.loc 1 251 9
 231 013a 0F4A     		ldr	r2, .L10+12
 232 013c 9342     		cmp	r3, r2
 233 013e 0DD1     		bne	.L7
 234              		.loc 1 251 35 discriminator 1
 235 0140 7B69     		ldr	r3, [r7, #20]
 236 0142 002B     		cmp	r3, #0
 237 0144 0AD0     		beq	.L7
 238              		.loc 1 251 43 discriminator 2
 239 0146 3B69     		ldr	r3, [r7, #16]
 240 0148 002B     		cmp	r3, #0
 241 014a 07D0     		beq	.L7
 252:./Libraries/STM32F4xx_HAL_Driver/Src/stm32f4xx_hal_adc_ex.c ****       {
 253:./Libraries/STM32F4xx_HAL_Driver/Src/stm32f4xx_hal_adc_ex.c ****         /* Enable the selected ADC software conversion for injected group */
 254:./Libraries/STM32F4xx_HAL_Driver/Src/stm32f4xx_hal_adc_ex.c ****         hadc->Instance->CR2 |= ADC_CR2_JSWSTART;
 242              		.loc 1 254 13
 243 014c 7B68     		ldr	r3, [r7, #4]
 244 014e 1B68     		ldr	r3, [r3]
 245              		.loc 1 254 29
 246 0150 9A68     		ldr	r2, [r3, #8]
 247              		.loc 1 254 13
 248 0152 7B68     		ldr	r3, [r7, #4]
 249 0154 1B68     		ldr	r3, [r3]
 250              		.loc 1 254 29
 251 0156 42F48002 		orr	r2, r2, #4194304
 252 015a 9A60     		str	r2, [r3, #8]
 253              	.L7:
 255:./Libraries/STM32F4xx_HAL_Driver/Src/stm32f4xx_hal_adc_ex.c ****       }
 256:./Libraries/STM32F4xx_HAL_Driver/Src/stm32f4xx_hal_adc_ex.c ****     }
 257:./Libraries/STM32F4xx_HAL_Driver/Src/stm32f4xx_hal_adc_ex.c ****   }
 258:./Libraries/STM32F4xx_HAL_Driver/Src/stm32f4xx_hal_adc_ex.c ****   
 259:./Libraries/STM32F4xx_HAL_Driver/Src/stm32f4xx_hal_adc_ex.c ****   /* Return function status */
ARM GAS  /tmp/cciLPtso.s 			page 10


 260:./Libraries/STM32F4xx_HAL_Driver/Src/stm32f4xx_hal_adc_ex.c ****   return HAL_OK;
 254              		.loc 1 260 10
 255 015c 0023     		movs	r3, #0
 256              	.L3:
 261:./Libraries/STM32F4xx_HAL_Driver/Src/stm32f4xx_hal_adc_ex.c **** }
 257              		.loc 1 261 1
 258 015e 1846     		mov	r0, r3
 259 0160 1C37     		adds	r7, r7, #28
 260              	.LCFI3:
 261              		.cfi_def_cfa_offset 4
 262 0162 BD46     		mov	sp, r7
 263              	.LCFI4:
 264              		.cfi_def_cfa_register 13
 265              		@ sp needed
 266 0164 5DF8047B 		ldr	r7, [sp], #4
 267              	.LCFI5:
 268              		.cfi_restore 7
 269              		.cfi_def_cfa_offset 0
 270 0168 7047     		bx	lr
 271              	.L11:
 272 016a 00BF     		.align	2
 273              	.L10:
 274 016c 00000000 		.word	SystemCoreClock
 275 0170 83DE1B43 		.word	1125899907
 276 0174 00230140 		.word	1073816320
 277 0178 00200140 		.word	1073815552
 278              		.cfi_endproc
 279              	.LFE126:
 281              		.section	.text.HAL_ADCEx_InjectedStart_IT,"ax",%progbits
 282              		.align	1
 283              		.global	HAL_ADCEx_InjectedStart_IT
 284              		.syntax unified
 285              		.thumb
 286              		.thumb_func
 287              		.fpu fpv4-sp-d16
 289              	HAL_ADCEx_InjectedStart_IT:
 290              	.LFB127:
 262:./Libraries/STM32F4xx_HAL_Driver/Src/stm32f4xx_hal_adc_ex.c **** 
 263:./Libraries/STM32F4xx_HAL_Driver/Src/stm32f4xx_hal_adc_ex.c **** /**
 264:./Libraries/STM32F4xx_HAL_Driver/Src/stm32f4xx_hal_adc_ex.c ****   * @brief  Enables the interrupt and starts ADC conversion of injected channels.
 265:./Libraries/STM32F4xx_HAL_Driver/Src/stm32f4xx_hal_adc_ex.c ****   * @param  hadc pointer to a ADC_HandleTypeDef structure that contains
 266:./Libraries/STM32F4xx_HAL_Driver/Src/stm32f4xx_hal_adc_ex.c ****   *         the configuration information for the specified ADC.
 267:./Libraries/STM32F4xx_HAL_Driver/Src/stm32f4xx_hal_adc_ex.c ****   *
 268:./Libraries/STM32F4xx_HAL_Driver/Src/stm32f4xx_hal_adc_ex.c ****   * @retval HAL status.
 269:./Libraries/STM32F4xx_HAL_Driver/Src/stm32f4xx_hal_adc_ex.c ****   */
 270:./Libraries/STM32F4xx_HAL_Driver/Src/stm32f4xx_hal_adc_ex.c **** HAL_StatusTypeDef HAL_ADCEx_InjectedStart_IT(ADC_HandleTypeDef* hadc)
 271:./Libraries/STM32F4xx_HAL_Driver/Src/stm32f4xx_hal_adc_ex.c **** {
 291              		.loc 1 271 1
 292              		.cfi_startproc
 293              		@ args = 0, pretend = 0, frame = 24
 294              		@ frame_needed = 1, uses_anonymous_args = 0
 295              		@ link register save eliminated.
 296 0000 80B4     		push	{r7}
 297              	.LCFI6:
 298              		.cfi_def_cfa_offset 4
 299              		.cfi_offset 7, -4
 300 0002 87B0     		sub	sp, sp, #28
ARM GAS  /tmp/cciLPtso.s 			page 11


 301              	.LCFI7:
 302              		.cfi_def_cfa_offset 32
 303 0004 00AF     		add	r7, sp, #0
 304              	.LCFI8:
 305              		.cfi_def_cfa_register 7
 306 0006 7860     		str	r0, [r7, #4]
 272:./Libraries/STM32F4xx_HAL_Driver/Src/stm32f4xx_hal_adc_ex.c ****   __IO uint32_t counter = 0U;
 307              		.loc 1 272 17
 308 0008 0023     		movs	r3, #0
 309 000a BB60     		str	r3, [r7, #8]
 273:./Libraries/STM32F4xx_HAL_Driver/Src/stm32f4xx_hal_adc_ex.c ****   uint32_t tmp1 = 0U, tmp2 = 0U;
 310              		.loc 1 273 12
 311 000c 0023     		movs	r3, #0
 312 000e 7B61     		str	r3, [r7, #20]
 313              		.loc 1 273 23
 314 0010 0023     		movs	r3, #0
 315 0012 3B61     		str	r3, [r7, #16]
 274:./Libraries/STM32F4xx_HAL_Driver/Src/stm32f4xx_hal_adc_ex.c ****   ADC_Common_TypeDef *tmpADC_Common;
 275:./Libraries/STM32F4xx_HAL_Driver/Src/stm32f4xx_hal_adc_ex.c ****   
 276:./Libraries/STM32F4xx_HAL_Driver/Src/stm32f4xx_hal_adc_ex.c ****   /* Process locked */
 277:./Libraries/STM32F4xx_HAL_Driver/Src/stm32f4xx_hal_adc_ex.c ****   __HAL_LOCK(hadc);
 316              		.loc 1 277 3
 317 0014 7B68     		ldr	r3, [r7, #4]
 318 0016 93F83C30 		ldrb	r3, [r3, #60]	@ zero_extendqisi2
 319 001a 012B     		cmp	r3, #1
 320 001c 01D1     		bne	.L13
 321              		.loc 1 277 3 is_stmt 0 discriminator 1
 322 001e 0223     		movs	r3, #2
 323 0020 A5E0     		b	.L14
 324              	.L13:
 325              		.loc 1 277 3 discriminator 2
 326 0022 7B68     		ldr	r3, [r7, #4]
 327 0024 0122     		movs	r2, #1
 328 0026 83F83C20 		strb	r2, [r3, #60]
 278:./Libraries/STM32F4xx_HAL_Driver/Src/stm32f4xx_hal_adc_ex.c ****   
 279:./Libraries/STM32F4xx_HAL_Driver/Src/stm32f4xx_hal_adc_ex.c ****   /* Enable the ADC peripheral */
 280:./Libraries/STM32F4xx_HAL_Driver/Src/stm32f4xx_hal_adc_ex.c ****   
 281:./Libraries/STM32F4xx_HAL_Driver/Src/stm32f4xx_hal_adc_ex.c ****   /* Check if ADC peripheral is disabled in order to enable it and wait during 
 282:./Libraries/STM32F4xx_HAL_Driver/Src/stm32f4xx_hal_adc_ex.c ****      Tstab time the ADC's stabilization */
 283:./Libraries/STM32F4xx_HAL_Driver/Src/stm32f4xx_hal_adc_ex.c ****   if((hadc->Instance->CR2 & ADC_CR2_ADON) != ADC_CR2_ADON)
 329              		.loc 1 283 11 is_stmt 1 discriminator 2
 330 002a 7B68     		ldr	r3, [r7, #4]
 331 002c 1B68     		ldr	r3, [r3]
 332              		.loc 1 283 21 discriminator 2
 333 002e 9B68     		ldr	r3, [r3, #8]
 334              		.loc 1 283 27 discriminator 2
 335 0030 03F00103 		and	r3, r3, #1
 336              		.loc 1 283 5 discriminator 2
 337 0034 012B     		cmp	r3, #1
 338 0036 18D0     		beq	.L15
 284:./Libraries/STM32F4xx_HAL_Driver/Src/stm32f4xx_hal_adc_ex.c ****   {  
 285:./Libraries/STM32F4xx_HAL_Driver/Src/stm32f4xx_hal_adc_ex.c ****     /* Enable the Peripheral */
 286:./Libraries/STM32F4xx_HAL_Driver/Src/stm32f4xx_hal_adc_ex.c ****     __HAL_ADC_ENABLE(hadc);
 339              		.loc 1 286 5
 340 0038 7B68     		ldr	r3, [r7, #4]
 341 003a 1B68     		ldr	r3, [r3]
 342 003c 9A68     		ldr	r2, [r3, #8]
ARM GAS  /tmp/cciLPtso.s 			page 12


 343 003e 7B68     		ldr	r3, [r7, #4]
 344 0040 1B68     		ldr	r3, [r3]
 345 0042 42F00102 		orr	r2, r2, #1
 346 0046 9A60     		str	r2, [r3, #8]
 287:./Libraries/STM32F4xx_HAL_Driver/Src/stm32f4xx_hal_adc_ex.c ****     
 288:./Libraries/STM32F4xx_HAL_Driver/Src/stm32f4xx_hal_adc_ex.c ****     /* Delay for ADC stabilization time */
 289:./Libraries/STM32F4xx_HAL_Driver/Src/stm32f4xx_hal_adc_ex.c ****     /* Compute number of CPU cycles to wait for */
 290:./Libraries/STM32F4xx_HAL_Driver/Src/stm32f4xx_hal_adc_ex.c ****     counter = (ADC_STAB_DELAY_US * (SystemCoreClock / 1000000U));
 347              		.loc 1 290 53
 348 0048 4C4B     		ldr	r3, .L21
 349 004a 1B68     		ldr	r3, [r3]
 350 004c 4C4A     		ldr	r2, .L21+4
 351 004e A2FB0323 		umull	r2, r3, r2, r3
 352 0052 9A0C     		lsrs	r2, r3, #18
 353              		.loc 1 290 34
 354 0054 1346     		mov	r3, r2
 355 0056 5B00     		lsls	r3, r3, #1
 356 0058 1344     		add	r3, r3, r2
 357              		.loc 1 290 13
 358 005a BB60     		str	r3, [r7, #8]
 291:./Libraries/STM32F4xx_HAL_Driver/Src/stm32f4xx_hal_adc_ex.c ****     while(counter != 0U)
 359              		.loc 1 291 10
 360 005c 02E0     		b	.L16
 361              	.L17:
 292:./Libraries/STM32F4xx_HAL_Driver/Src/stm32f4xx_hal_adc_ex.c ****     {
 293:./Libraries/STM32F4xx_HAL_Driver/Src/stm32f4xx_hal_adc_ex.c ****       counter--;
 362              		.loc 1 293 14
 363 005e BB68     		ldr	r3, [r7, #8]
 364 0060 013B     		subs	r3, r3, #1
 365 0062 BB60     		str	r3, [r7, #8]
 366              	.L16:
 291:./Libraries/STM32F4xx_HAL_Driver/Src/stm32f4xx_hal_adc_ex.c ****     while(counter != 0U)
 367              		.loc 1 291 19
 368 0064 BB68     		ldr	r3, [r7, #8]
 291:./Libraries/STM32F4xx_HAL_Driver/Src/stm32f4xx_hal_adc_ex.c ****     while(counter != 0U)
 369              		.loc 1 291 10
 370 0066 002B     		cmp	r3, #0
 371 0068 F9D1     		bne	.L17
 372              	.L15:
 294:./Libraries/STM32F4xx_HAL_Driver/Src/stm32f4xx_hal_adc_ex.c ****     }
 295:./Libraries/STM32F4xx_HAL_Driver/Src/stm32f4xx_hal_adc_ex.c ****   }
 296:./Libraries/STM32F4xx_HAL_Driver/Src/stm32f4xx_hal_adc_ex.c ****   
 297:./Libraries/STM32F4xx_HAL_Driver/Src/stm32f4xx_hal_adc_ex.c ****   /* Start conversion if ADC is effectively enabled */
 298:./Libraries/STM32F4xx_HAL_Driver/Src/stm32f4xx_hal_adc_ex.c ****   if(HAL_IS_BIT_SET(hadc->Instance->CR2, ADC_CR2_ADON))
 373              		.loc 1 298 6
 374 006a 7B68     		ldr	r3, [r7, #4]
 375 006c 1B68     		ldr	r3, [r3]
 376 006e 9B68     		ldr	r3, [r3, #8]
 377 0070 03F00103 		and	r3, r3, #1
 378              		.loc 1 298 5
 379 0074 002B     		cmp	r3, #0
 380 0076 79D0     		beq	.L18
 299:./Libraries/STM32F4xx_HAL_Driver/Src/stm32f4xx_hal_adc_ex.c ****   {
 300:./Libraries/STM32F4xx_HAL_Driver/Src/stm32f4xx_hal_adc_ex.c ****     /* Set ADC state                                                          */
 301:./Libraries/STM32F4xx_HAL_Driver/Src/stm32f4xx_hal_adc_ex.c ****     /* - Clear state bitfield related to injected group conversion results    */
 302:./Libraries/STM32F4xx_HAL_Driver/Src/stm32f4xx_hal_adc_ex.c ****     /* - Set state bitfield related to injected operation                     */
 303:./Libraries/STM32F4xx_HAL_Driver/Src/stm32f4xx_hal_adc_ex.c ****     ADC_STATE_CLR_SET(hadc->State,
ARM GAS  /tmp/cciLPtso.s 			page 13


 381              		.loc 1 303 5
 382 0078 7B68     		ldr	r3, [r7, #4]
 383 007a 1B6C     		ldr	r3, [r3, #64]
 384 007c 23F44053 		bic	r3, r3, #12288
 385 0080 23F00103 		bic	r3, r3, #1
 386 0084 43F48052 		orr	r2, r3, #4096
 387 0088 7B68     		ldr	r3, [r7, #4]
 388 008a 1A64     		str	r2, [r3, #64]
 304:./Libraries/STM32F4xx_HAL_Driver/Src/stm32f4xx_hal_adc_ex.c ****                       HAL_ADC_STATE_READY | HAL_ADC_STATE_INJ_EOC,
 305:./Libraries/STM32F4xx_HAL_Driver/Src/stm32f4xx_hal_adc_ex.c ****                       HAL_ADC_STATE_INJ_BUSY);
 306:./Libraries/STM32F4xx_HAL_Driver/Src/stm32f4xx_hal_adc_ex.c ****     
 307:./Libraries/STM32F4xx_HAL_Driver/Src/stm32f4xx_hal_adc_ex.c ****     /* Check if a regular conversion is ongoing */
 308:./Libraries/STM32F4xx_HAL_Driver/Src/stm32f4xx_hal_adc_ex.c ****     /* Note: On this device, there is no ADC error code fields related to     */
 309:./Libraries/STM32F4xx_HAL_Driver/Src/stm32f4xx_hal_adc_ex.c ****     /*       conversions on group injected only. In case of conversion on     */
 310:./Libraries/STM32F4xx_HAL_Driver/Src/stm32f4xx_hal_adc_ex.c ****     /*       going on group regular, no error code is reset.                  */
 311:./Libraries/STM32F4xx_HAL_Driver/Src/stm32f4xx_hal_adc_ex.c ****     if (HAL_IS_BIT_CLR(hadc->State, HAL_ADC_STATE_REG_BUSY))
 389              		.loc 1 311 9
 390 008c 7B68     		ldr	r3, [r7, #4]
 391 008e 1B6C     		ldr	r3, [r3, #64]
 392 0090 03F48073 		and	r3, r3, #256
 393              		.loc 1 311 8
 394 0094 002B     		cmp	r3, #0
 395 0096 02D1     		bne	.L19
 312:./Libraries/STM32F4xx_HAL_Driver/Src/stm32f4xx_hal_adc_ex.c ****     {
 313:./Libraries/STM32F4xx_HAL_Driver/Src/stm32f4xx_hal_adc_ex.c ****       /* Reset ADC all error code fields */
 314:./Libraries/STM32F4xx_HAL_Driver/Src/stm32f4xx_hal_adc_ex.c ****       ADC_CLEAR_ERRORCODE(hadc);
 396              		.loc 1 314 7
 397 0098 7B68     		ldr	r3, [r7, #4]
 398 009a 0022     		movs	r2, #0
 399 009c 5A64     		str	r2, [r3, #68]
 400              	.L19:
 315:./Libraries/STM32F4xx_HAL_Driver/Src/stm32f4xx_hal_adc_ex.c ****     }
 316:./Libraries/STM32F4xx_HAL_Driver/Src/stm32f4xx_hal_adc_ex.c ****     
 317:./Libraries/STM32F4xx_HAL_Driver/Src/stm32f4xx_hal_adc_ex.c ****     /* Process unlocked */
 318:./Libraries/STM32F4xx_HAL_Driver/Src/stm32f4xx_hal_adc_ex.c ****     /* Unlock before starting ADC conversions: in case of potential           */
 319:./Libraries/STM32F4xx_HAL_Driver/Src/stm32f4xx_hal_adc_ex.c ****     /* interruption, to let the process to ADC IRQ Handler.                   */
 320:./Libraries/STM32F4xx_HAL_Driver/Src/stm32f4xx_hal_adc_ex.c ****     __HAL_UNLOCK(hadc);
 401              		.loc 1 320 5
 402 009e 7B68     		ldr	r3, [r7, #4]
 403 00a0 0022     		movs	r2, #0
 404 00a2 83F83C20 		strb	r2, [r3, #60]
 321:./Libraries/STM32F4xx_HAL_Driver/Src/stm32f4xx_hal_adc_ex.c ****     
 322:./Libraries/STM32F4xx_HAL_Driver/Src/stm32f4xx_hal_adc_ex.c ****     /* Clear injected group conversion flag */
 323:./Libraries/STM32F4xx_HAL_Driver/Src/stm32f4xx_hal_adc_ex.c ****     /* (To ensure of no unknown state from potential previous ADC operations) */
 324:./Libraries/STM32F4xx_HAL_Driver/Src/stm32f4xx_hal_adc_ex.c ****     __HAL_ADC_CLEAR_FLAG(hadc, ADC_FLAG_JEOC);
 405              		.loc 1 324 5
 406 00a6 7B68     		ldr	r3, [r7, #4]
 407 00a8 1B68     		ldr	r3, [r3]
 408 00aa 6FF00402 		mvn	r2, #4
 409 00ae 1A60     		str	r2, [r3]
 325:./Libraries/STM32F4xx_HAL_Driver/Src/stm32f4xx_hal_adc_ex.c ****     
 326:./Libraries/STM32F4xx_HAL_Driver/Src/stm32f4xx_hal_adc_ex.c ****     /* Enable end of conversion interrupt for injected channels */
 327:./Libraries/STM32F4xx_HAL_Driver/Src/stm32f4xx_hal_adc_ex.c ****     __HAL_ADC_ENABLE_IT(hadc, ADC_IT_JEOC);
 410              		.loc 1 327 5
 411 00b0 7B68     		ldr	r3, [r7, #4]
 412 00b2 1B68     		ldr	r3, [r3]
 413 00b4 5A68     		ldr	r2, [r3, #4]
ARM GAS  /tmp/cciLPtso.s 			page 14


 414 00b6 7B68     		ldr	r3, [r7, #4]
 415 00b8 1B68     		ldr	r3, [r3]
 416 00ba 42F08002 		orr	r2, r2, #128
 417 00be 5A60     		str	r2, [r3, #4]
 328:./Libraries/STM32F4xx_HAL_Driver/Src/stm32f4xx_hal_adc_ex.c **** 
 329:./Libraries/STM32F4xx_HAL_Driver/Src/stm32f4xx_hal_adc_ex.c ****     /* Pointer to the common control register to which is belonging hadc    */
 330:./Libraries/STM32F4xx_HAL_Driver/Src/stm32f4xx_hal_adc_ex.c ****     /* (Depending on STM32F4 product, there may be up to 3 ADC and 1 common */
 331:./Libraries/STM32F4xx_HAL_Driver/Src/stm32f4xx_hal_adc_ex.c ****     /* control register)                                                    */
 332:./Libraries/STM32F4xx_HAL_Driver/Src/stm32f4xx_hal_adc_ex.c ****     tmpADC_Common = ADC_COMMON_REGISTER(hadc);
 418              		.loc 1 332 19
 419 00c0 304B     		ldr	r3, .L21+8
 420 00c2 FB60     		str	r3, [r7, #12]
 333:./Libraries/STM32F4xx_HAL_Driver/Src/stm32f4xx_hal_adc_ex.c ****     
 334:./Libraries/STM32F4xx_HAL_Driver/Src/stm32f4xx_hal_adc_ex.c ****     /* Check if Multimode enabled */
 335:./Libraries/STM32F4xx_HAL_Driver/Src/stm32f4xx_hal_adc_ex.c ****     if(HAL_IS_BIT_CLR(tmpADC_Common->CCR, ADC_CCR_MULTI))
 421              		.loc 1 335 8
 422 00c4 FB68     		ldr	r3, [r7, #12]
 423 00c6 5B68     		ldr	r3, [r3, #4]
 424 00c8 03F01F03 		and	r3, r3, #31
 425              		.loc 1 335 7
 426 00cc 002B     		cmp	r3, #0
 427 00ce 24D1     		bne	.L20
 336:./Libraries/STM32F4xx_HAL_Driver/Src/stm32f4xx_hal_adc_ex.c ****     {
 337:./Libraries/STM32F4xx_HAL_Driver/Src/stm32f4xx_hal_adc_ex.c ****       tmp1 = HAL_IS_BIT_CLR(hadc->Instance->CR2, ADC_CR2_JEXTEN);
 428              		.loc 1 337 14
 429 00d0 7B68     		ldr	r3, [r7, #4]
 430 00d2 1B68     		ldr	r3, [r3]
 431 00d4 9B68     		ldr	r3, [r3, #8]
 432 00d6 03F44013 		and	r3, r3, #3145728
 433 00da 002B     		cmp	r3, #0
 434 00dc 0CBF     		ite	eq
 435 00de 0123     		moveq	r3, #1
 436 00e0 0023     		movne	r3, #0
 437 00e2 DBB2     		uxtb	r3, r3
 438              		.loc 1 337 12
 439 00e4 7B61     		str	r3, [r7, #20]
 338:./Libraries/STM32F4xx_HAL_Driver/Src/stm32f4xx_hal_adc_ex.c ****       tmp2 = HAL_IS_BIT_CLR(hadc->Instance->CR1, ADC_CR1_JAUTO);
 440              		.loc 1 338 14
 441 00e6 7B68     		ldr	r3, [r7, #4]
 442 00e8 1B68     		ldr	r3, [r3]
 443 00ea 5B68     		ldr	r3, [r3, #4]
 444 00ec 03F48063 		and	r3, r3, #1024
 445 00f0 002B     		cmp	r3, #0
 446 00f2 0CBF     		ite	eq
 447 00f4 0123     		moveq	r3, #1
 448 00f6 0023     		movne	r3, #0
 449 00f8 DBB2     		uxtb	r3, r3
 450              		.loc 1 338 12
 451 00fa 3B61     		str	r3, [r7, #16]
 339:./Libraries/STM32F4xx_HAL_Driver/Src/stm32f4xx_hal_adc_ex.c ****       if(tmp1 && tmp2)
 452              		.loc 1 339 9
 453 00fc 7B69     		ldr	r3, [r7, #20]
 454 00fe 002B     		cmp	r3, #0
 455 0100 34D0     		beq	.L18
 456              		.loc 1 339 15 discriminator 1
 457 0102 3B69     		ldr	r3, [r7, #16]
 458 0104 002B     		cmp	r3, #0
ARM GAS  /tmp/cciLPtso.s 			page 15


 459 0106 31D0     		beq	.L18
 340:./Libraries/STM32F4xx_HAL_Driver/Src/stm32f4xx_hal_adc_ex.c ****       {
 341:./Libraries/STM32F4xx_HAL_Driver/Src/stm32f4xx_hal_adc_ex.c ****         /* Enable the selected ADC software conversion for injected group */
 342:./Libraries/STM32F4xx_HAL_Driver/Src/stm32f4xx_hal_adc_ex.c ****         hadc->Instance->CR2 |= ADC_CR2_JSWSTART;
 460              		.loc 1 342 13
 461 0108 7B68     		ldr	r3, [r7, #4]
 462 010a 1B68     		ldr	r3, [r3]
 463              		.loc 1 342 29
 464 010c 9A68     		ldr	r2, [r3, #8]
 465              		.loc 1 342 13
 466 010e 7B68     		ldr	r3, [r7, #4]
 467 0110 1B68     		ldr	r3, [r3]
 468              		.loc 1 342 29
 469 0112 42F48002 		orr	r2, r2, #4194304
 470 0116 9A60     		str	r2, [r3, #8]
 471 0118 28E0     		b	.L18
 472              	.L20:
 343:./Libraries/STM32F4xx_HAL_Driver/Src/stm32f4xx_hal_adc_ex.c ****       }
 344:./Libraries/STM32F4xx_HAL_Driver/Src/stm32f4xx_hal_adc_ex.c ****     }
 345:./Libraries/STM32F4xx_HAL_Driver/Src/stm32f4xx_hal_adc_ex.c ****     else
 346:./Libraries/STM32F4xx_HAL_Driver/Src/stm32f4xx_hal_adc_ex.c ****     {
 347:./Libraries/STM32F4xx_HAL_Driver/Src/stm32f4xx_hal_adc_ex.c ****       tmp1 = HAL_IS_BIT_CLR(hadc->Instance->CR2, ADC_CR2_JEXTEN);
 473              		.loc 1 347 14
 474 011a 7B68     		ldr	r3, [r7, #4]
 475 011c 1B68     		ldr	r3, [r3]
 476 011e 9B68     		ldr	r3, [r3, #8]
 477 0120 03F44013 		and	r3, r3, #3145728
 478 0124 002B     		cmp	r3, #0
 479 0126 0CBF     		ite	eq
 480 0128 0123     		moveq	r3, #1
 481 012a 0023     		movne	r3, #0
 482 012c DBB2     		uxtb	r3, r3
 483              		.loc 1 347 12
 484 012e 7B61     		str	r3, [r7, #20]
 348:./Libraries/STM32F4xx_HAL_Driver/Src/stm32f4xx_hal_adc_ex.c ****       tmp2 = HAL_IS_BIT_CLR(hadc->Instance->CR1, ADC_CR1_JAUTO);
 485              		.loc 1 348 14
 486 0130 7B68     		ldr	r3, [r7, #4]
 487 0132 1B68     		ldr	r3, [r3]
 488 0134 5B68     		ldr	r3, [r3, #4]
 489 0136 03F48063 		and	r3, r3, #1024
 490 013a 002B     		cmp	r3, #0
 491 013c 0CBF     		ite	eq
 492 013e 0123     		moveq	r3, #1
 493 0140 0023     		movne	r3, #0
 494 0142 DBB2     		uxtb	r3, r3
 495              		.loc 1 348 12
 496 0144 3B61     		str	r3, [r7, #16]
 349:./Libraries/STM32F4xx_HAL_Driver/Src/stm32f4xx_hal_adc_ex.c ****       if((hadc->Instance == ADC1) && tmp1 && tmp2)  
 497              		.loc 1 349 15
 498 0146 7B68     		ldr	r3, [r7, #4]
 499 0148 1B68     		ldr	r3, [r3]
 500              		.loc 1 349 9
 501 014a 0F4A     		ldr	r2, .L21+12
 502 014c 9342     		cmp	r3, r2
 503 014e 0DD1     		bne	.L18
 504              		.loc 1 349 35 discriminator 1
 505 0150 7B69     		ldr	r3, [r7, #20]
ARM GAS  /tmp/cciLPtso.s 			page 16


 506 0152 002B     		cmp	r3, #0
 507 0154 0AD0     		beq	.L18
 508              		.loc 1 349 43 discriminator 2
 509 0156 3B69     		ldr	r3, [r7, #16]
 510 0158 002B     		cmp	r3, #0
 511 015a 07D0     		beq	.L18
 350:./Libraries/STM32F4xx_HAL_Driver/Src/stm32f4xx_hal_adc_ex.c ****       {
 351:./Libraries/STM32F4xx_HAL_Driver/Src/stm32f4xx_hal_adc_ex.c ****         /* Enable the selected ADC software conversion for injected group */
 352:./Libraries/STM32F4xx_HAL_Driver/Src/stm32f4xx_hal_adc_ex.c ****         hadc->Instance->CR2 |= ADC_CR2_JSWSTART;
 512              		.loc 1 352 13
 513 015c 7B68     		ldr	r3, [r7, #4]
 514 015e 1B68     		ldr	r3, [r3]
 515              		.loc 1 352 29
 516 0160 9A68     		ldr	r2, [r3, #8]
 517              		.loc 1 352 13
 518 0162 7B68     		ldr	r3, [r7, #4]
 519 0164 1B68     		ldr	r3, [r3]
 520              		.loc 1 352 29
 521 0166 42F48002 		orr	r2, r2, #4194304
 522 016a 9A60     		str	r2, [r3, #8]
 523              	.L18:
 353:./Libraries/STM32F4xx_HAL_Driver/Src/stm32f4xx_hal_adc_ex.c ****       }
 354:./Libraries/STM32F4xx_HAL_Driver/Src/stm32f4xx_hal_adc_ex.c ****     }
 355:./Libraries/STM32F4xx_HAL_Driver/Src/stm32f4xx_hal_adc_ex.c ****   }
 356:./Libraries/STM32F4xx_HAL_Driver/Src/stm32f4xx_hal_adc_ex.c ****   
 357:./Libraries/STM32F4xx_HAL_Driver/Src/stm32f4xx_hal_adc_ex.c ****   /* Return function status */
 358:./Libraries/STM32F4xx_HAL_Driver/Src/stm32f4xx_hal_adc_ex.c ****   return HAL_OK;
 524              		.loc 1 358 10
 525 016c 0023     		movs	r3, #0
 526              	.L14:
 359:./Libraries/STM32F4xx_HAL_Driver/Src/stm32f4xx_hal_adc_ex.c **** }
 527              		.loc 1 359 1
 528 016e 1846     		mov	r0, r3
 529 0170 1C37     		adds	r7, r7, #28
 530              	.LCFI9:
 531              		.cfi_def_cfa_offset 4
 532 0172 BD46     		mov	sp, r7
 533              	.LCFI10:
 534              		.cfi_def_cfa_register 13
 535              		@ sp needed
 536 0174 5DF8047B 		ldr	r7, [sp], #4
 537              	.LCFI11:
 538              		.cfi_restore 7
 539              		.cfi_def_cfa_offset 0
 540 0178 7047     		bx	lr
 541              	.L22:
 542 017a 00BF     		.align	2
 543              	.L21:
 544 017c 00000000 		.word	SystemCoreClock
 545 0180 83DE1B43 		.word	1125899907
 546 0184 00230140 		.word	1073816320
 547 0188 00200140 		.word	1073815552
 548              		.cfi_endproc
 549              	.LFE127:
 551              		.section	.text.HAL_ADCEx_InjectedStop,"ax",%progbits
 552              		.align	1
 553              		.global	HAL_ADCEx_InjectedStop
ARM GAS  /tmp/cciLPtso.s 			page 17


 554              		.syntax unified
 555              		.thumb
 556              		.thumb_func
 557              		.fpu fpv4-sp-d16
 559              	HAL_ADCEx_InjectedStop:
 560              	.LFB128:
 360:./Libraries/STM32F4xx_HAL_Driver/Src/stm32f4xx_hal_adc_ex.c **** 
 361:./Libraries/STM32F4xx_HAL_Driver/Src/stm32f4xx_hal_adc_ex.c **** /**
 362:./Libraries/STM32F4xx_HAL_Driver/Src/stm32f4xx_hal_adc_ex.c ****   * @brief  Stop conversion of injected channels. Disable ADC peripheral if
 363:./Libraries/STM32F4xx_HAL_Driver/Src/stm32f4xx_hal_adc_ex.c ****   *         no regular conversion is on going.
 364:./Libraries/STM32F4xx_HAL_Driver/Src/stm32f4xx_hal_adc_ex.c ****   * @note   If ADC must be disabled and if conversion is on going on 
 365:./Libraries/STM32F4xx_HAL_Driver/Src/stm32f4xx_hal_adc_ex.c ****   *         regular group, function HAL_ADC_Stop must be used to stop both
 366:./Libraries/STM32F4xx_HAL_Driver/Src/stm32f4xx_hal_adc_ex.c ****   *         injected and regular groups, and disable the ADC.
 367:./Libraries/STM32F4xx_HAL_Driver/Src/stm32f4xx_hal_adc_ex.c ****   * @note   If injected group mode auto-injection is enabled,
 368:./Libraries/STM32F4xx_HAL_Driver/Src/stm32f4xx_hal_adc_ex.c ****   *         function HAL_ADC_Stop must be used.
 369:./Libraries/STM32F4xx_HAL_Driver/Src/stm32f4xx_hal_adc_ex.c ****   * @note   In case of auto-injection mode, HAL_ADC_Stop must be used.
 370:./Libraries/STM32F4xx_HAL_Driver/Src/stm32f4xx_hal_adc_ex.c ****   * @param  hadc ADC handle
 371:./Libraries/STM32F4xx_HAL_Driver/Src/stm32f4xx_hal_adc_ex.c ****   * @retval None
 372:./Libraries/STM32F4xx_HAL_Driver/Src/stm32f4xx_hal_adc_ex.c ****   */
 373:./Libraries/STM32F4xx_HAL_Driver/Src/stm32f4xx_hal_adc_ex.c **** HAL_StatusTypeDef HAL_ADCEx_InjectedStop(ADC_HandleTypeDef* hadc)
 374:./Libraries/STM32F4xx_HAL_Driver/Src/stm32f4xx_hal_adc_ex.c **** {
 561              		.loc 1 374 1
 562              		.cfi_startproc
 563              		@ args = 0, pretend = 0, frame = 16
 564              		@ frame_needed = 1, uses_anonymous_args = 0
 565              		@ link register save eliminated.
 566 0000 80B4     		push	{r7}
 567              	.LCFI12:
 568              		.cfi_def_cfa_offset 4
 569              		.cfi_offset 7, -4
 570 0002 85B0     		sub	sp, sp, #20
 571              	.LCFI13:
 572              		.cfi_def_cfa_offset 24
 573 0004 00AF     		add	r7, sp, #0
 574              	.LCFI14:
 575              		.cfi_def_cfa_register 7
 576 0006 7860     		str	r0, [r7, #4]
 375:./Libraries/STM32F4xx_HAL_Driver/Src/stm32f4xx_hal_adc_ex.c ****   HAL_StatusTypeDef tmp_hal_status = HAL_OK;
 577              		.loc 1 375 21
 578 0008 0023     		movs	r3, #0
 579 000a FB73     		strb	r3, [r7, #15]
 376:./Libraries/STM32F4xx_HAL_Driver/Src/stm32f4xx_hal_adc_ex.c ****   
 377:./Libraries/STM32F4xx_HAL_Driver/Src/stm32f4xx_hal_adc_ex.c ****   /* Check the parameters */
 378:./Libraries/STM32F4xx_HAL_Driver/Src/stm32f4xx_hal_adc_ex.c ****   assert_param(IS_ADC_ALL_INSTANCE(hadc->Instance));
 379:./Libraries/STM32F4xx_HAL_Driver/Src/stm32f4xx_hal_adc_ex.c **** 
 380:./Libraries/STM32F4xx_HAL_Driver/Src/stm32f4xx_hal_adc_ex.c ****   /* Process locked */
 381:./Libraries/STM32F4xx_HAL_Driver/Src/stm32f4xx_hal_adc_ex.c ****   __HAL_LOCK(hadc);
 580              		.loc 1 381 3
 581 000c 7B68     		ldr	r3, [r7, #4]
 582 000e 93F83C30 		ldrb	r3, [r3, #60]	@ zero_extendqisi2
 583 0012 012B     		cmp	r3, #1
 584 0014 01D1     		bne	.L24
 585              		.loc 1 381 3 is_stmt 0 discriminator 1
 586 0016 0223     		movs	r3, #2
 587 0018 37E0     		b	.L25
 588              	.L24:
 589              		.loc 1 381 3 discriminator 2
ARM GAS  /tmp/cciLPtso.s 			page 18


 590 001a 7B68     		ldr	r3, [r7, #4]
 591 001c 0122     		movs	r2, #1
 592 001e 83F83C20 		strb	r2, [r3, #60]
 382:./Libraries/STM32F4xx_HAL_Driver/Src/stm32f4xx_hal_adc_ex.c ****     
 383:./Libraries/STM32F4xx_HAL_Driver/Src/stm32f4xx_hal_adc_ex.c ****   /* Stop potential conversion and disable ADC peripheral                     */
 384:./Libraries/STM32F4xx_HAL_Driver/Src/stm32f4xx_hal_adc_ex.c ****   /* Conditioned to:                                                          */
 385:./Libraries/STM32F4xx_HAL_Driver/Src/stm32f4xx_hal_adc_ex.c ****   /* - No conversion on the other group (regular group) is intended to        */
 386:./Libraries/STM32F4xx_HAL_Driver/Src/stm32f4xx_hal_adc_ex.c ****   /*   continue (injected and regular groups stop conversion and ADC disable  */
 387:./Libraries/STM32F4xx_HAL_Driver/Src/stm32f4xx_hal_adc_ex.c ****   /*   are common)                                                            */
 388:./Libraries/STM32F4xx_HAL_Driver/Src/stm32f4xx_hal_adc_ex.c ****   /* - In case of auto-injection mode, HAL_ADC_Stop must be used.             */
 389:./Libraries/STM32F4xx_HAL_Driver/Src/stm32f4xx_hal_adc_ex.c ****   if(((hadc->State & HAL_ADC_STATE_REG_BUSY) == RESET)  &&
 593              		.loc 1 389 12 is_stmt 1 discriminator 2
 594 0022 7B68     		ldr	r3, [r7, #4]
 595 0024 1B6C     		ldr	r3, [r3, #64]
 596              		.loc 1 389 20 discriminator 2
 597 0026 03F48073 		and	r3, r3, #256
 598              		.loc 1 389 5 discriminator 2
 599 002a 002B     		cmp	r3, #0
 600 002c 20D1     		bne	.L26
 390:./Libraries/STM32F4xx_HAL_Driver/Src/stm32f4xx_hal_adc_ex.c ****      HAL_IS_BIT_CLR(hadc->Instance->CR1, ADC_CR1_JAUTO)   )
 601              		.loc 1 390 6 discriminator 1
 602 002e 7B68     		ldr	r3, [r7, #4]
 603 0030 1B68     		ldr	r3, [r3]
 604 0032 5B68     		ldr	r3, [r3, #4]
 605 0034 03F48063 		and	r3, r3, #1024
 389:./Libraries/STM32F4xx_HAL_Driver/Src/stm32f4xx_hal_adc_ex.c ****      HAL_IS_BIT_CLR(hadc->Instance->CR1, ADC_CR1_JAUTO)   )
 606              		.loc 1 389 57 discriminator 1
 607 0038 002B     		cmp	r3, #0
 608 003a 19D1     		bne	.L26
 391:./Libraries/STM32F4xx_HAL_Driver/Src/stm32f4xx_hal_adc_ex.c ****   {
 392:./Libraries/STM32F4xx_HAL_Driver/Src/stm32f4xx_hal_adc_ex.c ****     /* Stop potential conversion on going, on regular and injected groups */
 393:./Libraries/STM32F4xx_HAL_Driver/Src/stm32f4xx_hal_adc_ex.c ****     /* Disable ADC peripheral */
 394:./Libraries/STM32F4xx_HAL_Driver/Src/stm32f4xx_hal_adc_ex.c ****     __HAL_ADC_DISABLE(hadc);
 609              		.loc 1 394 5
 610 003c 7B68     		ldr	r3, [r7, #4]
 611 003e 1B68     		ldr	r3, [r3]
 612 0040 9A68     		ldr	r2, [r3, #8]
 613 0042 7B68     		ldr	r3, [r7, #4]
 614 0044 1B68     		ldr	r3, [r3]
 615 0046 22F00102 		bic	r2, r2, #1
 616 004a 9A60     		str	r2, [r3, #8]
 395:./Libraries/STM32F4xx_HAL_Driver/Src/stm32f4xx_hal_adc_ex.c ****     
 396:./Libraries/STM32F4xx_HAL_Driver/Src/stm32f4xx_hal_adc_ex.c ****     /* Check if ADC is effectively disabled */
 397:./Libraries/STM32F4xx_HAL_Driver/Src/stm32f4xx_hal_adc_ex.c ****     if(HAL_IS_BIT_CLR(hadc->Instance->CR2, ADC_CR2_ADON))
 617              		.loc 1 397 8
 618 004c 7B68     		ldr	r3, [r7, #4]
 619 004e 1B68     		ldr	r3, [r3]
 620 0050 9B68     		ldr	r3, [r3, #8]
 621 0052 03F00103 		and	r3, r3, #1
 622              		.loc 1 397 7
 623 0056 002B     		cmp	r3, #0
 624 0058 12D1     		bne	.L28
 398:./Libraries/STM32F4xx_HAL_Driver/Src/stm32f4xx_hal_adc_ex.c ****     {
 399:./Libraries/STM32F4xx_HAL_Driver/Src/stm32f4xx_hal_adc_ex.c ****       /* Set ADC state */
 400:./Libraries/STM32F4xx_HAL_Driver/Src/stm32f4xx_hal_adc_ex.c ****       ADC_STATE_CLR_SET(hadc->State,
 625              		.loc 1 400 7
 626 005a 7B68     		ldr	r3, [r7, #4]
ARM GAS  /tmp/cciLPtso.s 			page 19


 627 005c 1B6C     		ldr	r3, [r3, #64]
 628 005e 23F48853 		bic	r3, r3, #4352
 629 0062 23F00103 		bic	r3, r3, #1
 630 0066 43F00102 		orr	r2, r3, #1
 631 006a 7B68     		ldr	r3, [r7, #4]
 632 006c 1A64     		str	r2, [r3, #64]
 397:./Libraries/STM32F4xx_HAL_Driver/Src/stm32f4xx_hal_adc_ex.c ****     {
 633              		.loc 1 397 7
 634 006e 07E0     		b	.L28
 635              	.L26:
 401:./Libraries/STM32F4xx_HAL_Driver/Src/stm32f4xx_hal_adc_ex.c ****                         HAL_ADC_STATE_REG_BUSY | HAL_ADC_STATE_INJ_BUSY,
 402:./Libraries/STM32F4xx_HAL_Driver/Src/stm32f4xx_hal_adc_ex.c ****                         HAL_ADC_STATE_READY);
 403:./Libraries/STM32F4xx_HAL_Driver/Src/stm32f4xx_hal_adc_ex.c ****     }
 404:./Libraries/STM32F4xx_HAL_Driver/Src/stm32f4xx_hal_adc_ex.c ****   }
 405:./Libraries/STM32F4xx_HAL_Driver/Src/stm32f4xx_hal_adc_ex.c ****   else
 406:./Libraries/STM32F4xx_HAL_Driver/Src/stm32f4xx_hal_adc_ex.c ****   {
 407:./Libraries/STM32F4xx_HAL_Driver/Src/stm32f4xx_hal_adc_ex.c ****     /* Update ADC state machine to error */
 408:./Libraries/STM32F4xx_HAL_Driver/Src/stm32f4xx_hal_adc_ex.c ****     SET_BIT(hadc->State, HAL_ADC_STATE_ERROR_CONFIG);
 636              		.loc 1 408 5
 637 0070 7B68     		ldr	r3, [r7, #4]
 638 0072 1B6C     		ldr	r3, [r3, #64]
 639 0074 43F02002 		orr	r2, r3, #32
 640 0078 7B68     		ldr	r3, [r7, #4]
 641 007a 1A64     		str	r2, [r3, #64]
 409:./Libraries/STM32F4xx_HAL_Driver/Src/stm32f4xx_hal_adc_ex.c ****       
 410:./Libraries/STM32F4xx_HAL_Driver/Src/stm32f4xx_hal_adc_ex.c ****     tmp_hal_status = HAL_ERROR;
 642              		.loc 1 410 20
 643 007c 0123     		movs	r3, #1
 644 007e FB73     		strb	r3, [r7, #15]
 645              	.L28:
 411:./Libraries/STM32F4xx_HAL_Driver/Src/stm32f4xx_hal_adc_ex.c ****   }
 412:./Libraries/STM32F4xx_HAL_Driver/Src/stm32f4xx_hal_adc_ex.c ****   
 413:./Libraries/STM32F4xx_HAL_Driver/Src/stm32f4xx_hal_adc_ex.c ****   /* Process unlocked */
 414:./Libraries/STM32F4xx_HAL_Driver/Src/stm32f4xx_hal_adc_ex.c ****   __HAL_UNLOCK(hadc);
 646              		.loc 1 414 3
 647 0080 7B68     		ldr	r3, [r7, #4]
 648 0082 0022     		movs	r2, #0
 649 0084 83F83C20 		strb	r2, [r3, #60]
 415:./Libraries/STM32F4xx_HAL_Driver/Src/stm32f4xx_hal_adc_ex.c ****   
 416:./Libraries/STM32F4xx_HAL_Driver/Src/stm32f4xx_hal_adc_ex.c ****   /* Return function status */
 417:./Libraries/STM32F4xx_HAL_Driver/Src/stm32f4xx_hal_adc_ex.c ****   return tmp_hal_status;
 650              		.loc 1 417 10
 651 0088 FB7B     		ldrb	r3, [r7, #15]	@ zero_extendqisi2
 652              	.L25:
 418:./Libraries/STM32F4xx_HAL_Driver/Src/stm32f4xx_hal_adc_ex.c **** }
 653              		.loc 1 418 1
 654 008a 1846     		mov	r0, r3
 655 008c 1437     		adds	r7, r7, #20
 656              	.LCFI15:
 657              		.cfi_def_cfa_offset 4
 658 008e BD46     		mov	sp, r7
 659              	.LCFI16:
 660              		.cfi_def_cfa_register 13
 661              		@ sp needed
 662 0090 5DF8047B 		ldr	r7, [sp], #4
 663              	.LCFI17:
 664              		.cfi_restore 7
ARM GAS  /tmp/cciLPtso.s 			page 20


 665              		.cfi_def_cfa_offset 0
 666 0094 7047     		bx	lr
 667              		.cfi_endproc
 668              	.LFE128:
 670              		.section	.text.HAL_ADCEx_InjectedPollForConversion,"ax",%progbits
 671              		.align	1
 672              		.global	HAL_ADCEx_InjectedPollForConversion
 673              		.syntax unified
 674              		.thumb
 675              		.thumb_func
 676              		.fpu fpv4-sp-d16
 678              	HAL_ADCEx_InjectedPollForConversion:
 679              	.LFB129:
 419:./Libraries/STM32F4xx_HAL_Driver/Src/stm32f4xx_hal_adc_ex.c **** 
 420:./Libraries/STM32F4xx_HAL_Driver/Src/stm32f4xx_hal_adc_ex.c **** /**
 421:./Libraries/STM32F4xx_HAL_Driver/Src/stm32f4xx_hal_adc_ex.c ****   * @brief  Poll for injected conversion complete
 422:./Libraries/STM32F4xx_HAL_Driver/Src/stm32f4xx_hal_adc_ex.c ****   * @param  hadc pointer to a ADC_HandleTypeDef structure that contains
 423:./Libraries/STM32F4xx_HAL_Driver/Src/stm32f4xx_hal_adc_ex.c ****   *         the configuration information for the specified ADC.
 424:./Libraries/STM32F4xx_HAL_Driver/Src/stm32f4xx_hal_adc_ex.c ****   * @param  Timeout Timeout value in millisecond.  
 425:./Libraries/STM32F4xx_HAL_Driver/Src/stm32f4xx_hal_adc_ex.c ****   * @retval HAL status
 426:./Libraries/STM32F4xx_HAL_Driver/Src/stm32f4xx_hal_adc_ex.c ****   */
 427:./Libraries/STM32F4xx_HAL_Driver/Src/stm32f4xx_hal_adc_ex.c **** HAL_StatusTypeDef HAL_ADCEx_InjectedPollForConversion(ADC_HandleTypeDef* hadc, uint32_t Timeout)
 428:./Libraries/STM32F4xx_HAL_Driver/Src/stm32f4xx_hal_adc_ex.c **** {
 680              		.loc 1 428 1
 681              		.cfi_startproc
 682              		@ args = 0, pretend = 0, frame = 16
 683              		@ frame_needed = 1, uses_anonymous_args = 0
 684 0000 80B5     		push	{r7, lr}
 685              	.LCFI18:
 686              		.cfi_def_cfa_offset 8
 687              		.cfi_offset 7, -8
 688              		.cfi_offset 14, -4
 689 0002 84B0     		sub	sp, sp, #16
 690              	.LCFI19:
 691              		.cfi_def_cfa_offset 24
 692 0004 00AF     		add	r7, sp, #0
 693              	.LCFI20:
 694              		.cfi_def_cfa_register 7
 695 0006 7860     		str	r0, [r7, #4]
 696 0008 3960     		str	r1, [r7]
 429:./Libraries/STM32F4xx_HAL_Driver/Src/stm32f4xx_hal_adc_ex.c ****   uint32_t tickstart = 0U;
 697              		.loc 1 429 12
 698 000a 0023     		movs	r3, #0
 699 000c FB60     		str	r3, [r7, #12]
 430:./Libraries/STM32F4xx_HAL_Driver/Src/stm32f4xx_hal_adc_ex.c **** 
 431:./Libraries/STM32F4xx_HAL_Driver/Src/stm32f4xx_hal_adc_ex.c ****   /* Get tick */ 
 432:./Libraries/STM32F4xx_HAL_Driver/Src/stm32f4xx_hal_adc_ex.c ****   tickstart = HAL_GetTick();
 700              		.loc 1 432 15
 701 000e FFF7FEFF 		bl	HAL_GetTick
 702 0012 F860     		str	r0, [r7, #12]
 433:./Libraries/STM32F4xx_HAL_Driver/Src/stm32f4xx_hal_adc_ex.c **** 
 434:./Libraries/STM32F4xx_HAL_Driver/Src/stm32f4xx_hal_adc_ex.c ****   /* Check End of conversion flag */
 435:./Libraries/STM32F4xx_HAL_Driver/Src/stm32f4xx_hal_adc_ex.c ****   while(!(__HAL_ADC_GET_FLAG(hadc, ADC_FLAG_JEOC)))
 703              		.loc 1 435 8
 704 0014 17E0     		b	.L30
 705              	.L33:
 436:./Libraries/STM32F4xx_HAL_Driver/Src/stm32f4xx_hal_adc_ex.c ****   {
ARM GAS  /tmp/cciLPtso.s 			page 21


 437:./Libraries/STM32F4xx_HAL_Driver/Src/stm32f4xx_hal_adc_ex.c ****     /* Check for the Timeout */
 438:./Libraries/STM32F4xx_HAL_Driver/Src/stm32f4xx_hal_adc_ex.c ****     if(Timeout != HAL_MAX_DELAY)
 706              		.loc 1 438 7
 707 0016 3B68     		ldr	r3, [r7]
 708 0018 B3F1FF3F 		cmp	r3, #-1
 709 001c 13D0     		beq	.L30
 439:./Libraries/STM32F4xx_HAL_Driver/Src/stm32f4xx_hal_adc_ex.c ****     {
 440:./Libraries/STM32F4xx_HAL_Driver/Src/stm32f4xx_hal_adc_ex.c ****       if((Timeout == 0U)||((HAL_GetTick() - tickstart ) > Timeout))
 710              		.loc 1 440 9
 711 001e 3B68     		ldr	r3, [r7]
 712 0020 002B     		cmp	r3, #0
 713 0022 07D0     		beq	.L31
 714              		.loc 1 440 29 discriminator 1
 715 0024 FFF7FEFF 		bl	HAL_GetTick
 716 0028 0246     		mov	r2, r0
 717              		.loc 1 440 43 discriminator 1
 718 002a FB68     		ldr	r3, [r7, #12]
 719 002c D31A     		subs	r3, r2, r3
 720              		.loc 1 440 25 discriminator 1
 721 002e 3A68     		ldr	r2, [r7]
 722 0030 9A42     		cmp	r2, r3
 723 0032 08D2     		bcs	.L30
 724              	.L31:
 441:./Libraries/STM32F4xx_HAL_Driver/Src/stm32f4xx_hal_adc_ex.c ****       {
 442:./Libraries/STM32F4xx_HAL_Driver/Src/stm32f4xx_hal_adc_ex.c ****         hadc->State= HAL_ADC_STATE_TIMEOUT;
 725              		.loc 1 442 20
 726 0034 7B68     		ldr	r3, [r7, #4]
 727 0036 0422     		movs	r2, #4
 728 0038 1A64     		str	r2, [r3, #64]
 443:./Libraries/STM32F4xx_HAL_Driver/Src/stm32f4xx_hal_adc_ex.c ****         /* Process unlocked */
 444:./Libraries/STM32F4xx_HAL_Driver/Src/stm32f4xx_hal_adc_ex.c ****         __HAL_UNLOCK(hadc);
 729              		.loc 1 444 9
 730 003a 7B68     		ldr	r3, [r7, #4]
 731 003c 0022     		movs	r2, #0
 732 003e 83F83C20 		strb	r2, [r3, #60]
 445:./Libraries/STM32F4xx_HAL_Driver/Src/stm32f4xx_hal_adc_ex.c ****         return HAL_TIMEOUT;
 733              		.loc 1 445 16
 734 0042 0323     		movs	r3, #3
 735 0044 4BE0     		b	.L32
 736              	.L30:
 435:./Libraries/STM32F4xx_HAL_Driver/Src/stm32f4xx_hal_adc_ex.c ****   {
 737              		.loc 1 435 11
 738 0046 7B68     		ldr	r3, [r7, #4]
 739 0048 1B68     		ldr	r3, [r3]
 740 004a 1B68     		ldr	r3, [r3]
 741 004c 03F00403 		and	r3, r3, #4
 435:./Libraries/STM32F4xx_HAL_Driver/Src/stm32f4xx_hal_adc_ex.c ****   {
 742              		.loc 1 435 8
 743 0050 042B     		cmp	r3, #4
 744 0052 E0D1     		bne	.L33
 446:./Libraries/STM32F4xx_HAL_Driver/Src/stm32f4xx_hal_adc_ex.c ****       }
 447:./Libraries/STM32F4xx_HAL_Driver/Src/stm32f4xx_hal_adc_ex.c ****     }
 448:./Libraries/STM32F4xx_HAL_Driver/Src/stm32f4xx_hal_adc_ex.c ****   }
 449:./Libraries/STM32F4xx_HAL_Driver/Src/stm32f4xx_hal_adc_ex.c ****   
 450:./Libraries/STM32F4xx_HAL_Driver/Src/stm32f4xx_hal_adc_ex.c ****   /* Clear injected group conversion flag */
 451:./Libraries/STM32F4xx_HAL_Driver/Src/stm32f4xx_hal_adc_ex.c ****   __HAL_ADC_CLEAR_FLAG(hadc, ADC_FLAG_JSTRT | ADC_FLAG_JEOC);
 745              		.loc 1 451 3
ARM GAS  /tmp/cciLPtso.s 			page 22


 746 0054 7B68     		ldr	r3, [r7, #4]
 747 0056 1B68     		ldr	r3, [r3]
 748 0058 6FF00C02 		mvn	r2, #12
 749 005c 1A60     		str	r2, [r3]
 452:./Libraries/STM32F4xx_HAL_Driver/Src/stm32f4xx_hal_adc_ex.c ****     
 453:./Libraries/STM32F4xx_HAL_Driver/Src/stm32f4xx_hal_adc_ex.c ****   /* Update ADC state machine */
 454:./Libraries/STM32F4xx_HAL_Driver/Src/stm32f4xx_hal_adc_ex.c ****   SET_BIT(hadc->State, HAL_ADC_STATE_INJ_EOC);
 750              		.loc 1 454 3
 751 005e 7B68     		ldr	r3, [r7, #4]
 752 0060 1B6C     		ldr	r3, [r3, #64]
 753 0062 43F40052 		orr	r2, r3, #8192
 754 0066 7B68     		ldr	r3, [r7, #4]
 755 0068 1A64     		str	r2, [r3, #64]
 455:./Libraries/STM32F4xx_HAL_Driver/Src/stm32f4xx_hal_adc_ex.c ****   
 456:./Libraries/STM32F4xx_HAL_Driver/Src/stm32f4xx_hal_adc_ex.c ****   /* Determine whether any further conversion upcoming on group injected      */
 457:./Libraries/STM32F4xx_HAL_Driver/Src/stm32f4xx_hal_adc_ex.c ****   /* by external trigger, continuous mode or scan sequence on going.          */
 458:./Libraries/STM32F4xx_HAL_Driver/Src/stm32f4xx_hal_adc_ex.c ****   /* Note: On STM32F4, there is no independent flag of end of sequence.       */
 459:./Libraries/STM32F4xx_HAL_Driver/Src/stm32f4xx_hal_adc_ex.c ****   /*       The test of scan sequence on going is done either with scan        */
 460:./Libraries/STM32F4xx_HAL_Driver/Src/stm32f4xx_hal_adc_ex.c ****   /*       sequence disabled or with end of conversion flag set to            */
 461:./Libraries/STM32F4xx_HAL_Driver/Src/stm32f4xx_hal_adc_ex.c ****   /*       of end of sequence.                                                */
 462:./Libraries/STM32F4xx_HAL_Driver/Src/stm32f4xx_hal_adc_ex.c ****   if(ADC_IS_SOFTWARE_START_INJECTED(hadc)                    &&
 756              		.loc 1 462 6
 757 006a 7B68     		ldr	r3, [r7, #4]
 758 006c 1B68     		ldr	r3, [r3]
 759 006e 9B68     		ldr	r3, [r3, #8]
 760 0070 03F44013 		and	r3, r3, #3145728
 761              		.loc 1 462 5
 762 0074 002B     		cmp	r3, #0
 763 0076 31D1     		bne	.L34
 463:./Libraries/STM32F4xx_HAL_Driver/Src/stm32f4xx_hal_adc_ex.c ****      (HAL_IS_BIT_CLR(hadc->Instance->JSQR, ADC_JSQR_JL)  ||
 764              		.loc 1 463 7 discriminator 1
 765 0078 7B68     		ldr	r3, [r7, #4]
 766 007a 1B68     		ldr	r3, [r3]
 767 007c 9B6B     		ldr	r3, [r3, #56]
 768 007e 03F44013 		and	r3, r3, #3145728
 462:./Libraries/STM32F4xx_HAL_Driver/Src/stm32f4xx_hal_adc_ex.c ****      (HAL_IS_BIT_CLR(hadc->Instance->JSQR, ADC_JSQR_JL)  ||
 769              		.loc 1 462 62 discriminator 1
 770 0082 002B     		cmp	r3, #0
 771 0084 06D0     		beq	.L35
 464:./Libraries/STM32F4xx_HAL_Driver/Src/stm32f4xx_hal_adc_ex.c ****       HAL_IS_BIT_CLR(hadc->Instance->CR2, ADC_CR2_EOCS)    ) &&
 772              		.loc 1 464 7
 773 0086 7B68     		ldr	r3, [r7, #4]
 774 0088 1B68     		ldr	r3, [r3]
 775 008a 9B68     		ldr	r3, [r3, #8]
 776 008c 03F48063 		and	r3, r3, #1024
 463:./Libraries/STM32F4xx_HAL_Driver/Src/stm32f4xx_hal_adc_ex.c ****      (HAL_IS_BIT_CLR(hadc->Instance->JSQR, ADC_JSQR_JL)  ||
 777              		.loc 1 463 58
 778 0090 002B     		cmp	r3, #0
 779 0092 23D1     		bne	.L34
 780              	.L35:
 465:./Libraries/STM32F4xx_HAL_Driver/Src/stm32f4xx_hal_adc_ex.c ****      (HAL_IS_BIT_CLR(hadc->Instance->CR1, ADC_CR1_JAUTO) &&
 781              		.loc 1 465 7
 782 0094 7B68     		ldr	r3, [r7, #4]
 783 0096 1B68     		ldr	r3, [r3]
 784 0098 5B68     		ldr	r3, [r3, #4]
 785 009a 03F48063 		and	r3, r3, #1024
 464:./Libraries/STM32F4xx_HAL_Driver/Src/stm32f4xx_hal_adc_ex.c ****       HAL_IS_BIT_CLR(hadc->Instance->CR2, ADC_CR2_EOCS)    ) &&
ARM GAS  /tmp/cciLPtso.s 			page 23


 786              		.loc 1 464 62
 787 009e 002B     		cmp	r3, #0
 788 00a0 1CD1     		bne	.L34
 466:./Libraries/STM32F4xx_HAL_Driver/Src/stm32f4xx_hal_adc_ex.c ****       (ADC_IS_SOFTWARE_START_REGULAR(hadc)       &&
 789              		.loc 1 466 8
 790 00a2 7B68     		ldr	r3, [r7, #4]
 791 00a4 1B68     		ldr	r3, [r3]
 792 00a6 9B68     		ldr	r3, [r3, #8]
 793 00a8 03F04053 		and	r3, r3, #805306368
 465:./Libraries/STM32F4xx_HAL_Driver/Src/stm32f4xx_hal_adc_ex.c ****      (HAL_IS_BIT_CLR(hadc->Instance->CR1, ADC_CR1_JAUTO) &&
 794              		.loc 1 465 58
 795 00ac 002B     		cmp	r3, #0
 796 00ae 15D1     		bne	.L34
 467:./Libraries/STM32F4xx_HAL_Driver/Src/stm32f4xx_hal_adc_ex.c ****       (hadc->Init.ContinuousConvMode == DISABLE)   )       )   )
 797              		.loc 1 467 18
 798 00b0 7B68     		ldr	r3, [r7, #4]
 799 00b2 9B69     		ldr	r3, [r3, #24]
 466:./Libraries/STM32F4xx_HAL_Driver/Src/stm32f4xx_hal_adc_ex.c ****       (ADC_IS_SOFTWARE_START_REGULAR(hadc)       &&
 800              		.loc 1 466 50
 801 00b4 002B     		cmp	r3, #0
 802 00b6 11D1     		bne	.L34
 468:./Libraries/STM32F4xx_HAL_Driver/Src/stm32f4xx_hal_adc_ex.c ****   {
 469:./Libraries/STM32F4xx_HAL_Driver/Src/stm32f4xx_hal_adc_ex.c ****     /* Set ADC state */
 470:./Libraries/STM32F4xx_HAL_Driver/Src/stm32f4xx_hal_adc_ex.c ****     CLEAR_BIT(hadc->State, HAL_ADC_STATE_INJ_BUSY);
 803              		.loc 1 470 5
 804 00b8 7B68     		ldr	r3, [r7, #4]
 805 00ba 1B6C     		ldr	r3, [r3, #64]
 806 00bc 23F48052 		bic	r2, r3, #4096
 807 00c0 7B68     		ldr	r3, [r7, #4]
 808 00c2 1A64     		str	r2, [r3, #64]
 471:./Libraries/STM32F4xx_HAL_Driver/Src/stm32f4xx_hal_adc_ex.c ****     
 472:./Libraries/STM32F4xx_HAL_Driver/Src/stm32f4xx_hal_adc_ex.c ****     if (HAL_IS_BIT_CLR(hadc->State, HAL_ADC_STATE_REG_BUSY))
 809              		.loc 1 472 9
 810 00c4 7B68     		ldr	r3, [r7, #4]
 811 00c6 1B6C     		ldr	r3, [r3, #64]
 812 00c8 03F48073 		and	r3, r3, #256
 813              		.loc 1 472 8
 814 00cc 002B     		cmp	r3, #0
 815 00ce 05D1     		bne	.L34
 473:./Libraries/STM32F4xx_HAL_Driver/Src/stm32f4xx_hal_adc_ex.c ****     { 
 474:./Libraries/STM32F4xx_HAL_Driver/Src/stm32f4xx_hal_adc_ex.c ****       SET_BIT(hadc->State, HAL_ADC_STATE_READY);
 816              		.loc 1 474 7
 817 00d0 7B68     		ldr	r3, [r7, #4]
 818 00d2 1B6C     		ldr	r3, [r3, #64]
 819 00d4 43F00102 		orr	r2, r3, #1
 820 00d8 7B68     		ldr	r3, [r7, #4]
 821 00da 1A64     		str	r2, [r3, #64]
 822              	.L34:
 475:./Libraries/STM32F4xx_HAL_Driver/Src/stm32f4xx_hal_adc_ex.c ****     }
 476:./Libraries/STM32F4xx_HAL_Driver/Src/stm32f4xx_hal_adc_ex.c ****   }
 477:./Libraries/STM32F4xx_HAL_Driver/Src/stm32f4xx_hal_adc_ex.c ****   
 478:./Libraries/STM32F4xx_HAL_Driver/Src/stm32f4xx_hal_adc_ex.c ****   /* Return ADC state */
 479:./Libraries/STM32F4xx_HAL_Driver/Src/stm32f4xx_hal_adc_ex.c ****   return HAL_OK;
 823              		.loc 1 479 10
 824 00dc 0023     		movs	r3, #0
 825              	.L32:
 480:./Libraries/STM32F4xx_HAL_Driver/Src/stm32f4xx_hal_adc_ex.c **** }      
ARM GAS  /tmp/cciLPtso.s 			page 24


 826              		.loc 1 480 1
 827 00de 1846     		mov	r0, r3
 828 00e0 1037     		adds	r7, r7, #16
 829              	.LCFI21:
 830              		.cfi_def_cfa_offset 8
 831 00e2 BD46     		mov	sp, r7
 832              	.LCFI22:
 833              		.cfi_def_cfa_register 13
 834              		@ sp needed
 835 00e4 80BD     		pop	{r7, pc}
 836              		.cfi_endproc
 837              	.LFE129:
 839              		.section	.text.HAL_ADCEx_InjectedStop_IT,"ax",%progbits
 840              		.align	1
 841              		.global	HAL_ADCEx_InjectedStop_IT
 842              		.syntax unified
 843              		.thumb
 844              		.thumb_func
 845              		.fpu fpv4-sp-d16
 847              	HAL_ADCEx_InjectedStop_IT:
 848              	.LFB130:
 481:./Libraries/STM32F4xx_HAL_Driver/Src/stm32f4xx_hal_adc_ex.c ****   
 482:./Libraries/STM32F4xx_HAL_Driver/Src/stm32f4xx_hal_adc_ex.c **** /**
 483:./Libraries/STM32F4xx_HAL_Driver/Src/stm32f4xx_hal_adc_ex.c ****   * @brief  Stop conversion of injected channels, disable interruption of 
 484:./Libraries/STM32F4xx_HAL_Driver/Src/stm32f4xx_hal_adc_ex.c ****   *         end-of-conversion. Disable ADC peripheral if no regular conversion
 485:./Libraries/STM32F4xx_HAL_Driver/Src/stm32f4xx_hal_adc_ex.c ****   *         is on going.
 486:./Libraries/STM32F4xx_HAL_Driver/Src/stm32f4xx_hal_adc_ex.c ****   * @note   If ADC must be disabled and if conversion is on going on 
 487:./Libraries/STM32F4xx_HAL_Driver/Src/stm32f4xx_hal_adc_ex.c ****   *         regular group, function HAL_ADC_Stop must be used to stop both
 488:./Libraries/STM32F4xx_HAL_Driver/Src/stm32f4xx_hal_adc_ex.c ****   *         injected and regular groups, and disable the ADC.
 489:./Libraries/STM32F4xx_HAL_Driver/Src/stm32f4xx_hal_adc_ex.c ****   * @note   If injected group mode auto-injection is enabled,
 490:./Libraries/STM32F4xx_HAL_Driver/Src/stm32f4xx_hal_adc_ex.c ****   *         function HAL_ADC_Stop must be used.
 491:./Libraries/STM32F4xx_HAL_Driver/Src/stm32f4xx_hal_adc_ex.c ****   * @param  hadc ADC handle
 492:./Libraries/STM32F4xx_HAL_Driver/Src/stm32f4xx_hal_adc_ex.c ****   * @retval None
 493:./Libraries/STM32F4xx_HAL_Driver/Src/stm32f4xx_hal_adc_ex.c ****   */
 494:./Libraries/STM32F4xx_HAL_Driver/Src/stm32f4xx_hal_adc_ex.c **** HAL_StatusTypeDef HAL_ADCEx_InjectedStop_IT(ADC_HandleTypeDef* hadc)
 495:./Libraries/STM32F4xx_HAL_Driver/Src/stm32f4xx_hal_adc_ex.c **** {
 849              		.loc 1 495 1
 850              		.cfi_startproc
 851              		@ args = 0, pretend = 0, frame = 16
 852              		@ frame_needed = 1, uses_anonymous_args = 0
 853              		@ link register save eliminated.
 854 0000 80B4     		push	{r7}
 855              	.LCFI23:
 856              		.cfi_def_cfa_offset 4
 857              		.cfi_offset 7, -4
 858 0002 85B0     		sub	sp, sp, #20
 859              	.LCFI24:
 860              		.cfi_def_cfa_offset 24
 861 0004 00AF     		add	r7, sp, #0
 862              	.LCFI25:
 863              		.cfi_def_cfa_register 7
 864 0006 7860     		str	r0, [r7, #4]
 496:./Libraries/STM32F4xx_HAL_Driver/Src/stm32f4xx_hal_adc_ex.c ****   HAL_StatusTypeDef tmp_hal_status = HAL_OK;
 865              		.loc 1 496 21
 866 0008 0023     		movs	r3, #0
 867 000a FB73     		strb	r3, [r7, #15]
 497:./Libraries/STM32F4xx_HAL_Driver/Src/stm32f4xx_hal_adc_ex.c ****   
ARM GAS  /tmp/cciLPtso.s 			page 25


 498:./Libraries/STM32F4xx_HAL_Driver/Src/stm32f4xx_hal_adc_ex.c ****   /* Check the parameters */
 499:./Libraries/STM32F4xx_HAL_Driver/Src/stm32f4xx_hal_adc_ex.c ****   assert_param(IS_ADC_ALL_INSTANCE(hadc->Instance));
 500:./Libraries/STM32F4xx_HAL_Driver/Src/stm32f4xx_hal_adc_ex.c **** 
 501:./Libraries/STM32F4xx_HAL_Driver/Src/stm32f4xx_hal_adc_ex.c ****   /* Process locked */
 502:./Libraries/STM32F4xx_HAL_Driver/Src/stm32f4xx_hal_adc_ex.c ****   __HAL_LOCK(hadc);
 868              		.loc 1 502 3
 869 000c 7B68     		ldr	r3, [r7, #4]
 870 000e 93F83C30 		ldrb	r3, [r3, #60]	@ zero_extendqisi2
 871 0012 012B     		cmp	r3, #1
 872 0014 01D1     		bne	.L37
 873              		.loc 1 502 3 is_stmt 0 discriminator 1
 874 0016 0223     		movs	r3, #2
 875 0018 3FE0     		b	.L38
 876              	.L37:
 877              		.loc 1 502 3 discriminator 2
 878 001a 7B68     		ldr	r3, [r7, #4]
 879 001c 0122     		movs	r2, #1
 880 001e 83F83C20 		strb	r2, [r3, #60]
 503:./Libraries/STM32F4xx_HAL_Driver/Src/stm32f4xx_hal_adc_ex.c ****     
 504:./Libraries/STM32F4xx_HAL_Driver/Src/stm32f4xx_hal_adc_ex.c ****   /* Stop potential conversion and disable ADC peripheral                     */
 505:./Libraries/STM32F4xx_HAL_Driver/Src/stm32f4xx_hal_adc_ex.c ****   /* Conditioned to:                                                          */
 506:./Libraries/STM32F4xx_HAL_Driver/Src/stm32f4xx_hal_adc_ex.c ****   /* - No conversion on the other group (regular group) is intended to        */
 507:./Libraries/STM32F4xx_HAL_Driver/Src/stm32f4xx_hal_adc_ex.c ****   /*   continue (injected and regular groups stop conversion and ADC disable  */
 508:./Libraries/STM32F4xx_HAL_Driver/Src/stm32f4xx_hal_adc_ex.c ****   /*   are common)                                                            */
 509:./Libraries/STM32F4xx_HAL_Driver/Src/stm32f4xx_hal_adc_ex.c ****   /* - In case of auto-injection mode, HAL_ADC_Stop must be used.             */ 
 510:./Libraries/STM32F4xx_HAL_Driver/Src/stm32f4xx_hal_adc_ex.c ****   if(((hadc->State & HAL_ADC_STATE_REG_BUSY) == RESET)  &&
 881              		.loc 1 510 12 is_stmt 1 discriminator 2
 882 0022 7B68     		ldr	r3, [r7, #4]
 883 0024 1B6C     		ldr	r3, [r3, #64]
 884              		.loc 1 510 20 discriminator 2
 885 0026 03F48073 		and	r3, r3, #256
 886              		.loc 1 510 5 discriminator 2
 887 002a 002B     		cmp	r3, #0
 888 002c 28D1     		bne	.L39
 511:./Libraries/STM32F4xx_HAL_Driver/Src/stm32f4xx_hal_adc_ex.c ****      HAL_IS_BIT_CLR(hadc->Instance->CR1, ADC_CR1_JAUTO)   )
 889              		.loc 1 511 6 discriminator 1
 890 002e 7B68     		ldr	r3, [r7, #4]
 891 0030 1B68     		ldr	r3, [r3]
 892 0032 5B68     		ldr	r3, [r3, #4]
 893 0034 03F48063 		and	r3, r3, #1024
 510:./Libraries/STM32F4xx_HAL_Driver/Src/stm32f4xx_hal_adc_ex.c ****      HAL_IS_BIT_CLR(hadc->Instance->CR1, ADC_CR1_JAUTO)   )
 894              		.loc 1 510 57 discriminator 1
 895 0038 002B     		cmp	r3, #0
 896 003a 21D1     		bne	.L39
 512:./Libraries/STM32F4xx_HAL_Driver/Src/stm32f4xx_hal_adc_ex.c ****   {
 513:./Libraries/STM32F4xx_HAL_Driver/Src/stm32f4xx_hal_adc_ex.c ****     /* Stop potential conversion on going, on regular and injected groups */
 514:./Libraries/STM32F4xx_HAL_Driver/Src/stm32f4xx_hal_adc_ex.c ****     /* Disable ADC peripheral */
 515:./Libraries/STM32F4xx_HAL_Driver/Src/stm32f4xx_hal_adc_ex.c ****     __HAL_ADC_DISABLE(hadc);
 897              		.loc 1 515 5
 898 003c 7B68     		ldr	r3, [r7, #4]
 899 003e 1B68     		ldr	r3, [r3]
 900 0040 9A68     		ldr	r2, [r3, #8]
 901 0042 7B68     		ldr	r3, [r7, #4]
 902 0044 1B68     		ldr	r3, [r3]
 903 0046 22F00102 		bic	r2, r2, #1
 904 004a 9A60     		str	r2, [r3, #8]
 516:./Libraries/STM32F4xx_HAL_Driver/Src/stm32f4xx_hal_adc_ex.c ****     
ARM GAS  /tmp/cciLPtso.s 			page 26


 517:./Libraries/STM32F4xx_HAL_Driver/Src/stm32f4xx_hal_adc_ex.c ****     /* Check if ADC is effectively disabled */
 518:./Libraries/STM32F4xx_HAL_Driver/Src/stm32f4xx_hal_adc_ex.c ****     if(HAL_IS_BIT_CLR(hadc->Instance->CR2, ADC_CR2_ADON))
 905              		.loc 1 518 8
 906 004c 7B68     		ldr	r3, [r7, #4]
 907 004e 1B68     		ldr	r3, [r3]
 908 0050 9B68     		ldr	r3, [r3, #8]
 909 0052 03F00103 		and	r3, r3, #1
 910              		.loc 1 518 7
 911 0056 002B     		cmp	r3, #0
 912 0058 1AD1     		bne	.L41
 519:./Libraries/STM32F4xx_HAL_Driver/Src/stm32f4xx_hal_adc_ex.c ****     {
 520:./Libraries/STM32F4xx_HAL_Driver/Src/stm32f4xx_hal_adc_ex.c ****       /* Disable ADC end of conversion interrupt for injected channels */
 521:./Libraries/STM32F4xx_HAL_Driver/Src/stm32f4xx_hal_adc_ex.c ****       __HAL_ADC_DISABLE_IT(hadc, ADC_IT_JEOC);
 913              		.loc 1 521 7
 914 005a 7B68     		ldr	r3, [r7, #4]
 915 005c 1B68     		ldr	r3, [r3]
 916 005e 5A68     		ldr	r2, [r3, #4]
 917 0060 7B68     		ldr	r3, [r7, #4]
 918 0062 1B68     		ldr	r3, [r3]
 919 0064 22F08002 		bic	r2, r2, #128
 920 0068 5A60     		str	r2, [r3, #4]
 522:./Libraries/STM32F4xx_HAL_Driver/Src/stm32f4xx_hal_adc_ex.c ****       
 523:./Libraries/STM32F4xx_HAL_Driver/Src/stm32f4xx_hal_adc_ex.c ****       /* Set ADC state */
 524:./Libraries/STM32F4xx_HAL_Driver/Src/stm32f4xx_hal_adc_ex.c ****       ADC_STATE_CLR_SET(hadc->State,
 921              		.loc 1 524 7
 922 006a 7B68     		ldr	r3, [r7, #4]
 923 006c 1B6C     		ldr	r3, [r3, #64]
 924 006e 23F48853 		bic	r3, r3, #4352
 925 0072 23F00103 		bic	r3, r3, #1
 926 0076 43F00102 		orr	r2, r3, #1
 927 007a 7B68     		ldr	r3, [r7, #4]
 928 007c 1A64     		str	r2, [r3, #64]
 518:./Libraries/STM32F4xx_HAL_Driver/Src/stm32f4xx_hal_adc_ex.c ****     {
 929              		.loc 1 518 7
 930 007e 07E0     		b	.L41
 931              	.L39:
 525:./Libraries/STM32F4xx_HAL_Driver/Src/stm32f4xx_hal_adc_ex.c ****                         HAL_ADC_STATE_REG_BUSY | HAL_ADC_STATE_INJ_BUSY,
 526:./Libraries/STM32F4xx_HAL_Driver/Src/stm32f4xx_hal_adc_ex.c ****                         HAL_ADC_STATE_READY);
 527:./Libraries/STM32F4xx_HAL_Driver/Src/stm32f4xx_hal_adc_ex.c ****     }
 528:./Libraries/STM32F4xx_HAL_Driver/Src/stm32f4xx_hal_adc_ex.c ****   }
 529:./Libraries/STM32F4xx_HAL_Driver/Src/stm32f4xx_hal_adc_ex.c ****   else
 530:./Libraries/STM32F4xx_HAL_Driver/Src/stm32f4xx_hal_adc_ex.c ****   {
 531:./Libraries/STM32F4xx_HAL_Driver/Src/stm32f4xx_hal_adc_ex.c ****     /* Update ADC state machine to error */
 532:./Libraries/STM32F4xx_HAL_Driver/Src/stm32f4xx_hal_adc_ex.c ****     SET_BIT(hadc->State, HAL_ADC_STATE_ERROR_CONFIG);
 932              		.loc 1 532 5
 933 0080 7B68     		ldr	r3, [r7, #4]
 934 0082 1B6C     		ldr	r3, [r3, #64]
 935 0084 43F02002 		orr	r2, r3, #32
 936 0088 7B68     		ldr	r3, [r7, #4]
 937 008a 1A64     		str	r2, [r3, #64]
 533:./Libraries/STM32F4xx_HAL_Driver/Src/stm32f4xx_hal_adc_ex.c ****       
 534:./Libraries/STM32F4xx_HAL_Driver/Src/stm32f4xx_hal_adc_ex.c ****     tmp_hal_status = HAL_ERROR;
 938              		.loc 1 534 20
 939 008c 0123     		movs	r3, #1
 940 008e FB73     		strb	r3, [r7, #15]
 941              	.L41:
 535:./Libraries/STM32F4xx_HAL_Driver/Src/stm32f4xx_hal_adc_ex.c ****   }
ARM GAS  /tmp/cciLPtso.s 			page 27


 536:./Libraries/STM32F4xx_HAL_Driver/Src/stm32f4xx_hal_adc_ex.c ****   
 537:./Libraries/STM32F4xx_HAL_Driver/Src/stm32f4xx_hal_adc_ex.c ****   /* Process unlocked */
 538:./Libraries/STM32F4xx_HAL_Driver/Src/stm32f4xx_hal_adc_ex.c ****   __HAL_UNLOCK(hadc);
 942              		.loc 1 538 3
 943 0090 7B68     		ldr	r3, [r7, #4]
 944 0092 0022     		movs	r2, #0
 945 0094 83F83C20 		strb	r2, [r3, #60]
 539:./Libraries/STM32F4xx_HAL_Driver/Src/stm32f4xx_hal_adc_ex.c ****   
 540:./Libraries/STM32F4xx_HAL_Driver/Src/stm32f4xx_hal_adc_ex.c ****   /* Return function status */
 541:./Libraries/STM32F4xx_HAL_Driver/Src/stm32f4xx_hal_adc_ex.c ****   return tmp_hal_status;
 946              		.loc 1 541 10
 947 0098 FB7B     		ldrb	r3, [r7, #15]	@ zero_extendqisi2
 948              	.L38:
 542:./Libraries/STM32F4xx_HAL_Driver/Src/stm32f4xx_hal_adc_ex.c **** }
 949              		.loc 1 542 1
 950 009a 1846     		mov	r0, r3
 951 009c 1437     		adds	r7, r7, #20
 952              	.LCFI26:
 953              		.cfi_def_cfa_offset 4
 954 009e BD46     		mov	sp, r7
 955              	.LCFI27:
 956              		.cfi_def_cfa_register 13
 957              		@ sp needed
 958 00a0 5DF8047B 		ldr	r7, [sp], #4
 959              	.LCFI28:
 960              		.cfi_restore 7
 961              		.cfi_def_cfa_offset 0
 962 00a4 7047     		bx	lr
 963              		.cfi_endproc
 964              	.LFE130:
 966              		.section	.text.HAL_ADCEx_InjectedGetValue,"ax",%progbits
 967              		.align	1
 968              		.global	HAL_ADCEx_InjectedGetValue
 969              		.syntax unified
 970              		.thumb
 971              		.thumb_func
 972              		.fpu fpv4-sp-d16
 974              	HAL_ADCEx_InjectedGetValue:
 975              	.LFB131:
 543:./Libraries/STM32F4xx_HAL_Driver/Src/stm32f4xx_hal_adc_ex.c **** 
 544:./Libraries/STM32F4xx_HAL_Driver/Src/stm32f4xx_hal_adc_ex.c **** /**
 545:./Libraries/STM32F4xx_HAL_Driver/Src/stm32f4xx_hal_adc_ex.c ****   * @brief  Gets the converted value from data register of injected channel.
 546:./Libraries/STM32F4xx_HAL_Driver/Src/stm32f4xx_hal_adc_ex.c ****   * @param  hadc pointer to a ADC_HandleTypeDef structure that contains
 547:./Libraries/STM32F4xx_HAL_Driver/Src/stm32f4xx_hal_adc_ex.c ****   *         the configuration information for the specified ADC.
 548:./Libraries/STM32F4xx_HAL_Driver/Src/stm32f4xx_hal_adc_ex.c ****   * @param  InjectedRank the ADC injected rank.
 549:./Libraries/STM32F4xx_HAL_Driver/Src/stm32f4xx_hal_adc_ex.c ****   *          This parameter can be one of the following values:
 550:./Libraries/STM32F4xx_HAL_Driver/Src/stm32f4xx_hal_adc_ex.c ****   *            @arg ADC_INJECTED_RANK_1: Injected Channel1 selected
 551:./Libraries/STM32F4xx_HAL_Driver/Src/stm32f4xx_hal_adc_ex.c ****   *            @arg ADC_INJECTED_RANK_2: Injected Channel2 selected
 552:./Libraries/STM32F4xx_HAL_Driver/Src/stm32f4xx_hal_adc_ex.c ****   *            @arg ADC_INJECTED_RANK_3: Injected Channel3 selected
 553:./Libraries/STM32F4xx_HAL_Driver/Src/stm32f4xx_hal_adc_ex.c ****   *            @arg ADC_INJECTED_RANK_4: Injected Channel4 selected
 554:./Libraries/STM32F4xx_HAL_Driver/Src/stm32f4xx_hal_adc_ex.c ****   * @retval None
 555:./Libraries/STM32F4xx_HAL_Driver/Src/stm32f4xx_hal_adc_ex.c ****   */
 556:./Libraries/STM32F4xx_HAL_Driver/Src/stm32f4xx_hal_adc_ex.c **** uint32_t HAL_ADCEx_InjectedGetValue(ADC_HandleTypeDef* hadc, uint32_t InjectedRank)
 557:./Libraries/STM32F4xx_HAL_Driver/Src/stm32f4xx_hal_adc_ex.c **** {
 976              		.loc 1 557 1
 977              		.cfi_startproc
 978              		@ args = 0, pretend = 0, frame = 16
ARM GAS  /tmp/cciLPtso.s 			page 28


 979              		@ frame_needed = 1, uses_anonymous_args = 0
 980              		@ link register save eliminated.
 981 0000 80B4     		push	{r7}
 982              	.LCFI29:
 983              		.cfi_def_cfa_offset 4
 984              		.cfi_offset 7, -4
 985 0002 85B0     		sub	sp, sp, #20
 986              	.LCFI30:
 987              		.cfi_def_cfa_offset 24
 988 0004 00AF     		add	r7, sp, #0
 989              	.LCFI31:
 990              		.cfi_def_cfa_register 7
 991 0006 7860     		str	r0, [r7, #4]
 992 0008 3960     		str	r1, [r7]
 558:./Libraries/STM32F4xx_HAL_Driver/Src/stm32f4xx_hal_adc_ex.c ****   __IO uint32_t tmp = 0U;
 993              		.loc 1 558 17
 994 000a 0023     		movs	r3, #0
 995 000c FB60     		str	r3, [r7, #12]
 559:./Libraries/STM32F4xx_HAL_Driver/Src/stm32f4xx_hal_adc_ex.c ****   
 560:./Libraries/STM32F4xx_HAL_Driver/Src/stm32f4xx_hal_adc_ex.c ****   /* Check the parameters */
 561:./Libraries/STM32F4xx_HAL_Driver/Src/stm32f4xx_hal_adc_ex.c ****   assert_param(IS_ADC_INJECTED_RANK(InjectedRank));
 562:./Libraries/STM32F4xx_HAL_Driver/Src/stm32f4xx_hal_adc_ex.c ****   
 563:./Libraries/STM32F4xx_HAL_Driver/Src/stm32f4xx_hal_adc_ex.c ****   /* Clear injected group conversion flag to have similar behaviour as        */
 564:./Libraries/STM32F4xx_HAL_Driver/Src/stm32f4xx_hal_adc_ex.c ****   /* regular group: reading data register also clears end of conversion flag. */
 565:./Libraries/STM32F4xx_HAL_Driver/Src/stm32f4xx_hal_adc_ex.c ****   __HAL_ADC_CLEAR_FLAG(hadc, ADC_FLAG_JEOC);
 996              		.loc 1 565 3
 997 000e 7B68     		ldr	r3, [r7, #4]
 998 0010 1B68     		ldr	r3, [r3]
 999 0012 6FF00402 		mvn	r2, #4
 1000 0016 1A60     		str	r2, [r3]
 1001 0018 3B68     		ldr	r3, [r7]
 1002 001a 013B     		subs	r3, r3, #1
 1003 001c 032B     		cmp	r3, #3
 1004 001e 1FD8     		bhi	.L51
 1005 0020 01A2     		adr	r2, .L45
 1006 0022 52F823F0 		ldr	pc, [r2, r3, lsl #2]
 1007 0026 00BF     		.p2align 2
 1008              	.L45:
 1009 0028 57000000 		.word	.L48+1
 1010 002c 4D000000 		.word	.L47+1
 1011 0030 43000000 		.word	.L46+1
 1012 0034 39000000 		.word	.L44+1
 1013              		.p2align 1
 1014              	.L44:
 566:./Libraries/STM32F4xx_HAL_Driver/Src/stm32f4xx_hal_adc_ex.c ****   
 567:./Libraries/STM32F4xx_HAL_Driver/Src/stm32f4xx_hal_adc_ex.c ****   /* Return the selected ADC converted value */ 
 568:./Libraries/STM32F4xx_HAL_Driver/Src/stm32f4xx_hal_adc_ex.c ****   switch(InjectedRank)
 569:./Libraries/STM32F4xx_HAL_Driver/Src/stm32f4xx_hal_adc_ex.c ****   {  
 570:./Libraries/STM32F4xx_HAL_Driver/Src/stm32f4xx_hal_adc_ex.c ****     case ADC_INJECTED_RANK_4:
 571:./Libraries/STM32F4xx_HAL_Driver/Src/stm32f4xx_hal_adc_ex.c ****     {
 572:./Libraries/STM32F4xx_HAL_Driver/Src/stm32f4xx_hal_adc_ex.c ****       tmp =  hadc->Instance->JDR4;
 1015              		.loc 1 572 18
 1016 0038 7B68     		ldr	r3, [r7, #4]
 1017 003a 1B68     		ldr	r3, [r3]
 1018              		.loc 1 572 28
 1019 003c 9B6C     		ldr	r3, [r3, #72]
 1020              		.loc 1 572 11
ARM GAS  /tmp/cciLPtso.s 			page 29


 1021 003e FB60     		str	r3, [r7, #12]
 573:./Libraries/STM32F4xx_HAL_Driver/Src/stm32f4xx_hal_adc_ex.c ****     }  
 574:./Libraries/STM32F4xx_HAL_Driver/Src/stm32f4xx_hal_adc_ex.c ****     break;
 1022              		.loc 1 574 5
 1023 0040 0FE0     		b	.L49
 1024              	.L46:
 575:./Libraries/STM32F4xx_HAL_Driver/Src/stm32f4xx_hal_adc_ex.c ****     case ADC_INJECTED_RANK_3: 
 576:./Libraries/STM32F4xx_HAL_Driver/Src/stm32f4xx_hal_adc_ex.c ****     {  
 577:./Libraries/STM32F4xx_HAL_Driver/Src/stm32f4xx_hal_adc_ex.c ****       tmp =  hadc->Instance->JDR3;
 1025              		.loc 1 577 18
 1026 0042 7B68     		ldr	r3, [r7, #4]
 1027 0044 1B68     		ldr	r3, [r3]
 1028              		.loc 1 577 28
 1029 0046 5B6C     		ldr	r3, [r3, #68]
 1030              		.loc 1 577 11
 1031 0048 FB60     		str	r3, [r7, #12]
 578:./Libraries/STM32F4xx_HAL_Driver/Src/stm32f4xx_hal_adc_ex.c ****     }  
 579:./Libraries/STM32F4xx_HAL_Driver/Src/stm32f4xx_hal_adc_ex.c ****     break;
 1032              		.loc 1 579 5
 1033 004a 0AE0     		b	.L49
 1034              	.L47:
 580:./Libraries/STM32F4xx_HAL_Driver/Src/stm32f4xx_hal_adc_ex.c ****     case ADC_INJECTED_RANK_2: 
 581:./Libraries/STM32F4xx_HAL_Driver/Src/stm32f4xx_hal_adc_ex.c ****     {  
 582:./Libraries/STM32F4xx_HAL_Driver/Src/stm32f4xx_hal_adc_ex.c ****       tmp =  hadc->Instance->JDR2;
 1035              		.loc 1 582 18
 1036 004c 7B68     		ldr	r3, [r7, #4]
 1037 004e 1B68     		ldr	r3, [r3]
 1038              		.loc 1 582 28
 1039 0050 1B6C     		ldr	r3, [r3, #64]
 1040              		.loc 1 582 11
 1041 0052 FB60     		str	r3, [r7, #12]
 583:./Libraries/STM32F4xx_HAL_Driver/Src/stm32f4xx_hal_adc_ex.c ****     }
 584:./Libraries/STM32F4xx_HAL_Driver/Src/stm32f4xx_hal_adc_ex.c ****     break;
 1042              		.loc 1 584 5
 1043 0054 05E0     		b	.L49
 1044              	.L48:
 585:./Libraries/STM32F4xx_HAL_Driver/Src/stm32f4xx_hal_adc_ex.c ****     case ADC_INJECTED_RANK_1:
 586:./Libraries/STM32F4xx_HAL_Driver/Src/stm32f4xx_hal_adc_ex.c ****     {
 587:./Libraries/STM32F4xx_HAL_Driver/Src/stm32f4xx_hal_adc_ex.c ****       tmp =  hadc->Instance->JDR1;
 1045              		.loc 1 587 18
 1046 0056 7B68     		ldr	r3, [r7, #4]
 1047 0058 1B68     		ldr	r3, [r3]
 1048              		.loc 1 587 28
 1049 005a DB6B     		ldr	r3, [r3, #60]
 1050              		.loc 1 587 11
 1051 005c FB60     		str	r3, [r7, #12]
 588:./Libraries/STM32F4xx_HAL_Driver/Src/stm32f4xx_hal_adc_ex.c ****     }
 589:./Libraries/STM32F4xx_HAL_Driver/Src/stm32f4xx_hal_adc_ex.c ****     break;
 1052              		.loc 1 589 5
 1053 005e 00E0     		b	.L49
 1054              	.L51:
 590:./Libraries/STM32F4xx_HAL_Driver/Src/stm32f4xx_hal_adc_ex.c ****     default:
 591:./Libraries/STM32F4xx_HAL_Driver/Src/stm32f4xx_hal_adc_ex.c ****     break;  
 1055              		.loc 1 591 5
 1056 0060 00BF     		nop
 1057              	.L49:
 592:./Libraries/STM32F4xx_HAL_Driver/Src/stm32f4xx_hal_adc_ex.c ****   }
ARM GAS  /tmp/cciLPtso.s 			page 30


 593:./Libraries/STM32F4xx_HAL_Driver/Src/stm32f4xx_hal_adc_ex.c ****   return tmp;
 1058              		.loc 1 593 10
 1059 0062 FB68     		ldr	r3, [r7, #12]
 594:./Libraries/STM32F4xx_HAL_Driver/Src/stm32f4xx_hal_adc_ex.c **** }
 1060              		.loc 1 594 1
 1061 0064 1846     		mov	r0, r3
 1062 0066 1437     		adds	r7, r7, #20
 1063              	.LCFI32:
 1064              		.cfi_def_cfa_offset 4
 1065 0068 BD46     		mov	sp, r7
 1066              	.LCFI33:
 1067              		.cfi_def_cfa_register 13
 1068              		@ sp needed
 1069 006a 5DF8047B 		ldr	r7, [sp], #4
 1070              	.LCFI34:
 1071              		.cfi_restore 7
 1072              		.cfi_def_cfa_offset 0
 1073 006e 7047     		bx	lr
 1074              		.cfi_endproc
 1075              	.LFE131:
 1077              		.section	.text.HAL_ADCEx_MultiModeStart_DMA,"ax",%progbits
 1078              		.align	1
 1079              		.global	HAL_ADCEx_MultiModeStart_DMA
 1080              		.syntax unified
 1081              		.thumb
 1082              		.thumb_func
 1083              		.fpu fpv4-sp-d16
 1085              	HAL_ADCEx_MultiModeStart_DMA:
 1086              	.LFB132:
 595:./Libraries/STM32F4xx_HAL_Driver/Src/stm32f4xx_hal_adc_ex.c **** 
 596:./Libraries/STM32F4xx_HAL_Driver/Src/stm32f4xx_hal_adc_ex.c **** /**
 597:./Libraries/STM32F4xx_HAL_Driver/Src/stm32f4xx_hal_adc_ex.c ****   * @brief  Enables ADC DMA request after last transfer (Multi-ADC mode) and enables ADC peripheral
 598:./Libraries/STM32F4xx_HAL_Driver/Src/stm32f4xx_hal_adc_ex.c ****   * 
 599:./Libraries/STM32F4xx_HAL_Driver/Src/stm32f4xx_hal_adc_ex.c ****   * @note   Caution: This function must be used only with the ADC master.  
 600:./Libraries/STM32F4xx_HAL_Driver/Src/stm32f4xx_hal_adc_ex.c ****   *
 601:./Libraries/STM32F4xx_HAL_Driver/Src/stm32f4xx_hal_adc_ex.c ****   * @param  hadc pointer to a ADC_HandleTypeDef structure that contains
 602:./Libraries/STM32F4xx_HAL_Driver/Src/stm32f4xx_hal_adc_ex.c ****   *         the configuration information for the specified ADC.
 603:./Libraries/STM32F4xx_HAL_Driver/Src/stm32f4xx_hal_adc_ex.c ****   * @param  pData   Pointer to buffer in which transferred from ADC peripheral to memory will be st
 604:./Libraries/STM32F4xx_HAL_Driver/Src/stm32f4xx_hal_adc_ex.c ****   * @param  Length  The length of data to be transferred from ADC peripheral to memory.  
 605:./Libraries/STM32F4xx_HAL_Driver/Src/stm32f4xx_hal_adc_ex.c ****   * @retval HAL status
 606:./Libraries/STM32F4xx_HAL_Driver/Src/stm32f4xx_hal_adc_ex.c ****   */
 607:./Libraries/STM32F4xx_HAL_Driver/Src/stm32f4xx_hal_adc_ex.c **** HAL_StatusTypeDef HAL_ADCEx_MultiModeStart_DMA(ADC_HandleTypeDef* hadc, uint32_t* pData, uint32_t L
 608:./Libraries/STM32F4xx_HAL_Driver/Src/stm32f4xx_hal_adc_ex.c **** {
 1087              		.loc 1 608 1
 1088              		.cfi_startproc
 1089              		@ args = 0, pretend = 0, frame = 24
 1090              		@ frame_needed = 1, uses_anonymous_args = 0
 1091 0000 80B5     		push	{r7, lr}
 1092              	.LCFI35:
 1093              		.cfi_def_cfa_offset 8
 1094              		.cfi_offset 7, -8
 1095              		.cfi_offset 14, -4
 1096 0002 86B0     		sub	sp, sp, #24
 1097              	.LCFI36:
 1098              		.cfi_def_cfa_offset 32
 1099 0004 00AF     		add	r7, sp, #0
 1100              	.LCFI37:
ARM GAS  /tmp/cciLPtso.s 			page 31


 1101              		.cfi_def_cfa_register 7
 1102 0006 F860     		str	r0, [r7, #12]
 1103 0008 B960     		str	r1, [r7, #8]
 1104 000a 7A60     		str	r2, [r7, #4]
 609:./Libraries/STM32F4xx_HAL_Driver/Src/stm32f4xx_hal_adc_ex.c ****   __IO uint32_t counter = 0U;
 1105              		.loc 1 609 17
 1106 000c 0023     		movs	r3, #0
 1107 000e 3B61     		str	r3, [r7, #16]
 610:./Libraries/STM32F4xx_HAL_Driver/Src/stm32f4xx_hal_adc_ex.c ****   ADC_Common_TypeDef *tmpADC_Common;
 611:./Libraries/STM32F4xx_HAL_Driver/Src/stm32f4xx_hal_adc_ex.c ****   
 612:./Libraries/STM32F4xx_HAL_Driver/Src/stm32f4xx_hal_adc_ex.c ****   /* Check the parameters */
 613:./Libraries/STM32F4xx_HAL_Driver/Src/stm32f4xx_hal_adc_ex.c ****   assert_param(IS_FUNCTIONAL_STATE(hadc->Init.ContinuousConvMode));
 614:./Libraries/STM32F4xx_HAL_Driver/Src/stm32f4xx_hal_adc_ex.c ****   assert_param(IS_ADC_EXT_TRIG_EDGE(hadc->Init.ExternalTrigConvEdge));
 615:./Libraries/STM32F4xx_HAL_Driver/Src/stm32f4xx_hal_adc_ex.c ****   assert_param(IS_FUNCTIONAL_STATE(hadc->Init.DMAContinuousRequests));
 616:./Libraries/STM32F4xx_HAL_Driver/Src/stm32f4xx_hal_adc_ex.c ****   
 617:./Libraries/STM32F4xx_HAL_Driver/Src/stm32f4xx_hal_adc_ex.c ****   /* Process locked */
 618:./Libraries/STM32F4xx_HAL_Driver/Src/stm32f4xx_hal_adc_ex.c ****   __HAL_LOCK(hadc);
 1108              		.loc 1 618 3
 1109 0010 FB68     		ldr	r3, [r7, #12]
 1110 0012 93F83C30 		ldrb	r3, [r3, #60]	@ zero_extendqisi2
 1111 0016 012B     		cmp	r3, #1
 1112 0018 01D1     		bne	.L53
 1113              		.loc 1 618 3 is_stmt 0 discriminator 1
 1114 001a 0223     		movs	r3, #2
 1115 001c 9CE0     		b	.L54
 1116              	.L53:
 1117              		.loc 1 618 3 discriminator 2
 1118 001e FB68     		ldr	r3, [r7, #12]
 1119 0020 0122     		movs	r2, #1
 1120 0022 83F83C20 		strb	r2, [r3, #60]
 619:./Libraries/STM32F4xx_HAL_Driver/Src/stm32f4xx_hal_adc_ex.c ****   
 620:./Libraries/STM32F4xx_HAL_Driver/Src/stm32f4xx_hal_adc_ex.c ****   /* Check if ADC peripheral is disabled in order to enable it and wait during 
 621:./Libraries/STM32F4xx_HAL_Driver/Src/stm32f4xx_hal_adc_ex.c ****      Tstab time the ADC's stabilization */
 622:./Libraries/STM32F4xx_HAL_Driver/Src/stm32f4xx_hal_adc_ex.c ****   if((hadc->Instance->CR2 & ADC_CR2_ADON) != ADC_CR2_ADON)
 1121              		.loc 1 622 11 is_stmt 1 discriminator 2
 1122 0026 FB68     		ldr	r3, [r7, #12]
 1123 0028 1B68     		ldr	r3, [r3]
 1124              		.loc 1 622 21 discriminator 2
 1125 002a 9B68     		ldr	r3, [r3, #8]
 1126              		.loc 1 622 27 discriminator 2
 1127 002c 03F00103 		and	r3, r3, #1
 1128              		.loc 1 622 5 discriminator 2
 1129 0030 012B     		cmp	r3, #1
 1130 0032 18D0     		beq	.L55
 623:./Libraries/STM32F4xx_HAL_Driver/Src/stm32f4xx_hal_adc_ex.c ****   {  
 624:./Libraries/STM32F4xx_HAL_Driver/Src/stm32f4xx_hal_adc_ex.c ****     /* Enable the Peripheral */
 625:./Libraries/STM32F4xx_HAL_Driver/Src/stm32f4xx_hal_adc_ex.c ****     __HAL_ADC_ENABLE(hadc);
 1131              		.loc 1 625 5
 1132 0034 FB68     		ldr	r3, [r7, #12]
 1133 0036 1B68     		ldr	r3, [r3]
 1134 0038 9A68     		ldr	r2, [r3, #8]
 1135 003a FB68     		ldr	r3, [r7, #12]
 1136 003c 1B68     		ldr	r3, [r3]
 1137 003e 42F00102 		orr	r2, r2, #1
 1138 0042 9A60     		str	r2, [r3, #8]
 626:./Libraries/STM32F4xx_HAL_Driver/Src/stm32f4xx_hal_adc_ex.c ****     
 627:./Libraries/STM32F4xx_HAL_Driver/Src/stm32f4xx_hal_adc_ex.c ****     /* Delay for temperature sensor stabilization time */
ARM GAS  /tmp/cciLPtso.s 			page 32


 628:./Libraries/STM32F4xx_HAL_Driver/Src/stm32f4xx_hal_adc_ex.c ****     /* Compute number of CPU cycles to wait for */
 629:./Libraries/STM32F4xx_HAL_Driver/Src/stm32f4xx_hal_adc_ex.c ****     counter = (ADC_STAB_DELAY_US * (SystemCoreClock / 1000000U));
 1139              		.loc 1 629 53
 1140 0044 464B     		ldr	r3, .L64
 1141 0046 1B68     		ldr	r3, [r3]
 1142 0048 464A     		ldr	r2, .L64+4
 1143 004a A2FB0323 		umull	r2, r3, r2, r3
 1144 004e 9A0C     		lsrs	r2, r3, #18
 1145              		.loc 1 629 34
 1146 0050 1346     		mov	r3, r2
 1147 0052 5B00     		lsls	r3, r3, #1
 1148 0054 1344     		add	r3, r3, r2
 1149              		.loc 1 629 13
 1150 0056 3B61     		str	r3, [r7, #16]
 630:./Libraries/STM32F4xx_HAL_Driver/Src/stm32f4xx_hal_adc_ex.c ****     while(counter != 0U)
 1151              		.loc 1 630 10
 1152 0058 02E0     		b	.L56
 1153              	.L57:
 631:./Libraries/STM32F4xx_HAL_Driver/Src/stm32f4xx_hal_adc_ex.c ****     {
 632:./Libraries/STM32F4xx_HAL_Driver/Src/stm32f4xx_hal_adc_ex.c ****       counter--;
 1154              		.loc 1 632 14
 1155 005a 3B69     		ldr	r3, [r7, #16]
 1156 005c 013B     		subs	r3, r3, #1
 1157 005e 3B61     		str	r3, [r7, #16]
 1158              	.L56:
 630:./Libraries/STM32F4xx_HAL_Driver/Src/stm32f4xx_hal_adc_ex.c ****     while(counter != 0U)
 1159              		.loc 1 630 19
 1160 0060 3B69     		ldr	r3, [r7, #16]
 630:./Libraries/STM32F4xx_HAL_Driver/Src/stm32f4xx_hal_adc_ex.c ****     while(counter != 0U)
 1161              		.loc 1 630 10
 1162 0062 002B     		cmp	r3, #0
 1163 0064 F9D1     		bne	.L57
 1164              	.L55:
 633:./Libraries/STM32F4xx_HAL_Driver/Src/stm32f4xx_hal_adc_ex.c ****     }
 634:./Libraries/STM32F4xx_HAL_Driver/Src/stm32f4xx_hal_adc_ex.c ****   }
 635:./Libraries/STM32F4xx_HAL_Driver/Src/stm32f4xx_hal_adc_ex.c ****   
 636:./Libraries/STM32F4xx_HAL_Driver/Src/stm32f4xx_hal_adc_ex.c ****   /* Start conversion if ADC is effectively enabled */
 637:./Libraries/STM32F4xx_HAL_Driver/Src/stm32f4xx_hal_adc_ex.c ****   if(HAL_IS_BIT_SET(hadc->Instance->CR2, ADC_CR2_ADON))
 1165              		.loc 1 637 6
 1166 0066 FB68     		ldr	r3, [r7, #12]
 1167 0068 1B68     		ldr	r3, [r3]
 1168 006a 9B68     		ldr	r3, [r3, #8]
 1169 006c 03F00103 		and	r3, r3, #1
 1170              		.loc 1 637 5
 1171 0070 002B     		cmp	r3, #0
 1172 0072 70D0     		beq	.L58
 638:./Libraries/STM32F4xx_HAL_Driver/Src/stm32f4xx_hal_adc_ex.c ****   {
 639:./Libraries/STM32F4xx_HAL_Driver/Src/stm32f4xx_hal_adc_ex.c ****     /* Set ADC state                                                          */
 640:./Libraries/STM32F4xx_HAL_Driver/Src/stm32f4xx_hal_adc_ex.c ****     /* - Clear state bitfield related to regular group conversion results     */
 641:./Libraries/STM32F4xx_HAL_Driver/Src/stm32f4xx_hal_adc_ex.c ****     /* - Set state bitfield related to regular group operation                */
 642:./Libraries/STM32F4xx_HAL_Driver/Src/stm32f4xx_hal_adc_ex.c ****     ADC_STATE_CLR_SET(hadc->State,
 1173              		.loc 1 642 5
 1174 0074 FB68     		ldr	r3, [r7, #12]
 1175 0076 1B6C     		ldr	r3, [r3, #64]
 1176 0078 23F4E063 		bic	r3, r3, #1792
 1177 007c 23F00103 		bic	r3, r3, #1
 1178 0080 43F48072 		orr	r2, r3, #256
ARM GAS  /tmp/cciLPtso.s 			page 33


 1179 0084 FB68     		ldr	r3, [r7, #12]
 1180 0086 1A64     		str	r2, [r3, #64]
 643:./Libraries/STM32F4xx_HAL_Driver/Src/stm32f4xx_hal_adc_ex.c ****                       HAL_ADC_STATE_READY | HAL_ADC_STATE_REG_EOC | HAL_ADC_STATE_REG_OVR,
 644:./Libraries/STM32F4xx_HAL_Driver/Src/stm32f4xx_hal_adc_ex.c ****                       HAL_ADC_STATE_REG_BUSY);
 645:./Libraries/STM32F4xx_HAL_Driver/Src/stm32f4xx_hal_adc_ex.c ****     
 646:./Libraries/STM32F4xx_HAL_Driver/Src/stm32f4xx_hal_adc_ex.c ****     /* If conversions on group regular are also triggering group injected,    */
 647:./Libraries/STM32F4xx_HAL_Driver/Src/stm32f4xx_hal_adc_ex.c ****     /* update ADC state.                                                      */
 648:./Libraries/STM32F4xx_HAL_Driver/Src/stm32f4xx_hal_adc_ex.c ****     if (READ_BIT(hadc->Instance->CR1, ADC_CR1_JAUTO) != RESET)
 1181              		.loc 1 648 9
 1182 0088 FB68     		ldr	r3, [r7, #12]
 1183 008a 1B68     		ldr	r3, [r3]
 1184 008c 5B68     		ldr	r3, [r3, #4]
 1185 008e 03F48063 		and	r3, r3, #1024
 1186              		.loc 1 648 8
 1187 0092 002B     		cmp	r3, #0
 1188 0094 07D0     		beq	.L59
 649:./Libraries/STM32F4xx_HAL_Driver/Src/stm32f4xx_hal_adc_ex.c ****     {
 650:./Libraries/STM32F4xx_HAL_Driver/Src/stm32f4xx_hal_adc_ex.c ****       ADC_STATE_CLR_SET(hadc->State, HAL_ADC_STATE_INJ_EOC, HAL_ADC_STATE_INJ_BUSY);  
 1189              		.loc 1 650 7
 1190 0096 FB68     		ldr	r3, [r7, #12]
 1191 0098 1B6C     		ldr	r3, [r3, #64]
 1192 009a 23F44053 		bic	r3, r3, #12288
 1193 009e 43F48052 		orr	r2, r3, #4096
 1194 00a2 FB68     		ldr	r3, [r7, #12]
 1195 00a4 1A64     		str	r2, [r3, #64]
 1196              	.L59:
 651:./Libraries/STM32F4xx_HAL_Driver/Src/stm32f4xx_hal_adc_ex.c ****     }
 652:./Libraries/STM32F4xx_HAL_Driver/Src/stm32f4xx_hal_adc_ex.c ****     
 653:./Libraries/STM32F4xx_HAL_Driver/Src/stm32f4xx_hal_adc_ex.c ****     /* State machine update: Check if an injected conversion is ongoing */
 654:./Libraries/STM32F4xx_HAL_Driver/Src/stm32f4xx_hal_adc_ex.c ****     if (HAL_IS_BIT_SET(hadc->State, HAL_ADC_STATE_INJ_BUSY))
 1197              		.loc 1 654 9
 1198 00a6 FB68     		ldr	r3, [r7, #12]
 1199 00a8 1B6C     		ldr	r3, [r3, #64]
 1200 00aa 03F48053 		and	r3, r3, #4096
 1201              		.loc 1 654 8
 1202 00ae 002B     		cmp	r3, #0
 1203 00b0 06D0     		beq	.L60
 655:./Libraries/STM32F4xx_HAL_Driver/Src/stm32f4xx_hal_adc_ex.c ****     {
 656:./Libraries/STM32F4xx_HAL_Driver/Src/stm32f4xx_hal_adc_ex.c ****       /* Reset ADC error code fields related to conversions on group regular */
 657:./Libraries/STM32F4xx_HAL_Driver/Src/stm32f4xx_hal_adc_ex.c ****       CLEAR_BIT(hadc->ErrorCode, (HAL_ADC_ERROR_OVR | HAL_ADC_ERROR_DMA));         
 1204              		.loc 1 657 7
 1205 00b2 FB68     		ldr	r3, [r7, #12]
 1206 00b4 5B6C     		ldr	r3, [r3, #68]
 1207 00b6 23F00602 		bic	r2, r3, #6
 1208 00ba FB68     		ldr	r3, [r7, #12]
 1209 00bc 5A64     		str	r2, [r3, #68]
 1210 00be 02E0     		b	.L61
 1211              	.L60:
 658:./Libraries/STM32F4xx_HAL_Driver/Src/stm32f4xx_hal_adc_ex.c ****     }
 659:./Libraries/STM32F4xx_HAL_Driver/Src/stm32f4xx_hal_adc_ex.c ****     else
 660:./Libraries/STM32F4xx_HAL_Driver/Src/stm32f4xx_hal_adc_ex.c ****     {
 661:./Libraries/STM32F4xx_HAL_Driver/Src/stm32f4xx_hal_adc_ex.c ****       /* Reset ADC all error code fields */
 662:./Libraries/STM32F4xx_HAL_Driver/Src/stm32f4xx_hal_adc_ex.c ****       ADC_CLEAR_ERRORCODE(hadc);
 1212              		.loc 1 662 7
 1213 00c0 FB68     		ldr	r3, [r7, #12]
 1214 00c2 0022     		movs	r2, #0
 1215 00c4 5A64     		str	r2, [r3, #68]
ARM GAS  /tmp/cciLPtso.s 			page 34


 1216              	.L61:
 663:./Libraries/STM32F4xx_HAL_Driver/Src/stm32f4xx_hal_adc_ex.c ****     }
 664:./Libraries/STM32F4xx_HAL_Driver/Src/stm32f4xx_hal_adc_ex.c ****     
 665:./Libraries/STM32F4xx_HAL_Driver/Src/stm32f4xx_hal_adc_ex.c ****     /* Process unlocked */
 666:./Libraries/STM32F4xx_HAL_Driver/Src/stm32f4xx_hal_adc_ex.c ****     /* Unlock before starting ADC conversions: in case of potential           */
 667:./Libraries/STM32F4xx_HAL_Driver/Src/stm32f4xx_hal_adc_ex.c ****     /* interruption, to let the process to ADC IRQ Handler.                   */
 668:./Libraries/STM32F4xx_HAL_Driver/Src/stm32f4xx_hal_adc_ex.c ****     __HAL_UNLOCK(hadc);
 1217              		.loc 1 668 5
 1218 00c6 FB68     		ldr	r3, [r7, #12]
 1219 00c8 0022     		movs	r2, #0
 1220 00ca 83F83C20 		strb	r2, [r3, #60]
 669:./Libraries/STM32F4xx_HAL_Driver/Src/stm32f4xx_hal_adc_ex.c ****     
 670:./Libraries/STM32F4xx_HAL_Driver/Src/stm32f4xx_hal_adc_ex.c ****     /* Set the DMA transfer complete callback */
 671:./Libraries/STM32F4xx_HAL_Driver/Src/stm32f4xx_hal_adc_ex.c ****     hadc->DMA_Handle->XferCpltCallback = ADC_MultiModeDMAConvCplt;
 1221              		.loc 1 671 9
 1222 00ce FB68     		ldr	r3, [r7, #12]
 1223 00d0 9B6B     		ldr	r3, [r3, #56]
 1224              		.loc 1 671 40
 1225 00d2 254A     		ldr	r2, .L64+8
 1226 00d4 DA63     		str	r2, [r3, #60]
 672:./Libraries/STM32F4xx_HAL_Driver/Src/stm32f4xx_hal_adc_ex.c ****     
 673:./Libraries/STM32F4xx_HAL_Driver/Src/stm32f4xx_hal_adc_ex.c ****     /* Set the DMA half transfer complete callback */
 674:./Libraries/STM32F4xx_HAL_Driver/Src/stm32f4xx_hal_adc_ex.c ****     hadc->DMA_Handle->XferHalfCpltCallback = ADC_MultiModeDMAHalfConvCplt;
 1227              		.loc 1 674 9
 1228 00d6 FB68     		ldr	r3, [r7, #12]
 1229 00d8 9B6B     		ldr	r3, [r3, #56]
 1230              		.loc 1 674 44
 1231 00da 244A     		ldr	r2, .L64+12
 1232 00dc 1A64     		str	r2, [r3, #64]
 675:./Libraries/STM32F4xx_HAL_Driver/Src/stm32f4xx_hal_adc_ex.c ****     
 676:./Libraries/STM32F4xx_HAL_Driver/Src/stm32f4xx_hal_adc_ex.c ****     /* Set the DMA error callback */
 677:./Libraries/STM32F4xx_HAL_Driver/Src/stm32f4xx_hal_adc_ex.c ****     hadc->DMA_Handle->XferErrorCallback = ADC_MultiModeDMAError ;
 1233              		.loc 1 677 9
 1234 00de FB68     		ldr	r3, [r7, #12]
 1235 00e0 9B6B     		ldr	r3, [r3, #56]
 1236              		.loc 1 677 41
 1237 00e2 234A     		ldr	r2, .L64+16
 1238 00e4 DA64     		str	r2, [r3, #76]
 678:./Libraries/STM32F4xx_HAL_Driver/Src/stm32f4xx_hal_adc_ex.c ****     
 679:./Libraries/STM32F4xx_HAL_Driver/Src/stm32f4xx_hal_adc_ex.c ****     /* Manage ADC and DMA start: ADC overrun interruption, DMA start, ADC     */
 680:./Libraries/STM32F4xx_HAL_Driver/Src/stm32f4xx_hal_adc_ex.c ****     /* start (in case of SW start):                                           */
 681:./Libraries/STM32F4xx_HAL_Driver/Src/stm32f4xx_hal_adc_ex.c ****     
 682:./Libraries/STM32F4xx_HAL_Driver/Src/stm32f4xx_hal_adc_ex.c ****     /* Clear regular group conversion flag and overrun flag */
 683:./Libraries/STM32F4xx_HAL_Driver/Src/stm32f4xx_hal_adc_ex.c ****     /* (To ensure of no unknown state from potential previous ADC operations) */
 684:./Libraries/STM32F4xx_HAL_Driver/Src/stm32f4xx_hal_adc_ex.c ****     __HAL_ADC_CLEAR_FLAG(hadc, ADC_FLAG_EOC);
 1239              		.loc 1 684 5
 1240 00e6 FB68     		ldr	r3, [r7, #12]
 1241 00e8 1B68     		ldr	r3, [r3]
 1242 00ea 6FF00202 		mvn	r2, #2
 1243 00ee 1A60     		str	r2, [r3]
 685:./Libraries/STM32F4xx_HAL_Driver/Src/stm32f4xx_hal_adc_ex.c **** 
 686:./Libraries/STM32F4xx_HAL_Driver/Src/stm32f4xx_hal_adc_ex.c ****     /* Enable ADC overrun interrupt */
 687:./Libraries/STM32F4xx_HAL_Driver/Src/stm32f4xx_hal_adc_ex.c ****     __HAL_ADC_ENABLE_IT(hadc, ADC_IT_OVR);
 1244              		.loc 1 687 5
 1245 00f0 FB68     		ldr	r3, [r7, #12]
 1246 00f2 1B68     		ldr	r3, [r3]
 1247 00f4 5A68     		ldr	r2, [r3, #4]
ARM GAS  /tmp/cciLPtso.s 			page 35


 1248 00f6 FB68     		ldr	r3, [r7, #12]
 1249 00f8 1B68     		ldr	r3, [r3]
 1250 00fa 42F08062 		orr	r2, r2, #67108864
 1251 00fe 5A60     		str	r2, [r3, #4]
 688:./Libraries/STM32F4xx_HAL_Driver/Src/stm32f4xx_hal_adc_ex.c **** 
 689:./Libraries/STM32F4xx_HAL_Driver/Src/stm32f4xx_hal_adc_ex.c ****     /* Pointer to the common control register to which is belonging hadc    */
 690:./Libraries/STM32F4xx_HAL_Driver/Src/stm32f4xx_hal_adc_ex.c ****     /* (Depending on STM32F4 product, there may be up to 3 ADC and 1 common */
 691:./Libraries/STM32F4xx_HAL_Driver/Src/stm32f4xx_hal_adc_ex.c ****     /* control register)                                                    */
 692:./Libraries/STM32F4xx_HAL_Driver/Src/stm32f4xx_hal_adc_ex.c ****     tmpADC_Common = ADC_COMMON_REGISTER(hadc);
 1252              		.loc 1 692 19
 1253 0100 1C4B     		ldr	r3, .L64+20
 1254 0102 7B61     		str	r3, [r7, #20]
 693:./Libraries/STM32F4xx_HAL_Driver/Src/stm32f4xx_hal_adc_ex.c **** 
 694:./Libraries/STM32F4xx_HAL_Driver/Src/stm32f4xx_hal_adc_ex.c ****     if (hadc->Init.DMAContinuousRequests != DISABLE)
 1255              		.loc 1 694 19
 1256 0104 FB68     		ldr	r3, [r7, #12]
 1257 0106 1B6B     		ldr	r3, [r3, #48]
 1258              		.loc 1 694 8
 1259 0108 002B     		cmp	r3, #0
 1260 010a 06D0     		beq	.L62
 695:./Libraries/STM32F4xx_HAL_Driver/Src/stm32f4xx_hal_adc_ex.c ****     {
 696:./Libraries/STM32F4xx_HAL_Driver/Src/stm32f4xx_hal_adc_ex.c ****       /* Enable the selected ADC DMA request after last transfer */
 697:./Libraries/STM32F4xx_HAL_Driver/Src/stm32f4xx_hal_adc_ex.c ****       tmpADC_Common->CCR |= ADC_CCR_DDS;
 1261              		.loc 1 697 26
 1262 010c 7B69     		ldr	r3, [r7, #20]
 1263 010e 5B68     		ldr	r3, [r3, #4]
 1264 0110 43F40052 		orr	r2, r3, #8192
 1265 0114 7B69     		ldr	r3, [r7, #20]
 1266 0116 5A60     		str	r2, [r3, #4]
 1267 0118 05E0     		b	.L63
 1268              	.L62:
 698:./Libraries/STM32F4xx_HAL_Driver/Src/stm32f4xx_hal_adc_ex.c ****     }
 699:./Libraries/STM32F4xx_HAL_Driver/Src/stm32f4xx_hal_adc_ex.c ****     else
 700:./Libraries/STM32F4xx_HAL_Driver/Src/stm32f4xx_hal_adc_ex.c ****     {
 701:./Libraries/STM32F4xx_HAL_Driver/Src/stm32f4xx_hal_adc_ex.c ****       /* Disable the selected ADC EOC rising on each regular channel conversion */
 702:./Libraries/STM32F4xx_HAL_Driver/Src/stm32f4xx_hal_adc_ex.c ****       tmpADC_Common->CCR &= ~ADC_CCR_DDS;
 1269              		.loc 1 702 26
 1270 011a 7B69     		ldr	r3, [r7, #20]
 1271 011c 5B68     		ldr	r3, [r3, #4]
 1272 011e 23F40052 		bic	r2, r3, #8192
 1273 0122 7B69     		ldr	r3, [r7, #20]
 1274 0124 5A60     		str	r2, [r3, #4]
 1275              	.L63:
 703:./Libraries/STM32F4xx_HAL_Driver/Src/stm32f4xx_hal_adc_ex.c ****     }
 704:./Libraries/STM32F4xx_HAL_Driver/Src/stm32f4xx_hal_adc_ex.c ****     
 705:./Libraries/STM32F4xx_HAL_Driver/Src/stm32f4xx_hal_adc_ex.c ****     /* Enable the DMA Stream */
 706:./Libraries/STM32F4xx_HAL_Driver/Src/stm32f4xx_hal_adc_ex.c ****     HAL_DMA_Start_IT(hadc->DMA_Handle, (uint32_t)&tmpADC_Common->CDR, (uint32_t)pData, Length);
 1276              		.loc 1 706 5
 1277 0126 FB68     		ldr	r3, [r7, #12]
 1278 0128 986B     		ldr	r0, [r3, #56]
 1279              		.loc 1 706 50
 1280 012a 7B69     		ldr	r3, [r7, #20]
 1281 012c 0833     		adds	r3, r3, #8
 1282              		.loc 1 706 5
 1283 012e 1946     		mov	r1, r3
 1284 0130 BA68     		ldr	r2, [r7, #8]
 1285 0132 7B68     		ldr	r3, [r7, #4]
ARM GAS  /tmp/cciLPtso.s 			page 36


 1286 0134 FFF7FEFF 		bl	HAL_DMA_Start_IT
 707:./Libraries/STM32F4xx_HAL_Driver/Src/stm32f4xx_hal_adc_ex.c ****     
 708:./Libraries/STM32F4xx_HAL_Driver/Src/stm32f4xx_hal_adc_ex.c ****     /* if no external trigger present enable software conversion of regular channels */
 709:./Libraries/STM32F4xx_HAL_Driver/Src/stm32f4xx_hal_adc_ex.c ****     if((hadc->Instance->CR2 & ADC_CR2_EXTEN) == RESET) 
 1287              		.loc 1 709 13
 1288 0138 FB68     		ldr	r3, [r7, #12]
 1289 013a 1B68     		ldr	r3, [r3]
 1290              		.loc 1 709 23
 1291 013c 9B68     		ldr	r3, [r3, #8]
 1292              		.loc 1 709 29
 1293 013e 03F04053 		and	r3, r3, #805306368
 1294              		.loc 1 709 7
 1295 0142 002B     		cmp	r3, #0
 1296 0144 07D1     		bne	.L58
 710:./Libraries/STM32F4xx_HAL_Driver/Src/stm32f4xx_hal_adc_ex.c ****     {
 711:./Libraries/STM32F4xx_HAL_Driver/Src/stm32f4xx_hal_adc_ex.c ****       /* Enable the selected ADC software conversion for regular group */
 712:./Libraries/STM32F4xx_HAL_Driver/Src/stm32f4xx_hal_adc_ex.c ****       hadc->Instance->CR2 |= (uint32_t)ADC_CR2_SWSTART;
 1297              		.loc 1 712 11
 1298 0146 FB68     		ldr	r3, [r7, #12]
 1299 0148 1B68     		ldr	r3, [r3]
 1300              		.loc 1 712 27
 1301 014a 9A68     		ldr	r2, [r3, #8]
 1302              		.loc 1 712 11
 1303 014c FB68     		ldr	r3, [r7, #12]
 1304 014e 1B68     		ldr	r3, [r3]
 1305              		.loc 1 712 27
 1306 0150 42F08042 		orr	r2, r2, #1073741824
 1307 0154 9A60     		str	r2, [r3, #8]
 1308              	.L58:
 713:./Libraries/STM32F4xx_HAL_Driver/Src/stm32f4xx_hal_adc_ex.c ****     }
 714:./Libraries/STM32F4xx_HAL_Driver/Src/stm32f4xx_hal_adc_ex.c ****   }
 715:./Libraries/STM32F4xx_HAL_Driver/Src/stm32f4xx_hal_adc_ex.c ****   
 716:./Libraries/STM32F4xx_HAL_Driver/Src/stm32f4xx_hal_adc_ex.c ****   /* Return function status */
 717:./Libraries/STM32F4xx_HAL_Driver/Src/stm32f4xx_hal_adc_ex.c ****   return HAL_OK;
 1309              		.loc 1 717 10
 1310 0156 0023     		movs	r3, #0
 1311              	.L54:
 718:./Libraries/STM32F4xx_HAL_Driver/Src/stm32f4xx_hal_adc_ex.c **** }
 1312              		.loc 1 718 1
 1313 0158 1846     		mov	r0, r3
 1314 015a 1837     		adds	r7, r7, #24
 1315              	.LCFI38:
 1316              		.cfi_def_cfa_offset 8
 1317 015c BD46     		mov	sp, r7
 1318              	.LCFI39:
 1319              		.cfi_def_cfa_register 13
 1320              		@ sp needed
 1321 015e 80BD     		pop	{r7, pc}
 1322              	.L65:
 1323              		.align	2
 1324              	.L64:
 1325 0160 00000000 		.word	SystemCoreClock
 1326 0164 83DE1B43 		.word	1125899907
 1327 0168 00000000 		.word	ADC_MultiModeDMAConvCplt
 1328 016c 00000000 		.word	ADC_MultiModeDMAHalfConvCplt
 1329 0170 00000000 		.word	ADC_MultiModeDMAError
 1330 0174 00230140 		.word	1073816320
ARM GAS  /tmp/cciLPtso.s 			page 37


 1331              		.cfi_endproc
 1332              	.LFE132:
 1334              		.section	.text.HAL_ADCEx_MultiModeStop_DMA,"ax",%progbits
 1335              		.align	1
 1336              		.global	HAL_ADCEx_MultiModeStop_DMA
 1337              		.syntax unified
 1338              		.thumb
 1339              		.thumb_func
 1340              		.fpu fpv4-sp-d16
 1342              	HAL_ADCEx_MultiModeStop_DMA:
 1343              	.LFB133:
 719:./Libraries/STM32F4xx_HAL_Driver/Src/stm32f4xx_hal_adc_ex.c **** 
 720:./Libraries/STM32F4xx_HAL_Driver/Src/stm32f4xx_hal_adc_ex.c **** /**
 721:./Libraries/STM32F4xx_HAL_Driver/Src/stm32f4xx_hal_adc_ex.c ****   * @brief  Disables ADC DMA (multi-ADC mode) and disables ADC peripheral    
 722:./Libraries/STM32F4xx_HAL_Driver/Src/stm32f4xx_hal_adc_ex.c ****   * @param  hadc pointer to a ADC_HandleTypeDef structure that contains
 723:./Libraries/STM32F4xx_HAL_Driver/Src/stm32f4xx_hal_adc_ex.c ****   *         the configuration information for the specified ADC.
 724:./Libraries/STM32F4xx_HAL_Driver/Src/stm32f4xx_hal_adc_ex.c ****   * @retval HAL status
 725:./Libraries/STM32F4xx_HAL_Driver/Src/stm32f4xx_hal_adc_ex.c ****   */
 726:./Libraries/STM32F4xx_HAL_Driver/Src/stm32f4xx_hal_adc_ex.c **** HAL_StatusTypeDef HAL_ADCEx_MultiModeStop_DMA(ADC_HandleTypeDef* hadc)
 727:./Libraries/STM32F4xx_HAL_Driver/Src/stm32f4xx_hal_adc_ex.c **** {
 1344              		.loc 1 727 1
 1345              		.cfi_startproc
 1346              		@ args = 0, pretend = 0, frame = 16
 1347              		@ frame_needed = 1, uses_anonymous_args = 0
 1348 0000 80B5     		push	{r7, lr}
 1349              	.LCFI40:
 1350              		.cfi_def_cfa_offset 8
 1351              		.cfi_offset 7, -8
 1352              		.cfi_offset 14, -4
 1353 0002 84B0     		sub	sp, sp, #16
 1354              	.LCFI41:
 1355              		.cfi_def_cfa_offset 24
 1356 0004 00AF     		add	r7, sp, #0
 1357              	.LCFI42:
 1358              		.cfi_def_cfa_register 7
 1359 0006 7860     		str	r0, [r7, #4]
 728:./Libraries/STM32F4xx_HAL_Driver/Src/stm32f4xx_hal_adc_ex.c ****   HAL_StatusTypeDef tmp_hal_status = HAL_OK;
 1360              		.loc 1 728 21
 1361 0008 0023     		movs	r3, #0
 1362 000a FB73     		strb	r3, [r7, #15]
 729:./Libraries/STM32F4xx_HAL_Driver/Src/stm32f4xx_hal_adc_ex.c ****   ADC_Common_TypeDef *tmpADC_Common;
 730:./Libraries/STM32F4xx_HAL_Driver/Src/stm32f4xx_hal_adc_ex.c ****   
 731:./Libraries/STM32F4xx_HAL_Driver/Src/stm32f4xx_hal_adc_ex.c ****   /* Check the parameters */
 732:./Libraries/STM32F4xx_HAL_Driver/Src/stm32f4xx_hal_adc_ex.c ****   assert_param(IS_ADC_ALL_INSTANCE(hadc->Instance));
 733:./Libraries/STM32F4xx_HAL_Driver/Src/stm32f4xx_hal_adc_ex.c ****   
 734:./Libraries/STM32F4xx_HAL_Driver/Src/stm32f4xx_hal_adc_ex.c ****   /* Process locked */
 735:./Libraries/STM32F4xx_HAL_Driver/Src/stm32f4xx_hal_adc_ex.c ****   __HAL_LOCK(hadc);
 1363              		.loc 1 735 3
 1364 000c 7B68     		ldr	r3, [r7, #4]
 1365 000e 93F83C30 		ldrb	r3, [r3, #60]	@ zero_extendqisi2
 1366 0012 012B     		cmp	r3, #1
 1367 0014 01D1     		bne	.L67
 1368              		.loc 1 735 3 is_stmt 0 discriminator 1
 1369 0016 0223     		movs	r3, #2
 1370 0018 38E0     		b	.L68
 1371              	.L67:
 1372              		.loc 1 735 3 discriminator 2
ARM GAS  /tmp/cciLPtso.s 			page 38


 1373 001a 7B68     		ldr	r3, [r7, #4]
 1374 001c 0122     		movs	r2, #1
 1375 001e 83F83C20 		strb	r2, [r3, #60]
 736:./Libraries/STM32F4xx_HAL_Driver/Src/stm32f4xx_hal_adc_ex.c ****   
 737:./Libraries/STM32F4xx_HAL_Driver/Src/stm32f4xx_hal_adc_ex.c ****   /* Stop potential conversion on going, on regular and injected groups */
 738:./Libraries/STM32F4xx_HAL_Driver/Src/stm32f4xx_hal_adc_ex.c ****   /* Disable ADC peripheral */
 739:./Libraries/STM32F4xx_HAL_Driver/Src/stm32f4xx_hal_adc_ex.c ****   __HAL_ADC_DISABLE(hadc);
 1376              		.loc 1 739 3 is_stmt 1 discriminator 2
 1377 0022 7B68     		ldr	r3, [r7, #4]
 1378 0024 1B68     		ldr	r3, [r3]
 1379 0026 9A68     		ldr	r2, [r3, #8]
 1380 0028 7B68     		ldr	r3, [r7, #4]
 1381 002a 1B68     		ldr	r3, [r3]
 1382 002c 22F00102 		bic	r2, r2, #1
 1383 0030 9A60     		str	r2, [r3, #8]
 740:./Libraries/STM32F4xx_HAL_Driver/Src/stm32f4xx_hal_adc_ex.c **** 
 741:./Libraries/STM32F4xx_HAL_Driver/Src/stm32f4xx_hal_adc_ex.c ****   /* Pointer to the common control register to which is belonging hadc    */
 742:./Libraries/STM32F4xx_HAL_Driver/Src/stm32f4xx_hal_adc_ex.c ****   /* (Depending on STM32F4 product, there may be up to 3 ADC and 1 common */
 743:./Libraries/STM32F4xx_HAL_Driver/Src/stm32f4xx_hal_adc_ex.c ****   /* control register)                                                    */
 744:./Libraries/STM32F4xx_HAL_Driver/Src/stm32f4xx_hal_adc_ex.c ****   tmpADC_Common = ADC_COMMON_REGISTER(hadc);
 1384              		.loc 1 744 17 discriminator 2
 1385 0032 184B     		ldr	r3, .L70
 1386 0034 BB60     		str	r3, [r7, #8]
 745:./Libraries/STM32F4xx_HAL_Driver/Src/stm32f4xx_hal_adc_ex.c **** 
 746:./Libraries/STM32F4xx_HAL_Driver/Src/stm32f4xx_hal_adc_ex.c ****   /* Check if ADC is effectively disabled */
 747:./Libraries/STM32F4xx_HAL_Driver/Src/stm32f4xx_hal_adc_ex.c ****   if(HAL_IS_BIT_CLR(hadc->Instance->CR2, ADC_CR2_ADON))
 1387              		.loc 1 747 6 discriminator 2
 1388 0036 7B68     		ldr	r3, [r7, #4]
 1389 0038 1B68     		ldr	r3, [r3]
 1390 003a 9B68     		ldr	r3, [r3, #8]
 1391 003c 03F00103 		and	r3, r3, #1
 1392              		.loc 1 747 5 discriminator 2
 1393 0040 002B     		cmp	r3, #0
 1394 0042 1ED1     		bne	.L69
 748:./Libraries/STM32F4xx_HAL_Driver/Src/stm32f4xx_hal_adc_ex.c ****   {
 749:./Libraries/STM32F4xx_HAL_Driver/Src/stm32f4xx_hal_adc_ex.c ****     /* Disable the selected ADC DMA mode for multimode */
 750:./Libraries/STM32F4xx_HAL_Driver/Src/stm32f4xx_hal_adc_ex.c ****     tmpADC_Common->CCR &= ~ADC_CCR_DDS;
 1395              		.loc 1 750 24
 1396 0044 BB68     		ldr	r3, [r7, #8]
 1397 0046 5B68     		ldr	r3, [r3, #4]
 1398 0048 23F40052 		bic	r2, r3, #8192
 1399 004c BB68     		ldr	r3, [r7, #8]
 1400 004e 5A60     		str	r2, [r3, #4]
 751:./Libraries/STM32F4xx_HAL_Driver/Src/stm32f4xx_hal_adc_ex.c ****     
 752:./Libraries/STM32F4xx_HAL_Driver/Src/stm32f4xx_hal_adc_ex.c ****     /* Disable the DMA channel (in case of DMA in circular mode or stop while */
 753:./Libraries/STM32F4xx_HAL_Driver/Src/stm32f4xx_hal_adc_ex.c ****     /* DMA transfer is on going)                                              */
 754:./Libraries/STM32F4xx_HAL_Driver/Src/stm32f4xx_hal_adc_ex.c ****     tmp_hal_status = HAL_DMA_Abort(hadc->DMA_Handle);
 1401              		.loc 1 754 22
 1402 0050 7B68     		ldr	r3, [r7, #4]
 1403 0052 9B6B     		ldr	r3, [r3, #56]
 1404 0054 1846     		mov	r0, r3
 1405 0056 FFF7FEFF 		bl	HAL_DMA_Abort
 1406 005a 0346     		mov	r3, r0
 1407 005c FB73     		strb	r3, [r7, #15]
 755:./Libraries/STM32F4xx_HAL_Driver/Src/stm32f4xx_hal_adc_ex.c ****     
 756:./Libraries/STM32F4xx_HAL_Driver/Src/stm32f4xx_hal_adc_ex.c ****     /* Disable ADC overrun interrupt */
 757:./Libraries/STM32F4xx_HAL_Driver/Src/stm32f4xx_hal_adc_ex.c ****     __HAL_ADC_DISABLE_IT(hadc, ADC_IT_OVR);
ARM GAS  /tmp/cciLPtso.s 			page 39


 1408              		.loc 1 757 5
 1409 005e 7B68     		ldr	r3, [r7, #4]
 1410 0060 1B68     		ldr	r3, [r3]
 1411 0062 5A68     		ldr	r2, [r3, #4]
 1412 0064 7B68     		ldr	r3, [r7, #4]
 1413 0066 1B68     		ldr	r3, [r3]
 1414 0068 22F08062 		bic	r2, r2, #67108864
 1415 006c 5A60     		str	r2, [r3, #4]
 758:./Libraries/STM32F4xx_HAL_Driver/Src/stm32f4xx_hal_adc_ex.c ****     
 759:./Libraries/STM32F4xx_HAL_Driver/Src/stm32f4xx_hal_adc_ex.c ****     /* Set ADC state */
 760:./Libraries/STM32F4xx_HAL_Driver/Src/stm32f4xx_hal_adc_ex.c ****     ADC_STATE_CLR_SET(hadc->State,
 1416              		.loc 1 760 5
 1417 006e 7B68     		ldr	r3, [r7, #4]
 1418 0070 1B6C     		ldr	r3, [r3, #64]
 1419 0072 23F48853 		bic	r3, r3, #4352
 1420 0076 23F00103 		bic	r3, r3, #1
 1421 007a 43F00102 		orr	r2, r3, #1
 1422 007e 7B68     		ldr	r3, [r7, #4]
 1423 0080 1A64     		str	r2, [r3, #64]
 1424              	.L69:
 761:./Libraries/STM32F4xx_HAL_Driver/Src/stm32f4xx_hal_adc_ex.c ****                       HAL_ADC_STATE_REG_BUSY | HAL_ADC_STATE_INJ_BUSY,
 762:./Libraries/STM32F4xx_HAL_Driver/Src/stm32f4xx_hal_adc_ex.c ****                       HAL_ADC_STATE_READY);
 763:./Libraries/STM32F4xx_HAL_Driver/Src/stm32f4xx_hal_adc_ex.c ****   }
 764:./Libraries/STM32F4xx_HAL_Driver/Src/stm32f4xx_hal_adc_ex.c ****   
 765:./Libraries/STM32F4xx_HAL_Driver/Src/stm32f4xx_hal_adc_ex.c ****   /* Process unlocked */
 766:./Libraries/STM32F4xx_HAL_Driver/Src/stm32f4xx_hal_adc_ex.c ****   __HAL_UNLOCK(hadc);
 1425              		.loc 1 766 3
 1426 0082 7B68     		ldr	r3, [r7, #4]
 1427 0084 0022     		movs	r2, #0
 1428 0086 83F83C20 		strb	r2, [r3, #60]
 767:./Libraries/STM32F4xx_HAL_Driver/Src/stm32f4xx_hal_adc_ex.c ****   
 768:./Libraries/STM32F4xx_HAL_Driver/Src/stm32f4xx_hal_adc_ex.c ****   /* Return function status */
 769:./Libraries/STM32F4xx_HAL_Driver/Src/stm32f4xx_hal_adc_ex.c ****   return tmp_hal_status;
 1429              		.loc 1 769 10
 1430 008a FB7B     		ldrb	r3, [r7, #15]	@ zero_extendqisi2
 1431              	.L68:
 770:./Libraries/STM32F4xx_HAL_Driver/Src/stm32f4xx_hal_adc_ex.c **** }
 1432              		.loc 1 770 1
 1433 008c 1846     		mov	r0, r3
 1434 008e 1037     		adds	r7, r7, #16
 1435              	.LCFI43:
 1436              		.cfi_def_cfa_offset 8
 1437 0090 BD46     		mov	sp, r7
 1438              	.LCFI44:
 1439              		.cfi_def_cfa_register 13
 1440              		@ sp needed
 1441 0092 80BD     		pop	{r7, pc}
 1442              	.L71:
 1443              		.align	2
 1444              	.L70:
 1445 0094 00230140 		.word	1073816320
 1446              		.cfi_endproc
 1447              	.LFE133:
 1449              		.section	.text.HAL_ADCEx_MultiModeGetValue,"ax",%progbits
 1450              		.align	1
 1451              		.global	HAL_ADCEx_MultiModeGetValue
 1452              		.syntax unified
ARM GAS  /tmp/cciLPtso.s 			page 40


 1453              		.thumb
 1454              		.thumb_func
 1455              		.fpu fpv4-sp-d16
 1457              	HAL_ADCEx_MultiModeGetValue:
 1458              	.LFB134:
 771:./Libraries/STM32F4xx_HAL_Driver/Src/stm32f4xx_hal_adc_ex.c **** 
 772:./Libraries/STM32F4xx_HAL_Driver/Src/stm32f4xx_hal_adc_ex.c **** /**
 773:./Libraries/STM32F4xx_HAL_Driver/Src/stm32f4xx_hal_adc_ex.c ****   * @brief  Returns the last ADC1, ADC2 and ADC3 regular conversions results 
 774:./Libraries/STM32F4xx_HAL_Driver/Src/stm32f4xx_hal_adc_ex.c ****   *         data in the selected multi mode.
 775:./Libraries/STM32F4xx_HAL_Driver/Src/stm32f4xx_hal_adc_ex.c ****   * @param  hadc pointer to a ADC_HandleTypeDef structure that contains
 776:./Libraries/STM32F4xx_HAL_Driver/Src/stm32f4xx_hal_adc_ex.c ****   *         the configuration information for the specified ADC.
 777:./Libraries/STM32F4xx_HAL_Driver/Src/stm32f4xx_hal_adc_ex.c ****   * @retval The converted data value.
 778:./Libraries/STM32F4xx_HAL_Driver/Src/stm32f4xx_hal_adc_ex.c ****   */
 779:./Libraries/STM32F4xx_HAL_Driver/Src/stm32f4xx_hal_adc_ex.c **** uint32_t HAL_ADCEx_MultiModeGetValue(ADC_HandleTypeDef* hadc)
 780:./Libraries/STM32F4xx_HAL_Driver/Src/stm32f4xx_hal_adc_ex.c **** {
 1459              		.loc 1 780 1
 1460              		.cfi_startproc
 1461              		@ args = 0, pretend = 0, frame = 16
 1462              		@ frame_needed = 1, uses_anonymous_args = 0
 1463              		@ link register save eliminated.
 1464 0000 80B4     		push	{r7}
 1465              	.LCFI45:
 1466              		.cfi_def_cfa_offset 4
 1467              		.cfi_offset 7, -4
 1468 0002 85B0     		sub	sp, sp, #20
 1469              	.LCFI46:
 1470              		.cfi_def_cfa_offset 24
 1471 0004 00AF     		add	r7, sp, #0
 1472              	.LCFI47:
 1473              		.cfi_def_cfa_register 7
 1474 0006 7860     		str	r0, [r7, #4]
 781:./Libraries/STM32F4xx_HAL_Driver/Src/stm32f4xx_hal_adc_ex.c ****   ADC_Common_TypeDef *tmpADC_Common;
 782:./Libraries/STM32F4xx_HAL_Driver/Src/stm32f4xx_hal_adc_ex.c **** 
 783:./Libraries/STM32F4xx_HAL_Driver/Src/stm32f4xx_hal_adc_ex.c ****   /* Pointer to the common control register to which is belonging hadc    */
 784:./Libraries/STM32F4xx_HAL_Driver/Src/stm32f4xx_hal_adc_ex.c ****   /* (Depending on STM32F4 product, there may be up to 3 ADC and 1 common */
 785:./Libraries/STM32F4xx_HAL_Driver/Src/stm32f4xx_hal_adc_ex.c ****   /* control register)                                                    */
 786:./Libraries/STM32F4xx_HAL_Driver/Src/stm32f4xx_hal_adc_ex.c ****   tmpADC_Common = ADC_COMMON_REGISTER(hadc);
 1475              		.loc 1 786 17
 1476 0008 044B     		ldr	r3, .L74
 1477 000a FB60     		str	r3, [r7, #12]
 787:./Libraries/STM32F4xx_HAL_Driver/Src/stm32f4xx_hal_adc_ex.c **** 
 788:./Libraries/STM32F4xx_HAL_Driver/Src/stm32f4xx_hal_adc_ex.c ****   /* Return the multi mode conversion value */
 789:./Libraries/STM32F4xx_HAL_Driver/Src/stm32f4xx_hal_adc_ex.c ****   return tmpADC_Common->CDR;
 1478              		.loc 1 789 23
 1479 000c FB68     		ldr	r3, [r7, #12]
 1480 000e 9B68     		ldr	r3, [r3, #8]
 790:./Libraries/STM32F4xx_HAL_Driver/Src/stm32f4xx_hal_adc_ex.c **** }
 1481              		.loc 1 790 1
 1482 0010 1846     		mov	r0, r3
 1483 0012 1437     		adds	r7, r7, #20
 1484              	.LCFI48:
 1485              		.cfi_def_cfa_offset 4
 1486 0014 BD46     		mov	sp, r7
 1487              	.LCFI49:
 1488              		.cfi_def_cfa_register 13
 1489              		@ sp needed
 1490 0016 5DF8047B 		ldr	r7, [sp], #4
ARM GAS  /tmp/cciLPtso.s 			page 41


 1491              	.LCFI50:
 1492              		.cfi_restore 7
 1493              		.cfi_def_cfa_offset 0
 1494 001a 7047     		bx	lr
 1495              	.L75:
 1496              		.align	2
 1497              	.L74:
 1498 001c 00230140 		.word	1073816320
 1499              		.cfi_endproc
 1500              	.LFE134:
 1502              		.section	.text.HAL_ADCEx_InjectedConvCpltCallback,"ax",%progbits
 1503              		.align	1
 1504              		.weak	HAL_ADCEx_InjectedConvCpltCallback
 1505              		.syntax unified
 1506              		.thumb
 1507              		.thumb_func
 1508              		.fpu fpv4-sp-d16
 1510              	HAL_ADCEx_InjectedConvCpltCallback:
 1511              	.LFB135:
 791:./Libraries/STM32F4xx_HAL_Driver/Src/stm32f4xx_hal_adc_ex.c **** 
 792:./Libraries/STM32F4xx_HAL_Driver/Src/stm32f4xx_hal_adc_ex.c **** /**
 793:./Libraries/STM32F4xx_HAL_Driver/Src/stm32f4xx_hal_adc_ex.c ****   * @brief  Injected conversion complete callback in non blocking mode 
 794:./Libraries/STM32F4xx_HAL_Driver/Src/stm32f4xx_hal_adc_ex.c ****   * @param  hadc pointer to a ADC_HandleTypeDef structure that contains
 795:./Libraries/STM32F4xx_HAL_Driver/Src/stm32f4xx_hal_adc_ex.c ****   *         the configuration information for the specified ADC.
 796:./Libraries/STM32F4xx_HAL_Driver/Src/stm32f4xx_hal_adc_ex.c ****   * @retval None
 797:./Libraries/STM32F4xx_HAL_Driver/Src/stm32f4xx_hal_adc_ex.c ****   */
 798:./Libraries/STM32F4xx_HAL_Driver/Src/stm32f4xx_hal_adc_ex.c **** __weak void HAL_ADCEx_InjectedConvCpltCallback(ADC_HandleTypeDef* hadc)
 799:./Libraries/STM32F4xx_HAL_Driver/Src/stm32f4xx_hal_adc_ex.c **** {
 1512              		.loc 1 799 1
 1513              		.cfi_startproc
 1514              		@ args = 0, pretend = 0, frame = 8
 1515              		@ frame_needed = 1, uses_anonymous_args = 0
 1516              		@ link register save eliminated.
 1517 0000 80B4     		push	{r7}
 1518              	.LCFI51:
 1519              		.cfi_def_cfa_offset 4
 1520              		.cfi_offset 7, -4
 1521 0002 83B0     		sub	sp, sp, #12
 1522              	.LCFI52:
 1523              		.cfi_def_cfa_offset 16
 1524 0004 00AF     		add	r7, sp, #0
 1525              	.LCFI53:
 1526              		.cfi_def_cfa_register 7
 1527 0006 7860     		str	r0, [r7, #4]
 800:./Libraries/STM32F4xx_HAL_Driver/Src/stm32f4xx_hal_adc_ex.c ****   /* Prevent unused argument(s) compilation warning */
 801:./Libraries/STM32F4xx_HAL_Driver/Src/stm32f4xx_hal_adc_ex.c ****   UNUSED(hadc);
 802:./Libraries/STM32F4xx_HAL_Driver/Src/stm32f4xx_hal_adc_ex.c ****   /* NOTE : This function Should not be modified, when the callback is needed,
 803:./Libraries/STM32F4xx_HAL_Driver/Src/stm32f4xx_hal_adc_ex.c ****             the HAL_ADC_InjectedConvCpltCallback could be implemented in the user file
 804:./Libraries/STM32F4xx_HAL_Driver/Src/stm32f4xx_hal_adc_ex.c ****    */
 805:./Libraries/STM32F4xx_HAL_Driver/Src/stm32f4xx_hal_adc_ex.c **** }
 1528              		.loc 1 805 1
 1529 0008 00BF     		nop
 1530 000a 0C37     		adds	r7, r7, #12
 1531              	.LCFI54:
 1532              		.cfi_def_cfa_offset 4
 1533 000c BD46     		mov	sp, r7
 1534              	.LCFI55:
ARM GAS  /tmp/cciLPtso.s 			page 42


 1535              		.cfi_def_cfa_register 13
 1536              		@ sp needed
 1537 000e 5DF8047B 		ldr	r7, [sp], #4
 1538              	.LCFI56:
 1539              		.cfi_restore 7
 1540              		.cfi_def_cfa_offset 0
 1541 0012 7047     		bx	lr
 1542              		.cfi_endproc
 1543              	.LFE135:
 1545              		.section	.text.HAL_ADCEx_InjectedConfigChannel,"ax",%progbits
 1546              		.align	1
 1547              		.global	HAL_ADCEx_InjectedConfigChannel
 1548              		.syntax unified
 1549              		.thumb
 1550              		.thumb_func
 1551              		.fpu fpv4-sp-d16
 1553              	HAL_ADCEx_InjectedConfigChannel:
 1554              	.LFB136:
 806:./Libraries/STM32F4xx_HAL_Driver/Src/stm32f4xx_hal_adc_ex.c **** 
 807:./Libraries/STM32F4xx_HAL_Driver/Src/stm32f4xx_hal_adc_ex.c **** /**
 808:./Libraries/STM32F4xx_HAL_Driver/Src/stm32f4xx_hal_adc_ex.c ****   * @brief  Configures for the selected ADC injected channel its corresponding
 809:./Libraries/STM32F4xx_HAL_Driver/Src/stm32f4xx_hal_adc_ex.c ****   *         rank in the sequencer and its sample time.
 810:./Libraries/STM32F4xx_HAL_Driver/Src/stm32f4xx_hal_adc_ex.c ****   * @param  hadc pointer to a ADC_HandleTypeDef structure that contains
 811:./Libraries/STM32F4xx_HAL_Driver/Src/stm32f4xx_hal_adc_ex.c ****   *         the configuration information for the specified ADC.
 812:./Libraries/STM32F4xx_HAL_Driver/Src/stm32f4xx_hal_adc_ex.c ****   * @param  sConfigInjected ADC configuration structure for injected channel. 
 813:./Libraries/STM32F4xx_HAL_Driver/Src/stm32f4xx_hal_adc_ex.c ****   * @retval None
 814:./Libraries/STM32F4xx_HAL_Driver/Src/stm32f4xx_hal_adc_ex.c ****   */
 815:./Libraries/STM32F4xx_HAL_Driver/Src/stm32f4xx_hal_adc_ex.c **** HAL_StatusTypeDef HAL_ADCEx_InjectedConfigChannel(ADC_HandleTypeDef* hadc, ADC_InjectionConfTypeDef
 816:./Libraries/STM32F4xx_HAL_Driver/Src/stm32f4xx_hal_adc_ex.c **** {
 1555              		.loc 1 816 1
 1556              		.cfi_startproc
 1557              		@ args = 0, pretend = 0, frame = 16
 1558              		@ frame_needed = 1, uses_anonymous_args = 0
 1559              		@ link register save eliminated.
 1560 0000 80B4     		push	{r7}
 1561              	.LCFI57:
 1562              		.cfi_def_cfa_offset 4
 1563              		.cfi_offset 7, -4
 1564 0002 85B0     		sub	sp, sp, #20
 1565              	.LCFI58:
 1566              		.cfi_def_cfa_offset 24
 1567 0004 00AF     		add	r7, sp, #0
 1568              	.LCFI59:
 1569              		.cfi_def_cfa_register 7
 1570 0006 7860     		str	r0, [r7, #4]
 1571 0008 3960     		str	r1, [r7]
 817:./Libraries/STM32F4xx_HAL_Driver/Src/stm32f4xx_hal_adc_ex.c ****   
 818:./Libraries/STM32F4xx_HAL_Driver/Src/stm32f4xx_hal_adc_ex.c **** #ifdef USE_FULL_ASSERT  
 819:./Libraries/STM32F4xx_HAL_Driver/Src/stm32f4xx_hal_adc_ex.c ****   uint32_t tmp = 0U;
 820:./Libraries/STM32F4xx_HAL_Driver/Src/stm32f4xx_hal_adc_ex.c ****   
 821:./Libraries/STM32F4xx_HAL_Driver/Src/stm32f4xx_hal_adc_ex.c **** #endif /* USE_FULL_ASSERT  */
 822:./Libraries/STM32F4xx_HAL_Driver/Src/stm32f4xx_hal_adc_ex.c **** 
 823:./Libraries/STM32F4xx_HAL_Driver/Src/stm32f4xx_hal_adc_ex.c ****   ADC_Common_TypeDef *tmpADC_Common;
 824:./Libraries/STM32F4xx_HAL_Driver/Src/stm32f4xx_hal_adc_ex.c **** 
 825:./Libraries/STM32F4xx_HAL_Driver/Src/stm32f4xx_hal_adc_ex.c ****   /* Check the parameters */
 826:./Libraries/STM32F4xx_HAL_Driver/Src/stm32f4xx_hal_adc_ex.c ****   assert_param(IS_ADC_CHANNEL(sConfigInjected->InjectedChannel));
 827:./Libraries/STM32F4xx_HAL_Driver/Src/stm32f4xx_hal_adc_ex.c ****   assert_param(IS_ADC_INJECTED_RANK(sConfigInjected->InjectedRank));
ARM GAS  /tmp/cciLPtso.s 			page 43


 828:./Libraries/STM32F4xx_HAL_Driver/Src/stm32f4xx_hal_adc_ex.c ****   assert_param(IS_ADC_SAMPLE_TIME(sConfigInjected->InjectedSamplingTime));
 829:./Libraries/STM32F4xx_HAL_Driver/Src/stm32f4xx_hal_adc_ex.c ****   assert_param(IS_ADC_EXT_INJEC_TRIG(sConfigInjected->ExternalTrigInjecConv));
 830:./Libraries/STM32F4xx_HAL_Driver/Src/stm32f4xx_hal_adc_ex.c ****   assert_param(IS_ADC_INJECTED_LENGTH(sConfigInjected->InjectedNbrOfConversion));
 831:./Libraries/STM32F4xx_HAL_Driver/Src/stm32f4xx_hal_adc_ex.c ****   assert_param(IS_FUNCTIONAL_STATE(sConfigInjected->AutoInjectedConv));
 832:./Libraries/STM32F4xx_HAL_Driver/Src/stm32f4xx_hal_adc_ex.c ****   assert_param(IS_FUNCTIONAL_STATE(sConfigInjected->InjectedDiscontinuousConvMode));
 833:./Libraries/STM32F4xx_HAL_Driver/Src/stm32f4xx_hal_adc_ex.c **** 
 834:./Libraries/STM32F4xx_HAL_Driver/Src/stm32f4xx_hal_adc_ex.c **** #ifdef USE_FULL_ASSERT
 835:./Libraries/STM32F4xx_HAL_Driver/Src/stm32f4xx_hal_adc_ex.c ****   tmp = ADC_GET_RESOLUTION(hadc);
 836:./Libraries/STM32F4xx_HAL_Driver/Src/stm32f4xx_hal_adc_ex.c ****   assert_param(IS_ADC_RANGE(tmp, sConfigInjected->InjectedOffset));
 837:./Libraries/STM32F4xx_HAL_Driver/Src/stm32f4xx_hal_adc_ex.c **** #endif /* USE_FULL_ASSERT  */
 838:./Libraries/STM32F4xx_HAL_Driver/Src/stm32f4xx_hal_adc_ex.c **** 
 839:./Libraries/STM32F4xx_HAL_Driver/Src/stm32f4xx_hal_adc_ex.c ****   if(sConfigInjected->ExternalTrigInjecConv != ADC_INJECTED_SOFTWARE_START)
 840:./Libraries/STM32F4xx_HAL_Driver/Src/stm32f4xx_hal_adc_ex.c ****   {
 841:./Libraries/STM32F4xx_HAL_Driver/Src/stm32f4xx_hal_adc_ex.c ****     assert_param(IS_ADC_EXT_INJEC_TRIG_EDGE(sConfigInjected->ExternalTrigInjecConvEdge));
 842:./Libraries/STM32F4xx_HAL_Driver/Src/stm32f4xx_hal_adc_ex.c ****   }
 843:./Libraries/STM32F4xx_HAL_Driver/Src/stm32f4xx_hal_adc_ex.c **** 
 844:./Libraries/STM32F4xx_HAL_Driver/Src/stm32f4xx_hal_adc_ex.c ****   /* Process locked */
 845:./Libraries/STM32F4xx_HAL_Driver/Src/stm32f4xx_hal_adc_ex.c ****   __HAL_LOCK(hadc);
 1572              		.loc 1 845 3
 1573 000a 7B68     		ldr	r3, [r7, #4]
 1574 000c 93F83C30 		ldrb	r3, [r3, #60]	@ zero_extendqisi2
 1575 0010 012B     		cmp	r3, #1
 1576 0012 01D1     		bne	.L78
 1577              		.loc 1 845 3 is_stmt 0 discriminator 1
 1578 0014 0223     		movs	r3, #2
 1579 0016 7EE1     		b	.L79
 1580              	.L78:
 1581              		.loc 1 845 3 discriminator 2
 1582 0018 7B68     		ldr	r3, [r7, #4]
 1583 001a 0122     		movs	r2, #1
 1584 001c 83F83C20 		strb	r2, [r3, #60]
 846:./Libraries/STM32F4xx_HAL_Driver/Src/stm32f4xx_hal_adc_ex.c ****   
 847:./Libraries/STM32F4xx_HAL_Driver/Src/stm32f4xx_hal_adc_ex.c ****   /* if ADC_Channel_10 ... ADC_Channel_18 is selected */
 848:./Libraries/STM32F4xx_HAL_Driver/Src/stm32f4xx_hal_adc_ex.c ****   if (sConfigInjected->InjectedChannel > ADC_CHANNEL_9)
 1585              		.loc 1 848 22 is_stmt 1 discriminator 2
 1586 0020 3B68     		ldr	r3, [r7]
 1587 0022 1B68     		ldr	r3, [r3]
 1588              		.loc 1 848 6 discriminator 2
 1589 0024 092B     		cmp	r3, #9
 1590 0026 25D9     		bls	.L80
 849:./Libraries/STM32F4xx_HAL_Driver/Src/stm32f4xx_hal_adc_ex.c ****   {
 850:./Libraries/STM32F4xx_HAL_Driver/Src/stm32f4xx_hal_adc_ex.c ****     /* Clear the old sample time */
 851:./Libraries/STM32F4xx_HAL_Driver/Src/stm32f4xx_hal_adc_ex.c ****     hadc->Instance->SMPR1 &= ~ADC_SMPR1(ADC_SMPR1_SMP10, sConfigInjected->InjectedChannel);
 1591              		.loc 1 851 9
 1592 0028 7B68     		ldr	r3, [r7, #4]
 1593 002a 1B68     		ldr	r3, [r3]
 1594              		.loc 1 851 27
 1595 002c D968     		ldr	r1, [r3, #12]
 1596              		.loc 1 851 31
 1597 002e 3B68     		ldr	r3, [r7]
 1598 0030 1B68     		ldr	r3, [r3]
 1599 0032 9BB2     		uxth	r3, r3
 1600 0034 1A46     		mov	r2, r3
 1601 0036 1346     		mov	r3, r2
 1602 0038 5B00     		lsls	r3, r3, #1
 1603 003a 1344     		add	r3, r3, r2
 1604 003c 1E3B     		subs	r3, r3, #30
ARM GAS  /tmp/cciLPtso.s 			page 44


 1605 003e 0722     		movs	r2, #7
 1606 0040 02FA03F3 		lsl	r3, r2, r3
 1607              		.loc 1 851 30
 1608 0044 DA43     		mvns	r2, r3
 1609              		.loc 1 851 9
 1610 0046 7B68     		ldr	r3, [r7, #4]
 1611 0048 1B68     		ldr	r3, [r3]
 1612              		.loc 1 851 27
 1613 004a 0A40     		ands	r2, r2, r1
 1614 004c DA60     		str	r2, [r3, #12]
 852:./Libraries/STM32F4xx_HAL_Driver/Src/stm32f4xx_hal_adc_ex.c ****     
 853:./Libraries/STM32F4xx_HAL_Driver/Src/stm32f4xx_hal_adc_ex.c ****     /* Set the new sample time */
 854:./Libraries/STM32F4xx_HAL_Driver/Src/stm32f4xx_hal_adc_ex.c ****     hadc->Instance->SMPR1 |= ADC_SMPR1(sConfigInjected->InjectedSamplingTime, sConfigInjected->Inje
 1615              		.loc 1 854 9
 1616 004e 7B68     		ldr	r3, [r7, #4]
 1617 0050 1B68     		ldr	r3, [r3]
 1618              		.loc 1 854 27
 1619 0052 D968     		ldr	r1, [r3, #12]
 1620              		.loc 1 854 30
 1621 0054 3B68     		ldr	r3, [r7]
 1622 0056 9A68     		ldr	r2, [r3, #8]
 1623 0058 3B68     		ldr	r3, [r7]
 1624 005a 1B68     		ldr	r3, [r3]
 1625 005c 9BB2     		uxth	r3, r3
 1626 005e 1846     		mov	r0, r3
 1627 0060 0346     		mov	r3, r0
 1628 0062 5B00     		lsls	r3, r3, #1
 1629 0064 0344     		add	r3, r3, r0
 1630 0066 1E3B     		subs	r3, r3, #30
 1631 0068 9A40     		lsls	r2, r2, r3
 1632              		.loc 1 854 9
 1633 006a 7B68     		ldr	r3, [r7, #4]
 1634 006c 1B68     		ldr	r3, [r3]
 1635              		.loc 1 854 27
 1636 006e 0A43     		orrs	r2, r2, r1
 1637 0070 DA60     		str	r2, [r3, #12]
 1638 0072 22E0     		b	.L81
 1639              	.L80:
 855:./Libraries/STM32F4xx_HAL_Driver/Src/stm32f4xx_hal_adc_ex.c ****   }
 856:./Libraries/STM32F4xx_HAL_Driver/Src/stm32f4xx_hal_adc_ex.c ****   else /* ADC_Channel include in ADC_Channel_[0..9] */
 857:./Libraries/STM32F4xx_HAL_Driver/Src/stm32f4xx_hal_adc_ex.c ****   {
 858:./Libraries/STM32F4xx_HAL_Driver/Src/stm32f4xx_hal_adc_ex.c ****     /* Clear the old sample time */
 859:./Libraries/STM32F4xx_HAL_Driver/Src/stm32f4xx_hal_adc_ex.c ****     hadc->Instance->SMPR2 &= ~ADC_SMPR2(ADC_SMPR2_SMP0, sConfigInjected->InjectedChannel);
 1640              		.loc 1 859 9
 1641 0074 7B68     		ldr	r3, [r7, #4]
 1642 0076 1B68     		ldr	r3, [r3]
 1643              		.loc 1 859 27
 1644 0078 1969     		ldr	r1, [r3, #16]
 1645              		.loc 1 859 31
 1646 007a 3B68     		ldr	r3, [r7]
 1647 007c 1B68     		ldr	r3, [r3]
 1648 007e 9BB2     		uxth	r3, r3
 1649 0080 1A46     		mov	r2, r3
 1650 0082 1346     		mov	r3, r2
 1651 0084 5B00     		lsls	r3, r3, #1
 1652 0086 1344     		add	r3, r3, r2
 1653 0088 0722     		movs	r2, #7
ARM GAS  /tmp/cciLPtso.s 			page 45


 1654 008a 02FA03F3 		lsl	r3, r2, r3
 1655              		.loc 1 859 30
 1656 008e DA43     		mvns	r2, r3
 1657              		.loc 1 859 9
 1658 0090 7B68     		ldr	r3, [r7, #4]
 1659 0092 1B68     		ldr	r3, [r3]
 1660              		.loc 1 859 27
 1661 0094 0A40     		ands	r2, r2, r1
 1662 0096 1A61     		str	r2, [r3, #16]
 860:./Libraries/STM32F4xx_HAL_Driver/Src/stm32f4xx_hal_adc_ex.c ****     
 861:./Libraries/STM32F4xx_HAL_Driver/Src/stm32f4xx_hal_adc_ex.c ****     /* Set the new sample time */
 862:./Libraries/STM32F4xx_HAL_Driver/Src/stm32f4xx_hal_adc_ex.c ****     hadc->Instance->SMPR2 |= ADC_SMPR2(sConfigInjected->InjectedSamplingTime, sConfigInjected->Inje
 1663              		.loc 1 862 9
 1664 0098 7B68     		ldr	r3, [r7, #4]
 1665 009a 1B68     		ldr	r3, [r3]
 1666              		.loc 1 862 27
 1667 009c 1969     		ldr	r1, [r3, #16]
 1668              		.loc 1 862 30
 1669 009e 3B68     		ldr	r3, [r7]
 1670 00a0 9A68     		ldr	r2, [r3, #8]
 1671 00a2 3B68     		ldr	r3, [r7]
 1672 00a4 1B68     		ldr	r3, [r3]
 1673 00a6 9BB2     		uxth	r3, r3
 1674 00a8 1846     		mov	r0, r3
 1675 00aa 0346     		mov	r3, r0
 1676 00ac 5B00     		lsls	r3, r3, #1
 1677 00ae 0344     		add	r3, r3, r0
 1678 00b0 9A40     		lsls	r2, r2, r3
 1679              		.loc 1 862 9
 1680 00b2 7B68     		ldr	r3, [r7, #4]
 1681 00b4 1B68     		ldr	r3, [r3]
 1682              		.loc 1 862 27
 1683 00b6 0A43     		orrs	r2, r2, r1
 1684 00b8 1A61     		str	r2, [r3, #16]
 1685              	.L81:
 863:./Libraries/STM32F4xx_HAL_Driver/Src/stm32f4xx_hal_adc_ex.c ****   }
 864:./Libraries/STM32F4xx_HAL_Driver/Src/stm32f4xx_hal_adc_ex.c ****   
 865:./Libraries/STM32F4xx_HAL_Driver/Src/stm32f4xx_hal_adc_ex.c ****   /*---------------------------- ADCx JSQR Configuration -----------------*/
 866:./Libraries/STM32F4xx_HAL_Driver/Src/stm32f4xx_hal_adc_ex.c ****   hadc->Instance->JSQR &= ~(ADC_JSQR_JL);
 1686              		.loc 1 866 7
 1687 00ba 7B68     		ldr	r3, [r7, #4]
 1688 00bc 1B68     		ldr	r3, [r3]
 1689              		.loc 1 866 24
 1690 00be 9A6B     		ldr	r2, [r3, #56]
 1691              		.loc 1 866 7
 1692 00c0 7B68     		ldr	r3, [r7, #4]
 1693 00c2 1B68     		ldr	r3, [r3]
 1694              		.loc 1 866 24
 1695 00c4 22F44012 		bic	r2, r2, #3145728
 1696 00c8 9A63     		str	r2, [r3, #56]
 867:./Libraries/STM32F4xx_HAL_Driver/Src/stm32f4xx_hal_adc_ex.c ****   hadc->Instance->JSQR |=  ADC_SQR1(sConfigInjected->InjectedNbrOfConversion);
 1697              		.loc 1 867 7
 1698 00ca 7B68     		ldr	r3, [r7, #4]
 1699 00cc 1B68     		ldr	r3, [r3]
 1700              		.loc 1 867 24
 1701 00ce 996B     		ldr	r1, [r3, #56]
 1702              		.loc 1 867 28
ARM GAS  /tmp/cciLPtso.s 			page 46


 1703 00d0 3B68     		ldr	r3, [r7]
 1704 00d2 1B69     		ldr	r3, [r3, #16]
 1705 00d4 013B     		subs	r3, r3, #1
 1706 00d6 1A05     		lsls	r2, r3, #20
 1707              		.loc 1 867 7
 1708 00d8 7B68     		ldr	r3, [r7, #4]
 1709 00da 1B68     		ldr	r3, [r3]
 1710              		.loc 1 867 24
 1711 00dc 0A43     		orrs	r2, r2, r1
 1712 00de 9A63     		str	r2, [r3, #56]
 868:./Libraries/STM32F4xx_HAL_Driver/Src/stm32f4xx_hal_adc_ex.c ****   
 869:./Libraries/STM32F4xx_HAL_Driver/Src/stm32f4xx_hal_adc_ex.c ****   /* Rank configuration */
 870:./Libraries/STM32F4xx_HAL_Driver/Src/stm32f4xx_hal_adc_ex.c ****   
 871:./Libraries/STM32F4xx_HAL_Driver/Src/stm32f4xx_hal_adc_ex.c ****   /* Clear the old SQx bits for the selected rank */
 872:./Libraries/STM32F4xx_HAL_Driver/Src/stm32f4xx_hal_adc_ex.c ****   hadc->Instance->JSQR &= ~ADC_JSQR(ADC_JSQR_JSQ1, sConfigInjected->InjectedRank,sConfigInjected->I
 1713              		.loc 1 872 7
 1714 00e0 7B68     		ldr	r3, [r7, #4]
 1715 00e2 1B68     		ldr	r3, [r3]
 1716              		.loc 1 872 24
 1717 00e4 996B     		ldr	r1, [r3, #56]
 1718              		.loc 1 872 28
 1719 00e6 3B68     		ldr	r3, [r7]
 1720 00e8 5B68     		ldr	r3, [r3, #4]
 1721 00ea DAB2     		uxtb	r2, r3
 1722 00ec 3B68     		ldr	r3, [r7]
 1723 00ee 1B69     		ldr	r3, [r3, #16]
 1724 00f0 DBB2     		uxtb	r3, r3
 1725 00f2 D31A     		subs	r3, r2, r3
 1726 00f4 DBB2     		uxtb	r3, r3
 1727 00f6 0333     		adds	r3, r3, #3
 1728 00f8 DBB2     		uxtb	r3, r3
 1729 00fa 1A46     		mov	r2, r3
 1730 00fc 1346     		mov	r3, r2
 1731 00fe 9B00     		lsls	r3, r3, #2
 1732 0100 1344     		add	r3, r3, r2
 1733 0102 1F22     		movs	r2, #31
 1734 0104 02FA03F3 		lsl	r3, r2, r3
 1735              		.loc 1 872 27
 1736 0108 DA43     		mvns	r2, r3
 1737              		.loc 1 872 7
 1738 010a 7B68     		ldr	r3, [r7, #4]
 1739 010c 1B68     		ldr	r3, [r3]
 1740              		.loc 1 872 24
 1741 010e 0A40     		ands	r2, r2, r1
 1742 0110 9A63     		str	r2, [r3, #56]
 873:./Libraries/STM32F4xx_HAL_Driver/Src/stm32f4xx_hal_adc_ex.c ****    
 874:./Libraries/STM32F4xx_HAL_Driver/Src/stm32f4xx_hal_adc_ex.c ****   /* Set the SQx bits for the selected rank */
 875:./Libraries/STM32F4xx_HAL_Driver/Src/stm32f4xx_hal_adc_ex.c ****   hadc->Instance->JSQR |= ADC_JSQR(sConfigInjected->InjectedChannel, sConfigInjected->InjectedRank,
 1743              		.loc 1 875 7
 1744 0112 7B68     		ldr	r3, [r7, #4]
 1745 0114 1B68     		ldr	r3, [r3]
 1746              		.loc 1 875 24
 1747 0116 996B     		ldr	r1, [r3, #56]
 1748              		.loc 1 875 27
 1749 0118 3B68     		ldr	r3, [r7]
 1750 011a 1B68     		ldr	r3, [r3]
 1751 011c 9BB2     		uxth	r3, r3
ARM GAS  /tmp/cciLPtso.s 			page 47


 1752 011e 1846     		mov	r0, r3
 1753 0120 3B68     		ldr	r3, [r7]
 1754 0122 5B68     		ldr	r3, [r3, #4]
 1755 0124 DAB2     		uxtb	r2, r3
 1756 0126 3B68     		ldr	r3, [r7]
 1757 0128 1B69     		ldr	r3, [r3, #16]
 1758 012a DBB2     		uxtb	r3, r3
 1759 012c D31A     		subs	r3, r2, r3
 1760 012e DBB2     		uxtb	r3, r3
 1761 0130 0333     		adds	r3, r3, #3
 1762 0132 DBB2     		uxtb	r3, r3
 1763 0134 1A46     		mov	r2, r3
 1764 0136 1346     		mov	r3, r2
 1765 0138 9B00     		lsls	r3, r3, #2
 1766 013a 1344     		add	r3, r3, r2
 1767 013c 00FA03F2 		lsl	r2, r0, r3
 1768              		.loc 1 875 7
 1769 0140 7B68     		ldr	r3, [r7, #4]
 1770 0142 1B68     		ldr	r3, [r3]
 1771              		.loc 1 875 24
 1772 0144 0A43     		orrs	r2, r2, r1
 1773 0146 9A63     		str	r2, [r3, #56]
 876:./Libraries/STM32F4xx_HAL_Driver/Src/stm32f4xx_hal_adc_ex.c **** 
 877:./Libraries/STM32F4xx_HAL_Driver/Src/stm32f4xx_hal_adc_ex.c ****   /* Enable external trigger if trigger selection is different of software  */
 878:./Libraries/STM32F4xx_HAL_Driver/Src/stm32f4xx_hal_adc_ex.c ****   /* start.                                                                 */
 879:./Libraries/STM32F4xx_HAL_Driver/Src/stm32f4xx_hal_adc_ex.c ****   /* Note: This configuration keeps the hardware feature of parameter       */
 880:./Libraries/STM32F4xx_HAL_Driver/Src/stm32f4xx_hal_adc_ex.c ****   /*       ExternalTrigConvEdge "trigger edge none" equivalent to           */
 881:./Libraries/STM32F4xx_HAL_Driver/Src/stm32f4xx_hal_adc_ex.c ****   /*       software start.                                                  */ 
 882:./Libraries/STM32F4xx_HAL_Driver/Src/stm32f4xx_hal_adc_ex.c ****   if(sConfigInjected->ExternalTrigInjecConv != ADC_INJECTED_SOFTWARE_START)
 1774              		.loc 1 882 21
 1775 0148 3B68     		ldr	r3, [r7]
 1776 014a DB69     		ldr	r3, [r3, #28]
 1777              		.loc 1 882 5
 1778 014c 754A     		ldr	r2, .L96
 1779 014e 9342     		cmp	r3, r2
 1780 0150 22D0     		beq	.L82
 883:./Libraries/STM32F4xx_HAL_Driver/Src/stm32f4xx_hal_adc_ex.c ****   {  
 884:./Libraries/STM32F4xx_HAL_Driver/Src/stm32f4xx_hal_adc_ex.c ****     /* Select external trigger to start conversion */
 885:./Libraries/STM32F4xx_HAL_Driver/Src/stm32f4xx_hal_adc_ex.c ****     hadc->Instance->CR2 &= ~(ADC_CR2_JEXTSEL);
 1781              		.loc 1 885 9
 1782 0152 7B68     		ldr	r3, [r7, #4]
 1783 0154 1B68     		ldr	r3, [r3]
 1784              		.loc 1 885 25
 1785 0156 9A68     		ldr	r2, [r3, #8]
 1786              		.loc 1 885 9
 1787 0158 7B68     		ldr	r3, [r7, #4]
 1788 015a 1B68     		ldr	r3, [r3]
 1789              		.loc 1 885 25
 1790 015c 22F47022 		bic	r2, r2, #983040
 1791 0160 9A60     		str	r2, [r3, #8]
 886:./Libraries/STM32F4xx_HAL_Driver/Src/stm32f4xx_hal_adc_ex.c ****     hadc->Instance->CR2 |=  sConfigInjected->ExternalTrigInjecConv;
 1792              		.loc 1 886 9
 1793 0162 7B68     		ldr	r3, [r7, #4]
 1794 0164 1B68     		ldr	r3, [r3]
 1795              		.loc 1 886 25
 1796 0166 9968     		ldr	r1, [r3, #8]
 1797              		.loc 1 886 44
ARM GAS  /tmp/cciLPtso.s 			page 48


 1798 0168 3B68     		ldr	r3, [r7]
 1799 016a DA69     		ldr	r2, [r3, #28]
 1800              		.loc 1 886 9
 1801 016c 7B68     		ldr	r3, [r7, #4]
 1802 016e 1B68     		ldr	r3, [r3]
 1803              		.loc 1 886 25
 1804 0170 0A43     		orrs	r2, r2, r1
 1805 0172 9A60     		str	r2, [r3, #8]
 887:./Libraries/STM32F4xx_HAL_Driver/Src/stm32f4xx_hal_adc_ex.c ****     
 888:./Libraries/STM32F4xx_HAL_Driver/Src/stm32f4xx_hal_adc_ex.c ****     /* Select external trigger polarity */
 889:./Libraries/STM32F4xx_HAL_Driver/Src/stm32f4xx_hal_adc_ex.c ****     hadc->Instance->CR2 &= ~(ADC_CR2_JEXTEN);
 1806              		.loc 1 889 9
 1807 0174 7B68     		ldr	r3, [r7, #4]
 1808 0176 1B68     		ldr	r3, [r3]
 1809              		.loc 1 889 25
 1810 0178 9A68     		ldr	r2, [r3, #8]
 1811              		.loc 1 889 9
 1812 017a 7B68     		ldr	r3, [r7, #4]
 1813 017c 1B68     		ldr	r3, [r3]
 1814              		.loc 1 889 25
 1815 017e 22F44012 		bic	r2, r2, #3145728
 1816 0182 9A60     		str	r2, [r3, #8]
 890:./Libraries/STM32F4xx_HAL_Driver/Src/stm32f4xx_hal_adc_ex.c ****     hadc->Instance->CR2 |= sConfigInjected->ExternalTrigInjecConvEdge;
 1817              		.loc 1 890 9
 1818 0184 7B68     		ldr	r3, [r7, #4]
 1819 0186 1B68     		ldr	r3, [r3]
 1820              		.loc 1 890 25
 1821 0188 9968     		ldr	r1, [r3, #8]
 1822              		.loc 1 890 43
 1823 018a 3B68     		ldr	r3, [r7]
 1824 018c 1A6A     		ldr	r2, [r3, #32]
 1825              		.loc 1 890 9
 1826 018e 7B68     		ldr	r3, [r7, #4]
 1827 0190 1B68     		ldr	r3, [r3]
 1828              		.loc 1 890 25
 1829 0192 0A43     		orrs	r2, r2, r1
 1830 0194 9A60     		str	r2, [r3, #8]
 1831 0196 0FE0     		b	.L83
 1832              	.L82:
 891:./Libraries/STM32F4xx_HAL_Driver/Src/stm32f4xx_hal_adc_ex.c ****   }
 892:./Libraries/STM32F4xx_HAL_Driver/Src/stm32f4xx_hal_adc_ex.c ****   else
 893:./Libraries/STM32F4xx_HAL_Driver/Src/stm32f4xx_hal_adc_ex.c ****   {
 894:./Libraries/STM32F4xx_HAL_Driver/Src/stm32f4xx_hal_adc_ex.c ****     /* Reset the external trigger */
 895:./Libraries/STM32F4xx_HAL_Driver/Src/stm32f4xx_hal_adc_ex.c ****     hadc->Instance->CR2 &= ~(ADC_CR2_JEXTSEL);
 1833              		.loc 1 895 9
 1834 0198 7B68     		ldr	r3, [r7, #4]
 1835 019a 1B68     		ldr	r3, [r3]
 1836              		.loc 1 895 25
 1837 019c 9A68     		ldr	r2, [r3, #8]
 1838              		.loc 1 895 9
 1839 019e 7B68     		ldr	r3, [r7, #4]
 1840 01a0 1B68     		ldr	r3, [r3]
 1841              		.loc 1 895 25
 1842 01a2 22F47022 		bic	r2, r2, #983040
 1843 01a6 9A60     		str	r2, [r3, #8]
 896:./Libraries/STM32F4xx_HAL_Driver/Src/stm32f4xx_hal_adc_ex.c ****     hadc->Instance->CR2 &= ~(ADC_CR2_JEXTEN);  
 1844              		.loc 1 896 9
ARM GAS  /tmp/cciLPtso.s 			page 49


 1845 01a8 7B68     		ldr	r3, [r7, #4]
 1846 01aa 1B68     		ldr	r3, [r3]
 1847              		.loc 1 896 25
 1848 01ac 9A68     		ldr	r2, [r3, #8]
 1849              		.loc 1 896 9
 1850 01ae 7B68     		ldr	r3, [r7, #4]
 1851 01b0 1B68     		ldr	r3, [r3]
 1852              		.loc 1 896 25
 1853 01b2 22F44012 		bic	r2, r2, #3145728
 1854 01b6 9A60     		str	r2, [r3, #8]
 1855              	.L83:
 897:./Libraries/STM32F4xx_HAL_Driver/Src/stm32f4xx_hal_adc_ex.c ****   }
 898:./Libraries/STM32F4xx_HAL_Driver/Src/stm32f4xx_hal_adc_ex.c ****   
 899:./Libraries/STM32F4xx_HAL_Driver/Src/stm32f4xx_hal_adc_ex.c ****   if (sConfigInjected->AutoInjectedConv != DISABLE)
 1856              		.loc 1 899 22
 1857 01b8 3B68     		ldr	r3, [r7]
 1858 01ba 9B69     		ldr	r3, [r3, #24]
 1859              		.loc 1 899 6
 1860 01bc 002B     		cmp	r3, #0
 1861 01be 08D0     		beq	.L84
 900:./Libraries/STM32F4xx_HAL_Driver/Src/stm32f4xx_hal_adc_ex.c ****   {
 901:./Libraries/STM32F4xx_HAL_Driver/Src/stm32f4xx_hal_adc_ex.c ****     /* Enable the selected ADC automatic injected group conversion */
 902:./Libraries/STM32F4xx_HAL_Driver/Src/stm32f4xx_hal_adc_ex.c ****     hadc->Instance->CR1 |= ADC_CR1_JAUTO;
 1862              		.loc 1 902 9
 1863 01c0 7B68     		ldr	r3, [r7, #4]
 1864 01c2 1B68     		ldr	r3, [r3]
 1865              		.loc 1 902 25
 1866 01c4 5A68     		ldr	r2, [r3, #4]
 1867              		.loc 1 902 9
 1868 01c6 7B68     		ldr	r3, [r7, #4]
 1869 01c8 1B68     		ldr	r3, [r3]
 1870              		.loc 1 902 25
 1871 01ca 42F48062 		orr	r2, r2, #1024
 1872 01ce 5A60     		str	r2, [r3, #4]
 1873 01d0 07E0     		b	.L85
 1874              	.L84:
 903:./Libraries/STM32F4xx_HAL_Driver/Src/stm32f4xx_hal_adc_ex.c ****   }
 904:./Libraries/STM32F4xx_HAL_Driver/Src/stm32f4xx_hal_adc_ex.c ****   else
 905:./Libraries/STM32F4xx_HAL_Driver/Src/stm32f4xx_hal_adc_ex.c ****   {
 906:./Libraries/STM32F4xx_HAL_Driver/Src/stm32f4xx_hal_adc_ex.c ****     /* Disable the selected ADC automatic injected group conversion */
 907:./Libraries/STM32F4xx_HAL_Driver/Src/stm32f4xx_hal_adc_ex.c ****     hadc->Instance->CR1 &= ~(ADC_CR1_JAUTO);
 1875              		.loc 1 907 9
 1876 01d2 7B68     		ldr	r3, [r7, #4]
 1877 01d4 1B68     		ldr	r3, [r3]
 1878              		.loc 1 907 25
 1879 01d6 5A68     		ldr	r2, [r3, #4]
 1880              		.loc 1 907 9
 1881 01d8 7B68     		ldr	r3, [r7, #4]
 1882 01da 1B68     		ldr	r3, [r3]
 1883              		.loc 1 907 25
 1884 01dc 22F48062 		bic	r2, r2, #1024
 1885 01e0 5A60     		str	r2, [r3, #4]
 1886              	.L85:
 908:./Libraries/STM32F4xx_HAL_Driver/Src/stm32f4xx_hal_adc_ex.c ****   }
 909:./Libraries/STM32F4xx_HAL_Driver/Src/stm32f4xx_hal_adc_ex.c ****   
 910:./Libraries/STM32F4xx_HAL_Driver/Src/stm32f4xx_hal_adc_ex.c ****   if (sConfigInjected->InjectedDiscontinuousConvMode != DISABLE)
 1887              		.loc 1 910 22
ARM GAS  /tmp/cciLPtso.s 			page 50


 1888 01e2 3B68     		ldr	r3, [r7]
 1889 01e4 5B69     		ldr	r3, [r3, #20]
 1890              		.loc 1 910 6
 1891 01e6 002B     		cmp	r3, #0
 1892 01e8 08D0     		beq	.L86
 911:./Libraries/STM32F4xx_HAL_Driver/Src/stm32f4xx_hal_adc_ex.c ****   {
 912:./Libraries/STM32F4xx_HAL_Driver/Src/stm32f4xx_hal_adc_ex.c ****     /* Enable the selected ADC injected discontinuous mode */
 913:./Libraries/STM32F4xx_HAL_Driver/Src/stm32f4xx_hal_adc_ex.c ****     hadc->Instance->CR1 |= ADC_CR1_JDISCEN;
 1893              		.loc 1 913 9
 1894 01ea 7B68     		ldr	r3, [r7, #4]
 1895 01ec 1B68     		ldr	r3, [r3]
 1896              		.loc 1 913 25
 1897 01ee 5A68     		ldr	r2, [r3, #4]
 1898              		.loc 1 913 9
 1899 01f0 7B68     		ldr	r3, [r7, #4]
 1900 01f2 1B68     		ldr	r3, [r3]
 1901              		.loc 1 913 25
 1902 01f4 42F48052 		orr	r2, r2, #4096
 1903 01f8 5A60     		str	r2, [r3, #4]
 1904 01fa 07E0     		b	.L87
 1905              	.L86:
 914:./Libraries/STM32F4xx_HAL_Driver/Src/stm32f4xx_hal_adc_ex.c ****   }
 915:./Libraries/STM32F4xx_HAL_Driver/Src/stm32f4xx_hal_adc_ex.c ****   else
 916:./Libraries/STM32F4xx_HAL_Driver/Src/stm32f4xx_hal_adc_ex.c ****   {
 917:./Libraries/STM32F4xx_HAL_Driver/Src/stm32f4xx_hal_adc_ex.c ****     /* Disable the selected ADC injected discontinuous mode */
 918:./Libraries/STM32F4xx_HAL_Driver/Src/stm32f4xx_hal_adc_ex.c ****     hadc->Instance->CR1 &= ~(ADC_CR1_JDISCEN);
 1906              		.loc 1 918 9
 1907 01fc 7B68     		ldr	r3, [r7, #4]
 1908 01fe 1B68     		ldr	r3, [r3]
 1909              		.loc 1 918 25
 1910 0200 5A68     		ldr	r2, [r3, #4]
 1911              		.loc 1 918 9
 1912 0202 7B68     		ldr	r3, [r7, #4]
 1913 0204 1B68     		ldr	r3, [r3]
 1914              		.loc 1 918 25
 1915 0206 22F48052 		bic	r2, r2, #4096
 1916 020a 5A60     		str	r2, [r3, #4]
 1917              	.L87:
 919:./Libraries/STM32F4xx_HAL_Driver/Src/stm32f4xx_hal_adc_ex.c ****   }
 920:./Libraries/STM32F4xx_HAL_Driver/Src/stm32f4xx_hal_adc_ex.c ****   
 921:./Libraries/STM32F4xx_HAL_Driver/Src/stm32f4xx_hal_adc_ex.c ****   switch(sConfigInjected->InjectedRank)
 1918              		.loc 1 921 25
 1919 020c 3B68     		ldr	r3, [r7]
 1920 020e 5B68     		ldr	r3, [r3, #4]
 1921              		.loc 1 921 3
 1922 0210 032B     		cmp	r3, #3
 1923 0212 2ED0     		beq	.L88
 1924 0214 032B     		cmp	r3, #3
 1925 0216 40D8     		bhi	.L89
 1926 0218 012B     		cmp	r3, #1
 1927 021a 02D0     		beq	.L90
 1928 021c 022B     		cmp	r3, #2
 1929 021e 14D0     		beq	.L91
 1930 0220 3BE0     		b	.L89
 1931              	.L90:
 922:./Libraries/STM32F4xx_HAL_Driver/Src/stm32f4xx_hal_adc_ex.c ****   {
 923:./Libraries/STM32F4xx_HAL_Driver/Src/stm32f4xx_hal_adc_ex.c ****     case 1U:
ARM GAS  /tmp/cciLPtso.s 			page 51


 924:./Libraries/STM32F4xx_HAL_Driver/Src/stm32f4xx_hal_adc_ex.c ****       /* Set injected channel 1 offset */
 925:./Libraries/STM32F4xx_HAL_Driver/Src/stm32f4xx_hal_adc_ex.c ****       hadc->Instance->JOFR1 &= ~(ADC_JOFR1_JOFFSET1);
 1932              		.loc 1 925 11
 1933 0222 7B68     		ldr	r3, [r7, #4]
 1934 0224 1B68     		ldr	r3, [r3]
 1935              		.loc 1 925 29
 1936 0226 5B69     		ldr	r3, [r3, #20]
 1937              		.loc 1 925 11
 1938 0228 7A68     		ldr	r2, [r7, #4]
 1939 022a 1268     		ldr	r2, [r2]
 1940              		.loc 1 925 29
 1941 022c 23F47F63 		bic	r3, r3, #4080
 1942 0230 23F00F03 		bic	r3, r3, #15
 1943 0234 5361     		str	r3, [r2, #20]
 926:./Libraries/STM32F4xx_HAL_Driver/Src/stm32f4xx_hal_adc_ex.c ****       hadc->Instance->JOFR1 |= sConfigInjected->InjectedOffset;
 1944              		.loc 1 926 11
 1945 0236 7B68     		ldr	r3, [r7, #4]
 1946 0238 1B68     		ldr	r3, [r3]
 1947              		.loc 1 926 29
 1948 023a 5969     		ldr	r1, [r3, #20]
 1949              		.loc 1 926 47
 1950 023c 3B68     		ldr	r3, [r7]
 1951 023e DA68     		ldr	r2, [r3, #12]
 1952              		.loc 1 926 11
 1953 0240 7B68     		ldr	r3, [r7, #4]
 1954 0242 1B68     		ldr	r3, [r3]
 1955              		.loc 1 926 29
 1956 0244 0A43     		orrs	r2, r2, r1
 1957 0246 5A61     		str	r2, [r3, #20]
 927:./Libraries/STM32F4xx_HAL_Driver/Src/stm32f4xx_hal_adc_ex.c ****       break;
 1958              		.loc 1 927 7
 1959 0248 3BE0     		b	.L92
 1960              	.L91:
 928:./Libraries/STM32F4xx_HAL_Driver/Src/stm32f4xx_hal_adc_ex.c ****     case 2U:
 929:./Libraries/STM32F4xx_HAL_Driver/Src/stm32f4xx_hal_adc_ex.c ****       /* Set injected channel 2 offset */
 930:./Libraries/STM32F4xx_HAL_Driver/Src/stm32f4xx_hal_adc_ex.c ****       hadc->Instance->JOFR2 &= ~(ADC_JOFR2_JOFFSET2);
 1961              		.loc 1 930 11
 1962 024a 7B68     		ldr	r3, [r7, #4]
 1963 024c 1B68     		ldr	r3, [r3]
 1964              		.loc 1 930 29
 1965 024e 9B69     		ldr	r3, [r3, #24]
 1966              		.loc 1 930 11
 1967 0250 7A68     		ldr	r2, [r7, #4]
 1968 0252 1268     		ldr	r2, [r2]
 1969              		.loc 1 930 29
 1970 0254 23F47F63 		bic	r3, r3, #4080
 1971 0258 23F00F03 		bic	r3, r3, #15
 1972 025c 9361     		str	r3, [r2, #24]
 931:./Libraries/STM32F4xx_HAL_Driver/Src/stm32f4xx_hal_adc_ex.c ****       hadc->Instance->JOFR2 |= sConfigInjected->InjectedOffset;
 1973              		.loc 1 931 11
 1974 025e 7B68     		ldr	r3, [r7, #4]
 1975 0260 1B68     		ldr	r3, [r3]
 1976              		.loc 1 931 29
 1977 0262 9969     		ldr	r1, [r3, #24]
 1978              		.loc 1 931 47
 1979 0264 3B68     		ldr	r3, [r7]
 1980 0266 DA68     		ldr	r2, [r3, #12]
ARM GAS  /tmp/cciLPtso.s 			page 52


 1981              		.loc 1 931 11
 1982 0268 7B68     		ldr	r3, [r7, #4]
 1983 026a 1B68     		ldr	r3, [r3]
 1984              		.loc 1 931 29
 1985 026c 0A43     		orrs	r2, r2, r1
 1986 026e 9A61     		str	r2, [r3, #24]
 932:./Libraries/STM32F4xx_HAL_Driver/Src/stm32f4xx_hal_adc_ex.c ****       break;
 1987              		.loc 1 932 7
 1988 0270 27E0     		b	.L92
 1989              	.L88:
 933:./Libraries/STM32F4xx_HAL_Driver/Src/stm32f4xx_hal_adc_ex.c ****     case 3U:
 934:./Libraries/STM32F4xx_HAL_Driver/Src/stm32f4xx_hal_adc_ex.c ****       /* Set injected channel 3 offset */
 935:./Libraries/STM32F4xx_HAL_Driver/Src/stm32f4xx_hal_adc_ex.c ****       hadc->Instance->JOFR3 &= ~(ADC_JOFR3_JOFFSET3);
 1990              		.loc 1 935 11
 1991 0272 7B68     		ldr	r3, [r7, #4]
 1992 0274 1B68     		ldr	r3, [r3]
 1993              		.loc 1 935 29
 1994 0276 DB69     		ldr	r3, [r3, #28]
 1995              		.loc 1 935 11
 1996 0278 7A68     		ldr	r2, [r7, #4]
 1997 027a 1268     		ldr	r2, [r2]
 1998              		.loc 1 935 29
 1999 027c 23F47F63 		bic	r3, r3, #4080
 2000 0280 23F00F03 		bic	r3, r3, #15
 2001 0284 D361     		str	r3, [r2, #28]
 936:./Libraries/STM32F4xx_HAL_Driver/Src/stm32f4xx_hal_adc_ex.c ****       hadc->Instance->JOFR3 |= sConfigInjected->InjectedOffset;
 2002              		.loc 1 936 11
 2003 0286 7B68     		ldr	r3, [r7, #4]
 2004 0288 1B68     		ldr	r3, [r3]
 2005              		.loc 1 936 29
 2006 028a D969     		ldr	r1, [r3, #28]
 2007              		.loc 1 936 47
 2008 028c 3B68     		ldr	r3, [r7]
 2009 028e DA68     		ldr	r2, [r3, #12]
 2010              		.loc 1 936 11
 2011 0290 7B68     		ldr	r3, [r7, #4]
 2012 0292 1B68     		ldr	r3, [r3]
 2013              		.loc 1 936 29
 2014 0294 0A43     		orrs	r2, r2, r1
 2015 0296 DA61     		str	r2, [r3, #28]
 937:./Libraries/STM32F4xx_HAL_Driver/Src/stm32f4xx_hal_adc_ex.c ****       break;
 2016              		.loc 1 937 7
 2017 0298 13E0     		b	.L92
 2018              	.L89:
 938:./Libraries/STM32F4xx_HAL_Driver/Src/stm32f4xx_hal_adc_ex.c ****     default:
 939:./Libraries/STM32F4xx_HAL_Driver/Src/stm32f4xx_hal_adc_ex.c ****       /* Set injected channel 4 offset */
 940:./Libraries/STM32F4xx_HAL_Driver/Src/stm32f4xx_hal_adc_ex.c ****       hadc->Instance->JOFR4 &= ~(ADC_JOFR4_JOFFSET4);
 2019              		.loc 1 940 11
 2020 029a 7B68     		ldr	r3, [r7, #4]
 2021 029c 1B68     		ldr	r3, [r3]
 2022              		.loc 1 940 29
 2023 029e 1B6A     		ldr	r3, [r3, #32]
 2024              		.loc 1 940 11
 2025 02a0 7A68     		ldr	r2, [r7, #4]
 2026 02a2 1268     		ldr	r2, [r2]
 2027              		.loc 1 940 29
 2028 02a4 23F47F63 		bic	r3, r3, #4080
ARM GAS  /tmp/cciLPtso.s 			page 53


 2029 02a8 23F00F03 		bic	r3, r3, #15
 2030 02ac 1362     		str	r3, [r2, #32]
 941:./Libraries/STM32F4xx_HAL_Driver/Src/stm32f4xx_hal_adc_ex.c ****       hadc->Instance->JOFR4 |= sConfigInjected->InjectedOffset;
 2031              		.loc 1 941 11
 2032 02ae 7B68     		ldr	r3, [r7, #4]
 2033 02b0 1B68     		ldr	r3, [r3]
 2034              		.loc 1 941 29
 2035 02b2 196A     		ldr	r1, [r3, #32]
 2036              		.loc 1 941 47
 2037 02b4 3B68     		ldr	r3, [r7]
 2038 02b6 DA68     		ldr	r2, [r3, #12]
 2039              		.loc 1 941 11
 2040 02b8 7B68     		ldr	r3, [r7, #4]
 2041 02ba 1B68     		ldr	r3, [r3]
 2042              		.loc 1 941 29
 2043 02bc 0A43     		orrs	r2, r2, r1
 2044 02be 1A62     		str	r2, [r3, #32]
 942:./Libraries/STM32F4xx_HAL_Driver/Src/stm32f4xx_hal_adc_ex.c ****       break;
 2045              		.loc 1 942 7
 2046 02c0 00BF     		nop
 2047              	.L92:
 943:./Libraries/STM32F4xx_HAL_Driver/Src/stm32f4xx_hal_adc_ex.c ****   }
 944:./Libraries/STM32F4xx_HAL_Driver/Src/stm32f4xx_hal_adc_ex.c **** 
 945:./Libraries/STM32F4xx_HAL_Driver/Src/stm32f4xx_hal_adc_ex.c ****   /* Pointer to the common control register to which is belonging hadc    */
 946:./Libraries/STM32F4xx_HAL_Driver/Src/stm32f4xx_hal_adc_ex.c ****   /* (Depending on STM32F4 product, there may be up to 3 ADC and 1 common */
 947:./Libraries/STM32F4xx_HAL_Driver/Src/stm32f4xx_hal_adc_ex.c ****   /* control register)                                                    */
 948:./Libraries/STM32F4xx_HAL_Driver/Src/stm32f4xx_hal_adc_ex.c ****     tmpADC_Common = ADC_COMMON_REGISTER(hadc);
 2048              		.loc 1 948 19
 2049 02c2 194B     		ldr	r3, .L96+4
 2050 02c4 FB60     		str	r3, [r7, #12]
 949:./Libraries/STM32F4xx_HAL_Driver/Src/stm32f4xx_hal_adc_ex.c **** 
 950:./Libraries/STM32F4xx_HAL_Driver/Src/stm32f4xx_hal_adc_ex.c ****   /* if ADC1 Channel_18 is selected enable VBAT Channel */
 951:./Libraries/STM32F4xx_HAL_Driver/Src/stm32f4xx_hal_adc_ex.c ****   if ((hadc->Instance == ADC1) && (sConfigInjected->InjectedChannel == ADC_CHANNEL_VBAT))
 2051              		.loc 1 951 12
 2052 02c6 7B68     		ldr	r3, [r7, #4]
 2053 02c8 1B68     		ldr	r3, [r3]
 2054              		.loc 1 951 6
 2055 02ca 184A     		ldr	r2, .L96+8
 2056 02cc 9342     		cmp	r3, r2
 2057 02ce 09D1     		bne	.L93
 2058              		.loc 1 951 51 discriminator 1
 2059 02d0 3B68     		ldr	r3, [r7]
 2060 02d2 1B68     		ldr	r3, [r3]
 2061              		.loc 1 951 32 discriminator 1
 2062 02d4 122B     		cmp	r3, #18
 2063 02d6 05D1     		bne	.L93
 952:./Libraries/STM32F4xx_HAL_Driver/Src/stm32f4xx_hal_adc_ex.c ****   {
 953:./Libraries/STM32F4xx_HAL_Driver/Src/stm32f4xx_hal_adc_ex.c ****     /* Enable the VBAT channel*/
 954:./Libraries/STM32F4xx_HAL_Driver/Src/stm32f4xx_hal_adc_ex.c ****     tmpADC_Common->CCR |= ADC_CCR_VBATE;
 2064              		.loc 1 954 24
 2065 02d8 FB68     		ldr	r3, [r7, #12]
 2066 02da 5B68     		ldr	r3, [r3, #4]
 2067 02dc 43F48002 		orr	r2, r3, #4194304
 2068 02e0 FB68     		ldr	r3, [r7, #12]
 2069 02e2 5A60     		str	r2, [r3, #4]
 2070              	.L93:
 955:./Libraries/STM32F4xx_HAL_Driver/Src/stm32f4xx_hal_adc_ex.c ****   }
ARM GAS  /tmp/cciLPtso.s 			page 54


 956:./Libraries/STM32F4xx_HAL_Driver/Src/stm32f4xx_hal_adc_ex.c ****   
 957:./Libraries/STM32F4xx_HAL_Driver/Src/stm32f4xx_hal_adc_ex.c ****   /* if ADC1 Channel_16 or Channel_17 is selected enable TSVREFE Channel(Temperature sensor and VRE
 958:./Libraries/STM32F4xx_HAL_Driver/Src/stm32f4xx_hal_adc_ex.c ****   if ((hadc->Instance == ADC1) && ((sConfigInjected->InjectedChannel == ADC_CHANNEL_TEMPSENSOR) || 
 2071              		.loc 1 958 12
 2072 02e4 7B68     		ldr	r3, [r7, #4]
 2073 02e6 1B68     		ldr	r3, [r3]
 2074              		.loc 1 958 6
 2075 02e8 104A     		ldr	r2, .L96+8
 2076 02ea 9342     		cmp	r3, r2
 2077 02ec 0ED1     		bne	.L94
 2078              		.loc 1 958 52 discriminator 1
 2079 02ee 3B68     		ldr	r3, [r7]
 2080 02f0 1B68     		ldr	r3, [r3]
 2081              		.loc 1 958 32 discriminator 1
 2082 02f2 0F4A     		ldr	r2, .L96+12
 2083 02f4 9342     		cmp	r3, r2
 2084 02f6 03D0     		beq	.L95
 2085              		.loc 1 958 116 discriminator 2
 2086 02f8 3B68     		ldr	r3, [r7]
 2087 02fa 1B68     		ldr	r3, [r3]
 2088              		.loc 1 958 97 discriminator 2
 2089 02fc 112B     		cmp	r3, #17
 2090 02fe 05D1     		bne	.L94
 2091              	.L95:
 959:./Libraries/STM32F4xx_HAL_Driver/Src/stm32f4xx_hal_adc_ex.c ****   {
 960:./Libraries/STM32F4xx_HAL_Driver/Src/stm32f4xx_hal_adc_ex.c ****     /* Enable the TSVREFE channel*/
 961:./Libraries/STM32F4xx_HAL_Driver/Src/stm32f4xx_hal_adc_ex.c ****     tmpADC_Common->CCR |= ADC_CCR_TSVREFE;
 2092              		.loc 1 961 24
 2093 0300 FB68     		ldr	r3, [r7, #12]
 2094 0302 5B68     		ldr	r3, [r3, #4]
 2095 0304 43F40002 		orr	r2, r3, #8388608
 2096 0308 FB68     		ldr	r3, [r7, #12]
 2097 030a 5A60     		str	r2, [r3, #4]
 2098              	.L94:
 962:./Libraries/STM32F4xx_HAL_Driver/Src/stm32f4xx_hal_adc_ex.c ****   }
 963:./Libraries/STM32F4xx_HAL_Driver/Src/stm32f4xx_hal_adc_ex.c ****   
 964:./Libraries/STM32F4xx_HAL_Driver/Src/stm32f4xx_hal_adc_ex.c ****   /* Process unlocked */
 965:./Libraries/STM32F4xx_HAL_Driver/Src/stm32f4xx_hal_adc_ex.c ****   __HAL_UNLOCK(hadc);
 2099              		.loc 1 965 3
 2100 030c 7B68     		ldr	r3, [r7, #4]
 2101 030e 0022     		movs	r2, #0
 2102 0310 83F83C20 		strb	r2, [r3, #60]
 966:./Libraries/STM32F4xx_HAL_Driver/Src/stm32f4xx_hal_adc_ex.c ****   
 967:./Libraries/STM32F4xx_HAL_Driver/Src/stm32f4xx_hal_adc_ex.c ****   /* Return function status */
 968:./Libraries/STM32F4xx_HAL_Driver/Src/stm32f4xx_hal_adc_ex.c ****   return HAL_OK;
 2103              		.loc 1 968 10
 2104 0314 0023     		movs	r3, #0
 2105              	.L79:
 969:./Libraries/STM32F4xx_HAL_Driver/Src/stm32f4xx_hal_adc_ex.c **** }
 2106              		.loc 1 969 1
 2107 0316 1846     		mov	r0, r3
 2108 0318 1437     		adds	r7, r7, #20
 2109              	.LCFI60:
 2110              		.cfi_def_cfa_offset 4
 2111 031a BD46     		mov	sp, r7
 2112              	.LCFI61:
 2113              		.cfi_def_cfa_register 13
ARM GAS  /tmp/cciLPtso.s 			page 55


 2114              		@ sp needed
 2115 031c 5DF8047B 		ldr	r7, [sp], #4
 2116              	.LCFI62:
 2117              		.cfi_restore 7
 2118              		.cfi_def_cfa_offset 0
 2119 0320 7047     		bx	lr
 2120              	.L97:
 2121 0322 00BF     		.align	2
 2122              	.L96:
 2123 0324 01000F00 		.word	983041
 2124 0328 00230140 		.word	1073816320
 2125 032c 00200140 		.word	1073815552
 2126 0330 12000010 		.word	268435474
 2127              		.cfi_endproc
 2128              	.LFE136:
 2130              		.section	.text.HAL_ADCEx_MultiModeConfigChannel,"ax",%progbits
 2131              		.align	1
 2132              		.global	HAL_ADCEx_MultiModeConfigChannel
 2133              		.syntax unified
 2134              		.thumb
 2135              		.thumb_func
 2136              		.fpu fpv4-sp-d16
 2138              	HAL_ADCEx_MultiModeConfigChannel:
 2139              	.LFB137:
 970:./Libraries/STM32F4xx_HAL_Driver/Src/stm32f4xx_hal_adc_ex.c **** 
 971:./Libraries/STM32F4xx_HAL_Driver/Src/stm32f4xx_hal_adc_ex.c **** /**
 972:./Libraries/STM32F4xx_HAL_Driver/Src/stm32f4xx_hal_adc_ex.c ****   * @brief  Configures the ADC multi-mode 
 973:./Libraries/STM32F4xx_HAL_Driver/Src/stm32f4xx_hal_adc_ex.c ****   * @param  hadc       pointer to a ADC_HandleTypeDef structure that contains
 974:./Libraries/STM32F4xx_HAL_Driver/Src/stm32f4xx_hal_adc_ex.c ****   *                     the configuration information for the specified ADC.  
 975:./Libraries/STM32F4xx_HAL_Driver/Src/stm32f4xx_hal_adc_ex.c ****   * @param  multimode  pointer to an ADC_MultiModeTypeDef structure that contains 
 976:./Libraries/STM32F4xx_HAL_Driver/Src/stm32f4xx_hal_adc_ex.c ****   *                     the configuration information for  multimode.
 977:./Libraries/STM32F4xx_HAL_Driver/Src/stm32f4xx_hal_adc_ex.c ****   * @retval HAL status
 978:./Libraries/STM32F4xx_HAL_Driver/Src/stm32f4xx_hal_adc_ex.c ****   */
 979:./Libraries/STM32F4xx_HAL_Driver/Src/stm32f4xx_hal_adc_ex.c **** HAL_StatusTypeDef HAL_ADCEx_MultiModeConfigChannel(ADC_HandleTypeDef* hadc, ADC_MultiModeTypeDef* m
 980:./Libraries/STM32F4xx_HAL_Driver/Src/stm32f4xx_hal_adc_ex.c **** {
 2140              		.loc 1 980 1
 2141              		.cfi_startproc
 2142              		@ args = 0, pretend = 0, frame = 16
 2143              		@ frame_needed = 1, uses_anonymous_args = 0
 2144              		@ link register save eliminated.
 2145 0000 80B4     		push	{r7}
 2146              	.LCFI63:
 2147              		.cfi_def_cfa_offset 4
 2148              		.cfi_offset 7, -4
 2149 0002 85B0     		sub	sp, sp, #20
 2150              	.LCFI64:
 2151              		.cfi_def_cfa_offset 24
 2152 0004 00AF     		add	r7, sp, #0
 2153              	.LCFI65:
 2154              		.cfi_def_cfa_register 7
 2155 0006 7860     		str	r0, [r7, #4]
 2156 0008 3960     		str	r1, [r7]
 981:./Libraries/STM32F4xx_HAL_Driver/Src/stm32f4xx_hal_adc_ex.c **** 
 982:./Libraries/STM32F4xx_HAL_Driver/Src/stm32f4xx_hal_adc_ex.c ****   ADC_Common_TypeDef *tmpADC_Common;
 983:./Libraries/STM32F4xx_HAL_Driver/Src/stm32f4xx_hal_adc_ex.c **** 
 984:./Libraries/STM32F4xx_HAL_Driver/Src/stm32f4xx_hal_adc_ex.c ****   /* Check the parameters */
 985:./Libraries/STM32F4xx_HAL_Driver/Src/stm32f4xx_hal_adc_ex.c ****   assert_param(IS_ADC_MODE(multimode->Mode));
ARM GAS  /tmp/cciLPtso.s 			page 56


 986:./Libraries/STM32F4xx_HAL_Driver/Src/stm32f4xx_hal_adc_ex.c ****   assert_param(IS_ADC_DMA_ACCESS_MODE(multimode->DMAAccessMode));
 987:./Libraries/STM32F4xx_HAL_Driver/Src/stm32f4xx_hal_adc_ex.c ****   assert_param(IS_ADC_SAMPLING_DELAY(multimode->TwoSamplingDelay));
 988:./Libraries/STM32F4xx_HAL_Driver/Src/stm32f4xx_hal_adc_ex.c ****   
 989:./Libraries/STM32F4xx_HAL_Driver/Src/stm32f4xx_hal_adc_ex.c ****   /* Process locked */
 990:./Libraries/STM32F4xx_HAL_Driver/Src/stm32f4xx_hal_adc_ex.c ****   __HAL_LOCK(hadc);
 2157              		.loc 1 990 3
 2158 000a 7B68     		ldr	r3, [r7, #4]
 2159 000c 93F83C30 		ldrb	r3, [r3, #60]	@ zero_extendqisi2
 2160 0010 012B     		cmp	r3, #1
 2161 0012 01D1     		bne	.L99
 2162              		.loc 1 990 3 is_stmt 0 discriminator 1
 2163 0014 0223     		movs	r3, #2
 2164 0016 31E0     		b	.L100
 2165              	.L99:
 2166              		.loc 1 990 3 discriminator 2
 2167 0018 7B68     		ldr	r3, [r7, #4]
 2168 001a 0122     		movs	r2, #1
 2169 001c 83F83C20 		strb	r2, [r3, #60]
 991:./Libraries/STM32F4xx_HAL_Driver/Src/stm32f4xx_hal_adc_ex.c **** 
 992:./Libraries/STM32F4xx_HAL_Driver/Src/stm32f4xx_hal_adc_ex.c ****   /* Pointer to the common control register to which is belonging hadc    */
 993:./Libraries/STM32F4xx_HAL_Driver/Src/stm32f4xx_hal_adc_ex.c ****   /* (Depending on STM32F4 product, there may be up to 3 ADC and 1 common */
 994:./Libraries/STM32F4xx_HAL_Driver/Src/stm32f4xx_hal_adc_ex.c ****   /* control register)                                                    */
 995:./Libraries/STM32F4xx_HAL_Driver/Src/stm32f4xx_hal_adc_ex.c ****   tmpADC_Common = ADC_COMMON_REGISTER(hadc);
 2170              		.loc 1 995 17 is_stmt 1 discriminator 2
 2171 0020 194B     		ldr	r3, .L101
 2172 0022 FB60     		str	r3, [r7, #12]
 996:./Libraries/STM32F4xx_HAL_Driver/Src/stm32f4xx_hal_adc_ex.c **** 
 997:./Libraries/STM32F4xx_HAL_Driver/Src/stm32f4xx_hal_adc_ex.c ****   /* Set ADC mode */
 998:./Libraries/STM32F4xx_HAL_Driver/Src/stm32f4xx_hal_adc_ex.c ****   tmpADC_Common->CCR &= ~(ADC_CCR_MULTI);
 2173              		.loc 1 998 22 discriminator 2
 2174 0024 FB68     		ldr	r3, [r7, #12]
 2175 0026 5B68     		ldr	r3, [r3, #4]
 2176 0028 23F01F02 		bic	r2, r3, #31
 2177 002c FB68     		ldr	r3, [r7, #12]
 2178 002e 5A60     		str	r2, [r3, #4]
 999:./Libraries/STM32F4xx_HAL_Driver/Src/stm32f4xx_hal_adc_ex.c ****   tmpADC_Common->CCR |= multimode->Mode;
 2179              		.loc 1 999 22 discriminator 2
 2180 0030 FB68     		ldr	r3, [r7, #12]
 2181 0032 5A68     		ldr	r2, [r3, #4]
 2182              		.loc 1 999 34 discriminator 2
 2183 0034 3B68     		ldr	r3, [r7]
 2184 0036 1B68     		ldr	r3, [r3]
 2185              		.loc 1 999 22 discriminator 2
 2186 0038 1A43     		orrs	r2, r2, r3
 2187 003a FB68     		ldr	r3, [r7, #12]
 2188 003c 5A60     		str	r2, [r3, #4]
1000:./Libraries/STM32F4xx_HAL_Driver/Src/stm32f4xx_hal_adc_ex.c ****   
1001:./Libraries/STM32F4xx_HAL_Driver/Src/stm32f4xx_hal_adc_ex.c ****   /* Set the ADC DMA access mode */
1002:./Libraries/STM32F4xx_HAL_Driver/Src/stm32f4xx_hal_adc_ex.c ****   tmpADC_Common->CCR &= ~(ADC_CCR_DMA);
 2189              		.loc 1 1002 22 discriminator 2
 2190 003e FB68     		ldr	r3, [r7, #12]
 2191 0040 5B68     		ldr	r3, [r3, #4]
 2192 0042 23F44042 		bic	r2, r3, #49152
 2193 0046 FB68     		ldr	r3, [r7, #12]
 2194 0048 5A60     		str	r2, [r3, #4]
1003:./Libraries/STM32F4xx_HAL_Driver/Src/stm32f4xx_hal_adc_ex.c ****   tmpADC_Common->CCR |= multimode->DMAAccessMode;
 2195              		.loc 1 1003 22 discriminator 2
ARM GAS  /tmp/cciLPtso.s 			page 57


 2196 004a FB68     		ldr	r3, [r7, #12]
 2197 004c 5A68     		ldr	r2, [r3, #4]
 2198              		.loc 1 1003 34 discriminator 2
 2199 004e 3B68     		ldr	r3, [r7]
 2200 0050 5B68     		ldr	r3, [r3, #4]
 2201              		.loc 1 1003 22 discriminator 2
 2202 0052 1A43     		orrs	r2, r2, r3
 2203 0054 FB68     		ldr	r3, [r7, #12]
 2204 0056 5A60     		str	r2, [r3, #4]
1004:./Libraries/STM32F4xx_HAL_Driver/Src/stm32f4xx_hal_adc_ex.c ****   
1005:./Libraries/STM32F4xx_HAL_Driver/Src/stm32f4xx_hal_adc_ex.c ****   /* Set delay between two sampling phases */
1006:./Libraries/STM32F4xx_HAL_Driver/Src/stm32f4xx_hal_adc_ex.c ****   tmpADC_Common->CCR &= ~(ADC_CCR_DELAY);
 2205              		.loc 1 1006 22 discriminator 2
 2206 0058 FB68     		ldr	r3, [r7, #12]
 2207 005a 5B68     		ldr	r3, [r3, #4]
 2208 005c 23F47062 		bic	r2, r3, #3840
 2209 0060 FB68     		ldr	r3, [r7, #12]
 2210 0062 5A60     		str	r2, [r3, #4]
1007:./Libraries/STM32F4xx_HAL_Driver/Src/stm32f4xx_hal_adc_ex.c ****   tmpADC_Common->CCR |= multimode->TwoSamplingDelay;
 2211              		.loc 1 1007 22 discriminator 2
 2212 0064 FB68     		ldr	r3, [r7, #12]
 2213 0066 5A68     		ldr	r2, [r3, #4]
 2214              		.loc 1 1007 34 discriminator 2
 2215 0068 3B68     		ldr	r3, [r7]
 2216 006a 9B68     		ldr	r3, [r3, #8]
 2217              		.loc 1 1007 22 discriminator 2
 2218 006c 1A43     		orrs	r2, r2, r3
 2219 006e FB68     		ldr	r3, [r7, #12]
 2220 0070 5A60     		str	r2, [r3, #4]
1008:./Libraries/STM32F4xx_HAL_Driver/Src/stm32f4xx_hal_adc_ex.c ****   
1009:./Libraries/STM32F4xx_HAL_Driver/Src/stm32f4xx_hal_adc_ex.c ****   /* Process unlocked */
1010:./Libraries/STM32F4xx_HAL_Driver/Src/stm32f4xx_hal_adc_ex.c ****   __HAL_UNLOCK(hadc);
 2221              		.loc 1 1010 3 discriminator 2
 2222 0072 7B68     		ldr	r3, [r7, #4]
 2223 0074 0022     		movs	r2, #0
 2224 0076 83F83C20 		strb	r2, [r3, #60]
1011:./Libraries/STM32F4xx_HAL_Driver/Src/stm32f4xx_hal_adc_ex.c ****   
1012:./Libraries/STM32F4xx_HAL_Driver/Src/stm32f4xx_hal_adc_ex.c ****   /* Return function status */
1013:./Libraries/STM32F4xx_HAL_Driver/Src/stm32f4xx_hal_adc_ex.c ****   return HAL_OK;
 2225              		.loc 1 1013 10 discriminator 2
 2226 007a 0023     		movs	r3, #0
 2227              	.L100:
1014:./Libraries/STM32F4xx_HAL_Driver/Src/stm32f4xx_hal_adc_ex.c **** }
 2228              		.loc 1 1014 1
 2229 007c 1846     		mov	r0, r3
 2230 007e 1437     		adds	r7, r7, #20
 2231              	.LCFI66:
 2232              		.cfi_def_cfa_offset 4
 2233 0080 BD46     		mov	sp, r7
 2234              	.LCFI67:
 2235              		.cfi_def_cfa_register 13
 2236              		@ sp needed
 2237 0082 5DF8047B 		ldr	r7, [sp], #4
 2238              	.LCFI68:
 2239              		.cfi_restore 7
 2240              		.cfi_def_cfa_offset 0
 2241 0086 7047     		bx	lr
ARM GAS  /tmp/cciLPtso.s 			page 58


 2242              	.L102:
 2243              		.align	2
 2244              	.L101:
 2245 0088 00230140 		.word	1073816320
 2246              		.cfi_endproc
 2247              	.LFE137:
 2249              		.section	.text.ADC_MultiModeDMAConvCplt,"ax",%progbits
 2250              		.align	1
 2251              		.syntax unified
 2252              		.thumb
 2253              		.thumb_func
 2254              		.fpu fpv4-sp-d16
 2256              	ADC_MultiModeDMAConvCplt:
 2257              	.LFB138:
1015:./Libraries/STM32F4xx_HAL_Driver/Src/stm32f4xx_hal_adc_ex.c **** 
1016:./Libraries/STM32F4xx_HAL_Driver/Src/stm32f4xx_hal_adc_ex.c **** /**
1017:./Libraries/STM32F4xx_HAL_Driver/Src/stm32f4xx_hal_adc_ex.c ****   * @}
1018:./Libraries/STM32F4xx_HAL_Driver/Src/stm32f4xx_hal_adc_ex.c ****   */
1019:./Libraries/STM32F4xx_HAL_Driver/Src/stm32f4xx_hal_adc_ex.c **** 
1020:./Libraries/STM32F4xx_HAL_Driver/Src/stm32f4xx_hal_adc_ex.c **** /**
1021:./Libraries/STM32F4xx_HAL_Driver/Src/stm32f4xx_hal_adc_ex.c ****   * @brief  DMA transfer complete callback. 
1022:./Libraries/STM32F4xx_HAL_Driver/Src/stm32f4xx_hal_adc_ex.c ****   * @param  hdma pointer to a DMA_HandleTypeDef structure that contains
1023:./Libraries/STM32F4xx_HAL_Driver/Src/stm32f4xx_hal_adc_ex.c ****   *                the configuration information for the specified DMA module.
1024:./Libraries/STM32F4xx_HAL_Driver/Src/stm32f4xx_hal_adc_ex.c ****   * @retval None
1025:./Libraries/STM32F4xx_HAL_Driver/Src/stm32f4xx_hal_adc_ex.c ****   */
1026:./Libraries/STM32F4xx_HAL_Driver/Src/stm32f4xx_hal_adc_ex.c **** static void ADC_MultiModeDMAConvCplt(DMA_HandleTypeDef *hdma)   
1027:./Libraries/STM32F4xx_HAL_Driver/Src/stm32f4xx_hal_adc_ex.c **** {
 2258              		.loc 1 1027 1
 2259              		.cfi_startproc
 2260              		@ args = 0, pretend = 0, frame = 16
 2261              		@ frame_needed = 1, uses_anonymous_args = 0
 2262 0000 80B5     		push	{r7, lr}
 2263              	.LCFI69:
 2264              		.cfi_def_cfa_offset 8
 2265              		.cfi_offset 7, -8
 2266              		.cfi_offset 14, -4
 2267 0002 84B0     		sub	sp, sp, #16
 2268              	.LCFI70:
 2269              		.cfi_def_cfa_offset 24
 2270 0004 00AF     		add	r7, sp, #0
 2271              	.LCFI71:
 2272              		.cfi_def_cfa_register 7
 2273 0006 7860     		str	r0, [r7, #4]
1028:./Libraries/STM32F4xx_HAL_Driver/Src/stm32f4xx_hal_adc_ex.c ****   /* Retrieve ADC handle corresponding to current DMA handle */
1029:./Libraries/STM32F4xx_HAL_Driver/Src/stm32f4xx_hal_adc_ex.c ****   ADC_HandleTypeDef* hadc = ( ADC_HandleTypeDef* )((DMA_HandleTypeDef* )hdma)->Parent;
 2274              		.loc 1 1029 22
 2275 0008 7B68     		ldr	r3, [r7, #4]
 2276 000a 9B6B     		ldr	r3, [r3, #56]
 2277 000c FB60     		str	r3, [r7, #12]
1030:./Libraries/STM32F4xx_HAL_Driver/Src/stm32f4xx_hal_adc_ex.c ****   
1031:./Libraries/STM32F4xx_HAL_Driver/Src/stm32f4xx_hal_adc_ex.c ****   /* Update state machine on conversion status if not in error state */
1032:./Libraries/STM32F4xx_HAL_Driver/Src/stm32f4xx_hal_adc_ex.c ****   if (HAL_IS_BIT_CLR(hadc->State, HAL_ADC_STATE_ERROR_INTERNAL | HAL_ADC_STATE_ERROR_DMA))
 2278              		.loc 1 1032 7
 2279 000e FB68     		ldr	r3, [r7, #12]
 2280 0010 1B6C     		ldr	r3, [r3, #64]
 2281 0012 03F05003 		and	r3, r3, #80
 2282              		.loc 1 1032 6
ARM GAS  /tmp/cciLPtso.s 			page 59


 2283 0016 002B     		cmp	r3, #0
 2284 0018 3CD1     		bne	.L104
1033:./Libraries/STM32F4xx_HAL_Driver/Src/stm32f4xx_hal_adc_ex.c ****   {
1034:./Libraries/STM32F4xx_HAL_Driver/Src/stm32f4xx_hal_adc_ex.c ****     /* Update ADC state machine */
1035:./Libraries/STM32F4xx_HAL_Driver/Src/stm32f4xx_hal_adc_ex.c ****     SET_BIT(hadc->State, HAL_ADC_STATE_REG_EOC);
 2285              		.loc 1 1035 5
 2286 001a FB68     		ldr	r3, [r7, #12]
 2287 001c 1B6C     		ldr	r3, [r3, #64]
 2288 001e 43F40072 		orr	r2, r3, #512
 2289 0022 FB68     		ldr	r3, [r7, #12]
 2290 0024 1A64     		str	r2, [r3, #64]
1036:./Libraries/STM32F4xx_HAL_Driver/Src/stm32f4xx_hal_adc_ex.c ****     
1037:./Libraries/STM32F4xx_HAL_Driver/Src/stm32f4xx_hal_adc_ex.c ****     /* Determine whether any further conversion upcoming on group regular   */
1038:./Libraries/STM32F4xx_HAL_Driver/Src/stm32f4xx_hal_adc_ex.c ****     /* by external trigger, continuous mode or scan sequence on going.      */
1039:./Libraries/STM32F4xx_HAL_Driver/Src/stm32f4xx_hal_adc_ex.c ****     /* Note: On STM32F4, there is no independent flag of end of sequence.   */
1040:./Libraries/STM32F4xx_HAL_Driver/Src/stm32f4xx_hal_adc_ex.c ****     /*       The test of scan sequence on going is done either with scan    */
1041:./Libraries/STM32F4xx_HAL_Driver/Src/stm32f4xx_hal_adc_ex.c ****     /*       sequence disabled or with end of conversion flag set to        */
1042:./Libraries/STM32F4xx_HAL_Driver/Src/stm32f4xx_hal_adc_ex.c ****     /*       of end of sequence.                                            */
1043:./Libraries/STM32F4xx_HAL_Driver/Src/stm32f4xx_hal_adc_ex.c ****     if(ADC_IS_SOFTWARE_START_REGULAR(hadc)                   &&
 2291              		.loc 1 1043 8
 2292 0026 FB68     		ldr	r3, [r7, #12]
 2293 0028 1B68     		ldr	r3, [r3]
 2294 002a 9B68     		ldr	r3, [r3, #8]
 2295 002c 03F04053 		and	r3, r3, #805306368
 2296              		.loc 1 1043 7
 2297 0030 002B     		cmp	r3, #0
 2298 0032 2BD1     		bne	.L105
1044:./Libraries/STM32F4xx_HAL_Driver/Src/stm32f4xx_hal_adc_ex.c ****        (hadc->Init.ContinuousConvMode == DISABLE)            &&
 2299              		.loc 1 1044 19 discriminator 1
 2300 0034 FB68     		ldr	r3, [r7, #12]
 2301 0036 9B69     		ldr	r3, [r3, #24]
1043:./Libraries/STM32F4xx_HAL_Driver/Src/stm32f4xx_hal_adc_ex.c ****        (hadc->Init.ContinuousConvMode == DISABLE)            &&
 2302              		.loc 1 1043 62 discriminator 1
 2303 0038 002B     		cmp	r3, #0
 2304 003a 27D1     		bne	.L105
1045:./Libraries/STM32F4xx_HAL_Driver/Src/stm32f4xx_hal_adc_ex.c ****        (HAL_IS_BIT_CLR(hadc->Instance->SQR1, ADC_SQR1_L) || 
 2305              		.loc 1 1045 9
 2306 003c FB68     		ldr	r3, [r7, #12]
 2307 003e 1B68     		ldr	r3, [r3]
 2308 0040 DB6A     		ldr	r3, [r3, #44]
 2309 0042 03F47003 		and	r3, r3, #15728640
1044:./Libraries/STM32F4xx_HAL_Driver/Src/stm32f4xx_hal_adc_ex.c ****        (hadc->Init.ContinuousConvMode == DISABLE)            &&
 2310              		.loc 1 1044 62
 2311 0046 002B     		cmp	r3, #0
 2312 0048 06D0     		beq	.L106
1046:./Libraries/STM32F4xx_HAL_Driver/Src/stm32f4xx_hal_adc_ex.c ****         HAL_IS_BIT_CLR(hadc->Instance->CR2, ADC_CR2_EOCS)  )   )
 2313              		.loc 1 1046 9
 2314 004a FB68     		ldr	r3, [r7, #12]
 2315 004c 1B68     		ldr	r3, [r3]
 2316 004e 9B68     		ldr	r3, [r3, #8]
 2317 0050 03F48063 		and	r3, r3, #1024
1045:./Libraries/STM32F4xx_HAL_Driver/Src/stm32f4xx_hal_adc_ex.c ****        (HAL_IS_BIT_CLR(hadc->Instance->SQR1, ADC_SQR1_L) || 
 2318              		.loc 1 1045 58
 2319 0054 002B     		cmp	r3, #0
 2320 0056 19D1     		bne	.L105
 2321              	.L106:
1047:./Libraries/STM32F4xx_HAL_Driver/Src/stm32f4xx_hal_adc_ex.c ****     {
ARM GAS  /tmp/cciLPtso.s 			page 60


1048:./Libraries/STM32F4xx_HAL_Driver/Src/stm32f4xx_hal_adc_ex.c ****       /* Disable ADC end of single conversion interrupt on group regular */
1049:./Libraries/STM32F4xx_HAL_Driver/Src/stm32f4xx_hal_adc_ex.c ****       /* Note: Overrun interrupt was enabled with EOC interrupt in          */
1050:./Libraries/STM32F4xx_HAL_Driver/Src/stm32f4xx_hal_adc_ex.c ****       /* HAL_ADC_Start_IT(), but is not disabled here because can be used   */
1051:./Libraries/STM32F4xx_HAL_Driver/Src/stm32f4xx_hal_adc_ex.c ****       /* by overrun IRQ process below.                                      */
1052:./Libraries/STM32F4xx_HAL_Driver/Src/stm32f4xx_hal_adc_ex.c ****       __HAL_ADC_DISABLE_IT(hadc, ADC_IT_EOC);
 2322              		.loc 1 1052 7
 2323 0058 FB68     		ldr	r3, [r7, #12]
 2324 005a 1B68     		ldr	r3, [r3]
 2325 005c 5A68     		ldr	r2, [r3, #4]
 2326 005e FB68     		ldr	r3, [r7, #12]
 2327 0060 1B68     		ldr	r3, [r3]
 2328 0062 22F02002 		bic	r2, r2, #32
 2329 0066 5A60     		str	r2, [r3, #4]
1053:./Libraries/STM32F4xx_HAL_Driver/Src/stm32f4xx_hal_adc_ex.c ****       
1054:./Libraries/STM32F4xx_HAL_Driver/Src/stm32f4xx_hal_adc_ex.c ****       /* Set ADC state */
1055:./Libraries/STM32F4xx_HAL_Driver/Src/stm32f4xx_hal_adc_ex.c ****       CLEAR_BIT(hadc->State, HAL_ADC_STATE_REG_BUSY);   
 2330              		.loc 1 1055 7
 2331 0068 FB68     		ldr	r3, [r7, #12]
 2332 006a 1B6C     		ldr	r3, [r3, #64]
 2333 006c 23F48072 		bic	r2, r3, #256
 2334 0070 FB68     		ldr	r3, [r7, #12]
 2335 0072 1A64     		str	r2, [r3, #64]
1056:./Libraries/STM32F4xx_HAL_Driver/Src/stm32f4xx_hal_adc_ex.c ****       
1057:./Libraries/STM32F4xx_HAL_Driver/Src/stm32f4xx_hal_adc_ex.c ****       if (HAL_IS_BIT_CLR(hadc->State, HAL_ADC_STATE_INJ_BUSY))
 2336              		.loc 1 1057 11
 2337 0074 FB68     		ldr	r3, [r7, #12]
 2338 0076 1B6C     		ldr	r3, [r3, #64]
 2339 0078 03F48053 		and	r3, r3, #4096
 2340              		.loc 1 1057 10
 2341 007c 002B     		cmp	r3, #0
 2342 007e 05D1     		bne	.L105
1058:./Libraries/STM32F4xx_HAL_Driver/Src/stm32f4xx_hal_adc_ex.c ****       {
1059:./Libraries/STM32F4xx_HAL_Driver/Src/stm32f4xx_hal_adc_ex.c ****         SET_BIT(hadc->State, HAL_ADC_STATE_READY);
 2343              		.loc 1 1059 9
 2344 0080 FB68     		ldr	r3, [r7, #12]
 2345 0082 1B6C     		ldr	r3, [r3, #64]
 2346 0084 43F00102 		orr	r2, r3, #1
 2347 0088 FB68     		ldr	r3, [r7, #12]
 2348 008a 1A64     		str	r2, [r3, #64]
 2349              	.L105:
1060:./Libraries/STM32F4xx_HAL_Driver/Src/stm32f4xx_hal_adc_ex.c ****       }
1061:./Libraries/STM32F4xx_HAL_Driver/Src/stm32f4xx_hal_adc_ex.c ****     }
1062:./Libraries/STM32F4xx_HAL_Driver/Src/stm32f4xx_hal_adc_ex.c ****     
1063:./Libraries/STM32F4xx_HAL_Driver/Src/stm32f4xx_hal_adc_ex.c ****     /* Conversion complete callback */
1064:./Libraries/STM32F4xx_HAL_Driver/Src/stm32f4xx_hal_adc_ex.c ****     HAL_ADC_ConvCpltCallback(hadc);
 2350              		.loc 1 1064 5
 2351 008c F868     		ldr	r0, [r7, #12]
 2352 008e FFF7FEFF 		bl	HAL_ADC_ConvCpltCallback
1065:./Libraries/STM32F4xx_HAL_Driver/Src/stm32f4xx_hal_adc_ex.c ****   }
1066:./Libraries/STM32F4xx_HAL_Driver/Src/stm32f4xx_hal_adc_ex.c ****   else
1067:./Libraries/STM32F4xx_HAL_Driver/Src/stm32f4xx_hal_adc_ex.c ****   {
1068:./Libraries/STM32F4xx_HAL_Driver/Src/stm32f4xx_hal_adc_ex.c ****     /* Call DMA error callback */
1069:./Libraries/STM32F4xx_HAL_Driver/Src/stm32f4xx_hal_adc_ex.c ****     hadc->DMA_Handle->XferErrorCallback(hdma);
1070:./Libraries/STM32F4xx_HAL_Driver/Src/stm32f4xx_hal_adc_ex.c ****   }
1071:./Libraries/STM32F4xx_HAL_Driver/Src/stm32f4xx_hal_adc_ex.c **** }
 2353              		.loc 1 1071 1
 2354 0092 04E0     		b	.L108
ARM GAS  /tmp/cciLPtso.s 			page 61


 2355              	.L104:
1069:./Libraries/STM32F4xx_HAL_Driver/Src/stm32f4xx_hal_adc_ex.c ****   }
 2356              		.loc 1 1069 9
 2357 0094 FB68     		ldr	r3, [r7, #12]
 2358 0096 9B6B     		ldr	r3, [r3, #56]
1069:./Libraries/STM32F4xx_HAL_Driver/Src/stm32f4xx_hal_adc_ex.c ****   }
 2359              		.loc 1 1069 21
 2360 0098 DB6C     		ldr	r3, [r3, #76]
1069:./Libraries/STM32F4xx_HAL_Driver/Src/stm32f4xx_hal_adc_ex.c ****   }
 2361              		.loc 1 1069 5
 2362 009a 7868     		ldr	r0, [r7, #4]
 2363 009c 9847     		blx	r3
 2364              	.LVL0:
 2365              	.L108:
 2366              		.loc 1 1071 1
 2367 009e 00BF     		nop
 2368 00a0 1037     		adds	r7, r7, #16
 2369              	.LCFI72:
 2370              		.cfi_def_cfa_offset 8
 2371 00a2 BD46     		mov	sp, r7
 2372              	.LCFI73:
 2373              		.cfi_def_cfa_register 13
 2374              		@ sp needed
 2375 00a4 80BD     		pop	{r7, pc}
 2376              		.cfi_endproc
 2377              	.LFE138:
 2379              		.section	.text.ADC_MultiModeDMAHalfConvCplt,"ax",%progbits
 2380              		.align	1
 2381              		.syntax unified
 2382              		.thumb
 2383              		.thumb_func
 2384              		.fpu fpv4-sp-d16
 2386              	ADC_MultiModeDMAHalfConvCplt:
 2387              	.LFB139:
1072:./Libraries/STM32F4xx_HAL_Driver/Src/stm32f4xx_hal_adc_ex.c **** 
1073:./Libraries/STM32F4xx_HAL_Driver/Src/stm32f4xx_hal_adc_ex.c **** /**
1074:./Libraries/STM32F4xx_HAL_Driver/Src/stm32f4xx_hal_adc_ex.c ****   * @brief  DMA half transfer complete callback. 
1075:./Libraries/STM32F4xx_HAL_Driver/Src/stm32f4xx_hal_adc_ex.c ****   * @param  hdma pointer to a DMA_HandleTypeDef structure that contains
1076:./Libraries/STM32F4xx_HAL_Driver/Src/stm32f4xx_hal_adc_ex.c ****   *                the configuration information for the specified DMA module.
1077:./Libraries/STM32F4xx_HAL_Driver/Src/stm32f4xx_hal_adc_ex.c ****   * @retval None
1078:./Libraries/STM32F4xx_HAL_Driver/Src/stm32f4xx_hal_adc_ex.c ****   */
1079:./Libraries/STM32F4xx_HAL_Driver/Src/stm32f4xx_hal_adc_ex.c **** static void ADC_MultiModeDMAHalfConvCplt(DMA_HandleTypeDef *hdma)   
1080:./Libraries/STM32F4xx_HAL_Driver/Src/stm32f4xx_hal_adc_ex.c **** {
 2388              		.loc 1 1080 1
 2389              		.cfi_startproc
 2390              		@ args = 0, pretend = 0, frame = 16
 2391              		@ frame_needed = 1, uses_anonymous_args = 0
 2392 0000 80B5     		push	{r7, lr}
 2393              	.LCFI74:
 2394              		.cfi_def_cfa_offset 8
 2395              		.cfi_offset 7, -8
 2396              		.cfi_offset 14, -4
 2397 0002 84B0     		sub	sp, sp, #16
 2398              	.LCFI75:
 2399              		.cfi_def_cfa_offset 24
 2400 0004 00AF     		add	r7, sp, #0
 2401              	.LCFI76:
ARM GAS  /tmp/cciLPtso.s 			page 62


 2402              		.cfi_def_cfa_register 7
 2403 0006 7860     		str	r0, [r7, #4]
1081:./Libraries/STM32F4xx_HAL_Driver/Src/stm32f4xx_hal_adc_ex.c ****     ADC_HandleTypeDef* hadc = ( ADC_HandleTypeDef* )((DMA_HandleTypeDef* )hdma)->Parent;
 2404              		.loc 1 1081 24
 2405 0008 7B68     		ldr	r3, [r7, #4]
 2406 000a 9B6B     		ldr	r3, [r3, #56]
 2407 000c FB60     		str	r3, [r7, #12]
1082:./Libraries/STM32F4xx_HAL_Driver/Src/stm32f4xx_hal_adc_ex.c ****     /* Conversion complete callback */
1083:./Libraries/STM32F4xx_HAL_Driver/Src/stm32f4xx_hal_adc_ex.c ****     HAL_ADC_ConvHalfCpltCallback(hadc); 
 2408              		.loc 1 1083 5
 2409 000e F868     		ldr	r0, [r7, #12]
 2410 0010 FFF7FEFF 		bl	HAL_ADC_ConvHalfCpltCallback
1084:./Libraries/STM32F4xx_HAL_Driver/Src/stm32f4xx_hal_adc_ex.c **** }
 2411              		.loc 1 1084 1
 2412 0014 00BF     		nop
 2413 0016 1037     		adds	r7, r7, #16
 2414              	.LCFI77:
 2415              		.cfi_def_cfa_offset 8
 2416 0018 BD46     		mov	sp, r7
 2417              	.LCFI78:
 2418              		.cfi_def_cfa_register 13
 2419              		@ sp needed
 2420 001a 80BD     		pop	{r7, pc}
 2421              		.cfi_endproc
 2422              	.LFE139:
 2424              		.section	.text.ADC_MultiModeDMAError,"ax",%progbits
 2425              		.align	1
 2426              		.syntax unified
 2427              		.thumb
 2428              		.thumb_func
 2429              		.fpu fpv4-sp-d16
 2431              	ADC_MultiModeDMAError:
 2432              	.LFB140:
1085:./Libraries/STM32F4xx_HAL_Driver/Src/stm32f4xx_hal_adc_ex.c **** 
1086:./Libraries/STM32F4xx_HAL_Driver/Src/stm32f4xx_hal_adc_ex.c **** /**
1087:./Libraries/STM32F4xx_HAL_Driver/Src/stm32f4xx_hal_adc_ex.c ****   * @brief  DMA error callback 
1088:./Libraries/STM32F4xx_HAL_Driver/Src/stm32f4xx_hal_adc_ex.c ****   * @param  hdma pointer to a DMA_HandleTypeDef structure that contains
1089:./Libraries/STM32F4xx_HAL_Driver/Src/stm32f4xx_hal_adc_ex.c ****   *                the configuration information for the specified DMA module.
1090:./Libraries/STM32F4xx_HAL_Driver/Src/stm32f4xx_hal_adc_ex.c ****   * @retval None
1091:./Libraries/STM32F4xx_HAL_Driver/Src/stm32f4xx_hal_adc_ex.c ****   */
1092:./Libraries/STM32F4xx_HAL_Driver/Src/stm32f4xx_hal_adc_ex.c **** static void ADC_MultiModeDMAError(DMA_HandleTypeDef *hdma)   
1093:./Libraries/STM32F4xx_HAL_Driver/Src/stm32f4xx_hal_adc_ex.c **** {
 2433              		.loc 1 1093 1
 2434              		.cfi_startproc
 2435              		@ args = 0, pretend = 0, frame = 16
 2436              		@ frame_needed = 1, uses_anonymous_args = 0
 2437 0000 80B5     		push	{r7, lr}
 2438              	.LCFI79:
 2439              		.cfi_def_cfa_offset 8
 2440              		.cfi_offset 7, -8
 2441              		.cfi_offset 14, -4
 2442 0002 84B0     		sub	sp, sp, #16
 2443              	.LCFI80:
 2444              		.cfi_def_cfa_offset 24
 2445 0004 00AF     		add	r7, sp, #0
 2446              	.LCFI81:
 2447              		.cfi_def_cfa_register 7
ARM GAS  /tmp/cciLPtso.s 			page 63


 2448 0006 7860     		str	r0, [r7, #4]
1094:./Libraries/STM32F4xx_HAL_Driver/Src/stm32f4xx_hal_adc_ex.c ****     ADC_HandleTypeDef* hadc = ( ADC_HandleTypeDef* )((DMA_HandleTypeDef* )hdma)->Parent;
 2449              		.loc 1 1094 24
 2450 0008 7B68     		ldr	r3, [r7, #4]
 2451 000a 9B6B     		ldr	r3, [r3, #56]
 2452 000c FB60     		str	r3, [r7, #12]
1095:./Libraries/STM32F4xx_HAL_Driver/Src/stm32f4xx_hal_adc_ex.c ****     hadc->State= HAL_ADC_STATE_ERROR_DMA;
 2453              		.loc 1 1095 16
 2454 000e FB68     		ldr	r3, [r7, #12]
 2455 0010 4022     		movs	r2, #64
 2456 0012 1A64     		str	r2, [r3, #64]
1096:./Libraries/STM32F4xx_HAL_Driver/Src/stm32f4xx_hal_adc_ex.c ****     /* Set ADC error code to DMA error */
1097:./Libraries/STM32F4xx_HAL_Driver/Src/stm32f4xx_hal_adc_ex.c ****     hadc->ErrorCode |= HAL_ADC_ERROR_DMA;
 2457              		.loc 1 1097 21
 2458 0014 FB68     		ldr	r3, [r7, #12]
 2459 0016 5B6C     		ldr	r3, [r3, #68]
 2460 0018 43F00402 		orr	r2, r3, #4
 2461 001c FB68     		ldr	r3, [r7, #12]
 2462 001e 5A64     		str	r2, [r3, #68]
1098:./Libraries/STM32F4xx_HAL_Driver/Src/stm32f4xx_hal_adc_ex.c ****     HAL_ADC_ErrorCallback(hadc); 
 2463              		.loc 1 1098 5
 2464 0020 F868     		ldr	r0, [r7, #12]
 2465 0022 FFF7FEFF 		bl	HAL_ADC_ErrorCallback
1099:./Libraries/STM32F4xx_HAL_Driver/Src/stm32f4xx_hal_adc_ex.c **** }
 2466              		.loc 1 1099 1
 2467 0026 00BF     		nop
 2468 0028 1037     		adds	r7, r7, #16
 2469              	.LCFI82:
 2470              		.cfi_def_cfa_offset 8
 2471 002a BD46     		mov	sp, r7
 2472              	.LCFI83:
 2473              		.cfi_def_cfa_register 13
 2474              		@ sp needed
 2475 002c 80BD     		pop	{r7, pc}
 2476              		.cfi_endproc
 2477              	.LFE140:
 2479              		.text
 2480              	.Letext0:
 2481              		.file 2 "/home/hao/Documents/gcc-arm-none-eabi/arm-none-eabi/include/machine/_default_types.h"
 2482              		.file 3 "/home/hao/Documents/gcc-arm-none-eabi/arm-none-eabi/include/sys/_stdint.h"
 2483              		.file 4 "./Libraries/CMSIS/Device/ST/STM32F4xx/Include/stm32f429xx.h"
 2484              		.file 5 "./Libraries/CMSIS/Device/ST/STM32F4xx/Include/stm32f4xx.h"
 2485              		.file 6 "./Libraries/STM32F4xx_HAL_Driver/Inc/stm32f4xx_hal_def.h"
 2486              		.file 7 "./Libraries/STM32F4xx_HAL_Driver/Inc/stm32f4xx_hal_dma.h"
 2487              		.file 8 "./Libraries/STM32F4xx_HAL_Driver/Inc/stm32f4xx_hal_adc.h"
 2488              		.file 9 "./Libraries/STM32F4xx_HAL_Driver/Inc/stm32f4xx_hal_adc_ex.h"
 2489              		.file 10 "./Libraries/CMSIS/Device/ST/STM32F4xx/Include/system_stm32f4xx.h"
ARM GAS  /tmp/cciLPtso.s 			page 64

