ARM GAS  /tmp/cchxdGeL.s 			page 1


   1              		.cpu cortex-m4
   2              		.eabi_attribute 27, 1
   3              		.eabi_attribute 28, 1
   4              		.eabi_attribute 20, 1
   5              		.eabi_attribute 21, 1
   6              		.eabi_attribute 23, 3
   7              		.eabi_attribute 24, 1
   8              		.eabi_attribute 25, 1
   9              		.eabi_attribute 26, 1
  10              		.eabi_attribute 30, 6
  11              		.eabi_attribute 34, 1
  12              		.eabi_attribute 18, 4
  13              		.file	"stm32f4xx_hal_ltdc.c"
  14              		.text
  15              	.Ltext0:
  16              		.cfi_sections	.debug_frame
  17              		.section	.text.HAL_LTDC_Init,"ax",%progbits
  18              		.align	1
  19              		.global	HAL_LTDC_Init
  20              		.arch armv7e-m
  21              		.syntax unified
  22              		.thumb
  23              		.thumb_func
  24              		.fpu fpv4-sp-d16
  26              	HAL_LTDC_Init:
  27              	.LFB126:
  28              		.file 1 "./Libraries/STM32F4xx_HAL_Driver/Src/stm32f4xx_hal_ltdc.c"
   1:./Libraries/STM32F4xx_HAL_Driver/Src/stm32f4xx_hal_ltdc.c **** /**
   2:./Libraries/STM32F4xx_HAL_Driver/Src/stm32f4xx_hal_ltdc.c ****   ******************************************************************************
   3:./Libraries/STM32F4xx_HAL_Driver/Src/stm32f4xx_hal_ltdc.c ****   * @file    stm32f4xx_hal_ltdc.c
   4:./Libraries/STM32F4xx_HAL_Driver/Src/stm32f4xx_hal_ltdc.c ****   * @author  MCD Application Team
   5:./Libraries/STM32F4xx_HAL_Driver/Src/stm32f4xx_hal_ltdc.c ****   * @brief   LTDC HAL module driver.
   6:./Libraries/STM32F4xx_HAL_Driver/Src/stm32f4xx_hal_ltdc.c ****   *          This file provides firmware functions to manage the following 
   7:./Libraries/STM32F4xx_HAL_Driver/Src/stm32f4xx_hal_ltdc.c ****   *          functionalities of the LTDC peripheral:
   8:./Libraries/STM32F4xx_HAL_Driver/Src/stm32f4xx_hal_ltdc.c ****   *           + Initialization and de-initialization functions
   9:./Libraries/STM32F4xx_HAL_Driver/Src/stm32f4xx_hal_ltdc.c ****   *           + IO operation functions
  10:./Libraries/STM32F4xx_HAL_Driver/Src/stm32f4xx_hal_ltdc.c ****   *           + Peripheral Control functions  
  11:./Libraries/STM32F4xx_HAL_Driver/Src/stm32f4xx_hal_ltdc.c ****   *           + Peripheral State and Errors functions
  12:./Libraries/STM32F4xx_HAL_Driver/Src/stm32f4xx_hal_ltdc.c ****   *           
  13:./Libraries/STM32F4xx_HAL_Driver/Src/stm32f4xx_hal_ltdc.c ****   @verbatim      
  14:./Libraries/STM32F4xx_HAL_Driver/Src/stm32f4xx_hal_ltdc.c ****   ==============================================================================
  15:./Libraries/STM32F4xx_HAL_Driver/Src/stm32f4xx_hal_ltdc.c ****                         ##### How to use this driver #####
  16:./Libraries/STM32F4xx_HAL_Driver/Src/stm32f4xx_hal_ltdc.c ****   ==============================================================================
  17:./Libraries/STM32F4xx_HAL_Driver/Src/stm32f4xx_hal_ltdc.c ****     [..]
  18:./Libraries/STM32F4xx_HAL_Driver/Src/stm32f4xx_hal_ltdc.c ****      (#) Program the required configuration through the following parameters:   
  19:./Libraries/STM32F4xx_HAL_Driver/Src/stm32f4xx_hal_ltdc.c ****          the LTDC timing, the horizontal and vertical polarity, 
  20:./Libraries/STM32F4xx_HAL_Driver/Src/stm32f4xx_hal_ltdc.c ****          the pixel clock polarity, Data Enable polarity and the LTDC background color value 
  21:./Libraries/STM32F4xx_HAL_Driver/Src/stm32f4xx_hal_ltdc.c ****          using HAL_LTDC_Init() function
  22:./Libraries/STM32F4xx_HAL_Driver/Src/stm32f4xx_hal_ltdc.c **** 
  23:./Libraries/STM32F4xx_HAL_Driver/Src/stm32f4xx_hal_ltdc.c ****      (#) Program the required configuration through the following parameters:   
  24:./Libraries/STM32F4xx_HAL_Driver/Src/stm32f4xx_hal_ltdc.c ****          the pixel format, the blending factors, input alpha value, the window size 
  25:./Libraries/STM32F4xx_HAL_Driver/Src/stm32f4xx_hal_ltdc.c ****          and the image size using HAL_LTDC_ConfigLayer() function for foreground
  26:./Libraries/STM32F4xx_HAL_Driver/Src/stm32f4xx_hal_ltdc.c ****          or/and background layer.     
  27:./Libraries/STM32F4xx_HAL_Driver/Src/stm32f4xx_hal_ltdc.c ****   
  28:./Libraries/STM32F4xx_HAL_Driver/Src/stm32f4xx_hal_ltdc.c ****      (#) Optionally, configure and enable the CLUT using HAL_LTDC_ConfigCLUT() and 
  29:./Libraries/STM32F4xx_HAL_Driver/Src/stm32f4xx_hal_ltdc.c ****          HAL_LTDC_EnableCLUT functions.
  30:./Libraries/STM32F4xx_HAL_Driver/Src/stm32f4xx_hal_ltdc.c ****        
ARM GAS  /tmp/cchxdGeL.s 			page 2


  31:./Libraries/STM32F4xx_HAL_Driver/Src/stm32f4xx_hal_ltdc.c ****      (#) Optionally, enable the Dither using HAL_LTDC_EnableDither().       
  32:./Libraries/STM32F4xx_HAL_Driver/Src/stm32f4xx_hal_ltdc.c **** 
  33:./Libraries/STM32F4xx_HAL_Driver/Src/stm32f4xx_hal_ltdc.c ****      (#) Optionally, configure and enable the Color keying using HAL_LTDC_ConfigColorKeying()
  34:./Libraries/STM32F4xx_HAL_Driver/Src/stm32f4xx_hal_ltdc.c ****          and HAL_LTDC_EnableColorKeying functions.
  35:./Libraries/STM32F4xx_HAL_Driver/Src/stm32f4xx_hal_ltdc.c **** 
  36:./Libraries/STM32F4xx_HAL_Driver/Src/stm32f4xx_hal_ltdc.c ****      (#) Optionally, configure LineInterrupt using HAL_LTDC_ProgramLineEvent()
  37:./Libraries/STM32F4xx_HAL_Driver/Src/stm32f4xx_hal_ltdc.c ****          function
  38:./Libraries/STM32F4xx_HAL_Driver/Src/stm32f4xx_hal_ltdc.c **** 
  39:./Libraries/STM32F4xx_HAL_Driver/Src/stm32f4xx_hal_ltdc.c ****      (#) If needed, reconfigure and change the pixel format value, the alpha value
  40:./Libraries/STM32F4xx_HAL_Driver/Src/stm32f4xx_hal_ltdc.c ****          value, the window size, the window position and the layer start address 
  41:./Libraries/STM32F4xx_HAL_Driver/Src/stm32f4xx_hal_ltdc.c ****          for foreground or/and background layer using respectively the following 
  42:./Libraries/STM32F4xx_HAL_Driver/Src/stm32f4xx_hal_ltdc.c ****          functions: HAL_LTDC_SetPixelFormat(), HAL_LTDC_SetAlpha(), HAL_LTDC_SetWindowSize(),
  43:./Libraries/STM32F4xx_HAL_Driver/Src/stm32f4xx_hal_ltdc.c ****          HAL_LTDC_SetWindowPosition(), HAL_LTDC_SetAddress.
  44:./Libraries/STM32F4xx_HAL_Driver/Src/stm32f4xx_hal_ltdc.c **** 
  45:./Libraries/STM32F4xx_HAL_Driver/Src/stm32f4xx_hal_ltdc.c ****      (#) Variant functions with “_NoReload” post fix allows to set the LTDC configuration/settings 
  46:./Libraries/STM32F4xx_HAL_Driver/Src/stm32f4xx_hal_ltdc.c ****          This is useful in case when the program requires to modify serval LTDC settings (on one or
  47:./Libraries/STM32F4xx_HAL_Driver/Src/stm32f4xx_hal_ltdc.c ****          then applying(reload) these settings in one shot by calling the function “HAL_LTDC_Reload”
  48:./Libraries/STM32F4xx_HAL_Driver/Src/stm32f4xx_hal_ltdc.c **** 
  49:./Libraries/STM32F4xx_HAL_Driver/Src/stm32f4xx_hal_ltdc.c ****          After calling the “_NoReload” functions to set different color/format/layer settings, 
  50:./Libraries/STM32F4xx_HAL_Driver/Src/stm32f4xx_hal_ltdc.c ****          the program can call the function  “HAL_LTDC_Reload” To apply(Reload) these settings. 
  51:./Libraries/STM32F4xx_HAL_Driver/Src/stm32f4xx_hal_ltdc.c ****          Function “HAL_LTDC_Reload” can be called with the parameter  “ReloadType” 
  52:./Libraries/STM32F4xx_HAL_Driver/Src/stm32f4xx_hal_ltdc.c ****          set to LTDC_RELOAD_IMMEDIATE if an immediate reload is required.
  53:./Libraries/STM32F4xx_HAL_Driver/Src/stm32f4xx_hal_ltdc.c ****          Function “HAL_LTDC_Reload” can be called with the parameter  “ReloadType” 
  54:./Libraries/STM32F4xx_HAL_Driver/Src/stm32f4xx_hal_ltdc.c ****          set to LTDC_RELOAD_VERTICAL_BLANKING if the reload should be done in the next vertical bla
  55:./Libraries/STM32F4xx_HAL_Driver/Src/stm32f4xx_hal_ltdc.c ****          this option allows to avoid display flicker by applying the new settings during the vertic
  56:./Libraries/STM32F4xx_HAL_Driver/Src/stm32f4xx_hal_ltdc.c ****            
  57:./Libraries/STM32F4xx_HAL_Driver/Src/stm32f4xx_hal_ltdc.c ****                      
  58:./Libraries/STM32F4xx_HAL_Driver/Src/stm32f4xx_hal_ltdc.c ****      (#) To control LTDC state you can use the following function: HAL_LTDC_GetState()             
  59:./Libraries/STM32F4xx_HAL_Driver/Src/stm32f4xx_hal_ltdc.c **** 
  60:./Libraries/STM32F4xx_HAL_Driver/Src/stm32f4xx_hal_ltdc.c ****      *** LTDC HAL driver macros list ***
  61:./Libraries/STM32F4xx_HAL_Driver/Src/stm32f4xx_hal_ltdc.c ****      ============================================= 
  62:./Libraries/STM32F4xx_HAL_Driver/Src/stm32f4xx_hal_ltdc.c ****      [..]
  63:./Libraries/STM32F4xx_HAL_Driver/Src/stm32f4xx_hal_ltdc.c ****        Below the list of most used macros in LTDC HAL driver.
  64:./Libraries/STM32F4xx_HAL_Driver/Src/stm32f4xx_hal_ltdc.c ****        
  65:./Libraries/STM32F4xx_HAL_Driver/Src/stm32f4xx_hal_ltdc.c ****       (+) __HAL_LTDC_ENABLE: Enable the LTDC.
  66:./Libraries/STM32F4xx_HAL_Driver/Src/stm32f4xx_hal_ltdc.c ****       (+) __HAL_LTDC_DISABLE: Disable the LTDC.
  67:./Libraries/STM32F4xx_HAL_Driver/Src/stm32f4xx_hal_ltdc.c ****       (+) __HAL_LTDC_LAYER_ENABLE: Enable a LTDC Layer.
  68:./Libraries/STM32F4xx_HAL_Driver/Src/stm32f4xx_hal_ltdc.c ****       (+) __HAL_LTDC_LAYER_DISABLE: Disable a LTDC Layer.
  69:./Libraries/STM32F4xx_HAL_Driver/Src/stm32f4xx_hal_ltdc.c ****       (+) __HAL_LTDC_CLEAR_FLAG: Clear the LTDC pending flags.
  70:./Libraries/STM32F4xx_HAL_Driver/Src/stm32f4xx_hal_ltdc.c ****       (+) __HAL_LTDC_ENABLE_IT: Enable the specified LTDC interrupts. 
  71:./Libraries/STM32F4xx_HAL_Driver/Src/stm32f4xx_hal_ltdc.c ****       (+) __HAL_LTDC_DISABLE_IT: Disable the specified LTDC interrupts.
  72:./Libraries/STM32F4xx_HAL_Driver/Src/stm32f4xx_hal_ltdc.c ****       
  73:./Libraries/STM32F4xx_HAL_Driver/Src/stm32f4xx_hal_ltdc.c ****      [..] 
  74:./Libraries/STM32F4xx_HAL_Driver/Src/stm32f4xx_hal_ltdc.c ****        (@) You can refer to the LTDC HAL driver header file for more useful macros
  75:./Libraries/STM32F4xx_HAL_Driver/Src/stm32f4xx_hal_ltdc.c ****   
  76:./Libraries/STM32F4xx_HAL_Driver/Src/stm32f4xx_hal_ltdc.c ****   @endverbatim
  77:./Libraries/STM32F4xx_HAL_Driver/Src/stm32f4xx_hal_ltdc.c ****   ******************************************************************************
  78:./Libraries/STM32F4xx_HAL_Driver/Src/stm32f4xx_hal_ltdc.c ****   * @attention
  79:./Libraries/STM32F4xx_HAL_Driver/Src/stm32f4xx_hal_ltdc.c ****   *
  80:./Libraries/STM32F4xx_HAL_Driver/Src/stm32f4xx_hal_ltdc.c ****   * <h2><center>&copy; COPYRIGHT(c) 2017 STMicroelectronics</center></h2>
  81:./Libraries/STM32F4xx_HAL_Driver/Src/stm32f4xx_hal_ltdc.c ****   *
  82:./Libraries/STM32F4xx_HAL_Driver/Src/stm32f4xx_hal_ltdc.c ****   * Redistribution and use in source and binary forms, with or without modification,
  83:./Libraries/STM32F4xx_HAL_Driver/Src/stm32f4xx_hal_ltdc.c ****   * are permitted provided that the following conditions are met:
  84:./Libraries/STM32F4xx_HAL_Driver/Src/stm32f4xx_hal_ltdc.c ****   *   1. Redistributions of source code must retain the above copyright notice,
  85:./Libraries/STM32F4xx_HAL_Driver/Src/stm32f4xx_hal_ltdc.c ****   *      this list of conditions and the following disclaimer.
  86:./Libraries/STM32F4xx_HAL_Driver/Src/stm32f4xx_hal_ltdc.c ****   *   2. Redistributions in binary form must reproduce the above copyright notice,
  87:./Libraries/STM32F4xx_HAL_Driver/Src/stm32f4xx_hal_ltdc.c ****   *      this list of conditions and the following disclaimer in the documentation
ARM GAS  /tmp/cchxdGeL.s 			page 3


  88:./Libraries/STM32F4xx_HAL_Driver/Src/stm32f4xx_hal_ltdc.c ****   *      and/or other materials provided with the distribution.
  89:./Libraries/STM32F4xx_HAL_Driver/Src/stm32f4xx_hal_ltdc.c ****   *   3. Neither the name of STMicroelectronics nor the names of its contributors
  90:./Libraries/STM32F4xx_HAL_Driver/Src/stm32f4xx_hal_ltdc.c ****   *      may be used to endorse or promote products derived from this software
  91:./Libraries/STM32F4xx_HAL_Driver/Src/stm32f4xx_hal_ltdc.c ****   *      without specific prior written permission.
  92:./Libraries/STM32F4xx_HAL_Driver/Src/stm32f4xx_hal_ltdc.c ****   *
  93:./Libraries/STM32F4xx_HAL_Driver/Src/stm32f4xx_hal_ltdc.c ****   * THIS SOFTWARE IS PROVIDED BY THE COPYRIGHT HOLDERS AND CONTRIBUTORS "AS IS"
  94:./Libraries/STM32F4xx_HAL_Driver/Src/stm32f4xx_hal_ltdc.c ****   * AND ANY EXPRESS OR IMPLIED WARRANTIES, INCLUDING, BUT NOT LIMITED TO, THE
  95:./Libraries/STM32F4xx_HAL_Driver/Src/stm32f4xx_hal_ltdc.c ****   * IMPLIED WARRANTIES OF MERCHANTABILITY AND FITNESS FOR A PARTICULAR PURPOSE ARE
  96:./Libraries/STM32F4xx_HAL_Driver/Src/stm32f4xx_hal_ltdc.c ****   * DISCLAIMED. IN NO EVENT SHALL THE COPYRIGHT HOLDER OR CONTRIBUTORS BE LIABLE
  97:./Libraries/STM32F4xx_HAL_Driver/Src/stm32f4xx_hal_ltdc.c ****   * FOR ANY DIRECT, INDIRECT, INCIDENTAL, SPECIAL, EXEMPLARY, OR CONSEQUENTIAL
  98:./Libraries/STM32F4xx_HAL_Driver/Src/stm32f4xx_hal_ltdc.c ****   * DAMAGES (INCLUDING, BUT NOT LIMITED TO, PROCUREMENT OF SUBSTITUTE GOODS OR
  99:./Libraries/STM32F4xx_HAL_Driver/Src/stm32f4xx_hal_ltdc.c ****   * SERVICES; LOSS OF USE, DATA, OR PROFITS; OR BUSINESS INTERRUPTION) HOWEVER
 100:./Libraries/STM32F4xx_HAL_Driver/Src/stm32f4xx_hal_ltdc.c ****   * CAUSED AND ON ANY THEORY OF LIABILITY, WHETHER IN CONTRACT, STRICT LIABILITY,
 101:./Libraries/STM32F4xx_HAL_Driver/Src/stm32f4xx_hal_ltdc.c ****   * OR TORT (INCLUDING NEGLIGENCE OR OTHERWISE) ARISING IN ANY WAY OUT OF THE USE
 102:./Libraries/STM32F4xx_HAL_Driver/Src/stm32f4xx_hal_ltdc.c ****   * OF THIS SOFTWARE, EVEN IF ADVISED OF THE POSSIBILITY OF SUCH DAMAGE.
 103:./Libraries/STM32F4xx_HAL_Driver/Src/stm32f4xx_hal_ltdc.c ****   *
 104:./Libraries/STM32F4xx_HAL_Driver/Src/stm32f4xx_hal_ltdc.c ****   ******************************************************************************
 105:./Libraries/STM32F4xx_HAL_Driver/Src/stm32f4xx_hal_ltdc.c ****   */ 
 106:./Libraries/STM32F4xx_HAL_Driver/Src/stm32f4xx_hal_ltdc.c **** 
 107:./Libraries/STM32F4xx_HAL_Driver/Src/stm32f4xx_hal_ltdc.c **** /* Includes ------------------------------------------------------------------*/
 108:./Libraries/STM32F4xx_HAL_Driver/Src/stm32f4xx_hal_ltdc.c **** #include "stm32f4xx_hal.h"
 109:./Libraries/STM32F4xx_HAL_Driver/Src/stm32f4xx_hal_ltdc.c **** 
 110:./Libraries/STM32F4xx_HAL_Driver/Src/stm32f4xx_hal_ltdc.c **** /** @addtogroup STM32F4xx_HAL_Driver
 111:./Libraries/STM32F4xx_HAL_Driver/Src/stm32f4xx_hal_ltdc.c ****   * @{
 112:./Libraries/STM32F4xx_HAL_Driver/Src/stm32f4xx_hal_ltdc.c ****   */
 113:./Libraries/STM32F4xx_HAL_Driver/Src/stm32f4xx_hal_ltdc.c **** /** @defgroup LTDC LTDC
 114:./Libraries/STM32F4xx_HAL_Driver/Src/stm32f4xx_hal_ltdc.c ****   * @brief LTDC HAL module driver
 115:./Libraries/STM32F4xx_HAL_Driver/Src/stm32f4xx_hal_ltdc.c ****   * @{
 116:./Libraries/STM32F4xx_HAL_Driver/Src/stm32f4xx_hal_ltdc.c ****   */
 117:./Libraries/STM32F4xx_HAL_Driver/Src/stm32f4xx_hal_ltdc.c **** 
 118:./Libraries/STM32F4xx_HAL_Driver/Src/stm32f4xx_hal_ltdc.c **** #ifdef HAL_LTDC_MODULE_ENABLED
 119:./Libraries/STM32F4xx_HAL_Driver/Src/stm32f4xx_hal_ltdc.c **** 
 120:./Libraries/STM32F4xx_HAL_Driver/Src/stm32f4xx_hal_ltdc.c **** #if defined(STM32F429xx) || defined(STM32F439xx) || defined(STM32F469xx) || defined(STM32F479xx)
 121:./Libraries/STM32F4xx_HAL_Driver/Src/stm32f4xx_hal_ltdc.c **** 
 122:./Libraries/STM32F4xx_HAL_Driver/Src/stm32f4xx_hal_ltdc.c **** /* Private typedef -----------------------------------------------------------*/
 123:./Libraries/STM32F4xx_HAL_Driver/Src/stm32f4xx_hal_ltdc.c **** /* Private define ------------------------------------------------------------*/
 124:./Libraries/STM32F4xx_HAL_Driver/Src/stm32f4xx_hal_ltdc.c **** /* Private macro -------------------------------------------------------------*/
 125:./Libraries/STM32F4xx_HAL_Driver/Src/stm32f4xx_hal_ltdc.c **** /* Private variables ---------------------------------------------------------*/    
 126:./Libraries/STM32F4xx_HAL_Driver/Src/stm32f4xx_hal_ltdc.c **** /* Private function prototypes -----------------------------------------------*/
 127:./Libraries/STM32F4xx_HAL_Driver/Src/stm32f4xx_hal_ltdc.c **** static void LTDC_SetConfig(LTDC_HandleTypeDef *hltdc, LTDC_LayerCfgTypeDef *pLayerCfg, uint32_t Lay
 128:./Libraries/STM32F4xx_HAL_Driver/Src/stm32f4xx_hal_ltdc.c **** /* Private functions ---------------------------------------------------------*/
 129:./Libraries/STM32F4xx_HAL_Driver/Src/stm32f4xx_hal_ltdc.c **** 
 130:./Libraries/STM32F4xx_HAL_Driver/Src/stm32f4xx_hal_ltdc.c **** /** @defgroup LTDC_Exported_Functions LTDC Exported Functions
 131:./Libraries/STM32F4xx_HAL_Driver/Src/stm32f4xx_hal_ltdc.c ****   * @{
 132:./Libraries/STM32F4xx_HAL_Driver/Src/stm32f4xx_hal_ltdc.c ****   */
 133:./Libraries/STM32F4xx_HAL_Driver/Src/stm32f4xx_hal_ltdc.c **** 
 134:./Libraries/STM32F4xx_HAL_Driver/Src/stm32f4xx_hal_ltdc.c **** /** @defgroup LTDC_Exported_Functions_Group1 Initialization and Configuration functions
 135:./Libraries/STM32F4xx_HAL_Driver/Src/stm32f4xx_hal_ltdc.c ****  *  @brief   Initialization and Configuration functions
 136:./Libraries/STM32F4xx_HAL_Driver/Src/stm32f4xx_hal_ltdc.c ****  *
 137:./Libraries/STM32F4xx_HAL_Driver/Src/stm32f4xx_hal_ltdc.c **** @verbatim   
 138:./Libraries/STM32F4xx_HAL_Driver/Src/stm32f4xx_hal_ltdc.c ****  ===============================================================================
 139:./Libraries/STM32F4xx_HAL_Driver/Src/stm32f4xx_hal_ltdc.c ****                 ##### Initialization and Configuration functions #####
 140:./Libraries/STM32F4xx_HAL_Driver/Src/stm32f4xx_hal_ltdc.c ****  ===============================================================================  
 141:./Libraries/STM32F4xx_HAL_Driver/Src/stm32f4xx_hal_ltdc.c ****     [..]  This section provides functions allowing to:
 142:./Libraries/STM32F4xx_HAL_Driver/Src/stm32f4xx_hal_ltdc.c ****       (+) Initialize and configure the LTDC
 143:./Libraries/STM32F4xx_HAL_Driver/Src/stm32f4xx_hal_ltdc.c ****       (+) De-initialize the LTDC 
 144:./Libraries/STM32F4xx_HAL_Driver/Src/stm32f4xx_hal_ltdc.c **** 
ARM GAS  /tmp/cchxdGeL.s 			page 4


 145:./Libraries/STM32F4xx_HAL_Driver/Src/stm32f4xx_hal_ltdc.c **** @endverbatim
 146:./Libraries/STM32F4xx_HAL_Driver/Src/stm32f4xx_hal_ltdc.c ****   * @{
 147:./Libraries/STM32F4xx_HAL_Driver/Src/stm32f4xx_hal_ltdc.c ****   */
 148:./Libraries/STM32F4xx_HAL_Driver/Src/stm32f4xx_hal_ltdc.c ****   
 149:./Libraries/STM32F4xx_HAL_Driver/Src/stm32f4xx_hal_ltdc.c **** /**
 150:./Libraries/STM32F4xx_HAL_Driver/Src/stm32f4xx_hal_ltdc.c ****   * @brief  Initialize the LTDC according to the specified parameters in the LTDC_InitTypeDef.
 151:./Libraries/STM32F4xx_HAL_Driver/Src/stm32f4xx_hal_ltdc.c ****   * @param  hltdc  pointer to a LTDC_HandleTypeDef structure that contains
 152:./Libraries/STM32F4xx_HAL_Driver/Src/stm32f4xx_hal_ltdc.c ****   *                the configuration information for the LTDC.
 153:./Libraries/STM32F4xx_HAL_Driver/Src/stm32f4xx_hal_ltdc.c ****   * @retval HAL status
 154:./Libraries/STM32F4xx_HAL_Driver/Src/stm32f4xx_hal_ltdc.c ****   */
 155:./Libraries/STM32F4xx_HAL_Driver/Src/stm32f4xx_hal_ltdc.c **** HAL_StatusTypeDef HAL_LTDC_Init(LTDC_HandleTypeDef *hltdc)
 156:./Libraries/STM32F4xx_HAL_Driver/Src/stm32f4xx_hal_ltdc.c **** {
  29              		.loc 1 156 1
  30              		.cfi_startproc
  31              		@ args = 0, pretend = 0, frame = 16
  32              		@ frame_needed = 1, uses_anonymous_args = 0
  33 0000 80B5     		push	{r7, lr}
  34              	.LCFI0:
  35              		.cfi_def_cfa_offset 8
  36              		.cfi_offset 7, -8
  37              		.cfi_offset 14, -4
  38 0002 84B0     		sub	sp, sp, #16
  39              	.LCFI1:
  40              		.cfi_def_cfa_offset 24
  41 0004 00AF     		add	r7, sp, #0
  42              	.LCFI2:
  43              		.cfi_def_cfa_register 7
  44 0006 7860     		str	r0, [r7, #4]
 157:./Libraries/STM32F4xx_HAL_Driver/Src/stm32f4xx_hal_ltdc.c ****   uint32_t tmp = 0U, tmp1 = 0U;
  45              		.loc 1 157 12
  46 0008 0023     		movs	r3, #0
  47 000a FB60     		str	r3, [r7, #12]
  48              		.loc 1 157 22
  49 000c 0023     		movs	r3, #0
  50 000e BB60     		str	r3, [r7, #8]
 158:./Libraries/STM32F4xx_HAL_Driver/Src/stm32f4xx_hal_ltdc.c **** 
 159:./Libraries/STM32F4xx_HAL_Driver/Src/stm32f4xx_hal_ltdc.c ****   /* Check the LTDC peripheral state */
 160:./Libraries/STM32F4xx_HAL_Driver/Src/stm32f4xx_hal_ltdc.c ****   if(hltdc == NULL)
  51              		.loc 1 160 5
  52 0010 7B68     		ldr	r3, [r7, #4]
  53 0012 002B     		cmp	r3, #0
  54 0014 01D1     		bne	.L2
 161:./Libraries/STM32F4xx_HAL_Driver/Src/stm32f4xx_hal_ltdc.c ****   {
 162:./Libraries/STM32F4xx_HAL_Driver/Src/stm32f4xx_hal_ltdc.c ****     return HAL_ERROR;
  55              		.loc 1 162 12
  56 0016 0123     		movs	r3, #1
  57 0018 BFE0     		b	.L3
  58              	.L2:
 163:./Libraries/STM32F4xx_HAL_Driver/Src/stm32f4xx_hal_ltdc.c ****   }
 164:./Libraries/STM32F4xx_HAL_Driver/Src/stm32f4xx_hal_ltdc.c **** 
 165:./Libraries/STM32F4xx_HAL_Driver/Src/stm32f4xx_hal_ltdc.c ****   /* Check function parameters */
 166:./Libraries/STM32F4xx_HAL_Driver/Src/stm32f4xx_hal_ltdc.c ****   assert_param(IS_LTDC_ALL_INSTANCE(hltdc->Instance));
 167:./Libraries/STM32F4xx_HAL_Driver/Src/stm32f4xx_hal_ltdc.c ****   assert_param(IS_LTDC_HSYNC(hltdc->Init.HorizontalSync));
 168:./Libraries/STM32F4xx_HAL_Driver/Src/stm32f4xx_hal_ltdc.c ****   assert_param(IS_LTDC_VSYNC(hltdc->Init.VerticalSync));
 169:./Libraries/STM32F4xx_HAL_Driver/Src/stm32f4xx_hal_ltdc.c ****   assert_param(IS_LTDC_AHBP(hltdc->Init.AccumulatedHBP));
 170:./Libraries/STM32F4xx_HAL_Driver/Src/stm32f4xx_hal_ltdc.c ****   assert_param(IS_LTDC_AVBP(hltdc->Init.AccumulatedVBP));
 171:./Libraries/STM32F4xx_HAL_Driver/Src/stm32f4xx_hal_ltdc.c ****   assert_param(IS_LTDC_AAH(hltdc->Init.AccumulatedActiveH));
ARM GAS  /tmp/cchxdGeL.s 			page 5


 172:./Libraries/STM32F4xx_HAL_Driver/Src/stm32f4xx_hal_ltdc.c ****   assert_param(IS_LTDC_AAW(hltdc->Init.AccumulatedActiveW));
 173:./Libraries/STM32F4xx_HAL_Driver/Src/stm32f4xx_hal_ltdc.c ****   assert_param(IS_LTDC_TOTALH(hltdc->Init.TotalHeigh));
 174:./Libraries/STM32F4xx_HAL_Driver/Src/stm32f4xx_hal_ltdc.c ****   assert_param(IS_LTDC_TOTALW(hltdc->Init.TotalWidth));
 175:./Libraries/STM32F4xx_HAL_Driver/Src/stm32f4xx_hal_ltdc.c ****   assert_param(IS_LTDC_HSPOL(hltdc->Init.HSPolarity));
 176:./Libraries/STM32F4xx_HAL_Driver/Src/stm32f4xx_hal_ltdc.c ****   assert_param(IS_LTDC_VSPOL(hltdc->Init.VSPolarity));
 177:./Libraries/STM32F4xx_HAL_Driver/Src/stm32f4xx_hal_ltdc.c ****   assert_param(IS_LTDC_DEPOL(hltdc->Init.DEPolarity));
 178:./Libraries/STM32F4xx_HAL_Driver/Src/stm32f4xx_hal_ltdc.c ****   assert_param(IS_LTDC_PCPOL(hltdc->Init.PCPolarity));
 179:./Libraries/STM32F4xx_HAL_Driver/Src/stm32f4xx_hal_ltdc.c **** 
 180:./Libraries/STM32F4xx_HAL_Driver/Src/stm32f4xx_hal_ltdc.c ****   if(hltdc->State == HAL_LTDC_STATE_RESET)
  59              		.loc 1 180 11
  60 001a 7B68     		ldr	r3, [r7, #4]
  61 001c 93F8A130 		ldrb	r3, [r3, #161]
  62 0020 DBB2     		uxtb	r3, r3
  63              		.loc 1 180 5
  64 0022 002B     		cmp	r3, #0
  65 0024 06D1     		bne	.L4
 181:./Libraries/STM32F4xx_HAL_Driver/Src/stm32f4xx_hal_ltdc.c ****   {
 182:./Libraries/STM32F4xx_HAL_Driver/Src/stm32f4xx_hal_ltdc.c ****     /* Allocate lock resource and initialize it */
 183:./Libraries/STM32F4xx_HAL_Driver/Src/stm32f4xx_hal_ltdc.c ****     hltdc->Lock = HAL_UNLOCKED;
  66              		.loc 1 183 17
  67 0026 7B68     		ldr	r3, [r7, #4]
  68 0028 0022     		movs	r2, #0
  69 002a 83F8A020 		strb	r2, [r3, #160]
 184:./Libraries/STM32F4xx_HAL_Driver/Src/stm32f4xx_hal_ltdc.c ****     /* Init the low level hardware */
 185:./Libraries/STM32F4xx_HAL_Driver/Src/stm32f4xx_hal_ltdc.c ****     HAL_LTDC_MspInit(hltdc);
  70              		.loc 1 185 5
  71 002e 7868     		ldr	r0, [r7, #4]
  72 0030 FFF7FEFF 		bl	HAL_LTDC_MspInit
  73              	.L4:
 186:./Libraries/STM32F4xx_HAL_Driver/Src/stm32f4xx_hal_ltdc.c ****   }
 187:./Libraries/STM32F4xx_HAL_Driver/Src/stm32f4xx_hal_ltdc.c ****   
 188:./Libraries/STM32F4xx_HAL_Driver/Src/stm32f4xx_hal_ltdc.c ****   /* Change LTDC peripheral state */
 189:./Libraries/STM32F4xx_HAL_Driver/Src/stm32f4xx_hal_ltdc.c ****   hltdc->State = HAL_LTDC_STATE_BUSY;
  74              		.loc 1 189 16
  75 0034 7B68     		ldr	r3, [r7, #4]
  76 0036 0222     		movs	r2, #2
  77 0038 83F8A120 		strb	r2, [r3, #161]
 190:./Libraries/STM32F4xx_HAL_Driver/Src/stm32f4xx_hal_ltdc.c **** 
 191:./Libraries/STM32F4xx_HAL_Driver/Src/stm32f4xx_hal_ltdc.c ****   /* Configure the HS, VS, DE and PC polarity */
 192:./Libraries/STM32F4xx_HAL_Driver/Src/stm32f4xx_hal_ltdc.c ****   hltdc->Instance->GCR &= ~(LTDC_GCR_HSPOL | LTDC_GCR_VSPOL | LTDC_GCR_DEPOL | LTDC_GCR_PCPOL);
  78              		.loc 1 192 8
  79 003c 7B68     		ldr	r3, [r7, #4]
  80 003e 1B68     		ldr	r3, [r3]
  81              		.loc 1 192 24
  82 0040 9A69     		ldr	r2, [r3, #24]
  83              		.loc 1 192 8
  84 0042 7B68     		ldr	r3, [r7, #4]
  85 0044 1B68     		ldr	r3, [r3]
  86              		.loc 1 192 24
  87 0046 22F07042 		bic	r2, r2, #-268435456
  88 004a 9A61     		str	r2, [r3, #24]
 193:./Libraries/STM32F4xx_HAL_Driver/Src/stm32f4xx_hal_ltdc.c ****   hltdc->Instance->GCR |=  (uint32_t)(hltdc->Init.HSPolarity | hltdc->Init.VSPolarity | \
  89              		.loc 1 193 8
  90 004c 7B68     		ldr	r3, [r7, #4]
  91 004e 1B68     		ldr	r3, [r3]
  92              		.loc 1 193 24
  93 0050 9969     		ldr	r1, [r3, #24]
ARM GAS  /tmp/cchxdGeL.s 			page 6


  94              		.loc 1 193 50
  95 0052 7B68     		ldr	r3, [r7, #4]
  96 0054 5A68     		ldr	r2, [r3, #4]
  97              		.loc 1 193 75
  98 0056 7B68     		ldr	r3, [r7, #4]
  99 0058 9B68     		ldr	r3, [r3, #8]
 100              		.loc 1 193 62
 101 005a 1A43     		orrs	r2, r2, r3
 194:./Libraries/STM32F4xx_HAL_Driver/Src/stm32f4xx_hal_ltdc.c ****   hltdc->Init.DEPolarity | hltdc->Init.PCPolarity);
 102              		.loc 1 194 14
 103 005c 7B68     		ldr	r3, [r7, #4]
 104 005e DB68     		ldr	r3, [r3, #12]
 193:./Libraries/STM32F4xx_HAL_Driver/Src/stm32f4xx_hal_ltdc.c ****   hltdc->Instance->GCR |=  (uint32_t)(hltdc->Init.HSPolarity | hltdc->Init.VSPolarity | \
 105              		.loc 1 193 87
 106 0060 1A43     		orrs	r2, r2, r3
 107              		.loc 1 194 39
 108 0062 7B68     		ldr	r3, [r7, #4]
 109 0064 1B69     		ldr	r3, [r3, #16]
 110              		.loc 1 194 26
 111 0066 1A43     		orrs	r2, r2, r3
 193:./Libraries/STM32F4xx_HAL_Driver/Src/stm32f4xx_hal_ltdc.c ****   hltdc->Instance->GCR |=  (uint32_t)(hltdc->Init.HSPolarity | hltdc->Init.VSPolarity | \
 112              		.loc 1 193 8
 113 0068 7B68     		ldr	r3, [r7, #4]
 114 006a 1B68     		ldr	r3, [r3]
 193:./Libraries/STM32F4xx_HAL_Driver/Src/stm32f4xx_hal_ltdc.c ****   hltdc->Instance->GCR |=  (uint32_t)(hltdc->Init.HSPolarity | hltdc->Init.VSPolarity | \
 115              		.loc 1 193 24
 116 006c 0A43     		orrs	r2, r2, r1
 117 006e 9A61     		str	r2, [r3, #24]
 195:./Libraries/STM32F4xx_HAL_Driver/Src/stm32f4xx_hal_ltdc.c **** 
 196:./Libraries/STM32F4xx_HAL_Driver/Src/stm32f4xx_hal_ltdc.c ****   /* Set Synchronization size */
 197:./Libraries/STM32F4xx_HAL_Driver/Src/stm32f4xx_hal_ltdc.c ****   hltdc->Instance->SSCR &= ~(LTDC_SSCR_VSH | LTDC_SSCR_HSW);
 118              		.loc 1 197 8
 119 0070 7B68     		ldr	r3, [r7, #4]
 120 0072 1B68     		ldr	r3, [r3]
 121              		.loc 1 197 25
 122 0074 9968     		ldr	r1, [r3, #8]
 123              		.loc 1 197 8
 124 0076 7B68     		ldr	r3, [r7, #4]
 125 0078 1A68     		ldr	r2, [r3]
 126              		.loc 1 197 25
 127 007a 4A4B     		ldr	r3, .L5
 128 007c 0B40     		ands	r3, r3, r1
 129 007e 9360     		str	r3, [r2, #8]
 198:./Libraries/STM32F4xx_HAL_Driver/Src/stm32f4xx_hal_ltdc.c ****   tmp = (hltdc->Init.HorizontalSync << 16U);
 130              		.loc 1 198 21
 131 0080 7B68     		ldr	r3, [r7, #4]
 132 0082 5B69     		ldr	r3, [r3, #20]
 133              		.loc 1 198 7
 134 0084 1B04     		lsls	r3, r3, #16
 135 0086 FB60     		str	r3, [r7, #12]
 199:./Libraries/STM32F4xx_HAL_Driver/Src/stm32f4xx_hal_ltdc.c ****   hltdc->Instance->SSCR |= (tmp | hltdc->Init.VerticalSync);
 136              		.loc 1 199 8
 137 0088 7B68     		ldr	r3, [r7, #4]
 138 008a 1B68     		ldr	r3, [r3]
 139              		.loc 1 199 25
 140 008c 9968     		ldr	r1, [r3, #8]
 141              		.loc 1 199 46
ARM GAS  /tmp/cchxdGeL.s 			page 7


 142 008e 7B68     		ldr	r3, [r7, #4]
 143 0090 9A69     		ldr	r2, [r3, #24]
 144              		.loc 1 199 33
 145 0092 FB68     		ldr	r3, [r7, #12]
 146 0094 1A43     		orrs	r2, r2, r3
 147              		.loc 1 199 8
 148 0096 7B68     		ldr	r3, [r7, #4]
 149 0098 1B68     		ldr	r3, [r3]
 150              		.loc 1 199 25
 151 009a 0A43     		orrs	r2, r2, r1
 152 009c 9A60     		str	r2, [r3, #8]
 200:./Libraries/STM32F4xx_HAL_Driver/Src/stm32f4xx_hal_ltdc.c **** 
 201:./Libraries/STM32F4xx_HAL_Driver/Src/stm32f4xx_hal_ltdc.c ****   /* Set Accumulated Back porch */
 202:./Libraries/STM32F4xx_HAL_Driver/Src/stm32f4xx_hal_ltdc.c ****   hltdc->Instance->BPCR &= ~(LTDC_BPCR_AVBP | LTDC_BPCR_AHBP);
 153              		.loc 1 202 8
 154 009e 7B68     		ldr	r3, [r7, #4]
 155 00a0 1B68     		ldr	r3, [r3]
 156              		.loc 1 202 25
 157 00a2 D968     		ldr	r1, [r3, #12]
 158              		.loc 1 202 8
 159 00a4 7B68     		ldr	r3, [r7, #4]
 160 00a6 1A68     		ldr	r2, [r3]
 161              		.loc 1 202 25
 162 00a8 3E4B     		ldr	r3, .L5
 163 00aa 0B40     		ands	r3, r3, r1
 164 00ac D360     		str	r3, [r2, #12]
 203:./Libraries/STM32F4xx_HAL_Driver/Src/stm32f4xx_hal_ltdc.c ****   tmp = (hltdc->Init.AccumulatedHBP << 16U);
 165              		.loc 1 203 21
 166 00ae 7B68     		ldr	r3, [r7, #4]
 167 00b0 DB69     		ldr	r3, [r3, #28]
 168              		.loc 1 203 7
 169 00b2 1B04     		lsls	r3, r3, #16
 170 00b4 FB60     		str	r3, [r7, #12]
 204:./Libraries/STM32F4xx_HAL_Driver/Src/stm32f4xx_hal_ltdc.c ****   hltdc->Instance->BPCR |= (tmp | hltdc->Init.AccumulatedVBP);
 171              		.loc 1 204 8
 172 00b6 7B68     		ldr	r3, [r7, #4]
 173 00b8 1B68     		ldr	r3, [r3]
 174              		.loc 1 204 25
 175 00ba D968     		ldr	r1, [r3, #12]
 176              		.loc 1 204 46
 177 00bc 7B68     		ldr	r3, [r7, #4]
 178 00be 1A6A     		ldr	r2, [r3, #32]
 179              		.loc 1 204 33
 180 00c0 FB68     		ldr	r3, [r7, #12]
 181 00c2 1A43     		orrs	r2, r2, r3
 182              		.loc 1 204 8
 183 00c4 7B68     		ldr	r3, [r7, #4]
 184 00c6 1B68     		ldr	r3, [r3]
 185              		.loc 1 204 25
 186 00c8 0A43     		orrs	r2, r2, r1
 187 00ca DA60     		str	r2, [r3, #12]
 205:./Libraries/STM32F4xx_HAL_Driver/Src/stm32f4xx_hal_ltdc.c **** 
 206:./Libraries/STM32F4xx_HAL_Driver/Src/stm32f4xx_hal_ltdc.c ****   /* Set Accumulated Active Width */
 207:./Libraries/STM32F4xx_HAL_Driver/Src/stm32f4xx_hal_ltdc.c ****   hltdc->Instance->AWCR &= ~(LTDC_AWCR_AAH | LTDC_AWCR_AAW);
 188              		.loc 1 207 8
 189 00cc 7B68     		ldr	r3, [r7, #4]
 190 00ce 1B68     		ldr	r3, [r3]
ARM GAS  /tmp/cchxdGeL.s 			page 8


 191              		.loc 1 207 25
 192 00d0 1969     		ldr	r1, [r3, #16]
 193              		.loc 1 207 8
 194 00d2 7B68     		ldr	r3, [r7, #4]
 195 00d4 1A68     		ldr	r2, [r3]
 196              		.loc 1 207 25
 197 00d6 334B     		ldr	r3, .L5
 198 00d8 0B40     		ands	r3, r3, r1
 199 00da 1361     		str	r3, [r2, #16]
 208:./Libraries/STM32F4xx_HAL_Driver/Src/stm32f4xx_hal_ltdc.c ****   tmp = (hltdc->Init.AccumulatedActiveW << 16U);
 200              		.loc 1 208 21
 201 00dc 7B68     		ldr	r3, [r7, #4]
 202 00de 5B6A     		ldr	r3, [r3, #36]
 203              		.loc 1 208 7
 204 00e0 1B04     		lsls	r3, r3, #16
 205 00e2 FB60     		str	r3, [r7, #12]
 209:./Libraries/STM32F4xx_HAL_Driver/Src/stm32f4xx_hal_ltdc.c ****   hltdc->Instance->AWCR |= (tmp | hltdc->Init.AccumulatedActiveH);
 206              		.loc 1 209 8
 207 00e4 7B68     		ldr	r3, [r7, #4]
 208 00e6 1B68     		ldr	r3, [r3]
 209              		.loc 1 209 25
 210 00e8 1969     		ldr	r1, [r3, #16]
 211              		.loc 1 209 46
 212 00ea 7B68     		ldr	r3, [r7, #4]
 213 00ec 9A6A     		ldr	r2, [r3, #40]
 214              		.loc 1 209 33
 215 00ee FB68     		ldr	r3, [r7, #12]
 216 00f0 1A43     		orrs	r2, r2, r3
 217              		.loc 1 209 8
 218 00f2 7B68     		ldr	r3, [r7, #4]
 219 00f4 1B68     		ldr	r3, [r3]
 220              		.loc 1 209 25
 221 00f6 0A43     		orrs	r2, r2, r1
 222 00f8 1A61     		str	r2, [r3, #16]
 210:./Libraries/STM32F4xx_HAL_Driver/Src/stm32f4xx_hal_ltdc.c **** 
 211:./Libraries/STM32F4xx_HAL_Driver/Src/stm32f4xx_hal_ltdc.c ****   /* Set Total Width */
 212:./Libraries/STM32F4xx_HAL_Driver/Src/stm32f4xx_hal_ltdc.c ****   hltdc->Instance->TWCR &= ~(LTDC_TWCR_TOTALH | LTDC_TWCR_TOTALW);
 223              		.loc 1 212 8
 224 00fa 7B68     		ldr	r3, [r7, #4]
 225 00fc 1B68     		ldr	r3, [r3]
 226              		.loc 1 212 25
 227 00fe 5969     		ldr	r1, [r3, #20]
 228              		.loc 1 212 8
 229 0100 7B68     		ldr	r3, [r7, #4]
 230 0102 1A68     		ldr	r2, [r3]
 231              		.loc 1 212 25
 232 0104 274B     		ldr	r3, .L5
 233 0106 0B40     		ands	r3, r3, r1
 234 0108 5361     		str	r3, [r2, #20]
 213:./Libraries/STM32F4xx_HAL_Driver/Src/stm32f4xx_hal_ltdc.c ****   tmp = (hltdc->Init.TotalWidth << 16U);
 235              		.loc 1 213 21
 236 010a 7B68     		ldr	r3, [r7, #4]
 237 010c DB6A     		ldr	r3, [r3, #44]
 238              		.loc 1 213 7
 239 010e 1B04     		lsls	r3, r3, #16
 240 0110 FB60     		str	r3, [r7, #12]
 214:./Libraries/STM32F4xx_HAL_Driver/Src/stm32f4xx_hal_ltdc.c ****   hltdc->Instance->TWCR |= (tmp | hltdc->Init.TotalHeigh);
ARM GAS  /tmp/cchxdGeL.s 			page 9


 241              		.loc 1 214 8
 242 0112 7B68     		ldr	r3, [r7, #4]
 243 0114 1B68     		ldr	r3, [r3]
 244              		.loc 1 214 25
 245 0116 5969     		ldr	r1, [r3, #20]
 246              		.loc 1 214 46
 247 0118 7B68     		ldr	r3, [r7, #4]
 248 011a 1A6B     		ldr	r2, [r3, #48]
 249              		.loc 1 214 33
 250 011c FB68     		ldr	r3, [r7, #12]
 251 011e 1A43     		orrs	r2, r2, r3
 252              		.loc 1 214 8
 253 0120 7B68     		ldr	r3, [r7, #4]
 254 0122 1B68     		ldr	r3, [r3]
 255              		.loc 1 214 25
 256 0124 0A43     		orrs	r2, r2, r1
 257 0126 5A61     		str	r2, [r3, #20]
 215:./Libraries/STM32F4xx_HAL_Driver/Src/stm32f4xx_hal_ltdc.c **** 
 216:./Libraries/STM32F4xx_HAL_Driver/Src/stm32f4xx_hal_ltdc.c ****   /* Set the background color value */
 217:./Libraries/STM32F4xx_HAL_Driver/Src/stm32f4xx_hal_ltdc.c ****   tmp = ((uint32_t)(hltdc->Init.Backcolor.Green) << 8U);
 258              		.loc 1 217 42
 259 0128 7B68     		ldr	r3, [r7, #4]
 260 012a 93F83530 		ldrb	r3, [r3, #53]	@ zero_extendqisi2
 261              		.loc 1 217 7
 262 012e 1B02     		lsls	r3, r3, #8
 263 0130 FB60     		str	r3, [r7, #12]
 218:./Libraries/STM32F4xx_HAL_Driver/Src/stm32f4xx_hal_ltdc.c ****   tmp1 = ((uint32_t)(hltdc->Init.Backcolor.Red) << 16U);
 264              		.loc 1 218 43
 265 0132 7B68     		ldr	r3, [r7, #4]
 266 0134 93F83630 		ldrb	r3, [r3, #54]	@ zero_extendqisi2
 267              		.loc 1 218 8
 268 0138 1B04     		lsls	r3, r3, #16
 269 013a BB60     		str	r3, [r7, #8]
 219:./Libraries/STM32F4xx_HAL_Driver/Src/stm32f4xx_hal_ltdc.c ****   hltdc->Instance->BCCR &= ~(LTDC_BCCR_BCBLUE | LTDC_BCCR_BCGREEN | LTDC_BCCR_BCRED);
 270              		.loc 1 219 8
 271 013c 7B68     		ldr	r3, [r7, #4]
 272 013e 1B68     		ldr	r3, [r3]
 273              		.loc 1 219 25
 274 0140 DA6A     		ldr	r2, [r3, #44]
 275              		.loc 1 219 8
 276 0142 7B68     		ldr	r3, [r7, #4]
 277 0144 1B68     		ldr	r3, [r3]
 278              		.loc 1 219 25
 279 0146 02F07F42 		and	r2, r2, #-16777216
 280 014a DA62     		str	r2, [r3, #44]
 220:./Libraries/STM32F4xx_HAL_Driver/Src/stm32f4xx_hal_ltdc.c ****   hltdc->Instance->BCCR |= (tmp1 | tmp | hltdc->Init.Backcolor.Blue);
 281              		.loc 1 220 8
 282 014c 7B68     		ldr	r3, [r7, #4]
 283 014e 1B68     		ldr	r3, [r3]
 284              		.loc 1 220 25
 285 0150 D96A     		ldr	r1, [r3, #44]
 286              		.loc 1 220 34
 287 0152 BA68     		ldr	r2, [r7, #8]
 288 0154 FB68     		ldr	r3, [r7, #12]
 289 0156 1343     		orrs	r3, r3, r2
 290              		.loc 1 220 63
 291 0158 7A68     		ldr	r2, [r7, #4]
ARM GAS  /tmp/cchxdGeL.s 			page 10


 292 015a 92F83420 		ldrb	r2, [r2, #52]	@ zero_extendqisi2
 293              		.loc 1 220 40
 294 015e 1A43     		orrs	r2, r2, r3
 295              		.loc 1 220 8
 296 0160 7B68     		ldr	r3, [r7, #4]
 297 0162 1B68     		ldr	r3, [r3]
 298              		.loc 1 220 25
 299 0164 0A43     		orrs	r2, r2, r1
 300 0166 DA62     		str	r2, [r3, #44]
 221:./Libraries/STM32F4xx_HAL_Driver/Src/stm32f4xx_hal_ltdc.c **** 
 222:./Libraries/STM32F4xx_HAL_Driver/Src/stm32f4xx_hal_ltdc.c ****   /* Enable the Transfer Error and FIFO underrun interrupts */
 223:./Libraries/STM32F4xx_HAL_Driver/Src/stm32f4xx_hal_ltdc.c ****   __HAL_LTDC_ENABLE_IT(hltdc, LTDC_IT_TE | LTDC_IT_FU);
 301              		.loc 1 223 3
 302 0168 7B68     		ldr	r3, [r7, #4]
 303 016a 1B68     		ldr	r3, [r3]
 304 016c 5A6B     		ldr	r2, [r3, #52]
 305 016e 7B68     		ldr	r3, [r7, #4]
 306 0170 1B68     		ldr	r3, [r3]
 307 0172 42F00602 		orr	r2, r2, #6
 308 0176 5A63     		str	r2, [r3, #52]
 224:./Libraries/STM32F4xx_HAL_Driver/Src/stm32f4xx_hal_ltdc.c **** 
 225:./Libraries/STM32F4xx_HAL_Driver/Src/stm32f4xx_hal_ltdc.c ****   /* Enable LTDC by setting LTDCEN bit */
 226:./Libraries/STM32F4xx_HAL_Driver/Src/stm32f4xx_hal_ltdc.c ****   __HAL_LTDC_ENABLE(hltdc);
 309              		.loc 1 226 3
 310 0178 7B68     		ldr	r3, [r7, #4]
 311 017a 1B68     		ldr	r3, [r3]
 312 017c 9A69     		ldr	r2, [r3, #24]
 313 017e 7B68     		ldr	r3, [r7, #4]
 314 0180 1B68     		ldr	r3, [r3]
 315 0182 42F00102 		orr	r2, r2, #1
 316 0186 9A61     		str	r2, [r3, #24]
 227:./Libraries/STM32F4xx_HAL_Driver/Src/stm32f4xx_hal_ltdc.c **** 
 228:./Libraries/STM32F4xx_HAL_Driver/Src/stm32f4xx_hal_ltdc.c ****   /* Initialize the error code */
 229:./Libraries/STM32F4xx_HAL_Driver/Src/stm32f4xx_hal_ltdc.c ****   hltdc->ErrorCode = HAL_LTDC_ERROR_NONE;  
 317              		.loc 1 229 20
 318 0188 7B68     		ldr	r3, [r7, #4]
 319 018a 0022     		movs	r2, #0
 320 018c C3F8A420 		str	r2, [r3, #164]
 230:./Libraries/STM32F4xx_HAL_Driver/Src/stm32f4xx_hal_ltdc.c **** 
 231:./Libraries/STM32F4xx_HAL_Driver/Src/stm32f4xx_hal_ltdc.c ****   /* Initialize the LTDC state*/
 232:./Libraries/STM32F4xx_HAL_Driver/Src/stm32f4xx_hal_ltdc.c ****   hltdc->State = HAL_LTDC_STATE_READY;
 321              		.loc 1 232 16
 322 0190 7B68     		ldr	r3, [r7, #4]
 323 0192 0122     		movs	r2, #1
 324 0194 83F8A120 		strb	r2, [r3, #161]
 233:./Libraries/STM32F4xx_HAL_Driver/Src/stm32f4xx_hal_ltdc.c **** 
 234:./Libraries/STM32F4xx_HAL_Driver/Src/stm32f4xx_hal_ltdc.c ****   return HAL_OK;
 325              		.loc 1 234 10
 326 0198 0023     		movs	r3, #0
 327              	.L3:
 235:./Libraries/STM32F4xx_HAL_Driver/Src/stm32f4xx_hal_ltdc.c **** }
 328              		.loc 1 235 1
 329 019a 1846     		mov	r0, r3
 330 019c 1037     		adds	r7, r7, #16
 331              	.LCFI3:
 332              		.cfi_def_cfa_offset 8
 333 019e BD46     		mov	sp, r7
ARM GAS  /tmp/cchxdGeL.s 			page 11


 334              	.LCFI4:
 335              		.cfi_def_cfa_register 13
 336              		@ sp needed
 337 01a0 80BD     		pop	{r7, pc}
 338              	.L6:
 339 01a2 00BF     		.align	2
 340              	.L5:
 341 01a4 00F800F0 		.word	-268371968
 342              		.cfi_endproc
 343              	.LFE126:
 345              		.section	.text.HAL_LTDC_DeInit,"ax",%progbits
 346              		.align	1
 347              		.global	HAL_LTDC_DeInit
 348              		.syntax unified
 349              		.thumb
 350              		.thumb_func
 351              		.fpu fpv4-sp-d16
 353              	HAL_LTDC_DeInit:
 354              	.LFB127:
 236:./Libraries/STM32F4xx_HAL_Driver/Src/stm32f4xx_hal_ltdc.c **** 
 237:./Libraries/STM32F4xx_HAL_Driver/Src/stm32f4xx_hal_ltdc.c **** /**
 238:./Libraries/STM32F4xx_HAL_Driver/Src/stm32f4xx_hal_ltdc.c ****   * @brief  De-initialize the LTDC peripheral.
 239:./Libraries/STM32F4xx_HAL_Driver/Src/stm32f4xx_hal_ltdc.c ****   * @param  hltdc  pointer to a LTDC_HandleTypeDef structure that contains
 240:./Libraries/STM32F4xx_HAL_Driver/Src/stm32f4xx_hal_ltdc.c ****   *                the configuration information for the LTDC.
 241:./Libraries/STM32F4xx_HAL_Driver/Src/stm32f4xx_hal_ltdc.c ****   * @retval None
 242:./Libraries/STM32F4xx_HAL_Driver/Src/stm32f4xx_hal_ltdc.c ****   */
 243:./Libraries/STM32F4xx_HAL_Driver/Src/stm32f4xx_hal_ltdc.c **** 
 244:./Libraries/STM32F4xx_HAL_Driver/Src/stm32f4xx_hal_ltdc.c **** HAL_StatusTypeDef HAL_LTDC_DeInit(LTDC_HandleTypeDef *hltdc)
 245:./Libraries/STM32F4xx_HAL_Driver/Src/stm32f4xx_hal_ltdc.c **** {
 355              		.loc 1 245 1
 356              		.cfi_startproc
 357              		@ args = 0, pretend = 0, frame = 8
 358              		@ frame_needed = 1, uses_anonymous_args = 0
 359 0000 80B5     		push	{r7, lr}
 360              	.LCFI5:
 361              		.cfi_def_cfa_offset 8
 362              		.cfi_offset 7, -8
 363              		.cfi_offset 14, -4
 364 0002 82B0     		sub	sp, sp, #8
 365              	.LCFI6:
 366              		.cfi_def_cfa_offset 16
 367 0004 00AF     		add	r7, sp, #0
 368              	.LCFI7:
 369              		.cfi_def_cfa_register 7
 370 0006 7860     		str	r0, [r7, #4]
 246:./Libraries/STM32F4xx_HAL_Driver/Src/stm32f4xx_hal_ltdc.c ****   /* DeInit the low level hardware */
 247:./Libraries/STM32F4xx_HAL_Driver/Src/stm32f4xx_hal_ltdc.c ****   HAL_LTDC_MspDeInit(hltdc); 
 371              		.loc 1 247 3
 372 0008 7868     		ldr	r0, [r7, #4]
 373 000a FFF7FEFF 		bl	HAL_LTDC_MspDeInit
 248:./Libraries/STM32F4xx_HAL_Driver/Src/stm32f4xx_hal_ltdc.c **** 
 249:./Libraries/STM32F4xx_HAL_Driver/Src/stm32f4xx_hal_ltdc.c ****   /* Initialize the error code */
 250:./Libraries/STM32F4xx_HAL_Driver/Src/stm32f4xx_hal_ltdc.c ****   hltdc->ErrorCode = HAL_LTDC_ERROR_NONE;
 374              		.loc 1 250 20
 375 000e 7B68     		ldr	r3, [r7, #4]
 376 0010 0022     		movs	r2, #0
 377 0012 C3F8A420 		str	r2, [r3, #164]
ARM GAS  /tmp/cchxdGeL.s 			page 12


 251:./Libraries/STM32F4xx_HAL_Driver/Src/stm32f4xx_hal_ltdc.c **** 
 252:./Libraries/STM32F4xx_HAL_Driver/Src/stm32f4xx_hal_ltdc.c ****   /* Initialize the LTDC state*/
 253:./Libraries/STM32F4xx_HAL_Driver/Src/stm32f4xx_hal_ltdc.c ****   hltdc->State = HAL_LTDC_STATE_RESET;
 378              		.loc 1 253 16
 379 0016 7B68     		ldr	r3, [r7, #4]
 380 0018 0022     		movs	r2, #0
 381 001a 83F8A120 		strb	r2, [r3, #161]
 254:./Libraries/STM32F4xx_HAL_Driver/Src/stm32f4xx_hal_ltdc.c **** 
 255:./Libraries/STM32F4xx_HAL_Driver/Src/stm32f4xx_hal_ltdc.c ****   /* Release Lock */
 256:./Libraries/STM32F4xx_HAL_Driver/Src/stm32f4xx_hal_ltdc.c ****   __HAL_UNLOCK(hltdc);
 382              		.loc 1 256 3
 383 001e 7B68     		ldr	r3, [r7, #4]
 384 0020 0022     		movs	r2, #0
 385 0022 83F8A020 		strb	r2, [r3, #160]
 257:./Libraries/STM32F4xx_HAL_Driver/Src/stm32f4xx_hal_ltdc.c **** 
 258:./Libraries/STM32F4xx_HAL_Driver/Src/stm32f4xx_hal_ltdc.c ****   return HAL_OK;
 386              		.loc 1 258 10
 387 0026 0023     		movs	r3, #0
 259:./Libraries/STM32F4xx_HAL_Driver/Src/stm32f4xx_hal_ltdc.c **** }
 388              		.loc 1 259 1
 389 0028 1846     		mov	r0, r3
 390 002a 0837     		adds	r7, r7, #8
 391              	.LCFI8:
 392              		.cfi_def_cfa_offset 8
 393 002c BD46     		mov	sp, r7
 394              	.LCFI9:
 395              		.cfi_def_cfa_register 13
 396              		@ sp needed
 397 002e 80BD     		pop	{r7, pc}
 398              		.cfi_endproc
 399              	.LFE127:
 401              		.section	.text.HAL_LTDC_MspInit,"ax",%progbits
 402              		.align	1
 403              		.weak	HAL_LTDC_MspInit
 404              		.syntax unified
 405              		.thumb
 406              		.thumb_func
 407              		.fpu fpv4-sp-d16
 409              	HAL_LTDC_MspInit:
 410              	.LFB128:
 260:./Libraries/STM32F4xx_HAL_Driver/Src/stm32f4xx_hal_ltdc.c **** 
 261:./Libraries/STM32F4xx_HAL_Driver/Src/stm32f4xx_hal_ltdc.c **** /**
 262:./Libraries/STM32F4xx_HAL_Driver/Src/stm32f4xx_hal_ltdc.c ****   * @brief  Initialize the LTDC MSP.
 263:./Libraries/STM32F4xx_HAL_Driver/Src/stm32f4xx_hal_ltdc.c ****   * @param  hltdc  pointer to a LTDC_HandleTypeDef structure that contains
 264:./Libraries/STM32F4xx_HAL_Driver/Src/stm32f4xx_hal_ltdc.c ****   *                the configuration information for the LTDC.
 265:./Libraries/STM32F4xx_HAL_Driver/Src/stm32f4xx_hal_ltdc.c ****   * @retval None
 266:./Libraries/STM32F4xx_HAL_Driver/Src/stm32f4xx_hal_ltdc.c ****   */
 267:./Libraries/STM32F4xx_HAL_Driver/Src/stm32f4xx_hal_ltdc.c **** __weak void HAL_LTDC_MspInit(LTDC_HandleTypeDef* hltdc)
 268:./Libraries/STM32F4xx_HAL_Driver/Src/stm32f4xx_hal_ltdc.c **** {
 411              		.loc 1 268 1
 412              		.cfi_startproc
 413              		@ args = 0, pretend = 0, frame = 8
 414              		@ frame_needed = 1, uses_anonymous_args = 0
 415              		@ link register save eliminated.
 416 0000 80B4     		push	{r7}
 417              	.LCFI10:
 418              		.cfi_def_cfa_offset 4
ARM GAS  /tmp/cchxdGeL.s 			page 13


 419              		.cfi_offset 7, -4
 420 0002 83B0     		sub	sp, sp, #12
 421              	.LCFI11:
 422              		.cfi_def_cfa_offset 16
 423 0004 00AF     		add	r7, sp, #0
 424              	.LCFI12:
 425              		.cfi_def_cfa_register 7
 426 0006 7860     		str	r0, [r7, #4]
 269:./Libraries/STM32F4xx_HAL_Driver/Src/stm32f4xx_hal_ltdc.c ****   /* Prevent unused argument(s) compilation warning */
 270:./Libraries/STM32F4xx_HAL_Driver/Src/stm32f4xx_hal_ltdc.c ****   UNUSED(hltdc);
 271:./Libraries/STM32F4xx_HAL_Driver/Src/stm32f4xx_hal_ltdc.c ****   
 272:./Libraries/STM32F4xx_HAL_Driver/Src/stm32f4xx_hal_ltdc.c ****   /* NOTE : This function should not be modified, when the callback is needed,
 273:./Libraries/STM32F4xx_HAL_Driver/Src/stm32f4xx_hal_ltdc.c ****             the HAL_LTDC_MspInit could be implemented in the user file
 274:./Libraries/STM32F4xx_HAL_Driver/Src/stm32f4xx_hal_ltdc.c ****    */ 
 275:./Libraries/STM32F4xx_HAL_Driver/Src/stm32f4xx_hal_ltdc.c **** }
 427              		.loc 1 275 1
 428 0008 00BF     		nop
 429 000a 0C37     		adds	r7, r7, #12
 430              	.LCFI13:
 431              		.cfi_def_cfa_offset 4
 432 000c BD46     		mov	sp, r7
 433              	.LCFI14:
 434              		.cfi_def_cfa_register 13
 435              		@ sp needed
 436 000e 5DF8047B 		ldr	r7, [sp], #4
 437              	.LCFI15:
 438              		.cfi_restore 7
 439              		.cfi_def_cfa_offset 0
 440 0012 7047     		bx	lr
 441              		.cfi_endproc
 442              	.LFE128:
 444              		.section	.text.HAL_LTDC_MspDeInit,"ax",%progbits
 445              		.align	1
 446              		.weak	HAL_LTDC_MspDeInit
 447              		.syntax unified
 448              		.thumb
 449              		.thumb_func
 450              		.fpu fpv4-sp-d16
 452              	HAL_LTDC_MspDeInit:
 453              	.LFB129:
 276:./Libraries/STM32F4xx_HAL_Driver/Src/stm32f4xx_hal_ltdc.c **** 
 277:./Libraries/STM32F4xx_HAL_Driver/Src/stm32f4xx_hal_ltdc.c **** /**
 278:./Libraries/STM32F4xx_HAL_Driver/Src/stm32f4xx_hal_ltdc.c ****   * @brief  De-initialize the LTDC MSP.
 279:./Libraries/STM32F4xx_HAL_Driver/Src/stm32f4xx_hal_ltdc.c ****   * @param  hltdc  pointer to a LTDC_HandleTypeDef structure that contains
 280:./Libraries/STM32F4xx_HAL_Driver/Src/stm32f4xx_hal_ltdc.c ****   *                the configuration information for the LTDC.
 281:./Libraries/STM32F4xx_HAL_Driver/Src/stm32f4xx_hal_ltdc.c ****   * @retval None
 282:./Libraries/STM32F4xx_HAL_Driver/Src/stm32f4xx_hal_ltdc.c ****   */
 283:./Libraries/STM32F4xx_HAL_Driver/Src/stm32f4xx_hal_ltdc.c **** __weak void HAL_LTDC_MspDeInit(LTDC_HandleTypeDef* hltdc)
 284:./Libraries/STM32F4xx_HAL_Driver/Src/stm32f4xx_hal_ltdc.c **** {
 454              		.loc 1 284 1
 455              		.cfi_startproc
 456              		@ args = 0, pretend = 0, frame = 8
 457              		@ frame_needed = 1, uses_anonymous_args = 0
 458              		@ link register save eliminated.
 459 0000 80B4     		push	{r7}
 460              	.LCFI16:
 461              		.cfi_def_cfa_offset 4
ARM GAS  /tmp/cchxdGeL.s 			page 14


 462              		.cfi_offset 7, -4
 463 0002 83B0     		sub	sp, sp, #12
 464              	.LCFI17:
 465              		.cfi_def_cfa_offset 16
 466 0004 00AF     		add	r7, sp, #0
 467              	.LCFI18:
 468              		.cfi_def_cfa_register 7
 469 0006 7860     		str	r0, [r7, #4]
 285:./Libraries/STM32F4xx_HAL_Driver/Src/stm32f4xx_hal_ltdc.c ****   /* Prevent unused argument(s) compilation warning */
 286:./Libraries/STM32F4xx_HAL_Driver/Src/stm32f4xx_hal_ltdc.c ****   UNUSED(hltdc);
 287:./Libraries/STM32F4xx_HAL_Driver/Src/stm32f4xx_hal_ltdc.c ****   
 288:./Libraries/STM32F4xx_HAL_Driver/Src/stm32f4xx_hal_ltdc.c ****   /* NOTE : This function should not be modified, when the callback is needed,
 289:./Libraries/STM32F4xx_HAL_Driver/Src/stm32f4xx_hal_ltdc.c ****             the HAL_LTDC_MspDeInit could be implemented in the user file
 290:./Libraries/STM32F4xx_HAL_Driver/Src/stm32f4xx_hal_ltdc.c ****    */
 291:./Libraries/STM32F4xx_HAL_Driver/Src/stm32f4xx_hal_ltdc.c **** }
 470              		.loc 1 291 1
 471 0008 00BF     		nop
 472 000a 0C37     		adds	r7, r7, #12
 473              	.LCFI19:
 474              		.cfi_def_cfa_offset 4
 475 000c BD46     		mov	sp, r7
 476              	.LCFI20:
 477              		.cfi_def_cfa_register 13
 478              		@ sp needed
 479 000e 5DF8047B 		ldr	r7, [sp], #4
 480              	.LCFI21:
 481              		.cfi_restore 7
 482              		.cfi_def_cfa_offset 0
 483 0012 7047     		bx	lr
 484              		.cfi_endproc
 485              	.LFE129:
 487              		.section	.text.HAL_LTDC_IRQHandler,"ax",%progbits
 488              		.align	1
 489              		.global	HAL_LTDC_IRQHandler
 490              		.syntax unified
 491              		.thumb
 492              		.thumb_func
 493              		.fpu fpv4-sp-d16
 495              	HAL_LTDC_IRQHandler:
 496              	.LFB130:
 292:./Libraries/STM32F4xx_HAL_Driver/Src/stm32f4xx_hal_ltdc.c **** 
 293:./Libraries/STM32F4xx_HAL_Driver/Src/stm32f4xx_hal_ltdc.c **** /**
 294:./Libraries/STM32F4xx_HAL_Driver/Src/stm32f4xx_hal_ltdc.c ****   * @}
 295:./Libraries/STM32F4xx_HAL_Driver/Src/stm32f4xx_hal_ltdc.c ****   */
 296:./Libraries/STM32F4xx_HAL_Driver/Src/stm32f4xx_hal_ltdc.c ****   
 297:./Libraries/STM32F4xx_HAL_Driver/Src/stm32f4xx_hal_ltdc.c **** /** @defgroup LTDC_Exported_Functions_Group2 IO operation functions 
 298:./Libraries/STM32F4xx_HAL_Driver/Src/stm32f4xx_hal_ltdc.c ****  *  @brief   IO operation functions  
 299:./Libraries/STM32F4xx_HAL_Driver/Src/stm32f4xx_hal_ltdc.c ****  *
 300:./Libraries/STM32F4xx_HAL_Driver/Src/stm32f4xx_hal_ltdc.c **** @verbatim
 301:./Libraries/STM32F4xx_HAL_Driver/Src/stm32f4xx_hal_ltdc.c ****  ===============================================================================
 302:./Libraries/STM32F4xx_HAL_Driver/Src/stm32f4xx_hal_ltdc.c ****                       #####  IO operation functions  #####
 303:./Libraries/STM32F4xx_HAL_Driver/Src/stm32f4xx_hal_ltdc.c ****  ===============================================================================  
 304:./Libraries/STM32F4xx_HAL_Driver/Src/stm32f4xx_hal_ltdc.c ****     [..]  This section provides function allowing to:
 305:./Libraries/STM32F4xx_HAL_Driver/Src/stm32f4xx_hal_ltdc.c ****       (+) Handle LTDC interrupt request
 306:./Libraries/STM32F4xx_HAL_Driver/Src/stm32f4xx_hal_ltdc.c **** 
 307:./Libraries/STM32F4xx_HAL_Driver/Src/stm32f4xx_hal_ltdc.c **** @endverbatim
 308:./Libraries/STM32F4xx_HAL_Driver/Src/stm32f4xx_hal_ltdc.c ****   * @{
ARM GAS  /tmp/cchxdGeL.s 			page 15


 309:./Libraries/STM32F4xx_HAL_Driver/Src/stm32f4xx_hal_ltdc.c ****   */
 310:./Libraries/STM32F4xx_HAL_Driver/Src/stm32f4xx_hal_ltdc.c **** /**
 311:./Libraries/STM32F4xx_HAL_Driver/Src/stm32f4xx_hal_ltdc.c ****   * @brief  Handle LTDC interrupt request.
 312:./Libraries/STM32F4xx_HAL_Driver/Src/stm32f4xx_hal_ltdc.c ****   * @param  hltdc  pointer to a LTDC_HandleTypeDef structure that contains
 313:./Libraries/STM32F4xx_HAL_Driver/Src/stm32f4xx_hal_ltdc.c ****   *                the configuration information for the LTDC.  
 314:./Libraries/STM32F4xx_HAL_Driver/Src/stm32f4xx_hal_ltdc.c ****   * @retval HAL status
 315:./Libraries/STM32F4xx_HAL_Driver/Src/stm32f4xx_hal_ltdc.c ****   */
 316:./Libraries/STM32F4xx_HAL_Driver/Src/stm32f4xx_hal_ltdc.c **** void HAL_LTDC_IRQHandler(LTDC_HandleTypeDef *hltdc)
 317:./Libraries/STM32F4xx_HAL_Driver/Src/stm32f4xx_hal_ltdc.c **** {
 497              		.loc 1 317 1
 498              		.cfi_startproc
 499              		@ args = 0, pretend = 0, frame = 16
 500              		@ frame_needed = 1, uses_anonymous_args = 0
 501 0000 80B5     		push	{r7, lr}
 502              	.LCFI22:
 503              		.cfi_def_cfa_offset 8
 504              		.cfi_offset 7, -8
 505              		.cfi_offset 14, -4
 506 0002 84B0     		sub	sp, sp, #16
 507              	.LCFI23:
 508              		.cfi_def_cfa_offset 24
 509 0004 00AF     		add	r7, sp, #0
 510              	.LCFI24:
 511              		.cfi_def_cfa_register 7
 512 0006 7860     		str	r0, [r7, #4]
 318:./Libraries/STM32F4xx_HAL_Driver/Src/stm32f4xx_hal_ltdc.c ****   uint32_t isrflags  = READ_REG(hltdc->Instance->ISR);
 513              		.loc 1 318 24
 514 0008 7B68     		ldr	r3, [r7, #4]
 515 000a 1B68     		ldr	r3, [r3]
 516              		.loc 1 318 12
 517 000c 9B6B     		ldr	r3, [r3, #56]
 518 000e FB60     		str	r3, [r7, #12]
 319:./Libraries/STM32F4xx_HAL_Driver/Src/stm32f4xx_hal_ltdc.c ****   uint32_t itsources = READ_REG(hltdc->Instance->IER);
 519              		.loc 1 319 24
 520 0010 7B68     		ldr	r3, [r7, #4]
 521 0012 1B68     		ldr	r3, [r3]
 522              		.loc 1 319 12
 523 0014 5B6B     		ldr	r3, [r3, #52]
 524 0016 BB60     		str	r3, [r7, #8]
 320:./Libraries/STM32F4xx_HAL_Driver/Src/stm32f4xx_hal_ltdc.c ****   
 321:./Libraries/STM32F4xx_HAL_Driver/Src/stm32f4xx_hal_ltdc.c ****   /* Transfer Error Interrupt management ***************************************/
 322:./Libraries/STM32F4xx_HAL_Driver/Src/stm32f4xx_hal_ltdc.c ****   if(((isrflags & LTDC_ISR_TERRIF) != RESET) && ((itsources & LTDC_IER_TERRIE) != RESET))
 525              		.loc 1 322 17
 526 0018 FB68     		ldr	r3, [r7, #12]
 527 001a 03F00403 		and	r3, r3, #4
 528              		.loc 1 322 5
 529 001e 002B     		cmp	r3, #0
 530 0020 23D0     		beq	.L12
 531              		.loc 1 322 61 discriminator 1
 532 0022 BB68     		ldr	r3, [r7, #8]
 533 0024 03F00403 		and	r3, r3, #4
 534              		.loc 1 322 46 discriminator 1
 535 0028 002B     		cmp	r3, #0
 536 002a 1ED0     		beq	.L12
 323:./Libraries/STM32F4xx_HAL_Driver/Src/stm32f4xx_hal_ltdc.c ****   {
 324:./Libraries/STM32F4xx_HAL_Driver/Src/stm32f4xx_hal_ltdc.c ****     /* Disable the transfer Error interrupt */
 325:./Libraries/STM32F4xx_HAL_Driver/Src/stm32f4xx_hal_ltdc.c ****     __HAL_LTDC_DISABLE_IT(hltdc, LTDC_IT_TE);
ARM GAS  /tmp/cchxdGeL.s 			page 16


 537              		.loc 1 325 5
 538 002c 7B68     		ldr	r3, [r7, #4]
 539 002e 1B68     		ldr	r3, [r3]
 540 0030 5A6B     		ldr	r2, [r3, #52]
 541 0032 7B68     		ldr	r3, [r7, #4]
 542 0034 1B68     		ldr	r3, [r3]
 543 0036 22F00402 		bic	r2, r2, #4
 544 003a 5A63     		str	r2, [r3, #52]
 326:./Libraries/STM32F4xx_HAL_Driver/Src/stm32f4xx_hal_ltdc.c **** 
 327:./Libraries/STM32F4xx_HAL_Driver/Src/stm32f4xx_hal_ltdc.c ****     /* Clear the transfer error flag */
 328:./Libraries/STM32F4xx_HAL_Driver/Src/stm32f4xx_hal_ltdc.c ****     __HAL_LTDC_CLEAR_FLAG(hltdc, LTDC_FLAG_TE);
 545              		.loc 1 328 5
 546 003c 7B68     		ldr	r3, [r7, #4]
 547 003e 1B68     		ldr	r3, [r3]
 548 0040 0422     		movs	r2, #4
 549 0042 DA63     		str	r2, [r3, #60]
 329:./Libraries/STM32F4xx_HAL_Driver/Src/stm32f4xx_hal_ltdc.c **** 
 330:./Libraries/STM32F4xx_HAL_Driver/Src/stm32f4xx_hal_ltdc.c ****     /* Update error code */
 331:./Libraries/STM32F4xx_HAL_Driver/Src/stm32f4xx_hal_ltdc.c ****     hltdc->ErrorCode |= HAL_LTDC_ERROR_TE;
 550              		.loc 1 331 22
 551 0044 7B68     		ldr	r3, [r7, #4]
 552 0046 D3F8A430 		ldr	r3, [r3, #164]
 553 004a 43F00102 		orr	r2, r3, #1
 554 004e 7B68     		ldr	r3, [r7, #4]
 555 0050 C3F8A420 		str	r2, [r3, #164]
 332:./Libraries/STM32F4xx_HAL_Driver/Src/stm32f4xx_hal_ltdc.c **** 
 333:./Libraries/STM32F4xx_HAL_Driver/Src/stm32f4xx_hal_ltdc.c ****     /* Change LTDC state */
 334:./Libraries/STM32F4xx_HAL_Driver/Src/stm32f4xx_hal_ltdc.c ****     hltdc->State = HAL_LTDC_STATE_ERROR;
 556              		.loc 1 334 18
 557 0054 7B68     		ldr	r3, [r7, #4]
 558 0056 0422     		movs	r2, #4
 559 0058 83F8A120 		strb	r2, [r3, #161]
 335:./Libraries/STM32F4xx_HAL_Driver/Src/stm32f4xx_hal_ltdc.c **** 
 336:./Libraries/STM32F4xx_HAL_Driver/Src/stm32f4xx_hal_ltdc.c ****     /* Process unlocked */
 337:./Libraries/STM32F4xx_HAL_Driver/Src/stm32f4xx_hal_ltdc.c ****     __HAL_UNLOCK(hltdc);
 560              		.loc 1 337 5
 561 005c 7B68     		ldr	r3, [r7, #4]
 562 005e 0022     		movs	r2, #0
 563 0060 83F8A020 		strb	r2, [r3, #160]
 338:./Libraries/STM32F4xx_HAL_Driver/Src/stm32f4xx_hal_ltdc.c **** 
 339:./Libraries/STM32F4xx_HAL_Driver/Src/stm32f4xx_hal_ltdc.c ****     /* Transfer error Callback */
 340:./Libraries/STM32F4xx_HAL_Driver/Src/stm32f4xx_hal_ltdc.c ****     HAL_LTDC_ErrorCallback(hltdc);
 564              		.loc 1 340 5
 565 0064 7868     		ldr	r0, [r7, #4]
 566 0066 FFF7FEFF 		bl	HAL_LTDC_ErrorCallback
 567              	.L12:
 341:./Libraries/STM32F4xx_HAL_Driver/Src/stm32f4xx_hal_ltdc.c ****   }
 342:./Libraries/STM32F4xx_HAL_Driver/Src/stm32f4xx_hal_ltdc.c **** 
 343:./Libraries/STM32F4xx_HAL_Driver/Src/stm32f4xx_hal_ltdc.c ****   /* FIFO underrun Interrupt management ***************************************/
 344:./Libraries/STM32F4xx_HAL_Driver/Src/stm32f4xx_hal_ltdc.c ****   if(((isrflags & LTDC_ISR_FUIF) != RESET) && ((itsources & LTDC_IER_FUIE) != RESET))
 568              		.loc 1 344 17
 569 006a FB68     		ldr	r3, [r7, #12]
 570 006c 03F00203 		and	r3, r3, #2
 571              		.loc 1 344 5
 572 0070 002B     		cmp	r3, #0
 573 0072 23D0     		beq	.L13
 574              		.loc 1 344 59 discriminator 1
ARM GAS  /tmp/cchxdGeL.s 			page 17


 575 0074 BB68     		ldr	r3, [r7, #8]
 576 0076 03F00203 		and	r3, r3, #2
 577              		.loc 1 344 44 discriminator 1
 578 007a 002B     		cmp	r3, #0
 579 007c 1ED0     		beq	.L13
 345:./Libraries/STM32F4xx_HAL_Driver/Src/stm32f4xx_hal_ltdc.c ****   {
 346:./Libraries/STM32F4xx_HAL_Driver/Src/stm32f4xx_hal_ltdc.c ****     /* Disable the FIFO underrun interrupt */
 347:./Libraries/STM32F4xx_HAL_Driver/Src/stm32f4xx_hal_ltdc.c ****     __HAL_LTDC_DISABLE_IT(hltdc, LTDC_IT_FU);
 580              		.loc 1 347 5
 581 007e 7B68     		ldr	r3, [r7, #4]
 582 0080 1B68     		ldr	r3, [r3]
 583 0082 5A6B     		ldr	r2, [r3, #52]
 584 0084 7B68     		ldr	r3, [r7, #4]
 585 0086 1B68     		ldr	r3, [r3]
 586 0088 22F00202 		bic	r2, r2, #2
 587 008c 5A63     		str	r2, [r3, #52]
 348:./Libraries/STM32F4xx_HAL_Driver/Src/stm32f4xx_hal_ltdc.c **** 
 349:./Libraries/STM32F4xx_HAL_Driver/Src/stm32f4xx_hal_ltdc.c ****     /* Clear the FIFO underrun flag */
 350:./Libraries/STM32F4xx_HAL_Driver/Src/stm32f4xx_hal_ltdc.c ****     __HAL_LTDC_CLEAR_FLAG(hltdc, LTDC_FLAG_FU);
 588              		.loc 1 350 5
 589 008e 7B68     		ldr	r3, [r7, #4]
 590 0090 1B68     		ldr	r3, [r3]
 591 0092 0222     		movs	r2, #2
 592 0094 DA63     		str	r2, [r3, #60]
 351:./Libraries/STM32F4xx_HAL_Driver/Src/stm32f4xx_hal_ltdc.c **** 
 352:./Libraries/STM32F4xx_HAL_Driver/Src/stm32f4xx_hal_ltdc.c ****     /* Update error code */
 353:./Libraries/STM32F4xx_HAL_Driver/Src/stm32f4xx_hal_ltdc.c ****     hltdc->ErrorCode |= HAL_LTDC_ERROR_FU;
 593              		.loc 1 353 22
 594 0096 7B68     		ldr	r3, [r7, #4]
 595 0098 D3F8A430 		ldr	r3, [r3, #164]
 596 009c 43F00202 		orr	r2, r3, #2
 597 00a0 7B68     		ldr	r3, [r7, #4]
 598 00a2 C3F8A420 		str	r2, [r3, #164]
 354:./Libraries/STM32F4xx_HAL_Driver/Src/stm32f4xx_hal_ltdc.c **** 
 355:./Libraries/STM32F4xx_HAL_Driver/Src/stm32f4xx_hal_ltdc.c ****     /* Change LTDC state */
 356:./Libraries/STM32F4xx_HAL_Driver/Src/stm32f4xx_hal_ltdc.c ****     hltdc->State = HAL_LTDC_STATE_ERROR;
 599              		.loc 1 356 18
 600 00a6 7B68     		ldr	r3, [r7, #4]
 601 00a8 0422     		movs	r2, #4
 602 00aa 83F8A120 		strb	r2, [r3, #161]
 357:./Libraries/STM32F4xx_HAL_Driver/Src/stm32f4xx_hal_ltdc.c **** 
 358:./Libraries/STM32F4xx_HAL_Driver/Src/stm32f4xx_hal_ltdc.c ****     /* Process unlocked */
 359:./Libraries/STM32F4xx_HAL_Driver/Src/stm32f4xx_hal_ltdc.c ****     __HAL_UNLOCK(hltdc);
 603              		.loc 1 359 5
 604 00ae 7B68     		ldr	r3, [r7, #4]
 605 00b0 0022     		movs	r2, #0
 606 00b2 83F8A020 		strb	r2, [r3, #160]
 360:./Libraries/STM32F4xx_HAL_Driver/Src/stm32f4xx_hal_ltdc.c ****       
 361:./Libraries/STM32F4xx_HAL_Driver/Src/stm32f4xx_hal_ltdc.c ****     /* Transfer error Callback */
 362:./Libraries/STM32F4xx_HAL_Driver/Src/stm32f4xx_hal_ltdc.c ****     HAL_LTDC_ErrorCallback(hltdc);
 607              		.loc 1 362 5
 608 00b6 7868     		ldr	r0, [r7, #4]
 609 00b8 FFF7FEFF 		bl	HAL_LTDC_ErrorCallback
 610              	.L13:
 363:./Libraries/STM32F4xx_HAL_Driver/Src/stm32f4xx_hal_ltdc.c ****   }
 364:./Libraries/STM32F4xx_HAL_Driver/Src/stm32f4xx_hal_ltdc.c **** 
 365:./Libraries/STM32F4xx_HAL_Driver/Src/stm32f4xx_hal_ltdc.c ****   /* Line Interrupt management ************************************************/
ARM GAS  /tmp/cchxdGeL.s 			page 18


 366:./Libraries/STM32F4xx_HAL_Driver/Src/stm32f4xx_hal_ltdc.c ****   if(((isrflags & LTDC_ISR_LIF) != RESET) && ((itsources & LTDC_IER_LIE) != RESET))
 611              		.loc 1 366 17
 612 00bc FB68     		ldr	r3, [r7, #12]
 613 00be 03F00103 		and	r3, r3, #1
 614              		.loc 1 366 5
 615 00c2 002B     		cmp	r3, #0
 616 00c4 1BD0     		beq	.L14
 617              		.loc 1 366 58 discriminator 1
 618 00c6 BB68     		ldr	r3, [r7, #8]
 619 00c8 03F00103 		and	r3, r3, #1
 620              		.loc 1 366 43 discriminator 1
 621 00cc 002B     		cmp	r3, #0
 622 00ce 16D0     		beq	.L14
 367:./Libraries/STM32F4xx_HAL_Driver/Src/stm32f4xx_hal_ltdc.c ****   {
 368:./Libraries/STM32F4xx_HAL_Driver/Src/stm32f4xx_hal_ltdc.c ****     /* Disable the Line interrupt */
 369:./Libraries/STM32F4xx_HAL_Driver/Src/stm32f4xx_hal_ltdc.c ****     __HAL_LTDC_DISABLE_IT(hltdc, LTDC_IT_LI);
 623              		.loc 1 369 5
 624 00d0 7B68     		ldr	r3, [r7, #4]
 625 00d2 1B68     		ldr	r3, [r3]
 626 00d4 5A6B     		ldr	r2, [r3, #52]
 627 00d6 7B68     		ldr	r3, [r7, #4]
 628 00d8 1B68     		ldr	r3, [r3]
 629 00da 22F00102 		bic	r2, r2, #1
 630 00de 5A63     		str	r2, [r3, #52]
 370:./Libraries/STM32F4xx_HAL_Driver/Src/stm32f4xx_hal_ltdc.c **** 
 371:./Libraries/STM32F4xx_HAL_Driver/Src/stm32f4xx_hal_ltdc.c ****     /* Clear the Line interrupt flag */  
 372:./Libraries/STM32F4xx_HAL_Driver/Src/stm32f4xx_hal_ltdc.c ****     __HAL_LTDC_CLEAR_FLAG(hltdc, LTDC_FLAG_LI);
 631              		.loc 1 372 5
 632 00e0 7B68     		ldr	r3, [r7, #4]
 633 00e2 1B68     		ldr	r3, [r3]
 634 00e4 0122     		movs	r2, #1
 635 00e6 DA63     		str	r2, [r3, #60]
 373:./Libraries/STM32F4xx_HAL_Driver/Src/stm32f4xx_hal_ltdc.c **** 
 374:./Libraries/STM32F4xx_HAL_Driver/Src/stm32f4xx_hal_ltdc.c ****     /* Change LTDC state */
 375:./Libraries/STM32F4xx_HAL_Driver/Src/stm32f4xx_hal_ltdc.c ****     hltdc->State = HAL_LTDC_STATE_READY;
 636              		.loc 1 375 18
 637 00e8 7B68     		ldr	r3, [r7, #4]
 638 00ea 0122     		movs	r2, #1
 639 00ec 83F8A120 		strb	r2, [r3, #161]
 376:./Libraries/STM32F4xx_HAL_Driver/Src/stm32f4xx_hal_ltdc.c **** 
 377:./Libraries/STM32F4xx_HAL_Driver/Src/stm32f4xx_hal_ltdc.c ****     /* Process unlocked */
 378:./Libraries/STM32F4xx_HAL_Driver/Src/stm32f4xx_hal_ltdc.c ****     __HAL_UNLOCK(hltdc);
 640              		.loc 1 378 5
 641 00f0 7B68     		ldr	r3, [r7, #4]
 642 00f2 0022     		movs	r2, #0
 643 00f4 83F8A020 		strb	r2, [r3, #160]
 379:./Libraries/STM32F4xx_HAL_Driver/Src/stm32f4xx_hal_ltdc.c **** 
 380:./Libraries/STM32F4xx_HAL_Driver/Src/stm32f4xx_hal_ltdc.c ****     /* Line interrupt Callback */
 381:./Libraries/STM32F4xx_HAL_Driver/Src/stm32f4xx_hal_ltdc.c ****     HAL_LTDC_LineEventCallback(hltdc);
 644              		.loc 1 381 5
 645 00f8 7868     		ldr	r0, [r7, #4]
 646 00fa FFF7FEFF 		bl	HAL_LTDC_LineEventCallback
 647              	.L14:
 382:./Libraries/STM32F4xx_HAL_Driver/Src/stm32f4xx_hal_ltdc.c ****   }
 383:./Libraries/STM32F4xx_HAL_Driver/Src/stm32f4xx_hal_ltdc.c **** 
 384:./Libraries/STM32F4xx_HAL_Driver/Src/stm32f4xx_hal_ltdc.c ****   /* Register reload Interrupt management ***************************************/
 385:./Libraries/STM32F4xx_HAL_Driver/Src/stm32f4xx_hal_ltdc.c ****   if(((isrflags & LTDC_ISR_RRIF) != RESET) && ((itsources & LTDC_IER_RRIE) != RESET))
ARM GAS  /tmp/cchxdGeL.s 			page 19


 648              		.loc 1 385 17
 649 00fe FB68     		ldr	r3, [r7, #12]
 650 0100 03F00803 		and	r3, r3, #8
 651              		.loc 1 385 5
 652 0104 002B     		cmp	r3, #0
 653 0106 1BD0     		beq	.L16
 654              		.loc 1 385 59 discriminator 1
 655 0108 BB68     		ldr	r3, [r7, #8]
 656 010a 03F00803 		and	r3, r3, #8
 657              		.loc 1 385 44 discriminator 1
 658 010e 002B     		cmp	r3, #0
 659 0110 16D0     		beq	.L16
 386:./Libraries/STM32F4xx_HAL_Driver/Src/stm32f4xx_hal_ltdc.c ****   {
 387:./Libraries/STM32F4xx_HAL_Driver/Src/stm32f4xx_hal_ltdc.c ****     /* Disable the register reload interrupt */
 388:./Libraries/STM32F4xx_HAL_Driver/Src/stm32f4xx_hal_ltdc.c ****     __HAL_LTDC_DISABLE_IT(hltdc, LTDC_IT_RR);
 660              		.loc 1 388 5
 661 0112 7B68     		ldr	r3, [r7, #4]
 662 0114 1B68     		ldr	r3, [r3]
 663 0116 5A6B     		ldr	r2, [r3, #52]
 664 0118 7B68     		ldr	r3, [r7, #4]
 665 011a 1B68     		ldr	r3, [r3]
 666 011c 22F00802 		bic	r2, r2, #8
 667 0120 5A63     		str	r2, [r3, #52]
 389:./Libraries/STM32F4xx_HAL_Driver/Src/stm32f4xx_hal_ltdc.c ****       
 390:./Libraries/STM32F4xx_HAL_Driver/Src/stm32f4xx_hal_ltdc.c ****     /* Clear the register reload flag */
 391:./Libraries/STM32F4xx_HAL_Driver/Src/stm32f4xx_hal_ltdc.c ****     __HAL_LTDC_CLEAR_FLAG(hltdc, LTDC_FLAG_RR);
 668              		.loc 1 391 5
 669 0122 7B68     		ldr	r3, [r7, #4]
 670 0124 1B68     		ldr	r3, [r3]
 671 0126 0822     		movs	r2, #8
 672 0128 DA63     		str	r2, [r3, #60]
 392:./Libraries/STM32F4xx_HAL_Driver/Src/stm32f4xx_hal_ltdc.c ****       
 393:./Libraries/STM32F4xx_HAL_Driver/Src/stm32f4xx_hal_ltdc.c ****     /* Change LTDC state */
 394:./Libraries/STM32F4xx_HAL_Driver/Src/stm32f4xx_hal_ltdc.c ****     hltdc->State = HAL_LTDC_STATE_READY;
 673              		.loc 1 394 18
 674 012a 7B68     		ldr	r3, [r7, #4]
 675 012c 0122     		movs	r2, #1
 676 012e 83F8A120 		strb	r2, [r3, #161]
 395:./Libraries/STM32F4xx_HAL_Driver/Src/stm32f4xx_hal_ltdc.c ****       
 396:./Libraries/STM32F4xx_HAL_Driver/Src/stm32f4xx_hal_ltdc.c ****     /* Process unlocked */
 397:./Libraries/STM32F4xx_HAL_Driver/Src/stm32f4xx_hal_ltdc.c ****     __HAL_UNLOCK(hltdc);
 677              		.loc 1 397 5
 678 0132 7B68     		ldr	r3, [r7, #4]
 679 0134 0022     		movs	r2, #0
 680 0136 83F8A020 		strb	r2, [r3, #160]
 398:./Libraries/STM32F4xx_HAL_Driver/Src/stm32f4xx_hal_ltdc.c ****       
 399:./Libraries/STM32F4xx_HAL_Driver/Src/stm32f4xx_hal_ltdc.c ****     /* Register reload interrupt Callback */
 400:./Libraries/STM32F4xx_HAL_Driver/Src/stm32f4xx_hal_ltdc.c ****     HAL_LTDC_ReloadEventCallback(hltdc);
 681              		.loc 1 400 5
 682 013a 7868     		ldr	r0, [r7, #4]
 683 013c FFF7FEFF 		bl	HAL_LTDC_ReloadEventCallback
 684              	.L16:
 401:./Libraries/STM32F4xx_HAL_Driver/Src/stm32f4xx_hal_ltdc.c ****   }
 402:./Libraries/STM32F4xx_HAL_Driver/Src/stm32f4xx_hal_ltdc.c **** }
 685              		.loc 1 402 1
 686 0140 00BF     		nop
 687 0142 1037     		adds	r7, r7, #16
ARM GAS  /tmp/cchxdGeL.s 			page 20


 688              	.LCFI25:
 689              		.cfi_def_cfa_offset 8
 690 0144 BD46     		mov	sp, r7
 691              	.LCFI26:
 692              		.cfi_def_cfa_register 13
 693              		@ sp needed
 694 0146 80BD     		pop	{r7, pc}
 695              		.cfi_endproc
 696              	.LFE130:
 698              		.section	.text.HAL_LTDC_ErrorCallback,"ax",%progbits
 699              		.align	1
 700              		.weak	HAL_LTDC_ErrorCallback
 701              		.syntax unified
 702              		.thumb
 703              		.thumb_func
 704              		.fpu fpv4-sp-d16
 706              	HAL_LTDC_ErrorCallback:
 707              	.LFB131:
 403:./Libraries/STM32F4xx_HAL_Driver/Src/stm32f4xx_hal_ltdc.c **** 
 404:./Libraries/STM32F4xx_HAL_Driver/Src/stm32f4xx_hal_ltdc.c **** /**
 405:./Libraries/STM32F4xx_HAL_Driver/Src/stm32f4xx_hal_ltdc.c ****   * @brief  Error LTDC callback.
 406:./Libraries/STM32F4xx_HAL_Driver/Src/stm32f4xx_hal_ltdc.c ****   * @param  hltdc  pointer to a LTDC_HandleTypeDef structure that contains
 407:./Libraries/STM32F4xx_HAL_Driver/Src/stm32f4xx_hal_ltdc.c ****   *                the configuration information for the LTDC.
 408:./Libraries/STM32F4xx_HAL_Driver/Src/stm32f4xx_hal_ltdc.c ****   * @retval None
 409:./Libraries/STM32F4xx_HAL_Driver/Src/stm32f4xx_hal_ltdc.c ****   */
 410:./Libraries/STM32F4xx_HAL_Driver/Src/stm32f4xx_hal_ltdc.c **** __weak void HAL_LTDC_ErrorCallback(LTDC_HandleTypeDef *hltdc)
 411:./Libraries/STM32F4xx_HAL_Driver/Src/stm32f4xx_hal_ltdc.c **** {
 708              		.loc 1 411 1
 709              		.cfi_startproc
 710              		@ args = 0, pretend = 0, frame = 8
 711              		@ frame_needed = 1, uses_anonymous_args = 0
 712              		@ link register save eliminated.
 713 0000 80B4     		push	{r7}
 714              	.LCFI27:
 715              		.cfi_def_cfa_offset 4
 716              		.cfi_offset 7, -4
 717 0002 83B0     		sub	sp, sp, #12
 718              	.LCFI28:
 719              		.cfi_def_cfa_offset 16
 720 0004 00AF     		add	r7, sp, #0
 721              	.LCFI29:
 722              		.cfi_def_cfa_register 7
 723 0006 7860     		str	r0, [r7, #4]
 412:./Libraries/STM32F4xx_HAL_Driver/Src/stm32f4xx_hal_ltdc.c ****   /* Prevent unused argument(s) compilation warning */
 413:./Libraries/STM32F4xx_HAL_Driver/Src/stm32f4xx_hal_ltdc.c ****   UNUSED(hltdc);
 414:./Libraries/STM32F4xx_HAL_Driver/Src/stm32f4xx_hal_ltdc.c ****   
 415:./Libraries/STM32F4xx_HAL_Driver/Src/stm32f4xx_hal_ltdc.c ****   /* NOTE : This function should not be modified, when the callback is needed,
 416:./Libraries/STM32F4xx_HAL_Driver/Src/stm32f4xx_hal_ltdc.c ****             the HAL_LTDC_ErrorCallback could be implemented in the user file
 417:./Libraries/STM32F4xx_HAL_Driver/Src/stm32f4xx_hal_ltdc.c ****    */
 418:./Libraries/STM32F4xx_HAL_Driver/Src/stm32f4xx_hal_ltdc.c **** }
 724              		.loc 1 418 1
 725 0008 00BF     		nop
 726 000a 0C37     		adds	r7, r7, #12
 727              	.LCFI30:
 728              		.cfi_def_cfa_offset 4
 729 000c BD46     		mov	sp, r7
 730              	.LCFI31:
ARM GAS  /tmp/cchxdGeL.s 			page 21


 731              		.cfi_def_cfa_register 13
 732              		@ sp needed
 733 000e 5DF8047B 		ldr	r7, [sp], #4
 734              	.LCFI32:
 735              		.cfi_restore 7
 736              		.cfi_def_cfa_offset 0
 737 0012 7047     		bx	lr
 738              		.cfi_endproc
 739              	.LFE131:
 741              		.section	.text.HAL_LTDC_LineEventCallback,"ax",%progbits
 742              		.align	1
 743              		.weak	HAL_LTDC_LineEventCallback
 744              		.syntax unified
 745              		.thumb
 746              		.thumb_func
 747              		.fpu fpv4-sp-d16
 749              	HAL_LTDC_LineEventCallback:
 750              	.LFB132:
 419:./Libraries/STM32F4xx_HAL_Driver/Src/stm32f4xx_hal_ltdc.c **** 
 420:./Libraries/STM32F4xx_HAL_Driver/Src/stm32f4xx_hal_ltdc.c **** /**
 421:./Libraries/STM32F4xx_HAL_Driver/Src/stm32f4xx_hal_ltdc.c ****   * @brief  Line Event callback.
 422:./Libraries/STM32F4xx_HAL_Driver/Src/stm32f4xx_hal_ltdc.c ****   * @param  hltdc  pointer to a LTDC_HandleTypeDef structure that contains
 423:./Libraries/STM32F4xx_HAL_Driver/Src/stm32f4xx_hal_ltdc.c ****   *                the configuration information for the LTDC.
 424:./Libraries/STM32F4xx_HAL_Driver/Src/stm32f4xx_hal_ltdc.c ****   * @retval None
 425:./Libraries/STM32F4xx_HAL_Driver/Src/stm32f4xx_hal_ltdc.c ****   */
 426:./Libraries/STM32F4xx_HAL_Driver/Src/stm32f4xx_hal_ltdc.c **** __weak void HAL_LTDC_LineEventCallback(LTDC_HandleTypeDef *hltdc)
 427:./Libraries/STM32F4xx_HAL_Driver/Src/stm32f4xx_hal_ltdc.c **** {
 751              		.loc 1 427 1
 752              		.cfi_startproc
 753              		@ args = 0, pretend = 0, frame = 8
 754              		@ frame_needed = 1, uses_anonymous_args = 0
 755              		@ link register save eliminated.
 756 0000 80B4     		push	{r7}
 757              	.LCFI33:
 758              		.cfi_def_cfa_offset 4
 759              		.cfi_offset 7, -4
 760 0002 83B0     		sub	sp, sp, #12
 761              	.LCFI34:
 762              		.cfi_def_cfa_offset 16
 763 0004 00AF     		add	r7, sp, #0
 764              	.LCFI35:
 765              		.cfi_def_cfa_register 7
 766 0006 7860     		str	r0, [r7, #4]
 428:./Libraries/STM32F4xx_HAL_Driver/Src/stm32f4xx_hal_ltdc.c ****   /* Prevent unused argument(s) compilation warning */
 429:./Libraries/STM32F4xx_HAL_Driver/Src/stm32f4xx_hal_ltdc.c ****   UNUSED(hltdc);
 430:./Libraries/STM32F4xx_HAL_Driver/Src/stm32f4xx_hal_ltdc.c ****   
 431:./Libraries/STM32F4xx_HAL_Driver/Src/stm32f4xx_hal_ltdc.c ****   /* NOTE : This function should not be modified, when the callback is needed,
 432:./Libraries/STM32F4xx_HAL_Driver/Src/stm32f4xx_hal_ltdc.c ****             the HAL_LTDC_LineEventCallback could be implemented in the user file
 433:./Libraries/STM32F4xx_HAL_Driver/Src/stm32f4xx_hal_ltdc.c ****    */
 434:./Libraries/STM32F4xx_HAL_Driver/Src/stm32f4xx_hal_ltdc.c **** }
 767              		.loc 1 434 1
 768 0008 00BF     		nop
 769 000a 0C37     		adds	r7, r7, #12
 770              	.LCFI36:
 771              		.cfi_def_cfa_offset 4
 772 000c BD46     		mov	sp, r7
 773              	.LCFI37:
ARM GAS  /tmp/cchxdGeL.s 			page 22


 774              		.cfi_def_cfa_register 13
 775              		@ sp needed
 776 000e 5DF8047B 		ldr	r7, [sp], #4
 777              	.LCFI38:
 778              		.cfi_restore 7
 779              		.cfi_def_cfa_offset 0
 780 0012 7047     		bx	lr
 781              		.cfi_endproc
 782              	.LFE132:
 784              		.section	.text.HAL_LTDC_ReloadEventCallback,"ax",%progbits
 785              		.align	1
 786              		.weak	HAL_LTDC_ReloadEventCallback
 787              		.syntax unified
 788              		.thumb
 789              		.thumb_func
 790              		.fpu fpv4-sp-d16
 792              	HAL_LTDC_ReloadEventCallback:
 793              	.LFB133:
 435:./Libraries/STM32F4xx_HAL_Driver/Src/stm32f4xx_hal_ltdc.c **** 
 436:./Libraries/STM32F4xx_HAL_Driver/Src/stm32f4xx_hal_ltdc.c **** /**
 437:./Libraries/STM32F4xx_HAL_Driver/Src/stm32f4xx_hal_ltdc.c ****   * @brief  Reload Event callback.
 438:./Libraries/STM32F4xx_HAL_Driver/Src/stm32f4xx_hal_ltdc.c ****   * @param  hltdc  pointer to a LTDC_HandleTypeDef structure that contains
 439:./Libraries/STM32F4xx_HAL_Driver/Src/stm32f4xx_hal_ltdc.c ****   *                the configuration information for the LTDC.
 440:./Libraries/STM32F4xx_HAL_Driver/Src/stm32f4xx_hal_ltdc.c ****   * @retval None
 441:./Libraries/STM32F4xx_HAL_Driver/Src/stm32f4xx_hal_ltdc.c ****   */
 442:./Libraries/STM32F4xx_HAL_Driver/Src/stm32f4xx_hal_ltdc.c **** __weak void HAL_LTDC_ReloadEventCallback(LTDC_HandleTypeDef *hltdc)
 443:./Libraries/STM32F4xx_HAL_Driver/Src/stm32f4xx_hal_ltdc.c **** {
 794              		.loc 1 443 1
 795              		.cfi_startproc
 796              		@ args = 0, pretend = 0, frame = 8
 797              		@ frame_needed = 1, uses_anonymous_args = 0
 798              		@ link register save eliminated.
 799 0000 80B4     		push	{r7}
 800              	.LCFI39:
 801              		.cfi_def_cfa_offset 4
 802              		.cfi_offset 7, -4
 803 0002 83B0     		sub	sp, sp, #12
 804              	.LCFI40:
 805              		.cfi_def_cfa_offset 16
 806 0004 00AF     		add	r7, sp, #0
 807              	.LCFI41:
 808              		.cfi_def_cfa_register 7
 809 0006 7860     		str	r0, [r7, #4]
 444:./Libraries/STM32F4xx_HAL_Driver/Src/stm32f4xx_hal_ltdc.c ****   /* Prevent unused argument(s) compilation warning */
 445:./Libraries/STM32F4xx_HAL_Driver/Src/stm32f4xx_hal_ltdc.c ****   UNUSED(hltdc);
 446:./Libraries/STM32F4xx_HAL_Driver/Src/stm32f4xx_hal_ltdc.c ****   
 447:./Libraries/STM32F4xx_HAL_Driver/Src/stm32f4xx_hal_ltdc.c ****   /* NOTE : This function should not be modified, when the callback is needed,
 448:./Libraries/STM32F4xx_HAL_Driver/Src/stm32f4xx_hal_ltdc.c ****             the HAL_LTDC_ReloadEvenCallback could be implemented in the user file
 449:./Libraries/STM32F4xx_HAL_Driver/Src/stm32f4xx_hal_ltdc.c ****    */
 450:./Libraries/STM32F4xx_HAL_Driver/Src/stm32f4xx_hal_ltdc.c **** }
 810              		.loc 1 450 1
 811 0008 00BF     		nop
 812 000a 0C37     		adds	r7, r7, #12
 813              	.LCFI42:
 814              		.cfi_def_cfa_offset 4
 815 000c BD46     		mov	sp, r7
 816              	.LCFI43:
ARM GAS  /tmp/cchxdGeL.s 			page 23


 817              		.cfi_def_cfa_register 13
 818              		@ sp needed
 819 000e 5DF8047B 		ldr	r7, [sp], #4
 820              	.LCFI44:
 821              		.cfi_restore 7
 822              		.cfi_def_cfa_offset 0
 823 0012 7047     		bx	lr
 824              		.cfi_endproc
 825              	.LFE133:
 827              		.section	.text.HAL_LTDC_ConfigLayer,"ax",%progbits
 828              		.align	1
 829              		.global	HAL_LTDC_ConfigLayer
 830              		.syntax unified
 831              		.thumb
 832              		.thumb_func
 833              		.fpu fpv4-sp-d16
 835              	HAL_LTDC_ConfigLayer:
 836              	.LFB134:
 451:./Libraries/STM32F4xx_HAL_Driver/Src/stm32f4xx_hal_ltdc.c **** 
 452:./Libraries/STM32F4xx_HAL_Driver/Src/stm32f4xx_hal_ltdc.c **** /**
 453:./Libraries/STM32F4xx_HAL_Driver/Src/stm32f4xx_hal_ltdc.c ****   * @}
 454:./Libraries/STM32F4xx_HAL_Driver/Src/stm32f4xx_hal_ltdc.c ****   */
 455:./Libraries/STM32F4xx_HAL_Driver/Src/stm32f4xx_hal_ltdc.c **** 
 456:./Libraries/STM32F4xx_HAL_Driver/Src/stm32f4xx_hal_ltdc.c **** /** @defgroup LTDC_Exported_Functions_Group3 Peripheral Control functions
 457:./Libraries/STM32F4xx_HAL_Driver/Src/stm32f4xx_hal_ltdc.c ****  *  @brief    Peripheral Control functions 
 458:./Libraries/STM32F4xx_HAL_Driver/Src/stm32f4xx_hal_ltdc.c ****  *
 459:./Libraries/STM32F4xx_HAL_Driver/Src/stm32f4xx_hal_ltdc.c **** @verbatim   
 460:./Libraries/STM32F4xx_HAL_Driver/Src/stm32f4xx_hal_ltdc.c ****  ===============================================================================
 461:./Libraries/STM32F4xx_HAL_Driver/Src/stm32f4xx_hal_ltdc.c ****                     ##### Peripheral Control functions #####
 462:./Libraries/STM32F4xx_HAL_Driver/Src/stm32f4xx_hal_ltdc.c ****  ===============================================================================  
 463:./Libraries/STM32F4xx_HAL_Driver/Src/stm32f4xx_hal_ltdc.c ****     [..]  This section provides functions allowing to:
 464:./Libraries/STM32F4xx_HAL_Driver/Src/stm32f4xx_hal_ltdc.c ****       (+) Configure the LTDC foreground or/and background parameters.
 465:./Libraries/STM32F4xx_HAL_Driver/Src/stm32f4xx_hal_ltdc.c ****       (+) Set the active layer.
 466:./Libraries/STM32F4xx_HAL_Driver/Src/stm32f4xx_hal_ltdc.c ****       (+) Configure the color keying.
 467:./Libraries/STM32F4xx_HAL_Driver/Src/stm32f4xx_hal_ltdc.c ****       (+) Configure the C-LUT.
 468:./Libraries/STM32F4xx_HAL_Driver/Src/stm32f4xx_hal_ltdc.c ****       (+) Enable / Disable the color keying.
 469:./Libraries/STM32F4xx_HAL_Driver/Src/stm32f4xx_hal_ltdc.c ****       (+) Enable / Disable the C-LUT.
 470:./Libraries/STM32F4xx_HAL_Driver/Src/stm32f4xx_hal_ltdc.c ****       (+) Update the layer position.
 471:./Libraries/STM32F4xx_HAL_Driver/Src/stm32f4xx_hal_ltdc.c ****       (+) Update the layer size.
 472:./Libraries/STM32F4xx_HAL_Driver/Src/stm32f4xx_hal_ltdc.c ****       (+) Update pixel format on the fly. 
 473:./Libraries/STM32F4xx_HAL_Driver/Src/stm32f4xx_hal_ltdc.c ****       (+) Update transparency on the fly.
 474:./Libraries/STM32F4xx_HAL_Driver/Src/stm32f4xx_hal_ltdc.c ****       (+) Update address on the fly.
 475:./Libraries/STM32F4xx_HAL_Driver/Src/stm32f4xx_hal_ltdc.c **** 
 476:./Libraries/STM32F4xx_HAL_Driver/Src/stm32f4xx_hal_ltdc.c **** @endverbatim
 477:./Libraries/STM32F4xx_HAL_Driver/Src/stm32f4xx_hal_ltdc.c ****   * @{
 478:./Libraries/STM32F4xx_HAL_Driver/Src/stm32f4xx_hal_ltdc.c ****   */
 479:./Libraries/STM32F4xx_HAL_Driver/Src/stm32f4xx_hal_ltdc.c **** 
 480:./Libraries/STM32F4xx_HAL_Driver/Src/stm32f4xx_hal_ltdc.c **** /**
 481:./Libraries/STM32F4xx_HAL_Driver/Src/stm32f4xx_hal_ltdc.c ****   * @brief  Configure the LTDC Layer according to the specified
 482:./Libraries/STM32F4xx_HAL_Driver/Src/stm32f4xx_hal_ltdc.c ****   *         parameters in the LTDC_InitTypeDef and create the associated handle.
 483:./Libraries/STM32F4xx_HAL_Driver/Src/stm32f4xx_hal_ltdc.c ****   * @param  hltdc      pointer to a LTDC_HandleTypeDef structure that contains
 484:./Libraries/STM32F4xx_HAL_Driver/Src/stm32f4xx_hal_ltdc.c ****   *                    the configuration information for the LTDC.
 485:./Libraries/STM32F4xx_HAL_Driver/Src/stm32f4xx_hal_ltdc.c ****   * @param  pLayerCfg  pointer to a LTDC_LayerCfgTypeDef structure that contains
 486:./Libraries/STM32F4xx_HAL_Driver/Src/stm32f4xx_hal_ltdc.c ****   *                    the configuration information for the Layer.
 487:./Libraries/STM32F4xx_HAL_Driver/Src/stm32f4xx_hal_ltdc.c ****   * @param  LayerIdx  LTDC Layer index.
 488:./Libraries/STM32F4xx_HAL_Driver/Src/stm32f4xx_hal_ltdc.c ****   *                    This parameter can be one of the following values:
 489:./Libraries/STM32F4xx_HAL_Driver/Src/stm32f4xx_hal_ltdc.c ****   *                    LTDC_LAYER_1 (0) or LTDC_LAYER_2 (1)
ARM GAS  /tmp/cchxdGeL.s 			page 24


 490:./Libraries/STM32F4xx_HAL_Driver/Src/stm32f4xx_hal_ltdc.c ****   * @retval HAL status
 491:./Libraries/STM32F4xx_HAL_Driver/Src/stm32f4xx_hal_ltdc.c ****   */
 492:./Libraries/STM32F4xx_HAL_Driver/Src/stm32f4xx_hal_ltdc.c **** HAL_StatusTypeDef HAL_LTDC_ConfigLayer(LTDC_HandleTypeDef *hltdc, LTDC_LayerCfgTypeDef *pLayerCfg, 
 493:./Libraries/STM32F4xx_HAL_Driver/Src/stm32f4xx_hal_ltdc.c **** {   
 837              		.loc 1 493 1
 838              		.cfi_startproc
 839              		@ args = 0, pretend = 0, frame = 16
 840              		@ frame_needed = 1, uses_anonymous_args = 0
 841 0000 B0B5     		push	{r4, r5, r7, lr}
 842              	.LCFI45:
 843              		.cfi_def_cfa_offset 16
 844              		.cfi_offset 4, -16
 845              		.cfi_offset 5, -12
 846              		.cfi_offset 7, -8
 847              		.cfi_offset 14, -4
 848 0002 84B0     		sub	sp, sp, #16
 849              	.LCFI46:
 850              		.cfi_def_cfa_offset 32
 851 0004 00AF     		add	r7, sp, #0
 852              	.LCFI47:
 853              		.cfi_def_cfa_register 7
 854 0006 F860     		str	r0, [r7, #12]
 855 0008 B960     		str	r1, [r7, #8]
 856 000a 7A60     		str	r2, [r7, #4]
 494:./Libraries/STM32F4xx_HAL_Driver/Src/stm32f4xx_hal_ltdc.c ****   /* Check the parameters */
 495:./Libraries/STM32F4xx_HAL_Driver/Src/stm32f4xx_hal_ltdc.c ****   assert_param(IS_LTDC_LAYER(LayerIdx));
 496:./Libraries/STM32F4xx_HAL_Driver/Src/stm32f4xx_hal_ltdc.c ****   assert_param(IS_LTDC_HCONFIGST(pLayerCfg->WindowX0));
 497:./Libraries/STM32F4xx_HAL_Driver/Src/stm32f4xx_hal_ltdc.c ****   assert_param(IS_LTDC_HCONFIGSP(pLayerCfg->WindowX1));
 498:./Libraries/STM32F4xx_HAL_Driver/Src/stm32f4xx_hal_ltdc.c ****   assert_param(IS_LTDC_VCONFIGST(pLayerCfg->WindowY0));
 499:./Libraries/STM32F4xx_HAL_Driver/Src/stm32f4xx_hal_ltdc.c ****   assert_param(IS_LTDC_VCONFIGSP(pLayerCfg->WindowY1));
 500:./Libraries/STM32F4xx_HAL_Driver/Src/stm32f4xx_hal_ltdc.c ****   assert_param(IS_LTDC_PIXEL_FORMAT(pLayerCfg->PixelFormat));
 501:./Libraries/STM32F4xx_HAL_Driver/Src/stm32f4xx_hal_ltdc.c ****   assert_param(IS_LTDC_ALPHA(pLayerCfg->Alpha));
 502:./Libraries/STM32F4xx_HAL_Driver/Src/stm32f4xx_hal_ltdc.c ****   assert_param(IS_LTDC_ALPHA(pLayerCfg->Alpha0));
 503:./Libraries/STM32F4xx_HAL_Driver/Src/stm32f4xx_hal_ltdc.c ****   assert_param(IS_LTDC_BLENDING_FACTOR1(pLayerCfg->BlendingFactor1));
 504:./Libraries/STM32F4xx_HAL_Driver/Src/stm32f4xx_hal_ltdc.c ****   assert_param(IS_LTDC_BLENDING_FACTOR2(pLayerCfg->BlendingFactor2));
 505:./Libraries/STM32F4xx_HAL_Driver/Src/stm32f4xx_hal_ltdc.c ****   assert_param(IS_LTDC_CFBLL(pLayerCfg->ImageWidth));	
 506:./Libraries/STM32F4xx_HAL_Driver/Src/stm32f4xx_hal_ltdc.c ****   assert_param(IS_LTDC_CFBLNBR(pLayerCfg->ImageHeight));
 507:./Libraries/STM32F4xx_HAL_Driver/Src/stm32f4xx_hal_ltdc.c **** 
 508:./Libraries/STM32F4xx_HAL_Driver/Src/stm32f4xx_hal_ltdc.c ****   /* Process locked */
 509:./Libraries/STM32F4xx_HAL_Driver/Src/stm32f4xx_hal_ltdc.c ****   __HAL_LOCK(hltdc);
 857              		.loc 1 509 3
 858 000c FB68     		ldr	r3, [r7, #12]
 859 000e 93F8A030 		ldrb	r3, [r3, #160]	@ zero_extendqisi2
 860 0012 012B     		cmp	r3, #1
 861 0014 01D1     		bne	.L21
 862              		.loc 1 509 3 is_stmt 0 discriminator 1
 863 0016 0223     		movs	r3, #2
 864 0018 2CE0     		b	.L22
 865              	.L21:
 866              		.loc 1 509 3 discriminator 2
 867 001a FB68     		ldr	r3, [r7, #12]
 868 001c 0122     		movs	r2, #1
 869 001e 83F8A020 		strb	r2, [r3, #160]
 510:./Libraries/STM32F4xx_HAL_Driver/Src/stm32f4xx_hal_ltdc.c ****   
 511:./Libraries/STM32F4xx_HAL_Driver/Src/stm32f4xx_hal_ltdc.c ****   /* Change LTDC peripheral state */
 512:./Libraries/STM32F4xx_HAL_Driver/Src/stm32f4xx_hal_ltdc.c ****   hltdc->State = HAL_LTDC_STATE_BUSY;
 870              		.loc 1 512 16 is_stmt 1 discriminator 2
ARM GAS  /tmp/cchxdGeL.s 			page 25


 871 0022 FB68     		ldr	r3, [r7, #12]
 872 0024 0222     		movs	r2, #2
 873 0026 83F8A120 		strb	r2, [r3, #161]
 513:./Libraries/STM32F4xx_HAL_Driver/Src/stm32f4xx_hal_ltdc.c **** 
 514:./Libraries/STM32F4xx_HAL_Driver/Src/stm32f4xx_hal_ltdc.c ****   /* Copy new layer configuration into handle structure */
 515:./Libraries/STM32F4xx_HAL_Driver/Src/stm32f4xx_hal_ltdc.c ****   hltdc->LayerCfg[LayerIdx] = *pLayerCfg;  
 874              		.loc 1 515 29 discriminator 2
 875 002a FA68     		ldr	r2, [r7, #12]
 876 002c 7B68     		ldr	r3, [r7, #4]
 877 002e 3421     		movs	r1, #52
 878 0030 01FB03F3 		mul	r3, r1, r3
 879 0034 1344     		add	r3, r3, r2
 880 0036 03F13802 		add	r2, r3, #56
 881 003a BB68     		ldr	r3, [r7, #8]
 882 003c 1446     		mov	r4, r2
 883 003e 1D46     		mov	r5, r3
 884 0040 0FCD     		ldmia	r5!, {r0, r1, r2, r3}
 885 0042 0FC4     		stmia	r4!, {r0, r1, r2, r3}
 886 0044 0FCD     		ldmia	r5!, {r0, r1, r2, r3}
 887 0046 0FC4     		stmia	r4!, {r0, r1, r2, r3}
 888 0048 0FCD     		ldmia	r5!, {r0, r1, r2, r3}
 889 004a 0FC4     		stmia	r4!, {r0, r1, r2, r3}
 890 004c 2B68     		ldr	r3, [r5]
 891 004e 2360     		str	r3, [r4]
 516:./Libraries/STM32F4xx_HAL_Driver/Src/stm32f4xx_hal_ltdc.c **** 
 517:./Libraries/STM32F4xx_HAL_Driver/Src/stm32f4xx_hal_ltdc.c ****   /* Configure the LTDC Layer */  
 518:./Libraries/STM32F4xx_HAL_Driver/Src/stm32f4xx_hal_ltdc.c ****   LTDC_SetConfig(hltdc, pLayerCfg, LayerIdx);
 892              		.loc 1 518 3 discriminator 2
 893 0050 7A68     		ldr	r2, [r7, #4]
 894 0052 B968     		ldr	r1, [r7, #8]
 895 0054 F868     		ldr	r0, [r7, #12]
 896 0056 FFF7FEFF 		bl	LTDC_SetConfig
 519:./Libraries/STM32F4xx_HAL_Driver/Src/stm32f4xx_hal_ltdc.c **** 
 520:./Libraries/STM32F4xx_HAL_Driver/Src/stm32f4xx_hal_ltdc.c ****   /* Set the Immediate Reload type */
 521:./Libraries/STM32F4xx_HAL_Driver/Src/stm32f4xx_hal_ltdc.c ****   hltdc->Instance->SRCR = LTDC_SRCR_IMR;
 897              		.loc 1 521 8 discriminator 2
 898 005a FB68     		ldr	r3, [r7, #12]
 899 005c 1B68     		ldr	r3, [r3]
 900              		.loc 1 521 25 discriminator 2
 901 005e 0122     		movs	r2, #1
 902 0060 5A62     		str	r2, [r3, #36]
 522:./Libraries/STM32F4xx_HAL_Driver/Src/stm32f4xx_hal_ltdc.c **** 
 523:./Libraries/STM32F4xx_HAL_Driver/Src/stm32f4xx_hal_ltdc.c ****   /* Initialize the LTDC state*/
 524:./Libraries/STM32F4xx_HAL_Driver/Src/stm32f4xx_hal_ltdc.c ****   hltdc->State  = HAL_LTDC_STATE_READY;
 903              		.loc 1 524 17 discriminator 2
 904 0062 FB68     		ldr	r3, [r7, #12]
 905 0064 0122     		movs	r2, #1
 906 0066 83F8A120 		strb	r2, [r3, #161]
 525:./Libraries/STM32F4xx_HAL_Driver/Src/stm32f4xx_hal_ltdc.c **** 
 526:./Libraries/STM32F4xx_HAL_Driver/Src/stm32f4xx_hal_ltdc.c ****   /* Process unlocked */
 527:./Libraries/STM32F4xx_HAL_Driver/Src/stm32f4xx_hal_ltdc.c ****   __HAL_UNLOCK(hltdc);
 907              		.loc 1 527 3 discriminator 2
 908 006a FB68     		ldr	r3, [r7, #12]
 909 006c 0022     		movs	r2, #0
 910 006e 83F8A020 		strb	r2, [r3, #160]
 528:./Libraries/STM32F4xx_HAL_Driver/Src/stm32f4xx_hal_ltdc.c **** 
 529:./Libraries/STM32F4xx_HAL_Driver/Src/stm32f4xx_hal_ltdc.c ****   return HAL_OK;
ARM GAS  /tmp/cchxdGeL.s 			page 26


 911              		.loc 1 529 10 discriminator 2
 912 0072 0023     		movs	r3, #0
 913              	.L22:
 530:./Libraries/STM32F4xx_HAL_Driver/Src/stm32f4xx_hal_ltdc.c **** }
 914              		.loc 1 530 1
 915 0074 1846     		mov	r0, r3
 916 0076 1037     		adds	r7, r7, #16
 917              	.LCFI48:
 918              		.cfi_def_cfa_offset 16
 919 0078 BD46     		mov	sp, r7
 920              	.LCFI49:
 921              		.cfi_def_cfa_register 13
 922              		@ sp needed
 923 007a B0BD     		pop	{r4, r5, r7, pc}
 924              		.cfi_endproc
 925              	.LFE134:
 927              		.section	.text.HAL_LTDC_ConfigColorKeying,"ax",%progbits
 928              		.align	1
 929              		.global	HAL_LTDC_ConfigColorKeying
 930              		.syntax unified
 931              		.thumb
 932              		.thumb_func
 933              		.fpu fpv4-sp-d16
 935              	HAL_LTDC_ConfigColorKeying:
 936              	.LFB135:
 531:./Libraries/STM32F4xx_HAL_Driver/Src/stm32f4xx_hal_ltdc.c **** 
 532:./Libraries/STM32F4xx_HAL_Driver/Src/stm32f4xx_hal_ltdc.c **** /**
 533:./Libraries/STM32F4xx_HAL_Driver/Src/stm32f4xx_hal_ltdc.c ****   * @brief  Configure the color keying.
 534:./Libraries/STM32F4xx_HAL_Driver/Src/stm32f4xx_hal_ltdc.c ****   * @param  hltdc     pointer to a LTDC_HandleTypeDef structure that contains
 535:./Libraries/STM32F4xx_HAL_Driver/Src/stm32f4xx_hal_ltdc.c ****   *                   the configuration information for the LTDC.
 536:./Libraries/STM32F4xx_HAL_Driver/Src/stm32f4xx_hal_ltdc.c ****   * @param  RGBValue  the color key value
 537:./Libraries/STM32F4xx_HAL_Driver/Src/stm32f4xx_hal_ltdc.c ****   * @param  LayerIdx  LTDC Layer index.
 538:./Libraries/STM32F4xx_HAL_Driver/Src/stm32f4xx_hal_ltdc.c ****   *                   This parameter can be one of the following values:
 539:./Libraries/STM32F4xx_HAL_Driver/Src/stm32f4xx_hal_ltdc.c ****   *                   LTDC_LAYER_1 (0) or LTDC_LAYER_2 (1)
 540:./Libraries/STM32F4xx_HAL_Driver/Src/stm32f4xx_hal_ltdc.c ****   * @retval HAL status
 541:./Libraries/STM32F4xx_HAL_Driver/Src/stm32f4xx_hal_ltdc.c ****   */
 542:./Libraries/STM32F4xx_HAL_Driver/Src/stm32f4xx_hal_ltdc.c **** HAL_StatusTypeDef HAL_LTDC_ConfigColorKeying(LTDC_HandleTypeDef *hltdc, uint32_t RGBValue, uint32_t
 543:./Libraries/STM32F4xx_HAL_Driver/Src/stm32f4xx_hal_ltdc.c **** {
 937              		.loc 1 543 1
 938              		.cfi_startproc
 939              		@ args = 0, pretend = 0, frame = 16
 940              		@ frame_needed = 1, uses_anonymous_args = 0
 941              		@ link register save eliminated.
 942 0000 80B4     		push	{r7}
 943              	.LCFI50:
 944              		.cfi_def_cfa_offset 4
 945              		.cfi_offset 7, -4
 946 0002 85B0     		sub	sp, sp, #20
 947              	.LCFI51:
 948              		.cfi_def_cfa_offset 24
 949 0004 00AF     		add	r7, sp, #0
 950              	.LCFI52:
 951              		.cfi_def_cfa_register 7
 952 0006 F860     		str	r0, [r7, #12]
 953 0008 B960     		str	r1, [r7, #8]
 954 000a 7A60     		str	r2, [r7, #4]
 544:./Libraries/STM32F4xx_HAL_Driver/Src/stm32f4xx_hal_ltdc.c ****   /* Check the parameters */
ARM GAS  /tmp/cchxdGeL.s 			page 27


 545:./Libraries/STM32F4xx_HAL_Driver/Src/stm32f4xx_hal_ltdc.c ****   assert_param(IS_LTDC_LAYER(LayerIdx));
 546:./Libraries/STM32F4xx_HAL_Driver/Src/stm32f4xx_hal_ltdc.c **** 
 547:./Libraries/STM32F4xx_HAL_Driver/Src/stm32f4xx_hal_ltdc.c ****   /* Process locked */
 548:./Libraries/STM32F4xx_HAL_Driver/Src/stm32f4xx_hal_ltdc.c ****   __HAL_LOCK(hltdc);
 955              		.loc 1 548 3
 956 000c FB68     		ldr	r3, [r7, #12]
 957 000e 93F8A030 		ldrb	r3, [r3, #160]	@ zero_extendqisi2
 958 0012 012B     		cmp	r3, #1
 959 0014 01D1     		bne	.L24
 960              		.loc 1 548 3 is_stmt 0 discriminator 1
 961 0016 0223     		movs	r3, #2
 962 0018 30E0     		b	.L25
 963              	.L24:
 964              		.loc 1 548 3 discriminator 2
 965 001a FB68     		ldr	r3, [r7, #12]
 966 001c 0122     		movs	r2, #1
 967 001e 83F8A020 		strb	r2, [r3, #160]
 549:./Libraries/STM32F4xx_HAL_Driver/Src/stm32f4xx_hal_ltdc.c **** 
 550:./Libraries/STM32F4xx_HAL_Driver/Src/stm32f4xx_hal_ltdc.c ****   /* Change LTDC peripheral state */
 551:./Libraries/STM32F4xx_HAL_Driver/Src/stm32f4xx_hal_ltdc.c ****   hltdc->State = HAL_LTDC_STATE_BUSY;
 968              		.loc 1 551 16 is_stmt 1 discriminator 2
 969 0022 FB68     		ldr	r3, [r7, #12]
 970 0024 0222     		movs	r2, #2
 971 0026 83F8A120 		strb	r2, [r3, #161]
 552:./Libraries/STM32F4xx_HAL_Driver/Src/stm32f4xx_hal_ltdc.c **** 
 553:./Libraries/STM32F4xx_HAL_Driver/Src/stm32f4xx_hal_ltdc.c ****   /* Configure the default color values */
 554:./Libraries/STM32F4xx_HAL_Driver/Src/stm32f4xx_hal_ltdc.c ****   LTDC_LAYER(hltdc, LayerIdx)->CKCR &=  ~(LTDC_LxCKCR_CKBLUE | LTDC_LxCKCR_CKGREEN | LTDC_LxCKCR_CK
 972              		.loc 1 554 3 discriminator 2
 973 002a FB68     		ldr	r3, [r7, #12]
 974 002c 1B68     		ldr	r3, [r3]
 975              		.loc 1 554 37 discriminator 2
 976 002e 1A46     		mov	r2, r3
 977 0030 7B68     		ldr	r3, [r7, #4]
 978 0032 DB01     		lsls	r3, r3, #7
 979 0034 1344     		add	r3, r3, r2
 980 0036 8433     		adds	r3, r3, #132
 981 0038 DB68     		ldr	r3, [r3, #12]
 982              		.loc 1 554 3 discriminator 2
 983 003a FA68     		ldr	r2, [r7, #12]
 984 003c 1268     		ldr	r2, [r2]
 985              		.loc 1 554 37 discriminator 2
 986 003e 1146     		mov	r1, r2
 987 0040 7A68     		ldr	r2, [r7, #4]
 988 0042 D201     		lsls	r2, r2, #7
 989 0044 0A44     		add	r2, r2, r1
 990 0046 8432     		adds	r2, r2, #132
 991 0048 03F07F43 		and	r3, r3, #-16777216
 992 004c D360     		str	r3, [r2, #12]
 555:./Libraries/STM32F4xx_HAL_Driver/Src/stm32f4xx_hal_ltdc.c ****   LTDC_LAYER(hltdc, LayerIdx)->CKCR  = RGBValue;
 993              		.loc 1 555 3 discriminator 2
 994 004e FB68     		ldr	r3, [r7, #12]
 995 0050 1B68     		ldr	r3, [r3]
 996 0052 1A46     		mov	r2, r3
 997 0054 7B68     		ldr	r3, [r7, #4]
 998 0056 DB01     		lsls	r3, r3, #7
 999 0058 1344     		add	r3, r3, r2
 1000 005a 8433     		adds	r3, r3, #132
ARM GAS  /tmp/cchxdGeL.s 			page 28


 1001 005c 1A46     		mov	r2, r3
 1002              		.loc 1 555 38 discriminator 2
 1003 005e BB68     		ldr	r3, [r7, #8]
 1004 0060 D360     		str	r3, [r2, #12]
 556:./Libraries/STM32F4xx_HAL_Driver/Src/stm32f4xx_hal_ltdc.c **** 
 557:./Libraries/STM32F4xx_HAL_Driver/Src/stm32f4xx_hal_ltdc.c ****   /* Set the Immediate Reload type */
 558:./Libraries/STM32F4xx_HAL_Driver/Src/stm32f4xx_hal_ltdc.c ****   hltdc->Instance->SRCR = LTDC_SRCR_IMR;
 1005              		.loc 1 558 8 discriminator 2
 1006 0062 FB68     		ldr	r3, [r7, #12]
 1007 0064 1B68     		ldr	r3, [r3]
 1008              		.loc 1 558 25 discriminator 2
 1009 0066 0122     		movs	r2, #1
 1010 0068 5A62     		str	r2, [r3, #36]
 559:./Libraries/STM32F4xx_HAL_Driver/Src/stm32f4xx_hal_ltdc.c **** 
 560:./Libraries/STM32F4xx_HAL_Driver/Src/stm32f4xx_hal_ltdc.c ****   /* Change the LTDC state*/
 561:./Libraries/STM32F4xx_HAL_Driver/Src/stm32f4xx_hal_ltdc.c ****   hltdc->State = HAL_LTDC_STATE_READY;
 1011              		.loc 1 561 16 discriminator 2
 1012 006a FB68     		ldr	r3, [r7, #12]
 1013 006c 0122     		movs	r2, #1
 1014 006e 83F8A120 		strb	r2, [r3, #161]
 562:./Libraries/STM32F4xx_HAL_Driver/Src/stm32f4xx_hal_ltdc.c **** 
 563:./Libraries/STM32F4xx_HAL_Driver/Src/stm32f4xx_hal_ltdc.c ****   /* Process unlocked */
 564:./Libraries/STM32F4xx_HAL_Driver/Src/stm32f4xx_hal_ltdc.c ****   __HAL_UNLOCK(hltdc);
 1015              		.loc 1 564 3 discriminator 2
 1016 0072 FB68     		ldr	r3, [r7, #12]
 1017 0074 0022     		movs	r2, #0
 1018 0076 83F8A020 		strb	r2, [r3, #160]
 565:./Libraries/STM32F4xx_HAL_Driver/Src/stm32f4xx_hal_ltdc.c **** 
 566:./Libraries/STM32F4xx_HAL_Driver/Src/stm32f4xx_hal_ltdc.c ****   return HAL_OK;
 1019              		.loc 1 566 10 discriminator 2
 1020 007a 0023     		movs	r3, #0
 1021              	.L25:
 567:./Libraries/STM32F4xx_HAL_Driver/Src/stm32f4xx_hal_ltdc.c **** }
 1022              		.loc 1 567 1
 1023 007c 1846     		mov	r0, r3
 1024 007e 1437     		adds	r7, r7, #20
 1025              	.LCFI53:
 1026              		.cfi_def_cfa_offset 4
 1027 0080 BD46     		mov	sp, r7
 1028              	.LCFI54:
 1029              		.cfi_def_cfa_register 13
 1030              		@ sp needed
 1031 0082 5DF8047B 		ldr	r7, [sp], #4
 1032              	.LCFI55:
 1033              		.cfi_restore 7
 1034              		.cfi_def_cfa_offset 0
 1035 0086 7047     		bx	lr
 1036              		.cfi_endproc
 1037              	.LFE135:
 1039              		.section	.text.HAL_LTDC_ConfigCLUT,"ax",%progbits
 1040              		.align	1
 1041              		.global	HAL_LTDC_ConfigCLUT
 1042              		.syntax unified
 1043              		.thumb
 1044              		.thumb_func
 1045              		.fpu fpv4-sp-d16
 1047              	HAL_LTDC_ConfigCLUT:
ARM GAS  /tmp/cchxdGeL.s 			page 29


 1048              	.LFB136:
 568:./Libraries/STM32F4xx_HAL_Driver/Src/stm32f4xx_hal_ltdc.c **** 
 569:./Libraries/STM32F4xx_HAL_Driver/Src/stm32f4xx_hal_ltdc.c **** /**
 570:./Libraries/STM32F4xx_HAL_Driver/Src/stm32f4xx_hal_ltdc.c ****   * @brief  Load the color lookup table.
 571:./Libraries/STM32F4xx_HAL_Driver/Src/stm32f4xx_hal_ltdc.c ****   * @param  hltdc     pointer to a LTDC_HandleTypeDef structure that contains
 572:./Libraries/STM32F4xx_HAL_Driver/Src/stm32f4xx_hal_ltdc.c ****   *                   the configuration information for the LTDC.
 573:./Libraries/STM32F4xx_HAL_Driver/Src/stm32f4xx_hal_ltdc.c ****   * @param  pCLUT     pointer to the color lookup table address.
 574:./Libraries/STM32F4xx_HAL_Driver/Src/stm32f4xx_hal_ltdc.c ****   * @param  CLUTSize  the color lookup table size.  
 575:./Libraries/STM32F4xx_HAL_Driver/Src/stm32f4xx_hal_ltdc.c ****   * @param  LayerIdx  LTDC Layer index.
 576:./Libraries/STM32F4xx_HAL_Driver/Src/stm32f4xx_hal_ltdc.c ****   *                   This parameter can be one of the following values:
 577:./Libraries/STM32F4xx_HAL_Driver/Src/stm32f4xx_hal_ltdc.c ****   *                   LTDC_LAYER_1 (0) or LTDC_LAYER_2 (1)
 578:./Libraries/STM32F4xx_HAL_Driver/Src/stm32f4xx_hal_ltdc.c ****   * @retval HAL status
 579:./Libraries/STM32F4xx_HAL_Driver/Src/stm32f4xx_hal_ltdc.c ****   */
 580:./Libraries/STM32F4xx_HAL_Driver/Src/stm32f4xx_hal_ltdc.c **** HAL_StatusTypeDef HAL_LTDC_ConfigCLUT(LTDC_HandleTypeDef *hltdc, uint32_t *pCLUT, uint32_t CLUTSize
 581:./Libraries/STM32F4xx_HAL_Driver/Src/stm32f4xx_hal_ltdc.c **** {
 1049              		.loc 1 581 1
 1050              		.cfi_startproc
 1051              		@ args = 0, pretend = 0, frame = 32
 1052              		@ frame_needed = 1, uses_anonymous_args = 0
 1053              		@ link register save eliminated.
 1054 0000 80B4     		push	{r7}
 1055              	.LCFI56:
 1056              		.cfi_def_cfa_offset 4
 1057              		.cfi_offset 7, -4
 1058 0002 89B0     		sub	sp, sp, #36
 1059              	.LCFI57:
 1060              		.cfi_def_cfa_offset 40
 1061 0004 00AF     		add	r7, sp, #0
 1062              	.LCFI58:
 1063              		.cfi_def_cfa_register 7
 1064 0006 F860     		str	r0, [r7, #12]
 1065 0008 B960     		str	r1, [r7, #8]
 1066 000a 7A60     		str	r2, [r7, #4]
 1067 000c 3B60     		str	r3, [r7]
 582:./Libraries/STM32F4xx_HAL_Driver/Src/stm32f4xx_hal_ltdc.c ****   uint32_t tmp = 0U;
 1068              		.loc 1 582 12
 1069 000e 0023     		movs	r3, #0
 1070 0010 FB61     		str	r3, [r7, #28]
 583:./Libraries/STM32F4xx_HAL_Driver/Src/stm32f4xx_hal_ltdc.c ****   uint32_t counter = 0U;
 1071              		.loc 1 583 12
 1072 0012 0023     		movs	r3, #0
 1073 0014 BB61     		str	r3, [r7, #24]
 584:./Libraries/STM32F4xx_HAL_Driver/Src/stm32f4xx_hal_ltdc.c ****   uint32_t pcounter = 0U;
 1074              		.loc 1 584 12
 1075 0016 0023     		movs	r3, #0
 1076 0018 7B61     		str	r3, [r7, #20]
 585:./Libraries/STM32F4xx_HAL_Driver/Src/stm32f4xx_hal_ltdc.c **** 
 586:./Libraries/STM32F4xx_HAL_Driver/Src/stm32f4xx_hal_ltdc.c ****   /* Check the parameters */
 587:./Libraries/STM32F4xx_HAL_Driver/Src/stm32f4xx_hal_ltdc.c ****   assert_param(IS_LTDC_LAYER(LayerIdx));
 588:./Libraries/STM32F4xx_HAL_Driver/Src/stm32f4xx_hal_ltdc.c **** 
 589:./Libraries/STM32F4xx_HAL_Driver/Src/stm32f4xx_hal_ltdc.c ****   /* Process locked */
 590:./Libraries/STM32F4xx_HAL_Driver/Src/stm32f4xx_hal_ltdc.c ****   __HAL_LOCK(hltdc);
 1077              		.loc 1 590 3
 1078 001a FB68     		ldr	r3, [r7, #12]
 1079 001c 93F8A030 		ldrb	r3, [r3, #160]	@ zero_extendqisi2
 1080 0020 012B     		cmp	r3, #1
 1081 0022 01D1     		bne	.L27
ARM GAS  /tmp/cchxdGeL.s 			page 30


 1082              		.loc 1 590 3 is_stmt 0 discriminator 1
 1083 0024 0223     		movs	r3, #2
 1084 0026 59E0     		b	.L28
 1085              	.L27:
 1086              		.loc 1 590 3 discriminator 2
 1087 0028 FB68     		ldr	r3, [r7, #12]
 1088 002a 0122     		movs	r2, #1
 1089 002c 83F8A020 		strb	r2, [r3, #160]
 591:./Libraries/STM32F4xx_HAL_Driver/Src/stm32f4xx_hal_ltdc.c **** 
 592:./Libraries/STM32F4xx_HAL_Driver/Src/stm32f4xx_hal_ltdc.c ****   /* Change LTDC peripheral state */
 593:./Libraries/STM32F4xx_HAL_Driver/Src/stm32f4xx_hal_ltdc.c ****   hltdc->State = HAL_LTDC_STATE_BUSY;  
 1090              		.loc 1 593 16 is_stmt 1 discriminator 2
 1091 0030 FB68     		ldr	r3, [r7, #12]
 1092 0032 0222     		movs	r2, #2
 1093 0034 83F8A120 		strb	r2, [r3, #161]
 594:./Libraries/STM32F4xx_HAL_Driver/Src/stm32f4xx_hal_ltdc.c **** 
 595:./Libraries/STM32F4xx_HAL_Driver/Src/stm32f4xx_hal_ltdc.c ****   for(counter = 0U; (counter < CLUTSize); counter++)
 1094              		.loc 1 595 15 discriminator 2
 1095 0038 0023     		movs	r3, #0
 1096 003a BB61     		str	r3, [r7, #24]
 1097              		.loc 1 595 3 discriminator 2
 1098 003c 41E0     		b	.L29
 1099              	.L32:
 596:./Libraries/STM32F4xx_HAL_Driver/Src/stm32f4xx_hal_ltdc.c ****   {
 597:./Libraries/STM32F4xx_HAL_Driver/Src/stm32f4xx_hal_ltdc.c ****     if(hltdc->LayerCfg[LayerIdx].PixelFormat == LTDC_PIXEL_FORMAT_AL44)
 1100              		.loc 1 597 33
 1101 003e FA68     		ldr	r2, [r7, #12]
 1102 0040 3B68     		ldr	r3, [r7]
 1103 0042 3421     		movs	r1, #52
 1104 0044 01FB03F3 		mul	r3, r1, r3
 1105 0048 1344     		add	r3, r3, r2
 1106 004a 4833     		adds	r3, r3, #72
 1107 004c 1B68     		ldr	r3, [r3]
 1108              		.loc 1 597 7
 1109 004e 062B     		cmp	r3, #6
 1110 0050 14D1     		bne	.L30
 598:./Libraries/STM32F4xx_HAL_Driver/Src/stm32f4xx_hal_ltdc.c ****     {
 599:./Libraries/STM32F4xx_HAL_Driver/Src/stm32f4xx_hal_ltdc.c ****       tmp  = (((counter + 16U*counter) << 24U) | ((uint32_t)(*pCLUT) & 0xFFU) | ((uint32_t)(*pCLUT)
 1111              		.loc 1 599 25
 1112 0052 BA69     		ldr	r2, [r7, #24]
 1113 0054 1346     		mov	r3, r2
 1114 0056 1B01     		lsls	r3, r3, #4
 1115 0058 1344     		add	r3, r3, r2
 1116              		.loc 1 599 40
 1117 005a 1A06     		lsls	r2, r3, #24
 1118              		.loc 1 599 51
 1119 005c BB68     		ldr	r3, [r7, #8]
 1120 005e 1B68     		ldr	r3, [r3]
 1121              		.loc 1 599 70
 1122 0060 DBB2     		uxtb	r3, r3
 1123              		.loc 1 599 48
 1124 0062 1A43     		orrs	r2, r2, r3
 1125              		.loc 1 599 82
 1126 0064 BB68     		ldr	r3, [r7, #8]
 1127 0066 1B68     		ldr	r3, [r3]
 1128              		.loc 1 599 101
 1129 0068 03F47F43 		and	r3, r3, #65280
ARM GAS  /tmp/cchxdGeL.s 			page 31


 1130              		.loc 1 599 79
 1131 006c 1A43     		orrs	r2, r2, r3
 1132              		.loc 1 599 115
 1133 006e BB68     		ldr	r3, [r7, #8]
 1134 0070 1B68     		ldr	r3, [r3]
 1135              		.loc 1 599 134
 1136 0072 03F47F03 		and	r3, r3, #16711680
 1137              		.loc 1 599 12
 1138 0076 1343     		orrs	r3, r3, r2
 1139 0078 FB61     		str	r3, [r7, #28]
 1140 007a 10E0     		b	.L31
 1141              	.L30:
 600:./Libraries/STM32F4xx_HAL_Driver/Src/stm32f4xx_hal_ltdc.c ****     }
 601:./Libraries/STM32F4xx_HAL_Driver/Src/stm32f4xx_hal_ltdc.c ****     else
 602:./Libraries/STM32F4xx_HAL_Driver/Src/stm32f4xx_hal_ltdc.c ****     { 
 603:./Libraries/STM32F4xx_HAL_Driver/Src/stm32f4xx_hal_ltdc.c ****       tmp  = ((counter << 24U) | ((uint32_t)(*pCLUT) & 0xFFU) | ((uint32_t)(*pCLUT) & 0xFF00U) | ((
 1142              		.loc 1 603 24
 1143 007c BB69     		ldr	r3, [r7, #24]
 1144 007e 1A06     		lsls	r2, r3, #24
 1145              		.loc 1 603 35
 1146 0080 BB68     		ldr	r3, [r7, #8]
 1147 0082 1B68     		ldr	r3, [r3]
 1148              		.loc 1 603 54
 1149 0084 DBB2     		uxtb	r3, r3
 1150              		.loc 1 603 32
 1151 0086 1A43     		orrs	r2, r2, r3
 1152              		.loc 1 603 66
 1153 0088 BB68     		ldr	r3, [r7, #8]
 1154 008a 1B68     		ldr	r3, [r3]
 1155              		.loc 1 603 85
 1156 008c 03F47F43 		and	r3, r3, #65280
 1157              		.loc 1 603 63
 1158 0090 1A43     		orrs	r2, r2, r3
 1159              		.loc 1 603 99
 1160 0092 BB68     		ldr	r3, [r7, #8]
 1161 0094 1B68     		ldr	r3, [r3]
 1162              		.loc 1 603 118
 1163 0096 03F47F03 		and	r3, r3, #16711680
 1164              		.loc 1 603 12
 1165 009a 1343     		orrs	r3, r3, r2
 1166 009c FB61     		str	r3, [r7, #28]
 1167              	.L31:
 604:./Libraries/STM32F4xx_HAL_Driver/Src/stm32f4xx_hal_ltdc.c ****     }
 605:./Libraries/STM32F4xx_HAL_Driver/Src/stm32f4xx_hal_ltdc.c ****     pcounter = (uint32_t)pCLUT + sizeof(*pCLUT);
 1168              		.loc 1 605 16 discriminator 2
 1169 009e BB68     		ldr	r3, [r7, #8]
 1170              		.loc 1 605 14 discriminator 2
 1171 00a0 0433     		adds	r3, r3, #4
 1172 00a2 7B61     		str	r3, [r7, #20]
 606:./Libraries/STM32F4xx_HAL_Driver/Src/stm32f4xx_hal_ltdc.c ****     pCLUT = (uint32_t *)pcounter;
 1173              		.loc 1 606 11 discriminator 2
 1174 00a4 7B69     		ldr	r3, [r7, #20]
 1175 00a6 BB60     		str	r3, [r7, #8]
 607:./Libraries/STM32F4xx_HAL_Driver/Src/stm32f4xx_hal_ltdc.c **** 
 608:./Libraries/STM32F4xx_HAL_Driver/Src/stm32f4xx_hal_ltdc.c ****     /* Specifies the C-LUT address and RGB value */
 609:./Libraries/STM32F4xx_HAL_Driver/Src/stm32f4xx_hal_ltdc.c ****     LTDC_LAYER(hltdc, LayerIdx)->CLUTWR  = tmp;
 1176              		.loc 1 609 5 discriminator 2
ARM GAS  /tmp/cchxdGeL.s 			page 32


 1177 00a8 FB68     		ldr	r3, [r7, #12]
 1178 00aa 1B68     		ldr	r3, [r3]
 1179 00ac 1A46     		mov	r2, r3
 1180 00ae 3B68     		ldr	r3, [r7]
 1181 00b0 DB01     		lsls	r3, r3, #7
 1182 00b2 1344     		add	r3, r3, r2
 1183 00b4 8433     		adds	r3, r3, #132
 1184 00b6 1A46     		mov	r2, r3
 1185              		.loc 1 609 42 discriminator 2
 1186 00b8 FB69     		ldr	r3, [r7, #28]
 1187 00ba 1364     		str	r3, [r2, #64]
 595:./Libraries/STM32F4xx_HAL_Driver/Src/stm32f4xx_hal_ltdc.c ****   {
 1188              		.loc 1 595 50 discriminator 2
 1189 00bc BB69     		ldr	r3, [r7, #24]
 1190 00be 0133     		adds	r3, r3, #1
 1191 00c0 BB61     		str	r3, [r7, #24]
 1192              	.L29:
 595:./Libraries/STM32F4xx_HAL_Driver/Src/stm32f4xx_hal_ltdc.c ****   {
 1193              		.loc 1 595 3 discriminator 1
 1194 00c2 BA69     		ldr	r2, [r7, #24]
 1195 00c4 7B68     		ldr	r3, [r7, #4]
 1196 00c6 9A42     		cmp	r2, r3
 1197 00c8 B9D3     		bcc	.L32
 610:./Libraries/STM32F4xx_HAL_Driver/Src/stm32f4xx_hal_ltdc.c ****   }
 611:./Libraries/STM32F4xx_HAL_Driver/Src/stm32f4xx_hal_ltdc.c ****   
 612:./Libraries/STM32F4xx_HAL_Driver/Src/stm32f4xx_hal_ltdc.c ****   /* Change the LTDC state*/
 613:./Libraries/STM32F4xx_HAL_Driver/Src/stm32f4xx_hal_ltdc.c ****   hltdc->State = HAL_LTDC_STATE_READY; 
 1198              		.loc 1 613 16
 1199 00ca FB68     		ldr	r3, [r7, #12]
 1200 00cc 0122     		movs	r2, #1
 1201 00ce 83F8A120 		strb	r2, [r3, #161]
 614:./Libraries/STM32F4xx_HAL_Driver/Src/stm32f4xx_hal_ltdc.c **** 
 615:./Libraries/STM32F4xx_HAL_Driver/Src/stm32f4xx_hal_ltdc.c ****   /* Process unlocked */
 616:./Libraries/STM32F4xx_HAL_Driver/Src/stm32f4xx_hal_ltdc.c ****   __HAL_UNLOCK(hltdc);  
 1202              		.loc 1 616 3
 1203 00d2 FB68     		ldr	r3, [r7, #12]
 1204 00d4 0022     		movs	r2, #0
 1205 00d6 83F8A020 		strb	r2, [r3, #160]
 617:./Libraries/STM32F4xx_HAL_Driver/Src/stm32f4xx_hal_ltdc.c **** 
 618:./Libraries/STM32F4xx_HAL_Driver/Src/stm32f4xx_hal_ltdc.c ****   return HAL_OK;
 1206              		.loc 1 618 10
 1207 00da 0023     		movs	r3, #0
 1208              	.L28:
 619:./Libraries/STM32F4xx_HAL_Driver/Src/stm32f4xx_hal_ltdc.c **** }
 1209              		.loc 1 619 1
 1210 00dc 1846     		mov	r0, r3
 1211 00de 2437     		adds	r7, r7, #36
 1212              	.LCFI59:
 1213              		.cfi_def_cfa_offset 4
 1214 00e0 BD46     		mov	sp, r7
 1215              	.LCFI60:
 1216              		.cfi_def_cfa_register 13
 1217              		@ sp needed
 1218 00e2 5DF8047B 		ldr	r7, [sp], #4
 1219              	.LCFI61:
 1220              		.cfi_restore 7
 1221              		.cfi_def_cfa_offset 0
ARM GAS  /tmp/cchxdGeL.s 			page 33


 1222 00e6 7047     		bx	lr
 1223              		.cfi_endproc
 1224              	.LFE136:
 1226              		.section	.text.HAL_LTDC_EnableColorKeying,"ax",%progbits
 1227              		.align	1
 1228              		.global	HAL_LTDC_EnableColorKeying
 1229              		.syntax unified
 1230              		.thumb
 1231              		.thumb_func
 1232              		.fpu fpv4-sp-d16
 1234              	HAL_LTDC_EnableColorKeying:
 1235              	.LFB137:
 620:./Libraries/STM32F4xx_HAL_Driver/Src/stm32f4xx_hal_ltdc.c **** 
 621:./Libraries/STM32F4xx_HAL_Driver/Src/stm32f4xx_hal_ltdc.c **** /**
 622:./Libraries/STM32F4xx_HAL_Driver/Src/stm32f4xx_hal_ltdc.c ****   * @brief  Enable the color keying.
 623:./Libraries/STM32F4xx_HAL_Driver/Src/stm32f4xx_hal_ltdc.c ****   * @param  hltdc     pointer to a LTDC_HandleTypeDef structure that contains
 624:./Libraries/STM32F4xx_HAL_Driver/Src/stm32f4xx_hal_ltdc.c ****   *                   the configuration information for the LTDC.
 625:./Libraries/STM32F4xx_HAL_Driver/Src/stm32f4xx_hal_ltdc.c ****   * @param  LayerIdx  LTDC Layer index.
 626:./Libraries/STM32F4xx_HAL_Driver/Src/stm32f4xx_hal_ltdc.c ****   *                   This parameter can be one of the following values:
 627:./Libraries/STM32F4xx_HAL_Driver/Src/stm32f4xx_hal_ltdc.c ****   *                   LTDC_LAYER_1 (0) or LTDC_LAYER_2 (1)
 628:./Libraries/STM32F4xx_HAL_Driver/Src/stm32f4xx_hal_ltdc.c ****   * @retval  HAL status
 629:./Libraries/STM32F4xx_HAL_Driver/Src/stm32f4xx_hal_ltdc.c ****   */
 630:./Libraries/STM32F4xx_HAL_Driver/Src/stm32f4xx_hal_ltdc.c **** HAL_StatusTypeDef HAL_LTDC_EnableColorKeying(LTDC_HandleTypeDef *hltdc, uint32_t LayerIdx)
 631:./Libraries/STM32F4xx_HAL_Driver/Src/stm32f4xx_hal_ltdc.c **** {  
 1236              		.loc 1 631 1
 1237              		.cfi_startproc
 1238              		@ args = 0, pretend = 0, frame = 8
 1239              		@ frame_needed = 1, uses_anonymous_args = 0
 1240              		@ link register save eliminated.
 1241 0000 80B4     		push	{r7}
 1242              	.LCFI62:
 1243              		.cfi_def_cfa_offset 4
 1244              		.cfi_offset 7, -4
 1245 0002 83B0     		sub	sp, sp, #12
 1246              	.LCFI63:
 1247              		.cfi_def_cfa_offset 16
 1248 0004 00AF     		add	r7, sp, #0
 1249              	.LCFI64:
 1250              		.cfi_def_cfa_register 7
 1251 0006 7860     		str	r0, [r7, #4]
 1252 0008 3960     		str	r1, [r7]
 632:./Libraries/STM32F4xx_HAL_Driver/Src/stm32f4xx_hal_ltdc.c ****   /* Check the parameters */
 633:./Libraries/STM32F4xx_HAL_Driver/Src/stm32f4xx_hal_ltdc.c ****   assert_param(IS_LTDC_LAYER(LayerIdx));
 634:./Libraries/STM32F4xx_HAL_Driver/Src/stm32f4xx_hal_ltdc.c **** 
 635:./Libraries/STM32F4xx_HAL_Driver/Src/stm32f4xx_hal_ltdc.c ****   /* Process locked */
 636:./Libraries/STM32F4xx_HAL_Driver/Src/stm32f4xx_hal_ltdc.c ****   __HAL_LOCK(hltdc);
 1253              		.loc 1 636 3
 1254 000a 7B68     		ldr	r3, [r7, #4]
 1255 000c 93F8A030 		ldrb	r3, [r3, #160]	@ zero_extendqisi2
 1256 0010 012B     		cmp	r3, #1
 1257 0012 01D1     		bne	.L34
 1258              		.loc 1 636 3 is_stmt 0 discriminator 1
 1259 0014 0223     		movs	r3, #2
 1260 0016 26E0     		b	.L35
 1261              	.L34:
 1262              		.loc 1 636 3 discriminator 2
 1263 0018 7B68     		ldr	r3, [r7, #4]
ARM GAS  /tmp/cchxdGeL.s 			page 34


 1264 001a 0122     		movs	r2, #1
 1265 001c 83F8A020 		strb	r2, [r3, #160]
 637:./Libraries/STM32F4xx_HAL_Driver/Src/stm32f4xx_hal_ltdc.c **** 
 638:./Libraries/STM32F4xx_HAL_Driver/Src/stm32f4xx_hal_ltdc.c ****   /* Change LTDC peripheral state */
 639:./Libraries/STM32F4xx_HAL_Driver/Src/stm32f4xx_hal_ltdc.c ****   hltdc->State = HAL_LTDC_STATE_BUSY;
 1266              		.loc 1 639 16 is_stmt 1 discriminator 2
 1267 0020 7B68     		ldr	r3, [r7, #4]
 1268 0022 0222     		movs	r2, #2
 1269 0024 83F8A120 		strb	r2, [r3, #161]
 640:./Libraries/STM32F4xx_HAL_Driver/Src/stm32f4xx_hal_ltdc.c **** 
 641:./Libraries/STM32F4xx_HAL_Driver/Src/stm32f4xx_hal_ltdc.c ****   /* Enable LTDC color keying by setting COLKEN bit */
 642:./Libraries/STM32F4xx_HAL_Driver/Src/stm32f4xx_hal_ltdc.c ****   LTDC_LAYER(hltdc, LayerIdx)->CR |= (uint32_t)LTDC_LxCR_COLKEN;
 1270              		.loc 1 642 3 discriminator 2
 1271 0028 7B68     		ldr	r3, [r7, #4]
 1272 002a 1B68     		ldr	r3, [r3]
 1273              		.loc 1 642 35 discriminator 2
 1274 002c 1A46     		mov	r2, r3
 1275 002e 3B68     		ldr	r3, [r7]
 1276 0030 DB01     		lsls	r3, r3, #7
 1277 0032 1344     		add	r3, r3, r2
 1278 0034 8433     		adds	r3, r3, #132
 1279 0036 1B68     		ldr	r3, [r3]
 1280              		.loc 1 642 3 discriminator 2
 1281 0038 7A68     		ldr	r2, [r7, #4]
 1282 003a 1268     		ldr	r2, [r2]
 1283              		.loc 1 642 35 discriminator 2
 1284 003c 1146     		mov	r1, r2
 1285 003e 3A68     		ldr	r2, [r7]
 1286 0040 D201     		lsls	r2, r2, #7
 1287 0042 0A44     		add	r2, r2, r1
 1288 0044 8432     		adds	r2, r2, #132
 1289 0046 43F00203 		orr	r3, r3, #2
 1290 004a 1360     		str	r3, [r2]
 643:./Libraries/STM32F4xx_HAL_Driver/Src/stm32f4xx_hal_ltdc.c **** 
 644:./Libraries/STM32F4xx_HAL_Driver/Src/stm32f4xx_hal_ltdc.c ****   /* Set the Immediate Reload type */
 645:./Libraries/STM32F4xx_HAL_Driver/Src/stm32f4xx_hal_ltdc.c ****   hltdc->Instance->SRCR = LTDC_SRCR_IMR;
 1291              		.loc 1 645 8 discriminator 2
 1292 004c 7B68     		ldr	r3, [r7, #4]
 1293 004e 1B68     		ldr	r3, [r3]
 1294              		.loc 1 645 25 discriminator 2
 1295 0050 0122     		movs	r2, #1
 1296 0052 5A62     		str	r2, [r3, #36]
 646:./Libraries/STM32F4xx_HAL_Driver/Src/stm32f4xx_hal_ltdc.c **** 
 647:./Libraries/STM32F4xx_HAL_Driver/Src/stm32f4xx_hal_ltdc.c ****   /* Change the LTDC state*/
 648:./Libraries/STM32F4xx_HAL_Driver/Src/stm32f4xx_hal_ltdc.c ****   hltdc->State = HAL_LTDC_STATE_READY; 
 1297              		.loc 1 648 16 discriminator 2
 1298 0054 7B68     		ldr	r3, [r7, #4]
 1299 0056 0122     		movs	r2, #1
 1300 0058 83F8A120 		strb	r2, [r3, #161]
 649:./Libraries/STM32F4xx_HAL_Driver/Src/stm32f4xx_hal_ltdc.c **** 
 650:./Libraries/STM32F4xx_HAL_Driver/Src/stm32f4xx_hal_ltdc.c ****   /* Process unlocked */
 651:./Libraries/STM32F4xx_HAL_Driver/Src/stm32f4xx_hal_ltdc.c ****   __HAL_UNLOCK(hltdc);
 1301              		.loc 1 651 3 discriminator 2
 1302 005c 7B68     		ldr	r3, [r7, #4]
 1303 005e 0022     		movs	r2, #0
 1304 0060 83F8A020 		strb	r2, [r3, #160]
 652:./Libraries/STM32F4xx_HAL_Driver/Src/stm32f4xx_hal_ltdc.c **** 
ARM GAS  /tmp/cchxdGeL.s 			page 35


 653:./Libraries/STM32F4xx_HAL_Driver/Src/stm32f4xx_hal_ltdc.c ****   return HAL_OK;  
 1305              		.loc 1 653 10 discriminator 2
 1306 0064 0023     		movs	r3, #0
 1307              	.L35:
 654:./Libraries/STM32F4xx_HAL_Driver/Src/stm32f4xx_hal_ltdc.c **** }
 1308              		.loc 1 654 1
 1309 0066 1846     		mov	r0, r3
 1310 0068 0C37     		adds	r7, r7, #12
 1311              	.LCFI65:
 1312              		.cfi_def_cfa_offset 4
 1313 006a BD46     		mov	sp, r7
 1314              	.LCFI66:
 1315              		.cfi_def_cfa_register 13
 1316              		@ sp needed
 1317 006c 5DF8047B 		ldr	r7, [sp], #4
 1318              	.LCFI67:
 1319              		.cfi_restore 7
 1320              		.cfi_def_cfa_offset 0
 1321 0070 7047     		bx	lr
 1322              		.cfi_endproc
 1323              	.LFE137:
 1325              		.section	.text.HAL_LTDC_DisableColorKeying,"ax",%progbits
 1326              		.align	1
 1327              		.global	HAL_LTDC_DisableColorKeying
 1328              		.syntax unified
 1329              		.thumb
 1330              		.thumb_func
 1331              		.fpu fpv4-sp-d16
 1333              	HAL_LTDC_DisableColorKeying:
 1334              	.LFB138:
 655:./Libraries/STM32F4xx_HAL_Driver/Src/stm32f4xx_hal_ltdc.c ****   
 656:./Libraries/STM32F4xx_HAL_Driver/Src/stm32f4xx_hal_ltdc.c **** /**
 657:./Libraries/STM32F4xx_HAL_Driver/Src/stm32f4xx_hal_ltdc.c ****   * @brief  Disable the color keying.
 658:./Libraries/STM32F4xx_HAL_Driver/Src/stm32f4xx_hal_ltdc.c ****   * @param  hltdc     pointer to a LTDC_HandleTypeDef structure that contains
 659:./Libraries/STM32F4xx_HAL_Driver/Src/stm32f4xx_hal_ltdc.c ****   *                   the configuration information for the LTDC.
 660:./Libraries/STM32F4xx_HAL_Driver/Src/stm32f4xx_hal_ltdc.c ****   * @param  LayerIdx  LTDC Layer index.
 661:./Libraries/STM32F4xx_HAL_Driver/Src/stm32f4xx_hal_ltdc.c ****   *                   This parameter can be one of the following values:
 662:./Libraries/STM32F4xx_HAL_Driver/Src/stm32f4xx_hal_ltdc.c ****   *                   LTDC_LAYER_1 (0) or LTDC_LAYER_2 (1)
 663:./Libraries/STM32F4xx_HAL_Driver/Src/stm32f4xx_hal_ltdc.c ****   * @retval  HAL status
 664:./Libraries/STM32F4xx_HAL_Driver/Src/stm32f4xx_hal_ltdc.c ****   */
 665:./Libraries/STM32F4xx_HAL_Driver/Src/stm32f4xx_hal_ltdc.c **** HAL_StatusTypeDef HAL_LTDC_DisableColorKeying(LTDC_HandleTypeDef *hltdc, uint32_t LayerIdx)
 666:./Libraries/STM32F4xx_HAL_Driver/Src/stm32f4xx_hal_ltdc.c **** {
 1335              		.loc 1 666 1
 1336              		.cfi_startproc
 1337              		@ args = 0, pretend = 0, frame = 8
 1338              		@ frame_needed = 1, uses_anonymous_args = 0
 1339              		@ link register save eliminated.
 1340 0000 80B4     		push	{r7}
 1341              	.LCFI68:
 1342              		.cfi_def_cfa_offset 4
 1343              		.cfi_offset 7, -4
 1344 0002 83B0     		sub	sp, sp, #12
 1345              	.LCFI69:
 1346              		.cfi_def_cfa_offset 16
 1347 0004 00AF     		add	r7, sp, #0
 1348              	.LCFI70:
 1349              		.cfi_def_cfa_register 7
ARM GAS  /tmp/cchxdGeL.s 			page 36


 1350 0006 7860     		str	r0, [r7, #4]
 1351 0008 3960     		str	r1, [r7]
 667:./Libraries/STM32F4xx_HAL_Driver/Src/stm32f4xx_hal_ltdc.c ****   /* Check the parameters */
 668:./Libraries/STM32F4xx_HAL_Driver/Src/stm32f4xx_hal_ltdc.c ****   assert_param(IS_LTDC_LAYER(LayerIdx));
 669:./Libraries/STM32F4xx_HAL_Driver/Src/stm32f4xx_hal_ltdc.c **** 
 670:./Libraries/STM32F4xx_HAL_Driver/Src/stm32f4xx_hal_ltdc.c ****   /* Process locked */
 671:./Libraries/STM32F4xx_HAL_Driver/Src/stm32f4xx_hal_ltdc.c ****   __HAL_LOCK(hltdc);
 1352              		.loc 1 671 3
 1353 000a 7B68     		ldr	r3, [r7, #4]
 1354 000c 93F8A030 		ldrb	r3, [r3, #160]	@ zero_extendqisi2
 1355 0010 012B     		cmp	r3, #1
 1356 0012 01D1     		bne	.L37
 1357              		.loc 1 671 3 is_stmt 0 discriminator 1
 1358 0014 0223     		movs	r3, #2
 1359 0016 26E0     		b	.L38
 1360              	.L37:
 1361              		.loc 1 671 3 discriminator 2
 1362 0018 7B68     		ldr	r3, [r7, #4]
 1363 001a 0122     		movs	r2, #1
 1364 001c 83F8A020 		strb	r2, [r3, #160]
 672:./Libraries/STM32F4xx_HAL_Driver/Src/stm32f4xx_hal_ltdc.c **** 
 673:./Libraries/STM32F4xx_HAL_Driver/Src/stm32f4xx_hal_ltdc.c ****   /* Change LTDC peripheral state */
 674:./Libraries/STM32F4xx_HAL_Driver/Src/stm32f4xx_hal_ltdc.c ****   hltdc->State = HAL_LTDC_STATE_BUSY;
 1365              		.loc 1 674 16 is_stmt 1 discriminator 2
 1366 0020 7B68     		ldr	r3, [r7, #4]
 1367 0022 0222     		movs	r2, #2
 1368 0024 83F8A120 		strb	r2, [r3, #161]
 675:./Libraries/STM32F4xx_HAL_Driver/Src/stm32f4xx_hal_ltdc.c **** 
 676:./Libraries/STM32F4xx_HAL_Driver/Src/stm32f4xx_hal_ltdc.c ****   /* Disable LTDC color keying by setting COLKEN bit */
 677:./Libraries/STM32F4xx_HAL_Driver/Src/stm32f4xx_hal_ltdc.c ****   LTDC_LAYER(hltdc, LayerIdx)->CR &= ~(uint32_t)LTDC_LxCR_COLKEN;
 1369              		.loc 1 677 3 discriminator 2
 1370 0028 7B68     		ldr	r3, [r7, #4]
 1371 002a 1B68     		ldr	r3, [r3]
 1372              		.loc 1 677 35 discriminator 2
 1373 002c 1A46     		mov	r2, r3
 1374 002e 3B68     		ldr	r3, [r7]
 1375 0030 DB01     		lsls	r3, r3, #7
 1376 0032 1344     		add	r3, r3, r2
 1377 0034 8433     		adds	r3, r3, #132
 1378 0036 1B68     		ldr	r3, [r3]
 1379              		.loc 1 677 3 discriminator 2
 1380 0038 7A68     		ldr	r2, [r7, #4]
 1381 003a 1268     		ldr	r2, [r2]
 1382              		.loc 1 677 35 discriminator 2
 1383 003c 1146     		mov	r1, r2
 1384 003e 3A68     		ldr	r2, [r7]
 1385 0040 D201     		lsls	r2, r2, #7
 1386 0042 0A44     		add	r2, r2, r1
 1387 0044 8432     		adds	r2, r2, #132
 1388 0046 23F00203 		bic	r3, r3, #2
 1389 004a 1360     		str	r3, [r2]
 678:./Libraries/STM32F4xx_HAL_Driver/Src/stm32f4xx_hal_ltdc.c **** 
 679:./Libraries/STM32F4xx_HAL_Driver/Src/stm32f4xx_hal_ltdc.c ****   /* Set the Immediate Reload type */
 680:./Libraries/STM32F4xx_HAL_Driver/Src/stm32f4xx_hal_ltdc.c ****   hltdc->Instance->SRCR = LTDC_SRCR_IMR;
 1390              		.loc 1 680 8 discriminator 2
 1391 004c 7B68     		ldr	r3, [r7, #4]
 1392 004e 1B68     		ldr	r3, [r3]
ARM GAS  /tmp/cchxdGeL.s 			page 37


 1393              		.loc 1 680 25 discriminator 2
 1394 0050 0122     		movs	r2, #1
 1395 0052 5A62     		str	r2, [r3, #36]
 681:./Libraries/STM32F4xx_HAL_Driver/Src/stm32f4xx_hal_ltdc.c **** 
 682:./Libraries/STM32F4xx_HAL_Driver/Src/stm32f4xx_hal_ltdc.c ****   /* Change the LTDC state*/
 683:./Libraries/STM32F4xx_HAL_Driver/Src/stm32f4xx_hal_ltdc.c ****   hltdc->State = HAL_LTDC_STATE_READY; 
 1396              		.loc 1 683 16 discriminator 2
 1397 0054 7B68     		ldr	r3, [r7, #4]
 1398 0056 0122     		movs	r2, #1
 1399 0058 83F8A120 		strb	r2, [r3, #161]
 684:./Libraries/STM32F4xx_HAL_Driver/Src/stm32f4xx_hal_ltdc.c **** 
 685:./Libraries/STM32F4xx_HAL_Driver/Src/stm32f4xx_hal_ltdc.c ****   /* Process unlocked */
 686:./Libraries/STM32F4xx_HAL_Driver/Src/stm32f4xx_hal_ltdc.c ****   __HAL_UNLOCK(hltdc);
 1400              		.loc 1 686 3 discriminator 2
 1401 005c 7B68     		ldr	r3, [r7, #4]
 1402 005e 0022     		movs	r2, #0
 1403 0060 83F8A020 		strb	r2, [r3, #160]
 687:./Libraries/STM32F4xx_HAL_Driver/Src/stm32f4xx_hal_ltdc.c **** 
 688:./Libraries/STM32F4xx_HAL_Driver/Src/stm32f4xx_hal_ltdc.c ****   return HAL_OK;
 1404              		.loc 1 688 10 discriminator 2
 1405 0064 0023     		movs	r3, #0
 1406              	.L38:
 689:./Libraries/STM32F4xx_HAL_Driver/Src/stm32f4xx_hal_ltdc.c **** }
 1407              		.loc 1 689 1
 1408 0066 1846     		mov	r0, r3
 1409 0068 0C37     		adds	r7, r7, #12
 1410              	.LCFI71:
 1411              		.cfi_def_cfa_offset 4
 1412 006a BD46     		mov	sp, r7
 1413              	.LCFI72:
 1414              		.cfi_def_cfa_register 13
 1415              		@ sp needed
 1416 006c 5DF8047B 		ldr	r7, [sp], #4
 1417              	.LCFI73:
 1418              		.cfi_restore 7
 1419              		.cfi_def_cfa_offset 0
 1420 0070 7047     		bx	lr
 1421              		.cfi_endproc
 1422              	.LFE138:
 1424              		.section	.text.HAL_LTDC_EnableCLUT,"ax",%progbits
 1425              		.align	1
 1426              		.global	HAL_LTDC_EnableCLUT
 1427              		.syntax unified
 1428              		.thumb
 1429              		.thumb_func
 1430              		.fpu fpv4-sp-d16
 1432              	HAL_LTDC_EnableCLUT:
 1433              	.LFB139:
 690:./Libraries/STM32F4xx_HAL_Driver/Src/stm32f4xx_hal_ltdc.c **** 
 691:./Libraries/STM32F4xx_HAL_Driver/Src/stm32f4xx_hal_ltdc.c **** /**
 692:./Libraries/STM32F4xx_HAL_Driver/Src/stm32f4xx_hal_ltdc.c ****   * @brief  Enable the color lookup table.
 693:./Libraries/STM32F4xx_HAL_Driver/Src/stm32f4xx_hal_ltdc.c ****   * @param  hltdc     pointer to a LTDC_HandleTypeDef structure that contains
 694:./Libraries/STM32F4xx_HAL_Driver/Src/stm32f4xx_hal_ltdc.c ****   *                   the configuration information for the LTDC.
 695:./Libraries/STM32F4xx_HAL_Driver/Src/stm32f4xx_hal_ltdc.c ****   * @param  LayerIdx  LTDC Layer index.
 696:./Libraries/STM32F4xx_HAL_Driver/Src/stm32f4xx_hal_ltdc.c ****   *                   This parameter can be one of the following values:
 697:./Libraries/STM32F4xx_HAL_Driver/Src/stm32f4xx_hal_ltdc.c ****   *                   LTDC_LAYER_1 (0) or LTDC_LAYER_2 (1)
 698:./Libraries/STM32F4xx_HAL_Driver/Src/stm32f4xx_hal_ltdc.c ****   * @retval  HAL status
ARM GAS  /tmp/cchxdGeL.s 			page 38


 699:./Libraries/STM32F4xx_HAL_Driver/Src/stm32f4xx_hal_ltdc.c ****   */
 700:./Libraries/STM32F4xx_HAL_Driver/Src/stm32f4xx_hal_ltdc.c **** HAL_StatusTypeDef HAL_LTDC_EnableCLUT(LTDC_HandleTypeDef *hltdc, uint32_t LayerIdx)
 701:./Libraries/STM32F4xx_HAL_Driver/Src/stm32f4xx_hal_ltdc.c **** {
 1434              		.loc 1 701 1
 1435              		.cfi_startproc
 1436              		@ args = 0, pretend = 0, frame = 8
 1437              		@ frame_needed = 1, uses_anonymous_args = 0
 1438              		@ link register save eliminated.
 1439 0000 80B4     		push	{r7}
 1440              	.LCFI74:
 1441              		.cfi_def_cfa_offset 4
 1442              		.cfi_offset 7, -4
 1443 0002 83B0     		sub	sp, sp, #12
 1444              	.LCFI75:
 1445              		.cfi_def_cfa_offset 16
 1446 0004 00AF     		add	r7, sp, #0
 1447              	.LCFI76:
 1448              		.cfi_def_cfa_register 7
 1449 0006 7860     		str	r0, [r7, #4]
 1450 0008 3960     		str	r1, [r7]
 702:./Libraries/STM32F4xx_HAL_Driver/Src/stm32f4xx_hal_ltdc.c ****   /* Check the parameters */
 703:./Libraries/STM32F4xx_HAL_Driver/Src/stm32f4xx_hal_ltdc.c ****   assert_param(IS_LTDC_LAYER(LayerIdx));
 704:./Libraries/STM32F4xx_HAL_Driver/Src/stm32f4xx_hal_ltdc.c **** 
 705:./Libraries/STM32F4xx_HAL_Driver/Src/stm32f4xx_hal_ltdc.c ****   /* Process locked */
 706:./Libraries/STM32F4xx_HAL_Driver/Src/stm32f4xx_hal_ltdc.c ****   __HAL_LOCK(hltdc);
 1451              		.loc 1 706 3
 1452 000a 7B68     		ldr	r3, [r7, #4]
 1453 000c 93F8A030 		ldrb	r3, [r3, #160]	@ zero_extendqisi2
 1454 0010 012B     		cmp	r3, #1
 1455 0012 01D1     		bne	.L40
 1456              		.loc 1 706 3 is_stmt 0 discriminator 1
 1457 0014 0223     		movs	r3, #2
 1458 0016 26E0     		b	.L41
 1459              	.L40:
 1460              		.loc 1 706 3 discriminator 2
 1461 0018 7B68     		ldr	r3, [r7, #4]
 1462 001a 0122     		movs	r2, #1
 1463 001c 83F8A020 		strb	r2, [r3, #160]
 707:./Libraries/STM32F4xx_HAL_Driver/Src/stm32f4xx_hal_ltdc.c **** 
 708:./Libraries/STM32F4xx_HAL_Driver/Src/stm32f4xx_hal_ltdc.c ****   /* Change LTDC peripheral state */
 709:./Libraries/STM32F4xx_HAL_Driver/Src/stm32f4xx_hal_ltdc.c ****   hltdc->State = HAL_LTDC_STATE_BUSY;
 1464              		.loc 1 709 16 is_stmt 1 discriminator 2
 1465 0020 7B68     		ldr	r3, [r7, #4]
 1466 0022 0222     		movs	r2, #2
 1467 0024 83F8A120 		strb	r2, [r3, #161]
 710:./Libraries/STM32F4xx_HAL_Driver/Src/stm32f4xx_hal_ltdc.c **** 
 711:./Libraries/STM32F4xx_HAL_Driver/Src/stm32f4xx_hal_ltdc.c ****   /* Enable LTDC color lookup table by setting CLUTEN bit */
 712:./Libraries/STM32F4xx_HAL_Driver/Src/stm32f4xx_hal_ltdc.c ****   LTDC_LAYER(hltdc, LayerIdx)->CR |= (uint32_t)LTDC_LxCR_CLUTEN;
 1468              		.loc 1 712 3 discriminator 2
 1469 0028 7B68     		ldr	r3, [r7, #4]
 1470 002a 1B68     		ldr	r3, [r3]
 1471              		.loc 1 712 35 discriminator 2
 1472 002c 1A46     		mov	r2, r3
 1473 002e 3B68     		ldr	r3, [r7]
 1474 0030 DB01     		lsls	r3, r3, #7
 1475 0032 1344     		add	r3, r3, r2
 1476 0034 8433     		adds	r3, r3, #132
ARM GAS  /tmp/cchxdGeL.s 			page 39


 1477 0036 1B68     		ldr	r3, [r3]
 1478              		.loc 1 712 3 discriminator 2
 1479 0038 7A68     		ldr	r2, [r7, #4]
 1480 003a 1268     		ldr	r2, [r2]
 1481              		.loc 1 712 35 discriminator 2
 1482 003c 1146     		mov	r1, r2
 1483 003e 3A68     		ldr	r2, [r7]
 1484 0040 D201     		lsls	r2, r2, #7
 1485 0042 0A44     		add	r2, r2, r1
 1486 0044 8432     		adds	r2, r2, #132
 1487 0046 43F01003 		orr	r3, r3, #16
 1488 004a 1360     		str	r3, [r2]
 713:./Libraries/STM32F4xx_HAL_Driver/Src/stm32f4xx_hal_ltdc.c **** 
 714:./Libraries/STM32F4xx_HAL_Driver/Src/stm32f4xx_hal_ltdc.c ****   /* Set the Immediate Reload type */
 715:./Libraries/STM32F4xx_HAL_Driver/Src/stm32f4xx_hal_ltdc.c ****   hltdc->Instance->SRCR = LTDC_SRCR_IMR;
 1489              		.loc 1 715 8 discriminator 2
 1490 004c 7B68     		ldr	r3, [r7, #4]
 1491 004e 1B68     		ldr	r3, [r3]
 1492              		.loc 1 715 25 discriminator 2
 1493 0050 0122     		movs	r2, #1
 1494 0052 5A62     		str	r2, [r3, #36]
 716:./Libraries/STM32F4xx_HAL_Driver/Src/stm32f4xx_hal_ltdc.c **** 
 717:./Libraries/STM32F4xx_HAL_Driver/Src/stm32f4xx_hal_ltdc.c ****   /* Change the LTDC state*/
 718:./Libraries/STM32F4xx_HAL_Driver/Src/stm32f4xx_hal_ltdc.c ****   hltdc->State = HAL_LTDC_STATE_READY; 
 1495              		.loc 1 718 16 discriminator 2
 1496 0054 7B68     		ldr	r3, [r7, #4]
 1497 0056 0122     		movs	r2, #1
 1498 0058 83F8A120 		strb	r2, [r3, #161]
 719:./Libraries/STM32F4xx_HAL_Driver/Src/stm32f4xx_hal_ltdc.c **** 
 720:./Libraries/STM32F4xx_HAL_Driver/Src/stm32f4xx_hal_ltdc.c ****   /* Process unlocked */
 721:./Libraries/STM32F4xx_HAL_Driver/Src/stm32f4xx_hal_ltdc.c ****   __HAL_UNLOCK(hltdc);
 1499              		.loc 1 721 3 discriminator 2
 1500 005c 7B68     		ldr	r3, [r7, #4]
 1501 005e 0022     		movs	r2, #0
 1502 0060 83F8A020 		strb	r2, [r3, #160]
 722:./Libraries/STM32F4xx_HAL_Driver/Src/stm32f4xx_hal_ltdc.c **** 
 723:./Libraries/STM32F4xx_HAL_Driver/Src/stm32f4xx_hal_ltdc.c ****   return HAL_OK;
 1503              		.loc 1 723 10 discriminator 2
 1504 0064 0023     		movs	r3, #0
 1505              	.L41:
 724:./Libraries/STM32F4xx_HAL_Driver/Src/stm32f4xx_hal_ltdc.c **** }
 1506              		.loc 1 724 1
 1507 0066 1846     		mov	r0, r3
 1508 0068 0C37     		adds	r7, r7, #12
 1509              	.LCFI77:
 1510              		.cfi_def_cfa_offset 4
 1511 006a BD46     		mov	sp, r7
 1512              	.LCFI78:
 1513              		.cfi_def_cfa_register 13
 1514              		@ sp needed
 1515 006c 5DF8047B 		ldr	r7, [sp], #4
 1516              	.LCFI79:
 1517              		.cfi_restore 7
 1518              		.cfi_def_cfa_offset 0
 1519 0070 7047     		bx	lr
 1520              		.cfi_endproc
 1521              	.LFE139:
ARM GAS  /tmp/cchxdGeL.s 			page 40


 1523              		.section	.text.HAL_LTDC_DisableCLUT,"ax",%progbits
 1524              		.align	1
 1525              		.global	HAL_LTDC_DisableCLUT
 1526              		.syntax unified
 1527              		.thumb
 1528              		.thumb_func
 1529              		.fpu fpv4-sp-d16
 1531              	HAL_LTDC_DisableCLUT:
 1532              	.LFB140:
 725:./Libraries/STM32F4xx_HAL_Driver/Src/stm32f4xx_hal_ltdc.c **** 
 726:./Libraries/STM32F4xx_HAL_Driver/Src/stm32f4xx_hal_ltdc.c **** /**
 727:./Libraries/STM32F4xx_HAL_Driver/Src/stm32f4xx_hal_ltdc.c ****   * @brief  Disable the color lookup table.
 728:./Libraries/STM32F4xx_HAL_Driver/Src/stm32f4xx_hal_ltdc.c ****   * @param  hltdc     pointer to a LTDC_HandleTypeDef structure that contains
 729:./Libraries/STM32F4xx_HAL_Driver/Src/stm32f4xx_hal_ltdc.c ****   *                   the configuration information for the LTDC.
 730:./Libraries/STM32F4xx_HAL_Driver/Src/stm32f4xx_hal_ltdc.c ****   * @param  LayerIdx  LTDC Layer index.
 731:./Libraries/STM32F4xx_HAL_Driver/Src/stm32f4xx_hal_ltdc.c ****   *                   This parameter can be one of the following values:
 732:./Libraries/STM32F4xx_HAL_Driver/Src/stm32f4xx_hal_ltdc.c ****   *                   LTDC_LAYER_1 (0) or LTDC_LAYER_2 (1)   
 733:./Libraries/STM32F4xx_HAL_Driver/Src/stm32f4xx_hal_ltdc.c ****   * @retval  HAL status
 734:./Libraries/STM32F4xx_HAL_Driver/Src/stm32f4xx_hal_ltdc.c ****   */
 735:./Libraries/STM32F4xx_HAL_Driver/Src/stm32f4xx_hal_ltdc.c **** HAL_StatusTypeDef HAL_LTDC_DisableCLUT(LTDC_HandleTypeDef *hltdc, uint32_t LayerIdx)
 736:./Libraries/STM32F4xx_HAL_Driver/Src/stm32f4xx_hal_ltdc.c **** {
 1533              		.loc 1 736 1
 1534              		.cfi_startproc
 1535              		@ args = 0, pretend = 0, frame = 8
 1536              		@ frame_needed = 1, uses_anonymous_args = 0
 1537              		@ link register save eliminated.
 1538 0000 80B4     		push	{r7}
 1539              	.LCFI80:
 1540              		.cfi_def_cfa_offset 4
 1541              		.cfi_offset 7, -4
 1542 0002 83B0     		sub	sp, sp, #12
 1543              	.LCFI81:
 1544              		.cfi_def_cfa_offset 16
 1545 0004 00AF     		add	r7, sp, #0
 1546              	.LCFI82:
 1547              		.cfi_def_cfa_register 7
 1548 0006 7860     		str	r0, [r7, #4]
 1549 0008 3960     		str	r1, [r7]
 737:./Libraries/STM32F4xx_HAL_Driver/Src/stm32f4xx_hal_ltdc.c ****   /* Check the parameters */
 738:./Libraries/STM32F4xx_HAL_Driver/Src/stm32f4xx_hal_ltdc.c ****   assert_param(IS_LTDC_LAYER(LayerIdx));
 739:./Libraries/STM32F4xx_HAL_Driver/Src/stm32f4xx_hal_ltdc.c ****  
 740:./Libraries/STM32F4xx_HAL_Driver/Src/stm32f4xx_hal_ltdc.c ****   /* Process locked */
 741:./Libraries/STM32F4xx_HAL_Driver/Src/stm32f4xx_hal_ltdc.c ****   __HAL_LOCK(hltdc);
 1550              		.loc 1 741 3
 1551 000a 7B68     		ldr	r3, [r7, #4]
 1552 000c 93F8A030 		ldrb	r3, [r3, #160]	@ zero_extendqisi2
 1553 0010 012B     		cmp	r3, #1
 1554 0012 01D1     		bne	.L43
 1555              		.loc 1 741 3 is_stmt 0 discriminator 1
 1556 0014 0223     		movs	r3, #2
 1557 0016 26E0     		b	.L44
 1558              	.L43:
 1559              		.loc 1 741 3 discriminator 2
 1560 0018 7B68     		ldr	r3, [r7, #4]
 1561 001a 0122     		movs	r2, #1
 1562 001c 83F8A020 		strb	r2, [r3, #160]
 742:./Libraries/STM32F4xx_HAL_Driver/Src/stm32f4xx_hal_ltdc.c **** 
ARM GAS  /tmp/cchxdGeL.s 			page 41


 743:./Libraries/STM32F4xx_HAL_Driver/Src/stm32f4xx_hal_ltdc.c ****   /* Change LTDC peripheral state */
 744:./Libraries/STM32F4xx_HAL_Driver/Src/stm32f4xx_hal_ltdc.c ****   hltdc->State = HAL_LTDC_STATE_BUSY;
 1563              		.loc 1 744 16 is_stmt 1 discriminator 2
 1564 0020 7B68     		ldr	r3, [r7, #4]
 1565 0022 0222     		movs	r2, #2
 1566 0024 83F8A120 		strb	r2, [r3, #161]
 745:./Libraries/STM32F4xx_HAL_Driver/Src/stm32f4xx_hal_ltdc.c **** 
 746:./Libraries/STM32F4xx_HAL_Driver/Src/stm32f4xx_hal_ltdc.c ****   /* Disable LTDC color lookup table by setting CLUTEN bit */
 747:./Libraries/STM32F4xx_HAL_Driver/Src/stm32f4xx_hal_ltdc.c ****   LTDC_LAYER(hltdc, LayerIdx)->CR &= ~(uint32_t)LTDC_LxCR_CLUTEN;
 1567              		.loc 1 747 3 discriminator 2
 1568 0028 7B68     		ldr	r3, [r7, #4]
 1569 002a 1B68     		ldr	r3, [r3]
 1570              		.loc 1 747 35 discriminator 2
 1571 002c 1A46     		mov	r2, r3
 1572 002e 3B68     		ldr	r3, [r7]
 1573 0030 DB01     		lsls	r3, r3, #7
 1574 0032 1344     		add	r3, r3, r2
 1575 0034 8433     		adds	r3, r3, #132
 1576 0036 1B68     		ldr	r3, [r3]
 1577              		.loc 1 747 3 discriminator 2
 1578 0038 7A68     		ldr	r2, [r7, #4]
 1579 003a 1268     		ldr	r2, [r2]
 1580              		.loc 1 747 35 discriminator 2
 1581 003c 1146     		mov	r1, r2
 1582 003e 3A68     		ldr	r2, [r7]
 1583 0040 D201     		lsls	r2, r2, #7
 1584 0042 0A44     		add	r2, r2, r1
 1585 0044 8432     		adds	r2, r2, #132
 1586 0046 23F01003 		bic	r3, r3, #16
 1587 004a 1360     		str	r3, [r2]
 748:./Libraries/STM32F4xx_HAL_Driver/Src/stm32f4xx_hal_ltdc.c **** 
 749:./Libraries/STM32F4xx_HAL_Driver/Src/stm32f4xx_hal_ltdc.c ****   /* Set the Immediate Reload type */
 750:./Libraries/STM32F4xx_HAL_Driver/Src/stm32f4xx_hal_ltdc.c ****   hltdc->Instance->SRCR = LTDC_SRCR_IMR;
 1588              		.loc 1 750 8 discriminator 2
 1589 004c 7B68     		ldr	r3, [r7, #4]
 1590 004e 1B68     		ldr	r3, [r3]
 1591              		.loc 1 750 25 discriminator 2
 1592 0050 0122     		movs	r2, #1
 1593 0052 5A62     		str	r2, [r3, #36]
 751:./Libraries/STM32F4xx_HAL_Driver/Src/stm32f4xx_hal_ltdc.c **** 
 752:./Libraries/STM32F4xx_HAL_Driver/Src/stm32f4xx_hal_ltdc.c ****   /* Change the LTDC state*/
 753:./Libraries/STM32F4xx_HAL_Driver/Src/stm32f4xx_hal_ltdc.c ****   hltdc->State = HAL_LTDC_STATE_READY; 
 1594              		.loc 1 753 16 discriminator 2
 1595 0054 7B68     		ldr	r3, [r7, #4]
 1596 0056 0122     		movs	r2, #1
 1597 0058 83F8A120 		strb	r2, [r3, #161]
 754:./Libraries/STM32F4xx_HAL_Driver/Src/stm32f4xx_hal_ltdc.c **** 
 755:./Libraries/STM32F4xx_HAL_Driver/Src/stm32f4xx_hal_ltdc.c ****   /* Process unlocked */
 756:./Libraries/STM32F4xx_HAL_Driver/Src/stm32f4xx_hal_ltdc.c ****   __HAL_UNLOCK(hltdc);
 1598              		.loc 1 756 3 discriminator 2
 1599 005c 7B68     		ldr	r3, [r7, #4]
 1600 005e 0022     		movs	r2, #0
 1601 0060 83F8A020 		strb	r2, [r3, #160]
 757:./Libraries/STM32F4xx_HAL_Driver/Src/stm32f4xx_hal_ltdc.c **** 
 758:./Libraries/STM32F4xx_HAL_Driver/Src/stm32f4xx_hal_ltdc.c ****   return HAL_OK;
 1602              		.loc 1 758 10 discriminator 2
 1603 0064 0023     		movs	r3, #0
ARM GAS  /tmp/cchxdGeL.s 			page 42


 1604              	.L44:
 759:./Libraries/STM32F4xx_HAL_Driver/Src/stm32f4xx_hal_ltdc.c **** }
 1605              		.loc 1 759 1
 1606 0066 1846     		mov	r0, r3
 1607 0068 0C37     		adds	r7, r7, #12
 1608              	.LCFI83:
 1609              		.cfi_def_cfa_offset 4
 1610 006a BD46     		mov	sp, r7
 1611              	.LCFI84:
 1612              		.cfi_def_cfa_register 13
 1613              		@ sp needed
 1614 006c 5DF8047B 		ldr	r7, [sp], #4
 1615              	.LCFI85:
 1616              		.cfi_restore 7
 1617              		.cfi_def_cfa_offset 0
 1618 0070 7047     		bx	lr
 1619              		.cfi_endproc
 1620              	.LFE140:
 1622              		.section	.text.HAL_LTDC_EnableDither,"ax",%progbits
 1623              		.align	1
 1624              		.global	HAL_LTDC_EnableDither
 1625              		.syntax unified
 1626              		.thumb
 1627              		.thumb_func
 1628              		.fpu fpv4-sp-d16
 1630              	HAL_LTDC_EnableDither:
 1631              	.LFB141:
 760:./Libraries/STM32F4xx_HAL_Driver/Src/stm32f4xx_hal_ltdc.c **** 
 761:./Libraries/STM32F4xx_HAL_Driver/Src/stm32f4xx_hal_ltdc.c **** /**
 762:./Libraries/STM32F4xx_HAL_Driver/Src/stm32f4xx_hal_ltdc.c ****   * @brief  Enable Dither.
 763:./Libraries/STM32F4xx_HAL_Driver/Src/stm32f4xx_hal_ltdc.c ****   * @param  hltdc  pointer to a LTDC_HandleTypeDef structure that contains
 764:./Libraries/STM32F4xx_HAL_Driver/Src/stm32f4xx_hal_ltdc.c ****   *                the configuration information for the LTDC.
 765:./Libraries/STM32F4xx_HAL_Driver/Src/stm32f4xx_hal_ltdc.c ****   * @retval  HAL status
 766:./Libraries/STM32F4xx_HAL_Driver/Src/stm32f4xx_hal_ltdc.c ****   */
 767:./Libraries/STM32F4xx_HAL_Driver/Src/stm32f4xx_hal_ltdc.c **** 
 768:./Libraries/STM32F4xx_HAL_Driver/Src/stm32f4xx_hal_ltdc.c **** HAL_StatusTypeDef HAL_LTDC_EnableDither(LTDC_HandleTypeDef *hltdc)
 769:./Libraries/STM32F4xx_HAL_Driver/Src/stm32f4xx_hal_ltdc.c **** {
 1632              		.loc 1 769 1
 1633              		.cfi_startproc
 1634              		@ args = 0, pretend = 0, frame = 8
 1635              		@ frame_needed = 1, uses_anonymous_args = 0
 1636              		@ link register save eliminated.
 1637 0000 80B4     		push	{r7}
 1638              	.LCFI86:
 1639              		.cfi_def_cfa_offset 4
 1640              		.cfi_offset 7, -4
 1641 0002 83B0     		sub	sp, sp, #12
 1642              	.LCFI87:
 1643              		.cfi_def_cfa_offset 16
 1644 0004 00AF     		add	r7, sp, #0
 1645              	.LCFI88:
 1646              		.cfi_def_cfa_register 7
 1647 0006 7860     		str	r0, [r7, #4]
 770:./Libraries/STM32F4xx_HAL_Driver/Src/stm32f4xx_hal_ltdc.c ****   /* Process locked */
 771:./Libraries/STM32F4xx_HAL_Driver/Src/stm32f4xx_hal_ltdc.c ****   __HAL_LOCK(hltdc);
 1648              		.loc 1 771 3
 1649 0008 7B68     		ldr	r3, [r7, #4]
ARM GAS  /tmp/cchxdGeL.s 			page 43


 1650 000a 93F8A030 		ldrb	r3, [r3, #160]	@ zero_extendqisi2
 1651 000e 012B     		cmp	r3, #1
 1652 0010 01D1     		bne	.L46
 1653              		.loc 1 771 3 is_stmt 0 discriminator 1
 1654 0012 0223     		movs	r3, #2
 1655 0014 16E0     		b	.L47
 1656              	.L46:
 1657              		.loc 1 771 3 discriminator 2
 1658 0016 7B68     		ldr	r3, [r7, #4]
 1659 0018 0122     		movs	r2, #1
 1660 001a 83F8A020 		strb	r2, [r3, #160]
 772:./Libraries/STM32F4xx_HAL_Driver/Src/stm32f4xx_hal_ltdc.c **** 
 773:./Libraries/STM32F4xx_HAL_Driver/Src/stm32f4xx_hal_ltdc.c ****   /* Change LTDC peripheral state */
 774:./Libraries/STM32F4xx_HAL_Driver/Src/stm32f4xx_hal_ltdc.c ****   hltdc->State = HAL_LTDC_STATE_BUSY;
 1661              		.loc 1 774 16 is_stmt 1 discriminator 2
 1662 001e 7B68     		ldr	r3, [r7, #4]
 1663 0020 0222     		movs	r2, #2
 1664 0022 83F8A120 		strb	r2, [r3, #161]
 775:./Libraries/STM32F4xx_HAL_Driver/Src/stm32f4xx_hal_ltdc.c **** 
 776:./Libraries/STM32F4xx_HAL_Driver/Src/stm32f4xx_hal_ltdc.c ****   /* Enable Dither by setting DTEN bit */
 777:./Libraries/STM32F4xx_HAL_Driver/Src/stm32f4xx_hal_ltdc.c ****   LTDC->GCR |= (uint32_t)LTDC_GCR_DEN;
 1665              		.loc 1 777 13 discriminator 2
 1666 0026 0A4B     		ldr	r3, .L48
 1667 0028 9B69     		ldr	r3, [r3, #24]
 1668 002a 094A     		ldr	r2, .L48
 1669 002c 43F48033 		orr	r3, r3, #65536
 1670 0030 9361     		str	r3, [r2, #24]
 778:./Libraries/STM32F4xx_HAL_Driver/Src/stm32f4xx_hal_ltdc.c **** 
 779:./Libraries/STM32F4xx_HAL_Driver/Src/stm32f4xx_hal_ltdc.c ****   /* Change the LTDC state*/
 780:./Libraries/STM32F4xx_HAL_Driver/Src/stm32f4xx_hal_ltdc.c ****   hltdc->State = HAL_LTDC_STATE_READY; 
 1671              		.loc 1 780 16 discriminator 2
 1672 0032 7B68     		ldr	r3, [r7, #4]
 1673 0034 0122     		movs	r2, #1
 1674 0036 83F8A120 		strb	r2, [r3, #161]
 781:./Libraries/STM32F4xx_HAL_Driver/Src/stm32f4xx_hal_ltdc.c **** 
 782:./Libraries/STM32F4xx_HAL_Driver/Src/stm32f4xx_hal_ltdc.c ****   /* Process unlocked */
 783:./Libraries/STM32F4xx_HAL_Driver/Src/stm32f4xx_hal_ltdc.c ****   __HAL_UNLOCK(hltdc);
 1675              		.loc 1 783 3 discriminator 2
 1676 003a 7B68     		ldr	r3, [r7, #4]
 1677 003c 0022     		movs	r2, #0
 1678 003e 83F8A020 		strb	r2, [r3, #160]
 784:./Libraries/STM32F4xx_HAL_Driver/Src/stm32f4xx_hal_ltdc.c **** 
 785:./Libraries/STM32F4xx_HAL_Driver/Src/stm32f4xx_hal_ltdc.c ****   return HAL_OK;
 1679              		.loc 1 785 10 discriminator 2
 1680 0042 0023     		movs	r3, #0
 1681              	.L47:
 786:./Libraries/STM32F4xx_HAL_Driver/Src/stm32f4xx_hal_ltdc.c **** }
 1682              		.loc 1 786 1
 1683 0044 1846     		mov	r0, r3
 1684 0046 0C37     		adds	r7, r7, #12
 1685              	.LCFI89:
 1686              		.cfi_def_cfa_offset 4
 1687 0048 BD46     		mov	sp, r7
 1688              	.LCFI90:
 1689              		.cfi_def_cfa_register 13
 1690              		@ sp needed
 1691 004a 5DF8047B 		ldr	r7, [sp], #4
ARM GAS  /tmp/cchxdGeL.s 			page 44


 1692              	.LCFI91:
 1693              		.cfi_restore 7
 1694              		.cfi_def_cfa_offset 0
 1695 004e 7047     		bx	lr
 1696              	.L49:
 1697              		.align	2
 1698              	.L48:
 1699 0050 00680140 		.word	1073833984
 1700              		.cfi_endproc
 1701              	.LFE141:
 1703              		.section	.text.HAL_LTDC_DisableDither,"ax",%progbits
 1704              		.align	1
 1705              		.global	HAL_LTDC_DisableDither
 1706              		.syntax unified
 1707              		.thumb
 1708              		.thumb_func
 1709              		.fpu fpv4-sp-d16
 1711              	HAL_LTDC_DisableDither:
 1712              	.LFB142:
 787:./Libraries/STM32F4xx_HAL_Driver/Src/stm32f4xx_hal_ltdc.c **** 
 788:./Libraries/STM32F4xx_HAL_Driver/Src/stm32f4xx_hal_ltdc.c **** /**
 789:./Libraries/STM32F4xx_HAL_Driver/Src/stm32f4xx_hal_ltdc.c ****   * @brief  Disable Dither.
 790:./Libraries/STM32F4xx_HAL_Driver/Src/stm32f4xx_hal_ltdc.c ****   * @param  hltdc  pointer to a LTDC_HandleTypeDef structure that contains
 791:./Libraries/STM32F4xx_HAL_Driver/Src/stm32f4xx_hal_ltdc.c ****   *                the configuration information for the LTDC.
 792:./Libraries/STM32F4xx_HAL_Driver/Src/stm32f4xx_hal_ltdc.c ****   * @retval  HAL status
 793:./Libraries/STM32F4xx_HAL_Driver/Src/stm32f4xx_hal_ltdc.c ****   */
 794:./Libraries/STM32F4xx_HAL_Driver/Src/stm32f4xx_hal_ltdc.c **** 
 795:./Libraries/STM32F4xx_HAL_Driver/Src/stm32f4xx_hal_ltdc.c **** HAL_StatusTypeDef HAL_LTDC_DisableDither(LTDC_HandleTypeDef *hltdc)
 796:./Libraries/STM32F4xx_HAL_Driver/Src/stm32f4xx_hal_ltdc.c **** {
 1713              		.loc 1 796 1
 1714              		.cfi_startproc
 1715              		@ args = 0, pretend = 0, frame = 8
 1716              		@ frame_needed = 1, uses_anonymous_args = 0
 1717              		@ link register save eliminated.
 1718 0000 80B4     		push	{r7}
 1719              	.LCFI92:
 1720              		.cfi_def_cfa_offset 4
 1721              		.cfi_offset 7, -4
 1722 0002 83B0     		sub	sp, sp, #12
 1723              	.LCFI93:
 1724              		.cfi_def_cfa_offset 16
 1725 0004 00AF     		add	r7, sp, #0
 1726              	.LCFI94:
 1727              		.cfi_def_cfa_register 7
 1728 0006 7860     		str	r0, [r7, #4]
 797:./Libraries/STM32F4xx_HAL_Driver/Src/stm32f4xx_hal_ltdc.c ****   /* Process locked */
 798:./Libraries/STM32F4xx_HAL_Driver/Src/stm32f4xx_hal_ltdc.c ****   __HAL_LOCK(hltdc);
 1729              		.loc 1 798 3
 1730 0008 7B68     		ldr	r3, [r7, #4]
 1731 000a 93F8A030 		ldrb	r3, [r3, #160]	@ zero_extendqisi2
 1732 000e 012B     		cmp	r3, #1
 1733 0010 01D1     		bne	.L51
 1734              		.loc 1 798 3 is_stmt 0 discriminator 1
 1735 0012 0223     		movs	r3, #2
 1736 0014 16E0     		b	.L52
 1737              	.L51:
 1738              		.loc 1 798 3 discriminator 2
ARM GAS  /tmp/cchxdGeL.s 			page 45


 1739 0016 7B68     		ldr	r3, [r7, #4]
 1740 0018 0122     		movs	r2, #1
 1741 001a 83F8A020 		strb	r2, [r3, #160]
 799:./Libraries/STM32F4xx_HAL_Driver/Src/stm32f4xx_hal_ltdc.c **** 
 800:./Libraries/STM32F4xx_HAL_Driver/Src/stm32f4xx_hal_ltdc.c ****   /* Change LTDC peripheral state */
 801:./Libraries/STM32F4xx_HAL_Driver/Src/stm32f4xx_hal_ltdc.c ****   hltdc->State = HAL_LTDC_STATE_BUSY;
 1742              		.loc 1 801 16 is_stmt 1 discriminator 2
 1743 001e 7B68     		ldr	r3, [r7, #4]
 1744 0020 0222     		movs	r2, #2
 1745 0022 83F8A120 		strb	r2, [r3, #161]
 802:./Libraries/STM32F4xx_HAL_Driver/Src/stm32f4xx_hal_ltdc.c **** 
 803:./Libraries/STM32F4xx_HAL_Driver/Src/stm32f4xx_hal_ltdc.c ****   /* Disable Dither by setting DTEN bit */
 804:./Libraries/STM32F4xx_HAL_Driver/Src/stm32f4xx_hal_ltdc.c ****   LTDC->GCR &= ~(uint32_t)LTDC_GCR_DEN;
 1746              		.loc 1 804 13 discriminator 2
 1747 0026 0A4B     		ldr	r3, .L53
 1748 0028 9B69     		ldr	r3, [r3, #24]
 1749 002a 094A     		ldr	r2, .L53
 1750 002c 23F48033 		bic	r3, r3, #65536
 1751 0030 9361     		str	r3, [r2, #24]
 805:./Libraries/STM32F4xx_HAL_Driver/Src/stm32f4xx_hal_ltdc.c **** 
 806:./Libraries/STM32F4xx_HAL_Driver/Src/stm32f4xx_hal_ltdc.c ****   /* Change the LTDC state*/
 807:./Libraries/STM32F4xx_HAL_Driver/Src/stm32f4xx_hal_ltdc.c ****   hltdc->State = HAL_LTDC_STATE_READY;
 1752              		.loc 1 807 16 discriminator 2
 1753 0032 7B68     		ldr	r3, [r7, #4]
 1754 0034 0122     		movs	r2, #1
 1755 0036 83F8A120 		strb	r2, [r3, #161]
 808:./Libraries/STM32F4xx_HAL_Driver/Src/stm32f4xx_hal_ltdc.c **** 
 809:./Libraries/STM32F4xx_HAL_Driver/Src/stm32f4xx_hal_ltdc.c ****   /* Process unlocked */
 810:./Libraries/STM32F4xx_HAL_Driver/Src/stm32f4xx_hal_ltdc.c ****   __HAL_UNLOCK(hltdc);
 1756              		.loc 1 810 3 discriminator 2
 1757 003a 7B68     		ldr	r3, [r7, #4]
 1758 003c 0022     		movs	r2, #0
 1759 003e 83F8A020 		strb	r2, [r3, #160]
 811:./Libraries/STM32F4xx_HAL_Driver/Src/stm32f4xx_hal_ltdc.c **** 
 812:./Libraries/STM32F4xx_HAL_Driver/Src/stm32f4xx_hal_ltdc.c ****   return HAL_OK;
 1760              		.loc 1 812 10 discriminator 2
 1761 0042 0023     		movs	r3, #0
 1762              	.L52:
 813:./Libraries/STM32F4xx_HAL_Driver/Src/stm32f4xx_hal_ltdc.c **** }
 1763              		.loc 1 813 1
 1764 0044 1846     		mov	r0, r3
 1765 0046 0C37     		adds	r7, r7, #12
 1766              	.LCFI95:
 1767              		.cfi_def_cfa_offset 4
 1768 0048 BD46     		mov	sp, r7
 1769              	.LCFI96:
 1770              		.cfi_def_cfa_register 13
 1771              		@ sp needed
 1772 004a 5DF8047B 		ldr	r7, [sp], #4
 1773              	.LCFI97:
 1774              		.cfi_restore 7
 1775              		.cfi_def_cfa_offset 0
 1776 004e 7047     		bx	lr
 1777              	.L54:
 1778              		.align	2
 1779              	.L53:
 1780 0050 00680140 		.word	1073833984
ARM GAS  /tmp/cchxdGeL.s 			page 46


 1781              		.cfi_endproc
 1782              	.LFE142:
 1784              		.section	.text.HAL_LTDC_SetWindowSize,"ax",%progbits
 1785              		.align	1
 1786              		.global	HAL_LTDC_SetWindowSize
 1787              		.syntax unified
 1788              		.thumb
 1789              		.thumb_func
 1790              		.fpu fpv4-sp-d16
 1792              	HAL_LTDC_SetWindowSize:
 1793              	.LFB143:
 814:./Libraries/STM32F4xx_HAL_Driver/Src/stm32f4xx_hal_ltdc.c **** 
 815:./Libraries/STM32F4xx_HAL_Driver/Src/stm32f4xx_hal_ltdc.c **** /**
 816:./Libraries/STM32F4xx_HAL_Driver/Src/stm32f4xx_hal_ltdc.c ****   * @brief  Set the LTDC window size.
 817:./Libraries/STM32F4xx_HAL_Driver/Src/stm32f4xx_hal_ltdc.c ****   * @param  hltdc     pointer to a LTDC_HandleTypeDef structure that contains
 818:./Libraries/STM32F4xx_HAL_Driver/Src/stm32f4xx_hal_ltdc.c ****   *                   the configuration information for the LTDC.
 819:./Libraries/STM32F4xx_HAL_Driver/Src/stm32f4xx_hal_ltdc.c ****   * @param  XSize     LTDC Pixel per line
 820:./Libraries/STM32F4xx_HAL_Driver/Src/stm32f4xx_hal_ltdc.c ****   * @param  YSize     LTDC Line number
 821:./Libraries/STM32F4xx_HAL_Driver/Src/stm32f4xx_hal_ltdc.c ****   * @param  LayerIdx  LTDC Layer index.
 822:./Libraries/STM32F4xx_HAL_Driver/Src/stm32f4xx_hal_ltdc.c ****   *                   This parameter can be one of the following values:
 823:./Libraries/STM32F4xx_HAL_Driver/Src/stm32f4xx_hal_ltdc.c ****   *                   LTDC_LAYER_1 (0) or LTDC_LAYER_2 (1)
 824:./Libraries/STM32F4xx_HAL_Driver/Src/stm32f4xx_hal_ltdc.c ****   * @retval  HAL status
 825:./Libraries/STM32F4xx_HAL_Driver/Src/stm32f4xx_hal_ltdc.c ****   */
 826:./Libraries/STM32F4xx_HAL_Driver/Src/stm32f4xx_hal_ltdc.c **** HAL_StatusTypeDef HAL_LTDC_SetWindowSize(LTDC_HandleTypeDef *hltdc, uint32_t XSize, uint32_t YSize,
 827:./Libraries/STM32F4xx_HAL_Driver/Src/stm32f4xx_hal_ltdc.c **** {
 1794              		.loc 1 827 1
 1795              		.cfi_startproc
 1796              		@ args = 0, pretend = 0, frame = 24
 1797              		@ frame_needed = 1, uses_anonymous_args = 0
 1798 0000 80B5     		push	{r7, lr}
 1799              	.LCFI98:
 1800              		.cfi_def_cfa_offset 8
 1801              		.cfi_offset 7, -8
 1802              		.cfi_offset 14, -4
 1803 0002 86B0     		sub	sp, sp, #24
 1804              	.LCFI99:
 1805              		.cfi_def_cfa_offset 32
 1806 0004 00AF     		add	r7, sp, #0
 1807              	.LCFI100:
 1808              		.cfi_def_cfa_register 7
 1809 0006 F860     		str	r0, [r7, #12]
 1810 0008 B960     		str	r1, [r7, #8]
 1811 000a 7A60     		str	r2, [r7, #4]
 1812 000c 3B60     		str	r3, [r7]
 828:./Libraries/STM32F4xx_HAL_Driver/Src/stm32f4xx_hal_ltdc.c ****   LTDC_LayerCfgTypeDef *pLayerCfg;
 829:./Libraries/STM32F4xx_HAL_Driver/Src/stm32f4xx_hal_ltdc.c **** 
 830:./Libraries/STM32F4xx_HAL_Driver/Src/stm32f4xx_hal_ltdc.c ****   /* Check the parameters (Layers parameters)*/
 831:./Libraries/STM32F4xx_HAL_Driver/Src/stm32f4xx_hal_ltdc.c ****   assert_param(IS_LTDC_LAYER(LayerIdx));
 832:./Libraries/STM32F4xx_HAL_Driver/Src/stm32f4xx_hal_ltdc.c ****   assert_param(IS_LTDC_CFBLL(XSize));
 833:./Libraries/STM32F4xx_HAL_Driver/Src/stm32f4xx_hal_ltdc.c ****   assert_param(IS_LTDC_CFBLNBR(YSize));
 834:./Libraries/STM32F4xx_HAL_Driver/Src/stm32f4xx_hal_ltdc.c **** 
 835:./Libraries/STM32F4xx_HAL_Driver/Src/stm32f4xx_hal_ltdc.c ****   /* Process locked */
 836:./Libraries/STM32F4xx_HAL_Driver/Src/stm32f4xx_hal_ltdc.c ****   __HAL_LOCK(hltdc);
 1813              		.loc 1 836 3
 1814 000e FB68     		ldr	r3, [r7, #12]
 1815 0010 93F8A030 		ldrb	r3, [r3, #160]	@ zero_extendqisi2
 1816 0014 012B     		cmp	r3, #1
ARM GAS  /tmp/cchxdGeL.s 			page 47


 1817 0016 01D1     		bne	.L56
 1818              		.loc 1 836 3 is_stmt 0 discriminator 1
 1819 0018 0223     		movs	r3, #2
 1820 001a 33E0     		b	.L57
 1821              	.L56:
 1822              		.loc 1 836 3 discriminator 2
 1823 001c FB68     		ldr	r3, [r7, #12]
 1824 001e 0122     		movs	r2, #1
 1825 0020 83F8A020 		strb	r2, [r3, #160]
 837:./Libraries/STM32F4xx_HAL_Driver/Src/stm32f4xx_hal_ltdc.c **** 
 838:./Libraries/STM32F4xx_HAL_Driver/Src/stm32f4xx_hal_ltdc.c ****   /* Change LTDC peripheral state */
 839:./Libraries/STM32F4xx_HAL_Driver/Src/stm32f4xx_hal_ltdc.c ****   hltdc->State = HAL_LTDC_STATE_BUSY; 
 1826              		.loc 1 839 16 is_stmt 1 discriminator 2
 1827 0024 FB68     		ldr	r3, [r7, #12]
 1828 0026 0222     		movs	r2, #2
 1829 0028 83F8A120 		strb	r2, [r3, #161]
 840:./Libraries/STM32F4xx_HAL_Driver/Src/stm32f4xx_hal_ltdc.c **** 
 841:./Libraries/STM32F4xx_HAL_Driver/Src/stm32f4xx_hal_ltdc.c ****   /* Get layer configuration from handle structure */
 842:./Libraries/STM32F4xx_HAL_Driver/Src/stm32f4xx_hal_ltdc.c ****   pLayerCfg = &hltdc->LayerCfg[LayerIdx];
 1830              		.loc 1 842 13 discriminator 2
 1831 002c 3B68     		ldr	r3, [r7]
 1832 002e 3422     		movs	r2, #52
 1833 0030 02FB03F3 		mul	r3, r2, r3
 1834 0034 3833     		adds	r3, r3, #56
 1835 0036 FA68     		ldr	r2, [r7, #12]
 1836 0038 1344     		add	r3, r3, r2
 1837 003a 7B61     		str	r3, [r7, #20]
 843:./Libraries/STM32F4xx_HAL_Driver/Src/stm32f4xx_hal_ltdc.c **** 
 844:./Libraries/STM32F4xx_HAL_Driver/Src/stm32f4xx_hal_ltdc.c ****   /* update horizontal stop */
 845:./Libraries/STM32F4xx_HAL_Driver/Src/stm32f4xx_hal_ltdc.c ****   pLayerCfg->WindowX1 = XSize + pLayerCfg->WindowX0;
 1838              		.loc 1 845 42 discriminator 2
 1839 003c 7B69     		ldr	r3, [r7, #20]
 1840 003e 1A68     		ldr	r2, [r3]
 1841              		.loc 1 845 31 discriminator 2
 1842 0040 BB68     		ldr	r3, [r7, #8]
 1843 0042 1A44     		add	r2, r2, r3
 1844              		.loc 1 845 23 discriminator 2
 1845 0044 7B69     		ldr	r3, [r7, #20]
 1846 0046 5A60     		str	r2, [r3, #4]
 846:./Libraries/STM32F4xx_HAL_Driver/Src/stm32f4xx_hal_ltdc.c **** 
 847:./Libraries/STM32F4xx_HAL_Driver/Src/stm32f4xx_hal_ltdc.c ****   /* update vertical stop */  
 848:./Libraries/STM32F4xx_HAL_Driver/Src/stm32f4xx_hal_ltdc.c ****   pLayerCfg->WindowY1 = YSize + pLayerCfg->WindowY0;
 1847              		.loc 1 848 42 discriminator 2
 1848 0048 7B69     		ldr	r3, [r7, #20]
 1849 004a 9A68     		ldr	r2, [r3, #8]
 1850              		.loc 1 848 31 discriminator 2
 1851 004c 7B68     		ldr	r3, [r7, #4]
 1852 004e 1A44     		add	r2, r2, r3
 1853              		.loc 1 848 23 discriminator 2
 1854 0050 7B69     		ldr	r3, [r7, #20]
 1855 0052 DA60     		str	r2, [r3, #12]
 849:./Libraries/STM32F4xx_HAL_Driver/Src/stm32f4xx_hal_ltdc.c **** 
 850:./Libraries/STM32F4xx_HAL_Driver/Src/stm32f4xx_hal_ltdc.c ****   /* Reconfigures the color frame buffer pitch in byte */
 851:./Libraries/STM32F4xx_HAL_Driver/Src/stm32f4xx_hal_ltdc.c ****   pLayerCfg->ImageWidth = XSize;
 1856              		.loc 1 851 25 discriminator 2
 1857 0054 7B69     		ldr	r3, [r7, #20]
 1858 0056 BA68     		ldr	r2, [r7, #8]
ARM GAS  /tmp/cchxdGeL.s 			page 48


 1859 0058 9A62     		str	r2, [r3, #40]
 852:./Libraries/STM32F4xx_HAL_Driver/Src/stm32f4xx_hal_ltdc.c **** 
 853:./Libraries/STM32F4xx_HAL_Driver/Src/stm32f4xx_hal_ltdc.c ****   /* Reconfigures the frame buffer line number */
 854:./Libraries/STM32F4xx_HAL_Driver/Src/stm32f4xx_hal_ltdc.c ****   pLayerCfg->ImageHeight = YSize;
 1860              		.loc 1 854 26 discriminator 2
 1861 005a 7B69     		ldr	r3, [r7, #20]
 1862 005c 7A68     		ldr	r2, [r7, #4]
 1863 005e DA62     		str	r2, [r3, #44]
 855:./Libraries/STM32F4xx_HAL_Driver/Src/stm32f4xx_hal_ltdc.c **** 
 856:./Libraries/STM32F4xx_HAL_Driver/Src/stm32f4xx_hal_ltdc.c ****   /* Set LTDC parameters */
 857:./Libraries/STM32F4xx_HAL_Driver/Src/stm32f4xx_hal_ltdc.c ****   LTDC_SetConfig(hltdc, pLayerCfg, LayerIdx);
 1864              		.loc 1 857 3 discriminator 2
 1865 0060 3A68     		ldr	r2, [r7]
 1866 0062 7969     		ldr	r1, [r7, #20]
 1867 0064 F868     		ldr	r0, [r7, #12]
 1868 0066 FFF7FEFF 		bl	LTDC_SetConfig
 858:./Libraries/STM32F4xx_HAL_Driver/Src/stm32f4xx_hal_ltdc.c **** 
 859:./Libraries/STM32F4xx_HAL_Driver/Src/stm32f4xx_hal_ltdc.c ****   /* Set the Immediate Reload type */
 860:./Libraries/STM32F4xx_HAL_Driver/Src/stm32f4xx_hal_ltdc.c ****   hltdc->Instance->SRCR = LTDC_SRCR_IMR;
 1869              		.loc 1 860 8 discriminator 2
 1870 006a FB68     		ldr	r3, [r7, #12]
 1871 006c 1B68     		ldr	r3, [r3]
 1872              		.loc 1 860 25 discriminator 2
 1873 006e 0122     		movs	r2, #1
 1874 0070 5A62     		str	r2, [r3, #36]
 861:./Libraries/STM32F4xx_HAL_Driver/Src/stm32f4xx_hal_ltdc.c **** 
 862:./Libraries/STM32F4xx_HAL_Driver/Src/stm32f4xx_hal_ltdc.c ****   /* Change the LTDC state*/
 863:./Libraries/STM32F4xx_HAL_Driver/Src/stm32f4xx_hal_ltdc.c ****   hltdc->State = HAL_LTDC_STATE_READY;
 1875              		.loc 1 863 16 discriminator 2
 1876 0072 FB68     		ldr	r3, [r7, #12]
 1877 0074 0122     		movs	r2, #1
 1878 0076 83F8A120 		strb	r2, [r3, #161]
 864:./Libraries/STM32F4xx_HAL_Driver/Src/stm32f4xx_hal_ltdc.c **** 
 865:./Libraries/STM32F4xx_HAL_Driver/Src/stm32f4xx_hal_ltdc.c ****   /* Process unlocked */
 866:./Libraries/STM32F4xx_HAL_Driver/Src/stm32f4xx_hal_ltdc.c ****   __HAL_UNLOCK(hltdc);
 1879              		.loc 1 866 3 discriminator 2
 1880 007a FB68     		ldr	r3, [r7, #12]
 1881 007c 0022     		movs	r2, #0
 1882 007e 83F8A020 		strb	r2, [r3, #160]
 867:./Libraries/STM32F4xx_HAL_Driver/Src/stm32f4xx_hal_ltdc.c **** 
 868:./Libraries/STM32F4xx_HAL_Driver/Src/stm32f4xx_hal_ltdc.c ****   return HAL_OK;
 1883              		.loc 1 868 10 discriminator 2
 1884 0082 0023     		movs	r3, #0
 1885              	.L57:
 869:./Libraries/STM32F4xx_HAL_Driver/Src/stm32f4xx_hal_ltdc.c **** }
 1886              		.loc 1 869 1
 1887 0084 1846     		mov	r0, r3
 1888 0086 1837     		adds	r7, r7, #24
 1889              	.LCFI101:
 1890              		.cfi_def_cfa_offset 8
 1891 0088 BD46     		mov	sp, r7
 1892              	.LCFI102:
 1893              		.cfi_def_cfa_register 13
 1894              		@ sp needed
 1895 008a 80BD     		pop	{r7, pc}
 1896              		.cfi_endproc
 1897              	.LFE143:
ARM GAS  /tmp/cchxdGeL.s 			page 49


 1899              		.section	.text.HAL_LTDC_SetWindowPosition,"ax",%progbits
 1900              		.align	1
 1901              		.global	HAL_LTDC_SetWindowPosition
 1902              		.syntax unified
 1903              		.thumb
 1904              		.thumb_func
 1905              		.fpu fpv4-sp-d16
 1907              	HAL_LTDC_SetWindowPosition:
 1908              	.LFB144:
 870:./Libraries/STM32F4xx_HAL_Driver/Src/stm32f4xx_hal_ltdc.c **** 
 871:./Libraries/STM32F4xx_HAL_Driver/Src/stm32f4xx_hal_ltdc.c **** /**
 872:./Libraries/STM32F4xx_HAL_Driver/Src/stm32f4xx_hal_ltdc.c ****   * @brief  Set the LTDC window position.
 873:./Libraries/STM32F4xx_HAL_Driver/Src/stm32f4xx_hal_ltdc.c ****   * @param  hltdc     pointer to a LTDC_HandleTypeDef structure that contains
 874:./Libraries/STM32F4xx_HAL_Driver/Src/stm32f4xx_hal_ltdc.c ****   *                   the configuration information for the LTDC.
 875:./Libraries/STM32F4xx_HAL_Driver/Src/stm32f4xx_hal_ltdc.c ****   * @param  X0        LTDC window X offset
 876:./Libraries/STM32F4xx_HAL_Driver/Src/stm32f4xx_hal_ltdc.c ****   * @param  Y0        LTDC window Y offset
 877:./Libraries/STM32F4xx_HAL_Driver/Src/stm32f4xx_hal_ltdc.c ****   * @param  LayerIdx  LTDC Layer index.
 878:./Libraries/STM32F4xx_HAL_Driver/Src/stm32f4xx_hal_ltdc.c ****   *                         This parameter can be one of the following values:
 879:./Libraries/STM32F4xx_HAL_Driver/Src/stm32f4xx_hal_ltdc.c ****   *                         LTDC_LAYER_1 (0) or LTDC_LAYER_2 (1)
 880:./Libraries/STM32F4xx_HAL_Driver/Src/stm32f4xx_hal_ltdc.c ****   * @retval  HAL status
 881:./Libraries/STM32F4xx_HAL_Driver/Src/stm32f4xx_hal_ltdc.c ****   */
 882:./Libraries/STM32F4xx_HAL_Driver/Src/stm32f4xx_hal_ltdc.c **** HAL_StatusTypeDef HAL_LTDC_SetWindowPosition(LTDC_HandleTypeDef *hltdc, uint32_t X0, uint32_t Y0, u
 883:./Libraries/STM32F4xx_HAL_Driver/Src/stm32f4xx_hal_ltdc.c **** {
 1909              		.loc 1 883 1
 1910              		.cfi_startproc
 1911              		@ args = 0, pretend = 0, frame = 24
 1912              		@ frame_needed = 1, uses_anonymous_args = 0
 1913 0000 80B5     		push	{r7, lr}
 1914              	.LCFI103:
 1915              		.cfi_def_cfa_offset 8
 1916              		.cfi_offset 7, -8
 1917              		.cfi_offset 14, -4
 1918 0002 86B0     		sub	sp, sp, #24
 1919              	.LCFI104:
 1920              		.cfi_def_cfa_offset 32
 1921 0004 00AF     		add	r7, sp, #0
 1922              	.LCFI105:
 1923              		.cfi_def_cfa_register 7
 1924 0006 F860     		str	r0, [r7, #12]
 1925 0008 B960     		str	r1, [r7, #8]
 1926 000a 7A60     		str	r2, [r7, #4]
 1927 000c 3B60     		str	r3, [r7]
 884:./Libraries/STM32F4xx_HAL_Driver/Src/stm32f4xx_hal_ltdc.c ****   LTDC_LayerCfgTypeDef *pLayerCfg;
 885:./Libraries/STM32F4xx_HAL_Driver/Src/stm32f4xx_hal_ltdc.c ****   
 886:./Libraries/STM32F4xx_HAL_Driver/Src/stm32f4xx_hal_ltdc.c ****   /* Check the parameters */
 887:./Libraries/STM32F4xx_HAL_Driver/Src/stm32f4xx_hal_ltdc.c ****   assert_param(IS_LTDC_LAYER(LayerIdx));
 888:./Libraries/STM32F4xx_HAL_Driver/Src/stm32f4xx_hal_ltdc.c ****   assert_param(IS_LTDC_CFBLL(X0));
 889:./Libraries/STM32F4xx_HAL_Driver/Src/stm32f4xx_hal_ltdc.c ****   assert_param(IS_LTDC_CFBLNBR(Y0));
 890:./Libraries/STM32F4xx_HAL_Driver/Src/stm32f4xx_hal_ltdc.c **** 
 891:./Libraries/STM32F4xx_HAL_Driver/Src/stm32f4xx_hal_ltdc.c ****   /* Process locked */
 892:./Libraries/STM32F4xx_HAL_Driver/Src/stm32f4xx_hal_ltdc.c ****   __HAL_LOCK(hltdc);
 1928              		.loc 1 892 3
 1929 000e FB68     		ldr	r3, [r7, #12]
 1930 0010 93F8A030 		ldrb	r3, [r3, #160]	@ zero_extendqisi2
 1931 0014 012B     		cmp	r3, #1
 1932 0016 01D1     		bne	.L59
 1933              		.loc 1 892 3 is_stmt 0 discriminator 1
ARM GAS  /tmp/cchxdGeL.s 			page 50


 1934 0018 0223     		movs	r3, #2
 1935 001a 33E0     		b	.L60
 1936              	.L59:
 1937              		.loc 1 892 3 discriminator 2
 1938 001c FB68     		ldr	r3, [r7, #12]
 1939 001e 0122     		movs	r2, #1
 1940 0020 83F8A020 		strb	r2, [r3, #160]
 893:./Libraries/STM32F4xx_HAL_Driver/Src/stm32f4xx_hal_ltdc.c **** 
 894:./Libraries/STM32F4xx_HAL_Driver/Src/stm32f4xx_hal_ltdc.c ****   /* Change LTDC peripheral state */
 895:./Libraries/STM32F4xx_HAL_Driver/Src/stm32f4xx_hal_ltdc.c ****   hltdc->State = HAL_LTDC_STATE_BUSY;
 1941              		.loc 1 895 16 is_stmt 1 discriminator 2
 1942 0024 FB68     		ldr	r3, [r7, #12]
 1943 0026 0222     		movs	r2, #2
 1944 0028 83F8A120 		strb	r2, [r3, #161]
 896:./Libraries/STM32F4xx_HAL_Driver/Src/stm32f4xx_hal_ltdc.c **** 
 897:./Libraries/STM32F4xx_HAL_Driver/Src/stm32f4xx_hal_ltdc.c ****   /* Get layer configuration from handle structure */
 898:./Libraries/STM32F4xx_HAL_Driver/Src/stm32f4xx_hal_ltdc.c ****   pLayerCfg = &hltdc->LayerCfg[LayerIdx];
 1945              		.loc 1 898 13 discriminator 2
 1946 002c 3B68     		ldr	r3, [r7]
 1947 002e 3422     		movs	r2, #52
 1948 0030 02FB03F3 		mul	r3, r2, r3
 1949 0034 3833     		adds	r3, r3, #56
 1950 0036 FA68     		ldr	r2, [r7, #12]
 1951 0038 1344     		add	r3, r3, r2
 1952 003a 7B61     		str	r3, [r7, #20]
 899:./Libraries/STM32F4xx_HAL_Driver/Src/stm32f4xx_hal_ltdc.c **** 
 900:./Libraries/STM32F4xx_HAL_Driver/Src/stm32f4xx_hal_ltdc.c ****   /* update horizontal start/stop */
 901:./Libraries/STM32F4xx_HAL_Driver/Src/stm32f4xx_hal_ltdc.c ****   pLayerCfg->WindowX0 = X0;
 1953              		.loc 1 901 23 discriminator 2
 1954 003c 7B69     		ldr	r3, [r7, #20]
 1955 003e BA68     		ldr	r2, [r7, #8]
 1956 0040 1A60     		str	r2, [r3]
 902:./Libraries/STM32F4xx_HAL_Driver/Src/stm32f4xx_hal_ltdc.c ****   pLayerCfg->WindowX1 = X0 + pLayerCfg->ImageWidth;
 1957              		.loc 1 902 39 discriminator 2
 1958 0042 7B69     		ldr	r3, [r7, #20]
 1959 0044 9A6A     		ldr	r2, [r3, #40]
 1960              		.loc 1 902 28 discriminator 2
 1961 0046 BB68     		ldr	r3, [r7, #8]
 1962 0048 1A44     		add	r2, r2, r3
 1963              		.loc 1 902 23 discriminator 2
 1964 004a 7B69     		ldr	r3, [r7, #20]
 1965 004c 5A60     		str	r2, [r3, #4]
 903:./Libraries/STM32F4xx_HAL_Driver/Src/stm32f4xx_hal_ltdc.c **** 
 904:./Libraries/STM32F4xx_HAL_Driver/Src/stm32f4xx_hal_ltdc.c ****   /* update vertical start/stop */
 905:./Libraries/STM32F4xx_HAL_Driver/Src/stm32f4xx_hal_ltdc.c ****   pLayerCfg->WindowY0 = Y0;
 1966              		.loc 1 905 23 discriminator 2
 1967 004e 7B69     		ldr	r3, [r7, #20]
 1968 0050 7A68     		ldr	r2, [r7, #4]
 1969 0052 9A60     		str	r2, [r3, #8]
 906:./Libraries/STM32F4xx_HAL_Driver/Src/stm32f4xx_hal_ltdc.c ****   pLayerCfg->WindowY1 = Y0 + pLayerCfg->ImageHeight;
 1970              		.loc 1 906 39 discriminator 2
 1971 0054 7B69     		ldr	r3, [r7, #20]
 1972 0056 DA6A     		ldr	r2, [r3, #44]
 1973              		.loc 1 906 28 discriminator 2
 1974 0058 7B68     		ldr	r3, [r7, #4]
 1975 005a 1A44     		add	r2, r2, r3
 1976              		.loc 1 906 23 discriminator 2
ARM GAS  /tmp/cchxdGeL.s 			page 51


 1977 005c 7B69     		ldr	r3, [r7, #20]
 1978 005e DA60     		str	r2, [r3, #12]
 907:./Libraries/STM32F4xx_HAL_Driver/Src/stm32f4xx_hal_ltdc.c **** 
 908:./Libraries/STM32F4xx_HAL_Driver/Src/stm32f4xx_hal_ltdc.c ****   /* Set LTDC parameters */
 909:./Libraries/STM32F4xx_HAL_Driver/Src/stm32f4xx_hal_ltdc.c ****   LTDC_SetConfig(hltdc, pLayerCfg, LayerIdx);
 1979              		.loc 1 909 3 discriminator 2
 1980 0060 3A68     		ldr	r2, [r7]
 1981 0062 7969     		ldr	r1, [r7, #20]
 1982 0064 F868     		ldr	r0, [r7, #12]
 1983 0066 FFF7FEFF 		bl	LTDC_SetConfig
 910:./Libraries/STM32F4xx_HAL_Driver/Src/stm32f4xx_hal_ltdc.c **** 
 911:./Libraries/STM32F4xx_HAL_Driver/Src/stm32f4xx_hal_ltdc.c ****   /* Set the Immediate Reload type */
 912:./Libraries/STM32F4xx_HAL_Driver/Src/stm32f4xx_hal_ltdc.c ****   hltdc->Instance->SRCR = LTDC_SRCR_IMR;
 1984              		.loc 1 912 8 discriminator 2
 1985 006a FB68     		ldr	r3, [r7, #12]
 1986 006c 1B68     		ldr	r3, [r3]
 1987              		.loc 1 912 25 discriminator 2
 1988 006e 0122     		movs	r2, #1
 1989 0070 5A62     		str	r2, [r3, #36]
 913:./Libraries/STM32F4xx_HAL_Driver/Src/stm32f4xx_hal_ltdc.c **** 
 914:./Libraries/STM32F4xx_HAL_Driver/Src/stm32f4xx_hal_ltdc.c ****   /* Change the LTDC state*/
 915:./Libraries/STM32F4xx_HAL_Driver/Src/stm32f4xx_hal_ltdc.c ****   hltdc->State = HAL_LTDC_STATE_READY;
 1990              		.loc 1 915 16 discriminator 2
 1991 0072 FB68     		ldr	r3, [r7, #12]
 1992 0074 0122     		movs	r2, #1
 1993 0076 83F8A120 		strb	r2, [r3, #161]
 916:./Libraries/STM32F4xx_HAL_Driver/Src/stm32f4xx_hal_ltdc.c **** 
 917:./Libraries/STM32F4xx_HAL_Driver/Src/stm32f4xx_hal_ltdc.c ****   /* Process unlocked */
 918:./Libraries/STM32F4xx_HAL_Driver/Src/stm32f4xx_hal_ltdc.c ****   __HAL_UNLOCK(hltdc);
 1994              		.loc 1 918 3 discriminator 2
 1995 007a FB68     		ldr	r3, [r7, #12]
 1996 007c 0022     		movs	r2, #0
 1997 007e 83F8A020 		strb	r2, [r3, #160]
 919:./Libraries/STM32F4xx_HAL_Driver/Src/stm32f4xx_hal_ltdc.c **** 
 920:./Libraries/STM32F4xx_HAL_Driver/Src/stm32f4xx_hal_ltdc.c ****   return HAL_OK;
 1998              		.loc 1 920 10 discriminator 2
 1999 0082 0023     		movs	r3, #0
 2000              	.L60:
 921:./Libraries/STM32F4xx_HAL_Driver/Src/stm32f4xx_hal_ltdc.c **** }
 2001              		.loc 1 921 1
 2002 0084 1846     		mov	r0, r3
 2003 0086 1837     		adds	r7, r7, #24
 2004              	.LCFI106:
 2005              		.cfi_def_cfa_offset 8
 2006 0088 BD46     		mov	sp, r7
 2007              	.LCFI107:
 2008              		.cfi_def_cfa_register 13
 2009              		@ sp needed
 2010 008a 80BD     		pop	{r7, pc}
 2011              		.cfi_endproc
 2012              	.LFE144:
 2014              		.section	.text.HAL_LTDC_SetPixelFormat,"ax",%progbits
 2015              		.align	1
 2016              		.global	HAL_LTDC_SetPixelFormat
 2017              		.syntax unified
 2018              		.thumb
 2019              		.thumb_func
ARM GAS  /tmp/cchxdGeL.s 			page 52


 2020              		.fpu fpv4-sp-d16
 2022              	HAL_LTDC_SetPixelFormat:
 2023              	.LFB145:
 922:./Libraries/STM32F4xx_HAL_Driver/Src/stm32f4xx_hal_ltdc.c **** 
 923:./Libraries/STM32F4xx_HAL_Driver/Src/stm32f4xx_hal_ltdc.c **** /**
 924:./Libraries/STM32F4xx_HAL_Driver/Src/stm32f4xx_hal_ltdc.c ****   * @brief  Reconfigure the pixel format.
 925:./Libraries/STM32F4xx_HAL_Driver/Src/stm32f4xx_hal_ltdc.c ****   * @param  hltdc        pointer to a LTDC_HandleTypeDef structure that contains
 926:./Libraries/STM32F4xx_HAL_Driver/Src/stm32f4xx_hal_ltdc.c ****   *                      the configuration information for the LTDC.
 927:./Libraries/STM32F4xx_HAL_Driver/Src/stm32f4xx_hal_ltdc.c ****   * @param  Pixelformat  new pixel format value.
 928:./Libraries/STM32F4xx_HAL_Driver/Src/stm32f4xx_hal_ltdc.c ****   * @param  LayerIdx     LTDC Layer index.
 929:./Libraries/STM32F4xx_HAL_Driver/Src/stm32f4xx_hal_ltdc.c ****   *                      This parameter can be one of the following values:
 930:./Libraries/STM32F4xx_HAL_Driver/Src/stm32f4xx_hal_ltdc.c ****   *                      LTDC_LAYER_1 (0) or LTDC_LAYER_2 (1).
 931:./Libraries/STM32F4xx_HAL_Driver/Src/stm32f4xx_hal_ltdc.c ****   * @retval  HAL status
 932:./Libraries/STM32F4xx_HAL_Driver/Src/stm32f4xx_hal_ltdc.c ****   */
 933:./Libraries/STM32F4xx_HAL_Driver/Src/stm32f4xx_hal_ltdc.c **** HAL_StatusTypeDef HAL_LTDC_SetPixelFormat(LTDC_HandleTypeDef *hltdc, uint32_t Pixelformat, uint32_t
 934:./Libraries/STM32F4xx_HAL_Driver/Src/stm32f4xx_hal_ltdc.c **** {
 2024              		.loc 1 934 1
 2025              		.cfi_startproc
 2026              		@ args = 0, pretend = 0, frame = 24
 2027              		@ frame_needed = 1, uses_anonymous_args = 0
 2028 0000 80B5     		push	{r7, lr}
 2029              	.LCFI108:
 2030              		.cfi_def_cfa_offset 8
 2031              		.cfi_offset 7, -8
 2032              		.cfi_offset 14, -4
 2033 0002 86B0     		sub	sp, sp, #24
 2034              	.LCFI109:
 2035              		.cfi_def_cfa_offset 32
 2036 0004 00AF     		add	r7, sp, #0
 2037              	.LCFI110:
 2038              		.cfi_def_cfa_register 7
 2039 0006 F860     		str	r0, [r7, #12]
 2040 0008 B960     		str	r1, [r7, #8]
 2041 000a 7A60     		str	r2, [r7, #4]
 935:./Libraries/STM32F4xx_HAL_Driver/Src/stm32f4xx_hal_ltdc.c ****   LTDC_LayerCfgTypeDef *pLayerCfg;
 936:./Libraries/STM32F4xx_HAL_Driver/Src/stm32f4xx_hal_ltdc.c **** 
 937:./Libraries/STM32F4xx_HAL_Driver/Src/stm32f4xx_hal_ltdc.c ****   /* Check the parameters */
 938:./Libraries/STM32F4xx_HAL_Driver/Src/stm32f4xx_hal_ltdc.c ****   assert_param(IS_LTDC_PIXEL_FORMAT(Pixelformat));
 939:./Libraries/STM32F4xx_HAL_Driver/Src/stm32f4xx_hal_ltdc.c ****   assert_param(IS_LTDC_LAYER(LayerIdx));
 940:./Libraries/STM32F4xx_HAL_Driver/Src/stm32f4xx_hal_ltdc.c **** 
 941:./Libraries/STM32F4xx_HAL_Driver/Src/stm32f4xx_hal_ltdc.c ****   /* Process locked */
 942:./Libraries/STM32F4xx_HAL_Driver/Src/stm32f4xx_hal_ltdc.c ****   __HAL_LOCK(hltdc);
 2042              		.loc 1 942 3
 2043 000c FB68     		ldr	r3, [r7, #12]
 2044 000e 93F8A030 		ldrb	r3, [r3, #160]	@ zero_extendqisi2
 2045 0012 012B     		cmp	r3, #1
 2046 0014 01D1     		bne	.L62
 2047              		.loc 1 942 3 is_stmt 0 discriminator 1
 2048 0016 0223     		movs	r3, #2
 2049 0018 24E0     		b	.L63
 2050              	.L62:
 2051              		.loc 1 942 3 discriminator 2
 2052 001a FB68     		ldr	r3, [r7, #12]
 2053 001c 0122     		movs	r2, #1
 2054 001e 83F8A020 		strb	r2, [r3, #160]
 943:./Libraries/STM32F4xx_HAL_Driver/Src/stm32f4xx_hal_ltdc.c **** 
 944:./Libraries/STM32F4xx_HAL_Driver/Src/stm32f4xx_hal_ltdc.c ****   /* Change LTDC peripheral state */
ARM GAS  /tmp/cchxdGeL.s 			page 53


 945:./Libraries/STM32F4xx_HAL_Driver/Src/stm32f4xx_hal_ltdc.c ****   hltdc->State = HAL_LTDC_STATE_BUSY;
 2055              		.loc 1 945 16 is_stmt 1 discriminator 2
 2056 0022 FB68     		ldr	r3, [r7, #12]
 2057 0024 0222     		movs	r2, #2
 2058 0026 83F8A120 		strb	r2, [r3, #161]
 946:./Libraries/STM32F4xx_HAL_Driver/Src/stm32f4xx_hal_ltdc.c **** 
 947:./Libraries/STM32F4xx_HAL_Driver/Src/stm32f4xx_hal_ltdc.c ****   /* Get layer configuration from handle structure */
 948:./Libraries/STM32F4xx_HAL_Driver/Src/stm32f4xx_hal_ltdc.c ****   pLayerCfg = &hltdc->LayerCfg[LayerIdx];  
 2059              		.loc 1 948 13 discriminator 2
 2060 002a 7B68     		ldr	r3, [r7, #4]
 2061 002c 3422     		movs	r2, #52
 2062 002e 02FB03F3 		mul	r3, r2, r3
 2063 0032 3833     		adds	r3, r3, #56
 2064 0034 FA68     		ldr	r2, [r7, #12]
 2065 0036 1344     		add	r3, r3, r2
 2066 0038 7B61     		str	r3, [r7, #20]
 949:./Libraries/STM32F4xx_HAL_Driver/Src/stm32f4xx_hal_ltdc.c **** 
 950:./Libraries/STM32F4xx_HAL_Driver/Src/stm32f4xx_hal_ltdc.c ****   /* Reconfigure the pixel format */
 951:./Libraries/STM32F4xx_HAL_Driver/Src/stm32f4xx_hal_ltdc.c ****   pLayerCfg->PixelFormat = Pixelformat;
 2067              		.loc 1 951 26 discriminator 2
 2068 003a 7B69     		ldr	r3, [r7, #20]
 2069 003c BA68     		ldr	r2, [r7, #8]
 2070 003e 1A61     		str	r2, [r3, #16]
 952:./Libraries/STM32F4xx_HAL_Driver/Src/stm32f4xx_hal_ltdc.c **** 
 953:./Libraries/STM32F4xx_HAL_Driver/Src/stm32f4xx_hal_ltdc.c ****   /* Set LTDC parameters */
 954:./Libraries/STM32F4xx_HAL_Driver/Src/stm32f4xx_hal_ltdc.c ****   LTDC_SetConfig(hltdc, pLayerCfg, LayerIdx);   
 2071              		.loc 1 954 3 discriminator 2
 2072 0040 7A68     		ldr	r2, [r7, #4]
 2073 0042 7969     		ldr	r1, [r7, #20]
 2074 0044 F868     		ldr	r0, [r7, #12]
 2075 0046 FFF7FEFF 		bl	LTDC_SetConfig
 955:./Libraries/STM32F4xx_HAL_Driver/Src/stm32f4xx_hal_ltdc.c **** 
 956:./Libraries/STM32F4xx_HAL_Driver/Src/stm32f4xx_hal_ltdc.c ****   /* Set the Immediate Reload type */
 957:./Libraries/STM32F4xx_HAL_Driver/Src/stm32f4xx_hal_ltdc.c ****   hltdc->Instance->SRCR = LTDC_SRCR_IMR;
 2076              		.loc 1 957 8 discriminator 2
 2077 004a FB68     		ldr	r3, [r7, #12]
 2078 004c 1B68     		ldr	r3, [r3]
 2079              		.loc 1 957 25 discriminator 2
 2080 004e 0122     		movs	r2, #1
 2081 0050 5A62     		str	r2, [r3, #36]
 958:./Libraries/STM32F4xx_HAL_Driver/Src/stm32f4xx_hal_ltdc.c **** 
 959:./Libraries/STM32F4xx_HAL_Driver/Src/stm32f4xx_hal_ltdc.c ****   /* Change the LTDC state*/
 960:./Libraries/STM32F4xx_HAL_Driver/Src/stm32f4xx_hal_ltdc.c ****   hltdc->State = HAL_LTDC_STATE_READY;
 2082              		.loc 1 960 16 discriminator 2
 2083 0052 FB68     		ldr	r3, [r7, #12]
 2084 0054 0122     		movs	r2, #1
 2085 0056 83F8A120 		strb	r2, [r3, #161]
 961:./Libraries/STM32F4xx_HAL_Driver/Src/stm32f4xx_hal_ltdc.c **** 
 962:./Libraries/STM32F4xx_HAL_Driver/Src/stm32f4xx_hal_ltdc.c ****   /* Process unlocked */
 963:./Libraries/STM32F4xx_HAL_Driver/Src/stm32f4xx_hal_ltdc.c ****   __HAL_UNLOCK(hltdc);
 2086              		.loc 1 963 3 discriminator 2
 2087 005a FB68     		ldr	r3, [r7, #12]
 2088 005c 0022     		movs	r2, #0
 2089 005e 83F8A020 		strb	r2, [r3, #160]
 964:./Libraries/STM32F4xx_HAL_Driver/Src/stm32f4xx_hal_ltdc.c **** 
 965:./Libraries/STM32F4xx_HAL_Driver/Src/stm32f4xx_hal_ltdc.c ****   return HAL_OK;
 2090              		.loc 1 965 10 discriminator 2
ARM GAS  /tmp/cchxdGeL.s 			page 54


 2091 0062 0023     		movs	r3, #0
 2092              	.L63:
 966:./Libraries/STM32F4xx_HAL_Driver/Src/stm32f4xx_hal_ltdc.c **** }
 2093              		.loc 1 966 1
 2094 0064 1846     		mov	r0, r3
 2095 0066 1837     		adds	r7, r7, #24
 2096              	.LCFI111:
 2097              		.cfi_def_cfa_offset 8
 2098 0068 BD46     		mov	sp, r7
 2099              	.LCFI112:
 2100              		.cfi_def_cfa_register 13
 2101              		@ sp needed
 2102 006a 80BD     		pop	{r7, pc}
 2103              		.cfi_endproc
 2104              	.LFE145:
 2106              		.section	.text.HAL_LTDC_SetAlpha,"ax",%progbits
 2107              		.align	1
 2108              		.global	HAL_LTDC_SetAlpha
 2109              		.syntax unified
 2110              		.thumb
 2111              		.thumb_func
 2112              		.fpu fpv4-sp-d16
 2114              	HAL_LTDC_SetAlpha:
 2115              	.LFB146:
 967:./Libraries/STM32F4xx_HAL_Driver/Src/stm32f4xx_hal_ltdc.c **** 
 968:./Libraries/STM32F4xx_HAL_Driver/Src/stm32f4xx_hal_ltdc.c **** /**
 969:./Libraries/STM32F4xx_HAL_Driver/Src/stm32f4xx_hal_ltdc.c ****   * @brief  Reconfigure the layer alpha value.
 970:./Libraries/STM32F4xx_HAL_Driver/Src/stm32f4xx_hal_ltdc.c ****   * @param  hltdc     pointer to a LTDC_HandleTypeDef structure that contains
 971:./Libraries/STM32F4xx_HAL_Driver/Src/stm32f4xx_hal_ltdc.c ****   *                   the configuration information for the LTDC.
 972:./Libraries/STM32F4xx_HAL_Driver/Src/stm32f4xx_hal_ltdc.c ****   * @param  Alpha     new alpha value.
 973:./Libraries/STM32F4xx_HAL_Driver/Src/stm32f4xx_hal_ltdc.c ****   * @param  LayerIdx  LTDC Layer index.
 974:./Libraries/STM32F4xx_HAL_Driver/Src/stm32f4xx_hal_ltdc.c ****   *                   This parameter can be one of the following values:
 975:./Libraries/STM32F4xx_HAL_Driver/Src/stm32f4xx_hal_ltdc.c ****   *                   LTDC_LAYER_1 (0) or LTDC_LAYER_2 (1)
 976:./Libraries/STM32F4xx_HAL_Driver/Src/stm32f4xx_hal_ltdc.c ****   * @retval  HAL status
 977:./Libraries/STM32F4xx_HAL_Driver/Src/stm32f4xx_hal_ltdc.c ****   */
 978:./Libraries/STM32F4xx_HAL_Driver/Src/stm32f4xx_hal_ltdc.c **** HAL_StatusTypeDef HAL_LTDC_SetAlpha(LTDC_HandleTypeDef *hltdc, uint32_t Alpha, uint32_t LayerIdx)
 979:./Libraries/STM32F4xx_HAL_Driver/Src/stm32f4xx_hal_ltdc.c **** {
 2116              		.loc 1 979 1
 2117              		.cfi_startproc
 2118              		@ args = 0, pretend = 0, frame = 24
 2119              		@ frame_needed = 1, uses_anonymous_args = 0
 2120 0000 80B5     		push	{r7, lr}
 2121              	.LCFI113:
 2122              		.cfi_def_cfa_offset 8
 2123              		.cfi_offset 7, -8
 2124              		.cfi_offset 14, -4
 2125 0002 86B0     		sub	sp, sp, #24
 2126              	.LCFI114:
 2127              		.cfi_def_cfa_offset 32
 2128 0004 00AF     		add	r7, sp, #0
 2129              	.LCFI115:
 2130              		.cfi_def_cfa_register 7
 2131 0006 F860     		str	r0, [r7, #12]
 2132 0008 B960     		str	r1, [r7, #8]
 2133 000a 7A60     		str	r2, [r7, #4]
 980:./Libraries/STM32F4xx_HAL_Driver/Src/stm32f4xx_hal_ltdc.c ****   LTDC_LayerCfgTypeDef *pLayerCfg;
 981:./Libraries/STM32F4xx_HAL_Driver/Src/stm32f4xx_hal_ltdc.c **** 
ARM GAS  /tmp/cchxdGeL.s 			page 55


 982:./Libraries/STM32F4xx_HAL_Driver/Src/stm32f4xx_hal_ltdc.c ****   /* Check the parameters */
 983:./Libraries/STM32F4xx_HAL_Driver/Src/stm32f4xx_hal_ltdc.c ****   assert_param(IS_LTDC_ALPHA(Alpha));
 984:./Libraries/STM32F4xx_HAL_Driver/Src/stm32f4xx_hal_ltdc.c ****   assert_param(IS_LTDC_LAYER(LayerIdx));
 985:./Libraries/STM32F4xx_HAL_Driver/Src/stm32f4xx_hal_ltdc.c **** 
 986:./Libraries/STM32F4xx_HAL_Driver/Src/stm32f4xx_hal_ltdc.c ****   /* Process locked */
 987:./Libraries/STM32F4xx_HAL_Driver/Src/stm32f4xx_hal_ltdc.c ****   __HAL_LOCK(hltdc);
 2134              		.loc 1 987 3
 2135 000c FB68     		ldr	r3, [r7, #12]
 2136 000e 93F8A030 		ldrb	r3, [r3, #160]	@ zero_extendqisi2
 2137 0012 012B     		cmp	r3, #1
 2138 0014 01D1     		bne	.L65
 2139              		.loc 1 987 3 is_stmt 0 discriminator 1
 2140 0016 0223     		movs	r3, #2
 2141 0018 24E0     		b	.L66
 2142              	.L65:
 2143              		.loc 1 987 3 discriminator 2
 2144 001a FB68     		ldr	r3, [r7, #12]
 2145 001c 0122     		movs	r2, #1
 2146 001e 83F8A020 		strb	r2, [r3, #160]
 988:./Libraries/STM32F4xx_HAL_Driver/Src/stm32f4xx_hal_ltdc.c **** 
 989:./Libraries/STM32F4xx_HAL_Driver/Src/stm32f4xx_hal_ltdc.c ****   /* Change LTDC peripheral state */
 990:./Libraries/STM32F4xx_HAL_Driver/Src/stm32f4xx_hal_ltdc.c ****   hltdc->State = HAL_LTDC_STATE_BUSY;
 2147              		.loc 1 990 16 is_stmt 1 discriminator 2
 2148 0022 FB68     		ldr	r3, [r7, #12]
 2149 0024 0222     		movs	r2, #2
 2150 0026 83F8A120 		strb	r2, [r3, #161]
 991:./Libraries/STM32F4xx_HAL_Driver/Src/stm32f4xx_hal_ltdc.c **** 
 992:./Libraries/STM32F4xx_HAL_Driver/Src/stm32f4xx_hal_ltdc.c ****   /* Get layer configuration from handle structure */
 993:./Libraries/STM32F4xx_HAL_Driver/Src/stm32f4xx_hal_ltdc.c ****   pLayerCfg = &hltdc->LayerCfg[LayerIdx];
 2151              		.loc 1 993 13 discriminator 2
 2152 002a 7B68     		ldr	r3, [r7, #4]
 2153 002c 3422     		movs	r2, #52
 2154 002e 02FB03F3 		mul	r3, r2, r3
 2155 0032 3833     		adds	r3, r3, #56
 2156 0034 FA68     		ldr	r2, [r7, #12]
 2157 0036 1344     		add	r3, r3, r2
 2158 0038 7B61     		str	r3, [r7, #20]
 994:./Libraries/STM32F4xx_HAL_Driver/Src/stm32f4xx_hal_ltdc.c **** 
 995:./Libraries/STM32F4xx_HAL_Driver/Src/stm32f4xx_hal_ltdc.c ****   /* Reconfigure the Alpha value */
 996:./Libraries/STM32F4xx_HAL_Driver/Src/stm32f4xx_hal_ltdc.c ****   pLayerCfg->Alpha = Alpha;
 2159              		.loc 1 996 20 discriminator 2
 2160 003a 7B69     		ldr	r3, [r7, #20]
 2161 003c BA68     		ldr	r2, [r7, #8]
 2162 003e 5A61     		str	r2, [r3, #20]
 997:./Libraries/STM32F4xx_HAL_Driver/Src/stm32f4xx_hal_ltdc.c **** 
 998:./Libraries/STM32F4xx_HAL_Driver/Src/stm32f4xx_hal_ltdc.c ****   /* Set LTDC parameters */
 999:./Libraries/STM32F4xx_HAL_Driver/Src/stm32f4xx_hal_ltdc.c ****   LTDC_SetConfig(hltdc, pLayerCfg, LayerIdx);
 2163              		.loc 1 999 3 discriminator 2
 2164 0040 7A68     		ldr	r2, [r7, #4]
 2165 0042 7969     		ldr	r1, [r7, #20]
 2166 0044 F868     		ldr	r0, [r7, #12]
 2167 0046 FFF7FEFF 		bl	LTDC_SetConfig
1000:./Libraries/STM32F4xx_HAL_Driver/Src/stm32f4xx_hal_ltdc.c **** 
1001:./Libraries/STM32F4xx_HAL_Driver/Src/stm32f4xx_hal_ltdc.c ****   /* Set the Immediate Reload type */
1002:./Libraries/STM32F4xx_HAL_Driver/Src/stm32f4xx_hal_ltdc.c ****   hltdc->Instance->SRCR = LTDC_SRCR_IMR;
 2168              		.loc 1 1002 8 discriminator 2
 2169 004a FB68     		ldr	r3, [r7, #12]
ARM GAS  /tmp/cchxdGeL.s 			page 56


 2170 004c 1B68     		ldr	r3, [r3]
 2171              		.loc 1 1002 25 discriminator 2
 2172 004e 0122     		movs	r2, #1
 2173 0050 5A62     		str	r2, [r3, #36]
1003:./Libraries/STM32F4xx_HAL_Driver/Src/stm32f4xx_hal_ltdc.c **** 
1004:./Libraries/STM32F4xx_HAL_Driver/Src/stm32f4xx_hal_ltdc.c ****   /* Change the LTDC state*/
1005:./Libraries/STM32F4xx_HAL_Driver/Src/stm32f4xx_hal_ltdc.c ****   hltdc->State = HAL_LTDC_STATE_READY;
 2174              		.loc 1 1005 16 discriminator 2
 2175 0052 FB68     		ldr	r3, [r7, #12]
 2176 0054 0122     		movs	r2, #1
 2177 0056 83F8A120 		strb	r2, [r3, #161]
1006:./Libraries/STM32F4xx_HAL_Driver/Src/stm32f4xx_hal_ltdc.c **** 
1007:./Libraries/STM32F4xx_HAL_Driver/Src/stm32f4xx_hal_ltdc.c ****   /* Process unlocked */
1008:./Libraries/STM32F4xx_HAL_Driver/Src/stm32f4xx_hal_ltdc.c ****   __HAL_UNLOCK(hltdc);
 2178              		.loc 1 1008 3 discriminator 2
 2179 005a FB68     		ldr	r3, [r7, #12]
 2180 005c 0022     		movs	r2, #0
 2181 005e 83F8A020 		strb	r2, [r3, #160]
1009:./Libraries/STM32F4xx_HAL_Driver/Src/stm32f4xx_hal_ltdc.c **** 
1010:./Libraries/STM32F4xx_HAL_Driver/Src/stm32f4xx_hal_ltdc.c ****   return HAL_OK;
 2182              		.loc 1 1010 10 discriminator 2
 2183 0062 0023     		movs	r3, #0
 2184              	.L66:
1011:./Libraries/STM32F4xx_HAL_Driver/Src/stm32f4xx_hal_ltdc.c **** }
 2185              		.loc 1 1011 1
 2186 0064 1846     		mov	r0, r3
 2187 0066 1837     		adds	r7, r7, #24
 2188              	.LCFI116:
 2189              		.cfi_def_cfa_offset 8
 2190 0068 BD46     		mov	sp, r7
 2191              	.LCFI117:
 2192              		.cfi_def_cfa_register 13
 2193              		@ sp needed
 2194 006a 80BD     		pop	{r7, pc}
 2195              		.cfi_endproc
 2196              	.LFE146:
 2198              		.section	.text.HAL_LTDC_SetAddress,"ax",%progbits
 2199              		.align	1
 2200              		.global	HAL_LTDC_SetAddress
 2201              		.syntax unified
 2202              		.thumb
 2203              		.thumb_func
 2204              		.fpu fpv4-sp-d16
 2206              	HAL_LTDC_SetAddress:
 2207              	.LFB147:
1012:./Libraries/STM32F4xx_HAL_Driver/Src/stm32f4xx_hal_ltdc.c **** /**
1013:./Libraries/STM32F4xx_HAL_Driver/Src/stm32f4xx_hal_ltdc.c ****   * @brief  Reconfigure the frame buffer Address.
1014:./Libraries/STM32F4xx_HAL_Driver/Src/stm32f4xx_hal_ltdc.c ****   * @param  hltdc     pointer to a LTDC_HandleTypeDef structure that contains
1015:./Libraries/STM32F4xx_HAL_Driver/Src/stm32f4xx_hal_ltdc.c ****   *                   the configuration information for the LTDC.
1016:./Libraries/STM32F4xx_HAL_Driver/Src/stm32f4xx_hal_ltdc.c ****   * @param  Address   new address value.
1017:./Libraries/STM32F4xx_HAL_Driver/Src/stm32f4xx_hal_ltdc.c ****   * @param  LayerIdx  LTDC Layer index.
1018:./Libraries/STM32F4xx_HAL_Driver/Src/stm32f4xx_hal_ltdc.c ****   *                   This parameter can be one of the following values:
1019:./Libraries/STM32F4xx_HAL_Driver/Src/stm32f4xx_hal_ltdc.c ****   *                   LTDC_LAYER_1 (0) or LTDC_LAYER_2 (1).
1020:./Libraries/STM32F4xx_HAL_Driver/Src/stm32f4xx_hal_ltdc.c ****   * @retval  HAL status
1021:./Libraries/STM32F4xx_HAL_Driver/Src/stm32f4xx_hal_ltdc.c ****   */
1022:./Libraries/STM32F4xx_HAL_Driver/Src/stm32f4xx_hal_ltdc.c **** HAL_StatusTypeDef HAL_LTDC_SetAddress(LTDC_HandleTypeDef *hltdc, uint32_t Address, uint32_t LayerId
1023:./Libraries/STM32F4xx_HAL_Driver/Src/stm32f4xx_hal_ltdc.c **** {
ARM GAS  /tmp/cchxdGeL.s 			page 57


 2208              		.loc 1 1023 1
 2209              		.cfi_startproc
 2210              		@ args = 0, pretend = 0, frame = 24
 2211              		@ frame_needed = 1, uses_anonymous_args = 0
 2212 0000 80B5     		push	{r7, lr}
 2213              	.LCFI118:
 2214              		.cfi_def_cfa_offset 8
 2215              		.cfi_offset 7, -8
 2216              		.cfi_offset 14, -4
 2217 0002 86B0     		sub	sp, sp, #24
 2218              	.LCFI119:
 2219              		.cfi_def_cfa_offset 32
 2220 0004 00AF     		add	r7, sp, #0
 2221              	.LCFI120:
 2222              		.cfi_def_cfa_register 7
 2223 0006 F860     		str	r0, [r7, #12]
 2224 0008 B960     		str	r1, [r7, #8]
 2225 000a 7A60     		str	r2, [r7, #4]
1024:./Libraries/STM32F4xx_HAL_Driver/Src/stm32f4xx_hal_ltdc.c ****   LTDC_LayerCfgTypeDef *pLayerCfg;
1025:./Libraries/STM32F4xx_HAL_Driver/Src/stm32f4xx_hal_ltdc.c **** 
1026:./Libraries/STM32F4xx_HAL_Driver/Src/stm32f4xx_hal_ltdc.c ****   /* Check the parameters */
1027:./Libraries/STM32F4xx_HAL_Driver/Src/stm32f4xx_hal_ltdc.c ****   assert_param(IS_LTDC_LAYER(LayerIdx));
1028:./Libraries/STM32F4xx_HAL_Driver/Src/stm32f4xx_hal_ltdc.c **** 
1029:./Libraries/STM32F4xx_HAL_Driver/Src/stm32f4xx_hal_ltdc.c ****   /* Process locked */
1030:./Libraries/STM32F4xx_HAL_Driver/Src/stm32f4xx_hal_ltdc.c ****   __HAL_LOCK(hltdc);
 2226              		.loc 1 1030 3
 2227 000c FB68     		ldr	r3, [r7, #12]
 2228 000e 93F8A030 		ldrb	r3, [r3, #160]	@ zero_extendqisi2
 2229 0012 012B     		cmp	r3, #1
 2230 0014 01D1     		bne	.L68
 2231              		.loc 1 1030 3 is_stmt 0 discriminator 1
 2232 0016 0223     		movs	r3, #2
 2233 0018 24E0     		b	.L69
 2234              	.L68:
 2235              		.loc 1 1030 3 discriminator 2
 2236 001a FB68     		ldr	r3, [r7, #12]
 2237 001c 0122     		movs	r2, #1
 2238 001e 83F8A020 		strb	r2, [r3, #160]
1031:./Libraries/STM32F4xx_HAL_Driver/Src/stm32f4xx_hal_ltdc.c **** 
1032:./Libraries/STM32F4xx_HAL_Driver/Src/stm32f4xx_hal_ltdc.c ****   /* Change LTDC peripheral state */
1033:./Libraries/STM32F4xx_HAL_Driver/Src/stm32f4xx_hal_ltdc.c ****   hltdc->State = HAL_LTDC_STATE_BUSY;
 2239              		.loc 1 1033 16 is_stmt 1 discriminator 2
 2240 0022 FB68     		ldr	r3, [r7, #12]
 2241 0024 0222     		movs	r2, #2
 2242 0026 83F8A120 		strb	r2, [r3, #161]
1034:./Libraries/STM32F4xx_HAL_Driver/Src/stm32f4xx_hal_ltdc.c **** 
1035:./Libraries/STM32F4xx_HAL_Driver/Src/stm32f4xx_hal_ltdc.c ****   /* Get layer configuration from handle structure */
1036:./Libraries/STM32F4xx_HAL_Driver/Src/stm32f4xx_hal_ltdc.c ****   pLayerCfg = &hltdc->LayerCfg[LayerIdx];
 2243              		.loc 1 1036 13 discriminator 2
 2244 002a 7B68     		ldr	r3, [r7, #4]
 2245 002c 3422     		movs	r2, #52
 2246 002e 02FB03F3 		mul	r3, r2, r3
 2247 0032 3833     		adds	r3, r3, #56
 2248 0034 FA68     		ldr	r2, [r7, #12]
 2249 0036 1344     		add	r3, r3, r2
 2250 0038 7B61     		str	r3, [r7, #20]
1037:./Libraries/STM32F4xx_HAL_Driver/Src/stm32f4xx_hal_ltdc.c **** 
ARM GAS  /tmp/cchxdGeL.s 			page 58


1038:./Libraries/STM32F4xx_HAL_Driver/Src/stm32f4xx_hal_ltdc.c ****   /* Reconfigure the Address */
1039:./Libraries/STM32F4xx_HAL_Driver/Src/stm32f4xx_hal_ltdc.c ****   pLayerCfg->FBStartAdress = Address;
 2251              		.loc 1 1039 28 discriminator 2
 2252 003a 7B69     		ldr	r3, [r7, #20]
 2253 003c BA68     		ldr	r2, [r7, #8]
 2254 003e 5A62     		str	r2, [r3, #36]
1040:./Libraries/STM32F4xx_HAL_Driver/Src/stm32f4xx_hal_ltdc.c **** 
1041:./Libraries/STM32F4xx_HAL_Driver/Src/stm32f4xx_hal_ltdc.c ****   /* Set LTDC parameters */
1042:./Libraries/STM32F4xx_HAL_Driver/Src/stm32f4xx_hal_ltdc.c ****   LTDC_SetConfig(hltdc, pLayerCfg, LayerIdx);
 2255              		.loc 1 1042 3 discriminator 2
 2256 0040 7A68     		ldr	r2, [r7, #4]
 2257 0042 7969     		ldr	r1, [r7, #20]
 2258 0044 F868     		ldr	r0, [r7, #12]
 2259 0046 FFF7FEFF 		bl	LTDC_SetConfig
1043:./Libraries/STM32F4xx_HAL_Driver/Src/stm32f4xx_hal_ltdc.c **** 
1044:./Libraries/STM32F4xx_HAL_Driver/Src/stm32f4xx_hal_ltdc.c ****   /* Set the Immediate Reload type */
1045:./Libraries/STM32F4xx_HAL_Driver/Src/stm32f4xx_hal_ltdc.c ****   hltdc->Instance->SRCR = LTDC_SRCR_IMR;
 2260              		.loc 1 1045 8 discriminator 2
 2261 004a FB68     		ldr	r3, [r7, #12]
 2262 004c 1B68     		ldr	r3, [r3]
 2263              		.loc 1 1045 25 discriminator 2
 2264 004e 0122     		movs	r2, #1
 2265 0050 5A62     		str	r2, [r3, #36]
1046:./Libraries/STM32F4xx_HAL_Driver/Src/stm32f4xx_hal_ltdc.c **** 
1047:./Libraries/STM32F4xx_HAL_Driver/Src/stm32f4xx_hal_ltdc.c ****   /* Change the LTDC state*/
1048:./Libraries/STM32F4xx_HAL_Driver/Src/stm32f4xx_hal_ltdc.c ****   hltdc->State = HAL_LTDC_STATE_READY;
 2266              		.loc 1 1048 16 discriminator 2
 2267 0052 FB68     		ldr	r3, [r7, #12]
 2268 0054 0122     		movs	r2, #1
 2269 0056 83F8A120 		strb	r2, [r3, #161]
1049:./Libraries/STM32F4xx_HAL_Driver/Src/stm32f4xx_hal_ltdc.c **** 
1050:./Libraries/STM32F4xx_HAL_Driver/Src/stm32f4xx_hal_ltdc.c ****   /* Process unlocked */
1051:./Libraries/STM32F4xx_HAL_Driver/Src/stm32f4xx_hal_ltdc.c ****   __HAL_UNLOCK(hltdc);
 2270              		.loc 1 1051 3 discriminator 2
 2271 005a FB68     		ldr	r3, [r7, #12]
 2272 005c 0022     		movs	r2, #0
 2273 005e 83F8A020 		strb	r2, [r3, #160]
1052:./Libraries/STM32F4xx_HAL_Driver/Src/stm32f4xx_hal_ltdc.c **** 
1053:./Libraries/STM32F4xx_HAL_Driver/Src/stm32f4xx_hal_ltdc.c ****   return HAL_OK;
 2274              		.loc 1 1053 10 discriminator 2
 2275 0062 0023     		movs	r3, #0
 2276              	.L69:
1054:./Libraries/STM32F4xx_HAL_Driver/Src/stm32f4xx_hal_ltdc.c **** }
 2277              		.loc 1 1054 1
 2278 0064 1846     		mov	r0, r3
 2279 0066 1837     		adds	r7, r7, #24
 2280              	.LCFI121:
 2281              		.cfi_def_cfa_offset 8
 2282 0068 BD46     		mov	sp, r7
 2283              	.LCFI122:
 2284              		.cfi_def_cfa_register 13
 2285              		@ sp needed
 2286 006a 80BD     		pop	{r7, pc}
 2287              		.cfi_endproc
 2288              	.LFE147:
 2290              		.section	.text.HAL_LTDC_SetPitch,"ax",%progbits
 2291              		.align	1
ARM GAS  /tmp/cchxdGeL.s 			page 59


 2292              		.global	HAL_LTDC_SetPitch
 2293              		.syntax unified
 2294              		.thumb
 2295              		.thumb_func
 2296              		.fpu fpv4-sp-d16
 2298              	HAL_LTDC_SetPitch:
 2299              	.LFB148:
1055:./Libraries/STM32F4xx_HAL_Driver/Src/stm32f4xx_hal_ltdc.c **** 
1056:./Libraries/STM32F4xx_HAL_Driver/Src/stm32f4xx_hal_ltdc.c **** /**
1057:./Libraries/STM32F4xx_HAL_Driver/Src/stm32f4xx_hal_ltdc.c ****   * @brief  Function used to reconfigure the pitch for specific cases where the attached LayerIdx b
1058:./Libraries/STM32F4xx_HAL_Driver/Src/stm32f4xx_hal_ltdc.c ****   *         larger than the one intended to be displayed on screen. Example of a buffer 800x480 att
1059:./Libraries/STM32F4xx_HAL_Driver/Src/stm32f4xx_hal_ltdc.c ****   *         want to read and display on screen only a portion 320x240 taken in the center of the bu
1060:./Libraries/STM32F4xx_HAL_Driver/Src/stm32f4xx_hal_ltdc.c ****   *         will be in that case 800 pixels and not 320 pixels as initially configured by previous 
1061:./Libraries/STM32F4xx_HAL_Driver/Src/stm32f4xx_hal_ltdc.c ****   * @note   This function should be called only after a previous call to HAL_LTDC_ConfigLayer() to 
1062:./Libraries/STM32F4xx_HAL_Driver/Src/stm32f4xx_hal_ltdc.c ****   *         configured by HAL_LTDC_ConfigLayer() when required (refer to example described just abo
1063:./Libraries/STM32F4xx_HAL_Driver/Src/stm32f4xx_hal_ltdc.c ****   * @param  hltdc              pointer to a LTDC_HandleTypeDef structure that contains
1064:./Libraries/STM32F4xx_HAL_Driver/Src/stm32f4xx_hal_ltdc.c ****   *                            the configuration information for the LTDC.
1065:./Libraries/STM32F4xx_HAL_Driver/Src/stm32f4xx_hal_ltdc.c ****   * @param  LinePitchInPixels  New line pitch in pixels to configure for LTDC layer 'LayerIdx'.
1066:./Libraries/STM32F4xx_HAL_Driver/Src/stm32f4xx_hal_ltdc.c ****   * @param  LayerIdx           LTDC layer index concerned by the modification of line pitch.
1067:./Libraries/STM32F4xx_HAL_Driver/Src/stm32f4xx_hal_ltdc.c ****   * @retval HAL status
1068:./Libraries/STM32F4xx_HAL_Driver/Src/stm32f4xx_hal_ltdc.c ****   */
1069:./Libraries/STM32F4xx_HAL_Driver/Src/stm32f4xx_hal_ltdc.c **** HAL_StatusTypeDef HAL_LTDC_SetPitch(LTDC_HandleTypeDef *hltdc, uint32_t LinePitchInPixels, uint32_t
1070:./Libraries/STM32F4xx_HAL_Driver/Src/stm32f4xx_hal_ltdc.c **** {
 2300              		.loc 1 1070 1
 2301              		.cfi_startproc
 2302              		@ args = 0, pretend = 0, frame = 32
 2303              		@ frame_needed = 1, uses_anonymous_args = 0
 2304              		@ link register save eliminated.
 2305 0000 80B4     		push	{r7}
 2306              	.LCFI123:
 2307              		.cfi_def_cfa_offset 4
 2308              		.cfi_offset 7, -4
 2309 0002 89B0     		sub	sp, sp, #36
 2310              	.LCFI124:
 2311              		.cfi_def_cfa_offset 40
 2312 0004 00AF     		add	r7, sp, #0
 2313              	.LCFI125:
 2314              		.cfi_def_cfa_register 7
 2315 0006 F860     		str	r0, [r7, #12]
 2316 0008 B960     		str	r1, [r7, #8]
 2317 000a 7A60     		str	r2, [r7, #4]
1071:./Libraries/STM32F4xx_HAL_Driver/Src/stm32f4xx_hal_ltdc.c ****   uint32_t tmp = 0U;
 2318              		.loc 1 1071 12
 2319 000c 0023     		movs	r3, #0
 2320 000e FB61     		str	r3, [r7, #28]
1072:./Libraries/STM32F4xx_HAL_Driver/Src/stm32f4xx_hal_ltdc.c ****   uint32_t pitchUpdate = 0U;
 2321              		.loc 1 1072 12
 2322 0010 0023     		movs	r3, #0
 2323 0012 BB61     		str	r3, [r7, #24]
1073:./Libraries/STM32F4xx_HAL_Driver/Src/stm32f4xx_hal_ltdc.c ****   uint32_t pixelFormat = 0U;
 2324              		.loc 1 1073 12
 2325 0014 0023     		movs	r3, #0
 2326 0016 7B61     		str	r3, [r7, #20]
1074:./Libraries/STM32F4xx_HAL_Driver/Src/stm32f4xx_hal_ltdc.c **** 
1075:./Libraries/STM32F4xx_HAL_Driver/Src/stm32f4xx_hal_ltdc.c ****   /* Check the parameters */
1076:./Libraries/STM32F4xx_HAL_Driver/Src/stm32f4xx_hal_ltdc.c ****   assert_param(IS_LTDC_LAYER(LayerIdx));
1077:./Libraries/STM32F4xx_HAL_Driver/Src/stm32f4xx_hal_ltdc.c ****   
ARM GAS  /tmp/cchxdGeL.s 			page 60


1078:./Libraries/STM32F4xx_HAL_Driver/Src/stm32f4xx_hal_ltdc.c ****   /* Process locked */
1079:./Libraries/STM32F4xx_HAL_Driver/Src/stm32f4xx_hal_ltdc.c ****   __HAL_LOCK(hltdc);
 2327              		.loc 1 1079 3
 2328 0018 FB68     		ldr	r3, [r7, #12]
 2329 001a 93F8A030 		ldrb	r3, [r3, #160]	@ zero_extendqisi2
 2330 001e 012B     		cmp	r3, #1
 2331 0020 01D1     		bne	.L71
 2332              		.loc 1 1079 3 is_stmt 0 discriminator 1
 2333 0022 0223     		movs	r3, #2
 2334 0024 6FE0     		b	.L72
 2335              	.L71:
 2336              		.loc 1 1079 3 discriminator 2
 2337 0026 FB68     		ldr	r3, [r7, #12]
 2338 0028 0122     		movs	r2, #1
 2339 002a 83F8A020 		strb	r2, [r3, #160]
1080:./Libraries/STM32F4xx_HAL_Driver/Src/stm32f4xx_hal_ltdc.c ****   
1081:./Libraries/STM32F4xx_HAL_Driver/Src/stm32f4xx_hal_ltdc.c ****   /* Change LTDC peripheral state */
1082:./Libraries/STM32F4xx_HAL_Driver/Src/stm32f4xx_hal_ltdc.c ****   hltdc->State = HAL_LTDC_STATE_BUSY;
 2340              		.loc 1 1082 16 is_stmt 1 discriminator 2
 2341 002e FB68     		ldr	r3, [r7, #12]
 2342 0030 0222     		movs	r2, #2
 2343 0032 83F8A120 		strb	r2, [r3, #161]
1083:./Libraries/STM32F4xx_HAL_Driver/Src/stm32f4xx_hal_ltdc.c ****   
1084:./Libraries/STM32F4xx_HAL_Driver/Src/stm32f4xx_hal_ltdc.c ****   /* get LayerIdx used pixel format */
1085:./Libraries/STM32F4xx_HAL_Driver/Src/stm32f4xx_hal_ltdc.c ****   pixelFormat = hltdc->LayerCfg[LayerIdx].PixelFormat;
 2344              		.loc 1 1085 15 discriminator 2
 2345 0036 FA68     		ldr	r2, [r7, #12]
 2346 0038 7B68     		ldr	r3, [r7, #4]
 2347 003a 3421     		movs	r1, #52
 2348 003c 01FB03F3 		mul	r3, r1, r3
 2349 0040 1344     		add	r3, r3, r2
 2350 0042 4833     		adds	r3, r3, #72
 2351 0044 1B68     		ldr	r3, [r3]
 2352 0046 7B61     		str	r3, [r7, #20]
1086:./Libraries/STM32F4xx_HAL_Driver/Src/stm32f4xx_hal_ltdc.c ****   
1087:./Libraries/STM32F4xx_HAL_Driver/Src/stm32f4xx_hal_ltdc.c ****   if(pixelFormat == LTDC_PIXEL_FORMAT_ARGB8888)
 2353              		.loc 1 1087 5 discriminator 2
 2354 0048 7B69     		ldr	r3, [r7, #20]
 2355 004a 002B     		cmp	r3, #0
 2356 004c 02D1     		bne	.L73
1088:./Libraries/STM32F4xx_HAL_Driver/Src/stm32f4xx_hal_ltdc.c ****   {
1089:./Libraries/STM32F4xx_HAL_Driver/Src/stm32f4xx_hal_ltdc.c ****     tmp = 4U;
 2357              		.loc 1 1089 9
 2358 004e 0423     		movs	r3, #4
 2359 0050 FB61     		str	r3, [r7, #28]
 2360 0052 16E0     		b	.L74
 2361              	.L73:
1090:./Libraries/STM32F4xx_HAL_Driver/Src/stm32f4xx_hal_ltdc.c ****   }
1091:./Libraries/STM32F4xx_HAL_Driver/Src/stm32f4xx_hal_ltdc.c ****   else if (pixelFormat == LTDC_PIXEL_FORMAT_RGB888)
 2362              		.loc 1 1091 11
 2363 0054 7B69     		ldr	r3, [r7, #20]
 2364 0056 012B     		cmp	r3, #1
 2365 0058 02D1     		bne	.L75
1092:./Libraries/STM32F4xx_HAL_Driver/Src/stm32f4xx_hal_ltdc.c ****   {
1093:./Libraries/STM32F4xx_HAL_Driver/Src/stm32f4xx_hal_ltdc.c ****     tmp = 3U;
 2366              		.loc 1 1093 9
 2367 005a 0323     		movs	r3, #3
ARM GAS  /tmp/cchxdGeL.s 			page 61


 2368 005c FB61     		str	r3, [r7, #28]
 2369 005e 10E0     		b	.L74
 2370              	.L75:
1094:./Libraries/STM32F4xx_HAL_Driver/Src/stm32f4xx_hal_ltdc.c ****   }
1095:./Libraries/STM32F4xx_HAL_Driver/Src/stm32f4xx_hal_ltdc.c ****   else if((pixelFormat == LTDC_PIXEL_FORMAT_ARGB4444) || \
 2371              		.loc 1 1095 10
 2372 0060 7B69     		ldr	r3, [r7, #20]
 2373 0062 042B     		cmp	r3, #4
 2374 0064 08D0     		beq	.L76
 2375              		.loc 1 1095 55 discriminator 1
 2376 0066 7B69     		ldr	r3, [r7, #20]
 2377 0068 022B     		cmp	r3, #2
 2378 006a 05D0     		beq	.L76
1096:./Libraries/STM32F4xx_HAL_Driver/Src/stm32f4xx_hal_ltdc.c ****           (pixelFormat == LTDC_PIXEL_FORMAT_RGB565)   || \
 2379              		.loc 1 1096 55
 2380 006c 7B69     		ldr	r3, [r7, #20]
 2381 006e 032B     		cmp	r3, #3
 2382 0070 02D0     		beq	.L76
1097:./Libraries/STM32F4xx_HAL_Driver/Src/stm32f4xx_hal_ltdc.c ****           (pixelFormat == LTDC_PIXEL_FORMAT_ARGB1555) || \
 2383              		.loc 1 1097 55
 2384 0072 7B69     		ldr	r3, [r7, #20]
 2385 0074 072B     		cmp	r3, #7
 2386 0076 02D1     		bne	.L77
 2387              	.L76:
1098:./Libraries/STM32F4xx_HAL_Driver/Src/stm32f4xx_hal_ltdc.c ****          (pixelFormat == LTDC_PIXEL_FORMAT_AL88))
1099:./Libraries/STM32F4xx_HAL_Driver/Src/stm32f4xx_hal_ltdc.c ****   {
1100:./Libraries/STM32F4xx_HAL_Driver/Src/stm32f4xx_hal_ltdc.c ****     tmp = 2U;
 2388              		.loc 1 1100 9
 2389 0078 0223     		movs	r3, #2
 2390 007a FB61     		str	r3, [r7, #28]
 2391 007c 01E0     		b	.L74
 2392              	.L77:
1101:./Libraries/STM32F4xx_HAL_Driver/Src/stm32f4xx_hal_ltdc.c ****   }
1102:./Libraries/STM32F4xx_HAL_Driver/Src/stm32f4xx_hal_ltdc.c ****   else
1103:./Libraries/STM32F4xx_HAL_Driver/Src/stm32f4xx_hal_ltdc.c ****   {
1104:./Libraries/STM32F4xx_HAL_Driver/Src/stm32f4xx_hal_ltdc.c ****     tmp = 1U;
 2393              		.loc 1 1104 9
 2394 007e 0123     		movs	r3, #1
 2395 0080 FB61     		str	r3, [r7, #28]
 2396              	.L74:
1105:./Libraries/STM32F4xx_HAL_Driver/Src/stm32f4xx_hal_ltdc.c ****   }
1106:./Libraries/STM32F4xx_HAL_Driver/Src/stm32f4xx_hal_ltdc.c ****   
1107:./Libraries/STM32F4xx_HAL_Driver/Src/stm32f4xx_hal_ltdc.c ****   pitchUpdate = ((LinePitchInPixels * tmp) << 16U);
 2397              		.loc 1 1107 37
 2398 0082 BB68     		ldr	r3, [r7, #8]
 2399 0084 FA69     		ldr	r2, [r7, #28]
 2400 0086 02FB03F3 		mul	r3, r2, r3
 2401              		.loc 1 1107 15
 2402 008a 1B04     		lsls	r3, r3, #16
 2403 008c BB61     		str	r3, [r7, #24]
1108:./Libraries/STM32F4xx_HAL_Driver/Src/stm32f4xx_hal_ltdc.c ****   
1109:./Libraries/STM32F4xx_HAL_Driver/Src/stm32f4xx_hal_ltdc.c ****   /* Clear previously set standard pitch */
1110:./Libraries/STM32F4xx_HAL_Driver/Src/stm32f4xx_hal_ltdc.c ****   LTDC_LAYER(hltdc, LayerIdx)->CFBLR &= ~LTDC_LxCFBLR_CFBP;
 2404              		.loc 1 1110 3
 2405 008e FB68     		ldr	r3, [r7, #12]
 2406 0090 1B68     		ldr	r3, [r3]
 2407              		.loc 1 1110 38
ARM GAS  /tmp/cchxdGeL.s 			page 62


 2408 0092 1A46     		mov	r2, r3
 2409 0094 7B68     		ldr	r3, [r7, #4]
 2410 0096 DB01     		lsls	r3, r3, #7
 2411 0098 1344     		add	r3, r3, r2
 2412 009a 8433     		adds	r3, r3, #132
 2413 009c DB6A     		ldr	r3, [r3, #44]
 2414              		.loc 1 1110 3
 2415 009e FA68     		ldr	r2, [r7, #12]
 2416 00a0 1268     		ldr	r2, [r2]
 2417              		.loc 1 1110 38
 2418 00a2 1146     		mov	r1, r2
 2419 00a4 7A68     		ldr	r2, [r7, #4]
 2420 00a6 D201     		lsls	r2, r2, #7
 2421 00a8 0A44     		add	r2, r2, r1
 2422 00aa 8432     		adds	r2, r2, #132
 2423 00ac 23F0FF53 		bic	r3, r3, #534773760
 2424 00b0 23F4F813 		bic	r3, r3, #2031616
 2425 00b4 D362     		str	r3, [r2, #44]
1111:./Libraries/STM32F4xx_HAL_Driver/Src/stm32f4xx_hal_ltdc.c ****   
1112:./Libraries/STM32F4xx_HAL_Driver/Src/stm32f4xx_hal_ltdc.c ****   /* Set the Reload type as immediate update of LTDC pitch configured above */
1113:./Libraries/STM32F4xx_HAL_Driver/Src/stm32f4xx_hal_ltdc.c ****   LTDC->SRCR |= LTDC_SRCR_IMR;
 2426              		.loc 1 1113 14
 2427 00b6 174B     		ldr	r3, .L78
 2428 00b8 5B6A     		ldr	r3, [r3, #36]
 2429 00ba 164A     		ldr	r2, .L78
 2430 00bc 43F00103 		orr	r3, r3, #1
 2431 00c0 5362     		str	r3, [r2, #36]
1114:./Libraries/STM32F4xx_HAL_Driver/Src/stm32f4xx_hal_ltdc.c ****   
1115:./Libraries/STM32F4xx_HAL_Driver/Src/stm32f4xx_hal_ltdc.c ****   /* Set new line pitch value */
1116:./Libraries/STM32F4xx_HAL_Driver/Src/stm32f4xx_hal_ltdc.c ****   LTDC_LAYER(hltdc, LayerIdx)->CFBLR |= pitchUpdate;
 2432              		.loc 1 1116 3
 2433 00c2 FB68     		ldr	r3, [r7, #12]
 2434 00c4 1B68     		ldr	r3, [r3]
 2435              		.loc 1 1116 38
 2436 00c6 1A46     		mov	r2, r3
 2437 00c8 7B68     		ldr	r3, [r7, #4]
 2438 00ca DB01     		lsls	r3, r3, #7
 2439 00cc 1344     		add	r3, r3, r2
 2440 00ce 8433     		adds	r3, r3, #132
 2441 00d0 DA6A     		ldr	r2, [r3, #44]
 2442              		.loc 1 1116 3
 2443 00d2 FB68     		ldr	r3, [r7, #12]
 2444 00d4 1B68     		ldr	r3, [r3]
 2445              		.loc 1 1116 38
 2446 00d6 1946     		mov	r1, r3
 2447 00d8 7B68     		ldr	r3, [r7, #4]
 2448 00da DB01     		lsls	r3, r3, #7
 2449 00dc 0B44     		add	r3, r3, r1
 2450 00de 8433     		adds	r3, r3, #132
 2451 00e0 1946     		mov	r1, r3
 2452 00e2 BB69     		ldr	r3, [r7, #24]
 2453 00e4 1343     		orrs	r3, r3, r2
 2454 00e6 CB62     		str	r3, [r1, #44]
1117:./Libraries/STM32F4xx_HAL_Driver/Src/stm32f4xx_hal_ltdc.c ****   
1118:./Libraries/STM32F4xx_HAL_Driver/Src/stm32f4xx_hal_ltdc.c ****   /* Set the Reload type as immediate update of LTDC pitch configured above */
1119:./Libraries/STM32F4xx_HAL_Driver/Src/stm32f4xx_hal_ltdc.c ****   LTDC->SRCR |= LTDC_SRCR_IMR;
 2455              		.loc 1 1119 14
ARM GAS  /tmp/cchxdGeL.s 			page 63


 2456 00e8 0A4B     		ldr	r3, .L78
 2457 00ea 5B6A     		ldr	r3, [r3, #36]
 2458 00ec 094A     		ldr	r2, .L78
 2459 00ee 43F00103 		orr	r3, r3, #1
 2460 00f2 5362     		str	r3, [r2, #36]
1120:./Libraries/STM32F4xx_HAL_Driver/Src/stm32f4xx_hal_ltdc.c ****   
1121:./Libraries/STM32F4xx_HAL_Driver/Src/stm32f4xx_hal_ltdc.c ****   /* Change the LTDC state*/
1122:./Libraries/STM32F4xx_HAL_Driver/Src/stm32f4xx_hal_ltdc.c ****   hltdc->State = HAL_LTDC_STATE_READY;
 2461              		.loc 1 1122 16
 2462 00f4 FB68     		ldr	r3, [r7, #12]
 2463 00f6 0122     		movs	r2, #1
 2464 00f8 83F8A120 		strb	r2, [r3, #161]
1123:./Libraries/STM32F4xx_HAL_Driver/Src/stm32f4xx_hal_ltdc.c ****   
1124:./Libraries/STM32F4xx_HAL_Driver/Src/stm32f4xx_hal_ltdc.c ****   /* Process unlocked */
1125:./Libraries/STM32F4xx_HAL_Driver/Src/stm32f4xx_hal_ltdc.c ****   __HAL_UNLOCK(hltdc);
 2465              		.loc 1 1125 3
 2466 00fc FB68     		ldr	r3, [r7, #12]
 2467 00fe 0022     		movs	r2, #0
 2468 0100 83F8A020 		strb	r2, [r3, #160]
1126:./Libraries/STM32F4xx_HAL_Driver/Src/stm32f4xx_hal_ltdc.c ****   
1127:./Libraries/STM32F4xx_HAL_Driver/Src/stm32f4xx_hal_ltdc.c ****   return HAL_OK;  
 2469              		.loc 1 1127 10
 2470 0104 0023     		movs	r3, #0
 2471              	.L72:
1128:./Libraries/STM32F4xx_HAL_Driver/Src/stm32f4xx_hal_ltdc.c **** }
 2472              		.loc 1 1128 1
 2473 0106 1846     		mov	r0, r3
 2474 0108 2437     		adds	r7, r7, #36
 2475              	.LCFI126:
 2476              		.cfi_def_cfa_offset 4
 2477 010a BD46     		mov	sp, r7
 2478              	.LCFI127:
 2479              		.cfi_def_cfa_register 13
 2480              		@ sp needed
 2481 010c 5DF8047B 		ldr	r7, [sp], #4
 2482              	.LCFI128:
 2483              		.cfi_restore 7
 2484              		.cfi_def_cfa_offset 0
 2485 0110 7047     		bx	lr
 2486              	.L79:
 2487 0112 00BF     		.align	2
 2488              	.L78:
 2489 0114 00680140 		.word	1073833984
 2490              		.cfi_endproc
 2491              	.LFE148:
 2493              		.section	.text.HAL_LTDC_ProgramLineEvent,"ax",%progbits
 2494              		.align	1
 2495              		.global	HAL_LTDC_ProgramLineEvent
 2496              		.syntax unified
 2497              		.thumb
 2498              		.thumb_func
 2499              		.fpu fpv4-sp-d16
 2501              	HAL_LTDC_ProgramLineEvent:
 2502              	.LFB149:
1129:./Libraries/STM32F4xx_HAL_Driver/Src/stm32f4xx_hal_ltdc.c **** 
1130:./Libraries/STM32F4xx_HAL_Driver/Src/stm32f4xx_hal_ltdc.c **** /**
1131:./Libraries/STM32F4xx_HAL_Driver/Src/stm32f4xx_hal_ltdc.c ****   * @brief  Define the position of the line interrupt.
ARM GAS  /tmp/cchxdGeL.s 			page 64


1132:./Libraries/STM32F4xx_HAL_Driver/Src/stm32f4xx_hal_ltdc.c ****   * @param  hltdc   pointer to a LTDC_HandleTypeDef structure that contains
1133:./Libraries/STM32F4xx_HAL_Driver/Src/stm32f4xx_hal_ltdc.c ****   *                 the configuration information for the LTDC.
1134:./Libraries/STM32F4xx_HAL_Driver/Src/stm32f4xx_hal_ltdc.c ****   * @param  Line    Line Interrupt Position.
1135:./Libraries/STM32F4xx_HAL_Driver/Src/stm32f4xx_hal_ltdc.c ****   * @note   User application may resort to HAL_LTDC_LineEventCallback() at line interrupt generatio
1136:./Libraries/STM32F4xx_HAL_Driver/Src/stm32f4xx_hal_ltdc.c ****   * @retval  HAL status
1137:./Libraries/STM32F4xx_HAL_Driver/Src/stm32f4xx_hal_ltdc.c ****   */
1138:./Libraries/STM32F4xx_HAL_Driver/Src/stm32f4xx_hal_ltdc.c **** HAL_StatusTypeDef HAL_LTDC_ProgramLineEvent(LTDC_HandleTypeDef *hltdc, uint32_t Line)
1139:./Libraries/STM32F4xx_HAL_Driver/Src/stm32f4xx_hal_ltdc.c **** {
 2503              		.loc 1 1139 1
 2504              		.cfi_startproc
 2505              		@ args = 0, pretend = 0, frame = 8
 2506              		@ frame_needed = 1, uses_anonymous_args = 0
 2507              		@ link register save eliminated.
 2508 0000 80B4     		push	{r7}
 2509              	.LCFI129:
 2510              		.cfi_def_cfa_offset 4
 2511              		.cfi_offset 7, -4
 2512 0002 83B0     		sub	sp, sp, #12
 2513              	.LCFI130:
 2514              		.cfi_def_cfa_offset 16
 2515 0004 00AF     		add	r7, sp, #0
 2516              	.LCFI131:
 2517              		.cfi_def_cfa_register 7
 2518 0006 7860     		str	r0, [r7, #4]
 2519 0008 3960     		str	r1, [r7]
1140:./Libraries/STM32F4xx_HAL_Driver/Src/stm32f4xx_hal_ltdc.c ****   /* Check the parameters */
1141:./Libraries/STM32F4xx_HAL_Driver/Src/stm32f4xx_hal_ltdc.c ****   assert_param(IS_LTDC_LIPOS(Line));
1142:./Libraries/STM32F4xx_HAL_Driver/Src/stm32f4xx_hal_ltdc.c **** 
1143:./Libraries/STM32F4xx_HAL_Driver/Src/stm32f4xx_hal_ltdc.c ****   /* Process locked */
1144:./Libraries/STM32F4xx_HAL_Driver/Src/stm32f4xx_hal_ltdc.c ****   __HAL_LOCK(hltdc);
 2520              		.loc 1 1144 3
 2521 000a 7B68     		ldr	r3, [r7, #4]
 2522 000c 93F8A030 		ldrb	r3, [r3, #160]	@ zero_extendqisi2
 2523 0010 012B     		cmp	r3, #1
 2524 0012 01D1     		bne	.L81
 2525              		.loc 1 1144 3 is_stmt 0 discriminator 1
 2526 0014 0223     		movs	r3, #2
 2527 0016 23E0     		b	.L82
 2528              	.L81:
 2529              		.loc 1 1144 3 discriminator 2
 2530 0018 7B68     		ldr	r3, [r7, #4]
 2531 001a 0122     		movs	r2, #1
 2532 001c 83F8A020 		strb	r2, [r3, #160]
1145:./Libraries/STM32F4xx_HAL_Driver/Src/stm32f4xx_hal_ltdc.c **** 
1146:./Libraries/STM32F4xx_HAL_Driver/Src/stm32f4xx_hal_ltdc.c ****   /* Change LTDC peripheral state */
1147:./Libraries/STM32F4xx_HAL_Driver/Src/stm32f4xx_hal_ltdc.c ****   hltdc->State = HAL_LTDC_STATE_BUSY;
 2533              		.loc 1 1147 16 is_stmt 1 discriminator 2
 2534 0020 7B68     		ldr	r3, [r7, #4]
 2535 0022 0222     		movs	r2, #2
 2536 0024 83F8A120 		strb	r2, [r3, #161]
1148:./Libraries/STM32F4xx_HAL_Driver/Src/stm32f4xx_hal_ltdc.c **** 
1149:./Libraries/STM32F4xx_HAL_Driver/Src/stm32f4xx_hal_ltdc.c ****   /* Disable the Line interrupt */
1150:./Libraries/STM32F4xx_HAL_Driver/Src/stm32f4xx_hal_ltdc.c ****   __HAL_LTDC_DISABLE_IT(hltdc, LTDC_IT_LI);
 2537              		.loc 1 1150 3 discriminator 2
 2538 0028 7B68     		ldr	r3, [r7, #4]
 2539 002a 1B68     		ldr	r3, [r3]
 2540 002c 5A6B     		ldr	r2, [r3, #52]
ARM GAS  /tmp/cchxdGeL.s 			page 65


 2541 002e 7B68     		ldr	r3, [r7, #4]
 2542 0030 1B68     		ldr	r3, [r3]
 2543 0032 22F00102 		bic	r2, r2, #1
 2544 0036 5A63     		str	r2, [r3, #52]
1151:./Libraries/STM32F4xx_HAL_Driver/Src/stm32f4xx_hal_ltdc.c **** 
1152:./Libraries/STM32F4xx_HAL_Driver/Src/stm32f4xx_hal_ltdc.c ****   /* Set the Line Interrupt position */
1153:./Libraries/STM32F4xx_HAL_Driver/Src/stm32f4xx_hal_ltdc.c ****   LTDC->LIPCR = (uint32_t)Line;
 2545              		.loc 1 1153 7 discriminator 2
 2546 0038 0C4A     		ldr	r2, .L83
 2547              		.loc 1 1153 15 discriminator 2
 2548 003a 3B68     		ldr	r3, [r7]
 2549 003c 1364     		str	r3, [r2, #64]
1154:./Libraries/STM32F4xx_HAL_Driver/Src/stm32f4xx_hal_ltdc.c **** 
1155:./Libraries/STM32F4xx_HAL_Driver/Src/stm32f4xx_hal_ltdc.c ****   /* Enable the Line interrupt */
1156:./Libraries/STM32F4xx_HAL_Driver/Src/stm32f4xx_hal_ltdc.c ****   __HAL_LTDC_ENABLE_IT(hltdc, LTDC_IT_LI);
 2550              		.loc 1 1156 3 discriminator 2
 2551 003e 7B68     		ldr	r3, [r7, #4]
 2552 0040 1B68     		ldr	r3, [r3]
 2553 0042 5A6B     		ldr	r2, [r3, #52]
 2554 0044 7B68     		ldr	r3, [r7, #4]
 2555 0046 1B68     		ldr	r3, [r3]
 2556 0048 42F00102 		orr	r2, r2, #1
 2557 004c 5A63     		str	r2, [r3, #52]
1157:./Libraries/STM32F4xx_HAL_Driver/Src/stm32f4xx_hal_ltdc.c **** 
1158:./Libraries/STM32F4xx_HAL_Driver/Src/stm32f4xx_hal_ltdc.c ****   /* Change the LTDC state*/
1159:./Libraries/STM32F4xx_HAL_Driver/Src/stm32f4xx_hal_ltdc.c ****   hltdc->State = HAL_LTDC_STATE_READY;
 2558              		.loc 1 1159 16 discriminator 2
 2559 004e 7B68     		ldr	r3, [r7, #4]
 2560 0050 0122     		movs	r2, #1
 2561 0052 83F8A120 		strb	r2, [r3, #161]
1160:./Libraries/STM32F4xx_HAL_Driver/Src/stm32f4xx_hal_ltdc.c **** 
1161:./Libraries/STM32F4xx_HAL_Driver/Src/stm32f4xx_hal_ltdc.c ****   /* Process unlocked */
1162:./Libraries/STM32F4xx_HAL_Driver/Src/stm32f4xx_hal_ltdc.c ****   __HAL_UNLOCK(hltdc);
 2562              		.loc 1 1162 3 discriminator 2
 2563 0056 7B68     		ldr	r3, [r7, #4]
 2564 0058 0022     		movs	r2, #0
 2565 005a 83F8A020 		strb	r2, [r3, #160]
1163:./Libraries/STM32F4xx_HAL_Driver/Src/stm32f4xx_hal_ltdc.c **** 
1164:./Libraries/STM32F4xx_HAL_Driver/Src/stm32f4xx_hal_ltdc.c ****   return HAL_OK;
 2566              		.loc 1 1164 10 discriminator 2
 2567 005e 0023     		movs	r3, #0
 2568              	.L82:
1165:./Libraries/STM32F4xx_HAL_Driver/Src/stm32f4xx_hal_ltdc.c **** }
 2569              		.loc 1 1165 1
 2570 0060 1846     		mov	r0, r3
 2571 0062 0C37     		adds	r7, r7, #12
 2572              	.LCFI132:
 2573              		.cfi_def_cfa_offset 4
 2574 0064 BD46     		mov	sp, r7
 2575              	.LCFI133:
 2576              		.cfi_def_cfa_register 13
 2577              		@ sp needed
 2578 0066 5DF8047B 		ldr	r7, [sp], #4
 2579              	.LCFI134:
 2580              		.cfi_restore 7
 2581              		.cfi_def_cfa_offset 0
 2582 006a 7047     		bx	lr
ARM GAS  /tmp/cchxdGeL.s 			page 66


 2583              	.L84:
 2584              		.align	2
 2585              	.L83:
 2586 006c 00680140 		.word	1073833984
 2587              		.cfi_endproc
 2588              	.LFE149:
 2590              		.section	.text.HAL_LTDC_Reload,"ax",%progbits
 2591              		.align	1
 2592              		.global	HAL_LTDC_Reload
 2593              		.syntax unified
 2594              		.thumb
 2595              		.thumb_func
 2596              		.fpu fpv4-sp-d16
 2598              	HAL_LTDC_Reload:
 2599              	.LFB150:
1166:./Libraries/STM32F4xx_HAL_Driver/Src/stm32f4xx_hal_ltdc.c **** 
1167:./Libraries/STM32F4xx_HAL_Driver/Src/stm32f4xx_hal_ltdc.c **** /**
1168:./Libraries/STM32F4xx_HAL_Driver/Src/stm32f4xx_hal_ltdc.c ****   * @brief  Reload LTDC Layers configuration.
1169:./Libraries/STM32F4xx_HAL_Driver/Src/stm32f4xx_hal_ltdc.c ****   * @param  hltdc      pointer to a LTDC_HandleTypeDef structure that contains
1170:./Libraries/STM32F4xx_HAL_Driver/Src/stm32f4xx_hal_ltdc.c ****   *                    the configuration information for the LTDC.
1171:./Libraries/STM32F4xx_HAL_Driver/Src/stm32f4xx_hal_ltdc.c ****   * @param  ReloadType This parameter can be one of the following values :
1172:./Libraries/STM32F4xx_HAL_Driver/Src/stm32f4xx_hal_ltdc.c ****   *                      LTDC_RELOAD_IMMEDIATE : Immediate Reload
1173:./Libraries/STM32F4xx_HAL_Driver/Src/stm32f4xx_hal_ltdc.c ****   *                      LTDC_RELOAD_VERTICAL_BLANKING  : Reload in the next Vertical Blanking
1174:./Libraries/STM32F4xx_HAL_Driver/Src/stm32f4xx_hal_ltdc.c ****   * @note   User application may resort to HAL_LTDC_ReloadEventCallback() at reload interrupt gener
1175:./Libraries/STM32F4xx_HAL_Driver/Src/stm32f4xx_hal_ltdc.c ****   * @retval  HAL status
1176:./Libraries/STM32F4xx_HAL_Driver/Src/stm32f4xx_hal_ltdc.c ****   */
1177:./Libraries/STM32F4xx_HAL_Driver/Src/stm32f4xx_hal_ltdc.c **** HAL_StatusTypeDef  HAL_LTDC_Reload(LTDC_HandleTypeDef *hltdc, uint32_t ReloadType)
1178:./Libraries/STM32F4xx_HAL_Driver/Src/stm32f4xx_hal_ltdc.c **** {
 2600              		.loc 1 1178 1
 2601              		.cfi_startproc
 2602              		@ args = 0, pretend = 0, frame = 8
 2603              		@ frame_needed = 1, uses_anonymous_args = 0
 2604              		@ link register save eliminated.
 2605 0000 80B4     		push	{r7}
 2606              	.LCFI135:
 2607              		.cfi_def_cfa_offset 4
 2608              		.cfi_offset 7, -4
 2609 0002 83B0     		sub	sp, sp, #12
 2610              	.LCFI136:
 2611              		.cfi_def_cfa_offset 16
 2612 0004 00AF     		add	r7, sp, #0
 2613              	.LCFI137:
 2614              		.cfi_def_cfa_register 7
 2615 0006 7860     		str	r0, [r7, #4]
 2616 0008 3960     		str	r1, [r7]
1179:./Libraries/STM32F4xx_HAL_Driver/Src/stm32f4xx_hal_ltdc.c ****   /* Check the parameters */
1180:./Libraries/STM32F4xx_HAL_Driver/Src/stm32f4xx_hal_ltdc.c ****   assert_param(IS_LTDC_RELOAD(ReloadType));
1181:./Libraries/STM32F4xx_HAL_Driver/Src/stm32f4xx_hal_ltdc.c **** 
1182:./Libraries/STM32F4xx_HAL_Driver/Src/stm32f4xx_hal_ltdc.c ****   /* Process locked */
1183:./Libraries/STM32F4xx_HAL_Driver/Src/stm32f4xx_hal_ltdc.c ****   __HAL_LOCK(hltdc);
 2617              		.loc 1 1183 3
 2618 000a 7B68     		ldr	r3, [r7, #4]
 2619 000c 93F8A030 		ldrb	r3, [r3, #160]	@ zero_extendqisi2
 2620 0010 012B     		cmp	r3, #1
 2621 0012 01D1     		bne	.L86
 2622              		.loc 1 1183 3 is_stmt 0 discriminator 1
 2623 0014 0223     		movs	r3, #2
ARM GAS  /tmp/cchxdGeL.s 			page 67


 2624 0016 1CE0     		b	.L87
 2625              	.L86:
 2626              		.loc 1 1183 3 discriminator 2
 2627 0018 7B68     		ldr	r3, [r7, #4]
 2628 001a 0122     		movs	r2, #1
 2629 001c 83F8A020 		strb	r2, [r3, #160]
1184:./Libraries/STM32F4xx_HAL_Driver/Src/stm32f4xx_hal_ltdc.c **** 
1185:./Libraries/STM32F4xx_HAL_Driver/Src/stm32f4xx_hal_ltdc.c ****   /* Change LTDC peripheral state */
1186:./Libraries/STM32F4xx_HAL_Driver/Src/stm32f4xx_hal_ltdc.c ****   hltdc->State = HAL_LTDC_STATE_BUSY;  
 2630              		.loc 1 1186 16 is_stmt 1 discriminator 2
 2631 0020 7B68     		ldr	r3, [r7, #4]
 2632 0022 0222     		movs	r2, #2
 2633 0024 83F8A120 		strb	r2, [r3, #161]
1187:./Libraries/STM32F4xx_HAL_Driver/Src/stm32f4xx_hal_ltdc.c ****   
1188:./Libraries/STM32F4xx_HAL_Driver/Src/stm32f4xx_hal_ltdc.c ****   /* Enable the Reload interrupt */  
1189:./Libraries/STM32F4xx_HAL_Driver/Src/stm32f4xx_hal_ltdc.c ****   __HAL_LTDC_ENABLE_IT(hltdc, LTDC_IT_RR);
 2634              		.loc 1 1189 3 discriminator 2
 2635 0028 7B68     		ldr	r3, [r7, #4]
 2636 002a 1B68     		ldr	r3, [r3]
 2637 002c 5A6B     		ldr	r2, [r3, #52]
 2638 002e 7B68     		ldr	r3, [r7, #4]
 2639 0030 1B68     		ldr	r3, [r3]
 2640 0032 42F00802 		orr	r2, r2, #8
 2641 0036 5A63     		str	r2, [r3, #52]
1190:./Libraries/STM32F4xx_HAL_Driver/Src/stm32f4xx_hal_ltdc.c ****        
1191:./Libraries/STM32F4xx_HAL_Driver/Src/stm32f4xx_hal_ltdc.c ****   /* Apply Reload type */
1192:./Libraries/STM32F4xx_HAL_Driver/Src/stm32f4xx_hal_ltdc.c ****   hltdc->Instance->SRCR = ReloadType;        
 2642              		.loc 1 1192 8 discriminator 2
 2643 0038 7B68     		ldr	r3, [r7, #4]
 2644 003a 1B68     		ldr	r3, [r3]
 2645              		.loc 1 1192 25 discriminator 2
 2646 003c 3A68     		ldr	r2, [r7]
 2647 003e 5A62     		str	r2, [r3, #36]
1193:./Libraries/STM32F4xx_HAL_Driver/Src/stm32f4xx_hal_ltdc.c **** 
1194:./Libraries/STM32F4xx_HAL_Driver/Src/stm32f4xx_hal_ltdc.c ****   /* Change the LTDC state*/
1195:./Libraries/STM32F4xx_HAL_Driver/Src/stm32f4xx_hal_ltdc.c ****   hltdc->State = HAL_LTDC_STATE_READY;
 2648              		.loc 1 1195 16 discriminator 2
 2649 0040 7B68     		ldr	r3, [r7, #4]
 2650 0042 0122     		movs	r2, #1
 2651 0044 83F8A120 		strb	r2, [r3, #161]
1196:./Libraries/STM32F4xx_HAL_Driver/Src/stm32f4xx_hal_ltdc.c ****   
1197:./Libraries/STM32F4xx_HAL_Driver/Src/stm32f4xx_hal_ltdc.c ****   /* Process unlocked */
1198:./Libraries/STM32F4xx_HAL_Driver/Src/stm32f4xx_hal_ltdc.c ****   __HAL_UNLOCK(hltdc);
 2652              		.loc 1 1198 3 discriminator 2
 2653 0048 7B68     		ldr	r3, [r7, #4]
 2654 004a 0022     		movs	r2, #0
 2655 004c 83F8A020 		strb	r2, [r3, #160]
1199:./Libraries/STM32F4xx_HAL_Driver/Src/stm32f4xx_hal_ltdc.c ****   
1200:./Libraries/STM32F4xx_HAL_Driver/Src/stm32f4xx_hal_ltdc.c ****   return HAL_OK;
 2656              		.loc 1 1200 10 discriminator 2
 2657 0050 0023     		movs	r3, #0
 2658              	.L87:
1201:./Libraries/STM32F4xx_HAL_Driver/Src/stm32f4xx_hal_ltdc.c **** }
 2659              		.loc 1 1201 1
 2660 0052 1846     		mov	r0, r3
 2661 0054 0C37     		adds	r7, r7, #12
 2662              	.LCFI138:
ARM GAS  /tmp/cchxdGeL.s 			page 68


 2663              		.cfi_def_cfa_offset 4
 2664 0056 BD46     		mov	sp, r7
 2665              	.LCFI139:
 2666              		.cfi_def_cfa_register 13
 2667              		@ sp needed
 2668 0058 5DF8047B 		ldr	r7, [sp], #4
 2669              	.LCFI140:
 2670              		.cfi_restore 7
 2671              		.cfi_def_cfa_offset 0
 2672 005c 7047     		bx	lr
 2673              		.cfi_endproc
 2674              	.LFE150:
 2676              		.section	.text.HAL_LTDC_ConfigLayer_NoReload,"ax",%progbits
 2677              		.align	1
 2678              		.global	HAL_LTDC_ConfigLayer_NoReload
 2679              		.syntax unified
 2680              		.thumb
 2681              		.thumb_func
 2682              		.fpu fpv4-sp-d16
 2684              	HAL_LTDC_ConfigLayer_NoReload:
 2685              	.LFB151:
1202:./Libraries/STM32F4xx_HAL_Driver/Src/stm32f4xx_hal_ltdc.c **** 
1203:./Libraries/STM32F4xx_HAL_Driver/Src/stm32f4xx_hal_ltdc.c **** /**
1204:./Libraries/STM32F4xx_HAL_Driver/Src/stm32f4xx_hal_ltdc.c ****   * @brief  Configure the LTDC Layer according to the specified without reloading
1205:./Libraries/STM32F4xx_HAL_Driver/Src/stm32f4xx_hal_ltdc.c ****   *         parameters in the LTDC_InitTypeDef and create the associated handle.
1206:./Libraries/STM32F4xx_HAL_Driver/Src/stm32f4xx_hal_ltdc.c ****   *         Variant of the function HAL_LTDC_ConfigLayer without immediate reload.
1207:./Libraries/STM32F4xx_HAL_Driver/Src/stm32f4xx_hal_ltdc.c ****   * @param  hltdc      pointer to a LTDC_HandleTypeDef structure that contains
1208:./Libraries/STM32F4xx_HAL_Driver/Src/stm32f4xx_hal_ltdc.c ****   *                    the configuration information for the LTDC.
1209:./Libraries/STM32F4xx_HAL_Driver/Src/stm32f4xx_hal_ltdc.c ****   * @param  pLayerCfg  pointer to a LTDC_LayerCfgTypeDef structure that contains
1210:./Libraries/STM32F4xx_HAL_Driver/Src/stm32f4xx_hal_ltdc.c ****   *                    the configuration information for the Layer.
1211:./Libraries/STM32F4xx_HAL_Driver/Src/stm32f4xx_hal_ltdc.c ****   * @param  LayerIdx   LTDC Layer index.
1212:./Libraries/STM32F4xx_HAL_Driver/Src/stm32f4xx_hal_ltdc.c ****   *                    This parameter can be one of the following values:
1213:./Libraries/STM32F4xx_HAL_Driver/Src/stm32f4xx_hal_ltdc.c ****   *                    LTDC_LAYER_1 (0) or LTDC_LAYER_2 (1)
1214:./Libraries/STM32F4xx_HAL_Driver/Src/stm32f4xx_hal_ltdc.c ****   * @retval HAL status
1215:./Libraries/STM32F4xx_HAL_Driver/Src/stm32f4xx_hal_ltdc.c ****   */
1216:./Libraries/STM32F4xx_HAL_Driver/Src/stm32f4xx_hal_ltdc.c **** HAL_StatusTypeDef HAL_LTDC_ConfigLayer_NoReload(LTDC_HandleTypeDef *hltdc, LTDC_LayerCfgTypeDef *pL
1217:./Libraries/STM32F4xx_HAL_Driver/Src/stm32f4xx_hal_ltdc.c **** {   
 2686              		.loc 1 1217 1
 2687              		.cfi_startproc
 2688              		@ args = 0, pretend = 0, frame = 16
 2689              		@ frame_needed = 1, uses_anonymous_args = 0
 2690 0000 B0B5     		push	{r4, r5, r7, lr}
 2691              	.LCFI141:
 2692              		.cfi_def_cfa_offset 16
 2693              		.cfi_offset 4, -16
 2694              		.cfi_offset 5, -12
 2695              		.cfi_offset 7, -8
 2696              		.cfi_offset 14, -4
 2697 0002 84B0     		sub	sp, sp, #16
 2698              	.LCFI142:
 2699              		.cfi_def_cfa_offset 32
 2700 0004 00AF     		add	r7, sp, #0
 2701              	.LCFI143:
 2702              		.cfi_def_cfa_register 7
 2703 0006 F860     		str	r0, [r7, #12]
 2704 0008 B960     		str	r1, [r7, #8]
 2705 000a 7A60     		str	r2, [r7, #4]
ARM GAS  /tmp/cchxdGeL.s 			page 69


1218:./Libraries/STM32F4xx_HAL_Driver/Src/stm32f4xx_hal_ltdc.c ****   /* Check the parameters */
1219:./Libraries/STM32F4xx_HAL_Driver/Src/stm32f4xx_hal_ltdc.c ****   assert_param(IS_LTDC_LAYER(LayerIdx));
1220:./Libraries/STM32F4xx_HAL_Driver/Src/stm32f4xx_hal_ltdc.c ****   assert_param(IS_LTDC_HCONFIGST(pLayerCfg->WindowX0));
1221:./Libraries/STM32F4xx_HAL_Driver/Src/stm32f4xx_hal_ltdc.c ****   assert_param(IS_LTDC_HCONFIGSP(pLayerCfg->WindowX1));
1222:./Libraries/STM32F4xx_HAL_Driver/Src/stm32f4xx_hal_ltdc.c ****   assert_param(IS_LTDC_VCONFIGST(pLayerCfg->WindowY0));
1223:./Libraries/STM32F4xx_HAL_Driver/Src/stm32f4xx_hal_ltdc.c ****   assert_param(IS_LTDC_VCONFIGSP(pLayerCfg->WindowY1));
1224:./Libraries/STM32F4xx_HAL_Driver/Src/stm32f4xx_hal_ltdc.c ****   assert_param(IS_LTDC_PIXEL_FORMAT(pLayerCfg->PixelFormat));
1225:./Libraries/STM32F4xx_HAL_Driver/Src/stm32f4xx_hal_ltdc.c ****   assert_param(IS_LTDC_ALPHA(pLayerCfg->Alpha));
1226:./Libraries/STM32F4xx_HAL_Driver/Src/stm32f4xx_hal_ltdc.c ****   assert_param(IS_LTDC_ALPHA(pLayerCfg->Alpha0));
1227:./Libraries/STM32F4xx_HAL_Driver/Src/stm32f4xx_hal_ltdc.c ****   assert_param(IS_LTDC_BLENDING_FACTOR1(pLayerCfg->BlendingFactor1));
1228:./Libraries/STM32F4xx_HAL_Driver/Src/stm32f4xx_hal_ltdc.c ****   assert_param(IS_LTDC_BLENDING_FACTOR2(pLayerCfg->BlendingFactor2));
1229:./Libraries/STM32F4xx_HAL_Driver/Src/stm32f4xx_hal_ltdc.c ****   assert_param(IS_LTDC_CFBLL(pLayerCfg->ImageWidth));	
1230:./Libraries/STM32F4xx_HAL_Driver/Src/stm32f4xx_hal_ltdc.c ****   assert_param(IS_LTDC_CFBLNBR(pLayerCfg->ImageHeight));
1231:./Libraries/STM32F4xx_HAL_Driver/Src/stm32f4xx_hal_ltdc.c **** 
1232:./Libraries/STM32F4xx_HAL_Driver/Src/stm32f4xx_hal_ltdc.c ****   /* Process locked */
1233:./Libraries/STM32F4xx_HAL_Driver/Src/stm32f4xx_hal_ltdc.c ****   __HAL_LOCK(hltdc);
 2706              		.loc 1 1233 3
 2707 000c FB68     		ldr	r3, [r7, #12]
 2708 000e 93F8A030 		ldrb	r3, [r3, #160]	@ zero_extendqisi2
 2709 0012 012B     		cmp	r3, #1
 2710 0014 01D1     		bne	.L89
 2711              		.loc 1 1233 3 is_stmt 0 discriminator 1
 2712 0016 0223     		movs	r3, #2
 2713 0018 28E0     		b	.L90
 2714              	.L89:
 2715              		.loc 1 1233 3 discriminator 2
 2716 001a FB68     		ldr	r3, [r7, #12]
 2717 001c 0122     		movs	r2, #1
 2718 001e 83F8A020 		strb	r2, [r3, #160]
1234:./Libraries/STM32F4xx_HAL_Driver/Src/stm32f4xx_hal_ltdc.c ****   
1235:./Libraries/STM32F4xx_HAL_Driver/Src/stm32f4xx_hal_ltdc.c ****   /* Change LTDC peripheral state */
1236:./Libraries/STM32F4xx_HAL_Driver/Src/stm32f4xx_hal_ltdc.c ****   hltdc->State = HAL_LTDC_STATE_BUSY;
 2719              		.loc 1 1236 16 is_stmt 1 discriminator 2
 2720 0022 FB68     		ldr	r3, [r7, #12]
 2721 0024 0222     		movs	r2, #2
 2722 0026 83F8A120 		strb	r2, [r3, #161]
1237:./Libraries/STM32F4xx_HAL_Driver/Src/stm32f4xx_hal_ltdc.c **** 
1238:./Libraries/STM32F4xx_HAL_Driver/Src/stm32f4xx_hal_ltdc.c ****   /* Copy new layer configuration into handle structure */
1239:./Libraries/STM32F4xx_HAL_Driver/Src/stm32f4xx_hal_ltdc.c ****   hltdc->LayerCfg[LayerIdx] = *pLayerCfg;  
 2723              		.loc 1 1239 29 discriminator 2
 2724 002a FA68     		ldr	r2, [r7, #12]
 2725 002c 7B68     		ldr	r3, [r7, #4]
 2726 002e 3421     		movs	r1, #52
 2727 0030 01FB03F3 		mul	r3, r1, r3
 2728 0034 1344     		add	r3, r3, r2
 2729 0036 03F13802 		add	r2, r3, #56
 2730 003a BB68     		ldr	r3, [r7, #8]
 2731 003c 1446     		mov	r4, r2
 2732 003e 1D46     		mov	r5, r3
 2733 0040 0FCD     		ldmia	r5!, {r0, r1, r2, r3}
 2734 0042 0FC4     		stmia	r4!, {r0, r1, r2, r3}
 2735 0044 0FCD     		ldmia	r5!, {r0, r1, r2, r3}
 2736 0046 0FC4     		stmia	r4!, {r0, r1, r2, r3}
 2737 0048 0FCD     		ldmia	r5!, {r0, r1, r2, r3}
 2738 004a 0FC4     		stmia	r4!, {r0, r1, r2, r3}
 2739 004c 2B68     		ldr	r3, [r5]
 2740 004e 2360     		str	r3, [r4]
ARM GAS  /tmp/cchxdGeL.s 			page 70


1240:./Libraries/STM32F4xx_HAL_Driver/Src/stm32f4xx_hal_ltdc.c **** 
1241:./Libraries/STM32F4xx_HAL_Driver/Src/stm32f4xx_hal_ltdc.c ****   /* Configure the LTDC Layer */  
1242:./Libraries/STM32F4xx_HAL_Driver/Src/stm32f4xx_hal_ltdc.c ****   LTDC_SetConfig(hltdc, pLayerCfg, LayerIdx);
 2741              		.loc 1 1242 3 discriminator 2
 2742 0050 7A68     		ldr	r2, [r7, #4]
 2743 0052 B968     		ldr	r1, [r7, #8]
 2744 0054 F868     		ldr	r0, [r7, #12]
 2745 0056 FFF7FEFF 		bl	LTDC_SetConfig
1243:./Libraries/STM32F4xx_HAL_Driver/Src/stm32f4xx_hal_ltdc.c **** 
1244:./Libraries/STM32F4xx_HAL_Driver/Src/stm32f4xx_hal_ltdc.c ****   /* Do not set the Immediate Reload  */
1245:./Libraries/STM32F4xx_HAL_Driver/Src/stm32f4xx_hal_ltdc.c **** 
1246:./Libraries/STM32F4xx_HAL_Driver/Src/stm32f4xx_hal_ltdc.c ****   /* Initialize the LTDC state*/
1247:./Libraries/STM32F4xx_HAL_Driver/Src/stm32f4xx_hal_ltdc.c ****   hltdc->State  = HAL_LTDC_STATE_READY;
 2746              		.loc 1 1247 17 discriminator 2
 2747 005a FB68     		ldr	r3, [r7, #12]
 2748 005c 0122     		movs	r2, #1
 2749 005e 83F8A120 		strb	r2, [r3, #161]
1248:./Libraries/STM32F4xx_HAL_Driver/Src/stm32f4xx_hal_ltdc.c **** 
1249:./Libraries/STM32F4xx_HAL_Driver/Src/stm32f4xx_hal_ltdc.c ****   /* Process unlocked */
1250:./Libraries/STM32F4xx_HAL_Driver/Src/stm32f4xx_hal_ltdc.c ****   __HAL_UNLOCK(hltdc);
 2750              		.loc 1 1250 3 discriminator 2
 2751 0062 FB68     		ldr	r3, [r7, #12]
 2752 0064 0022     		movs	r2, #0
 2753 0066 83F8A020 		strb	r2, [r3, #160]
1251:./Libraries/STM32F4xx_HAL_Driver/Src/stm32f4xx_hal_ltdc.c **** 
1252:./Libraries/STM32F4xx_HAL_Driver/Src/stm32f4xx_hal_ltdc.c ****   return HAL_OK;
 2754              		.loc 1 1252 10 discriminator 2
 2755 006a 0023     		movs	r3, #0
 2756              	.L90:
1253:./Libraries/STM32F4xx_HAL_Driver/Src/stm32f4xx_hal_ltdc.c **** }
 2757              		.loc 1 1253 1
 2758 006c 1846     		mov	r0, r3
 2759 006e 1037     		adds	r7, r7, #16
 2760              	.LCFI144:
 2761              		.cfi_def_cfa_offset 16
 2762 0070 BD46     		mov	sp, r7
 2763              	.LCFI145:
 2764              		.cfi_def_cfa_register 13
 2765              		@ sp needed
 2766 0072 B0BD     		pop	{r4, r5, r7, pc}
 2767              		.cfi_endproc
 2768              	.LFE151:
 2770              		.section	.text.HAL_LTDC_SetWindowSize_NoReload,"ax",%progbits
 2771              		.align	1
 2772              		.global	HAL_LTDC_SetWindowSize_NoReload
 2773              		.syntax unified
 2774              		.thumb
 2775              		.thumb_func
 2776              		.fpu fpv4-sp-d16
 2778              	HAL_LTDC_SetWindowSize_NoReload:
 2779              	.LFB152:
1254:./Libraries/STM32F4xx_HAL_Driver/Src/stm32f4xx_hal_ltdc.c **** 
1255:./Libraries/STM32F4xx_HAL_Driver/Src/stm32f4xx_hal_ltdc.c **** /**
1256:./Libraries/STM32F4xx_HAL_Driver/Src/stm32f4xx_hal_ltdc.c ****   * @brief  Set the LTDC window size without reloading.
1257:./Libraries/STM32F4xx_HAL_Driver/Src/stm32f4xx_hal_ltdc.c ****   *         Variant of the function HAL_LTDC_SetWindowSize without immediate reload.
1258:./Libraries/STM32F4xx_HAL_Driver/Src/stm32f4xx_hal_ltdc.c ****   * @param  hltdc     pointer to a LTDC_HandleTypeDef structure that contains
1259:./Libraries/STM32F4xx_HAL_Driver/Src/stm32f4xx_hal_ltdc.c ****   *                   the configuration information for the LTDC.
ARM GAS  /tmp/cchxdGeL.s 			page 71


1260:./Libraries/STM32F4xx_HAL_Driver/Src/stm32f4xx_hal_ltdc.c ****   * @param  XSize     LTDC Pixel per line
1261:./Libraries/STM32F4xx_HAL_Driver/Src/stm32f4xx_hal_ltdc.c ****   * @param  YSize     LTDC Line number
1262:./Libraries/STM32F4xx_HAL_Driver/Src/stm32f4xx_hal_ltdc.c ****   * @param  LayerIdx  LTDC Layer index.
1263:./Libraries/STM32F4xx_HAL_Driver/Src/stm32f4xx_hal_ltdc.c ****   *                   This parameter can be one of the following values:
1264:./Libraries/STM32F4xx_HAL_Driver/Src/stm32f4xx_hal_ltdc.c ****   *                   LTDC_LAYER_1 (0) or LTDC_LAYER_2 (1)
1265:./Libraries/STM32F4xx_HAL_Driver/Src/stm32f4xx_hal_ltdc.c ****   * @retval  HAL status
1266:./Libraries/STM32F4xx_HAL_Driver/Src/stm32f4xx_hal_ltdc.c ****   */
1267:./Libraries/STM32F4xx_HAL_Driver/Src/stm32f4xx_hal_ltdc.c **** HAL_StatusTypeDef HAL_LTDC_SetWindowSize_NoReload(LTDC_HandleTypeDef *hltdc, uint32_t XSize, uint32
1268:./Libraries/STM32F4xx_HAL_Driver/Src/stm32f4xx_hal_ltdc.c **** {
 2780              		.loc 1 1268 1
 2781              		.cfi_startproc
 2782              		@ args = 0, pretend = 0, frame = 24
 2783              		@ frame_needed = 1, uses_anonymous_args = 0
 2784 0000 80B5     		push	{r7, lr}
 2785              	.LCFI146:
 2786              		.cfi_def_cfa_offset 8
 2787              		.cfi_offset 7, -8
 2788              		.cfi_offset 14, -4
 2789 0002 86B0     		sub	sp, sp, #24
 2790              	.LCFI147:
 2791              		.cfi_def_cfa_offset 32
 2792 0004 00AF     		add	r7, sp, #0
 2793              	.LCFI148:
 2794              		.cfi_def_cfa_register 7
 2795 0006 F860     		str	r0, [r7, #12]
 2796 0008 B960     		str	r1, [r7, #8]
 2797 000a 7A60     		str	r2, [r7, #4]
 2798 000c 3B60     		str	r3, [r7]
1269:./Libraries/STM32F4xx_HAL_Driver/Src/stm32f4xx_hal_ltdc.c ****   LTDC_LayerCfgTypeDef *pLayerCfg;
1270:./Libraries/STM32F4xx_HAL_Driver/Src/stm32f4xx_hal_ltdc.c **** 
1271:./Libraries/STM32F4xx_HAL_Driver/Src/stm32f4xx_hal_ltdc.c ****   /* Check the parameters (Layers parameters)*/
1272:./Libraries/STM32F4xx_HAL_Driver/Src/stm32f4xx_hal_ltdc.c ****   assert_param(IS_LTDC_LAYER(LayerIdx));
1273:./Libraries/STM32F4xx_HAL_Driver/Src/stm32f4xx_hal_ltdc.c ****   assert_param(IS_LTDC_CFBLL(XSize));
1274:./Libraries/STM32F4xx_HAL_Driver/Src/stm32f4xx_hal_ltdc.c ****   assert_param(IS_LTDC_CFBLNBR(YSize));
1275:./Libraries/STM32F4xx_HAL_Driver/Src/stm32f4xx_hal_ltdc.c **** 
1276:./Libraries/STM32F4xx_HAL_Driver/Src/stm32f4xx_hal_ltdc.c ****   /* Process locked */
1277:./Libraries/STM32F4xx_HAL_Driver/Src/stm32f4xx_hal_ltdc.c ****   __HAL_LOCK(hltdc);
 2799              		.loc 1 1277 3
 2800 000e FB68     		ldr	r3, [r7, #12]
 2801 0010 93F8A030 		ldrb	r3, [r3, #160]	@ zero_extendqisi2
 2802 0014 012B     		cmp	r3, #1
 2803 0016 01D1     		bne	.L92
 2804              		.loc 1 1277 3 is_stmt 0 discriminator 1
 2805 0018 0223     		movs	r3, #2
 2806 001a 2FE0     		b	.L93
 2807              	.L92:
 2808              		.loc 1 1277 3 discriminator 2
 2809 001c FB68     		ldr	r3, [r7, #12]
 2810 001e 0122     		movs	r2, #1
 2811 0020 83F8A020 		strb	r2, [r3, #160]
1278:./Libraries/STM32F4xx_HAL_Driver/Src/stm32f4xx_hal_ltdc.c **** 
1279:./Libraries/STM32F4xx_HAL_Driver/Src/stm32f4xx_hal_ltdc.c ****   /* Change LTDC peripheral state */
1280:./Libraries/STM32F4xx_HAL_Driver/Src/stm32f4xx_hal_ltdc.c ****   hltdc->State = HAL_LTDC_STATE_BUSY; 
 2812              		.loc 1 1280 16 is_stmt 1 discriminator 2
 2813 0024 FB68     		ldr	r3, [r7, #12]
 2814 0026 0222     		movs	r2, #2
 2815 0028 83F8A120 		strb	r2, [r3, #161]
ARM GAS  /tmp/cchxdGeL.s 			page 72


1281:./Libraries/STM32F4xx_HAL_Driver/Src/stm32f4xx_hal_ltdc.c **** 
1282:./Libraries/STM32F4xx_HAL_Driver/Src/stm32f4xx_hal_ltdc.c ****   /* Get layer configuration from handle structure */
1283:./Libraries/STM32F4xx_HAL_Driver/Src/stm32f4xx_hal_ltdc.c ****   pLayerCfg = &hltdc->LayerCfg[LayerIdx];
 2816              		.loc 1 1283 13 discriminator 2
 2817 002c 3B68     		ldr	r3, [r7]
 2818 002e 3422     		movs	r2, #52
 2819 0030 02FB03F3 		mul	r3, r2, r3
 2820 0034 3833     		adds	r3, r3, #56
 2821 0036 FA68     		ldr	r2, [r7, #12]
 2822 0038 1344     		add	r3, r3, r2
 2823 003a 7B61     		str	r3, [r7, #20]
1284:./Libraries/STM32F4xx_HAL_Driver/Src/stm32f4xx_hal_ltdc.c **** 
1285:./Libraries/STM32F4xx_HAL_Driver/Src/stm32f4xx_hal_ltdc.c ****   /* update horizontal stop */
1286:./Libraries/STM32F4xx_HAL_Driver/Src/stm32f4xx_hal_ltdc.c ****   pLayerCfg->WindowX1 = XSize + pLayerCfg->WindowX0;
 2824              		.loc 1 1286 42 discriminator 2
 2825 003c 7B69     		ldr	r3, [r7, #20]
 2826 003e 1A68     		ldr	r2, [r3]
 2827              		.loc 1 1286 31 discriminator 2
 2828 0040 BB68     		ldr	r3, [r7, #8]
 2829 0042 1A44     		add	r2, r2, r3
 2830              		.loc 1 1286 23 discriminator 2
 2831 0044 7B69     		ldr	r3, [r7, #20]
 2832 0046 5A60     		str	r2, [r3, #4]
1287:./Libraries/STM32F4xx_HAL_Driver/Src/stm32f4xx_hal_ltdc.c **** 
1288:./Libraries/STM32F4xx_HAL_Driver/Src/stm32f4xx_hal_ltdc.c ****   /* update vertical stop */  
1289:./Libraries/STM32F4xx_HAL_Driver/Src/stm32f4xx_hal_ltdc.c ****   pLayerCfg->WindowY1 = YSize + pLayerCfg->WindowY0;
 2833              		.loc 1 1289 42 discriminator 2
 2834 0048 7B69     		ldr	r3, [r7, #20]
 2835 004a 9A68     		ldr	r2, [r3, #8]
 2836              		.loc 1 1289 31 discriminator 2
 2837 004c 7B68     		ldr	r3, [r7, #4]
 2838 004e 1A44     		add	r2, r2, r3
 2839              		.loc 1 1289 23 discriminator 2
 2840 0050 7B69     		ldr	r3, [r7, #20]
 2841 0052 DA60     		str	r2, [r3, #12]
1290:./Libraries/STM32F4xx_HAL_Driver/Src/stm32f4xx_hal_ltdc.c **** 
1291:./Libraries/STM32F4xx_HAL_Driver/Src/stm32f4xx_hal_ltdc.c ****   /* Reconfigures the color frame buffer pitch in byte */
1292:./Libraries/STM32F4xx_HAL_Driver/Src/stm32f4xx_hal_ltdc.c ****   pLayerCfg->ImageWidth = XSize;
 2842              		.loc 1 1292 25 discriminator 2
 2843 0054 7B69     		ldr	r3, [r7, #20]
 2844 0056 BA68     		ldr	r2, [r7, #8]
 2845 0058 9A62     		str	r2, [r3, #40]
1293:./Libraries/STM32F4xx_HAL_Driver/Src/stm32f4xx_hal_ltdc.c **** 
1294:./Libraries/STM32F4xx_HAL_Driver/Src/stm32f4xx_hal_ltdc.c ****   /* Reconfigures the frame buffer line number */
1295:./Libraries/STM32F4xx_HAL_Driver/Src/stm32f4xx_hal_ltdc.c ****   pLayerCfg->ImageHeight = YSize;
 2846              		.loc 1 1295 26 discriminator 2
 2847 005a 7B69     		ldr	r3, [r7, #20]
 2848 005c 7A68     		ldr	r2, [r7, #4]
 2849 005e DA62     		str	r2, [r3, #44]
1296:./Libraries/STM32F4xx_HAL_Driver/Src/stm32f4xx_hal_ltdc.c **** 
1297:./Libraries/STM32F4xx_HAL_Driver/Src/stm32f4xx_hal_ltdc.c ****   /* Set LTDC parameters */
1298:./Libraries/STM32F4xx_HAL_Driver/Src/stm32f4xx_hal_ltdc.c ****   LTDC_SetConfig(hltdc, pLayerCfg, LayerIdx);
 2850              		.loc 1 1298 3 discriminator 2
 2851 0060 3A68     		ldr	r2, [r7]
 2852 0062 7969     		ldr	r1, [r7, #20]
 2853 0064 F868     		ldr	r0, [r7, #12]
 2854 0066 FFF7FEFF 		bl	LTDC_SetConfig
ARM GAS  /tmp/cchxdGeL.s 			page 73


1299:./Libraries/STM32F4xx_HAL_Driver/Src/stm32f4xx_hal_ltdc.c **** 
1300:./Libraries/STM32F4xx_HAL_Driver/Src/stm32f4xx_hal_ltdc.c ****   /* Do not set the Immediate Reload  */
1301:./Libraries/STM32F4xx_HAL_Driver/Src/stm32f4xx_hal_ltdc.c **** 
1302:./Libraries/STM32F4xx_HAL_Driver/Src/stm32f4xx_hal_ltdc.c ****   /* Change the LTDC state*/
1303:./Libraries/STM32F4xx_HAL_Driver/Src/stm32f4xx_hal_ltdc.c ****   hltdc->State = HAL_LTDC_STATE_READY;
 2855              		.loc 1 1303 16 discriminator 2
 2856 006a FB68     		ldr	r3, [r7, #12]
 2857 006c 0122     		movs	r2, #1
 2858 006e 83F8A120 		strb	r2, [r3, #161]
1304:./Libraries/STM32F4xx_HAL_Driver/Src/stm32f4xx_hal_ltdc.c **** 
1305:./Libraries/STM32F4xx_HAL_Driver/Src/stm32f4xx_hal_ltdc.c ****   /* Process unlocked */
1306:./Libraries/STM32F4xx_HAL_Driver/Src/stm32f4xx_hal_ltdc.c ****   __HAL_UNLOCK(hltdc);
 2859              		.loc 1 1306 3 discriminator 2
 2860 0072 FB68     		ldr	r3, [r7, #12]
 2861 0074 0022     		movs	r2, #0
 2862 0076 83F8A020 		strb	r2, [r3, #160]
1307:./Libraries/STM32F4xx_HAL_Driver/Src/stm32f4xx_hal_ltdc.c **** 
1308:./Libraries/STM32F4xx_HAL_Driver/Src/stm32f4xx_hal_ltdc.c ****   return HAL_OK;
 2863              		.loc 1 1308 10 discriminator 2
 2864 007a 0023     		movs	r3, #0
 2865              	.L93:
1309:./Libraries/STM32F4xx_HAL_Driver/Src/stm32f4xx_hal_ltdc.c **** }
 2866              		.loc 1 1309 1
 2867 007c 1846     		mov	r0, r3
 2868 007e 1837     		adds	r7, r7, #24
 2869              	.LCFI149:
 2870              		.cfi_def_cfa_offset 8
 2871 0080 BD46     		mov	sp, r7
 2872              	.LCFI150:
 2873              		.cfi_def_cfa_register 13
 2874              		@ sp needed
 2875 0082 80BD     		pop	{r7, pc}
 2876              		.cfi_endproc
 2877              	.LFE152:
 2879              		.section	.text.HAL_LTDC_SetWindowPosition_NoReload,"ax",%progbits
 2880              		.align	1
 2881              		.global	HAL_LTDC_SetWindowPosition_NoReload
 2882              		.syntax unified
 2883              		.thumb
 2884              		.thumb_func
 2885              		.fpu fpv4-sp-d16
 2887              	HAL_LTDC_SetWindowPosition_NoReload:
 2888              	.LFB153:
1310:./Libraries/STM32F4xx_HAL_Driver/Src/stm32f4xx_hal_ltdc.c **** 
1311:./Libraries/STM32F4xx_HAL_Driver/Src/stm32f4xx_hal_ltdc.c **** /**
1312:./Libraries/STM32F4xx_HAL_Driver/Src/stm32f4xx_hal_ltdc.c ****   * @brief  Set the LTDC window position without reloading.
1313:./Libraries/STM32F4xx_HAL_Driver/Src/stm32f4xx_hal_ltdc.c ****   *         Variant of the function HAL_LTDC_SetWindowPosition without immediate reload.
1314:./Libraries/STM32F4xx_HAL_Driver/Src/stm32f4xx_hal_ltdc.c ****   * @param  hltdc     pointer to a LTDC_HandleTypeDef structure that contains
1315:./Libraries/STM32F4xx_HAL_Driver/Src/stm32f4xx_hal_ltdc.c ****   *                   the configuration information for the LTDC.
1316:./Libraries/STM32F4xx_HAL_Driver/Src/stm32f4xx_hal_ltdc.c ****   * @param  X0        LTDC window X offset
1317:./Libraries/STM32F4xx_HAL_Driver/Src/stm32f4xx_hal_ltdc.c ****   * @param  Y0        LTDC window Y offset
1318:./Libraries/STM32F4xx_HAL_Driver/Src/stm32f4xx_hal_ltdc.c ****   * @param  LayerIdx  LTDC Layer index.
1319:./Libraries/STM32F4xx_HAL_Driver/Src/stm32f4xx_hal_ltdc.c ****   *                         This parameter can be one of the following values:
1320:./Libraries/STM32F4xx_HAL_Driver/Src/stm32f4xx_hal_ltdc.c ****   *                         LTDC_LAYER_1 (0) or LTDC_LAYER_2 (1)
1321:./Libraries/STM32F4xx_HAL_Driver/Src/stm32f4xx_hal_ltdc.c ****   * @retval  HAL status
1322:./Libraries/STM32F4xx_HAL_Driver/Src/stm32f4xx_hal_ltdc.c ****   */
1323:./Libraries/STM32F4xx_HAL_Driver/Src/stm32f4xx_hal_ltdc.c **** HAL_StatusTypeDef HAL_LTDC_SetWindowPosition_NoReload(LTDC_HandleTypeDef *hltdc, uint32_t X0, uint3
ARM GAS  /tmp/cchxdGeL.s 			page 74


1324:./Libraries/STM32F4xx_HAL_Driver/Src/stm32f4xx_hal_ltdc.c **** {
 2889              		.loc 1 1324 1
 2890              		.cfi_startproc
 2891              		@ args = 0, pretend = 0, frame = 24
 2892              		@ frame_needed = 1, uses_anonymous_args = 0
 2893 0000 80B5     		push	{r7, lr}
 2894              	.LCFI151:
 2895              		.cfi_def_cfa_offset 8
 2896              		.cfi_offset 7, -8
 2897              		.cfi_offset 14, -4
 2898 0002 86B0     		sub	sp, sp, #24
 2899              	.LCFI152:
 2900              		.cfi_def_cfa_offset 32
 2901 0004 00AF     		add	r7, sp, #0
 2902              	.LCFI153:
 2903              		.cfi_def_cfa_register 7
 2904 0006 F860     		str	r0, [r7, #12]
 2905 0008 B960     		str	r1, [r7, #8]
 2906 000a 7A60     		str	r2, [r7, #4]
 2907 000c 3B60     		str	r3, [r7]
1325:./Libraries/STM32F4xx_HAL_Driver/Src/stm32f4xx_hal_ltdc.c ****   LTDC_LayerCfgTypeDef *pLayerCfg;
1326:./Libraries/STM32F4xx_HAL_Driver/Src/stm32f4xx_hal_ltdc.c ****   
1327:./Libraries/STM32F4xx_HAL_Driver/Src/stm32f4xx_hal_ltdc.c ****   /* Check the parameters */
1328:./Libraries/STM32F4xx_HAL_Driver/Src/stm32f4xx_hal_ltdc.c ****   assert_param(IS_LTDC_LAYER(LayerIdx));
1329:./Libraries/STM32F4xx_HAL_Driver/Src/stm32f4xx_hal_ltdc.c ****   assert_param(IS_LTDC_CFBLL(X0));
1330:./Libraries/STM32F4xx_HAL_Driver/Src/stm32f4xx_hal_ltdc.c ****   assert_param(IS_LTDC_CFBLNBR(Y0));
1331:./Libraries/STM32F4xx_HAL_Driver/Src/stm32f4xx_hal_ltdc.c **** 
1332:./Libraries/STM32F4xx_HAL_Driver/Src/stm32f4xx_hal_ltdc.c ****   /* Process locked */
1333:./Libraries/STM32F4xx_HAL_Driver/Src/stm32f4xx_hal_ltdc.c ****   __HAL_LOCK(hltdc);
 2908              		.loc 1 1333 3
 2909 000e FB68     		ldr	r3, [r7, #12]
 2910 0010 93F8A030 		ldrb	r3, [r3, #160]	@ zero_extendqisi2
 2911 0014 012B     		cmp	r3, #1
 2912 0016 01D1     		bne	.L95
 2913              		.loc 1 1333 3 is_stmt 0 discriminator 1
 2914 0018 0223     		movs	r3, #2
 2915 001a 2FE0     		b	.L96
 2916              	.L95:
 2917              		.loc 1 1333 3 discriminator 2
 2918 001c FB68     		ldr	r3, [r7, #12]
 2919 001e 0122     		movs	r2, #1
 2920 0020 83F8A020 		strb	r2, [r3, #160]
1334:./Libraries/STM32F4xx_HAL_Driver/Src/stm32f4xx_hal_ltdc.c **** 
1335:./Libraries/STM32F4xx_HAL_Driver/Src/stm32f4xx_hal_ltdc.c ****   /* Change LTDC peripheral state */
1336:./Libraries/STM32F4xx_HAL_Driver/Src/stm32f4xx_hal_ltdc.c ****   hltdc->State = HAL_LTDC_STATE_BUSY;
 2921              		.loc 1 1336 16 is_stmt 1 discriminator 2
 2922 0024 FB68     		ldr	r3, [r7, #12]
 2923 0026 0222     		movs	r2, #2
 2924 0028 83F8A120 		strb	r2, [r3, #161]
1337:./Libraries/STM32F4xx_HAL_Driver/Src/stm32f4xx_hal_ltdc.c **** 
1338:./Libraries/STM32F4xx_HAL_Driver/Src/stm32f4xx_hal_ltdc.c ****   /* Get layer configuration from handle structure */
1339:./Libraries/STM32F4xx_HAL_Driver/Src/stm32f4xx_hal_ltdc.c ****   pLayerCfg = &hltdc->LayerCfg[LayerIdx];
 2925              		.loc 1 1339 13 discriminator 2
 2926 002c 3B68     		ldr	r3, [r7]
 2927 002e 3422     		movs	r2, #52
 2928 0030 02FB03F3 		mul	r3, r2, r3
 2929 0034 3833     		adds	r3, r3, #56
ARM GAS  /tmp/cchxdGeL.s 			page 75


 2930 0036 FA68     		ldr	r2, [r7, #12]
 2931 0038 1344     		add	r3, r3, r2
 2932 003a 7B61     		str	r3, [r7, #20]
1340:./Libraries/STM32F4xx_HAL_Driver/Src/stm32f4xx_hal_ltdc.c **** 
1341:./Libraries/STM32F4xx_HAL_Driver/Src/stm32f4xx_hal_ltdc.c ****   /* update horizontal start/stop */
1342:./Libraries/STM32F4xx_HAL_Driver/Src/stm32f4xx_hal_ltdc.c ****   pLayerCfg->WindowX0 = X0;
 2933              		.loc 1 1342 23 discriminator 2
 2934 003c 7B69     		ldr	r3, [r7, #20]
 2935 003e BA68     		ldr	r2, [r7, #8]
 2936 0040 1A60     		str	r2, [r3]
1343:./Libraries/STM32F4xx_HAL_Driver/Src/stm32f4xx_hal_ltdc.c ****   pLayerCfg->WindowX1 = X0 + pLayerCfg->ImageWidth;
 2937              		.loc 1 1343 39 discriminator 2
 2938 0042 7B69     		ldr	r3, [r7, #20]
 2939 0044 9A6A     		ldr	r2, [r3, #40]
 2940              		.loc 1 1343 28 discriminator 2
 2941 0046 BB68     		ldr	r3, [r7, #8]
 2942 0048 1A44     		add	r2, r2, r3
 2943              		.loc 1 1343 23 discriminator 2
 2944 004a 7B69     		ldr	r3, [r7, #20]
 2945 004c 5A60     		str	r2, [r3, #4]
1344:./Libraries/STM32F4xx_HAL_Driver/Src/stm32f4xx_hal_ltdc.c **** 
1345:./Libraries/STM32F4xx_HAL_Driver/Src/stm32f4xx_hal_ltdc.c ****   /* update vertical start/stop */
1346:./Libraries/STM32F4xx_HAL_Driver/Src/stm32f4xx_hal_ltdc.c ****   pLayerCfg->WindowY0 = Y0;
 2946              		.loc 1 1346 23 discriminator 2
 2947 004e 7B69     		ldr	r3, [r7, #20]
 2948 0050 7A68     		ldr	r2, [r7, #4]
 2949 0052 9A60     		str	r2, [r3, #8]
1347:./Libraries/STM32F4xx_HAL_Driver/Src/stm32f4xx_hal_ltdc.c ****   pLayerCfg->WindowY1 = Y0 + pLayerCfg->ImageHeight;
 2950              		.loc 1 1347 39 discriminator 2
 2951 0054 7B69     		ldr	r3, [r7, #20]
 2952 0056 DA6A     		ldr	r2, [r3, #44]
 2953              		.loc 1 1347 28 discriminator 2
 2954 0058 7B68     		ldr	r3, [r7, #4]
 2955 005a 1A44     		add	r2, r2, r3
 2956              		.loc 1 1347 23 discriminator 2
 2957 005c 7B69     		ldr	r3, [r7, #20]
 2958 005e DA60     		str	r2, [r3, #12]
1348:./Libraries/STM32F4xx_HAL_Driver/Src/stm32f4xx_hal_ltdc.c **** 
1349:./Libraries/STM32F4xx_HAL_Driver/Src/stm32f4xx_hal_ltdc.c ****   /* Set LTDC parameters */
1350:./Libraries/STM32F4xx_HAL_Driver/Src/stm32f4xx_hal_ltdc.c ****   LTDC_SetConfig(hltdc, pLayerCfg, LayerIdx);
 2959              		.loc 1 1350 3 discriminator 2
 2960 0060 3A68     		ldr	r2, [r7]
 2961 0062 7969     		ldr	r1, [r7, #20]
 2962 0064 F868     		ldr	r0, [r7, #12]
 2963 0066 FFF7FEFF 		bl	LTDC_SetConfig
1351:./Libraries/STM32F4xx_HAL_Driver/Src/stm32f4xx_hal_ltdc.c **** 
1352:./Libraries/STM32F4xx_HAL_Driver/Src/stm32f4xx_hal_ltdc.c ****   /* Do not set the Immediate Reload  */
1353:./Libraries/STM32F4xx_HAL_Driver/Src/stm32f4xx_hal_ltdc.c **** 
1354:./Libraries/STM32F4xx_HAL_Driver/Src/stm32f4xx_hal_ltdc.c ****   /* Change the LTDC state*/
1355:./Libraries/STM32F4xx_HAL_Driver/Src/stm32f4xx_hal_ltdc.c ****   hltdc->State = HAL_LTDC_STATE_READY;
 2964              		.loc 1 1355 16 discriminator 2
 2965 006a FB68     		ldr	r3, [r7, #12]
 2966 006c 0122     		movs	r2, #1
 2967 006e 83F8A120 		strb	r2, [r3, #161]
1356:./Libraries/STM32F4xx_HAL_Driver/Src/stm32f4xx_hal_ltdc.c **** 
1357:./Libraries/STM32F4xx_HAL_Driver/Src/stm32f4xx_hal_ltdc.c ****   /* Process unlocked */
1358:./Libraries/STM32F4xx_HAL_Driver/Src/stm32f4xx_hal_ltdc.c ****   __HAL_UNLOCK(hltdc);
ARM GAS  /tmp/cchxdGeL.s 			page 76


 2968              		.loc 1 1358 3 discriminator 2
 2969 0072 FB68     		ldr	r3, [r7, #12]
 2970 0074 0022     		movs	r2, #0
 2971 0076 83F8A020 		strb	r2, [r3, #160]
1359:./Libraries/STM32F4xx_HAL_Driver/Src/stm32f4xx_hal_ltdc.c **** 
1360:./Libraries/STM32F4xx_HAL_Driver/Src/stm32f4xx_hal_ltdc.c ****   return HAL_OK;
 2972              		.loc 1 1360 10 discriminator 2
 2973 007a 0023     		movs	r3, #0
 2974              	.L96:
1361:./Libraries/STM32F4xx_HAL_Driver/Src/stm32f4xx_hal_ltdc.c **** }
 2975              		.loc 1 1361 1
 2976 007c 1846     		mov	r0, r3
 2977 007e 1837     		adds	r7, r7, #24
 2978              	.LCFI154:
 2979              		.cfi_def_cfa_offset 8
 2980 0080 BD46     		mov	sp, r7
 2981              	.LCFI155:
 2982              		.cfi_def_cfa_register 13
 2983              		@ sp needed
 2984 0082 80BD     		pop	{r7, pc}
 2985              		.cfi_endproc
 2986              	.LFE153:
 2988              		.section	.text.HAL_LTDC_SetPixelFormat_NoReload,"ax",%progbits
 2989              		.align	1
 2990              		.global	HAL_LTDC_SetPixelFormat_NoReload
 2991              		.syntax unified
 2992              		.thumb
 2993              		.thumb_func
 2994              		.fpu fpv4-sp-d16
 2996              	HAL_LTDC_SetPixelFormat_NoReload:
 2997              	.LFB154:
1362:./Libraries/STM32F4xx_HAL_Driver/Src/stm32f4xx_hal_ltdc.c **** 
1363:./Libraries/STM32F4xx_HAL_Driver/Src/stm32f4xx_hal_ltdc.c **** /**
1364:./Libraries/STM32F4xx_HAL_Driver/Src/stm32f4xx_hal_ltdc.c ****   * @brief  Reconfigure the pixel format without reloading.
1365:./Libraries/STM32F4xx_HAL_Driver/Src/stm32f4xx_hal_ltdc.c ****   *         Variant of the function HAL_LTDC_SetPixelFormat without immediate reload.
1366:./Libraries/STM32F4xx_HAL_Driver/Src/stm32f4xx_hal_ltdc.c ****   * @param  hltdc        pointer to a LTDC_HandleTypeDfef structure that contains
1367:./Libraries/STM32F4xx_HAL_Driver/Src/stm32f4xx_hal_ltdc.c ****   *                      the configuration information for the LTDC.
1368:./Libraries/STM32F4xx_HAL_Driver/Src/stm32f4xx_hal_ltdc.c ****   * @param  Pixelformat  new pixel format value.
1369:./Libraries/STM32F4xx_HAL_Driver/Src/stm32f4xx_hal_ltdc.c ****   * @param  LayerIdx     LTDC Layer index.
1370:./Libraries/STM32F4xx_HAL_Driver/Src/stm32f4xx_hal_ltdc.c ****   *                      This parameter can be one of the following values:
1371:./Libraries/STM32F4xx_HAL_Driver/Src/stm32f4xx_hal_ltdc.c ****   *                      LTDC_LAYER_1 (0) or LTDC_LAYER_2 (1).
1372:./Libraries/STM32F4xx_HAL_Driver/Src/stm32f4xx_hal_ltdc.c ****   * @retval  HAL status
1373:./Libraries/STM32F4xx_HAL_Driver/Src/stm32f4xx_hal_ltdc.c ****   */
1374:./Libraries/STM32F4xx_HAL_Driver/Src/stm32f4xx_hal_ltdc.c **** HAL_StatusTypeDef HAL_LTDC_SetPixelFormat_NoReload(LTDC_HandleTypeDef *hltdc, uint32_t Pixelformat,
1375:./Libraries/STM32F4xx_HAL_Driver/Src/stm32f4xx_hal_ltdc.c **** {
 2998              		.loc 1 1375 1
 2999              		.cfi_startproc
 3000              		@ args = 0, pretend = 0, frame = 24
 3001              		@ frame_needed = 1, uses_anonymous_args = 0
 3002 0000 80B5     		push	{r7, lr}
 3003              	.LCFI156:
 3004              		.cfi_def_cfa_offset 8
 3005              		.cfi_offset 7, -8
 3006              		.cfi_offset 14, -4
 3007 0002 86B0     		sub	sp, sp, #24
 3008              	.LCFI157:
 3009              		.cfi_def_cfa_offset 32
ARM GAS  /tmp/cchxdGeL.s 			page 77


 3010 0004 00AF     		add	r7, sp, #0
 3011              	.LCFI158:
 3012              		.cfi_def_cfa_register 7
 3013 0006 F860     		str	r0, [r7, #12]
 3014 0008 B960     		str	r1, [r7, #8]
 3015 000a 7A60     		str	r2, [r7, #4]
1376:./Libraries/STM32F4xx_HAL_Driver/Src/stm32f4xx_hal_ltdc.c ****   LTDC_LayerCfgTypeDef *pLayerCfg;
1377:./Libraries/STM32F4xx_HAL_Driver/Src/stm32f4xx_hal_ltdc.c **** 
1378:./Libraries/STM32F4xx_HAL_Driver/Src/stm32f4xx_hal_ltdc.c ****   /* Check the parameters */
1379:./Libraries/STM32F4xx_HAL_Driver/Src/stm32f4xx_hal_ltdc.c ****   assert_param(IS_LTDC_PIXEL_FORMAT(Pixelformat));
1380:./Libraries/STM32F4xx_HAL_Driver/Src/stm32f4xx_hal_ltdc.c ****   assert_param(IS_LTDC_LAYER(LayerIdx));
1381:./Libraries/STM32F4xx_HAL_Driver/Src/stm32f4xx_hal_ltdc.c **** 
1382:./Libraries/STM32F4xx_HAL_Driver/Src/stm32f4xx_hal_ltdc.c ****   /* Process locked */
1383:./Libraries/STM32F4xx_HAL_Driver/Src/stm32f4xx_hal_ltdc.c ****   __HAL_LOCK(hltdc);
 3016              		.loc 1 1383 3
 3017 000c FB68     		ldr	r3, [r7, #12]
 3018 000e 93F8A030 		ldrb	r3, [r3, #160]	@ zero_extendqisi2
 3019 0012 012B     		cmp	r3, #1
 3020 0014 01D1     		bne	.L98
 3021              		.loc 1 1383 3 is_stmt 0 discriminator 1
 3022 0016 0223     		movs	r3, #2
 3023 0018 20E0     		b	.L99
 3024              	.L98:
 3025              		.loc 1 1383 3 discriminator 2
 3026 001a FB68     		ldr	r3, [r7, #12]
 3027 001c 0122     		movs	r2, #1
 3028 001e 83F8A020 		strb	r2, [r3, #160]
1384:./Libraries/STM32F4xx_HAL_Driver/Src/stm32f4xx_hal_ltdc.c **** 
1385:./Libraries/STM32F4xx_HAL_Driver/Src/stm32f4xx_hal_ltdc.c ****   /* Change LTDC peripheral state */
1386:./Libraries/STM32F4xx_HAL_Driver/Src/stm32f4xx_hal_ltdc.c ****   hltdc->State = HAL_LTDC_STATE_BUSY;
 3029              		.loc 1 1386 16 is_stmt 1 discriminator 2
 3030 0022 FB68     		ldr	r3, [r7, #12]
 3031 0024 0222     		movs	r2, #2
 3032 0026 83F8A120 		strb	r2, [r3, #161]
1387:./Libraries/STM32F4xx_HAL_Driver/Src/stm32f4xx_hal_ltdc.c **** 
1388:./Libraries/STM32F4xx_HAL_Driver/Src/stm32f4xx_hal_ltdc.c ****   /* Get layer configuration from handle structure */
1389:./Libraries/STM32F4xx_HAL_Driver/Src/stm32f4xx_hal_ltdc.c ****   pLayerCfg = &hltdc->LayerCfg[LayerIdx];  
 3033              		.loc 1 1389 13 discriminator 2
 3034 002a 7B68     		ldr	r3, [r7, #4]
 3035 002c 3422     		movs	r2, #52
 3036 002e 02FB03F3 		mul	r3, r2, r3
 3037 0032 3833     		adds	r3, r3, #56
 3038 0034 FA68     		ldr	r2, [r7, #12]
 3039 0036 1344     		add	r3, r3, r2
 3040 0038 7B61     		str	r3, [r7, #20]
1390:./Libraries/STM32F4xx_HAL_Driver/Src/stm32f4xx_hal_ltdc.c **** 
1391:./Libraries/STM32F4xx_HAL_Driver/Src/stm32f4xx_hal_ltdc.c ****   /* Reconfigure the pixel format */
1392:./Libraries/STM32F4xx_HAL_Driver/Src/stm32f4xx_hal_ltdc.c ****   pLayerCfg->PixelFormat = Pixelformat;
 3041              		.loc 1 1392 26 discriminator 2
 3042 003a 7B69     		ldr	r3, [r7, #20]
 3043 003c BA68     		ldr	r2, [r7, #8]
 3044 003e 1A61     		str	r2, [r3, #16]
1393:./Libraries/STM32F4xx_HAL_Driver/Src/stm32f4xx_hal_ltdc.c **** 
1394:./Libraries/STM32F4xx_HAL_Driver/Src/stm32f4xx_hal_ltdc.c ****   /* Set LTDC parameters */
1395:./Libraries/STM32F4xx_HAL_Driver/Src/stm32f4xx_hal_ltdc.c ****   LTDC_SetConfig(hltdc, pLayerCfg, LayerIdx);   
 3045              		.loc 1 1395 3 discriminator 2
 3046 0040 7A68     		ldr	r2, [r7, #4]
ARM GAS  /tmp/cchxdGeL.s 			page 78


 3047 0042 7969     		ldr	r1, [r7, #20]
 3048 0044 F868     		ldr	r0, [r7, #12]
 3049 0046 FFF7FEFF 		bl	LTDC_SetConfig
1396:./Libraries/STM32F4xx_HAL_Driver/Src/stm32f4xx_hal_ltdc.c **** 
1397:./Libraries/STM32F4xx_HAL_Driver/Src/stm32f4xx_hal_ltdc.c ****   /* Do not set the Immediate Reload  */
1398:./Libraries/STM32F4xx_HAL_Driver/Src/stm32f4xx_hal_ltdc.c **** 
1399:./Libraries/STM32F4xx_HAL_Driver/Src/stm32f4xx_hal_ltdc.c ****   /* Change the LTDC state*/
1400:./Libraries/STM32F4xx_HAL_Driver/Src/stm32f4xx_hal_ltdc.c ****   hltdc->State = HAL_LTDC_STATE_READY;
 3050              		.loc 1 1400 16 discriminator 2
 3051 004a FB68     		ldr	r3, [r7, #12]
 3052 004c 0122     		movs	r2, #1
 3053 004e 83F8A120 		strb	r2, [r3, #161]
1401:./Libraries/STM32F4xx_HAL_Driver/Src/stm32f4xx_hal_ltdc.c **** 
1402:./Libraries/STM32F4xx_HAL_Driver/Src/stm32f4xx_hal_ltdc.c ****   /* Process unlocked */
1403:./Libraries/STM32F4xx_HAL_Driver/Src/stm32f4xx_hal_ltdc.c ****   __HAL_UNLOCK(hltdc);
 3054              		.loc 1 1403 3 discriminator 2
 3055 0052 FB68     		ldr	r3, [r7, #12]
 3056 0054 0022     		movs	r2, #0
 3057 0056 83F8A020 		strb	r2, [r3, #160]
1404:./Libraries/STM32F4xx_HAL_Driver/Src/stm32f4xx_hal_ltdc.c **** 
1405:./Libraries/STM32F4xx_HAL_Driver/Src/stm32f4xx_hal_ltdc.c ****   return HAL_OK;
 3058              		.loc 1 1405 10 discriminator 2
 3059 005a 0023     		movs	r3, #0
 3060              	.L99:
1406:./Libraries/STM32F4xx_HAL_Driver/Src/stm32f4xx_hal_ltdc.c **** }
 3061              		.loc 1 1406 1
 3062 005c 1846     		mov	r0, r3
 3063 005e 1837     		adds	r7, r7, #24
 3064              	.LCFI159:
 3065              		.cfi_def_cfa_offset 8
 3066 0060 BD46     		mov	sp, r7
 3067              	.LCFI160:
 3068              		.cfi_def_cfa_register 13
 3069              		@ sp needed
 3070 0062 80BD     		pop	{r7, pc}
 3071              		.cfi_endproc
 3072              	.LFE154:
 3074              		.section	.text.HAL_LTDC_SetAlpha_NoReload,"ax",%progbits
 3075              		.align	1
 3076              		.global	HAL_LTDC_SetAlpha_NoReload
 3077              		.syntax unified
 3078              		.thumb
 3079              		.thumb_func
 3080              		.fpu fpv4-sp-d16
 3082              	HAL_LTDC_SetAlpha_NoReload:
 3083              	.LFB155:
1407:./Libraries/STM32F4xx_HAL_Driver/Src/stm32f4xx_hal_ltdc.c **** 
1408:./Libraries/STM32F4xx_HAL_Driver/Src/stm32f4xx_hal_ltdc.c **** /**
1409:./Libraries/STM32F4xx_HAL_Driver/Src/stm32f4xx_hal_ltdc.c ****   * @brief  Reconfigure the layer alpha value without reloading.
1410:./Libraries/STM32F4xx_HAL_Driver/Src/stm32f4xx_hal_ltdc.c ****   *         Variant of the function HAL_LTDC_SetAlpha without immediate reload.
1411:./Libraries/STM32F4xx_HAL_Driver/Src/stm32f4xx_hal_ltdc.c ****   * @param  hltdc     pointer to a LTDC_HandleTypeDef structure that contains
1412:./Libraries/STM32F4xx_HAL_Driver/Src/stm32f4xx_hal_ltdc.c ****   *                   the configuration information for the LTDC.
1413:./Libraries/STM32F4xx_HAL_Driver/Src/stm32f4xx_hal_ltdc.c ****   * @param  Alpha     new alpha value.
1414:./Libraries/STM32F4xx_HAL_Driver/Src/stm32f4xx_hal_ltdc.c ****   * @param  LayerIdx  LTDC Layer index.
1415:./Libraries/STM32F4xx_HAL_Driver/Src/stm32f4xx_hal_ltdc.c ****   *                   This parameter can be one of the following values:
1416:./Libraries/STM32F4xx_HAL_Driver/Src/stm32f4xx_hal_ltdc.c ****   *                   LTDC_LAYER_1 (0) or LTDC_LAYER_2 (1)
1417:./Libraries/STM32F4xx_HAL_Driver/Src/stm32f4xx_hal_ltdc.c ****   * @retval  HAL status
ARM GAS  /tmp/cchxdGeL.s 			page 79


1418:./Libraries/STM32F4xx_HAL_Driver/Src/stm32f4xx_hal_ltdc.c ****   */
1419:./Libraries/STM32F4xx_HAL_Driver/Src/stm32f4xx_hal_ltdc.c **** HAL_StatusTypeDef HAL_LTDC_SetAlpha_NoReload(LTDC_HandleTypeDef *hltdc, uint32_t Alpha, uint32_t La
1420:./Libraries/STM32F4xx_HAL_Driver/Src/stm32f4xx_hal_ltdc.c **** {
 3084              		.loc 1 1420 1
 3085              		.cfi_startproc
 3086              		@ args = 0, pretend = 0, frame = 24
 3087              		@ frame_needed = 1, uses_anonymous_args = 0
 3088 0000 80B5     		push	{r7, lr}
 3089              	.LCFI161:
 3090              		.cfi_def_cfa_offset 8
 3091              		.cfi_offset 7, -8
 3092              		.cfi_offset 14, -4
 3093 0002 86B0     		sub	sp, sp, #24
 3094              	.LCFI162:
 3095              		.cfi_def_cfa_offset 32
 3096 0004 00AF     		add	r7, sp, #0
 3097              	.LCFI163:
 3098              		.cfi_def_cfa_register 7
 3099 0006 F860     		str	r0, [r7, #12]
 3100 0008 B960     		str	r1, [r7, #8]
 3101 000a 7A60     		str	r2, [r7, #4]
1421:./Libraries/STM32F4xx_HAL_Driver/Src/stm32f4xx_hal_ltdc.c ****   LTDC_LayerCfgTypeDef *pLayerCfg;
1422:./Libraries/STM32F4xx_HAL_Driver/Src/stm32f4xx_hal_ltdc.c **** 
1423:./Libraries/STM32F4xx_HAL_Driver/Src/stm32f4xx_hal_ltdc.c ****   /* Check the parameters */
1424:./Libraries/STM32F4xx_HAL_Driver/Src/stm32f4xx_hal_ltdc.c ****   assert_param(IS_LTDC_ALPHA(Alpha));
1425:./Libraries/STM32F4xx_HAL_Driver/Src/stm32f4xx_hal_ltdc.c ****   assert_param(IS_LTDC_LAYER(LayerIdx));
1426:./Libraries/STM32F4xx_HAL_Driver/Src/stm32f4xx_hal_ltdc.c **** 
1427:./Libraries/STM32F4xx_HAL_Driver/Src/stm32f4xx_hal_ltdc.c ****   /* Process locked */
1428:./Libraries/STM32F4xx_HAL_Driver/Src/stm32f4xx_hal_ltdc.c ****   __HAL_LOCK(hltdc);
 3102              		.loc 1 1428 3
 3103 000c FB68     		ldr	r3, [r7, #12]
 3104 000e 93F8A030 		ldrb	r3, [r3, #160]	@ zero_extendqisi2
 3105 0012 012B     		cmp	r3, #1
 3106 0014 01D1     		bne	.L101
 3107              		.loc 1 1428 3 is_stmt 0 discriminator 1
 3108 0016 0223     		movs	r3, #2
 3109 0018 20E0     		b	.L102
 3110              	.L101:
 3111              		.loc 1 1428 3 discriminator 2
 3112 001a FB68     		ldr	r3, [r7, #12]
 3113 001c 0122     		movs	r2, #1
 3114 001e 83F8A020 		strb	r2, [r3, #160]
1429:./Libraries/STM32F4xx_HAL_Driver/Src/stm32f4xx_hal_ltdc.c **** 
1430:./Libraries/STM32F4xx_HAL_Driver/Src/stm32f4xx_hal_ltdc.c ****   /* Change LTDC peripheral state */
1431:./Libraries/STM32F4xx_HAL_Driver/Src/stm32f4xx_hal_ltdc.c ****   hltdc->State = HAL_LTDC_STATE_BUSY;
 3115              		.loc 1 1431 16 is_stmt 1 discriminator 2
 3116 0022 FB68     		ldr	r3, [r7, #12]
 3117 0024 0222     		movs	r2, #2
 3118 0026 83F8A120 		strb	r2, [r3, #161]
1432:./Libraries/STM32F4xx_HAL_Driver/Src/stm32f4xx_hal_ltdc.c **** 
1433:./Libraries/STM32F4xx_HAL_Driver/Src/stm32f4xx_hal_ltdc.c ****   /* Get layer configuration from handle structure */
1434:./Libraries/STM32F4xx_HAL_Driver/Src/stm32f4xx_hal_ltdc.c ****   pLayerCfg = &hltdc->LayerCfg[LayerIdx];
 3119              		.loc 1 1434 13 discriminator 2
 3120 002a 7B68     		ldr	r3, [r7, #4]
 3121 002c 3422     		movs	r2, #52
 3122 002e 02FB03F3 		mul	r3, r2, r3
 3123 0032 3833     		adds	r3, r3, #56
ARM GAS  /tmp/cchxdGeL.s 			page 80


 3124 0034 FA68     		ldr	r2, [r7, #12]
 3125 0036 1344     		add	r3, r3, r2
 3126 0038 7B61     		str	r3, [r7, #20]
1435:./Libraries/STM32F4xx_HAL_Driver/Src/stm32f4xx_hal_ltdc.c **** 
1436:./Libraries/STM32F4xx_HAL_Driver/Src/stm32f4xx_hal_ltdc.c ****   /* Reconfigure the Alpha value */
1437:./Libraries/STM32F4xx_HAL_Driver/Src/stm32f4xx_hal_ltdc.c ****   pLayerCfg->Alpha = Alpha;
 3127              		.loc 1 1437 20 discriminator 2
 3128 003a 7B69     		ldr	r3, [r7, #20]
 3129 003c BA68     		ldr	r2, [r7, #8]
 3130 003e 5A61     		str	r2, [r3, #20]
1438:./Libraries/STM32F4xx_HAL_Driver/Src/stm32f4xx_hal_ltdc.c **** 
1439:./Libraries/STM32F4xx_HAL_Driver/Src/stm32f4xx_hal_ltdc.c ****   /* Set LTDC parameters */
1440:./Libraries/STM32F4xx_HAL_Driver/Src/stm32f4xx_hal_ltdc.c ****   LTDC_SetConfig(hltdc, pLayerCfg, LayerIdx);
 3131              		.loc 1 1440 3 discriminator 2
 3132 0040 7A68     		ldr	r2, [r7, #4]
 3133 0042 7969     		ldr	r1, [r7, #20]
 3134 0044 F868     		ldr	r0, [r7, #12]
 3135 0046 FFF7FEFF 		bl	LTDC_SetConfig
1441:./Libraries/STM32F4xx_HAL_Driver/Src/stm32f4xx_hal_ltdc.c **** 
1442:./Libraries/STM32F4xx_HAL_Driver/Src/stm32f4xx_hal_ltdc.c ****   /* Do not set the Immediate Reload  */
1443:./Libraries/STM32F4xx_HAL_Driver/Src/stm32f4xx_hal_ltdc.c **** 
1444:./Libraries/STM32F4xx_HAL_Driver/Src/stm32f4xx_hal_ltdc.c ****   /* Change the LTDC state*/
1445:./Libraries/STM32F4xx_HAL_Driver/Src/stm32f4xx_hal_ltdc.c ****   hltdc->State = HAL_LTDC_STATE_READY;
 3136              		.loc 1 1445 16 discriminator 2
 3137 004a FB68     		ldr	r3, [r7, #12]
 3138 004c 0122     		movs	r2, #1
 3139 004e 83F8A120 		strb	r2, [r3, #161]
1446:./Libraries/STM32F4xx_HAL_Driver/Src/stm32f4xx_hal_ltdc.c **** 
1447:./Libraries/STM32F4xx_HAL_Driver/Src/stm32f4xx_hal_ltdc.c ****   /* Process unlocked */
1448:./Libraries/STM32F4xx_HAL_Driver/Src/stm32f4xx_hal_ltdc.c ****   __HAL_UNLOCK(hltdc);
 3140              		.loc 1 1448 3 discriminator 2
 3141 0052 FB68     		ldr	r3, [r7, #12]
 3142 0054 0022     		movs	r2, #0
 3143 0056 83F8A020 		strb	r2, [r3, #160]
1449:./Libraries/STM32F4xx_HAL_Driver/Src/stm32f4xx_hal_ltdc.c **** 
1450:./Libraries/STM32F4xx_HAL_Driver/Src/stm32f4xx_hal_ltdc.c ****   return HAL_OK;
 3144              		.loc 1 1450 10 discriminator 2
 3145 005a 0023     		movs	r3, #0
 3146              	.L102:
1451:./Libraries/STM32F4xx_HAL_Driver/Src/stm32f4xx_hal_ltdc.c **** }
 3147              		.loc 1 1451 1
 3148 005c 1846     		mov	r0, r3
 3149 005e 1837     		adds	r7, r7, #24
 3150              	.LCFI164:
 3151              		.cfi_def_cfa_offset 8
 3152 0060 BD46     		mov	sp, r7
 3153              	.LCFI165:
 3154              		.cfi_def_cfa_register 13
 3155              		@ sp needed
 3156 0062 80BD     		pop	{r7, pc}
 3157              		.cfi_endproc
 3158              	.LFE155:
 3160              		.section	.text.HAL_LTDC_SetAddress_NoReload,"ax",%progbits
 3161              		.align	1
 3162              		.global	HAL_LTDC_SetAddress_NoReload
 3163              		.syntax unified
 3164              		.thumb
ARM GAS  /tmp/cchxdGeL.s 			page 81


 3165              		.thumb_func
 3166              		.fpu fpv4-sp-d16
 3168              	HAL_LTDC_SetAddress_NoReload:
 3169              	.LFB156:
1452:./Libraries/STM32F4xx_HAL_Driver/Src/stm32f4xx_hal_ltdc.c **** 
1453:./Libraries/STM32F4xx_HAL_Driver/Src/stm32f4xx_hal_ltdc.c **** /**
1454:./Libraries/STM32F4xx_HAL_Driver/Src/stm32f4xx_hal_ltdc.c ****   * @brief  Reconfigure the frame buffer Address without reloading.
1455:./Libraries/STM32F4xx_HAL_Driver/Src/stm32f4xx_hal_ltdc.c ****   *         Variant of the function HAL_LTDC_SetAddress without immediate reload.   
1456:./Libraries/STM32F4xx_HAL_Driver/Src/stm32f4xx_hal_ltdc.c ****   * @param  hltdc     pointer to a LTDC_HandleTypeDef structure that contains
1457:./Libraries/STM32F4xx_HAL_Driver/Src/stm32f4xx_hal_ltdc.c ****   *                   the configuration information for the LTDC.
1458:./Libraries/STM32F4xx_HAL_Driver/Src/stm32f4xx_hal_ltdc.c ****   * @param  Address   new address value.
1459:./Libraries/STM32F4xx_HAL_Driver/Src/stm32f4xx_hal_ltdc.c ****   * @param  LayerIdx  LTDC Layer index.
1460:./Libraries/STM32F4xx_HAL_Driver/Src/stm32f4xx_hal_ltdc.c ****   *                   This parameter can be one of the following values:
1461:./Libraries/STM32F4xx_HAL_Driver/Src/stm32f4xx_hal_ltdc.c ****   *                   LTDC_LAYER_1 (0) or LTDC_LAYER_2 (1).
1462:./Libraries/STM32F4xx_HAL_Driver/Src/stm32f4xx_hal_ltdc.c ****   * @retval  HAL status
1463:./Libraries/STM32F4xx_HAL_Driver/Src/stm32f4xx_hal_ltdc.c ****   */
1464:./Libraries/STM32F4xx_HAL_Driver/Src/stm32f4xx_hal_ltdc.c **** HAL_StatusTypeDef HAL_LTDC_SetAddress_NoReload(LTDC_HandleTypeDef *hltdc, uint32_t Address, uint32_
1465:./Libraries/STM32F4xx_HAL_Driver/Src/stm32f4xx_hal_ltdc.c **** {
 3170              		.loc 1 1465 1
 3171              		.cfi_startproc
 3172              		@ args = 0, pretend = 0, frame = 24
 3173              		@ frame_needed = 1, uses_anonymous_args = 0
 3174 0000 80B5     		push	{r7, lr}
 3175              	.LCFI166:
 3176              		.cfi_def_cfa_offset 8
 3177              		.cfi_offset 7, -8
 3178              		.cfi_offset 14, -4
 3179 0002 86B0     		sub	sp, sp, #24
 3180              	.LCFI167:
 3181              		.cfi_def_cfa_offset 32
 3182 0004 00AF     		add	r7, sp, #0
 3183              	.LCFI168:
 3184              		.cfi_def_cfa_register 7
 3185 0006 F860     		str	r0, [r7, #12]
 3186 0008 B960     		str	r1, [r7, #8]
 3187 000a 7A60     		str	r2, [r7, #4]
1466:./Libraries/STM32F4xx_HAL_Driver/Src/stm32f4xx_hal_ltdc.c ****   LTDC_LayerCfgTypeDef *pLayerCfg;
1467:./Libraries/STM32F4xx_HAL_Driver/Src/stm32f4xx_hal_ltdc.c **** 
1468:./Libraries/STM32F4xx_HAL_Driver/Src/stm32f4xx_hal_ltdc.c ****   /* Check the parameters */
1469:./Libraries/STM32F4xx_HAL_Driver/Src/stm32f4xx_hal_ltdc.c ****   assert_param(IS_LTDC_LAYER(LayerIdx));
1470:./Libraries/STM32F4xx_HAL_Driver/Src/stm32f4xx_hal_ltdc.c **** 
1471:./Libraries/STM32F4xx_HAL_Driver/Src/stm32f4xx_hal_ltdc.c ****   /* Process locked */
1472:./Libraries/STM32F4xx_HAL_Driver/Src/stm32f4xx_hal_ltdc.c ****   __HAL_LOCK(hltdc);
 3188              		.loc 1 1472 3
 3189 000c FB68     		ldr	r3, [r7, #12]
 3190 000e 93F8A030 		ldrb	r3, [r3, #160]	@ zero_extendqisi2
 3191 0012 012B     		cmp	r3, #1
 3192 0014 01D1     		bne	.L104
 3193              		.loc 1 1472 3 is_stmt 0 discriminator 1
 3194 0016 0223     		movs	r3, #2
 3195 0018 20E0     		b	.L105
 3196              	.L104:
 3197              		.loc 1 1472 3 discriminator 2
 3198 001a FB68     		ldr	r3, [r7, #12]
 3199 001c 0122     		movs	r2, #1
 3200 001e 83F8A020 		strb	r2, [r3, #160]
1473:./Libraries/STM32F4xx_HAL_Driver/Src/stm32f4xx_hal_ltdc.c **** 
ARM GAS  /tmp/cchxdGeL.s 			page 82


1474:./Libraries/STM32F4xx_HAL_Driver/Src/stm32f4xx_hal_ltdc.c ****   /* Change LTDC peripheral state */
1475:./Libraries/STM32F4xx_HAL_Driver/Src/stm32f4xx_hal_ltdc.c ****   hltdc->State = HAL_LTDC_STATE_BUSY;
 3201              		.loc 1 1475 16 is_stmt 1 discriminator 2
 3202 0022 FB68     		ldr	r3, [r7, #12]
 3203 0024 0222     		movs	r2, #2
 3204 0026 83F8A120 		strb	r2, [r3, #161]
1476:./Libraries/STM32F4xx_HAL_Driver/Src/stm32f4xx_hal_ltdc.c **** 
1477:./Libraries/STM32F4xx_HAL_Driver/Src/stm32f4xx_hal_ltdc.c ****   /* Get layer configuration from handle structure */
1478:./Libraries/STM32F4xx_HAL_Driver/Src/stm32f4xx_hal_ltdc.c ****   pLayerCfg = &hltdc->LayerCfg[LayerIdx];
 3205              		.loc 1 1478 13 discriminator 2
 3206 002a 7B68     		ldr	r3, [r7, #4]
 3207 002c 3422     		movs	r2, #52
 3208 002e 02FB03F3 		mul	r3, r2, r3
 3209 0032 3833     		adds	r3, r3, #56
 3210 0034 FA68     		ldr	r2, [r7, #12]
 3211 0036 1344     		add	r3, r3, r2
 3212 0038 7B61     		str	r3, [r7, #20]
1479:./Libraries/STM32F4xx_HAL_Driver/Src/stm32f4xx_hal_ltdc.c **** 
1480:./Libraries/STM32F4xx_HAL_Driver/Src/stm32f4xx_hal_ltdc.c ****   /* Reconfigure the Address */
1481:./Libraries/STM32F4xx_HAL_Driver/Src/stm32f4xx_hal_ltdc.c ****   pLayerCfg->FBStartAdress = Address;
 3213              		.loc 1 1481 28 discriminator 2
 3214 003a 7B69     		ldr	r3, [r7, #20]
 3215 003c BA68     		ldr	r2, [r7, #8]
 3216 003e 5A62     		str	r2, [r3, #36]
1482:./Libraries/STM32F4xx_HAL_Driver/Src/stm32f4xx_hal_ltdc.c **** 
1483:./Libraries/STM32F4xx_HAL_Driver/Src/stm32f4xx_hal_ltdc.c ****   /* Set LTDC parameters */
1484:./Libraries/STM32F4xx_HAL_Driver/Src/stm32f4xx_hal_ltdc.c ****   LTDC_SetConfig(hltdc, pLayerCfg, LayerIdx);
 3217              		.loc 1 1484 3 discriminator 2
 3218 0040 7A68     		ldr	r2, [r7, #4]
 3219 0042 7969     		ldr	r1, [r7, #20]
 3220 0044 F868     		ldr	r0, [r7, #12]
 3221 0046 FFF7FEFF 		bl	LTDC_SetConfig
1485:./Libraries/STM32F4xx_HAL_Driver/Src/stm32f4xx_hal_ltdc.c **** 
1486:./Libraries/STM32F4xx_HAL_Driver/Src/stm32f4xx_hal_ltdc.c ****   /* Do not set the Immediate Reload  */
1487:./Libraries/STM32F4xx_HAL_Driver/Src/stm32f4xx_hal_ltdc.c **** 
1488:./Libraries/STM32F4xx_HAL_Driver/Src/stm32f4xx_hal_ltdc.c ****   /* Change the LTDC state*/
1489:./Libraries/STM32F4xx_HAL_Driver/Src/stm32f4xx_hal_ltdc.c ****   hltdc->State = HAL_LTDC_STATE_READY;
 3222              		.loc 1 1489 16 discriminator 2
 3223 004a FB68     		ldr	r3, [r7, #12]
 3224 004c 0122     		movs	r2, #1
 3225 004e 83F8A120 		strb	r2, [r3, #161]
1490:./Libraries/STM32F4xx_HAL_Driver/Src/stm32f4xx_hal_ltdc.c **** 
1491:./Libraries/STM32F4xx_HAL_Driver/Src/stm32f4xx_hal_ltdc.c ****   /* Process unlocked */
1492:./Libraries/STM32F4xx_HAL_Driver/Src/stm32f4xx_hal_ltdc.c ****   __HAL_UNLOCK(hltdc);
 3226              		.loc 1 1492 3 discriminator 2
 3227 0052 FB68     		ldr	r3, [r7, #12]
 3228 0054 0022     		movs	r2, #0
 3229 0056 83F8A020 		strb	r2, [r3, #160]
1493:./Libraries/STM32F4xx_HAL_Driver/Src/stm32f4xx_hal_ltdc.c **** 
1494:./Libraries/STM32F4xx_HAL_Driver/Src/stm32f4xx_hal_ltdc.c ****   return HAL_OK;
 3230              		.loc 1 1494 10 discriminator 2
 3231 005a 0023     		movs	r3, #0
 3232              	.L105:
1495:./Libraries/STM32F4xx_HAL_Driver/Src/stm32f4xx_hal_ltdc.c **** }
 3233              		.loc 1 1495 1
 3234 005c 1846     		mov	r0, r3
 3235 005e 1837     		adds	r7, r7, #24
ARM GAS  /tmp/cchxdGeL.s 			page 83


 3236              	.LCFI169:
 3237              		.cfi_def_cfa_offset 8
 3238 0060 BD46     		mov	sp, r7
 3239              	.LCFI170:
 3240              		.cfi_def_cfa_register 13
 3241              		@ sp needed
 3242 0062 80BD     		pop	{r7, pc}
 3243              		.cfi_endproc
 3244              	.LFE156:
 3246              		.section	.text.HAL_LTDC_SetPitch_NoReload,"ax",%progbits
 3247              		.align	1
 3248              		.global	HAL_LTDC_SetPitch_NoReload
 3249              		.syntax unified
 3250              		.thumb
 3251              		.thumb_func
 3252              		.fpu fpv4-sp-d16
 3254              	HAL_LTDC_SetPitch_NoReload:
 3255              	.LFB157:
1496:./Libraries/STM32F4xx_HAL_Driver/Src/stm32f4xx_hal_ltdc.c **** 
1497:./Libraries/STM32F4xx_HAL_Driver/Src/stm32f4xx_hal_ltdc.c **** /**
1498:./Libraries/STM32F4xx_HAL_Driver/Src/stm32f4xx_hal_ltdc.c ****   * @brief  Function used to reconfigure the pitch for specific cases where the attached LayerIdx b
1499:./Libraries/STM32F4xx_HAL_Driver/Src/stm32f4xx_hal_ltdc.c ****   *         larger than the one intended to be displayed on screen. Example of a buffer 800x480 att
1500:./Libraries/STM32F4xx_HAL_Driver/Src/stm32f4xx_hal_ltdc.c ****   *         want to read and display on screen only a portion 320x240 taken in the center of the bu
1501:./Libraries/STM32F4xx_HAL_Driver/Src/stm32f4xx_hal_ltdc.c ****   *         will be in that case 800 pixels and not 320 pixels as initially configured by previous 
1502:./Libraries/STM32F4xx_HAL_Driver/Src/stm32f4xx_hal_ltdc.c ****   * @note   This function should be called only after a previous call to HAL_LTDC_ConfigLayer() to 
1503:./Libraries/STM32F4xx_HAL_Driver/Src/stm32f4xx_hal_ltdc.c ****   *         configured by HAL_LTDC_ConfigLayer() when required (refer to example described just abo
1504:./Libraries/STM32F4xx_HAL_Driver/Src/stm32f4xx_hal_ltdc.c ****   *         Variant of the function HAL_LTDC_SetPitch without immediate reload.    
1505:./Libraries/STM32F4xx_HAL_Driver/Src/stm32f4xx_hal_ltdc.c ****   * @param  hltdc              pointer to a LTDC_HandleTypeDef structure that contains
1506:./Libraries/STM32F4xx_HAL_Driver/Src/stm32f4xx_hal_ltdc.c ****   *                            the configuration information for the LTDC.
1507:./Libraries/STM32F4xx_HAL_Driver/Src/stm32f4xx_hal_ltdc.c ****   * @param  LinePitchInPixels  New line pitch in pixels to configure for LTDC layer 'LayerIdx'.
1508:./Libraries/STM32F4xx_HAL_Driver/Src/stm32f4xx_hal_ltdc.c ****   * @param  LayerIdx           LTDC layer index concerned by the modification of line pitch.
1509:./Libraries/STM32F4xx_HAL_Driver/Src/stm32f4xx_hal_ltdc.c ****   * @retval HAL status
1510:./Libraries/STM32F4xx_HAL_Driver/Src/stm32f4xx_hal_ltdc.c ****   */
1511:./Libraries/STM32F4xx_HAL_Driver/Src/stm32f4xx_hal_ltdc.c **** HAL_StatusTypeDef HAL_LTDC_SetPitch_NoReload(LTDC_HandleTypeDef *hltdc, uint32_t LinePitchInPixels,
1512:./Libraries/STM32F4xx_HAL_Driver/Src/stm32f4xx_hal_ltdc.c **** {
 3256              		.loc 1 1512 1
 3257              		.cfi_startproc
 3258              		@ args = 0, pretend = 0, frame = 32
 3259              		@ frame_needed = 1, uses_anonymous_args = 0
 3260              		@ link register save eliminated.
 3261 0000 80B4     		push	{r7}
 3262              	.LCFI171:
 3263              		.cfi_def_cfa_offset 4
 3264              		.cfi_offset 7, -4
 3265 0002 89B0     		sub	sp, sp, #36
 3266              	.LCFI172:
 3267              		.cfi_def_cfa_offset 40
 3268 0004 00AF     		add	r7, sp, #0
 3269              	.LCFI173:
 3270              		.cfi_def_cfa_register 7
 3271 0006 F860     		str	r0, [r7, #12]
 3272 0008 B960     		str	r1, [r7, #8]
 3273 000a 7A60     		str	r2, [r7, #4]
1513:./Libraries/STM32F4xx_HAL_Driver/Src/stm32f4xx_hal_ltdc.c ****   uint32_t tmp = 0U;
 3274              		.loc 1 1513 12
 3275 000c 0023     		movs	r3, #0
 3276 000e FB61     		str	r3, [r7, #28]
ARM GAS  /tmp/cchxdGeL.s 			page 84


1514:./Libraries/STM32F4xx_HAL_Driver/Src/stm32f4xx_hal_ltdc.c ****   uint32_t pitchUpdate = 0U;
 3277              		.loc 1 1514 12
 3278 0010 0023     		movs	r3, #0
 3279 0012 BB61     		str	r3, [r7, #24]
1515:./Libraries/STM32F4xx_HAL_Driver/Src/stm32f4xx_hal_ltdc.c ****   uint32_t pixelFormat = 0U;
 3280              		.loc 1 1515 12
 3281 0014 0023     		movs	r3, #0
 3282 0016 7B61     		str	r3, [r7, #20]
1516:./Libraries/STM32F4xx_HAL_Driver/Src/stm32f4xx_hal_ltdc.c ****   
1517:./Libraries/STM32F4xx_HAL_Driver/Src/stm32f4xx_hal_ltdc.c ****   /* Check the parameters */
1518:./Libraries/STM32F4xx_HAL_Driver/Src/stm32f4xx_hal_ltdc.c ****   assert_param(IS_LTDC_LAYER(LayerIdx));
1519:./Libraries/STM32F4xx_HAL_Driver/Src/stm32f4xx_hal_ltdc.c ****   
1520:./Libraries/STM32F4xx_HAL_Driver/Src/stm32f4xx_hal_ltdc.c ****   /* Process locked */
1521:./Libraries/STM32F4xx_HAL_Driver/Src/stm32f4xx_hal_ltdc.c ****   __HAL_LOCK(hltdc);
 3283              		.loc 1 1521 3
 3284 0018 FB68     		ldr	r3, [r7, #12]
 3285 001a 93F8A030 		ldrb	r3, [r3, #160]	@ zero_extendqisi2
 3286 001e 012B     		cmp	r3, #1
 3287 0020 01D1     		bne	.L107
 3288              		.loc 1 1521 3 is_stmt 0 discriminator 1
 3289 0022 0223     		movs	r3, #2
 3290 0024 63E0     		b	.L108
 3291              	.L107:
 3292              		.loc 1 1521 3 discriminator 2
 3293 0026 FB68     		ldr	r3, [r7, #12]
 3294 0028 0122     		movs	r2, #1
 3295 002a 83F8A020 		strb	r2, [r3, #160]
1522:./Libraries/STM32F4xx_HAL_Driver/Src/stm32f4xx_hal_ltdc.c ****   
1523:./Libraries/STM32F4xx_HAL_Driver/Src/stm32f4xx_hal_ltdc.c ****   /* Change LTDC peripheral state */
1524:./Libraries/STM32F4xx_HAL_Driver/Src/stm32f4xx_hal_ltdc.c ****   hltdc->State = HAL_LTDC_STATE_BUSY;
 3296              		.loc 1 1524 16 is_stmt 1 discriminator 2
 3297 002e FB68     		ldr	r3, [r7, #12]
 3298 0030 0222     		movs	r2, #2
 3299 0032 83F8A120 		strb	r2, [r3, #161]
1525:./Libraries/STM32F4xx_HAL_Driver/Src/stm32f4xx_hal_ltdc.c ****   
1526:./Libraries/STM32F4xx_HAL_Driver/Src/stm32f4xx_hal_ltdc.c ****   /* get LayerIdx used pixel format */
1527:./Libraries/STM32F4xx_HAL_Driver/Src/stm32f4xx_hal_ltdc.c ****   pixelFormat = hltdc->LayerCfg[LayerIdx].PixelFormat;
 3300              		.loc 1 1527 15 discriminator 2
 3301 0036 FA68     		ldr	r2, [r7, #12]
 3302 0038 7B68     		ldr	r3, [r7, #4]
 3303 003a 3421     		movs	r1, #52
 3304 003c 01FB03F3 		mul	r3, r1, r3
 3305 0040 1344     		add	r3, r3, r2
 3306 0042 4833     		adds	r3, r3, #72
 3307 0044 1B68     		ldr	r3, [r3]
 3308 0046 7B61     		str	r3, [r7, #20]
1528:./Libraries/STM32F4xx_HAL_Driver/Src/stm32f4xx_hal_ltdc.c ****   
1529:./Libraries/STM32F4xx_HAL_Driver/Src/stm32f4xx_hal_ltdc.c ****   if(pixelFormat == LTDC_PIXEL_FORMAT_ARGB8888)
 3309              		.loc 1 1529 5 discriminator 2
 3310 0048 7B69     		ldr	r3, [r7, #20]
 3311 004a 002B     		cmp	r3, #0
 3312 004c 02D1     		bne	.L109
1530:./Libraries/STM32F4xx_HAL_Driver/Src/stm32f4xx_hal_ltdc.c ****   {
1531:./Libraries/STM32F4xx_HAL_Driver/Src/stm32f4xx_hal_ltdc.c ****     tmp = 4U;
 3313              		.loc 1 1531 9
 3314 004e 0423     		movs	r3, #4
 3315 0050 FB61     		str	r3, [r7, #28]
ARM GAS  /tmp/cchxdGeL.s 			page 85


 3316 0052 16E0     		b	.L110
 3317              	.L109:
1532:./Libraries/STM32F4xx_HAL_Driver/Src/stm32f4xx_hal_ltdc.c ****   }
1533:./Libraries/STM32F4xx_HAL_Driver/Src/stm32f4xx_hal_ltdc.c ****   else if (pixelFormat == LTDC_PIXEL_FORMAT_RGB888)
 3318              		.loc 1 1533 11
 3319 0054 7B69     		ldr	r3, [r7, #20]
 3320 0056 012B     		cmp	r3, #1
 3321 0058 02D1     		bne	.L111
1534:./Libraries/STM32F4xx_HAL_Driver/Src/stm32f4xx_hal_ltdc.c ****   {
1535:./Libraries/STM32F4xx_HAL_Driver/Src/stm32f4xx_hal_ltdc.c ****     tmp = 3U;
 3322              		.loc 1 1535 9
 3323 005a 0323     		movs	r3, #3
 3324 005c FB61     		str	r3, [r7, #28]
 3325 005e 10E0     		b	.L110
 3326              	.L111:
1536:./Libraries/STM32F4xx_HAL_Driver/Src/stm32f4xx_hal_ltdc.c ****   }
1537:./Libraries/STM32F4xx_HAL_Driver/Src/stm32f4xx_hal_ltdc.c ****   else if((pixelFormat == LTDC_PIXEL_FORMAT_ARGB4444) || \
 3327              		.loc 1 1537 10
 3328 0060 7B69     		ldr	r3, [r7, #20]
 3329 0062 042B     		cmp	r3, #4
 3330 0064 08D0     		beq	.L112
 3331              		.loc 1 1537 55 discriminator 1
 3332 0066 7B69     		ldr	r3, [r7, #20]
 3333 0068 022B     		cmp	r3, #2
 3334 006a 05D0     		beq	.L112
1538:./Libraries/STM32F4xx_HAL_Driver/Src/stm32f4xx_hal_ltdc.c ****           (pixelFormat == LTDC_PIXEL_FORMAT_RGB565)   || \
 3335              		.loc 1 1538 55
 3336 006c 7B69     		ldr	r3, [r7, #20]
 3337 006e 032B     		cmp	r3, #3
 3338 0070 02D0     		beq	.L112
1539:./Libraries/STM32F4xx_HAL_Driver/Src/stm32f4xx_hal_ltdc.c ****           (pixelFormat == LTDC_PIXEL_FORMAT_ARGB1555) || \
 3339              		.loc 1 1539 55
 3340 0072 7B69     		ldr	r3, [r7, #20]
 3341 0074 072B     		cmp	r3, #7
 3342 0076 02D1     		bne	.L113
 3343              	.L112:
1540:./Libraries/STM32F4xx_HAL_Driver/Src/stm32f4xx_hal_ltdc.c ****          (pixelFormat == LTDC_PIXEL_FORMAT_AL88))
1541:./Libraries/STM32F4xx_HAL_Driver/Src/stm32f4xx_hal_ltdc.c ****   {
1542:./Libraries/STM32F4xx_HAL_Driver/Src/stm32f4xx_hal_ltdc.c ****     tmp = 2U;
 3344              		.loc 1 1542 9
 3345 0078 0223     		movs	r3, #2
 3346 007a FB61     		str	r3, [r7, #28]
 3347 007c 01E0     		b	.L110
 3348              	.L113:
1543:./Libraries/STM32F4xx_HAL_Driver/Src/stm32f4xx_hal_ltdc.c ****   }
1544:./Libraries/STM32F4xx_HAL_Driver/Src/stm32f4xx_hal_ltdc.c ****   else
1545:./Libraries/STM32F4xx_HAL_Driver/Src/stm32f4xx_hal_ltdc.c ****   {
1546:./Libraries/STM32F4xx_HAL_Driver/Src/stm32f4xx_hal_ltdc.c ****     tmp = 1U;
 3349              		.loc 1 1546 9
 3350 007e 0123     		movs	r3, #1
 3351 0080 FB61     		str	r3, [r7, #28]
 3352              	.L110:
1547:./Libraries/STM32F4xx_HAL_Driver/Src/stm32f4xx_hal_ltdc.c ****   }
1548:./Libraries/STM32F4xx_HAL_Driver/Src/stm32f4xx_hal_ltdc.c ****   
1549:./Libraries/STM32F4xx_HAL_Driver/Src/stm32f4xx_hal_ltdc.c ****   pitchUpdate = ((LinePitchInPixels * tmp) << 16U);
 3353              		.loc 1 1549 37
 3354 0082 BB68     		ldr	r3, [r7, #8]
ARM GAS  /tmp/cchxdGeL.s 			page 86


 3355 0084 FA69     		ldr	r2, [r7, #28]
 3356 0086 02FB03F3 		mul	r3, r2, r3
 3357              		.loc 1 1549 15
 3358 008a 1B04     		lsls	r3, r3, #16
 3359 008c BB61     		str	r3, [r7, #24]
1550:./Libraries/STM32F4xx_HAL_Driver/Src/stm32f4xx_hal_ltdc.c ****   
1551:./Libraries/STM32F4xx_HAL_Driver/Src/stm32f4xx_hal_ltdc.c ****   /* Clear previously set standard pitch */
1552:./Libraries/STM32F4xx_HAL_Driver/Src/stm32f4xx_hal_ltdc.c ****   LTDC_LAYER(hltdc, LayerIdx)->CFBLR &= ~LTDC_LxCFBLR_CFBP;
 3360              		.loc 1 1552 3
 3361 008e FB68     		ldr	r3, [r7, #12]
 3362 0090 1B68     		ldr	r3, [r3]
 3363              		.loc 1 1552 38
 3364 0092 1A46     		mov	r2, r3
 3365 0094 7B68     		ldr	r3, [r7, #4]
 3366 0096 DB01     		lsls	r3, r3, #7
 3367 0098 1344     		add	r3, r3, r2
 3368 009a 8433     		adds	r3, r3, #132
 3369 009c DB6A     		ldr	r3, [r3, #44]
 3370              		.loc 1 1552 3
 3371 009e FA68     		ldr	r2, [r7, #12]
 3372 00a0 1268     		ldr	r2, [r2]
 3373              		.loc 1 1552 38
 3374 00a2 1146     		mov	r1, r2
 3375 00a4 7A68     		ldr	r2, [r7, #4]
 3376 00a6 D201     		lsls	r2, r2, #7
 3377 00a8 0A44     		add	r2, r2, r1
 3378 00aa 8432     		adds	r2, r2, #132
 3379 00ac 23F0FF53 		bic	r3, r3, #534773760
 3380 00b0 23F4F813 		bic	r3, r3, #2031616
 3381 00b4 D362     		str	r3, [r2, #44]
1553:./Libraries/STM32F4xx_HAL_Driver/Src/stm32f4xx_hal_ltdc.c ****   
1554:./Libraries/STM32F4xx_HAL_Driver/Src/stm32f4xx_hal_ltdc.c ****   /* Set new line pitch value */
1555:./Libraries/STM32F4xx_HAL_Driver/Src/stm32f4xx_hal_ltdc.c ****   LTDC_LAYER(hltdc, LayerIdx)->CFBLR |= pitchUpdate;
 3382              		.loc 1 1555 3
 3383 00b6 FB68     		ldr	r3, [r7, #12]
 3384 00b8 1B68     		ldr	r3, [r3]
 3385              		.loc 1 1555 38
 3386 00ba 1A46     		mov	r2, r3
 3387 00bc 7B68     		ldr	r3, [r7, #4]
 3388 00be DB01     		lsls	r3, r3, #7
 3389 00c0 1344     		add	r3, r3, r2
 3390 00c2 8433     		adds	r3, r3, #132
 3391 00c4 DA6A     		ldr	r2, [r3, #44]
 3392              		.loc 1 1555 3
 3393 00c6 FB68     		ldr	r3, [r7, #12]
 3394 00c8 1B68     		ldr	r3, [r3]
 3395              		.loc 1 1555 38
 3396 00ca 1946     		mov	r1, r3
 3397 00cc 7B68     		ldr	r3, [r7, #4]
 3398 00ce DB01     		lsls	r3, r3, #7
 3399 00d0 0B44     		add	r3, r3, r1
 3400 00d2 8433     		adds	r3, r3, #132
 3401 00d4 1946     		mov	r1, r3
 3402 00d6 BB69     		ldr	r3, [r7, #24]
 3403 00d8 1343     		orrs	r3, r3, r2
 3404 00da CB62     		str	r3, [r1, #44]
1556:./Libraries/STM32F4xx_HAL_Driver/Src/stm32f4xx_hal_ltdc.c ****   
ARM GAS  /tmp/cchxdGeL.s 			page 87


1557:./Libraries/STM32F4xx_HAL_Driver/Src/stm32f4xx_hal_ltdc.c ****   /* Do not set the Immediate Reload  */
1558:./Libraries/STM32F4xx_HAL_Driver/Src/stm32f4xx_hal_ltdc.c ****   
1559:./Libraries/STM32F4xx_HAL_Driver/Src/stm32f4xx_hal_ltdc.c ****   /* Change the LTDC state*/
1560:./Libraries/STM32F4xx_HAL_Driver/Src/stm32f4xx_hal_ltdc.c ****   hltdc->State = HAL_LTDC_STATE_READY;
 3405              		.loc 1 1560 16
 3406 00dc FB68     		ldr	r3, [r7, #12]
 3407 00de 0122     		movs	r2, #1
 3408 00e0 83F8A120 		strb	r2, [r3, #161]
1561:./Libraries/STM32F4xx_HAL_Driver/Src/stm32f4xx_hal_ltdc.c ****   
1562:./Libraries/STM32F4xx_HAL_Driver/Src/stm32f4xx_hal_ltdc.c ****   /* Process unlocked */
1563:./Libraries/STM32F4xx_HAL_Driver/Src/stm32f4xx_hal_ltdc.c ****   __HAL_UNLOCK(hltdc);
 3409              		.loc 1 1563 3
 3410 00e4 FB68     		ldr	r3, [r7, #12]
 3411 00e6 0022     		movs	r2, #0
 3412 00e8 83F8A020 		strb	r2, [r3, #160]
1564:./Libraries/STM32F4xx_HAL_Driver/Src/stm32f4xx_hal_ltdc.c ****   
1565:./Libraries/STM32F4xx_HAL_Driver/Src/stm32f4xx_hal_ltdc.c ****   return HAL_OK;  
 3413              		.loc 1 1565 10
 3414 00ec 0023     		movs	r3, #0
 3415              	.L108:
1566:./Libraries/STM32F4xx_HAL_Driver/Src/stm32f4xx_hal_ltdc.c **** }
 3416              		.loc 1 1566 1
 3417 00ee 1846     		mov	r0, r3
 3418 00f0 2437     		adds	r7, r7, #36
 3419              	.LCFI174:
 3420              		.cfi_def_cfa_offset 4
 3421 00f2 BD46     		mov	sp, r7
 3422              	.LCFI175:
 3423              		.cfi_def_cfa_register 13
 3424              		@ sp needed
 3425 00f4 5DF8047B 		ldr	r7, [sp], #4
 3426              	.LCFI176:
 3427              		.cfi_restore 7
 3428              		.cfi_def_cfa_offset 0
 3429 00f8 7047     		bx	lr
 3430              		.cfi_endproc
 3431              	.LFE157:
 3433              		.section	.text.HAL_LTDC_ConfigColorKeying_NoReload,"ax",%progbits
 3434              		.align	1
 3435              		.global	HAL_LTDC_ConfigColorKeying_NoReload
 3436              		.syntax unified
 3437              		.thumb
 3438              		.thumb_func
 3439              		.fpu fpv4-sp-d16
 3441              	HAL_LTDC_ConfigColorKeying_NoReload:
 3442              	.LFB158:
1567:./Libraries/STM32F4xx_HAL_Driver/Src/stm32f4xx_hal_ltdc.c **** 
1568:./Libraries/STM32F4xx_HAL_Driver/Src/stm32f4xx_hal_ltdc.c **** 
1569:./Libraries/STM32F4xx_HAL_Driver/Src/stm32f4xx_hal_ltdc.c **** /**
1570:./Libraries/STM32F4xx_HAL_Driver/Src/stm32f4xx_hal_ltdc.c ****   * @brief  Configure the color keying without reloading.
1571:./Libraries/STM32F4xx_HAL_Driver/Src/stm32f4xx_hal_ltdc.c ****   *         Variant of the function HAL_LTDC_ConfigColorKeying without immediate reload.
1572:./Libraries/STM32F4xx_HAL_Driver/Src/stm32f4xx_hal_ltdc.c ****   * @param  hltdc     pointer to a LTDC_HandleTypeDef structure that contains
1573:./Libraries/STM32F4xx_HAL_Driver/Src/stm32f4xx_hal_ltdc.c ****   *                   the configuration information for the LTDC.
1574:./Libraries/STM32F4xx_HAL_Driver/Src/stm32f4xx_hal_ltdc.c ****   * @param  RGBValue the color key value
1575:./Libraries/STM32F4xx_HAL_Driver/Src/stm32f4xx_hal_ltdc.c ****   * @param  LayerIdx  LTDC Layer index.
1576:./Libraries/STM32F4xx_HAL_Driver/Src/stm32f4xx_hal_ltdc.c ****   *                   This parameter can be one of the following values:
1577:./Libraries/STM32F4xx_HAL_Driver/Src/stm32f4xx_hal_ltdc.c ****   *                   LTDC_LAYER_1 (0) or LTDC_LAYER_2 (1)
ARM GAS  /tmp/cchxdGeL.s 			page 88


1578:./Libraries/STM32F4xx_HAL_Driver/Src/stm32f4xx_hal_ltdc.c ****   * @retval HAL status
1579:./Libraries/STM32F4xx_HAL_Driver/Src/stm32f4xx_hal_ltdc.c ****   */
1580:./Libraries/STM32F4xx_HAL_Driver/Src/stm32f4xx_hal_ltdc.c **** HAL_StatusTypeDef HAL_LTDC_ConfigColorKeying_NoReload(LTDC_HandleTypeDef *hltdc, uint32_t RGBValue,
1581:./Libraries/STM32F4xx_HAL_Driver/Src/stm32f4xx_hal_ltdc.c **** {
 3443              		.loc 1 1581 1
 3444              		.cfi_startproc
 3445              		@ args = 0, pretend = 0, frame = 16
 3446              		@ frame_needed = 1, uses_anonymous_args = 0
 3447              		@ link register save eliminated.
 3448 0000 80B4     		push	{r7}
 3449              	.LCFI177:
 3450              		.cfi_def_cfa_offset 4
 3451              		.cfi_offset 7, -4
 3452 0002 85B0     		sub	sp, sp, #20
 3453              	.LCFI178:
 3454              		.cfi_def_cfa_offset 24
 3455 0004 00AF     		add	r7, sp, #0
 3456              	.LCFI179:
 3457              		.cfi_def_cfa_register 7
 3458 0006 F860     		str	r0, [r7, #12]
 3459 0008 B960     		str	r1, [r7, #8]
 3460 000a 7A60     		str	r2, [r7, #4]
1582:./Libraries/STM32F4xx_HAL_Driver/Src/stm32f4xx_hal_ltdc.c ****   /* Check the parameters */
1583:./Libraries/STM32F4xx_HAL_Driver/Src/stm32f4xx_hal_ltdc.c ****   assert_param(IS_LTDC_LAYER(LayerIdx));
1584:./Libraries/STM32F4xx_HAL_Driver/Src/stm32f4xx_hal_ltdc.c **** 
1585:./Libraries/STM32F4xx_HAL_Driver/Src/stm32f4xx_hal_ltdc.c ****   /* Process locked */
1586:./Libraries/STM32F4xx_HAL_Driver/Src/stm32f4xx_hal_ltdc.c ****   __HAL_LOCK(hltdc);
 3461              		.loc 1 1586 3
 3462 000c FB68     		ldr	r3, [r7, #12]
 3463 000e 93F8A030 		ldrb	r3, [r3, #160]	@ zero_extendqisi2
 3464 0012 012B     		cmp	r3, #1
 3465 0014 01D1     		bne	.L115
 3466              		.loc 1 1586 3 is_stmt 0 discriminator 1
 3467 0016 0223     		movs	r3, #2
 3468 0018 2CE0     		b	.L116
 3469              	.L115:
 3470              		.loc 1 1586 3 discriminator 2
 3471 001a FB68     		ldr	r3, [r7, #12]
 3472 001c 0122     		movs	r2, #1
 3473 001e 83F8A020 		strb	r2, [r3, #160]
1587:./Libraries/STM32F4xx_HAL_Driver/Src/stm32f4xx_hal_ltdc.c **** 
1588:./Libraries/STM32F4xx_HAL_Driver/Src/stm32f4xx_hal_ltdc.c ****   /* Change LTDC peripheral state */
1589:./Libraries/STM32F4xx_HAL_Driver/Src/stm32f4xx_hal_ltdc.c ****   hltdc->State = HAL_LTDC_STATE_BUSY;
 3474              		.loc 1 1589 16 is_stmt 1 discriminator 2
 3475 0022 FB68     		ldr	r3, [r7, #12]
 3476 0024 0222     		movs	r2, #2
 3477 0026 83F8A120 		strb	r2, [r3, #161]
1590:./Libraries/STM32F4xx_HAL_Driver/Src/stm32f4xx_hal_ltdc.c **** 
1591:./Libraries/STM32F4xx_HAL_Driver/Src/stm32f4xx_hal_ltdc.c ****   /* Configure the default color values */
1592:./Libraries/STM32F4xx_HAL_Driver/Src/stm32f4xx_hal_ltdc.c ****   LTDC_LAYER(hltdc, LayerIdx)->CKCR &=  ~(LTDC_LxCKCR_CKBLUE | LTDC_LxCKCR_CKGREEN | LTDC_LxCKCR_CK
 3478              		.loc 1 1592 3 discriminator 2
 3479 002a FB68     		ldr	r3, [r7, #12]
 3480 002c 1B68     		ldr	r3, [r3]
 3481              		.loc 1 1592 37 discriminator 2
 3482 002e 1A46     		mov	r2, r3
 3483 0030 7B68     		ldr	r3, [r7, #4]
 3484 0032 DB01     		lsls	r3, r3, #7
ARM GAS  /tmp/cchxdGeL.s 			page 89


 3485 0034 1344     		add	r3, r3, r2
 3486 0036 8433     		adds	r3, r3, #132
 3487 0038 DB68     		ldr	r3, [r3, #12]
 3488              		.loc 1 1592 3 discriminator 2
 3489 003a FA68     		ldr	r2, [r7, #12]
 3490 003c 1268     		ldr	r2, [r2]
 3491              		.loc 1 1592 37 discriminator 2
 3492 003e 1146     		mov	r1, r2
 3493 0040 7A68     		ldr	r2, [r7, #4]
 3494 0042 D201     		lsls	r2, r2, #7
 3495 0044 0A44     		add	r2, r2, r1
 3496 0046 8432     		adds	r2, r2, #132
 3497 0048 03F07F43 		and	r3, r3, #-16777216
 3498 004c D360     		str	r3, [r2, #12]
1593:./Libraries/STM32F4xx_HAL_Driver/Src/stm32f4xx_hal_ltdc.c ****   LTDC_LAYER(hltdc, LayerIdx)->CKCR  = RGBValue;
 3499              		.loc 1 1593 3 discriminator 2
 3500 004e FB68     		ldr	r3, [r7, #12]
 3501 0050 1B68     		ldr	r3, [r3]
 3502 0052 1A46     		mov	r2, r3
 3503 0054 7B68     		ldr	r3, [r7, #4]
 3504 0056 DB01     		lsls	r3, r3, #7
 3505 0058 1344     		add	r3, r3, r2
 3506 005a 8433     		adds	r3, r3, #132
 3507 005c 1A46     		mov	r2, r3
 3508              		.loc 1 1593 38 discriminator 2
 3509 005e BB68     		ldr	r3, [r7, #8]
 3510 0060 D360     		str	r3, [r2, #12]
1594:./Libraries/STM32F4xx_HAL_Driver/Src/stm32f4xx_hal_ltdc.c **** 
1595:./Libraries/STM32F4xx_HAL_Driver/Src/stm32f4xx_hal_ltdc.c ****   /* Do not set the Immediate Reload  */
1596:./Libraries/STM32F4xx_HAL_Driver/Src/stm32f4xx_hal_ltdc.c **** 
1597:./Libraries/STM32F4xx_HAL_Driver/Src/stm32f4xx_hal_ltdc.c ****   /* Change the LTDC state*/
1598:./Libraries/STM32F4xx_HAL_Driver/Src/stm32f4xx_hal_ltdc.c ****   hltdc->State = HAL_LTDC_STATE_READY;
 3511              		.loc 1 1598 16 discriminator 2
 3512 0062 FB68     		ldr	r3, [r7, #12]
 3513 0064 0122     		movs	r2, #1
 3514 0066 83F8A120 		strb	r2, [r3, #161]
1599:./Libraries/STM32F4xx_HAL_Driver/Src/stm32f4xx_hal_ltdc.c **** 
1600:./Libraries/STM32F4xx_HAL_Driver/Src/stm32f4xx_hal_ltdc.c ****   /* Process unlocked */
1601:./Libraries/STM32F4xx_HAL_Driver/Src/stm32f4xx_hal_ltdc.c ****   __HAL_UNLOCK(hltdc);
 3515              		.loc 1 1601 3 discriminator 2
 3516 006a FB68     		ldr	r3, [r7, #12]
 3517 006c 0022     		movs	r2, #0
 3518 006e 83F8A020 		strb	r2, [r3, #160]
1602:./Libraries/STM32F4xx_HAL_Driver/Src/stm32f4xx_hal_ltdc.c **** 
1603:./Libraries/STM32F4xx_HAL_Driver/Src/stm32f4xx_hal_ltdc.c ****   return HAL_OK;
 3519              		.loc 1 1603 10 discriminator 2
 3520 0072 0023     		movs	r3, #0
 3521              	.L116:
1604:./Libraries/STM32F4xx_HAL_Driver/Src/stm32f4xx_hal_ltdc.c **** }
 3522              		.loc 1 1604 1
 3523 0074 1846     		mov	r0, r3
 3524 0076 1437     		adds	r7, r7, #20
 3525              	.LCFI180:
 3526              		.cfi_def_cfa_offset 4
 3527 0078 BD46     		mov	sp, r7
 3528              	.LCFI181:
 3529              		.cfi_def_cfa_register 13
ARM GAS  /tmp/cchxdGeL.s 			page 90


 3530              		@ sp needed
 3531 007a 5DF8047B 		ldr	r7, [sp], #4
 3532              	.LCFI182:
 3533              		.cfi_restore 7
 3534              		.cfi_def_cfa_offset 0
 3535 007e 7047     		bx	lr
 3536              		.cfi_endproc
 3537              	.LFE158:
 3539              		.section	.text.HAL_LTDC_EnableColorKeying_NoReload,"ax",%progbits
 3540              		.align	1
 3541              		.global	HAL_LTDC_EnableColorKeying_NoReload
 3542              		.syntax unified
 3543              		.thumb
 3544              		.thumb_func
 3545              		.fpu fpv4-sp-d16
 3547              	HAL_LTDC_EnableColorKeying_NoReload:
 3548              	.LFB159:
1605:./Libraries/STM32F4xx_HAL_Driver/Src/stm32f4xx_hal_ltdc.c **** 
1606:./Libraries/STM32F4xx_HAL_Driver/Src/stm32f4xx_hal_ltdc.c **** /**
1607:./Libraries/STM32F4xx_HAL_Driver/Src/stm32f4xx_hal_ltdc.c ****   * @brief  Enable the color keying without reloading.
1608:./Libraries/STM32F4xx_HAL_Driver/Src/stm32f4xx_hal_ltdc.c ****   *         Variant of the function HAL_LTDC_EnableColorKeying without immediate reload.
1609:./Libraries/STM32F4xx_HAL_Driver/Src/stm32f4xx_hal_ltdc.c ****   * @param  hltdc     pointer to a LTDC_HandleTypeDef structure that contains
1610:./Libraries/STM32F4xx_HAL_Driver/Src/stm32f4xx_hal_ltdc.c ****   *                   the configuration information for the LTDC.
1611:./Libraries/STM32F4xx_HAL_Driver/Src/stm32f4xx_hal_ltdc.c ****   * @param  LayerIdx  LTDC Layer index.
1612:./Libraries/STM32F4xx_HAL_Driver/Src/stm32f4xx_hal_ltdc.c ****   *                   This parameter can be one of the following values:
1613:./Libraries/STM32F4xx_HAL_Driver/Src/stm32f4xx_hal_ltdc.c ****   *                   LTDC_LAYER_1 (0) or LTDC_LAYER_2 (1)
1614:./Libraries/STM32F4xx_HAL_Driver/Src/stm32f4xx_hal_ltdc.c ****   * @retval  HAL status
1615:./Libraries/STM32F4xx_HAL_Driver/Src/stm32f4xx_hal_ltdc.c ****   */
1616:./Libraries/STM32F4xx_HAL_Driver/Src/stm32f4xx_hal_ltdc.c **** HAL_StatusTypeDef HAL_LTDC_EnableColorKeying_NoReload(LTDC_HandleTypeDef *hltdc, uint32_t LayerIdx)
1617:./Libraries/STM32F4xx_HAL_Driver/Src/stm32f4xx_hal_ltdc.c **** {  
 3549              		.loc 1 1617 1
 3550              		.cfi_startproc
 3551              		@ args = 0, pretend = 0, frame = 8
 3552              		@ frame_needed = 1, uses_anonymous_args = 0
 3553              		@ link register save eliminated.
 3554 0000 80B4     		push	{r7}
 3555              	.LCFI183:
 3556              		.cfi_def_cfa_offset 4
 3557              		.cfi_offset 7, -4
 3558 0002 83B0     		sub	sp, sp, #12
 3559              	.LCFI184:
 3560              		.cfi_def_cfa_offset 16
 3561 0004 00AF     		add	r7, sp, #0
 3562              	.LCFI185:
 3563              		.cfi_def_cfa_register 7
 3564 0006 7860     		str	r0, [r7, #4]
 3565 0008 3960     		str	r1, [r7]
1618:./Libraries/STM32F4xx_HAL_Driver/Src/stm32f4xx_hal_ltdc.c ****   /* Check the parameters */
1619:./Libraries/STM32F4xx_HAL_Driver/Src/stm32f4xx_hal_ltdc.c ****   assert_param(IS_LTDC_LAYER(LayerIdx));
1620:./Libraries/STM32F4xx_HAL_Driver/Src/stm32f4xx_hal_ltdc.c **** 
1621:./Libraries/STM32F4xx_HAL_Driver/Src/stm32f4xx_hal_ltdc.c ****   /* Process locked */
1622:./Libraries/STM32F4xx_HAL_Driver/Src/stm32f4xx_hal_ltdc.c ****   __HAL_LOCK(hltdc);
 3566              		.loc 1 1622 3
 3567 000a 7B68     		ldr	r3, [r7, #4]
 3568 000c 93F8A030 		ldrb	r3, [r3, #160]	@ zero_extendqisi2
 3569 0010 012B     		cmp	r3, #1
 3570 0012 01D1     		bne	.L118
ARM GAS  /tmp/cchxdGeL.s 			page 91


 3571              		.loc 1 1622 3 is_stmt 0 discriminator 1
 3572 0014 0223     		movs	r3, #2
 3573 0016 22E0     		b	.L119
 3574              	.L118:
 3575              		.loc 1 1622 3 discriminator 2
 3576 0018 7B68     		ldr	r3, [r7, #4]
 3577 001a 0122     		movs	r2, #1
 3578 001c 83F8A020 		strb	r2, [r3, #160]
1623:./Libraries/STM32F4xx_HAL_Driver/Src/stm32f4xx_hal_ltdc.c **** 
1624:./Libraries/STM32F4xx_HAL_Driver/Src/stm32f4xx_hal_ltdc.c ****   /* Change LTDC peripheral state */
1625:./Libraries/STM32F4xx_HAL_Driver/Src/stm32f4xx_hal_ltdc.c ****   hltdc->State = HAL_LTDC_STATE_BUSY;
 3579              		.loc 1 1625 16 is_stmt 1 discriminator 2
 3580 0020 7B68     		ldr	r3, [r7, #4]
 3581 0022 0222     		movs	r2, #2
 3582 0024 83F8A120 		strb	r2, [r3, #161]
1626:./Libraries/STM32F4xx_HAL_Driver/Src/stm32f4xx_hal_ltdc.c **** 
1627:./Libraries/STM32F4xx_HAL_Driver/Src/stm32f4xx_hal_ltdc.c ****   /* Enable LTDC color keying by setting COLKEN bit */
1628:./Libraries/STM32F4xx_HAL_Driver/Src/stm32f4xx_hal_ltdc.c ****   LTDC_LAYER(hltdc, LayerIdx)->CR |= (uint32_t)LTDC_LxCR_COLKEN;
 3583              		.loc 1 1628 3 discriminator 2
 3584 0028 7B68     		ldr	r3, [r7, #4]
 3585 002a 1B68     		ldr	r3, [r3]
 3586              		.loc 1 1628 35 discriminator 2
 3587 002c 1A46     		mov	r2, r3
 3588 002e 3B68     		ldr	r3, [r7]
 3589 0030 DB01     		lsls	r3, r3, #7
 3590 0032 1344     		add	r3, r3, r2
 3591 0034 8433     		adds	r3, r3, #132
 3592 0036 1B68     		ldr	r3, [r3]
 3593              		.loc 1 1628 3 discriminator 2
 3594 0038 7A68     		ldr	r2, [r7, #4]
 3595 003a 1268     		ldr	r2, [r2]
 3596              		.loc 1 1628 35 discriminator 2
 3597 003c 1146     		mov	r1, r2
 3598 003e 3A68     		ldr	r2, [r7]
 3599 0040 D201     		lsls	r2, r2, #7
 3600 0042 0A44     		add	r2, r2, r1
 3601 0044 8432     		adds	r2, r2, #132
 3602 0046 43F00203 		orr	r3, r3, #2
 3603 004a 1360     		str	r3, [r2]
1629:./Libraries/STM32F4xx_HAL_Driver/Src/stm32f4xx_hal_ltdc.c **** 
1630:./Libraries/STM32F4xx_HAL_Driver/Src/stm32f4xx_hal_ltdc.c ****   /* Do not set the Immediate Reload  */
1631:./Libraries/STM32F4xx_HAL_Driver/Src/stm32f4xx_hal_ltdc.c **** 
1632:./Libraries/STM32F4xx_HAL_Driver/Src/stm32f4xx_hal_ltdc.c ****   /* Change the LTDC state*/
1633:./Libraries/STM32F4xx_HAL_Driver/Src/stm32f4xx_hal_ltdc.c ****   hltdc->State = HAL_LTDC_STATE_READY; 
 3604              		.loc 1 1633 16 discriminator 2
 3605 004c 7B68     		ldr	r3, [r7, #4]
 3606 004e 0122     		movs	r2, #1
 3607 0050 83F8A120 		strb	r2, [r3, #161]
1634:./Libraries/STM32F4xx_HAL_Driver/Src/stm32f4xx_hal_ltdc.c **** 
1635:./Libraries/STM32F4xx_HAL_Driver/Src/stm32f4xx_hal_ltdc.c ****   /* Process unlocked */
1636:./Libraries/STM32F4xx_HAL_Driver/Src/stm32f4xx_hal_ltdc.c ****   __HAL_UNLOCK(hltdc);
 3608              		.loc 1 1636 3 discriminator 2
 3609 0054 7B68     		ldr	r3, [r7, #4]
 3610 0056 0022     		movs	r2, #0
 3611 0058 83F8A020 		strb	r2, [r3, #160]
1637:./Libraries/STM32F4xx_HAL_Driver/Src/stm32f4xx_hal_ltdc.c **** 
1638:./Libraries/STM32F4xx_HAL_Driver/Src/stm32f4xx_hal_ltdc.c ****   return HAL_OK;  
ARM GAS  /tmp/cchxdGeL.s 			page 92


 3612              		.loc 1 1638 10 discriminator 2
 3613 005c 0023     		movs	r3, #0
 3614              	.L119:
1639:./Libraries/STM32F4xx_HAL_Driver/Src/stm32f4xx_hal_ltdc.c **** }
 3615              		.loc 1 1639 1
 3616 005e 1846     		mov	r0, r3
 3617 0060 0C37     		adds	r7, r7, #12
 3618              	.LCFI186:
 3619              		.cfi_def_cfa_offset 4
 3620 0062 BD46     		mov	sp, r7
 3621              	.LCFI187:
 3622              		.cfi_def_cfa_register 13
 3623              		@ sp needed
 3624 0064 5DF8047B 		ldr	r7, [sp], #4
 3625              	.LCFI188:
 3626              		.cfi_restore 7
 3627              		.cfi_def_cfa_offset 0
 3628 0068 7047     		bx	lr
 3629              		.cfi_endproc
 3630              	.LFE159:
 3632              		.section	.text.HAL_LTDC_DisableColorKeying_NoReload,"ax",%progbits
 3633              		.align	1
 3634              		.global	HAL_LTDC_DisableColorKeying_NoReload
 3635              		.syntax unified
 3636              		.thumb
 3637              		.thumb_func
 3638              		.fpu fpv4-sp-d16
 3640              	HAL_LTDC_DisableColorKeying_NoReload:
 3641              	.LFB160:
1640:./Libraries/STM32F4xx_HAL_Driver/Src/stm32f4xx_hal_ltdc.c **** 
1641:./Libraries/STM32F4xx_HAL_Driver/Src/stm32f4xx_hal_ltdc.c **** /**
1642:./Libraries/STM32F4xx_HAL_Driver/Src/stm32f4xx_hal_ltdc.c ****   * @brief  Disable the color keying without reloading.
1643:./Libraries/STM32F4xx_HAL_Driver/Src/stm32f4xx_hal_ltdc.c ****   *         Variant of the function HAL_LTDC_DisableColorKeying without immediate reload.
1644:./Libraries/STM32F4xx_HAL_Driver/Src/stm32f4xx_hal_ltdc.c ****   * @param  hltdc     pointer to a LTDC_HandleTypeDef structure that contains
1645:./Libraries/STM32F4xx_HAL_Driver/Src/stm32f4xx_hal_ltdc.c ****   *                   the configuration information for the LTDC.
1646:./Libraries/STM32F4xx_HAL_Driver/Src/stm32f4xx_hal_ltdc.c ****   * @param  LayerIdx  LTDC Layer index.
1647:./Libraries/STM32F4xx_HAL_Driver/Src/stm32f4xx_hal_ltdc.c ****   *                   This parameter can be one of the following values:
1648:./Libraries/STM32F4xx_HAL_Driver/Src/stm32f4xx_hal_ltdc.c ****   *                   LTDC_LAYER_1 (0) or LTDC_LAYER_2 (1)
1649:./Libraries/STM32F4xx_HAL_Driver/Src/stm32f4xx_hal_ltdc.c ****   * @retval  HAL status
1650:./Libraries/STM32F4xx_HAL_Driver/Src/stm32f4xx_hal_ltdc.c ****   */
1651:./Libraries/STM32F4xx_HAL_Driver/Src/stm32f4xx_hal_ltdc.c **** HAL_StatusTypeDef HAL_LTDC_DisableColorKeying_NoReload(LTDC_HandleTypeDef *hltdc, uint32_t LayerIdx
1652:./Libraries/STM32F4xx_HAL_Driver/Src/stm32f4xx_hal_ltdc.c **** {
 3642              		.loc 1 1652 1
 3643              		.cfi_startproc
 3644              		@ args = 0, pretend = 0, frame = 8
 3645              		@ frame_needed = 1, uses_anonymous_args = 0
 3646              		@ link register save eliminated.
 3647 0000 80B4     		push	{r7}
 3648              	.LCFI189:
 3649              		.cfi_def_cfa_offset 4
 3650              		.cfi_offset 7, -4
 3651 0002 83B0     		sub	sp, sp, #12
 3652              	.LCFI190:
 3653              		.cfi_def_cfa_offset 16
 3654 0004 00AF     		add	r7, sp, #0
 3655              	.LCFI191:
 3656              		.cfi_def_cfa_register 7
ARM GAS  /tmp/cchxdGeL.s 			page 93


 3657 0006 7860     		str	r0, [r7, #4]
 3658 0008 3960     		str	r1, [r7]
1653:./Libraries/STM32F4xx_HAL_Driver/Src/stm32f4xx_hal_ltdc.c ****   /* Check the parameters */
1654:./Libraries/STM32F4xx_HAL_Driver/Src/stm32f4xx_hal_ltdc.c ****   assert_param(IS_LTDC_LAYER(LayerIdx));
1655:./Libraries/STM32F4xx_HAL_Driver/Src/stm32f4xx_hal_ltdc.c **** 
1656:./Libraries/STM32F4xx_HAL_Driver/Src/stm32f4xx_hal_ltdc.c ****   /* Process locked */
1657:./Libraries/STM32F4xx_HAL_Driver/Src/stm32f4xx_hal_ltdc.c ****   __HAL_LOCK(hltdc);
 3659              		.loc 1 1657 3
 3660 000a 7B68     		ldr	r3, [r7, #4]
 3661 000c 93F8A030 		ldrb	r3, [r3, #160]	@ zero_extendqisi2
 3662 0010 012B     		cmp	r3, #1
 3663 0012 01D1     		bne	.L121
 3664              		.loc 1 1657 3 is_stmt 0 discriminator 1
 3665 0014 0223     		movs	r3, #2
 3666 0016 22E0     		b	.L122
 3667              	.L121:
 3668              		.loc 1 1657 3 discriminator 2
 3669 0018 7B68     		ldr	r3, [r7, #4]
 3670 001a 0122     		movs	r2, #1
 3671 001c 83F8A020 		strb	r2, [r3, #160]
1658:./Libraries/STM32F4xx_HAL_Driver/Src/stm32f4xx_hal_ltdc.c **** 
1659:./Libraries/STM32F4xx_HAL_Driver/Src/stm32f4xx_hal_ltdc.c ****   /* Change LTDC peripheral state */
1660:./Libraries/STM32F4xx_HAL_Driver/Src/stm32f4xx_hal_ltdc.c ****   hltdc->State = HAL_LTDC_STATE_BUSY;
 3672              		.loc 1 1660 16 is_stmt 1 discriminator 2
 3673 0020 7B68     		ldr	r3, [r7, #4]
 3674 0022 0222     		movs	r2, #2
 3675 0024 83F8A120 		strb	r2, [r3, #161]
1661:./Libraries/STM32F4xx_HAL_Driver/Src/stm32f4xx_hal_ltdc.c **** 
1662:./Libraries/STM32F4xx_HAL_Driver/Src/stm32f4xx_hal_ltdc.c ****   /* Disable LTDC color keying by setting COLKEN bit */
1663:./Libraries/STM32F4xx_HAL_Driver/Src/stm32f4xx_hal_ltdc.c ****   LTDC_LAYER(hltdc, LayerIdx)->CR &= ~(uint32_t)LTDC_LxCR_COLKEN;
 3676              		.loc 1 1663 3 discriminator 2
 3677 0028 7B68     		ldr	r3, [r7, #4]
 3678 002a 1B68     		ldr	r3, [r3]
 3679              		.loc 1 1663 35 discriminator 2
 3680 002c 1A46     		mov	r2, r3
 3681 002e 3B68     		ldr	r3, [r7]
 3682 0030 DB01     		lsls	r3, r3, #7
 3683 0032 1344     		add	r3, r3, r2
 3684 0034 8433     		adds	r3, r3, #132
 3685 0036 1B68     		ldr	r3, [r3]
 3686              		.loc 1 1663 3 discriminator 2
 3687 0038 7A68     		ldr	r2, [r7, #4]
 3688 003a 1268     		ldr	r2, [r2]
 3689              		.loc 1 1663 35 discriminator 2
 3690 003c 1146     		mov	r1, r2
 3691 003e 3A68     		ldr	r2, [r7]
 3692 0040 D201     		lsls	r2, r2, #7
 3693 0042 0A44     		add	r2, r2, r1
 3694 0044 8432     		adds	r2, r2, #132
 3695 0046 23F00203 		bic	r3, r3, #2
 3696 004a 1360     		str	r3, [r2]
1664:./Libraries/STM32F4xx_HAL_Driver/Src/stm32f4xx_hal_ltdc.c **** 
1665:./Libraries/STM32F4xx_HAL_Driver/Src/stm32f4xx_hal_ltdc.c ****   /* Do not set the Immediate Reload  */
1666:./Libraries/STM32F4xx_HAL_Driver/Src/stm32f4xx_hal_ltdc.c **** 
1667:./Libraries/STM32F4xx_HAL_Driver/Src/stm32f4xx_hal_ltdc.c ****   /* Change the LTDC state*/
1668:./Libraries/STM32F4xx_HAL_Driver/Src/stm32f4xx_hal_ltdc.c ****   hltdc->State = HAL_LTDC_STATE_READY; 
 3697              		.loc 1 1668 16 discriminator 2
ARM GAS  /tmp/cchxdGeL.s 			page 94


 3698 004c 7B68     		ldr	r3, [r7, #4]
 3699 004e 0122     		movs	r2, #1
 3700 0050 83F8A120 		strb	r2, [r3, #161]
1669:./Libraries/STM32F4xx_HAL_Driver/Src/stm32f4xx_hal_ltdc.c **** 
1670:./Libraries/STM32F4xx_HAL_Driver/Src/stm32f4xx_hal_ltdc.c ****   /* Process unlocked */
1671:./Libraries/STM32F4xx_HAL_Driver/Src/stm32f4xx_hal_ltdc.c ****   __HAL_UNLOCK(hltdc);
 3701              		.loc 1 1671 3 discriminator 2
 3702 0054 7B68     		ldr	r3, [r7, #4]
 3703 0056 0022     		movs	r2, #0
 3704 0058 83F8A020 		strb	r2, [r3, #160]
1672:./Libraries/STM32F4xx_HAL_Driver/Src/stm32f4xx_hal_ltdc.c **** 
1673:./Libraries/STM32F4xx_HAL_Driver/Src/stm32f4xx_hal_ltdc.c ****   return HAL_OK;
 3705              		.loc 1 1673 10 discriminator 2
 3706 005c 0023     		movs	r3, #0
 3707              	.L122:
1674:./Libraries/STM32F4xx_HAL_Driver/Src/stm32f4xx_hal_ltdc.c **** }
 3708              		.loc 1 1674 1
 3709 005e 1846     		mov	r0, r3
 3710 0060 0C37     		adds	r7, r7, #12
 3711              	.LCFI192:
 3712              		.cfi_def_cfa_offset 4
 3713 0062 BD46     		mov	sp, r7
 3714              	.LCFI193:
 3715              		.cfi_def_cfa_register 13
 3716              		@ sp needed
 3717 0064 5DF8047B 		ldr	r7, [sp], #4
 3718              	.LCFI194:
 3719              		.cfi_restore 7
 3720              		.cfi_def_cfa_offset 0
 3721 0068 7047     		bx	lr
 3722              		.cfi_endproc
 3723              	.LFE160:
 3725              		.section	.text.HAL_LTDC_EnableCLUT_NoReload,"ax",%progbits
 3726              		.align	1
 3727              		.global	HAL_LTDC_EnableCLUT_NoReload
 3728              		.syntax unified
 3729              		.thumb
 3730              		.thumb_func
 3731              		.fpu fpv4-sp-d16
 3733              	HAL_LTDC_EnableCLUT_NoReload:
 3734              	.LFB161:
1675:./Libraries/STM32F4xx_HAL_Driver/Src/stm32f4xx_hal_ltdc.c **** 
1676:./Libraries/STM32F4xx_HAL_Driver/Src/stm32f4xx_hal_ltdc.c **** /**
1677:./Libraries/STM32F4xx_HAL_Driver/Src/stm32f4xx_hal_ltdc.c ****   * @brief  Enable the color lookup table without reloading.
1678:./Libraries/STM32F4xx_HAL_Driver/Src/stm32f4xx_hal_ltdc.c ****   *         Variant of the function HAL_LTDC_EnableCLUT without immediate reload.
1679:./Libraries/STM32F4xx_HAL_Driver/Src/stm32f4xx_hal_ltdc.c ****   * @param  hltdc     pointer to a LTDC_HandleTypeDef structure that contains
1680:./Libraries/STM32F4xx_HAL_Driver/Src/stm32f4xx_hal_ltdc.c ****   *                   the configuration information for the LTDC.
1681:./Libraries/STM32F4xx_HAL_Driver/Src/stm32f4xx_hal_ltdc.c ****   * @param  LayerIdx  LTDC Layer index.
1682:./Libraries/STM32F4xx_HAL_Driver/Src/stm32f4xx_hal_ltdc.c ****   *                   This parameter can be one of the following values:
1683:./Libraries/STM32F4xx_HAL_Driver/Src/stm32f4xx_hal_ltdc.c ****   *                   LTDC_LAYER_1 (0) or LTDC_LAYER_2 (1)
1684:./Libraries/STM32F4xx_HAL_Driver/Src/stm32f4xx_hal_ltdc.c ****   * @retval  HAL status
1685:./Libraries/STM32F4xx_HAL_Driver/Src/stm32f4xx_hal_ltdc.c ****   */
1686:./Libraries/STM32F4xx_HAL_Driver/Src/stm32f4xx_hal_ltdc.c **** HAL_StatusTypeDef HAL_LTDC_EnableCLUT_NoReload(LTDC_HandleTypeDef *hltdc, uint32_t LayerIdx)
1687:./Libraries/STM32F4xx_HAL_Driver/Src/stm32f4xx_hal_ltdc.c **** {
 3735              		.loc 1 1687 1
 3736              		.cfi_startproc
 3737              		@ args = 0, pretend = 0, frame = 8
ARM GAS  /tmp/cchxdGeL.s 			page 95


 3738              		@ frame_needed = 1, uses_anonymous_args = 0
 3739              		@ link register save eliminated.
 3740 0000 80B4     		push	{r7}
 3741              	.LCFI195:
 3742              		.cfi_def_cfa_offset 4
 3743              		.cfi_offset 7, -4
 3744 0002 83B0     		sub	sp, sp, #12
 3745              	.LCFI196:
 3746              		.cfi_def_cfa_offset 16
 3747 0004 00AF     		add	r7, sp, #0
 3748              	.LCFI197:
 3749              		.cfi_def_cfa_register 7
 3750 0006 7860     		str	r0, [r7, #4]
 3751 0008 3960     		str	r1, [r7]
1688:./Libraries/STM32F4xx_HAL_Driver/Src/stm32f4xx_hal_ltdc.c ****   /* Check the parameters */
1689:./Libraries/STM32F4xx_HAL_Driver/Src/stm32f4xx_hal_ltdc.c ****   assert_param(IS_LTDC_LAYER(LayerIdx));
1690:./Libraries/STM32F4xx_HAL_Driver/Src/stm32f4xx_hal_ltdc.c **** 
1691:./Libraries/STM32F4xx_HAL_Driver/Src/stm32f4xx_hal_ltdc.c ****   /* Process locked */
1692:./Libraries/STM32F4xx_HAL_Driver/Src/stm32f4xx_hal_ltdc.c ****   __HAL_LOCK(hltdc);
 3752              		.loc 1 1692 3
 3753 000a 7B68     		ldr	r3, [r7, #4]
 3754 000c 93F8A030 		ldrb	r3, [r3, #160]	@ zero_extendqisi2
 3755 0010 012B     		cmp	r3, #1
 3756 0012 01D1     		bne	.L124
 3757              		.loc 1 1692 3 is_stmt 0 discriminator 1
 3758 0014 0223     		movs	r3, #2
 3759 0016 22E0     		b	.L125
 3760              	.L124:
 3761              		.loc 1 1692 3 discriminator 2
 3762 0018 7B68     		ldr	r3, [r7, #4]
 3763 001a 0122     		movs	r2, #1
 3764 001c 83F8A020 		strb	r2, [r3, #160]
1693:./Libraries/STM32F4xx_HAL_Driver/Src/stm32f4xx_hal_ltdc.c **** 
1694:./Libraries/STM32F4xx_HAL_Driver/Src/stm32f4xx_hal_ltdc.c ****   /* Change LTDC peripheral state */
1695:./Libraries/STM32F4xx_HAL_Driver/Src/stm32f4xx_hal_ltdc.c ****   hltdc->State = HAL_LTDC_STATE_BUSY;
 3765              		.loc 1 1695 16 is_stmt 1 discriminator 2
 3766 0020 7B68     		ldr	r3, [r7, #4]
 3767 0022 0222     		movs	r2, #2
 3768 0024 83F8A120 		strb	r2, [r3, #161]
1696:./Libraries/STM32F4xx_HAL_Driver/Src/stm32f4xx_hal_ltdc.c **** 
1697:./Libraries/STM32F4xx_HAL_Driver/Src/stm32f4xx_hal_ltdc.c ****   /* Disable LTDC color lookup table by setting CLUTEN bit */
1698:./Libraries/STM32F4xx_HAL_Driver/Src/stm32f4xx_hal_ltdc.c ****   LTDC_LAYER(hltdc, LayerIdx)->CR |= (uint32_t)LTDC_LxCR_CLUTEN;
 3769              		.loc 1 1698 3 discriminator 2
 3770 0028 7B68     		ldr	r3, [r7, #4]
 3771 002a 1B68     		ldr	r3, [r3]
 3772              		.loc 1 1698 35 discriminator 2
 3773 002c 1A46     		mov	r2, r3
 3774 002e 3B68     		ldr	r3, [r7]
 3775 0030 DB01     		lsls	r3, r3, #7
 3776 0032 1344     		add	r3, r3, r2
 3777 0034 8433     		adds	r3, r3, #132
 3778 0036 1B68     		ldr	r3, [r3]
 3779              		.loc 1 1698 3 discriminator 2
 3780 0038 7A68     		ldr	r2, [r7, #4]
 3781 003a 1268     		ldr	r2, [r2]
 3782              		.loc 1 1698 35 discriminator 2
 3783 003c 1146     		mov	r1, r2
ARM GAS  /tmp/cchxdGeL.s 			page 96


 3784 003e 3A68     		ldr	r2, [r7]
 3785 0040 D201     		lsls	r2, r2, #7
 3786 0042 0A44     		add	r2, r2, r1
 3787 0044 8432     		adds	r2, r2, #132
 3788 0046 43F01003 		orr	r3, r3, #16
 3789 004a 1360     		str	r3, [r2]
1699:./Libraries/STM32F4xx_HAL_Driver/Src/stm32f4xx_hal_ltdc.c **** 
1700:./Libraries/STM32F4xx_HAL_Driver/Src/stm32f4xx_hal_ltdc.c ****   /* Do not set the Immediate Reload  */
1701:./Libraries/STM32F4xx_HAL_Driver/Src/stm32f4xx_hal_ltdc.c **** 
1702:./Libraries/STM32F4xx_HAL_Driver/Src/stm32f4xx_hal_ltdc.c ****   /* Change the LTDC state*/
1703:./Libraries/STM32F4xx_HAL_Driver/Src/stm32f4xx_hal_ltdc.c ****   hltdc->State = HAL_LTDC_STATE_READY; 
 3790              		.loc 1 1703 16 discriminator 2
 3791 004c 7B68     		ldr	r3, [r7, #4]
 3792 004e 0122     		movs	r2, #1
 3793 0050 83F8A120 		strb	r2, [r3, #161]
1704:./Libraries/STM32F4xx_HAL_Driver/Src/stm32f4xx_hal_ltdc.c **** 
1705:./Libraries/STM32F4xx_HAL_Driver/Src/stm32f4xx_hal_ltdc.c ****   /* Process unlocked */
1706:./Libraries/STM32F4xx_HAL_Driver/Src/stm32f4xx_hal_ltdc.c ****   __HAL_UNLOCK(hltdc);
 3794              		.loc 1 1706 3 discriminator 2
 3795 0054 7B68     		ldr	r3, [r7, #4]
 3796 0056 0022     		movs	r2, #0
 3797 0058 83F8A020 		strb	r2, [r3, #160]
1707:./Libraries/STM32F4xx_HAL_Driver/Src/stm32f4xx_hal_ltdc.c **** 
1708:./Libraries/STM32F4xx_HAL_Driver/Src/stm32f4xx_hal_ltdc.c ****   return HAL_OK;
 3798              		.loc 1 1708 10 discriminator 2
 3799 005c 0023     		movs	r3, #0
 3800              	.L125:
1709:./Libraries/STM32F4xx_HAL_Driver/Src/stm32f4xx_hal_ltdc.c **** }
 3801              		.loc 1 1709 1
 3802 005e 1846     		mov	r0, r3
 3803 0060 0C37     		adds	r7, r7, #12
 3804              	.LCFI198:
 3805              		.cfi_def_cfa_offset 4
 3806 0062 BD46     		mov	sp, r7
 3807              	.LCFI199:
 3808              		.cfi_def_cfa_register 13
 3809              		@ sp needed
 3810 0064 5DF8047B 		ldr	r7, [sp], #4
 3811              	.LCFI200:
 3812              		.cfi_restore 7
 3813              		.cfi_def_cfa_offset 0
 3814 0068 7047     		bx	lr
 3815              		.cfi_endproc
 3816              	.LFE161:
 3818              		.section	.text.HAL_LTDC_DisableCLUT_NoReload,"ax",%progbits
 3819              		.align	1
 3820              		.global	HAL_LTDC_DisableCLUT_NoReload
 3821              		.syntax unified
 3822              		.thumb
 3823              		.thumb_func
 3824              		.fpu fpv4-sp-d16
 3826              	HAL_LTDC_DisableCLUT_NoReload:
 3827              	.LFB162:
1710:./Libraries/STM32F4xx_HAL_Driver/Src/stm32f4xx_hal_ltdc.c **** 
1711:./Libraries/STM32F4xx_HAL_Driver/Src/stm32f4xx_hal_ltdc.c **** /**
1712:./Libraries/STM32F4xx_HAL_Driver/Src/stm32f4xx_hal_ltdc.c ****   * @brief  Disable the color lookup table without reloading.
1713:./Libraries/STM32F4xx_HAL_Driver/Src/stm32f4xx_hal_ltdc.c ****   *         Variant of the function HAL_LTDC_DisableCLUT without immediate reload.
ARM GAS  /tmp/cchxdGeL.s 			page 97


1714:./Libraries/STM32F4xx_HAL_Driver/Src/stm32f4xx_hal_ltdc.c ****   * @param  hltdc     pointer to a LTDC_HandleTypeDef structure that contains
1715:./Libraries/STM32F4xx_HAL_Driver/Src/stm32f4xx_hal_ltdc.c ****   *                   the configuration information for the LTDC.
1716:./Libraries/STM32F4xx_HAL_Driver/Src/stm32f4xx_hal_ltdc.c ****   * @param  LayerIdx  LTDC Layer index.
1717:./Libraries/STM32F4xx_HAL_Driver/Src/stm32f4xx_hal_ltdc.c ****   *                   This parameter can be one of the following values:
1718:./Libraries/STM32F4xx_HAL_Driver/Src/stm32f4xx_hal_ltdc.c ****   *                   LTDC_LAYER_1 (0) or LTDC_LAYER_2 (1)   
1719:./Libraries/STM32F4xx_HAL_Driver/Src/stm32f4xx_hal_ltdc.c ****   * @retval  HAL status
1720:./Libraries/STM32F4xx_HAL_Driver/Src/stm32f4xx_hal_ltdc.c ****   */
1721:./Libraries/STM32F4xx_HAL_Driver/Src/stm32f4xx_hal_ltdc.c **** HAL_StatusTypeDef HAL_LTDC_DisableCLUT_NoReload(LTDC_HandleTypeDef *hltdc, uint32_t LayerIdx)
1722:./Libraries/STM32F4xx_HAL_Driver/Src/stm32f4xx_hal_ltdc.c **** {
 3828              		.loc 1 1722 1
 3829              		.cfi_startproc
 3830              		@ args = 0, pretend = 0, frame = 8
 3831              		@ frame_needed = 1, uses_anonymous_args = 0
 3832              		@ link register save eliminated.
 3833 0000 80B4     		push	{r7}
 3834              	.LCFI201:
 3835              		.cfi_def_cfa_offset 4
 3836              		.cfi_offset 7, -4
 3837 0002 83B0     		sub	sp, sp, #12
 3838              	.LCFI202:
 3839              		.cfi_def_cfa_offset 16
 3840 0004 00AF     		add	r7, sp, #0
 3841              	.LCFI203:
 3842              		.cfi_def_cfa_register 7
 3843 0006 7860     		str	r0, [r7, #4]
 3844 0008 3960     		str	r1, [r7]
1723:./Libraries/STM32F4xx_HAL_Driver/Src/stm32f4xx_hal_ltdc.c ****   /* Check the parameters */
1724:./Libraries/STM32F4xx_HAL_Driver/Src/stm32f4xx_hal_ltdc.c ****   assert_param(IS_LTDC_LAYER(LayerIdx));
1725:./Libraries/STM32F4xx_HAL_Driver/Src/stm32f4xx_hal_ltdc.c ****  
1726:./Libraries/STM32F4xx_HAL_Driver/Src/stm32f4xx_hal_ltdc.c ****   /* Process locked */
1727:./Libraries/STM32F4xx_HAL_Driver/Src/stm32f4xx_hal_ltdc.c ****   __HAL_LOCK(hltdc);
 3845              		.loc 1 1727 3
 3846 000a 7B68     		ldr	r3, [r7, #4]
 3847 000c 93F8A030 		ldrb	r3, [r3, #160]	@ zero_extendqisi2
 3848 0010 012B     		cmp	r3, #1
 3849 0012 01D1     		bne	.L127
 3850              		.loc 1 1727 3 is_stmt 0 discriminator 1
 3851 0014 0223     		movs	r3, #2
 3852 0016 22E0     		b	.L128
 3853              	.L127:
 3854              		.loc 1 1727 3 discriminator 2
 3855 0018 7B68     		ldr	r3, [r7, #4]
 3856 001a 0122     		movs	r2, #1
 3857 001c 83F8A020 		strb	r2, [r3, #160]
1728:./Libraries/STM32F4xx_HAL_Driver/Src/stm32f4xx_hal_ltdc.c **** 
1729:./Libraries/STM32F4xx_HAL_Driver/Src/stm32f4xx_hal_ltdc.c ****   /* Change LTDC peripheral state */
1730:./Libraries/STM32F4xx_HAL_Driver/Src/stm32f4xx_hal_ltdc.c ****   hltdc->State = HAL_LTDC_STATE_BUSY;
 3858              		.loc 1 1730 16 is_stmt 1 discriminator 2
 3859 0020 7B68     		ldr	r3, [r7, #4]
 3860 0022 0222     		movs	r2, #2
 3861 0024 83F8A120 		strb	r2, [r3, #161]
1731:./Libraries/STM32F4xx_HAL_Driver/Src/stm32f4xx_hal_ltdc.c **** 
1732:./Libraries/STM32F4xx_HAL_Driver/Src/stm32f4xx_hal_ltdc.c ****   /* Disable LTDC color lookup table by setting CLUTEN bit */
1733:./Libraries/STM32F4xx_HAL_Driver/Src/stm32f4xx_hal_ltdc.c ****   LTDC_LAYER(hltdc, LayerIdx)->CR &= ~(uint32_t)LTDC_LxCR_CLUTEN;
 3862              		.loc 1 1733 3 discriminator 2
 3863 0028 7B68     		ldr	r3, [r7, #4]
 3864 002a 1B68     		ldr	r3, [r3]
ARM GAS  /tmp/cchxdGeL.s 			page 98


 3865              		.loc 1 1733 35 discriminator 2
 3866 002c 1A46     		mov	r2, r3
 3867 002e 3B68     		ldr	r3, [r7]
 3868 0030 DB01     		lsls	r3, r3, #7
 3869 0032 1344     		add	r3, r3, r2
 3870 0034 8433     		adds	r3, r3, #132
 3871 0036 1B68     		ldr	r3, [r3]
 3872              		.loc 1 1733 3 discriminator 2
 3873 0038 7A68     		ldr	r2, [r7, #4]
 3874 003a 1268     		ldr	r2, [r2]
 3875              		.loc 1 1733 35 discriminator 2
 3876 003c 1146     		mov	r1, r2
 3877 003e 3A68     		ldr	r2, [r7]
 3878 0040 D201     		lsls	r2, r2, #7
 3879 0042 0A44     		add	r2, r2, r1
 3880 0044 8432     		adds	r2, r2, #132
 3881 0046 23F01003 		bic	r3, r3, #16
 3882 004a 1360     		str	r3, [r2]
1734:./Libraries/STM32F4xx_HAL_Driver/Src/stm32f4xx_hal_ltdc.c **** 
1735:./Libraries/STM32F4xx_HAL_Driver/Src/stm32f4xx_hal_ltdc.c ****   /* Do not set the Immediate Reload  */
1736:./Libraries/STM32F4xx_HAL_Driver/Src/stm32f4xx_hal_ltdc.c **** 
1737:./Libraries/STM32F4xx_HAL_Driver/Src/stm32f4xx_hal_ltdc.c ****   /* Change the LTDC state*/
1738:./Libraries/STM32F4xx_HAL_Driver/Src/stm32f4xx_hal_ltdc.c ****   hltdc->State = HAL_LTDC_STATE_READY; 
 3883              		.loc 1 1738 16 discriminator 2
 3884 004c 7B68     		ldr	r3, [r7, #4]
 3885 004e 0122     		movs	r2, #1
 3886 0050 83F8A120 		strb	r2, [r3, #161]
1739:./Libraries/STM32F4xx_HAL_Driver/Src/stm32f4xx_hal_ltdc.c **** 
1740:./Libraries/STM32F4xx_HAL_Driver/Src/stm32f4xx_hal_ltdc.c ****   /* Process unlocked */
1741:./Libraries/STM32F4xx_HAL_Driver/Src/stm32f4xx_hal_ltdc.c ****   __HAL_UNLOCK(hltdc);
 3887              		.loc 1 1741 3 discriminator 2
 3888 0054 7B68     		ldr	r3, [r7, #4]
 3889 0056 0022     		movs	r2, #0
 3890 0058 83F8A020 		strb	r2, [r3, #160]
1742:./Libraries/STM32F4xx_HAL_Driver/Src/stm32f4xx_hal_ltdc.c **** 
1743:./Libraries/STM32F4xx_HAL_Driver/Src/stm32f4xx_hal_ltdc.c ****   return HAL_OK;
 3891              		.loc 1 1743 10 discriminator 2
 3892 005c 0023     		movs	r3, #0
 3893              	.L128:
1744:./Libraries/STM32F4xx_HAL_Driver/Src/stm32f4xx_hal_ltdc.c **** }
 3894              		.loc 1 1744 1
 3895 005e 1846     		mov	r0, r3
 3896 0060 0C37     		adds	r7, r7, #12
 3897              	.LCFI204:
 3898              		.cfi_def_cfa_offset 4
 3899 0062 BD46     		mov	sp, r7
 3900              	.LCFI205:
 3901              		.cfi_def_cfa_register 13
 3902              		@ sp needed
 3903 0064 5DF8047B 		ldr	r7, [sp], #4
 3904              	.LCFI206:
 3905              		.cfi_restore 7
 3906              		.cfi_def_cfa_offset 0
 3907 0068 7047     		bx	lr
 3908              		.cfi_endproc
 3909              	.LFE162:
 3911              		.section	.text.HAL_LTDC_GetState,"ax",%progbits
ARM GAS  /tmp/cchxdGeL.s 			page 99


 3912              		.align	1
 3913              		.global	HAL_LTDC_GetState
 3914              		.syntax unified
 3915              		.thumb
 3916              		.thumb_func
 3917              		.fpu fpv4-sp-d16
 3919              	HAL_LTDC_GetState:
 3920              	.LFB163:
1745:./Libraries/STM32F4xx_HAL_Driver/Src/stm32f4xx_hal_ltdc.c **** 
1746:./Libraries/STM32F4xx_HAL_Driver/Src/stm32f4xx_hal_ltdc.c **** /**
1747:./Libraries/STM32F4xx_HAL_Driver/Src/stm32f4xx_hal_ltdc.c ****   * @}
1748:./Libraries/STM32F4xx_HAL_Driver/Src/stm32f4xx_hal_ltdc.c ****   */
1749:./Libraries/STM32F4xx_HAL_Driver/Src/stm32f4xx_hal_ltdc.c **** 
1750:./Libraries/STM32F4xx_HAL_Driver/Src/stm32f4xx_hal_ltdc.c **** /** @defgroup LTDC_Exported_Functions_Group4 Peripheral State and Errors functions
1751:./Libraries/STM32F4xx_HAL_Driver/Src/stm32f4xx_hal_ltdc.c ****  *  @brief    Peripheral State and Errors functions 
1752:./Libraries/STM32F4xx_HAL_Driver/Src/stm32f4xx_hal_ltdc.c ****  *
1753:./Libraries/STM32F4xx_HAL_Driver/Src/stm32f4xx_hal_ltdc.c **** @verbatim   
1754:./Libraries/STM32F4xx_HAL_Driver/Src/stm32f4xx_hal_ltdc.c ****  ===============================================================================
1755:./Libraries/STM32F4xx_HAL_Driver/Src/stm32f4xx_hal_ltdc.c ****                   ##### Peripheral State and Errors functions #####
1756:./Libraries/STM32F4xx_HAL_Driver/Src/stm32f4xx_hal_ltdc.c ****  ===============================================================================  
1757:./Libraries/STM32F4xx_HAL_Driver/Src/stm32f4xx_hal_ltdc.c ****     [..]
1758:./Libraries/STM32F4xx_HAL_Driver/Src/stm32f4xx_hal_ltdc.c ****     This subsection provides functions allowing to
1759:./Libraries/STM32F4xx_HAL_Driver/Src/stm32f4xx_hal_ltdc.c ****       (+) Check the LTDC handle state.
1760:./Libraries/STM32F4xx_HAL_Driver/Src/stm32f4xx_hal_ltdc.c ****       (+) Get the LTDC handle error code.  
1761:./Libraries/STM32F4xx_HAL_Driver/Src/stm32f4xx_hal_ltdc.c **** 
1762:./Libraries/STM32F4xx_HAL_Driver/Src/stm32f4xx_hal_ltdc.c **** @endverbatim
1763:./Libraries/STM32F4xx_HAL_Driver/Src/stm32f4xx_hal_ltdc.c ****   * @{
1764:./Libraries/STM32F4xx_HAL_Driver/Src/stm32f4xx_hal_ltdc.c ****   */ 
1765:./Libraries/STM32F4xx_HAL_Driver/Src/stm32f4xx_hal_ltdc.c **** 
1766:./Libraries/STM32F4xx_HAL_Driver/Src/stm32f4xx_hal_ltdc.c **** /**
1767:./Libraries/STM32F4xx_HAL_Driver/Src/stm32f4xx_hal_ltdc.c ****   * @brief  Return the LTDC handle state.
1768:./Libraries/STM32F4xx_HAL_Driver/Src/stm32f4xx_hal_ltdc.c ****   * @param  hltdc  pointer to a LTDC_HandleTypeDef structure that contains
1769:./Libraries/STM32F4xx_HAL_Driver/Src/stm32f4xx_hal_ltdc.c ****   *                the configuration information for the LTDC.
1770:./Libraries/STM32F4xx_HAL_Driver/Src/stm32f4xx_hal_ltdc.c ****   * @retval HAL state
1771:./Libraries/STM32F4xx_HAL_Driver/Src/stm32f4xx_hal_ltdc.c ****   */
1772:./Libraries/STM32F4xx_HAL_Driver/Src/stm32f4xx_hal_ltdc.c **** HAL_LTDC_StateTypeDef HAL_LTDC_GetState(LTDC_HandleTypeDef *hltdc)
1773:./Libraries/STM32F4xx_HAL_Driver/Src/stm32f4xx_hal_ltdc.c **** {
 3921              		.loc 1 1773 1
 3922              		.cfi_startproc
 3923              		@ args = 0, pretend = 0, frame = 8
 3924              		@ frame_needed = 1, uses_anonymous_args = 0
 3925              		@ link register save eliminated.
 3926 0000 80B4     		push	{r7}
 3927              	.LCFI207:
 3928              		.cfi_def_cfa_offset 4
 3929              		.cfi_offset 7, -4
 3930 0002 83B0     		sub	sp, sp, #12
 3931              	.LCFI208:
 3932              		.cfi_def_cfa_offset 16
 3933 0004 00AF     		add	r7, sp, #0
 3934              	.LCFI209:
 3935              		.cfi_def_cfa_register 7
 3936 0006 7860     		str	r0, [r7, #4]
1774:./Libraries/STM32F4xx_HAL_Driver/Src/stm32f4xx_hal_ltdc.c ****   return hltdc->State;
 3937              		.loc 1 1774 15
 3938 0008 7B68     		ldr	r3, [r7, #4]
 3939 000a 93F8A130 		ldrb	r3, [r3, #161]
ARM GAS  /tmp/cchxdGeL.s 			page 100


 3940 000e DBB2     		uxtb	r3, r3
1775:./Libraries/STM32F4xx_HAL_Driver/Src/stm32f4xx_hal_ltdc.c **** }
 3941              		.loc 1 1775 1
 3942 0010 1846     		mov	r0, r3
 3943 0012 0C37     		adds	r7, r7, #12
 3944              	.LCFI210:
 3945              		.cfi_def_cfa_offset 4
 3946 0014 BD46     		mov	sp, r7
 3947              	.LCFI211:
 3948              		.cfi_def_cfa_register 13
 3949              		@ sp needed
 3950 0016 5DF8047B 		ldr	r7, [sp], #4
 3951              	.LCFI212:
 3952              		.cfi_restore 7
 3953              		.cfi_def_cfa_offset 0
 3954 001a 7047     		bx	lr
 3955              		.cfi_endproc
 3956              	.LFE163:
 3958              		.section	.text.HAL_LTDC_GetError,"ax",%progbits
 3959              		.align	1
 3960              		.global	HAL_LTDC_GetError
 3961              		.syntax unified
 3962              		.thumb
 3963              		.thumb_func
 3964              		.fpu fpv4-sp-d16
 3966              	HAL_LTDC_GetError:
 3967              	.LFB164:
1776:./Libraries/STM32F4xx_HAL_Driver/Src/stm32f4xx_hal_ltdc.c **** 
1777:./Libraries/STM32F4xx_HAL_Driver/Src/stm32f4xx_hal_ltdc.c **** /**
1778:./Libraries/STM32F4xx_HAL_Driver/Src/stm32f4xx_hal_ltdc.c ****   * @brief  Return the LTDC handle error code.
1779:./Libraries/STM32F4xx_HAL_Driver/Src/stm32f4xx_hal_ltdc.c ****   * @param  hltdc  pointer to a LTDC_HandleTypeDef structure that contains
1780:./Libraries/STM32F4xx_HAL_Driver/Src/stm32f4xx_hal_ltdc.c ****   *               the configuration information for the LTDC.
1781:./Libraries/STM32F4xx_HAL_Driver/Src/stm32f4xx_hal_ltdc.c **** * @retval LTDC Error Code
1782:./Libraries/STM32F4xx_HAL_Driver/Src/stm32f4xx_hal_ltdc.c **** */
1783:./Libraries/STM32F4xx_HAL_Driver/Src/stm32f4xx_hal_ltdc.c **** uint32_t HAL_LTDC_GetError(LTDC_HandleTypeDef *hltdc)
1784:./Libraries/STM32F4xx_HAL_Driver/Src/stm32f4xx_hal_ltdc.c **** {
 3968              		.loc 1 1784 1
 3969              		.cfi_startproc
 3970              		@ args = 0, pretend = 0, frame = 8
 3971              		@ frame_needed = 1, uses_anonymous_args = 0
 3972              		@ link register save eliminated.
 3973 0000 80B4     		push	{r7}
 3974              	.LCFI213:
 3975              		.cfi_def_cfa_offset 4
 3976              		.cfi_offset 7, -4
 3977 0002 83B0     		sub	sp, sp, #12
 3978              	.LCFI214:
 3979              		.cfi_def_cfa_offset 16
 3980 0004 00AF     		add	r7, sp, #0
 3981              	.LCFI215:
 3982              		.cfi_def_cfa_register 7
 3983 0006 7860     		str	r0, [r7, #4]
1785:./Libraries/STM32F4xx_HAL_Driver/Src/stm32f4xx_hal_ltdc.c ****   return hltdc->ErrorCode;
 3984              		.loc 1 1785 15
 3985 0008 7B68     		ldr	r3, [r7, #4]
 3986 000a D3F8A430 		ldr	r3, [r3, #164]
1786:./Libraries/STM32F4xx_HAL_Driver/Src/stm32f4xx_hal_ltdc.c **** }
ARM GAS  /tmp/cchxdGeL.s 			page 101


 3987              		.loc 1 1786 1
 3988 000e 1846     		mov	r0, r3
 3989 0010 0C37     		adds	r7, r7, #12
 3990              	.LCFI216:
 3991              		.cfi_def_cfa_offset 4
 3992 0012 BD46     		mov	sp, r7
 3993              	.LCFI217:
 3994              		.cfi_def_cfa_register 13
 3995              		@ sp needed
 3996 0014 5DF8047B 		ldr	r7, [sp], #4
 3997              	.LCFI218:
 3998              		.cfi_restore 7
 3999              		.cfi_def_cfa_offset 0
 4000 0018 7047     		bx	lr
 4001              		.cfi_endproc
 4002              	.LFE164:
 4004              		.section	.text.LTDC_SetConfig,"ax",%progbits
 4005              		.align	1
 4006              		.syntax unified
 4007              		.thumb
 4008              		.thumb_func
 4009              		.fpu fpv4-sp-d16
 4011              	LTDC_SetConfig:
 4012              	.LFB165:
1787:./Libraries/STM32F4xx_HAL_Driver/Src/stm32f4xx_hal_ltdc.c **** 
1788:./Libraries/STM32F4xx_HAL_Driver/Src/stm32f4xx_hal_ltdc.c **** /**
1789:./Libraries/STM32F4xx_HAL_Driver/Src/stm32f4xx_hal_ltdc.c ****   * @}
1790:./Libraries/STM32F4xx_HAL_Driver/Src/stm32f4xx_hal_ltdc.c ****   */
1791:./Libraries/STM32F4xx_HAL_Driver/Src/stm32f4xx_hal_ltdc.c **** 
1792:./Libraries/STM32F4xx_HAL_Driver/Src/stm32f4xx_hal_ltdc.c **** /**
1793:./Libraries/STM32F4xx_HAL_Driver/Src/stm32f4xx_hal_ltdc.c ****   * @}
1794:./Libraries/STM32F4xx_HAL_Driver/Src/stm32f4xx_hal_ltdc.c ****   */
1795:./Libraries/STM32F4xx_HAL_Driver/Src/stm32f4xx_hal_ltdc.c **** 
1796:./Libraries/STM32F4xx_HAL_Driver/Src/stm32f4xx_hal_ltdc.c **** /** @defgroup LTDC_Private_Functions LTDC Private Functions
1797:./Libraries/STM32F4xx_HAL_Driver/Src/stm32f4xx_hal_ltdc.c ****   * @{
1798:./Libraries/STM32F4xx_HAL_Driver/Src/stm32f4xx_hal_ltdc.c ****   */
1799:./Libraries/STM32F4xx_HAL_Driver/Src/stm32f4xx_hal_ltdc.c **** 
1800:./Libraries/STM32F4xx_HAL_Driver/Src/stm32f4xx_hal_ltdc.c **** /**
1801:./Libraries/STM32F4xx_HAL_Driver/Src/stm32f4xx_hal_ltdc.c ****   * @brief  Configure the LTDC peripheral 
1802:./Libraries/STM32F4xx_HAL_Driver/Src/stm32f4xx_hal_ltdc.c ****   * @param  hltdc     Pointer to a LTDC_HandleTypeDef structure that contains
1803:./Libraries/STM32F4xx_HAL_Driver/Src/stm32f4xx_hal_ltdc.c ****   *                   the configuration information for the LTDC.
1804:./Libraries/STM32F4xx_HAL_Driver/Src/stm32f4xx_hal_ltdc.c ****   * @param  pLayerCfg Pointer LTDC Layer Configuration structure
1805:./Libraries/STM32F4xx_HAL_Driver/Src/stm32f4xx_hal_ltdc.c ****   * @param  LayerIdx  LTDC Layer index.
1806:./Libraries/STM32F4xx_HAL_Driver/Src/stm32f4xx_hal_ltdc.c ****   *                   This parameter can be one of the following values: LTDC_LAYER_1 (0) or LTDC_L
1807:./Libraries/STM32F4xx_HAL_Driver/Src/stm32f4xx_hal_ltdc.c ****   * @retval None
1808:./Libraries/STM32F4xx_HAL_Driver/Src/stm32f4xx_hal_ltdc.c ****   */
1809:./Libraries/STM32F4xx_HAL_Driver/Src/stm32f4xx_hal_ltdc.c **** static void LTDC_SetConfig(LTDC_HandleTypeDef *hltdc, LTDC_LayerCfgTypeDef *pLayerCfg, uint32_t Lay
1810:./Libraries/STM32F4xx_HAL_Driver/Src/stm32f4xx_hal_ltdc.c **** {
 4013              		.loc 1 1810 1
 4014              		.cfi_startproc
 4015              		@ args = 0, pretend = 0, frame = 32
 4016              		@ frame_needed = 1, uses_anonymous_args = 0
 4017              		@ link register save eliminated.
 4018 0000 80B4     		push	{r7}
 4019              	.LCFI219:
 4020              		.cfi_def_cfa_offset 4
 4021              		.cfi_offset 7, -4
ARM GAS  /tmp/cchxdGeL.s 			page 102


 4022 0002 89B0     		sub	sp, sp, #36
 4023              	.LCFI220:
 4024              		.cfi_def_cfa_offset 40
 4025 0004 00AF     		add	r7, sp, #0
 4026              	.LCFI221:
 4027              		.cfi_def_cfa_register 7
 4028 0006 F860     		str	r0, [r7, #12]
 4029 0008 B960     		str	r1, [r7, #8]
 4030 000a 7A60     		str	r2, [r7, #4]
1811:./Libraries/STM32F4xx_HAL_Driver/Src/stm32f4xx_hal_ltdc.c ****   uint32_t tmp = 0U;
 4031              		.loc 1 1811 12
 4032 000c 0023     		movs	r3, #0
 4033 000e FB61     		str	r3, [r7, #28]
1812:./Libraries/STM32F4xx_HAL_Driver/Src/stm32f4xx_hal_ltdc.c ****   uint32_t tmp1 = 0U;
 4034              		.loc 1 1812 12
 4035 0010 0023     		movs	r3, #0
 4036 0012 BB61     		str	r3, [r7, #24]
1813:./Libraries/STM32F4xx_HAL_Driver/Src/stm32f4xx_hal_ltdc.c ****   uint32_t tmp2 = 0U;
 4037              		.loc 1 1813 12
 4038 0014 0023     		movs	r3, #0
 4039 0016 7B61     		str	r3, [r7, #20]
1814:./Libraries/STM32F4xx_HAL_Driver/Src/stm32f4xx_hal_ltdc.c **** 
1815:./Libraries/STM32F4xx_HAL_Driver/Src/stm32f4xx_hal_ltdc.c ****   /* Configure the horizontal start and stop position */
1816:./Libraries/STM32F4xx_HAL_Driver/Src/stm32f4xx_hal_ltdc.c ****   tmp = ((pLayerCfg->WindowX1 + ((hltdc->Instance->BPCR & LTDC_BPCR_AHBP) >> 16U)) << 16U);
 4040              		.loc 1 1816 20
 4041 0018 BB68     		ldr	r3, [r7, #8]
 4042 001a 5A68     		ldr	r2, [r3, #4]
 4043              		.loc 1 1816 40
 4044 001c FB68     		ldr	r3, [r7, #12]
 4045 001e 1B68     		ldr	r3, [r3]
 4046              		.loc 1 1816 50
 4047 0020 DB68     		ldr	r3, [r3, #12]
 4048              		.loc 1 1816 75
 4049 0022 1B0C     		lsrs	r3, r3, #16
 4050 0024 C3F30B03 		ubfx	r3, r3, #0, #12
 4051              		.loc 1 1816 31
 4052 0028 1344     		add	r3, r3, r2
 4053              		.loc 1 1816 7
 4054 002a 1B04     		lsls	r3, r3, #16
 4055 002c FB61     		str	r3, [r7, #28]
1817:./Libraries/STM32F4xx_HAL_Driver/Src/stm32f4xx_hal_ltdc.c ****   LTDC_LAYER(hltdc, LayerIdx)->WHPCR &= ~(LTDC_LxWHPCR_WHSTPOS | LTDC_LxWHPCR_WHSPPOS);
 4056              		.loc 1 1817 3
 4057 002e FB68     		ldr	r3, [r7, #12]
 4058 0030 1B68     		ldr	r3, [r3]
 4059              		.loc 1 1817 38
 4060 0032 1A46     		mov	r2, r3
 4061 0034 7B68     		ldr	r3, [r7, #4]
 4062 0036 DB01     		lsls	r3, r3, #7
 4063 0038 1344     		add	r3, r3, r2
 4064 003a 8433     		adds	r3, r3, #132
 4065 003c 5B68     		ldr	r3, [r3, #4]
 4066              		.loc 1 1817 3
 4067 003e FA68     		ldr	r2, [r7, #12]
 4068 0040 1268     		ldr	r2, [r2]
 4069              		.loc 1 1817 38
 4070 0042 1146     		mov	r1, r2
 4071 0044 7A68     		ldr	r2, [r7, #4]
ARM GAS  /tmp/cchxdGeL.s 			page 103


 4072 0046 D201     		lsls	r2, r2, #7
 4073 0048 0A44     		add	r2, r2, r1
 4074 004a 8432     		adds	r2, r2, #132
 4075 004c 03F47043 		and	r3, r3, #61440
 4076 0050 5360     		str	r3, [r2, #4]
1818:./Libraries/STM32F4xx_HAL_Driver/Src/stm32f4xx_hal_ltdc.c ****   LTDC_LAYER(hltdc, LayerIdx)->WHPCR = ((pLayerCfg->WindowX0 + ((hltdc->Instance->BPCR & LTDC_BPCR_
 4077              		.loc 1 1818 51
 4078 0052 BB68     		ldr	r3, [r7, #8]
 4079 0054 1A68     		ldr	r2, [r3]
 4080              		.loc 1 1818 71
 4081 0056 FB68     		ldr	r3, [r7, #12]
 4082 0058 1B68     		ldr	r3, [r3]
 4083              		.loc 1 1818 81
 4084 005a DB68     		ldr	r3, [r3, #12]
 4085              		.loc 1 1818 106
 4086 005c 1B0C     		lsrs	r3, r3, #16
 4087 005e C3F30B03 		ubfx	r3, r3, #0, #12
 4088              		.loc 1 1818 62
 4089 0062 1344     		add	r3, r3, r2
 4090              		.loc 1 1818 114
 4091 0064 5A1C     		adds	r2, r3, #1
 4092              		.loc 1 1818 3
 4093 0066 FB68     		ldr	r3, [r7, #12]
 4094 0068 1B68     		ldr	r3, [r3]
 4095 006a 1946     		mov	r1, r3
 4096 006c 7B68     		ldr	r3, [r7, #4]
 4097 006e DB01     		lsls	r3, r3, #7
 4098 0070 0B44     		add	r3, r3, r1
 4099 0072 8433     		adds	r3, r3, #132
 4100 0074 1946     		mov	r1, r3
 4101              		.loc 1 1818 120
 4102 0076 FB69     		ldr	r3, [r7, #28]
 4103 0078 1343     		orrs	r3, r3, r2
 4104              		.loc 1 1818 38
 4105 007a 4B60     		str	r3, [r1, #4]
1819:./Libraries/STM32F4xx_HAL_Driver/Src/stm32f4xx_hal_ltdc.c **** 
1820:./Libraries/STM32F4xx_HAL_Driver/Src/stm32f4xx_hal_ltdc.c ****   /* Configure the vertical start and stop position */
1821:./Libraries/STM32F4xx_HAL_Driver/Src/stm32f4xx_hal_ltdc.c ****   tmp = ((pLayerCfg->WindowY1 + (hltdc->Instance->BPCR & LTDC_BPCR_AVBP)) << 16U);
 4106              		.loc 1 1821 20
 4107 007c BB68     		ldr	r3, [r7, #8]
 4108 007e DA68     		ldr	r2, [r3, #12]
 4109              		.loc 1 1821 39
 4110 0080 FB68     		ldr	r3, [r7, #12]
 4111 0082 1B68     		ldr	r3, [r3]
 4112              		.loc 1 1821 49
 4113 0084 DB68     		ldr	r3, [r3, #12]
 4114              		.loc 1 1821 56
 4115 0086 C3F30A03 		ubfx	r3, r3, #0, #11
 4116              		.loc 1 1821 31
 4117 008a 1344     		add	r3, r3, r2
 4118              		.loc 1 1821 7
 4119 008c 1B04     		lsls	r3, r3, #16
 4120 008e FB61     		str	r3, [r7, #28]
1822:./Libraries/STM32F4xx_HAL_Driver/Src/stm32f4xx_hal_ltdc.c ****   LTDC_LAYER(hltdc, LayerIdx)->WVPCR &= ~(LTDC_LxWVPCR_WVSTPOS | LTDC_LxWVPCR_WVSPPOS);
 4121              		.loc 1 1822 3
 4122 0090 FB68     		ldr	r3, [r7, #12]
 4123 0092 1B68     		ldr	r3, [r3]
ARM GAS  /tmp/cchxdGeL.s 			page 104


 4124              		.loc 1 1822 38
 4125 0094 1A46     		mov	r2, r3
 4126 0096 7B68     		ldr	r3, [r7, #4]
 4127 0098 DB01     		lsls	r3, r3, #7
 4128 009a 1344     		add	r3, r3, r2
 4129 009c 8433     		adds	r3, r3, #132
 4130 009e 9B68     		ldr	r3, [r3, #8]
 4131              		.loc 1 1822 3
 4132 00a0 FA68     		ldr	r2, [r7, #12]
 4133 00a2 1268     		ldr	r2, [r2]
 4134              		.loc 1 1822 38
 4135 00a4 1146     		mov	r1, r2
 4136 00a6 7A68     		ldr	r2, [r7, #4]
 4137 00a8 D201     		lsls	r2, r2, #7
 4138 00aa 0A44     		add	r2, r2, r1
 4139 00ac 8432     		adds	r2, r2, #132
 4140 00ae 03F47043 		and	r3, r3, #61440
 4141 00b2 9360     		str	r3, [r2, #8]
1823:./Libraries/STM32F4xx_HAL_Driver/Src/stm32f4xx_hal_ltdc.c ****   LTDC_LAYER(hltdc, LayerIdx)->WVPCR  = ((pLayerCfg->WindowY0 + (hltdc->Instance->BPCR & LTDC_BPCR_
 4142              		.loc 1 1823 52
 4143 00b4 BB68     		ldr	r3, [r7, #8]
 4144 00b6 9A68     		ldr	r2, [r3, #8]
 4145              		.loc 1 1823 71
 4146 00b8 FB68     		ldr	r3, [r7, #12]
 4147 00ba 1B68     		ldr	r3, [r3]
 4148              		.loc 1 1823 81
 4149 00bc DB68     		ldr	r3, [r3, #12]
 4150              		.loc 1 1823 88
 4151 00be C3F30A03 		ubfx	r3, r3, #0, #11
 4152              		.loc 1 1823 63
 4153 00c2 1344     		add	r3, r3, r2
 4154              		.loc 1 1823 106
 4155 00c4 5A1C     		adds	r2, r3, #1
 4156              		.loc 1 1823 3
 4157 00c6 FB68     		ldr	r3, [r7, #12]
 4158 00c8 1B68     		ldr	r3, [r3]
 4159 00ca 1946     		mov	r1, r3
 4160 00cc 7B68     		ldr	r3, [r7, #4]
 4161 00ce DB01     		lsls	r3, r3, #7
 4162 00d0 0B44     		add	r3, r3, r1
 4163 00d2 8433     		adds	r3, r3, #132
 4164 00d4 1946     		mov	r1, r3
 4165              		.loc 1 1823 112
 4166 00d6 FB69     		ldr	r3, [r7, #28]
 4167 00d8 1343     		orrs	r3, r3, r2
 4168              		.loc 1 1823 39
 4169 00da 8B60     		str	r3, [r1, #8]
1824:./Libraries/STM32F4xx_HAL_Driver/Src/stm32f4xx_hal_ltdc.c **** 
1825:./Libraries/STM32F4xx_HAL_Driver/Src/stm32f4xx_hal_ltdc.c ****   /* Specifies the pixel format */
1826:./Libraries/STM32F4xx_HAL_Driver/Src/stm32f4xx_hal_ltdc.c ****   LTDC_LAYER(hltdc, LayerIdx)->PFCR &= ~(LTDC_LxPFCR_PF);
 4170              		.loc 1 1826 3
 4171 00dc FB68     		ldr	r3, [r7, #12]
 4172 00de 1B68     		ldr	r3, [r3]
 4173              		.loc 1 1826 37
 4174 00e0 1A46     		mov	r2, r3
 4175 00e2 7B68     		ldr	r3, [r7, #4]
 4176 00e4 DB01     		lsls	r3, r3, #7
ARM GAS  /tmp/cchxdGeL.s 			page 105


 4177 00e6 1344     		add	r3, r3, r2
 4178 00e8 8433     		adds	r3, r3, #132
 4179 00ea 1B69     		ldr	r3, [r3, #16]
 4180              		.loc 1 1826 3
 4181 00ec FA68     		ldr	r2, [r7, #12]
 4182 00ee 1268     		ldr	r2, [r2]
 4183              		.loc 1 1826 37
 4184 00f0 1146     		mov	r1, r2
 4185 00f2 7A68     		ldr	r2, [r7, #4]
 4186 00f4 D201     		lsls	r2, r2, #7
 4187 00f6 0A44     		add	r2, r2, r1
 4188 00f8 8432     		adds	r2, r2, #132
 4189 00fa 23F00703 		bic	r3, r3, #7
 4190 00fe 1361     		str	r3, [r2, #16]
1827:./Libraries/STM32F4xx_HAL_Driver/Src/stm32f4xx_hal_ltdc.c ****   LTDC_LAYER(hltdc, LayerIdx)->PFCR = (pLayerCfg->PixelFormat);
 4191              		.loc 1 1827 3
 4192 0100 FB68     		ldr	r3, [r7, #12]
 4193 0102 1B68     		ldr	r3, [r3]
 4194 0104 1A46     		mov	r2, r3
 4195 0106 7B68     		ldr	r3, [r7, #4]
 4196 0108 DB01     		lsls	r3, r3, #7
 4197 010a 1344     		add	r3, r3, r2
 4198 010c 8433     		adds	r3, r3, #132
 4199 010e 1A46     		mov	r2, r3
 4200              		.loc 1 1827 49
 4201 0110 BB68     		ldr	r3, [r7, #8]
 4202 0112 1B69     		ldr	r3, [r3, #16]
 4203              		.loc 1 1827 37
 4204 0114 1361     		str	r3, [r2, #16]
1828:./Libraries/STM32F4xx_HAL_Driver/Src/stm32f4xx_hal_ltdc.c **** 
1829:./Libraries/STM32F4xx_HAL_Driver/Src/stm32f4xx_hal_ltdc.c ****   /* Configure the default color values */
1830:./Libraries/STM32F4xx_HAL_Driver/Src/stm32f4xx_hal_ltdc.c ****   tmp = ((uint32_t)(pLayerCfg->Backcolor.Green) << 8U);
 4205              		.loc 1 1830 41
 4206 0116 BB68     		ldr	r3, [r7, #8]
 4207 0118 93F83130 		ldrb	r3, [r3, #49]	@ zero_extendqisi2
 4208              		.loc 1 1830 7
 4209 011c 1B02     		lsls	r3, r3, #8
 4210 011e FB61     		str	r3, [r7, #28]
1831:./Libraries/STM32F4xx_HAL_Driver/Src/stm32f4xx_hal_ltdc.c ****   tmp1 = ((uint32_t)(pLayerCfg->Backcolor.Red) << 16U);
 4211              		.loc 1 1831 42
 4212 0120 BB68     		ldr	r3, [r7, #8]
 4213 0122 93F83230 		ldrb	r3, [r3, #50]	@ zero_extendqisi2
 4214              		.loc 1 1831 8
 4215 0126 1B04     		lsls	r3, r3, #16
 4216 0128 BB61     		str	r3, [r7, #24]
1832:./Libraries/STM32F4xx_HAL_Driver/Src/stm32f4xx_hal_ltdc.c ****   tmp2 = (pLayerCfg->Alpha0 << 24U);  
 4217              		.loc 1 1832 20
 4218 012a BB68     		ldr	r3, [r7, #8]
 4219 012c 9B69     		ldr	r3, [r3, #24]
 4220              		.loc 1 1832 8
 4221 012e 1B06     		lsls	r3, r3, #24
 4222 0130 7B61     		str	r3, [r7, #20]
1833:./Libraries/STM32F4xx_HAL_Driver/Src/stm32f4xx_hal_ltdc.c ****   LTDC_LAYER(hltdc, LayerIdx)->DCCR &= ~(LTDC_LxDCCR_DCBLUE | LTDC_LxDCCR_DCGREEN | LTDC_LxDCCR_DCR
 4223              		.loc 1 1833 3
 4224 0132 FB68     		ldr	r3, [r7, #12]
 4225 0134 1B68     		ldr	r3, [r3]
 4226              		.loc 1 1833 37
ARM GAS  /tmp/cchxdGeL.s 			page 106


 4227 0136 1A46     		mov	r2, r3
 4228 0138 7B68     		ldr	r3, [r7, #4]
 4229 013a DB01     		lsls	r3, r3, #7
 4230 013c 1344     		add	r3, r3, r2
 4231 013e 8433     		adds	r3, r3, #132
 4232 0140 9B69     		ldr	r3, [r3, #24]
 4233              		.loc 1 1833 3
 4234 0142 FB68     		ldr	r3, [r7, #12]
 4235 0144 1B68     		ldr	r3, [r3]
 4236              		.loc 1 1833 37
 4237 0146 1A46     		mov	r2, r3
 4238 0148 7B68     		ldr	r3, [r7, #4]
 4239 014a DB01     		lsls	r3, r3, #7
 4240 014c 1344     		add	r3, r3, r2
 4241 014e 8433     		adds	r3, r3, #132
 4242 0150 1A46     		mov	r2, r3
 4243 0152 0023     		movs	r3, #0
 4244 0154 9361     		str	r3, [r2, #24]
1834:./Libraries/STM32F4xx_HAL_Driver/Src/stm32f4xx_hal_ltdc.c ****   LTDC_LAYER(hltdc, LayerIdx)->DCCR = (pLayerCfg->Backcolor.Blue | tmp | tmp1 | tmp2); 
 4245              		.loc 1 1834 60
 4246 0156 BB68     		ldr	r3, [r7, #8]
 4247 0158 93F83030 		ldrb	r3, [r3, #48]	@ zero_extendqisi2
 4248 015c 1A46     		mov	r2, r3
 4249              		.loc 1 1834 66
 4250 015e FB69     		ldr	r3, [r7, #28]
 4251 0160 1A43     		orrs	r2, r2, r3
 4252              		.loc 1 1834 72
 4253 0162 BB69     		ldr	r3, [r7, #24]
 4254 0164 1A43     		orrs	r2, r2, r3
 4255              		.loc 1 1834 3
 4256 0166 FB68     		ldr	r3, [r7, #12]
 4257 0168 1B68     		ldr	r3, [r3]
 4258 016a 1946     		mov	r1, r3
 4259 016c 7B68     		ldr	r3, [r7, #4]
 4260 016e DB01     		lsls	r3, r3, #7
 4261 0170 0B44     		add	r3, r3, r1
 4262 0172 8433     		adds	r3, r3, #132
 4263 0174 1946     		mov	r1, r3
 4264              		.loc 1 1834 79
 4265 0176 7B69     		ldr	r3, [r7, #20]
 4266 0178 1343     		orrs	r3, r3, r2
 4267              		.loc 1 1834 37
 4268 017a 8B61     		str	r3, [r1, #24]
1835:./Libraries/STM32F4xx_HAL_Driver/Src/stm32f4xx_hal_ltdc.c **** 
1836:./Libraries/STM32F4xx_HAL_Driver/Src/stm32f4xx_hal_ltdc.c ****   /* Specifies the constant alpha value */
1837:./Libraries/STM32F4xx_HAL_Driver/Src/stm32f4xx_hal_ltdc.c ****   LTDC_LAYER(hltdc, LayerIdx)->CACR &= ~(LTDC_LxCACR_CONSTA);
 4269              		.loc 1 1837 3
 4270 017c FB68     		ldr	r3, [r7, #12]
 4271 017e 1B68     		ldr	r3, [r3]
 4272              		.loc 1 1837 37
 4273 0180 1A46     		mov	r2, r3
 4274 0182 7B68     		ldr	r3, [r7, #4]
 4275 0184 DB01     		lsls	r3, r3, #7
 4276 0186 1344     		add	r3, r3, r2
 4277 0188 8433     		adds	r3, r3, #132
 4278 018a 5B69     		ldr	r3, [r3, #20]
 4279              		.loc 1 1837 3
ARM GAS  /tmp/cchxdGeL.s 			page 107


 4280 018c FA68     		ldr	r2, [r7, #12]
 4281 018e 1268     		ldr	r2, [r2]
 4282              		.loc 1 1837 37
 4283 0190 1146     		mov	r1, r2
 4284 0192 7A68     		ldr	r2, [r7, #4]
 4285 0194 D201     		lsls	r2, r2, #7
 4286 0196 0A44     		add	r2, r2, r1
 4287 0198 8432     		adds	r2, r2, #132
 4288 019a 23F0FF03 		bic	r3, r3, #255
 4289 019e 5361     		str	r3, [r2, #20]
1838:./Libraries/STM32F4xx_HAL_Driver/Src/stm32f4xx_hal_ltdc.c ****   LTDC_LAYER(hltdc, LayerIdx)->CACR = (pLayerCfg->Alpha);
 4290              		.loc 1 1838 3
 4291 01a0 FB68     		ldr	r3, [r7, #12]
 4292 01a2 1B68     		ldr	r3, [r3]
 4293 01a4 1A46     		mov	r2, r3
 4294 01a6 7B68     		ldr	r3, [r7, #4]
 4295 01a8 DB01     		lsls	r3, r3, #7
 4296 01aa 1344     		add	r3, r3, r2
 4297 01ac 8433     		adds	r3, r3, #132
 4298 01ae 1A46     		mov	r2, r3
 4299              		.loc 1 1838 49
 4300 01b0 BB68     		ldr	r3, [r7, #8]
 4301 01b2 5B69     		ldr	r3, [r3, #20]
 4302              		.loc 1 1838 37
 4303 01b4 5361     		str	r3, [r2, #20]
1839:./Libraries/STM32F4xx_HAL_Driver/Src/stm32f4xx_hal_ltdc.c **** 
1840:./Libraries/STM32F4xx_HAL_Driver/Src/stm32f4xx_hal_ltdc.c ****   /* Specifies the blending factors */
1841:./Libraries/STM32F4xx_HAL_Driver/Src/stm32f4xx_hal_ltdc.c ****   LTDC_LAYER(hltdc, LayerIdx)->BFCR &= ~(LTDC_LxBFCR_BF2 | LTDC_LxBFCR_BF1);
 4304              		.loc 1 1841 3
 4305 01b6 FB68     		ldr	r3, [r7, #12]
 4306 01b8 1B68     		ldr	r3, [r3]
 4307              		.loc 1 1841 37
 4308 01ba 1A46     		mov	r2, r3
 4309 01bc 7B68     		ldr	r3, [r7, #4]
 4310 01be DB01     		lsls	r3, r3, #7
 4311 01c0 1344     		add	r3, r3, r2
 4312 01c2 8433     		adds	r3, r3, #132
 4313 01c4 DB69     		ldr	r3, [r3, #28]
 4314              		.loc 1 1841 3
 4315 01c6 FA68     		ldr	r2, [r7, #12]
 4316 01c8 1268     		ldr	r2, [r2]
 4317              		.loc 1 1841 37
 4318 01ca 1146     		mov	r1, r2
 4319 01cc 7A68     		ldr	r2, [r7, #4]
 4320 01ce D201     		lsls	r2, r2, #7
 4321 01d0 0A44     		add	r2, r2, r1
 4322 01d2 8432     		adds	r2, r2, #132
 4323 01d4 23F4E063 		bic	r3, r3, #1792
 4324 01d8 23F00703 		bic	r3, r3, #7
 4325 01dc D361     		str	r3, [r2, #28]
1842:./Libraries/STM32F4xx_HAL_Driver/Src/stm32f4xx_hal_ltdc.c ****   LTDC_LAYER(hltdc, LayerIdx)->BFCR = (pLayerCfg->BlendingFactor1 | pLayerCfg->BlendingFactor2);
 4326              		.loc 1 1842 49
 4327 01de BB68     		ldr	r3, [r7, #8]
 4328 01e0 DA69     		ldr	r2, [r3, #28]
 4329              		.loc 1 1842 78
 4330 01e2 BB68     		ldr	r3, [r7, #8]
 4331 01e4 1B6A     		ldr	r3, [r3, #32]
ARM GAS  /tmp/cchxdGeL.s 			page 108


 4332              		.loc 1 1842 3
 4333 01e6 F968     		ldr	r1, [r7, #12]
 4334 01e8 0968     		ldr	r1, [r1]
 4335 01ea 0846     		mov	r0, r1
 4336 01ec 7968     		ldr	r1, [r7, #4]
 4337 01ee C901     		lsls	r1, r1, #7
 4338 01f0 0144     		add	r1, r1, r0
 4339 01f2 8431     		adds	r1, r1, #132
 4340              		.loc 1 1842 67
 4341 01f4 1343     		orrs	r3, r3, r2
 4342              		.loc 1 1842 37
 4343 01f6 CB61     		str	r3, [r1, #28]
1843:./Libraries/STM32F4xx_HAL_Driver/Src/stm32f4xx_hal_ltdc.c **** 
1844:./Libraries/STM32F4xx_HAL_Driver/Src/stm32f4xx_hal_ltdc.c ****   /* Configure the color frame buffer start address */
1845:./Libraries/STM32F4xx_HAL_Driver/Src/stm32f4xx_hal_ltdc.c ****   LTDC_LAYER(hltdc, LayerIdx)->CFBAR &= ~(LTDC_LxCFBAR_CFBADD);
 4344              		.loc 1 1845 3
 4345 01f8 FB68     		ldr	r3, [r7, #12]
 4346 01fa 1B68     		ldr	r3, [r3]
 4347              		.loc 1 1845 38
 4348 01fc 1A46     		mov	r2, r3
 4349 01fe 7B68     		ldr	r3, [r7, #4]
 4350 0200 DB01     		lsls	r3, r3, #7
 4351 0202 1344     		add	r3, r3, r2
 4352 0204 8433     		adds	r3, r3, #132
 4353 0206 9B6A     		ldr	r3, [r3, #40]
 4354              		.loc 1 1845 3
 4355 0208 FB68     		ldr	r3, [r7, #12]
 4356 020a 1B68     		ldr	r3, [r3]
 4357              		.loc 1 1845 38
 4358 020c 1A46     		mov	r2, r3
 4359 020e 7B68     		ldr	r3, [r7, #4]
 4360 0210 DB01     		lsls	r3, r3, #7
 4361 0212 1344     		add	r3, r3, r2
 4362 0214 8433     		adds	r3, r3, #132
 4363 0216 1A46     		mov	r2, r3
 4364 0218 0023     		movs	r3, #0
 4365 021a 9362     		str	r3, [r2, #40]
1846:./Libraries/STM32F4xx_HAL_Driver/Src/stm32f4xx_hal_ltdc.c ****   LTDC_LAYER(hltdc, LayerIdx)->CFBAR = (pLayerCfg->FBStartAdress);
 4366              		.loc 1 1846 3
 4367 021c FB68     		ldr	r3, [r7, #12]
 4368 021e 1B68     		ldr	r3, [r3]
 4369 0220 1A46     		mov	r2, r3
 4370 0222 7B68     		ldr	r3, [r7, #4]
 4371 0224 DB01     		lsls	r3, r3, #7
 4372 0226 1344     		add	r3, r3, r2
 4373 0228 8433     		adds	r3, r3, #132
 4374 022a 1A46     		mov	r2, r3
 4375              		.loc 1 1846 50
 4376 022c BB68     		ldr	r3, [r7, #8]
 4377 022e 5B6A     		ldr	r3, [r3, #36]
 4378              		.loc 1 1846 38
 4379 0230 9362     		str	r3, [r2, #40]
1847:./Libraries/STM32F4xx_HAL_Driver/Src/stm32f4xx_hal_ltdc.c **** 
1848:./Libraries/STM32F4xx_HAL_Driver/Src/stm32f4xx_hal_ltdc.c ****   if(pLayerCfg->PixelFormat == LTDC_PIXEL_FORMAT_ARGB8888)
 4380              		.loc 1 1848 15
 4381 0232 BB68     		ldr	r3, [r7, #8]
 4382 0234 1B69     		ldr	r3, [r3, #16]
ARM GAS  /tmp/cchxdGeL.s 			page 109


 4383              		.loc 1 1848 5
 4384 0236 002B     		cmp	r3, #0
 4385 0238 02D1     		bne	.L134
1849:./Libraries/STM32F4xx_HAL_Driver/Src/stm32f4xx_hal_ltdc.c ****   {
1850:./Libraries/STM32F4xx_HAL_Driver/Src/stm32f4xx_hal_ltdc.c ****     tmp = 4U;
 4386              		.loc 1 1850 9
 4387 023a 0423     		movs	r3, #4
 4388 023c FB61     		str	r3, [r7, #28]
 4389 023e 1BE0     		b	.L135
 4390              	.L134:
1851:./Libraries/STM32F4xx_HAL_Driver/Src/stm32f4xx_hal_ltdc.c ****   }
1852:./Libraries/STM32F4xx_HAL_Driver/Src/stm32f4xx_hal_ltdc.c ****   else if (pLayerCfg->PixelFormat == LTDC_PIXEL_FORMAT_RGB888)
 4391              		.loc 1 1852 21
 4392 0240 BB68     		ldr	r3, [r7, #8]
 4393 0242 1B69     		ldr	r3, [r3, #16]
 4394              		.loc 1 1852 11
 4395 0244 012B     		cmp	r3, #1
 4396 0246 02D1     		bne	.L136
1853:./Libraries/STM32F4xx_HAL_Driver/Src/stm32f4xx_hal_ltdc.c ****   {
1854:./Libraries/STM32F4xx_HAL_Driver/Src/stm32f4xx_hal_ltdc.c ****     tmp = 3U;
 4397              		.loc 1 1854 9
 4398 0248 0323     		movs	r3, #3
 4399 024a FB61     		str	r3, [r7, #28]
 4400 024c 14E0     		b	.L135
 4401              	.L136:
1855:./Libraries/STM32F4xx_HAL_Driver/Src/stm32f4xx_hal_ltdc.c ****   }
1856:./Libraries/STM32F4xx_HAL_Driver/Src/stm32f4xx_hal_ltdc.c ****   else if((pLayerCfg->PixelFormat == LTDC_PIXEL_FORMAT_ARGB4444) || \
 4402              		.loc 1 1856 21
 4403 024e BB68     		ldr	r3, [r7, #8]
 4404 0250 1B69     		ldr	r3, [r3, #16]
 4405              		.loc 1 1856 10
 4406 0252 042B     		cmp	r3, #4
 4407 0254 0BD0     		beq	.L137
1857:./Libraries/STM32F4xx_HAL_Driver/Src/stm32f4xx_hal_ltdc.c ****     (pLayerCfg->PixelFormat == LTDC_PIXEL_FORMAT_RGB565)   || \
 4408              		.loc 1 1857 15 discriminator 1
 4409 0256 BB68     		ldr	r3, [r7, #8]
 4410 0258 1B69     		ldr	r3, [r3, #16]
1856:./Libraries/STM32F4xx_HAL_Driver/Src/stm32f4xx_hal_ltdc.c ****     (pLayerCfg->PixelFormat == LTDC_PIXEL_FORMAT_RGB565)   || \
 4411              		.loc 1 1856 66 discriminator 1
 4412 025a 022B     		cmp	r3, #2
 4413 025c 07D0     		beq	.L137
1858:./Libraries/STM32F4xx_HAL_Driver/Src/stm32f4xx_hal_ltdc.c ****       (pLayerCfg->PixelFormat == LTDC_PIXEL_FORMAT_ARGB1555) || \
 4414              		.loc 1 1858 17
 4415 025e BB68     		ldr	r3, [r7, #8]
 4416 0260 1B69     		ldr	r3, [r3, #16]
1857:./Libraries/STM32F4xx_HAL_Driver/Src/stm32f4xx_hal_ltdc.c ****     (pLayerCfg->PixelFormat == LTDC_PIXEL_FORMAT_RGB565)   || \
 4417              		.loc 1 1857 60
 4418 0262 032B     		cmp	r3, #3
 4419 0264 03D0     		beq	.L137
1859:./Libraries/STM32F4xx_HAL_Driver/Src/stm32f4xx_hal_ltdc.c ****         (pLayerCfg->PixelFormat == LTDC_PIXEL_FORMAT_AL88))
 4420              		.loc 1 1859 19
 4421 0266 BB68     		ldr	r3, [r7, #8]
 4422 0268 1B69     		ldr	r3, [r3, #16]
1858:./Libraries/STM32F4xx_HAL_Driver/Src/stm32f4xx_hal_ltdc.c ****       (pLayerCfg->PixelFormat == LTDC_PIXEL_FORMAT_ARGB1555) || \
 4423              		.loc 1 1858 62
 4424 026a 072B     		cmp	r3, #7
 4425 026c 02D1     		bne	.L138
ARM GAS  /tmp/cchxdGeL.s 			page 110


 4426              	.L137:
1860:./Libraries/STM32F4xx_HAL_Driver/Src/stm32f4xx_hal_ltdc.c ****   {
1861:./Libraries/STM32F4xx_HAL_Driver/Src/stm32f4xx_hal_ltdc.c ****     tmp = 2U;
 4427              		.loc 1 1861 9
 4428 026e 0223     		movs	r3, #2
 4429 0270 FB61     		str	r3, [r7, #28]
 4430 0272 01E0     		b	.L135
 4431              	.L138:
1862:./Libraries/STM32F4xx_HAL_Driver/Src/stm32f4xx_hal_ltdc.c ****   }
1863:./Libraries/STM32F4xx_HAL_Driver/Src/stm32f4xx_hal_ltdc.c ****   else
1864:./Libraries/STM32F4xx_HAL_Driver/Src/stm32f4xx_hal_ltdc.c ****   {
1865:./Libraries/STM32F4xx_HAL_Driver/Src/stm32f4xx_hal_ltdc.c ****     tmp = 1U;
 4432              		.loc 1 1865 9
 4433 0274 0123     		movs	r3, #1
 4434 0276 FB61     		str	r3, [r7, #28]
 4435              	.L135:
1866:./Libraries/STM32F4xx_HAL_Driver/Src/stm32f4xx_hal_ltdc.c ****   }
1867:./Libraries/STM32F4xx_HAL_Driver/Src/stm32f4xx_hal_ltdc.c **** 
1868:./Libraries/STM32F4xx_HAL_Driver/Src/stm32f4xx_hal_ltdc.c ****   /* Configure the color frame buffer pitch in byte */
1869:./Libraries/STM32F4xx_HAL_Driver/Src/stm32f4xx_hal_ltdc.c ****   LTDC_LAYER(hltdc, LayerIdx)->CFBLR  &= ~(LTDC_LxCFBLR_CFBLL | LTDC_LxCFBLR_CFBP);
 4436              		.loc 1 1869 3
 4437 0278 FB68     		ldr	r3, [r7, #12]
 4438 027a 1B68     		ldr	r3, [r3]
 4439              		.loc 1 1869 39
 4440 027c 1A46     		mov	r2, r3
 4441 027e 7B68     		ldr	r3, [r7, #4]
 4442 0280 DB01     		lsls	r3, r3, #7
 4443 0282 1344     		add	r3, r3, r2
 4444 0284 8433     		adds	r3, r3, #132
 4445 0286 DB6A     		ldr	r3, [r3, #44]
 4446              		.loc 1 1869 3
 4447 0288 FA68     		ldr	r2, [r7, #12]
 4448 028a 1268     		ldr	r2, [r2]
 4449              		.loc 1 1869 39
 4450 028c 1146     		mov	r1, r2
 4451 028e 7A68     		ldr	r2, [r7, #4]
 4452 0290 D201     		lsls	r2, r2, #7
 4453 0292 0A44     		add	r2, r2, r1
 4454 0294 8432     		adds	r2, r2, #132
 4455 0296 03F0E023 		and	r3, r3, #-536813568
 4456 029a D362     		str	r3, [r2, #44]
1870:./Libraries/STM32F4xx_HAL_Driver/Src/stm32f4xx_hal_ltdc.c ****   LTDC_LAYER(hltdc, LayerIdx)->CFBLR  = (((pLayerCfg->ImageWidth * tmp) << 16U) | (((pLayerCfg->Win
 4457              		.loc 1 1870 53
 4458 029c BB68     		ldr	r3, [r7, #8]
 4459 029e 9B6A     		ldr	r3, [r3, #40]
 4460              		.loc 1 1870 66
 4461 02a0 FA69     		ldr	r2, [r7, #28]
 4462 02a2 02FB03F3 		mul	r3, r2, r3
 4463              		.loc 1 1870 73
 4464 02a6 1A04     		lsls	r2, r3, #16
 4465              		.loc 1 1870 95
 4466 02a8 BB68     		ldr	r3, [r7, #8]
 4467 02aa 5968     		ldr	r1, [r3, #4]
 4468              		.loc 1 1870 117
 4469 02ac BB68     		ldr	r3, [r7, #8]
 4470 02ae 1B68     		ldr	r3, [r3]
 4471              		.loc 1 1870 106
ARM GAS  /tmp/cchxdGeL.s 			page 111


 4472 02b0 CB1A     		subs	r3, r1, r3
 4473              		.loc 1 1870 129
 4474 02b2 F969     		ldr	r1, [r7, #28]
 4475 02b4 01FB03F3 		mul	r3, r1, r3
 4476              		.loc 1 1870 137
 4477 02b8 0333     		adds	r3, r3, #3
 4478              		.loc 1 1870 3
 4479 02ba F968     		ldr	r1, [r7, #12]
 4480 02bc 0968     		ldr	r1, [r1]
 4481 02be 0846     		mov	r0, r1
 4482 02c0 7968     		ldr	r1, [r7, #4]
 4483 02c2 C901     		lsls	r1, r1, #7
 4484 02c4 0144     		add	r1, r1, r0
 4485 02c6 8431     		adds	r1, r1, #132
 4486              		.loc 1 1870 81
 4487 02c8 1343     		orrs	r3, r3, r2
 4488              		.loc 1 1870 39
 4489 02ca CB62     		str	r3, [r1, #44]
1871:./Libraries/STM32F4xx_HAL_Driver/Src/stm32f4xx_hal_ltdc.c **** 
1872:./Libraries/STM32F4xx_HAL_Driver/Src/stm32f4xx_hal_ltdc.c ****   /* Configure the frame buffer line number */
1873:./Libraries/STM32F4xx_HAL_Driver/Src/stm32f4xx_hal_ltdc.c ****   LTDC_LAYER(hltdc, LayerIdx)->CFBLNR  &= ~(LTDC_LxCFBLNR_CFBLNBR);
 4490              		.loc 1 1873 3
 4491 02cc FB68     		ldr	r3, [r7, #12]
 4492 02ce 1B68     		ldr	r3, [r3]
 4493              		.loc 1 1873 40
 4494 02d0 1A46     		mov	r2, r3
 4495 02d2 7B68     		ldr	r3, [r7, #4]
 4496 02d4 DB01     		lsls	r3, r3, #7
 4497 02d6 1344     		add	r3, r3, r2
 4498 02d8 8433     		adds	r3, r3, #132
 4499 02da 1B6B     		ldr	r3, [r3, #48]
 4500              		.loc 1 1873 3
 4501 02dc FA68     		ldr	r2, [r7, #12]
 4502 02de 1268     		ldr	r2, [r2]
 4503              		.loc 1 1873 40
 4504 02e0 1146     		mov	r1, r2
 4505 02e2 7A68     		ldr	r2, [r7, #4]
 4506 02e4 D201     		lsls	r2, r2, #7
 4507 02e6 0A44     		add	r2, r2, r1
 4508 02e8 8432     		adds	r2, r2, #132
 4509 02ea 23F4FF63 		bic	r3, r3, #2040
 4510 02ee 23F00703 		bic	r3, r3, #7
 4511 02f2 1363     		str	r3, [r2, #48]
1874:./Libraries/STM32F4xx_HAL_Driver/Src/stm32f4xx_hal_ltdc.c ****   LTDC_LAYER(hltdc, LayerIdx)->CFBLNR  = (pLayerCfg->ImageHeight);
 4512              		.loc 1 1874 3
 4513 02f4 FB68     		ldr	r3, [r7, #12]
 4514 02f6 1B68     		ldr	r3, [r3]
 4515 02f8 1A46     		mov	r2, r3
 4516 02fa 7B68     		ldr	r3, [r7, #4]
 4517 02fc DB01     		lsls	r3, r3, #7
 4518 02fe 1344     		add	r3, r3, r2
 4519 0300 8433     		adds	r3, r3, #132
 4520 0302 1A46     		mov	r2, r3
 4521              		.loc 1 1874 52
 4522 0304 BB68     		ldr	r3, [r7, #8]
 4523 0306 DB6A     		ldr	r3, [r3, #44]
 4524              		.loc 1 1874 40
ARM GAS  /tmp/cchxdGeL.s 			page 112


 4525 0308 1363     		str	r3, [r2, #48]
1875:./Libraries/STM32F4xx_HAL_Driver/Src/stm32f4xx_hal_ltdc.c **** 
1876:./Libraries/STM32F4xx_HAL_Driver/Src/stm32f4xx_hal_ltdc.c ****   /* Enable LTDC_Layer by setting LEN bit */  
1877:./Libraries/STM32F4xx_HAL_Driver/Src/stm32f4xx_hal_ltdc.c ****   LTDC_LAYER(hltdc, LayerIdx)->CR |= (uint32_t)LTDC_LxCR_LEN;
 4526              		.loc 1 1877 3
 4527 030a FB68     		ldr	r3, [r7, #12]
 4528 030c 1B68     		ldr	r3, [r3]
 4529              		.loc 1 1877 35
 4530 030e 1A46     		mov	r2, r3
 4531 0310 7B68     		ldr	r3, [r7, #4]
 4532 0312 DB01     		lsls	r3, r3, #7
 4533 0314 1344     		add	r3, r3, r2
 4534 0316 8433     		adds	r3, r3, #132
 4535 0318 1B68     		ldr	r3, [r3]
 4536              		.loc 1 1877 3
 4537 031a FA68     		ldr	r2, [r7, #12]
 4538 031c 1268     		ldr	r2, [r2]
 4539              		.loc 1 1877 35
 4540 031e 1146     		mov	r1, r2
 4541 0320 7A68     		ldr	r2, [r7, #4]
 4542 0322 D201     		lsls	r2, r2, #7
 4543 0324 0A44     		add	r2, r2, r1
 4544 0326 8432     		adds	r2, r2, #132
 4545 0328 43F00103 		orr	r3, r3, #1
 4546 032c 1360     		str	r3, [r2]
1878:./Libraries/STM32F4xx_HAL_Driver/Src/stm32f4xx_hal_ltdc.c **** }
 4547              		.loc 1 1878 1
 4548 032e 00BF     		nop
 4549 0330 2437     		adds	r7, r7, #36
 4550              	.LCFI222:
 4551              		.cfi_def_cfa_offset 4
 4552 0332 BD46     		mov	sp, r7
 4553              	.LCFI223:
 4554              		.cfi_def_cfa_register 13
 4555              		@ sp needed
 4556 0334 5DF8047B 		ldr	r7, [sp], #4
 4557              	.LCFI224:
 4558              		.cfi_restore 7
 4559              		.cfi_def_cfa_offset 0
 4560 0338 7047     		bx	lr
 4561              		.cfi_endproc
 4562              	.LFE165:
 4564              		.text
 4565              	.Letext0:
 4566              		.file 2 "/home/hao/Documents/gcc-arm-none-eabi/arm-none-eabi/include/machine/_default_types.h"
 4567              		.file 3 "/home/hao/Documents/gcc-arm-none-eabi/arm-none-eabi/include/sys/_stdint.h"
 4568              		.file 4 "./Libraries/CMSIS/Device/ST/STM32F4xx/Include/stm32f429xx.h"
 4569              		.file 5 "./Libraries/CMSIS/Device/ST/STM32F4xx/Include/stm32f4xx.h"
 4570              		.file 6 "./Libraries/STM32F4xx_HAL_Driver/Inc/stm32f4xx_hal_def.h"
 4571              		.file 7 "./Libraries/STM32F4xx_HAL_Driver/Inc/stm32f4xx_hal_ltdc.h"
ARM GAS  /tmp/cchxdGeL.s 			page 113


DEFINED SYMBOLS
                            *ABS*:0000000000000000 stm32f4xx_hal_ltdc.c
     /tmp/cchxdGeL.s:18     .text.HAL_LTDC_Init:0000000000000000 $t
     /tmp/cchxdGeL.s:26     .text.HAL_LTDC_Init:0000000000000000 HAL_LTDC_Init
     /tmp/cchxdGeL.s:409    .text.HAL_LTDC_MspInit:0000000000000000 HAL_LTDC_MspInit
     /tmp/cchxdGeL.s:341    .text.HAL_LTDC_Init:00000000000001a4 $d
     /tmp/cchxdGeL.s:346    .text.HAL_LTDC_DeInit:0000000000000000 $t
     /tmp/cchxdGeL.s:353    .text.HAL_LTDC_DeInit:0000000000000000 HAL_LTDC_DeInit
     /tmp/cchxdGeL.s:452    .text.HAL_LTDC_MspDeInit:0000000000000000 HAL_LTDC_MspDeInit
     /tmp/cchxdGeL.s:402    .text.HAL_LTDC_MspInit:0000000000000000 $t
     /tmp/cchxdGeL.s:445    .text.HAL_LTDC_MspDeInit:0000000000000000 $t
     /tmp/cchxdGeL.s:488    .text.HAL_LTDC_IRQHandler:0000000000000000 $t
     /tmp/cchxdGeL.s:495    .text.HAL_LTDC_IRQHandler:0000000000000000 HAL_LTDC_IRQHandler
     /tmp/cchxdGeL.s:706    .text.HAL_LTDC_ErrorCallback:0000000000000000 HAL_LTDC_ErrorCallback
     /tmp/cchxdGeL.s:749    .text.HAL_LTDC_LineEventCallback:0000000000000000 HAL_LTDC_LineEventCallback
     /tmp/cchxdGeL.s:792    .text.HAL_LTDC_ReloadEventCallback:0000000000000000 HAL_LTDC_ReloadEventCallback
     /tmp/cchxdGeL.s:699    .text.HAL_LTDC_ErrorCallback:0000000000000000 $t
     /tmp/cchxdGeL.s:742    .text.HAL_LTDC_LineEventCallback:0000000000000000 $t
     /tmp/cchxdGeL.s:785    .text.HAL_LTDC_ReloadEventCallback:0000000000000000 $t
     /tmp/cchxdGeL.s:828    .text.HAL_LTDC_ConfigLayer:0000000000000000 $t
     /tmp/cchxdGeL.s:835    .text.HAL_LTDC_ConfigLayer:0000000000000000 HAL_LTDC_ConfigLayer
     /tmp/cchxdGeL.s:4011   .text.LTDC_SetConfig:0000000000000000 LTDC_SetConfig
     /tmp/cchxdGeL.s:928    .text.HAL_LTDC_ConfigColorKeying:0000000000000000 $t
     /tmp/cchxdGeL.s:935    .text.HAL_LTDC_ConfigColorKeying:0000000000000000 HAL_LTDC_ConfigColorKeying
     /tmp/cchxdGeL.s:1040   .text.HAL_LTDC_ConfigCLUT:0000000000000000 $t
     /tmp/cchxdGeL.s:1047   .text.HAL_LTDC_ConfigCLUT:0000000000000000 HAL_LTDC_ConfigCLUT
     /tmp/cchxdGeL.s:1227   .text.HAL_LTDC_EnableColorKeying:0000000000000000 $t
     /tmp/cchxdGeL.s:1234   .text.HAL_LTDC_EnableColorKeying:0000000000000000 HAL_LTDC_EnableColorKeying
     /tmp/cchxdGeL.s:1326   .text.HAL_LTDC_DisableColorKeying:0000000000000000 $t
     /tmp/cchxdGeL.s:1333   .text.HAL_LTDC_DisableColorKeying:0000000000000000 HAL_LTDC_DisableColorKeying
     /tmp/cchxdGeL.s:1425   .text.HAL_LTDC_EnableCLUT:0000000000000000 $t
     /tmp/cchxdGeL.s:1432   .text.HAL_LTDC_EnableCLUT:0000000000000000 HAL_LTDC_EnableCLUT
     /tmp/cchxdGeL.s:1524   .text.HAL_LTDC_DisableCLUT:0000000000000000 $t
     /tmp/cchxdGeL.s:1531   .text.HAL_LTDC_DisableCLUT:0000000000000000 HAL_LTDC_DisableCLUT
     /tmp/cchxdGeL.s:1623   .text.HAL_LTDC_EnableDither:0000000000000000 $t
     /tmp/cchxdGeL.s:1630   .text.HAL_LTDC_EnableDither:0000000000000000 HAL_LTDC_EnableDither
     /tmp/cchxdGeL.s:1699   .text.HAL_LTDC_EnableDither:0000000000000050 $d
     /tmp/cchxdGeL.s:1704   .text.HAL_LTDC_DisableDither:0000000000000000 $t
     /tmp/cchxdGeL.s:1711   .text.HAL_LTDC_DisableDither:0000000000000000 HAL_LTDC_DisableDither
     /tmp/cchxdGeL.s:1780   .text.HAL_LTDC_DisableDither:0000000000000050 $d
     /tmp/cchxdGeL.s:1785   .text.HAL_LTDC_SetWindowSize:0000000000000000 $t
     /tmp/cchxdGeL.s:1792   .text.HAL_LTDC_SetWindowSize:0000000000000000 HAL_LTDC_SetWindowSize
     /tmp/cchxdGeL.s:1900   .text.HAL_LTDC_SetWindowPosition:0000000000000000 $t
     /tmp/cchxdGeL.s:1907   .text.HAL_LTDC_SetWindowPosition:0000000000000000 HAL_LTDC_SetWindowPosition
     /tmp/cchxdGeL.s:2015   .text.HAL_LTDC_SetPixelFormat:0000000000000000 $t
     /tmp/cchxdGeL.s:2022   .text.HAL_LTDC_SetPixelFormat:0000000000000000 HAL_LTDC_SetPixelFormat
     /tmp/cchxdGeL.s:2107   .text.HAL_LTDC_SetAlpha:0000000000000000 $t
     /tmp/cchxdGeL.s:2114   .text.HAL_LTDC_SetAlpha:0000000000000000 HAL_LTDC_SetAlpha
     /tmp/cchxdGeL.s:2199   .text.HAL_LTDC_SetAddress:0000000000000000 $t
     /tmp/cchxdGeL.s:2206   .text.HAL_LTDC_SetAddress:0000000000000000 HAL_LTDC_SetAddress
     /tmp/cchxdGeL.s:2291   .text.HAL_LTDC_SetPitch:0000000000000000 $t
     /tmp/cchxdGeL.s:2298   .text.HAL_LTDC_SetPitch:0000000000000000 HAL_LTDC_SetPitch
     /tmp/cchxdGeL.s:2489   .text.HAL_LTDC_SetPitch:0000000000000114 $d
     /tmp/cchxdGeL.s:2494   .text.HAL_LTDC_ProgramLineEvent:0000000000000000 $t
     /tmp/cchxdGeL.s:2501   .text.HAL_LTDC_ProgramLineEvent:0000000000000000 HAL_LTDC_ProgramLineEvent
     /tmp/cchxdGeL.s:2586   .text.HAL_LTDC_ProgramLineEvent:000000000000006c $d
     /tmp/cchxdGeL.s:2591   .text.HAL_LTDC_Reload:0000000000000000 $t
ARM GAS  /tmp/cchxdGeL.s 			page 114


     /tmp/cchxdGeL.s:2598   .text.HAL_LTDC_Reload:0000000000000000 HAL_LTDC_Reload
     /tmp/cchxdGeL.s:2677   .text.HAL_LTDC_ConfigLayer_NoReload:0000000000000000 $t
     /tmp/cchxdGeL.s:2684   .text.HAL_LTDC_ConfigLayer_NoReload:0000000000000000 HAL_LTDC_ConfigLayer_NoReload
     /tmp/cchxdGeL.s:2771   .text.HAL_LTDC_SetWindowSize_NoReload:0000000000000000 $t
     /tmp/cchxdGeL.s:2778   .text.HAL_LTDC_SetWindowSize_NoReload:0000000000000000 HAL_LTDC_SetWindowSize_NoReload
     /tmp/cchxdGeL.s:2880   .text.HAL_LTDC_SetWindowPosition_NoReload:0000000000000000 $t
     /tmp/cchxdGeL.s:2887   .text.HAL_LTDC_SetWindowPosition_NoReload:0000000000000000 HAL_LTDC_SetWindowPosition_NoReload
     /tmp/cchxdGeL.s:2989   .text.HAL_LTDC_SetPixelFormat_NoReload:0000000000000000 $t
     /tmp/cchxdGeL.s:2996   .text.HAL_LTDC_SetPixelFormat_NoReload:0000000000000000 HAL_LTDC_SetPixelFormat_NoReload
     /tmp/cchxdGeL.s:3075   .text.HAL_LTDC_SetAlpha_NoReload:0000000000000000 $t
     /tmp/cchxdGeL.s:3082   .text.HAL_LTDC_SetAlpha_NoReload:0000000000000000 HAL_LTDC_SetAlpha_NoReload
     /tmp/cchxdGeL.s:3161   .text.HAL_LTDC_SetAddress_NoReload:0000000000000000 $t
     /tmp/cchxdGeL.s:3168   .text.HAL_LTDC_SetAddress_NoReload:0000000000000000 HAL_LTDC_SetAddress_NoReload
     /tmp/cchxdGeL.s:3247   .text.HAL_LTDC_SetPitch_NoReload:0000000000000000 $t
     /tmp/cchxdGeL.s:3254   .text.HAL_LTDC_SetPitch_NoReload:0000000000000000 HAL_LTDC_SetPitch_NoReload
     /tmp/cchxdGeL.s:3434   .text.HAL_LTDC_ConfigColorKeying_NoReload:0000000000000000 $t
     /tmp/cchxdGeL.s:3441   .text.HAL_LTDC_ConfigColorKeying_NoReload:0000000000000000 HAL_LTDC_ConfigColorKeying_NoReload
     /tmp/cchxdGeL.s:3540   .text.HAL_LTDC_EnableColorKeying_NoReload:0000000000000000 $t
     /tmp/cchxdGeL.s:3547   .text.HAL_LTDC_EnableColorKeying_NoReload:0000000000000000 HAL_LTDC_EnableColorKeying_NoReload
     /tmp/cchxdGeL.s:3633   .text.HAL_LTDC_DisableColorKeying_NoReload:0000000000000000 $t
     /tmp/cchxdGeL.s:3640   .text.HAL_LTDC_DisableColorKeying_NoReload:0000000000000000 HAL_LTDC_DisableColorKeying_NoReload
     /tmp/cchxdGeL.s:3726   .text.HAL_LTDC_EnableCLUT_NoReload:0000000000000000 $t
     /tmp/cchxdGeL.s:3733   .text.HAL_LTDC_EnableCLUT_NoReload:0000000000000000 HAL_LTDC_EnableCLUT_NoReload
     /tmp/cchxdGeL.s:3819   .text.HAL_LTDC_DisableCLUT_NoReload:0000000000000000 $t
     /tmp/cchxdGeL.s:3826   .text.HAL_LTDC_DisableCLUT_NoReload:0000000000000000 HAL_LTDC_DisableCLUT_NoReload
     /tmp/cchxdGeL.s:3912   .text.HAL_LTDC_GetState:0000000000000000 $t
     /tmp/cchxdGeL.s:3919   .text.HAL_LTDC_GetState:0000000000000000 HAL_LTDC_GetState
     /tmp/cchxdGeL.s:3959   .text.HAL_LTDC_GetError:0000000000000000 $t
     /tmp/cchxdGeL.s:3966   .text.HAL_LTDC_GetError:0000000000000000 HAL_LTDC_GetError
     /tmp/cchxdGeL.s:4005   .text.LTDC_SetConfig:0000000000000000 $t

NO UNDEFINED SYMBOLS
