ARM GAS  /tmp/ccits0mR.s 			page 1


   1              		.cpu cortex-m4
   2              		.eabi_attribute 27, 1
   3              		.eabi_attribute 28, 1
   4              		.eabi_attribute 20, 1
   5              		.eabi_attribute 21, 1
   6              		.eabi_attribute 23, 3
   7              		.eabi_attribute 24, 1
   8              		.eabi_attribute 25, 1
   9              		.eabi_attribute 26, 1
  10              		.eabi_attribute 30, 6
  11              		.eabi_attribute 34, 1
  12              		.eabi_attribute 18, 4
  13              		.file	"stm32f4xx_hal_spi.c"
  14              		.text
  15              	.Ltext0:
  16              		.cfi_sections	.debug_frame
  17              		.section	.text.HAL_SPI_Init,"ax",%progbits
  18              		.align	1
  19              		.global	HAL_SPI_Init
  20              		.arch armv7e-m
  21              		.syntax unified
  22              		.thumb
  23              		.thumb_func
  24              		.fpu fpv4-sp-d16
  26              	HAL_SPI_Init:
  27              	.LFB126:
  28              		.file 1 "./Libraries/STM32F4xx_HAL_Driver/Src/stm32f4xx_hal_spi.c"
   1:./Libraries/STM32F4xx_HAL_Driver/Src/stm32f4xx_hal_spi.c **** /**
   2:./Libraries/STM32F4xx_HAL_Driver/Src/stm32f4xx_hal_spi.c ****   ******************************************************************************
   3:./Libraries/STM32F4xx_HAL_Driver/Src/stm32f4xx_hal_spi.c ****   * @file    stm32f4xx_hal_spi.c
   4:./Libraries/STM32F4xx_HAL_Driver/Src/stm32f4xx_hal_spi.c ****   * @author  MCD Application Team
   5:./Libraries/STM32F4xx_HAL_Driver/Src/stm32f4xx_hal_spi.c ****   * @brief   SPI HAL module driver.
   6:./Libraries/STM32F4xx_HAL_Driver/Src/stm32f4xx_hal_spi.c ****   *          This file provides firmware functions to manage the following
   7:./Libraries/STM32F4xx_HAL_Driver/Src/stm32f4xx_hal_spi.c ****   *          functionalities of the Serial Peripheral Interface (SPI) peripheral:
   8:./Libraries/STM32F4xx_HAL_Driver/Src/stm32f4xx_hal_spi.c ****   *           + Initialization and de-initialization functions
   9:./Libraries/STM32F4xx_HAL_Driver/Src/stm32f4xx_hal_spi.c ****   *           + IO operation functions
  10:./Libraries/STM32F4xx_HAL_Driver/Src/stm32f4xx_hal_spi.c ****   *           + Peripheral Control functions
  11:./Libraries/STM32F4xx_HAL_Driver/Src/stm32f4xx_hal_spi.c ****   *           + Peripheral State functions
  12:./Libraries/STM32F4xx_HAL_Driver/Src/stm32f4xx_hal_spi.c ****   *
  13:./Libraries/STM32F4xx_HAL_Driver/Src/stm32f4xx_hal_spi.c ****   @verbatim
  14:./Libraries/STM32F4xx_HAL_Driver/Src/stm32f4xx_hal_spi.c ****   ==============================================================================
  15:./Libraries/STM32F4xx_HAL_Driver/Src/stm32f4xx_hal_spi.c ****                         ##### How to use this driver #####
  16:./Libraries/STM32F4xx_HAL_Driver/Src/stm32f4xx_hal_spi.c ****   ==============================================================================
  17:./Libraries/STM32F4xx_HAL_Driver/Src/stm32f4xx_hal_spi.c ****     [..]
  18:./Libraries/STM32F4xx_HAL_Driver/Src/stm32f4xx_hal_spi.c ****       The SPI HAL driver can be used as follows:
  19:./Libraries/STM32F4xx_HAL_Driver/Src/stm32f4xx_hal_spi.c **** 
  20:./Libraries/STM32F4xx_HAL_Driver/Src/stm32f4xx_hal_spi.c ****       (#) Declare a SPI_HandleTypeDef handle structure, for example:
  21:./Libraries/STM32F4xx_HAL_Driver/Src/stm32f4xx_hal_spi.c ****           SPI_HandleTypeDef  hspi;
  22:./Libraries/STM32F4xx_HAL_Driver/Src/stm32f4xx_hal_spi.c **** 
  23:./Libraries/STM32F4xx_HAL_Driver/Src/stm32f4xx_hal_spi.c ****       (#)Initialize the SPI low level resources by implementing the HAL_SPI_MspInit() API:
  24:./Libraries/STM32F4xx_HAL_Driver/Src/stm32f4xx_hal_spi.c ****           (##) Enable the SPIx interface clock
  25:./Libraries/STM32F4xx_HAL_Driver/Src/stm32f4xx_hal_spi.c ****           (##) SPI pins configuration
  26:./Libraries/STM32F4xx_HAL_Driver/Src/stm32f4xx_hal_spi.c ****               (+++) Enable the clock for the SPI GPIOs
  27:./Libraries/STM32F4xx_HAL_Driver/Src/stm32f4xx_hal_spi.c ****               (+++) Configure these SPI pins as alternate function push-pull
  28:./Libraries/STM32F4xx_HAL_Driver/Src/stm32f4xx_hal_spi.c ****           (##) NVIC configuration if you need to use interrupt process
  29:./Libraries/STM32F4xx_HAL_Driver/Src/stm32f4xx_hal_spi.c ****               (+++) Configure the SPIx interrupt priority
  30:./Libraries/STM32F4xx_HAL_Driver/Src/stm32f4xx_hal_spi.c ****               (+++) Enable the NVIC SPI IRQ handle
ARM GAS  /tmp/ccits0mR.s 			page 2


  31:./Libraries/STM32F4xx_HAL_Driver/Src/stm32f4xx_hal_spi.c ****           (##) DMA Configuration if you need to use DMA process
  32:./Libraries/STM32F4xx_HAL_Driver/Src/stm32f4xx_hal_spi.c ****               (+++) Declare a DMA_HandleTypeDef handle structure for the transmit or receive stream
  33:./Libraries/STM32F4xx_HAL_Driver/Src/stm32f4xx_hal_spi.c ****               (+++) Enable the DMAx clock
  34:./Libraries/STM32F4xx_HAL_Driver/Src/stm32f4xx_hal_spi.c ****               (+++) Configure the DMA handle parameters
  35:./Libraries/STM32F4xx_HAL_Driver/Src/stm32f4xx_hal_spi.c ****               (+++) Configure the DMA Tx or Rx stream
  36:./Libraries/STM32F4xx_HAL_Driver/Src/stm32f4xx_hal_spi.c ****               (+++) Associate the initialized hdma_tx handle to the hspi DMA Tx or Rx handle
  37:./Libraries/STM32F4xx_HAL_Driver/Src/stm32f4xx_hal_spi.c ****               (+++) Configure the priority and enable the NVIC for the transfer complete interrupt 
  38:./Libraries/STM32F4xx_HAL_Driver/Src/stm32f4xx_hal_spi.c **** 
  39:./Libraries/STM32F4xx_HAL_Driver/Src/stm32f4xx_hal_spi.c ****       (#) Program the Mode, BidirectionalMode , Data size, Baudrate Prescaler, NSS
  40:./Libraries/STM32F4xx_HAL_Driver/Src/stm32f4xx_hal_spi.c ****           management, Clock polarity and phase, FirstBit and CRC configuration in the hspi Init str
  41:./Libraries/STM32F4xx_HAL_Driver/Src/stm32f4xx_hal_spi.c **** 
  42:./Libraries/STM32F4xx_HAL_Driver/Src/stm32f4xx_hal_spi.c ****       (#) Initialize the SPI registers by calling the HAL_SPI_Init() API:
  43:./Libraries/STM32F4xx_HAL_Driver/Src/stm32f4xx_hal_spi.c ****           (++) This API configures also the low level Hardware GPIO, CLOCK, CORTEX...etc)
  44:./Libraries/STM32F4xx_HAL_Driver/Src/stm32f4xx_hal_spi.c ****               by calling the customized HAL_SPI_MspInit() API.
  45:./Libraries/STM32F4xx_HAL_Driver/Src/stm32f4xx_hal_spi.c ****      [..]
  46:./Libraries/STM32F4xx_HAL_Driver/Src/stm32f4xx_hal_spi.c ****        Circular mode restriction:
  47:./Libraries/STM32F4xx_HAL_Driver/Src/stm32f4xx_hal_spi.c ****       (#) The DMA circular mode cannot be used when the SPI is configured in these modes:
  48:./Libraries/STM32F4xx_HAL_Driver/Src/stm32f4xx_hal_spi.c ****           (##) Master 2Lines RxOnly
  49:./Libraries/STM32F4xx_HAL_Driver/Src/stm32f4xx_hal_spi.c ****           (##) Master 1Line Rx
  50:./Libraries/STM32F4xx_HAL_Driver/Src/stm32f4xx_hal_spi.c ****       (#) The CRC feature is not managed when the DMA circular mode is enabled
  51:./Libraries/STM32F4xx_HAL_Driver/Src/stm32f4xx_hal_spi.c ****       (#) When the SPI DMA Pause/Stop features are used, we must use the following APIs
  52:./Libraries/STM32F4xx_HAL_Driver/Src/stm32f4xx_hal_spi.c ****           the HAL_SPI_DMAPause()/ HAL_SPI_DMAStop() only under the SPI callbacks
  53:./Libraries/STM32F4xx_HAL_Driver/Src/stm32f4xx_hal_spi.c ****      [..]
  54:./Libraries/STM32F4xx_HAL_Driver/Src/stm32f4xx_hal_spi.c ****        Master Receive mode restriction:
  55:./Libraries/STM32F4xx_HAL_Driver/Src/stm32f4xx_hal_spi.c ****       (#) In Master unidirectional receive-only mode (MSTR =1, BIDIMODE=0, RXONLY=0) or
  56:./Libraries/STM32F4xx_HAL_Driver/Src/stm32f4xx_hal_spi.c ****           bidirectional receive mode (MSTR=1, BIDIMODE=1, BIDIOE=0), to ensure that the SPI
  57:./Libraries/STM32F4xx_HAL_Driver/Src/stm32f4xx_hal_spi.c ****           does not initiate a new transfer the following procedure has to be respected:
  58:./Libraries/STM32F4xx_HAL_Driver/Src/stm32f4xx_hal_spi.c ****           (##) HAL_SPI_DeInit()
  59:./Libraries/STM32F4xx_HAL_Driver/Src/stm32f4xx_hal_spi.c ****           (##) HAL_SPI_Init()
  60:./Libraries/STM32F4xx_HAL_Driver/Src/stm32f4xx_hal_spi.c **** 
  61:./Libraries/STM32F4xx_HAL_Driver/Src/stm32f4xx_hal_spi.c ****   @endverbatim
  62:./Libraries/STM32F4xx_HAL_Driver/Src/stm32f4xx_hal_spi.c **** 
  63:./Libraries/STM32F4xx_HAL_Driver/Src/stm32f4xx_hal_spi.c ****     Using the HAL it is not possible to reach all supported SPI frequency with the differents SPI M
  64:./Libraries/STM32F4xx_HAL_Driver/Src/stm32f4xx_hal_spi.c ****     the following tables resume the max SPI frequency reached with data size 8bits/16bits,
  65:./Libraries/STM32F4xx_HAL_Driver/Src/stm32f4xx_hal_spi.c ****     according to frequency used on APBx Peripheral Clock (fPCLK) used by the SPI instance :
  66:./Libraries/STM32F4xx_HAL_Driver/Src/stm32f4xx_hal_spi.c ****     
  67:./Libraries/STM32F4xx_HAL_Driver/Src/stm32f4xx_hal_spi.c ****     DataSize = SPI_DATASIZE_8BIT:
  68:./Libraries/STM32F4xx_HAL_Driver/Src/stm32f4xx_hal_spi.c ****     +----------------------------------------------------------------------------------------------
  69:./Libraries/STM32F4xx_HAL_Driver/Src/stm32f4xx_hal_spi.c ****     |         |                | 2Lines Fullduplex   |     2Lines RxOnly    |         1Line        
  70:./Libraries/STM32F4xx_HAL_Driver/Src/stm32f4xx_hal_spi.c ****     | Process | Tranfert mode  |---------------------|----------------------|----------------------
  71:./Libraries/STM32F4xx_HAL_Driver/Src/stm32f4xx_hal_spi.c ****     |         |                |  Master  |  Slave   |  Master   |  Slave   |  Master   |  Slave   
  72:./Libraries/STM32F4xx_HAL_Driver/Src/stm32f4xx_hal_spi.c ****     |==============================================================================================
  73:./Libraries/STM32F4xx_HAL_Driver/Src/stm32f4xx_hal_spi.c ****     |    T    |     Polling    | Fpclk/2  | Fpclk/2  |    NA     |    NA    |    NA     |   NA     
  74:./Libraries/STM32F4xx_HAL_Driver/Src/stm32f4xx_hal_spi.c ****     |    X    |----------------|----------|----------|-----------|----------|-----------|----------
  75:./Libraries/STM32F4xx_HAL_Driver/Src/stm32f4xx_hal_spi.c ****     |    /    |     Interrupt  | Fpclk/4  | Fpclk/8  |    NA     |    NA    |    NA     |   NA     
  76:./Libraries/STM32F4xx_HAL_Driver/Src/stm32f4xx_hal_spi.c ****     |    R    |----------------|----------|----------|-----------|----------|-----------|----------
  77:./Libraries/STM32F4xx_HAL_Driver/Src/stm32f4xx_hal_spi.c ****     |    X    |       DMA      | Fpclk/2  | Fpclk/2  |    NA     |    NA    |    NA     |   NA     
  78:./Libraries/STM32F4xx_HAL_Driver/Src/stm32f4xx_hal_spi.c ****     |=========|================|==========|==========|===========|==========|===========|==========
  79:./Libraries/STM32F4xx_HAL_Driver/Src/stm32f4xx_hal_spi.c ****     |         |     Polling    | Fpclk/2  | Fpclk/2  | Fpclk/64  | Fpclk/2  | Fpclk/64  | Fpclk/2  
  80:./Libraries/STM32F4xx_HAL_Driver/Src/stm32f4xx_hal_spi.c ****     |         |----------------|----------|----------|-----------|----------|-----------|----------
  81:./Libraries/STM32F4xx_HAL_Driver/Src/stm32f4xx_hal_spi.c ****     |    R    |     Interrupt  | Fpclk/8  | Fpclk/8  | Fpclk/64  | Fpclk/2  | Fpclk/64  | Fpclk/2  
  82:./Libraries/STM32F4xx_HAL_Driver/Src/stm32f4xx_hal_spi.c ****     |    X    |----------------|----------|----------|-----------|----------|-----------|----------
  83:./Libraries/STM32F4xx_HAL_Driver/Src/stm32f4xx_hal_spi.c ****     |         |       DMA      | Fpclk/2  | Fpclk/2  | Fpclk/64  | Fpclk/2  | Fpclk/128 | Fpclk/2  
  84:./Libraries/STM32F4xx_HAL_Driver/Src/stm32f4xx_hal_spi.c ****     |=========|================|==========|==========|===========|==========|===========|==========
  85:./Libraries/STM32F4xx_HAL_Driver/Src/stm32f4xx_hal_spi.c ****     |         |     Polling    | Fpclk/2  | Fpclk/4  |     NA    |    NA    | Fpclk/2   | Fpclk/64 
  86:./Libraries/STM32F4xx_HAL_Driver/Src/stm32f4xx_hal_spi.c ****     |         |----------------|----------|----------|-----------|----------|-----------|----------
  87:./Libraries/STM32F4xx_HAL_Driver/Src/stm32f4xx_hal_spi.c ****     |    T    |     Interrupt  | Fpclk/2  | Fpclk/4  |     NA    |    NA    | Fpclk/2   | Fpclk/64 
ARM GAS  /tmp/ccits0mR.s 			page 3


  88:./Libraries/STM32F4xx_HAL_Driver/Src/stm32f4xx_hal_spi.c ****     |    X    |----------------|----------|----------|-----------|----------|-----------|----------
  89:./Libraries/STM32F4xx_HAL_Driver/Src/stm32f4xx_hal_spi.c ****     |         |       DMA      | Fpclk/2  | Fpclk/2  |     NA    |    NA    | Fpclk/2   | Fpclk/128
  90:./Libraries/STM32F4xx_HAL_Driver/Src/stm32f4xx_hal_spi.c ****     +----------------------------------------------------------------------------------------------
  91:./Libraries/STM32F4xx_HAL_Driver/Src/stm32f4xx_hal_spi.c ****     
  92:./Libraries/STM32F4xx_HAL_Driver/Src/stm32f4xx_hal_spi.c ****     DataSize = SPI_DATASIZE_16BIT:
  93:./Libraries/STM32F4xx_HAL_Driver/Src/stm32f4xx_hal_spi.c ****     +----------------------------------------------------------------------------------------------
  94:./Libraries/STM32F4xx_HAL_Driver/Src/stm32f4xx_hal_spi.c ****     |         |                | 2Lines Fullduplex   |     2Lines RxOnly    |         1Line        
  95:./Libraries/STM32F4xx_HAL_Driver/Src/stm32f4xx_hal_spi.c ****     | Process | Tranfert mode  |---------------------|----------------------|----------------------
  96:./Libraries/STM32F4xx_HAL_Driver/Src/stm32f4xx_hal_spi.c ****     |         |                |  Master  |  Slave   |  Master   |  Slave   |  Master   |  Slave   
  97:./Libraries/STM32F4xx_HAL_Driver/Src/stm32f4xx_hal_spi.c ****     |==============================================================================================
  98:./Libraries/STM32F4xx_HAL_Driver/Src/stm32f4xx_hal_spi.c ****     |    T    |     Polling    | Fpclk/2  | Fpclk/2  |    NA     |    NA    |    NA     |   NA     
  99:./Libraries/STM32F4xx_HAL_Driver/Src/stm32f4xx_hal_spi.c ****     |    X    |----------------|----------|----------|-----------|----------|-----------|----------
 100:./Libraries/STM32F4xx_HAL_Driver/Src/stm32f4xx_hal_spi.c ****     |    /    |     Interrupt  | Fpclk/4  | Fpclk/4  |    NA     |    NA    |    NA     |   NA     
 101:./Libraries/STM32F4xx_HAL_Driver/Src/stm32f4xx_hal_spi.c ****     |    R    |----------------|----------|----------|-----------|----------|-----------|----------
 102:./Libraries/STM32F4xx_HAL_Driver/Src/stm32f4xx_hal_spi.c ****     |    X    |       DMA      | Fpclk/2  | Fpclk/2  |    NA     |    NA    |    NA     |   NA     
 103:./Libraries/STM32F4xx_HAL_Driver/Src/stm32f4xx_hal_spi.c ****     |=========|================|==========|==========|===========|==========|===========|==========
 104:./Libraries/STM32F4xx_HAL_Driver/Src/stm32f4xx_hal_spi.c ****     |         |     Polling    | Fpclk/2  | Fpclk/2  | Fpclk/64  | Fpclk/2  | Fpclk/32  | Fpclk/2  
 105:./Libraries/STM32F4xx_HAL_Driver/Src/stm32f4xx_hal_spi.c ****     |         |----------------|----------|----------|-----------|----------|-----------|----------
 106:./Libraries/STM32F4xx_HAL_Driver/Src/stm32f4xx_hal_spi.c ****     |    R    |     Interrupt  | Fpclk/4  | Fpclk/4  | Fpclk/64  | Fpclk/2  | Fpclk/64  | Fpclk/2  
 107:./Libraries/STM32F4xx_HAL_Driver/Src/stm32f4xx_hal_spi.c ****     |    X    |----------------|----------|----------|-----------|----------|-----------|----------
 108:./Libraries/STM32F4xx_HAL_Driver/Src/stm32f4xx_hal_spi.c ****     |         |       DMA      | Fpclk/2  | Fpclk/2  | Fpclk/64  | Fpclk/2  | Fpclk/128 | Fpclk/2  
 109:./Libraries/STM32F4xx_HAL_Driver/Src/stm32f4xx_hal_spi.c ****     |=========|================|==========|==========|===========|==========|===========|==========
 110:./Libraries/STM32F4xx_HAL_Driver/Src/stm32f4xx_hal_spi.c ****     |         |     Polling    | Fpclk/2  | Fpclk/2  |     NA    |    NA    | Fpclk/2   | Fpclk/32 
 111:./Libraries/STM32F4xx_HAL_Driver/Src/stm32f4xx_hal_spi.c ****     |         |----------------|----------|----------|-----------|----------|-----------|----------
 112:./Libraries/STM32F4xx_HAL_Driver/Src/stm32f4xx_hal_spi.c ****     |    T    |     Interrupt  | Fpclk/2  | Fpclk/2  |     NA    |    NA    | Fpclk/2   | Fpclk/64 
 113:./Libraries/STM32F4xx_HAL_Driver/Src/stm32f4xx_hal_spi.c ****     |    X    |----------------|----------|----------|-----------|----------|-----------|----------
 114:./Libraries/STM32F4xx_HAL_Driver/Src/stm32f4xx_hal_spi.c ****     |         |       DMA      | Fpclk/2  | Fpclk/2  |     NA    |    NA    | Fpclk/2   | Fpclk/128
 115:./Libraries/STM32F4xx_HAL_Driver/Src/stm32f4xx_hal_spi.c ****     +----------------------------------------------------------------------------------------------
 116:./Libraries/STM32F4xx_HAL_Driver/Src/stm32f4xx_hal_spi.c ****      [..]
 117:./Libraries/STM32F4xx_HAL_Driver/Src/stm32f4xx_hal_spi.c ****        (@) The max SPI frequency depend on SPI data size (8bits, 16bits),
 118:./Libraries/STM32F4xx_HAL_Driver/Src/stm32f4xx_hal_spi.c ****            SPI mode(2 Lines fullduplex, 2 lines RxOnly, 1 line TX/RX) and Process mode (Polling, IT
 119:./Libraries/STM32F4xx_HAL_Driver/Src/stm32f4xx_hal_spi.c ****        (@)
 120:./Libraries/STM32F4xx_HAL_Driver/Src/stm32f4xx_hal_spi.c ****             (+@) TX/RX processes are HAL_SPI_TransmitReceive(), HAL_SPI_TransmitReceive_IT() and HA
 121:./Libraries/STM32F4xx_HAL_Driver/Src/stm32f4xx_hal_spi.c ****             (+@) RX processes are HAL_SPI_Receive(), HAL_SPI_Receive_IT() and HAL_SPI_Receive_DMA()
 122:./Libraries/STM32F4xx_HAL_Driver/Src/stm32f4xx_hal_spi.c ****             (+@) TX processes are HAL_SPI_Transmit(), HAL_SPI_Transmit_IT() and HAL_SPI_Transmit_DM
 123:./Libraries/STM32F4xx_HAL_Driver/Src/stm32f4xx_hal_spi.c ****   ******************************************************************************
 124:./Libraries/STM32F4xx_HAL_Driver/Src/stm32f4xx_hal_spi.c ****   * @attention
 125:./Libraries/STM32F4xx_HAL_Driver/Src/stm32f4xx_hal_spi.c ****   *
 126:./Libraries/STM32F4xx_HAL_Driver/Src/stm32f4xx_hal_spi.c ****   * <h2><center>&copy; COPYRIGHT(c) 2017 STMicroelectronics</center></h2>
 127:./Libraries/STM32F4xx_HAL_Driver/Src/stm32f4xx_hal_spi.c ****   *
 128:./Libraries/STM32F4xx_HAL_Driver/Src/stm32f4xx_hal_spi.c ****   * Redistribution and use in source and binary forms, with or without modification,
 129:./Libraries/STM32F4xx_HAL_Driver/Src/stm32f4xx_hal_spi.c ****   * are permitted provided that the following conditions are met:
 130:./Libraries/STM32F4xx_HAL_Driver/Src/stm32f4xx_hal_spi.c ****   *   1. Redistributions of source code must retain the above copyright notice,
 131:./Libraries/STM32F4xx_HAL_Driver/Src/stm32f4xx_hal_spi.c ****   *      this list of conditions and the following disclaimer.
 132:./Libraries/STM32F4xx_HAL_Driver/Src/stm32f4xx_hal_spi.c ****   *   2. Redistributions in binary form must reproduce the above copyright notice,
 133:./Libraries/STM32F4xx_HAL_Driver/Src/stm32f4xx_hal_spi.c ****   *      this list of conditions and the following disclaimer in the documentation
 134:./Libraries/STM32F4xx_HAL_Driver/Src/stm32f4xx_hal_spi.c ****   *      and/or other materials provided with the distribution.
 135:./Libraries/STM32F4xx_HAL_Driver/Src/stm32f4xx_hal_spi.c ****   *   3. Neither the name of STMicroelectronics nor the names of its contributors
 136:./Libraries/STM32F4xx_HAL_Driver/Src/stm32f4xx_hal_spi.c ****   *      may be used to endorse or promote products derived from this software
 137:./Libraries/STM32F4xx_HAL_Driver/Src/stm32f4xx_hal_spi.c ****   *      without specific prior written permission.
 138:./Libraries/STM32F4xx_HAL_Driver/Src/stm32f4xx_hal_spi.c ****   *
 139:./Libraries/STM32F4xx_HAL_Driver/Src/stm32f4xx_hal_spi.c ****   * THIS SOFTWARE IS PROVIDED BY THE COPYRIGHT HOLDERS AND CONTRIBUTORS "AS IS"
 140:./Libraries/STM32F4xx_HAL_Driver/Src/stm32f4xx_hal_spi.c ****   * AND ANY EXPRESS OR IMPLIED WARRANTIES, INCLUDING, BUT NOT LIMITED TO, THE
 141:./Libraries/STM32F4xx_HAL_Driver/Src/stm32f4xx_hal_spi.c ****   * IMPLIED WARRANTIES OF MERCHANTABILITY AND FITNESS FOR A PARTICULAR PURPOSE ARE
 142:./Libraries/STM32F4xx_HAL_Driver/Src/stm32f4xx_hal_spi.c ****   * DISCLAIMED. IN NO EVENT SHALL THE COPYRIGHT HOLDER OR CONTRIBUTORS BE LIABLE
 143:./Libraries/STM32F4xx_HAL_Driver/Src/stm32f4xx_hal_spi.c ****   * FOR ANY DIRECT, INDIRECT, INCIDENTAL, SPECIAL, EXEMPLARY, OR CONSEQUENTIAL
 144:./Libraries/STM32F4xx_HAL_Driver/Src/stm32f4xx_hal_spi.c ****   * DAMAGES (INCLUDING, BUT NOT LIMITED TO, PROCUREMENT OF SUBSTITUTE GOODS OR
ARM GAS  /tmp/ccits0mR.s 			page 4


 145:./Libraries/STM32F4xx_HAL_Driver/Src/stm32f4xx_hal_spi.c ****   * SERVICES; LOSS OF USE, DATA, OR PROFITS; OR BUSINESS INTERRUPTION) HOWEVER
 146:./Libraries/STM32F4xx_HAL_Driver/Src/stm32f4xx_hal_spi.c ****   * CAUSED AND ON ANY THEORY OF LIABILITY, WHETHER IN CONTRACT, STRICT LIABILITY,
 147:./Libraries/STM32F4xx_HAL_Driver/Src/stm32f4xx_hal_spi.c ****   * OR TORT (INCLUDING NEGLIGENCE OR OTHERWISE) ARISING IN ANY WAY OUT OF THE USE
 148:./Libraries/STM32F4xx_HAL_Driver/Src/stm32f4xx_hal_spi.c ****   * OF THIS SOFTWARE, EVEN IF ADVISED OF THE POSSIBILITY OF SUCH DAMAGE.
 149:./Libraries/STM32F4xx_HAL_Driver/Src/stm32f4xx_hal_spi.c ****   *
 150:./Libraries/STM32F4xx_HAL_Driver/Src/stm32f4xx_hal_spi.c ****   ******************************************************************************
 151:./Libraries/STM32F4xx_HAL_Driver/Src/stm32f4xx_hal_spi.c ****   */
 152:./Libraries/STM32F4xx_HAL_Driver/Src/stm32f4xx_hal_spi.c **** 
 153:./Libraries/STM32F4xx_HAL_Driver/Src/stm32f4xx_hal_spi.c **** /* Includes ------------------------------------------------------------------*/
 154:./Libraries/STM32F4xx_HAL_Driver/Src/stm32f4xx_hal_spi.c **** #include "stm32f4xx_hal.h"
 155:./Libraries/STM32F4xx_HAL_Driver/Src/stm32f4xx_hal_spi.c **** 
 156:./Libraries/STM32F4xx_HAL_Driver/Src/stm32f4xx_hal_spi.c **** /** @addtogroup STM32F4xx_HAL_Driver
 157:./Libraries/STM32F4xx_HAL_Driver/Src/stm32f4xx_hal_spi.c ****   * @{
 158:./Libraries/STM32F4xx_HAL_Driver/Src/stm32f4xx_hal_spi.c ****   */
 159:./Libraries/STM32F4xx_HAL_Driver/Src/stm32f4xx_hal_spi.c **** /** @defgroup SPI SPI
 160:./Libraries/STM32F4xx_HAL_Driver/Src/stm32f4xx_hal_spi.c ****   * @brief SPI HAL module driver
 161:./Libraries/STM32F4xx_HAL_Driver/Src/stm32f4xx_hal_spi.c ****   * @{
 162:./Libraries/STM32F4xx_HAL_Driver/Src/stm32f4xx_hal_spi.c ****   */
 163:./Libraries/STM32F4xx_HAL_Driver/Src/stm32f4xx_hal_spi.c **** #ifdef HAL_SPI_MODULE_ENABLED
 164:./Libraries/STM32F4xx_HAL_Driver/Src/stm32f4xx_hal_spi.c **** 
 165:./Libraries/STM32F4xx_HAL_Driver/Src/stm32f4xx_hal_spi.c **** /* Private typedef -----------------------------------------------------------*/
 166:./Libraries/STM32F4xx_HAL_Driver/Src/stm32f4xx_hal_spi.c **** /* Private defines -----------------------------------------------------------*/
 167:./Libraries/STM32F4xx_HAL_Driver/Src/stm32f4xx_hal_spi.c **** /** @defgroup SPI_Private_Constants SPI Private Constants
 168:./Libraries/STM32F4xx_HAL_Driver/Src/stm32f4xx_hal_spi.c ****   * @{
 169:./Libraries/STM32F4xx_HAL_Driver/Src/stm32f4xx_hal_spi.c ****   */
 170:./Libraries/STM32F4xx_HAL_Driver/Src/stm32f4xx_hal_spi.c **** #define SPI_DEFAULT_TIMEOUT 100U
 171:./Libraries/STM32F4xx_HAL_Driver/Src/stm32f4xx_hal_spi.c **** /**
 172:./Libraries/STM32F4xx_HAL_Driver/Src/stm32f4xx_hal_spi.c ****   * @}
 173:./Libraries/STM32F4xx_HAL_Driver/Src/stm32f4xx_hal_spi.c ****   */
 174:./Libraries/STM32F4xx_HAL_Driver/Src/stm32f4xx_hal_spi.c **** 
 175:./Libraries/STM32F4xx_HAL_Driver/Src/stm32f4xx_hal_spi.c **** /* Private macros ------------------------------------------------------------*/
 176:./Libraries/STM32F4xx_HAL_Driver/Src/stm32f4xx_hal_spi.c **** /* Private variables ---------------------------------------------------------*/
 177:./Libraries/STM32F4xx_HAL_Driver/Src/stm32f4xx_hal_spi.c **** /* Private function prototypes -----------------------------------------------*/
 178:./Libraries/STM32F4xx_HAL_Driver/Src/stm32f4xx_hal_spi.c **** /** @addtogroup SPI_Private_Functions
 179:./Libraries/STM32F4xx_HAL_Driver/Src/stm32f4xx_hal_spi.c ****   * @{
 180:./Libraries/STM32F4xx_HAL_Driver/Src/stm32f4xx_hal_spi.c ****   */
 181:./Libraries/STM32F4xx_HAL_Driver/Src/stm32f4xx_hal_spi.c **** static void SPI_DMATransmitCplt(DMA_HandleTypeDef *hdma);
 182:./Libraries/STM32F4xx_HAL_Driver/Src/stm32f4xx_hal_spi.c **** static void SPI_DMAReceiveCplt(DMA_HandleTypeDef *hdma);
 183:./Libraries/STM32F4xx_HAL_Driver/Src/stm32f4xx_hal_spi.c **** static void SPI_DMATransmitReceiveCplt(DMA_HandleTypeDef *hdma);
 184:./Libraries/STM32F4xx_HAL_Driver/Src/stm32f4xx_hal_spi.c **** static void SPI_DMAHalfTransmitCplt(DMA_HandleTypeDef *hdma);
 185:./Libraries/STM32F4xx_HAL_Driver/Src/stm32f4xx_hal_spi.c **** static void SPI_DMAHalfReceiveCplt(DMA_HandleTypeDef *hdma);
 186:./Libraries/STM32F4xx_HAL_Driver/Src/stm32f4xx_hal_spi.c **** static void SPI_DMAHalfTransmitReceiveCplt(DMA_HandleTypeDef *hdma);
 187:./Libraries/STM32F4xx_HAL_Driver/Src/stm32f4xx_hal_spi.c **** static void SPI_DMAError(DMA_HandleTypeDef *hdma);
 188:./Libraries/STM32F4xx_HAL_Driver/Src/stm32f4xx_hal_spi.c **** static void SPI_DMAAbortOnError(DMA_HandleTypeDef *hdma);
 189:./Libraries/STM32F4xx_HAL_Driver/Src/stm32f4xx_hal_spi.c **** static void SPI_DMATxAbortCallback(DMA_HandleTypeDef *hdma);
 190:./Libraries/STM32F4xx_HAL_Driver/Src/stm32f4xx_hal_spi.c **** static void SPI_DMARxAbortCallback(DMA_HandleTypeDef *hdma);
 191:./Libraries/STM32F4xx_HAL_Driver/Src/stm32f4xx_hal_spi.c **** static HAL_StatusTypeDef SPI_WaitFlagStateUntilTimeout(SPI_HandleTypeDef *hspi, uint32_t Flag, uint
 192:./Libraries/STM32F4xx_HAL_Driver/Src/stm32f4xx_hal_spi.c **** static void SPI_TxISR_8BIT(struct __SPI_HandleTypeDef *hspi);
 193:./Libraries/STM32F4xx_HAL_Driver/Src/stm32f4xx_hal_spi.c **** static void SPI_TxISR_16BIT(struct __SPI_HandleTypeDef *hspi);
 194:./Libraries/STM32F4xx_HAL_Driver/Src/stm32f4xx_hal_spi.c **** static void SPI_RxISR_8BIT(struct __SPI_HandleTypeDef *hspi);
 195:./Libraries/STM32F4xx_HAL_Driver/Src/stm32f4xx_hal_spi.c **** static void SPI_RxISR_16BIT(struct __SPI_HandleTypeDef *hspi);
 196:./Libraries/STM32F4xx_HAL_Driver/Src/stm32f4xx_hal_spi.c **** static void SPI_2linesRxISR_8BIT(struct __SPI_HandleTypeDef *hspi);
 197:./Libraries/STM32F4xx_HAL_Driver/Src/stm32f4xx_hal_spi.c **** static void SPI_2linesTxISR_8BIT(struct __SPI_HandleTypeDef *hspi);
 198:./Libraries/STM32F4xx_HAL_Driver/Src/stm32f4xx_hal_spi.c **** static void SPI_2linesTxISR_16BIT(struct __SPI_HandleTypeDef *hspi);
 199:./Libraries/STM32F4xx_HAL_Driver/Src/stm32f4xx_hal_spi.c **** static void SPI_2linesRxISR_16BIT(struct __SPI_HandleTypeDef *hspi);
 200:./Libraries/STM32F4xx_HAL_Driver/Src/stm32f4xx_hal_spi.c **** #if (USE_SPI_CRC != 0U)
 201:./Libraries/STM32F4xx_HAL_Driver/Src/stm32f4xx_hal_spi.c **** static void SPI_RxISR_8BITCRC(struct __SPI_HandleTypeDef *hspi);
ARM GAS  /tmp/ccits0mR.s 			page 5


 202:./Libraries/STM32F4xx_HAL_Driver/Src/stm32f4xx_hal_spi.c **** static void SPI_RxISR_16BITCRC(struct __SPI_HandleTypeDef *hspi);
 203:./Libraries/STM32F4xx_HAL_Driver/Src/stm32f4xx_hal_spi.c **** static void SPI_2linesRxISR_8BITCRC(struct __SPI_HandleTypeDef *hspi);
 204:./Libraries/STM32F4xx_HAL_Driver/Src/stm32f4xx_hal_spi.c **** static void SPI_2linesRxISR_16BITCRC(struct __SPI_HandleTypeDef *hspi);
 205:./Libraries/STM32F4xx_HAL_Driver/Src/stm32f4xx_hal_spi.c **** #endif /* USE_SPI_CRC */
 206:./Libraries/STM32F4xx_HAL_Driver/Src/stm32f4xx_hal_spi.c **** static void SPI_AbortRx_ISR(SPI_HandleTypeDef *hspi);
 207:./Libraries/STM32F4xx_HAL_Driver/Src/stm32f4xx_hal_spi.c **** static void SPI_AbortTx_ISR(SPI_HandleTypeDef *hspi);
 208:./Libraries/STM32F4xx_HAL_Driver/Src/stm32f4xx_hal_spi.c **** static void SPI_CloseRxTx_ISR(SPI_HandleTypeDef *hspi);
 209:./Libraries/STM32F4xx_HAL_Driver/Src/stm32f4xx_hal_spi.c **** static void SPI_CloseRx_ISR(SPI_HandleTypeDef *hspi);
 210:./Libraries/STM32F4xx_HAL_Driver/Src/stm32f4xx_hal_spi.c **** static void SPI_CloseTx_ISR(SPI_HandleTypeDef *hspi);
 211:./Libraries/STM32F4xx_HAL_Driver/Src/stm32f4xx_hal_spi.c **** static HAL_StatusTypeDef SPI_CheckFlag_BSY(SPI_HandleTypeDef *hspi, uint32_t Timeout, uint32_t Tick
 212:./Libraries/STM32F4xx_HAL_Driver/Src/stm32f4xx_hal_spi.c **** /**
 213:./Libraries/STM32F4xx_HAL_Driver/Src/stm32f4xx_hal_spi.c ****   * @}
 214:./Libraries/STM32F4xx_HAL_Driver/Src/stm32f4xx_hal_spi.c ****   */
 215:./Libraries/STM32F4xx_HAL_Driver/Src/stm32f4xx_hal_spi.c **** 
 216:./Libraries/STM32F4xx_HAL_Driver/Src/stm32f4xx_hal_spi.c **** /* Exported functions --------------------------------------------------------*/
 217:./Libraries/STM32F4xx_HAL_Driver/Src/stm32f4xx_hal_spi.c **** /** @defgroup SPI_Exported_Functions SPI Exported Functions
 218:./Libraries/STM32F4xx_HAL_Driver/Src/stm32f4xx_hal_spi.c ****   * @{
 219:./Libraries/STM32F4xx_HAL_Driver/Src/stm32f4xx_hal_spi.c ****   */
 220:./Libraries/STM32F4xx_HAL_Driver/Src/stm32f4xx_hal_spi.c **** 
 221:./Libraries/STM32F4xx_HAL_Driver/Src/stm32f4xx_hal_spi.c **** /** @defgroup SPI_Exported_Functions_Group1 Initialization and de-initialization functions
 222:./Libraries/STM32F4xx_HAL_Driver/Src/stm32f4xx_hal_spi.c ****  *  @brief    Initialization and Configuration functions
 223:./Libraries/STM32F4xx_HAL_Driver/Src/stm32f4xx_hal_spi.c ****  *
 224:./Libraries/STM32F4xx_HAL_Driver/Src/stm32f4xx_hal_spi.c **** @verbatim
 225:./Libraries/STM32F4xx_HAL_Driver/Src/stm32f4xx_hal_spi.c ****  ===============================================================================
 226:./Libraries/STM32F4xx_HAL_Driver/Src/stm32f4xx_hal_spi.c ****               ##### Initialization and de-initialization functions #####
 227:./Libraries/STM32F4xx_HAL_Driver/Src/stm32f4xx_hal_spi.c ****  ===============================================================================
 228:./Libraries/STM32F4xx_HAL_Driver/Src/stm32f4xx_hal_spi.c ****     [..]  This subsection provides a set of functions allowing to initialize and
 229:./Libraries/STM32F4xx_HAL_Driver/Src/stm32f4xx_hal_spi.c ****           de-initialize the SPIx peripheral:
 230:./Libraries/STM32F4xx_HAL_Driver/Src/stm32f4xx_hal_spi.c **** 
 231:./Libraries/STM32F4xx_HAL_Driver/Src/stm32f4xx_hal_spi.c ****       (+) User must implement HAL_SPI_MspInit() function in which he configures
 232:./Libraries/STM32F4xx_HAL_Driver/Src/stm32f4xx_hal_spi.c ****           all related peripherals resources (CLOCK, GPIO, DMA, IT and NVIC ).
 233:./Libraries/STM32F4xx_HAL_Driver/Src/stm32f4xx_hal_spi.c **** 
 234:./Libraries/STM32F4xx_HAL_Driver/Src/stm32f4xx_hal_spi.c ****       (+) Call the function HAL_SPI_Init() to configure the selected device with
 235:./Libraries/STM32F4xx_HAL_Driver/Src/stm32f4xx_hal_spi.c ****           the selected configuration:
 236:./Libraries/STM32F4xx_HAL_Driver/Src/stm32f4xx_hal_spi.c ****         (++) Mode
 237:./Libraries/STM32F4xx_HAL_Driver/Src/stm32f4xx_hal_spi.c ****         (++) Direction
 238:./Libraries/STM32F4xx_HAL_Driver/Src/stm32f4xx_hal_spi.c ****         (++) Data Size
 239:./Libraries/STM32F4xx_HAL_Driver/Src/stm32f4xx_hal_spi.c ****         (++) Clock Polarity and Phase
 240:./Libraries/STM32F4xx_HAL_Driver/Src/stm32f4xx_hal_spi.c ****         (++) NSS Management
 241:./Libraries/STM32F4xx_HAL_Driver/Src/stm32f4xx_hal_spi.c ****         (++) BaudRate Prescaler
 242:./Libraries/STM32F4xx_HAL_Driver/Src/stm32f4xx_hal_spi.c ****         (++) FirstBit
 243:./Libraries/STM32F4xx_HAL_Driver/Src/stm32f4xx_hal_spi.c ****         (++) TIMode
 244:./Libraries/STM32F4xx_HAL_Driver/Src/stm32f4xx_hal_spi.c ****         (++) CRC Calculation
 245:./Libraries/STM32F4xx_HAL_Driver/Src/stm32f4xx_hal_spi.c ****         (++) CRC Polynomial if CRC enabled
 246:./Libraries/STM32F4xx_HAL_Driver/Src/stm32f4xx_hal_spi.c **** 
 247:./Libraries/STM32F4xx_HAL_Driver/Src/stm32f4xx_hal_spi.c ****       (+) Call the function HAL_SPI_DeInit() to restore the default configuration
 248:./Libraries/STM32F4xx_HAL_Driver/Src/stm32f4xx_hal_spi.c ****           of the selected SPIx peripheral.
 249:./Libraries/STM32F4xx_HAL_Driver/Src/stm32f4xx_hal_spi.c **** 
 250:./Libraries/STM32F4xx_HAL_Driver/Src/stm32f4xx_hal_spi.c **** @endverbatim
 251:./Libraries/STM32F4xx_HAL_Driver/Src/stm32f4xx_hal_spi.c ****   * @{
 252:./Libraries/STM32F4xx_HAL_Driver/Src/stm32f4xx_hal_spi.c ****   */
 253:./Libraries/STM32F4xx_HAL_Driver/Src/stm32f4xx_hal_spi.c **** 
 254:./Libraries/STM32F4xx_HAL_Driver/Src/stm32f4xx_hal_spi.c **** /**
 255:./Libraries/STM32F4xx_HAL_Driver/Src/stm32f4xx_hal_spi.c ****   * @brief  Initialize the SPI according to the specified parameters
 256:./Libraries/STM32F4xx_HAL_Driver/Src/stm32f4xx_hal_spi.c ****   *         in the SPI_InitTypeDef and initialize the associated handle.
 257:./Libraries/STM32F4xx_HAL_Driver/Src/stm32f4xx_hal_spi.c ****   * @param  hspi pointer to a SPI_HandleTypeDef structure that contains
 258:./Libraries/STM32F4xx_HAL_Driver/Src/stm32f4xx_hal_spi.c ****   *               the configuration information for SPI module.
ARM GAS  /tmp/ccits0mR.s 			page 6


 259:./Libraries/STM32F4xx_HAL_Driver/Src/stm32f4xx_hal_spi.c ****   * @retval HAL status
 260:./Libraries/STM32F4xx_HAL_Driver/Src/stm32f4xx_hal_spi.c ****   */
 261:./Libraries/STM32F4xx_HAL_Driver/Src/stm32f4xx_hal_spi.c **** HAL_StatusTypeDef HAL_SPI_Init(SPI_HandleTypeDef *hspi)
 262:./Libraries/STM32F4xx_HAL_Driver/Src/stm32f4xx_hal_spi.c **** {
  29              		.loc 1 262 1
  30              		.cfi_startproc
  31              		@ args = 0, pretend = 0, frame = 8
  32              		@ frame_needed = 1, uses_anonymous_args = 0
  33 0000 80B5     		push	{r7, lr}
  34              	.LCFI0:
  35              		.cfi_def_cfa_offset 8
  36              		.cfi_offset 7, -8
  37              		.cfi_offset 14, -4
  38 0002 82B0     		sub	sp, sp, #8
  39              	.LCFI1:
  40              		.cfi_def_cfa_offset 16
  41 0004 00AF     		add	r7, sp, #0
  42              	.LCFI2:
  43              		.cfi_def_cfa_register 7
  44 0006 7860     		str	r0, [r7, #4]
 263:./Libraries/STM32F4xx_HAL_Driver/Src/stm32f4xx_hal_spi.c ****   /* Check the SPI handle allocation */
 264:./Libraries/STM32F4xx_HAL_Driver/Src/stm32f4xx_hal_spi.c ****   if(hspi == NULL)
  45              		.loc 1 264 5
  46 0008 7B68     		ldr	r3, [r7, #4]
  47 000a 002B     		cmp	r3, #0
  48 000c 01D1     		bne	.L2
 265:./Libraries/STM32F4xx_HAL_Driver/Src/stm32f4xx_hal_spi.c ****   {
 266:./Libraries/STM32F4xx_HAL_Driver/Src/stm32f4xx_hal_spi.c ****     return HAL_ERROR;
  49              		.loc 1 266 12
  50 000e 0123     		movs	r3, #1
  51 0010 5DE0     		b	.L3
  52              	.L2:
 267:./Libraries/STM32F4xx_HAL_Driver/Src/stm32f4xx_hal_spi.c ****   }
 268:./Libraries/STM32F4xx_HAL_Driver/Src/stm32f4xx_hal_spi.c **** 
 269:./Libraries/STM32F4xx_HAL_Driver/Src/stm32f4xx_hal_spi.c ****   /* Check the parameters */
 270:./Libraries/STM32F4xx_HAL_Driver/Src/stm32f4xx_hal_spi.c ****   assert_param(IS_SPI_ALL_INSTANCE(hspi->Instance));
 271:./Libraries/STM32F4xx_HAL_Driver/Src/stm32f4xx_hal_spi.c ****   assert_param(IS_SPI_MODE(hspi->Init.Mode));
 272:./Libraries/STM32F4xx_HAL_Driver/Src/stm32f4xx_hal_spi.c ****   assert_param(IS_SPI_DIRECTION(hspi->Init.Direction));
 273:./Libraries/STM32F4xx_HAL_Driver/Src/stm32f4xx_hal_spi.c ****   assert_param(IS_SPI_DATASIZE(hspi->Init.DataSize));
 274:./Libraries/STM32F4xx_HAL_Driver/Src/stm32f4xx_hal_spi.c ****   assert_param(IS_SPI_NSS(hspi->Init.NSS));
 275:./Libraries/STM32F4xx_HAL_Driver/Src/stm32f4xx_hal_spi.c ****   assert_param(IS_SPI_BAUDRATE_PRESCALER(hspi->Init.BaudRatePrescaler));
 276:./Libraries/STM32F4xx_HAL_Driver/Src/stm32f4xx_hal_spi.c ****   assert_param(IS_SPI_FIRST_BIT(hspi->Init.FirstBit));
 277:./Libraries/STM32F4xx_HAL_Driver/Src/stm32f4xx_hal_spi.c ****   assert_param(IS_SPI_TIMODE(hspi->Init.TIMode));
 278:./Libraries/STM32F4xx_HAL_Driver/Src/stm32f4xx_hal_spi.c ****   if(hspi->Init.TIMode == SPI_TIMODE_DISABLE)
 279:./Libraries/STM32F4xx_HAL_Driver/Src/stm32f4xx_hal_spi.c ****   {
 280:./Libraries/STM32F4xx_HAL_Driver/Src/stm32f4xx_hal_spi.c ****     assert_param(IS_SPI_CPOL(hspi->Init.CLKPolarity));
 281:./Libraries/STM32F4xx_HAL_Driver/Src/stm32f4xx_hal_spi.c ****     assert_param(IS_SPI_CPHA(hspi->Init.CLKPhase));
 282:./Libraries/STM32F4xx_HAL_Driver/Src/stm32f4xx_hal_spi.c ****   }
 283:./Libraries/STM32F4xx_HAL_Driver/Src/stm32f4xx_hal_spi.c **** #if (USE_SPI_CRC != 0U)
 284:./Libraries/STM32F4xx_HAL_Driver/Src/stm32f4xx_hal_spi.c ****   assert_param(IS_SPI_CRC_CALCULATION(hspi->Init.CRCCalculation));
 285:./Libraries/STM32F4xx_HAL_Driver/Src/stm32f4xx_hal_spi.c ****   if(hspi->Init.CRCCalculation == SPI_CRCCALCULATION_ENABLE)
 286:./Libraries/STM32F4xx_HAL_Driver/Src/stm32f4xx_hal_spi.c ****   {
 287:./Libraries/STM32F4xx_HAL_Driver/Src/stm32f4xx_hal_spi.c ****     assert_param(IS_SPI_CRC_POLYNOMIAL(hspi->Init.CRCPolynomial));
 288:./Libraries/STM32F4xx_HAL_Driver/Src/stm32f4xx_hal_spi.c ****   }
 289:./Libraries/STM32F4xx_HAL_Driver/Src/stm32f4xx_hal_spi.c **** #else
 290:./Libraries/STM32F4xx_HAL_Driver/Src/stm32f4xx_hal_spi.c ****   hspi->Init.CRCCalculation = SPI_CRCCALCULATION_DISABLE;
 291:./Libraries/STM32F4xx_HAL_Driver/Src/stm32f4xx_hal_spi.c **** #endif /* USE_SPI_CRC */
ARM GAS  /tmp/ccits0mR.s 			page 7


 292:./Libraries/STM32F4xx_HAL_Driver/Src/stm32f4xx_hal_spi.c **** 
 293:./Libraries/STM32F4xx_HAL_Driver/Src/stm32f4xx_hal_spi.c ****   if(hspi->State == HAL_SPI_STATE_RESET)
  53              		.loc 1 293 10
  54 0012 7B68     		ldr	r3, [r7, #4]
  55 0014 93F85130 		ldrb	r3, [r3, #81]
  56 0018 DBB2     		uxtb	r3, r3
  57              		.loc 1 293 5
  58 001a 002B     		cmp	r3, #0
  59 001c 06D1     		bne	.L4
 294:./Libraries/STM32F4xx_HAL_Driver/Src/stm32f4xx_hal_spi.c ****   {
 295:./Libraries/STM32F4xx_HAL_Driver/Src/stm32f4xx_hal_spi.c ****     /* Allocate lock resource and initialize it */
 296:./Libraries/STM32F4xx_HAL_Driver/Src/stm32f4xx_hal_spi.c ****     hspi->Lock = HAL_UNLOCKED;
  60              		.loc 1 296 16
  61 001e 7B68     		ldr	r3, [r7, #4]
  62 0020 0022     		movs	r2, #0
  63 0022 83F85020 		strb	r2, [r3, #80]
 297:./Libraries/STM32F4xx_HAL_Driver/Src/stm32f4xx_hal_spi.c **** 
 298:./Libraries/STM32F4xx_HAL_Driver/Src/stm32f4xx_hal_spi.c ****     /* Init the low level hardware : GPIO, CLOCK, NVIC... */
 299:./Libraries/STM32F4xx_HAL_Driver/Src/stm32f4xx_hal_spi.c ****     HAL_SPI_MspInit(hspi);
  64              		.loc 1 299 5
  65 0026 7868     		ldr	r0, [r7, #4]
  66 0028 FFF7FEFF 		bl	HAL_SPI_MspInit
  67              	.L4:
 300:./Libraries/STM32F4xx_HAL_Driver/Src/stm32f4xx_hal_spi.c ****   }
 301:./Libraries/STM32F4xx_HAL_Driver/Src/stm32f4xx_hal_spi.c **** 
 302:./Libraries/STM32F4xx_HAL_Driver/Src/stm32f4xx_hal_spi.c ****   hspi->State = HAL_SPI_STATE_BUSY;
  68              		.loc 1 302 15
  69 002c 7B68     		ldr	r3, [r7, #4]
  70 002e 0222     		movs	r2, #2
  71 0030 83F85120 		strb	r2, [r3, #81]
 303:./Libraries/STM32F4xx_HAL_Driver/Src/stm32f4xx_hal_spi.c **** 
 304:./Libraries/STM32F4xx_HAL_Driver/Src/stm32f4xx_hal_spi.c ****   /* Disable the selected SPI peripheral */
 305:./Libraries/STM32F4xx_HAL_Driver/Src/stm32f4xx_hal_spi.c ****   __HAL_SPI_DISABLE(hspi);
  72              		.loc 1 305 3
  73 0034 7B68     		ldr	r3, [r7, #4]
  74 0036 1B68     		ldr	r3, [r3]
  75 0038 1A68     		ldr	r2, [r3]
  76 003a 7B68     		ldr	r3, [r7, #4]
  77 003c 1B68     		ldr	r3, [r3]
  78 003e 22F04002 		bic	r2, r2, #64
  79 0042 1A60     		str	r2, [r3]
 306:./Libraries/STM32F4xx_HAL_Driver/Src/stm32f4xx_hal_spi.c **** 
 307:./Libraries/STM32F4xx_HAL_Driver/Src/stm32f4xx_hal_spi.c ****   /*----------------------- SPIx CR1 & CR2 Configuration ---------------------*/
 308:./Libraries/STM32F4xx_HAL_Driver/Src/stm32f4xx_hal_spi.c ****   /* Configure : SPI Mode, Communication Mode, Data size, Clock polarity and phase, NSS management,
 309:./Libraries/STM32F4xx_HAL_Driver/Src/stm32f4xx_hal_spi.c ****   Communication speed, First bit and CRC calculation state */
 310:./Libraries/STM32F4xx_HAL_Driver/Src/stm32f4xx_hal_spi.c ****   WRITE_REG(hspi->Instance->CR1, (hspi->Init.Mode | hspi->Init.Direction | hspi->Init.DataSize |
  80              		.loc 1 310 3
  81 0044 7B68     		ldr	r3, [r7, #4]
  82 0046 5A68     		ldr	r2, [r3, #4]
  83 0048 7B68     		ldr	r3, [r7, #4]
  84 004a 9B68     		ldr	r3, [r3, #8]
  85 004c 1A43     		orrs	r2, r2, r3
  86 004e 7B68     		ldr	r3, [r7, #4]
  87 0050 DB68     		ldr	r3, [r3, #12]
  88 0052 1A43     		orrs	r2, r2, r3
  89 0054 7B68     		ldr	r3, [r7, #4]
  90 0056 1B69     		ldr	r3, [r3, #16]
ARM GAS  /tmp/ccits0mR.s 			page 8


  91 0058 1A43     		orrs	r2, r2, r3
  92 005a 7B68     		ldr	r3, [r7, #4]
  93 005c 5B69     		ldr	r3, [r3, #20]
  94 005e 1A43     		orrs	r2, r2, r3
  95 0060 7B68     		ldr	r3, [r7, #4]
  96 0062 9B69     		ldr	r3, [r3, #24]
  97 0064 03F40073 		and	r3, r3, #512
  98 0068 1A43     		orrs	r2, r2, r3
  99 006a 7B68     		ldr	r3, [r7, #4]
 100 006c DB69     		ldr	r3, [r3, #28]
 101 006e 1A43     		orrs	r2, r2, r3
 102 0070 7B68     		ldr	r3, [r7, #4]
 103 0072 1B6A     		ldr	r3, [r3, #32]
 104 0074 42EA0301 		orr	r1, r2, r3
 105 0078 7B68     		ldr	r3, [r7, #4]
 106 007a 9A6A     		ldr	r2, [r3, #40]
 107 007c 7B68     		ldr	r3, [r7, #4]
 108 007e 1B68     		ldr	r3, [r3]
 109 0080 0A43     		orrs	r2, r2, r1
 110 0082 1A60     		str	r2, [r3]
 311:./Libraries/STM32F4xx_HAL_Driver/Src/stm32f4xx_hal_spi.c ****                                   hspi->Init.CLKPolarity | hspi->Init.CLKPhase | (hspi->Init.NSS & 
 312:./Libraries/STM32F4xx_HAL_Driver/Src/stm32f4xx_hal_spi.c ****                                   hspi->Init.BaudRatePrescaler | hspi->Init.FirstBit  | hspi->Init.
 313:./Libraries/STM32F4xx_HAL_Driver/Src/stm32f4xx_hal_spi.c **** 
 314:./Libraries/STM32F4xx_HAL_Driver/Src/stm32f4xx_hal_spi.c ****   /* Configure : NSS management */
 315:./Libraries/STM32F4xx_HAL_Driver/Src/stm32f4xx_hal_spi.c ****   WRITE_REG(hspi->Instance->CR2, (((hspi->Init.NSS >> 16U) & SPI_CR2_SSOE) | hspi->Init.TIMode));
 111              		.loc 1 315 3
 112 0084 7B68     		ldr	r3, [r7, #4]
 113 0086 9B69     		ldr	r3, [r3, #24]
 114 0088 1B0C     		lsrs	r3, r3, #16
 115 008a 03F00401 		and	r1, r3, #4
 116 008e 7B68     		ldr	r3, [r7, #4]
 117 0090 5A6A     		ldr	r2, [r3, #36]
 118 0092 7B68     		ldr	r3, [r7, #4]
 119 0094 1B68     		ldr	r3, [r3]
 120 0096 0A43     		orrs	r2, r2, r1
 121 0098 5A60     		str	r2, [r3, #4]
 316:./Libraries/STM32F4xx_HAL_Driver/Src/stm32f4xx_hal_spi.c **** 
 317:./Libraries/STM32F4xx_HAL_Driver/Src/stm32f4xx_hal_spi.c **** #if (USE_SPI_CRC != 0U)
 318:./Libraries/STM32F4xx_HAL_Driver/Src/stm32f4xx_hal_spi.c ****   /*---------------------------- SPIx CRCPOLY Configuration ------------------*/
 319:./Libraries/STM32F4xx_HAL_Driver/Src/stm32f4xx_hal_spi.c ****   /* Configure : CRC Polynomial */
 320:./Libraries/STM32F4xx_HAL_Driver/Src/stm32f4xx_hal_spi.c ****   if(hspi->Init.CRCCalculation == SPI_CRCCALCULATION_ENABLE)
 122              		.loc 1 320 16
 123 009a 7B68     		ldr	r3, [r7, #4]
 124 009c 9B6A     		ldr	r3, [r3, #40]
 125              		.loc 1 320 5
 126 009e B3F5005F 		cmp	r3, #8192
 127 00a2 04D1     		bne	.L5
 321:./Libraries/STM32F4xx_HAL_Driver/Src/stm32f4xx_hal_spi.c ****   {
 322:./Libraries/STM32F4xx_HAL_Driver/Src/stm32f4xx_hal_spi.c ****     WRITE_REG(hspi->Instance->CRCPR, hspi->Init.CRCPolynomial);
 128              		.loc 1 322 5
 129 00a4 7B68     		ldr	r3, [r7, #4]
 130 00a6 1B68     		ldr	r3, [r3]
 131 00a8 7A68     		ldr	r2, [r7, #4]
 132 00aa D26A     		ldr	r2, [r2, #44]
 133 00ac 1A61     		str	r2, [r3, #16]
 134              	.L5:
 323:./Libraries/STM32F4xx_HAL_Driver/Src/stm32f4xx_hal_spi.c ****   }
ARM GAS  /tmp/ccits0mR.s 			page 9


 324:./Libraries/STM32F4xx_HAL_Driver/Src/stm32f4xx_hal_spi.c **** #endif /* USE_SPI_CRC */
 325:./Libraries/STM32F4xx_HAL_Driver/Src/stm32f4xx_hal_spi.c **** 
 326:./Libraries/STM32F4xx_HAL_Driver/Src/stm32f4xx_hal_spi.c **** #if defined(SPI_I2SCFGR_I2SMOD)
 327:./Libraries/STM32F4xx_HAL_Driver/Src/stm32f4xx_hal_spi.c ****   /* Activate the SPI mode (Make sure that I2SMOD bit in I2SCFGR register is reset) */
 328:./Libraries/STM32F4xx_HAL_Driver/Src/stm32f4xx_hal_spi.c ****   CLEAR_BIT(hspi->Instance->I2SCFGR, SPI_I2SCFGR_I2SMOD);
 135              		.loc 1 328 3
 136 00ae 7B68     		ldr	r3, [r7, #4]
 137 00b0 1B68     		ldr	r3, [r3]
 138 00b2 DA69     		ldr	r2, [r3, #28]
 139 00b4 7B68     		ldr	r3, [r7, #4]
 140 00b6 1B68     		ldr	r3, [r3]
 141 00b8 22F40062 		bic	r2, r2, #2048
 142 00bc DA61     		str	r2, [r3, #28]
 329:./Libraries/STM32F4xx_HAL_Driver/Src/stm32f4xx_hal_spi.c **** #endif /* USE_SPI_CRC */
 330:./Libraries/STM32F4xx_HAL_Driver/Src/stm32f4xx_hal_spi.c **** 
 331:./Libraries/STM32F4xx_HAL_Driver/Src/stm32f4xx_hal_spi.c ****   hspi->ErrorCode = HAL_SPI_ERROR_NONE;
 143              		.loc 1 331 19
 144 00be 7B68     		ldr	r3, [r7, #4]
 145 00c0 0022     		movs	r2, #0
 146 00c2 5A65     		str	r2, [r3, #84]
 332:./Libraries/STM32F4xx_HAL_Driver/Src/stm32f4xx_hal_spi.c ****   hspi->State     = HAL_SPI_STATE_READY;
 147              		.loc 1 332 19
 148 00c4 7B68     		ldr	r3, [r7, #4]
 149 00c6 0122     		movs	r2, #1
 150 00c8 83F85120 		strb	r2, [r3, #81]
 333:./Libraries/STM32F4xx_HAL_Driver/Src/stm32f4xx_hal_spi.c **** 
 334:./Libraries/STM32F4xx_HAL_Driver/Src/stm32f4xx_hal_spi.c ****   return HAL_OK;
 151              		.loc 1 334 10
 152 00cc 0023     		movs	r3, #0
 153              	.L3:
 335:./Libraries/STM32F4xx_HAL_Driver/Src/stm32f4xx_hal_spi.c **** }
 154              		.loc 1 335 1
 155 00ce 1846     		mov	r0, r3
 156 00d0 0837     		adds	r7, r7, #8
 157              	.LCFI3:
 158              		.cfi_def_cfa_offset 8
 159 00d2 BD46     		mov	sp, r7
 160              	.LCFI4:
 161              		.cfi_def_cfa_register 13
 162              		@ sp needed
 163 00d4 80BD     		pop	{r7, pc}
 164              		.cfi_endproc
 165              	.LFE126:
 167              		.section	.text.HAL_SPI_DeInit,"ax",%progbits
 168              		.align	1
 169              		.global	HAL_SPI_DeInit
 170              		.syntax unified
 171              		.thumb
 172              		.thumb_func
 173              		.fpu fpv4-sp-d16
 175              	HAL_SPI_DeInit:
 176              	.LFB127:
 336:./Libraries/STM32F4xx_HAL_Driver/Src/stm32f4xx_hal_spi.c **** 
 337:./Libraries/STM32F4xx_HAL_Driver/Src/stm32f4xx_hal_spi.c **** /**
 338:./Libraries/STM32F4xx_HAL_Driver/Src/stm32f4xx_hal_spi.c ****   * @brief  De Initialize the SPI peripheral.
 339:./Libraries/STM32F4xx_HAL_Driver/Src/stm32f4xx_hal_spi.c ****   * @param  hspi pointer to a SPI_HandleTypeDef structure that contains
 340:./Libraries/STM32F4xx_HAL_Driver/Src/stm32f4xx_hal_spi.c ****   *               the configuration information for SPI module.
ARM GAS  /tmp/ccits0mR.s 			page 10


 341:./Libraries/STM32F4xx_HAL_Driver/Src/stm32f4xx_hal_spi.c ****   * @retval HAL status
 342:./Libraries/STM32F4xx_HAL_Driver/Src/stm32f4xx_hal_spi.c ****   */
 343:./Libraries/STM32F4xx_HAL_Driver/Src/stm32f4xx_hal_spi.c **** HAL_StatusTypeDef HAL_SPI_DeInit(SPI_HandleTypeDef *hspi)
 344:./Libraries/STM32F4xx_HAL_Driver/Src/stm32f4xx_hal_spi.c **** {
 177              		.loc 1 344 1
 178              		.cfi_startproc
 179              		@ args = 0, pretend = 0, frame = 8
 180              		@ frame_needed = 1, uses_anonymous_args = 0
 181 0000 80B5     		push	{r7, lr}
 182              	.LCFI5:
 183              		.cfi_def_cfa_offset 8
 184              		.cfi_offset 7, -8
 185              		.cfi_offset 14, -4
 186 0002 82B0     		sub	sp, sp, #8
 187              	.LCFI6:
 188              		.cfi_def_cfa_offset 16
 189 0004 00AF     		add	r7, sp, #0
 190              	.LCFI7:
 191              		.cfi_def_cfa_register 7
 192 0006 7860     		str	r0, [r7, #4]
 345:./Libraries/STM32F4xx_HAL_Driver/Src/stm32f4xx_hal_spi.c ****   /* Check the SPI handle allocation */
 346:./Libraries/STM32F4xx_HAL_Driver/Src/stm32f4xx_hal_spi.c ****   if(hspi == NULL)
 193              		.loc 1 346 5
 194 0008 7B68     		ldr	r3, [r7, #4]
 195 000a 002B     		cmp	r3, #0
 196 000c 01D1     		bne	.L7
 347:./Libraries/STM32F4xx_HAL_Driver/Src/stm32f4xx_hal_spi.c ****   {
 348:./Libraries/STM32F4xx_HAL_Driver/Src/stm32f4xx_hal_spi.c ****     return HAL_ERROR;
 197              		.loc 1 348 12
 198 000e 0123     		movs	r3, #1
 199 0010 1AE0     		b	.L8
 200              	.L7:
 349:./Libraries/STM32F4xx_HAL_Driver/Src/stm32f4xx_hal_spi.c ****   }
 350:./Libraries/STM32F4xx_HAL_Driver/Src/stm32f4xx_hal_spi.c **** 
 351:./Libraries/STM32F4xx_HAL_Driver/Src/stm32f4xx_hal_spi.c ****   /* Check SPI Instance parameter */
 352:./Libraries/STM32F4xx_HAL_Driver/Src/stm32f4xx_hal_spi.c ****   assert_param(IS_SPI_ALL_INSTANCE(hspi->Instance));
 353:./Libraries/STM32F4xx_HAL_Driver/Src/stm32f4xx_hal_spi.c **** 
 354:./Libraries/STM32F4xx_HAL_Driver/Src/stm32f4xx_hal_spi.c ****   hspi->State = HAL_SPI_STATE_BUSY;
 201              		.loc 1 354 15
 202 0012 7B68     		ldr	r3, [r7, #4]
 203 0014 0222     		movs	r2, #2
 204 0016 83F85120 		strb	r2, [r3, #81]
 355:./Libraries/STM32F4xx_HAL_Driver/Src/stm32f4xx_hal_spi.c **** 
 356:./Libraries/STM32F4xx_HAL_Driver/Src/stm32f4xx_hal_spi.c ****   /* Disable the SPI Peripheral Clock */
 357:./Libraries/STM32F4xx_HAL_Driver/Src/stm32f4xx_hal_spi.c ****   __HAL_SPI_DISABLE(hspi);
 205              		.loc 1 357 3
 206 001a 7B68     		ldr	r3, [r7, #4]
 207 001c 1B68     		ldr	r3, [r3]
 208 001e 1A68     		ldr	r2, [r3]
 209 0020 7B68     		ldr	r3, [r7, #4]
 210 0022 1B68     		ldr	r3, [r3]
 211 0024 22F04002 		bic	r2, r2, #64
 212 0028 1A60     		str	r2, [r3]
 358:./Libraries/STM32F4xx_HAL_Driver/Src/stm32f4xx_hal_spi.c **** 
 359:./Libraries/STM32F4xx_HAL_Driver/Src/stm32f4xx_hal_spi.c ****   /* DeInit the low level hardware: GPIO, CLOCK, NVIC... */
 360:./Libraries/STM32F4xx_HAL_Driver/Src/stm32f4xx_hal_spi.c ****   HAL_SPI_MspDeInit(hspi);
 213              		.loc 1 360 3
ARM GAS  /tmp/ccits0mR.s 			page 11


 214 002a 7868     		ldr	r0, [r7, #4]
 215 002c FFF7FEFF 		bl	HAL_SPI_MspDeInit
 361:./Libraries/STM32F4xx_HAL_Driver/Src/stm32f4xx_hal_spi.c **** 
 362:./Libraries/STM32F4xx_HAL_Driver/Src/stm32f4xx_hal_spi.c ****   hspi->ErrorCode = HAL_SPI_ERROR_NONE;
 216              		.loc 1 362 19
 217 0030 7B68     		ldr	r3, [r7, #4]
 218 0032 0022     		movs	r2, #0
 219 0034 5A65     		str	r2, [r3, #84]
 363:./Libraries/STM32F4xx_HAL_Driver/Src/stm32f4xx_hal_spi.c ****   hspi->State = HAL_SPI_STATE_RESET;
 220              		.loc 1 363 15
 221 0036 7B68     		ldr	r3, [r7, #4]
 222 0038 0022     		movs	r2, #0
 223 003a 83F85120 		strb	r2, [r3, #81]
 364:./Libraries/STM32F4xx_HAL_Driver/Src/stm32f4xx_hal_spi.c **** 
 365:./Libraries/STM32F4xx_HAL_Driver/Src/stm32f4xx_hal_spi.c ****   /* Release Lock */
 366:./Libraries/STM32F4xx_HAL_Driver/Src/stm32f4xx_hal_spi.c ****   __HAL_UNLOCK(hspi);
 224              		.loc 1 366 3
 225 003e 7B68     		ldr	r3, [r7, #4]
 226 0040 0022     		movs	r2, #0
 227 0042 83F85020 		strb	r2, [r3, #80]
 367:./Libraries/STM32F4xx_HAL_Driver/Src/stm32f4xx_hal_spi.c **** 
 368:./Libraries/STM32F4xx_HAL_Driver/Src/stm32f4xx_hal_spi.c ****   return HAL_OK;
 228              		.loc 1 368 10
 229 0046 0023     		movs	r3, #0
 230              	.L8:
 369:./Libraries/STM32F4xx_HAL_Driver/Src/stm32f4xx_hal_spi.c **** }
 231              		.loc 1 369 1
 232 0048 1846     		mov	r0, r3
 233 004a 0837     		adds	r7, r7, #8
 234              	.LCFI8:
 235              		.cfi_def_cfa_offset 8
 236 004c BD46     		mov	sp, r7
 237              	.LCFI9:
 238              		.cfi_def_cfa_register 13
 239              		@ sp needed
 240 004e 80BD     		pop	{r7, pc}
 241              		.cfi_endproc
 242              	.LFE127:
 244              		.section	.text.HAL_SPI_MspInit,"ax",%progbits
 245              		.align	1
 246              		.weak	HAL_SPI_MspInit
 247              		.syntax unified
 248              		.thumb
 249              		.thumb_func
 250              		.fpu fpv4-sp-d16
 252              	HAL_SPI_MspInit:
 253              	.LFB128:
 370:./Libraries/STM32F4xx_HAL_Driver/Src/stm32f4xx_hal_spi.c **** 
 371:./Libraries/STM32F4xx_HAL_Driver/Src/stm32f4xx_hal_spi.c **** /**
 372:./Libraries/STM32F4xx_HAL_Driver/Src/stm32f4xx_hal_spi.c ****   * @brief  Initialize the SPI MSP.
 373:./Libraries/STM32F4xx_HAL_Driver/Src/stm32f4xx_hal_spi.c ****   * @param  hspi pointer to a SPI_HandleTypeDef structure that contains
 374:./Libraries/STM32F4xx_HAL_Driver/Src/stm32f4xx_hal_spi.c ****   *               the configuration information for SPI module.
 375:./Libraries/STM32F4xx_HAL_Driver/Src/stm32f4xx_hal_spi.c ****   * @retval None
 376:./Libraries/STM32F4xx_HAL_Driver/Src/stm32f4xx_hal_spi.c ****   */
 377:./Libraries/STM32F4xx_HAL_Driver/Src/stm32f4xx_hal_spi.c **** __weak void HAL_SPI_MspInit(SPI_HandleTypeDef *hspi)
 378:./Libraries/STM32F4xx_HAL_Driver/Src/stm32f4xx_hal_spi.c **** {
 254              		.loc 1 378 1
ARM GAS  /tmp/ccits0mR.s 			page 12


 255              		.cfi_startproc
 256              		@ args = 0, pretend = 0, frame = 8
 257              		@ frame_needed = 1, uses_anonymous_args = 0
 258              		@ link register save eliminated.
 259 0000 80B4     		push	{r7}
 260              	.LCFI10:
 261              		.cfi_def_cfa_offset 4
 262              		.cfi_offset 7, -4
 263 0002 83B0     		sub	sp, sp, #12
 264              	.LCFI11:
 265              		.cfi_def_cfa_offset 16
 266 0004 00AF     		add	r7, sp, #0
 267              	.LCFI12:
 268              		.cfi_def_cfa_register 7
 269 0006 7860     		str	r0, [r7, #4]
 379:./Libraries/STM32F4xx_HAL_Driver/Src/stm32f4xx_hal_spi.c ****   /* Prevent unused argument(s) compilation warning */
 380:./Libraries/STM32F4xx_HAL_Driver/Src/stm32f4xx_hal_spi.c ****   UNUSED(hspi);
 381:./Libraries/STM32F4xx_HAL_Driver/Src/stm32f4xx_hal_spi.c ****   /* NOTE : This function should not be modified, when the callback is needed,
 382:./Libraries/STM32F4xx_HAL_Driver/Src/stm32f4xx_hal_spi.c ****             the HAL_SPI_MspInit should be implemented in the user file
 383:./Libraries/STM32F4xx_HAL_Driver/Src/stm32f4xx_hal_spi.c ****   */
 384:./Libraries/STM32F4xx_HAL_Driver/Src/stm32f4xx_hal_spi.c **** }
 270              		.loc 1 384 1
 271 0008 00BF     		nop
 272 000a 0C37     		adds	r7, r7, #12
 273              	.LCFI13:
 274              		.cfi_def_cfa_offset 4
 275 000c BD46     		mov	sp, r7
 276              	.LCFI14:
 277              		.cfi_def_cfa_register 13
 278              		@ sp needed
 279 000e 5DF8047B 		ldr	r7, [sp], #4
 280              	.LCFI15:
 281              		.cfi_restore 7
 282              		.cfi_def_cfa_offset 0
 283 0012 7047     		bx	lr
 284              		.cfi_endproc
 285              	.LFE128:
 287              		.section	.text.HAL_SPI_MspDeInit,"ax",%progbits
 288              		.align	1
 289              		.weak	HAL_SPI_MspDeInit
 290              		.syntax unified
 291              		.thumb
 292              		.thumb_func
 293              		.fpu fpv4-sp-d16
 295              	HAL_SPI_MspDeInit:
 296              	.LFB129:
 385:./Libraries/STM32F4xx_HAL_Driver/Src/stm32f4xx_hal_spi.c **** 
 386:./Libraries/STM32F4xx_HAL_Driver/Src/stm32f4xx_hal_spi.c **** /**
 387:./Libraries/STM32F4xx_HAL_Driver/Src/stm32f4xx_hal_spi.c ****   * @brief  De-Initialize the SPI MSP.
 388:./Libraries/STM32F4xx_HAL_Driver/Src/stm32f4xx_hal_spi.c ****   * @param  hspi pointer to a SPI_HandleTypeDef structure that contains
 389:./Libraries/STM32F4xx_HAL_Driver/Src/stm32f4xx_hal_spi.c ****   *               the configuration information for SPI module.
 390:./Libraries/STM32F4xx_HAL_Driver/Src/stm32f4xx_hal_spi.c ****   * @retval None
 391:./Libraries/STM32F4xx_HAL_Driver/Src/stm32f4xx_hal_spi.c ****   */
 392:./Libraries/STM32F4xx_HAL_Driver/Src/stm32f4xx_hal_spi.c **** __weak void HAL_SPI_MspDeInit(SPI_HandleTypeDef *hspi)
 393:./Libraries/STM32F4xx_HAL_Driver/Src/stm32f4xx_hal_spi.c **** {
 297              		.loc 1 393 1
 298              		.cfi_startproc
ARM GAS  /tmp/ccits0mR.s 			page 13


 299              		@ args = 0, pretend = 0, frame = 8
 300              		@ frame_needed = 1, uses_anonymous_args = 0
 301              		@ link register save eliminated.
 302 0000 80B4     		push	{r7}
 303              	.LCFI16:
 304              		.cfi_def_cfa_offset 4
 305              		.cfi_offset 7, -4
 306 0002 83B0     		sub	sp, sp, #12
 307              	.LCFI17:
 308              		.cfi_def_cfa_offset 16
 309 0004 00AF     		add	r7, sp, #0
 310              	.LCFI18:
 311              		.cfi_def_cfa_register 7
 312 0006 7860     		str	r0, [r7, #4]
 394:./Libraries/STM32F4xx_HAL_Driver/Src/stm32f4xx_hal_spi.c ****   /* Prevent unused argument(s) compilation warning */
 395:./Libraries/STM32F4xx_HAL_Driver/Src/stm32f4xx_hal_spi.c ****   UNUSED(hspi);
 396:./Libraries/STM32F4xx_HAL_Driver/Src/stm32f4xx_hal_spi.c ****   /* NOTE : This function should not be modified, when the callback is needed,
 397:./Libraries/STM32F4xx_HAL_Driver/Src/stm32f4xx_hal_spi.c ****             the HAL_SPI_MspDeInit should be implemented in the user file
 398:./Libraries/STM32F4xx_HAL_Driver/Src/stm32f4xx_hal_spi.c ****   */
 399:./Libraries/STM32F4xx_HAL_Driver/Src/stm32f4xx_hal_spi.c **** }
 313              		.loc 1 399 1
 314 0008 00BF     		nop
 315 000a 0C37     		adds	r7, r7, #12
 316              	.LCFI19:
 317              		.cfi_def_cfa_offset 4
 318 000c BD46     		mov	sp, r7
 319              	.LCFI20:
 320              		.cfi_def_cfa_register 13
 321              		@ sp needed
 322 000e 5DF8047B 		ldr	r7, [sp], #4
 323              	.LCFI21:
 324              		.cfi_restore 7
 325              		.cfi_def_cfa_offset 0
 326 0012 7047     		bx	lr
 327              		.cfi_endproc
 328              	.LFE129:
 330              		.section	.text.HAL_SPI_Transmit,"ax",%progbits
 331              		.align	1
 332              		.global	HAL_SPI_Transmit
 333              		.syntax unified
 334              		.thumb
 335              		.thumb_func
 336              		.fpu fpv4-sp-d16
 338              	HAL_SPI_Transmit:
 339              	.LFB130:
 400:./Libraries/STM32F4xx_HAL_Driver/Src/stm32f4xx_hal_spi.c **** 
 401:./Libraries/STM32F4xx_HAL_Driver/Src/stm32f4xx_hal_spi.c **** /**
 402:./Libraries/STM32F4xx_HAL_Driver/Src/stm32f4xx_hal_spi.c ****   * @}
 403:./Libraries/STM32F4xx_HAL_Driver/Src/stm32f4xx_hal_spi.c ****   */
 404:./Libraries/STM32F4xx_HAL_Driver/Src/stm32f4xx_hal_spi.c **** 
 405:./Libraries/STM32F4xx_HAL_Driver/Src/stm32f4xx_hal_spi.c **** /** @defgroup SPI_Exported_Functions_Group2 IO operation functions
 406:./Libraries/STM32F4xx_HAL_Driver/Src/stm32f4xx_hal_spi.c ****  *  @brief   Data transfers functions
 407:./Libraries/STM32F4xx_HAL_Driver/Src/stm32f4xx_hal_spi.c ****  *
 408:./Libraries/STM32F4xx_HAL_Driver/Src/stm32f4xx_hal_spi.c **** @verbatim
 409:./Libraries/STM32F4xx_HAL_Driver/Src/stm32f4xx_hal_spi.c ****   ==============================================================================
 410:./Libraries/STM32F4xx_HAL_Driver/Src/stm32f4xx_hal_spi.c ****                       ##### IO operation functions #####
 411:./Libraries/STM32F4xx_HAL_Driver/Src/stm32f4xx_hal_spi.c ****  ===============================================================================
ARM GAS  /tmp/ccits0mR.s 			page 14


 412:./Libraries/STM32F4xx_HAL_Driver/Src/stm32f4xx_hal_spi.c ****  [..]
 413:./Libraries/STM32F4xx_HAL_Driver/Src/stm32f4xx_hal_spi.c ****     This subsection provides a set of functions allowing to manage the SPI
 414:./Libraries/STM32F4xx_HAL_Driver/Src/stm32f4xx_hal_spi.c ****     data transfers.
 415:./Libraries/STM32F4xx_HAL_Driver/Src/stm32f4xx_hal_spi.c **** 
 416:./Libraries/STM32F4xx_HAL_Driver/Src/stm32f4xx_hal_spi.c ****     [..] The SPI supports master and slave mode :
 417:./Libraries/STM32F4xx_HAL_Driver/Src/stm32f4xx_hal_spi.c **** 
 418:./Libraries/STM32F4xx_HAL_Driver/Src/stm32f4xx_hal_spi.c ****     (#) There are two modes of transfer:
 419:./Libraries/STM32F4xx_HAL_Driver/Src/stm32f4xx_hal_spi.c ****        (++) Blocking mode: The communication is performed in polling mode.
 420:./Libraries/STM32F4xx_HAL_Driver/Src/stm32f4xx_hal_spi.c ****             The HAL status of all data processing is returned by the same function
 421:./Libraries/STM32F4xx_HAL_Driver/Src/stm32f4xx_hal_spi.c ****             after finishing transfer.
 422:./Libraries/STM32F4xx_HAL_Driver/Src/stm32f4xx_hal_spi.c ****        (++) No-Blocking mode: The communication is performed using Interrupts
 423:./Libraries/STM32F4xx_HAL_Driver/Src/stm32f4xx_hal_spi.c ****             or DMA, These APIs return the HAL status.
 424:./Libraries/STM32F4xx_HAL_Driver/Src/stm32f4xx_hal_spi.c ****             The end of the data processing will be indicated through the
 425:./Libraries/STM32F4xx_HAL_Driver/Src/stm32f4xx_hal_spi.c ****             dedicated SPI IRQ when using Interrupt mode or the DMA IRQ when
 426:./Libraries/STM32F4xx_HAL_Driver/Src/stm32f4xx_hal_spi.c ****             using DMA mode.
 427:./Libraries/STM32F4xx_HAL_Driver/Src/stm32f4xx_hal_spi.c ****             The HAL_SPI_TxCpltCallback(), HAL_SPI_RxCpltCallback() and HAL_SPI_TxRxCpltCallback() u
 428:./Libraries/STM32F4xx_HAL_Driver/Src/stm32f4xx_hal_spi.c ****             will be executed respectively at the end of the transmit or Receive process
 429:./Libraries/STM32F4xx_HAL_Driver/Src/stm32f4xx_hal_spi.c ****             The HAL_SPI_ErrorCallback()user callback will be executed when a communication error is
 430:./Libraries/STM32F4xx_HAL_Driver/Src/stm32f4xx_hal_spi.c **** 
 431:./Libraries/STM32F4xx_HAL_Driver/Src/stm32f4xx_hal_spi.c ****     (#) APIs provided for these 2 transfer modes (Blocking mode or Non blocking mode using either I
 432:./Libraries/STM32F4xx_HAL_Driver/Src/stm32f4xx_hal_spi.c ****         exist for 1Line (simplex) and 2Lines (full duplex) modes.
 433:./Libraries/STM32F4xx_HAL_Driver/Src/stm32f4xx_hal_spi.c **** 
 434:./Libraries/STM32F4xx_HAL_Driver/Src/stm32f4xx_hal_spi.c **** @endverbatim
 435:./Libraries/STM32F4xx_HAL_Driver/Src/stm32f4xx_hal_spi.c ****   * @{
 436:./Libraries/STM32F4xx_HAL_Driver/Src/stm32f4xx_hal_spi.c ****   */
 437:./Libraries/STM32F4xx_HAL_Driver/Src/stm32f4xx_hal_spi.c **** 
 438:./Libraries/STM32F4xx_HAL_Driver/Src/stm32f4xx_hal_spi.c **** /**
 439:./Libraries/STM32F4xx_HAL_Driver/Src/stm32f4xx_hal_spi.c ****   * @brief  Transmit an amount of data in blocking mode.
 440:./Libraries/STM32F4xx_HAL_Driver/Src/stm32f4xx_hal_spi.c ****   * @param  hspi pointer to a SPI_HandleTypeDef structure that contains
 441:./Libraries/STM32F4xx_HAL_Driver/Src/stm32f4xx_hal_spi.c ****   *               the configuration information for SPI module.
 442:./Libraries/STM32F4xx_HAL_Driver/Src/stm32f4xx_hal_spi.c ****   * @param  pData pointer to data buffer
 443:./Libraries/STM32F4xx_HAL_Driver/Src/stm32f4xx_hal_spi.c ****   * @param  Size amount of data to be sent
 444:./Libraries/STM32F4xx_HAL_Driver/Src/stm32f4xx_hal_spi.c ****   * @param  Timeout Timeout duration
 445:./Libraries/STM32F4xx_HAL_Driver/Src/stm32f4xx_hal_spi.c ****   * @retval HAL status
 446:./Libraries/STM32F4xx_HAL_Driver/Src/stm32f4xx_hal_spi.c ****   */
 447:./Libraries/STM32F4xx_HAL_Driver/Src/stm32f4xx_hal_spi.c **** HAL_StatusTypeDef HAL_SPI_Transmit(SPI_HandleTypeDef *hspi, uint8_t *pData, uint16_t Size, uint32_t
 448:./Libraries/STM32F4xx_HAL_Driver/Src/stm32f4xx_hal_spi.c **** {
 340              		.loc 1 448 1
 341              		.cfi_startproc
 342              		@ args = 0, pretend = 0, frame = 32
 343              		@ frame_needed = 1, uses_anonymous_args = 0
 344 0000 80B5     		push	{r7, lr}
 345              	.LCFI22:
 346              		.cfi_def_cfa_offset 8
 347              		.cfi_offset 7, -8
 348              		.cfi_offset 14, -4
 349 0002 8AB0     		sub	sp, sp, #40
 350              	.LCFI23:
 351              		.cfi_def_cfa_offset 48
 352 0004 02AF     		add	r7, sp, #8
 353              	.LCFI24:
 354              		.cfi_def_cfa 7, 40
 355 0006 F860     		str	r0, [r7, #12]
 356 0008 B960     		str	r1, [r7, #8]
 357 000a 3B60     		str	r3, [r7]
 358 000c 1346     		mov	r3, r2	@ movhi
 359 000e FB80     		strh	r3, [r7, #6]	@ movhi
ARM GAS  /tmp/ccits0mR.s 			page 15


 449:./Libraries/STM32F4xx_HAL_Driver/Src/stm32f4xx_hal_spi.c ****   uint32_t tickstart = 0U;
 360              		.loc 1 449 12
 361 0010 0023     		movs	r3, #0
 362 0012 BB61     		str	r3, [r7, #24]
 450:./Libraries/STM32F4xx_HAL_Driver/Src/stm32f4xx_hal_spi.c ****   HAL_StatusTypeDef errorcode = HAL_OK;
 363              		.loc 1 450 21
 364 0014 0023     		movs	r3, #0
 365 0016 FB77     		strb	r3, [r7, #31]
 451:./Libraries/STM32F4xx_HAL_Driver/Src/stm32f4xx_hal_spi.c **** 
 452:./Libraries/STM32F4xx_HAL_Driver/Src/stm32f4xx_hal_spi.c ****   /* Check Direction parameter */
 453:./Libraries/STM32F4xx_HAL_Driver/Src/stm32f4xx_hal_spi.c ****   assert_param(IS_SPI_DIRECTION_2LINES_OR_1LINE(hspi->Init.Direction));
 454:./Libraries/STM32F4xx_HAL_Driver/Src/stm32f4xx_hal_spi.c **** 
 455:./Libraries/STM32F4xx_HAL_Driver/Src/stm32f4xx_hal_spi.c ****   /* Process Locked */
 456:./Libraries/STM32F4xx_HAL_Driver/Src/stm32f4xx_hal_spi.c ****   __HAL_LOCK(hspi);
 366              		.loc 1 456 3
 367 0018 FB68     		ldr	r3, [r7, #12]
 368 001a 93F85030 		ldrb	r3, [r3, #80]	@ zero_extendqisi2
 369 001e 012B     		cmp	r3, #1
 370 0020 01D1     		bne	.L12
 371              		.loc 1 456 3 is_stmt 0 discriminator 1
 372 0022 0223     		movs	r3, #2
 373 0024 48E1     		b	.L13
 374              	.L12:
 375              		.loc 1 456 3 discriminator 2
 376 0026 FB68     		ldr	r3, [r7, #12]
 377 0028 0122     		movs	r2, #1
 378 002a 83F85020 		strb	r2, [r3, #80]
 457:./Libraries/STM32F4xx_HAL_Driver/Src/stm32f4xx_hal_spi.c **** 
 458:./Libraries/STM32F4xx_HAL_Driver/Src/stm32f4xx_hal_spi.c ****   /* Init tickstart for timeout management*/
 459:./Libraries/STM32F4xx_HAL_Driver/Src/stm32f4xx_hal_spi.c ****   tickstart = HAL_GetTick();
 379              		.loc 1 459 15 is_stmt 1 discriminator 2
 380 002e FFF7FEFF 		bl	HAL_GetTick
 381 0032 B861     		str	r0, [r7, #24]
 460:./Libraries/STM32F4xx_HAL_Driver/Src/stm32f4xx_hal_spi.c **** 
 461:./Libraries/STM32F4xx_HAL_Driver/Src/stm32f4xx_hal_spi.c ****   if(hspi->State != HAL_SPI_STATE_READY)
 382              		.loc 1 461 10 discriminator 2
 383 0034 FB68     		ldr	r3, [r7, #12]
 384 0036 93F85130 		ldrb	r3, [r3, #81]
 385 003a DBB2     		uxtb	r3, r3
 386              		.loc 1 461 5 discriminator 2
 387 003c 012B     		cmp	r3, #1
 388 003e 02D0     		beq	.L14
 462:./Libraries/STM32F4xx_HAL_Driver/Src/stm32f4xx_hal_spi.c ****   {
 463:./Libraries/STM32F4xx_HAL_Driver/Src/stm32f4xx_hal_spi.c ****     errorcode = HAL_BUSY;
 389              		.loc 1 463 15
 390 0040 0223     		movs	r3, #2
 391 0042 FB77     		strb	r3, [r7, #31]
 464:./Libraries/STM32F4xx_HAL_Driver/Src/stm32f4xx_hal_spi.c ****     goto error;
 392              		.loc 1 464 5
 393 0044 2FE1     		b	.L15
 394              	.L14:
 465:./Libraries/STM32F4xx_HAL_Driver/Src/stm32f4xx_hal_spi.c ****   }
 466:./Libraries/STM32F4xx_HAL_Driver/Src/stm32f4xx_hal_spi.c **** 
 467:./Libraries/STM32F4xx_HAL_Driver/Src/stm32f4xx_hal_spi.c ****   if((pData == NULL ) || (Size == 0))
 395              		.loc 1 467 5
 396 0046 BB68     		ldr	r3, [r7, #8]
 397 0048 002B     		cmp	r3, #0
ARM GAS  /tmp/ccits0mR.s 			page 16


 398 004a 02D0     		beq	.L16
 399              		.loc 1 467 23 discriminator 1
 400 004c FB88     		ldrh	r3, [r7, #6]
 401 004e 002B     		cmp	r3, #0
 402 0050 02D1     		bne	.L17
 403              	.L16:
 468:./Libraries/STM32F4xx_HAL_Driver/Src/stm32f4xx_hal_spi.c ****   {
 469:./Libraries/STM32F4xx_HAL_Driver/Src/stm32f4xx_hal_spi.c ****     errorcode = HAL_ERROR;
 404              		.loc 1 469 15
 405 0052 0123     		movs	r3, #1
 406 0054 FB77     		strb	r3, [r7, #31]
 470:./Libraries/STM32F4xx_HAL_Driver/Src/stm32f4xx_hal_spi.c ****     goto error;
 407              		.loc 1 470 5
 408 0056 26E1     		b	.L15
 409              	.L17:
 471:./Libraries/STM32F4xx_HAL_Driver/Src/stm32f4xx_hal_spi.c ****   }
 472:./Libraries/STM32F4xx_HAL_Driver/Src/stm32f4xx_hal_spi.c **** 
 473:./Libraries/STM32F4xx_HAL_Driver/Src/stm32f4xx_hal_spi.c ****   /* Set the transaction information */
 474:./Libraries/STM32F4xx_HAL_Driver/Src/stm32f4xx_hal_spi.c ****   hspi->State       = HAL_SPI_STATE_BUSY_TX;
 410              		.loc 1 474 21
 411 0058 FB68     		ldr	r3, [r7, #12]
 412 005a 0322     		movs	r2, #3
 413 005c 83F85120 		strb	r2, [r3, #81]
 475:./Libraries/STM32F4xx_HAL_Driver/Src/stm32f4xx_hal_spi.c ****   hspi->ErrorCode   = HAL_SPI_ERROR_NONE;
 414              		.loc 1 475 21
 415 0060 FB68     		ldr	r3, [r7, #12]
 416 0062 0022     		movs	r2, #0
 417 0064 5A65     		str	r2, [r3, #84]
 476:./Libraries/STM32F4xx_HAL_Driver/Src/stm32f4xx_hal_spi.c ****   hspi->pTxBuffPtr  = (uint8_t *)pData;
 418              		.loc 1 476 21
 419 0066 FB68     		ldr	r3, [r7, #12]
 420 0068 BA68     		ldr	r2, [r7, #8]
 421 006a 1A63     		str	r2, [r3, #48]
 477:./Libraries/STM32F4xx_HAL_Driver/Src/stm32f4xx_hal_spi.c ****   hspi->TxXferSize  = Size;
 422              		.loc 1 477 21
 423 006c FB68     		ldr	r3, [r7, #12]
 424 006e FA88     		ldrh	r2, [r7, #6]	@ movhi
 425 0070 9A86     		strh	r2, [r3, #52]	@ movhi
 478:./Libraries/STM32F4xx_HAL_Driver/Src/stm32f4xx_hal_spi.c ****   hspi->TxXferCount = Size;
 426              		.loc 1 478 21
 427 0072 FB68     		ldr	r3, [r7, #12]
 428 0074 FA88     		ldrh	r2, [r7, #6]	@ movhi
 429 0076 DA86     		strh	r2, [r3, #54]	@ movhi
 479:./Libraries/STM32F4xx_HAL_Driver/Src/stm32f4xx_hal_spi.c **** 
 480:./Libraries/STM32F4xx_HAL_Driver/Src/stm32f4xx_hal_spi.c ****   /*Init field not used in handle to zero */
 481:./Libraries/STM32F4xx_HAL_Driver/Src/stm32f4xx_hal_spi.c ****   hspi->pRxBuffPtr  = (uint8_t *)NULL;
 430              		.loc 1 481 21
 431 0078 FB68     		ldr	r3, [r7, #12]
 432 007a 0022     		movs	r2, #0
 433 007c 9A63     		str	r2, [r3, #56]
 482:./Libraries/STM32F4xx_HAL_Driver/Src/stm32f4xx_hal_spi.c ****   hspi->RxXferSize  = 0U;
 434              		.loc 1 482 21
 435 007e FB68     		ldr	r3, [r7, #12]
 436 0080 0022     		movs	r2, #0
 437 0082 9A87     		strh	r2, [r3, #60]	@ movhi
 483:./Libraries/STM32F4xx_HAL_Driver/Src/stm32f4xx_hal_spi.c ****   hspi->RxXferCount = 0U;
 438              		.loc 1 483 21
ARM GAS  /tmp/ccits0mR.s 			page 17


 439 0084 FB68     		ldr	r3, [r7, #12]
 440 0086 0022     		movs	r2, #0
 441 0088 DA87     		strh	r2, [r3, #62]	@ movhi
 484:./Libraries/STM32F4xx_HAL_Driver/Src/stm32f4xx_hal_spi.c ****   hspi->TxISR       = NULL;
 442              		.loc 1 484 21
 443 008a FB68     		ldr	r3, [r7, #12]
 444 008c 0022     		movs	r2, #0
 445 008e 5A64     		str	r2, [r3, #68]
 485:./Libraries/STM32F4xx_HAL_Driver/Src/stm32f4xx_hal_spi.c ****   hspi->RxISR       = NULL;
 446              		.loc 1 485 21
 447 0090 FB68     		ldr	r3, [r7, #12]
 448 0092 0022     		movs	r2, #0
 449 0094 1A64     		str	r2, [r3, #64]
 486:./Libraries/STM32F4xx_HAL_Driver/Src/stm32f4xx_hal_spi.c **** 
 487:./Libraries/STM32F4xx_HAL_Driver/Src/stm32f4xx_hal_spi.c ****   /* Configure communication direction : 1Line */
 488:./Libraries/STM32F4xx_HAL_Driver/Src/stm32f4xx_hal_spi.c ****   if(hspi->Init.Direction == SPI_DIRECTION_1LINE)
 450              		.loc 1 488 16
 451 0096 FB68     		ldr	r3, [r7, #12]
 452 0098 9B68     		ldr	r3, [r3, #8]
 453              		.loc 1 488 5
 454 009a B3F5004F 		cmp	r3, #32768
 455 009e 07D1     		bne	.L18
 489:./Libraries/STM32F4xx_HAL_Driver/Src/stm32f4xx_hal_spi.c ****   {
 490:./Libraries/STM32F4xx_HAL_Driver/Src/stm32f4xx_hal_spi.c ****     SPI_1LINE_TX(hspi);
 456              		.loc 1 490 5
 457 00a0 FB68     		ldr	r3, [r7, #12]
 458 00a2 1B68     		ldr	r3, [r3]
 459 00a4 1A68     		ldr	r2, [r3]
 460 00a6 FB68     		ldr	r3, [r7, #12]
 461 00a8 1B68     		ldr	r3, [r3]
 462 00aa 42F48042 		orr	r2, r2, #16384
 463 00ae 1A60     		str	r2, [r3]
 464              	.L18:
 491:./Libraries/STM32F4xx_HAL_Driver/Src/stm32f4xx_hal_spi.c ****   }
 492:./Libraries/STM32F4xx_HAL_Driver/Src/stm32f4xx_hal_spi.c **** 
 493:./Libraries/STM32F4xx_HAL_Driver/Src/stm32f4xx_hal_spi.c **** #if (USE_SPI_CRC != 0U)
 494:./Libraries/STM32F4xx_HAL_Driver/Src/stm32f4xx_hal_spi.c ****   /* Reset CRC Calculation */
 495:./Libraries/STM32F4xx_HAL_Driver/Src/stm32f4xx_hal_spi.c ****   if(hspi->Init.CRCCalculation == SPI_CRCCALCULATION_ENABLE)
 465              		.loc 1 495 16
 466 00b0 FB68     		ldr	r3, [r7, #12]
 467 00b2 9B6A     		ldr	r3, [r3, #40]
 468              		.loc 1 495 5
 469 00b4 B3F5005F 		cmp	r3, #8192
 470 00b8 10D1     		bne	.L19
 496:./Libraries/STM32F4xx_HAL_Driver/Src/stm32f4xx_hal_spi.c ****   {
 497:./Libraries/STM32F4xx_HAL_Driver/Src/stm32f4xx_hal_spi.c ****     SPI_RESET_CRC(hspi);
 471              		.loc 1 497 5
 472 00ba FB68     		ldr	r3, [r7, #12]
 473 00bc 1B68     		ldr	r3, [r3]
 474 00be 1968     		ldr	r1, [r3]
 475 00c0 FB68     		ldr	r3, [r7, #12]
 476 00c2 1A68     		ldr	r2, [r3]
 477 00c4 4DF6FF73 		movw	r3, #57343
 478 00c8 0B40     		ands	r3, r3, r1
 479 00ca 1360     		str	r3, [r2]
 480 00cc FB68     		ldr	r3, [r7, #12]
 481 00ce 1B68     		ldr	r3, [r3]
ARM GAS  /tmp/ccits0mR.s 			page 18


 482 00d0 1A68     		ldr	r2, [r3]
 483 00d2 FB68     		ldr	r3, [r7, #12]
 484 00d4 1B68     		ldr	r3, [r3]
 485 00d6 42F40052 		orr	r2, r2, #8192
 486 00da 1A60     		str	r2, [r3]
 487              	.L19:
 498:./Libraries/STM32F4xx_HAL_Driver/Src/stm32f4xx_hal_spi.c ****   }
 499:./Libraries/STM32F4xx_HAL_Driver/Src/stm32f4xx_hal_spi.c **** #endif /* USE_SPI_CRC */
 500:./Libraries/STM32F4xx_HAL_Driver/Src/stm32f4xx_hal_spi.c **** 
 501:./Libraries/STM32F4xx_HAL_Driver/Src/stm32f4xx_hal_spi.c ****   /* Check if the SPI is already enabled */
 502:./Libraries/STM32F4xx_HAL_Driver/Src/stm32f4xx_hal_spi.c ****   if((hspi->Instance->CR1 & SPI_CR1_SPE) != SPI_CR1_SPE)
 488              		.loc 1 502 11
 489 00dc FB68     		ldr	r3, [r7, #12]
 490 00de 1B68     		ldr	r3, [r3]
 491              		.loc 1 502 21
 492 00e0 1B68     		ldr	r3, [r3]
 493              		.loc 1 502 27
 494 00e2 03F04003 		and	r3, r3, #64
 495              		.loc 1 502 5
 496 00e6 402B     		cmp	r3, #64
 497 00e8 07D0     		beq	.L20
 503:./Libraries/STM32F4xx_HAL_Driver/Src/stm32f4xx_hal_spi.c ****   {
 504:./Libraries/STM32F4xx_HAL_Driver/Src/stm32f4xx_hal_spi.c ****     /* Enable SPI peripheral */
 505:./Libraries/STM32F4xx_HAL_Driver/Src/stm32f4xx_hal_spi.c ****     __HAL_SPI_ENABLE(hspi);
 498              		.loc 1 505 5
 499 00ea FB68     		ldr	r3, [r7, #12]
 500 00ec 1B68     		ldr	r3, [r3]
 501 00ee 1A68     		ldr	r2, [r3]
 502 00f0 FB68     		ldr	r3, [r7, #12]
 503 00f2 1B68     		ldr	r3, [r3]
 504 00f4 42F04002 		orr	r2, r2, #64
 505 00f8 1A60     		str	r2, [r3]
 506              	.L20:
 506:./Libraries/STM32F4xx_HAL_Driver/Src/stm32f4xx_hal_spi.c ****   }
 507:./Libraries/STM32F4xx_HAL_Driver/Src/stm32f4xx_hal_spi.c **** 
 508:./Libraries/STM32F4xx_HAL_Driver/Src/stm32f4xx_hal_spi.c ****   /* Transmit data in 16 Bit mode */
 509:./Libraries/STM32F4xx_HAL_Driver/Src/stm32f4xx_hal_spi.c ****   if(hspi->Init.DataSize == SPI_DATASIZE_16BIT)
 507              		.loc 1 509 16
 508 00fa FB68     		ldr	r3, [r7, #12]
 509 00fc DB68     		ldr	r3, [r3, #12]
 510              		.loc 1 509 5
 511 00fe B3F5006F 		cmp	r3, #2048
 512 0102 47D1     		bne	.L21
 510:./Libraries/STM32F4xx_HAL_Driver/Src/stm32f4xx_hal_spi.c ****   {
 511:./Libraries/STM32F4xx_HAL_Driver/Src/stm32f4xx_hal_spi.c ****     if((hspi->Init.Mode == SPI_MODE_SLAVE) || (hspi->TxXferCount == 0x01))
 513              		.loc 1 511 19
 514 0104 FB68     		ldr	r3, [r7, #12]
 515 0106 5B68     		ldr	r3, [r3, #4]
 516              		.loc 1 511 7
 517 0108 002B     		cmp	r3, #0
 518 010a 04D0     		beq	.L22
 519              		.loc 1 511 52 discriminator 1
 520 010c FB68     		ldr	r3, [r7, #12]
 521 010e DB8E     		ldrh	r3, [r3, #54]	@ movhi
 522 0110 9BB2     		uxth	r3, r3
 523              		.loc 1 511 44 discriminator 1
 524 0112 012B     		cmp	r3, #1
ARM GAS  /tmp/ccits0mR.s 			page 19


 525 0114 38D1     		bne	.L24
 526              	.L22:
 512:./Libraries/STM32F4xx_HAL_Driver/Src/stm32f4xx_hal_spi.c ****     {
 513:./Libraries/STM32F4xx_HAL_Driver/Src/stm32f4xx_hal_spi.c ****       hspi->Instance->DR = *((uint16_t *)pData);
 527              		.loc 1 513 28
 528 0116 BB68     		ldr	r3, [r7, #8]
 529 0118 1A88     		ldrh	r2, [r3]
 530              		.loc 1 513 11
 531 011a FB68     		ldr	r3, [r7, #12]
 532 011c 1B68     		ldr	r3, [r3]
 533              		.loc 1 513 26
 534 011e DA60     		str	r2, [r3, #12]
 514:./Libraries/STM32F4xx_HAL_Driver/Src/stm32f4xx_hal_spi.c ****       pData += sizeof(uint16_t);
 535              		.loc 1 514 13
 536 0120 BB68     		ldr	r3, [r7, #8]
 537 0122 0233     		adds	r3, r3, #2
 538 0124 BB60     		str	r3, [r7, #8]
 515:./Libraries/STM32F4xx_HAL_Driver/Src/stm32f4xx_hal_spi.c ****       hspi->TxXferCount--;
 539              		.loc 1 515 11
 540 0126 FB68     		ldr	r3, [r7, #12]
 541 0128 DB8E     		ldrh	r3, [r3, #54]	@ movhi
 542 012a 9BB2     		uxth	r3, r3
 543              		.loc 1 515 24
 544 012c 013B     		subs	r3, r3, #1
 545 012e 9AB2     		uxth	r2, r3
 546 0130 FB68     		ldr	r3, [r7, #12]
 547 0132 DA86     		strh	r2, [r3, #54]	@ movhi
 516:./Libraries/STM32F4xx_HAL_Driver/Src/stm32f4xx_hal_spi.c ****     }
 517:./Libraries/STM32F4xx_HAL_Driver/Src/stm32f4xx_hal_spi.c ****     /* Transmit data in 16 Bit mode */
 518:./Libraries/STM32F4xx_HAL_Driver/Src/stm32f4xx_hal_spi.c ****     while (hspi->TxXferCount > 0U)
 548              		.loc 1 518 11
 549 0134 28E0     		b	.L24
 550              	.L27:
 519:./Libraries/STM32F4xx_HAL_Driver/Src/stm32f4xx_hal_spi.c ****     {
 520:./Libraries/STM32F4xx_HAL_Driver/Src/stm32f4xx_hal_spi.c ****       /* Wait until TXE flag is set to send data */
 521:./Libraries/STM32F4xx_HAL_Driver/Src/stm32f4xx_hal_spi.c ****       if(__HAL_SPI_GET_FLAG(hspi, SPI_FLAG_TXE))
 551              		.loc 1 521 10
 552 0136 FB68     		ldr	r3, [r7, #12]
 553 0138 1B68     		ldr	r3, [r3]
 554 013a 9B68     		ldr	r3, [r3, #8]
 555 013c 03F00203 		and	r3, r3, #2
 556              		.loc 1 521 9
 557 0140 022B     		cmp	r3, #2
 558 0142 0FD1     		bne	.L25
 522:./Libraries/STM32F4xx_HAL_Driver/Src/stm32f4xx_hal_spi.c ****       {
 523:./Libraries/STM32F4xx_HAL_Driver/Src/stm32f4xx_hal_spi.c ****           hspi->Instance->DR = *((uint16_t *)pData);
 559              		.loc 1 523 32
 560 0144 BB68     		ldr	r3, [r7, #8]
 561 0146 1A88     		ldrh	r2, [r3]
 562              		.loc 1 523 15
 563 0148 FB68     		ldr	r3, [r7, #12]
 564 014a 1B68     		ldr	r3, [r3]
 565              		.loc 1 523 30
 566 014c DA60     		str	r2, [r3, #12]
 524:./Libraries/STM32F4xx_HAL_Driver/Src/stm32f4xx_hal_spi.c ****           pData += sizeof(uint16_t);
 567              		.loc 1 524 17
 568 014e BB68     		ldr	r3, [r7, #8]
ARM GAS  /tmp/ccits0mR.s 			page 20


 569 0150 0233     		adds	r3, r3, #2
 570 0152 BB60     		str	r3, [r7, #8]
 525:./Libraries/STM32F4xx_HAL_Driver/Src/stm32f4xx_hal_spi.c ****           hspi->TxXferCount--;
 571              		.loc 1 525 15
 572 0154 FB68     		ldr	r3, [r7, #12]
 573 0156 DB8E     		ldrh	r3, [r3, #54]	@ movhi
 574 0158 9BB2     		uxth	r3, r3
 575              		.loc 1 525 28
 576 015a 013B     		subs	r3, r3, #1
 577 015c 9AB2     		uxth	r2, r3
 578 015e FB68     		ldr	r3, [r7, #12]
 579 0160 DA86     		strh	r2, [r3, #54]	@ movhi
 580 0162 11E0     		b	.L24
 581              	.L25:
 526:./Libraries/STM32F4xx_HAL_Driver/Src/stm32f4xx_hal_spi.c ****       }
 527:./Libraries/STM32F4xx_HAL_Driver/Src/stm32f4xx_hal_spi.c ****       else
 528:./Libraries/STM32F4xx_HAL_Driver/Src/stm32f4xx_hal_spi.c ****       {
 529:./Libraries/STM32F4xx_HAL_Driver/Src/stm32f4xx_hal_spi.c ****         /* Timeout management */
 530:./Libraries/STM32F4xx_HAL_Driver/Src/stm32f4xx_hal_spi.c ****         if((Timeout == 0U) || ((Timeout != HAL_MAX_DELAY) && ((HAL_GetTick()-tickstart) >=  Timeout
 582              		.loc 1 530 11
 583 0164 3B68     		ldr	r3, [r7]
 584 0166 002B     		cmp	r3, #0
 585 0168 0BD0     		beq	.L26
 586              		.loc 1 530 28 discriminator 1
 587 016a 3B68     		ldr	r3, [r7]
 588 016c B3F1FF3F 		cmp	r3, #-1
 589 0170 0AD0     		beq	.L24
 590              		.loc 1 530 64 discriminator 2
 591 0172 FFF7FEFF 		bl	HAL_GetTick
 592 0176 0246     		mov	r2, r0
 593              		.loc 1 530 77 discriminator 2
 594 0178 BB69     		ldr	r3, [r7, #24]
 595 017a D31A     		subs	r3, r2, r3
 596              		.loc 1 530 59 discriminator 2
 597 017c 3A68     		ldr	r2, [r7]
 598 017e 9A42     		cmp	r2, r3
 599 0180 02D8     		bhi	.L24
 600              	.L26:
 531:./Libraries/STM32F4xx_HAL_Driver/Src/stm32f4xx_hal_spi.c ****         {
 532:./Libraries/STM32F4xx_HAL_Driver/Src/stm32f4xx_hal_spi.c ****           errorcode = HAL_TIMEOUT;
 601              		.loc 1 532 21
 602 0182 0323     		movs	r3, #3
 603 0184 FB77     		strb	r3, [r7, #31]
 533:./Libraries/STM32F4xx_HAL_Driver/Src/stm32f4xx_hal_spi.c ****           goto error;
 604              		.loc 1 533 11
 605 0186 8EE0     		b	.L15
 606              	.L24:
 518:./Libraries/STM32F4xx_HAL_Driver/Src/stm32f4xx_hal_spi.c ****     {
 607              		.loc 1 518 16
 608 0188 FB68     		ldr	r3, [r7, #12]
 609 018a DB8E     		ldrh	r3, [r3, #54]	@ movhi
 610 018c 9BB2     		uxth	r3, r3
 518:./Libraries/STM32F4xx_HAL_Driver/Src/stm32f4xx_hal_spi.c ****     {
 611              		.loc 1 518 11
 612 018e 002B     		cmp	r3, #0
 613 0190 D1D1     		bne	.L27
 614 0192 48E0     		b	.L28
ARM GAS  /tmp/ccits0mR.s 			page 21


 615              	.L21:
 534:./Libraries/STM32F4xx_HAL_Driver/Src/stm32f4xx_hal_spi.c ****         }
 535:./Libraries/STM32F4xx_HAL_Driver/Src/stm32f4xx_hal_spi.c ****       }
 536:./Libraries/STM32F4xx_HAL_Driver/Src/stm32f4xx_hal_spi.c ****     }
 537:./Libraries/STM32F4xx_HAL_Driver/Src/stm32f4xx_hal_spi.c ****   }
 538:./Libraries/STM32F4xx_HAL_Driver/Src/stm32f4xx_hal_spi.c ****   /* Transmit data in 8 Bit mode */
 539:./Libraries/STM32F4xx_HAL_Driver/Src/stm32f4xx_hal_spi.c ****   else
 540:./Libraries/STM32F4xx_HAL_Driver/Src/stm32f4xx_hal_spi.c ****   {
 541:./Libraries/STM32F4xx_HAL_Driver/Src/stm32f4xx_hal_spi.c ****     if((hspi->Init.Mode == SPI_MODE_SLAVE)|| (hspi->TxXferCount == 0x01))
 616              		.loc 1 541 19
 617 0194 FB68     		ldr	r3, [r7, #12]
 618 0196 5B68     		ldr	r3, [r3, #4]
 619              		.loc 1 541 7
 620 0198 002B     		cmp	r3, #0
 621 019a 04D0     		beq	.L29
 622              		.loc 1 541 51 discriminator 1
 623 019c FB68     		ldr	r3, [r7, #12]
 624 019e DB8E     		ldrh	r3, [r3, #54]	@ movhi
 625 01a0 9BB2     		uxth	r3, r3
 626              		.loc 1 541 43 discriminator 1
 627 01a2 012B     		cmp	r3, #1
 628 01a4 3AD1     		bne	.L31
 629              	.L29:
 542:./Libraries/STM32F4xx_HAL_Driver/Src/stm32f4xx_hal_spi.c ****     {
 543:./Libraries/STM32F4xx_HAL_Driver/Src/stm32f4xx_hal_spi.c ****       *((__IO uint8_t*)&hspi->Instance->DR) = (*pData);
 630              		.loc 1 543 29
 631 01a6 FB68     		ldr	r3, [r7, #12]
 632 01a8 1B68     		ldr	r3, [r3]
 633              		.loc 1 543 24
 634 01aa 0C33     		adds	r3, r3, #12
 635              		.loc 1 543 48
 636 01ac BA68     		ldr	r2, [r7, #8]
 637 01ae 1278     		ldrb	r2, [r2]	@ zero_extendqisi2
 638              		.loc 1 543 45
 639 01b0 1A70     		strb	r2, [r3]
 544:./Libraries/STM32F4xx_HAL_Driver/Src/stm32f4xx_hal_spi.c ****       pData += sizeof(uint8_t);
 640              		.loc 1 544 13
 641 01b2 BB68     		ldr	r3, [r7, #8]
 642 01b4 0133     		adds	r3, r3, #1
 643 01b6 BB60     		str	r3, [r7, #8]
 545:./Libraries/STM32F4xx_HAL_Driver/Src/stm32f4xx_hal_spi.c ****       hspi->TxXferCount--;
 644              		.loc 1 545 11
 645 01b8 FB68     		ldr	r3, [r7, #12]
 646 01ba DB8E     		ldrh	r3, [r3, #54]	@ movhi
 647 01bc 9BB2     		uxth	r3, r3
 648              		.loc 1 545 24
 649 01be 013B     		subs	r3, r3, #1
 650 01c0 9AB2     		uxth	r2, r3
 651 01c2 FB68     		ldr	r3, [r7, #12]
 652 01c4 DA86     		strh	r2, [r3, #54]	@ movhi
 546:./Libraries/STM32F4xx_HAL_Driver/Src/stm32f4xx_hal_spi.c ****     }
 547:./Libraries/STM32F4xx_HAL_Driver/Src/stm32f4xx_hal_spi.c ****     while (hspi->TxXferCount > 0U)
 653              		.loc 1 547 11
 654 01c6 29E0     		b	.L31
 655              	.L34:
 548:./Libraries/STM32F4xx_HAL_Driver/Src/stm32f4xx_hal_spi.c ****     {
 549:./Libraries/STM32F4xx_HAL_Driver/Src/stm32f4xx_hal_spi.c ****       /* Wait until TXE flag is set to send data */
ARM GAS  /tmp/ccits0mR.s 			page 22


 550:./Libraries/STM32F4xx_HAL_Driver/Src/stm32f4xx_hal_spi.c ****       if(__HAL_SPI_GET_FLAG(hspi, SPI_FLAG_TXE))
 656              		.loc 1 550 10
 657 01c8 FB68     		ldr	r3, [r7, #12]
 658 01ca 1B68     		ldr	r3, [r3]
 659 01cc 9B68     		ldr	r3, [r3, #8]
 660 01ce 03F00203 		and	r3, r3, #2
 661              		.loc 1 550 9
 662 01d2 022B     		cmp	r3, #2
 663 01d4 10D1     		bne	.L32
 551:./Libraries/STM32F4xx_HAL_Driver/Src/stm32f4xx_hal_spi.c ****       {
 552:./Libraries/STM32F4xx_HAL_Driver/Src/stm32f4xx_hal_spi.c ****         *((__IO uint8_t*)&hspi->Instance->DR) = (*pData);
 664              		.loc 1 552 31
 665 01d6 FB68     		ldr	r3, [r7, #12]
 666 01d8 1B68     		ldr	r3, [r3]
 667              		.loc 1 552 26
 668 01da 0C33     		adds	r3, r3, #12
 669              		.loc 1 552 50
 670 01dc BA68     		ldr	r2, [r7, #8]
 671 01de 1278     		ldrb	r2, [r2]	@ zero_extendqisi2
 672              		.loc 1 552 47
 673 01e0 1A70     		strb	r2, [r3]
 553:./Libraries/STM32F4xx_HAL_Driver/Src/stm32f4xx_hal_spi.c ****         pData += sizeof(uint8_t);
 674              		.loc 1 553 15
 675 01e2 BB68     		ldr	r3, [r7, #8]
 676 01e4 0133     		adds	r3, r3, #1
 677 01e6 BB60     		str	r3, [r7, #8]
 554:./Libraries/STM32F4xx_HAL_Driver/Src/stm32f4xx_hal_spi.c ****         hspi->TxXferCount--;
 678              		.loc 1 554 13
 679 01e8 FB68     		ldr	r3, [r7, #12]
 680 01ea DB8E     		ldrh	r3, [r3, #54]	@ movhi
 681 01ec 9BB2     		uxth	r3, r3
 682              		.loc 1 554 26
 683 01ee 013B     		subs	r3, r3, #1
 684 01f0 9AB2     		uxth	r2, r3
 685 01f2 FB68     		ldr	r3, [r7, #12]
 686 01f4 DA86     		strh	r2, [r3, #54]	@ movhi
 687 01f6 11E0     		b	.L31
 688              	.L32:
 555:./Libraries/STM32F4xx_HAL_Driver/Src/stm32f4xx_hal_spi.c ****       }
 556:./Libraries/STM32F4xx_HAL_Driver/Src/stm32f4xx_hal_spi.c ****       else
 557:./Libraries/STM32F4xx_HAL_Driver/Src/stm32f4xx_hal_spi.c ****       {
 558:./Libraries/STM32F4xx_HAL_Driver/Src/stm32f4xx_hal_spi.c ****         /* Timeout management */
 559:./Libraries/STM32F4xx_HAL_Driver/Src/stm32f4xx_hal_spi.c ****         if((Timeout == 0U) || ((Timeout != HAL_MAX_DELAY) && ((HAL_GetTick()-tickstart) >=  Timeout
 689              		.loc 1 559 11
 690 01f8 3B68     		ldr	r3, [r7]
 691 01fa 002B     		cmp	r3, #0
 692 01fc 0BD0     		beq	.L33
 693              		.loc 1 559 28 discriminator 1
 694 01fe 3B68     		ldr	r3, [r7]
 695 0200 B3F1FF3F 		cmp	r3, #-1
 696 0204 0AD0     		beq	.L31
 697              		.loc 1 559 64 discriminator 2
 698 0206 FFF7FEFF 		bl	HAL_GetTick
 699 020a 0246     		mov	r2, r0
 700              		.loc 1 559 77 discriminator 2
 701 020c BB69     		ldr	r3, [r7, #24]
 702 020e D31A     		subs	r3, r2, r3
ARM GAS  /tmp/ccits0mR.s 			page 23


 703              		.loc 1 559 59 discriminator 2
 704 0210 3A68     		ldr	r2, [r7]
 705 0212 9A42     		cmp	r2, r3
 706 0214 02D8     		bhi	.L31
 707              	.L33:
 560:./Libraries/STM32F4xx_HAL_Driver/Src/stm32f4xx_hal_spi.c ****         {
 561:./Libraries/STM32F4xx_HAL_Driver/Src/stm32f4xx_hal_spi.c ****           errorcode = HAL_TIMEOUT;
 708              		.loc 1 561 21
 709 0216 0323     		movs	r3, #3
 710 0218 FB77     		strb	r3, [r7, #31]
 562:./Libraries/STM32F4xx_HAL_Driver/Src/stm32f4xx_hal_spi.c ****           goto error;
 711              		.loc 1 562 11
 712 021a 44E0     		b	.L15
 713              	.L31:
 547:./Libraries/STM32F4xx_HAL_Driver/Src/stm32f4xx_hal_spi.c ****     {
 714              		.loc 1 547 16
 715 021c FB68     		ldr	r3, [r7, #12]
 716 021e DB8E     		ldrh	r3, [r3, #54]	@ movhi
 717 0220 9BB2     		uxth	r3, r3
 547:./Libraries/STM32F4xx_HAL_Driver/Src/stm32f4xx_hal_spi.c ****     {
 718              		.loc 1 547 11
 719 0222 002B     		cmp	r3, #0
 720 0224 D0D1     		bne	.L34
 721              	.L28:
 563:./Libraries/STM32F4xx_HAL_Driver/Src/stm32f4xx_hal_spi.c ****         }
 564:./Libraries/STM32F4xx_HAL_Driver/Src/stm32f4xx_hal_spi.c ****       }
 565:./Libraries/STM32F4xx_HAL_Driver/Src/stm32f4xx_hal_spi.c ****     }
 566:./Libraries/STM32F4xx_HAL_Driver/Src/stm32f4xx_hal_spi.c ****   }
 567:./Libraries/STM32F4xx_HAL_Driver/Src/stm32f4xx_hal_spi.c **** 
 568:./Libraries/STM32F4xx_HAL_Driver/Src/stm32f4xx_hal_spi.c ****   /* Wait until TXE flag */
 569:./Libraries/STM32F4xx_HAL_Driver/Src/stm32f4xx_hal_spi.c ****   if(SPI_WaitFlagStateUntilTimeout(hspi, SPI_FLAG_TXE, SET, Timeout, tickstart) != HAL_OK)
 722              		.loc 1 569 6
 723 0226 BB69     		ldr	r3, [r7, #24]
 724 0228 0093     		str	r3, [sp]
 725 022a 3B68     		ldr	r3, [r7]
 726 022c 0122     		movs	r2, #1
 727 022e 0221     		movs	r1, #2
 728 0230 F868     		ldr	r0, [r7, #12]
 729 0232 FFF7FEFF 		bl	SPI_WaitFlagStateUntilTimeout
 730 0236 0346     		mov	r3, r0
 731              		.loc 1 569 5
 732 0238 002B     		cmp	r3, #0
 733 023a 02D0     		beq	.L35
 570:./Libraries/STM32F4xx_HAL_Driver/Src/stm32f4xx_hal_spi.c ****   {
 571:./Libraries/STM32F4xx_HAL_Driver/Src/stm32f4xx_hal_spi.c ****     errorcode = HAL_TIMEOUT;
 734              		.loc 1 571 15
 735 023c 0323     		movs	r3, #3
 736 023e FB77     		strb	r3, [r7, #31]
 572:./Libraries/STM32F4xx_HAL_Driver/Src/stm32f4xx_hal_spi.c ****     goto error;
 737              		.loc 1 572 5
 738 0240 31E0     		b	.L15
 739              	.L35:
 573:./Libraries/STM32F4xx_HAL_Driver/Src/stm32f4xx_hal_spi.c ****   }
 574:./Libraries/STM32F4xx_HAL_Driver/Src/stm32f4xx_hal_spi.c ****   
 575:./Libraries/STM32F4xx_HAL_Driver/Src/stm32f4xx_hal_spi.c ****   /* Check Busy flag */
 576:./Libraries/STM32F4xx_HAL_Driver/Src/stm32f4xx_hal_spi.c ****   if(SPI_CheckFlag_BSY(hspi, Timeout, tickstart) != HAL_OK)
 740              		.loc 1 576 6
ARM GAS  /tmp/ccits0mR.s 			page 24


 741 0242 BA69     		ldr	r2, [r7, #24]
 742 0244 3968     		ldr	r1, [r7]
 743 0246 F868     		ldr	r0, [r7, #12]
 744 0248 FFF7FEFF 		bl	SPI_CheckFlag_BSY
 745 024c 0346     		mov	r3, r0
 746              		.loc 1 576 5
 747 024e 002B     		cmp	r3, #0
 748 0250 05D0     		beq	.L36
 577:./Libraries/STM32F4xx_HAL_Driver/Src/stm32f4xx_hal_spi.c ****   {
 578:./Libraries/STM32F4xx_HAL_Driver/Src/stm32f4xx_hal_spi.c ****     errorcode = HAL_ERROR;
 749              		.loc 1 578 15
 750 0252 0123     		movs	r3, #1
 751 0254 FB77     		strb	r3, [r7, #31]
 579:./Libraries/STM32F4xx_HAL_Driver/Src/stm32f4xx_hal_spi.c ****     hspi->ErrorCode = HAL_SPI_ERROR_FLAG;
 752              		.loc 1 579 21
 753 0256 FB68     		ldr	r3, [r7, #12]
 754 0258 2022     		movs	r2, #32
 755 025a 5A65     		str	r2, [r3, #84]
 580:./Libraries/STM32F4xx_HAL_Driver/Src/stm32f4xx_hal_spi.c ****     goto error;
 756              		.loc 1 580 5
 757 025c 23E0     		b	.L15
 758              	.L36:
 581:./Libraries/STM32F4xx_HAL_Driver/Src/stm32f4xx_hal_spi.c ****   }
 582:./Libraries/STM32F4xx_HAL_Driver/Src/stm32f4xx_hal_spi.c **** 
 583:./Libraries/STM32F4xx_HAL_Driver/Src/stm32f4xx_hal_spi.c ****   /* Clear overrun flag in 2 Lines communication mode because received is not read */
 584:./Libraries/STM32F4xx_HAL_Driver/Src/stm32f4xx_hal_spi.c ****   if(hspi->Init.Direction == SPI_DIRECTION_2LINES)
 759              		.loc 1 584 16
 760 025e FB68     		ldr	r3, [r7, #12]
 761 0260 9B68     		ldr	r3, [r3, #8]
 762              		.loc 1 584 5
 763 0262 002B     		cmp	r3, #0
 764 0264 0AD1     		bne	.L37
 765              	.LBB2:
 585:./Libraries/STM32F4xx_HAL_Driver/Src/stm32f4xx_hal_spi.c ****   {
 586:./Libraries/STM32F4xx_HAL_Driver/Src/stm32f4xx_hal_spi.c ****     __HAL_SPI_CLEAR_OVRFLAG(hspi);
 766              		.loc 1 586 5
 767 0266 0023     		movs	r3, #0
 768 0268 7B61     		str	r3, [r7, #20]
 769 026a FB68     		ldr	r3, [r7, #12]
 770 026c 1B68     		ldr	r3, [r3]
 771 026e DB68     		ldr	r3, [r3, #12]
 772 0270 7B61     		str	r3, [r7, #20]
 773 0272 FB68     		ldr	r3, [r7, #12]
 774 0274 1B68     		ldr	r3, [r3]
 775 0276 9B68     		ldr	r3, [r3, #8]
 776 0278 7B61     		str	r3, [r7, #20]
 777 027a 7B69     		ldr	r3, [r7, #20]
 778              	.L37:
 779              	.LBE2:
 587:./Libraries/STM32F4xx_HAL_Driver/Src/stm32f4xx_hal_spi.c ****   }
 588:./Libraries/STM32F4xx_HAL_Driver/Src/stm32f4xx_hal_spi.c **** #if (USE_SPI_CRC != 0U)
 589:./Libraries/STM32F4xx_HAL_Driver/Src/stm32f4xx_hal_spi.c ****   /* Enable CRC Transmission */
 590:./Libraries/STM32F4xx_HAL_Driver/Src/stm32f4xx_hal_spi.c ****   if(hspi->Init.CRCCalculation == SPI_CRCCALCULATION_ENABLE)
 780              		.loc 1 590 16
 781 027c FB68     		ldr	r3, [r7, #12]
 782 027e 9B6A     		ldr	r3, [r3, #40]
 783              		.loc 1 590 5
ARM GAS  /tmp/ccits0mR.s 			page 25


 784 0280 B3F5005F 		cmp	r3, #8192
 785 0284 07D1     		bne	.L38
 591:./Libraries/STM32F4xx_HAL_Driver/Src/stm32f4xx_hal_spi.c ****   {
 592:./Libraries/STM32F4xx_HAL_Driver/Src/stm32f4xx_hal_spi.c ****      SET_BIT(hspi->Instance->CR1, SPI_CR1_CRCNEXT);
 786              		.loc 1 592 6
 787 0286 FB68     		ldr	r3, [r7, #12]
 788 0288 1B68     		ldr	r3, [r3]
 789 028a 1A68     		ldr	r2, [r3]
 790 028c FB68     		ldr	r3, [r7, #12]
 791 028e 1B68     		ldr	r3, [r3]
 792 0290 42F48052 		orr	r2, r2, #4096
 793 0294 1A60     		str	r2, [r3]
 794              	.L38:
 593:./Libraries/STM32F4xx_HAL_Driver/Src/stm32f4xx_hal_spi.c ****   }
 594:./Libraries/STM32F4xx_HAL_Driver/Src/stm32f4xx_hal_spi.c **** #endif /* USE_SPI_CRC */
 595:./Libraries/STM32F4xx_HAL_Driver/Src/stm32f4xx_hal_spi.c **** 
 596:./Libraries/STM32F4xx_HAL_Driver/Src/stm32f4xx_hal_spi.c ****   if(hspi->ErrorCode != HAL_SPI_ERROR_NONE)
 795              		.loc 1 596 10
 796 0296 FB68     		ldr	r3, [r7, #12]
 797 0298 5B6D     		ldr	r3, [r3, #84]
 798              		.loc 1 596 5
 799 029a 002B     		cmp	r3, #0
 800 029c 02D0     		beq	.L39
 597:./Libraries/STM32F4xx_HAL_Driver/Src/stm32f4xx_hal_spi.c ****   {
 598:./Libraries/STM32F4xx_HAL_Driver/Src/stm32f4xx_hal_spi.c ****     errorcode = HAL_ERROR;
 801              		.loc 1 598 15
 802 029e 0123     		movs	r3, #1
 803 02a0 FB77     		strb	r3, [r7, #31]
 804 02a2 00E0     		b	.L15
 805              	.L39:
 599:./Libraries/STM32F4xx_HAL_Driver/Src/stm32f4xx_hal_spi.c ****   }
 600:./Libraries/STM32F4xx_HAL_Driver/Src/stm32f4xx_hal_spi.c **** 
 601:./Libraries/STM32F4xx_HAL_Driver/Src/stm32f4xx_hal_spi.c **** error:
 806              		.loc 1 601 1
 807 02a4 00BF     		nop
 808              	.L15:
 602:./Libraries/STM32F4xx_HAL_Driver/Src/stm32f4xx_hal_spi.c ****   hspi->State = HAL_SPI_STATE_READY;
 809              		.loc 1 602 15
 810 02a6 FB68     		ldr	r3, [r7, #12]
 811 02a8 0122     		movs	r2, #1
 812 02aa 83F85120 		strb	r2, [r3, #81]
 603:./Libraries/STM32F4xx_HAL_Driver/Src/stm32f4xx_hal_spi.c ****   /* Process Unlocked */
 604:./Libraries/STM32F4xx_HAL_Driver/Src/stm32f4xx_hal_spi.c ****   __HAL_UNLOCK(hspi);
 813              		.loc 1 604 3
 814 02ae FB68     		ldr	r3, [r7, #12]
 815 02b0 0022     		movs	r2, #0
 816 02b2 83F85020 		strb	r2, [r3, #80]
 605:./Libraries/STM32F4xx_HAL_Driver/Src/stm32f4xx_hal_spi.c ****   return errorcode;
 817              		.loc 1 605 10
 818 02b6 FB7F     		ldrb	r3, [r7, #31]	@ zero_extendqisi2
 819              	.L13:
 606:./Libraries/STM32F4xx_HAL_Driver/Src/stm32f4xx_hal_spi.c **** }
 820              		.loc 1 606 1
 821 02b8 1846     		mov	r0, r3
 822 02ba 2037     		adds	r7, r7, #32
 823              	.LCFI25:
 824              		.cfi_def_cfa_offset 8
ARM GAS  /tmp/ccits0mR.s 			page 26


 825 02bc BD46     		mov	sp, r7
 826              	.LCFI26:
 827              		.cfi_def_cfa_register 13
 828              		@ sp needed
 829 02be 80BD     		pop	{r7, pc}
 830              		.cfi_endproc
 831              	.LFE130:
 833              		.section	.text.HAL_SPI_Receive,"ax",%progbits
 834              		.align	1
 835              		.global	HAL_SPI_Receive
 836              		.syntax unified
 837              		.thumb
 838              		.thumb_func
 839              		.fpu fpv4-sp-d16
 841              	HAL_SPI_Receive:
 842              	.LFB131:
 607:./Libraries/STM32F4xx_HAL_Driver/Src/stm32f4xx_hal_spi.c **** 
 608:./Libraries/STM32F4xx_HAL_Driver/Src/stm32f4xx_hal_spi.c **** /**
 609:./Libraries/STM32F4xx_HAL_Driver/Src/stm32f4xx_hal_spi.c ****   * @brief  Receive an amount of data in blocking mode.
 610:./Libraries/STM32F4xx_HAL_Driver/Src/stm32f4xx_hal_spi.c ****   * @param  hspi pointer to a SPI_HandleTypeDef structure that contains
 611:./Libraries/STM32F4xx_HAL_Driver/Src/stm32f4xx_hal_spi.c ****   *               the configuration information for SPI module.
 612:./Libraries/STM32F4xx_HAL_Driver/Src/stm32f4xx_hal_spi.c ****   * @param  pData pointer to data buffer
 613:./Libraries/STM32F4xx_HAL_Driver/Src/stm32f4xx_hal_spi.c ****   * @param  Size amount of data to be received
 614:./Libraries/STM32F4xx_HAL_Driver/Src/stm32f4xx_hal_spi.c ****   * @param  Timeout Timeout duration
 615:./Libraries/STM32F4xx_HAL_Driver/Src/stm32f4xx_hal_spi.c ****   * @retval HAL status
 616:./Libraries/STM32F4xx_HAL_Driver/Src/stm32f4xx_hal_spi.c ****   */
 617:./Libraries/STM32F4xx_HAL_Driver/Src/stm32f4xx_hal_spi.c **** HAL_StatusTypeDef HAL_SPI_Receive(SPI_HandleTypeDef *hspi, uint8_t *pData, uint16_t Size, uint32_t 
 618:./Libraries/STM32F4xx_HAL_Driver/Src/stm32f4xx_hal_spi.c **** {
 843              		.loc 1 618 1
 844              		.cfi_startproc
 845              		@ args = 0, pretend = 0, frame = 32
 846              		@ frame_needed = 1, uses_anonymous_args = 0
 847 0000 80B5     		push	{r7, lr}
 848              	.LCFI27:
 849              		.cfi_def_cfa_offset 8
 850              		.cfi_offset 7, -8
 851              		.cfi_offset 14, -4
 852 0002 8AB0     		sub	sp, sp, #40
 853              	.LCFI28:
 854              		.cfi_def_cfa_offset 48
 855 0004 02AF     		add	r7, sp, #8
 856              	.LCFI29:
 857              		.cfi_def_cfa 7, 40
 858 0006 F860     		str	r0, [r7, #12]
 859 0008 B960     		str	r1, [r7, #8]
 860 000a 3B60     		str	r3, [r7]
 861 000c 1346     		mov	r3, r2	@ movhi
 862 000e FB80     		strh	r3, [r7, #6]	@ movhi
 619:./Libraries/STM32F4xx_HAL_Driver/Src/stm32f4xx_hal_spi.c **** #if (USE_SPI_CRC != 0U)
 620:./Libraries/STM32F4xx_HAL_Driver/Src/stm32f4xx_hal_spi.c ****   __IO uint16_t tmpreg = 0U;
 863              		.loc 1 620 17
 864 0010 0023     		movs	r3, #0
 865 0012 FB82     		strh	r3, [r7, #22]	@ movhi
 621:./Libraries/STM32F4xx_HAL_Driver/Src/stm32f4xx_hal_spi.c **** #endif /* USE_SPI_CRC */
 622:./Libraries/STM32F4xx_HAL_Driver/Src/stm32f4xx_hal_spi.c ****   uint32_t tickstart = 0U;
 866              		.loc 1 622 12
 867 0014 0023     		movs	r3, #0
ARM GAS  /tmp/ccits0mR.s 			page 27


 868 0016 BB61     		str	r3, [r7, #24]
 623:./Libraries/STM32F4xx_HAL_Driver/Src/stm32f4xx_hal_spi.c ****   HAL_StatusTypeDef errorcode = HAL_OK;
 869              		.loc 1 623 21
 870 0018 0023     		movs	r3, #0
 871 001a FB77     		strb	r3, [r7, #31]
 624:./Libraries/STM32F4xx_HAL_Driver/Src/stm32f4xx_hal_spi.c **** 
 625:./Libraries/STM32F4xx_HAL_Driver/Src/stm32f4xx_hal_spi.c ****   if((hspi->Init.Mode == SPI_MODE_MASTER) && (hspi->Init.Direction == SPI_DIRECTION_2LINES))
 872              		.loc 1 625 17
 873 001c FB68     		ldr	r3, [r7, #12]
 874 001e 5B68     		ldr	r3, [r3, #4]
 875              		.loc 1 625 5
 876 0020 B3F5827F 		cmp	r3, #260
 877 0024 12D1     		bne	.L41
 878              		.loc 1 625 57 discriminator 1
 879 0026 FB68     		ldr	r3, [r7, #12]
 880 0028 9B68     		ldr	r3, [r3, #8]
 881              		.loc 1 625 43 discriminator 1
 882 002a 002B     		cmp	r3, #0
 883 002c 0ED1     		bne	.L41
 626:./Libraries/STM32F4xx_HAL_Driver/Src/stm32f4xx_hal_spi.c ****   {
 627:./Libraries/STM32F4xx_HAL_Driver/Src/stm32f4xx_hal_spi.c ****      hspi->State = HAL_SPI_STATE_BUSY_RX;
 884              		.loc 1 627 18
 885 002e FB68     		ldr	r3, [r7, #12]
 886 0030 0422     		movs	r2, #4
 887 0032 83F85120 		strb	r2, [r3, #81]
 628:./Libraries/STM32F4xx_HAL_Driver/Src/stm32f4xx_hal_spi.c ****      /* Call transmit-receive function to send Dummy data on Tx line and generate clock on CLK line
 629:./Libraries/STM32F4xx_HAL_Driver/Src/stm32f4xx_hal_spi.c ****     return HAL_SPI_TransmitReceive(hspi,pData,pData,Size,Timeout);
 888              		.loc 1 629 12
 889 0036 FA88     		ldrh	r2, [r7, #6]
 890 0038 3B68     		ldr	r3, [r7]
 891 003a 0093     		str	r3, [sp]
 892 003c 1346     		mov	r3, r2
 893 003e BA68     		ldr	r2, [r7, #8]
 894 0040 B968     		ldr	r1, [r7, #8]
 895 0042 F868     		ldr	r0, [r7, #12]
 896 0044 FFF7FEFF 		bl	HAL_SPI_TransmitReceive
 897 0048 0346     		mov	r3, r0
 898 004a 5EE1     		b	.L42
 899              	.L41:
 630:./Libraries/STM32F4xx_HAL_Driver/Src/stm32f4xx_hal_spi.c ****   }
 631:./Libraries/STM32F4xx_HAL_Driver/Src/stm32f4xx_hal_spi.c **** 
 632:./Libraries/STM32F4xx_HAL_Driver/Src/stm32f4xx_hal_spi.c ****   /* Process Locked */
 633:./Libraries/STM32F4xx_HAL_Driver/Src/stm32f4xx_hal_spi.c ****   __HAL_LOCK(hspi);
 900              		.loc 1 633 3
 901 004c FB68     		ldr	r3, [r7, #12]
 902 004e 93F85030 		ldrb	r3, [r3, #80]	@ zero_extendqisi2
 903 0052 012B     		cmp	r3, #1
 904 0054 01D1     		bne	.L43
 905              		.loc 1 633 3 is_stmt 0 discriminator 1
 906 0056 0223     		movs	r3, #2
 907 0058 57E1     		b	.L42
 908              	.L43:
 909              		.loc 1 633 3 discriminator 2
 910 005a FB68     		ldr	r3, [r7, #12]
 911 005c 0122     		movs	r2, #1
 912 005e 83F85020 		strb	r2, [r3, #80]
 634:./Libraries/STM32F4xx_HAL_Driver/Src/stm32f4xx_hal_spi.c **** 
ARM GAS  /tmp/ccits0mR.s 			page 28


 635:./Libraries/STM32F4xx_HAL_Driver/Src/stm32f4xx_hal_spi.c ****   /* Init tickstart for timeout management*/
 636:./Libraries/STM32F4xx_HAL_Driver/Src/stm32f4xx_hal_spi.c ****   tickstart = HAL_GetTick();
 913              		.loc 1 636 15 is_stmt 1 discriminator 2
 914 0062 FFF7FEFF 		bl	HAL_GetTick
 915 0066 B861     		str	r0, [r7, #24]
 637:./Libraries/STM32F4xx_HAL_Driver/Src/stm32f4xx_hal_spi.c **** 
 638:./Libraries/STM32F4xx_HAL_Driver/Src/stm32f4xx_hal_spi.c ****   if(hspi->State != HAL_SPI_STATE_READY)
 916              		.loc 1 638 10 discriminator 2
 917 0068 FB68     		ldr	r3, [r7, #12]
 918 006a 93F85130 		ldrb	r3, [r3, #81]
 919 006e DBB2     		uxtb	r3, r3
 920              		.loc 1 638 5 discriminator 2
 921 0070 012B     		cmp	r3, #1
 922 0072 02D0     		beq	.L44
 639:./Libraries/STM32F4xx_HAL_Driver/Src/stm32f4xx_hal_spi.c ****   {
 640:./Libraries/STM32F4xx_HAL_Driver/Src/stm32f4xx_hal_spi.c ****     errorcode = HAL_BUSY;
 923              		.loc 1 640 15
 924 0074 0223     		movs	r3, #2
 925 0076 FB77     		strb	r3, [r7, #31]
 641:./Libraries/STM32F4xx_HAL_Driver/Src/stm32f4xx_hal_spi.c ****     goto error;
 926              		.loc 1 641 5
 927 0078 3EE1     		b	.L45
 928              	.L44:
 642:./Libraries/STM32F4xx_HAL_Driver/Src/stm32f4xx_hal_spi.c ****   }
 643:./Libraries/STM32F4xx_HAL_Driver/Src/stm32f4xx_hal_spi.c **** 
 644:./Libraries/STM32F4xx_HAL_Driver/Src/stm32f4xx_hal_spi.c ****   if((pData == NULL ) || (Size == 0))
 929              		.loc 1 644 5
 930 007a BB68     		ldr	r3, [r7, #8]
 931 007c 002B     		cmp	r3, #0
 932 007e 02D0     		beq	.L46
 933              		.loc 1 644 23 discriminator 1
 934 0080 FB88     		ldrh	r3, [r7, #6]
 935 0082 002B     		cmp	r3, #0
 936 0084 02D1     		bne	.L47
 937              	.L46:
 645:./Libraries/STM32F4xx_HAL_Driver/Src/stm32f4xx_hal_spi.c ****   {
 646:./Libraries/STM32F4xx_HAL_Driver/Src/stm32f4xx_hal_spi.c ****     errorcode = HAL_ERROR;
 938              		.loc 1 646 15
 939 0086 0123     		movs	r3, #1
 940 0088 FB77     		strb	r3, [r7, #31]
 647:./Libraries/STM32F4xx_HAL_Driver/Src/stm32f4xx_hal_spi.c ****     goto error;
 941              		.loc 1 647 5
 942 008a 35E1     		b	.L45
 943              	.L47:
 648:./Libraries/STM32F4xx_HAL_Driver/Src/stm32f4xx_hal_spi.c ****   }
 649:./Libraries/STM32F4xx_HAL_Driver/Src/stm32f4xx_hal_spi.c **** 
 650:./Libraries/STM32F4xx_HAL_Driver/Src/stm32f4xx_hal_spi.c ****   /* Set the transaction information */
 651:./Libraries/STM32F4xx_HAL_Driver/Src/stm32f4xx_hal_spi.c ****   hspi->State       = HAL_SPI_STATE_BUSY_RX;
 944              		.loc 1 651 21
 945 008c FB68     		ldr	r3, [r7, #12]
 946 008e 0422     		movs	r2, #4
 947 0090 83F85120 		strb	r2, [r3, #81]
 652:./Libraries/STM32F4xx_HAL_Driver/Src/stm32f4xx_hal_spi.c ****   hspi->ErrorCode   = HAL_SPI_ERROR_NONE;
 948              		.loc 1 652 21
 949 0094 FB68     		ldr	r3, [r7, #12]
 950 0096 0022     		movs	r2, #0
 951 0098 5A65     		str	r2, [r3, #84]
ARM GAS  /tmp/ccits0mR.s 			page 29


 653:./Libraries/STM32F4xx_HAL_Driver/Src/stm32f4xx_hal_spi.c ****   hspi->pRxBuffPtr  = (uint8_t *)pData;
 952              		.loc 1 653 21
 953 009a FB68     		ldr	r3, [r7, #12]
 954 009c BA68     		ldr	r2, [r7, #8]
 955 009e 9A63     		str	r2, [r3, #56]
 654:./Libraries/STM32F4xx_HAL_Driver/Src/stm32f4xx_hal_spi.c ****   hspi->RxXferSize  = Size;
 956              		.loc 1 654 21
 957 00a0 FB68     		ldr	r3, [r7, #12]
 958 00a2 FA88     		ldrh	r2, [r7, #6]	@ movhi
 959 00a4 9A87     		strh	r2, [r3, #60]	@ movhi
 655:./Libraries/STM32F4xx_HAL_Driver/Src/stm32f4xx_hal_spi.c ****   hspi->RxXferCount = Size;
 960              		.loc 1 655 21
 961 00a6 FB68     		ldr	r3, [r7, #12]
 962 00a8 FA88     		ldrh	r2, [r7, #6]	@ movhi
 963 00aa DA87     		strh	r2, [r3, #62]	@ movhi
 656:./Libraries/STM32F4xx_HAL_Driver/Src/stm32f4xx_hal_spi.c **** 
 657:./Libraries/STM32F4xx_HAL_Driver/Src/stm32f4xx_hal_spi.c ****   /*Init field not used in handle to zero */
 658:./Libraries/STM32F4xx_HAL_Driver/Src/stm32f4xx_hal_spi.c ****   hspi->pTxBuffPtr  = (uint8_t *)NULL;
 964              		.loc 1 658 21
 965 00ac FB68     		ldr	r3, [r7, #12]
 966 00ae 0022     		movs	r2, #0
 967 00b0 1A63     		str	r2, [r3, #48]
 659:./Libraries/STM32F4xx_HAL_Driver/Src/stm32f4xx_hal_spi.c ****   hspi->TxXferSize  = 0U;
 968              		.loc 1 659 21
 969 00b2 FB68     		ldr	r3, [r7, #12]
 970 00b4 0022     		movs	r2, #0
 971 00b6 9A86     		strh	r2, [r3, #52]	@ movhi
 660:./Libraries/STM32F4xx_HAL_Driver/Src/stm32f4xx_hal_spi.c ****   hspi->TxXferCount = 0U;
 972              		.loc 1 660 21
 973 00b8 FB68     		ldr	r3, [r7, #12]
 974 00ba 0022     		movs	r2, #0
 975 00bc DA86     		strh	r2, [r3, #54]	@ movhi
 661:./Libraries/STM32F4xx_HAL_Driver/Src/stm32f4xx_hal_spi.c ****   hspi->RxISR       = NULL;
 976              		.loc 1 661 21
 977 00be FB68     		ldr	r3, [r7, #12]
 978 00c0 0022     		movs	r2, #0
 979 00c2 1A64     		str	r2, [r3, #64]
 662:./Libraries/STM32F4xx_HAL_Driver/Src/stm32f4xx_hal_spi.c ****   hspi->TxISR       = NULL;
 980              		.loc 1 662 21
 981 00c4 FB68     		ldr	r3, [r7, #12]
 982 00c6 0022     		movs	r2, #0
 983 00c8 5A64     		str	r2, [r3, #68]
 663:./Libraries/STM32F4xx_HAL_Driver/Src/stm32f4xx_hal_spi.c **** 
 664:./Libraries/STM32F4xx_HAL_Driver/Src/stm32f4xx_hal_spi.c **** #if (USE_SPI_CRC != 0U)
 665:./Libraries/STM32F4xx_HAL_Driver/Src/stm32f4xx_hal_spi.c ****   /* Reset CRC Calculation */
 666:./Libraries/STM32F4xx_HAL_Driver/Src/stm32f4xx_hal_spi.c ****   if(hspi->Init.CRCCalculation == SPI_CRCCALCULATION_ENABLE)
 984              		.loc 1 666 16
 985 00ca FB68     		ldr	r3, [r7, #12]
 986 00cc 9B6A     		ldr	r3, [r3, #40]
 987              		.loc 1 666 5
 988 00ce B3F5005F 		cmp	r3, #8192
 989 00d2 17D1     		bne	.L48
 667:./Libraries/STM32F4xx_HAL_Driver/Src/stm32f4xx_hal_spi.c ****   {
 668:./Libraries/STM32F4xx_HAL_Driver/Src/stm32f4xx_hal_spi.c ****     SPI_RESET_CRC(hspi);
 990              		.loc 1 668 5
 991 00d4 FB68     		ldr	r3, [r7, #12]
 992 00d6 1B68     		ldr	r3, [r3]
ARM GAS  /tmp/ccits0mR.s 			page 30


 993 00d8 1968     		ldr	r1, [r3]
 994 00da FB68     		ldr	r3, [r7, #12]
 995 00dc 1A68     		ldr	r2, [r3]
 996 00de 4DF6FF73 		movw	r3, #57343
 997 00e2 0B40     		ands	r3, r3, r1
 998 00e4 1360     		str	r3, [r2]
 999 00e6 FB68     		ldr	r3, [r7, #12]
 1000 00e8 1B68     		ldr	r3, [r3]
 1001 00ea 1A68     		ldr	r2, [r3]
 1002 00ec FB68     		ldr	r3, [r7, #12]
 1003 00ee 1B68     		ldr	r3, [r3]
 1004 00f0 42F40052 		orr	r2, r2, #8192
 1005 00f4 1A60     		str	r2, [r3]
 669:./Libraries/STM32F4xx_HAL_Driver/Src/stm32f4xx_hal_spi.c ****     /* this is done to handle the CRCNEXT before the latest data */
 670:./Libraries/STM32F4xx_HAL_Driver/Src/stm32f4xx_hal_spi.c ****     hspi->RxXferCount--;
 1006              		.loc 1 670 9
 1007 00f6 FB68     		ldr	r3, [r7, #12]
 1008 00f8 DB8F     		ldrh	r3, [r3, #62]	@ movhi
 1009 00fa 9BB2     		uxth	r3, r3
 1010              		.loc 1 670 22
 1011 00fc 013B     		subs	r3, r3, #1
 1012 00fe 9AB2     		uxth	r2, r3
 1013 0100 FB68     		ldr	r3, [r7, #12]
 1014 0102 DA87     		strh	r2, [r3, #62]	@ movhi
 1015              	.L48:
 671:./Libraries/STM32F4xx_HAL_Driver/Src/stm32f4xx_hal_spi.c ****   }
 672:./Libraries/STM32F4xx_HAL_Driver/Src/stm32f4xx_hal_spi.c **** #endif /* USE_SPI_CRC */
 673:./Libraries/STM32F4xx_HAL_Driver/Src/stm32f4xx_hal_spi.c **** 
 674:./Libraries/STM32F4xx_HAL_Driver/Src/stm32f4xx_hal_spi.c ****   /* Configure communication direction: 1Line */
 675:./Libraries/STM32F4xx_HAL_Driver/Src/stm32f4xx_hal_spi.c ****   if(hspi->Init.Direction == SPI_DIRECTION_1LINE)
 1016              		.loc 1 675 16
 1017 0104 FB68     		ldr	r3, [r7, #12]
 1018 0106 9B68     		ldr	r3, [r3, #8]
 1019              		.loc 1 675 5
 1020 0108 B3F5004F 		cmp	r3, #32768
 1021 010c 07D1     		bne	.L49
 676:./Libraries/STM32F4xx_HAL_Driver/Src/stm32f4xx_hal_spi.c ****   {
 677:./Libraries/STM32F4xx_HAL_Driver/Src/stm32f4xx_hal_spi.c ****     SPI_1LINE_RX(hspi);
 1022              		.loc 1 677 5
 1023 010e FB68     		ldr	r3, [r7, #12]
 1024 0110 1B68     		ldr	r3, [r3]
 1025 0112 1A68     		ldr	r2, [r3]
 1026 0114 FB68     		ldr	r3, [r7, #12]
 1027 0116 1B68     		ldr	r3, [r3]
 1028 0118 22F48042 		bic	r2, r2, #16384
 1029 011c 1A60     		str	r2, [r3]
 1030              	.L49:
 678:./Libraries/STM32F4xx_HAL_Driver/Src/stm32f4xx_hal_spi.c ****   }
 679:./Libraries/STM32F4xx_HAL_Driver/Src/stm32f4xx_hal_spi.c **** 
 680:./Libraries/STM32F4xx_HAL_Driver/Src/stm32f4xx_hal_spi.c ****   /* Check if the SPI is already enabled */
 681:./Libraries/STM32F4xx_HAL_Driver/Src/stm32f4xx_hal_spi.c ****   if((hspi->Instance->CR1 & SPI_CR1_SPE) != SPI_CR1_SPE)
 1031              		.loc 1 681 11
 1032 011e FB68     		ldr	r3, [r7, #12]
 1033 0120 1B68     		ldr	r3, [r3]
 1034              		.loc 1 681 21
 1035 0122 1B68     		ldr	r3, [r3]
 1036              		.loc 1 681 27
ARM GAS  /tmp/ccits0mR.s 			page 31


 1037 0124 03F04003 		and	r3, r3, #64
 1038              		.loc 1 681 5
 1039 0128 402B     		cmp	r3, #64
 1040 012a 07D0     		beq	.L50
 682:./Libraries/STM32F4xx_HAL_Driver/Src/stm32f4xx_hal_spi.c ****   {
 683:./Libraries/STM32F4xx_HAL_Driver/Src/stm32f4xx_hal_spi.c ****     /* Enable SPI peripheral */
 684:./Libraries/STM32F4xx_HAL_Driver/Src/stm32f4xx_hal_spi.c ****     __HAL_SPI_ENABLE(hspi);
 1041              		.loc 1 684 5
 1042 012c FB68     		ldr	r3, [r7, #12]
 1043 012e 1B68     		ldr	r3, [r3]
 1044 0130 1A68     		ldr	r2, [r3]
 1045 0132 FB68     		ldr	r3, [r7, #12]
 1046 0134 1B68     		ldr	r3, [r3]
 1047 0136 42F04002 		orr	r2, r2, #64
 1048 013a 1A60     		str	r2, [r3]
 1049              	.L50:
 685:./Libraries/STM32F4xx_HAL_Driver/Src/stm32f4xx_hal_spi.c ****   }
 686:./Libraries/STM32F4xx_HAL_Driver/Src/stm32f4xx_hal_spi.c **** 
 687:./Libraries/STM32F4xx_HAL_Driver/Src/stm32f4xx_hal_spi.c ****     /* Receive data in 8 Bit mode */
 688:./Libraries/STM32F4xx_HAL_Driver/Src/stm32f4xx_hal_spi.c ****   if(hspi->Init.DataSize == SPI_DATASIZE_8BIT)
 1050              		.loc 1 688 16
 1051 013c FB68     		ldr	r3, [r7, #12]
 1052 013e DB68     		ldr	r3, [r3, #12]
 1053              		.loc 1 688 5
 1054 0140 002B     		cmp	r3, #0
 1055 0142 5BD1     		bne	.L57
 689:./Libraries/STM32F4xx_HAL_Driver/Src/stm32f4xx_hal_spi.c ****   {
 690:./Libraries/STM32F4xx_HAL_Driver/Src/stm32f4xx_hal_spi.c ****     /* Transfer loop */
 691:./Libraries/STM32F4xx_HAL_Driver/Src/stm32f4xx_hal_spi.c ****     while(hspi->RxXferCount > 0U)
 1056              		.loc 1 691 10
 1057 0144 2AE0     		b	.L52
 1058              	.L55:
 692:./Libraries/STM32F4xx_HAL_Driver/Src/stm32f4xx_hal_spi.c ****     {
 693:./Libraries/STM32F4xx_HAL_Driver/Src/stm32f4xx_hal_spi.c ****       /* Check the RXNE flag */
 694:./Libraries/STM32F4xx_HAL_Driver/Src/stm32f4xx_hal_spi.c ****       if(__HAL_SPI_GET_FLAG(hspi, SPI_FLAG_RXNE))
 1059              		.loc 1 694 10
 1060 0146 FB68     		ldr	r3, [r7, #12]
 1061 0148 1B68     		ldr	r3, [r3]
 1062 014a 9B68     		ldr	r3, [r3, #8]
 1063 014c 03F00103 		and	r3, r3, #1
 1064              		.loc 1 694 9
 1065 0150 012B     		cmp	r3, #1
 1066 0152 11D1     		bne	.L53
 695:./Libraries/STM32F4xx_HAL_Driver/Src/stm32f4xx_hal_spi.c ****       {
 696:./Libraries/STM32F4xx_HAL_Driver/Src/stm32f4xx_hal_spi.c ****         /* read the received data */
 697:./Libraries/STM32F4xx_HAL_Driver/Src/stm32f4xx_hal_spi.c ****         (* (uint8_t *)pData)= *(__IO uint8_t *)&hspi->Instance->DR;
 1067              		.loc 1 697 53
 1068 0154 FB68     		ldr	r3, [r7, #12]
 1069 0156 1B68     		ldr	r3, [r3]
 1070              		.loc 1 697 48
 1071 0158 0C33     		adds	r3, r3, #12
 1072              		.loc 1 697 31
 1073 015a 1B78     		ldrb	r3, [r3]
 1074 015c DAB2     		uxtb	r2, r3
 1075              		.loc 1 697 29
 1076 015e BB68     		ldr	r3, [r7, #8]
 1077 0160 1A70     		strb	r2, [r3]
ARM GAS  /tmp/ccits0mR.s 			page 32


 698:./Libraries/STM32F4xx_HAL_Driver/Src/stm32f4xx_hal_spi.c ****         pData += sizeof(uint8_t);
 1078              		.loc 1 698 15
 1079 0162 BB68     		ldr	r3, [r7, #8]
 1080 0164 0133     		adds	r3, r3, #1
 1081 0166 BB60     		str	r3, [r7, #8]
 699:./Libraries/STM32F4xx_HAL_Driver/Src/stm32f4xx_hal_spi.c ****         hspi->RxXferCount--;
 1082              		.loc 1 699 13
 1083 0168 FB68     		ldr	r3, [r7, #12]
 1084 016a DB8F     		ldrh	r3, [r3, #62]	@ movhi
 1085 016c 9BB2     		uxth	r3, r3
 1086              		.loc 1 699 26
 1087 016e 013B     		subs	r3, r3, #1
 1088 0170 9AB2     		uxth	r2, r3
 1089 0172 FB68     		ldr	r3, [r7, #12]
 1090 0174 DA87     		strh	r2, [r3, #62]	@ movhi
 1091 0176 11E0     		b	.L52
 1092              	.L53:
 700:./Libraries/STM32F4xx_HAL_Driver/Src/stm32f4xx_hal_spi.c ****       }
 701:./Libraries/STM32F4xx_HAL_Driver/Src/stm32f4xx_hal_spi.c ****       else
 702:./Libraries/STM32F4xx_HAL_Driver/Src/stm32f4xx_hal_spi.c ****       {
 703:./Libraries/STM32F4xx_HAL_Driver/Src/stm32f4xx_hal_spi.c ****         /* Timeout management */
 704:./Libraries/STM32F4xx_HAL_Driver/Src/stm32f4xx_hal_spi.c ****         if((Timeout == 0U) || ((Timeout != HAL_MAX_DELAY) && ((HAL_GetTick()-tickstart) >=  Timeout
 1093              		.loc 1 704 11
 1094 0178 3B68     		ldr	r3, [r7]
 1095 017a 002B     		cmp	r3, #0
 1096 017c 0BD0     		beq	.L54
 1097              		.loc 1 704 28 discriminator 1
 1098 017e 3B68     		ldr	r3, [r7]
 1099 0180 B3F1FF3F 		cmp	r3, #-1
 1100 0184 0AD0     		beq	.L52
 1101              		.loc 1 704 64 discriminator 2
 1102 0186 FFF7FEFF 		bl	HAL_GetTick
 1103 018a 0246     		mov	r2, r0
 1104              		.loc 1 704 77 discriminator 2
 1105 018c BB69     		ldr	r3, [r7, #24]
 1106 018e D31A     		subs	r3, r2, r3
 1107              		.loc 1 704 59 discriminator 2
 1108 0190 3A68     		ldr	r2, [r7]
 1109 0192 9A42     		cmp	r2, r3
 1110 0194 02D8     		bhi	.L52
 1111              	.L54:
 705:./Libraries/STM32F4xx_HAL_Driver/Src/stm32f4xx_hal_spi.c ****         {
 706:./Libraries/STM32F4xx_HAL_Driver/Src/stm32f4xx_hal_spi.c ****           errorcode = HAL_TIMEOUT;
 1112              		.loc 1 706 21
 1113 0196 0323     		movs	r3, #3
 1114 0198 FB77     		strb	r3, [r7, #31]
 707:./Libraries/STM32F4xx_HAL_Driver/Src/stm32f4xx_hal_spi.c ****           goto error;
 1115              		.loc 1 707 11
 1116 019a ADE0     		b	.L45
 1117              	.L52:
 691:./Libraries/STM32F4xx_HAL_Driver/Src/stm32f4xx_hal_spi.c ****     {
 1118              		.loc 1 691 15
 1119 019c FB68     		ldr	r3, [r7, #12]
 1120 019e DB8F     		ldrh	r3, [r3, #62]	@ movhi
 1121 01a0 9BB2     		uxth	r3, r3
 691:./Libraries/STM32F4xx_HAL_Driver/Src/stm32f4xx_hal_spi.c ****     {
 1122              		.loc 1 691 10
ARM GAS  /tmp/ccits0mR.s 			page 33


 1123 01a2 002B     		cmp	r3, #0
 1124 01a4 CFD1     		bne	.L55
 1125 01a6 2EE0     		b	.L56
 1126              	.L60:
 708:./Libraries/STM32F4xx_HAL_Driver/Src/stm32f4xx_hal_spi.c ****         }
 709:./Libraries/STM32F4xx_HAL_Driver/Src/stm32f4xx_hal_spi.c ****       }
 710:./Libraries/STM32F4xx_HAL_Driver/Src/stm32f4xx_hal_spi.c ****     }
 711:./Libraries/STM32F4xx_HAL_Driver/Src/stm32f4xx_hal_spi.c ****   }
 712:./Libraries/STM32F4xx_HAL_Driver/Src/stm32f4xx_hal_spi.c ****   else
 713:./Libraries/STM32F4xx_HAL_Driver/Src/stm32f4xx_hal_spi.c ****   {
 714:./Libraries/STM32F4xx_HAL_Driver/Src/stm32f4xx_hal_spi.c ****     /* Transfer loop */
 715:./Libraries/STM32F4xx_HAL_Driver/Src/stm32f4xx_hal_spi.c ****     while(hspi->RxXferCount > 0U)
 716:./Libraries/STM32F4xx_HAL_Driver/Src/stm32f4xx_hal_spi.c ****     {
 717:./Libraries/STM32F4xx_HAL_Driver/Src/stm32f4xx_hal_spi.c ****       /* Check the RXNE flag */
 718:./Libraries/STM32F4xx_HAL_Driver/Src/stm32f4xx_hal_spi.c ****       if(__HAL_SPI_GET_FLAG(hspi, SPI_FLAG_RXNE))
 1127              		.loc 1 718 10
 1128 01a8 FB68     		ldr	r3, [r7, #12]
 1129 01aa 1B68     		ldr	r3, [r3]
 1130 01ac 9B68     		ldr	r3, [r3, #8]
 1131 01ae 03F00103 		and	r3, r3, #1
 1132              		.loc 1 718 9
 1133 01b2 012B     		cmp	r3, #1
 1134 01b4 10D1     		bne	.L58
 719:./Libraries/STM32F4xx_HAL_Driver/Src/stm32f4xx_hal_spi.c ****       {
 720:./Libraries/STM32F4xx_HAL_Driver/Src/stm32f4xx_hal_spi.c ****         *((uint16_t*)pData) = hspi->Instance->DR;
 1135              		.loc 1 720 35
 1136 01b6 FB68     		ldr	r3, [r7, #12]
 1137 01b8 1B68     		ldr	r3, [r3]
 1138              		.loc 1 720 45
 1139 01ba DB68     		ldr	r3, [r3, #12]
 1140              		.loc 1 720 29
 1141 01bc 9AB2     		uxth	r2, r3
 1142 01be BB68     		ldr	r3, [r7, #8]
 1143 01c0 1A80     		strh	r2, [r3]	@ movhi
 721:./Libraries/STM32F4xx_HAL_Driver/Src/stm32f4xx_hal_spi.c ****         pData += sizeof(uint16_t);
 1144              		.loc 1 721 15
 1145 01c2 BB68     		ldr	r3, [r7, #8]
 1146 01c4 0233     		adds	r3, r3, #2
 1147 01c6 BB60     		str	r3, [r7, #8]
 722:./Libraries/STM32F4xx_HAL_Driver/Src/stm32f4xx_hal_spi.c ****         hspi->RxXferCount--;
 1148              		.loc 1 722 13
 1149 01c8 FB68     		ldr	r3, [r7, #12]
 1150 01ca DB8F     		ldrh	r3, [r3, #62]	@ movhi
 1151 01cc 9BB2     		uxth	r3, r3
 1152              		.loc 1 722 26
 1153 01ce 013B     		subs	r3, r3, #1
 1154 01d0 9AB2     		uxth	r2, r3
 1155 01d2 FB68     		ldr	r3, [r7, #12]
 1156 01d4 DA87     		strh	r2, [r3, #62]	@ movhi
 1157 01d6 11E0     		b	.L57
 1158              	.L58:
 723:./Libraries/STM32F4xx_HAL_Driver/Src/stm32f4xx_hal_spi.c ****       }
 724:./Libraries/STM32F4xx_HAL_Driver/Src/stm32f4xx_hal_spi.c ****       else
 725:./Libraries/STM32F4xx_HAL_Driver/Src/stm32f4xx_hal_spi.c ****       {
 726:./Libraries/STM32F4xx_HAL_Driver/Src/stm32f4xx_hal_spi.c ****         /* Timeout management */
 727:./Libraries/STM32F4xx_HAL_Driver/Src/stm32f4xx_hal_spi.c ****         if((Timeout == 0U) || ((Timeout != HAL_MAX_DELAY) && ((HAL_GetTick()-tickstart) >=  Timeout
 1159              		.loc 1 727 11
ARM GAS  /tmp/ccits0mR.s 			page 34


 1160 01d8 3B68     		ldr	r3, [r7]
 1161 01da 002B     		cmp	r3, #0
 1162 01dc 0BD0     		beq	.L59
 1163              		.loc 1 727 28 discriminator 1
 1164 01de 3B68     		ldr	r3, [r7]
 1165 01e0 B3F1FF3F 		cmp	r3, #-1
 1166 01e4 0AD0     		beq	.L57
 1167              		.loc 1 727 64 discriminator 2
 1168 01e6 FFF7FEFF 		bl	HAL_GetTick
 1169 01ea 0246     		mov	r2, r0
 1170              		.loc 1 727 77 discriminator 2
 1171 01ec BB69     		ldr	r3, [r7, #24]
 1172 01ee D31A     		subs	r3, r2, r3
 1173              		.loc 1 727 59 discriminator 2
 1174 01f0 3A68     		ldr	r2, [r7]
 1175 01f2 9A42     		cmp	r2, r3
 1176 01f4 02D8     		bhi	.L57
 1177              	.L59:
 728:./Libraries/STM32F4xx_HAL_Driver/Src/stm32f4xx_hal_spi.c ****         {
 729:./Libraries/STM32F4xx_HAL_Driver/Src/stm32f4xx_hal_spi.c ****           errorcode = HAL_TIMEOUT;
 1178              		.loc 1 729 21
 1179 01f6 0323     		movs	r3, #3
 1180 01f8 FB77     		strb	r3, [r7, #31]
 730:./Libraries/STM32F4xx_HAL_Driver/Src/stm32f4xx_hal_spi.c ****           goto error;
 1181              		.loc 1 730 11
 1182 01fa 7DE0     		b	.L45
 1183              	.L57:
 715:./Libraries/STM32F4xx_HAL_Driver/Src/stm32f4xx_hal_spi.c ****     {
 1184              		.loc 1 715 15
 1185 01fc FB68     		ldr	r3, [r7, #12]
 1186 01fe DB8F     		ldrh	r3, [r3, #62]	@ movhi
 1187 0200 9BB2     		uxth	r3, r3
 715:./Libraries/STM32F4xx_HAL_Driver/Src/stm32f4xx_hal_spi.c ****     {
 1188              		.loc 1 715 10
 1189 0202 002B     		cmp	r3, #0
 1190 0204 D0D1     		bne	.L60
 1191              	.L56:
 731:./Libraries/STM32F4xx_HAL_Driver/Src/stm32f4xx_hal_spi.c ****         }
 732:./Libraries/STM32F4xx_HAL_Driver/Src/stm32f4xx_hal_spi.c ****       }
 733:./Libraries/STM32F4xx_HAL_Driver/Src/stm32f4xx_hal_spi.c ****     }
 734:./Libraries/STM32F4xx_HAL_Driver/Src/stm32f4xx_hal_spi.c ****   }
 735:./Libraries/STM32F4xx_HAL_Driver/Src/stm32f4xx_hal_spi.c **** 
 736:./Libraries/STM32F4xx_HAL_Driver/Src/stm32f4xx_hal_spi.c **** #if (USE_SPI_CRC != 0U)
 737:./Libraries/STM32F4xx_HAL_Driver/Src/stm32f4xx_hal_spi.c ****   /* Handle the CRC Transmission */
 738:./Libraries/STM32F4xx_HAL_Driver/Src/stm32f4xx_hal_spi.c ****   if(hspi->Init.CRCCalculation == SPI_CRCCALCULATION_ENABLE)
 1192              		.loc 1 738 16
 1193 0206 FB68     		ldr	r3, [r7, #12]
 1194 0208 9B6A     		ldr	r3, [r3, #40]
 1195              		.loc 1 738 5
 1196 020a B3F5005F 		cmp	r3, #8192
 1197 020e 42D1     		bne	.L61
 739:./Libraries/STM32F4xx_HAL_Driver/Src/stm32f4xx_hal_spi.c ****   {
 740:./Libraries/STM32F4xx_HAL_Driver/Src/stm32f4xx_hal_spi.c ****     /* freeze the CRC before the latest data */
 741:./Libraries/STM32F4xx_HAL_Driver/Src/stm32f4xx_hal_spi.c ****     SET_BIT(hspi->Instance->CR1, SPI_CR1_CRCNEXT);
 1198              		.loc 1 741 5
 1199 0210 FB68     		ldr	r3, [r7, #12]
 1200 0212 1B68     		ldr	r3, [r3]
ARM GAS  /tmp/ccits0mR.s 			page 35


 1201 0214 1A68     		ldr	r2, [r3]
 1202 0216 FB68     		ldr	r3, [r7, #12]
 1203 0218 1B68     		ldr	r3, [r3]
 1204 021a 42F48052 		orr	r2, r2, #4096
 1205 021e 1A60     		str	r2, [r3]
 742:./Libraries/STM32F4xx_HAL_Driver/Src/stm32f4xx_hal_spi.c **** 
 743:./Libraries/STM32F4xx_HAL_Driver/Src/stm32f4xx_hal_spi.c ****     /* Read the latest data */
 744:./Libraries/STM32F4xx_HAL_Driver/Src/stm32f4xx_hal_spi.c ****     if(SPI_WaitFlagStateUntilTimeout(hspi, SPI_FLAG_RXNE, SET, Timeout, tickstart) != HAL_OK)
 1206              		.loc 1 744 8
 1207 0220 BB69     		ldr	r3, [r7, #24]
 1208 0222 0093     		str	r3, [sp]
 1209 0224 3B68     		ldr	r3, [r7]
 1210 0226 0122     		movs	r2, #1
 1211 0228 0121     		movs	r1, #1
 1212 022a F868     		ldr	r0, [r7, #12]
 1213 022c FFF7FEFF 		bl	SPI_WaitFlagStateUntilTimeout
 1214 0230 0346     		mov	r3, r0
 1215              		.loc 1 744 7
 1216 0232 002B     		cmp	r3, #0
 1217 0234 02D0     		beq	.L62
 745:./Libraries/STM32F4xx_HAL_Driver/Src/stm32f4xx_hal_spi.c ****     {
 746:./Libraries/STM32F4xx_HAL_Driver/Src/stm32f4xx_hal_spi.c ****       /* the latest data has not been received */
 747:./Libraries/STM32F4xx_HAL_Driver/Src/stm32f4xx_hal_spi.c ****       errorcode = HAL_TIMEOUT;
 1218              		.loc 1 747 17
 1219 0236 0323     		movs	r3, #3
 1220 0238 FB77     		strb	r3, [r7, #31]
 748:./Libraries/STM32F4xx_HAL_Driver/Src/stm32f4xx_hal_spi.c ****       goto error;
 1221              		.loc 1 748 7
 1222 023a 5DE0     		b	.L45
 1223              	.L62:
 749:./Libraries/STM32F4xx_HAL_Driver/Src/stm32f4xx_hal_spi.c ****     }
 750:./Libraries/STM32F4xx_HAL_Driver/Src/stm32f4xx_hal_spi.c **** 
 751:./Libraries/STM32F4xx_HAL_Driver/Src/stm32f4xx_hal_spi.c ****     /* Receive last data in 16 Bit mode */
 752:./Libraries/STM32F4xx_HAL_Driver/Src/stm32f4xx_hal_spi.c ****     if(hspi->Init.DataSize == SPI_DATASIZE_16BIT)
 1224              		.loc 1 752 18
 1225 023c FB68     		ldr	r3, [r7, #12]
 1226 023e DB68     		ldr	r3, [r3, #12]
 1227              		.loc 1 752 7
 1228 0240 B3F5006F 		cmp	r3, #2048
 1229 0244 06D1     		bne	.L63
 753:./Libraries/STM32F4xx_HAL_Driver/Src/stm32f4xx_hal_spi.c ****     {
 754:./Libraries/STM32F4xx_HAL_Driver/Src/stm32f4xx_hal_spi.c ****       *((uint16_t*)pData) = hspi->Instance->DR;
 1230              		.loc 1 754 33
 1231 0246 FB68     		ldr	r3, [r7, #12]
 1232 0248 1B68     		ldr	r3, [r3]
 1233              		.loc 1 754 43
 1234 024a DB68     		ldr	r3, [r3, #12]
 1235              		.loc 1 754 27
 1236 024c 9AB2     		uxth	r2, r3
 1237 024e BB68     		ldr	r3, [r7, #8]
 1238 0250 1A80     		strh	r2, [r3]	@ movhi
 1239 0252 06E0     		b	.L64
 1240              	.L63:
 755:./Libraries/STM32F4xx_HAL_Driver/Src/stm32f4xx_hal_spi.c ****     }
 756:./Libraries/STM32F4xx_HAL_Driver/Src/stm32f4xx_hal_spi.c ****     /* Receive last data in 8 Bit mode */
 757:./Libraries/STM32F4xx_HAL_Driver/Src/stm32f4xx_hal_spi.c ****     else
 758:./Libraries/STM32F4xx_HAL_Driver/Src/stm32f4xx_hal_spi.c ****     {
ARM GAS  /tmp/ccits0mR.s 			page 36


 759:./Libraries/STM32F4xx_HAL_Driver/Src/stm32f4xx_hal_spi.c ****       (*(uint8_t *)pData) = *(__IO uint8_t *)&hspi->Instance->DR;
 1241              		.loc 1 759 51
 1242 0254 FB68     		ldr	r3, [r7, #12]
 1243 0256 1B68     		ldr	r3, [r3]
 1244              		.loc 1 759 46
 1245 0258 0C33     		adds	r3, r3, #12
 1246              		.loc 1 759 29
 1247 025a 1B78     		ldrb	r3, [r3]
 1248 025c DAB2     		uxtb	r2, r3
 1249              		.loc 1 759 27
 1250 025e BB68     		ldr	r3, [r7, #8]
 1251 0260 1A70     		strb	r2, [r3]
 1252              	.L64:
 760:./Libraries/STM32F4xx_HAL_Driver/Src/stm32f4xx_hal_spi.c ****     }
 761:./Libraries/STM32F4xx_HAL_Driver/Src/stm32f4xx_hal_spi.c **** 
 762:./Libraries/STM32F4xx_HAL_Driver/Src/stm32f4xx_hal_spi.c ****     /* Wait the CRC data */
 763:./Libraries/STM32F4xx_HAL_Driver/Src/stm32f4xx_hal_spi.c ****     if(SPI_WaitFlagStateUntilTimeout(hspi, SPI_FLAG_RXNE, SET, Timeout, tickstart) != HAL_OK)
 1253              		.loc 1 763 8
 1254 0262 BB69     		ldr	r3, [r7, #24]
 1255 0264 0093     		str	r3, [sp]
 1256 0266 3B68     		ldr	r3, [r7]
 1257 0268 0122     		movs	r2, #1
 1258 026a 0121     		movs	r1, #1
 1259 026c F868     		ldr	r0, [r7, #12]
 1260 026e FFF7FEFF 		bl	SPI_WaitFlagStateUntilTimeout
 1261 0272 0346     		mov	r3, r0
 1262              		.loc 1 763 7
 1263 0274 002B     		cmp	r3, #0
 1264 0276 08D0     		beq	.L65
 764:./Libraries/STM32F4xx_HAL_Driver/Src/stm32f4xx_hal_spi.c ****     {
 765:./Libraries/STM32F4xx_HAL_Driver/Src/stm32f4xx_hal_spi.c ****       SET_BIT(hspi->ErrorCode, HAL_SPI_ERROR_CRC);
 1265              		.loc 1 765 7
 1266 0278 FB68     		ldr	r3, [r7, #12]
 1267 027a 5B6D     		ldr	r3, [r3, #84]
 1268 027c 43F00202 		orr	r2, r3, #2
 1269 0280 FB68     		ldr	r3, [r7, #12]
 1270 0282 5A65     		str	r2, [r3, #84]
 766:./Libraries/STM32F4xx_HAL_Driver/Src/stm32f4xx_hal_spi.c ****       errorcode = HAL_TIMEOUT;
 1271              		.loc 1 766 17
 1272 0284 0323     		movs	r3, #3
 1273 0286 FB77     		strb	r3, [r7, #31]
 767:./Libraries/STM32F4xx_HAL_Driver/Src/stm32f4xx_hal_spi.c ****       goto error;
 1274              		.loc 1 767 7
 1275 0288 36E0     		b	.L45
 1276              	.L65:
 768:./Libraries/STM32F4xx_HAL_Driver/Src/stm32f4xx_hal_spi.c ****     }
 769:./Libraries/STM32F4xx_HAL_Driver/Src/stm32f4xx_hal_spi.c **** 
 770:./Libraries/STM32F4xx_HAL_Driver/Src/stm32f4xx_hal_spi.c ****     /* Read CRC to Flush DR and RXNE flag */
 771:./Libraries/STM32F4xx_HAL_Driver/Src/stm32f4xx_hal_spi.c ****     tmpreg = hspi->Instance->DR;
 1277              		.loc 1 771 18
 1278 028a FB68     		ldr	r3, [r7, #12]
 1279 028c 1B68     		ldr	r3, [r3]
 1280              		.loc 1 771 28
 1281 028e DB68     		ldr	r3, [r3, #12]
 1282              		.loc 1 771 12
 1283 0290 9BB2     		uxth	r3, r3
 1284 0292 FB82     		strh	r3, [r7, #22]	@ movhi
ARM GAS  /tmp/ccits0mR.s 			page 37


 772:./Libraries/STM32F4xx_HAL_Driver/Src/stm32f4xx_hal_spi.c ****     /* To avoid GCC warning */
 773:./Libraries/STM32F4xx_HAL_Driver/Src/stm32f4xx_hal_spi.c ****     UNUSED(tmpreg);
 1285              		.loc 1 773 5
 1286 0294 FB8A     		ldrh	r3, [r7, #22]	@ movhi
 1287              	.L61:
 774:./Libraries/STM32F4xx_HAL_Driver/Src/stm32f4xx_hal_spi.c ****   }
 775:./Libraries/STM32F4xx_HAL_Driver/Src/stm32f4xx_hal_spi.c **** #endif /* USE_SPI_CRC */
 776:./Libraries/STM32F4xx_HAL_Driver/Src/stm32f4xx_hal_spi.c **** 
 777:./Libraries/STM32F4xx_HAL_Driver/Src/stm32f4xx_hal_spi.c ****   /* Check the end of the transaction */
 778:./Libraries/STM32F4xx_HAL_Driver/Src/stm32f4xx_hal_spi.c ****   if((hspi->Init.Mode == SPI_MODE_MASTER)&&((hspi->Init.Direction == SPI_DIRECTION_1LINE)||(hspi->I
 1288              		.loc 1 778 17
 1289 0296 FB68     		ldr	r3, [r7, #12]
 1290 0298 5B68     		ldr	r3, [r3, #4]
 1291              		.loc 1 778 5
 1292 029a B3F5827F 		cmp	r3, #260
 1293 029e 11D1     		bne	.L66
 1294              		.loc 1 778 56 discriminator 1
 1295 02a0 FB68     		ldr	r3, [r7, #12]
 1296 02a2 9B68     		ldr	r3, [r3, #8]
 1297              		.loc 1 778 42 discriminator 1
 1298 02a4 B3F5004F 		cmp	r3, #32768
 1299 02a8 04D0     		beq	.L67
 1300              		.loc 1 778 103 discriminator 2
 1301 02aa FB68     		ldr	r3, [r7, #12]
 1302 02ac 9B68     		ldr	r3, [r3, #8]
 1303              		.loc 1 778 90 discriminator 2
 1304 02ae B3F5806F 		cmp	r3, #1024
 1305 02b2 07D1     		bne	.L66
 1306              	.L67:
 779:./Libraries/STM32F4xx_HAL_Driver/Src/stm32f4xx_hal_spi.c ****   {
 780:./Libraries/STM32F4xx_HAL_Driver/Src/stm32f4xx_hal_spi.c ****     /* Disable SPI peripheral */
 781:./Libraries/STM32F4xx_HAL_Driver/Src/stm32f4xx_hal_spi.c ****     __HAL_SPI_DISABLE(hspi);
 1307              		.loc 1 781 5
 1308 02b4 FB68     		ldr	r3, [r7, #12]
 1309 02b6 1B68     		ldr	r3, [r3]
 1310 02b8 1A68     		ldr	r2, [r3]
 1311 02ba FB68     		ldr	r3, [r7, #12]
 1312 02bc 1B68     		ldr	r3, [r3]
 1313 02be 22F04002 		bic	r2, r2, #64
 1314 02c2 1A60     		str	r2, [r3]
 1315              	.L66:
 782:./Libraries/STM32F4xx_HAL_Driver/Src/stm32f4xx_hal_spi.c ****   }
 783:./Libraries/STM32F4xx_HAL_Driver/Src/stm32f4xx_hal_spi.c **** 
 784:./Libraries/STM32F4xx_HAL_Driver/Src/stm32f4xx_hal_spi.c **** #if (USE_SPI_CRC != 0U)
 785:./Libraries/STM32F4xx_HAL_Driver/Src/stm32f4xx_hal_spi.c ****   /* Check if CRC error occurred */
 786:./Libraries/STM32F4xx_HAL_Driver/Src/stm32f4xx_hal_spi.c ****   if(__HAL_SPI_GET_FLAG(hspi, SPI_FLAG_CRCERR))
 1316              		.loc 1 786 6
 1317 02c4 FB68     		ldr	r3, [r7, #12]
 1318 02c6 1B68     		ldr	r3, [r3]
 1319 02c8 9B68     		ldr	r3, [r3, #8]
 1320 02ca 03F01003 		and	r3, r3, #16
 1321              		.loc 1 786 5
 1322 02ce 102B     		cmp	r3, #16
 1323 02d0 0AD1     		bne	.L68
 787:./Libraries/STM32F4xx_HAL_Driver/Src/stm32f4xx_hal_spi.c ****   {
 788:./Libraries/STM32F4xx_HAL_Driver/Src/stm32f4xx_hal_spi.c ****     SET_BIT(hspi->ErrorCode, HAL_SPI_ERROR_CRC);
 1324              		.loc 1 788 5
ARM GAS  /tmp/ccits0mR.s 			page 38


 1325 02d2 FB68     		ldr	r3, [r7, #12]
 1326 02d4 5B6D     		ldr	r3, [r3, #84]
 1327 02d6 43F00202 		orr	r2, r3, #2
 1328 02da FB68     		ldr	r3, [r7, #12]
 1329 02dc 5A65     		str	r2, [r3, #84]
 789:./Libraries/STM32F4xx_HAL_Driver/Src/stm32f4xx_hal_spi.c ****     __HAL_SPI_CLEAR_CRCERRFLAG(hspi);
 1330              		.loc 1 789 5
 1331 02de FB68     		ldr	r3, [r7, #12]
 1332 02e0 1B68     		ldr	r3, [r3]
 1333 02e2 4FF6EF72 		movw	r2, #65519
 1334 02e6 9A60     		str	r2, [r3, #8]
 1335              	.L68:
 790:./Libraries/STM32F4xx_HAL_Driver/Src/stm32f4xx_hal_spi.c ****   }
 791:./Libraries/STM32F4xx_HAL_Driver/Src/stm32f4xx_hal_spi.c **** #endif /* USE_SPI_CRC */
 792:./Libraries/STM32F4xx_HAL_Driver/Src/stm32f4xx_hal_spi.c **** 
 793:./Libraries/STM32F4xx_HAL_Driver/Src/stm32f4xx_hal_spi.c ****   if(hspi->ErrorCode != HAL_SPI_ERROR_NONE)
 1336              		.loc 1 793 10
 1337 02e8 FB68     		ldr	r3, [r7, #12]
 1338 02ea 5B6D     		ldr	r3, [r3, #84]
 1339              		.loc 1 793 5
 1340 02ec 002B     		cmp	r3, #0
 1341 02ee 02D0     		beq	.L69
 794:./Libraries/STM32F4xx_HAL_Driver/Src/stm32f4xx_hal_spi.c ****   {
 795:./Libraries/STM32F4xx_HAL_Driver/Src/stm32f4xx_hal_spi.c ****     errorcode = HAL_ERROR;
 1342              		.loc 1 795 15
 1343 02f0 0123     		movs	r3, #1
 1344 02f2 FB77     		strb	r3, [r7, #31]
 1345 02f4 00E0     		b	.L45
 1346              	.L69:
 796:./Libraries/STM32F4xx_HAL_Driver/Src/stm32f4xx_hal_spi.c ****   }
 797:./Libraries/STM32F4xx_HAL_Driver/Src/stm32f4xx_hal_spi.c **** 
 798:./Libraries/STM32F4xx_HAL_Driver/Src/stm32f4xx_hal_spi.c **** error :
 1347              		.loc 1 798 1
 1348 02f6 00BF     		nop
 1349              	.L45:
 799:./Libraries/STM32F4xx_HAL_Driver/Src/stm32f4xx_hal_spi.c ****   hspi->State = HAL_SPI_STATE_READY;
 1350              		.loc 1 799 15
 1351 02f8 FB68     		ldr	r3, [r7, #12]
 1352 02fa 0122     		movs	r2, #1
 1353 02fc 83F85120 		strb	r2, [r3, #81]
 800:./Libraries/STM32F4xx_HAL_Driver/Src/stm32f4xx_hal_spi.c ****   __HAL_UNLOCK(hspi);
 1354              		.loc 1 800 3
 1355 0300 FB68     		ldr	r3, [r7, #12]
 1356 0302 0022     		movs	r2, #0
 1357 0304 83F85020 		strb	r2, [r3, #80]
 801:./Libraries/STM32F4xx_HAL_Driver/Src/stm32f4xx_hal_spi.c ****   return errorcode;
 1358              		.loc 1 801 10
 1359 0308 FB7F     		ldrb	r3, [r7, #31]	@ zero_extendqisi2
 1360              	.L42:
 802:./Libraries/STM32F4xx_HAL_Driver/Src/stm32f4xx_hal_spi.c **** }
 1361              		.loc 1 802 1
 1362 030a 1846     		mov	r0, r3
 1363 030c 2037     		adds	r7, r7, #32
 1364              	.LCFI30:
 1365              		.cfi_def_cfa_offset 8
 1366 030e BD46     		mov	sp, r7
 1367              	.LCFI31:
ARM GAS  /tmp/ccits0mR.s 			page 39


 1368              		.cfi_def_cfa_register 13
 1369              		@ sp needed
 1370 0310 80BD     		pop	{r7, pc}
 1371              		.cfi_endproc
 1372              	.LFE131:
 1374              		.section	.text.HAL_SPI_TransmitReceive,"ax",%progbits
 1375              		.align	1
 1376              		.global	HAL_SPI_TransmitReceive
 1377              		.syntax unified
 1378              		.thumb
 1379              		.thumb_func
 1380              		.fpu fpv4-sp-d16
 1382              	HAL_SPI_TransmitReceive:
 1383              	.LFB132:
 803:./Libraries/STM32F4xx_HAL_Driver/Src/stm32f4xx_hal_spi.c **** 
 804:./Libraries/STM32F4xx_HAL_Driver/Src/stm32f4xx_hal_spi.c **** /**
 805:./Libraries/STM32F4xx_HAL_Driver/Src/stm32f4xx_hal_spi.c ****   * @brief  Transmit and Receive an amount of data in blocking mode.
 806:./Libraries/STM32F4xx_HAL_Driver/Src/stm32f4xx_hal_spi.c ****   * @param  hspi pointer to a SPI_HandleTypeDef structure that contains
 807:./Libraries/STM32F4xx_HAL_Driver/Src/stm32f4xx_hal_spi.c ****   *               the configuration information for SPI module.
 808:./Libraries/STM32F4xx_HAL_Driver/Src/stm32f4xx_hal_spi.c ****   * @param  pTxData pointer to transmission data buffer
 809:./Libraries/STM32F4xx_HAL_Driver/Src/stm32f4xx_hal_spi.c ****   * @param  pRxData pointer to reception data buffer
 810:./Libraries/STM32F4xx_HAL_Driver/Src/stm32f4xx_hal_spi.c ****   * @param  Size amount of data to be sent and received
 811:./Libraries/STM32F4xx_HAL_Driver/Src/stm32f4xx_hal_spi.c ****   * @param  Timeout Timeout duration
 812:./Libraries/STM32F4xx_HAL_Driver/Src/stm32f4xx_hal_spi.c ****   * @retval HAL status
 813:./Libraries/STM32F4xx_HAL_Driver/Src/stm32f4xx_hal_spi.c ****   */
 814:./Libraries/STM32F4xx_HAL_Driver/Src/stm32f4xx_hal_spi.c **** HAL_StatusTypeDef HAL_SPI_TransmitReceive(SPI_HandleTypeDef *hspi, uint8_t *pTxData, uint8_t *pRxDa
 815:./Libraries/STM32F4xx_HAL_Driver/Src/stm32f4xx_hal_spi.c **** {
 1384              		.loc 1 815 1
 1385              		.cfi_startproc
 1386              		@ args = 4, pretend = 0, frame = 48
 1387              		@ frame_needed = 1, uses_anonymous_args = 0
 1388 0000 80B5     		push	{r7, lr}
 1389              	.LCFI32:
 1390              		.cfi_def_cfa_offset 8
 1391              		.cfi_offset 7, -8
 1392              		.cfi_offset 14, -4
 1393 0002 8EB0     		sub	sp, sp, #56
 1394              	.LCFI33:
 1395              		.cfi_def_cfa_offset 64
 1396 0004 02AF     		add	r7, sp, #8
 1397              	.LCFI34:
 1398              		.cfi_def_cfa 7, 56
 1399 0006 F860     		str	r0, [r7, #12]
 1400 0008 B960     		str	r1, [r7, #8]
 1401 000a 7A60     		str	r2, [r7, #4]
 1402 000c 7B80     		strh	r3, [r7, #2]	@ movhi
 816:./Libraries/STM32F4xx_HAL_Driver/Src/stm32f4xx_hal_spi.c ****   uint32_t tmp = 0U, tmp1 = 0U;
 1403              		.loc 1 816 12
 1404 000e 0023     		movs	r3, #0
 1405 0010 7B62     		str	r3, [r7, #36]
 1406              		.loc 1 816 22
 1407 0012 0023     		movs	r3, #0
 1408 0014 3B62     		str	r3, [r7, #32]
 817:./Libraries/STM32F4xx_HAL_Driver/Src/stm32f4xx_hal_spi.c **** #if (USE_SPI_CRC != 0U)
 818:./Libraries/STM32F4xx_HAL_Driver/Src/stm32f4xx_hal_spi.c ****   __IO uint16_t tmpreg1 = 0U;
 1409              		.loc 1 818 17
 1410 0016 0023     		movs	r3, #0
ARM GAS  /tmp/ccits0mR.s 			page 40


 1411 0018 7B83     		strh	r3, [r7, #26]	@ movhi
 819:./Libraries/STM32F4xx_HAL_Driver/Src/stm32f4xx_hal_spi.c **** #endif /* USE_SPI_CRC */
 820:./Libraries/STM32F4xx_HAL_Driver/Src/stm32f4xx_hal_spi.c ****   uint32_t tickstart = 0U;
 1412              		.loc 1 820 12
 1413 001a 0023     		movs	r3, #0
 1414 001c FB61     		str	r3, [r7, #28]
 821:./Libraries/STM32F4xx_HAL_Driver/Src/stm32f4xx_hal_spi.c ****   /* Variable used to alternate Rx and Tx during transfer */
 822:./Libraries/STM32F4xx_HAL_Driver/Src/stm32f4xx_hal_spi.c ****   uint32_t txallowed = 1U;
 1415              		.loc 1 822 12
 1416 001e 0123     		movs	r3, #1
 1417 0020 FB62     		str	r3, [r7, #44]
 823:./Libraries/STM32F4xx_HAL_Driver/Src/stm32f4xx_hal_spi.c ****   HAL_StatusTypeDef errorcode = HAL_OK;
 1418              		.loc 1 823 21
 1419 0022 0023     		movs	r3, #0
 1420 0024 87F82B30 		strb	r3, [r7, #43]
 824:./Libraries/STM32F4xx_HAL_Driver/Src/stm32f4xx_hal_spi.c **** 
 825:./Libraries/STM32F4xx_HAL_Driver/Src/stm32f4xx_hal_spi.c ****   /* Check Direction parameter */
 826:./Libraries/STM32F4xx_HAL_Driver/Src/stm32f4xx_hal_spi.c ****   assert_param(IS_SPI_DIRECTION_2LINES(hspi->Init.Direction));
 827:./Libraries/STM32F4xx_HAL_Driver/Src/stm32f4xx_hal_spi.c **** 
 828:./Libraries/STM32F4xx_HAL_Driver/Src/stm32f4xx_hal_spi.c ****   /* Process Locked */
 829:./Libraries/STM32F4xx_HAL_Driver/Src/stm32f4xx_hal_spi.c ****   __HAL_LOCK(hspi);
 1421              		.loc 1 829 3
 1422 0028 FB68     		ldr	r3, [r7, #12]
 1423 002a 93F85030 		ldrb	r3, [r3, #80]	@ zero_extendqisi2
 1424 002e 012B     		cmp	r3, #1
 1425 0030 01D1     		bne	.L71
 1426              		.loc 1 829 3 is_stmt 0 discriminator 1
 1427 0032 0223     		movs	r3, #2
 1428 0034 F2E1     		b	.L72
 1429              	.L71:
 1430              		.loc 1 829 3 discriminator 2
 1431 0036 FB68     		ldr	r3, [r7, #12]
 1432 0038 0122     		movs	r2, #1
 1433 003a 83F85020 		strb	r2, [r3, #80]
 830:./Libraries/STM32F4xx_HAL_Driver/Src/stm32f4xx_hal_spi.c **** 
 831:./Libraries/STM32F4xx_HAL_Driver/Src/stm32f4xx_hal_spi.c ****   /* Init tickstart for timeout management*/
 832:./Libraries/STM32F4xx_HAL_Driver/Src/stm32f4xx_hal_spi.c ****   tickstart = HAL_GetTick();
 1434              		.loc 1 832 15 is_stmt 1 discriminator 2
 1435 003e FFF7FEFF 		bl	HAL_GetTick
 1436 0042 F861     		str	r0, [r7, #28]
 833:./Libraries/STM32F4xx_HAL_Driver/Src/stm32f4xx_hal_spi.c ****   
 834:./Libraries/STM32F4xx_HAL_Driver/Src/stm32f4xx_hal_spi.c ****   tmp  = hspi->State;
 1437              		.loc 1 834 14 discriminator 2
 1438 0044 FB68     		ldr	r3, [r7, #12]
 1439 0046 93F85130 		ldrb	r3, [r3, #81]
 1440 004a DBB2     		uxtb	r3, r3
 1441              		.loc 1 834 8 discriminator 2
 1442 004c 7B62     		str	r3, [r7, #36]
 835:./Libraries/STM32F4xx_HAL_Driver/Src/stm32f4xx_hal_spi.c ****   tmp1 = hspi->Init.Mode;
 1443              		.loc 1 835 8 discriminator 2
 1444 004e FB68     		ldr	r3, [r7, #12]
 1445 0050 5B68     		ldr	r3, [r3, #4]
 1446 0052 3B62     		str	r3, [r7, #32]
 836:./Libraries/STM32F4xx_HAL_Driver/Src/stm32f4xx_hal_spi.c ****   
 837:./Libraries/STM32F4xx_HAL_Driver/Src/stm32f4xx_hal_spi.c ****   if(!((tmp == HAL_SPI_STATE_READY) || \
 1447              		.loc 1 837 5 discriminator 2
 1448 0054 7B6A     		ldr	r3, [r7, #36]
ARM GAS  /tmp/ccits0mR.s 			page 41


 1449 0056 012B     		cmp	r3, #1
 1450 0058 0ED0     		beq	.L73
 1451              		.loc 1 837 6 discriminator 1
 1452 005a 3B6A     		ldr	r3, [r7, #32]
 1453 005c B3F5827F 		cmp	r3, #260
 1454 0060 06D1     		bne	.L74
 838:./Libraries/STM32F4xx_HAL_Driver/Src/stm32f4xx_hal_spi.c ****     ((tmp1 == SPI_MODE_MASTER) && (hspi->Init.Direction == SPI_DIRECTION_2LINES) && (tmp == HAL_SPI
 1455              		.loc 1 838 46
 1456 0062 FB68     		ldr	r3, [r7, #12]
 1457 0064 9B68     		ldr	r3, [r3, #8]
 1458              		.loc 1 838 32
 1459 0066 002B     		cmp	r3, #0
 1460 0068 02D1     		bne	.L74
 1461              		.loc 1 838 82 discriminator 1
 1462 006a 7B6A     		ldr	r3, [r7, #36]
 1463 006c 042B     		cmp	r3, #4
 1464 006e 03D0     		beq	.L73
 1465              	.L74:
 839:./Libraries/STM32F4xx_HAL_Driver/Src/stm32f4xx_hal_spi.c ****   {
 840:./Libraries/STM32F4xx_HAL_Driver/Src/stm32f4xx_hal_spi.c ****     errorcode = HAL_BUSY;
 1466              		.loc 1 840 15
 1467 0070 0223     		movs	r3, #2
 1468 0072 87F82B30 		strb	r3, [r7, #43]
 841:./Libraries/STM32F4xx_HAL_Driver/Src/stm32f4xx_hal_spi.c ****     goto error;
 1469              		.loc 1 841 5
 1470 0076 C7E1     		b	.L75
 1471              	.L73:
 842:./Libraries/STM32F4xx_HAL_Driver/Src/stm32f4xx_hal_spi.c ****   }
 843:./Libraries/STM32F4xx_HAL_Driver/Src/stm32f4xx_hal_spi.c **** 
 844:./Libraries/STM32F4xx_HAL_Driver/Src/stm32f4xx_hal_spi.c ****   if((pTxData == NULL) || (pRxData == NULL) || (Size == 0))
 1472              		.loc 1 844 5
 1473 0078 BB68     		ldr	r3, [r7, #8]
 1474 007a 002B     		cmp	r3, #0
 1475 007c 05D0     		beq	.L76
 1476              		.loc 1 844 24 discriminator 1
 1477 007e 7B68     		ldr	r3, [r7, #4]
 1478 0080 002B     		cmp	r3, #0
 1479 0082 02D0     		beq	.L76
 1480              		.loc 1 844 45 discriminator 2
 1481 0084 7B88     		ldrh	r3, [r7, #2]
 1482 0086 002B     		cmp	r3, #0
 1483 0088 03D1     		bne	.L77
 1484              	.L76:
 845:./Libraries/STM32F4xx_HAL_Driver/Src/stm32f4xx_hal_spi.c ****   {
 846:./Libraries/STM32F4xx_HAL_Driver/Src/stm32f4xx_hal_spi.c ****     errorcode = HAL_ERROR;
 1485              		.loc 1 846 15
 1486 008a 0123     		movs	r3, #1
 1487 008c 87F82B30 		strb	r3, [r7, #43]
 847:./Libraries/STM32F4xx_HAL_Driver/Src/stm32f4xx_hal_spi.c ****     goto error;
 1488              		.loc 1 847 5
 1489 0090 BAE1     		b	.L75
 1490              	.L77:
 848:./Libraries/STM32F4xx_HAL_Driver/Src/stm32f4xx_hal_spi.c ****   }
 849:./Libraries/STM32F4xx_HAL_Driver/Src/stm32f4xx_hal_spi.c **** 
 850:./Libraries/STM32F4xx_HAL_Driver/Src/stm32f4xx_hal_spi.c ****   /* Don't overwrite in case of HAL_SPI_STATE_BUSY_RX */
 851:./Libraries/STM32F4xx_HAL_Driver/Src/stm32f4xx_hal_spi.c ****   if(hspi->State == HAL_SPI_STATE_READY)
 1491              		.loc 1 851 10
ARM GAS  /tmp/ccits0mR.s 			page 42


 1492 0092 FB68     		ldr	r3, [r7, #12]
 1493 0094 93F85130 		ldrb	r3, [r3, #81]
 1494 0098 DBB2     		uxtb	r3, r3
 1495              		.loc 1 851 5
 1496 009a 012B     		cmp	r3, #1
 1497 009c 03D1     		bne	.L78
 852:./Libraries/STM32F4xx_HAL_Driver/Src/stm32f4xx_hal_spi.c ****   {
 853:./Libraries/STM32F4xx_HAL_Driver/Src/stm32f4xx_hal_spi.c ****     hspi->State = HAL_SPI_STATE_BUSY_TX_RX;
 1498              		.loc 1 853 17
 1499 009e FB68     		ldr	r3, [r7, #12]
 1500 00a0 0522     		movs	r2, #5
 1501 00a2 83F85120 		strb	r2, [r3, #81]
 1502              	.L78:
 854:./Libraries/STM32F4xx_HAL_Driver/Src/stm32f4xx_hal_spi.c ****   }
 855:./Libraries/STM32F4xx_HAL_Driver/Src/stm32f4xx_hal_spi.c **** 
 856:./Libraries/STM32F4xx_HAL_Driver/Src/stm32f4xx_hal_spi.c ****   /* Set the transaction information */
 857:./Libraries/STM32F4xx_HAL_Driver/Src/stm32f4xx_hal_spi.c ****   hspi->ErrorCode   = HAL_SPI_ERROR_NONE;
 1503              		.loc 1 857 21
 1504 00a6 FB68     		ldr	r3, [r7, #12]
 1505 00a8 0022     		movs	r2, #0
 1506 00aa 5A65     		str	r2, [r3, #84]
 858:./Libraries/STM32F4xx_HAL_Driver/Src/stm32f4xx_hal_spi.c ****   hspi->pRxBuffPtr  = (uint8_t *)pRxData;
 1507              		.loc 1 858 21
 1508 00ac FB68     		ldr	r3, [r7, #12]
 1509 00ae 7A68     		ldr	r2, [r7, #4]
 1510 00b0 9A63     		str	r2, [r3, #56]
 859:./Libraries/STM32F4xx_HAL_Driver/Src/stm32f4xx_hal_spi.c ****   hspi->RxXferCount = Size;
 1511              		.loc 1 859 21
 1512 00b2 FB68     		ldr	r3, [r7, #12]
 1513 00b4 7A88     		ldrh	r2, [r7, #2]	@ movhi
 1514 00b6 DA87     		strh	r2, [r3, #62]	@ movhi
 860:./Libraries/STM32F4xx_HAL_Driver/Src/stm32f4xx_hal_spi.c ****   hspi->RxXferSize  = Size;
 1515              		.loc 1 860 21
 1516 00b8 FB68     		ldr	r3, [r7, #12]
 1517 00ba 7A88     		ldrh	r2, [r7, #2]	@ movhi
 1518 00bc 9A87     		strh	r2, [r3, #60]	@ movhi
 861:./Libraries/STM32F4xx_HAL_Driver/Src/stm32f4xx_hal_spi.c ****   hspi->pTxBuffPtr  = (uint8_t *)pTxData;
 1519              		.loc 1 861 21
 1520 00be FB68     		ldr	r3, [r7, #12]
 1521 00c0 BA68     		ldr	r2, [r7, #8]
 1522 00c2 1A63     		str	r2, [r3, #48]
 862:./Libraries/STM32F4xx_HAL_Driver/Src/stm32f4xx_hal_spi.c ****   hspi->TxXferCount = Size;
 1523              		.loc 1 862 21
 1524 00c4 FB68     		ldr	r3, [r7, #12]
 1525 00c6 7A88     		ldrh	r2, [r7, #2]	@ movhi
 1526 00c8 DA86     		strh	r2, [r3, #54]	@ movhi
 863:./Libraries/STM32F4xx_HAL_Driver/Src/stm32f4xx_hal_spi.c ****   hspi->TxXferSize  = Size;
 1527              		.loc 1 863 21
 1528 00ca FB68     		ldr	r3, [r7, #12]
 1529 00cc 7A88     		ldrh	r2, [r7, #2]	@ movhi
 1530 00ce 9A86     		strh	r2, [r3, #52]	@ movhi
 864:./Libraries/STM32F4xx_HAL_Driver/Src/stm32f4xx_hal_spi.c **** 
 865:./Libraries/STM32F4xx_HAL_Driver/Src/stm32f4xx_hal_spi.c ****   /*Init field not used in handle to zero */
 866:./Libraries/STM32F4xx_HAL_Driver/Src/stm32f4xx_hal_spi.c ****   hspi->RxISR       = NULL;
 1531              		.loc 1 866 21
 1532 00d0 FB68     		ldr	r3, [r7, #12]
 1533 00d2 0022     		movs	r2, #0
ARM GAS  /tmp/ccits0mR.s 			page 43


 1534 00d4 1A64     		str	r2, [r3, #64]
 867:./Libraries/STM32F4xx_HAL_Driver/Src/stm32f4xx_hal_spi.c ****   hspi->TxISR       = NULL;
 1535              		.loc 1 867 21
 1536 00d6 FB68     		ldr	r3, [r7, #12]
 1537 00d8 0022     		movs	r2, #0
 1538 00da 5A64     		str	r2, [r3, #68]
 868:./Libraries/STM32F4xx_HAL_Driver/Src/stm32f4xx_hal_spi.c **** 
 869:./Libraries/STM32F4xx_HAL_Driver/Src/stm32f4xx_hal_spi.c **** #if (USE_SPI_CRC != 0U)
 870:./Libraries/STM32F4xx_HAL_Driver/Src/stm32f4xx_hal_spi.c ****   /* Reset CRC Calculation */
 871:./Libraries/STM32F4xx_HAL_Driver/Src/stm32f4xx_hal_spi.c ****   if(hspi->Init.CRCCalculation == SPI_CRCCALCULATION_ENABLE)
 1539              		.loc 1 871 16
 1540 00dc FB68     		ldr	r3, [r7, #12]
 1541 00de 9B6A     		ldr	r3, [r3, #40]
 1542              		.loc 1 871 5
 1543 00e0 B3F5005F 		cmp	r3, #8192
 1544 00e4 10D1     		bne	.L79
 872:./Libraries/STM32F4xx_HAL_Driver/Src/stm32f4xx_hal_spi.c ****   {
 873:./Libraries/STM32F4xx_HAL_Driver/Src/stm32f4xx_hal_spi.c ****     SPI_RESET_CRC(hspi);
 1545              		.loc 1 873 5
 1546 00e6 FB68     		ldr	r3, [r7, #12]
 1547 00e8 1B68     		ldr	r3, [r3]
 1548 00ea 1968     		ldr	r1, [r3]
 1549 00ec FB68     		ldr	r3, [r7, #12]
 1550 00ee 1A68     		ldr	r2, [r3]
 1551 00f0 4DF6FF73 		movw	r3, #57343
 1552 00f4 0B40     		ands	r3, r3, r1
 1553 00f6 1360     		str	r3, [r2]
 1554 00f8 FB68     		ldr	r3, [r7, #12]
 1555 00fa 1B68     		ldr	r3, [r3]
 1556 00fc 1A68     		ldr	r2, [r3]
 1557 00fe FB68     		ldr	r3, [r7, #12]
 1558 0100 1B68     		ldr	r3, [r3]
 1559 0102 42F40052 		orr	r2, r2, #8192
 1560 0106 1A60     		str	r2, [r3]
 1561              	.L79:
 874:./Libraries/STM32F4xx_HAL_Driver/Src/stm32f4xx_hal_spi.c ****   }
 875:./Libraries/STM32F4xx_HAL_Driver/Src/stm32f4xx_hal_spi.c **** #endif /* USE_SPI_CRC */
 876:./Libraries/STM32F4xx_HAL_Driver/Src/stm32f4xx_hal_spi.c **** 
 877:./Libraries/STM32F4xx_HAL_Driver/Src/stm32f4xx_hal_spi.c ****   /* Check if the SPI is already enabled */
 878:./Libraries/STM32F4xx_HAL_Driver/Src/stm32f4xx_hal_spi.c ****   if((hspi->Instance->CR1 &SPI_CR1_SPE) != SPI_CR1_SPE)
 1562              		.loc 1 878 11
 1563 0108 FB68     		ldr	r3, [r7, #12]
 1564 010a 1B68     		ldr	r3, [r3]
 1565              		.loc 1 878 21
 1566 010c 1B68     		ldr	r3, [r3]
 1567              		.loc 1 878 27
 1568 010e 03F04003 		and	r3, r3, #64
 1569              		.loc 1 878 5
 1570 0112 402B     		cmp	r3, #64
 1571 0114 07D0     		beq	.L80
 879:./Libraries/STM32F4xx_HAL_Driver/Src/stm32f4xx_hal_spi.c ****   {
 880:./Libraries/STM32F4xx_HAL_Driver/Src/stm32f4xx_hal_spi.c ****     /* Enable SPI peripheral */
 881:./Libraries/STM32F4xx_HAL_Driver/Src/stm32f4xx_hal_spi.c ****     __HAL_SPI_ENABLE(hspi);
 1572              		.loc 1 881 5
 1573 0116 FB68     		ldr	r3, [r7, #12]
 1574 0118 1B68     		ldr	r3, [r3]
 1575 011a 1A68     		ldr	r2, [r3]
ARM GAS  /tmp/ccits0mR.s 			page 44


 1576 011c FB68     		ldr	r3, [r7, #12]
 1577 011e 1B68     		ldr	r3, [r3]
 1578 0120 42F04002 		orr	r2, r2, #64
 1579 0124 1A60     		str	r2, [r3]
 1580              	.L80:
 882:./Libraries/STM32F4xx_HAL_Driver/Src/stm32f4xx_hal_spi.c ****   }
 883:./Libraries/STM32F4xx_HAL_Driver/Src/stm32f4xx_hal_spi.c **** 
 884:./Libraries/STM32F4xx_HAL_Driver/Src/stm32f4xx_hal_spi.c ****   /* Transmit and Receive data in 16 Bit mode */
 885:./Libraries/STM32F4xx_HAL_Driver/Src/stm32f4xx_hal_spi.c ****   if(hspi->Init.DataSize == SPI_DATASIZE_16BIT)
 1581              		.loc 1 885 16
 1582 0126 FB68     		ldr	r3, [r7, #12]
 1583 0128 DB68     		ldr	r3, [r3, #12]
 1584              		.loc 1 885 5
 1585 012a B3F5006F 		cmp	r3, #2048
 1586 012e 40F08480 		bne	.L81
 886:./Libraries/STM32F4xx_HAL_Driver/Src/stm32f4xx_hal_spi.c ****   {
 887:./Libraries/STM32F4xx_HAL_Driver/Src/stm32f4xx_hal_spi.c ****     if((hspi->Init.Mode == SPI_MODE_SLAVE) || (hspi->TxXferCount == 0x01U))
 1587              		.loc 1 887 19
 1588 0132 FB68     		ldr	r3, [r7, #12]
 1589 0134 5B68     		ldr	r3, [r3, #4]
 1590              		.loc 1 887 7
 1591 0136 002B     		cmp	r3, #0
 1592 0138 04D0     		beq	.L82
 1593              		.loc 1 887 52 discriminator 1
 1594 013a FB68     		ldr	r3, [r7, #12]
 1595 013c DB8E     		ldrh	r3, [r3, #54]	@ movhi
 1596 013e 9BB2     		uxth	r3, r3
 1597              		.loc 1 887 44 discriminator 1
 1598 0140 012B     		cmp	r3, #1
 1599 0142 6FD1     		bne	.L84
 1600              	.L82:
 888:./Libraries/STM32F4xx_HAL_Driver/Src/stm32f4xx_hal_spi.c ****     {
 889:./Libraries/STM32F4xx_HAL_Driver/Src/stm32f4xx_hal_spi.c ****       hspi->Instance->DR = *((uint16_t *)pTxData);
 1601              		.loc 1 889 28
 1602 0144 BB68     		ldr	r3, [r7, #8]
 1603 0146 1A88     		ldrh	r2, [r3]
 1604              		.loc 1 889 11
 1605 0148 FB68     		ldr	r3, [r7, #12]
 1606 014a 1B68     		ldr	r3, [r3]
 1607              		.loc 1 889 26
 1608 014c DA60     		str	r2, [r3, #12]
 890:./Libraries/STM32F4xx_HAL_Driver/Src/stm32f4xx_hal_spi.c ****       pTxData += sizeof(uint16_t);
 1609              		.loc 1 890 15
 1610 014e BB68     		ldr	r3, [r7, #8]
 1611 0150 0233     		adds	r3, r3, #2
 1612 0152 BB60     		str	r3, [r7, #8]
 891:./Libraries/STM32F4xx_HAL_Driver/Src/stm32f4xx_hal_spi.c ****       hspi->TxXferCount--;
 1613              		.loc 1 891 11
 1614 0154 FB68     		ldr	r3, [r7, #12]
 1615 0156 DB8E     		ldrh	r3, [r3, #54]	@ movhi
 1616 0158 9BB2     		uxth	r3, r3
 1617              		.loc 1 891 24
 1618 015a 013B     		subs	r3, r3, #1
 1619 015c 9AB2     		uxth	r2, r3
 1620 015e FB68     		ldr	r3, [r7, #12]
 1621 0160 DA86     		strh	r2, [r3, #54]	@ movhi
 892:./Libraries/STM32F4xx_HAL_Driver/Src/stm32f4xx_hal_spi.c ****     }
ARM GAS  /tmp/ccits0mR.s 			page 45


 893:./Libraries/STM32F4xx_HAL_Driver/Src/stm32f4xx_hal_spi.c ****     while ((hspi->TxXferCount > 0U) || (hspi->RxXferCount > 0U))
 1622              		.loc 1 893 11
 1623 0162 5FE0     		b	.L84
 1624              	.L87:
 894:./Libraries/STM32F4xx_HAL_Driver/Src/stm32f4xx_hal_spi.c ****     {
 895:./Libraries/STM32F4xx_HAL_Driver/Src/stm32f4xx_hal_spi.c ****       /* Check TXE flag */
 896:./Libraries/STM32F4xx_HAL_Driver/Src/stm32f4xx_hal_spi.c ****       if(txallowed && (hspi->TxXferCount > 0U) && (__HAL_SPI_GET_FLAG(hspi, SPI_FLAG_TXE)))
 1625              		.loc 1 896 9
 1626 0164 FB6A     		ldr	r3, [r7, #44]
 1627 0166 002B     		cmp	r3, #0
 1628 0168 2ED0     		beq	.L85
 1629              		.loc 1 896 28 discriminator 1
 1630 016a FB68     		ldr	r3, [r7, #12]
 1631 016c DB8E     		ldrh	r3, [r3, #54]	@ movhi
 1632 016e 9BB2     		uxth	r3, r3
 1633              		.loc 1 896 20 discriminator 1
 1634 0170 002B     		cmp	r3, #0
 1635 0172 29D0     		beq	.L85
 1636              		.loc 1 896 52 discriminator 2
 1637 0174 FB68     		ldr	r3, [r7, #12]
 1638 0176 1B68     		ldr	r3, [r3]
 1639 0178 9B68     		ldr	r3, [r3, #8]
 1640 017a 03F00203 		and	r3, r3, #2
 1641              		.loc 1 896 48 discriminator 2
 1642 017e 022B     		cmp	r3, #2
 1643 0180 22D1     		bne	.L85
 897:./Libraries/STM32F4xx_HAL_Driver/Src/stm32f4xx_hal_spi.c ****       {
 898:./Libraries/STM32F4xx_HAL_Driver/Src/stm32f4xx_hal_spi.c ****         hspi->Instance->DR = *((uint16_t *)pTxData);
 1644              		.loc 1 898 30
 1645 0182 BB68     		ldr	r3, [r7, #8]
 1646 0184 1A88     		ldrh	r2, [r3]
 1647              		.loc 1 898 13
 1648 0186 FB68     		ldr	r3, [r7, #12]
 1649 0188 1B68     		ldr	r3, [r3]
 1650              		.loc 1 898 28
 1651 018a DA60     		str	r2, [r3, #12]
 899:./Libraries/STM32F4xx_HAL_Driver/Src/stm32f4xx_hal_spi.c ****         pTxData += sizeof(uint16_t);
 1652              		.loc 1 899 17
 1653 018c BB68     		ldr	r3, [r7, #8]
 1654 018e 0233     		adds	r3, r3, #2
 1655 0190 BB60     		str	r3, [r7, #8]
 900:./Libraries/STM32F4xx_HAL_Driver/Src/stm32f4xx_hal_spi.c ****         hspi->TxXferCount--;
 1656              		.loc 1 900 13
 1657 0192 FB68     		ldr	r3, [r7, #12]
 1658 0194 DB8E     		ldrh	r3, [r3, #54]	@ movhi
 1659 0196 9BB2     		uxth	r3, r3
 1660              		.loc 1 900 26
 1661 0198 013B     		subs	r3, r3, #1
 1662 019a 9AB2     		uxth	r2, r3
 1663 019c FB68     		ldr	r3, [r7, #12]
 1664 019e DA86     		strh	r2, [r3, #54]	@ movhi
 901:./Libraries/STM32F4xx_HAL_Driver/Src/stm32f4xx_hal_spi.c ****         /* Next Data is a reception (Rx). Tx not allowed */ 
 902:./Libraries/STM32F4xx_HAL_Driver/Src/stm32f4xx_hal_spi.c ****         txallowed = 0U;
 1665              		.loc 1 902 19
 1666 01a0 0023     		movs	r3, #0
 1667 01a2 FB62     		str	r3, [r7, #44]
 903:./Libraries/STM32F4xx_HAL_Driver/Src/stm32f4xx_hal_spi.c **** 
ARM GAS  /tmp/ccits0mR.s 			page 46


 904:./Libraries/STM32F4xx_HAL_Driver/Src/stm32f4xx_hal_spi.c **** #if (USE_SPI_CRC != 0U)
 905:./Libraries/STM32F4xx_HAL_Driver/Src/stm32f4xx_hal_spi.c ****         /* Enable CRC Transmission */
 906:./Libraries/STM32F4xx_HAL_Driver/Src/stm32f4xx_hal_spi.c ****         if((hspi->TxXferCount == 0U) && (hspi->Init.CRCCalculation == SPI_CRCCALCULATION_ENABLE))
 1668              		.loc 1 906 17
 1669 01a4 FB68     		ldr	r3, [r7, #12]
 1670 01a6 DB8E     		ldrh	r3, [r3, #54]	@ movhi
 1671 01a8 9BB2     		uxth	r3, r3
 1672              		.loc 1 906 11
 1673 01aa 002B     		cmp	r3, #0
 1674 01ac 0CD1     		bne	.L85
 1675              		.loc 1 906 52 discriminator 1
 1676 01ae FB68     		ldr	r3, [r7, #12]
 1677 01b0 9B6A     		ldr	r3, [r3, #40]
 1678              		.loc 1 906 38 discriminator 1
 1679 01b2 B3F5005F 		cmp	r3, #8192
 1680 01b6 07D1     		bne	.L85
 907:./Libraries/STM32F4xx_HAL_Driver/Src/stm32f4xx_hal_spi.c ****         {
 908:./Libraries/STM32F4xx_HAL_Driver/Src/stm32f4xx_hal_spi.c ****           SET_BIT(hspi->Instance->CR1, SPI_CR1_CRCNEXT);
 1681              		.loc 1 908 11
 1682 01b8 FB68     		ldr	r3, [r7, #12]
 1683 01ba 1B68     		ldr	r3, [r3]
 1684 01bc 1A68     		ldr	r2, [r3]
 1685 01be FB68     		ldr	r3, [r7, #12]
 1686 01c0 1B68     		ldr	r3, [r3]
 1687 01c2 42F48052 		orr	r2, r2, #4096
 1688 01c6 1A60     		str	r2, [r3]
 1689              	.L85:
 909:./Libraries/STM32F4xx_HAL_Driver/Src/stm32f4xx_hal_spi.c ****         }
 910:./Libraries/STM32F4xx_HAL_Driver/Src/stm32f4xx_hal_spi.c **** #endif /* USE_SPI_CRC */
 911:./Libraries/STM32F4xx_HAL_Driver/Src/stm32f4xx_hal_spi.c ****       }
 912:./Libraries/STM32F4xx_HAL_Driver/Src/stm32f4xx_hal_spi.c **** 
 913:./Libraries/STM32F4xx_HAL_Driver/Src/stm32f4xx_hal_spi.c ****       /* Check RXNE flag */
 914:./Libraries/STM32F4xx_HAL_Driver/Src/stm32f4xx_hal_spi.c ****       if((hspi->RxXferCount > 0U) && (__HAL_SPI_GET_FLAG(hspi, SPI_FLAG_RXNE)))
 1690              		.loc 1 914 15
 1691 01c8 FB68     		ldr	r3, [r7, #12]
 1692 01ca DB8F     		ldrh	r3, [r3, #62]	@ movhi
 1693 01cc 9BB2     		uxth	r3, r3
 1694              		.loc 1 914 9
 1695 01ce 002B     		cmp	r3, #0
 1696 01d0 18D0     		beq	.L86
 1697              		.loc 1 914 39 discriminator 1
 1698 01d2 FB68     		ldr	r3, [r7, #12]
 1699 01d4 1B68     		ldr	r3, [r3]
 1700 01d6 9B68     		ldr	r3, [r3, #8]
 1701 01d8 03F00103 		and	r3, r3, #1
 1702              		.loc 1 914 35 discriminator 1
 1703 01dc 012B     		cmp	r3, #1
 1704 01de 11D1     		bne	.L86
 915:./Libraries/STM32F4xx_HAL_Driver/Src/stm32f4xx_hal_spi.c ****       {
 916:./Libraries/STM32F4xx_HAL_Driver/Src/stm32f4xx_hal_spi.c ****         *((uint16_t *)pRxData) = hspi->Instance->DR;
 1705              		.loc 1 916 38
 1706 01e0 FB68     		ldr	r3, [r7, #12]
 1707 01e2 1B68     		ldr	r3, [r3]
 1708              		.loc 1 916 48
 1709 01e4 DB68     		ldr	r3, [r3, #12]
 1710              		.loc 1 916 32
 1711 01e6 9AB2     		uxth	r2, r3
ARM GAS  /tmp/ccits0mR.s 			page 47


 1712 01e8 7B68     		ldr	r3, [r7, #4]
 1713 01ea 1A80     		strh	r2, [r3]	@ movhi
 917:./Libraries/STM32F4xx_HAL_Driver/Src/stm32f4xx_hal_spi.c ****         pRxData += sizeof(uint16_t);
 1714              		.loc 1 917 17
 1715 01ec 7B68     		ldr	r3, [r7, #4]
 1716 01ee 0233     		adds	r3, r3, #2
 1717 01f0 7B60     		str	r3, [r7, #4]
 918:./Libraries/STM32F4xx_HAL_Driver/Src/stm32f4xx_hal_spi.c ****         hspi->RxXferCount--;
 1718              		.loc 1 918 13
 1719 01f2 FB68     		ldr	r3, [r7, #12]
 1720 01f4 DB8F     		ldrh	r3, [r3, #62]	@ movhi
 1721 01f6 9BB2     		uxth	r3, r3
 1722              		.loc 1 918 26
 1723 01f8 013B     		subs	r3, r3, #1
 1724 01fa 9AB2     		uxth	r2, r3
 1725 01fc FB68     		ldr	r3, [r7, #12]
 1726 01fe DA87     		strh	r2, [r3, #62]	@ movhi
 919:./Libraries/STM32F4xx_HAL_Driver/Src/stm32f4xx_hal_spi.c ****         /* Next Data is a Transmission (Tx). Tx is allowed */ 
 920:./Libraries/STM32F4xx_HAL_Driver/Src/stm32f4xx_hal_spi.c ****         txallowed = 1U;
 1727              		.loc 1 920 19
 1728 0200 0123     		movs	r3, #1
 1729 0202 FB62     		str	r3, [r7, #44]
 1730              	.L86:
 921:./Libraries/STM32F4xx_HAL_Driver/Src/stm32f4xx_hal_spi.c ****       }
 922:./Libraries/STM32F4xx_HAL_Driver/Src/stm32f4xx_hal_spi.c ****       if((Timeout != HAL_MAX_DELAY) && ((HAL_GetTick()-tickstart) >=  Timeout))
 1731              		.loc 1 922 9
 1732 0204 BB6B     		ldr	r3, [r7, #56]
 1733 0206 B3F1FF3F 		cmp	r3, #-1
 1734 020a 0BD0     		beq	.L84
 1735              		.loc 1 922 42 discriminator 1
 1736 020c FFF7FEFF 		bl	HAL_GetTick
 1737 0210 0246     		mov	r2, r0
 1738              		.loc 1 922 55 discriminator 1
 1739 0212 FB69     		ldr	r3, [r7, #28]
 1740 0214 D31A     		subs	r3, r2, r3
 1741              		.loc 1 922 37 discriminator 1
 1742 0216 BA6B     		ldr	r2, [r7, #56]
 1743 0218 9A42     		cmp	r2, r3
 1744 021a 03D8     		bhi	.L84
 923:./Libraries/STM32F4xx_HAL_Driver/Src/stm32f4xx_hal_spi.c ****       {
 924:./Libraries/STM32F4xx_HAL_Driver/Src/stm32f4xx_hal_spi.c ****         errorcode = HAL_TIMEOUT;
 1745              		.loc 1 924 19
 1746 021c 0323     		movs	r3, #3
 1747 021e 87F82B30 		strb	r3, [r7, #43]
 925:./Libraries/STM32F4xx_HAL_Driver/Src/stm32f4xx_hal_spi.c ****         goto error;
 1748              		.loc 1 925 9
 1749 0222 F1E0     		b	.L75
 1750              	.L84:
 893:./Libraries/STM32F4xx_HAL_Driver/Src/stm32f4xx_hal_spi.c ****     {
 1751              		.loc 1 893 17
 1752 0224 FB68     		ldr	r3, [r7, #12]
 1753 0226 DB8E     		ldrh	r3, [r3, #54]	@ movhi
 1754 0228 9BB2     		uxth	r3, r3
 893:./Libraries/STM32F4xx_HAL_Driver/Src/stm32f4xx_hal_spi.c ****     {
 1755              		.loc 1 893 11
 1756 022a 002B     		cmp	r3, #0
 1757 022c 9AD1     		bne	.L87
ARM GAS  /tmp/ccits0mR.s 			page 48


 893:./Libraries/STM32F4xx_HAL_Driver/Src/stm32f4xx_hal_spi.c ****     {
 1758              		.loc 1 893 45 discriminator 1
 1759 022e FB68     		ldr	r3, [r7, #12]
 1760 0230 DB8F     		ldrh	r3, [r3, #62]	@ movhi
 1761 0232 9BB2     		uxth	r3, r3
 893:./Libraries/STM32F4xx_HAL_Driver/Src/stm32f4xx_hal_spi.c ****     {
 1762              		.loc 1 893 37 discriminator 1
 1763 0234 002B     		cmp	r3, #0
 1764 0236 95D1     		bne	.L87
 1765 0238 82E0     		b	.L88
 1766              	.L81:
 926:./Libraries/STM32F4xx_HAL_Driver/Src/stm32f4xx_hal_spi.c ****       }
 927:./Libraries/STM32F4xx_HAL_Driver/Src/stm32f4xx_hal_spi.c ****     }
 928:./Libraries/STM32F4xx_HAL_Driver/Src/stm32f4xx_hal_spi.c ****   }
 929:./Libraries/STM32F4xx_HAL_Driver/Src/stm32f4xx_hal_spi.c ****   /* Transmit and Receive data in 8 Bit mode */
 930:./Libraries/STM32F4xx_HAL_Driver/Src/stm32f4xx_hal_spi.c ****   else
 931:./Libraries/STM32F4xx_HAL_Driver/Src/stm32f4xx_hal_spi.c ****   {
 932:./Libraries/STM32F4xx_HAL_Driver/Src/stm32f4xx_hal_spi.c ****     if((hspi->Init.Mode == SPI_MODE_SLAVE) || (hspi->TxXferCount == 0x01U))
 1767              		.loc 1 932 19
 1768 023a FB68     		ldr	r3, [r7, #12]
 1769 023c 5B68     		ldr	r3, [r3, #4]
 1770              		.loc 1 932 7
 1771 023e 002B     		cmp	r3, #0
 1772 0240 04D0     		beq	.L89
 1773              		.loc 1 932 52 discriminator 1
 1774 0242 FB68     		ldr	r3, [r7, #12]
 1775 0244 DB8E     		ldrh	r3, [r3, #54]	@ movhi
 1776 0246 9BB2     		uxth	r3, r3
 1777              		.loc 1 932 44 discriminator 1
 1778 0248 012B     		cmp	r3, #1
 1779 024a 6FD1     		bne	.L91
 1780              	.L89:
 933:./Libraries/STM32F4xx_HAL_Driver/Src/stm32f4xx_hal_spi.c ****     {
 934:./Libraries/STM32F4xx_HAL_Driver/Src/stm32f4xx_hal_spi.c ****       *((__IO uint8_t*)&hspi->Instance->DR) = (*pTxData);
 1781              		.loc 1 934 29
 1782 024c FB68     		ldr	r3, [r7, #12]
 1783 024e 1B68     		ldr	r3, [r3]
 1784              		.loc 1 934 24
 1785 0250 0C33     		adds	r3, r3, #12
 1786              		.loc 1 934 48
 1787 0252 BA68     		ldr	r2, [r7, #8]
 1788 0254 1278     		ldrb	r2, [r2]	@ zero_extendqisi2
 1789              		.loc 1 934 45
 1790 0256 1A70     		strb	r2, [r3]
 935:./Libraries/STM32F4xx_HAL_Driver/Src/stm32f4xx_hal_spi.c ****       pTxData += sizeof(uint8_t);
 1791              		.loc 1 935 15
 1792 0258 BB68     		ldr	r3, [r7, #8]
 1793 025a 0133     		adds	r3, r3, #1
 1794 025c BB60     		str	r3, [r7, #8]
 936:./Libraries/STM32F4xx_HAL_Driver/Src/stm32f4xx_hal_spi.c ****       hspi->TxXferCount--;
 1795              		.loc 1 936 11
 1796 025e FB68     		ldr	r3, [r7, #12]
 1797 0260 DB8E     		ldrh	r3, [r3, #54]	@ movhi
 1798 0262 9BB2     		uxth	r3, r3
 1799              		.loc 1 936 24
 1800 0264 013B     		subs	r3, r3, #1
 1801 0266 9AB2     		uxth	r2, r3
ARM GAS  /tmp/ccits0mR.s 			page 49


 1802 0268 FB68     		ldr	r3, [r7, #12]
 1803 026a DA86     		strh	r2, [r3, #54]	@ movhi
 937:./Libraries/STM32F4xx_HAL_Driver/Src/stm32f4xx_hal_spi.c ****     }
 938:./Libraries/STM32F4xx_HAL_Driver/Src/stm32f4xx_hal_spi.c ****     while((hspi->TxXferCount > 0U) || (hspi->RxXferCount > 0U))
 1804              		.loc 1 938 10
 1805 026c 5EE0     		b	.L91
 1806              	.L94:
 939:./Libraries/STM32F4xx_HAL_Driver/Src/stm32f4xx_hal_spi.c ****     {
 940:./Libraries/STM32F4xx_HAL_Driver/Src/stm32f4xx_hal_spi.c ****       /* check TXE flag */
 941:./Libraries/STM32F4xx_HAL_Driver/Src/stm32f4xx_hal_spi.c ****       if(txallowed && (hspi->TxXferCount > 0U) && (__HAL_SPI_GET_FLAG(hspi, SPI_FLAG_TXE)))
 1807              		.loc 1 941 9
 1808 026e FB6A     		ldr	r3, [r7, #44]
 1809 0270 002B     		cmp	r3, #0
 1810 0272 2ED0     		beq	.L92
 1811              		.loc 1 941 28 discriminator 1
 1812 0274 FB68     		ldr	r3, [r7, #12]
 1813 0276 DB8E     		ldrh	r3, [r3, #54]	@ movhi
 1814 0278 9BB2     		uxth	r3, r3
 1815              		.loc 1 941 20 discriminator 1
 1816 027a 002B     		cmp	r3, #0
 1817 027c 29D0     		beq	.L92
 1818              		.loc 1 941 52 discriminator 2
 1819 027e FB68     		ldr	r3, [r7, #12]
 1820 0280 1B68     		ldr	r3, [r3]
 1821 0282 9B68     		ldr	r3, [r3, #8]
 1822 0284 03F00203 		and	r3, r3, #2
 1823              		.loc 1 941 48 discriminator 2
 1824 0288 022B     		cmp	r3, #2
 1825 028a 22D1     		bne	.L92
 942:./Libraries/STM32F4xx_HAL_Driver/Src/stm32f4xx_hal_spi.c ****       {
 943:./Libraries/STM32F4xx_HAL_Driver/Src/stm32f4xx_hal_spi.c ****         *(__IO uint8_t *)&hspi->Instance->DR = (*pTxData++);
 1826              		.loc 1 943 57
 1827 028c BB68     		ldr	r3, [r7, #8]
 1828 028e 5A1C     		adds	r2, r3, #1
 1829 0290 BA60     		str	r2, [r7, #8]
 1830              		.loc 1 943 31
 1831 0292 FA68     		ldr	r2, [r7, #12]
 1832 0294 1268     		ldr	r2, [r2]
 1833              		.loc 1 943 26
 1834 0296 0C32     		adds	r2, r2, #12
 1835              		.loc 1 943 49
 1836 0298 1B78     		ldrb	r3, [r3]	@ zero_extendqisi2
 1837              		.loc 1 943 46
 1838 029a 1370     		strb	r3, [r2]
 944:./Libraries/STM32F4xx_HAL_Driver/Src/stm32f4xx_hal_spi.c ****         hspi->TxXferCount--;
 1839              		.loc 1 944 13
 1840 029c FB68     		ldr	r3, [r7, #12]
 1841 029e DB8E     		ldrh	r3, [r3, #54]	@ movhi
 1842 02a0 9BB2     		uxth	r3, r3
 1843              		.loc 1 944 26
 1844 02a2 013B     		subs	r3, r3, #1
 1845 02a4 9AB2     		uxth	r2, r3
 1846 02a6 FB68     		ldr	r3, [r7, #12]
 1847 02a8 DA86     		strh	r2, [r3, #54]	@ movhi
 945:./Libraries/STM32F4xx_HAL_Driver/Src/stm32f4xx_hal_spi.c ****         /* Next Data is a reception (Rx). Tx not allowed */ 
 946:./Libraries/STM32F4xx_HAL_Driver/Src/stm32f4xx_hal_spi.c ****         txallowed = 0U;
 1848              		.loc 1 946 19
ARM GAS  /tmp/ccits0mR.s 			page 50


 1849 02aa 0023     		movs	r3, #0
 1850 02ac FB62     		str	r3, [r7, #44]
 947:./Libraries/STM32F4xx_HAL_Driver/Src/stm32f4xx_hal_spi.c **** 
 948:./Libraries/STM32F4xx_HAL_Driver/Src/stm32f4xx_hal_spi.c **** #if (USE_SPI_CRC != 0U)
 949:./Libraries/STM32F4xx_HAL_Driver/Src/stm32f4xx_hal_spi.c ****         /* Enable CRC Transmission */
 950:./Libraries/STM32F4xx_HAL_Driver/Src/stm32f4xx_hal_spi.c ****         if((hspi->TxXferCount == 0U) && (hspi->Init.CRCCalculation == SPI_CRCCALCULATION_ENABLE))
 1851              		.loc 1 950 17
 1852 02ae FB68     		ldr	r3, [r7, #12]
 1853 02b0 DB8E     		ldrh	r3, [r3, #54]	@ movhi
 1854 02b2 9BB2     		uxth	r3, r3
 1855              		.loc 1 950 11
 1856 02b4 002B     		cmp	r3, #0
 1857 02b6 0CD1     		bne	.L92
 1858              		.loc 1 950 52 discriminator 1
 1859 02b8 FB68     		ldr	r3, [r7, #12]
 1860 02ba 9B6A     		ldr	r3, [r3, #40]
 1861              		.loc 1 950 38 discriminator 1
 1862 02bc B3F5005F 		cmp	r3, #8192
 1863 02c0 07D1     		bne	.L92
 951:./Libraries/STM32F4xx_HAL_Driver/Src/stm32f4xx_hal_spi.c ****         {
 952:./Libraries/STM32F4xx_HAL_Driver/Src/stm32f4xx_hal_spi.c ****           SET_BIT(hspi->Instance->CR1, SPI_CR1_CRCNEXT);
 1864              		.loc 1 952 11
 1865 02c2 FB68     		ldr	r3, [r7, #12]
 1866 02c4 1B68     		ldr	r3, [r3]
 1867 02c6 1A68     		ldr	r2, [r3]
 1868 02c8 FB68     		ldr	r3, [r7, #12]
 1869 02ca 1B68     		ldr	r3, [r3]
 1870 02cc 42F48052 		orr	r2, r2, #4096
 1871 02d0 1A60     		str	r2, [r3]
 1872              	.L92:
 953:./Libraries/STM32F4xx_HAL_Driver/Src/stm32f4xx_hal_spi.c ****         }
 954:./Libraries/STM32F4xx_HAL_Driver/Src/stm32f4xx_hal_spi.c **** #endif /* USE_SPI_CRC */
 955:./Libraries/STM32F4xx_HAL_Driver/Src/stm32f4xx_hal_spi.c ****       }
 956:./Libraries/STM32F4xx_HAL_Driver/Src/stm32f4xx_hal_spi.c **** 
 957:./Libraries/STM32F4xx_HAL_Driver/Src/stm32f4xx_hal_spi.c ****       /* Wait until RXNE flag is reset */
 958:./Libraries/STM32F4xx_HAL_Driver/Src/stm32f4xx_hal_spi.c ****       if((hspi->RxXferCount > 0U) && (__HAL_SPI_GET_FLAG(hspi, SPI_FLAG_RXNE)))
 1873              		.loc 1 958 15
 1874 02d2 FB68     		ldr	r3, [r7, #12]
 1875 02d4 DB8F     		ldrh	r3, [r3, #62]	@ movhi
 1876 02d6 9BB2     		uxth	r3, r3
 1877              		.loc 1 958 9
 1878 02d8 002B     		cmp	r3, #0
 1879 02da 17D0     		beq	.L93
 1880              		.loc 1 958 39 discriminator 1
 1881 02dc FB68     		ldr	r3, [r7, #12]
 1882 02de 1B68     		ldr	r3, [r3]
 1883 02e0 9B68     		ldr	r3, [r3, #8]
 1884 02e2 03F00103 		and	r3, r3, #1
 1885              		.loc 1 958 35 discriminator 1
 1886 02e6 012B     		cmp	r3, #1
 1887 02e8 10D1     		bne	.L93
 959:./Libraries/STM32F4xx_HAL_Driver/Src/stm32f4xx_hal_spi.c ****       {
 960:./Libraries/STM32F4xx_HAL_Driver/Src/stm32f4xx_hal_spi.c ****         (*(uint8_t *)pRxData++) = hspi->Instance->DR;
 1888              		.loc 1 960 39
 1889 02ea FB68     		ldr	r3, [r7, #12]
 1890 02ec 1B68     		ldr	r3, [r3]
 1891              		.loc 1 960 49
ARM GAS  /tmp/ccits0mR.s 			page 51


 1892 02ee D968     		ldr	r1, [r3, #12]
 1893              		.loc 1 960 11
 1894 02f0 7B68     		ldr	r3, [r7, #4]
 1895 02f2 5A1C     		adds	r2, r3, #1
 1896 02f4 7A60     		str	r2, [r7, #4]
 1897              		.loc 1 960 33
 1898 02f6 CAB2     		uxtb	r2, r1
 1899 02f8 1A70     		strb	r2, [r3]
 961:./Libraries/STM32F4xx_HAL_Driver/Src/stm32f4xx_hal_spi.c ****         hspi->RxXferCount--;
 1900              		.loc 1 961 13
 1901 02fa FB68     		ldr	r3, [r7, #12]
 1902 02fc DB8F     		ldrh	r3, [r3, #62]	@ movhi
 1903 02fe 9BB2     		uxth	r3, r3
 1904              		.loc 1 961 26
 1905 0300 013B     		subs	r3, r3, #1
 1906 0302 9AB2     		uxth	r2, r3
 1907 0304 FB68     		ldr	r3, [r7, #12]
 1908 0306 DA87     		strh	r2, [r3, #62]	@ movhi
 962:./Libraries/STM32F4xx_HAL_Driver/Src/stm32f4xx_hal_spi.c ****         /* Next Data is a Transmission (Tx). Tx is allowed */ 
 963:./Libraries/STM32F4xx_HAL_Driver/Src/stm32f4xx_hal_spi.c ****         txallowed = 1U;
 1909              		.loc 1 963 19
 1910 0308 0123     		movs	r3, #1
 1911 030a FB62     		str	r3, [r7, #44]
 1912              	.L93:
 964:./Libraries/STM32F4xx_HAL_Driver/Src/stm32f4xx_hal_spi.c ****       }
 965:./Libraries/STM32F4xx_HAL_Driver/Src/stm32f4xx_hal_spi.c ****       if((Timeout != HAL_MAX_DELAY) && ((HAL_GetTick()-tickstart) >=  Timeout))
 1913              		.loc 1 965 9
 1914 030c BB6B     		ldr	r3, [r7, #56]
 1915 030e B3F1FF3F 		cmp	r3, #-1
 1916 0312 0BD0     		beq	.L91
 1917              		.loc 1 965 42 discriminator 1
 1918 0314 FFF7FEFF 		bl	HAL_GetTick
 1919 0318 0246     		mov	r2, r0
 1920              		.loc 1 965 55 discriminator 1
 1921 031a FB69     		ldr	r3, [r7, #28]
 1922 031c D31A     		subs	r3, r2, r3
 1923              		.loc 1 965 37 discriminator 1
 1924 031e BA6B     		ldr	r2, [r7, #56]
 1925 0320 9A42     		cmp	r2, r3
 1926 0322 03D8     		bhi	.L91
 966:./Libraries/STM32F4xx_HAL_Driver/Src/stm32f4xx_hal_spi.c ****       {
 967:./Libraries/STM32F4xx_HAL_Driver/Src/stm32f4xx_hal_spi.c ****         errorcode = HAL_TIMEOUT;
 1927              		.loc 1 967 19
 1928 0324 0323     		movs	r3, #3
 1929 0326 87F82B30 		strb	r3, [r7, #43]
 968:./Libraries/STM32F4xx_HAL_Driver/Src/stm32f4xx_hal_spi.c ****         goto error;
 1930              		.loc 1 968 9
 1931 032a 6DE0     		b	.L75
 1932              	.L91:
 938:./Libraries/STM32F4xx_HAL_Driver/Src/stm32f4xx_hal_spi.c ****     {
 1933              		.loc 1 938 16
 1934 032c FB68     		ldr	r3, [r7, #12]
 1935 032e DB8E     		ldrh	r3, [r3, #54]	@ movhi
 1936 0330 9BB2     		uxth	r3, r3
 938:./Libraries/STM32F4xx_HAL_Driver/Src/stm32f4xx_hal_spi.c ****     {
 1937              		.loc 1 938 10
 1938 0332 002B     		cmp	r3, #0
ARM GAS  /tmp/ccits0mR.s 			page 52


 1939 0334 9BD1     		bne	.L94
 938:./Libraries/STM32F4xx_HAL_Driver/Src/stm32f4xx_hal_spi.c ****     {
 1940              		.loc 1 938 44 discriminator 1
 1941 0336 FB68     		ldr	r3, [r7, #12]
 1942 0338 DB8F     		ldrh	r3, [r3, #62]	@ movhi
 1943 033a 9BB2     		uxth	r3, r3
 938:./Libraries/STM32F4xx_HAL_Driver/Src/stm32f4xx_hal_spi.c ****     {
 1944              		.loc 1 938 36 discriminator 1
 1945 033c 002B     		cmp	r3, #0
 1946 033e 96D1     		bne	.L94
 1947              	.L88:
 969:./Libraries/STM32F4xx_HAL_Driver/Src/stm32f4xx_hal_spi.c ****       }
 970:./Libraries/STM32F4xx_HAL_Driver/Src/stm32f4xx_hal_spi.c ****     }
 971:./Libraries/STM32F4xx_HAL_Driver/Src/stm32f4xx_hal_spi.c ****   }
 972:./Libraries/STM32F4xx_HAL_Driver/Src/stm32f4xx_hal_spi.c **** 
 973:./Libraries/STM32F4xx_HAL_Driver/Src/stm32f4xx_hal_spi.c **** #if (USE_SPI_CRC != 0U)
 974:./Libraries/STM32F4xx_HAL_Driver/Src/stm32f4xx_hal_spi.c ****   /* Read CRC from DR to close CRC calculation process */
 975:./Libraries/STM32F4xx_HAL_Driver/Src/stm32f4xx_hal_spi.c ****   if(hspi->Init.CRCCalculation == SPI_CRCCALCULATION_ENABLE)
 1948              		.loc 1 975 16
 1949 0340 FB68     		ldr	r3, [r7, #12]
 1950 0342 9B6A     		ldr	r3, [r3, #40]
 1951              		.loc 1 975 5
 1952 0344 B3F5005F 		cmp	r3, #8192
 1953 0348 1AD1     		bne	.L95
 976:./Libraries/STM32F4xx_HAL_Driver/Src/stm32f4xx_hal_spi.c ****   {
 977:./Libraries/STM32F4xx_HAL_Driver/Src/stm32f4xx_hal_spi.c ****     /* Wait until TXE flag */
 978:./Libraries/STM32F4xx_HAL_Driver/Src/stm32f4xx_hal_spi.c ****     if(SPI_WaitFlagStateUntilTimeout(hspi, SPI_FLAG_RXNE, SET, Timeout, tickstart) != HAL_OK)
 1954              		.loc 1 978 8
 1955 034a FB69     		ldr	r3, [r7, #28]
 1956 034c 0093     		str	r3, [sp]
 1957 034e BB6B     		ldr	r3, [r7, #56]
 1958 0350 0122     		movs	r2, #1
 1959 0352 0121     		movs	r1, #1
 1960 0354 F868     		ldr	r0, [r7, #12]
 1961 0356 FFF7FEFF 		bl	SPI_WaitFlagStateUntilTimeout
 1962 035a 0346     		mov	r3, r0
 1963              		.loc 1 978 7
 1964 035c 002B     		cmp	r3, #0
 1965 035e 09D0     		beq	.L96
 979:./Libraries/STM32F4xx_HAL_Driver/Src/stm32f4xx_hal_spi.c ****     {
 980:./Libraries/STM32F4xx_HAL_Driver/Src/stm32f4xx_hal_spi.c ****       /* Error on the CRC reception */
 981:./Libraries/STM32F4xx_HAL_Driver/Src/stm32f4xx_hal_spi.c ****       SET_BIT(hspi->ErrorCode, HAL_SPI_ERROR_CRC);
 1966              		.loc 1 981 7
 1967 0360 FB68     		ldr	r3, [r7, #12]
 1968 0362 5B6D     		ldr	r3, [r3, #84]
 1969 0364 43F00202 		orr	r2, r3, #2
 1970 0368 FB68     		ldr	r3, [r7, #12]
 1971 036a 5A65     		str	r2, [r3, #84]
 982:./Libraries/STM32F4xx_HAL_Driver/Src/stm32f4xx_hal_spi.c ****       errorcode = HAL_TIMEOUT;
 1972              		.loc 1 982 17
 1973 036c 0323     		movs	r3, #3
 1974 036e 87F82B30 		strb	r3, [r7, #43]
 983:./Libraries/STM32F4xx_HAL_Driver/Src/stm32f4xx_hal_spi.c ****       goto error;
 1975              		.loc 1 983 7
 1976 0372 49E0     		b	.L75
 1977              	.L96:
 984:./Libraries/STM32F4xx_HAL_Driver/Src/stm32f4xx_hal_spi.c ****     }
ARM GAS  /tmp/ccits0mR.s 			page 53


 985:./Libraries/STM32F4xx_HAL_Driver/Src/stm32f4xx_hal_spi.c ****     /* Read CRC */
 986:./Libraries/STM32F4xx_HAL_Driver/Src/stm32f4xx_hal_spi.c ****     tmpreg1 = hspi->Instance->DR;
 1978              		.loc 1 986 19
 1979 0374 FB68     		ldr	r3, [r7, #12]
 1980 0376 1B68     		ldr	r3, [r3]
 1981              		.loc 1 986 29
 1982 0378 DB68     		ldr	r3, [r3, #12]
 1983              		.loc 1 986 13
 1984 037a 9BB2     		uxth	r3, r3
 1985 037c 7B83     		strh	r3, [r7, #26]	@ movhi
 987:./Libraries/STM32F4xx_HAL_Driver/Src/stm32f4xx_hal_spi.c ****     /* To avoid GCC warning */
 988:./Libraries/STM32F4xx_HAL_Driver/Src/stm32f4xx_hal_spi.c ****     UNUSED(tmpreg1);
 1986              		.loc 1 988 5
 1987 037e 7B8B     		ldrh	r3, [r7, #26]	@ movhi
 1988              	.L95:
 989:./Libraries/STM32F4xx_HAL_Driver/Src/stm32f4xx_hal_spi.c ****   }
 990:./Libraries/STM32F4xx_HAL_Driver/Src/stm32f4xx_hal_spi.c **** 
 991:./Libraries/STM32F4xx_HAL_Driver/Src/stm32f4xx_hal_spi.c ****   /* Check if CRC error occurred */
 992:./Libraries/STM32F4xx_HAL_Driver/Src/stm32f4xx_hal_spi.c ****   if(__HAL_SPI_GET_FLAG(hspi, SPI_FLAG_CRCERR))
 1989              		.loc 1 992 6
 1990 0380 FB68     		ldr	r3, [r7, #12]
 1991 0382 1B68     		ldr	r3, [r3]
 1992 0384 9B68     		ldr	r3, [r3, #8]
 1993 0386 03F01003 		and	r3, r3, #16
 1994              		.loc 1 992 5
 1995 038a 102B     		cmp	r3, #16
 1996 038c 0DD1     		bne	.L97
 993:./Libraries/STM32F4xx_HAL_Driver/Src/stm32f4xx_hal_spi.c ****   {
 994:./Libraries/STM32F4xx_HAL_Driver/Src/stm32f4xx_hal_spi.c ****     SET_BIT(hspi->ErrorCode, HAL_SPI_ERROR_CRC);
 1997              		.loc 1 994 5
 1998 038e FB68     		ldr	r3, [r7, #12]
 1999 0390 5B6D     		ldr	r3, [r3, #84]
 2000 0392 43F00202 		orr	r2, r3, #2
 2001 0396 FB68     		ldr	r3, [r7, #12]
 2002 0398 5A65     		str	r2, [r3, #84]
 995:./Libraries/STM32F4xx_HAL_Driver/Src/stm32f4xx_hal_spi.c ****     /* Clear CRC Flag */
 996:./Libraries/STM32F4xx_HAL_Driver/Src/stm32f4xx_hal_spi.c ****     __HAL_SPI_CLEAR_CRCERRFLAG(hspi);
 2003              		.loc 1 996 5
 2004 039a FB68     		ldr	r3, [r7, #12]
 2005 039c 1B68     		ldr	r3, [r3]
 2006 039e 4FF6EF72 		movw	r2, #65519
 2007 03a2 9A60     		str	r2, [r3, #8]
 997:./Libraries/STM32F4xx_HAL_Driver/Src/stm32f4xx_hal_spi.c **** 
 998:./Libraries/STM32F4xx_HAL_Driver/Src/stm32f4xx_hal_spi.c ****     errorcode = HAL_ERROR;
 2008              		.loc 1 998 15
 2009 03a4 0123     		movs	r3, #1
 2010 03a6 87F82B30 		strb	r3, [r7, #43]
 2011              	.L97:
 999:./Libraries/STM32F4xx_HAL_Driver/Src/stm32f4xx_hal_spi.c ****   }
1000:./Libraries/STM32F4xx_HAL_Driver/Src/stm32f4xx_hal_spi.c **** #endif /* USE_SPI_CRC */
1001:./Libraries/STM32F4xx_HAL_Driver/Src/stm32f4xx_hal_spi.c **** 
1002:./Libraries/STM32F4xx_HAL_Driver/Src/stm32f4xx_hal_spi.c ****   /* Wait until TXE flag */
1003:./Libraries/STM32F4xx_HAL_Driver/Src/stm32f4xx_hal_spi.c ****   if(SPI_WaitFlagStateUntilTimeout(hspi, SPI_FLAG_TXE, SET, Timeout, tickstart) != HAL_OK)
 2012              		.loc 1 1003 6
 2013 03aa FB69     		ldr	r3, [r7, #28]
 2014 03ac 0093     		str	r3, [sp]
 2015 03ae BB6B     		ldr	r3, [r7, #56]
ARM GAS  /tmp/ccits0mR.s 			page 54


 2016 03b0 0122     		movs	r2, #1
 2017 03b2 0221     		movs	r1, #2
 2018 03b4 F868     		ldr	r0, [r7, #12]
 2019 03b6 FFF7FEFF 		bl	SPI_WaitFlagStateUntilTimeout
 2020 03ba 0346     		mov	r3, r0
 2021              		.loc 1 1003 5
 2022 03bc 002B     		cmp	r3, #0
 2023 03be 03D0     		beq	.L98
1004:./Libraries/STM32F4xx_HAL_Driver/Src/stm32f4xx_hal_spi.c ****   {
1005:./Libraries/STM32F4xx_HAL_Driver/Src/stm32f4xx_hal_spi.c ****     errorcode = HAL_TIMEOUT;
 2024              		.loc 1 1005 15
 2025 03c0 0323     		movs	r3, #3
 2026 03c2 87F82B30 		strb	r3, [r7, #43]
1006:./Libraries/STM32F4xx_HAL_Driver/Src/stm32f4xx_hal_spi.c ****     goto error;
 2027              		.loc 1 1006 5
 2028 03c6 1FE0     		b	.L75
 2029              	.L98:
1007:./Libraries/STM32F4xx_HAL_Driver/Src/stm32f4xx_hal_spi.c ****   }
1008:./Libraries/STM32F4xx_HAL_Driver/Src/stm32f4xx_hal_spi.c ****   
1009:./Libraries/STM32F4xx_HAL_Driver/Src/stm32f4xx_hal_spi.c ****   /* Check Busy flag */
1010:./Libraries/STM32F4xx_HAL_Driver/Src/stm32f4xx_hal_spi.c ****   if(SPI_CheckFlag_BSY(hspi, Timeout, tickstart) != HAL_OK)
 2030              		.loc 1 1010 6
 2031 03c8 FA69     		ldr	r2, [r7, #28]
 2032 03ca B96B     		ldr	r1, [r7, #56]
 2033 03cc F868     		ldr	r0, [r7, #12]
 2034 03ce FFF7FEFF 		bl	SPI_CheckFlag_BSY
 2035 03d2 0346     		mov	r3, r0
 2036              		.loc 1 1010 5
 2037 03d4 002B     		cmp	r3, #0
 2038 03d6 06D0     		beq	.L99
1011:./Libraries/STM32F4xx_HAL_Driver/Src/stm32f4xx_hal_spi.c ****   {
1012:./Libraries/STM32F4xx_HAL_Driver/Src/stm32f4xx_hal_spi.c ****     errorcode = HAL_ERROR;
 2039              		.loc 1 1012 15
 2040 03d8 0123     		movs	r3, #1
 2041 03da 87F82B30 		strb	r3, [r7, #43]
1013:./Libraries/STM32F4xx_HAL_Driver/Src/stm32f4xx_hal_spi.c ****     hspi->ErrorCode = HAL_SPI_ERROR_FLAG;
 2042              		.loc 1 1013 21
 2043 03de FB68     		ldr	r3, [r7, #12]
 2044 03e0 2022     		movs	r2, #32
 2045 03e2 5A65     		str	r2, [r3, #84]
1014:./Libraries/STM32F4xx_HAL_Driver/Src/stm32f4xx_hal_spi.c ****     goto error;
 2046              		.loc 1 1014 5
 2047 03e4 10E0     		b	.L75
 2048              	.L99:
1015:./Libraries/STM32F4xx_HAL_Driver/Src/stm32f4xx_hal_spi.c ****   }
1016:./Libraries/STM32F4xx_HAL_Driver/Src/stm32f4xx_hal_spi.c **** 
1017:./Libraries/STM32F4xx_HAL_Driver/Src/stm32f4xx_hal_spi.c ****   /* Clear overrun flag in 2 Lines communication mode because received is not read */
1018:./Libraries/STM32F4xx_HAL_Driver/Src/stm32f4xx_hal_spi.c ****   if(hspi->Init.Direction == SPI_DIRECTION_2LINES)
 2049              		.loc 1 1018 16
 2050 03e6 FB68     		ldr	r3, [r7, #12]
 2051 03e8 9B68     		ldr	r3, [r3, #8]
 2052              		.loc 1 1018 5
 2053 03ea 002B     		cmp	r3, #0
 2054 03ec 0BD1     		bne	.L100
 2055              	.LBB3:
1019:./Libraries/STM32F4xx_HAL_Driver/Src/stm32f4xx_hal_spi.c ****   {
1020:./Libraries/STM32F4xx_HAL_Driver/Src/stm32f4xx_hal_spi.c ****     __HAL_SPI_CLEAR_OVRFLAG(hspi);
ARM GAS  /tmp/ccits0mR.s 			page 55


 2056              		.loc 1 1020 5
 2057 03ee 0023     		movs	r3, #0
 2058 03f0 7B61     		str	r3, [r7, #20]
 2059 03f2 FB68     		ldr	r3, [r7, #12]
 2060 03f4 1B68     		ldr	r3, [r3]
 2061 03f6 DB68     		ldr	r3, [r3, #12]
 2062 03f8 7B61     		str	r3, [r7, #20]
 2063 03fa FB68     		ldr	r3, [r7, #12]
 2064 03fc 1B68     		ldr	r3, [r3]
 2065 03fe 9B68     		ldr	r3, [r3, #8]
 2066 0400 7B61     		str	r3, [r7, #20]
 2067 0402 7B69     		ldr	r3, [r7, #20]
 2068 0404 00E0     		b	.L75
 2069              	.L100:
 2070              	.LBE3:
1021:./Libraries/STM32F4xx_HAL_Driver/Src/stm32f4xx_hal_spi.c ****   }
1022:./Libraries/STM32F4xx_HAL_Driver/Src/stm32f4xx_hal_spi.c ****   
1023:./Libraries/STM32F4xx_HAL_Driver/Src/stm32f4xx_hal_spi.c **** error :
 2071              		.loc 1 1023 1
 2072 0406 00BF     		nop
 2073              	.L75:
1024:./Libraries/STM32F4xx_HAL_Driver/Src/stm32f4xx_hal_spi.c ****   hspi->State = HAL_SPI_STATE_READY;
 2074              		.loc 1 1024 15
 2075 0408 FB68     		ldr	r3, [r7, #12]
 2076 040a 0122     		movs	r2, #1
 2077 040c 83F85120 		strb	r2, [r3, #81]
1025:./Libraries/STM32F4xx_HAL_Driver/Src/stm32f4xx_hal_spi.c ****   __HAL_UNLOCK(hspi);
 2078              		.loc 1 1025 3
 2079 0410 FB68     		ldr	r3, [r7, #12]
 2080 0412 0022     		movs	r2, #0
 2081 0414 83F85020 		strb	r2, [r3, #80]
1026:./Libraries/STM32F4xx_HAL_Driver/Src/stm32f4xx_hal_spi.c ****   return errorcode;
 2082              		.loc 1 1026 10
 2083 0418 97F82B30 		ldrb	r3, [r7, #43]	@ zero_extendqisi2
 2084              	.L72:
1027:./Libraries/STM32F4xx_HAL_Driver/Src/stm32f4xx_hal_spi.c **** }
 2085              		.loc 1 1027 1
 2086 041c 1846     		mov	r0, r3
 2087 041e 3037     		adds	r7, r7, #48
 2088              	.LCFI35:
 2089              		.cfi_def_cfa_offset 8
 2090 0420 BD46     		mov	sp, r7
 2091              	.LCFI36:
 2092              		.cfi_def_cfa_register 13
 2093              		@ sp needed
 2094 0422 80BD     		pop	{r7, pc}
 2095              		.cfi_endproc
 2096              	.LFE132:
 2098              		.section	.text.HAL_SPI_Transmit_IT,"ax",%progbits
 2099              		.align	1
 2100              		.global	HAL_SPI_Transmit_IT
 2101              		.syntax unified
 2102              		.thumb
 2103              		.thumb_func
 2104              		.fpu fpv4-sp-d16
 2106              	HAL_SPI_Transmit_IT:
 2107              	.LFB133:
ARM GAS  /tmp/ccits0mR.s 			page 56


1028:./Libraries/STM32F4xx_HAL_Driver/Src/stm32f4xx_hal_spi.c **** 
1029:./Libraries/STM32F4xx_HAL_Driver/Src/stm32f4xx_hal_spi.c **** /**
1030:./Libraries/STM32F4xx_HAL_Driver/Src/stm32f4xx_hal_spi.c ****   * @brief  Transmit an amount of data in non-blocking mode with Interrupt.
1031:./Libraries/STM32F4xx_HAL_Driver/Src/stm32f4xx_hal_spi.c ****   * @param  hspi pointer to a SPI_HandleTypeDef structure that contains
1032:./Libraries/STM32F4xx_HAL_Driver/Src/stm32f4xx_hal_spi.c ****   *               the configuration information for SPI module.
1033:./Libraries/STM32F4xx_HAL_Driver/Src/stm32f4xx_hal_spi.c ****   * @param  pData pointer to data buffer
1034:./Libraries/STM32F4xx_HAL_Driver/Src/stm32f4xx_hal_spi.c ****   * @param  Size amount of data to be sent
1035:./Libraries/STM32F4xx_HAL_Driver/Src/stm32f4xx_hal_spi.c ****   * @retval HAL status
1036:./Libraries/STM32F4xx_HAL_Driver/Src/stm32f4xx_hal_spi.c ****   */
1037:./Libraries/STM32F4xx_HAL_Driver/Src/stm32f4xx_hal_spi.c **** HAL_StatusTypeDef HAL_SPI_Transmit_IT(SPI_HandleTypeDef *hspi, uint8_t *pData, uint16_t Size)
1038:./Libraries/STM32F4xx_HAL_Driver/Src/stm32f4xx_hal_spi.c **** {
 2108              		.loc 1 1038 1
 2109              		.cfi_startproc
 2110              		@ args = 0, pretend = 0, frame = 24
 2111              		@ frame_needed = 1, uses_anonymous_args = 0
 2112              		@ link register save eliminated.
 2113 0000 80B4     		push	{r7}
 2114              	.LCFI37:
 2115              		.cfi_def_cfa_offset 4
 2116              		.cfi_offset 7, -4
 2117 0002 87B0     		sub	sp, sp, #28
 2118              	.LCFI38:
 2119              		.cfi_def_cfa_offset 32
 2120 0004 00AF     		add	r7, sp, #0
 2121              	.LCFI39:
 2122              		.cfi_def_cfa_register 7
 2123 0006 F860     		str	r0, [r7, #12]
 2124 0008 B960     		str	r1, [r7, #8]
 2125 000a 1346     		mov	r3, r2
 2126 000c FB80     		strh	r3, [r7, #6]	@ movhi
1039:./Libraries/STM32F4xx_HAL_Driver/Src/stm32f4xx_hal_spi.c ****   HAL_StatusTypeDef errorcode = HAL_OK;
 2127              		.loc 1 1039 21
 2128 000e 0023     		movs	r3, #0
 2129 0010 FB75     		strb	r3, [r7, #23]
1040:./Libraries/STM32F4xx_HAL_Driver/Src/stm32f4xx_hal_spi.c **** 
1041:./Libraries/STM32F4xx_HAL_Driver/Src/stm32f4xx_hal_spi.c ****   /* Check Direction parameter */
1042:./Libraries/STM32F4xx_HAL_Driver/Src/stm32f4xx_hal_spi.c ****   assert_param(IS_SPI_DIRECTION_2LINES_OR_1LINE(hspi->Init.Direction));
1043:./Libraries/STM32F4xx_HAL_Driver/Src/stm32f4xx_hal_spi.c **** 
1044:./Libraries/STM32F4xx_HAL_Driver/Src/stm32f4xx_hal_spi.c ****   /* Process Locked */
1045:./Libraries/STM32F4xx_HAL_Driver/Src/stm32f4xx_hal_spi.c ****   __HAL_LOCK(hspi);
 2130              		.loc 1 1045 3
 2131 0012 FB68     		ldr	r3, [r7, #12]
 2132 0014 93F85030 		ldrb	r3, [r3, #80]	@ zero_extendqisi2
 2133 0018 012B     		cmp	r3, #1
 2134 001a 01D1     		bne	.L102
 2135              		.loc 1 1045 3 is_stmt 0 discriminator 1
 2136 001c 0223     		movs	r3, #2
 2137 001e 8AE0     		b	.L103
 2138              	.L102:
 2139              		.loc 1 1045 3 discriminator 2
 2140 0020 FB68     		ldr	r3, [r7, #12]
 2141 0022 0122     		movs	r2, #1
 2142 0024 83F85020 		strb	r2, [r3, #80]
1046:./Libraries/STM32F4xx_HAL_Driver/Src/stm32f4xx_hal_spi.c **** 
1047:./Libraries/STM32F4xx_HAL_Driver/Src/stm32f4xx_hal_spi.c ****   if((pData == NULL) || (Size == 0))
 2143              		.loc 1 1047 5 is_stmt 1 discriminator 2
 2144 0028 BB68     		ldr	r3, [r7, #8]
ARM GAS  /tmp/ccits0mR.s 			page 57


 2145 002a 002B     		cmp	r3, #0
 2146 002c 02D0     		beq	.L104
 2147              		.loc 1 1047 22 discriminator 1
 2148 002e FB88     		ldrh	r3, [r7, #6]
 2149 0030 002B     		cmp	r3, #0
 2150 0032 02D1     		bne	.L105
 2151              	.L104:
1048:./Libraries/STM32F4xx_HAL_Driver/Src/stm32f4xx_hal_spi.c ****   {
1049:./Libraries/STM32F4xx_HAL_Driver/Src/stm32f4xx_hal_spi.c ****     errorcode = HAL_ERROR;
 2152              		.loc 1 1049 15
 2153 0034 0123     		movs	r3, #1
 2154 0036 FB75     		strb	r3, [r7, #23]
1050:./Libraries/STM32F4xx_HAL_Driver/Src/stm32f4xx_hal_spi.c ****     goto error;
 2155              		.loc 1 1050 5
 2156 0038 78E0     		b	.L106
 2157              	.L105:
1051:./Libraries/STM32F4xx_HAL_Driver/Src/stm32f4xx_hal_spi.c ****   }
1052:./Libraries/STM32F4xx_HAL_Driver/Src/stm32f4xx_hal_spi.c **** 
1053:./Libraries/STM32F4xx_HAL_Driver/Src/stm32f4xx_hal_spi.c ****   if(hspi->State != HAL_SPI_STATE_READY)
 2158              		.loc 1 1053 10
 2159 003a FB68     		ldr	r3, [r7, #12]
 2160 003c 93F85130 		ldrb	r3, [r3, #81]
 2161 0040 DBB2     		uxtb	r3, r3
 2162              		.loc 1 1053 5
 2163 0042 012B     		cmp	r3, #1
 2164 0044 02D0     		beq	.L107
1054:./Libraries/STM32F4xx_HAL_Driver/Src/stm32f4xx_hal_spi.c ****   {
1055:./Libraries/STM32F4xx_HAL_Driver/Src/stm32f4xx_hal_spi.c ****     errorcode = HAL_BUSY;
 2165              		.loc 1 1055 15
 2166 0046 0223     		movs	r3, #2
 2167 0048 FB75     		strb	r3, [r7, #23]
1056:./Libraries/STM32F4xx_HAL_Driver/Src/stm32f4xx_hal_spi.c ****     goto error;
 2168              		.loc 1 1056 5
 2169 004a 6FE0     		b	.L106
 2170              	.L107:
1057:./Libraries/STM32F4xx_HAL_Driver/Src/stm32f4xx_hal_spi.c ****   }
1058:./Libraries/STM32F4xx_HAL_Driver/Src/stm32f4xx_hal_spi.c **** 
1059:./Libraries/STM32F4xx_HAL_Driver/Src/stm32f4xx_hal_spi.c ****   /* Set the transaction information */
1060:./Libraries/STM32F4xx_HAL_Driver/Src/stm32f4xx_hal_spi.c ****   hspi->State       = HAL_SPI_STATE_BUSY_TX;
 2171              		.loc 1 1060 21
 2172 004c FB68     		ldr	r3, [r7, #12]
 2173 004e 0322     		movs	r2, #3
 2174 0050 83F85120 		strb	r2, [r3, #81]
1061:./Libraries/STM32F4xx_HAL_Driver/Src/stm32f4xx_hal_spi.c ****   hspi->ErrorCode   = HAL_SPI_ERROR_NONE;
 2175              		.loc 1 1061 21
 2176 0054 FB68     		ldr	r3, [r7, #12]
 2177 0056 0022     		movs	r2, #0
 2178 0058 5A65     		str	r2, [r3, #84]
1062:./Libraries/STM32F4xx_HAL_Driver/Src/stm32f4xx_hal_spi.c ****   hspi->pTxBuffPtr  = (uint8_t *)pData;
 2179              		.loc 1 1062 21
 2180 005a FB68     		ldr	r3, [r7, #12]
 2181 005c BA68     		ldr	r2, [r7, #8]
 2182 005e 1A63     		str	r2, [r3, #48]
1063:./Libraries/STM32F4xx_HAL_Driver/Src/stm32f4xx_hal_spi.c ****   hspi->TxXferSize  = Size;
 2183              		.loc 1 1063 21
 2184 0060 FB68     		ldr	r3, [r7, #12]
 2185 0062 FA88     		ldrh	r2, [r7, #6]	@ movhi
ARM GAS  /tmp/ccits0mR.s 			page 58


 2186 0064 9A86     		strh	r2, [r3, #52]	@ movhi
1064:./Libraries/STM32F4xx_HAL_Driver/Src/stm32f4xx_hal_spi.c ****   hspi->TxXferCount = Size;
 2187              		.loc 1 1064 21
 2188 0066 FB68     		ldr	r3, [r7, #12]
 2189 0068 FA88     		ldrh	r2, [r7, #6]	@ movhi
 2190 006a DA86     		strh	r2, [r3, #54]	@ movhi
1065:./Libraries/STM32F4xx_HAL_Driver/Src/stm32f4xx_hal_spi.c **** 
1066:./Libraries/STM32F4xx_HAL_Driver/Src/stm32f4xx_hal_spi.c ****   /* Init field not used in handle to zero */
1067:./Libraries/STM32F4xx_HAL_Driver/Src/stm32f4xx_hal_spi.c ****   hspi->pRxBuffPtr  = (uint8_t *)NULL;
 2191              		.loc 1 1067 21
 2192 006c FB68     		ldr	r3, [r7, #12]
 2193 006e 0022     		movs	r2, #0
 2194 0070 9A63     		str	r2, [r3, #56]
1068:./Libraries/STM32F4xx_HAL_Driver/Src/stm32f4xx_hal_spi.c ****   hspi->RxXferSize  = 0U;
 2195              		.loc 1 1068 21
 2196 0072 FB68     		ldr	r3, [r7, #12]
 2197 0074 0022     		movs	r2, #0
 2198 0076 9A87     		strh	r2, [r3, #60]	@ movhi
1069:./Libraries/STM32F4xx_HAL_Driver/Src/stm32f4xx_hal_spi.c ****   hspi->RxXferCount = 0U;
 2199              		.loc 1 1069 21
 2200 0078 FB68     		ldr	r3, [r7, #12]
 2201 007a 0022     		movs	r2, #0
 2202 007c DA87     		strh	r2, [r3, #62]	@ movhi
1070:./Libraries/STM32F4xx_HAL_Driver/Src/stm32f4xx_hal_spi.c ****   hspi->RxISR       = NULL;
 2203              		.loc 1 1070 21
 2204 007e FB68     		ldr	r3, [r7, #12]
 2205 0080 0022     		movs	r2, #0
 2206 0082 1A64     		str	r2, [r3, #64]
1071:./Libraries/STM32F4xx_HAL_Driver/Src/stm32f4xx_hal_spi.c **** 
1072:./Libraries/STM32F4xx_HAL_Driver/Src/stm32f4xx_hal_spi.c ****   /* Set the function for IT treatment */
1073:./Libraries/STM32F4xx_HAL_Driver/Src/stm32f4xx_hal_spi.c ****   if(hspi->Init.DataSize > SPI_DATASIZE_8BIT )
 2207              		.loc 1 1073 16
 2208 0084 FB68     		ldr	r3, [r7, #12]
 2209 0086 DB68     		ldr	r3, [r3, #12]
 2210              		.loc 1 1073 5
 2211 0088 002B     		cmp	r3, #0
 2212 008a 03D0     		beq	.L108
1074:./Libraries/STM32F4xx_HAL_Driver/Src/stm32f4xx_hal_spi.c ****   {
1075:./Libraries/STM32F4xx_HAL_Driver/Src/stm32f4xx_hal_spi.c ****     hspi->TxISR = SPI_TxISR_16BIT;
 2213              		.loc 1 1075 17
 2214 008c FB68     		ldr	r3, [r7, #12]
 2215 008e 2D4A     		ldr	r2, .L115
 2216 0090 5A64     		str	r2, [r3, #68]
 2217 0092 02E0     		b	.L109
 2218              	.L108:
1076:./Libraries/STM32F4xx_HAL_Driver/Src/stm32f4xx_hal_spi.c ****   }
1077:./Libraries/STM32F4xx_HAL_Driver/Src/stm32f4xx_hal_spi.c ****   else
1078:./Libraries/STM32F4xx_HAL_Driver/Src/stm32f4xx_hal_spi.c ****   {
1079:./Libraries/STM32F4xx_HAL_Driver/Src/stm32f4xx_hal_spi.c ****     hspi->TxISR = SPI_TxISR_8BIT;
 2219              		.loc 1 1079 17
 2220 0094 FB68     		ldr	r3, [r7, #12]
 2221 0096 2C4A     		ldr	r2, .L115+4
 2222 0098 5A64     		str	r2, [r3, #68]
 2223              	.L109:
1080:./Libraries/STM32F4xx_HAL_Driver/Src/stm32f4xx_hal_spi.c ****   }
1081:./Libraries/STM32F4xx_HAL_Driver/Src/stm32f4xx_hal_spi.c **** 
1082:./Libraries/STM32F4xx_HAL_Driver/Src/stm32f4xx_hal_spi.c ****   /* Configure communication direction : 1Line */
ARM GAS  /tmp/ccits0mR.s 			page 59


1083:./Libraries/STM32F4xx_HAL_Driver/Src/stm32f4xx_hal_spi.c ****   if(hspi->Init.Direction == SPI_DIRECTION_1LINE)
 2224              		.loc 1 1083 16
 2225 009a FB68     		ldr	r3, [r7, #12]
 2226 009c 9B68     		ldr	r3, [r3, #8]
 2227              		.loc 1 1083 5
 2228 009e B3F5004F 		cmp	r3, #32768
 2229 00a2 07D1     		bne	.L110
1084:./Libraries/STM32F4xx_HAL_Driver/Src/stm32f4xx_hal_spi.c ****   {
1085:./Libraries/STM32F4xx_HAL_Driver/Src/stm32f4xx_hal_spi.c ****     SPI_1LINE_TX(hspi);
 2230              		.loc 1 1085 5
 2231 00a4 FB68     		ldr	r3, [r7, #12]
 2232 00a6 1B68     		ldr	r3, [r3]
 2233 00a8 1A68     		ldr	r2, [r3]
 2234 00aa FB68     		ldr	r3, [r7, #12]
 2235 00ac 1B68     		ldr	r3, [r3]
 2236 00ae 42F48042 		orr	r2, r2, #16384
 2237 00b2 1A60     		str	r2, [r3]
 2238              	.L110:
1086:./Libraries/STM32F4xx_HAL_Driver/Src/stm32f4xx_hal_spi.c ****   }
1087:./Libraries/STM32F4xx_HAL_Driver/Src/stm32f4xx_hal_spi.c **** 
1088:./Libraries/STM32F4xx_HAL_Driver/Src/stm32f4xx_hal_spi.c **** #if (USE_SPI_CRC != 0U)
1089:./Libraries/STM32F4xx_HAL_Driver/Src/stm32f4xx_hal_spi.c ****   /* Reset CRC Calculation */
1090:./Libraries/STM32F4xx_HAL_Driver/Src/stm32f4xx_hal_spi.c ****   if(hspi->Init.CRCCalculation == SPI_CRCCALCULATION_ENABLE)
 2239              		.loc 1 1090 16
 2240 00b4 FB68     		ldr	r3, [r7, #12]
 2241 00b6 9B6A     		ldr	r3, [r3, #40]
 2242              		.loc 1 1090 5
 2243 00b8 B3F5005F 		cmp	r3, #8192
 2244 00bc 10D1     		bne	.L111
1091:./Libraries/STM32F4xx_HAL_Driver/Src/stm32f4xx_hal_spi.c ****   {
1092:./Libraries/STM32F4xx_HAL_Driver/Src/stm32f4xx_hal_spi.c ****     SPI_RESET_CRC(hspi);
 2245              		.loc 1 1092 5
 2246 00be FB68     		ldr	r3, [r7, #12]
 2247 00c0 1B68     		ldr	r3, [r3]
 2248 00c2 1968     		ldr	r1, [r3]
 2249 00c4 FB68     		ldr	r3, [r7, #12]
 2250 00c6 1A68     		ldr	r2, [r3]
 2251 00c8 4DF6FF73 		movw	r3, #57343
 2252 00cc 0B40     		ands	r3, r3, r1
 2253 00ce 1360     		str	r3, [r2]
 2254 00d0 FB68     		ldr	r3, [r7, #12]
 2255 00d2 1B68     		ldr	r3, [r3]
 2256 00d4 1A68     		ldr	r2, [r3]
 2257 00d6 FB68     		ldr	r3, [r7, #12]
 2258 00d8 1B68     		ldr	r3, [r3]
 2259 00da 42F40052 		orr	r2, r2, #8192
 2260 00de 1A60     		str	r2, [r3]
 2261              	.L111:
1093:./Libraries/STM32F4xx_HAL_Driver/Src/stm32f4xx_hal_spi.c ****   }
1094:./Libraries/STM32F4xx_HAL_Driver/Src/stm32f4xx_hal_spi.c **** #endif /* USE_SPI_CRC */
1095:./Libraries/STM32F4xx_HAL_Driver/Src/stm32f4xx_hal_spi.c **** 
1096:./Libraries/STM32F4xx_HAL_Driver/Src/stm32f4xx_hal_spi.c ****   if (hspi->Init.Direction == SPI_DIRECTION_2LINES)
 2262              		.loc 1 1096 17
 2263 00e0 FB68     		ldr	r3, [r7, #12]
 2264 00e2 9B68     		ldr	r3, [r3, #8]
 2265              		.loc 1 1096 6
 2266 00e4 002B     		cmp	r3, #0
ARM GAS  /tmp/ccits0mR.s 			page 60


 2267 00e6 08D1     		bne	.L112
1097:./Libraries/STM32F4xx_HAL_Driver/Src/stm32f4xx_hal_spi.c ****   {
1098:./Libraries/STM32F4xx_HAL_Driver/Src/stm32f4xx_hal_spi.c ****     /* Enable TXE interrupt */
1099:./Libraries/STM32F4xx_HAL_Driver/Src/stm32f4xx_hal_spi.c ****     __HAL_SPI_ENABLE_IT(hspi, (SPI_IT_TXE));
 2268              		.loc 1 1099 5
 2269 00e8 FB68     		ldr	r3, [r7, #12]
 2270 00ea 1B68     		ldr	r3, [r3]
 2271 00ec 5A68     		ldr	r2, [r3, #4]
 2272 00ee FB68     		ldr	r3, [r7, #12]
 2273 00f0 1B68     		ldr	r3, [r3]
 2274 00f2 42F08002 		orr	r2, r2, #128
 2275 00f6 5A60     		str	r2, [r3, #4]
 2276 00f8 07E0     		b	.L113
 2277              	.L112:
1100:./Libraries/STM32F4xx_HAL_Driver/Src/stm32f4xx_hal_spi.c ****   }
1101:./Libraries/STM32F4xx_HAL_Driver/Src/stm32f4xx_hal_spi.c ****   else
1102:./Libraries/STM32F4xx_HAL_Driver/Src/stm32f4xx_hal_spi.c ****   {
1103:./Libraries/STM32F4xx_HAL_Driver/Src/stm32f4xx_hal_spi.c ****     /* Enable TXE and ERR interrupt */
1104:./Libraries/STM32F4xx_HAL_Driver/Src/stm32f4xx_hal_spi.c ****     __HAL_SPI_ENABLE_IT(hspi, (SPI_IT_TXE | SPI_IT_ERR));
 2278              		.loc 1 1104 5
 2279 00fa FB68     		ldr	r3, [r7, #12]
 2280 00fc 1B68     		ldr	r3, [r3]
 2281 00fe 5A68     		ldr	r2, [r3, #4]
 2282 0100 FB68     		ldr	r3, [r7, #12]
 2283 0102 1B68     		ldr	r3, [r3]
 2284 0104 42F0A002 		orr	r2, r2, #160
 2285 0108 5A60     		str	r2, [r3, #4]
 2286              	.L113:
1105:./Libraries/STM32F4xx_HAL_Driver/Src/stm32f4xx_hal_spi.c ****   }
1106:./Libraries/STM32F4xx_HAL_Driver/Src/stm32f4xx_hal_spi.c **** 
1107:./Libraries/STM32F4xx_HAL_Driver/Src/stm32f4xx_hal_spi.c ****   /* Check if the SPI is already enabled */
1108:./Libraries/STM32F4xx_HAL_Driver/Src/stm32f4xx_hal_spi.c ****   if((hspi->Instance->CR1 &SPI_CR1_SPE) != SPI_CR1_SPE)
 2287              		.loc 1 1108 11
 2288 010a FB68     		ldr	r3, [r7, #12]
 2289 010c 1B68     		ldr	r3, [r3]
 2290              		.loc 1 1108 21
 2291 010e 1B68     		ldr	r3, [r3]
 2292              		.loc 1 1108 27
 2293 0110 03F04003 		and	r3, r3, #64
 2294              		.loc 1 1108 5
 2295 0114 402B     		cmp	r3, #64
 2296 0116 08D0     		beq	.L114
1109:./Libraries/STM32F4xx_HAL_Driver/Src/stm32f4xx_hal_spi.c ****   {
1110:./Libraries/STM32F4xx_HAL_Driver/Src/stm32f4xx_hal_spi.c ****     /* Enable SPI peripheral */
1111:./Libraries/STM32F4xx_HAL_Driver/Src/stm32f4xx_hal_spi.c ****     __HAL_SPI_ENABLE(hspi);
 2297              		.loc 1 1111 5
 2298 0118 FB68     		ldr	r3, [r7, #12]
 2299 011a 1B68     		ldr	r3, [r3]
 2300 011c 1A68     		ldr	r2, [r3]
 2301 011e FB68     		ldr	r3, [r7, #12]
 2302 0120 1B68     		ldr	r3, [r3]
 2303 0122 42F04002 		orr	r2, r2, #64
 2304 0126 1A60     		str	r2, [r3]
 2305 0128 00E0     		b	.L106
 2306              	.L114:
1112:./Libraries/STM32F4xx_HAL_Driver/Src/stm32f4xx_hal_spi.c ****   }
1113:./Libraries/STM32F4xx_HAL_Driver/Src/stm32f4xx_hal_spi.c **** 
ARM GAS  /tmp/ccits0mR.s 			page 61


1114:./Libraries/STM32F4xx_HAL_Driver/Src/stm32f4xx_hal_spi.c **** error :
 2307              		.loc 1 1114 1
 2308 012a 00BF     		nop
 2309              	.L106:
1115:./Libraries/STM32F4xx_HAL_Driver/Src/stm32f4xx_hal_spi.c ****   __HAL_UNLOCK(hspi);
 2310              		.loc 1 1115 3
 2311 012c FB68     		ldr	r3, [r7, #12]
 2312 012e 0022     		movs	r2, #0
 2313 0130 83F85020 		strb	r2, [r3, #80]
1116:./Libraries/STM32F4xx_HAL_Driver/Src/stm32f4xx_hal_spi.c ****   return errorcode;
 2314              		.loc 1 1116 10
 2315 0134 FB7D     		ldrb	r3, [r7, #23]	@ zero_extendqisi2
 2316              	.L103:
1117:./Libraries/STM32F4xx_HAL_Driver/Src/stm32f4xx_hal_spi.c **** }
 2317              		.loc 1 1117 1
 2318 0136 1846     		mov	r0, r3
 2319 0138 1C37     		adds	r7, r7, #28
 2320              	.LCFI40:
 2321              		.cfi_def_cfa_offset 4
 2322 013a BD46     		mov	sp, r7
 2323              	.LCFI41:
 2324              		.cfi_def_cfa_register 13
 2325              		@ sp needed
 2326 013c 5DF8047B 		ldr	r7, [sp], #4
 2327              	.LCFI42:
 2328              		.cfi_restore 7
 2329              		.cfi_def_cfa_offset 0
 2330 0140 7047     		bx	lr
 2331              	.L116:
 2332 0142 00BF     		.align	2
 2333              	.L115:
 2334 0144 00000000 		.word	SPI_TxISR_16BIT
 2335 0148 00000000 		.word	SPI_TxISR_8BIT
 2336              		.cfi_endproc
 2337              	.LFE133:
 2339              		.section	.text.HAL_SPI_Receive_IT,"ax",%progbits
 2340              		.align	1
 2341              		.global	HAL_SPI_Receive_IT
 2342              		.syntax unified
 2343              		.thumb
 2344              		.thumb_func
 2345              		.fpu fpv4-sp-d16
 2347              	HAL_SPI_Receive_IT:
 2348              	.LFB134:
1118:./Libraries/STM32F4xx_HAL_Driver/Src/stm32f4xx_hal_spi.c **** 
1119:./Libraries/STM32F4xx_HAL_Driver/Src/stm32f4xx_hal_spi.c **** /**
1120:./Libraries/STM32F4xx_HAL_Driver/Src/stm32f4xx_hal_spi.c ****   * @brief  Receive an amount of data in non-blocking mode with Interrupt.
1121:./Libraries/STM32F4xx_HAL_Driver/Src/stm32f4xx_hal_spi.c ****   * @param  hspi pointer to a SPI_HandleTypeDef structure that contains
1122:./Libraries/STM32F4xx_HAL_Driver/Src/stm32f4xx_hal_spi.c ****   *               the configuration information for SPI module.
1123:./Libraries/STM32F4xx_HAL_Driver/Src/stm32f4xx_hal_spi.c ****   * @param  pData pointer to data buffer
1124:./Libraries/STM32F4xx_HAL_Driver/Src/stm32f4xx_hal_spi.c ****   * @param  Size amount of data to be sent
1125:./Libraries/STM32F4xx_HAL_Driver/Src/stm32f4xx_hal_spi.c ****   * @retval HAL status
1126:./Libraries/STM32F4xx_HAL_Driver/Src/stm32f4xx_hal_spi.c ****   */
1127:./Libraries/STM32F4xx_HAL_Driver/Src/stm32f4xx_hal_spi.c **** HAL_StatusTypeDef HAL_SPI_Receive_IT(SPI_HandleTypeDef *hspi, uint8_t *pData, uint16_t Size)
1128:./Libraries/STM32F4xx_HAL_Driver/Src/stm32f4xx_hal_spi.c **** {
 2349              		.loc 1 1128 1
 2350              		.cfi_startproc
ARM GAS  /tmp/ccits0mR.s 			page 62


 2351              		@ args = 0, pretend = 0, frame = 24
 2352              		@ frame_needed = 1, uses_anonymous_args = 0
 2353 0000 80B5     		push	{r7, lr}
 2354              	.LCFI43:
 2355              		.cfi_def_cfa_offset 8
 2356              		.cfi_offset 7, -8
 2357              		.cfi_offset 14, -4
 2358 0002 86B0     		sub	sp, sp, #24
 2359              	.LCFI44:
 2360              		.cfi_def_cfa_offset 32
 2361 0004 00AF     		add	r7, sp, #0
 2362              	.LCFI45:
 2363              		.cfi_def_cfa_register 7
 2364 0006 F860     		str	r0, [r7, #12]
 2365 0008 B960     		str	r1, [r7, #8]
 2366 000a 1346     		mov	r3, r2
 2367 000c FB80     		strh	r3, [r7, #6]	@ movhi
1129:./Libraries/STM32F4xx_HAL_Driver/Src/stm32f4xx_hal_spi.c ****   HAL_StatusTypeDef errorcode = HAL_OK;
 2368              		.loc 1 1129 21
 2369 000e 0023     		movs	r3, #0
 2370 0010 FB75     		strb	r3, [r7, #23]
1130:./Libraries/STM32F4xx_HAL_Driver/Src/stm32f4xx_hal_spi.c **** 
1131:./Libraries/STM32F4xx_HAL_Driver/Src/stm32f4xx_hal_spi.c ****   if((hspi->Init.Direction == SPI_DIRECTION_2LINES) && (hspi->Init.Mode == SPI_MODE_MASTER))
 2371              		.loc 1 1131 17
 2372 0012 FB68     		ldr	r3, [r7, #12]
 2373 0014 9B68     		ldr	r3, [r3, #8]
 2374              		.loc 1 1131 5
 2375 0016 002B     		cmp	r3, #0
 2376 0018 10D1     		bne	.L118
 2377              		.loc 1 1131 67 discriminator 1
 2378 001a FB68     		ldr	r3, [r7, #12]
 2379 001c 5B68     		ldr	r3, [r3, #4]
 2380              		.loc 1 1131 53 discriminator 1
 2381 001e B3F5827F 		cmp	r3, #260
 2382 0022 0BD1     		bne	.L118
1132:./Libraries/STM32F4xx_HAL_Driver/Src/stm32f4xx_hal_spi.c ****   {
1133:./Libraries/STM32F4xx_HAL_Driver/Src/stm32f4xx_hal_spi.c ****      hspi->State = HAL_SPI_STATE_BUSY_RX;
 2383              		.loc 1 1133 18
 2384 0024 FB68     		ldr	r3, [r7, #12]
 2385 0026 0422     		movs	r2, #4
 2386 0028 83F85120 		strb	r2, [r3, #81]
1134:./Libraries/STM32F4xx_HAL_Driver/Src/stm32f4xx_hal_spi.c ****      /* Call transmit-receive function to send Dummy data on Tx line and generate clock on CLK line
1135:./Libraries/STM32F4xx_HAL_Driver/Src/stm32f4xx_hal_spi.c ****      return HAL_SPI_TransmitReceive_IT(hspi, pData, pData, Size);
 2387              		.loc 1 1135 13
 2388 002c FB88     		ldrh	r3, [r7, #6]
 2389 002e BA68     		ldr	r2, [r7, #8]
 2390 0030 B968     		ldr	r1, [r7, #8]
 2391 0032 F868     		ldr	r0, [r7, #12]
 2392 0034 FFF7FEFF 		bl	HAL_SPI_TransmitReceive_IT
 2393 0038 0346     		mov	r3, r0
 2394 003a 84E0     		b	.L119
 2395              	.L118:
1136:./Libraries/STM32F4xx_HAL_Driver/Src/stm32f4xx_hal_spi.c ****   }
1137:./Libraries/STM32F4xx_HAL_Driver/Src/stm32f4xx_hal_spi.c **** 
1138:./Libraries/STM32F4xx_HAL_Driver/Src/stm32f4xx_hal_spi.c ****   /* Process Locked */
1139:./Libraries/STM32F4xx_HAL_Driver/Src/stm32f4xx_hal_spi.c ****   __HAL_LOCK(hspi);
 2396              		.loc 1 1139 3
ARM GAS  /tmp/ccits0mR.s 			page 63


 2397 003c FB68     		ldr	r3, [r7, #12]
 2398 003e 93F85030 		ldrb	r3, [r3, #80]	@ zero_extendqisi2
 2399 0042 012B     		cmp	r3, #1
 2400 0044 01D1     		bne	.L120
 2401              		.loc 1 1139 3 is_stmt 0 discriminator 1
 2402 0046 0223     		movs	r3, #2
 2403 0048 7DE0     		b	.L119
 2404              	.L120:
 2405              		.loc 1 1139 3 discriminator 2
 2406 004a FB68     		ldr	r3, [r7, #12]
 2407 004c 0122     		movs	r2, #1
 2408 004e 83F85020 		strb	r2, [r3, #80]
1140:./Libraries/STM32F4xx_HAL_Driver/Src/stm32f4xx_hal_spi.c **** 
1141:./Libraries/STM32F4xx_HAL_Driver/Src/stm32f4xx_hal_spi.c ****   if(hspi->State != HAL_SPI_STATE_READY)
 2409              		.loc 1 1141 10 is_stmt 1 discriminator 2
 2410 0052 FB68     		ldr	r3, [r7, #12]
 2411 0054 93F85130 		ldrb	r3, [r3, #81]
 2412 0058 DBB2     		uxtb	r3, r3
 2413              		.loc 1 1141 5 discriminator 2
 2414 005a 012B     		cmp	r3, #1
 2415 005c 02D0     		beq	.L121
1142:./Libraries/STM32F4xx_HAL_Driver/Src/stm32f4xx_hal_spi.c ****   {
1143:./Libraries/STM32F4xx_HAL_Driver/Src/stm32f4xx_hal_spi.c ****     errorcode = HAL_BUSY;
 2416              		.loc 1 1143 15
 2417 005e 0223     		movs	r3, #2
 2418 0060 FB75     		strb	r3, [r7, #23]
1144:./Libraries/STM32F4xx_HAL_Driver/Src/stm32f4xx_hal_spi.c ****     goto error;
 2419              		.loc 1 1144 5
 2420 0062 6BE0     		b	.L122
 2421              	.L121:
1145:./Libraries/STM32F4xx_HAL_Driver/Src/stm32f4xx_hal_spi.c ****   }
1146:./Libraries/STM32F4xx_HAL_Driver/Src/stm32f4xx_hal_spi.c **** 
1147:./Libraries/STM32F4xx_HAL_Driver/Src/stm32f4xx_hal_spi.c ****   if((pData == NULL) || (Size == 0))
 2422              		.loc 1 1147 5
 2423 0064 BB68     		ldr	r3, [r7, #8]
 2424 0066 002B     		cmp	r3, #0
 2425 0068 02D0     		beq	.L123
 2426              		.loc 1 1147 22 discriminator 1
 2427 006a FB88     		ldrh	r3, [r7, #6]
 2428 006c 002B     		cmp	r3, #0
 2429 006e 02D1     		bne	.L124
 2430              	.L123:
1148:./Libraries/STM32F4xx_HAL_Driver/Src/stm32f4xx_hal_spi.c ****   {
1149:./Libraries/STM32F4xx_HAL_Driver/Src/stm32f4xx_hal_spi.c ****     errorcode = HAL_ERROR;
 2431              		.loc 1 1149 15
 2432 0070 0123     		movs	r3, #1
 2433 0072 FB75     		strb	r3, [r7, #23]
1150:./Libraries/STM32F4xx_HAL_Driver/Src/stm32f4xx_hal_spi.c ****     goto error;
 2434              		.loc 1 1150 5
 2435 0074 62E0     		b	.L122
 2436              	.L124:
1151:./Libraries/STM32F4xx_HAL_Driver/Src/stm32f4xx_hal_spi.c ****   }
1152:./Libraries/STM32F4xx_HAL_Driver/Src/stm32f4xx_hal_spi.c **** 
1153:./Libraries/STM32F4xx_HAL_Driver/Src/stm32f4xx_hal_spi.c ****   /* Set the transaction information */
1154:./Libraries/STM32F4xx_HAL_Driver/Src/stm32f4xx_hal_spi.c ****   hspi->State       = HAL_SPI_STATE_BUSY_RX;
 2437              		.loc 1 1154 21
 2438 0076 FB68     		ldr	r3, [r7, #12]
ARM GAS  /tmp/ccits0mR.s 			page 64


 2439 0078 0422     		movs	r2, #4
 2440 007a 83F85120 		strb	r2, [r3, #81]
1155:./Libraries/STM32F4xx_HAL_Driver/Src/stm32f4xx_hal_spi.c ****   hspi->ErrorCode   = HAL_SPI_ERROR_NONE;
 2441              		.loc 1 1155 21
 2442 007e FB68     		ldr	r3, [r7, #12]
 2443 0080 0022     		movs	r2, #0
 2444 0082 5A65     		str	r2, [r3, #84]
1156:./Libraries/STM32F4xx_HAL_Driver/Src/stm32f4xx_hal_spi.c ****   hspi->pRxBuffPtr  = (uint8_t *)pData;
 2445              		.loc 1 1156 21
 2446 0084 FB68     		ldr	r3, [r7, #12]
 2447 0086 BA68     		ldr	r2, [r7, #8]
 2448 0088 9A63     		str	r2, [r3, #56]
1157:./Libraries/STM32F4xx_HAL_Driver/Src/stm32f4xx_hal_spi.c ****   hspi->RxXferSize  = Size;
 2449              		.loc 1 1157 21
 2450 008a FB68     		ldr	r3, [r7, #12]
 2451 008c FA88     		ldrh	r2, [r7, #6]	@ movhi
 2452 008e 9A87     		strh	r2, [r3, #60]	@ movhi
1158:./Libraries/STM32F4xx_HAL_Driver/Src/stm32f4xx_hal_spi.c ****   hspi->RxXferCount = Size;
 2453              		.loc 1 1158 21
 2454 0090 FB68     		ldr	r3, [r7, #12]
 2455 0092 FA88     		ldrh	r2, [r7, #6]	@ movhi
 2456 0094 DA87     		strh	r2, [r3, #62]	@ movhi
1159:./Libraries/STM32F4xx_HAL_Driver/Src/stm32f4xx_hal_spi.c **** 
1160:./Libraries/STM32F4xx_HAL_Driver/Src/stm32f4xx_hal_spi.c ****   /* Init field not used in handle to zero */
1161:./Libraries/STM32F4xx_HAL_Driver/Src/stm32f4xx_hal_spi.c ****   hspi->pTxBuffPtr  = (uint8_t *)NULL;
 2457              		.loc 1 1161 21
 2458 0096 FB68     		ldr	r3, [r7, #12]
 2459 0098 0022     		movs	r2, #0
 2460 009a 1A63     		str	r2, [r3, #48]
1162:./Libraries/STM32F4xx_HAL_Driver/Src/stm32f4xx_hal_spi.c ****   hspi->TxXferSize  = 0U;
 2461              		.loc 1 1162 21
 2462 009c FB68     		ldr	r3, [r7, #12]
 2463 009e 0022     		movs	r2, #0
 2464 00a0 9A86     		strh	r2, [r3, #52]	@ movhi
1163:./Libraries/STM32F4xx_HAL_Driver/Src/stm32f4xx_hal_spi.c ****   hspi->TxXferCount = 0U;
 2465              		.loc 1 1163 21
 2466 00a2 FB68     		ldr	r3, [r7, #12]
 2467 00a4 0022     		movs	r2, #0
 2468 00a6 DA86     		strh	r2, [r3, #54]	@ movhi
1164:./Libraries/STM32F4xx_HAL_Driver/Src/stm32f4xx_hal_spi.c ****   hspi->TxISR       = NULL;
 2469              		.loc 1 1164 21
 2470 00a8 FB68     		ldr	r3, [r7, #12]
 2471 00aa 0022     		movs	r2, #0
 2472 00ac 5A64     		str	r2, [r3, #68]
1165:./Libraries/STM32F4xx_HAL_Driver/Src/stm32f4xx_hal_spi.c **** 
1166:./Libraries/STM32F4xx_HAL_Driver/Src/stm32f4xx_hal_spi.c ****   /* Set the function for IT treatment */
1167:./Libraries/STM32F4xx_HAL_Driver/Src/stm32f4xx_hal_spi.c ****   if(hspi->Init.DataSize > SPI_DATASIZE_8BIT )
 2473              		.loc 1 1167 16
 2474 00ae FB68     		ldr	r3, [r7, #12]
 2475 00b0 DB68     		ldr	r3, [r3, #12]
 2476              		.loc 1 1167 5
 2477 00b2 002B     		cmp	r3, #0
 2478 00b4 03D0     		beq	.L125
1168:./Libraries/STM32F4xx_HAL_Driver/Src/stm32f4xx_hal_spi.c ****   {
1169:./Libraries/STM32F4xx_HAL_Driver/Src/stm32f4xx_hal_spi.c ****     hspi->RxISR = SPI_RxISR_16BIT;
 2479              		.loc 1 1169 17
 2480 00b6 FB68     		ldr	r3, [r7, #12]
ARM GAS  /tmp/ccits0mR.s 			page 65


 2481 00b8 254A     		ldr	r2, .L130
 2482 00ba 1A64     		str	r2, [r3, #64]
 2483 00bc 02E0     		b	.L126
 2484              	.L125:
1170:./Libraries/STM32F4xx_HAL_Driver/Src/stm32f4xx_hal_spi.c ****   }
1171:./Libraries/STM32F4xx_HAL_Driver/Src/stm32f4xx_hal_spi.c ****   else
1172:./Libraries/STM32F4xx_HAL_Driver/Src/stm32f4xx_hal_spi.c ****   {
1173:./Libraries/STM32F4xx_HAL_Driver/Src/stm32f4xx_hal_spi.c ****     hspi->RxISR = SPI_RxISR_8BIT;
 2485              		.loc 1 1173 17
 2486 00be FB68     		ldr	r3, [r7, #12]
 2487 00c0 244A     		ldr	r2, .L130+4
 2488 00c2 1A64     		str	r2, [r3, #64]
 2489              	.L126:
1174:./Libraries/STM32F4xx_HAL_Driver/Src/stm32f4xx_hal_spi.c ****   }
1175:./Libraries/STM32F4xx_HAL_Driver/Src/stm32f4xx_hal_spi.c **** 
1176:./Libraries/STM32F4xx_HAL_Driver/Src/stm32f4xx_hal_spi.c ****   /* Configure communication direction : 1Line */
1177:./Libraries/STM32F4xx_HAL_Driver/Src/stm32f4xx_hal_spi.c ****   if(hspi->Init.Direction == SPI_DIRECTION_1LINE)
 2490              		.loc 1 1177 16
 2491 00c4 FB68     		ldr	r3, [r7, #12]
 2492 00c6 9B68     		ldr	r3, [r3, #8]
 2493              		.loc 1 1177 5
 2494 00c8 B3F5004F 		cmp	r3, #32768
 2495 00cc 07D1     		bne	.L127
1178:./Libraries/STM32F4xx_HAL_Driver/Src/stm32f4xx_hal_spi.c ****   {
1179:./Libraries/STM32F4xx_HAL_Driver/Src/stm32f4xx_hal_spi.c ****     SPI_1LINE_RX(hspi);
 2496              		.loc 1 1179 5
 2497 00ce FB68     		ldr	r3, [r7, #12]
 2498 00d0 1B68     		ldr	r3, [r3]
 2499 00d2 1A68     		ldr	r2, [r3]
 2500 00d4 FB68     		ldr	r3, [r7, #12]
 2501 00d6 1B68     		ldr	r3, [r3]
 2502 00d8 22F48042 		bic	r2, r2, #16384
 2503 00dc 1A60     		str	r2, [r3]
 2504              	.L127:
1180:./Libraries/STM32F4xx_HAL_Driver/Src/stm32f4xx_hal_spi.c ****   }
1181:./Libraries/STM32F4xx_HAL_Driver/Src/stm32f4xx_hal_spi.c **** 
1182:./Libraries/STM32F4xx_HAL_Driver/Src/stm32f4xx_hal_spi.c **** #if (USE_SPI_CRC != 0U)
1183:./Libraries/STM32F4xx_HAL_Driver/Src/stm32f4xx_hal_spi.c ****   /* Reset CRC Calculation */
1184:./Libraries/STM32F4xx_HAL_Driver/Src/stm32f4xx_hal_spi.c ****   if(hspi->Init.CRCCalculation == SPI_CRCCALCULATION_ENABLE)
 2505              		.loc 1 1184 16
 2506 00de FB68     		ldr	r3, [r7, #12]
 2507 00e0 9B6A     		ldr	r3, [r3, #40]
 2508              		.loc 1 1184 5
 2509 00e2 B3F5005F 		cmp	r3, #8192
 2510 00e6 10D1     		bne	.L128
1185:./Libraries/STM32F4xx_HAL_Driver/Src/stm32f4xx_hal_spi.c ****   {
1186:./Libraries/STM32F4xx_HAL_Driver/Src/stm32f4xx_hal_spi.c ****     SPI_RESET_CRC(hspi);
 2511              		.loc 1 1186 5
 2512 00e8 FB68     		ldr	r3, [r7, #12]
 2513 00ea 1B68     		ldr	r3, [r3]
 2514 00ec 1968     		ldr	r1, [r3]
 2515 00ee FB68     		ldr	r3, [r7, #12]
 2516 00f0 1A68     		ldr	r2, [r3]
 2517 00f2 4DF6FF73 		movw	r3, #57343
 2518 00f6 0B40     		ands	r3, r3, r1
 2519 00f8 1360     		str	r3, [r2]
 2520 00fa FB68     		ldr	r3, [r7, #12]
ARM GAS  /tmp/ccits0mR.s 			page 66


 2521 00fc 1B68     		ldr	r3, [r3]
 2522 00fe 1A68     		ldr	r2, [r3]
 2523 0100 FB68     		ldr	r3, [r7, #12]
 2524 0102 1B68     		ldr	r3, [r3]
 2525 0104 42F40052 		orr	r2, r2, #8192
 2526 0108 1A60     		str	r2, [r3]
 2527              	.L128:
1187:./Libraries/STM32F4xx_HAL_Driver/Src/stm32f4xx_hal_spi.c ****   }
1188:./Libraries/STM32F4xx_HAL_Driver/Src/stm32f4xx_hal_spi.c **** #endif /* USE_SPI_CRC */
1189:./Libraries/STM32F4xx_HAL_Driver/Src/stm32f4xx_hal_spi.c **** 
1190:./Libraries/STM32F4xx_HAL_Driver/Src/stm32f4xx_hal_spi.c ****   /* Enable TXE and ERR interrupt */
1191:./Libraries/STM32F4xx_HAL_Driver/Src/stm32f4xx_hal_spi.c ****   __HAL_SPI_ENABLE_IT(hspi, (SPI_IT_RXNE | SPI_IT_ERR));
 2528              		.loc 1 1191 3
 2529 010a FB68     		ldr	r3, [r7, #12]
 2530 010c 1B68     		ldr	r3, [r3]
 2531 010e 5A68     		ldr	r2, [r3, #4]
 2532 0110 FB68     		ldr	r3, [r7, #12]
 2533 0112 1B68     		ldr	r3, [r3]
 2534 0114 42F06002 		orr	r2, r2, #96
 2535 0118 5A60     		str	r2, [r3, #4]
1192:./Libraries/STM32F4xx_HAL_Driver/Src/stm32f4xx_hal_spi.c **** 
1193:./Libraries/STM32F4xx_HAL_Driver/Src/stm32f4xx_hal_spi.c ****   /* Note : The SPI must be enabled after unlocking current process
1194:./Libraries/STM32F4xx_HAL_Driver/Src/stm32f4xx_hal_spi.c ****             to avoid the risk of SPI interrupt handle execution before current
1195:./Libraries/STM32F4xx_HAL_Driver/Src/stm32f4xx_hal_spi.c ****             process unlock */
1196:./Libraries/STM32F4xx_HAL_Driver/Src/stm32f4xx_hal_spi.c **** 
1197:./Libraries/STM32F4xx_HAL_Driver/Src/stm32f4xx_hal_spi.c ****   /* Check if the SPI is already enabled */
1198:./Libraries/STM32F4xx_HAL_Driver/Src/stm32f4xx_hal_spi.c ****   if((hspi->Instance->CR1 &SPI_CR1_SPE) != SPI_CR1_SPE)
 2536              		.loc 1 1198 11
 2537 011a FB68     		ldr	r3, [r7, #12]
 2538 011c 1B68     		ldr	r3, [r3]
 2539              		.loc 1 1198 21
 2540 011e 1B68     		ldr	r3, [r3]
 2541              		.loc 1 1198 27
 2542 0120 03F04003 		and	r3, r3, #64
 2543              		.loc 1 1198 5
 2544 0124 402B     		cmp	r3, #64
 2545 0126 08D0     		beq	.L129
1199:./Libraries/STM32F4xx_HAL_Driver/Src/stm32f4xx_hal_spi.c ****   {
1200:./Libraries/STM32F4xx_HAL_Driver/Src/stm32f4xx_hal_spi.c ****     /* Enable SPI peripheral */
1201:./Libraries/STM32F4xx_HAL_Driver/Src/stm32f4xx_hal_spi.c ****     __HAL_SPI_ENABLE(hspi);
 2546              		.loc 1 1201 5
 2547 0128 FB68     		ldr	r3, [r7, #12]
 2548 012a 1B68     		ldr	r3, [r3]
 2549 012c 1A68     		ldr	r2, [r3]
 2550 012e FB68     		ldr	r3, [r7, #12]
 2551 0130 1B68     		ldr	r3, [r3]
 2552 0132 42F04002 		orr	r2, r2, #64
 2553 0136 1A60     		str	r2, [r3]
 2554 0138 00E0     		b	.L122
 2555              	.L129:
1202:./Libraries/STM32F4xx_HAL_Driver/Src/stm32f4xx_hal_spi.c ****   }
1203:./Libraries/STM32F4xx_HAL_Driver/Src/stm32f4xx_hal_spi.c **** 
1204:./Libraries/STM32F4xx_HAL_Driver/Src/stm32f4xx_hal_spi.c **** error :
 2556              		.loc 1 1204 1
 2557 013a 00BF     		nop
 2558              	.L122:
1205:./Libraries/STM32F4xx_HAL_Driver/Src/stm32f4xx_hal_spi.c ****   /* Process Unlocked */
ARM GAS  /tmp/ccits0mR.s 			page 67


1206:./Libraries/STM32F4xx_HAL_Driver/Src/stm32f4xx_hal_spi.c ****   __HAL_UNLOCK(hspi);
 2559              		.loc 1 1206 3
 2560 013c FB68     		ldr	r3, [r7, #12]
 2561 013e 0022     		movs	r2, #0
 2562 0140 83F85020 		strb	r2, [r3, #80]
1207:./Libraries/STM32F4xx_HAL_Driver/Src/stm32f4xx_hal_spi.c ****   return errorcode;
 2563              		.loc 1 1207 10
 2564 0144 FB7D     		ldrb	r3, [r7, #23]	@ zero_extendqisi2
 2565              	.L119:
1208:./Libraries/STM32F4xx_HAL_Driver/Src/stm32f4xx_hal_spi.c **** }
 2566              		.loc 1 1208 1
 2567 0146 1846     		mov	r0, r3
 2568 0148 1837     		adds	r7, r7, #24
 2569              	.LCFI46:
 2570              		.cfi_def_cfa_offset 8
 2571 014a BD46     		mov	sp, r7
 2572              	.LCFI47:
 2573              		.cfi_def_cfa_register 13
 2574              		@ sp needed
 2575 014c 80BD     		pop	{r7, pc}
 2576              	.L131:
 2577 014e 00BF     		.align	2
 2578              	.L130:
 2579 0150 00000000 		.word	SPI_RxISR_16BIT
 2580 0154 00000000 		.word	SPI_RxISR_8BIT
 2581              		.cfi_endproc
 2582              	.LFE134:
 2584              		.section	.text.HAL_SPI_TransmitReceive_IT,"ax",%progbits
 2585              		.align	1
 2586              		.global	HAL_SPI_TransmitReceive_IT
 2587              		.syntax unified
 2588              		.thumb
 2589              		.thumb_func
 2590              		.fpu fpv4-sp-d16
 2592              	HAL_SPI_TransmitReceive_IT:
 2593              	.LFB135:
1209:./Libraries/STM32F4xx_HAL_Driver/Src/stm32f4xx_hal_spi.c **** 
1210:./Libraries/STM32F4xx_HAL_Driver/Src/stm32f4xx_hal_spi.c **** /**
1211:./Libraries/STM32F4xx_HAL_Driver/Src/stm32f4xx_hal_spi.c ****   * @brief  Transmit and Receive an amount of data in non-blocking mode with Interrupt.
1212:./Libraries/STM32F4xx_HAL_Driver/Src/stm32f4xx_hal_spi.c ****   * @param  hspi pointer to a SPI_HandleTypeDef structure that contains
1213:./Libraries/STM32F4xx_HAL_Driver/Src/stm32f4xx_hal_spi.c ****   *               the configuration information for SPI module.
1214:./Libraries/STM32F4xx_HAL_Driver/Src/stm32f4xx_hal_spi.c ****   * @param  pTxData pointer to transmission data buffer
1215:./Libraries/STM32F4xx_HAL_Driver/Src/stm32f4xx_hal_spi.c ****   * @param  pRxData pointer to reception data buffer
1216:./Libraries/STM32F4xx_HAL_Driver/Src/stm32f4xx_hal_spi.c ****   * @param  Size amount of data to be sent and received
1217:./Libraries/STM32F4xx_HAL_Driver/Src/stm32f4xx_hal_spi.c ****   * @retval HAL status
1218:./Libraries/STM32F4xx_HAL_Driver/Src/stm32f4xx_hal_spi.c ****   */
1219:./Libraries/STM32F4xx_HAL_Driver/Src/stm32f4xx_hal_spi.c **** HAL_StatusTypeDef HAL_SPI_TransmitReceive_IT(SPI_HandleTypeDef *hspi, uint8_t *pTxData, uint8_t *pR
1220:./Libraries/STM32F4xx_HAL_Driver/Src/stm32f4xx_hal_spi.c **** {
 2594              		.loc 1 1220 1
 2595              		.cfi_startproc
 2596              		@ args = 0, pretend = 0, frame = 32
 2597              		@ frame_needed = 1, uses_anonymous_args = 0
 2598              		@ link register save eliminated.
 2599 0000 80B4     		push	{r7}
 2600              	.LCFI48:
 2601              		.cfi_def_cfa_offset 4
 2602              		.cfi_offset 7, -4
ARM GAS  /tmp/ccits0mR.s 			page 68


 2603 0002 89B0     		sub	sp, sp, #36
 2604              	.LCFI49:
 2605              		.cfi_def_cfa_offset 40
 2606 0004 00AF     		add	r7, sp, #0
 2607              	.LCFI50:
 2608              		.cfi_def_cfa_register 7
 2609 0006 F860     		str	r0, [r7, #12]
 2610 0008 B960     		str	r1, [r7, #8]
 2611 000a 7A60     		str	r2, [r7, #4]
 2612 000c 7B80     		strh	r3, [r7, #2]	@ movhi
1221:./Libraries/STM32F4xx_HAL_Driver/Src/stm32f4xx_hal_spi.c ****   uint32_t tmp = 0U, tmp1 = 0U;
 2613              		.loc 1 1221 12
 2614 000e 0023     		movs	r3, #0
 2615 0010 BB61     		str	r3, [r7, #24]
 2616              		.loc 1 1221 22
 2617 0012 0023     		movs	r3, #0
 2618 0014 7B61     		str	r3, [r7, #20]
1222:./Libraries/STM32F4xx_HAL_Driver/Src/stm32f4xx_hal_spi.c ****   HAL_StatusTypeDef errorcode = HAL_OK;
 2619              		.loc 1 1222 21
 2620 0016 0023     		movs	r3, #0
 2621 0018 FB77     		strb	r3, [r7, #31]
1223:./Libraries/STM32F4xx_HAL_Driver/Src/stm32f4xx_hal_spi.c **** 
1224:./Libraries/STM32F4xx_HAL_Driver/Src/stm32f4xx_hal_spi.c ****   /* Check Direction parameter */
1225:./Libraries/STM32F4xx_HAL_Driver/Src/stm32f4xx_hal_spi.c ****   assert_param(IS_SPI_DIRECTION_2LINES(hspi->Init.Direction));
1226:./Libraries/STM32F4xx_HAL_Driver/Src/stm32f4xx_hal_spi.c **** 
1227:./Libraries/STM32F4xx_HAL_Driver/Src/stm32f4xx_hal_spi.c ****   /* Process locked */
1228:./Libraries/STM32F4xx_HAL_Driver/Src/stm32f4xx_hal_spi.c ****   __HAL_LOCK(hspi);
 2622              		.loc 1 1228 3
 2623 001a FB68     		ldr	r3, [r7, #12]
 2624 001c 93F85030 		ldrb	r3, [r3, #80]	@ zero_extendqisi2
 2625 0020 012B     		cmp	r3, #1
 2626 0022 01D1     		bne	.L133
 2627              		.loc 1 1228 3 is_stmt 0 discriminator 1
 2628 0024 0223     		movs	r3, #2
 2629 0026 8CE0     		b	.L134
 2630              	.L133:
 2631              		.loc 1 1228 3 discriminator 2
 2632 0028 FB68     		ldr	r3, [r7, #12]
 2633 002a 0122     		movs	r2, #1
 2634 002c 83F85020 		strb	r2, [r3, #80]
1229:./Libraries/STM32F4xx_HAL_Driver/Src/stm32f4xx_hal_spi.c **** 
1230:./Libraries/STM32F4xx_HAL_Driver/Src/stm32f4xx_hal_spi.c ****   tmp  = hspi->State;
 2635              		.loc 1 1230 14 is_stmt 1 discriminator 2
 2636 0030 FB68     		ldr	r3, [r7, #12]
 2637 0032 93F85130 		ldrb	r3, [r3, #81]
 2638 0036 DBB2     		uxtb	r3, r3
 2639              		.loc 1 1230 8 discriminator 2
 2640 0038 BB61     		str	r3, [r7, #24]
1231:./Libraries/STM32F4xx_HAL_Driver/Src/stm32f4xx_hal_spi.c ****   tmp1 = hspi->Init.Mode;
 2641              		.loc 1 1231 8 discriminator 2
 2642 003a FB68     		ldr	r3, [r7, #12]
 2643 003c 5B68     		ldr	r3, [r3, #4]
 2644 003e 7B61     		str	r3, [r7, #20]
1232:./Libraries/STM32F4xx_HAL_Driver/Src/stm32f4xx_hal_spi.c ****   
1233:./Libraries/STM32F4xx_HAL_Driver/Src/stm32f4xx_hal_spi.c ****   if(!((tmp == HAL_SPI_STATE_READY) || \
 2645              		.loc 1 1233 5 discriminator 2
 2646 0040 BB69     		ldr	r3, [r7, #24]
ARM GAS  /tmp/ccits0mR.s 			page 69


 2647 0042 012B     		cmp	r3, #1
 2648 0044 0DD0     		beq	.L135
 2649              		.loc 1 1233 6 discriminator 1
 2650 0046 7B69     		ldr	r3, [r7, #20]
 2651 0048 B3F5827F 		cmp	r3, #260
 2652 004c 06D1     		bne	.L136
1234:./Libraries/STM32F4xx_HAL_Driver/Src/stm32f4xx_hal_spi.c ****     ((tmp1 == SPI_MODE_MASTER) && (hspi->Init.Direction == SPI_DIRECTION_2LINES) && (tmp == HAL_SPI
 2653              		.loc 1 1234 46
 2654 004e FB68     		ldr	r3, [r7, #12]
 2655 0050 9B68     		ldr	r3, [r3, #8]
 2656              		.loc 1 1234 32
 2657 0052 002B     		cmp	r3, #0
 2658 0054 02D1     		bne	.L136
 2659              		.loc 1 1234 82 discriminator 1
 2660 0056 BB69     		ldr	r3, [r7, #24]
 2661 0058 042B     		cmp	r3, #4
 2662 005a 02D0     		beq	.L135
 2663              	.L136:
1235:./Libraries/STM32F4xx_HAL_Driver/Src/stm32f4xx_hal_spi.c ****   {
1236:./Libraries/STM32F4xx_HAL_Driver/Src/stm32f4xx_hal_spi.c ****     errorcode = HAL_BUSY;
 2664              		.loc 1 1236 15
 2665 005c 0223     		movs	r3, #2
 2666 005e FB77     		strb	r3, [r7, #31]
1237:./Libraries/STM32F4xx_HAL_Driver/Src/stm32f4xx_hal_spi.c ****     goto error;
 2667              		.loc 1 1237 5
 2668 0060 6AE0     		b	.L137
 2669              	.L135:
1238:./Libraries/STM32F4xx_HAL_Driver/Src/stm32f4xx_hal_spi.c ****   }
1239:./Libraries/STM32F4xx_HAL_Driver/Src/stm32f4xx_hal_spi.c **** 
1240:./Libraries/STM32F4xx_HAL_Driver/Src/stm32f4xx_hal_spi.c ****   if((pTxData == NULL ) || (pRxData == NULL ) || (Size == 0))
 2670              		.loc 1 1240 5
 2671 0062 BB68     		ldr	r3, [r7, #8]
 2672 0064 002B     		cmp	r3, #0
 2673 0066 05D0     		beq	.L138
 2674              		.loc 1 1240 25 discriminator 1
 2675 0068 7B68     		ldr	r3, [r7, #4]
 2676 006a 002B     		cmp	r3, #0
 2677 006c 02D0     		beq	.L138
 2678              		.loc 1 1240 47 discriminator 2
 2679 006e 7B88     		ldrh	r3, [r7, #2]
 2680 0070 002B     		cmp	r3, #0
 2681 0072 02D1     		bne	.L139
 2682              	.L138:
1241:./Libraries/STM32F4xx_HAL_Driver/Src/stm32f4xx_hal_spi.c ****   {
1242:./Libraries/STM32F4xx_HAL_Driver/Src/stm32f4xx_hal_spi.c ****     errorcode = HAL_ERROR;
 2683              		.loc 1 1242 15
 2684 0074 0123     		movs	r3, #1
 2685 0076 FB77     		strb	r3, [r7, #31]
1243:./Libraries/STM32F4xx_HAL_Driver/Src/stm32f4xx_hal_spi.c ****     goto error;
 2686              		.loc 1 1243 5
 2687 0078 5EE0     		b	.L137
 2688              	.L139:
1244:./Libraries/STM32F4xx_HAL_Driver/Src/stm32f4xx_hal_spi.c ****   }
1245:./Libraries/STM32F4xx_HAL_Driver/Src/stm32f4xx_hal_spi.c **** 
1246:./Libraries/STM32F4xx_HAL_Driver/Src/stm32f4xx_hal_spi.c ****   /* Don't overwrite in case of HAL_SPI_STATE_BUSY_RX */
1247:./Libraries/STM32F4xx_HAL_Driver/Src/stm32f4xx_hal_spi.c ****   if(hspi->State == HAL_SPI_STATE_READY)
 2689              		.loc 1 1247 10
ARM GAS  /tmp/ccits0mR.s 			page 70


 2690 007a FB68     		ldr	r3, [r7, #12]
 2691 007c 93F85130 		ldrb	r3, [r3, #81]
 2692 0080 DBB2     		uxtb	r3, r3
 2693              		.loc 1 1247 5
 2694 0082 012B     		cmp	r3, #1
 2695 0084 03D1     		bne	.L140
1248:./Libraries/STM32F4xx_HAL_Driver/Src/stm32f4xx_hal_spi.c ****   {
1249:./Libraries/STM32F4xx_HAL_Driver/Src/stm32f4xx_hal_spi.c ****     hspi->State = HAL_SPI_STATE_BUSY_TX_RX;
 2696              		.loc 1 1249 17
 2697 0086 FB68     		ldr	r3, [r7, #12]
 2698 0088 0522     		movs	r2, #5
 2699 008a 83F85120 		strb	r2, [r3, #81]
 2700              	.L140:
1250:./Libraries/STM32F4xx_HAL_Driver/Src/stm32f4xx_hal_spi.c ****   }
1251:./Libraries/STM32F4xx_HAL_Driver/Src/stm32f4xx_hal_spi.c **** 
1252:./Libraries/STM32F4xx_HAL_Driver/Src/stm32f4xx_hal_spi.c ****   /* Set the transaction information */
1253:./Libraries/STM32F4xx_HAL_Driver/Src/stm32f4xx_hal_spi.c ****   hspi->ErrorCode   = HAL_SPI_ERROR_NONE;
 2701              		.loc 1 1253 21
 2702 008e FB68     		ldr	r3, [r7, #12]
 2703 0090 0022     		movs	r2, #0
 2704 0092 5A65     		str	r2, [r3, #84]
1254:./Libraries/STM32F4xx_HAL_Driver/Src/stm32f4xx_hal_spi.c ****   hspi->pTxBuffPtr  = (uint8_t *)pTxData;
 2705              		.loc 1 1254 21
 2706 0094 FB68     		ldr	r3, [r7, #12]
 2707 0096 BA68     		ldr	r2, [r7, #8]
 2708 0098 1A63     		str	r2, [r3, #48]
1255:./Libraries/STM32F4xx_HAL_Driver/Src/stm32f4xx_hal_spi.c ****   hspi->TxXferSize  = Size;
 2709              		.loc 1 1255 21
 2710 009a FB68     		ldr	r3, [r7, #12]
 2711 009c 7A88     		ldrh	r2, [r7, #2]	@ movhi
 2712 009e 9A86     		strh	r2, [r3, #52]	@ movhi
1256:./Libraries/STM32F4xx_HAL_Driver/Src/stm32f4xx_hal_spi.c ****   hspi->TxXferCount = Size;
 2713              		.loc 1 1256 21
 2714 00a0 FB68     		ldr	r3, [r7, #12]
 2715 00a2 7A88     		ldrh	r2, [r7, #2]	@ movhi
 2716 00a4 DA86     		strh	r2, [r3, #54]	@ movhi
1257:./Libraries/STM32F4xx_HAL_Driver/Src/stm32f4xx_hal_spi.c ****   hspi->pRxBuffPtr  = (uint8_t *)pRxData;
 2717              		.loc 1 1257 21
 2718 00a6 FB68     		ldr	r3, [r7, #12]
 2719 00a8 7A68     		ldr	r2, [r7, #4]
 2720 00aa 9A63     		str	r2, [r3, #56]
1258:./Libraries/STM32F4xx_HAL_Driver/Src/stm32f4xx_hal_spi.c ****   hspi->RxXferSize  = Size;
 2721              		.loc 1 1258 21
 2722 00ac FB68     		ldr	r3, [r7, #12]
 2723 00ae 7A88     		ldrh	r2, [r7, #2]	@ movhi
 2724 00b0 9A87     		strh	r2, [r3, #60]	@ movhi
1259:./Libraries/STM32F4xx_HAL_Driver/Src/stm32f4xx_hal_spi.c ****   hspi->RxXferCount = Size;
 2725              		.loc 1 1259 21
 2726 00b2 FB68     		ldr	r3, [r7, #12]
 2727 00b4 7A88     		ldrh	r2, [r7, #2]	@ movhi
 2728 00b6 DA87     		strh	r2, [r3, #62]	@ movhi
1260:./Libraries/STM32F4xx_HAL_Driver/Src/stm32f4xx_hal_spi.c **** 
1261:./Libraries/STM32F4xx_HAL_Driver/Src/stm32f4xx_hal_spi.c ****   /* Set the function for IT treatment */
1262:./Libraries/STM32F4xx_HAL_Driver/Src/stm32f4xx_hal_spi.c ****   if(hspi->Init.DataSize > SPI_DATASIZE_8BIT )
 2729              		.loc 1 1262 16
 2730 00b8 FB68     		ldr	r3, [r7, #12]
 2731 00ba DB68     		ldr	r3, [r3, #12]
ARM GAS  /tmp/ccits0mR.s 			page 71


 2732              		.loc 1 1262 5
 2733 00bc 002B     		cmp	r3, #0
 2734 00be 06D0     		beq	.L141
1263:./Libraries/STM32F4xx_HAL_Driver/Src/stm32f4xx_hal_spi.c ****   {
1264:./Libraries/STM32F4xx_HAL_Driver/Src/stm32f4xx_hal_spi.c ****     hspi->RxISR     = SPI_2linesRxISR_16BIT;
 2735              		.loc 1 1264 21
 2736 00c0 FB68     		ldr	r3, [r7, #12]
 2737 00c2 234A     		ldr	r2, .L145
 2738 00c4 1A64     		str	r2, [r3, #64]
1265:./Libraries/STM32F4xx_HAL_Driver/Src/stm32f4xx_hal_spi.c ****     hspi->TxISR     = SPI_2linesTxISR_16BIT;
 2739              		.loc 1 1265 21
 2740 00c6 FB68     		ldr	r3, [r7, #12]
 2741 00c8 224A     		ldr	r2, .L145+4
 2742 00ca 5A64     		str	r2, [r3, #68]
 2743 00cc 05E0     		b	.L142
 2744              	.L141:
1266:./Libraries/STM32F4xx_HAL_Driver/Src/stm32f4xx_hal_spi.c ****   }
1267:./Libraries/STM32F4xx_HAL_Driver/Src/stm32f4xx_hal_spi.c ****   else
1268:./Libraries/STM32F4xx_HAL_Driver/Src/stm32f4xx_hal_spi.c ****   {
1269:./Libraries/STM32F4xx_HAL_Driver/Src/stm32f4xx_hal_spi.c ****     hspi->RxISR     = SPI_2linesRxISR_8BIT;
 2745              		.loc 1 1269 21
 2746 00ce FB68     		ldr	r3, [r7, #12]
 2747 00d0 214A     		ldr	r2, .L145+8
 2748 00d2 1A64     		str	r2, [r3, #64]
1270:./Libraries/STM32F4xx_HAL_Driver/Src/stm32f4xx_hal_spi.c ****     hspi->TxISR     = SPI_2linesTxISR_8BIT;
 2749              		.loc 1 1270 21
 2750 00d4 FB68     		ldr	r3, [r7, #12]
 2751 00d6 214A     		ldr	r2, .L145+12
 2752 00d8 5A64     		str	r2, [r3, #68]
 2753              	.L142:
1271:./Libraries/STM32F4xx_HAL_Driver/Src/stm32f4xx_hal_spi.c ****   }
1272:./Libraries/STM32F4xx_HAL_Driver/Src/stm32f4xx_hal_spi.c **** 
1273:./Libraries/STM32F4xx_HAL_Driver/Src/stm32f4xx_hal_spi.c **** #if (USE_SPI_CRC != 0U)
1274:./Libraries/STM32F4xx_HAL_Driver/Src/stm32f4xx_hal_spi.c ****   /* Reset CRC Calculation */
1275:./Libraries/STM32F4xx_HAL_Driver/Src/stm32f4xx_hal_spi.c ****   if(hspi->Init.CRCCalculation == SPI_CRCCALCULATION_ENABLE)
 2754              		.loc 1 1275 16
 2755 00da FB68     		ldr	r3, [r7, #12]
 2756 00dc 9B6A     		ldr	r3, [r3, #40]
 2757              		.loc 1 1275 5
 2758 00de B3F5005F 		cmp	r3, #8192
 2759 00e2 10D1     		bne	.L143
1276:./Libraries/STM32F4xx_HAL_Driver/Src/stm32f4xx_hal_spi.c ****   {
1277:./Libraries/STM32F4xx_HAL_Driver/Src/stm32f4xx_hal_spi.c ****     SPI_RESET_CRC(hspi);
 2760              		.loc 1 1277 5
 2761 00e4 FB68     		ldr	r3, [r7, #12]
 2762 00e6 1B68     		ldr	r3, [r3]
 2763 00e8 1968     		ldr	r1, [r3]
 2764 00ea FB68     		ldr	r3, [r7, #12]
 2765 00ec 1A68     		ldr	r2, [r3]
 2766 00ee 4DF6FF73 		movw	r3, #57343
 2767 00f2 0B40     		ands	r3, r3, r1
 2768 00f4 1360     		str	r3, [r2]
 2769 00f6 FB68     		ldr	r3, [r7, #12]
 2770 00f8 1B68     		ldr	r3, [r3]
 2771 00fa 1A68     		ldr	r2, [r3]
 2772 00fc FB68     		ldr	r3, [r7, #12]
 2773 00fe 1B68     		ldr	r3, [r3]
ARM GAS  /tmp/ccits0mR.s 			page 72


 2774 0100 42F40052 		orr	r2, r2, #8192
 2775 0104 1A60     		str	r2, [r3]
 2776              	.L143:
1278:./Libraries/STM32F4xx_HAL_Driver/Src/stm32f4xx_hal_spi.c ****   }
1279:./Libraries/STM32F4xx_HAL_Driver/Src/stm32f4xx_hal_spi.c **** #endif /* USE_SPI_CRC */
1280:./Libraries/STM32F4xx_HAL_Driver/Src/stm32f4xx_hal_spi.c **** 
1281:./Libraries/STM32F4xx_HAL_Driver/Src/stm32f4xx_hal_spi.c ****   /* Enable TXE, RXNE and ERR interrupt */
1282:./Libraries/STM32F4xx_HAL_Driver/Src/stm32f4xx_hal_spi.c ****   __HAL_SPI_ENABLE_IT(hspi, (SPI_IT_TXE | SPI_IT_RXNE | SPI_IT_ERR));
 2777              		.loc 1 1282 3
 2778 0106 FB68     		ldr	r3, [r7, #12]
 2779 0108 1B68     		ldr	r3, [r3]
 2780 010a 5A68     		ldr	r2, [r3, #4]
 2781 010c FB68     		ldr	r3, [r7, #12]
 2782 010e 1B68     		ldr	r3, [r3]
 2783 0110 42F0E002 		orr	r2, r2, #224
 2784 0114 5A60     		str	r2, [r3, #4]
1283:./Libraries/STM32F4xx_HAL_Driver/Src/stm32f4xx_hal_spi.c **** 
1284:./Libraries/STM32F4xx_HAL_Driver/Src/stm32f4xx_hal_spi.c ****   /* Check if the SPI is already enabled */
1285:./Libraries/STM32F4xx_HAL_Driver/Src/stm32f4xx_hal_spi.c ****   if((hspi->Instance->CR1 &SPI_CR1_SPE) != SPI_CR1_SPE)
 2785              		.loc 1 1285 11
 2786 0116 FB68     		ldr	r3, [r7, #12]
 2787 0118 1B68     		ldr	r3, [r3]
 2788              		.loc 1 1285 21
 2789 011a 1B68     		ldr	r3, [r3]
 2790              		.loc 1 1285 27
 2791 011c 03F04003 		and	r3, r3, #64
 2792              		.loc 1 1285 5
 2793 0120 402B     		cmp	r3, #64
 2794 0122 08D0     		beq	.L144
1286:./Libraries/STM32F4xx_HAL_Driver/Src/stm32f4xx_hal_spi.c ****   {
1287:./Libraries/STM32F4xx_HAL_Driver/Src/stm32f4xx_hal_spi.c ****     /* Enable SPI peripheral */
1288:./Libraries/STM32F4xx_HAL_Driver/Src/stm32f4xx_hal_spi.c ****     __HAL_SPI_ENABLE(hspi);
 2795              		.loc 1 1288 5
 2796 0124 FB68     		ldr	r3, [r7, #12]
 2797 0126 1B68     		ldr	r3, [r3]
 2798 0128 1A68     		ldr	r2, [r3]
 2799 012a FB68     		ldr	r3, [r7, #12]
 2800 012c 1B68     		ldr	r3, [r3]
 2801 012e 42F04002 		orr	r2, r2, #64
 2802 0132 1A60     		str	r2, [r3]
 2803 0134 00E0     		b	.L137
 2804              	.L144:
1289:./Libraries/STM32F4xx_HAL_Driver/Src/stm32f4xx_hal_spi.c ****   }
1290:./Libraries/STM32F4xx_HAL_Driver/Src/stm32f4xx_hal_spi.c **** 
1291:./Libraries/STM32F4xx_HAL_Driver/Src/stm32f4xx_hal_spi.c **** error :
 2805              		.loc 1 1291 1
 2806 0136 00BF     		nop
 2807              	.L137:
1292:./Libraries/STM32F4xx_HAL_Driver/Src/stm32f4xx_hal_spi.c ****   /* Process Unlocked */
1293:./Libraries/STM32F4xx_HAL_Driver/Src/stm32f4xx_hal_spi.c ****   __HAL_UNLOCK(hspi);
 2808              		.loc 1 1293 3
 2809 0138 FB68     		ldr	r3, [r7, #12]
 2810 013a 0022     		movs	r2, #0
 2811 013c 83F85020 		strb	r2, [r3, #80]
1294:./Libraries/STM32F4xx_HAL_Driver/Src/stm32f4xx_hal_spi.c ****   return errorcode;
 2812              		.loc 1 1294 10
 2813 0140 FB7F     		ldrb	r3, [r7, #31]	@ zero_extendqisi2
ARM GAS  /tmp/ccits0mR.s 			page 73


 2814              	.L134:
1295:./Libraries/STM32F4xx_HAL_Driver/Src/stm32f4xx_hal_spi.c **** }
 2815              		.loc 1 1295 1
 2816 0142 1846     		mov	r0, r3
 2817 0144 2437     		adds	r7, r7, #36
 2818              	.LCFI51:
 2819              		.cfi_def_cfa_offset 4
 2820 0146 BD46     		mov	sp, r7
 2821              	.LCFI52:
 2822              		.cfi_def_cfa_register 13
 2823              		@ sp needed
 2824 0148 5DF8047B 		ldr	r7, [sp], #4
 2825              	.LCFI53:
 2826              		.cfi_restore 7
 2827              		.cfi_def_cfa_offset 0
 2828 014c 7047     		bx	lr
 2829              	.L146:
 2830 014e 00BF     		.align	2
 2831              	.L145:
 2832 0150 00000000 		.word	SPI_2linesRxISR_16BIT
 2833 0154 00000000 		.word	SPI_2linesTxISR_16BIT
 2834 0158 00000000 		.word	SPI_2linesRxISR_8BIT
 2835 015c 00000000 		.word	SPI_2linesTxISR_8BIT
 2836              		.cfi_endproc
 2837              	.LFE135:
 2839              		.section	.text.HAL_SPI_Transmit_DMA,"ax",%progbits
 2840              		.align	1
 2841              		.global	HAL_SPI_Transmit_DMA
 2842              		.syntax unified
 2843              		.thumb
 2844              		.thumb_func
 2845              		.fpu fpv4-sp-d16
 2847              	HAL_SPI_Transmit_DMA:
 2848              	.LFB136:
1296:./Libraries/STM32F4xx_HAL_Driver/Src/stm32f4xx_hal_spi.c **** 
1297:./Libraries/STM32F4xx_HAL_Driver/Src/stm32f4xx_hal_spi.c **** /**
1298:./Libraries/STM32F4xx_HAL_Driver/Src/stm32f4xx_hal_spi.c ****   * @brief  Transmit an amount of data in non-blocking mode with DMA.
1299:./Libraries/STM32F4xx_HAL_Driver/Src/stm32f4xx_hal_spi.c ****   * @param  hspi pointer to a SPI_HandleTypeDef structure that contains
1300:./Libraries/STM32F4xx_HAL_Driver/Src/stm32f4xx_hal_spi.c ****   *               the configuration information for SPI module.
1301:./Libraries/STM32F4xx_HAL_Driver/Src/stm32f4xx_hal_spi.c ****   * @param  pData pointer to data buffer
1302:./Libraries/STM32F4xx_HAL_Driver/Src/stm32f4xx_hal_spi.c ****   * @param  Size amount of data to be sent
1303:./Libraries/STM32F4xx_HAL_Driver/Src/stm32f4xx_hal_spi.c ****   * @retval HAL status
1304:./Libraries/STM32F4xx_HAL_Driver/Src/stm32f4xx_hal_spi.c ****   */
1305:./Libraries/STM32F4xx_HAL_Driver/Src/stm32f4xx_hal_spi.c **** HAL_StatusTypeDef HAL_SPI_Transmit_DMA(SPI_HandleTypeDef *hspi, uint8_t *pData, uint16_t Size)
1306:./Libraries/STM32F4xx_HAL_Driver/Src/stm32f4xx_hal_spi.c **** {
 2849              		.loc 1 1306 1
 2850              		.cfi_startproc
 2851              		@ args = 0, pretend = 0, frame = 24
 2852              		@ frame_needed = 1, uses_anonymous_args = 0
 2853 0000 80B5     		push	{r7, lr}
 2854              	.LCFI54:
 2855              		.cfi_def_cfa_offset 8
 2856              		.cfi_offset 7, -8
 2857              		.cfi_offset 14, -4
 2858 0002 86B0     		sub	sp, sp, #24
 2859              	.LCFI55:
 2860              		.cfi_def_cfa_offset 32
ARM GAS  /tmp/ccits0mR.s 			page 74


 2861 0004 00AF     		add	r7, sp, #0
 2862              	.LCFI56:
 2863              		.cfi_def_cfa_register 7
 2864 0006 F860     		str	r0, [r7, #12]
 2865 0008 B960     		str	r1, [r7, #8]
 2866 000a 1346     		mov	r3, r2
 2867 000c FB80     		strh	r3, [r7, #6]	@ movhi
1307:./Libraries/STM32F4xx_HAL_Driver/Src/stm32f4xx_hal_spi.c ****   HAL_StatusTypeDef errorcode = HAL_OK;
 2868              		.loc 1 1307 21
 2869 000e 0023     		movs	r3, #0
 2870 0010 FB75     		strb	r3, [r7, #23]
1308:./Libraries/STM32F4xx_HAL_Driver/Src/stm32f4xx_hal_spi.c **** 
1309:./Libraries/STM32F4xx_HAL_Driver/Src/stm32f4xx_hal_spi.c ****   /* Check Direction parameter */
1310:./Libraries/STM32F4xx_HAL_Driver/Src/stm32f4xx_hal_spi.c ****   assert_param(IS_SPI_DIRECTION_2LINES_OR_1LINE(hspi->Init.Direction));
1311:./Libraries/STM32F4xx_HAL_Driver/Src/stm32f4xx_hal_spi.c **** 
1312:./Libraries/STM32F4xx_HAL_Driver/Src/stm32f4xx_hal_spi.c ****   /* Process Locked */
1313:./Libraries/STM32F4xx_HAL_Driver/Src/stm32f4xx_hal_spi.c ****   __HAL_LOCK(hspi);
 2871              		.loc 1 1313 3
 2872 0012 FB68     		ldr	r3, [r7, #12]
 2873 0014 93F85030 		ldrb	r3, [r3, #80]	@ zero_extendqisi2
 2874 0018 012B     		cmp	r3, #1
 2875 001a 01D1     		bne	.L148
 2876              		.loc 1 1313 3 is_stmt 0 discriminator 1
 2877 001c 0223     		movs	r3, #2
 2878 001e 99E0     		b	.L149
 2879              	.L148:
 2880              		.loc 1 1313 3 discriminator 2
 2881 0020 FB68     		ldr	r3, [r7, #12]
 2882 0022 0122     		movs	r2, #1
 2883 0024 83F85020 		strb	r2, [r3, #80]
1314:./Libraries/STM32F4xx_HAL_Driver/Src/stm32f4xx_hal_spi.c **** 
1315:./Libraries/STM32F4xx_HAL_Driver/Src/stm32f4xx_hal_spi.c ****   if(hspi->State != HAL_SPI_STATE_READY)
 2884              		.loc 1 1315 10 is_stmt 1 discriminator 2
 2885 0028 FB68     		ldr	r3, [r7, #12]
 2886 002a 93F85130 		ldrb	r3, [r3, #81]
 2887 002e DBB2     		uxtb	r3, r3
 2888              		.loc 1 1315 5 discriminator 2
 2889 0030 012B     		cmp	r3, #1
 2890 0032 02D0     		beq	.L150
1316:./Libraries/STM32F4xx_HAL_Driver/Src/stm32f4xx_hal_spi.c ****   {
1317:./Libraries/STM32F4xx_HAL_Driver/Src/stm32f4xx_hal_spi.c ****     errorcode = HAL_BUSY;
 2891              		.loc 1 1317 15
 2892 0034 0223     		movs	r3, #2
 2893 0036 FB75     		strb	r3, [r7, #23]
1318:./Libraries/STM32F4xx_HAL_Driver/Src/stm32f4xx_hal_spi.c ****     goto error;
 2894              		.loc 1 1318 5
 2895 0038 87E0     		b	.L151
 2896              	.L150:
1319:./Libraries/STM32F4xx_HAL_Driver/Src/stm32f4xx_hal_spi.c ****   }
1320:./Libraries/STM32F4xx_HAL_Driver/Src/stm32f4xx_hal_spi.c **** 
1321:./Libraries/STM32F4xx_HAL_Driver/Src/stm32f4xx_hal_spi.c ****   if((pData == NULL) || (Size == 0))
 2897              		.loc 1 1321 5
 2898 003a BB68     		ldr	r3, [r7, #8]
 2899 003c 002B     		cmp	r3, #0
 2900 003e 02D0     		beq	.L152
 2901              		.loc 1 1321 22 discriminator 1
 2902 0040 FB88     		ldrh	r3, [r7, #6]
ARM GAS  /tmp/ccits0mR.s 			page 75


 2903 0042 002B     		cmp	r3, #0
 2904 0044 02D1     		bne	.L153
 2905              	.L152:
1322:./Libraries/STM32F4xx_HAL_Driver/Src/stm32f4xx_hal_spi.c ****   {
1323:./Libraries/STM32F4xx_HAL_Driver/Src/stm32f4xx_hal_spi.c ****     errorcode = HAL_ERROR;
 2906              		.loc 1 1323 15
 2907 0046 0123     		movs	r3, #1
 2908 0048 FB75     		strb	r3, [r7, #23]
1324:./Libraries/STM32F4xx_HAL_Driver/Src/stm32f4xx_hal_spi.c ****     goto error;
 2909              		.loc 1 1324 5
 2910 004a 7EE0     		b	.L151
 2911              	.L153:
1325:./Libraries/STM32F4xx_HAL_Driver/Src/stm32f4xx_hal_spi.c ****   }
1326:./Libraries/STM32F4xx_HAL_Driver/Src/stm32f4xx_hal_spi.c **** 
1327:./Libraries/STM32F4xx_HAL_Driver/Src/stm32f4xx_hal_spi.c ****   /* Set the transaction information */
1328:./Libraries/STM32F4xx_HAL_Driver/Src/stm32f4xx_hal_spi.c ****   hspi->State       = HAL_SPI_STATE_BUSY_TX;
 2912              		.loc 1 1328 21
 2913 004c FB68     		ldr	r3, [r7, #12]
 2914 004e 0322     		movs	r2, #3
 2915 0050 83F85120 		strb	r2, [r3, #81]
1329:./Libraries/STM32F4xx_HAL_Driver/Src/stm32f4xx_hal_spi.c ****   hspi->ErrorCode   = HAL_SPI_ERROR_NONE;
 2916              		.loc 1 1329 21
 2917 0054 FB68     		ldr	r3, [r7, #12]
 2918 0056 0022     		movs	r2, #0
 2919 0058 5A65     		str	r2, [r3, #84]
1330:./Libraries/STM32F4xx_HAL_Driver/Src/stm32f4xx_hal_spi.c ****   hspi->pTxBuffPtr  = (uint8_t *)pData;
 2920              		.loc 1 1330 21
 2921 005a FB68     		ldr	r3, [r7, #12]
 2922 005c BA68     		ldr	r2, [r7, #8]
 2923 005e 1A63     		str	r2, [r3, #48]
1331:./Libraries/STM32F4xx_HAL_Driver/Src/stm32f4xx_hal_spi.c ****   hspi->TxXferSize  = Size;
 2924              		.loc 1 1331 21
 2925 0060 FB68     		ldr	r3, [r7, #12]
 2926 0062 FA88     		ldrh	r2, [r7, #6]	@ movhi
 2927 0064 9A86     		strh	r2, [r3, #52]	@ movhi
1332:./Libraries/STM32F4xx_HAL_Driver/Src/stm32f4xx_hal_spi.c ****   hspi->TxXferCount = Size;
 2928              		.loc 1 1332 21
 2929 0066 FB68     		ldr	r3, [r7, #12]
 2930 0068 FA88     		ldrh	r2, [r7, #6]	@ movhi
 2931 006a DA86     		strh	r2, [r3, #54]	@ movhi
1333:./Libraries/STM32F4xx_HAL_Driver/Src/stm32f4xx_hal_spi.c **** 
1334:./Libraries/STM32F4xx_HAL_Driver/Src/stm32f4xx_hal_spi.c ****   /* Init field not used in handle to zero */
1335:./Libraries/STM32F4xx_HAL_Driver/Src/stm32f4xx_hal_spi.c ****   hspi->pRxBuffPtr  = (uint8_t *)NULL;
 2932              		.loc 1 1335 21
 2933 006c FB68     		ldr	r3, [r7, #12]
 2934 006e 0022     		movs	r2, #0
 2935 0070 9A63     		str	r2, [r3, #56]
1336:./Libraries/STM32F4xx_HAL_Driver/Src/stm32f4xx_hal_spi.c ****   hspi->TxISR       = NULL;
 2936              		.loc 1 1336 21
 2937 0072 FB68     		ldr	r3, [r7, #12]
 2938 0074 0022     		movs	r2, #0
 2939 0076 5A64     		str	r2, [r3, #68]
1337:./Libraries/STM32F4xx_HAL_Driver/Src/stm32f4xx_hal_spi.c ****   hspi->RxISR       = NULL;
 2940              		.loc 1 1337 21
 2941 0078 FB68     		ldr	r3, [r7, #12]
 2942 007a 0022     		movs	r2, #0
 2943 007c 1A64     		str	r2, [r3, #64]
ARM GAS  /tmp/ccits0mR.s 			page 76


1338:./Libraries/STM32F4xx_HAL_Driver/Src/stm32f4xx_hal_spi.c ****   hspi->RxXferSize  = 0U;
 2944              		.loc 1 1338 21
 2945 007e FB68     		ldr	r3, [r7, #12]
 2946 0080 0022     		movs	r2, #0
 2947 0082 9A87     		strh	r2, [r3, #60]	@ movhi
1339:./Libraries/STM32F4xx_HAL_Driver/Src/stm32f4xx_hal_spi.c ****   hspi->RxXferCount = 0U;
 2948              		.loc 1 1339 21
 2949 0084 FB68     		ldr	r3, [r7, #12]
 2950 0086 0022     		movs	r2, #0
 2951 0088 DA87     		strh	r2, [r3, #62]	@ movhi
1340:./Libraries/STM32F4xx_HAL_Driver/Src/stm32f4xx_hal_spi.c **** 
1341:./Libraries/STM32F4xx_HAL_Driver/Src/stm32f4xx_hal_spi.c ****   /* Configure communication direction : 1Line */
1342:./Libraries/STM32F4xx_HAL_Driver/Src/stm32f4xx_hal_spi.c ****   if(hspi->Init.Direction == SPI_DIRECTION_1LINE)
 2952              		.loc 1 1342 16
 2953 008a FB68     		ldr	r3, [r7, #12]
 2954 008c 9B68     		ldr	r3, [r3, #8]
 2955              		.loc 1 1342 5
 2956 008e B3F5004F 		cmp	r3, #32768
 2957 0092 07D1     		bne	.L154
1343:./Libraries/STM32F4xx_HAL_Driver/Src/stm32f4xx_hal_spi.c ****   {
1344:./Libraries/STM32F4xx_HAL_Driver/Src/stm32f4xx_hal_spi.c ****     SPI_1LINE_TX(hspi);
 2958              		.loc 1 1344 5
 2959 0094 FB68     		ldr	r3, [r7, #12]
 2960 0096 1B68     		ldr	r3, [r3]
 2961 0098 1A68     		ldr	r2, [r3]
 2962 009a FB68     		ldr	r3, [r7, #12]
 2963 009c 1B68     		ldr	r3, [r3]
 2964 009e 42F48042 		orr	r2, r2, #16384
 2965 00a2 1A60     		str	r2, [r3]
 2966              	.L154:
1345:./Libraries/STM32F4xx_HAL_Driver/Src/stm32f4xx_hal_spi.c ****   }
1346:./Libraries/STM32F4xx_HAL_Driver/Src/stm32f4xx_hal_spi.c **** 
1347:./Libraries/STM32F4xx_HAL_Driver/Src/stm32f4xx_hal_spi.c **** #if (USE_SPI_CRC != 0U)
1348:./Libraries/STM32F4xx_HAL_Driver/Src/stm32f4xx_hal_spi.c ****   /* Reset CRC Calculation */
1349:./Libraries/STM32F4xx_HAL_Driver/Src/stm32f4xx_hal_spi.c ****   if(hspi->Init.CRCCalculation == SPI_CRCCALCULATION_ENABLE)
 2967              		.loc 1 1349 16
 2968 00a4 FB68     		ldr	r3, [r7, #12]
 2969 00a6 9B6A     		ldr	r3, [r3, #40]
 2970              		.loc 1 1349 5
 2971 00a8 B3F5005F 		cmp	r3, #8192
 2972 00ac 10D1     		bne	.L155
1350:./Libraries/STM32F4xx_HAL_Driver/Src/stm32f4xx_hal_spi.c ****   {
1351:./Libraries/STM32F4xx_HAL_Driver/Src/stm32f4xx_hal_spi.c ****     SPI_RESET_CRC(hspi);
 2973              		.loc 1 1351 5
 2974 00ae FB68     		ldr	r3, [r7, #12]
 2975 00b0 1B68     		ldr	r3, [r3]
 2976 00b2 1968     		ldr	r1, [r3]
 2977 00b4 FB68     		ldr	r3, [r7, #12]
 2978 00b6 1A68     		ldr	r2, [r3]
 2979 00b8 4DF6FF73 		movw	r3, #57343
 2980 00bc 0B40     		ands	r3, r3, r1
 2981 00be 1360     		str	r3, [r2]
 2982 00c0 FB68     		ldr	r3, [r7, #12]
 2983 00c2 1B68     		ldr	r3, [r3]
 2984 00c4 1A68     		ldr	r2, [r3]
 2985 00c6 FB68     		ldr	r3, [r7, #12]
 2986 00c8 1B68     		ldr	r3, [r3]
ARM GAS  /tmp/ccits0mR.s 			page 77


 2987 00ca 42F40052 		orr	r2, r2, #8192
 2988 00ce 1A60     		str	r2, [r3]
 2989              	.L155:
1352:./Libraries/STM32F4xx_HAL_Driver/Src/stm32f4xx_hal_spi.c ****   }
1353:./Libraries/STM32F4xx_HAL_Driver/Src/stm32f4xx_hal_spi.c **** #endif /* USE_SPI_CRC */
1354:./Libraries/STM32F4xx_HAL_Driver/Src/stm32f4xx_hal_spi.c **** 
1355:./Libraries/STM32F4xx_HAL_Driver/Src/stm32f4xx_hal_spi.c ****   /* Set the SPI TxDMA Half transfer complete callback */
