ARM GAS  /tmp/ccmBJYMF.s 			page 1


   1              		.cpu cortex-m4
   2              		.eabi_attribute 27, 1
   3              		.eabi_attribute 28, 1
   4              		.eabi_attribute 20, 1
   5              		.eabi_attribute 21, 1
   6              		.eabi_attribute 23, 3
   7              		.eabi_attribute 24, 1
   8              		.eabi_attribute 25, 1
   9              		.eabi_attribute 26, 1
  10              		.eabi_attribute 30, 6
  11              		.eabi_attribute 34, 1
  12              		.eabi_attribute 18, 4
  13              		.file	"stm32f4xx_hal_nand.c"
  14              		.text
  15              	.Ltext0:
  16              		.cfi_sections	.debug_frame
  17              		.section	.text.HAL_NAND_Init,"ax",%progbits
  18              		.align	1
  19              		.global	HAL_NAND_Init
  20              		.arch armv7e-m
  21              		.syntax unified
  22              		.thumb
  23              		.thumb_func
  24              		.fpu fpv4-sp-d16
  26              	HAL_NAND_Init:
  27              	.LFB126:
  28              		.file 1 "./Libraries/STM32F4xx_HAL_Driver/Src/stm32f4xx_hal_nand.c"
   1:./Libraries/STM32F4xx_HAL_Driver/Src/stm32f4xx_hal_nand.c **** /**
   2:./Libraries/STM32F4xx_HAL_Driver/Src/stm32f4xx_hal_nand.c ****   ******************************************************************************
   3:./Libraries/STM32F4xx_HAL_Driver/Src/stm32f4xx_hal_nand.c ****   * @file    stm32f4xx_hal_nand.c
   4:./Libraries/STM32F4xx_HAL_Driver/Src/stm32f4xx_hal_nand.c ****   * @author  MCD Application Team
   5:./Libraries/STM32F4xx_HAL_Driver/Src/stm32f4xx_hal_nand.c ****   * @brief   NAND HAL module driver.
   6:./Libraries/STM32F4xx_HAL_Driver/Src/stm32f4xx_hal_nand.c ****   *          This file provides a generic firmware to drive NAND memories mounted 
   7:./Libraries/STM32F4xx_HAL_Driver/Src/stm32f4xx_hal_nand.c ****   *          as external device.
   8:./Libraries/STM32F4xx_HAL_Driver/Src/stm32f4xx_hal_nand.c ****   *         
   9:./Libraries/STM32F4xx_HAL_Driver/Src/stm32f4xx_hal_nand.c ****   @verbatim
  10:./Libraries/STM32F4xx_HAL_Driver/Src/stm32f4xx_hal_nand.c ****   ==============================================================================
  11:./Libraries/STM32F4xx_HAL_Driver/Src/stm32f4xx_hal_nand.c ****                          ##### How to use this driver #####
  12:./Libraries/STM32F4xx_HAL_Driver/Src/stm32f4xx_hal_nand.c ****   ==============================================================================    
  13:./Libraries/STM32F4xx_HAL_Driver/Src/stm32f4xx_hal_nand.c ****     [..]
  14:./Libraries/STM32F4xx_HAL_Driver/Src/stm32f4xx_hal_nand.c ****       This driver is a generic layered driver which contains a set of APIs used to 
  15:./Libraries/STM32F4xx_HAL_Driver/Src/stm32f4xx_hal_nand.c ****       control NAND flash memories. It uses the FMC/FSMC layer functions to interface 
  16:./Libraries/STM32F4xx_HAL_Driver/Src/stm32f4xx_hal_nand.c ****       with NAND devices. This driver is used as follows:
  17:./Libraries/STM32F4xx_HAL_Driver/Src/stm32f4xx_hal_nand.c ****     
  18:./Libraries/STM32F4xx_HAL_Driver/Src/stm32f4xx_hal_nand.c ****       (+) NAND flash memory configuration sequence using the function HAL_NAND_Init() 
  19:./Libraries/STM32F4xx_HAL_Driver/Src/stm32f4xx_hal_nand.c ****           with control and timing parameters for both common and attribute spaces.
  20:./Libraries/STM32F4xx_HAL_Driver/Src/stm32f4xx_hal_nand.c ****             
  21:./Libraries/STM32F4xx_HAL_Driver/Src/stm32f4xx_hal_nand.c ****       (+) Read NAND flash memory maker and device IDs using the function
  22:./Libraries/STM32F4xx_HAL_Driver/Src/stm32f4xx_hal_nand.c ****           HAL_NAND_Read_ID(). The read information is stored in the NAND_ID_TypeDef 
  23:./Libraries/STM32F4xx_HAL_Driver/Src/stm32f4xx_hal_nand.c ****           structure declared by the function caller. 
  24:./Libraries/STM32F4xx_HAL_Driver/Src/stm32f4xx_hal_nand.c ****         
  25:./Libraries/STM32F4xx_HAL_Driver/Src/stm32f4xx_hal_nand.c ****       (+) Access NAND flash memory by read/write operations using the functions
  26:./Libraries/STM32F4xx_HAL_Driver/Src/stm32f4xx_hal_nand.c ****           HAL_NAND_Read_Page_8b()/HAL_NAND_Read_SpareArea_8b(), 
  27:./Libraries/STM32F4xx_HAL_Driver/Src/stm32f4xx_hal_nand.c ****           HAL_NAND_Write_Page_8b()/HAL_NAND_Write_SpareArea_8b(),
  28:./Libraries/STM32F4xx_HAL_Driver/Src/stm32f4xx_hal_nand.c ****           HAL_NAND_Read_Page_16b()/HAL_NAND_Read_SpareArea_16b(), 
  29:./Libraries/STM32F4xx_HAL_Driver/Src/stm32f4xx_hal_nand.c ****           HAL_NAND_Write_Page_16b()/HAL_NAND_Write_SpareArea_16b()
  30:./Libraries/STM32F4xx_HAL_Driver/Src/stm32f4xx_hal_nand.c ****           to read/write page(s)/spare area(s). These functions use specific device 
ARM GAS  /tmp/ccmBJYMF.s 			page 2


  31:./Libraries/STM32F4xx_HAL_Driver/Src/stm32f4xx_hal_nand.c ****           information (Block, page size..) predefined by the user in the HAL_NAND_Info_TypeDef 
  32:./Libraries/STM32F4xx_HAL_Driver/Src/stm32f4xx_hal_nand.c ****           structure. The read/write address information is contained by the Nand_Address_Typedef
  33:./Libraries/STM32F4xx_HAL_Driver/Src/stm32f4xx_hal_nand.c ****           structure passed as parameter.
  34:./Libraries/STM32F4xx_HAL_Driver/Src/stm32f4xx_hal_nand.c ****         
  35:./Libraries/STM32F4xx_HAL_Driver/Src/stm32f4xx_hal_nand.c ****       (+) Perform NAND flash Reset chip operation using the function HAL_NAND_Reset().
  36:./Libraries/STM32F4xx_HAL_Driver/Src/stm32f4xx_hal_nand.c ****         
  37:./Libraries/STM32F4xx_HAL_Driver/Src/stm32f4xx_hal_nand.c ****       (+) Perform NAND flash erase block operation using the function HAL_NAND_Erase_Block().
  38:./Libraries/STM32F4xx_HAL_Driver/Src/stm32f4xx_hal_nand.c ****           The erase block address information is contained in the Nand_Address_Typedef 
  39:./Libraries/STM32F4xx_HAL_Driver/Src/stm32f4xx_hal_nand.c ****           structure passed as parameter.
  40:./Libraries/STM32F4xx_HAL_Driver/Src/stm32f4xx_hal_nand.c ****     
  41:./Libraries/STM32F4xx_HAL_Driver/Src/stm32f4xx_hal_nand.c ****       (+) Read the NAND flash status operation using the function HAL_NAND_Read_Status().
  42:./Libraries/STM32F4xx_HAL_Driver/Src/stm32f4xx_hal_nand.c ****         
  43:./Libraries/STM32F4xx_HAL_Driver/Src/stm32f4xx_hal_nand.c ****       (+) You can also control the NAND device by calling the control APIs HAL_NAND_ECC_Enable()/
  44:./Libraries/STM32F4xx_HAL_Driver/Src/stm32f4xx_hal_nand.c ****           HAL_NAND_ECC_Disable() to respectively enable/disable the ECC code correction
  45:./Libraries/STM32F4xx_HAL_Driver/Src/stm32f4xx_hal_nand.c ****           feature or the function HAL_NAND_GetECC() to get the ECC correction code. 
  46:./Libraries/STM32F4xx_HAL_Driver/Src/stm32f4xx_hal_nand.c ****        
  47:./Libraries/STM32F4xx_HAL_Driver/Src/stm32f4xx_hal_nand.c ****       (+) You can monitor the NAND device HAL state by calling the function
  48:./Libraries/STM32F4xx_HAL_Driver/Src/stm32f4xx_hal_nand.c ****           HAL_NAND_GetState()  
  49:./Libraries/STM32F4xx_HAL_Driver/Src/stm32f4xx_hal_nand.c **** 
  50:./Libraries/STM32F4xx_HAL_Driver/Src/stm32f4xx_hal_nand.c ****     [..]
  51:./Libraries/STM32F4xx_HAL_Driver/Src/stm32f4xx_hal_nand.c ****       (@) This driver is a set of generic APIs which handle standard NAND flash operations.
  52:./Libraries/STM32F4xx_HAL_Driver/Src/stm32f4xx_hal_nand.c ****           If a NAND flash device contains different operations and/or implementations, 
  53:./Libraries/STM32F4xx_HAL_Driver/Src/stm32f4xx_hal_nand.c ****           it should be implemented separately.
  54:./Libraries/STM32F4xx_HAL_Driver/Src/stm32f4xx_hal_nand.c **** 
  55:./Libraries/STM32F4xx_HAL_Driver/Src/stm32f4xx_hal_nand.c ****   @endverbatim
  56:./Libraries/STM32F4xx_HAL_Driver/Src/stm32f4xx_hal_nand.c ****   ******************************************************************************
  57:./Libraries/STM32F4xx_HAL_Driver/Src/stm32f4xx_hal_nand.c ****   * @attention
  58:./Libraries/STM32F4xx_HAL_Driver/Src/stm32f4xx_hal_nand.c ****   *
  59:./Libraries/STM32F4xx_HAL_Driver/Src/stm32f4xx_hal_nand.c ****   * <h2><center>&copy; COPYRIGHT(c) 2017 STMicroelectronics</center></h2>
  60:./Libraries/STM32F4xx_HAL_Driver/Src/stm32f4xx_hal_nand.c ****   *
  61:./Libraries/STM32F4xx_HAL_Driver/Src/stm32f4xx_hal_nand.c ****   * Redistribution and use in source and binary forms, with or without modification,
  62:./Libraries/STM32F4xx_HAL_Driver/Src/stm32f4xx_hal_nand.c ****   * are permitted provided that the following conditions are met:
  63:./Libraries/STM32F4xx_HAL_Driver/Src/stm32f4xx_hal_nand.c ****   *   1. Redistributions of source code must retain the above copyright notice,
  64:./Libraries/STM32F4xx_HAL_Driver/Src/stm32f4xx_hal_nand.c ****   *      this list of conditions and the following disclaimer.
  65:./Libraries/STM32F4xx_HAL_Driver/Src/stm32f4xx_hal_nand.c ****   *   2. Redistributions in binary form must reproduce the above copyright notice,
  66:./Libraries/STM32F4xx_HAL_Driver/Src/stm32f4xx_hal_nand.c ****   *      this list of conditions and the following disclaimer in the documentation
  67:./Libraries/STM32F4xx_HAL_Driver/Src/stm32f4xx_hal_nand.c ****   *      and/or other materials provided with the distribution.
  68:./Libraries/STM32F4xx_HAL_Driver/Src/stm32f4xx_hal_nand.c ****   *   3. Neither the name of STMicroelectronics nor the names of its contributors
  69:./Libraries/STM32F4xx_HAL_Driver/Src/stm32f4xx_hal_nand.c ****   *      may be used to endorse or promote products derived from this software
  70:./Libraries/STM32F4xx_HAL_Driver/Src/stm32f4xx_hal_nand.c ****   *      without specific prior written permission.
  71:./Libraries/STM32F4xx_HAL_Driver/Src/stm32f4xx_hal_nand.c ****   *
  72:./Libraries/STM32F4xx_HAL_Driver/Src/stm32f4xx_hal_nand.c ****   * THIS SOFTWARE IS PROVIDED BY THE COPYRIGHT HOLDERS AND CONTRIBUTORS "AS IS"
  73:./Libraries/STM32F4xx_HAL_Driver/Src/stm32f4xx_hal_nand.c ****   * AND ANY EXPRESS OR IMPLIED WARRANTIES, INCLUDING, BUT NOT LIMITED TO, THE
  74:./Libraries/STM32F4xx_HAL_Driver/Src/stm32f4xx_hal_nand.c ****   * IMPLIED WARRANTIES OF MERCHANTABILITY AND FITNESS FOR A PARTICULAR PURPOSE ARE
  75:./Libraries/STM32F4xx_HAL_Driver/Src/stm32f4xx_hal_nand.c ****   * DISCLAIMED. IN NO EVENT SHALL THE COPYRIGHT HOLDER OR CONTRIBUTORS BE LIABLE
  76:./Libraries/STM32F4xx_HAL_Driver/Src/stm32f4xx_hal_nand.c ****   * FOR ANY DIRECT, INDIRECT, INCIDENTAL, SPECIAL, EXEMPLARY, OR CONSEQUENTIAL
  77:./Libraries/STM32F4xx_HAL_Driver/Src/stm32f4xx_hal_nand.c ****   * DAMAGES (INCLUDING, BUT NOT LIMITED TO, PROCUREMENT OF SUBSTITUTE GOODS OR
  78:./Libraries/STM32F4xx_HAL_Driver/Src/stm32f4xx_hal_nand.c ****   * SERVICES; LOSS OF USE, DATA, OR PROFITS; OR BUSINESS INTERRUPTION) HOWEVER
  79:./Libraries/STM32F4xx_HAL_Driver/Src/stm32f4xx_hal_nand.c ****   * CAUSED AND ON ANY THEORY OF LIABILITY, WHETHER IN CONTRACT, STRICT LIABILITY,
  80:./Libraries/STM32F4xx_HAL_Driver/Src/stm32f4xx_hal_nand.c ****   * OR TORT (INCLUDING NEGLIGENCE OR OTHERWISE) ARISING IN ANY WAY OUT OF THE USE
  81:./Libraries/STM32F4xx_HAL_Driver/Src/stm32f4xx_hal_nand.c ****   * OF THIS SOFTWARE, EVEN IF ADVISED OF THE POSSIBILITY OF SUCH DAMAGE.
  82:./Libraries/STM32F4xx_HAL_Driver/Src/stm32f4xx_hal_nand.c ****   *
  83:./Libraries/STM32F4xx_HAL_Driver/Src/stm32f4xx_hal_nand.c ****   ******************************************************************************
  84:./Libraries/STM32F4xx_HAL_Driver/Src/stm32f4xx_hal_nand.c ****   */ 
  85:./Libraries/STM32F4xx_HAL_Driver/Src/stm32f4xx_hal_nand.c **** 
  86:./Libraries/STM32F4xx_HAL_Driver/Src/stm32f4xx_hal_nand.c **** /* Includes ------------------------------------------------------------------*/
  87:./Libraries/STM32F4xx_HAL_Driver/Src/stm32f4xx_hal_nand.c **** #include "stm32f4xx_hal.h"
ARM GAS  /tmp/ccmBJYMF.s 			page 3


  88:./Libraries/STM32F4xx_HAL_Driver/Src/stm32f4xx_hal_nand.c **** 
  89:./Libraries/STM32F4xx_HAL_Driver/Src/stm32f4xx_hal_nand.c **** /** @addtogroup STM32F4xx_HAL_Driver
  90:./Libraries/STM32F4xx_HAL_Driver/Src/stm32f4xx_hal_nand.c ****   * @{
  91:./Libraries/STM32F4xx_HAL_Driver/Src/stm32f4xx_hal_nand.c ****   */
  92:./Libraries/STM32F4xx_HAL_Driver/Src/stm32f4xx_hal_nand.c **** 
  93:./Libraries/STM32F4xx_HAL_Driver/Src/stm32f4xx_hal_nand.c **** 
  94:./Libraries/STM32F4xx_HAL_Driver/Src/stm32f4xx_hal_nand.c **** #ifdef HAL_NAND_MODULE_ENABLED
  95:./Libraries/STM32F4xx_HAL_Driver/Src/stm32f4xx_hal_nand.c **** 
  96:./Libraries/STM32F4xx_HAL_Driver/Src/stm32f4xx_hal_nand.c **** #if defined(STM32F405xx) || defined(STM32F415xx) || defined(STM32F407xx) || defined(STM32F417xx) ||
  97:./Libraries/STM32F4xx_HAL_Driver/Src/stm32f4xx_hal_nand.c ****     defined(STM32F427xx) || defined(STM32F437xx) || defined(STM32F429xx) || defined(STM32F439xx) ||
  98:./Libraries/STM32F4xx_HAL_Driver/Src/stm32f4xx_hal_nand.c ****     defined(STM32F446xx) || defined(STM32F469xx) || defined(STM32F479xx)
  99:./Libraries/STM32F4xx_HAL_Driver/Src/stm32f4xx_hal_nand.c **** 
 100:./Libraries/STM32F4xx_HAL_Driver/Src/stm32f4xx_hal_nand.c **** /** @defgroup NAND NAND 
 101:./Libraries/STM32F4xx_HAL_Driver/Src/stm32f4xx_hal_nand.c ****   * @brief NAND HAL module driver
 102:./Libraries/STM32F4xx_HAL_Driver/Src/stm32f4xx_hal_nand.c ****   * @{
 103:./Libraries/STM32F4xx_HAL_Driver/Src/stm32f4xx_hal_nand.c ****   */
 104:./Libraries/STM32F4xx_HAL_Driver/Src/stm32f4xx_hal_nand.c **** 
 105:./Libraries/STM32F4xx_HAL_Driver/Src/stm32f4xx_hal_nand.c **** /* Private typedef -----------------------------------------------------------*/
 106:./Libraries/STM32F4xx_HAL_Driver/Src/stm32f4xx_hal_nand.c **** /* Private define ------------------------------------------------------------*/
 107:./Libraries/STM32F4xx_HAL_Driver/Src/stm32f4xx_hal_nand.c **** /** @defgroup NAND_Private_Constants NAND Private Constants
 108:./Libraries/STM32F4xx_HAL_Driver/Src/stm32f4xx_hal_nand.c ****   * @{
 109:./Libraries/STM32F4xx_HAL_Driver/Src/stm32f4xx_hal_nand.c ****   */
 110:./Libraries/STM32F4xx_HAL_Driver/Src/stm32f4xx_hal_nand.c **** 
 111:./Libraries/STM32F4xx_HAL_Driver/Src/stm32f4xx_hal_nand.c **** /**
 112:./Libraries/STM32F4xx_HAL_Driver/Src/stm32f4xx_hal_nand.c ****   * @}
 113:./Libraries/STM32F4xx_HAL_Driver/Src/stm32f4xx_hal_nand.c ****   */
 114:./Libraries/STM32F4xx_HAL_Driver/Src/stm32f4xx_hal_nand.c **** 
 115:./Libraries/STM32F4xx_HAL_Driver/Src/stm32f4xx_hal_nand.c **** /* Private macro -------------------------------------------------------------*/    
 116:./Libraries/STM32F4xx_HAL_Driver/Src/stm32f4xx_hal_nand.c **** /** @defgroup NAND_Private_Macros NAND Private Macros
 117:./Libraries/STM32F4xx_HAL_Driver/Src/stm32f4xx_hal_nand.c ****   * @{
 118:./Libraries/STM32F4xx_HAL_Driver/Src/stm32f4xx_hal_nand.c ****   */
 119:./Libraries/STM32F4xx_HAL_Driver/Src/stm32f4xx_hal_nand.c **** 
 120:./Libraries/STM32F4xx_HAL_Driver/Src/stm32f4xx_hal_nand.c **** /**
 121:./Libraries/STM32F4xx_HAL_Driver/Src/stm32f4xx_hal_nand.c ****   * @}
 122:./Libraries/STM32F4xx_HAL_Driver/Src/stm32f4xx_hal_nand.c ****   */
 123:./Libraries/STM32F4xx_HAL_Driver/Src/stm32f4xx_hal_nand.c **** /* Private variables ---------------------------------------------------------*/
 124:./Libraries/STM32F4xx_HAL_Driver/Src/stm32f4xx_hal_nand.c **** /* Private function prototypes -----------------------------------------------*/
 125:./Libraries/STM32F4xx_HAL_Driver/Src/stm32f4xx_hal_nand.c **** /* Exported functions --------------------------------------------------------*/
 126:./Libraries/STM32F4xx_HAL_Driver/Src/stm32f4xx_hal_nand.c **** /** @defgroup NAND_Exported_Functions NAND Exported Functions
 127:./Libraries/STM32F4xx_HAL_Driver/Src/stm32f4xx_hal_nand.c ****   * @{
 128:./Libraries/STM32F4xx_HAL_Driver/Src/stm32f4xx_hal_nand.c ****   */
 129:./Libraries/STM32F4xx_HAL_Driver/Src/stm32f4xx_hal_nand.c ****     
 130:./Libraries/STM32F4xx_HAL_Driver/Src/stm32f4xx_hal_nand.c **** /** @defgroup NAND_Exported_Functions_Group1 Initialization and de-initialization functions 
 131:./Libraries/STM32F4xx_HAL_Driver/Src/stm32f4xx_hal_nand.c ****   * @brief    Initialization and Configuration functions 
 132:./Libraries/STM32F4xx_HAL_Driver/Src/stm32f4xx_hal_nand.c ****   *
 133:./Libraries/STM32F4xx_HAL_Driver/Src/stm32f4xx_hal_nand.c ****   @verbatim    
 134:./Libraries/STM32F4xx_HAL_Driver/Src/stm32f4xx_hal_nand.c ****   ==============================================================================
 135:./Libraries/STM32F4xx_HAL_Driver/Src/stm32f4xx_hal_nand.c ****             ##### NAND Initialization and de-initialization functions #####
 136:./Libraries/STM32F4xx_HAL_Driver/Src/stm32f4xx_hal_nand.c ****   ==============================================================================
 137:./Libraries/STM32F4xx_HAL_Driver/Src/stm32f4xx_hal_nand.c ****   [..]  
 138:./Libraries/STM32F4xx_HAL_Driver/Src/stm32f4xx_hal_nand.c ****     This section provides functions allowing to initialize/de-initialize
 139:./Libraries/STM32F4xx_HAL_Driver/Src/stm32f4xx_hal_nand.c ****     the NAND memory
 140:./Libraries/STM32F4xx_HAL_Driver/Src/stm32f4xx_hal_nand.c ****   
 141:./Libraries/STM32F4xx_HAL_Driver/Src/stm32f4xx_hal_nand.c **** @endverbatim
 142:./Libraries/STM32F4xx_HAL_Driver/Src/stm32f4xx_hal_nand.c ****   * @{
 143:./Libraries/STM32F4xx_HAL_Driver/Src/stm32f4xx_hal_nand.c ****   */
 144:./Libraries/STM32F4xx_HAL_Driver/Src/stm32f4xx_hal_nand.c ****     
ARM GAS  /tmp/ccmBJYMF.s 			page 4


 145:./Libraries/STM32F4xx_HAL_Driver/Src/stm32f4xx_hal_nand.c **** /**
 146:./Libraries/STM32F4xx_HAL_Driver/Src/stm32f4xx_hal_nand.c ****   * @brief  Perform NAND memory Initialization sequence
 147:./Libraries/STM32F4xx_HAL_Driver/Src/stm32f4xx_hal_nand.c ****   * @param  hnand pointer to a NAND_HandleTypeDef structure that contains
 148:./Libraries/STM32F4xx_HAL_Driver/Src/stm32f4xx_hal_nand.c ****   *                the configuration information for NAND module.
 149:./Libraries/STM32F4xx_HAL_Driver/Src/stm32f4xx_hal_nand.c ****   * @param  ComSpace_Timing pointer to Common space timing structure
 150:./Libraries/STM32F4xx_HAL_Driver/Src/stm32f4xx_hal_nand.c ****   * @param  AttSpace_Timing pointer to Attribute space timing structure
 151:./Libraries/STM32F4xx_HAL_Driver/Src/stm32f4xx_hal_nand.c ****   * @retval HAL status
 152:./Libraries/STM32F4xx_HAL_Driver/Src/stm32f4xx_hal_nand.c ****   */
 153:./Libraries/STM32F4xx_HAL_Driver/Src/stm32f4xx_hal_nand.c **** HAL_StatusTypeDef  HAL_NAND_Init(NAND_HandleTypeDef *hnand, FMC_NAND_PCC_TimingTypeDef *ComSpace_Ti
 154:./Libraries/STM32F4xx_HAL_Driver/Src/stm32f4xx_hal_nand.c **** {
  29              		.loc 1 154 1
  30              		.cfi_startproc
  31              		@ args = 0, pretend = 0, frame = 16
  32              		@ frame_needed = 1, uses_anonymous_args = 0
  33 0000 80B5     		push	{r7, lr}
  34              	.LCFI0:
  35              		.cfi_def_cfa_offset 8
  36              		.cfi_offset 7, -8
  37              		.cfi_offset 14, -4
  38 0002 84B0     		sub	sp, sp, #16
  39              	.LCFI1:
  40              		.cfi_def_cfa_offset 24
  41 0004 00AF     		add	r7, sp, #0
  42              	.LCFI2:
  43              		.cfi_def_cfa_register 7
  44 0006 F860     		str	r0, [r7, #12]
  45 0008 B960     		str	r1, [r7, #8]
  46 000a 7A60     		str	r2, [r7, #4]
 155:./Libraries/STM32F4xx_HAL_Driver/Src/stm32f4xx_hal_nand.c ****   /* Check the NAND handle state */
 156:./Libraries/STM32F4xx_HAL_Driver/Src/stm32f4xx_hal_nand.c ****   if(hnand == NULL)
  47              		.loc 1 156 5
  48 000c FB68     		ldr	r3, [r7, #12]
  49 000e 002B     		cmp	r3, #0
  50 0010 01D1     		bne	.L2
 157:./Libraries/STM32F4xx_HAL_Driver/Src/stm32f4xx_hal_nand.c ****   {
 158:./Libraries/STM32F4xx_HAL_Driver/Src/stm32f4xx_hal_nand.c ****      return HAL_ERROR;
  51              		.loc 1 158 13
  52 0012 0123     		movs	r3, #1
  53 0014 3EE0     		b	.L3
  54              	.L2:
 159:./Libraries/STM32F4xx_HAL_Driver/Src/stm32f4xx_hal_nand.c ****   }
 160:./Libraries/STM32F4xx_HAL_Driver/Src/stm32f4xx_hal_nand.c **** 
 161:./Libraries/STM32F4xx_HAL_Driver/Src/stm32f4xx_hal_nand.c ****   if(hnand->State == HAL_NAND_STATE_RESET)
  55              		.loc 1 161 11
  56 0016 FB68     		ldr	r3, [r7, #12]
  57 0018 93F82130 		ldrb	r3, [r3, #33]
  58 001c DBB2     		uxtb	r3, r3
  59              		.loc 1 161 5
  60 001e 002B     		cmp	r3, #0
  61 0020 06D1     		bne	.L4
 162:./Libraries/STM32F4xx_HAL_Driver/Src/stm32f4xx_hal_nand.c ****   {
 163:./Libraries/STM32F4xx_HAL_Driver/Src/stm32f4xx_hal_nand.c ****     /* Allocate lock resource and initialize it */
 164:./Libraries/STM32F4xx_HAL_Driver/Src/stm32f4xx_hal_nand.c ****     hnand->Lock = HAL_UNLOCKED;
  62              		.loc 1 164 17
  63 0022 FB68     		ldr	r3, [r7, #12]
  64 0024 0022     		movs	r2, #0
  65 0026 83F82020 		strb	r2, [r3, #32]
ARM GAS  /tmp/ccmBJYMF.s 			page 5


 165:./Libraries/STM32F4xx_HAL_Driver/Src/stm32f4xx_hal_nand.c ****     /* Initialize the low level hardware (MSP) */
 166:./Libraries/STM32F4xx_HAL_Driver/Src/stm32f4xx_hal_nand.c ****     HAL_NAND_MspInit(hnand);
  66              		.loc 1 166 5
  67 002a F868     		ldr	r0, [r7, #12]
  68 002c FFF7FEFF 		bl	HAL_NAND_MspInit
  69              	.L4:
 167:./Libraries/STM32F4xx_HAL_Driver/Src/stm32f4xx_hal_nand.c ****   } 
 168:./Libraries/STM32F4xx_HAL_Driver/Src/stm32f4xx_hal_nand.c **** 
 169:./Libraries/STM32F4xx_HAL_Driver/Src/stm32f4xx_hal_nand.c ****   /* Initialize NAND control Interface */
 170:./Libraries/STM32F4xx_HAL_Driver/Src/stm32f4xx_hal_nand.c ****   FMC_NAND_Init(hnand->Instance, &(hnand->Init));
  70              		.loc 1 170 3
  71 0030 FB68     		ldr	r3, [r7, #12]
  72 0032 1A68     		ldr	r2, [r3]
  73 0034 FB68     		ldr	r3, [r7, #12]
  74 0036 0433     		adds	r3, r3, #4
  75 0038 1946     		mov	r1, r3
  76 003a 1046     		mov	r0, r2
  77 003c FFF7FEFF 		bl	FMC_NAND_Init
 171:./Libraries/STM32F4xx_HAL_Driver/Src/stm32f4xx_hal_nand.c ****   
 172:./Libraries/STM32F4xx_HAL_Driver/Src/stm32f4xx_hal_nand.c ****   /* Initialize NAND common space timing Interface */  
 173:./Libraries/STM32F4xx_HAL_Driver/Src/stm32f4xx_hal_nand.c ****   FMC_NAND_CommonSpace_Timing_Init(hnand->Instance, ComSpace_Timing, hnand->Init.NandBank);
  78              		.loc 1 173 3
  79 0040 FB68     		ldr	r3, [r7, #12]
  80 0042 1868     		ldr	r0, [r3]
  81 0044 FB68     		ldr	r3, [r7, #12]
  82 0046 5B68     		ldr	r3, [r3, #4]
  83 0048 1A46     		mov	r2, r3
  84 004a B968     		ldr	r1, [r7, #8]
  85 004c FFF7FEFF 		bl	FMC_NAND_CommonSpace_Timing_Init
 174:./Libraries/STM32F4xx_HAL_Driver/Src/stm32f4xx_hal_nand.c ****   
 175:./Libraries/STM32F4xx_HAL_Driver/Src/stm32f4xx_hal_nand.c ****   /* Initialize NAND attribute space timing Interface */  
 176:./Libraries/STM32F4xx_HAL_Driver/Src/stm32f4xx_hal_nand.c ****   FMC_NAND_AttributeSpace_Timing_Init(hnand->Instance, AttSpace_Timing, hnand->Init.NandBank);
  86              		.loc 1 176 3
  87 0050 FB68     		ldr	r3, [r7, #12]
  88 0052 1868     		ldr	r0, [r3]
  89 0054 FB68     		ldr	r3, [r7, #12]
  90 0056 5B68     		ldr	r3, [r3, #4]
  91 0058 1A46     		mov	r2, r3
  92 005a 7968     		ldr	r1, [r7, #4]
  93 005c FFF7FEFF 		bl	FMC_NAND_AttributeSpace_Timing_Init
 177:./Libraries/STM32F4xx_HAL_Driver/Src/stm32f4xx_hal_nand.c ****   
 178:./Libraries/STM32F4xx_HAL_Driver/Src/stm32f4xx_hal_nand.c ****   /* Enable the NAND device */
 179:./Libraries/STM32F4xx_HAL_Driver/Src/stm32f4xx_hal_nand.c ****   __FMC_NAND_ENABLE(hnand->Instance, hnand->Init.NandBank);
  94              		.loc 1 179 3
  95 0060 FB68     		ldr	r3, [r7, #12]
  96 0062 5B68     		ldr	r3, [r3, #4]
  97 0064 102B     		cmp	r3, #16
  98 0066 08D1     		bne	.L5
  99              		.loc 1 179 3 is_stmt 0 discriminator 1
 100 0068 FB68     		ldr	r3, [r7, #12]
 101 006a 1B68     		ldr	r3, [r3]
 102 006c 1A68     		ldr	r2, [r3]
 103 006e FB68     		ldr	r3, [r7, #12]
 104 0070 1B68     		ldr	r3, [r3]
 105 0072 42F00402 		orr	r2, r2, #4
 106 0076 1A60     		str	r2, [r3]
 107 0078 07E0     		b	.L6
ARM GAS  /tmp/ccmBJYMF.s 			page 6


 108              	.L5:
 109              		.loc 1 179 3 discriminator 2
 110 007a FB68     		ldr	r3, [r7, #12]
 111 007c 1B68     		ldr	r3, [r3]
 112 007e 1A6A     		ldr	r2, [r3, #32]
 113 0080 FB68     		ldr	r3, [r7, #12]
 114 0082 1B68     		ldr	r3, [r3]
 115 0084 42F00402 		orr	r2, r2, #4
 116 0088 1A62     		str	r2, [r3, #32]
 117              	.L6:
 180:./Libraries/STM32F4xx_HAL_Driver/Src/stm32f4xx_hal_nand.c ****   
 181:./Libraries/STM32F4xx_HAL_Driver/Src/stm32f4xx_hal_nand.c ****   /* Update the NAND controller state */
 182:./Libraries/STM32F4xx_HAL_Driver/Src/stm32f4xx_hal_nand.c ****   hnand->State = HAL_NAND_STATE_READY;
 118              		.loc 1 182 16 is_stmt 1
 119 008a FB68     		ldr	r3, [r7, #12]
 120 008c 0122     		movs	r2, #1
 121 008e 83F82120 		strb	r2, [r3, #33]
 183:./Libraries/STM32F4xx_HAL_Driver/Src/stm32f4xx_hal_nand.c **** 
 184:./Libraries/STM32F4xx_HAL_Driver/Src/stm32f4xx_hal_nand.c ****   return HAL_OK;
 122              		.loc 1 184 10
 123 0092 0023     		movs	r3, #0
 124              	.L3:
 185:./Libraries/STM32F4xx_HAL_Driver/Src/stm32f4xx_hal_nand.c **** }
 125              		.loc 1 185 1
 126 0094 1846     		mov	r0, r3
 127 0096 1037     		adds	r7, r7, #16
 128              	.LCFI3:
 129              		.cfi_def_cfa_offset 8
 130 0098 BD46     		mov	sp, r7
 131              	.LCFI4:
 132              		.cfi_def_cfa_register 13
 133              		@ sp needed
 134 009a 80BD     		pop	{r7, pc}
 135              		.cfi_endproc
 136              	.LFE126:
 138              		.section	.text.HAL_NAND_DeInit,"ax",%progbits
 139              		.align	1
 140              		.global	HAL_NAND_DeInit
 141              		.syntax unified
 142              		.thumb
 143              		.thumb_func
 144              		.fpu fpv4-sp-d16
 146              	HAL_NAND_DeInit:
 147              	.LFB127:
 186:./Libraries/STM32F4xx_HAL_Driver/Src/stm32f4xx_hal_nand.c **** 
 187:./Libraries/STM32F4xx_HAL_Driver/Src/stm32f4xx_hal_nand.c **** /**
 188:./Libraries/STM32F4xx_HAL_Driver/Src/stm32f4xx_hal_nand.c ****   * @brief  Perform NAND memory De-Initialization sequence
 189:./Libraries/STM32F4xx_HAL_Driver/Src/stm32f4xx_hal_nand.c ****   * @param  hnand pointer to a NAND_HandleTypeDef structure that contains
 190:./Libraries/STM32F4xx_HAL_Driver/Src/stm32f4xx_hal_nand.c ****   *                the configuration information for NAND module.
 191:./Libraries/STM32F4xx_HAL_Driver/Src/stm32f4xx_hal_nand.c ****   * @retval HAL status
 192:./Libraries/STM32F4xx_HAL_Driver/Src/stm32f4xx_hal_nand.c ****   */
 193:./Libraries/STM32F4xx_HAL_Driver/Src/stm32f4xx_hal_nand.c **** HAL_StatusTypeDef HAL_NAND_DeInit(NAND_HandleTypeDef *hnand)  
 194:./Libraries/STM32F4xx_HAL_Driver/Src/stm32f4xx_hal_nand.c **** {
 148              		.loc 1 194 1
 149              		.cfi_startproc
 150              		@ args = 0, pretend = 0, frame = 8
 151              		@ frame_needed = 1, uses_anonymous_args = 0
ARM GAS  /tmp/ccmBJYMF.s 			page 7


 152 0000 80B5     		push	{r7, lr}
 153              	.LCFI5:
 154              		.cfi_def_cfa_offset 8
 155              		.cfi_offset 7, -8
 156              		.cfi_offset 14, -4
 157 0002 82B0     		sub	sp, sp, #8
 158              	.LCFI6:
 159              		.cfi_def_cfa_offset 16
 160 0004 00AF     		add	r7, sp, #0
 161              	.LCFI7:
 162              		.cfi_def_cfa_register 7
 163 0006 7860     		str	r0, [r7, #4]
 195:./Libraries/STM32F4xx_HAL_Driver/Src/stm32f4xx_hal_nand.c ****   /* Initialize the low level hardware (MSP) */
 196:./Libraries/STM32F4xx_HAL_Driver/Src/stm32f4xx_hal_nand.c ****   HAL_NAND_MspDeInit(hnand);
 164              		.loc 1 196 3
 165 0008 7868     		ldr	r0, [r7, #4]
 166 000a FFF7FEFF 		bl	HAL_NAND_MspDeInit
 197:./Libraries/STM32F4xx_HAL_Driver/Src/stm32f4xx_hal_nand.c **** 
 198:./Libraries/STM32F4xx_HAL_Driver/Src/stm32f4xx_hal_nand.c ****   /* Configure the NAND registers with their reset values */
 199:./Libraries/STM32F4xx_HAL_Driver/Src/stm32f4xx_hal_nand.c ****   FMC_NAND_DeInit(hnand->Instance, hnand->Init.NandBank);
 167              		.loc 1 199 3
 168 000e 7B68     		ldr	r3, [r7, #4]
 169 0010 1A68     		ldr	r2, [r3]
 170 0012 7B68     		ldr	r3, [r7, #4]
 171 0014 5B68     		ldr	r3, [r3, #4]
 172 0016 1946     		mov	r1, r3
 173 0018 1046     		mov	r0, r2
 174 001a FFF7FEFF 		bl	FMC_NAND_DeInit
 200:./Libraries/STM32F4xx_HAL_Driver/Src/stm32f4xx_hal_nand.c **** 
 201:./Libraries/STM32F4xx_HAL_Driver/Src/stm32f4xx_hal_nand.c ****   /* Reset the NAND controller state */
 202:./Libraries/STM32F4xx_HAL_Driver/Src/stm32f4xx_hal_nand.c ****   hnand->State = HAL_NAND_STATE_RESET;
 175              		.loc 1 202 16
 176 001e 7B68     		ldr	r3, [r7, #4]
 177 0020 0022     		movs	r2, #0
 178 0022 83F82120 		strb	r2, [r3, #33]
 203:./Libraries/STM32F4xx_HAL_Driver/Src/stm32f4xx_hal_nand.c **** 
 204:./Libraries/STM32F4xx_HAL_Driver/Src/stm32f4xx_hal_nand.c ****   /* Release Lock */
 205:./Libraries/STM32F4xx_HAL_Driver/Src/stm32f4xx_hal_nand.c ****   __HAL_UNLOCK(hnand);
 179              		.loc 1 205 3
 180 0026 7B68     		ldr	r3, [r7, #4]
 181 0028 0022     		movs	r2, #0
 182 002a 83F82020 		strb	r2, [r3, #32]
 206:./Libraries/STM32F4xx_HAL_Driver/Src/stm32f4xx_hal_nand.c **** 
 207:./Libraries/STM32F4xx_HAL_Driver/Src/stm32f4xx_hal_nand.c ****   return HAL_OK;
 183              		.loc 1 207 10
 184 002e 0023     		movs	r3, #0
 208:./Libraries/STM32F4xx_HAL_Driver/Src/stm32f4xx_hal_nand.c **** }
 185              		.loc 1 208 1
 186 0030 1846     		mov	r0, r3
 187 0032 0837     		adds	r7, r7, #8
 188              	.LCFI8:
 189              		.cfi_def_cfa_offset 8
 190 0034 BD46     		mov	sp, r7
 191              	.LCFI9:
 192              		.cfi_def_cfa_register 13
 193              		@ sp needed
 194 0036 80BD     		pop	{r7, pc}
ARM GAS  /tmp/ccmBJYMF.s 			page 8


 195              		.cfi_endproc
 196              	.LFE127:
 198              		.section	.text.HAL_NAND_MspInit,"ax",%progbits
 199              		.align	1
 200              		.weak	HAL_NAND_MspInit
 201              		.syntax unified
 202              		.thumb
 203              		.thumb_func
 204              		.fpu fpv4-sp-d16
 206              	HAL_NAND_MspInit:
 207              	.LFB128:
 209:./Libraries/STM32F4xx_HAL_Driver/Src/stm32f4xx_hal_nand.c **** 
 210:./Libraries/STM32F4xx_HAL_Driver/Src/stm32f4xx_hal_nand.c **** /**
 211:./Libraries/STM32F4xx_HAL_Driver/Src/stm32f4xx_hal_nand.c ****   * @brief  NAND MSP Init
 212:./Libraries/STM32F4xx_HAL_Driver/Src/stm32f4xx_hal_nand.c ****   * @param  hnand pointer to a NAND_HandleTypeDef structure that contains
 213:./Libraries/STM32F4xx_HAL_Driver/Src/stm32f4xx_hal_nand.c ****   *                the configuration information for NAND module.
 214:./Libraries/STM32F4xx_HAL_Driver/Src/stm32f4xx_hal_nand.c ****   * @retval None
 215:./Libraries/STM32F4xx_HAL_Driver/Src/stm32f4xx_hal_nand.c ****   */
 216:./Libraries/STM32F4xx_HAL_Driver/Src/stm32f4xx_hal_nand.c **** __weak void HAL_NAND_MspInit(NAND_HandleTypeDef *hnand)
 217:./Libraries/STM32F4xx_HAL_Driver/Src/stm32f4xx_hal_nand.c **** {
 208              		.loc 1 217 1
 209              		.cfi_startproc
 210              		@ args = 0, pretend = 0, frame = 8
 211              		@ frame_needed = 1, uses_anonymous_args = 0
 212              		@ link register save eliminated.
 213 0000 80B4     		push	{r7}
 214              	.LCFI10:
 215              		.cfi_def_cfa_offset 4
 216              		.cfi_offset 7, -4
 217 0002 83B0     		sub	sp, sp, #12
 218              	.LCFI11:
 219              		.cfi_def_cfa_offset 16
 220 0004 00AF     		add	r7, sp, #0
 221              	.LCFI12:
 222              		.cfi_def_cfa_register 7
 223 0006 7860     		str	r0, [r7, #4]
 218:./Libraries/STM32F4xx_HAL_Driver/Src/stm32f4xx_hal_nand.c ****   /* Prevent unused argument(s) compilation warning */
 219:./Libraries/STM32F4xx_HAL_Driver/Src/stm32f4xx_hal_nand.c ****   UNUSED(hnand);
 220:./Libraries/STM32F4xx_HAL_Driver/Src/stm32f4xx_hal_nand.c ****   /* NOTE : This function Should not be modified, when the callback is needed,
 221:./Libraries/STM32F4xx_HAL_Driver/Src/stm32f4xx_hal_nand.c ****             the HAL_NAND_MspInit could be implemented in the user file
 222:./Libraries/STM32F4xx_HAL_Driver/Src/stm32f4xx_hal_nand.c ****    */ 
 223:./Libraries/STM32F4xx_HAL_Driver/Src/stm32f4xx_hal_nand.c **** }
 224              		.loc 1 223 1
 225 0008 00BF     		nop
 226 000a 0C37     		adds	r7, r7, #12
 227              	.LCFI13:
 228              		.cfi_def_cfa_offset 4
 229 000c BD46     		mov	sp, r7
 230              	.LCFI14:
 231              		.cfi_def_cfa_register 13
 232              		@ sp needed
 233 000e 5DF8047B 		ldr	r7, [sp], #4
 234              	.LCFI15:
 235              		.cfi_restore 7
 236              		.cfi_def_cfa_offset 0
 237 0012 7047     		bx	lr
 238              		.cfi_endproc
ARM GAS  /tmp/ccmBJYMF.s 			page 9


 239              	.LFE128:
 241              		.section	.text.HAL_NAND_MspDeInit,"ax",%progbits
 242              		.align	1
 243              		.weak	HAL_NAND_MspDeInit
 244              		.syntax unified
 245              		.thumb
 246              		.thumb_func
 247              		.fpu fpv4-sp-d16
 249              	HAL_NAND_MspDeInit:
 250              	.LFB129:
 224:./Libraries/STM32F4xx_HAL_Driver/Src/stm32f4xx_hal_nand.c **** 
 225:./Libraries/STM32F4xx_HAL_Driver/Src/stm32f4xx_hal_nand.c **** /**
 226:./Libraries/STM32F4xx_HAL_Driver/Src/stm32f4xx_hal_nand.c ****   * @brief  NAND MSP DeInit
 227:./Libraries/STM32F4xx_HAL_Driver/Src/stm32f4xx_hal_nand.c ****   * @param  hnand pointer to a NAND_HandleTypeDef structure that contains
 228:./Libraries/STM32F4xx_HAL_Driver/Src/stm32f4xx_hal_nand.c ****   *                the configuration information for NAND module.
 229:./Libraries/STM32F4xx_HAL_Driver/Src/stm32f4xx_hal_nand.c ****   * @retval None
 230:./Libraries/STM32F4xx_HAL_Driver/Src/stm32f4xx_hal_nand.c ****   */
 231:./Libraries/STM32F4xx_HAL_Driver/Src/stm32f4xx_hal_nand.c **** __weak void HAL_NAND_MspDeInit(NAND_HandleTypeDef *hnand)
 232:./Libraries/STM32F4xx_HAL_Driver/Src/stm32f4xx_hal_nand.c **** {
 251              		.loc 1 232 1
 252              		.cfi_startproc
 253              		@ args = 0, pretend = 0, frame = 8
 254              		@ frame_needed = 1, uses_anonymous_args = 0
 255              		@ link register save eliminated.
 256 0000 80B4     		push	{r7}
 257              	.LCFI16:
 258              		.cfi_def_cfa_offset 4
 259              		.cfi_offset 7, -4
 260 0002 83B0     		sub	sp, sp, #12
 261              	.LCFI17:
 262              		.cfi_def_cfa_offset 16
 263 0004 00AF     		add	r7, sp, #0
 264              	.LCFI18:
 265              		.cfi_def_cfa_register 7
 266 0006 7860     		str	r0, [r7, #4]
 233:./Libraries/STM32F4xx_HAL_Driver/Src/stm32f4xx_hal_nand.c ****   /* Prevent unused argument(s) compilation warning */
 234:./Libraries/STM32F4xx_HAL_Driver/Src/stm32f4xx_hal_nand.c ****   UNUSED(hnand);
 235:./Libraries/STM32F4xx_HAL_Driver/Src/stm32f4xx_hal_nand.c ****   /* NOTE : This function Should not be modified, when the callback is needed,
 236:./Libraries/STM32F4xx_HAL_Driver/Src/stm32f4xx_hal_nand.c ****             the HAL_NAND_MspDeInit could be implemented in the user file
 237:./Libraries/STM32F4xx_HAL_Driver/Src/stm32f4xx_hal_nand.c ****    */ 
 238:./Libraries/STM32F4xx_HAL_Driver/Src/stm32f4xx_hal_nand.c **** }
 267              		.loc 1 238 1
 268 0008 00BF     		nop
 269 000a 0C37     		adds	r7, r7, #12
 270              	.LCFI19:
 271              		.cfi_def_cfa_offset 4
 272 000c BD46     		mov	sp, r7
 273              	.LCFI20:
 274              		.cfi_def_cfa_register 13
 275              		@ sp needed
 276 000e 5DF8047B 		ldr	r7, [sp], #4
 277              	.LCFI21:
 278              		.cfi_restore 7
 279              		.cfi_def_cfa_offset 0
 280 0012 7047     		bx	lr
 281              		.cfi_endproc
 282              	.LFE129:
ARM GAS  /tmp/ccmBJYMF.s 			page 10


 284              		.section	.text.HAL_NAND_IRQHandler,"ax",%progbits
 285              		.align	1
 286              		.global	HAL_NAND_IRQHandler
 287              		.syntax unified
 288              		.thumb
 289              		.thumb_func
 290              		.fpu fpv4-sp-d16
 292              	HAL_NAND_IRQHandler:
 293              	.LFB130:
 239:./Libraries/STM32F4xx_HAL_Driver/Src/stm32f4xx_hal_nand.c **** 
 240:./Libraries/STM32F4xx_HAL_Driver/Src/stm32f4xx_hal_nand.c **** 
 241:./Libraries/STM32F4xx_HAL_Driver/Src/stm32f4xx_hal_nand.c **** /**
 242:./Libraries/STM32F4xx_HAL_Driver/Src/stm32f4xx_hal_nand.c ****   * @brief  This function handles NAND device interrupt request.
 243:./Libraries/STM32F4xx_HAL_Driver/Src/stm32f4xx_hal_nand.c ****   * @param  hnand pointer to a NAND_HandleTypeDef structure that contains
 244:./Libraries/STM32F4xx_HAL_Driver/Src/stm32f4xx_hal_nand.c ****   *                the configuration information for NAND module.
 245:./Libraries/STM32F4xx_HAL_Driver/Src/stm32f4xx_hal_nand.c ****   * @retval HAL status
 246:./Libraries/STM32F4xx_HAL_Driver/Src/stm32f4xx_hal_nand.c **** */
 247:./Libraries/STM32F4xx_HAL_Driver/Src/stm32f4xx_hal_nand.c **** void HAL_NAND_IRQHandler(NAND_HandleTypeDef *hnand)
 248:./Libraries/STM32F4xx_HAL_Driver/Src/stm32f4xx_hal_nand.c **** {
 294              		.loc 1 248 1
 295              		.cfi_startproc
 296              		@ args = 0, pretend = 0, frame = 8
 297              		@ frame_needed = 1, uses_anonymous_args = 0
 298 0000 80B5     		push	{r7, lr}
 299              	.LCFI22:
 300              		.cfi_def_cfa_offset 8
 301              		.cfi_offset 7, -8
 302              		.cfi_offset 14, -4
 303 0002 82B0     		sub	sp, sp, #8
 304              	.LCFI23:
 305              		.cfi_def_cfa_offset 16
 306 0004 00AF     		add	r7, sp, #0
 307              	.LCFI24:
 308              		.cfi_def_cfa_register 7
 309 0006 7860     		str	r0, [r7, #4]
 249:./Libraries/STM32F4xx_HAL_Driver/Src/stm32f4xx_hal_nand.c ****   /* Check NAND interrupt Rising edge flag */
 250:./Libraries/STM32F4xx_HAL_Driver/Src/stm32f4xx_hal_nand.c ****   if(__FMC_NAND_GET_FLAG(hnand->Instance, hnand->Init.NandBank, FMC_FLAG_RISING_EDGE))
 310              		.loc 1 250 6
 311 0008 7B68     		ldr	r3, [r7, #4]
 312 000a 5B68     		ldr	r3, [r3, #4]
 313 000c 102B     		cmp	r3, #16
 314 000e 0AD1     		bne	.L12
 315              		.loc 1 250 6 is_stmt 0 discriminator 1
 316 0010 7B68     		ldr	r3, [r7, #4]
 317 0012 1B68     		ldr	r3, [r3]
 318 0014 5B68     		ldr	r3, [r3, #4]
 319 0016 03F00103 		and	r3, r3, #1
 320 001a 012B     		cmp	r3, #1
 321 001c 0CBF     		ite	eq
 322 001e 0123     		moveq	r3, #1
 323 0020 0023     		movne	r3, #0
 324 0022 DBB2     		uxtb	r3, r3
 325 0024 09E0     		b	.L13
 326              	.L12:
 327              		.loc 1 250 6 discriminator 2
 328 0026 7B68     		ldr	r3, [r7, #4]
 329 0028 1B68     		ldr	r3, [r3]
ARM GAS  /tmp/ccmBJYMF.s 			page 11


 330 002a 5B6A     		ldr	r3, [r3, #36]
 331 002c 03F00103 		and	r3, r3, #1
 332 0030 012B     		cmp	r3, #1
 333 0032 0CBF     		ite	eq
 334 0034 0123     		moveq	r3, #1
 335 0036 0023     		movne	r3, #0
 336 0038 DBB2     		uxtb	r3, r3
 337              	.L13:
 338              		.loc 1 250 5 is_stmt 1 discriminator 4
 339 003a 002B     		cmp	r3, #0
 340 003c 17D0     		beq	.L14
 251:./Libraries/STM32F4xx_HAL_Driver/Src/stm32f4xx_hal_nand.c ****   {
 252:./Libraries/STM32F4xx_HAL_Driver/Src/stm32f4xx_hal_nand.c ****     /* NAND interrupt callback*/
 253:./Libraries/STM32F4xx_HAL_Driver/Src/stm32f4xx_hal_nand.c ****     HAL_NAND_ITCallback(hnand);
 341              		.loc 1 253 5
 342 003e 7868     		ldr	r0, [r7, #4]
 343 0040 FFF7FEFF 		bl	HAL_NAND_ITCallback
 254:./Libraries/STM32F4xx_HAL_Driver/Src/stm32f4xx_hal_nand.c ****   
 255:./Libraries/STM32F4xx_HAL_Driver/Src/stm32f4xx_hal_nand.c ****     /* Clear NAND interrupt Rising edge pending bit */
 256:./Libraries/STM32F4xx_HAL_Driver/Src/stm32f4xx_hal_nand.c ****     __FMC_NAND_CLEAR_FLAG(hnand->Instance, hnand->Init.NandBank, FMC_FLAG_RISING_EDGE);
 344              		.loc 1 256 5
 345 0044 7B68     		ldr	r3, [r7, #4]
 346 0046 5B68     		ldr	r3, [r3, #4]
 347 0048 102B     		cmp	r3, #16
 348 004a 08D1     		bne	.L15
 349              		.loc 1 256 5 is_stmt 0 discriminator 1
 350 004c 7B68     		ldr	r3, [r7, #4]
 351 004e 1B68     		ldr	r3, [r3]
 352 0050 5A68     		ldr	r2, [r3, #4]
 353 0052 7B68     		ldr	r3, [r7, #4]
 354 0054 1B68     		ldr	r3, [r3]
 355 0056 22F00102 		bic	r2, r2, #1
 356 005a 5A60     		str	r2, [r3, #4]
 357 005c 07E0     		b	.L14
 358              	.L15:
 359              		.loc 1 256 5 discriminator 2
 360 005e 7B68     		ldr	r3, [r7, #4]
 361 0060 1B68     		ldr	r3, [r3]
 362 0062 5A6A     		ldr	r2, [r3, #36]
 363 0064 7B68     		ldr	r3, [r7, #4]
 364 0066 1B68     		ldr	r3, [r3]
 365 0068 22F00102 		bic	r2, r2, #1
 366 006c 5A62     		str	r2, [r3, #36]
 367              	.L14:
 257:./Libraries/STM32F4xx_HAL_Driver/Src/stm32f4xx_hal_nand.c ****   }
 258:./Libraries/STM32F4xx_HAL_Driver/Src/stm32f4xx_hal_nand.c ****   
 259:./Libraries/STM32F4xx_HAL_Driver/Src/stm32f4xx_hal_nand.c ****   /* Check NAND interrupt Level flag */
 260:./Libraries/STM32F4xx_HAL_Driver/Src/stm32f4xx_hal_nand.c ****   if(__FMC_NAND_GET_FLAG(hnand->Instance, hnand->Init.NandBank, FMC_FLAG_LEVEL))
 368              		.loc 1 260 6 is_stmt 1
 369 006e 7B68     		ldr	r3, [r7, #4]
 370 0070 5B68     		ldr	r3, [r3, #4]
 371 0072 102B     		cmp	r3, #16
 372 0074 0AD1     		bne	.L16
 373              		.loc 1 260 6 is_stmt 0 discriminator 1
 374 0076 7B68     		ldr	r3, [r7, #4]
 375 0078 1B68     		ldr	r3, [r3]
 376 007a 5B68     		ldr	r3, [r3, #4]
ARM GAS  /tmp/ccmBJYMF.s 			page 12


 377 007c 03F00203 		and	r3, r3, #2
 378 0080 022B     		cmp	r3, #2
 379 0082 0CBF     		ite	eq
 380 0084 0123     		moveq	r3, #1
 381 0086 0023     		movne	r3, #0
 382 0088 DBB2     		uxtb	r3, r3
 383 008a 09E0     		b	.L17
 384              	.L16:
 385              		.loc 1 260 6 discriminator 2
 386 008c 7B68     		ldr	r3, [r7, #4]
 387 008e 1B68     		ldr	r3, [r3]
 388 0090 5B6A     		ldr	r3, [r3, #36]
 389 0092 03F00203 		and	r3, r3, #2
 390 0096 022B     		cmp	r3, #2
 391 0098 0CBF     		ite	eq
 392 009a 0123     		moveq	r3, #1
 393 009c 0023     		movne	r3, #0
 394 009e DBB2     		uxtb	r3, r3
 395              	.L17:
 396              		.loc 1 260 5 is_stmt 1 discriminator 4
 397 00a0 002B     		cmp	r3, #0
 398 00a2 17D0     		beq	.L18
 261:./Libraries/STM32F4xx_HAL_Driver/Src/stm32f4xx_hal_nand.c ****   {
 262:./Libraries/STM32F4xx_HAL_Driver/Src/stm32f4xx_hal_nand.c ****     /* NAND interrupt callback*/
 263:./Libraries/STM32F4xx_HAL_Driver/Src/stm32f4xx_hal_nand.c ****     HAL_NAND_ITCallback(hnand);
 399              		.loc 1 263 5
 400 00a4 7868     		ldr	r0, [r7, #4]
 401 00a6 FFF7FEFF 		bl	HAL_NAND_ITCallback
 264:./Libraries/STM32F4xx_HAL_Driver/Src/stm32f4xx_hal_nand.c ****   
 265:./Libraries/STM32F4xx_HAL_Driver/Src/stm32f4xx_hal_nand.c ****     /* Clear NAND interrupt Level pending bit */
 266:./Libraries/STM32F4xx_HAL_Driver/Src/stm32f4xx_hal_nand.c ****     __FMC_NAND_CLEAR_FLAG(hnand->Instance, hnand->Init.NandBank, FMC_FLAG_LEVEL);
 402              		.loc 1 266 5
 403 00aa 7B68     		ldr	r3, [r7, #4]
 404 00ac 5B68     		ldr	r3, [r3, #4]
 405 00ae 102B     		cmp	r3, #16
 406 00b0 08D1     		bne	.L19
 407              		.loc 1 266 5 is_stmt 0 discriminator 1
 408 00b2 7B68     		ldr	r3, [r7, #4]
 409 00b4 1B68     		ldr	r3, [r3]
 410 00b6 5A68     		ldr	r2, [r3, #4]
 411 00b8 7B68     		ldr	r3, [r7, #4]
 412 00ba 1B68     		ldr	r3, [r3]
 413 00bc 22F00202 		bic	r2, r2, #2
 414 00c0 5A60     		str	r2, [r3, #4]
 415 00c2 07E0     		b	.L18
 416              	.L19:
 417              		.loc 1 266 5 discriminator 2
 418 00c4 7B68     		ldr	r3, [r7, #4]
 419 00c6 1B68     		ldr	r3, [r3]
 420 00c8 5A6A     		ldr	r2, [r3, #36]
 421 00ca 7B68     		ldr	r3, [r7, #4]
 422 00cc 1B68     		ldr	r3, [r3]
 423 00ce 22F00202 		bic	r2, r2, #2
 424 00d2 5A62     		str	r2, [r3, #36]
 425              	.L18:
 267:./Libraries/STM32F4xx_HAL_Driver/Src/stm32f4xx_hal_nand.c ****   }
 268:./Libraries/STM32F4xx_HAL_Driver/Src/stm32f4xx_hal_nand.c **** 
ARM GAS  /tmp/ccmBJYMF.s 			page 13


 269:./Libraries/STM32F4xx_HAL_Driver/Src/stm32f4xx_hal_nand.c ****   /* Check NAND interrupt Falling edge flag */
 270:./Libraries/STM32F4xx_HAL_Driver/Src/stm32f4xx_hal_nand.c ****   if(__FMC_NAND_GET_FLAG(hnand->Instance, hnand->Init.NandBank, FMC_FLAG_FALLING_EDGE))
 426              		.loc 1 270 6 is_stmt 1
 427 00d4 7B68     		ldr	r3, [r7, #4]
 428 00d6 5B68     		ldr	r3, [r3, #4]
 429 00d8 102B     		cmp	r3, #16
 430 00da 0AD1     		bne	.L20
 431              		.loc 1 270 6 is_stmt 0 discriminator 1
 432 00dc 7B68     		ldr	r3, [r7, #4]
 433 00de 1B68     		ldr	r3, [r3]
 434 00e0 5B68     		ldr	r3, [r3, #4]
 435 00e2 03F00403 		and	r3, r3, #4
 436 00e6 042B     		cmp	r3, #4
 437 00e8 0CBF     		ite	eq
 438 00ea 0123     		moveq	r3, #1
 439 00ec 0023     		movne	r3, #0
 440 00ee DBB2     		uxtb	r3, r3
 441 00f0 09E0     		b	.L21
 442              	.L20:
 443              		.loc 1 270 6 discriminator 2
 444 00f2 7B68     		ldr	r3, [r7, #4]
 445 00f4 1B68     		ldr	r3, [r3]
 446 00f6 5B6A     		ldr	r3, [r3, #36]
 447 00f8 03F00403 		and	r3, r3, #4
 448 00fc 042B     		cmp	r3, #4
 449 00fe 0CBF     		ite	eq
 450 0100 0123     		moveq	r3, #1
 451 0102 0023     		movne	r3, #0
 452 0104 DBB2     		uxtb	r3, r3
 453              	.L21:
 454              		.loc 1 270 5 is_stmt 1 discriminator 4
 455 0106 002B     		cmp	r3, #0
 456 0108 17D0     		beq	.L22
 271:./Libraries/STM32F4xx_HAL_Driver/Src/stm32f4xx_hal_nand.c ****   {
 272:./Libraries/STM32F4xx_HAL_Driver/Src/stm32f4xx_hal_nand.c ****     /* NAND interrupt callback*/
 273:./Libraries/STM32F4xx_HAL_Driver/Src/stm32f4xx_hal_nand.c ****     HAL_NAND_ITCallback(hnand);
 457              		.loc 1 273 5
 458 010a 7868     		ldr	r0, [r7, #4]
 459 010c FFF7FEFF 		bl	HAL_NAND_ITCallback
 274:./Libraries/STM32F4xx_HAL_Driver/Src/stm32f4xx_hal_nand.c ****   
 275:./Libraries/STM32F4xx_HAL_Driver/Src/stm32f4xx_hal_nand.c ****     /* Clear NAND interrupt Falling edge pending bit */
 276:./Libraries/STM32F4xx_HAL_Driver/Src/stm32f4xx_hal_nand.c ****     __FMC_NAND_CLEAR_FLAG(hnand->Instance, hnand->Init.NandBank, FMC_FLAG_FALLING_EDGE);
 460              		.loc 1 276 5
 461 0110 7B68     		ldr	r3, [r7, #4]
 462 0112 5B68     		ldr	r3, [r3, #4]
 463 0114 102B     		cmp	r3, #16
 464 0116 08D1     		bne	.L23
 465              		.loc 1 276 5 is_stmt 0 discriminator 1
 466 0118 7B68     		ldr	r3, [r7, #4]
 467 011a 1B68     		ldr	r3, [r3]
 468 011c 5A68     		ldr	r2, [r3, #4]
 469 011e 7B68     		ldr	r3, [r7, #4]
 470 0120 1B68     		ldr	r3, [r3]
 471 0122 22F00402 		bic	r2, r2, #4
 472 0126 5A60     		str	r2, [r3, #4]
 473 0128 07E0     		b	.L22
 474              	.L23:
ARM GAS  /tmp/ccmBJYMF.s 			page 14


 475              		.loc 1 276 5 discriminator 2
 476 012a 7B68     		ldr	r3, [r7, #4]
 477 012c 1B68     		ldr	r3, [r3]
 478 012e 5A6A     		ldr	r2, [r3, #36]
 479 0130 7B68     		ldr	r3, [r7, #4]
 480 0132 1B68     		ldr	r3, [r3]
 481 0134 22F00402 		bic	r2, r2, #4
 482 0138 5A62     		str	r2, [r3, #36]
 483              	.L22:
 277:./Libraries/STM32F4xx_HAL_Driver/Src/stm32f4xx_hal_nand.c ****   }
 278:./Libraries/STM32F4xx_HAL_Driver/Src/stm32f4xx_hal_nand.c ****   
 279:./Libraries/STM32F4xx_HAL_Driver/Src/stm32f4xx_hal_nand.c ****   /* Check NAND interrupt FIFO empty flag */
 280:./Libraries/STM32F4xx_HAL_Driver/Src/stm32f4xx_hal_nand.c ****   if(__FMC_NAND_GET_FLAG(hnand->Instance, hnand->Init.NandBank, FMC_FLAG_FEMPT))
 484              		.loc 1 280 6 is_stmt 1
 485 013a 7B68     		ldr	r3, [r7, #4]
 486 013c 5B68     		ldr	r3, [r3, #4]
 487 013e 102B     		cmp	r3, #16
 488 0140 0AD1     		bne	.L24
 489              		.loc 1 280 6 is_stmt 0 discriminator 1
 490 0142 7B68     		ldr	r3, [r7, #4]
 491 0144 1B68     		ldr	r3, [r3]
 492 0146 5B68     		ldr	r3, [r3, #4]
 493 0148 03F04003 		and	r3, r3, #64
 494 014c 402B     		cmp	r3, #64
 495 014e 0CBF     		ite	eq
 496 0150 0123     		moveq	r3, #1
 497 0152 0023     		movne	r3, #0
 498 0154 DBB2     		uxtb	r3, r3
 499 0156 09E0     		b	.L25
 500              	.L24:
 501              		.loc 1 280 6 discriminator 2
 502 0158 7B68     		ldr	r3, [r7, #4]
 503 015a 1B68     		ldr	r3, [r3]
 504 015c 5B6A     		ldr	r3, [r3, #36]
 505 015e 03F04003 		and	r3, r3, #64
 506 0162 402B     		cmp	r3, #64
 507 0164 0CBF     		ite	eq
 508 0166 0123     		moveq	r3, #1
 509 0168 0023     		movne	r3, #0
 510 016a DBB2     		uxtb	r3, r3
 511              	.L25:
 512              		.loc 1 280 5 is_stmt 1 discriminator 4
 513 016c 002B     		cmp	r3, #0
 514 016e 17D0     		beq	.L28
 281:./Libraries/STM32F4xx_HAL_Driver/Src/stm32f4xx_hal_nand.c ****   {
 282:./Libraries/STM32F4xx_HAL_Driver/Src/stm32f4xx_hal_nand.c ****     /* NAND interrupt callback*/
 283:./Libraries/STM32F4xx_HAL_Driver/Src/stm32f4xx_hal_nand.c ****     HAL_NAND_ITCallback(hnand);
 515              		.loc 1 283 5
 516 0170 7868     		ldr	r0, [r7, #4]
 517 0172 FFF7FEFF 		bl	HAL_NAND_ITCallback
 284:./Libraries/STM32F4xx_HAL_Driver/Src/stm32f4xx_hal_nand.c ****   
 285:./Libraries/STM32F4xx_HAL_Driver/Src/stm32f4xx_hal_nand.c ****     /* Clear NAND interrupt FIFO empty pending bit */
 286:./Libraries/STM32F4xx_HAL_Driver/Src/stm32f4xx_hal_nand.c ****     __FMC_NAND_CLEAR_FLAG(hnand->Instance, hnand->Init.NandBank, FMC_FLAG_FEMPT);
 518              		.loc 1 286 5
 519 0176 7B68     		ldr	r3, [r7, #4]
 520 0178 5B68     		ldr	r3, [r3, #4]
 521 017a 102B     		cmp	r3, #16
ARM GAS  /tmp/ccmBJYMF.s 			page 15


 522 017c 08D1     		bne	.L27
 523              		.loc 1 286 5 is_stmt 0 discriminator 1
 524 017e 7B68     		ldr	r3, [r7, #4]
 525 0180 1B68     		ldr	r3, [r3]
 526 0182 5A68     		ldr	r2, [r3, #4]
 527 0184 7B68     		ldr	r3, [r7, #4]
 528 0186 1B68     		ldr	r3, [r3]
 529 0188 22F04002 		bic	r2, r2, #64
 530 018c 5A60     		str	r2, [r3, #4]
 287:./Libraries/STM32F4xx_HAL_Driver/Src/stm32f4xx_hal_nand.c ****   }
 288:./Libraries/STM32F4xx_HAL_Driver/Src/stm32f4xx_hal_nand.c **** }
 531              		.loc 1 288 1 is_stmt 1 discriminator 1
 532 018e 07E0     		b	.L28
 533              	.L27:
 286:./Libraries/STM32F4xx_HAL_Driver/Src/stm32f4xx_hal_nand.c ****   }
 534              		.loc 1 286 5 discriminator 2
 535 0190 7B68     		ldr	r3, [r7, #4]
 536 0192 1B68     		ldr	r3, [r3]
 537 0194 5A6A     		ldr	r2, [r3, #36]
 538 0196 7B68     		ldr	r3, [r7, #4]
 539 0198 1B68     		ldr	r3, [r3]
 540 019a 22F04002 		bic	r2, r2, #64
 541 019e 5A62     		str	r2, [r3, #36]
 542              	.L28:
 543              		.loc 1 288 1
 544 01a0 00BF     		nop
 545 01a2 0837     		adds	r7, r7, #8
 546              	.LCFI25:
 547              		.cfi_def_cfa_offset 8
 548 01a4 BD46     		mov	sp, r7
 549              	.LCFI26:
 550              		.cfi_def_cfa_register 13
 551              		@ sp needed
 552 01a6 80BD     		pop	{r7, pc}
 553              		.cfi_endproc
 554              	.LFE130:
 556              		.section	.text.HAL_NAND_ITCallback,"ax",%progbits
 557              		.align	1
 558              		.weak	HAL_NAND_ITCallback
 559              		.syntax unified
 560              		.thumb
 561              		.thumb_func
 562              		.fpu fpv4-sp-d16
 564              	HAL_NAND_ITCallback:
 565              	.LFB131:
 289:./Libraries/STM32F4xx_HAL_Driver/Src/stm32f4xx_hal_nand.c **** 
 290:./Libraries/STM32F4xx_HAL_Driver/Src/stm32f4xx_hal_nand.c **** /**
 291:./Libraries/STM32F4xx_HAL_Driver/Src/stm32f4xx_hal_nand.c ****   * @brief  NAND interrupt feature callback
 292:./Libraries/STM32F4xx_HAL_Driver/Src/stm32f4xx_hal_nand.c ****   * @param  hnand pointer to a NAND_HandleTypeDef structure that contains
 293:./Libraries/STM32F4xx_HAL_Driver/Src/stm32f4xx_hal_nand.c ****   *                the configuration information for NAND module.
 294:./Libraries/STM32F4xx_HAL_Driver/Src/stm32f4xx_hal_nand.c ****   * @retval None
 295:./Libraries/STM32F4xx_HAL_Driver/Src/stm32f4xx_hal_nand.c ****   */
 296:./Libraries/STM32F4xx_HAL_Driver/Src/stm32f4xx_hal_nand.c **** __weak void HAL_NAND_ITCallback(NAND_HandleTypeDef *hnand)
 297:./Libraries/STM32F4xx_HAL_Driver/Src/stm32f4xx_hal_nand.c **** {
 566              		.loc 1 297 1
 567              		.cfi_startproc
 568              		@ args = 0, pretend = 0, frame = 8
ARM GAS  /tmp/ccmBJYMF.s 			page 16


 569              		@ frame_needed = 1, uses_anonymous_args = 0
 570              		@ link register save eliminated.
 571 0000 80B4     		push	{r7}
 572              	.LCFI27:
 573              		.cfi_def_cfa_offset 4
 574              		.cfi_offset 7, -4
 575 0002 83B0     		sub	sp, sp, #12
 576              	.LCFI28:
 577              		.cfi_def_cfa_offset 16
 578 0004 00AF     		add	r7, sp, #0
 579              	.LCFI29:
 580              		.cfi_def_cfa_register 7
 581 0006 7860     		str	r0, [r7, #4]
 298:./Libraries/STM32F4xx_HAL_Driver/Src/stm32f4xx_hal_nand.c ****   /* Prevent unused argument(s) compilation warning */
 299:./Libraries/STM32F4xx_HAL_Driver/Src/stm32f4xx_hal_nand.c ****   UNUSED(hnand);
 300:./Libraries/STM32F4xx_HAL_Driver/Src/stm32f4xx_hal_nand.c ****   /* NOTE : This function Should not be modified, when the callback is needed,
 301:./Libraries/STM32F4xx_HAL_Driver/Src/stm32f4xx_hal_nand.c ****             the HAL_NAND_ITCallback could be implemented in the user file
 302:./Libraries/STM32F4xx_HAL_Driver/Src/stm32f4xx_hal_nand.c ****    */
 303:./Libraries/STM32F4xx_HAL_Driver/Src/stm32f4xx_hal_nand.c **** }
 582              		.loc 1 303 1
 583 0008 00BF     		nop
 584 000a 0C37     		adds	r7, r7, #12
 585              	.LCFI30:
 586              		.cfi_def_cfa_offset 4
 587 000c BD46     		mov	sp, r7
 588              	.LCFI31:
 589              		.cfi_def_cfa_register 13
 590              		@ sp needed
 591 000e 5DF8047B 		ldr	r7, [sp], #4
 592              	.LCFI32:
 593              		.cfi_restore 7
 594              		.cfi_def_cfa_offset 0
 595 0012 7047     		bx	lr
 596              		.cfi_endproc
 597              	.LFE131:
 599              		.section	.text.HAL_NAND_Read_ID,"ax",%progbits
 600              		.align	1
 601              		.global	HAL_NAND_Read_ID
 602              		.syntax unified
 603              		.thumb
 604              		.thumb_func
 605              		.fpu fpv4-sp-d16
 607              	HAL_NAND_Read_ID:
 608              	.LFB132:
 304:./Libraries/STM32F4xx_HAL_Driver/Src/stm32f4xx_hal_nand.c ****  
 305:./Libraries/STM32F4xx_HAL_Driver/Src/stm32f4xx_hal_nand.c **** /**
 306:./Libraries/STM32F4xx_HAL_Driver/Src/stm32f4xx_hal_nand.c ****   * @}
 307:./Libraries/STM32F4xx_HAL_Driver/Src/stm32f4xx_hal_nand.c ****   */
 308:./Libraries/STM32F4xx_HAL_Driver/Src/stm32f4xx_hal_nand.c ****   
 309:./Libraries/STM32F4xx_HAL_Driver/Src/stm32f4xx_hal_nand.c **** /** @defgroup NAND_Exported_Functions_Group2 Input and Output functions 
 310:./Libraries/STM32F4xx_HAL_Driver/Src/stm32f4xx_hal_nand.c ****   * @brief    Input Output and memory control functions 
 311:./Libraries/STM32F4xx_HAL_Driver/Src/stm32f4xx_hal_nand.c ****   *
 312:./Libraries/STM32F4xx_HAL_Driver/Src/stm32f4xx_hal_nand.c ****   @verbatim    
 313:./Libraries/STM32F4xx_HAL_Driver/Src/stm32f4xx_hal_nand.c ****   ==============================================================================
 314:./Libraries/STM32F4xx_HAL_Driver/Src/stm32f4xx_hal_nand.c ****                     ##### NAND Input and Output functions #####
 315:./Libraries/STM32F4xx_HAL_Driver/Src/stm32f4xx_hal_nand.c ****   ==============================================================================
 316:./Libraries/STM32F4xx_HAL_Driver/Src/stm32f4xx_hal_nand.c ****   [..]  
ARM GAS  /tmp/ccmBJYMF.s 			page 17


 317:./Libraries/STM32F4xx_HAL_Driver/Src/stm32f4xx_hal_nand.c ****     This section provides functions allowing to use and control the NAND 
 318:./Libraries/STM32F4xx_HAL_Driver/Src/stm32f4xx_hal_nand.c ****     memory
 319:./Libraries/STM32F4xx_HAL_Driver/Src/stm32f4xx_hal_nand.c ****   
 320:./Libraries/STM32F4xx_HAL_Driver/Src/stm32f4xx_hal_nand.c **** @endverbatim
 321:./Libraries/STM32F4xx_HAL_Driver/Src/stm32f4xx_hal_nand.c ****   * @{
 322:./Libraries/STM32F4xx_HAL_Driver/Src/stm32f4xx_hal_nand.c ****   */
 323:./Libraries/STM32F4xx_HAL_Driver/Src/stm32f4xx_hal_nand.c **** 
 324:./Libraries/STM32F4xx_HAL_Driver/Src/stm32f4xx_hal_nand.c **** /**
 325:./Libraries/STM32F4xx_HAL_Driver/Src/stm32f4xx_hal_nand.c ****   * @brief  Read the NAND memory electronic signature
 326:./Libraries/STM32F4xx_HAL_Driver/Src/stm32f4xx_hal_nand.c ****   * @param  hnand pointer to a NAND_HandleTypeDef structure that contains
 327:./Libraries/STM32F4xx_HAL_Driver/Src/stm32f4xx_hal_nand.c ****   *                the configuration information for NAND module.
 328:./Libraries/STM32F4xx_HAL_Driver/Src/stm32f4xx_hal_nand.c ****   * @param  pNAND_ID NAND ID structure
 329:./Libraries/STM32F4xx_HAL_Driver/Src/stm32f4xx_hal_nand.c ****   * @retval HAL status
 330:./Libraries/STM32F4xx_HAL_Driver/Src/stm32f4xx_hal_nand.c ****   */
 331:./Libraries/STM32F4xx_HAL_Driver/Src/stm32f4xx_hal_nand.c **** HAL_StatusTypeDef HAL_NAND_Read_ID(NAND_HandleTypeDef *hnand, NAND_IDTypeDef *pNAND_ID)
 332:./Libraries/STM32F4xx_HAL_Driver/Src/stm32f4xx_hal_nand.c **** {
 609              		.loc 1 332 1
 610              		.cfi_startproc
 611              		@ args = 0, pretend = 0, frame = 24
 612              		@ frame_needed = 1, uses_anonymous_args = 0
 613              		@ link register save eliminated.
 614 0000 80B4     		push	{r7}
 615              	.LCFI33:
 616              		.cfi_def_cfa_offset 4
 617              		.cfi_offset 7, -4
 618 0002 87B0     		sub	sp, sp, #28
 619              	.LCFI34:
 620              		.cfi_def_cfa_offset 32
 621 0004 00AF     		add	r7, sp, #0
 622              	.LCFI35:
 623              		.cfi_def_cfa_register 7
 624 0006 7860     		str	r0, [r7, #4]
 625 0008 3960     		str	r1, [r7]
 333:./Libraries/STM32F4xx_HAL_Driver/Src/stm32f4xx_hal_nand.c ****   __IO uint32_t data = 0U;
 626              		.loc 1 333 17
 627 000a 0023     		movs	r3, #0
 628 000c 3B61     		str	r3, [r7, #16]
 334:./Libraries/STM32F4xx_HAL_Driver/Src/stm32f4xx_hal_nand.c ****   __IO uint32_t data1 = 0U;
 629              		.loc 1 334 17
 630 000e 0023     		movs	r3, #0
 631 0010 FB60     		str	r3, [r7, #12]
 335:./Libraries/STM32F4xx_HAL_Driver/Src/stm32f4xx_hal_nand.c ****   uint32_t deviceaddress = 0U;
 632              		.loc 1 335 12
 633 0012 0023     		movs	r3, #0
 634 0014 7B61     		str	r3, [r7, #20]
 336:./Libraries/STM32F4xx_HAL_Driver/Src/stm32f4xx_hal_nand.c **** 
 337:./Libraries/STM32F4xx_HAL_Driver/Src/stm32f4xx_hal_nand.c ****   /* Process Locked */
 338:./Libraries/STM32F4xx_HAL_Driver/Src/stm32f4xx_hal_nand.c ****   __HAL_LOCK(hnand);  
 635              		.loc 1 338 3
 636 0016 7B68     		ldr	r3, [r7, #4]
 637 0018 93F82030 		ldrb	r3, [r3, #32]	@ zero_extendqisi2
 638 001c 012B     		cmp	r3, #1
 639 001e 01D1     		bne	.L31
 640              		.loc 1 338 3 is_stmt 0 discriminator 1
 641 0020 0223     		movs	r3, #2
 642 0022 61E0     		b	.L32
 643              	.L31:
ARM GAS  /tmp/ccmBJYMF.s 			page 18


 644              		.loc 1 338 3 discriminator 2
 645 0024 7B68     		ldr	r3, [r7, #4]
 646 0026 0122     		movs	r2, #1
 647 0028 83F82020 		strb	r2, [r3, #32]
 339:./Libraries/STM32F4xx_HAL_Driver/Src/stm32f4xx_hal_nand.c ****   
 340:./Libraries/STM32F4xx_HAL_Driver/Src/stm32f4xx_hal_nand.c ****   /* Check the NAND controller state */
 341:./Libraries/STM32F4xx_HAL_Driver/Src/stm32f4xx_hal_nand.c ****   if(hnand->State == HAL_NAND_STATE_BUSY)
 648              		.loc 1 341 11 is_stmt 1 discriminator 2
 649 002c 7B68     		ldr	r3, [r7, #4]
 650 002e 93F82130 		ldrb	r3, [r3, #33]
 651 0032 DBB2     		uxtb	r3, r3
 652              		.loc 1 341 5 discriminator 2
 653 0034 022B     		cmp	r3, #2
 654 0036 01D1     		bne	.L33
 342:./Libraries/STM32F4xx_HAL_Driver/Src/stm32f4xx_hal_nand.c ****   {
 343:./Libraries/STM32F4xx_HAL_Driver/Src/stm32f4xx_hal_nand.c ****      return HAL_BUSY;
 655              		.loc 1 343 13
 656 0038 0223     		movs	r3, #2
 657 003a 55E0     		b	.L32
 658              	.L33:
 344:./Libraries/STM32F4xx_HAL_Driver/Src/stm32f4xx_hal_nand.c ****   }
 345:./Libraries/STM32F4xx_HAL_Driver/Src/stm32f4xx_hal_nand.c ****   
 346:./Libraries/STM32F4xx_HAL_Driver/Src/stm32f4xx_hal_nand.c ****   /* Identify the device address */
 347:./Libraries/STM32F4xx_HAL_Driver/Src/stm32f4xx_hal_nand.c ****   if(hnand->Init.NandBank == FMC_NAND_BANK2)
 659              		.loc 1 347 17
 660 003c 7B68     		ldr	r3, [r7, #4]
 661 003e 5B68     		ldr	r3, [r3, #4]
 662              		.loc 1 347 5
 663 0040 102B     		cmp	r3, #16
 664 0042 03D1     		bne	.L34
 348:./Libraries/STM32F4xx_HAL_Driver/Src/stm32f4xx_hal_nand.c ****   {
 349:./Libraries/STM32F4xx_HAL_Driver/Src/stm32f4xx_hal_nand.c ****     deviceaddress = NAND_DEVICE1;
 665              		.loc 1 349 19
 666 0044 4FF0E043 		mov	r3, #1879048192
 667 0048 7B61     		str	r3, [r7, #20]
 668 004a 02E0     		b	.L35
 669              	.L34:
 350:./Libraries/STM32F4xx_HAL_Driver/Src/stm32f4xx_hal_nand.c ****   }
 351:./Libraries/STM32F4xx_HAL_Driver/Src/stm32f4xx_hal_nand.c ****   else
 352:./Libraries/STM32F4xx_HAL_Driver/Src/stm32f4xx_hal_nand.c ****   {
 353:./Libraries/STM32F4xx_HAL_Driver/Src/stm32f4xx_hal_nand.c ****     deviceaddress = NAND_DEVICE2;
 670              		.loc 1 353 19
 671 004c 4FF00043 		mov	r3, #-2147483648
 672 0050 7B61     		str	r3, [r7, #20]
 673              	.L35:
 354:./Libraries/STM32F4xx_HAL_Driver/Src/stm32f4xx_hal_nand.c ****   }
 355:./Libraries/STM32F4xx_HAL_Driver/Src/stm32f4xx_hal_nand.c ****   
 356:./Libraries/STM32F4xx_HAL_Driver/Src/stm32f4xx_hal_nand.c ****   /* Update the NAND controller state */ 
 357:./Libraries/STM32F4xx_HAL_Driver/Src/stm32f4xx_hal_nand.c ****   hnand->State = HAL_NAND_STATE_BUSY;
 674              		.loc 1 357 16
 675 0052 7B68     		ldr	r3, [r7, #4]
 676 0054 0222     		movs	r2, #2
 677 0056 83F82120 		strb	r2, [r3, #33]
 358:./Libraries/STM32F4xx_HAL_Driver/Src/stm32f4xx_hal_nand.c ****   
 359:./Libraries/STM32F4xx_HAL_Driver/Src/stm32f4xx_hal_nand.c ****   /* Send Read ID command sequence */   
 360:./Libraries/STM32F4xx_HAL_Driver/Src/stm32f4xx_hal_nand.c ****   *(__IO uint8_t *)((uint32_t)(deviceaddress | CMD_AREA))  = NAND_CMD_READID;
 678              		.loc 1 360 21
ARM GAS  /tmp/ccmBJYMF.s 			page 19


 679 005a 7B69     		ldr	r3, [r7, #20]
 680 005c 43F48033 		orr	r3, r3, #65536
 681              		.loc 1 360 60
 682 0060 9022     		movs	r2, #144
 683 0062 1A70     		strb	r2, [r3]
 361:./Libraries/STM32F4xx_HAL_Driver/Src/stm32f4xx_hal_nand.c ****   *(__IO uint8_t *)((uint32_t)(deviceaddress | ADDR_AREA)) = 0x00;
 684              		.loc 1 361 21
 685 0064 7B69     		ldr	r3, [r7, #20]
 686 0066 43F40033 		orr	r3, r3, #131072
 687              		.loc 1 361 60
 688 006a 0022     		movs	r2, #0
 689 006c 1A70     		strb	r2, [r3]
 362:./Libraries/STM32F4xx_HAL_Driver/Src/stm32f4xx_hal_nand.c **** 
 363:./Libraries/STM32F4xx_HAL_Driver/Src/stm32f4xx_hal_nand.c ****   /* Read the electronic signature from NAND flash */
 364:./Libraries/STM32F4xx_HAL_Driver/Src/stm32f4xx_hal_nand.c **** #ifdef FSMC_PCR2_PWID
 365:./Libraries/STM32F4xx_HAL_Driver/Src/stm32f4xx_hal_nand.c ****   if (hnand->Init.MemoryDataWidth == FSMC_NAND_PCC_MEM_BUS_WIDTH_8)
 366:./Libraries/STM32F4xx_HAL_Driver/Src/stm32f4xx_hal_nand.c **** #else /* FMC_PCR2_PWID is defined */
 367:./Libraries/STM32F4xx_HAL_Driver/Src/stm32f4xx_hal_nand.c ****   if (hnand->Init.MemoryDataWidth == FMC_NAND_PCC_MEM_BUS_WIDTH_8)
 690              		.loc 1 367 18
 691 006e 7B68     		ldr	r3, [r7, #4]
 692 0070 DB68     		ldr	r3, [r3, #12]
 693              		.loc 1 367 6
 694 0072 002B     		cmp	r3, #0
 695 0074 16D1     		bne	.L36
 368:./Libraries/STM32F4xx_HAL_Driver/Src/stm32f4xx_hal_nand.c **** #endif
 369:./Libraries/STM32F4xx_HAL_Driver/Src/stm32f4xx_hal_nand.c ****   {
 370:./Libraries/STM32F4xx_HAL_Driver/Src/stm32f4xx_hal_nand.c ****     data = *(__IO uint32_t *)deviceaddress;
 696              		.loc 1 370 13
 697 0076 7B69     		ldr	r3, [r7, #20]
 698              		.loc 1 370 12
 699 0078 1B68     		ldr	r3, [r3]
 700              		.loc 1 370 10
 701 007a 3B61     		str	r3, [r7, #16]
 371:./Libraries/STM32F4xx_HAL_Driver/Src/stm32f4xx_hal_nand.c **** 
 372:./Libraries/STM32F4xx_HAL_Driver/Src/stm32f4xx_hal_nand.c ****     /* Return the data read */
 373:./Libraries/STM32F4xx_HAL_Driver/Src/stm32f4xx_hal_nand.c ****     pNAND_ID->Maker_Id   = ADDR_1ST_CYCLE(data);
 702              		.loc 1 373 28
 703 007c 3B69     		ldr	r3, [r7, #16]
 704 007e DAB2     		uxtb	r2, r3
 705              		.loc 1 373 26
 706 0080 3B68     		ldr	r3, [r7]
 707 0082 1A70     		strb	r2, [r3]
 374:./Libraries/STM32F4xx_HAL_Driver/Src/stm32f4xx_hal_nand.c ****     pNAND_ID->Device_Id  = ADDR_2ND_CYCLE(data);
 708              		.loc 1 374 28
 709 0084 3B69     		ldr	r3, [r7, #16]
 710 0086 1B0A     		lsrs	r3, r3, #8
 711 0088 DAB2     		uxtb	r2, r3
 712              		.loc 1 374 26
 713 008a 3B68     		ldr	r3, [r7]
 714 008c 5A70     		strb	r2, [r3, #1]
 375:./Libraries/STM32F4xx_HAL_Driver/Src/stm32f4xx_hal_nand.c ****     pNAND_ID->Third_Id   = ADDR_3RD_CYCLE(data);
 715              		.loc 1 375 28
 716 008e 3B69     		ldr	r3, [r7, #16]
 717 0090 1B0C     		lsrs	r3, r3, #16
 718 0092 DAB2     		uxtb	r2, r3
 719              		.loc 1 375 26
 720 0094 3B68     		ldr	r3, [r7]
ARM GAS  /tmp/ccmBJYMF.s 			page 20


 721 0096 9A70     		strb	r2, [r3, #2]
 376:./Libraries/STM32F4xx_HAL_Driver/Src/stm32f4xx_hal_nand.c ****     pNAND_ID->Fourth_Id  = ADDR_4TH_CYCLE(data);
 722              		.loc 1 376 28
 723 0098 3B69     		ldr	r3, [r7, #16]
 724 009a 1B0E     		lsrs	r3, r3, #24
 725 009c DAB2     		uxtb	r2, r3
 726              		.loc 1 376 26
 727 009e 3B68     		ldr	r3, [r7]
 728 00a0 DA70     		strb	r2, [r3, #3]
 729 00a2 18E0     		b	.L37
 730              	.L36:
 377:./Libraries/STM32F4xx_HAL_Driver/Src/stm32f4xx_hal_nand.c ****   }
 378:./Libraries/STM32F4xx_HAL_Driver/Src/stm32f4xx_hal_nand.c ****   else
 379:./Libraries/STM32F4xx_HAL_Driver/Src/stm32f4xx_hal_nand.c ****   {
 380:./Libraries/STM32F4xx_HAL_Driver/Src/stm32f4xx_hal_nand.c ****     data = *(__IO uint32_t *)deviceaddress;
 731              		.loc 1 380 13
 732 00a4 7B69     		ldr	r3, [r7, #20]
 733              		.loc 1 380 12
 734 00a6 1B68     		ldr	r3, [r3]
 735              		.loc 1 380 10
 736 00a8 3B61     		str	r3, [r7, #16]
 381:./Libraries/STM32F4xx_HAL_Driver/Src/stm32f4xx_hal_nand.c ****     data1 = *((__IO uint32_t *)deviceaddress + 4U);
 737              		.loc 1 381 46
 738 00aa 7B69     		ldr	r3, [r7, #20]
 739 00ac 1033     		adds	r3, r3, #16
 740              		.loc 1 381 13
 741 00ae 1B68     		ldr	r3, [r3]
 742              		.loc 1 381 11
 743 00b0 FB60     		str	r3, [r7, #12]
 382:./Libraries/STM32F4xx_HAL_Driver/Src/stm32f4xx_hal_nand.c ****     
 383:./Libraries/STM32F4xx_HAL_Driver/Src/stm32f4xx_hal_nand.c ****     /* Return the data read */
 384:./Libraries/STM32F4xx_HAL_Driver/Src/stm32f4xx_hal_nand.c ****     pNAND_ID->Maker_Id   = ADDR_1ST_CYCLE(data);
 744              		.loc 1 384 28
 745 00b2 3B69     		ldr	r3, [r7, #16]
 746 00b4 DAB2     		uxtb	r2, r3
 747              		.loc 1 384 26
 748 00b6 3B68     		ldr	r3, [r7]
 749 00b8 1A70     		strb	r2, [r3]
 385:./Libraries/STM32F4xx_HAL_Driver/Src/stm32f4xx_hal_nand.c ****     pNAND_ID->Device_Id  = ADDR_3RD_CYCLE(data);
 750              		.loc 1 385 28
 751 00ba 3B69     		ldr	r3, [r7, #16]
 752 00bc 1B0C     		lsrs	r3, r3, #16
 753 00be DAB2     		uxtb	r2, r3
 754              		.loc 1 385 26
 755 00c0 3B68     		ldr	r3, [r7]
 756 00c2 5A70     		strb	r2, [r3, #1]
 386:./Libraries/STM32F4xx_HAL_Driver/Src/stm32f4xx_hal_nand.c ****     pNAND_ID->Third_Id   = ADDR_1ST_CYCLE(data1);
 757              		.loc 1 386 28
 758 00c4 FB68     		ldr	r3, [r7, #12]
 759 00c6 DAB2     		uxtb	r2, r3
 760              		.loc 1 386 26
 761 00c8 3B68     		ldr	r3, [r7]
 762 00ca 9A70     		strb	r2, [r3, #2]
 387:./Libraries/STM32F4xx_HAL_Driver/Src/stm32f4xx_hal_nand.c ****     pNAND_ID->Fourth_Id  = ADDR_3RD_CYCLE(data1);
 763              		.loc 1 387 28
 764 00cc FB68     		ldr	r3, [r7, #12]
 765 00ce 1B0C     		lsrs	r3, r3, #16
ARM GAS  /tmp/ccmBJYMF.s 			page 21


 766 00d0 DAB2     		uxtb	r2, r3
 767              		.loc 1 387 26
 768 00d2 3B68     		ldr	r3, [r7]
 769 00d4 DA70     		strb	r2, [r3, #3]
 770              	.L37:
 388:./Libraries/STM32F4xx_HAL_Driver/Src/stm32f4xx_hal_nand.c ****   }
 389:./Libraries/STM32F4xx_HAL_Driver/Src/stm32f4xx_hal_nand.c ****   
 390:./Libraries/STM32F4xx_HAL_Driver/Src/stm32f4xx_hal_nand.c ****   /* Update the NAND controller state */ 
 391:./Libraries/STM32F4xx_HAL_Driver/Src/stm32f4xx_hal_nand.c ****   hnand->State = HAL_NAND_STATE_READY;
 771              		.loc 1 391 16
 772 00d6 7B68     		ldr	r3, [r7, #4]
 773 00d8 0122     		movs	r2, #1
 774 00da 83F82120 		strb	r2, [r3, #33]
 392:./Libraries/STM32F4xx_HAL_Driver/Src/stm32f4xx_hal_nand.c ****   
 393:./Libraries/STM32F4xx_HAL_Driver/Src/stm32f4xx_hal_nand.c ****   /* Process unlocked */
 394:./Libraries/STM32F4xx_HAL_Driver/Src/stm32f4xx_hal_nand.c ****   __HAL_UNLOCK(hnand);
 775              		.loc 1 394 3
 776 00de 7B68     		ldr	r3, [r7, #4]
 777 00e0 0022     		movs	r2, #0
 778 00e2 83F82020 		strb	r2, [r3, #32]
 395:./Libraries/STM32F4xx_HAL_Driver/Src/stm32f4xx_hal_nand.c ****    
 396:./Libraries/STM32F4xx_HAL_Driver/Src/stm32f4xx_hal_nand.c ****   return HAL_OK;
 779              		.loc 1 396 10
 780 00e6 0023     		movs	r3, #0
 781              	.L32:
 397:./Libraries/STM32F4xx_HAL_Driver/Src/stm32f4xx_hal_nand.c **** }
 782              		.loc 1 397 1
 783 00e8 1846     		mov	r0, r3
 784 00ea 1C37     		adds	r7, r7, #28
 785              	.LCFI36:
 786              		.cfi_def_cfa_offset 4
 787 00ec BD46     		mov	sp, r7
 788              	.LCFI37:
 789              		.cfi_def_cfa_register 13
 790              		@ sp needed
 791 00ee 5DF8047B 		ldr	r7, [sp], #4
 792              	.LCFI38:
 793              		.cfi_restore 7
 794              		.cfi_def_cfa_offset 0
 795 00f2 7047     		bx	lr
 796              		.cfi_endproc
 797              	.LFE132:
 799              		.section	.text.HAL_NAND_Reset,"ax",%progbits
 800              		.align	1
 801              		.global	HAL_NAND_Reset
 802              		.syntax unified
 803              		.thumb
 804              		.thumb_func
 805              		.fpu fpv4-sp-d16
 807              	HAL_NAND_Reset:
 808              	.LFB133:
 398:./Libraries/STM32F4xx_HAL_Driver/Src/stm32f4xx_hal_nand.c **** 
 399:./Libraries/STM32F4xx_HAL_Driver/Src/stm32f4xx_hal_nand.c **** /**
 400:./Libraries/STM32F4xx_HAL_Driver/Src/stm32f4xx_hal_nand.c ****   * @brief  NAND memory reset
 401:./Libraries/STM32F4xx_HAL_Driver/Src/stm32f4xx_hal_nand.c ****   * @param  hnand pointer to a NAND_HandleTypeDef structure that contains
 402:./Libraries/STM32F4xx_HAL_Driver/Src/stm32f4xx_hal_nand.c ****   *                the configuration information for NAND module.
 403:./Libraries/STM32F4xx_HAL_Driver/Src/stm32f4xx_hal_nand.c ****   * @retval HAL status
ARM GAS  /tmp/ccmBJYMF.s 			page 22


 404:./Libraries/STM32F4xx_HAL_Driver/Src/stm32f4xx_hal_nand.c ****   */
 405:./Libraries/STM32F4xx_HAL_Driver/Src/stm32f4xx_hal_nand.c **** HAL_StatusTypeDef HAL_NAND_Reset(NAND_HandleTypeDef *hnand)
 406:./Libraries/STM32F4xx_HAL_Driver/Src/stm32f4xx_hal_nand.c **** {
 809              		.loc 1 406 1
 810              		.cfi_startproc
 811              		@ args = 0, pretend = 0, frame = 16
 812              		@ frame_needed = 1, uses_anonymous_args = 0
 813              		@ link register save eliminated.
 814 0000 80B4     		push	{r7}
 815              	.LCFI39:
 816              		.cfi_def_cfa_offset 4
 817              		.cfi_offset 7, -4
 818 0002 85B0     		sub	sp, sp, #20
 819              	.LCFI40:
 820              		.cfi_def_cfa_offset 24
 821 0004 00AF     		add	r7, sp, #0
 822              	.LCFI41:
 823              		.cfi_def_cfa_register 7
 824 0006 7860     		str	r0, [r7, #4]
 407:./Libraries/STM32F4xx_HAL_Driver/Src/stm32f4xx_hal_nand.c ****   uint32_t deviceaddress = 0U;
 825              		.loc 1 407 12
 826 0008 0023     		movs	r3, #0
 827 000a FB60     		str	r3, [r7, #12]
 408:./Libraries/STM32F4xx_HAL_Driver/Src/stm32f4xx_hal_nand.c **** 
 409:./Libraries/STM32F4xx_HAL_Driver/Src/stm32f4xx_hal_nand.c ****   /* Process Locked */
 410:./Libraries/STM32F4xx_HAL_Driver/Src/stm32f4xx_hal_nand.c ****   __HAL_LOCK(hnand);
 828              		.loc 1 410 3
 829 000c 7B68     		ldr	r3, [r7, #4]
 830 000e 93F82030 		ldrb	r3, [r3, #32]	@ zero_extendqisi2
 831 0012 012B     		cmp	r3, #1
 832 0014 01D1     		bne	.L39
 833              		.loc 1 410 3 is_stmt 0 discriminator 1
 834 0016 0223     		movs	r3, #2
 835 0018 28E0     		b	.L40
 836              	.L39:
 837              		.loc 1 410 3 discriminator 2
 838 001a 7B68     		ldr	r3, [r7, #4]
 839 001c 0122     		movs	r2, #1
 840 001e 83F82020 		strb	r2, [r3, #32]
 411:./Libraries/STM32F4xx_HAL_Driver/Src/stm32f4xx_hal_nand.c **** 
 412:./Libraries/STM32F4xx_HAL_Driver/Src/stm32f4xx_hal_nand.c ****   /* Check the NAND controller state */
 413:./Libraries/STM32F4xx_HAL_Driver/Src/stm32f4xx_hal_nand.c ****   if(hnand->State == HAL_NAND_STATE_BUSY)
 841              		.loc 1 413 11 is_stmt 1 discriminator 2
 842 0022 7B68     		ldr	r3, [r7, #4]
 843 0024 93F82130 		ldrb	r3, [r3, #33]
 844 0028 DBB2     		uxtb	r3, r3
 845              		.loc 1 413 5 discriminator 2
 846 002a 022B     		cmp	r3, #2
 847 002c 01D1     		bne	.L41
 414:./Libraries/STM32F4xx_HAL_Driver/Src/stm32f4xx_hal_nand.c ****   {
 415:./Libraries/STM32F4xx_HAL_Driver/Src/stm32f4xx_hal_nand.c ****      return HAL_BUSY;
 848              		.loc 1 415 13
 849 002e 0223     		movs	r3, #2
 850 0030 1CE0     		b	.L40
 851              	.L41:
 416:./Libraries/STM32F4xx_HAL_Driver/Src/stm32f4xx_hal_nand.c ****   }
 417:./Libraries/STM32F4xx_HAL_Driver/Src/stm32f4xx_hal_nand.c **** 
ARM GAS  /tmp/ccmBJYMF.s 			page 23


 418:./Libraries/STM32F4xx_HAL_Driver/Src/stm32f4xx_hal_nand.c ****   /* Identify the device address */
 419:./Libraries/STM32F4xx_HAL_Driver/Src/stm32f4xx_hal_nand.c ****   if(hnand->Init.NandBank == FMC_NAND_BANK2)
 852              		.loc 1 419 17
 853 0032 7B68     		ldr	r3, [r7, #4]
 854 0034 5B68     		ldr	r3, [r3, #4]
 855              		.loc 1 419 5
 856 0036 102B     		cmp	r3, #16
 857 0038 03D1     		bne	.L42
 420:./Libraries/STM32F4xx_HAL_Driver/Src/stm32f4xx_hal_nand.c ****   {
 421:./Libraries/STM32F4xx_HAL_Driver/Src/stm32f4xx_hal_nand.c ****     deviceaddress = NAND_DEVICE1;
 858              		.loc 1 421 19
 859 003a 4FF0E043 		mov	r3, #1879048192
 860 003e FB60     		str	r3, [r7, #12]
 861 0040 02E0     		b	.L43
 862              	.L42:
 422:./Libraries/STM32F4xx_HAL_Driver/Src/stm32f4xx_hal_nand.c ****   }
 423:./Libraries/STM32F4xx_HAL_Driver/Src/stm32f4xx_hal_nand.c ****   else
 424:./Libraries/STM32F4xx_HAL_Driver/Src/stm32f4xx_hal_nand.c ****   {
 425:./Libraries/STM32F4xx_HAL_Driver/Src/stm32f4xx_hal_nand.c ****     deviceaddress = NAND_DEVICE2;
 863              		.loc 1 425 19
 864 0042 4FF00043 		mov	r3, #-2147483648
 865 0046 FB60     		str	r3, [r7, #12]
 866              	.L43:
 426:./Libraries/STM32F4xx_HAL_Driver/Src/stm32f4xx_hal_nand.c ****   }  
 427:./Libraries/STM32F4xx_HAL_Driver/Src/stm32f4xx_hal_nand.c ****   
 428:./Libraries/STM32F4xx_HAL_Driver/Src/stm32f4xx_hal_nand.c ****   /* Update the NAND controller state */
 429:./Libraries/STM32F4xx_HAL_Driver/Src/stm32f4xx_hal_nand.c ****   hnand->State = HAL_NAND_STATE_BUSY; 
 867              		.loc 1 429 16
 868 0048 7B68     		ldr	r3, [r7, #4]
 869 004a 0222     		movs	r2, #2
 870 004c 83F82120 		strb	r2, [r3, #33]
 430:./Libraries/STM32F4xx_HAL_Driver/Src/stm32f4xx_hal_nand.c ****   
 431:./Libraries/STM32F4xx_HAL_Driver/Src/stm32f4xx_hal_nand.c ****   /* Send NAND reset command */  
 432:./Libraries/STM32F4xx_HAL_Driver/Src/stm32f4xx_hal_nand.c ****   *(__IO uint8_t *)((uint32_t)(deviceaddress | CMD_AREA)) = 0xFF;
 871              		.loc 1 432 21
 872 0050 FB68     		ldr	r3, [r7, #12]
 873 0052 43F48033 		orr	r3, r3, #65536
 874              		.loc 1 432 59
 875 0056 FF22     		movs	r2, #255
 876 0058 1A70     		strb	r2, [r3]
 433:./Libraries/STM32F4xx_HAL_Driver/Src/stm32f4xx_hal_nand.c **** 
 434:./Libraries/STM32F4xx_HAL_Driver/Src/stm32f4xx_hal_nand.c **** 
 435:./Libraries/STM32F4xx_HAL_Driver/Src/stm32f4xx_hal_nand.c ****   /* Update the NAND controller state */
 436:./Libraries/STM32F4xx_HAL_Driver/Src/stm32f4xx_hal_nand.c ****   hnand->State = HAL_NAND_STATE_READY;
 877              		.loc 1 436 16
 878 005a 7B68     		ldr	r3, [r7, #4]
 879 005c 0122     		movs	r2, #1
 880 005e 83F82120 		strb	r2, [r3, #33]
 437:./Libraries/STM32F4xx_HAL_Driver/Src/stm32f4xx_hal_nand.c ****   
 438:./Libraries/STM32F4xx_HAL_Driver/Src/stm32f4xx_hal_nand.c ****   /* Process unlocked */
 439:./Libraries/STM32F4xx_HAL_Driver/Src/stm32f4xx_hal_nand.c ****   __HAL_UNLOCK(hnand);
 881              		.loc 1 439 3
 882 0062 7B68     		ldr	r3, [r7, #4]
 883 0064 0022     		movs	r2, #0
 884 0066 83F82020 		strb	r2, [r3, #32]
 440:./Libraries/STM32F4xx_HAL_Driver/Src/stm32f4xx_hal_nand.c **** 
 441:./Libraries/STM32F4xx_HAL_Driver/Src/stm32f4xx_hal_nand.c ****   return HAL_OK;
ARM GAS  /tmp/ccmBJYMF.s 			page 24


 885              		.loc 1 441 10
 886 006a 0023     		movs	r3, #0
 887              	.L40:
 442:./Libraries/STM32F4xx_HAL_Driver/Src/stm32f4xx_hal_nand.c **** 
 443:./Libraries/STM32F4xx_HAL_Driver/Src/stm32f4xx_hal_nand.c **** }
 888              		.loc 1 443 1
 889 006c 1846     		mov	r0, r3
 890 006e 1437     		adds	r7, r7, #20
 891              	.LCFI42:
 892              		.cfi_def_cfa_offset 4
 893 0070 BD46     		mov	sp, r7
 894              	.LCFI43:
 895              		.cfi_def_cfa_register 13
 896              		@ sp needed
 897 0072 5DF8047B 		ldr	r7, [sp], #4
 898              	.LCFI44:
 899              		.cfi_restore 7
 900              		.cfi_def_cfa_offset 0
 901 0076 7047     		bx	lr
 902              		.cfi_endproc
 903              	.LFE133:
 905              		.section	.text.HAL_NAND_ConfigDevice,"ax",%progbits
 906              		.align	1
 907              		.global	HAL_NAND_ConfigDevice
 908              		.syntax unified
 909              		.thumb
 910              		.thumb_func
 911              		.fpu fpv4-sp-d16
 913              	HAL_NAND_ConfigDevice:
 914              	.LFB134:
 444:./Libraries/STM32F4xx_HAL_Driver/Src/stm32f4xx_hal_nand.c **** 
 445:./Libraries/STM32F4xx_HAL_Driver/Src/stm32f4xx_hal_nand.c **** /**
 446:./Libraries/STM32F4xx_HAL_Driver/Src/stm32f4xx_hal_nand.c ****   * @brief  Configure the device: Enter the physical parameters of the device
 447:./Libraries/STM32F4xx_HAL_Driver/Src/stm32f4xx_hal_nand.c ****   * @param  hnand pointer to a NAND_HandleTypeDef structure that contains
 448:./Libraries/STM32F4xx_HAL_Driver/Src/stm32f4xx_hal_nand.c ****   *                the configuration information for NAND module.
 449:./Libraries/STM32F4xx_HAL_Driver/Src/stm32f4xx_hal_nand.c ****   * @param  pDeviceConfig  pointer to NAND_DeviceConfigTypeDef structure
 450:./Libraries/STM32F4xx_HAL_Driver/Src/stm32f4xx_hal_nand.c ****   * @retval HAL status
 451:./Libraries/STM32F4xx_HAL_Driver/Src/stm32f4xx_hal_nand.c ****   */
 452:./Libraries/STM32F4xx_HAL_Driver/Src/stm32f4xx_hal_nand.c **** HAL_StatusTypeDef  HAL_NAND_ConfigDevice(NAND_HandleTypeDef *hnand, NAND_DeviceConfigTypeDef *pDevi
 453:./Libraries/STM32F4xx_HAL_Driver/Src/stm32f4xx_hal_nand.c **** {
 915              		.loc 1 453 1
 916              		.cfi_startproc
 917              		@ args = 0, pretend = 0, frame = 8
 918              		@ frame_needed = 1, uses_anonymous_args = 0
 919              		@ link register save eliminated.
 920 0000 80B4     		push	{r7}
 921              	.LCFI45:
 922              		.cfi_def_cfa_offset 4
 923              		.cfi_offset 7, -4
 924 0002 83B0     		sub	sp, sp, #12
 925              	.LCFI46:
 926              		.cfi_def_cfa_offset 16
 927 0004 00AF     		add	r7, sp, #0
 928              	.LCFI47:
 929              		.cfi_def_cfa_register 7
 930 0006 7860     		str	r0, [r7, #4]
 931 0008 3960     		str	r1, [r7]
ARM GAS  /tmp/ccmBJYMF.s 			page 25


 454:./Libraries/STM32F4xx_HAL_Driver/Src/stm32f4xx_hal_nand.c ****   hnand->Config.PageSize           = pDeviceConfig->PageSize;
 932              		.loc 1 454 51
 933 000a 3B68     		ldr	r3, [r7]
 934 000c 1A68     		ldr	r2, [r3]
 935              		.loc 1 454 36
 936 000e 7B68     		ldr	r3, [r7, #4]
 937 0010 5A62     		str	r2, [r3, #36]
 455:./Libraries/STM32F4xx_HAL_Driver/Src/stm32f4xx_hal_nand.c ****   hnand->Config.SpareAreaSize      = pDeviceConfig->SpareAreaSize;
 938              		.loc 1 455 51
 939 0012 3B68     		ldr	r3, [r7]
 940 0014 5A68     		ldr	r2, [r3, #4]
 941              		.loc 1 455 36
 942 0016 7B68     		ldr	r3, [r7, #4]
 943 0018 9A62     		str	r2, [r3, #40]
 456:./Libraries/STM32F4xx_HAL_Driver/Src/stm32f4xx_hal_nand.c ****   hnand->Config.BlockSize          = pDeviceConfig->BlockSize;
 944              		.loc 1 456 51
 945 001a 3B68     		ldr	r3, [r7]
 946 001c 9A68     		ldr	r2, [r3, #8]
 947              		.loc 1 456 36
 948 001e 7B68     		ldr	r3, [r7, #4]
 949 0020 DA62     		str	r2, [r3, #44]
 457:./Libraries/STM32F4xx_HAL_Driver/Src/stm32f4xx_hal_nand.c ****   hnand->Config.BlockNbr           = pDeviceConfig->BlockNbr;
 950              		.loc 1 457 51
 951 0022 3B68     		ldr	r3, [r7]
 952 0024 DA68     		ldr	r2, [r3, #12]
 953              		.loc 1 457 36
 954 0026 7B68     		ldr	r3, [r7, #4]
 955 0028 1A63     		str	r2, [r3, #48]
 458:./Libraries/STM32F4xx_HAL_Driver/Src/stm32f4xx_hal_nand.c ****   hnand->Config.PlaneSize          = pDeviceConfig->PlaneSize;
 956              		.loc 1 458 51
 957 002a 3B68     		ldr	r3, [r7]
 958 002c 5A69     		ldr	r2, [r3, #20]
 959              		.loc 1 458 36
 960 002e 7B68     		ldr	r3, [r7, #4]
 961 0030 9A63     		str	r2, [r3, #56]
 459:./Libraries/STM32F4xx_HAL_Driver/Src/stm32f4xx_hal_nand.c ****   hnand->Config.PlaneNbr           = pDeviceConfig->PlaneNbr;
 962              		.loc 1 459 51
 963 0032 3B68     		ldr	r3, [r7]
 964 0034 1A69     		ldr	r2, [r3, #16]
 965              		.loc 1 459 36
 966 0036 7B68     		ldr	r3, [r7, #4]
 967 0038 5A63     		str	r2, [r3, #52]
 460:./Libraries/STM32F4xx_HAL_Driver/Src/stm32f4xx_hal_nand.c ****   hnand->Config.ExtraCommandEnable = pDeviceConfig->ExtraCommandEnable;
 968              		.loc 1 460 51
 969 003a 3B68     		ldr	r3, [r7]
 970 003c 1A7E     		ldrb	r2, [r3, #24]	@ zero_extendqisi2
 971              		.loc 1 460 36
 972 003e 7B68     		ldr	r3, [r7, #4]
 973 0040 83F83C20 		strb	r2, [r3, #60]
 461:./Libraries/STM32F4xx_HAL_Driver/Src/stm32f4xx_hal_nand.c ****   
 462:./Libraries/STM32F4xx_HAL_Driver/Src/stm32f4xx_hal_nand.c ****   return HAL_OK;
 974              		.loc 1 462 10
 975 0044 0023     		movs	r3, #0
 463:./Libraries/STM32F4xx_HAL_Driver/Src/stm32f4xx_hal_nand.c **** }
 976              		.loc 1 463 1
 977 0046 1846     		mov	r0, r3
 978 0048 0C37     		adds	r7, r7, #12
ARM GAS  /tmp/ccmBJYMF.s 			page 26


 979              	.LCFI48:
 980              		.cfi_def_cfa_offset 4
 981 004a BD46     		mov	sp, r7
 982              	.LCFI49:
 983              		.cfi_def_cfa_register 13
 984              		@ sp needed
 985 004c 5DF8047B 		ldr	r7, [sp], #4
 986              	.LCFI50:
 987              		.cfi_restore 7
 988              		.cfi_def_cfa_offset 0
 989 0050 7047     		bx	lr
 990              		.cfi_endproc
 991              	.LFE134:
 993              		.section	.text.HAL_NAND_Read_Page_8b,"ax",%progbits
 994              		.align	1
 995              		.global	HAL_NAND_Read_Page_8b
 996              		.syntax unified
 997              		.thumb
 998              		.thumb_func
 999              		.fpu fpv4-sp-d16
 1001              	HAL_NAND_Read_Page_8b:
 1002              	.LFB135:
 464:./Libraries/STM32F4xx_HAL_Driver/Src/stm32f4xx_hal_nand.c ****   
 465:./Libraries/STM32F4xx_HAL_Driver/Src/stm32f4xx_hal_nand.c **** /**
 466:./Libraries/STM32F4xx_HAL_Driver/Src/stm32f4xx_hal_nand.c ****   * @brief  Read Page(s) from NAND memory block (8-bits addressing)
 467:./Libraries/STM32F4xx_HAL_Driver/Src/stm32f4xx_hal_nand.c ****   * @param  hnand pointer to a NAND_HandleTypeDef structure that contains
 468:./Libraries/STM32F4xx_HAL_Driver/Src/stm32f4xx_hal_nand.c ****   *                the configuration information for NAND module.
 469:./Libraries/STM32F4xx_HAL_Driver/Src/stm32f4xx_hal_nand.c ****   * @param  pAddress  pointer to NAND address structure
 470:./Libraries/STM32F4xx_HAL_Driver/Src/stm32f4xx_hal_nand.c ****   * @param  pBuffer  pointer to destination read buffer
 471:./Libraries/STM32F4xx_HAL_Driver/Src/stm32f4xx_hal_nand.c ****   * @param  NumPageToRead  number of pages to read from block 
 472:./Libraries/STM32F4xx_HAL_Driver/Src/stm32f4xx_hal_nand.c ****   * @retval HAL status
 473:./Libraries/STM32F4xx_HAL_Driver/Src/stm32f4xx_hal_nand.c ****   */
 474:./Libraries/STM32F4xx_HAL_Driver/Src/stm32f4xx_hal_nand.c **** HAL_StatusTypeDef HAL_NAND_Read_Page_8b(NAND_HandleTypeDef *hnand, NAND_AddressTypeDef *pAddress, u
 475:./Libraries/STM32F4xx_HAL_Driver/Src/stm32f4xx_hal_nand.c **** {   
 1003              		.loc 1 475 1
 1004              		.cfi_startproc
 1005              		@ args = 0, pretend = 0, frame = 40
 1006              		@ frame_needed = 1, uses_anonymous_args = 0
 1007 0000 80B5     		push	{r7, lr}
 1008              	.LCFI51:
 1009              		.cfi_def_cfa_offset 8
 1010              		.cfi_offset 7, -8
 1011              		.cfi_offset 14, -4
 1012 0002 8AB0     		sub	sp, sp, #40
 1013              	.LCFI52:
 1014              		.cfi_def_cfa_offset 48
 1015 0004 00AF     		add	r7, sp, #0
 1016              	.LCFI53:
 1017              		.cfi_def_cfa_register 7
 1018 0006 F860     		str	r0, [r7, #12]
 1019 0008 B960     		str	r1, [r7, #8]
 1020 000a 7A60     		str	r2, [r7, #4]
 1021 000c 3B60     		str	r3, [r7]
 476:./Libraries/STM32F4xx_HAL_Driver/Src/stm32f4xx_hal_nand.c ****   __IO uint32_t index  = 0U;
 1022              		.loc 1 476 17
 1023 000e 0023     		movs	r3, #0
 1024 0010 3B61     		str	r3, [r7, #16]
ARM GAS  /tmp/ccmBJYMF.s 			page 27


 477:./Libraries/STM32F4xx_HAL_Driver/Src/stm32f4xx_hal_nand.c ****   uint32_t tickstart = 0U;
 1025              		.loc 1 477 12
 1026 0012 0023     		movs	r3, #0
 1027 0014 BB61     		str	r3, [r7, #24]
 478:./Libraries/STM32F4xx_HAL_Driver/Src/stm32f4xx_hal_nand.c ****   uint32_t deviceaddress = 0U, size = 0U, numPagesRead = 0U, nandaddress = 0U;
 1028              		.loc 1 478 12
 1029 0016 0023     		movs	r3, #0
 1030 0018 7B62     		str	r3, [r7, #36]
 1031              		.loc 1 478 32
 1032 001a 0023     		movs	r3, #0
 1033 001c 7B61     		str	r3, [r7, #20]
 1034              		.loc 1 478 43
 1035 001e 0023     		movs	r3, #0
 1036 0020 3B62     		str	r3, [r7, #32]
 1037              		.loc 1 478 62
 1038 0022 0023     		movs	r3, #0
 1039 0024 FB61     		str	r3, [r7, #28]
 479:./Libraries/STM32F4xx_HAL_Driver/Src/stm32f4xx_hal_nand.c ****   
 480:./Libraries/STM32F4xx_HAL_Driver/Src/stm32f4xx_hal_nand.c ****   /* Process Locked */
 481:./Libraries/STM32F4xx_HAL_Driver/Src/stm32f4xx_hal_nand.c ****   __HAL_LOCK(hnand); 
 1040              		.loc 1 481 3
 1041 0026 FB68     		ldr	r3, [r7, #12]
 1042 0028 93F82030 		ldrb	r3, [r3, #32]	@ zero_extendqisi2
 1043 002c 012B     		cmp	r3, #1
 1044 002e 01D1     		bne	.L47
 1045              		.loc 1 481 3 is_stmt 0 discriminator 1
 1046 0030 0223     		movs	r3, #2
 1047 0032 08E1     		b	.L48
 1048              	.L47:
 1049              		.loc 1 481 3 discriminator 2
 1050 0034 FB68     		ldr	r3, [r7, #12]
 1051 0036 0122     		movs	r2, #1
 1052 0038 83F82020 		strb	r2, [r3, #32]
 482:./Libraries/STM32F4xx_HAL_Driver/Src/stm32f4xx_hal_nand.c ****   
 483:./Libraries/STM32F4xx_HAL_Driver/Src/stm32f4xx_hal_nand.c ****   /* Check the NAND controller state */
 484:./Libraries/STM32F4xx_HAL_Driver/Src/stm32f4xx_hal_nand.c ****   if(hnand->State == HAL_NAND_STATE_BUSY)
 1053              		.loc 1 484 11 is_stmt 1 discriminator 2
 1054 003c FB68     		ldr	r3, [r7, #12]
 1055 003e 93F82130 		ldrb	r3, [r3, #33]
 1056 0042 DBB2     		uxtb	r3, r3
 1057              		.loc 1 484 5 discriminator 2
 1058 0044 022B     		cmp	r3, #2
 1059 0046 01D1     		bne	.L49
 485:./Libraries/STM32F4xx_HAL_Driver/Src/stm32f4xx_hal_nand.c ****   {
 486:./Libraries/STM32F4xx_HAL_Driver/Src/stm32f4xx_hal_nand.c ****      return HAL_BUSY;
 1060              		.loc 1 486 13
 1061 0048 0223     		movs	r3, #2
 1062 004a FCE0     		b	.L48
 1063              	.L49:
 487:./Libraries/STM32F4xx_HAL_Driver/Src/stm32f4xx_hal_nand.c ****   }
 488:./Libraries/STM32F4xx_HAL_Driver/Src/stm32f4xx_hal_nand.c ****   
 489:./Libraries/STM32F4xx_HAL_Driver/Src/stm32f4xx_hal_nand.c ****   /* Identify the device address */
 490:./Libraries/STM32F4xx_HAL_Driver/Src/stm32f4xx_hal_nand.c ****   if(hnand->Init.NandBank == FMC_NAND_BANK2)
 1064              		.loc 1 490 17
 1065 004c FB68     		ldr	r3, [r7, #12]
 1066 004e 5B68     		ldr	r3, [r3, #4]
 1067              		.loc 1 490 5
ARM GAS  /tmp/ccmBJYMF.s 			page 28


 1068 0050 102B     		cmp	r3, #16
 1069 0052 03D1     		bne	.L50
 491:./Libraries/STM32F4xx_HAL_Driver/Src/stm32f4xx_hal_nand.c ****   {
 492:./Libraries/STM32F4xx_HAL_Driver/Src/stm32f4xx_hal_nand.c ****     deviceaddress = NAND_DEVICE1;
 1070              		.loc 1 492 19
 1071 0054 4FF0E043 		mov	r3, #1879048192
 1072 0058 7B62     		str	r3, [r7, #36]
 1073 005a 02E0     		b	.L51
 1074              	.L50:
 493:./Libraries/STM32F4xx_HAL_Driver/Src/stm32f4xx_hal_nand.c ****   }
 494:./Libraries/STM32F4xx_HAL_Driver/Src/stm32f4xx_hal_nand.c ****   else
 495:./Libraries/STM32F4xx_HAL_Driver/Src/stm32f4xx_hal_nand.c ****   {
 496:./Libraries/STM32F4xx_HAL_Driver/Src/stm32f4xx_hal_nand.c ****     deviceaddress = NAND_DEVICE2;
 1075              		.loc 1 496 19
 1076 005c 4FF00043 		mov	r3, #-2147483648
 1077 0060 7B62     		str	r3, [r7, #36]
 1078              	.L51:
 497:./Libraries/STM32F4xx_HAL_Driver/Src/stm32f4xx_hal_nand.c ****   }
 498:./Libraries/STM32F4xx_HAL_Driver/Src/stm32f4xx_hal_nand.c **** 
 499:./Libraries/STM32F4xx_HAL_Driver/Src/stm32f4xx_hal_nand.c ****   /* Update the NAND controller state */
 500:./Libraries/STM32F4xx_HAL_Driver/Src/stm32f4xx_hal_nand.c ****   hnand->State = HAL_NAND_STATE_BUSY;
 1079              		.loc 1 500 16
 1080 0062 FB68     		ldr	r3, [r7, #12]
 1081 0064 0222     		movs	r2, #2
 1082 0066 83F82120 		strb	r2, [r3, #33]
 501:./Libraries/STM32F4xx_HAL_Driver/Src/stm32f4xx_hal_nand.c ****   
 502:./Libraries/STM32F4xx_HAL_Driver/Src/stm32f4xx_hal_nand.c ****   /* NAND raw address calculation */
 503:./Libraries/STM32F4xx_HAL_Driver/Src/stm32f4xx_hal_nand.c ****   nandaddress = ARRAY_ADDRESS(pAddress, hnand);
 1083              		.loc 1 503 17
 1084 006a BB68     		ldr	r3, [r7, #8]
 1085 006c 1B88     		ldrh	r3, [r3]
 1086 006e 1946     		mov	r1, r3
 1087 0070 BB68     		ldr	r3, [r7, #8]
 1088 0072 9B88     		ldrh	r3, [r3, #4]
 1089 0074 1A46     		mov	r2, r3
 1090 0076 BB68     		ldr	r3, [r7, #8]
 1091 0078 5B88     		ldrh	r3, [r3, #2]
 1092 007a 1846     		mov	r0, r3
 1093 007c FB68     		ldr	r3, [r7, #12]
 1094 007e 9B6B     		ldr	r3, [r3, #56]
 1095 0080 00FB03F3 		mul	r3, r0, r3
 1096 0084 1344     		add	r3, r3, r2
 1097 0086 FA68     		ldr	r2, [r7, #12]
 1098 0088 D26A     		ldr	r2, [r2, #44]
 1099 008a 02FB03F3 		mul	r3, r2, r3
 1100              		.loc 1 503 15
 1101 008e 0B44     		add	r3, r3, r1
 1102 0090 FB61     		str	r3, [r7, #28]
 504:./Libraries/STM32F4xx_HAL_Driver/Src/stm32f4xx_hal_nand.c **** 
 505:./Libraries/STM32F4xx_HAL_Driver/Src/stm32f4xx_hal_nand.c ****   /* Page(s) read loop */  
 506:./Libraries/STM32F4xx_HAL_Driver/Src/stm32f4xx_hal_nand.c ****   while((NumPageToRead != 0U) && (nandaddress < ((hnand->Config.BlockSize) * (hnand->Config.BlockNb
 1103              		.loc 1 506 8
 1104 0092 C2E0     		b	.L52
 1105              	.L63:
 507:./Libraries/STM32F4xx_HAL_Driver/Src/stm32f4xx_hal_nand.c ****   {
 508:./Libraries/STM32F4xx_HAL_Driver/Src/stm32f4xx_hal_nand.c ****     /* update the buffer size */
 509:./Libraries/STM32F4xx_HAL_Driver/Src/stm32f4xx_hal_nand.c ****     size = (hnand->Config.PageSize) + ((hnand->Config.PageSize) * numPagesRead);
ARM GAS  /tmp/ccmBJYMF.s 			page 29


 1106              		.loc 1 509 37
 1107 0094 3B6A     		ldr	r3, [r7, #32]
 1108 0096 0133     		adds	r3, r3, #1
 1109              		.loc 1 509 26
 1110 0098 FA68     		ldr	r2, [r7, #12]
 1111 009a 526A     		ldr	r2, [r2, #36]
 1112              		.loc 1 509 10
 1113 009c 02FB03F3 		mul	r3, r2, r3
 1114 00a0 7B61     		str	r3, [r7, #20]
 510:./Libraries/STM32F4xx_HAL_Driver/Src/stm32f4xx_hal_nand.c ****     
 511:./Libraries/STM32F4xx_HAL_Driver/Src/stm32f4xx_hal_nand.c ****     /* Send read page command sequence */
 512:./Libraries/STM32F4xx_HAL_Driver/Src/stm32f4xx_hal_nand.c ****     *(__IO uint8_t *)((uint32_t)(deviceaddress | CMD_AREA)) = NAND_CMD_AREA_A;
 1115              		.loc 1 512 23
 1116 00a2 7B6A     		ldr	r3, [r7, #36]
 1117 00a4 43F48033 		orr	r3, r3, #65536
 1118              		.loc 1 512 61
 1119 00a8 0022     		movs	r2, #0
 1120 00aa 1A70     		strb	r2, [r3]
 513:./Libraries/STM32F4xx_HAL_Driver/Src/stm32f4xx_hal_nand.c ****    
 514:./Libraries/STM32F4xx_HAL_Driver/Src/stm32f4xx_hal_nand.c ****     /* Cards with page size <= 512 bytes */
 515:./Libraries/STM32F4xx_HAL_Driver/Src/stm32f4xx_hal_nand.c ****     if((hnand->Config.PageSize) <= 512U)
 1121              		.loc 1 515 22
 1122 00ac FB68     		ldr	r3, [r7, #12]
 1123 00ae 5B6A     		ldr	r3, [r3, #36]
 1124              		.loc 1 515 7
 1125 00b0 B3F5007F 		cmp	r3, #512
 1126 00b4 35D8     		bhi	.L53
 516:./Libraries/STM32F4xx_HAL_Driver/Src/stm32f4xx_hal_nand.c ****     {
 517:./Libraries/STM32F4xx_HAL_Driver/Src/stm32f4xx_hal_nand.c ****       if (((hnand->Config.BlockSize)*(hnand->Config.BlockNbr)) <= 65535U)
 1127              		.loc 1 517 26
 1128 00b6 FB68     		ldr	r3, [r7, #12]
 1129 00b8 DB6A     		ldr	r3, [r3, #44]
 1130              		.loc 1 517 52
 1131 00ba FA68     		ldr	r2, [r7, #12]
 1132 00bc 126B     		ldr	r2, [r2, #48]
 1133              		.loc 1 517 37
 1134 00be 02FB03F3 		mul	r3, r2, r3
 1135              		.loc 1 517 10
 1136 00c2 B3F5803F 		cmp	r3, #65536
 1137 00c6 12D2     		bcs	.L54
 518:./Libraries/STM32F4xx_HAL_Driver/Src/stm32f4xx_hal_nand.c ****       {
 519:./Libraries/STM32F4xx_HAL_Driver/Src/stm32f4xx_hal_nand.c ****         *(__IO uint8_t *)((uint32_t)(deviceaddress | ADDR_AREA)) = 0x00;
 1138              		.loc 1 519 27
 1139 00c8 7B6A     		ldr	r3, [r7, #36]
 1140 00ca 43F40033 		orr	r3, r3, #131072
 1141              		.loc 1 519 66
 1142 00ce 0022     		movs	r2, #0
 1143 00d0 1A70     		strb	r2, [r3]
 520:./Libraries/STM32F4xx_HAL_Driver/Src/stm32f4xx_hal_nand.c ****         *(__IO uint8_t *)((uint32_t)(deviceaddress | ADDR_AREA)) = ADDR_1ST_CYCLE(nandaddress);
 1144              		.loc 1 520 27
 1145 00d2 7B6A     		ldr	r3, [r7, #36]
 1146 00d4 43F40033 		orr	r3, r3, #131072
 1147              		.loc 1 520 68
 1148 00d8 FA69     		ldr	r2, [r7, #28]
 1149 00da D2B2     		uxtb	r2, r2
 1150              		.loc 1 520 66
 1151 00dc 1A70     		strb	r2, [r3]
ARM GAS  /tmp/ccmBJYMF.s 			page 30


 521:./Libraries/STM32F4xx_HAL_Driver/Src/stm32f4xx_hal_nand.c ****         *(__IO uint8_t *)((uint32_t)(deviceaddress | ADDR_AREA)) = ADDR_2ND_CYCLE(nandaddress);
 1152              		.loc 1 521 68
 1153 00de FB69     		ldr	r3, [r7, #28]
 1154 00e0 1A0A     		lsrs	r2, r3, #8
 1155              		.loc 1 521 27
 1156 00e2 7B6A     		ldr	r3, [r7, #36]
 1157 00e4 43F40033 		orr	r3, r3, #131072
 1158              		.loc 1 521 68
 1159 00e8 D2B2     		uxtb	r2, r2
 1160              		.loc 1 521 66
 1161 00ea 1A70     		strb	r2, [r3]
 1162 00ec 58E0     		b	.L55
 1163              	.L54:
 522:./Libraries/STM32F4xx_HAL_Driver/Src/stm32f4xx_hal_nand.c ****       }
 523:./Libraries/STM32F4xx_HAL_Driver/Src/stm32f4xx_hal_nand.c ****       else /* ((hnand->Config.BlockSize)*(hnand->Config.BlockNbr)) > 65535 */
 524:./Libraries/STM32F4xx_HAL_Driver/Src/stm32f4xx_hal_nand.c ****       {
 525:./Libraries/STM32F4xx_HAL_Driver/Src/stm32f4xx_hal_nand.c ****         *(__IO uint8_t *)((uint32_t)(deviceaddress | ADDR_AREA)) = 0x00;
 1164              		.loc 1 525 27
 1165 00ee 7B6A     		ldr	r3, [r7, #36]
 1166 00f0 43F40033 		orr	r3, r3, #131072
 1167              		.loc 1 525 66
 1168 00f4 0022     		movs	r2, #0
 1169 00f6 1A70     		strb	r2, [r3]
 526:./Libraries/STM32F4xx_HAL_Driver/Src/stm32f4xx_hal_nand.c ****         *(__IO uint8_t *)((uint32_t)(deviceaddress | ADDR_AREA)) = ADDR_1ST_CYCLE(nandaddress);
 1170              		.loc 1 526 27
 1171 00f8 7B6A     		ldr	r3, [r7, #36]
 1172 00fa 43F40033 		orr	r3, r3, #131072
 1173              		.loc 1 526 68
 1174 00fe FA69     		ldr	r2, [r7, #28]
 1175 0100 D2B2     		uxtb	r2, r2
 1176              		.loc 1 526 66
 1177 0102 1A70     		strb	r2, [r3]
 527:./Libraries/STM32F4xx_HAL_Driver/Src/stm32f4xx_hal_nand.c ****         *(__IO uint8_t *)((uint32_t)(deviceaddress | ADDR_AREA)) = ADDR_2ND_CYCLE(nandaddress);
 1178              		.loc 1 527 68
 1179 0104 FB69     		ldr	r3, [r7, #28]
 1180 0106 1A0A     		lsrs	r2, r3, #8
 1181              		.loc 1 527 27
 1182 0108 7B6A     		ldr	r3, [r7, #36]
 1183 010a 43F40033 		orr	r3, r3, #131072
 1184              		.loc 1 527 68
 1185 010e D2B2     		uxtb	r2, r2
 1186              		.loc 1 527 66
 1187 0110 1A70     		strb	r2, [r3]
 528:./Libraries/STM32F4xx_HAL_Driver/Src/stm32f4xx_hal_nand.c ****         *(__IO uint8_t *)((uint32_t)(deviceaddress | ADDR_AREA)) = ADDR_3RD_CYCLE(nandaddress);
 1188              		.loc 1 528 68
 1189 0112 FB69     		ldr	r3, [r7, #28]
 1190 0114 1A0C     		lsrs	r2, r3, #16
 1191              		.loc 1 528 27
 1192 0116 7B6A     		ldr	r3, [r7, #36]
 1193 0118 43F40033 		orr	r3, r3, #131072
 1194              		.loc 1 528 68
 1195 011c D2B2     		uxtb	r2, r2
 1196              		.loc 1 528 66
 1197 011e 1A70     		strb	r2, [r3]
 1198 0120 3EE0     		b	.L55
 1199              	.L53:
 529:./Libraries/STM32F4xx_HAL_Driver/Src/stm32f4xx_hal_nand.c ****       }
ARM GAS  /tmp/ccmBJYMF.s 			page 31


 530:./Libraries/STM32F4xx_HAL_Driver/Src/stm32f4xx_hal_nand.c ****     }
 531:./Libraries/STM32F4xx_HAL_Driver/Src/stm32f4xx_hal_nand.c ****     else /* (hnand->Config.PageSize) > 512 */
 532:./Libraries/STM32F4xx_HAL_Driver/Src/stm32f4xx_hal_nand.c ****     {
 533:./Libraries/STM32F4xx_HAL_Driver/Src/stm32f4xx_hal_nand.c ****       if (((hnand->Config.BlockSize)*(hnand->Config.BlockNbr)) <= 65535U)
 1200              		.loc 1 533 26
 1201 0122 FB68     		ldr	r3, [r7, #12]
 1202 0124 DB6A     		ldr	r3, [r3, #44]
 1203              		.loc 1 533 52
 1204 0126 FA68     		ldr	r2, [r7, #12]
 1205 0128 126B     		ldr	r2, [r2, #48]
 1206              		.loc 1 533 37
 1207 012a 02FB03F3 		mul	r3, r2, r3
 1208              		.loc 1 533 10
 1209 012e B3F5803F 		cmp	r3, #65536
 1210 0132 17D2     		bcs	.L56
 534:./Libraries/STM32F4xx_HAL_Driver/Src/stm32f4xx_hal_nand.c ****       {
 535:./Libraries/STM32F4xx_HAL_Driver/Src/stm32f4xx_hal_nand.c ****         *(__IO uint8_t *)((uint32_t)(deviceaddress | ADDR_AREA)) = 0x00;
 1211              		.loc 1 535 27
 1212 0134 7B6A     		ldr	r3, [r7, #36]
 1213 0136 43F40033 		orr	r3, r3, #131072
 1214              		.loc 1 535 66
 1215 013a 0022     		movs	r2, #0
 1216 013c 1A70     		strb	r2, [r3]
 536:./Libraries/STM32F4xx_HAL_Driver/Src/stm32f4xx_hal_nand.c ****         *(__IO uint8_t *)((uint32_t)(deviceaddress | ADDR_AREA)) = 0x00;
 1217              		.loc 1 536 27
 1218 013e 7B6A     		ldr	r3, [r7, #36]
 1219 0140 43F40033 		orr	r3, r3, #131072
 1220              		.loc 1 536 66
 1221 0144 0022     		movs	r2, #0
 1222 0146 1A70     		strb	r2, [r3]
 537:./Libraries/STM32F4xx_HAL_Driver/Src/stm32f4xx_hal_nand.c ****         *(__IO uint8_t *)((uint32_t)(deviceaddress | ADDR_AREA)) = ADDR_1ST_CYCLE(nandaddress);
 1223              		.loc 1 537 27
 1224 0148 7B6A     		ldr	r3, [r7, #36]
 1225 014a 43F40033 		orr	r3, r3, #131072
 1226              		.loc 1 537 68
 1227 014e FA69     		ldr	r2, [r7, #28]
 1228 0150 D2B2     		uxtb	r2, r2
 1229              		.loc 1 537 66
 1230 0152 1A70     		strb	r2, [r3]
 538:./Libraries/STM32F4xx_HAL_Driver/Src/stm32f4xx_hal_nand.c ****         *(__IO uint8_t *)((uint32_t)(deviceaddress | ADDR_AREA)) = ADDR_2ND_CYCLE(nandaddress);
 1231              		.loc 1 538 68
 1232 0154 FB69     		ldr	r3, [r7, #28]
 1233 0156 1A0A     		lsrs	r2, r3, #8
 1234              		.loc 1 538 27
 1235 0158 7B6A     		ldr	r3, [r7, #36]
 1236 015a 43F40033 		orr	r3, r3, #131072
 1237              		.loc 1 538 68
 1238 015e D2B2     		uxtb	r2, r2
 1239              		.loc 1 538 66
 1240 0160 1A70     		strb	r2, [r3]
 1241 0162 1DE0     		b	.L55
 1242              	.L56:
 539:./Libraries/STM32F4xx_HAL_Driver/Src/stm32f4xx_hal_nand.c ****       }
 540:./Libraries/STM32F4xx_HAL_Driver/Src/stm32f4xx_hal_nand.c ****       else /* ((hnand->Config.BlockSize)*(hnand->Config.BlockNbr)) > 65535 */
 541:./Libraries/STM32F4xx_HAL_Driver/Src/stm32f4xx_hal_nand.c ****       {
 542:./Libraries/STM32F4xx_HAL_Driver/Src/stm32f4xx_hal_nand.c ****         *(__IO uint8_t *)((uint32_t)(deviceaddress | ADDR_AREA)) = 0x00;
 1243              		.loc 1 542 27
ARM GAS  /tmp/ccmBJYMF.s 			page 32


 1244 0164 7B6A     		ldr	r3, [r7, #36]
 1245 0166 43F40033 		orr	r3, r3, #131072
 1246              		.loc 1 542 66
 1247 016a 0022     		movs	r2, #0
 1248 016c 1A70     		strb	r2, [r3]
 543:./Libraries/STM32F4xx_HAL_Driver/Src/stm32f4xx_hal_nand.c ****         *(__IO uint8_t *)((uint32_t)(deviceaddress | ADDR_AREA)) = 0x00;
 1249              		.loc 1 543 27
 1250 016e 7B6A     		ldr	r3, [r7, #36]
 1251 0170 43F40033 		orr	r3, r3, #131072
 1252              		.loc 1 543 66
 1253 0174 0022     		movs	r2, #0
 1254 0176 1A70     		strb	r2, [r3]
 544:./Libraries/STM32F4xx_HAL_Driver/Src/stm32f4xx_hal_nand.c ****         *(__IO uint8_t *)((uint32_t)(deviceaddress | ADDR_AREA)) = ADDR_1ST_CYCLE(nandaddress);
 1255              		.loc 1 544 27
 1256 0178 7B6A     		ldr	r3, [r7, #36]
 1257 017a 43F40033 		orr	r3, r3, #131072
 1258              		.loc 1 544 68
 1259 017e FA69     		ldr	r2, [r7, #28]
 1260 0180 D2B2     		uxtb	r2, r2
 1261              		.loc 1 544 66
 1262 0182 1A70     		strb	r2, [r3]
 545:./Libraries/STM32F4xx_HAL_Driver/Src/stm32f4xx_hal_nand.c ****         *(__IO uint8_t *)((uint32_t)(deviceaddress | ADDR_AREA)) = ADDR_2ND_CYCLE(nandaddress);
 1263              		.loc 1 545 68
 1264 0184 FB69     		ldr	r3, [r7, #28]
 1265 0186 1A0A     		lsrs	r2, r3, #8
 1266              		.loc 1 545 27
 1267 0188 7B6A     		ldr	r3, [r7, #36]
 1268 018a 43F40033 		orr	r3, r3, #131072
 1269              		.loc 1 545 68
 1270 018e D2B2     		uxtb	r2, r2
 1271              		.loc 1 545 66
 1272 0190 1A70     		strb	r2, [r3]
 546:./Libraries/STM32F4xx_HAL_Driver/Src/stm32f4xx_hal_nand.c ****         *(__IO uint8_t *)((uint32_t)(deviceaddress | ADDR_AREA)) = ADDR_3RD_CYCLE(nandaddress);
 1273              		.loc 1 546 68
 1274 0192 FB69     		ldr	r3, [r7, #28]
 1275 0194 1A0C     		lsrs	r2, r3, #16
 1276              		.loc 1 546 27
 1277 0196 7B6A     		ldr	r3, [r7, #36]
 1278 0198 43F40033 		orr	r3, r3, #131072
 1279              		.loc 1 546 68
 1280 019c D2B2     		uxtb	r2, r2
 1281              		.loc 1 546 66
 1282 019e 1A70     		strb	r2, [r3]
 1283              	.L55:
 547:./Libraries/STM32F4xx_HAL_Driver/Src/stm32f4xx_hal_nand.c ****       }
 548:./Libraries/STM32F4xx_HAL_Driver/Src/stm32f4xx_hal_nand.c ****     }
 549:./Libraries/STM32F4xx_HAL_Driver/Src/stm32f4xx_hal_nand.c ****   
 550:./Libraries/STM32F4xx_HAL_Driver/Src/stm32f4xx_hal_nand.c ****     *(__IO uint8_t *)((uint32_t)(deviceaddress | CMD_AREA))  = NAND_CMD_AREA_TRUE1;
 1284              		.loc 1 550 23
 1285 01a0 7B6A     		ldr	r3, [r7, #36]
 1286 01a2 43F48033 		orr	r3, r3, #65536
 1287              		.loc 1 550 62
 1288 01a6 3022     		movs	r2, #48
 1289 01a8 1A70     		strb	r2, [r3]
 551:./Libraries/STM32F4xx_HAL_Driver/Src/stm32f4xx_hal_nand.c ****       
 552:./Libraries/STM32F4xx_HAL_Driver/Src/stm32f4xx_hal_nand.c ****     /* Check if an extra command is needed for reading pages  */
 553:./Libraries/STM32F4xx_HAL_Driver/Src/stm32f4xx_hal_nand.c ****     if(hnand->Config.ExtraCommandEnable == ENABLE)
ARM GAS  /tmp/ccmBJYMF.s 			page 33


 1290              		.loc 1 553 21
 1291 01aa FB68     		ldr	r3, [r7, #12]
 1292 01ac 93F83C30 		ldrb	r3, [r3, #60]	@ zero_extendqisi2
 1293              		.loc 1 553 7
 1294 01b0 012B     		cmp	r3, #1
 1295 01b2 25D1     		bne	.L60
 554:./Libraries/STM32F4xx_HAL_Driver/Src/stm32f4xx_hal_nand.c ****     {
 555:./Libraries/STM32F4xx_HAL_Driver/Src/stm32f4xx_hal_nand.c ****       /* Get tick */
 556:./Libraries/STM32F4xx_HAL_Driver/Src/stm32f4xx_hal_nand.c ****       tickstart = HAL_GetTick();
 1296              		.loc 1 556 19
 1297 01b4 FFF7FEFF 		bl	HAL_GetTick
 1298 01b8 B861     		str	r0, [r7, #24]
 557:./Libraries/STM32F4xx_HAL_Driver/Src/stm32f4xx_hal_nand.c ****       
 558:./Libraries/STM32F4xx_HAL_Driver/Src/stm32f4xx_hal_nand.c ****       /* Read status until NAND is ready */
 559:./Libraries/STM32F4xx_HAL_Driver/Src/stm32f4xx_hal_nand.c ****       while(HAL_NAND_Read_Status(hnand) != NAND_READY)
 1299              		.loc 1 559 12
 1300 01ba 09E0     		b	.L58
 1301              	.L59:
 560:./Libraries/STM32F4xx_HAL_Driver/Src/stm32f4xx_hal_nand.c ****       {
 561:./Libraries/STM32F4xx_HAL_Driver/Src/stm32f4xx_hal_nand.c ****         if((HAL_GetTick() - tickstart ) > NAND_WRITE_TIMEOUT)
 1302              		.loc 1 561 13
 1303 01bc FFF7FEFF 		bl	HAL_GetTick
 1304 01c0 0246     		mov	r2, r0
 1305              		.loc 1 561 27
 1306 01c2 BB69     		ldr	r3, [r7, #24]
 1307 01c4 D31A     		subs	r3, r2, r3
 1308              		.loc 1 561 11
 1309 01c6 B3F1807F 		cmp	r3, #16777216
 1310 01ca 01D9     		bls	.L58
 562:./Libraries/STM32F4xx_HAL_Driver/Src/stm32f4xx_hal_nand.c ****         {
 563:./Libraries/STM32F4xx_HAL_Driver/Src/stm32f4xx_hal_nand.c ****           return HAL_TIMEOUT; 
 1311              		.loc 1 563 18
 1312 01cc 0323     		movs	r3, #3
 1313 01ce 3AE0     		b	.L48
 1314              	.L58:
 559:./Libraries/STM32F4xx_HAL_Driver/Src/stm32f4xx_hal_nand.c ****       {
 1315              		.loc 1 559 13
 1316 01d0 F868     		ldr	r0, [r7, #12]
 1317 01d2 FFF7FEFF 		bl	HAL_NAND_Read_Status
 1318 01d6 0346     		mov	r3, r0
 559:./Libraries/STM32F4xx_HAL_Driver/Src/stm32f4xx_hal_nand.c ****       {
 1319              		.loc 1 559 12
 1320 01d8 402B     		cmp	r3, #64
 1321 01da EFD1     		bne	.L59
 564:./Libraries/STM32F4xx_HAL_Driver/Src/stm32f4xx_hal_nand.c ****         }
 565:./Libraries/STM32F4xx_HAL_Driver/Src/stm32f4xx_hal_nand.c ****       }
 566:./Libraries/STM32F4xx_HAL_Driver/Src/stm32f4xx_hal_nand.c ****       
 567:./Libraries/STM32F4xx_HAL_Driver/Src/stm32f4xx_hal_nand.c ****       /* Go back to read mode */
 568:./Libraries/STM32F4xx_HAL_Driver/Src/stm32f4xx_hal_nand.c ****       *(__IO uint8_t *)((uint32_t)(deviceaddress | CMD_AREA)) = ((uint8_t)0x00);
 1322              		.loc 1 568 25
 1323 01dc 7B6A     		ldr	r3, [r7, #36]
 1324 01de 43F48033 		orr	r3, r3, #65536
 1325              		.loc 1 568 63
 1326 01e2 0022     		movs	r2, #0
 1327 01e4 1A70     		strb	r2, [r3]
 1328              	.LBB14:
 1329              	.LBB15:
ARM GAS  /tmp/ccmBJYMF.s 			page 34


 1330              		.file 2 "./Libraries/CMSIS/Include/cmsis_gcc.h"
   1:./Libraries/CMSIS/Include/cmsis_gcc.h **** /**************************************************************************//**
   2:./Libraries/CMSIS/Include/cmsis_gcc.h ****  * @file     cmsis_gcc.h
   3:./Libraries/CMSIS/Include/cmsis_gcc.h ****  * @brief    CMSIS Cortex-M Core Function/Instruction Header File
   4:./Libraries/CMSIS/Include/cmsis_gcc.h ****  * @version  V4.30
   5:./Libraries/CMSIS/Include/cmsis_gcc.h ****  * @date     20. October 2015
   6:./Libraries/CMSIS/Include/cmsis_gcc.h ****  ******************************************************************************/
   7:./Libraries/CMSIS/Include/cmsis_gcc.h **** /* Copyright (c) 2009 - 2015 ARM LIMITED
   8:./Libraries/CMSIS/Include/cmsis_gcc.h **** 
   9:./Libraries/CMSIS/Include/cmsis_gcc.h ****    All rights reserved.
  10:./Libraries/CMSIS/Include/cmsis_gcc.h ****    Redistribution and use in source and binary forms, with or without
  11:./Libraries/CMSIS/Include/cmsis_gcc.h ****    modification, are permitted provided that the following conditions are met:
  12:./Libraries/CMSIS/Include/cmsis_gcc.h ****    - Redistributions of source code must retain the above copyright
  13:./Libraries/CMSIS/Include/cmsis_gcc.h ****      notice, this list of conditions and the following disclaimer.
  14:./Libraries/CMSIS/Include/cmsis_gcc.h ****    - Redistributions in binary form must reproduce the above copyright
  15:./Libraries/CMSIS/Include/cmsis_gcc.h ****      notice, this list of conditions and the following disclaimer in the
  16:./Libraries/CMSIS/Include/cmsis_gcc.h ****      documentation and/or other materials provided with the distribution.
  17:./Libraries/CMSIS/Include/cmsis_gcc.h ****    - Neither the name of ARM nor the names of its contributors may be used
  18:./Libraries/CMSIS/Include/cmsis_gcc.h ****      to endorse or promote products derived from this software without
  19:./Libraries/CMSIS/Include/cmsis_gcc.h ****      specific prior written permission.
  20:./Libraries/CMSIS/Include/cmsis_gcc.h ****    *
  21:./Libraries/CMSIS/Include/cmsis_gcc.h ****    THIS SOFTWARE IS PROVIDED BY THE COPYRIGHT HOLDERS AND CONTRIBUTORS "AS IS"
  22:./Libraries/CMSIS/Include/cmsis_gcc.h ****    AND ANY EXPRESS OR IMPLIED WARRANTIES, INCLUDING, BUT NOT LIMITED TO, THE
  23:./Libraries/CMSIS/Include/cmsis_gcc.h ****    IMPLIED WARRANTIES OF MERCHANTABILITY AND FITNESS FOR A PARTICULAR PURPOSE
  24:./Libraries/CMSIS/Include/cmsis_gcc.h ****    ARE DISCLAIMED. IN NO EVENT SHALL COPYRIGHT HOLDERS AND CONTRIBUTORS BE
  25:./Libraries/CMSIS/Include/cmsis_gcc.h ****    LIABLE FOR ANY DIRECT, INDIRECT, INCIDENTAL, SPECIAL, EXEMPLARY, OR
  26:./Libraries/CMSIS/Include/cmsis_gcc.h ****    CONSEQUENTIAL DAMAGES (INCLUDING, BUT NOT LIMITED TO, PROCUREMENT OF
  27:./Libraries/CMSIS/Include/cmsis_gcc.h ****    SUBSTITUTE GOODS OR SERVICES; LOSS OF USE, DATA, OR PROFITS; OR BUSINESS
  28:./Libraries/CMSIS/Include/cmsis_gcc.h ****    INTERRUPTION) HOWEVER CAUSED AND ON ANY THEORY OF LIABILITY, WHETHER IN
  29:./Libraries/CMSIS/Include/cmsis_gcc.h ****    CONTRACT, STRICT LIABILITY, OR TORT (INCLUDING NEGLIGENCE OR OTHERWISE)
  30:./Libraries/CMSIS/Include/cmsis_gcc.h ****    ARISING IN ANY WAY OUT OF THE USE OF THIS SOFTWARE, EVEN IF ADVISED OF THE
  31:./Libraries/CMSIS/Include/cmsis_gcc.h ****    POSSIBILITY OF SUCH DAMAGE.
  32:./Libraries/CMSIS/Include/cmsis_gcc.h ****    ---------------------------------------------------------------------------*/
  33:./Libraries/CMSIS/Include/cmsis_gcc.h **** 
  34:./Libraries/CMSIS/Include/cmsis_gcc.h **** 
  35:./Libraries/CMSIS/Include/cmsis_gcc.h **** #ifndef __CMSIS_GCC_H
  36:./Libraries/CMSIS/Include/cmsis_gcc.h **** #define __CMSIS_GCC_H
  37:./Libraries/CMSIS/Include/cmsis_gcc.h **** 
  38:./Libraries/CMSIS/Include/cmsis_gcc.h **** /* ignore some GCC warnings */
  39:./Libraries/CMSIS/Include/cmsis_gcc.h **** #if defined ( __GNUC__ )
  40:./Libraries/CMSIS/Include/cmsis_gcc.h **** #pragma GCC diagnostic push
  41:./Libraries/CMSIS/Include/cmsis_gcc.h **** #pragma GCC diagnostic ignored "-Wsign-conversion"
  42:./Libraries/CMSIS/Include/cmsis_gcc.h **** #pragma GCC diagnostic ignored "-Wconversion"
  43:./Libraries/CMSIS/Include/cmsis_gcc.h **** #pragma GCC diagnostic ignored "-Wunused-parameter"
  44:./Libraries/CMSIS/Include/cmsis_gcc.h **** #endif
  45:./Libraries/CMSIS/Include/cmsis_gcc.h **** 
  46:./Libraries/CMSIS/Include/cmsis_gcc.h **** 
  47:./Libraries/CMSIS/Include/cmsis_gcc.h **** /* ###########################  Core Function Access  ########################### */
  48:./Libraries/CMSIS/Include/cmsis_gcc.h **** /** \ingroup  CMSIS_Core_FunctionInterface
  49:./Libraries/CMSIS/Include/cmsis_gcc.h ****     \defgroup CMSIS_Core_RegAccFunctions CMSIS Core Register Access Functions
  50:./Libraries/CMSIS/Include/cmsis_gcc.h ****   @{
  51:./Libraries/CMSIS/Include/cmsis_gcc.h ****  */
  52:./Libraries/CMSIS/Include/cmsis_gcc.h **** 
  53:./Libraries/CMSIS/Include/cmsis_gcc.h **** /**
  54:./Libraries/CMSIS/Include/cmsis_gcc.h ****   \brief   Enable IRQ Interrupts
  55:./Libraries/CMSIS/Include/cmsis_gcc.h ****   \details Enables IRQ interrupts by clearing the I-bit in the CPSR.
  56:./Libraries/CMSIS/Include/cmsis_gcc.h ****            Can only be executed in Privileged modes.
ARM GAS  /tmp/ccmBJYMF.s 			page 35


  57:./Libraries/CMSIS/Include/cmsis_gcc.h ****  */
  58:./Libraries/CMSIS/Include/cmsis_gcc.h **** __attribute__( ( always_inline ) ) __STATIC_INLINE void __enable_irq(void)
  59:./Libraries/CMSIS/Include/cmsis_gcc.h **** {
  60:./Libraries/CMSIS/Include/cmsis_gcc.h ****   __ASM volatile ("cpsie i" : : : "memory");
  61:./Libraries/CMSIS/Include/cmsis_gcc.h **** }
  62:./Libraries/CMSIS/Include/cmsis_gcc.h **** 
  63:./Libraries/CMSIS/Include/cmsis_gcc.h **** 
  64:./Libraries/CMSIS/Include/cmsis_gcc.h **** /**
  65:./Libraries/CMSIS/Include/cmsis_gcc.h ****   \brief   Disable IRQ Interrupts
  66:./Libraries/CMSIS/Include/cmsis_gcc.h ****   \details Disables IRQ interrupts by setting the I-bit in the CPSR.
  67:./Libraries/CMSIS/Include/cmsis_gcc.h ****   Can only be executed in Privileged modes.
  68:./Libraries/CMSIS/Include/cmsis_gcc.h ****  */
  69:./Libraries/CMSIS/Include/cmsis_gcc.h **** __attribute__( ( always_inline ) ) __STATIC_INLINE void __disable_irq(void)
  70:./Libraries/CMSIS/Include/cmsis_gcc.h **** {
  71:./Libraries/CMSIS/Include/cmsis_gcc.h ****   __ASM volatile ("cpsid i" : : : "memory");
  72:./Libraries/CMSIS/Include/cmsis_gcc.h **** }
  73:./Libraries/CMSIS/Include/cmsis_gcc.h **** 
  74:./Libraries/CMSIS/Include/cmsis_gcc.h **** 
  75:./Libraries/CMSIS/Include/cmsis_gcc.h **** /**
  76:./Libraries/CMSIS/Include/cmsis_gcc.h ****   \brief   Get Control Register
  77:./Libraries/CMSIS/Include/cmsis_gcc.h ****   \details Returns the content of the Control Register.
  78:./Libraries/CMSIS/Include/cmsis_gcc.h ****   \return               Control Register value
  79:./Libraries/CMSIS/Include/cmsis_gcc.h ****  */
  80:./Libraries/CMSIS/Include/cmsis_gcc.h **** __attribute__( ( always_inline ) ) __STATIC_INLINE uint32_t __get_CONTROL(void)
  81:./Libraries/CMSIS/Include/cmsis_gcc.h **** {
  82:./Libraries/CMSIS/Include/cmsis_gcc.h ****   uint32_t result;
  83:./Libraries/CMSIS/Include/cmsis_gcc.h **** 
  84:./Libraries/CMSIS/Include/cmsis_gcc.h ****   __ASM volatile ("MRS %0, control" : "=r" (result) );
  85:./Libraries/CMSIS/Include/cmsis_gcc.h ****   return(result);
  86:./Libraries/CMSIS/Include/cmsis_gcc.h **** }
  87:./Libraries/CMSIS/Include/cmsis_gcc.h **** 
  88:./Libraries/CMSIS/Include/cmsis_gcc.h **** 
  89:./Libraries/CMSIS/Include/cmsis_gcc.h **** /**
  90:./Libraries/CMSIS/Include/cmsis_gcc.h ****   \brief   Set Control Register
  91:./Libraries/CMSIS/Include/cmsis_gcc.h ****   \details Writes the given value to the Control Register.
  92:./Libraries/CMSIS/Include/cmsis_gcc.h ****   \param [in]    control  Control Register value to set
  93:./Libraries/CMSIS/Include/cmsis_gcc.h ****  */
  94:./Libraries/CMSIS/Include/cmsis_gcc.h **** __attribute__( ( always_inline ) ) __STATIC_INLINE void __set_CONTROL(uint32_t control)
  95:./Libraries/CMSIS/Include/cmsis_gcc.h **** {
  96:./Libraries/CMSIS/Include/cmsis_gcc.h ****   __ASM volatile ("MSR control, %0" : : "r" (control) : "memory");
  97:./Libraries/CMSIS/Include/cmsis_gcc.h **** }
  98:./Libraries/CMSIS/Include/cmsis_gcc.h **** 
  99:./Libraries/CMSIS/Include/cmsis_gcc.h **** 
 100:./Libraries/CMSIS/Include/cmsis_gcc.h **** /**
 101:./Libraries/CMSIS/Include/cmsis_gcc.h ****   \brief   Get IPSR Register
 102:./Libraries/CMSIS/Include/cmsis_gcc.h ****   \details Returns the content of the IPSR Register.
 103:./Libraries/CMSIS/Include/cmsis_gcc.h ****   \return               IPSR Register value
 104:./Libraries/CMSIS/Include/cmsis_gcc.h ****  */
 105:./Libraries/CMSIS/Include/cmsis_gcc.h **** __attribute__( ( always_inline ) ) __STATIC_INLINE uint32_t __get_IPSR(void)
 106:./Libraries/CMSIS/Include/cmsis_gcc.h **** {
 107:./Libraries/CMSIS/Include/cmsis_gcc.h ****   uint32_t result;
 108:./Libraries/CMSIS/Include/cmsis_gcc.h **** 
 109:./Libraries/CMSIS/Include/cmsis_gcc.h ****   __ASM volatile ("MRS %0, ipsr" : "=r" (result) );
 110:./Libraries/CMSIS/Include/cmsis_gcc.h ****   return(result);
 111:./Libraries/CMSIS/Include/cmsis_gcc.h **** }
 112:./Libraries/CMSIS/Include/cmsis_gcc.h **** 
 113:./Libraries/CMSIS/Include/cmsis_gcc.h **** 
ARM GAS  /tmp/ccmBJYMF.s 			page 36


 114:./Libraries/CMSIS/Include/cmsis_gcc.h **** /**
 115:./Libraries/CMSIS/Include/cmsis_gcc.h ****   \brief   Get APSR Register
 116:./Libraries/CMSIS/Include/cmsis_gcc.h ****   \details Returns the content of the APSR Register.
 117:./Libraries/CMSIS/Include/cmsis_gcc.h ****   \return               APSR Register value
 118:./Libraries/CMSIS/Include/cmsis_gcc.h ****  */
 119:./Libraries/CMSIS/Include/cmsis_gcc.h **** __attribute__( ( always_inline ) ) __STATIC_INLINE uint32_t __get_APSR(void)
 120:./Libraries/CMSIS/Include/cmsis_gcc.h **** {
 121:./Libraries/CMSIS/Include/cmsis_gcc.h ****   uint32_t result;
 122:./Libraries/CMSIS/Include/cmsis_gcc.h **** 
 123:./Libraries/CMSIS/Include/cmsis_gcc.h ****   __ASM volatile ("MRS %0, apsr" : "=r" (result) );
 124:./Libraries/CMSIS/Include/cmsis_gcc.h ****   return(result);
 125:./Libraries/CMSIS/Include/cmsis_gcc.h **** }
 126:./Libraries/CMSIS/Include/cmsis_gcc.h **** 
 127:./Libraries/CMSIS/Include/cmsis_gcc.h **** 
 128:./Libraries/CMSIS/Include/cmsis_gcc.h **** /**
 129:./Libraries/CMSIS/Include/cmsis_gcc.h ****   \brief   Get xPSR Register
 130:./Libraries/CMSIS/Include/cmsis_gcc.h ****   \details Returns the content of the xPSR Register.
 131:./Libraries/CMSIS/Include/cmsis_gcc.h **** 
 132:./Libraries/CMSIS/Include/cmsis_gcc.h ****     \return               xPSR Register value
 133:./Libraries/CMSIS/Include/cmsis_gcc.h ****  */
 134:./Libraries/CMSIS/Include/cmsis_gcc.h **** __attribute__( ( always_inline ) ) __STATIC_INLINE uint32_t __get_xPSR(void)
 135:./Libraries/CMSIS/Include/cmsis_gcc.h **** {
 136:./Libraries/CMSIS/Include/cmsis_gcc.h ****   uint32_t result;
 137:./Libraries/CMSIS/Include/cmsis_gcc.h **** 
 138:./Libraries/CMSIS/Include/cmsis_gcc.h ****   __ASM volatile ("MRS %0, xpsr" : "=r" (result) );
 139:./Libraries/CMSIS/Include/cmsis_gcc.h ****   return(result);
 140:./Libraries/CMSIS/Include/cmsis_gcc.h **** }
 141:./Libraries/CMSIS/Include/cmsis_gcc.h **** 
 142:./Libraries/CMSIS/Include/cmsis_gcc.h **** 
 143:./Libraries/CMSIS/Include/cmsis_gcc.h **** /**
 144:./Libraries/CMSIS/Include/cmsis_gcc.h ****   \brief   Get Process Stack Pointer
 145:./Libraries/CMSIS/Include/cmsis_gcc.h ****   \details Returns the current value of the Process Stack Pointer (PSP).
 146:./Libraries/CMSIS/Include/cmsis_gcc.h ****   \return               PSP Register value
 147:./Libraries/CMSIS/Include/cmsis_gcc.h ****  */
 148:./Libraries/CMSIS/Include/cmsis_gcc.h **** __attribute__( ( always_inline ) ) __STATIC_INLINE uint32_t __get_PSP(void)
 149:./Libraries/CMSIS/Include/cmsis_gcc.h **** {
 150:./Libraries/CMSIS/Include/cmsis_gcc.h ****   register uint32_t result;
 151:./Libraries/CMSIS/Include/cmsis_gcc.h **** 
 152:./Libraries/CMSIS/Include/cmsis_gcc.h ****   __ASM volatile ("MRS %0, psp\n"  : "=r" (result) );
 153:./Libraries/CMSIS/Include/cmsis_gcc.h ****   return(result);
 154:./Libraries/CMSIS/Include/cmsis_gcc.h **** }
 155:./Libraries/CMSIS/Include/cmsis_gcc.h **** 
 156:./Libraries/CMSIS/Include/cmsis_gcc.h **** 
 157:./Libraries/CMSIS/Include/cmsis_gcc.h **** /**
 158:./Libraries/CMSIS/Include/cmsis_gcc.h ****   \brief   Set Process Stack Pointer
 159:./Libraries/CMSIS/Include/cmsis_gcc.h ****   \details Assigns the given value to the Process Stack Pointer (PSP).
 160:./Libraries/CMSIS/Include/cmsis_gcc.h ****   \param [in]    topOfProcStack  Process Stack Pointer value to set
 161:./Libraries/CMSIS/Include/cmsis_gcc.h ****  */
 162:./Libraries/CMSIS/Include/cmsis_gcc.h **** __attribute__( ( always_inline ) ) __STATIC_INLINE void __set_PSP(uint32_t topOfProcStack)
 163:./Libraries/CMSIS/Include/cmsis_gcc.h **** {
 164:./Libraries/CMSIS/Include/cmsis_gcc.h ****   __ASM volatile ("MSR psp, %0\n" : : "r" (topOfProcStack) : "sp");
 165:./Libraries/CMSIS/Include/cmsis_gcc.h **** }
 166:./Libraries/CMSIS/Include/cmsis_gcc.h **** 
 167:./Libraries/CMSIS/Include/cmsis_gcc.h **** 
 168:./Libraries/CMSIS/Include/cmsis_gcc.h **** /**
 169:./Libraries/CMSIS/Include/cmsis_gcc.h ****   \brief   Get Main Stack Pointer
 170:./Libraries/CMSIS/Include/cmsis_gcc.h ****   \details Returns the current value of the Main Stack Pointer (MSP).
ARM GAS  /tmp/ccmBJYMF.s 			page 37


 171:./Libraries/CMSIS/Include/cmsis_gcc.h ****   \return               MSP Register value
 172:./Libraries/CMSIS/Include/cmsis_gcc.h ****  */
 173:./Libraries/CMSIS/Include/cmsis_gcc.h **** __attribute__( ( always_inline ) ) __STATIC_INLINE uint32_t __get_MSP(void)
 174:./Libraries/CMSIS/Include/cmsis_gcc.h **** {
 175:./Libraries/CMSIS/Include/cmsis_gcc.h ****   register uint32_t result;
 176:./Libraries/CMSIS/Include/cmsis_gcc.h **** 
 177:./Libraries/CMSIS/Include/cmsis_gcc.h ****   __ASM volatile ("MRS %0, msp\n" : "=r" (result) );
 178:./Libraries/CMSIS/Include/cmsis_gcc.h ****   return(result);
 179:./Libraries/CMSIS/Include/cmsis_gcc.h **** }
 180:./Libraries/CMSIS/Include/cmsis_gcc.h **** 
 181:./Libraries/CMSIS/Include/cmsis_gcc.h **** 
 182:./Libraries/CMSIS/Include/cmsis_gcc.h **** /**
 183:./Libraries/CMSIS/Include/cmsis_gcc.h ****   \brief   Set Main Stack Pointer
 184:./Libraries/CMSIS/Include/cmsis_gcc.h ****   \details Assigns the given value to the Main Stack Pointer (MSP).
 185:./Libraries/CMSIS/Include/cmsis_gcc.h **** 
 186:./Libraries/CMSIS/Include/cmsis_gcc.h ****     \param [in]    topOfMainStack  Main Stack Pointer value to set
 187:./Libraries/CMSIS/Include/cmsis_gcc.h ****  */
 188:./Libraries/CMSIS/Include/cmsis_gcc.h **** __attribute__( ( always_inline ) ) __STATIC_INLINE void __set_MSP(uint32_t topOfMainStack)
 189:./Libraries/CMSIS/Include/cmsis_gcc.h **** {
 190:./Libraries/CMSIS/Include/cmsis_gcc.h ****   __ASM volatile ("MSR msp, %0\n" : : "r" (topOfMainStack) : "sp");
 191:./Libraries/CMSIS/Include/cmsis_gcc.h **** }
 192:./Libraries/CMSIS/Include/cmsis_gcc.h **** 
 193:./Libraries/CMSIS/Include/cmsis_gcc.h **** 
 194:./Libraries/CMSIS/Include/cmsis_gcc.h **** /**
 195:./Libraries/CMSIS/Include/cmsis_gcc.h ****   \brief   Get Priority Mask
 196:./Libraries/CMSIS/Include/cmsis_gcc.h ****   \details Returns the current state of the priority mask bit from the Priority Mask Register.
 197:./Libraries/CMSIS/Include/cmsis_gcc.h ****   \return               Priority Mask value
 198:./Libraries/CMSIS/Include/cmsis_gcc.h ****  */
 199:./Libraries/CMSIS/Include/cmsis_gcc.h **** __attribute__( ( always_inline ) ) __STATIC_INLINE uint32_t __get_PRIMASK(void)
 200:./Libraries/CMSIS/Include/cmsis_gcc.h **** {
 201:./Libraries/CMSIS/Include/cmsis_gcc.h ****   uint32_t result;
 202:./Libraries/CMSIS/Include/cmsis_gcc.h **** 
 203:./Libraries/CMSIS/Include/cmsis_gcc.h ****   __ASM volatile ("MRS %0, primask" : "=r" (result) );
 204:./Libraries/CMSIS/Include/cmsis_gcc.h ****   return(result);
 205:./Libraries/CMSIS/Include/cmsis_gcc.h **** }
 206:./Libraries/CMSIS/Include/cmsis_gcc.h **** 
 207:./Libraries/CMSIS/Include/cmsis_gcc.h **** 
 208:./Libraries/CMSIS/Include/cmsis_gcc.h **** /**
 209:./Libraries/CMSIS/Include/cmsis_gcc.h ****   \brief   Set Priority Mask
 210:./Libraries/CMSIS/Include/cmsis_gcc.h ****   \details Assigns the given value to the Priority Mask Register.
 211:./Libraries/CMSIS/Include/cmsis_gcc.h ****   \param [in]    priMask  Priority Mask
 212:./Libraries/CMSIS/Include/cmsis_gcc.h ****  */
 213:./Libraries/CMSIS/Include/cmsis_gcc.h **** __attribute__( ( always_inline ) ) __STATIC_INLINE void __set_PRIMASK(uint32_t priMask)
 214:./Libraries/CMSIS/Include/cmsis_gcc.h **** {
 215:./Libraries/CMSIS/Include/cmsis_gcc.h ****   __ASM volatile ("MSR primask, %0" : : "r" (priMask) : "memory");
 216:./Libraries/CMSIS/Include/cmsis_gcc.h **** }
 217:./Libraries/CMSIS/Include/cmsis_gcc.h **** 
 218:./Libraries/CMSIS/Include/cmsis_gcc.h **** 
 219:./Libraries/CMSIS/Include/cmsis_gcc.h **** #if       (__CORTEX_M >= 0x03U)
 220:./Libraries/CMSIS/Include/cmsis_gcc.h **** 
 221:./Libraries/CMSIS/Include/cmsis_gcc.h **** /**
 222:./Libraries/CMSIS/Include/cmsis_gcc.h ****   \brief   Enable FIQ
 223:./Libraries/CMSIS/Include/cmsis_gcc.h ****   \details Enables FIQ interrupts by clearing the F-bit in the CPSR.
 224:./Libraries/CMSIS/Include/cmsis_gcc.h ****            Can only be executed in Privileged modes.
 225:./Libraries/CMSIS/Include/cmsis_gcc.h ****  */
 226:./Libraries/CMSIS/Include/cmsis_gcc.h **** __attribute__( ( always_inline ) ) __STATIC_INLINE void __enable_fault_irq(void)
 227:./Libraries/CMSIS/Include/cmsis_gcc.h **** {
ARM GAS  /tmp/ccmBJYMF.s 			page 38


 228:./Libraries/CMSIS/Include/cmsis_gcc.h ****   __ASM volatile ("cpsie f" : : : "memory");
 229:./Libraries/CMSIS/Include/cmsis_gcc.h **** }
 230:./Libraries/CMSIS/Include/cmsis_gcc.h **** 
 231:./Libraries/CMSIS/Include/cmsis_gcc.h **** 
 232:./Libraries/CMSIS/Include/cmsis_gcc.h **** /**
 233:./Libraries/CMSIS/Include/cmsis_gcc.h ****   \brief   Disable FIQ
 234:./Libraries/CMSIS/Include/cmsis_gcc.h ****   \details Disables FIQ interrupts by setting the F-bit in the CPSR.
 235:./Libraries/CMSIS/Include/cmsis_gcc.h ****            Can only be executed in Privileged modes.
 236:./Libraries/CMSIS/Include/cmsis_gcc.h ****  */
 237:./Libraries/CMSIS/Include/cmsis_gcc.h **** __attribute__( ( always_inline ) ) __STATIC_INLINE void __disable_fault_irq(void)
 238:./Libraries/CMSIS/Include/cmsis_gcc.h **** {
 239:./Libraries/CMSIS/Include/cmsis_gcc.h ****   __ASM volatile ("cpsid f" : : : "memory");
 240:./Libraries/CMSIS/Include/cmsis_gcc.h **** }
 241:./Libraries/CMSIS/Include/cmsis_gcc.h **** 
 242:./Libraries/CMSIS/Include/cmsis_gcc.h **** 
 243:./Libraries/CMSIS/Include/cmsis_gcc.h **** /**
 244:./Libraries/CMSIS/Include/cmsis_gcc.h ****   \brief   Get Base Priority
 245:./Libraries/CMSIS/Include/cmsis_gcc.h ****   \details Returns the current value of the Base Priority register.
 246:./Libraries/CMSIS/Include/cmsis_gcc.h ****   \return               Base Priority register value
 247:./Libraries/CMSIS/Include/cmsis_gcc.h ****  */
 248:./Libraries/CMSIS/Include/cmsis_gcc.h **** __attribute__( ( always_inline ) ) __STATIC_INLINE uint32_t __get_BASEPRI(void)
 249:./Libraries/CMSIS/Include/cmsis_gcc.h **** {
 250:./Libraries/CMSIS/Include/cmsis_gcc.h ****   uint32_t result;
 251:./Libraries/CMSIS/Include/cmsis_gcc.h **** 
 252:./Libraries/CMSIS/Include/cmsis_gcc.h ****   __ASM volatile ("MRS %0, basepri" : "=r" (result) );
 253:./Libraries/CMSIS/Include/cmsis_gcc.h ****   return(result);
 254:./Libraries/CMSIS/Include/cmsis_gcc.h **** }
 255:./Libraries/CMSIS/Include/cmsis_gcc.h **** 
 256:./Libraries/CMSIS/Include/cmsis_gcc.h **** 
 257:./Libraries/CMSIS/Include/cmsis_gcc.h **** /**
 258:./Libraries/CMSIS/Include/cmsis_gcc.h ****   \brief   Set Base Priority
 259:./Libraries/CMSIS/Include/cmsis_gcc.h ****   \details Assigns the given value to the Base Priority register.
 260:./Libraries/CMSIS/Include/cmsis_gcc.h ****   \param [in]    basePri  Base Priority value to set
 261:./Libraries/CMSIS/Include/cmsis_gcc.h ****  */
 262:./Libraries/CMSIS/Include/cmsis_gcc.h **** __attribute__( ( always_inline ) ) __STATIC_INLINE void __set_BASEPRI(uint32_t value)
 263:./Libraries/CMSIS/Include/cmsis_gcc.h **** {
 264:./Libraries/CMSIS/Include/cmsis_gcc.h ****   __ASM volatile ("MSR basepri, %0" : : "r" (value) : "memory");
 265:./Libraries/CMSIS/Include/cmsis_gcc.h **** }
 266:./Libraries/CMSIS/Include/cmsis_gcc.h **** 
 267:./Libraries/CMSIS/Include/cmsis_gcc.h **** 
 268:./Libraries/CMSIS/Include/cmsis_gcc.h **** /**
 269:./Libraries/CMSIS/Include/cmsis_gcc.h ****   \brief   Set Base Priority with condition
 270:./Libraries/CMSIS/Include/cmsis_gcc.h ****   \details Assigns the given value to the Base Priority register only if BASEPRI masking is disable
 271:./Libraries/CMSIS/Include/cmsis_gcc.h ****            or the new value increases the BASEPRI priority level.
 272:./Libraries/CMSIS/Include/cmsis_gcc.h ****   \param [in]    basePri  Base Priority value to set
 273:./Libraries/CMSIS/Include/cmsis_gcc.h ****  */
 274:./Libraries/CMSIS/Include/cmsis_gcc.h **** __attribute__( ( always_inline ) ) __STATIC_INLINE void __set_BASEPRI_MAX(uint32_t value)
 275:./Libraries/CMSIS/Include/cmsis_gcc.h **** {
 276:./Libraries/CMSIS/Include/cmsis_gcc.h ****   __ASM volatile ("MSR basepri_max, %0" : : "r" (value) : "memory");
 277:./Libraries/CMSIS/Include/cmsis_gcc.h **** }
 278:./Libraries/CMSIS/Include/cmsis_gcc.h **** 
 279:./Libraries/CMSIS/Include/cmsis_gcc.h **** 
 280:./Libraries/CMSIS/Include/cmsis_gcc.h **** /**
 281:./Libraries/CMSIS/Include/cmsis_gcc.h ****   \brief   Get Fault Mask
 282:./Libraries/CMSIS/Include/cmsis_gcc.h ****   \details Returns the current value of the Fault Mask register.
 283:./Libraries/CMSIS/Include/cmsis_gcc.h ****   \return               Fault Mask register value
 284:./Libraries/CMSIS/Include/cmsis_gcc.h ****  */
ARM GAS  /tmp/ccmBJYMF.s 			page 39


 285:./Libraries/CMSIS/Include/cmsis_gcc.h **** __attribute__( ( always_inline ) ) __STATIC_INLINE uint32_t __get_FAULTMASK(void)
 286:./Libraries/CMSIS/Include/cmsis_gcc.h **** {
 287:./Libraries/CMSIS/Include/cmsis_gcc.h ****   uint32_t result;
 288:./Libraries/CMSIS/Include/cmsis_gcc.h **** 
 289:./Libraries/CMSIS/Include/cmsis_gcc.h ****   __ASM volatile ("MRS %0, faultmask" : "=r" (result) );
 290:./Libraries/CMSIS/Include/cmsis_gcc.h ****   return(result);
 291:./Libraries/CMSIS/Include/cmsis_gcc.h **** }
 292:./Libraries/CMSIS/Include/cmsis_gcc.h **** 
 293:./Libraries/CMSIS/Include/cmsis_gcc.h **** 
 294:./Libraries/CMSIS/Include/cmsis_gcc.h **** /**
 295:./Libraries/CMSIS/Include/cmsis_gcc.h ****   \brief   Set Fault Mask
 296:./Libraries/CMSIS/Include/cmsis_gcc.h ****   \details Assigns the given value to the Fault Mask register.
 297:./Libraries/CMSIS/Include/cmsis_gcc.h ****   \param [in]    faultMask  Fault Mask value to set
 298:./Libraries/CMSIS/Include/cmsis_gcc.h ****  */
 299:./Libraries/CMSIS/Include/cmsis_gcc.h **** __attribute__( ( always_inline ) ) __STATIC_INLINE void __set_FAULTMASK(uint32_t faultMask)
 300:./Libraries/CMSIS/Include/cmsis_gcc.h **** {
 301:./Libraries/CMSIS/Include/cmsis_gcc.h ****   __ASM volatile ("MSR faultmask, %0" : : "r" (faultMask) : "memory");
 302:./Libraries/CMSIS/Include/cmsis_gcc.h **** }
 303:./Libraries/CMSIS/Include/cmsis_gcc.h **** 
 304:./Libraries/CMSIS/Include/cmsis_gcc.h **** #endif /* (__CORTEX_M >= 0x03U) */
 305:./Libraries/CMSIS/Include/cmsis_gcc.h **** 
 306:./Libraries/CMSIS/Include/cmsis_gcc.h **** 
 307:./Libraries/CMSIS/Include/cmsis_gcc.h **** #if       (__CORTEX_M == 0x04U) || (__CORTEX_M == 0x07U)
 308:./Libraries/CMSIS/Include/cmsis_gcc.h **** 
 309:./Libraries/CMSIS/Include/cmsis_gcc.h **** /**
 310:./Libraries/CMSIS/Include/cmsis_gcc.h ****   \brief   Get FPSCR
 311:./Libraries/CMSIS/Include/cmsis_gcc.h ****   \details Returns the current value of the Floating Point Status/Control register.
 312:./Libraries/CMSIS/Include/cmsis_gcc.h ****   \return               Floating Point Status/Control register value
 313:./Libraries/CMSIS/Include/cmsis_gcc.h ****  */
 314:./Libraries/CMSIS/Include/cmsis_gcc.h **** __attribute__( ( always_inline ) ) __STATIC_INLINE uint32_t __get_FPSCR(void)
 315:./Libraries/CMSIS/Include/cmsis_gcc.h **** {
 316:./Libraries/CMSIS/Include/cmsis_gcc.h **** #if (__FPU_PRESENT == 1U) && (__FPU_USED == 1U)
 317:./Libraries/CMSIS/Include/cmsis_gcc.h ****   uint32_t result;
 318:./Libraries/CMSIS/Include/cmsis_gcc.h **** 
 319:./Libraries/CMSIS/Include/cmsis_gcc.h ****   /* Empty asm statement works as a scheduling barrier */
 320:./Libraries/CMSIS/Include/cmsis_gcc.h ****   __ASM volatile ("");
 321:./Libraries/CMSIS/Include/cmsis_gcc.h ****   __ASM volatile ("VMRS %0, fpscr" : "=r" (result) );
 322:./Libraries/CMSIS/Include/cmsis_gcc.h ****   __ASM volatile ("");
 323:./Libraries/CMSIS/Include/cmsis_gcc.h ****   return(result);
 324:./Libraries/CMSIS/Include/cmsis_gcc.h **** #else
 325:./Libraries/CMSIS/Include/cmsis_gcc.h ****    return(0);
 326:./Libraries/CMSIS/Include/cmsis_gcc.h **** #endif
 327:./Libraries/CMSIS/Include/cmsis_gcc.h **** }
 328:./Libraries/CMSIS/Include/cmsis_gcc.h **** 
 329:./Libraries/CMSIS/Include/cmsis_gcc.h **** 
 330:./Libraries/CMSIS/Include/cmsis_gcc.h **** /**
 331:./Libraries/CMSIS/Include/cmsis_gcc.h ****   \brief   Set FPSCR
 332:./Libraries/CMSIS/Include/cmsis_gcc.h ****   \details Assigns the given value to the Floating Point Status/Control register.
 333:./Libraries/CMSIS/Include/cmsis_gcc.h ****   \param [in]    fpscr  Floating Point Status/Control value to set
 334:./Libraries/CMSIS/Include/cmsis_gcc.h ****  */
 335:./Libraries/CMSIS/Include/cmsis_gcc.h **** __attribute__( ( always_inline ) ) __STATIC_INLINE void __set_FPSCR(uint32_t fpscr)
 336:./Libraries/CMSIS/Include/cmsis_gcc.h **** {
 337:./Libraries/CMSIS/Include/cmsis_gcc.h **** #if (__FPU_PRESENT == 1U) && (__FPU_USED == 1U)
 338:./Libraries/CMSIS/Include/cmsis_gcc.h ****   /* Empty asm statement works as a scheduling barrier */
 339:./Libraries/CMSIS/Include/cmsis_gcc.h ****   __ASM volatile ("");
 340:./Libraries/CMSIS/Include/cmsis_gcc.h ****   __ASM volatile ("VMSR fpscr, %0" : : "r" (fpscr) : "vfpcc");
 341:./Libraries/CMSIS/Include/cmsis_gcc.h ****   __ASM volatile ("");
ARM GAS  /tmp/ccmBJYMF.s 			page 40


 342:./Libraries/CMSIS/Include/cmsis_gcc.h **** #endif
 343:./Libraries/CMSIS/Include/cmsis_gcc.h **** }
 344:./Libraries/CMSIS/Include/cmsis_gcc.h **** 
 345:./Libraries/CMSIS/Include/cmsis_gcc.h **** #endif /* (__CORTEX_M == 0x04U) || (__CORTEX_M == 0x07U) */
 346:./Libraries/CMSIS/Include/cmsis_gcc.h **** 
 347:./Libraries/CMSIS/Include/cmsis_gcc.h **** 
 348:./Libraries/CMSIS/Include/cmsis_gcc.h **** 
 349:./Libraries/CMSIS/Include/cmsis_gcc.h **** /*@} end of CMSIS_Core_RegAccFunctions */
 350:./Libraries/CMSIS/Include/cmsis_gcc.h **** 
 351:./Libraries/CMSIS/Include/cmsis_gcc.h **** 
 352:./Libraries/CMSIS/Include/cmsis_gcc.h **** /* ##########################  Core Instruction Access  ######################### */
 353:./Libraries/CMSIS/Include/cmsis_gcc.h **** /** \defgroup CMSIS_Core_InstructionInterface CMSIS Core Instruction Interface
 354:./Libraries/CMSIS/Include/cmsis_gcc.h ****   Access to dedicated instructions
 355:./Libraries/CMSIS/Include/cmsis_gcc.h ****   @{
 356:./Libraries/CMSIS/Include/cmsis_gcc.h **** */
 357:./Libraries/CMSIS/Include/cmsis_gcc.h **** 
 358:./Libraries/CMSIS/Include/cmsis_gcc.h **** /* Define macros for porting to both thumb1 and thumb2.
 359:./Libraries/CMSIS/Include/cmsis_gcc.h ****  * For thumb1, use low register (r0-r7), specified by constraint "l"
 360:./Libraries/CMSIS/Include/cmsis_gcc.h ****  * Otherwise, use general registers, specified by constraint "r" */
 361:./Libraries/CMSIS/Include/cmsis_gcc.h **** #if defined (__thumb__) && !defined (__thumb2__)
 362:./Libraries/CMSIS/Include/cmsis_gcc.h **** #define __CMSIS_GCC_OUT_REG(r) "=l" (r)
 363:./Libraries/CMSIS/Include/cmsis_gcc.h **** #define __CMSIS_GCC_USE_REG(r) "l" (r)
 364:./Libraries/CMSIS/Include/cmsis_gcc.h **** #else
 365:./Libraries/CMSIS/Include/cmsis_gcc.h **** #define __CMSIS_GCC_OUT_REG(r) "=r" (r)
 366:./Libraries/CMSIS/Include/cmsis_gcc.h **** #define __CMSIS_GCC_USE_REG(r) "r" (r)
 367:./Libraries/CMSIS/Include/cmsis_gcc.h **** #endif
 368:./Libraries/CMSIS/Include/cmsis_gcc.h **** 
 369:./Libraries/CMSIS/Include/cmsis_gcc.h **** /**
 370:./Libraries/CMSIS/Include/cmsis_gcc.h ****   \brief   No Operation
 371:./Libraries/CMSIS/Include/cmsis_gcc.h ****   \details No Operation does nothing. This instruction can be used for code alignment purposes.
 372:./Libraries/CMSIS/Include/cmsis_gcc.h ****  */
 373:./Libraries/CMSIS/Include/cmsis_gcc.h **** __attribute__((always_inline)) __STATIC_INLINE void __NOP(void)
 374:./Libraries/CMSIS/Include/cmsis_gcc.h **** {
 375:./Libraries/CMSIS/Include/cmsis_gcc.h ****   __ASM volatile ("nop");
 376:./Libraries/CMSIS/Include/cmsis_gcc.h **** }
 377:./Libraries/CMSIS/Include/cmsis_gcc.h **** 
 378:./Libraries/CMSIS/Include/cmsis_gcc.h **** 
 379:./Libraries/CMSIS/Include/cmsis_gcc.h **** /**
 380:./Libraries/CMSIS/Include/cmsis_gcc.h ****   \brief   Wait For Interrupt
 381:./Libraries/CMSIS/Include/cmsis_gcc.h ****   \details Wait For Interrupt is a hint instruction that suspends execution until one of a number o
 382:./Libraries/CMSIS/Include/cmsis_gcc.h ****  */
 383:./Libraries/CMSIS/Include/cmsis_gcc.h **** __attribute__((always_inline)) __STATIC_INLINE void __WFI(void)
 384:./Libraries/CMSIS/Include/cmsis_gcc.h **** {
 385:./Libraries/CMSIS/Include/cmsis_gcc.h ****   __ASM volatile ("wfi");
 386:./Libraries/CMSIS/Include/cmsis_gcc.h **** }
 387:./Libraries/CMSIS/Include/cmsis_gcc.h **** 
 388:./Libraries/CMSIS/Include/cmsis_gcc.h **** 
 389:./Libraries/CMSIS/Include/cmsis_gcc.h **** /**
 390:./Libraries/CMSIS/Include/cmsis_gcc.h ****   \brief   Wait For Event
 391:./Libraries/CMSIS/Include/cmsis_gcc.h ****   \details Wait For Event is a hint instruction that permits the processor to enter
 392:./Libraries/CMSIS/Include/cmsis_gcc.h ****     a low-power state until one of a number of events occurs.
 393:./Libraries/CMSIS/Include/cmsis_gcc.h ****  */
 394:./Libraries/CMSIS/Include/cmsis_gcc.h **** __attribute__((always_inline)) __STATIC_INLINE void __WFE(void)
 395:./Libraries/CMSIS/Include/cmsis_gcc.h **** {
 396:./Libraries/CMSIS/Include/cmsis_gcc.h ****   __ASM volatile ("wfe");
 397:./Libraries/CMSIS/Include/cmsis_gcc.h **** }
 398:./Libraries/CMSIS/Include/cmsis_gcc.h **** 
ARM GAS  /tmp/ccmBJYMF.s 			page 41


 399:./Libraries/CMSIS/Include/cmsis_gcc.h **** 
 400:./Libraries/CMSIS/Include/cmsis_gcc.h **** /**
 401:./Libraries/CMSIS/Include/cmsis_gcc.h ****   \brief   Send Event
 402:./Libraries/CMSIS/Include/cmsis_gcc.h ****   \details Send Event is a hint instruction. It causes an event to be signaled to the CPU.
 403:./Libraries/CMSIS/Include/cmsis_gcc.h ****  */
 404:./Libraries/CMSIS/Include/cmsis_gcc.h **** __attribute__((always_inline)) __STATIC_INLINE void __SEV(void)
 405:./Libraries/CMSIS/Include/cmsis_gcc.h **** {
 406:./Libraries/CMSIS/Include/cmsis_gcc.h ****   __ASM volatile ("sev");
 407:./Libraries/CMSIS/Include/cmsis_gcc.h **** }
 408:./Libraries/CMSIS/Include/cmsis_gcc.h **** 
 409:./Libraries/CMSIS/Include/cmsis_gcc.h **** 
 410:./Libraries/CMSIS/Include/cmsis_gcc.h **** /**
 411:./Libraries/CMSIS/Include/cmsis_gcc.h ****   \brief   Instruction Synchronization Barrier
 412:./Libraries/CMSIS/Include/cmsis_gcc.h ****   \details Instruction Synchronization Barrier flushes the pipeline in the processor,
 413:./Libraries/CMSIS/Include/cmsis_gcc.h ****            so that all instructions following the ISB are fetched from cache or memory,
 414:./Libraries/CMSIS/Include/cmsis_gcc.h ****            after the instruction has been completed.
 415:./Libraries/CMSIS/Include/cmsis_gcc.h ****  */
 416:./Libraries/CMSIS/Include/cmsis_gcc.h **** __attribute__((always_inline)) __STATIC_INLINE void __ISB(void)
 417:./Libraries/CMSIS/Include/cmsis_gcc.h **** {
 418:./Libraries/CMSIS/Include/cmsis_gcc.h ****   __ASM volatile ("isb 0xF":::"memory");
 419:./Libraries/CMSIS/Include/cmsis_gcc.h **** }
 420:./Libraries/CMSIS/Include/cmsis_gcc.h **** 
 421:./Libraries/CMSIS/Include/cmsis_gcc.h **** 
 422:./Libraries/CMSIS/Include/cmsis_gcc.h **** /**
 423:./Libraries/CMSIS/Include/cmsis_gcc.h ****   \brief   Data Synchronization Barrier
 424:./Libraries/CMSIS/Include/cmsis_gcc.h ****   \details Acts as a special kind of Data Memory Barrier.
 425:./Libraries/CMSIS/Include/cmsis_gcc.h ****            It completes when all explicit memory accesses before this instruction complete.
 426:./Libraries/CMSIS/Include/cmsis_gcc.h ****  */
 427:./Libraries/CMSIS/Include/cmsis_gcc.h **** __attribute__((always_inline)) __STATIC_INLINE void __DSB(void)
 428:./Libraries/CMSIS/Include/cmsis_gcc.h **** {
 429:./Libraries/CMSIS/Include/cmsis_gcc.h ****   __ASM volatile ("dsb 0xF":::"memory");
 1331              		.loc 2 429 3
 1332              		.syntax unified
 1333              	@ 429 "./Libraries/CMSIS/Include/cmsis_gcc.h" 1
 1334 01e6 BFF34F8F 		dsb 0xF
 1335              	@ 0 "" 2
 430:./Libraries/CMSIS/Include/cmsis_gcc.h **** }
 1336              		.loc 2 430 1
 1337              		.thumb
 1338              		.syntax unified
 1339 01ea 00BF     		nop
 1340              	.LBE15:
 1341              	.LBE14:
 569:./Libraries/STM32F4xx_HAL_Driver/Src/stm32f4xx_hal_nand.c ****       __DSB();
 570:./Libraries/STM32F4xx_HAL_Driver/Src/stm32f4xx_hal_nand.c ****     }
 571:./Libraries/STM32F4xx_HAL_Driver/Src/stm32f4xx_hal_nand.c ****     
 572:./Libraries/STM32F4xx_HAL_Driver/Src/stm32f4xx_hal_nand.c ****     /* Get Data into Buffer */    
 573:./Libraries/STM32F4xx_HAL_Driver/Src/stm32f4xx_hal_nand.c ****     for(; index < size; index++)
 1342              		.loc 1 573 5
 1343 01ec 08E0     		b	.L60
 1344              	.L61:
 574:./Libraries/STM32F4xx_HAL_Driver/Src/stm32f4xx_hal_nand.c ****     {
 575:./Libraries/STM32F4xx_HAL_Driver/Src/stm32f4xx_hal_nand.c ****       *(uint8_t *)pBuffer++ = *(uint8_t *)deviceaddress;
 1345              		.loc 1 575 32 discriminator 2
 1346 01ee 7A6A     		ldr	r2, [r7, #36]
 1347              		.loc 1 575 8 discriminator 2
 1348 01f0 7B68     		ldr	r3, [r7, #4]
ARM GAS  /tmp/ccmBJYMF.s 			page 42


 1349 01f2 591C     		adds	r1, r3, #1
 1350 01f4 7960     		str	r1, [r7, #4]
 1351              		.loc 1 575 31 discriminator 2
 1352 01f6 1278     		ldrb	r2, [r2]	@ zero_extendqisi2
 1353              		.loc 1 575 29 discriminator 2
 1354 01f8 1A70     		strb	r2, [r3]
 573:./Libraries/STM32F4xx_HAL_Driver/Src/stm32f4xx_hal_nand.c ****     {
 1355              		.loc 1 573 30 discriminator 2
 1356 01fa 3B69     		ldr	r3, [r7, #16]
 1357 01fc 0133     		adds	r3, r3, #1
 1358 01fe 3B61     		str	r3, [r7, #16]
 1359              	.L60:
 573:./Libraries/STM32F4xx_HAL_Driver/Src/stm32f4xx_hal_nand.c ****     {
 1360              		.loc 1 573 17 discriminator 1
 1361 0200 3B69     		ldr	r3, [r7, #16]
 573:./Libraries/STM32F4xx_HAL_Driver/Src/stm32f4xx_hal_nand.c ****     {
 1362              		.loc 1 573 5 discriminator 1
 1363 0202 7A69     		ldr	r2, [r7, #20]
 1364 0204 9A42     		cmp	r2, r3
 1365 0206 F2D8     		bhi	.L61
 576:./Libraries/STM32F4xx_HAL_Driver/Src/stm32f4xx_hal_nand.c ****     }
 577:./Libraries/STM32F4xx_HAL_Driver/Src/stm32f4xx_hal_nand.c ****     
 578:./Libraries/STM32F4xx_HAL_Driver/Src/stm32f4xx_hal_nand.c ****     /* Increment read pages number */
 579:./Libraries/STM32F4xx_HAL_Driver/Src/stm32f4xx_hal_nand.c ****     numPagesRead++;
 1366              		.loc 1 579 17
 1367 0208 3B6A     		ldr	r3, [r7, #32]
 1368 020a 0133     		adds	r3, r3, #1
 1369 020c 3B62     		str	r3, [r7, #32]
 580:./Libraries/STM32F4xx_HAL_Driver/Src/stm32f4xx_hal_nand.c ****     
 581:./Libraries/STM32F4xx_HAL_Driver/Src/stm32f4xx_hal_nand.c ****     /* Decrement pages to read */
 582:./Libraries/STM32F4xx_HAL_Driver/Src/stm32f4xx_hal_nand.c ****     NumPageToRead--;
 1370              		.loc 1 582 18
 1371 020e 3B68     		ldr	r3, [r7]
 1372 0210 013B     		subs	r3, r3, #1
 1373 0212 3B60     		str	r3, [r7]
 583:./Libraries/STM32F4xx_HAL_Driver/Src/stm32f4xx_hal_nand.c ****     
 584:./Libraries/STM32F4xx_HAL_Driver/Src/stm32f4xx_hal_nand.c ****     /* Increment the NAND address */
 585:./Libraries/STM32F4xx_HAL_Driver/Src/stm32f4xx_hal_nand.c ****     nandaddress = (uint32_t)(nandaddress + 1U);
 1374              		.loc 1 585 17
 1375 0214 FB69     		ldr	r3, [r7, #28]
 1376 0216 0133     		adds	r3, r3, #1
 1377 0218 FB61     		str	r3, [r7, #28]
 1378              	.L52:
 506:./Libraries/STM32F4xx_HAL_Driver/Src/stm32f4xx_hal_nand.c ****   {
 1379              		.loc 1 506 8
 1380 021a 3B68     		ldr	r3, [r7]
 1381 021c 002B     		cmp	r3, #0
 1382 021e 09D0     		beq	.L62
 506:./Libraries/STM32F4xx_HAL_Driver/Src/stm32f4xx_hal_nand.c ****   {
 1383              		.loc 1 506 64 discriminator 1
 1384 0220 FB68     		ldr	r3, [r7, #12]
 1385 0222 DB6A     		ldr	r3, [r3, #44]
 506:./Libraries/STM32F4xx_HAL_Driver/Src/stm32f4xx_hal_nand.c ****   {
 1386              		.loc 1 506 92 discriminator 1
 1387 0224 FA68     		ldr	r2, [r7, #12]
 1388 0226 126B     		ldr	r2, [r2, #48]
 506:./Libraries/STM32F4xx_HAL_Driver/Src/stm32f4xx_hal_nand.c ****   {
ARM GAS  /tmp/ccmBJYMF.s 			page 43


 1389              		.loc 1 506 76 discriminator 1
 1390 0228 02FB03F3 		mul	r3, r2, r3
 506:./Libraries/STM32F4xx_HAL_Driver/Src/stm32f4xx_hal_nand.c ****   {
 1391              		.loc 1 506 31 discriminator 1
 1392 022c FA69     		ldr	r2, [r7, #28]
 1393 022e 9A42     		cmp	r2, r3
 1394 0230 FFF430AF 		bcc	.L63
 1395              	.L62:
 586:./Libraries/STM32F4xx_HAL_Driver/Src/stm32f4xx_hal_nand.c ****   }
 587:./Libraries/STM32F4xx_HAL_Driver/Src/stm32f4xx_hal_nand.c ****   
 588:./Libraries/STM32F4xx_HAL_Driver/Src/stm32f4xx_hal_nand.c ****   /* Update the NAND controller state */
 589:./Libraries/STM32F4xx_HAL_Driver/Src/stm32f4xx_hal_nand.c ****   hnand->State = HAL_NAND_STATE_READY;
 1396              		.loc 1 589 16
 1397 0234 FB68     		ldr	r3, [r7, #12]
 1398 0236 0122     		movs	r2, #1
 1399 0238 83F82120 		strb	r2, [r3, #33]
 590:./Libraries/STM32F4xx_HAL_Driver/Src/stm32f4xx_hal_nand.c ****   
 591:./Libraries/STM32F4xx_HAL_Driver/Src/stm32f4xx_hal_nand.c ****   /* Process unlocked */
 592:./Libraries/STM32F4xx_HAL_Driver/Src/stm32f4xx_hal_nand.c ****   __HAL_UNLOCK(hnand);
 1400              		.loc 1 592 3
 1401 023c FB68     		ldr	r3, [r7, #12]
 1402 023e 0022     		movs	r2, #0
 1403 0240 83F82020 		strb	r2, [r3, #32]
 593:./Libraries/STM32F4xx_HAL_Driver/Src/stm32f4xx_hal_nand.c **** 
 594:./Libraries/STM32F4xx_HAL_Driver/Src/stm32f4xx_hal_nand.c ****   return HAL_OK;
 1404              		.loc 1 594 10
 1405 0244 0023     		movs	r3, #0
 1406              	.L48:
 595:./Libraries/STM32F4xx_HAL_Driver/Src/stm32f4xx_hal_nand.c **** }
 1407              		.loc 1 595 1
 1408 0246 1846     		mov	r0, r3
 1409 0248 2837     		adds	r7, r7, #40
 1410              	.LCFI54:
 1411              		.cfi_def_cfa_offset 8
 1412 024a BD46     		mov	sp, r7
 1413              	.LCFI55:
 1414              		.cfi_def_cfa_register 13
 1415              		@ sp needed
 1416 024c 80BD     		pop	{r7, pc}
 1417              		.cfi_endproc
 1418              	.LFE135:
 1420              		.section	.text.HAL_NAND_Read_Page_16b,"ax",%progbits
 1421              		.align	1
 1422              		.global	HAL_NAND_Read_Page_16b
 1423              		.syntax unified
 1424              		.thumb
 1425              		.thumb_func
 1426              		.fpu fpv4-sp-d16
 1428              	HAL_NAND_Read_Page_16b:
 1429              	.LFB136:
 596:./Libraries/STM32F4xx_HAL_Driver/Src/stm32f4xx_hal_nand.c **** 
 597:./Libraries/STM32F4xx_HAL_Driver/Src/stm32f4xx_hal_nand.c **** /**
 598:./Libraries/STM32F4xx_HAL_Driver/Src/stm32f4xx_hal_nand.c ****   * @brief  Read Page(s) from NAND memory block (16-bits addressing)
 599:./Libraries/STM32F4xx_HAL_Driver/Src/stm32f4xx_hal_nand.c ****   * @param  hnand pointer to a NAND_HandleTypeDef structure that contains
 600:./Libraries/STM32F4xx_HAL_Driver/Src/stm32f4xx_hal_nand.c ****   *                the configuration information for NAND module.
 601:./Libraries/STM32F4xx_HAL_Driver/Src/stm32f4xx_hal_nand.c ****   * @param  pAddress  pointer to NAND address structure
 602:./Libraries/STM32F4xx_HAL_Driver/Src/stm32f4xx_hal_nand.c ****   * @param  pBuffer  pointer to destination read buffer. pBuffer should be 16bits aligned
ARM GAS  /tmp/ccmBJYMF.s 			page 44


 603:./Libraries/STM32F4xx_HAL_Driver/Src/stm32f4xx_hal_nand.c ****   * @param  NumPageToRead  number of pages to read from block 
 604:./Libraries/STM32F4xx_HAL_Driver/Src/stm32f4xx_hal_nand.c ****   * @retval HAL status
 605:./Libraries/STM32F4xx_HAL_Driver/Src/stm32f4xx_hal_nand.c ****   */
 606:./Libraries/STM32F4xx_HAL_Driver/Src/stm32f4xx_hal_nand.c **** HAL_StatusTypeDef HAL_NAND_Read_Page_16b(NAND_HandleTypeDef *hnand, NAND_AddressTypeDef *pAddress, 
 607:./Libraries/STM32F4xx_HAL_Driver/Src/stm32f4xx_hal_nand.c **** {   
 1430              		.loc 1 607 1
 1431              		.cfi_startproc
 1432              		@ args = 0, pretend = 0, frame = 40
 1433              		@ frame_needed = 1, uses_anonymous_args = 0
 1434 0000 80B5     		push	{r7, lr}
 1435              	.LCFI56:
 1436              		.cfi_def_cfa_offset 8
 1437              		.cfi_offset 7, -8
 1438              		.cfi_offset 14, -4
 1439 0002 8AB0     		sub	sp, sp, #40
 1440              	.LCFI57:
 1441              		.cfi_def_cfa_offset 48
 1442 0004 00AF     		add	r7, sp, #0
 1443              	.LCFI58:
 1444              		.cfi_def_cfa_register 7
 1445 0006 F860     		str	r0, [r7, #12]
 1446 0008 B960     		str	r1, [r7, #8]
 1447 000a 7A60     		str	r2, [r7, #4]
 1448 000c 3B60     		str	r3, [r7]
 608:./Libraries/STM32F4xx_HAL_Driver/Src/stm32f4xx_hal_nand.c ****   __IO uint32_t index  = 0U;
 1449              		.loc 1 608 17
 1450 000e 0023     		movs	r3, #0
 1451 0010 3B61     		str	r3, [r7, #16]
 609:./Libraries/STM32F4xx_HAL_Driver/Src/stm32f4xx_hal_nand.c ****   uint32_t tickstart = 0U;
 1452              		.loc 1 609 12
 1453 0012 0023     		movs	r3, #0
 1454 0014 BB61     		str	r3, [r7, #24]
 610:./Libraries/STM32F4xx_HAL_Driver/Src/stm32f4xx_hal_nand.c ****   uint32_t deviceaddress = 0U, size = 0U, numPagesRead = 0U, nandaddress = 0U;
 1455              		.loc 1 610 12
 1456 0016 0023     		movs	r3, #0
 1457 0018 7B62     		str	r3, [r7, #36]
 1458              		.loc 1 610 32
 1459 001a 0023     		movs	r3, #0
 1460 001c 7B61     		str	r3, [r7, #20]
 1461              		.loc 1 610 43
 1462 001e 0023     		movs	r3, #0
 1463 0020 3B62     		str	r3, [r7, #32]
 1464              		.loc 1 610 62
 1465 0022 0023     		movs	r3, #0
 1466 0024 FB61     		str	r3, [r7, #28]
 611:./Libraries/STM32F4xx_HAL_Driver/Src/stm32f4xx_hal_nand.c ****   
 612:./Libraries/STM32F4xx_HAL_Driver/Src/stm32f4xx_hal_nand.c ****   /* Process Locked */
 613:./Libraries/STM32F4xx_HAL_Driver/Src/stm32f4xx_hal_nand.c ****   __HAL_LOCK(hnand); 
 1467              		.loc 1 613 3
 1468 0026 FB68     		ldr	r3, [r7, #12]
 1469 0028 93F82030 		ldrb	r3, [r3, #32]	@ zero_extendqisi2
 1470 002c 012B     		cmp	r3, #1
 1471 002e 01D1     		bne	.L65
 1472              		.loc 1 613 3 is_stmt 0 discriminator 1
 1473 0030 0223     		movs	r3, #2
 1474 0032 08E1     		b	.L66
 1475              	.L65:
ARM GAS  /tmp/ccmBJYMF.s 			page 45


 1476              		.loc 1 613 3 discriminator 2
 1477 0034 FB68     		ldr	r3, [r7, #12]
 1478 0036 0122     		movs	r2, #1
 1479 0038 83F82020 		strb	r2, [r3, #32]
 614:./Libraries/STM32F4xx_HAL_Driver/Src/stm32f4xx_hal_nand.c ****   
 615:./Libraries/STM32F4xx_HAL_Driver/Src/stm32f4xx_hal_nand.c ****   /* Check the NAND controller state */
 616:./Libraries/STM32F4xx_HAL_Driver/Src/stm32f4xx_hal_nand.c ****   if(hnand->State == HAL_NAND_STATE_BUSY)
 1480              		.loc 1 616 11 is_stmt 1 discriminator 2
 1481 003c FB68     		ldr	r3, [r7, #12]
 1482 003e 93F82130 		ldrb	r3, [r3, #33]
 1483 0042 DBB2     		uxtb	r3, r3
 1484              		.loc 1 616 5 discriminator 2
 1485 0044 022B     		cmp	r3, #2
 1486 0046 01D1     		bne	.L67
 617:./Libraries/STM32F4xx_HAL_Driver/Src/stm32f4xx_hal_nand.c ****   {
 618:./Libraries/STM32F4xx_HAL_Driver/Src/stm32f4xx_hal_nand.c ****      return HAL_BUSY;
 1487              		.loc 1 618 13
 1488 0048 0223     		movs	r3, #2
 1489 004a FCE0     		b	.L66
 1490              	.L67:
 619:./Libraries/STM32F4xx_HAL_Driver/Src/stm32f4xx_hal_nand.c ****   }
 620:./Libraries/STM32F4xx_HAL_Driver/Src/stm32f4xx_hal_nand.c ****   
 621:./Libraries/STM32F4xx_HAL_Driver/Src/stm32f4xx_hal_nand.c ****   /* Identify the device address */
 622:./Libraries/STM32F4xx_HAL_Driver/Src/stm32f4xx_hal_nand.c ****   if(hnand->Init.NandBank == FMC_NAND_BANK2)
 1491              		.loc 1 622 17
 1492 004c FB68     		ldr	r3, [r7, #12]
 1493 004e 5B68     		ldr	r3, [r3, #4]
 1494              		.loc 1 622 5
 1495 0050 102B     		cmp	r3, #16
 1496 0052 03D1     		bne	.L68
 623:./Libraries/STM32F4xx_HAL_Driver/Src/stm32f4xx_hal_nand.c ****   {
 624:./Libraries/STM32F4xx_HAL_Driver/Src/stm32f4xx_hal_nand.c ****     deviceaddress = NAND_DEVICE1;
 1497              		.loc 1 624 19
 1498 0054 4FF0E043 		mov	r3, #1879048192
 1499 0058 7B62     		str	r3, [r7, #36]
 1500 005a 02E0     		b	.L69
 1501              	.L68:
 625:./Libraries/STM32F4xx_HAL_Driver/Src/stm32f4xx_hal_nand.c ****   }
 626:./Libraries/STM32F4xx_HAL_Driver/Src/stm32f4xx_hal_nand.c ****   else
 627:./Libraries/STM32F4xx_HAL_Driver/Src/stm32f4xx_hal_nand.c ****   {
 628:./Libraries/STM32F4xx_HAL_Driver/Src/stm32f4xx_hal_nand.c ****     deviceaddress = NAND_DEVICE2;
 1502              		.loc 1 628 19
 1503 005c 4FF00043 		mov	r3, #-2147483648
 1504 0060 7B62     		str	r3, [r7, #36]
 1505              	.L69:
 629:./Libraries/STM32F4xx_HAL_Driver/Src/stm32f4xx_hal_nand.c ****   }
 630:./Libraries/STM32F4xx_HAL_Driver/Src/stm32f4xx_hal_nand.c **** 
 631:./Libraries/STM32F4xx_HAL_Driver/Src/stm32f4xx_hal_nand.c ****   /* Update the NAND controller state */ 
 632:./Libraries/STM32F4xx_HAL_Driver/Src/stm32f4xx_hal_nand.c ****   hnand->State = HAL_NAND_STATE_BUSY;
 1506              		.loc 1 632 16
 1507 0062 FB68     		ldr	r3, [r7, #12]
 1508 0064 0222     		movs	r2, #2
 1509 0066 83F82120 		strb	r2, [r3, #33]
 633:./Libraries/STM32F4xx_HAL_Driver/Src/stm32f4xx_hal_nand.c ****   
 634:./Libraries/STM32F4xx_HAL_Driver/Src/stm32f4xx_hal_nand.c ****   /* NAND raw address calculation */
 635:./Libraries/STM32F4xx_HAL_Driver/Src/stm32f4xx_hal_nand.c ****   nandaddress = ARRAY_ADDRESS(pAddress, hnand);
 1510              		.loc 1 635 17
ARM GAS  /tmp/ccmBJYMF.s 			page 46


 1511 006a BB68     		ldr	r3, [r7, #8]
 1512 006c 1B88     		ldrh	r3, [r3]
 1513 006e 1946     		mov	r1, r3
 1514 0070 BB68     		ldr	r3, [r7, #8]
 1515 0072 9B88     		ldrh	r3, [r3, #4]
 1516 0074 1A46     		mov	r2, r3
 1517 0076 BB68     		ldr	r3, [r7, #8]
 1518 0078 5B88     		ldrh	r3, [r3, #2]
 1519 007a 1846     		mov	r0, r3
 1520 007c FB68     		ldr	r3, [r7, #12]
 1521 007e 9B6B     		ldr	r3, [r3, #56]
 1522 0080 00FB03F3 		mul	r3, r0, r3
 1523 0084 1344     		add	r3, r3, r2
 1524 0086 FA68     		ldr	r2, [r7, #12]
 1525 0088 D26A     		ldr	r2, [r2, #44]
 1526 008a 02FB03F3 		mul	r3, r2, r3
 1527              		.loc 1 635 15
 1528 008e 0B44     		add	r3, r3, r1
 1529 0090 FB61     		str	r3, [r7, #28]
 636:./Libraries/STM32F4xx_HAL_Driver/Src/stm32f4xx_hal_nand.c ****   
 637:./Libraries/STM32F4xx_HAL_Driver/Src/stm32f4xx_hal_nand.c ****   /* Page(s) read loop */  
 638:./Libraries/STM32F4xx_HAL_Driver/Src/stm32f4xx_hal_nand.c ****   while((NumPageToRead != 0U) && (nandaddress < ((hnand->Config.BlockSize) * (hnand->Config.BlockNb
 1530              		.loc 1 638 8
 1531 0092 C2E0     		b	.L70
 1532              	.L81:
 639:./Libraries/STM32F4xx_HAL_Driver/Src/stm32f4xx_hal_nand.c ****   {
 640:./Libraries/STM32F4xx_HAL_Driver/Src/stm32f4xx_hal_nand.c ****     /* update the buffer size */
 641:./Libraries/STM32F4xx_HAL_Driver/Src/stm32f4xx_hal_nand.c ****     size = (hnand->Config.PageSize) + ((hnand->Config.PageSize) * numPagesRead);
 1533              		.loc 1 641 37
 1534 0094 3B6A     		ldr	r3, [r7, #32]
 1535 0096 0133     		adds	r3, r3, #1
 1536              		.loc 1 641 26
 1537 0098 FA68     		ldr	r2, [r7, #12]
 1538 009a 526A     		ldr	r2, [r2, #36]
 1539              		.loc 1 641 10
 1540 009c 02FB03F3 		mul	r3, r2, r3
 1541 00a0 7B61     		str	r3, [r7, #20]
 642:./Libraries/STM32F4xx_HAL_Driver/Src/stm32f4xx_hal_nand.c ****     
 643:./Libraries/STM32F4xx_HAL_Driver/Src/stm32f4xx_hal_nand.c ****     /* Send read page command sequence */
 644:./Libraries/STM32F4xx_HAL_Driver/Src/stm32f4xx_hal_nand.c ****     *(__IO uint8_t *)((uint32_t)(deviceaddress | CMD_AREA)) = NAND_CMD_AREA_A;  
 1542              		.loc 1 644 23
 1543 00a2 7B6A     		ldr	r3, [r7, #36]
 1544 00a4 43F48033 		orr	r3, r3, #65536
 1545              		.loc 1 644 61
 1546 00a8 0022     		movs	r2, #0
 1547 00aa 1A70     		strb	r2, [r3]
 1548              	.LBB16:
 1549              	.LBB17:
 429:./Libraries/CMSIS/Include/cmsis_gcc.h **** }
 1550              		.loc 2 429 3
 1551              		.syntax unified
 1552              	@ 429 "./Libraries/CMSIS/Include/cmsis_gcc.h" 1
 1553 00ac BFF34F8F 		dsb 0xF
 1554              	@ 0 "" 2
 1555              		.loc 2 430 1
 1556              		.thumb
 1557              		.syntax unified
ARM GAS  /tmp/ccmBJYMF.s 			page 47


 1558 00b0 00BF     		nop
 1559              	.LBE17:
 1560              	.LBE16:
 645:./Libraries/STM32F4xx_HAL_Driver/Src/stm32f4xx_hal_nand.c ****     __DSB();
 646:./Libraries/STM32F4xx_HAL_Driver/Src/stm32f4xx_hal_nand.c ****     
 647:./Libraries/STM32F4xx_HAL_Driver/Src/stm32f4xx_hal_nand.c ****     /* Cards with page size <= 512 bytes */
 648:./Libraries/STM32F4xx_HAL_Driver/Src/stm32f4xx_hal_nand.c ****     if((hnand->Config.PageSize) <= 512U)
 1561              		.loc 1 648 22
 1562 00b2 FB68     		ldr	r3, [r7, #12]
 1563 00b4 5B6A     		ldr	r3, [r3, #36]
 1564              		.loc 1 648 7
 1565 00b6 B3F5007F 		cmp	r3, #512
 1566 00ba 35D8     		bhi	.L71
 649:./Libraries/STM32F4xx_HAL_Driver/Src/stm32f4xx_hal_nand.c ****     {
 650:./Libraries/STM32F4xx_HAL_Driver/Src/stm32f4xx_hal_nand.c ****       if (((hnand->Config.BlockSize)*(hnand->Config.BlockNbr)) <= 65535U)
 1567              		.loc 1 650 26
 1568 00bc FB68     		ldr	r3, [r7, #12]
 1569 00be DB6A     		ldr	r3, [r3, #44]
 1570              		.loc 1 650 52
 1571 00c0 FA68     		ldr	r2, [r7, #12]
 1572 00c2 126B     		ldr	r2, [r2, #48]
 1573              		.loc 1 650 37
 1574 00c4 02FB03F3 		mul	r3, r2, r3
 1575              		.loc 1 650 10
 1576 00c8 B3F5803F 		cmp	r3, #65536
 1577 00cc 12D2     		bcs	.L72
 651:./Libraries/STM32F4xx_HAL_Driver/Src/stm32f4xx_hal_nand.c ****       {
 652:./Libraries/STM32F4xx_HAL_Driver/Src/stm32f4xx_hal_nand.c ****         *(__IO uint8_t *)((uint32_t)(deviceaddress | ADDR_AREA)) = 0x00;
 1578              		.loc 1 652 27
 1579 00ce 7B6A     		ldr	r3, [r7, #36]
 1580 00d0 43F40033 		orr	r3, r3, #131072
 1581              		.loc 1 652 66
 1582 00d4 0022     		movs	r2, #0
 1583 00d6 1A70     		strb	r2, [r3]
 653:./Libraries/STM32F4xx_HAL_Driver/Src/stm32f4xx_hal_nand.c ****         *(__IO uint8_t *)((uint32_t)(deviceaddress | ADDR_AREA)) = ADDR_1ST_CYCLE(nandaddress);
 1584              		.loc 1 653 27
 1585 00d8 7B6A     		ldr	r3, [r7, #36]
 1586 00da 43F40033 		orr	r3, r3, #131072
 1587              		.loc 1 653 68
 1588 00de FA69     		ldr	r2, [r7, #28]
 1589 00e0 D2B2     		uxtb	r2, r2
 1590              		.loc 1 653 66
 1591 00e2 1A70     		strb	r2, [r3]
 654:./Libraries/STM32F4xx_HAL_Driver/Src/stm32f4xx_hal_nand.c ****         *(__IO uint8_t *)((uint32_t)(deviceaddress | ADDR_AREA)) = ADDR_2ND_CYCLE(nandaddress);
 1592              		.loc 1 654 68
 1593 00e4 FB69     		ldr	r3, [r7, #28]
 1594 00e6 1A0A     		lsrs	r2, r3, #8
 1595              		.loc 1 654 27
 1596 00e8 7B6A     		ldr	r3, [r7, #36]
 1597 00ea 43F40033 		orr	r3, r3, #131072
 1598              		.loc 1 654 68
 1599 00ee D2B2     		uxtb	r2, r2
 1600              		.loc 1 654 66
 1601 00f0 1A70     		strb	r2, [r3]
 1602 00f2 58E0     		b	.L73
 1603              	.L72:
 655:./Libraries/STM32F4xx_HAL_Driver/Src/stm32f4xx_hal_nand.c ****       }
ARM GAS  /tmp/ccmBJYMF.s 			page 48


 656:./Libraries/STM32F4xx_HAL_Driver/Src/stm32f4xx_hal_nand.c ****       else /* ((hnand->Config.BlockSize)*(hnand->Config.BlockNbr)) > 65535 */
 657:./Libraries/STM32F4xx_HAL_Driver/Src/stm32f4xx_hal_nand.c ****       {
 658:./Libraries/STM32F4xx_HAL_Driver/Src/stm32f4xx_hal_nand.c ****         *(__IO uint8_t *)((uint32_t)(deviceaddress | ADDR_AREA)) = 0x00;
 1604              		.loc 1 658 27
 1605 00f4 7B6A     		ldr	r3, [r7, #36]
 1606 00f6 43F40033 		orr	r3, r3, #131072
 1607              		.loc 1 658 66
 1608 00fa 0022     		movs	r2, #0
 1609 00fc 1A70     		strb	r2, [r3]
 659:./Libraries/STM32F4xx_HAL_Driver/Src/stm32f4xx_hal_nand.c ****         *(__IO uint8_t *)((uint32_t)(deviceaddress | ADDR_AREA)) = ADDR_1ST_CYCLE(nandaddress);
 1610              		.loc 1 659 27
 1611 00fe 7B6A     		ldr	r3, [r7, #36]
 1612 0100 43F40033 		orr	r3, r3, #131072
 1613              		.loc 1 659 68
 1614 0104 FA69     		ldr	r2, [r7, #28]
 1615 0106 D2B2     		uxtb	r2, r2
 1616              		.loc 1 659 66
 1617 0108 1A70     		strb	r2, [r3]
 660:./Libraries/STM32F4xx_HAL_Driver/Src/stm32f4xx_hal_nand.c ****         *(__IO uint8_t *)((uint32_t)(deviceaddress | ADDR_AREA)) = ADDR_2ND_CYCLE(nandaddress);
 1618              		.loc 1 660 68
 1619 010a FB69     		ldr	r3, [r7, #28]
 1620 010c 1A0A     		lsrs	r2, r3, #8
 1621              		.loc 1 660 27
 1622 010e 7B6A     		ldr	r3, [r7, #36]
 1623 0110 43F40033 		orr	r3, r3, #131072
 1624              		.loc 1 660 68
 1625 0114 D2B2     		uxtb	r2, r2
 1626              		.loc 1 660 66
 1627 0116 1A70     		strb	r2, [r3]
 661:./Libraries/STM32F4xx_HAL_Driver/Src/stm32f4xx_hal_nand.c ****         *(__IO uint8_t *)((uint32_t)(deviceaddress | ADDR_AREA)) = ADDR_3RD_CYCLE(nandaddress);
 1628              		.loc 1 661 68
 1629 0118 FB69     		ldr	r3, [r7, #28]
 1630 011a 1A0C     		lsrs	r2, r3, #16
 1631              		.loc 1 661 27
 1632 011c 7B6A     		ldr	r3, [r7, #36]
 1633 011e 43F40033 		orr	r3, r3, #131072
 1634              		.loc 1 661 68
 1635 0122 D2B2     		uxtb	r2, r2
 1636              		.loc 1 661 66
 1637 0124 1A70     		strb	r2, [r3]
 1638 0126 3EE0     		b	.L73
 1639              	.L71:
 662:./Libraries/STM32F4xx_HAL_Driver/Src/stm32f4xx_hal_nand.c ****       }
 663:./Libraries/STM32F4xx_HAL_Driver/Src/stm32f4xx_hal_nand.c ****     }
 664:./Libraries/STM32F4xx_HAL_Driver/Src/stm32f4xx_hal_nand.c ****     else /* (hnand->Config.PageSize) > 512 */
 665:./Libraries/STM32F4xx_HAL_Driver/Src/stm32f4xx_hal_nand.c ****     {
 666:./Libraries/STM32F4xx_HAL_Driver/Src/stm32f4xx_hal_nand.c ****       if (((hnand->Config.BlockSize)*(hnand->Config.BlockNbr)) <= 65535U)
 1640              		.loc 1 666 26
 1641 0128 FB68     		ldr	r3, [r7, #12]
 1642 012a DB6A     		ldr	r3, [r3, #44]
 1643              		.loc 1 666 52
 1644 012c FA68     		ldr	r2, [r7, #12]
 1645 012e 126B     		ldr	r2, [r2, #48]
 1646              		.loc 1 666 37
 1647 0130 02FB03F3 		mul	r3, r2, r3
 1648              		.loc 1 666 10
 1649 0134 B3F5803F 		cmp	r3, #65536
ARM GAS  /tmp/ccmBJYMF.s 			page 49


 1650 0138 17D2     		bcs	.L74
 667:./Libraries/STM32F4xx_HAL_Driver/Src/stm32f4xx_hal_nand.c ****       {
 668:./Libraries/STM32F4xx_HAL_Driver/Src/stm32f4xx_hal_nand.c ****         *(__IO uint8_t *)((uint32_t)(deviceaddress | ADDR_AREA)) = 0x00;
 1651              		.loc 1 668 27
 1652 013a 7B6A     		ldr	r3, [r7, #36]
 1653 013c 43F40033 		orr	r3, r3, #131072
 1654              		.loc 1 668 66
 1655 0140 0022     		movs	r2, #0
 1656 0142 1A70     		strb	r2, [r3]
 669:./Libraries/STM32F4xx_HAL_Driver/Src/stm32f4xx_hal_nand.c ****         *(__IO uint8_t *)((uint32_t)(deviceaddress | ADDR_AREA)) = 0x00;
 1657              		.loc 1 669 27
 1658 0144 7B6A     		ldr	r3, [r7, #36]
 1659 0146 43F40033 		orr	r3, r3, #131072
 1660              		.loc 1 669 66
 1661 014a 0022     		movs	r2, #0
 1662 014c 1A70     		strb	r2, [r3]
 670:./Libraries/STM32F4xx_HAL_Driver/Src/stm32f4xx_hal_nand.c ****         *(__IO uint8_t *)((uint32_t)(deviceaddress | ADDR_AREA)) = ADDR_1ST_CYCLE(nandaddress);
 1663              		.loc 1 670 27
 1664 014e 7B6A     		ldr	r3, [r7, #36]
 1665 0150 43F40033 		orr	r3, r3, #131072
 1666              		.loc 1 670 68
 1667 0154 FA69     		ldr	r2, [r7, #28]
 1668 0156 D2B2     		uxtb	r2, r2
 1669              		.loc 1 670 66
 1670 0158 1A70     		strb	r2, [r3]
 671:./Libraries/STM32F4xx_HAL_Driver/Src/stm32f4xx_hal_nand.c ****         *(__IO uint8_t *)((uint32_t)(deviceaddress | ADDR_AREA)) = ADDR_2ND_CYCLE(nandaddress);
 1671              		.loc 1 671 68
 1672 015a FB69     		ldr	r3, [r7, #28]
 1673 015c 1A0A     		lsrs	r2, r3, #8
 1674              		.loc 1 671 27
 1675 015e 7B6A     		ldr	r3, [r7, #36]
 1676 0160 43F40033 		orr	r3, r3, #131072
 1677              		.loc 1 671 68
 1678 0164 D2B2     		uxtb	r2, r2
 1679              		.loc 1 671 66
 1680 0166 1A70     		strb	r2, [r3]
 1681 0168 1DE0     		b	.L73
 1682              	.L74:
 672:./Libraries/STM32F4xx_HAL_Driver/Src/stm32f4xx_hal_nand.c ****       }
 673:./Libraries/STM32F4xx_HAL_Driver/Src/stm32f4xx_hal_nand.c ****       else /* ((hnand->Config.BlockSize)*(hnand->Config.BlockNbr)) > 65535 */
 674:./Libraries/STM32F4xx_HAL_Driver/Src/stm32f4xx_hal_nand.c ****       {
 675:./Libraries/STM32F4xx_HAL_Driver/Src/stm32f4xx_hal_nand.c ****         *(__IO uint8_t *)((uint32_t)(deviceaddress | ADDR_AREA)) = 0x00;
 1683              		.loc 1 675 27
 1684 016a 7B6A     		ldr	r3, [r7, #36]
 1685 016c 43F40033 		orr	r3, r3, #131072
 1686              		.loc 1 675 66
 1687 0170 0022     		movs	r2, #0
 1688 0172 1A70     		strb	r2, [r3]
 676:./Libraries/STM32F4xx_HAL_Driver/Src/stm32f4xx_hal_nand.c ****         *(__IO uint8_t *)((uint32_t)(deviceaddress | ADDR_AREA)) = 0x00;
 1689              		.loc 1 676 27
 1690 0174 7B6A     		ldr	r3, [r7, #36]
 1691 0176 43F40033 		orr	r3, r3, #131072
 1692              		.loc 1 676 66
 1693 017a 0022     		movs	r2, #0
 1694 017c 1A70     		strb	r2, [r3]
 677:./Libraries/STM32F4xx_HAL_Driver/Src/stm32f4xx_hal_nand.c ****         *(__IO uint8_t *)((uint32_t)(deviceaddress | ADDR_AREA)) = ADDR_1ST_CYCLE(nandaddress);
 1695              		.loc 1 677 27
ARM GAS  /tmp/ccmBJYMF.s 			page 50


 1696 017e 7B6A     		ldr	r3, [r7, #36]
 1697 0180 43F40033 		orr	r3, r3, #131072
 1698              		.loc 1 677 68
 1699 0184 FA69     		ldr	r2, [r7, #28]
 1700 0186 D2B2     		uxtb	r2, r2
 1701              		.loc 1 677 66
 1702 0188 1A70     		strb	r2, [r3]
 678:./Libraries/STM32F4xx_HAL_Driver/Src/stm32f4xx_hal_nand.c ****         *(__IO uint8_t *)((uint32_t)(deviceaddress | ADDR_AREA)) = ADDR_2ND_CYCLE(nandaddress);
 1703              		.loc 1 678 68
 1704 018a FB69     		ldr	r3, [r7, #28]
 1705 018c 1A0A     		lsrs	r2, r3, #8
 1706              		.loc 1 678 27
 1707 018e 7B6A     		ldr	r3, [r7, #36]
 1708 0190 43F40033 		orr	r3, r3, #131072
 1709              		.loc 1 678 68
 1710 0194 D2B2     		uxtb	r2, r2
 1711              		.loc 1 678 66
 1712 0196 1A70     		strb	r2, [r3]
 679:./Libraries/STM32F4xx_HAL_Driver/Src/stm32f4xx_hal_nand.c ****         *(__IO uint8_t *)((uint32_t)(deviceaddress | ADDR_AREA)) = ADDR_3RD_CYCLE(nandaddress);
 1713              		.loc 1 679 68
 1714 0198 FB69     		ldr	r3, [r7, #28]
 1715 019a 1A0C     		lsrs	r2, r3, #16
 1716              		.loc 1 679 27
 1717 019c 7B6A     		ldr	r3, [r7, #36]
 1718 019e 43F40033 		orr	r3, r3, #131072
 1719              		.loc 1 679 68
 1720 01a2 D2B2     		uxtb	r2, r2
 1721              		.loc 1 679 66
 1722 01a4 1A70     		strb	r2, [r3]
 1723              	.L73:
 680:./Libraries/STM32F4xx_HAL_Driver/Src/stm32f4xx_hal_nand.c ****       }
 681:./Libraries/STM32F4xx_HAL_Driver/Src/stm32f4xx_hal_nand.c ****     }
 682:./Libraries/STM32F4xx_HAL_Driver/Src/stm32f4xx_hal_nand.c ****   
 683:./Libraries/STM32F4xx_HAL_Driver/Src/stm32f4xx_hal_nand.c ****     *(__IO uint8_t *)((uint32_t)(deviceaddress | CMD_AREA))  = NAND_CMD_AREA_TRUE1;
 1724              		.loc 1 683 23
 1725 01a6 7B6A     		ldr	r3, [r7, #36]
 1726 01a8 43F48033 		orr	r3, r3, #65536
 1727              		.loc 1 683 62
 1728 01ac 3022     		movs	r2, #48
 1729 01ae 1A70     		strb	r2, [r3]
 684:./Libraries/STM32F4xx_HAL_Driver/Src/stm32f4xx_hal_nand.c ****     
 685:./Libraries/STM32F4xx_HAL_Driver/Src/stm32f4xx_hal_nand.c ****     if(hnand->Config.ExtraCommandEnable == ENABLE)
 1730              		.loc 1 685 21
 1731 01b0 FB68     		ldr	r3, [r7, #12]
 1732 01b2 93F83C30 		ldrb	r3, [r3, #60]	@ zero_extendqisi2
 1733              		.loc 1 685 7
 1734 01b6 012B     		cmp	r3, #1
 1735 01b8 22D1     		bne	.L78
 686:./Libraries/STM32F4xx_HAL_Driver/Src/stm32f4xx_hal_nand.c ****     {
 687:./Libraries/STM32F4xx_HAL_Driver/Src/stm32f4xx_hal_nand.c ****       /* Get tick */
 688:./Libraries/STM32F4xx_HAL_Driver/Src/stm32f4xx_hal_nand.c ****       tickstart = HAL_GetTick();
 1736              		.loc 1 688 19
 1737 01ba FFF7FEFF 		bl	HAL_GetTick
 1738 01be B861     		str	r0, [r7, #24]
 689:./Libraries/STM32F4xx_HAL_Driver/Src/stm32f4xx_hal_nand.c ****       
 690:./Libraries/STM32F4xx_HAL_Driver/Src/stm32f4xx_hal_nand.c ****       /* Read status until NAND is ready */
 691:./Libraries/STM32F4xx_HAL_Driver/Src/stm32f4xx_hal_nand.c ****       while(HAL_NAND_Read_Status(hnand) != NAND_READY)
ARM GAS  /tmp/ccmBJYMF.s 			page 51


 1739              		.loc 1 691 12
 1740 01c0 09E0     		b	.L76
 1741              	.L77:
 692:./Libraries/STM32F4xx_HAL_Driver/Src/stm32f4xx_hal_nand.c ****       {
 693:./Libraries/STM32F4xx_HAL_Driver/Src/stm32f4xx_hal_nand.c ****         if((HAL_GetTick() - tickstart ) > NAND_WRITE_TIMEOUT)
 1742              		.loc 1 693 13
 1743 01c2 FFF7FEFF 		bl	HAL_GetTick
 1744 01c6 0246     		mov	r2, r0
 1745              		.loc 1 693 27
 1746 01c8 BB69     		ldr	r3, [r7, #24]
 1747 01ca D31A     		subs	r3, r2, r3
 1748              		.loc 1 693 11
 1749 01cc B3F1807F 		cmp	r3, #16777216
 1750 01d0 01D9     		bls	.L76
 694:./Libraries/STM32F4xx_HAL_Driver/Src/stm32f4xx_hal_nand.c ****         {
 695:./Libraries/STM32F4xx_HAL_Driver/Src/stm32f4xx_hal_nand.c ****           return HAL_TIMEOUT; 
 1751              		.loc 1 695 18
 1752 01d2 0323     		movs	r3, #3
 1753 01d4 37E0     		b	.L66
 1754              	.L76:
 691:./Libraries/STM32F4xx_HAL_Driver/Src/stm32f4xx_hal_nand.c ****       {
 1755              		.loc 1 691 13
 1756 01d6 F868     		ldr	r0, [r7, #12]
 1757 01d8 FFF7FEFF 		bl	HAL_NAND_Read_Status
 1758 01dc 0346     		mov	r3, r0
 691:./Libraries/STM32F4xx_HAL_Driver/Src/stm32f4xx_hal_nand.c ****       {
 1759              		.loc 1 691 12
 1760 01de 402B     		cmp	r3, #64
 1761 01e0 EFD1     		bne	.L77
 696:./Libraries/STM32F4xx_HAL_Driver/Src/stm32f4xx_hal_nand.c ****         }
 697:./Libraries/STM32F4xx_HAL_Driver/Src/stm32f4xx_hal_nand.c ****       }
 698:./Libraries/STM32F4xx_HAL_Driver/Src/stm32f4xx_hal_nand.c ****       
 699:./Libraries/STM32F4xx_HAL_Driver/Src/stm32f4xx_hal_nand.c ****       /* Go back to read mode */
 700:./Libraries/STM32F4xx_HAL_Driver/Src/stm32f4xx_hal_nand.c ****       *(__IO uint8_t *)((uint32_t)(deviceaddress | CMD_AREA)) = ((uint8_t)0x00);
 1762              		.loc 1 700 25
 1763 01e2 7B6A     		ldr	r3, [r7, #36]
 1764 01e4 43F48033 		orr	r3, r3, #65536
 1765              		.loc 1 700 63
 1766 01e8 0022     		movs	r2, #0
 1767 01ea 1A70     		strb	r2, [r3]
 701:./Libraries/STM32F4xx_HAL_Driver/Src/stm32f4xx_hal_nand.c ****     }
 702:./Libraries/STM32F4xx_HAL_Driver/Src/stm32f4xx_hal_nand.c ****     
 703:./Libraries/STM32F4xx_HAL_Driver/Src/stm32f4xx_hal_nand.c ****     /* Get Data into Buffer */    
 704:./Libraries/STM32F4xx_HAL_Driver/Src/stm32f4xx_hal_nand.c ****     for(; index < size; index++)
 1768              		.loc 1 704 5
 1769 01ec 08E0     		b	.L78
 1770              	.L79:
 705:./Libraries/STM32F4xx_HAL_Driver/Src/stm32f4xx_hal_nand.c ****     {
 706:./Libraries/STM32F4xx_HAL_Driver/Src/stm32f4xx_hal_nand.c ****       *(uint16_t *)pBuffer++ = *(uint16_t *)deviceaddress;
 1771              		.loc 1 706 33 discriminator 2
 1772 01ee 7A6A     		ldr	r2, [r7, #36]
 1773              		.loc 1 706 8 discriminator 2
 1774 01f0 7B68     		ldr	r3, [r7, #4]
 1775 01f2 991C     		adds	r1, r3, #2
 1776 01f4 7960     		str	r1, [r7, #4]
 1777              		.loc 1 706 32 discriminator 2
 1778 01f6 1288     		ldrh	r2, [r2]
ARM GAS  /tmp/ccmBJYMF.s 			page 52


 1779              		.loc 1 706 30 discriminator 2
 1780 01f8 1A80     		strh	r2, [r3]	@ movhi
 704:./Libraries/STM32F4xx_HAL_Driver/Src/stm32f4xx_hal_nand.c ****     {
 1781              		.loc 1 704 30 discriminator 2
 1782 01fa 3B69     		ldr	r3, [r7, #16]
 1783 01fc 0133     		adds	r3, r3, #1
 1784 01fe 3B61     		str	r3, [r7, #16]
 1785              	.L78:
 704:./Libraries/STM32F4xx_HAL_Driver/Src/stm32f4xx_hal_nand.c ****     {
 1786              		.loc 1 704 17 discriminator 1
 1787 0200 3B69     		ldr	r3, [r7, #16]
 704:./Libraries/STM32F4xx_HAL_Driver/Src/stm32f4xx_hal_nand.c ****     {
 1788              		.loc 1 704 5 discriminator 1
 1789 0202 7A69     		ldr	r2, [r7, #20]
 1790 0204 9A42     		cmp	r2, r3
 1791 0206 F2D8     		bhi	.L79
 707:./Libraries/STM32F4xx_HAL_Driver/Src/stm32f4xx_hal_nand.c ****     }
 708:./Libraries/STM32F4xx_HAL_Driver/Src/stm32f4xx_hal_nand.c ****     
 709:./Libraries/STM32F4xx_HAL_Driver/Src/stm32f4xx_hal_nand.c ****     /* Increment read pages number */
 710:./Libraries/STM32F4xx_HAL_Driver/Src/stm32f4xx_hal_nand.c ****     numPagesRead++;
 1792              		.loc 1 710 17
 1793 0208 3B6A     		ldr	r3, [r7, #32]
 1794 020a 0133     		adds	r3, r3, #1
 1795 020c 3B62     		str	r3, [r7, #32]
 711:./Libraries/STM32F4xx_HAL_Driver/Src/stm32f4xx_hal_nand.c ****     
 712:./Libraries/STM32F4xx_HAL_Driver/Src/stm32f4xx_hal_nand.c ****     /* Decrement pages to read */
 713:./Libraries/STM32F4xx_HAL_Driver/Src/stm32f4xx_hal_nand.c ****     NumPageToRead--;
 1796              		.loc 1 713 18
 1797 020e 3B68     		ldr	r3, [r7]
 1798 0210 013B     		subs	r3, r3, #1
 1799 0212 3B60     		str	r3, [r7]
 714:./Libraries/STM32F4xx_HAL_Driver/Src/stm32f4xx_hal_nand.c ****     
 715:./Libraries/STM32F4xx_HAL_Driver/Src/stm32f4xx_hal_nand.c ****     /* Increment the NAND address */
 716:./Libraries/STM32F4xx_HAL_Driver/Src/stm32f4xx_hal_nand.c ****     nandaddress = (uint32_t)(nandaddress + 1U);
 1800              		.loc 1 716 17
 1801 0214 FB69     		ldr	r3, [r7, #28]
 1802 0216 0133     		adds	r3, r3, #1
 1803 0218 FB61     		str	r3, [r7, #28]
 1804              	.L70:
 638:./Libraries/STM32F4xx_HAL_Driver/Src/stm32f4xx_hal_nand.c ****   {
 1805              		.loc 1 638 8
 1806 021a 3B68     		ldr	r3, [r7]
 1807 021c 002B     		cmp	r3, #0
 1808 021e 09D0     		beq	.L80
 638:./Libraries/STM32F4xx_HAL_Driver/Src/stm32f4xx_hal_nand.c ****   {
 1809              		.loc 1 638 64 discriminator 1
 1810 0220 FB68     		ldr	r3, [r7, #12]
 1811 0222 DB6A     		ldr	r3, [r3, #44]
 638:./Libraries/STM32F4xx_HAL_Driver/Src/stm32f4xx_hal_nand.c ****   {
 1812              		.loc 1 638 92 discriminator 1
 1813 0224 FA68     		ldr	r2, [r7, #12]
 1814 0226 126B     		ldr	r2, [r2, #48]
 638:./Libraries/STM32F4xx_HAL_Driver/Src/stm32f4xx_hal_nand.c ****   {
 1815              		.loc 1 638 76 discriminator 1
 1816 0228 02FB03F3 		mul	r3, r2, r3
 638:./Libraries/STM32F4xx_HAL_Driver/Src/stm32f4xx_hal_nand.c ****   {
 1817              		.loc 1 638 31 discriminator 1
ARM GAS  /tmp/ccmBJYMF.s 			page 53


 1818 022c FA69     		ldr	r2, [r7, #28]
 1819 022e 9A42     		cmp	r2, r3
 1820 0230 FFF430AF 		bcc	.L81
 1821              	.L80:
 717:./Libraries/STM32F4xx_HAL_Driver/Src/stm32f4xx_hal_nand.c ****   }
 718:./Libraries/STM32F4xx_HAL_Driver/Src/stm32f4xx_hal_nand.c ****   
 719:./Libraries/STM32F4xx_HAL_Driver/Src/stm32f4xx_hal_nand.c ****   /* Update the NAND controller state */ 
 720:./Libraries/STM32F4xx_HAL_Driver/Src/stm32f4xx_hal_nand.c ****   hnand->State = HAL_NAND_STATE_READY;
 1822              		.loc 1 720 16
 1823 0234 FB68     		ldr	r3, [r7, #12]
 1824 0236 0122     		movs	r2, #1
 1825 0238 83F82120 		strb	r2, [r3, #33]
 721:./Libraries/STM32F4xx_HAL_Driver/Src/stm32f4xx_hal_nand.c ****   
 722:./Libraries/STM32F4xx_HAL_Driver/Src/stm32f4xx_hal_nand.c ****   /* Process unlocked */
 723:./Libraries/STM32F4xx_HAL_Driver/Src/stm32f4xx_hal_nand.c ****   __HAL_UNLOCK(hnand);  
 1826              		.loc 1 723 3
 1827 023c FB68     		ldr	r3, [r7, #12]
 1828 023e 0022     		movs	r2, #0
 1829 0240 83F82020 		strb	r2, [r3, #32]
 724:./Libraries/STM32F4xx_HAL_Driver/Src/stm32f4xx_hal_nand.c ****     
 725:./Libraries/STM32F4xx_HAL_Driver/Src/stm32f4xx_hal_nand.c ****   return HAL_OK;
 1830              		.loc 1 725 10
 1831 0244 0023     		movs	r3, #0
 1832              	.L66:
 726:./Libraries/STM32F4xx_HAL_Driver/Src/stm32f4xx_hal_nand.c **** }
 1833              		.loc 1 726 1
 1834 0246 1846     		mov	r0, r3
 1835 0248 2837     		adds	r7, r7, #40
 1836              	.LCFI59:
 1837              		.cfi_def_cfa_offset 8
 1838 024a BD46     		mov	sp, r7
 1839              	.LCFI60:
 1840              		.cfi_def_cfa_register 13
 1841              		@ sp needed
 1842 024c 80BD     		pop	{r7, pc}
 1843              		.cfi_endproc
 1844              	.LFE136:
 1846              		.section	.text.HAL_NAND_Write_Page_8b,"ax",%progbits
 1847              		.align	1
 1848              		.global	HAL_NAND_Write_Page_8b
 1849              		.syntax unified
 1850              		.thumb
 1851              		.thumb_func
 1852              		.fpu fpv4-sp-d16
 1854              	HAL_NAND_Write_Page_8b:
 1855              	.LFB137:
 727:./Libraries/STM32F4xx_HAL_Driver/Src/stm32f4xx_hal_nand.c **** 
 728:./Libraries/STM32F4xx_HAL_Driver/Src/stm32f4xx_hal_nand.c **** /**
 729:./Libraries/STM32F4xx_HAL_Driver/Src/stm32f4xx_hal_nand.c ****   * @brief  Write Page(s) to NAND memory block (8-bits addressing)
 730:./Libraries/STM32F4xx_HAL_Driver/Src/stm32f4xx_hal_nand.c ****   * @param  hnand pointer to a NAND_HandleTypeDef structure that contains
 731:./Libraries/STM32F4xx_HAL_Driver/Src/stm32f4xx_hal_nand.c ****   *                the configuration information for NAND module.
 732:./Libraries/STM32F4xx_HAL_Driver/Src/stm32f4xx_hal_nand.c ****   * @param  pAddress  pointer to NAND address structure
 733:./Libraries/STM32F4xx_HAL_Driver/Src/stm32f4xx_hal_nand.c ****   * @param  pBuffer  pointer to source buffer to write  
 734:./Libraries/STM32F4xx_HAL_Driver/Src/stm32f4xx_hal_nand.c ****   * @param  NumPageToWrite   number of pages to write to block 
 735:./Libraries/STM32F4xx_HAL_Driver/Src/stm32f4xx_hal_nand.c ****   * @retval HAL status
 736:./Libraries/STM32F4xx_HAL_Driver/Src/stm32f4xx_hal_nand.c ****   */
 737:./Libraries/STM32F4xx_HAL_Driver/Src/stm32f4xx_hal_nand.c **** HAL_StatusTypeDef HAL_NAND_Write_Page_8b(NAND_HandleTypeDef *hnand, NAND_AddressTypeDef *pAddress, 
ARM GAS  /tmp/ccmBJYMF.s 			page 54


 738:./Libraries/STM32F4xx_HAL_Driver/Src/stm32f4xx_hal_nand.c **** {
 1856              		.loc 1 738 1
 1857              		.cfi_startproc
 1858              		@ args = 0, pretend = 0, frame = 40
 1859              		@ frame_needed = 1, uses_anonymous_args = 0
 1860 0000 80B5     		push	{r7, lr}
 1861              	.LCFI61:
 1862              		.cfi_def_cfa_offset 8
 1863              		.cfi_offset 7, -8
 1864              		.cfi_offset 14, -4
 1865 0002 8AB0     		sub	sp, sp, #40
 1866              	.LCFI62:
 1867              		.cfi_def_cfa_offset 48
 1868 0004 00AF     		add	r7, sp, #0
 1869              	.LCFI63:
 1870              		.cfi_def_cfa_register 7
 1871 0006 F860     		str	r0, [r7, #12]
 1872 0008 B960     		str	r1, [r7, #8]
 1873 000a 7A60     		str	r2, [r7, #4]
 1874 000c 3B60     		str	r3, [r7]
 739:./Libraries/STM32F4xx_HAL_Driver/Src/stm32f4xx_hal_nand.c ****   __IO uint32_t index = 0U;
 1875              		.loc 1 739 17
 1876 000e 0023     		movs	r3, #0
 1877 0010 3B61     		str	r3, [r7, #16]
 740:./Libraries/STM32F4xx_HAL_Driver/Src/stm32f4xx_hal_nand.c ****   uint32_t tickstart = 0U;
 1878              		.loc 1 740 12
 1879 0012 0023     		movs	r3, #0
 1880 0014 BB61     		str	r3, [r7, #24]
 741:./Libraries/STM32F4xx_HAL_Driver/Src/stm32f4xx_hal_nand.c ****   uint32_t deviceaddress = 0U, size = 0U, numPagesWritten = 0U, nandaddress = 0U;
 1881              		.loc 1 741 12
 1882 0016 0023     		movs	r3, #0
 1883 0018 7B62     		str	r3, [r7, #36]
 1884              		.loc 1 741 32
 1885 001a 0023     		movs	r3, #0
 1886 001c 7B61     		str	r3, [r7, #20]
 1887              		.loc 1 741 43
 1888 001e 0023     		movs	r3, #0
 1889 0020 3B62     		str	r3, [r7, #32]
 1890              		.loc 1 741 65
 1891 0022 0023     		movs	r3, #0
 1892 0024 FB61     		str	r3, [r7, #28]
 742:./Libraries/STM32F4xx_HAL_Driver/Src/stm32f4xx_hal_nand.c ****   
 743:./Libraries/STM32F4xx_HAL_Driver/Src/stm32f4xx_hal_nand.c ****   /* Process Locked */
 744:./Libraries/STM32F4xx_HAL_Driver/Src/stm32f4xx_hal_nand.c ****   __HAL_LOCK(hnand);  
 1893              		.loc 1 744 3
 1894 0026 FB68     		ldr	r3, [r7, #12]
 1895 0028 93F82030 		ldrb	r3, [r3, #32]	@ zero_extendqisi2
 1896 002c 012B     		cmp	r3, #1
 1897 002e 01D1     		bne	.L83
 1898              		.loc 1 744 3 is_stmt 0 discriminator 1
 1899 0030 0223     		movs	r3, #2
 1900 0032 06E1     		b	.L84
 1901              	.L83:
 1902              		.loc 1 744 3 discriminator 2
 1903 0034 FB68     		ldr	r3, [r7, #12]
 1904 0036 0122     		movs	r2, #1
 1905 0038 83F82020 		strb	r2, [r3, #32]
ARM GAS  /tmp/ccmBJYMF.s 			page 55


 745:./Libraries/STM32F4xx_HAL_Driver/Src/stm32f4xx_hal_nand.c **** 
 746:./Libraries/STM32F4xx_HAL_Driver/Src/stm32f4xx_hal_nand.c ****   /* Check the NAND controller state */
 747:./Libraries/STM32F4xx_HAL_Driver/Src/stm32f4xx_hal_nand.c ****   if(hnand->State == HAL_NAND_STATE_BUSY)
 1906              		.loc 1 747 11 is_stmt 1 discriminator 2
 1907 003c FB68     		ldr	r3, [r7, #12]
 1908 003e 93F82130 		ldrb	r3, [r3, #33]
 1909 0042 DBB2     		uxtb	r3, r3
 1910              		.loc 1 747 5 discriminator 2
 1911 0044 022B     		cmp	r3, #2
 1912 0046 01D1     		bne	.L85
 748:./Libraries/STM32F4xx_HAL_Driver/Src/stm32f4xx_hal_nand.c ****   {
 749:./Libraries/STM32F4xx_HAL_Driver/Src/stm32f4xx_hal_nand.c ****      return HAL_BUSY;
 1913              		.loc 1 749 13
 1914 0048 0223     		movs	r3, #2
 1915 004a FAE0     		b	.L84
 1916              	.L85:
 750:./Libraries/STM32F4xx_HAL_Driver/Src/stm32f4xx_hal_nand.c ****   }
 751:./Libraries/STM32F4xx_HAL_Driver/Src/stm32f4xx_hal_nand.c ****   
 752:./Libraries/STM32F4xx_HAL_Driver/Src/stm32f4xx_hal_nand.c ****   /* Identify the device address */
 753:./Libraries/STM32F4xx_HAL_Driver/Src/stm32f4xx_hal_nand.c ****   if(hnand->Init.NandBank == FMC_NAND_BANK2)
 1917              		.loc 1 753 17
 1918 004c FB68     		ldr	r3, [r7, #12]
 1919 004e 5B68     		ldr	r3, [r3, #4]
 1920              		.loc 1 753 5
 1921 0050 102B     		cmp	r3, #16
 1922 0052 03D1     		bne	.L86
 754:./Libraries/STM32F4xx_HAL_Driver/Src/stm32f4xx_hal_nand.c ****   {
 755:./Libraries/STM32F4xx_HAL_Driver/Src/stm32f4xx_hal_nand.c ****     deviceaddress = NAND_DEVICE1;
 1923              		.loc 1 755 19
 1924 0054 4FF0E043 		mov	r3, #1879048192
 1925 0058 7B62     		str	r3, [r7, #36]
 1926 005a 02E0     		b	.L87
 1927              	.L86:
 756:./Libraries/STM32F4xx_HAL_Driver/Src/stm32f4xx_hal_nand.c ****   }
 757:./Libraries/STM32F4xx_HAL_Driver/Src/stm32f4xx_hal_nand.c ****   else
 758:./Libraries/STM32F4xx_HAL_Driver/Src/stm32f4xx_hal_nand.c ****   {
 759:./Libraries/STM32F4xx_HAL_Driver/Src/stm32f4xx_hal_nand.c ****     deviceaddress = NAND_DEVICE2;
 1928              		.loc 1 759 19
 1929 005c 4FF00043 		mov	r3, #-2147483648
 1930 0060 7B62     		str	r3, [r7, #36]
 1931              	.L87:
 760:./Libraries/STM32F4xx_HAL_Driver/Src/stm32f4xx_hal_nand.c ****   }
 761:./Libraries/STM32F4xx_HAL_Driver/Src/stm32f4xx_hal_nand.c ****   
 762:./Libraries/STM32F4xx_HAL_Driver/Src/stm32f4xx_hal_nand.c ****   /* Update the NAND controller state */ 
 763:./Libraries/STM32F4xx_HAL_Driver/Src/stm32f4xx_hal_nand.c ****   hnand->State = HAL_NAND_STATE_BUSY;
 1932              		.loc 1 763 16
 1933 0062 FB68     		ldr	r3, [r7, #12]
 1934 0064 0222     		movs	r2, #2
 1935 0066 83F82120 		strb	r2, [r3, #33]
 764:./Libraries/STM32F4xx_HAL_Driver/Src/stm32f4xx_hal_nand.c ****   
 765:./Libraries/STM32F4xx_HAL_Driver/Src/stm32f4xx_hal_nand.c ****   /* NAND raw address calculation */
 766:./Libraries/STM32F4xx_HAL_Driver/Src/stm32f4xx_hal_nand.c ****   nandaddress = ARRAY_ADDRESS(pAddress, hnand);
 1936              		.loc 1 766 17
 1937 006a BB68     		ldr	r3, [r7, #8]
 1938 006c 1B88     		ldrh	r3, [r3]
 1939 006e 1946     		mov	r1, r3
 1940 0070 BB68     		ldr	r3, [r7, #8]
ARM GAS  /tmp/ccmBJYMF.s 			page 56


 1941 0072 9B88     		ldrh	r3, [r3, #4]
 1942 0074 1A46     		mov	r2, r3
 1943 0076 BB68     		ldr	r3, [r7, #8]
 1944 0078 5B88     		ldrh	r3, [r3, #2]
 1945 007a 1846     		mov	r0, r3
 1946 007c FB68     		ldr	r3, [r7, #12]
 1947 007e 9B6B     		ldr	r3, [r3, #56]
 1948 0080 00FB03F3 		mul	r3, r0, r3
 1949 0084 1344     		add	r3, r3, r2
 1950 0086 FA68     		ldr	r2, [r7, #12]
 1951 0088 D26A     		ldr	r2, [r2, #44]
 1952 008a 02FB03F3 		mul	r3, r2, r3
 1953              		.loc 1 766 15
 1954 008e 0B44     		add	r3, r3, r1
 1955 0090 FB61     		str	r3, [r7, #28]
 767:./Libraries/STM32F4xx_HAL_Driver/Src/stm32f4xx_hal_nand.c ****     
 768:./Libraries/STM32F4xx_HAL_Driver/Src/stm32f4xx_hal_nand.c ****   /* Page(s) write loop */
 769:./Libraries/STM32F4xx_HAL_Driver/Src/stm32f4xx_hal_nand.c ****   while((NumPageToWrite != 0U) && (nandaddress < ((hnand->Config.BlockSize) * (hnand->Config.BlockN
 1956              		.loc 1 769 8
 1957 0092 C0E0     		b	.L88
 1958              	.L98:
 770:./Libraries/STM32F4xx_HAL_Driver/Src/stm32f4xx_hal_nand.c ****   {
 771:./Libraries/STM32F4xx_HAL_Driver/Src/stm32f4xx_hal_nand.c ****     /* update the buffer size */
 772:./Libraries/STM32F4xx_HAL_Driver/Src/stm32f4xx_hal_nand.c ****     size = hnand->Config.PageSize + ((hnand->Config.PageSize) * numPagesWritten);
 1959              		.loc 1 772 35
 1960 0094 3B6A     		ldr	r3, [r7, #32]
 1961 0096 0133     		adds	r3, r3, #1
 1962              		.loc 1 772 25
 1963 0098 FA68     		ldr	r2, [r7, #12]
 1964 009a 526A     		ldr	r2, [r2, #36]
 1965              		.loc 1 772 10
 1966 009c 02FB03F3 		mul	r3, r2, r3
 1967 00a0 7B61     		str	r3, [r7, #20]
 773:./Libraries/STM32F4xx_HAL_Driver/Src/stm32f4xx_hal_nand.c ****     
 774:./Libraries/STM32F4xx_HAL_Driver/Src/stm32f4xx_hal_nand.c ****     /* Send write page command sequence */
 775:./Libraries/STM32F4xx_HAL_Driver/Src/stm32f4xx_hal_nand.c ****     *(__IO uint8_t *)((uint32_t)(deviceaddress | CMD_AREA)) = NAND_CMD_AREA_A;
 1968              		.loc 1 775 23
 1969 00a2 7B6A     		ldr	r3, [r7, #36]
 1970 00a4 43F48033 		orr	r3, r3, #65536
 1971              		.loc 1 775 61
 1972 00a8 0022     		movs	r2, #0
 1973 00aa 1A70     		strb	r2, [r3]
 776:./Libraries/STM32F4xx_HAL_Driver/Src/stm32f4xx_hal_nand.c ****     *(__IO uint8_t *)((uint32_t)(deviceaddress | CMD_AREA)) = NAND_CMD_WRITE0;
 1974              		.loc 1 776 23
 1975 00ac 7B6A     		ldr	r3, [r7, #36]
 1976 00ae 43F48033 		orr	r3, r3, #65536
 1977              		.loc 1 776 61
 1978 00b2 8022     		movs	r2, #128
 1979 00b4 1A70     		strb	r2, [r3]
 777:./Libraries/STM32F4xx_HAL_Driver/Src/stm32f4xx_hal_nand.c **** 
 778:./Libraries/STM32F4xx_HAL_Driver/Src/stm32f4xx_hal_nand.c ****     /* Cards with page size <= 512 bytes */
 779:./Libraries/STM32F4xx_HAL_Driver/Src/stm32f4xx_hal_nand.c ****     if((hnand->Config.PageSize) <= 512U)
 1980              		.loc 1 779 22
 1981 00b6 FB68     		ldr	r3, [r7, #12]
 1982 00b8 5B6A     		ldr	r3, [r3, #36]
 1983              		.loc 1 779 7
 1984 00ba B3F5007F 		cmp	r3, #512
ARM GAS  /tmp/ccmBJYMF.s 			page 57


 1985 00be 35D8     		bhi	.L89
 780:./Libraries/STM32F4xx_HAL_Driver/Src/stm32f4xx_hal_nand.c ****     {
 781:./Libraries/STM32F4xx_HAL_Driver/Src/stm32f4xx_hal_nand.c ****       if (((hnand->Config.BlockSize)*(hnand->Config.BlockNbr)) <= 65535U)
 1986              		.loc 1 781 26
 1987 00c0 FB68     		ldr	r3, [r7, #12]
 1988 00c2 DB6A     		ldr	r3, [r3, #44]
 1989              		.loc 1 781 52
 1990 00c4 FA68     		ldr	r2, [r7, #12]
 1991 00c6 126B     		ldr	r2, [r2, #48]
 1992              		.loc 1 781 37
 1993 00c8 02FB03F3 		mul	r3, r2, r3
 1994              		.loc 1 781 10
 1995 00cc B3F5803F 		cmp	r3, #65536
 1996 00d0 12D2     		bcs	.L90
 782:./Libraries/STM32F4xx_HAL_Driver/Src/stm32f4xx_hal_nand.c ****       {
 783:./Libraries/STM32F4xx_HAL_Driver/Src/stm32f4xx_hal_nand.c ****         *(__IO uint8_t *)((uint32_t)(deviceaddress | ADDR_AREA)) = 0x00;
 1997              		.loc 1 783 27
 1998 00d2 7B6A     		ldr	r3, [r7, #36]
 1999 00d4 43F40033 		orr	r3, r3, #131072
 2000              		.loc 1 783 66
 2001 00d8 0022     		movs	r2, #0
 2002 00da 1A70     		strb	r2, [r3]
 784:./Libraries/STM32F4xx_HAL_Driver/Src/stm32f4xx_hal_nand.c ****         *(__IO uint8_t *)((uint32_t)(deviceaddress | ADDR_AREA)) = ADDR_1ST_CYCLE(nandaddress);
 2003              		.loc 1 784 27
 2004 00dc 7B6A     		ldr	r3, [r7, #36]
 2005 00de 43F40033 		orr	r3, r3, #131072
 2006              		.loc 1 784 68
 2007 00e2 FA69     		ldr	r2, [r7, #28]
 2008 00e4 D2B2     		uxtb	r2, r2
 2009              		.loc 1 784 66
 2010 00e6 1A70     		strb	r2, [r3]
 785:./Libraries/STM32F4xx_HAL_Driver/Src/stm32f4xx_hal_nand.c ****         *(__IO uint8_t *)((uint32_t)(deviceaddress | ADDR_AREA)) = ADDR_2ND_CYCLE(nandaddress);
 2011              		.loc 1 785 68
 2012 00e8 FB69     		ldr	r3, [r7, #28]
 2013 00ea 1A0A     		lsrs	r2, r3, #8
 2014              		.loc 1 785 27
 2015 00ec 7B6A     		ldr	r3, [r7, #36]
 2016 00ee 43F40033 		orr	r3, r3, #131072
 2017              		.loc 1 785 68
 2018 00f2 D2B2     		uxtb	r2, r2
 2019              		.loc 1 785 66
 2020 00f4 1A70     		strb	r2, [r3]
 2021 00f6 68E0     		b	.L93
 2022              	.L90:
 786:./Libraries/STM32F4xx_HAL_Driver/Src/stm32f4xx_hal_nand.c ****       }
 787:./Libraries/STM32F4xx_HAL_Driver/Src/stm32f4xx_hal_nand.c ****       else /* ((hnand->Config.BlockSize)*(hnand->Config.BlockNbr)) > 65535 */
 788:./Libraries/STM32F4xx_HAL_Driver/Src/stm32f4xx_hal_nand.c ****       {
 789:./Libraries/STM32F4xx_HAL_Driver/Src/stm32f4xx_hal_nand.c ****         *(__IO uint8_t *)((uint32_t)(deviceaddress | ADDR_AREA)) = 0x00;
 2023              		.loc 1 789 27
 2024 00f8 7B6A     		ldr	r3, [r7, #36]
 2025 00fa 43F40033 		orr	r3, r3, #131072
 2026              		.loc 1 789 66
 2027 00fe 0022     		movs	r2, #0
 2028 0100 1A70     		strb	r2, [r3]
 790:./Libraries/STM32F4xx_HAL_Driver/Src/stm32f4xx_hal_nand.c ****         *(__IO uint8_t *)((uint32_t)(deviceaddress | ADDR_AREA)) = ADDR_1ST_CYCLE(nandaddress);
 2029              		.loc 1 790 27
 2030 0102 7B6A     		ldr	r3, [r7, #36]
ARM GAS  /tmp/ccmBJYMF.s 			page 58


 2031 0104 43F40033 		orr	r3, r3, #131072
 2032              		.loc 1 790 68
 2033 0108 FA69     		ldr	r2, [r7, #28]
 2034 010a D2B2     		uxtb	r2, r2
 2035              		.loc 1 790 66
 2036 010c 1A70     		strb	r2, [r3]
 791:./Libraries/STM32F4xx_HAL_Driver/Src/stm32f4xx_hal_nand.c ****         *(__IO uint8_t *)((uint32_t)(deviceaddress | ADDR_AREA)) = ADDR_2ND_CYCLE(nandaddress);
 2037              		.loc 1 791 68
 2038 010e FB69     		ldr	r3, [r7, #28]
 2039 0110 1A0A     		lsrs	r2, r3, #8
 2040              		.loc 1 791 27
 2041 0112 7B6A     		ldr	r3, [r7, #36]
 2042 0114 43F40033 		orr	r3, r3, #131072
 2043              		.loc 1 791 68
 2044 0118 D2B2     		uxtb	r2, r2
 2045              		.loc 1 791 66
 2046 011a 1A70     		strb	r2, [r3]
 792:./Libraries/STM32F4xx_HAL_Driver/Src/stm32f4xx_hal_nand.c ****         *(__IO uint8_t *)((uint32_t)(deviceaddress | ADDR_AREA)) = ADDR_3RD_CYCLE(nandaddress);
 2047              		.loc 1 792 68
 2048 011c FB69     		ldr	r3, [r7, #28]
 2049 011e 1A0C     		lsrs	r2, r3, #16
 2050              		.loc 1 792 27
 2051 0120 7B6A     		ldr	r3, [r7, #36]
 2052 0122 43F40033 		orr	r3, r3, #131072
 2053              		.loc 1 792 68
 2054 0126 D2B2     		uxtb	r2, r2
 2055              		.loc 1 792 66
 2056 0128 1A70     		strb	r2, [r3]
 2057 012a 4EE0     		b	.L93
 2058              	.L89:
 793:./Libraries/STM32F4xx_HAL_Driver/Src/stm32f4xx_hal_nand.c ****       }
 794:./Libraries/STM32F4xx_HAL_Driver/Src/stm32f4xx_hal_nand.c ****     }
 795:./Libraries/STM32F4xx_HAL_Driver/Src/stm32f4xx_hal_nand.c ****     else /* (hnand->Config.PageSize) > 512 */
 796:./Libraries/STM32F4xx_HAL_Driver/Src/stm32f4xx_hal_nand.c ****     {
 797:./Libraries/STM32F4xx_HAL_Driver/Src/stm32f4xx_hal_nand.c ****       if (((hnand->Config.BlockSize)*(hnand->Config.BlockNbr)) <= 65535U)
 2059              		.loc 1 797 26
 2060 012c FB68     		ldr	r3, [r7, #12]
 2061 012e DB6A     		ldr	r3, [r3, #44]
 2062              		.loc 1 797 52
 2063 0130 FA68     		ldr	r2, [r7, #12]
 2064 0132 126B     		ldr	r2, [r2, #48]
 2065              		.loc 1 797 37
 2066 0134 02FB03F3 		mul	r3, r2, r3
 2067              		.loc 1 797 10
 2068 0138 B3F5803F 		cmp	r3, #65536
 2069 013c 17D2     		bcs	.L92
 798:./Libraries/STM32F4xx_HAL_Driver/Src/stm32f4xx_hal_nand.c ****       {
 799:./Libraries/STM32F4xx_HAL_Driver/Src/stm32f4xx_hal_nand.c ****         *(__IO uint8_t *)((uint32_t)(deviceaddress | ADDR_AREA)) = 0x00;
 2070              		.loc 1 799 27
 2071 013e 7B6A     		ldr	r3, [r7, #36]
 2072 0140 43F40033 		orr	r3, r3, #131072
 2073              		.loc 1 799 66
 2074 0144 0022     		movs	r2, #0
 2075 0146 1A70     		strb	r2, [r3]
 800:./Libraries/STM32F4xx_HAL_Driver/Src/stm32f4xx_hal_nand.c ****         *(__IO uint8_t *)((uint32_t)(deviceaddress | ADDR_AREA)) = 0x00;
 2076              		.loc 1 800 27
 2077 0148 7B6A     		ldr	r3, [r7, #36]
ARM GAS  /tmp/ccmBJYMF.s 			page 59


 2078 014a 43F40033 		orr	r3, r3, #131072
 2079              		.loc 1 800 66
 2080 014e 0022     		movs	r2, #0
 2081 0150 1A70     		strb	r2, [r3]
 801:./Libraries/STM32F4xx_HAL_Driver/Src/stm32f4xx_hal_nand.c ****         *(__IO uint8_t *)((uint32_t)(deviceaddress | ADDR_AREA)) = ADDR_1ST_CYCLE(nandaddress);
 2082              		.loc 1 801 27
 2083 0152 7B6A     		ldr	r3, [r7, #36]
 2084 0154 43F40033 		orr	r3, r3, #131072
 2085              		.loc 1 801 68
 2086 0158 FA69     		ldr	r2, [r7, #28]
 2087 015a D2B2     		uxtb	r2, r2
 2088              		.loc 1 801 66
 2089 015c 1A70     		strb	r2, [r3]
 802:./Libraries/STM32F4xx_HAL_Driver/Src/stm32f4xx_hal_nand.c ****         *(__IO uint8_t *)((uint32_t)(deviceaddress | ADDR_AREA)) = ADDR_2ND_CYCLE(nandaddress);
 2090              		.loc 1 802 68
 2091 015e FB69     		ldr	r3, [r7, #28]
 2092 0160 1A0A     		lsrs	r2, r3, #8
 2093              		.loc 1 802 27
 2094 0162 7B6A     		ldr	r3, [r7, #36]
 2095 0164 43F40033 		orr	r3, r3, #131072
 2096              		.loc 1 802 68
 2097 0168 D2B2     		uxtb	r2, r2
 2098              		.loc 1 802 66
 2099 016a 1A70     		strb	r2, [r3]
 2100 016c 2DE0     		b	.L93
 2101              	.L92:
 803:./Libraries/STM32F4xx_HAL_Driver/Src/stm32f4xx_hal_nand.c ****       }
 804:./Libraries/STM32F4xx_HAL_Driver/Src/stm32f4xx_hal_nand.c ****       else /* ((hnand->Config.BlockSize)*(hnand->Config.BlockNbr)) > 65535 */
 805:./Libraries/STM32F4xx_HAL_Driver/Src/stm32f4xx_hal_nand.c ****       {
 806:./Libraries/STM32F4xx_HAL_Driver/Src/stm32f4xx_hal_nand.c ****         *(__IO uint8_t *)((uint32_t)(deviceaddress | ADDR_AREA)) = 0x00;
 2102              		.loc 1 806 27
 2103 016e 7B6A     		ldr	r3, [r7, #36]
 2104 0170 43F40033 		orr	r3, r3, #131072
 2105              		.loc 1 806 66
 2106 0174 0022     		movs	r2, #0
 2107 0176 1A70     		strb	r2, [r3]
 807:./Libraries/STM32F4xx_HAL_Driver/Src/stm32f4xx_hal_nand.c ****         *(__IO uint8_t *)((uint32_t)(deviceaddress | ADDR_AREA)) = 0x00;
 2108              		.loc 1 807 27
 2109 0178 7B6A     		ldr	r3, [r7, #36]
 2110 017a 43F40033 		orr	r3, r3, #131072
 2111              		.loc 1 807 66
 2112 017e 0022     		movs	r2, #0
 2113 0180 1A70     		strb	r2, [r3]
 808:./Libraries/STM32F4xx_HAL_Driver/Src/stm32f4xx_hal_nand.c ****         *(__IO uint8_t *)((uint32_t)(deviceaddress | ADDR_AREA)) = ADDR_1ST_CYCLE(nandaddress);
 2114              		.loc 1 808 27
 2115 0182 7B6A     		ldr	r3, [r7, #36]
 2116 0184 43F40033 		orr	r3, r3, #131072
 2117              		.loc 1 808 68
 2118 0188 FA69     		ldr	r2, [r7, #28]
 2119 018a D2B2     		uxtb	r2, r2
 2120              		.loc 1 808 66
 2121 018c 1A70     		strb	r2, [r3]
 809:./Libraries/STM32F4xx_HAL_Driver/Src/stm32f4xx_hal_nand.c ****         *(__IO uint8_t *)((uint32_t)(deviceaddress | ADDR_AREA)) = ADDR_2ND_CYCLE(nandaddress);
 2122              		.loc 1 809 68
 2123 018e FB69     		ldr	r3, [r7, #28]
 2124 0190 1A0A     		lsrs	r2, r3, #8
 2125              		.loc 1 809 27
ARM GAS  /tmp/ccmBJYMF.s 			page 60


 2126 0192 7B6A     		ldr	r3, [r7, #36]
 2127 0194 43F40033 		orr	r3, r3, #131072
 2128              		.loc 1 809 68
 2129 0198 D2B2     		uxtb	r2, r2
 2130              		.loc 1 809 66
 2131 019a 1A70     		strb	r2, [r3]
 2132              	.LBB18:
 2133              	.LBB19:
 429:./Libraries/CMSIS/Include/cmsis_gcc.h **** }
 2134              		.loc 2 429 3
 2135              		.syntax unified
 2136              	@ 429 "./Libraries/CMSIS/Include/cmsis_gcc.h" 1
 2137 019c BFF34F8F 		dsb 0xF
 2138              	@ 0 "" 2
 2139              		.loc 2 430 1
 2140              		.thumb
 2141              		.syntax unified
 2142 01a0 00BF     		nop
 2143              	.LBE19:
 2144              	.LBE18:
 810:./Libraries/STM32F4xx_HAL_Driver/Src/stm32f4xx_hal_nand.c ****         __DSB();
 811:./Libraries/STM32F4xx_HAL_Driver/Src/stm32f4xx_hal_nand.c ****         *(__IO uint8_t *)((uint32_t)(deviceaddress | ADDR_AREA)) = ADDR_3RD_CYCLE(nandaddress);
 2145              		.loc 1 811 68
 2146 01a2 FB69     		ldr	r3, [r7, #28]
 2147 01a4 1A0C     		lsrs	r2, r3, #16
 2148              		.loc 1 811 27
 2149 01a6 7B6A     		ldr	r3, [r7, #36]
 2150 01a8 43F40033 		orr	r3, r3, #131072
 2151              		.loc 1 811 68
 2152 01ac D2B2     		uxtb	r2, r2
 2153              		.loc 1 811 66
 2154 01ae 1A70     		strb	r2, [r3]
 2155              	.LBB20:
 2156              	.LBB21:
 429:./Libraries/CMSIS/Include/cmsis_gcc.h **** }
 2157              		.loc 2 429 3
 2158              		.syntax unified
 2159              	@ 429 "./Libraries/CMSIS/Include/cmsis_gcc.h" 1
 2160 01b0 BFF34F8F 		dsb 0xF
 2161              	@ 0 "" 2
 2162              		.loc 2 430 1
 2163              		.thumb
 2164              		.syntax unified
 2165 01b4 00BF     		nop
 2166              	.LBE21:
 2167              	.LBE20:
 812:./Libraries/STM32F4xx_HAL_Driver/Src/stm32f4xx_hal_nand.c ****         __DSB();
 813:./Libraries/STM32F4xx_HAL_Driver/Src/stm32f4xx_hal_nand.c ****       }
 814:./Libraries/STM32F4xx_HAL_Driver/Src/stm32f4xx_hal_nand.c ****     }
 815:./Libraries/STM32F4xx_HAL_Driver/Src/stm32f4xx_hal_nand.c ****   
 816:./Libraries/STM32F4xx_HAL_Driver/Src/stm32f4xx_hal_nand.c **** 
 817:./Libraries/STM32F4xx_HAL_Driver/Src/stm32f4xx_hal_nand.c ****     /* Write data to memory */
 818:./Libraries/STM32F4xx_HAL_Driver/Src/stm32f4xx_hal_nand.c ****     for(; index < size; index++)
 2168              		.loc 1 818 5
 2169 01b6 08E0     		b	.L93
 2170              	.L94:
 819:./Libraries/STM32F4xx_HAL_Driver/Src/stm32f4xx_hal_nand.c ****     {
ARM GAS  /tmp/ccmBJYMF.s 			page 61


 820:./Libraries/STM32F4xx_HAL_Driver/Src/stm32f4xx_hal_nand.c ****       *(__IO uint8_t *)deviceaddress = *(uint8_t *)pBuffer++;
 2171              		.loc 1 820 41 discriminator 2
 2172 01b8 7B68     		ldr	r3, [r7, #4]
 2173 01ba 5A1C     		adds	r2, r3, #1
 2174 01bc 7A60     		str	r2, [r7, #4]
 2175              		.loc 1 820 8 discriminator 2
 2176 01be 7A6A     		ldr	r2, [r7, #36]
 2177              		.loc 1 820 40 discriminator 2
 2178 01c0 1B78     		ldrb	r3, [r3]	@ zero_extendqisi2
 2179              		.loc 1 820 38 discriminator 2
 2180 01c2 1370     		strb	r3, [r2]
 818:./Libraries/STM32F4xx_HAL_Driver/Src/stm32f4xx_hal_nand.c ****     {
 2181              		.loc 1 818 30 discriminator 2
 2182 01c4 3B69     		ldr	r3, [r7, #16]
 2183 01c6 0133     		adds	r3, r3, #1
 2184 01c8 3B61     		str	r3, [r7, #16]
 2185              	.L93:
 818:./Libraries/STM32F4xx_HAL_Driver/Src/stm32f4xx_hal_nand.c ****     {
 2186              		.loc 1 818 17 discriminator 1
 2187 01ca 3B69     		ldr	r3, [r7, #16]
 818:./Libraries/STM32F4xx_HAL_Driver/Src/stm32f4xx_hal_nand.c ****     {
 2188              		.loc 1 818 5 discriminator 1
 2189 01cc 7A69     		ldr	r2, [r7, #20]
 2190 01ce 9A42     		cmp	r2, r3
 2191 01d0 F2D8     		bhi	.L94
 821:./Libraries/STM32F4xx_HAL_Driver/Src/stm32f4xx_hal_nand.c ****     }
 822:./Libraries/STM32F4xx_HAL_Driver/Src/stm32f4xx_hal_nand.c ****    
 823:./Libraries/STM32F4xx_HAL_Driver/Src/stm32f4xx_hal_nand.c ****     *(__IO uint8_t *)((uint32_t)(deviceaddress | CMD_AREA)) = NAND_CMD_WRITE_TRUE1;
 2192              		.loc 1 823 23
 2193 01d2 7B6A     		ldr	r3, [r7, #36]
 2194 01d4 43F48033 		orr	r3, r3, #65536
 2195              		.loc 1 823 61
 2196 01d8 1022     		movs	r2, #16
 2197 01da 1A70     		strb	r2, [r3]
 824:./Libraries/STM32F4xx_HAL_Driver/Src/stm32f4xx_hal_nand.c ****     
 825:./Libraries/STM32F4xx_HAL_Driver/Src/stm32f4xx_hal_nand.c ****     /* Read status until NAND is ready */
 826:./Libraries/STM32F4xx_HAL_Driver/Src/stm32f4xx_hal_nand.c ****     while(HAL_NAND_Read_Status(hnand) != NAND_READY)
 2198              		.loc 1 826 10
 2199 01dc 0CE0     		b	.L95
 2200              	.L96:
 827:./Libraries/STM32F4xx_HAL_Driver/Src/stm32f4xx_hal_nand.c ****     {
 828:./Libraries/STM32F4xx_HAL_Driver/Src/stm32f4xx_hal_nand.c ****       /* Get tick */
 829:./Libraries/STM32F4xx_HAL_Driver/Src/stm32f4xx_hal_nand.c ****       tickstart = HAL_GetTick();
 2201              		.loc 1 829 19
 2202 01de FFF7FEFF 		bl	HAL_GetTick
 2203 01e2 B861     		str	r0, [r7, #24]
 830:./Libraries/STM32F4xx_HAL_Driver/Src/stm32f4xx_hal_nand.c ****       
 831:./Libraries/STM32F4xx_HAL_Driver/Src/stm32f4xx_hal_nand.c ****       if((HAL_GetTick() - tickstart ) > NAND_WRITE_TIMEOUT)
 2204              		.loc 1 831 11
 2205 01e4 FFF7FEFF 		bl	HAL_GetTick
 2206 01e8 0246     		mov	r2, r0
 2207              		.loc 1 831 25
 2208 01ea BB69     		ldr	r3, [r7, #24]
 2209 01ec D31A     		subs	r3, r2, r3
 2210              		.loc 1 831 9
 2211 01ee B3F1807F 		cmp	r3, #16777216
 2212 01f2 01D9     		bls	.L95
ARM GAS  /tmp/ccmBJYMF.s 			page 62


 832:./Libraries/STM32F4xx_HAL_Driver/Src/stm32f4xx_hal_nand.c ****       {
 833:./Libraries/STM32F4xx_HAL_Driver/Src/stm32f4xx_hal_nand.c ****         return HAL_TIMEOUT; 
 2213              		.loc 1 833 16
 2214 01f4 0323     		movs	r3, #3
 2215 01f6 24E0     		b	.L84
 2216              	.L95:
 826:./Libraries/STM32F4xx_HAL_Driver/Src/stm32f4xx_hal_nand.c ****     {
 2217              		.loc 1 826 11
 2218 01f8 F868     		ldr	r0, [r7, #12]
 2219 01fa FFF7FEFF 		bl	HAL_NAND_Read_Status
 2220 01fe 0346     		mov	r3, r0
 826:./Libraries/STM32F4xx_HAL_Driver/Src/stm32f4xx_hal_nand.c ****     {
 2221              		.loc 1 826 10
 2222 0200 402B     		cmp	r3, #64
 2223 0202 ECD1     		bne	.L96
 834:./Libraries/STM32F4xx_HAL_Driver/Src/stm32f4xx_hal_nand.c ****       }
 835:./Libraries/STM32F4xx_HAL_Driver/Src/stm32f4xx_hal_nand.c ****     }
 836:./Libraries/STM32F4xx_HAL_Driver/Src/stm32f4xx_hal_nand.c ****  
 837:./Libraries/STM32F4xx_HAL_Driver/Src/stm32f4xx_hal_nand.c ****     /* Increment written pages number */
 838:./Libraries/STM32F4xx_HAL_Driver/Src/stm32f4xx_hal_nand.c ****     numPagesWritten++;
 2224              		.loc 1 838 20
 2225 0204 3B6A     		ldr	r3, [r7, #32]
 2226 0206 0133     		adds	r3, r3, #1
 2227 0208 3B62     		str	r3, [r7, #32]
 839:./Libraries/STM32F4xx_HAL_Driver/Src/stm32f4xx_hal_nand.c ****     
 840:./Libraries/STM32F4xx_HAL_Driver/Src/stm32f4xx_hal_nand.c ****     /* Decrement pages to write */
 841:./Libraries/STM32F4xx_HAL_Driver/Src/stm32f4xx_hal_nand.c ****     NumPageToWrite--;
 2228              		.loc 1 841 19
 2229 020a 3B68     		ldr	r3, [r7]
 2230 020c 013B     		subs	r3, r3, #1
 2231 020e 3B60     		str	r3, [r7]
 842:./Libraries/STM32F4xx_HAL_Driver/Src/stm32f4xx_hal_nand.c ****     
 843:./Libraries/STM32F4xx_HAL_Driver/Src/stm32f4xx_hal_nand.c ****     /* Increment the NAND address */
 844:./Libraries/STM32F4xx_HAL_Driver/Src/stm32f4xx_hal_nand.c ****     nandaddress = (uint32_t)(nandaddress + 1U);
 2232              		.loc 1 844 17
 2233 0210 FB69     		ldr	r3, [r7, #28]
 2234 0212 0133     		adds	r3, r3, #1
 2235 0214 FB61     		str	r3, [r7, #28]
 2236              	.L88:
 769:./Libraries/STM32F4xx_HAL_Driver/Src/stm32f4xx_hal_nand.c ****   {
 2237              		.loc 1 769 8
 2238 0216 3B68     		ldr	r3, [r7]
 2239 0218 002B     		cmp	r3, #0
 2240 021a 09D0     		beq	.L97
 769:./Libraries/STM32F4xx_HAL_Driver/Src/stm32f4xx_hal_nand.c ****   {
 2241              		.loc 1 769 65 discriminator 1
 2242 021c FB68     		ldr	r3, [r7, #12]
 2243 021e DB6A     		ldr	r3, [r3, #44]
 769:./Libraries/STM32F4xx_HAL_Driver/Src/stm32f4xx_hal_nand.c ****   {
 2244              		.loc 1 769 93 discriminator 1
 2245 0220 FA68     		ldr	r2, [r7, #12]
 2246 0222 126B     		ldr	r2, [r2, #48]
 769:./Libraries/STM32F4xx_HAL_Driver/Src/stm32f4xx_hal_nand.c ****   {
 2247              		.loc 1 769 77 discriminator 1
 2248 0224 02FB03F3 		mul	r3, r2, r3
 769:./Libraries/STM32F4xx_HAL_Driver/Src/stm32f4xx_hal_nand.c ****   {
 2249              		.loc 1 769 32 discriminator 1
ARM GAS  /tmp/ccmBJYMF.s 			page 63


 2250 0228 FA69     		ldr	r2, [r7, #28]
 2251 022a 9A42     		cmp	r2, r3
 2252 022c FFF432AF 		bcc	.L98
 2253              	.L97:
 845:./Libraries/STM32F4xx_HAL_Driver/Src/stm32f4xx_hal_nand.c ****   }
 846:./Libraries/STM32F4xx_HAL_Driver/Src/stm32f4xx_hal_nand.c ****   
 847:./Libraries/STM32F4xx_HAL_Driver/Src/stm32f4xx_hal_nand.c ****   /* Update the NAND controller state */ 
 848:./Libraries/STM32F4xx_HAL_Driver/Src/stm32f4xx_hal_nand.c ****   hnand->State = HAL_NAND_STATE_READY;
 2254              		.loc 1 848 16
 2255 0230 FB68     		ldr	r3, [r7, #12]
 2256 0232 0122     		movs	r2, #1
 2257 0234 83F82120 		strb	r2, [r3, #33]
 849:./Libraries/STM32F4xx_HAL_Driver/Src/stm32f4xx_hal_nand.c ****   
 850:./Libraries/STM32F4xx_HAL_Driver/Src/stm32f4xx_hal_nand.c ****   /* Process unlocked */
 851:./Libraries/STM32F4xx_HAL_Driver/Src/stm32f4xx_hal_nand.c ****   __HAL_UNLOCK(hnand);
 2258              		.loc 1 851 3
 2259 0238 FB68     		ldr	r3, [r7, #12]
 2260 023a 0022     		movs	r2, #0
 2261 023c 83F82020 		strb	r2, [r3, #32]
 852:./Libraries/STM32F4xx_HAL_Driver/Src/stm32f4xx_hal_nand.c ****   
 853:./Libraries/STM32F4xx_HAL_Driver/Src/stm32f4xx_hal_nand.c ****   return HAL_OK;
 2262              		.loc 1 853 10
 2263 0240 0023     		movs	r3, #0
 2264              	.L84:
 854:./Libraries/STM32F4xx_HAL_Driver/Src/stm32f4xx_hal_nand.c **** }
 2265              		.loc 1 854 1
 2266 0242 1846     		mov	r0, r3
 2267 0244 2837     		adds	r7, r7, #40
 2268              	.LCFI64:
 2269              		.cfi_def_cfa_offset 8
 2270 0246 BD46     		mov	sp, r7
 2271              	.LCFI65:
 2272              		.cfi_def_cfa_register 13
 2273              		@ sp needed
 2274 0248 80BD     		pop	{r7, pc}
 2275              		.cfi_endproc
 2276              	.LFE137:
 2278              		.section	.text.HAL_NAND_Write_Page_16b,"ax",%progbits
 2279              		.align	1
 2280              		.global	HAL_NAND_Write_Page_16b
 2281              		.syntax unified
 2282              		.thumb
 2283              		.thumb_func
 2284              		.fpu fpv4-sp-d16
 2286              	HAL_NAND_Write_Page_16b:
 2287              	.LFB138:
 855:./Libraries/STM32F4xx_HAL_Driver/Src/stm32f4xx_hal_nand.c **** 
 856:./Libraries/STM32F4xx_HAL_Driver/Src/stm32f4xx_hal_nand.c **** /**
 857:./Libraries/STM32F4xx_HAL_Driver/Src/stm32f4xx_hal_nand.c ****   * @brief  Write Page(s) to NAND memory block (16-bits addressing)
 858:./Libraries/STM32F4xx_HAL_Driver/Src/stm32f4xx_hal_nand.c ****   * @param  hnand pointer to a NAND_HandleTypeDef structure that contains
 859:./Libraries/STM32F4xx_HAL_Driver/Src/stm32f4xx_hal_nand.c ****   *                the configuration information for NAND module.
 860:./Libraries/STM32F4xx_HAL_Driver/Src/stm32f4xx_hal_nand.c ****   * @param  pAddress  pointer to NAND address structure
 861:./Libraries/STM32F4xx_HAL_Driver/Src/stm32f4xx_hal_nand.c ****   * @param  pBuffer  pointer to source buffer to write. pBuffer should be 16bits aligned
 862:./Libraries/STM32F4xx_HAL_Driver/Src/stm32f4xx_hal_nand.c ****   * @param  NumPageToWrite   number of pages to write to block 
 863:./Libraries/STM32F4xx_HAL_Driver/Src/stm32f4xx_hal_nand.c ****   * @retval HAL status
 864:./Libraries/STM32F4xx_HAL_Driver/Src/stm32f4xx_hal_nand.c ****   */
 865:./Libraries/STM32F4xx_HAL_Driver/Src/stm32f4xx_hal_nand.c **** HAL_StatusTypeDef HAL_NAND_Write_Page_16b(NAND_HandleTypeDef *hnand, NAND_AddressTypeDef *pAddress,
ARM GAS  /tmp/ccmBJYMF.s 			page 64


 866:./Libraries/STM32F4xx_HAL_Driver/Src/stm32f4xx_hal_nand.c **** {
 2288              		.loc 1 866 1
 2289              		.cfi_startproc
 2290              		@ args = 0, pretend = 0, frame = 40
 2291              		@ frame_needed = 1, uses_anonymous_args = 0
 2292 0000 80B5     		push	{r7, lr}
 2293              	.LCFI66:
 2294              		.cfi_def_cfa_offset 8
 2295              		.cfi_offset 7, -8
 2296              		.cfi_offset 14, -4
 2297 0002 8AB0     		sub	sp, sp, #40
 2298              	.LCFI67:
 2299              		.cfi_def_cfa_offset 48
 2300 0004 00AF     		add	r7, sp, #0
 2301              	.LCFI68:
 2302              		.cfi_def_cfa_register 7
 2303 0006 F860     		str	r0, [r7, #12]
 2304 0008 B960     		str	r1, [r7, #8]
 2305 000a 7A60     		str	r2, [r7, #4]
 2306 000c 3B60     		str	r3, [r7]
 867:./Libraries/STM32F4xx_HAL_Driver/Src/stm32f4xx_hal_nand.c ****   __IO uint32_t index = 0U;
 2307              		.loc 1 867 17
 2308 000e 0023     		movs	r3, #0
 2309 0010 3B61     		str	r3, [r7, #16]
 868:./Libraries/STM32F4xx_HAL_Driver/Src/stm32f4xx_hal_nand.c ****   uint32_t tickstart = 0U;
 2310              		.loc 1 868 12
 2311 0012 0023     		movs	r3, #0
 2312 0014 BB61     		str	r3, [r7, #24]
 869:./Libraries/STM32F4xx_HAL_Driver/Src/stm32f4xx_hal_nand.c ****   uint32_t deviceaddress = 0U, size = 0U, numPagesWritten = 0U, nandaddress = 0U;
 2313              		.loc 1 869 12
 2314 0016 0023     		movs	r3, #0
 2315 0018 7B62     		str	r3, [r7, #36]
 2316              		.loc 1 869 32
 2317 001a 0023     		movs	r3, #0
 2318 001c 7B61     		str	r3, [r7, #20]
 2319              		.loc 1 869 43
 2320 001e 0023     		movs	r3, #0
 2321 0020 3B62     		str	r3, [r7, #32]
 2322              		.loc 1 869 65
 2323 0022 0023     		movs	r3, #0
 2324 0024 FB61     		str	r3, [r7, #28]
 870:./Libraries/STM32F4xx_HAL_Driver/Src/stm32f4xx_hal_nand.c ****   
 871:./Libraries/STM32F4xx_HAL_Driver/Src/stm32f4xx_hal_nand.c ****   /* Process Locked */
 872:./Libraries/STM32F4xx_HAL_Driver/Src/stm32f4xx_hal_nand.c ****   __HAL_LOCK(hnand);  
 2325              		.loc 1 872 3
 2326 0026 FB68     		ldr	r3, [r7, #12]
 2327 0028 93F82030 		ldrb	r3, [r3, #32]	@ zero_extendqisi2
 2328 002c 012B     		cmp	r3, #1
 2329 002e 01D1     		bne	.L100
 2330              		.loc 1 872 3 is_stmt 0 discriminator 1
 2331 0030 0223     		movs	r3, #2
 2332 0032 06E1     		b	.L101
 2333              	.L100:
 2334              		.loc 1 872 3 discriminator 2
 2335 0034 FB68     		ldr	r3, [r7, #12]
 2336 0036 0122     		movs	r2, #1
 2337 0038 83F82020 		strb	r2, [r3, #32]
ARM GAS  /tmp/ccmBJYMF.s 			page 65


 873:./Libraries/STM32F4xx_HAL_Driver/Src/stm32f4xx_hal_nand.c **** 
 874:./Libraries/STM32F4xx_HAL_Driver/Src/stm32f4xx_hal_nand.c ****   /* Check the NAND controller state */
 875:./Libraries/STM32F4xx_HAL_Driver/Src/stm32f4xx_hal_nand.c ****   if(hnand->State == HAL_NAND_STATE_BUSY)
 2338              		.loc 1 875 11 is_stmt 1 discriminator 2
 2339 003c FB68     		ldr	r3, [r7, #12]
 2340 003e 93F82130 		ldrb	r3, [r3, #33]
 2341 0042 DBB2     		uxtb	r3, r3
 2342              		.loc 1 875 5 discriminator 2
 2343 0044 022B     		cmp	r3, #2
 2344 0046 01D1     		bne	.L102
 876:./Libraries/STM32F4xx_HAL_Driver/Src/stm32f4xx_hal_nand.c ****   {
 877:./Libraries/STM32F4xx_HAL_Driver/Src/stm32f4xx_hal_nand.c ****      return HAL_BUSY;
 2345              		.loc 1 877 13
 2346 0048 0223     		movs	r3, #2
 2347 004a FAE0     		b	.L101
 2348              	.L102:
 878:./Libraries/STM32F4xx_HAL_Driver/Src/stm32f4xx_hal_nand.c ****   }
 879:./Libraries/STM32F4xx_HAL_Driver/Src/stm32f4xx_hal_nand.c ****   
 880:./Libraries/STM32F4xx_HAL_Driver/Src/stm32f4xx_hal_nand.c ****   /* Identify the device address */
 881:./Libraries/STM32F4xx_HAL_Driver/Src/stm32f4xx_hal_nand.c ****   if(hnand->Init.NandBank == FMC_NAND_BANK2)
 2349              		.loc 1 881 17
 2350 004c FB68     		ldr	r3, [r7, #12]
 2351 004e 5B68     		ldr	r3, [r3, #4]
 2352              		.loc 1 881 5
 2353 0050 102B     		cmp	r3, #16
 2354 0052 03D1     		bne	.L103
 882:./Libraries/STM32F4xx_HAL_Driver/Src/stm32f4xx_hal_nand.c ****   {
 883:./Libraries/STM32F4xx_HAL_Driver/Src/stm32f4xx_hal_nand.c ****     deviceaddress = NAND_DEVICE1;
 2355              		.loc 1 883 19
 2356 0054 4FF0E043 		mov	r3, #1879048192
 2357 0058 7B62     		str	r3, [r7, #36]
 2358 005a 02E0     		b	.L104
 2359              	.L103:
 884:./Libraries/STM32F4xx_HAL_Driver/Src/stm32f4xx_hal_nand.c ****   }
 885:./Libraries/STM32F4xx_HAL_Driver/Src/stm32f4xx_hal_nand.c ****   else
 886:./Libraries/STM32F4xx_HAL_Driver/Src/stm32f4xx_hal_nand.c ****   {
 887:./Libraries/STM32F4xx_HAL_Driver/Src/stm32f4xx_hal_nand.c ****     deviceaddress = NAND_DEVICE2;
 2360              		.loc 1 887 19
 2361 005c 4FF00043 		mov	r3, #-2147483648
 2362 0060 7B62     		str	r3, [r7, #36]
 2363              	.L104:
 888:./Libraries/STM32F4xx_HAL_Driver/Src/stm32f4xx_hal_nand.c ****   }
 889:./Libraries/STM32F4xx_HAL_Driver/Src/stm32f4xx_hal_nand.c ****   
 890:./Libraries/STM32F4xx_HAL_Driver/Src/stm32f4xx_hal_nand.c ****   /* Update the NAND controller state */ 
 891:./Libraries/STM32F4xx_HAL_Driver/Src/stm32f4xx_hal_nand.c ****   hnand->State = HAL_NAND_STATE_BUSY;
 2364              		.loc 1 891 16
 2365 0062 FB68     		ldr	r3, [r7, #12]
 2366 0064 0222     		movs	r2, #2
 2367 0066 83F82120 		strb	r2, [r3, #33]
 892:./Libraries/STM32F4xx_HAL_Driver/Src/stm32f4xx_hal_nand.c ****   
 893:./Libraries/STM32F4xx_HAL_Driver/Src/stm32f4xx_hal_nand.c ****   /* NAND raw address calculation */
 894:./Libraries/STM32F4xx_HAL_Driver/Src/stm32f4xx_hal_nand.c ****   nandaddress = ARRAY_ADDRESS(pAddress, hnand);
 2368              		.loc 1 894 17
 2369 006a BB68     		ldr	r3, [r7, #8]
 2370 006c 1B88     		ldrh	r3, [r3]
 2371 006e 1946     		mov	r1, r3
 2372 0070 BB68     		ldr	r3, [r7, #8]
ARM GAS  /tmp/ccmBJYMF.s 			page 66


 2373 0072 9B88     		ldrh	r3, [r3, #4]
 2374 0074 1A46     		mov	r2, r3
 2375 0076 BB68     		ldr	r3, [r7, #8]
 2376 0078 5B88     		ldrh	r3, [r3, #2]
 2377 007a 1846     		mov	r0, r3
 2378 007c FB68     		ldr	r3, [r7, #12]
 2379 007e 9B6B     		ldr	r3, [r3, #56]
 2380 0080 00FB03F3 		mul	r3, r0, r3
 2381 0084 1344     		add	r3, r3, r2
 2382 0086 FA68     		ldr	r2, [r7, #12]
 2383 0088 D26A     		ldr	r2, [r2, #44]
 2384 008a 02FB03F3 		mul	r3, r2, r3
 2385              		.loc 1 894 15
 2386 008e 0B44     		add	r3, r3, r1
 2387 0090 FB61     		str	r3, [r7, #28]
 895:./Libraries/STM32F4xx_HAL_Driver/Src/stm32f4xx_hal_nand.c ****   
 896:./Libraries/STM32F4xx_HAL_Driver/Src/stm32f4xx_hal_nand.c ****   /* Page(s) write loop */
 897:./Libraries/STM32F4xx_HAL_Driver/Src/stm32f4xx_hal_nand.c ****   while((NumPageToWrite != 0U) && (nandaddress < ((hnand->Config.BlockSize) * (hnand->Config.BlockN
 2388              		.loc 1 897 8
 2389 0092 C0E0     		b	.L105
 2390              	.L115:
 898:./Libraries/STM32F4xx_HAL_Driver/Src/stm32f4xx_hal_nand.c ****   {
 899:./Libraries/STM32F4xx_HAL_Driver/Src/stm32f4xx_hal_nand.c ****     /* update the buffer size */
 900:./Libraries/STM32F4xx_HAL_Driver/Src/stm32f4xx_hal_nand.c ****     size = (hnand->Config.PageSize) + ((hnand->Config.PageSize) * numPagesWritten);
 2391              		.loc 1 900 37
 2392 0094 3B6A     		ldr	r3, [r7, #32]
 2393 0096 0133     		adds	r3, r3, #1
 2394              		.loc 1 900 26
 2395 0098 FA68     		ldr	r2, [r7, #12]
 2396 009a 526A     		ldr	r2, [r2, #36]
 2397              		.loc 1 900 10
 2398 009c 02FB03F3 		mul	r3, r2, r3
 2399 00a0 7B61     		str	r3, [r7, #20]
 901:./Libraries/STM32F4xx_HAL_Driver/Src/stm32f4xx_hal_nand.c ****  
 902:./Libraries/STM32F4xx_HAL_Driver/Src/stm32f4xx_hal_nand.c ****     /* Send write page command sequence */
 903:./Libraries/STM32F4xx_HAL_Driver/Src/stm32f4xx_hal_nand.c ****     *(__IO uint8_t *)((uint32_t)(deviceaddress | CMD_AREA)) = NAND_CMD_AREA_A;
 2400              		.loc 1 903 23
 2401 00a2 7B6A     		ldr	r3, [r7, #36]
 2402 00a4 43F48033 		orr	r3, r3, #65536
 2403              		.loc 1 903 61
 2404 00a8 0022     		movs	r2, #0
 2405 00aa 1A70     		strb	r2, [r3]
 2406              	.LBB22:
 2407              	.LBB23:
 429:./Libraries/CMSIS/Include/cmsis_gcc.h **** }
 2408              		.loc 2 429 3
 2409              		.syntax unified
 2410              	@ 429 "./Libraries/CMSIS/Include/cmsis_gcc.h" 1
 2411 00ac BFF34F8F 		dsb 0xF
 2412              	@ 0 "" 2
 2413              		.loc 2 430 1
 2414              		.thumb
 2415              		.syntax unified
 2416 00b0 00BF     		nop
 2417              	.LBE23:
 2418              	.LBE22:
 904:./Libraries/STM32F4xx_HAL_Driver/Src/stm32f4xx_hal_nand.c ****     __DSB();
ARM GAS  /tmp/ccmBJYMF.s 			page 67


 905:./Libraries/STM32F4xx_HAL_Driver/Src/stm32f4xx_hal_nand.c ****     *(__IO uint8_t *)((uint32_t)(deviceaddress | CMD_AREA)) = NAND_CMD_WRITE0;
 2419              		.loc 1 905 23
 2420 00b2 7B6A     		ldr	r3, [r7, #36]
 2421 00b4 43F48033 		orr	r3, r3, #65536
 2422              		.loc 1 905 61
 2423 00b8 8022     		movs	r2, #128
 2424 00ba 1A70     		strb	r2, [r3]
 2425              	.LBB24:
 2426              	.LBB25:
 429:./Libraries/CMSIS/Include/cmsis_gcc.h **** }
 2427              		.loc 2 429 3
 2428              		.syntax unified
 2429              	@ 429 "./Libraries/CMSIS/Include/cmsis_gcc.h" 1
 2430 00bc BFF34F8F 		dsb 0xF
 2431              	@ 0 "" 2
 2432              		.loc 2 430 1
 2433              		.thumb
 2434              		.syntax unified
 2435 00c0 00BF     		nop
 2436              	.LBE25:
 2437              	.LBE24:
 906:./Libraries/STM32F4xx_HAL_Driver/Src/stm32f4xx_hal_nand.c ****     __DSB();
 907:./Libraries/STM32F4xx_HAL_Driver/Src/stm32f4xx_hal_nand.c **** 
 908:./Libraries/STM32F4xx_HAL_Driver/Src/stm32f4xx_hal_nand.c ****     /* Cards with page size <= 512 bytes */
 909:./Libraries/STM32F4xx_HAL_Driver/Src/stm32f4xx_hal_nand.c ****     if((hnand->Config.PageSize) <= 512U)
 2438              		.loc 1 909 22
 2439 00c2 FB68     		ldr	r3, [r7, #12]
 2440 00c4 5B6A     		ldr	r3, [r3, #36]
 2441              		.loc 1 909 7
 2442 00c6 B3F5007F 		cmp	r3, #512
 2443 00ca 35D8     		bhi	.L106
 910:./Libraries/STM32F4xx_HAL_Driver/Src/stm32f4xx_hal_nand.c ****     {
 911:./Libraries/STM32F4xx_HAL_Driver/Src/stm32f4xx_hal_nand.c ****       if (((hnand->Config.BlockSize)*(hnand->Config.BlockNbr)) <= 65535U)
 2444              		.loc 1 911 26
 2445 00cc FB68     		ldr	r3, [r7, #12]
 2446 00ce DB6A     		ldr	r3, [r3, #44]
 2447              		.loc 1 911 52
 2448 00d0 FA68     		ldr	r2, [r7, #12]
 2449 00d2 126B     		ldr	r2, [r2, #48]
 2450              		.loc 1 911 37
 2451 00d4 02FB03F3 		mul	r3, r2, r3
 2452              		.loc 1 911 10
 2453 00d8 B3F5803F 		cmp	r3, #65536
 2454 00dc 12D2     		bcs	.L107
 912:./Libraries/STM32F4xx_HAL_Driver/Src/stm32f4xx_hal_nand.c ****       {
 913:./Libraries/STM32F4xx_HAL_Driver/Src/stm32f4xx_hal_nand.c ****         *(__IO uint8_t *)((uint32_t)(deviceaddress | ADDR_AREA)) = 0x00;
 2455              		.loc 1 913 27
 2456 00de 7B6A     		ldr	r3, [r7, #36]
 2457 00e0 43F40033 		orr	r3, r3, #131072
 2458              		.loc 1 913 66
 2459 00e4 0022     		movs	r2, #0
 2460 00e6 1A70     		strb	r2, [r3]
 914:./Libraries/STM32F4xx_HAL_Driver/Src/stm32f4xx_hal_nand.c ****         *(__IO uint8_t *)((uint32_t)(deviceaddress | ADDR_AREA)) = ADDR_1ST_CYCLE(nandaddress);
 2461              		.loc 1 914 27
 2462 00e8 7B6A     		ldr	r3, [r7, #36]
 2463 00ea 43F40033 		orr	r3, r3, #131072
 2464              		.loc 1 914 68
ARM GAS  /tmp/ccmBJYMF.s 			page 68


 2465 00ee FA69     		ldr	r2, [r7, #28]
 2466 00f0 D2B2     		uxtb	r2, r2
 2467              		.loc 1 914 66
 2468 00f2 1A70     		strb	r2, [r3]
 915:./Libraries/STM32F4xx_HAL_Driver/Src/stm32f4xx_hal_nand.c ****         *(__IO uint8_t *)((uint32_t)(deviceaddress | ADDR_AREA)) = ADDR_2ND_CYCLE(nandaddress);
 2469              		.loc 1 915 68
 2470 00f4 FB69     		ldr	r3, [r7, #28]
 2471 00f6 1A0A     		lsrs	r2, r3, #8
 2472              		.loc 1 915 27
 2473 00f8 7B6A     		ldr	r3, [r7, #36]
 2474 00fa 43F40033 		orr	r3, r3, #131072
 2475              		.loc 1 915 68
 2476 00fe D2B2     		uxtb	r2, r2
 2477              		.loc 1 915 66
 2478 0100 1A70     		strb	r2, [r3]
 2479 0102 62E0     		b	.L110
 2480              	.L107:
 916:./Libraries/STM32F4xx_HAL_Driver/Src/stm32f4xx_hal_nand.c ****       }
 917:./Libraries/STM32F4xx_HAL_Driver/Src/stm32f4xx_hal_nand.c ****       else /* ((hnand->Config.BlockSize)*(hnand->Config.BlockNbr)) > 65535 */
 918:./Libraries/STM32F4xx_HAL_Driver/Src/stm32f4xx_hal_nand.c ****       {
 919:./Libraries/STM32F4xx_HAL_Driver/Src/stm32f4xx_hal_nand.c ****         *(__IO uint8_t *)((uint32_t)(deviceaddress | ADDR_AREA)) = 0x00;
 2481              		.loc 1 919 27
 2482 0104 7B6A     		ldr	r3, [r7, #36]
 2483 0106 43F40033 		orr	r3, r3, #131072
 2484              		.loc 1 919 66
 2485 010a 0022     		movs	r2, #0
 2486 010c 1A70     		strb	r2, [r3]
 920:./Libraries/STM32F4xx_HAL_Driver/Src/stm32f4xx_hal_nand.c ****         *(__IO uint8_t *)((uint32_t)(deviceaddress | ADDR_AREA)) = ADDR_1ST_CYCLE(nandaddress);
 2487              		.loc 1 920 27
 2488 010e 7B6A     		ldr	r3, [r7, #36]
 2489 0110 43F40033 		orr	r3, r3, #131072
 2490              		.loc 1 920 68
 2491 0114 FA69     		ldr	r2, [r7, #28]
 2492 0116 D2B2     		uxtb	r2, r2
 2493              		.loc 1 920 66
 2494 0118 1A70     		strb	r2, [r3]
 921:./Libraries/STM32F4xx_HAL_Driver/Src/stm32f4xx_hal_nand.c ****         *(__IO uint8_t *)((uint32_t)(deviceaddress | ADDR_AREA)) = ADDR_2ND_CYCLE(nandaddress);
 2495              		.loc 1 921 68
 2496 011a FB69     		ldr	r3, [r7, #28]
 2497 011c 1A0A     		lsrs	r2, r3, #8
 2498              		.loc 1 921 27
 2499 011e 7B6A     		ldr	r3, [r7, #36]
 2500 0120 43F40033 		orr	r3, r3, #131072
 2501              		.loc 1 921 68
 2502 0124 D2B2     		uxtb	r2, r2
 2503              		.loc 1 921 66
 2504 0126 1A70     		strb	r2, [r3]
 922:./Libraries/STM32F4xx_HAL_Driver/Src/stm32f4xx_hal_nand.c ****         *(__IO uint8_t *)((uint32_t)(deviceaddress | ADDR_AREA)) = ADDR_3RD_CYCLE(nandaddress);
 2505              		.loc 1 922 68
 2506 0128 FB69     		ldr	r3, [r7, #28]
 2507 012a 1A0C     		lsrs	r2, r3, #16
 2508              		.loc 1 922 27
 2509 012c 7B6A     		ldr	r3, [r7, #36]
 2510 012e 43F40033 		orr	r3, r3, #131072
 2511              		.loc 1 922 68
 2512 0132 D2B2     		uxtb	r2, r2
 2513              		.loc 1 922 66
ARM GAS  /tmp/ccmBJYMF.s 			page 69


 2514 0134 1A70     		strb	r2, [r3]
 2515 0136 48E0     		b	.L110
 2516              	.L106:
 923:./Libraries/STM32F4xx_HAL_Driver/Src/stm32f4xx_hal_nand.c ****       }
 924:./Libraries/STM32F4xx_HAL_Driver/Src/stm32f4xx_hal_nand.c ****     }
 925:./Libraries/STM32F4xx_HAL_Driver/Src/stm32f4xx_hal_nand.c ****     else /* (hnand->Config.PageSize) > 512 */
 926:./Libraries/STM32F4xx_HAL_Driver/Src/stm32f4xx_hal_nand.c ****     {
 927:./Libraries/STM32F4xx_HAL_Driver/Src/stm32f4xx_hal_nand.c ****       if (((hnand->Config.BlockSize)*(hnand->Config.BlockNbr)) <= 65535U)
 2517              		.loc 1 927 26
 2518 0138 FB68     		ldr	r3, [r7, #12]
 2519 013a DB6A     		ldr	r3, [r3, #44]
 2520              		.loc 1 927 52
 2521 013c FA68     		ldr	r2, [r7, #12]
 2522 013e 126B     		ldr	r2, [r2, #48]
 2523              		.loc 1 927 37
 2524 0140 02FB03F3 		mul	r3, r2, r3
 2525              		.loc 1 927 10
 2526 0144 B3F5803F 		cmp	r3, #65536
 2527 0148 17D2     		bcs	.L109
 928:./Libraries/STM32F4xx_HAL_Driver/Src/stm32f4xx_hal_nand.c ****       {
 929:./Libraries/STM32F4xx_HAL_Driver/Src/stm32f4xx_hal_nand.c ****         *(__IO uint8_t *)((uint32_t)(deviceaddress | ADDR_AREA)) = 0x00;
 2528              		.loc 1 929 27
 2529 014a 7B6A     		ldr	r3, [r7, #36]
 2530 014c 43F40033 		orr	r3, r3, #131072
 2531              		.loc 1 929 66
 2532 0150 0022     		movs	r2, #0
 2533 0152 1A70     		strb	r2, [r3]
 930:./Libraries/STM32F4xx_HAL_Driver/Src/stm32f4xx_hal_nand.c ****         *(__IO uint8_t *)((uint32_t)(deviceaddress | ADDR_AREA)) = 0x00;
 2534              		.loc 1 930 27
 2535 0154 7B6A     		ldr	r3, [r7, #36]
 2536 0156 43F40033 		orr	r3, r3, #131072
 2537              		.loc 1 930 66
 2538 015a 0022     		movs	r2, #0
 2539 015c 1A70     		strb	r2, [r3]
 931:./Libraries/STM32F4xx_HAL_Driver/Src/stm32f4xx_hal_nand.c ****         *(__IO uint8_t *)((uint32_t)(deviceaddress | ADDR_AREA)) = ADDR_1ST_CYCLE(nandaddress);
 2540              		.loc 1 931 27
 2541 015e 7B6A     		ldr	r3, [r7, #36]
 2542 0160 43F40033 		orr	r3, r3, #131072
 2543              		.loc 1 931 68
 2544 0164 FA69     		ldr	r2, [r7, #28]
 2545 0166 D2B2     		uxtb	r2, r2
 2546              		.loc 1 931 66
 2547 0168 1A70     		strb	r2, [r3]
 932:./Libraries/STM32F4xx_HAL_Driver/Src/stm32f4xx_hal_nand.c ****         *(__IO uint8_t *)((uint32_t)(deviceaddress | ADDR_AREA)) = ADDR_2ND_CYCLE(nandaddress);
 2548              		.loc 1 932 68
 2549 016a FB69     		ldr	r3, [r7, #28]
 2550 016c 1A0A     		lsrs	r2, r3, #8
 2551              		.loc 1 932 27
 2552 016e 7B6A     		ldr	r3, [r7, #36]
 2553 0170 43F40033 		orr	r3, r3, #131072
 2554              		.loc 1 932 68
 2555 0174 D2B2     		uxtb	r2, r2
 2556              		.loc 1 932 66
 2557 0176 1A70     		strb	r2, [r3]
 2558 0178 27E0     		b	.L110
 2559              	.L109:
 933:./Libraries/STM32F4xx_HAL_Driver/Src/stm32f4xx_hal_nand.c ****       }
ARM GAS  /tmp/ccmBJYMF.s 			page 70


 934:./Libraries/STM32F4xx_HAL_Driver/Src/stm32f4xx_hal_nand.c ****       else /* ((hnand->Config.BlockSize)*(hnand->Config.BlockNbr)) > 65535 */
 935:./Libraries/STM32F4xx_HAL_Driver/Src/stm32f4xx_hal_nand.c ****       {
 936:./Libraries/STM32F4xx_HAL_Driver/Src/stm32f4xx_hal_nand.c ****         *(__IO uint8_t *)((uint32_t)(deviceaddress | ADDR_AREA)) = 0x00;
 2560              		.loc 1 936 27
 2561 017a 7B6A     		ldr	r3, [r7, #36]
 2562 017c 43F40033 		orr	r3, r3, #131072
 2563              		.loc 1 936 66
 2564 0180 0022     		movs	r2, #0
 2565 0182 1A70     		strb	r2, [r3]
 937:./Libraries/STM32F4xx_HAL_Driver/Src/stm32f4xx_hal_nand.c ****         *(__IO uint8_t *)((uint32_t)(deviceaddress | ADDR_AREA)) = 0x00;
 2566              		.loc 1 937 27
 2567 0184 7B6A     		ldr	r3, [r7, #36]
 2568 0186 43F40033 		orr	r3, r3, #131072
 2569              		.loc 1 937 66
 2570 018a 0022     		movs	r2, #0
 2571 018c 1A70     		strb	r2, [r3]
 938:./Libraries/STM32F4xx_HAL_Driver/Src/stm32f4xx_hal_nand.c ****         *(__IO uint8_t *)((uint32_t)(deviceaddress | ADDR_AREA)) = ADDR_1ST_CYCLE(nandaddress);
 2572              		.loc 1 938 27
 2573 018e 7B6A     		ldr	r3, [r7, #36]
 2574 0190 43F40033 		orr	r3, r3, #131072
 2575              		.loc 1 938 68
 2576 0194 FA69     		ldr	r2, [r7, #28]
 2577 0196 D2B2     		uxtb	r2, r2
 2578              		.loc 1 938 66
 2579 0198 1A70     		strb	r2, [r3]
 939:./Libraries/STM32F4xx_HAL_Driver/Src/stm32f4xx_hal_nand.c ****         *(__IO uint8_t *)((uint32_t)(deviceaddress | ADDR_AREA)) = ADDR_2ND_CYCLE(nandaddress);
 2580              		.loc 1 939 68
 2581 019a FB69     		ldr	r3, [r7, #28]
 2582 019c 1A0A     		lsrs	r2, r3, #8
 2583              		.loc 1 939 27
 2584 019e 7B6A     		ldr	r3, [r7, #36]
 2585 01a0 43F40033 		orr	r3, r3, #131072
 2586              		.loc 1 939 68
 2587 01a4 D2B2     		uxtb	r2, r2
 2588              		.loc 1 939 66
 2589 01a6 1A70     		strb	r2, [r3]
 940:./Libraries/STM32F4xx_HAL_Driver/Src/stm32f4xx_hal_nand.c ****         *(__IO uint8_t *)((uint32_t)(deviceaddress | ADDR_AREA)) = ADDR_3RD_CYCLE(nandaddress);
 2590              		.loc 1 940 68
 2591 01a8 FB69     		ldr	r3, [r7, #28]
 2592 01aa 1A0C     		lsrs	r2, r3, #16
 2593              		.loc 1 940 27
 2594 01ac 7B6A     		ldr	r3, [r7, #36]
 2595 01ae 43F40033 		orr	r3, r3, #131072
 2596              		.loc 1 940 68
 2597 01b2 D2B2     		uxtb	r2, r2
 2598              		.loc 1 940 66
 2599 01b4 1A70     		strb	r2, [r3]
 941:./Libraries/STM32F4xx_HAL_Driver/Src/stm32f4xx_hal_nand.c ****       }
 942:./Libraries/STM32F4xx_HAL_Driver/Src/stm32f4xx_hal_nand.c ****     }
 943:./Libraries/STM32F4xx_HAL_Driver/Src/stm32f4xx_hal_nand.c ****   
 944:./Libraries/STM32F4xx_HAL_Driver/Src/stm32f4xx_hal_nand.c ****     /* Write data to memory */
 945:./Libraries/STM32F4xx_HAL_Driver/Src/stm32f4xx_hal_nand.c ****     for(; index < size; index++)
 2600              		.loc 1 945 5
 2601 01b6 08E0     		b	.L110
 2602              	.L111:
 946:./Libraries/STM32F4xx_HAL_Driver/Src/stm32f4xx_hal_nand.c ****     {
 947:./Libraries/STM32F4xx_HAL_Driver/Src/stm32f4xx_hal_nand.c ****       *(__IO uint16_t *)deviceaddress = *(uint16_t *)pBuffer++;
ARM GAS  /tmp/ccmBJYMF.s 			page 71


 2603              		.loc 1 947 42 discriminator 2
 2604 01b8 7B68     		ldr	r3, [r7, #4]
 2605 01ba 9A1C     		adds	r2, r3, #2
 2606 01bc 7A60     		str	r2, [r7, #4]
 2607              		.loc 1 947 8 discriminator 2
 2608 01be 7A6A     		ldr	r2, [r7, #36]
 2609              		.loc 1 947 41 discriminator 2
 2610 01c0 1B88     		ldrh	r3, [r3]
 2611              		.loc 1 947 39 discriminator 2
 2612 01c2 1380     		strh	r3, [r2]	@ movhi
 945:./Libraries/STM32F4xx_HAL_Driver/Src/stm32f4xx_hal_nand.c ****     {
 2613              		.loc 1 945 30 discriminator 2
 2614 01c4 3B69     		ldr	r3, [r7, #16]
 2615 01c6 0133     		adds	r3, r3, #1
 2616 01c8 3B61     		str	r3, [r7, #16]
 2617              	.L110:
 945:./Libraries/STM32F4xx_HAL_Driver/Src/stm32f4xx_hal_nand.c ****     {
 2618              		.loc 1 945 17 discriminator 1
 2619 01ca 3B69     		ldr	r3, [r7, #16]
 945:./Libraries/STM32F4xx_HAL_Driver/Src/stm32f4xx_hal_nand.c ****     {
 2620              		.loc 1 945 5 discriminator 1
 2621 01cc 7A69     		ldr	r2, [r7, #20]
 2622 01ce 9A42     		cmp	r2, r3
 2623 01d0 F2D8     		bhi	.L111
 948:./Libraries/STM32F4xx_HAL_Driver/Src/stm32f4xx_hal_nand.c ****     }
 949:./Libraries/STM32F4xx_HAL_Driver/Src/stm32f4xx_hal_nand.c ****    
 950:./Libraries/STM32F4xx_HAL_Driver/Src/stm32f4xx_hal_nand.c ****     *(__IO uint8_t *)((uint32_t)(deviceaddress | CMD_AREA)) = NAND_CMD_WRITE_TRUE1;
 2624              		.loc 1 950 23
 2625 01d2 7B6A     		ldr	r3, [r7, #36]
 2626 01d4 43F48033 		orr	r3, r3, #65536
 2627              		.loc 1 950 61
 2628 01d8 1022     		movs	r2, #16
 2629 01da 1A70     		strb	r2, [r3]
 951:./Libraries/STM32F4xx_HAL_Driver/Src/stm32f4xx_hal_nand.c ****     
 952:./Libraries/STM32F4xx_HAL_Driver/Src/stm32f4xx_hal_nand.c ****     /* Read status until NAND is ready */
 953:./Libraries/STM32F4xx_HAL_Driver/Src/stm32f4xx_hal_nand.c ****     while(HAL_NAND_Read_Status(hnand) != NAND_READY)
 2630              		.loc 1 953 10
 2631 01dc 0CE0     		b	.L112
 2632              	.L113:
 954:./Libraries/STM32F4xx_HAL_Driver/Src/stm32f4xx_hal_nand.c ****     {
 955:./Libraries/STM32F4xx_HAL_Driver/Src/stm32f4xx_hal_nand.c ****       /* Get tick */
 956:./Libraries/STM32F4xx_HAL_Driver/Src/stm32f4xx_hal_nand.c ****       tickstart = HAL_GetTick();
 2633              		.loc 1 956 19
 2634 01de FFF7FEFF 		bl	HAL_GetTick
 2635 01e2 B861     		str	r0, [r7, #24]
 957:./Libraries/STM32F4xx_HAL_Driver/Src/stm32f4xx_hal_nand.c ****     
 958:./Libraries/STM32F4xx_HAL_Driver/Src/stm32f4xx_hal_nand.c ****       if((HAL_GetTick() - tickstart ) > NAND_WRITE_TIMEOUT)
 2636              		.loc 1 958 11
 2637 01e4 FFF7FEFF 		bl	HAL_GetTick
 2638 01e8 0246     		mov	r2, r0
 2639              		.loc 1 958 25
 2640 01ea BB69     		ldr	r3, [r7, #24]
 2641 01ec D31A     		subs	r3, r2, r3
 2642              		.loc 1 958 9
 2643 01ee B3F1807F 		cmp	r3, #16777216
 2644 01f2 01D9     		bls	.L112
 959:./Libraries/STM32F4xx_HAL_Driver/Src/stm32f4xx_hal_nand.c ****       {
ARM GAS  /tmp/ccmBJYMF.s 			page 72


 960:./Libraries/STM32F4xx_HAL_Driver/Src/stm32f4xx_hal_nand.c ****         return HAL_TIMEOUT; 
 2645              		.loc 1 960 16
 2646 01f4 0323     		movs	r3, #3
 2647 01f6 24E0     		b	.L101
 2648              	.L112:
 953:./Libraries/STM32F4xx_HAL_Driver/Src/stm32f4xx_hal_nand.c ****     {
 2649              		.loc 1 953 11
 2650 01f8 F868     		ldr	r0, [r7, #12]
 2651 01fa FFF7FEFF 		bl	HAL_NAND_Read_Status
 2652 01fe 0346     		mov	r3, r0
 953:./Libraries/STM32F4xx_HAL_Driver/Src/stm32f4xx_hal_nand.c ****     {
 2653              		.loc 1 953 10
 2654 0200 402B     		cmp	r3, #64
 2655 0202 ECD1     		bne	.L113
 961:./Libraries/STM32F4xx_HAL_Driver/Src/stm32f4xx_hal_nand.c ****       } 
 962:./Libraries/STM32F4xx_HAL_Driver/Src/stm32f4xx_hal_nand.c ****     }   
 963:./Libraries/STM32F4xx_HAL_Driver/Src/stm32f4xx_hal_nand.c ****  
 964:./Libraries/STM32F4xx_HAL_Driver/Src/stm32f4xx_hal_nand.c ****     /* Increment written pages number */
 965:./Libraries/STM32F4xx_HAL_Driver/Src/stm32f4xx_hal_nand.c ****     numPagesWritten++;
 2656              		.loc 1 965 20
 2657 0204 3B6A     		ldr	r3, [r7, #32]
 2658 0206 0133     		adds	r3, r3, #1
 2659 0208 3B62     		str	r3, [r7, #32]
 966:./Libraries/STM32F4xx_HAL_Driver/Src/stm32f4xx_hal_nand.c ****     
 967:./Libraries/STM32F4xx_HAL_Driver/Src/stm32f4xx_hal_nand.c ****     /* Decrement pages to write */
 968:./Libraries/STM32F4xx_HAL_Driver/Src/stm32f4xx_hal_nand.c ****     NumPageToWrite--;
 2660              		.loc 1 968 19
 2661 020a 3B68     		ldr	r3, [r7]
 2662 020c 013B     		subs	r3, r3, #1
 2663 020e 3B60     		str	r3, [r7]
 969:./Libraries/STM32F4xx_HAL_Driver/Src/stm32f4xx_hal_nand.c ****     
 970:./Libraries/STM32F4xx_HAL_Driver/Src/stm32f4xx_hal_nand.c ****     /* Increment the NAND address */
 971:./Libraries/STM32F4xx_HAL_Driver/Src/stm32f4xx_hal_nand.c ****     nandaddress = (uint32_t)(nandaddress + 1U);
 2664              		.loc 1 971 17
 2665 0210 FB69     		ldr	r3, [r7, #28]
 2666 0212 0133     		adds	r3, r3, #1
 2667 0214 FB61     		str	r3, [r7, #28]
 2668              	.L105:
 897:./Libraries/STM32F4xx_HAL_Driver/Src/stm32f4xx_hal_nand.c ****   {
 2669              		.loc 1 897 8
 2670 0216 3B68     		ldr	r3, [r7]
 2671 0218 002B     		cmp	r3, #0
 2672 021a 09D0     		beq	.L114
 897:./Libraries/STM32F4xx_HAL_Driver/Src/stm32f4xx_hal_nand.c ****   {
 2673              		.loc 1 897 65 discriminator 1
 2674 021c FB68     		ldr	r3, [r7, #12]
 2675 021e DB6A     		ldr	r3, [r3, #44]
 897:./Libraries/STM32F4xx_HAL_Driver/Src/stm32f4xx_hal_nand.c ****   {
 2676              		.loc 1 897 93 discriminator 1
 2677 0220 FA68     		ldr	r2, [r7, #12]
 2678 0222 126B     		ldr	r2, [r2, #48]
 897:./Libraries/STM32F4xx_HAL_Driver/Src/stm32f4xx_hal_nand.c ****   {
 2679              		.loc 1 897 77 discriminator 1
 2680 0224 02FB03F3 		mul	r3, r2, r3
 897:./Libraries/STM32F4xx_HAL_Driver/Src/stm32f4xx_hal_nand.c ****   {
 2681              		.loc 1 897 32 discriminator 1
 2682 0228 FA69     		ldr	r2, [r7, #28]
ARM GAS  /tmp/ccmBJYMF.s 			page 73


 2683 022a 9A42     		cmp	r2, r3
 2684 022c FFF432AF 		bcc	.L115
 2685              	.L114:
 972:./Libraries/STM32F4xx_HAL_Driver/Src/stm32f4xx_hal_nand.c ****   }
 973:./Libraries/STM32F4xx_HAL_Driver/Src/stm32f4xx_hal_nand.c ****   
 974:./Libraries/STM32F4xx_HAL_Driver/Src/stm32f4xx_hal_nand.c ****   /* Update the NAND controller state */ 
 975:./Libraries/STM32F4xx_HAL_Driver/Src/stm32f4xx_hal_nand.c ****   hnand->State = HAL_NAND_STATE_READY;
 2686              		.loc 1 975 16
 2687 0230 FB68     		ldr	r3, [r7, #12]
 2688 0232 0122     		movs	r2, #1
 2689 0234 83F82120 		strb	r2, [r3, #33]
 976:./Libraries/STM32F4xx_HAL_Driver/Src/stm32f4xx_hal_nand.c ****   
 977:./Libraries/STM32F4xx_HAL_Driver/Src/stm32f4xx_hal_nand.c ****   /* Process unlocked */
 978:./Libraries/STM32F4xx_HAL_Driver/Src/stm32f4xx_hal_nand.c ****   __HAL_UNLOCK(hnand);      
 2690              		.loc 1 978 3
 2691 0238 FB68     		ldr	r3, [r7, #12]
 2692 023a 0022     		movs	r2, #0
 2693 023c 83F82020 		strb	r2, [r3, #32]
 979:./Libraries/STM32F4xx_HAL_Driver/Src/stm32f4xx_hal_nand.c ****   
 980:./Libraries/STM32F4xx_HAL_Driver/Src/stm32f4xx_hal_nand.c ****   return HAL_OK;
 2694              		.loc 1 980 10
 2695 0240 0023     		movs	r3, #0
 2696              	.L101:
 981:./Libraries/STM32F4xx_HAL_Driver/Src/stm32f4xx_hal_nand.c **** }
 2697              		.loc 1 981 1
 2698 0242 1846     		mov	r0, r3
 2699 0244 2837     		adds	r7, r7, #40
 2700              	.LCFI69:
 2701              		.cfi_def_cfa_offset 8
 2702 0246 BD46     		mov	sp, r7
 2703              	.LCFI70:
 2704              		.cfi_def_cfa_register 13
 2705              		@ sp needed
 2706 0248 80BD     		pop	{r7, pc}
 2707              		.cfi_endproc
 2708              	.LFE138:
 2710              		.section	.text.HAL_NAND_Read_SpareArea_8b,"ax",%progbits
 2711              		.align	1
 2712              		.global	HAL_NAND_Read_SpareArea_8b
 2713              		.syntax unified
 2714              		.thumb
 2715              		.thumb_func
 2716              		.fpu fpv4-sp-d16
 2718              	HAL_NAND_Read_SpareArea_8b:
 2719              	.LFB139:
 982:./Libraries/STM32F4xx_HAL_Driver/Src/stm32f4xx_hal_nand.c **** 
 983:./Libraries/STM32F4xx_HAL_Driver/Src/stm32f4xx_hal_nand.c **** /**
 984:./Libraries/STM32F4xx_HAL_Driver/Src/stm32f4xx_hal_nand.c ****   * @brief  Read Spare area(s) from NAND memory 
 985:./Libraries/STM32F4xx_HAL_Driver/Src/stm32f4xx_hal_nand.c ****   * @param  hnand pointer to a NAND_HandleTypeDef structure that contains
 986:./Libraries/STM32F4xx_HAL_Driver/Src/stm32f4xx_hal_nand.c ****   *                the configuration information for NAND module.
 987:./Libraries/STM32F4xx_HAL_Driver/Src/stm32f4xx_hal_nand.c ****   * @param  pAddress  pointer to NAND address structure
 988:./Libraries/STM32F4xx_HAL_Driver/Src/stm32f4xx_hal_nand.c ****   * @param  pBuffer pointer to source buffer to write  
 989:./Libraries/STM32F4xx_HAL_Driver/Src/stm32f4xx_hal_nand.c ****   * @param  NumSpareAreaToRead Number of spare area to read  
 990:./Libraries/STM32F4xx_HAL_Driver/Src/stm32f4xx_hal_nand.c ****   * @retval HAL status
 991:./Libraries/STM32F4xx_HAL_Driver/Src/stm32f4xx_hal_nand.c **** */
 992:./Libraries/STM32F4xx_HAL_Driver/Src/stm32f4xx_hal_nand.c **** HAL_StatusTypeDef HAL_NAND_Read_SpareArea_8b(NAND_HandleTypeDef *hnand, NAND_AddressTypeDef *pAddre
 993:./Libraries/STM32F4xx_HAL_Driver/Src/stm32f4xx_hal_nand.c **** {
ARM GAS  /tmp/ccmBJYMF.s 			page 74


 2720              		.loc 1 993 1
 2721              		.cfi_startproc
 2722              		@ args = 0, pretend = 0, frame = 48
 2723              		@ frame_needed = 1, uses_anonymous_args = 0
 2724 0000 80B5     		push	{r7, lr}
 2725              	.LCFI71:
 2726              		.cfi_def_cfa_offset 8
 2727              		.cfi_offset 7, -8
 2728              		.cfi_offset 14, -4
 2729 0002 8CB0     		sub	sp, sp, #48
 2730              	.LCFI72:
 2731              		.cfi_def_cfa_offset 56
 2732 0004 00AF     		add	r7, sp, #0
 2733              	.LCFI73:
 2734              		.cfi_def_cfa_register 7
 2735 0006 F860     		str	r0, [r7, #12]
 2736 0008 B960     		str	r1, [r7, #8]
 2737 000a 7A60     		str	r2, [r7, #4]
 2738 000c 3B60     		str	r3, [r7]
 994:./Libraries/STM32F4xx_HAL_Driver/Src/stm32f4xx_hal_nand.c ****   __IO uint32_t index = 0U;
 2739              		.loc 1 994 17
 2740 000e 0023     		movs	r3, #0
 2741 0010 7B61     		str	r3, [r7, #20]
 995:./Libraries/STM32F4xx_HAL_Driver/Src/stm32f4xx_hal_nand.c ****   uint32_t tickstart = 0U;
 2742              		.loc 1 995 12
 2743 0012 0023     		movs	r3, #0
 2744 0014 3B62     		str	r3, [r7, #32]
 996:./Libraries/STM32F4xx_HAL_Driver/Src/stm32f4xx_hal_nand.c ****   uint32_t deviceaddress = 0U, size = 0U, numSpareAreaRead = 0U, nandaddress = 0U, columnaddress = 
 2745              		.loc 1 996 12
 2746 0016 0023     		movs	r3, #0
 2747 0018 FB62     		str	r3, [r7, #44]
 2748              		.loc 1 996 32
 2749 001a 0023     		movs	r3, #0
 2750 001c FB61     		str	r3, [r7, #28]
 2751              		.loc 1 996 43
 2752 001e 0023     		movs	r3, #0
 2753 0020 BB62     		str	r3, [r7, #40]
 2754              		.loc 1 996 66
 2755 0022 0023     		movs	r3, #0
 2756 0024 7B62     		str	r3, [r7, #36]
 2757              		.loc 1 996 84
 2758 0026 0023     		movs	r3, #0
 2759 0028 BB61     		str	r3, [r7, #24]
 997:./Libraries/STM32F4xx_HAL_Driver/Src/stm32f4xx_hal_nand.c ****   
 998:./Libraries/STM32F4xx_HAL_Driver/Src/stm32f4xx_hal_nand.c ****   /* Process Locked */
 999:./Libraries/STM32F4xx_HAL_Driver/Src/stm32f4xx_hal_nand.c ****   __HAL_LOCK(hnand);  
 2760              		.loc 1 999 3
 2761 002a FB68     		ldr	r3, [r7, #12]
 2762 002c 93F82030 		ldrb	r3, [r3, #32]	@ zero_extendqisi2
 2763 0030 012B     		cmp	r3, #1
 2764 0032 01D1     		bne	.L117
 2765              		.loc 1 999 3 is_stmt 0 discriminator 1
 2766 0034 0223     		movs	r3, #2
 2767 0036 13E1     		b	.L118
 2768              	.L117:
 2769              		.loc 1 999 3 discriminator 2
 2770 0038 FB68     		ldr	r3, [r7, #12]
ARM GAS  /tmp/ccmBJYMF.s 			page 75


 2771 003a 0122     		movs	r2, #1
 2772 003c 83F82020 		strb	r2, [r3, #32]
1000:./Libraries/STM32F4xx_HAL_Driver/Src/stm32f4xx_hal_nand.c ****   
1001:./Libraries/STM32F4xx_HAL_Driver/Src/stm32f4xx_hal_nand.c ****   /* Check the NAND controller state */
1002:./Libraries/STM32F4xx_HAL_Driver/Src/stm32f4xx_hal_nand.c ****   if(hnand->State == HAL_NAND_STATE_BUSY)
 2773              		.loc 1 1002 11 is_stmt 1 discriminator 2
 2774 0040 FB68     		ldr	r3, [r7, #12]
 2775 0042 93F82130 		ldrb	r3, [r3, #33]
 2776 0046 DBB2     		uxtb	r3, r3
 2777              		.loc 1 1002 5 discriminator 2
 2778 0048 022B     		cmp	r3, #2
 2779 004a 01D1     		bne	.L119
1003:./Libraries/STM32F4xx_HAL_Driver/Src/stm32f4xx_hal_nand.c ****   {
1004:./Libraries/STM32F4xx_HAL_Driver/Src/stm32f4xx_hal_nand.c ****      return HAL_BUSY;
 2780              		.loc 1 1004 13
 2781 004c 0223     		movs	r3, #2
 2782 004e 07E1     		b	.L118
 2783              	.L119:
1005:./Libraries/STM32F4xx_HAL_Driver/Src/stm32f4xx_hal_nand.c ****   }
1006:./Libraries/STM32F4xx_HAL_Driver/Src/stm32f4xx_hal_nand.c ****   
1007:./Libraries/STM32F4xx_HAL_Driver/Src/stm32f4xx_hal_nand.c ****   /* Identify the device address */
1008:./Libraries/STM32F4xx_HAL_Driver/Src/stm32f4xx_hal_nand.c ****   if(hnand->Init.NandBank == FMC_NAND_BANK2)
 2784              		.loc 1 1008 17
 2785 0050 FB68     		ldr	r3, [r7, #12]
 2786 0052 5B68     		ldr	r3, [r3, #4]
 2787              		.loc 1 1008 5
 2788 0054 102B     		cmp	r3, #16
 2789 0056 03D1     		bne	.L120
1009:./Libraries/STM32F4xx_HAL_Driver/Src/stm32f4xx_hal_nand.c ****   {
1010:./Libraries/STM32F4xx_HAL_Driver/Src/stm32f4xx_hal_nand.c ****     deviceaddress = NAND_DEVICE1;
 2790              		.loc 1 1010 19
 2791 0058 4FF0E043 		mov	r3, #1879048192
 2792 005c FB62     		str	r3, [r7, #44]
 2793 005e 02E0     		b	.L121
 2794              	.L120:
1011:./Libraries/STM32F4xx_HAL_Driver/Src/stm32f4xx_hal_nand.c ****   }
1012:./Libraries/STM32F4xx_HAL_Driver/Src/stm32f4xx_hal_nand.c ****   else
1013:./Libraries/STM32F4xx_HAL_Driver/Src/stm32f4xx_hal_nand.c ****   {
1014:./Libraries/STM32F4xx_HAL_Driver/Src/stm32f4xx_hal_nand.c ****     deviceaddress = NAND_DEVICE2;
 2795              		.loc 1 1014 19
 2796 0060 4FF00043 		mov	r3, #-2147483648
 2797 0064 FB62     		str	r3, [r7, #44]
 2798              	.L121:
1015:./Libraries/STM32F4xx_HAL_Driver/Src/stm32f4xx_hal_nand.c ****   }
1016:./Libraries/STM32F4xx_HAL_Driver/Src/stm32f4xx_hal_nand.c ****   
1017:./Libraries/STM32F4xx_HAL_Driver/Src/stm32f4xx_hal_nand.c ****   /* Update the NAND controller state */
1018:./Libraries/STM32F4xx_HAL_Driver/Src/stm32f4xx_hal_nand.c ****   hnand->State = HAL_NAND_STATE_BUSY;
 2799              		.loc 1 1018 16
 2800 0066 FB68     		ldr	r3, [r7, #12]
 2801 0068 0222     		movs	r2, #2
 2802 006a 83F82120 		strb	r2, [r3, #33]
1019:./Libraries/STM32F4xx_HAL_Driver/Src/stm32f4xx_hal_nand.c ****   
1020:./Libraries/STM32F4xx_HAL_Driver/Src/stm32f4xx_hal_nand.c ****   /* NAND raw address calculation */
1021:./Libraries/STM32F4xx_HAL_Driver/Src/stm32f4xx_hal_nand.c ****   nandaddress = ARRAY_ADDRESS(pAddress, hnand);
 2803              		.loc 1 1021 17
 2804 006e BB68     		ldr	r3, [r7, #8]
 2805 0070 1B88     		ldrh	r3, [r3]
ARM GAS  /tmp/ccmBJYMF.s 			page 76


 2806 0072 1946     		mov	r1, r3
 2807 0074 BB68     		ldr	r3, [r7, #8]
 2808 0076 9B88     		ldrh	r3, [r3, #4]
 2809 0078 1A46     		mov	r2, r3
 2810 007a BB68     		ldr	r3, [r7, #8]
 2811 007c 5B88     		ldrh	r3, [r3, #2]
 2812 007e 1846     		mov	r0, r3
 2813 0080 FB68     		ldr	r3, [r7, #12]
 2814 0082 9B6B     		ldr	r3, [r3, #56]
 2815 0084 00FB03F3 		mul	r3, r0, r3
 2816 0088 1344     		add	r3, r3, r2
 2817 008a FA68     		ldr	r2, [r7, #12]
 2818 008c D26A     		ldr	r2, [r2, #44]
 2819 008e 02FB03F3 		mul	r3, r2, r3
 2820              		.loc 1 1021 15
 2821 0092 0B44     		add	r3, r3, r1
 2822 0094 7B62     		str	r3, [r7, #36]
1022:./Libraries/STM32F4xx_HAL_Driver/Src/stm32f4xx_hal_nand.c ****   
1023:./Libraries/STM32F4xx_HAL_Driver/Src/stm32f4xx_hal_nand.c ****   /* Column in page address */
1024:./Libraries/STM32F4xx_HAL_Driver/Src/stm32f4xx_hal_nand.c ****   columnaddress = COLUMN_ADDRESS(hnand);
 2823              		.loc 1 1024 17
 2824 0096 FB68     		ldr	r3, [r7, #12]
 2825 0098 5B6A     		ldr	r3, [r3, #36]
 2826 009a BB61     		str	r3, [r7, #24]
1025:./Libraries/STM32F4xx_HAL_Driver/Src/stm32f4xx_hal_nand.c ****   
1026:./Libraries/STM32F4xx_HAL_Driver/Src/stm32f4xx_hal_nand.c ****   /* Spare area(s) read loop */ 
1027:./Libraries/STM32F4xx_HAL_Driver/Src/stm32f4xx_hal_nand.c ****   while((NumSpareAreaToRead != 0U) && (nandaddress < ((hnand->Config.BlockSize) * (hnand->Config.Bl
 2827              		.loc 1 1027 8
 2828 009c CAE0     		b	.L122
 2829              	.L133:
1028:./Libraries/STM32F4xx_HAL_Driver/Src/stm32f4xx_hal_nand.c ****   {     
1029:./Libraries/STM32F4xx_HAL_Driver/Src/stm32f4xx_hal_nand.c ****     /* update the buffer size */
1030:./Libraries/STM32F4xx_HAL_Driver/Src/stm32f4xx_hal_nand.c ****     size = (hnand->Config.SpareAreaSize) + ((hnand->Config.SpareAreaSize) * numSpareAreaRead);
 2830              		.loc 1 1030 42
 2831 009e BB6A     		ldr	r3, [r7, #40]
 2832 00a0 0133     		adds	r3, r3, #1
 2833              		.loc 1 1030 26
 2834 00a2 FA68     		ldr	r2, [r7, #12]
 2835 00a4 926A     		ldr	r2, [r2, #40]
 2836              		.loc 1 1030 10
 2837 00a6 02FB03F3 		mul	r3, r2, r3
 2838 00aa FB61     		str	r3, [r7, #28]
1031:./Libraries/STM32F4xx_HAL_Driver/Src/stm32f4xx_hal_nand.c **** 
1032:./Libraries/STM32F4xx_HAL_Driver/Src/stm32f4xx_hal_nand.c ****     /* Cards with page size <= 512 bytes */
1033:./Libraries/STM32F4xx_HAL_Driver/Src/stm32f4xx_hal_nand.c ****     if((hnand->Config.PageSize) <= 512U)
 2839              		.loc 1 1033 22
 2840 00ac FB68     		ldr	r3, [r7, #12]
 2841 00ae 5B6A     		ldr	r3, [r3, #36]
 2842              		.loc 1 1033 7
 2843 00b0 B3F5007F 		cmp	r3, #512
 2844 00b4 3AD8     		bhi	.L123
1034:./Libraries/STM32F4xx_HAL_Driver/Src/stm32f4xx_hal_nand.c ****     {
1035:./Libraries/STM32F4xx_HAL_Driver/Src/stm32f4xx_hal_nand.c ****       /* Send read spare area command sequence */     
1036:./Libraries/STM32F4xx_HAL_Driver/Src/stm32f4xx_hal_nand.c ****       *(__IO uint8_t *)((uint32_t)(deviceaddress | CMD_AREA)) = NAND_CMD_AREA_C;
 2845              		.loc 1 1036 25
 2846 00b6 FB6A     		ldr	r3, [r7, #44]
 2847 00b8 43F48033 		orr	r3, r3, #65536
ARM GAS  /tmp/ccmBJYMF.s 			page 77


 2848              		.loc 1 1036 63
 2849 00bc 5022     		movs	r2, #80
 2850 00be 1A70     		strb	r2, [r3]
1037:./Libraries/STM32F4xx_HAL_Driver/Src/stm32f4xx_hal_nand.c ****       
1038:./Libraries/STM32F4xx_HAL_Driver/Src/stm32f4xx_hal_nand.c ****       if (((hnand->Config.BlockSize)*(hnand->Config.BlockNbr)) <= 65535U)
