ARM GAS  /tmp/cc52q51R.s 			page 1


   1              		.cpu cortex-m4
   2              		.eabi_attribute 27, 1
   3              		.eabi_attribute 28, 1
   4              		.eabi_attribute 20, 1
   5              		.eabi_attribute 21, 1
   6              		.eabi_attribute 23, 3
   7              		.eabi_attribute 24, 1
   8              		.eabi_attribute 25, 1
   9              		.eabi_attribute 26, 1
  10              		.eabi_attribute 30, 6
  11              		.eabi_attribute 34, 1
  12              		.eabi_attribute 18, 4
  13              		.file	"stm32f4xx_hal_flash_ex.c"
  14              		.text
  15              	.Ltext0:
  16              		.cfi_sections	.debug_frame
  17              		.section	.text.HAL_FLASHEx_Erase,"ax",%progbits
  18              		.align	1
  19              		.global	HAL_FLASHEx_Erase
  20              		.arch armv7e-m
  21              		.syntax unified
  22              		.thumb
  23              		.thumb_func
  24              		.fpu fpv4-sp-d16
  26              	HAL_FLASHEx_Erase:
  27              	.LFB126:
  28              		.file 1 "./Libraries/STM32F4xx_HAL_Driver/Src/stm32f4xx_hal_flash_ex.c"
   1:./Libraries/STM32F4xx_HAL_Driver/Src/stm32f4xx_hal_flash_ex.c **** /**
   2:./Libraries/STM32F4xx_HAL_Driver/Src/stm32f4xx_hal_flash_ex.c ****   ******************************************************************************
   3:./Libraries/STM32F4xx_HAL_Driver/Src/stm32f4xx_hal_flash_ex.c ****   * @file    stm32f4xx_hal_flash_ex.c
   4:./Libraries/STM32F4xx_HAL_Driver/Src/stm32f4xx_hal_flash_ex.c ****   * @author  MCD Application Team
   5:./Libraries/STM32F4xx_HAL_Driver/Src/stm32f4xx_hal_flash_ex.c ****   * @brief   Extended FLASH HAL module driver.
   6:./Libraries/STM32F4xx_HAL_Driver/Src/stm32f4xx_hal_flash_ex.c ****   *          This file provides firmware functions to manage the following 
   7:./Libraries/STM32F4xx_HAL_Driver/Src/stm32f4xx_hal_flash_ex.c ****   *          functionalities of the FLASH extension peripheral:
   8:./Libraries/STM32F4xx_HAL_Driver/Src/stm32f4xx_hal_flash_ex.c ****   *           + Extended programming operations functions
   9:./Libraries/STM32F4xx_HAL_Driver/Src/stm32f4xx_hal_flash_ex.c ****   *  
  10:./Libraries/STM32F4xx_HAL_Driver/Src/stm32f4xx_hal_flash_ex.c ****   @verbatim
  11:./Libraries/STM32F4xx_HAL_Driver/Src/stm32f4xx_hal_flash_ex.c ****   ==============================================================================
  12:./Libraries/STM32F4xx_HAL_Driver/Src/stm32f4xx_hal_flash_ex.c ****                    ##### Flash Extension features #####
  13:./Libraries/STM32F4xx_HAL_Driver/Src/stm32f4xx_hal_flash_ex.c ****   ==============================================================================
  14:./Libraries/STM32F4xx_HAL_Driver/Src/stm32f4xx_hal_flash_ex.c ****            
  15:./Libraries/STM32F4xx_HAL_Driver/Src/stm32f4xx_hal_flash_ex.c ****   [..] Comparing to other previous devices, the FLASH interface for STM32F427xx/437xx and 
  16:./Libraries/STM32F4xx_HAL_Driver/Src/stm32f4xx_hal_flash_ex.c ****        STM32F429xx/439xx devices contains the following additional features 
  17:./Libraries/STM32F4xx_HAL_Driver/Src/stm32f4xx_hal_flash_ex.c ****        
  18:./Libraries/STM32F4xx_HAL_Driver/Src/stm32f4xx_hal_flash_ex.c ****        (+) Capacity up to 2 Mbyte with dual bank architecture supporting read-while-write
  19:./Libraries/STM32F4xx_HAL_Driver/Src/stm32f4xx_hal_flash_ex.c ****            capability (RWW)
  20:./Libraries/STM32F4xx_HAL_Driver/Src/stm32f4xx_hal_flash_ex.c ****        (+) Dual bank memory organization       
  21:./Libraries/STM32F4xx_HAL_Driver/Src/stm32f4xx_hal_flash_ex.c ****        (+) PCROP protection for all banks
  22:./Libraries/STM32F4xx_HAL_Driver/Src/stm32f4xx_hal_flash_ex.c ****    
  23:./Libraries/STM32F4xx_HAL_Driver/Src/stm32f4xx_hal_flash_ex.c ****                       ##### How to use this driver #####
  24:./Libraries/STM32F4xx_HAL_Driver/Src/stm32f4xx_hal_flash_ex.c ****   ==============================================================================
  25:./Libraries/STM32F4xx_HAL_Driver/Src/stm32f4xx_hal_flash_ex.c ****   [..] This driver provides functions to configure and program the FLASH memory 
  26:./Libraries/STM32F4xx_HAL_Driver/Src/stm32f4xx_hal_flash_ex.c ****        of all STM32F427xx/437xx, STM32F429xx/439xx, STM32F469xx/479xx and STM32F446xx 
  27:./Libraries/STM32F4xx_HAL_Driver/Src/stm32f4xx_hal_flash_ex.c ****        devices. It includes
  28:./Libraries/STM32F4xx_HAL_Driver/Src/stm32f4xx_hal_flash_ex.c ****       (#) FLASH Memory Erase functions: 
  29:./Libraries/STM32F4xx_HAL_Driver/Src/stm32f4xx_hal_flash_ex.c ****            (++) Lock and Unlock the FLASH interface using HAL_FLASH_Unlock() and 
  30:./Libraries/STM32F4xx_HAL_Driver/Src/stm32f4xx_hal_flash_ex.c ****                 HAL_FLASH_Lock() functions
ARM GAS  /tmp/cc52q51R.s 			page 2


  31:./Libraries/STM32F4xx_HAL_Driver/Src/stm32f4xx_hal_flash_ex.c ****            (++) Erase function: Erase sector, erase all sectors
  32:./Libraries/STM32F4xx_HAL_Driver/Src/stm32f4xx_hal_flash_ex.c ****            (++) There are two modes of erase :
  33:./Libraries/STM32F4xx_HAL_Driver/Src/stm32f4xx_hal_flash_ex.c ****              (+++) Polling Mode using HAL_FLASHEx_Erase()
  34:./Libraries/STM32F4xx_HAL_Driver/Src/stm32f4xx_hal_flash_ex.c ****              (+++) Interrupt Mode using HAL_FLASHEx_Erase_IT()
  35:./Libraries/STM32F4xx_HAL_Driver/Src/stm32f4xx_hal_flash_ex.c ****              
  36:./Libraries/STM32F4xx_HAL_Driver/Src/stm32f4xx_hal_flash_ex.c ****       (#) Option Bytes Programming functions: Use HAL_FLASHEx_OBProgram() to :
  37:./Libraries/STM32F4xx_HAL_Driver/Src/stm32f4xx_hal_flash_ex.c ****            (++) Set/Reset the write protection
  38:./Libraries/STM32F4xx_HAL_Driver/Src/stm32f4xx_hal_flash_ex.c ****            (++) Set the Read protection Level
  39:./Libraries/STM32F4xx_HAL_Driver/Src/stm32f4xx_hal_flash_ex.c ****            (++) Set the BOR level
  40:./Libraries/STM32F4xx_HAL_Driver/Src/stm32f4xx_hal_flash_ex.c ****            (++) Program the user Option Bytes
  41:./Libraries/STM32F4xx_HAL_Driver/Src/stm32f4xx_hal_flash_ex.c ****       (#) Advanced Option Bytes Programming functions: Use HAL_FLASHEx_AdvOBProgram() to :  
  42:./Libraries/STM32F4xx_HAL_Driver/Src/stm32f4xx_hal_flash_ex.c ****        (++) Extended space (bank 2) erase function
  43:./Libraries/STM32F4xx_HAL_Driver/Src/stm32f4xx_hal_flash_ex.c ****        (++) Full FLASH space (2 Mo) erase (bank 1 and bank 2)
  44:./Libraries/STM32F4xx_HAL_Driver/Src/stm32f4xx_hal_flash_ex.c ****        (++) Dual Boot activation
  45:./Libraries/STM32F4xx_HAL_Driver/Src/stm32f4xx_hal_flash_ex.c ****        (++) Write protection configuration for bank 2
  46:./Libraries/STM32F4xx_HAL_Driver/Src/stm32f4xx_hal_flash_ex.c ****        (++) PCROP protection configuration and control for both banks
  47:./Libraries/STM32F4xx_HAL_Driver/Src/stm32f4xx_hal_flash_ex.c ****   
  48:./Libraries/STM32F4xx_HAL_Driver/Src/stm32f4xx_hal_flash_ex.c ****   @endverbatim
  49:./Libraries/STM32F4xx_HAL_Driver/Src/stm32f4xx_hal_flash_ex.c ****   ******************************************************************************
  50:./Libraries/STM32F4xx_HAL_Driver/Src/stm32f4xx_hal_flash_ex.c ****   * @attention
  51:./Libraries/STM32F4xx_HAL_Driver/Src/stm32f4xx_hal_flash_ex.c ****   *
  52:./Libraries/STM32F4xx_HAL_Driver/Src/stm32f4xx_hal_flash_ex.c ****   * <h2><center>&copy; COPYRIGHT(c) 2017 STMicroelectronics</center></h2>
  53:./Libraries/STM32F4xx_HAL_Driver/Src/stm32f4xx_hal_flash_ex.c ****   *
  54:./Libraries/STM32F4xx_HAL_Driver/Src/stm32f4xx_hal_flash_ex.c ****   * Redistribution and use in source and binary forms, with or without modification,
  55:./Libraries/STM32F4xx_HAL_Driver/Src/stm32f4xx_hal_flash_ex.c ****   * are permitted provided that the following conditions are met:
  56:./Libraries/STM32F4xx_HAL_Driver/Src/stm32f4xx_hal_flash_ex.c ****   *   1. Redistributions of source code must retain the above copyright notice,
  57:./Libraries/STM32F4xx_HAL_Driver/Src/stm32f4xx_hal_flash_ex.c ****   *      this list of conditions and the following disclaimer.
  58:./Libraries/STM32F4xx_HAL_Driver/Src/stm32f4xx_hal_flash_ex.c ****   *   2. Redistributions in binary form must reproduce the above copyright notice,
  59:./Libraries/STM32F4xx_HAL_Driver/Src/stm32f4xx_hal_flash_ex.c ****   *      this list of conditions and the following disclaimer in the documentation
  60:./Libraries/STM32F4xx_HAL_Driver/Src/stm32f4xx_hal_flash_ex.c ****   *      and/or other materials provided with the distribution.
  61:./Libraries/STM32F4xx_HAL_Driver/Src/stm32f4xx_hal_flash_ex.c ****   *   3. Neither the name of STMicroelectronics nor the names of its contributors
  62:./Libraries/STM32F4xx_HAL_Driver/Src/stm32f4xx_hal_flash_ex.c ****   *      may be used to endorse or promote products derived from this software
  63:./Libraries/STM32F4xx_HAL_Driver/Src/stm32f4xx_hal_flash_ex.c ****   *      without specific prior written permission.
  64:./Libraries/STM32F4xx_HAL_Driver/Src/stm32f4xx_hal_flash_ex.c ****   *
  65:./Libraries/STM32F4xx_HAL_Driver/Src/stm32f4xx_hal_flash_ex.c ****   * THIS SOFTWARE IS PROVIDED BY THE COPYRIGHT HOLDERS AND CONTRIBUTORS "AS IS"
  66:./Libraries/STM32F4xx_HAL_Driver/Src/stm32f4xx_hal_flash_ex.c ****   * AND ANY EXPRESS OR IMPLIED WARRANTIES, INCLUDING, BUT NOT LIMITED TO, THE
  67:./Libraries/STM32F4xx_HAL_Driver/Src/stm32f4xx_hal_flash_ex.c ****   * IMPLIED WARRANTIES OF MERCHANTABILITY AND FITNESS FOR A PARTICULAR PURPOSE ARE
  68:./Libraries/STM32F4xx_HAL_Driver/Src/stm32f4xx_hal_flash_ex.c ****   * DISCLAIMED. IN NO EVENT SHALL THE COPYRIGHT HOLDER OR CONTRIBUTORS BE LIABLE
  69:./Libraries/STM32F4xx_HAL_Driver/Src/stm32f4xx_hal_flash_ex.c ****   * FOR ANY DIRECT, INDIRECT, INCIDENTAL, SPECIAL, EXEMPLARY, OR CONSEQUENTIAL
  70:./Libraries/STM32F4xx_HAL_Driver/Src/stm32f4xx_hal_flash_ex.c ****   * DAMAGES (INCLUDING, BUT NOT LIMITED TO, PROCUREMENT OF SUBSTITUTE GOODS OR
  71:./Libraries/STM32F4xx_HAL_Driver/Src/stm32f4xx_hal_flash_ex.c ****   * SERVICES; LOSS OF USE, DATA, OR PROFITS; OR BUSINESS INTERRUPTION) HOWEVER
  72:./Libraries/STM32F4xx_HAL_Driver/Src/stm32f4xx_hal_flash_ex.c ****   * CAUSED AND ON ANY THEORY OF LIABILITY, WHETHER IN CONTRACT, STRICT LIABILITY,
  73:./Libraries/STM32F4xx_HAL_Driver/Src/stm32f4xx_hal_flash_ex.c ****   * OR TORT (INCLUDING NEGLIGENCE OR OTHERWISE) ARISING IN ANY WAY OUT OF THE USE
  74:./Libraries/STM32F4xx_HAL_Driver/Src/stm32f4xx_hal_flash_ex.c ****   * OF THIS SOFTWARE, EVEN IF ADVISED OF THE POSSIBILITY OF SUCH DAMAGE.
  75:./Libraries/STM32F4xx_HAL_Driver/Src/stm32f4xx_hal_flash_ex.c ****   *
  76:./Libraries/STM32F4xx_HAL_Driver/Src/stm32f4xx_hal_flash_ex.c ****   ******************************************************************************
  77:./Libraries/STM32F4xx_HAL_Driver/Src/stm32f4xx_hal_flash_ex.c ****   */ 
  78:./Libraries/STM32F4xx_HAL_Driver/Src/stm32f4xx_hal_flash_ex.c **** 
  79:./Libraries/STM32F4xx_HAL_Driver/Src/stm32f4xx_hal_flash_ex.c **** /* Includes ------------------------------------------------------------------*/
  80:./Libraries/STM32F4xx_HAL_Driver/Src/stm32f4xx_hal_flash_ex.c **** #include "stm32f4xx_hal.h"
  81:./Libraries/STM32F4xx_HAL_Driver/Src/stm32f4xx_hal_flash_ex.c **** 
  82:./Libraries/STM32F4xx_HAL_Driver/Src/stm32f4xx_hal_flash_ex.c **** /** @addtogroup STM32F4xx_HAL_Driver
  83:./Libraries/STM32F4xx_HAL_Driver/Src/stm32f4xx_hal_flash_ex.c ****   * @{
  84:./Libraries/STM32F4xx_HAL_Driver/Src/stm32f4xx_hal_flash_ex.c ****   */
  85:./Libraries/STM32F4xx_HAL_Driver/Src/stm32f4xx_hal_flash_ex.c **** 
  86:./Libraries/STM32F4xx_HAL_Driver/Src/stm32f4xx_hal_flash_ex.c **** /** @defgroup FLASHEx FLASHEx
  87:./Libraries/STM32F4xx_HAL_Driver/Src/stm32f4xx_hal_flash_ex.c ****   * @brief FLASH HAL Extension module driver
ARM GAS  /tmp/cc52q51R.s 			page 3


  88:./Libraries/STM32F4xx_HAL_Driver/Src/stm32f4xx_hal_flash_ex.c ****   * @{
  89:./Libraries/STM32F4xx_HAL_Driver/Src/stm32f4xx_hal_flash_ex.c ****   */
  90:./Libraries/STM32F4xx_HAL_Driver/Src/stm32f4xx_hal_flash_ex.c **** 
  91:./Libraries/STM32F4xx_HAL_Driver/Src/stm32f4xx_hal_flash_ex.c **** #ifdef HAL_FLASH_MODULE_ENABLED
  92:./Libraries/STM32F4xx_HAL_Driver/Src/stm32f4xx_hal_flash_ex.c **** 
  93:./Libraries/STM32F4xx_HAL_Driver/Src/stm32f4xx_hal_flash_ex.c **** /* Private typedef -----------------------------------------------------------*/
  94:./Libraries/STM32F4xx_HAL_Driver/Src/stm32f4xx_hal_flash_ex.c **** /* Private define ------------------------------------------------------------*/
  95:./Libraries/STM32F4xx_HAL_Driver/Src/stm32f4xx_hal_flash_ex.c **** /** @addtogroup FLASHEx_Private_Constants
  96:./Libraries/STM32F4xx_HAL_Driver/Src/stm32f4xx_hal_flash_ex.c ****   * @{
  97:./Libraries/STM32F4xx_HAL_Driver/Src/stm32f4xx_hal_flash_ex.c ****   */    
  98:./Libraries/STM32F4xx_HAL_Driver/Src/stm32f4xx_hal_flash_ex.c **** #define FLASH_TIMEOUT_VALUE       50000U /* 50 s */
  99:./Libraries/STM32F4xx_HAL_Driver/Src/stm32f4xx_hal_flash_ex.c **** /**
 100:./Libraries/STM32F4xx_HAL_Driver/Src/stm32f4xx_hal_flash_ex.c ****   * @}
 101:./Libraries/STM32F4xx_HAL_Driver/Src/stm32f4xx_hal_flash_ex.c ****   */
 102:./Libraries/STM32F4xx_HAL_Driver/Src/stm32f4xx_hal_flash_ex.c ****     
 103:./Libraries/STM32F4xx_HAL_Driver/Src/stm32f4xx_hal_flash_ex.c **** /* Private macro -------------------------------------------------------------*/
 104:./Libraries/STM32F4xx_HAL_Driver/Src/stm32f4xx_hal_flash_ex.c **** /* Private variables ---------------------------------------------------------*/
 105:./Libraries/STM32F4xx_HAL_Driver/Src/stm32f4xx_hal_flash_ex.c **** /** @addtogroup FLASHEx_Private_Variables
 106:./Libraries/STM32F4xx_HAL_Driver/Src/stm32f4xx_hal_flash_ex.c ****   * @{
 107:./Libraries/STM32F4xx_HAL_Driver/Src/stm32f4xx_hal_flash_ex.c ****   */    
 108:./Libraries/STM32F4xx_HAL_Driver/Src/stm32f4xx_hal_flash_ex.c **** extern FLASH_ProcessTypeDef pFlash;
 109:./Libraries/STM32F4xx_HAL_Driver/Src/stm32f4xx_hal_flash_ex.c **** /**
 110:./Libraries/STM32F4xx_HAL_Driver/Src/stm32f4xx_hal_flash_ex.c ****   * @}
 111:./Libraries/STM32F4xx_HAL_Driver/Src/stm32f4xx_hal_flash_ex.c ****   */
 112:./Libraries/STM32F4xx_HAL_Driver/Src/stm32f4xx_hal_flash_ex.c **** 
 113:./Libraries/STM32F4xx_HAL_Driver/Src/stm32f4xx_hal_flash_ex.c **** /* Private function prototypes -----------------------------------------------*/
 114:./Libraries/STM32F4xx_HAL_Driver/Src/stm32f4xx_hal_flash_ex.c **** /** @addtogroup FLASHEx_Private_Functions
 115:./Libraries/STM32F4xx_HAL_Driver/Src/stm32f4xx_hal_flash_ex.c ****   * @{
 116:./Libraries/STM32F4xx_HAL_Driver/Src/stm32f4xx_hal_flash_ex.c ****   */
 117:./Libraries/STM32F4xx_HAL_Driver/Src/stm32f4xx_hal_flash_ex.c **** /* Option bytes control */
 118:./Libraries/STM32F4xx_HAL_Driver/Src/stm32f4xx_hal_flash_ex.c **** static void               FLASH_MassErase(uint8_t VoltageRange, uint32_t Banks);
 119:./Libraries/STM32F4xx_HAL_Driver/Src/stm32f4xx_hal_flash_ex.c **** static HAL_StatusTypeDef  FLASH_OB_EnableWRP(uint32_t WRPSector, uint32_t Banks);
 120:./Libraries/STM32F4xx_HAL_Driver/Src/stm32f4xx_hal_flash_ex.c **** static HAL_StatusTypeDef  FLASH_OB_DisableWRP(uint32_t WRPSector, uint32_t Banks);
 121:./Libraries/STM32F4xx_HAL_Driver/Src/stm32f4xx_hal_flash_ex.c **** static HAL_StatusTypeDef  FLASH_OB_RDP_LevelConfig(uint8_t Level);
 122:./Libraries/STM32F4xx_HAL_Driver/Src/stm32f4xx_hal_flash_ex.c **** static HAL_StatusTypeDef  FLASH_OB_UserConfig(uint8_t Iwdg, uint8_t Stop, uint8_t Stdby);
 123:./Libraries/STM32F4xx_HAL_Driver/Src/stm32f4xx_hal_flash_ex.c **** static HAL_StatusTypeDef  FLASH_OB_BOR_LevelConfig(uint8_t Level);
 124:./Libraries/STM32F4xx_HAL_Driver/Src/stm32f4xx_hal_flash_ex.c **** static uint8_t            FLASH_OB_GetUser(void);
 125:./Libraries/STM32F4xx_HAL_Driver/Src/stm32f4xx_hal_flash_ex.c **** static uint16_t           FLASH_OB_GetWRP(void);
 126:./Libraries/STM32F4xx_HAL_Driver/Src/stm32f4xx_hal_flash_ex.c **** static uint8_t            FLASH_OB_GetRDP(void);
 127:./Libraries/STM32F4xx_HAL_Driver/Src/stm32f4xx_hal_flash_ex.c **** static uint8_t            FLASH_OB_GetBOR(void);
 128:./Libraries/STM32F4xx_HAL_Driver/Src/stm32f4xx_hal_flash_ex.c **** 
 129:./Libraries/STM32F4xx_HAL_Driver/Src/stm32f4xx_hal_flash_ex.c **** #if defined(STM32F401xC) || defined(STM32F401xE) || defined(STM32F410Tx) || defined(STM32F410Cx) ||
 130:./Libraries/STM32F4xx_HAL_Driver/Src/stm32f4xx_hal_flash_ex.c ****     defined(STM32F446xx) || defined(STM32F412Zx) || defined(STM32F412Vx) || defined(STM32F412Rx) ||
 131:./Libraries/STM32F4xx_HAL_Driver/Src/stm32f4xx_hal_flash_ex.c ****     defined(STM32F423xx)
 132:./Libraries/STM32F4xx_HAL_Driver/Src/stm32f4xx_hal_flash_ex.c **** static HAL_StatusTypeDef  FLASH_OB_EnablePCROP(uint32_t Sector);
 133:./Libraries/STM32F4xx_HAL_Driver/Src/stm32f4xx_hal_flash_ex.c **** static HAL_StatusTypeDef  FLASH_OB_DisablePCROP(uint32_t Sector);
 134:./Libraries/STM32F4xx_HAL_Driver/Src/stm32f4xx_hal_flash_ex.c **** #endif /* STM32F401xC || STM32F401xE || STM32F410xx || STM32F411xE || STM32F446xx || STM32F412Zx ||
 135:./Libraries/STM32F4xx_HAL_Driver/Src/stm32f4xx_hal_flash_ex.c ****           STM32F413xx || STM32F423xx */
 136:./Libraries/STM32F4xx_HAL_Driver/Src/stm32f4xx_hal_flash_ex.c **** 
 137:./Libraries/STM32F4xx_HAL_Driver/Src/stm32f4xx_hal_flash_ex.c **** #if defined(STM32F427xx) || defined(STM32F437xx) || defined(STM32F429xx)|| defined(STM32F439xx) || 
 138:./Libraries/STM32F4xx_HAL_Driver/Src/stm32f4xx_hal_flash_ex.c **** static HAL_StatusTypeDef FLASH_OB_EnablePCROP(uint32_t SectorBank1, uint32_t SectorBank2, uint32_t 
 139:./Libraries/STM32F4xx_HAL_Driver/Src/stm32f4xx_hal_flash_ex.c **** static HAL_StatusTypeDef FLASH_OB_DisablePCROP(uint32_t SectorBank1, uint32_t SectorBank2, uint32_t
 140:./Libraries/STM32F4xx_HAL_Driver/Src/stm32f4xx_hal_flash_ex.c **** static HAL_StatusTypeDef FLASH_OB_BootConfig(uint8_t BootConfig);
 141:./Libraries/STM32F4xx_HAL_Driver/Src/stm32f4xx_hal_flash_ex.c **** #endif /* STM32F427xx || STM32F437xx || STM32F429xx || STM32F439xx || STM32F469xx || STM32F479xx */
 142:./Libraries/STM32F4xx_HAL_Driver/Src/stm32f4xx_hal_flash_ex.c **** 
 143:./Libraries/STM32F4xx_HAL_Driver/Src/stm32f4xx_hal_flash_ex.c **** extern HAL_StatusTypeDef         FLASH_WaitForLastOperation(uint32_t Timeout);
 144:./Libraries/STM32F4xx_HAL_Driver/Src/stm32f4xx_hal_flash_ex.c **** /**
ARM GAS  /tmp/cc52q51R.s 			page 4


 145:./Libraries/STM32F4xx_HAL_Driver/Src/stm32f4xx_hal_flash_ex.c ****   * @}
 146:./Libraries/STM32F4xx_HAL_Driver/Src/stm32f4xx_hal_flash_ex.c ****   */
 147:./Libraries/STM32F4xx_HAL_Driver/Src/stm32f4xx_hal_flash_ex.c **** 
 148:./Libraries/STM32F4xx_HAL_Driver/Src/stm32f4xx_hal_flash_ex.c **** /* Exported functions --------------------------------------------------------*/
 149:./Libraries/STM32F4xx_HAL_Driver/Src/stm32f4xx_hal_flash_ex.c **** /** @defgroup FLASHEx_Exported_Functions FLASHEx Exported Functions
 150:./Libraries/STM32F4xx_HAL_Driver/Src/stm32f4xx_hal_flash_ex.c ****   * @{
 151:./Libraries/STM32F4xx_HAL_Driver/Src/stm32f4xx_hal_flash_ex.c ****   */
 152:./Libraries/STM32F4xx_HAL_Driver/Src/stm32f4xx_hal_flash_ex.c **** 
 153:./Libraries/STM32F4xx_HAL_Driver/Src/stm32f4xx_hal_flash_ex.c **** /** @defgroup FLASHEx_Exported_Functions_Group1 Extended IO operation functions
 154:./Libraries/STM32F4xx_HAL_Driver/Src/stm32f4xx_hal_flash_ex.c ****  *  @brief   Extended IO operation functions 
 155:./Libraries/STM32F4xx_HAL_Driver/Src/stm32f4xx_hal_flash_ex.c ****  *
 156:./Libraries/STM32F4xx_HAL_Driver/Src/stm32f4xx_hal_flash_ex.c **** @verbatim   
 157:./Libraries/STM32F4xx_HAL_Driver/Src/stm32f4xx_hal_flash_ex.c ****  ===============================================================================
 158:./Libraries/STM32F4xx_HAL_Driver/Src/stm32f4xx_hal_flash_ex.c ****                 ##### Extended programming operation functions #####
 159:./Libraries/STM32F4xx_HAL_Driver/Src/stm32f4xx_hal_flash_ex.c ****  ===============================================================================  
 160:./Libraries/STM32F4xx_HAL_Driver/Src/stm32f4xx_hal_flash_ex.c ****     [..]
 161:./Libraries/STM32F4xx_HAL_Driver/Src/stm32f4xx_hal_flash_ex.c ****     This subsection provides a set of functions allowing to manage the Extension FLASH 
 162:./Libraries/STM32F4xx_HAL_Driver/Src/stm32f4xx_hal_flash_ex.c ****     programming operations.
 163:./Libraries/STM32F4xx_HAL_Driver/Src/stm32f4xx_hal_flash_ex.c **** 
 164:./Libraries/STM32F4xx_HAL_Driver/Src/stm32f4xx_hal_flash_ex.c **** @endverbatim
 165:./Libraries/STM32F4xx_HAL_Driver/Src/stm32f4xx_hal_flash_ex.c ****   * @{
 166:./Libraries/STM32F4xx_HAL_Driver/Src/stm32f4xx_hal_flash_ex.c ****   */
 167:./Libraries/STM32F4xx_HAL_Driver/Src/stm32f4xx_hal_flash_ex.c **** /**
 168:./Libraries/STM32F4xx_HAL_Driver/Src/stm32f4xx_hal_flash_ex.c ****   * @brief  Perform a mass erase or erase the specified FLASH memory sectors 
 169:./Libraries/STM32F4xx_HAL_Driver/Src/stm32f4xx_hal_flash_ex.c ****   * @param[in]  pEraseInit pointer to an FLASH_EraseInitTypeDef structure that
 170:./Libraries/STM32F4xx_HAL_Driver/Src/stm32f4xx_hal_flash_ex.c ****   *         contains the configuration information for the erasing.
 171:./Libraries/STM32F4xx_HAL_Driver/Src/stm32f4xx_hal_flash_ex.c ****   * 
 172:./Libraries/STM32F4xx_HAL_Driver/Src/stm32f4xx_hal_flash_ex.c ****   * @param[out]  SectorError pointer to variable  that
 173:./Libraries/STM32F4xx_HAL_Driver/Src/stm32f4xx_hal_flash_ex.c ****   *         contains the configuration information on faulty sector in case of error 
 174:./Libraries/STM32F4xx_HAL_Driver/Src/stm32f4xx_hal_flash_ex.c ****   *         (0xFFFFFFFFU means that all the sectors have been correctly erased)
 175:./Libraries/STM32F4xx_HAL_Driver/Src/stm32f4xx_hal_flash_ex.c ****   * 
 176:./Libraries/STM32F4xx_HAL_Driver/Src/stm32f4xx_hal_flash_ex.c ****   * @retval HAL Status
 177:./Libraries/STM32F4xx_HAL_Driver/Src/stm32f4xx_hal_flash_ex.c ****   */
 178:./Libraries/STM32F4xx_HAL_Driver/Src/stm32f4xx_hal_flash_ex.c **** HAL_StatusTypeDef HAL_FLASHEx_Erase(FLASH_EraseInitTypeDef *pEraseInit, uint32_t *SectorError)
 179:./Libraries/STM32F4xx_HAL_Driver/Src/stm32f4xx_hal_flash_ex.c **** {
  29              		.loc 1 179 1
  30              		.cfi_startproc
  31              		@ args = 0, pretend = 0, frame = 16
  32              		@ frame_needed = 1, uses_anonymous_args = 0
  33 0000 80B5     		push	{r7, lr}
  34              	.LCFI0:
  35              		.cfi_def_cfa_offset 8
  36              		.cfi_offset 7, -8
  37              		.cfi_offset 14, -4
  38 0002 84B0     		sub	sp, sp, #16
  39              	.LCFI1:
  40              		.cfi_def_cfa_offset 24
  41 0004 00AF     		add	r7, sp, #0
  42              	.LCFI2:
  43              		.cfi_def_cfa_register 7
  44 0006 7860     		str	r0, [r7, #4]
  45 0008 3960     		str	r1, [r7]
 180:./Libraries/STM32F4xx_HAL_Driver/Src/stm32f4xx_hal_flash_ex.c ****   HAL_StatusTypeDef status = HAL_ERROR;
  46              		.loc 1 180 21
  47 000a 0123     		movs	r3, #1
  48 000c FB73     		strb	r3, [r7, #15]
 181:./Libraries/STM32F4xx_HAL_Driver/Src/stm32f4xx_hal_flash_ex.c ****   uint32_t index = 0U;
ARM GAS  /tmp/cc52q51R.s 			page 5


  49              		.loc 1 181 12
  50 000e 0023     		movs	r3, #0
  51 0010 BB60     		str	r3, [r7, #8]
 182:./Libraries/STM32F4xx_HAL_Driver/Src/stm32f4xx_hal_flash_ex.c ****   
 183:./Libraries/STM32F4xx_HAL_Driver/Src/stm32f4xx_hal_flash_ex.c ****   /* Process Locked */
 184:./Libraries/STM32F4xx_HAL_Driver/Src/stm32f4xx_hal_flash_ex.c ****   __HAL_LOCK(&pFlash);
  52              		.loc 1 184 3
  53 0012 324B     		ldr	r3, .L10
  54 0014 1B7E     		ldrb	r3, [r3, #24]	@ zero_extendqisi2
  55 0016 012B     		cmp	r3, #1
  56 0018 01D1     		bne	.L2
  57              		.loc 1 184 3 is_stmt 0 discriminator 1
  58 001a 0223     		movs	r3, #2
  59 001c 5AE0     		b	.L3
  60              	.L2:
  61              		.loc 1 184 3 discriminator 2
  62 001e 2F4B     		ldr	r3, .L10
  63 0020 0122     		movs	r2, #1
  64 0022 1A76     		strb	r2, [r3, #24]
 185:./Libraries/STM32F4xx_HAL_Driver/Src/stm32f4xx_hal_flash_ex.c **** 
 186:./Libraries/STM32F4xx_HAL_Driver/Src/stm32f4xx_hal_flash_ex.c ****   /* Check the parameters */
 187:./Libraries/STM32F4xx_HAL_Driver/Src/stm32f4xx_hal_flash_ex.c ****   assert_param(IS_FLASH_TYPEERASE(pEraseInit->TypeErase));
 188:./Libraries/STM32F4xx_HAL_Driver/Src/stm32f4xx_hal_flash_ex.c **** 
 189:./Libraries/STM32F4xx_HAL_Driver/Src/stm32f4xx_hal_flash_ex.c ****   /* Wait for last operation to be completed */
 190:./Libraries/STM32F4xx_HAL_Driver/Src/stm32f4xx_hal_flash_ex.c ****   status = FLASH_WaitForLastOperation((uint32_t)FLASH_TIMEOUT_VALUE);
  65              		.loc 1 190 12 is_stmt 1 discriminator 2
  66 0024 4CF25030 		movw	r0, #50000
  67 0028 FFF7FEFF 		bl	FLASH_WaitForLastOperation
  68 002c 0346     		mov	r3, r0
  69 002e FB73     		strb	r3, [r7, #15]
 191:./Libraries/STM32F4xx_HAL_Driver/Src/stm32f4xx_hal_flash_ex.c **** 
 192:./Libraries/STM32F4xx_HAL_Driver/Src/stm32f4xx_hal_flash_ex.c ****   if(status == HAL_OK)
  70              		.loc 1 192 5 discriminator 2
  71 0030 FB7B     		ldrb	r3, [r7, #15]	@ zero_extendqisi2
  72 0032 002B     		cmp	r3, #0
  73 0034 4AD1     		bne	.L4
 193:./Libraries/STM32F4xx_HAL_Driver/Src/stm32f4xx_hal_flash_ex.c ****   {
 194:./Libraries/STM32F4xx_HAL_Driver/Src/stm32f4xx_hal_flash_ex.c ****     /*Initialization of SectorError variable*/
 195:./Libraries/STM32F4xx_HAL_Driver/Src/stm32f4xx_hal_flash_ex.c ****     *SectorError = 0xFFFFFFFFU;
  74              		.loc 1 195 18
  75 0036 3B68     		ldr	r3, [r7]
  76 0038 4FF0FF32 		mov	r2, #-1
  77 003c 1A60     		str	r2, [r3]
 196:./Libraries/STM32F4xx_HAL_Driver/Src/stm32f4xx_hal_flash_ex.c ****     
 197:./Libraries/STM32F4xx_HAL_Driver/Src/stm32f4xx_hal_flash_ex.c ****     if(pEraseInit->TypeErase == FLASH_TYPEERASE_MASSERASE)
  78              		.loc 1 197 18
  79 003e 7B68     		ldr	r3, [r7, #4]
  80 0040 1B68     		ldr	r3, [r3]
  81              		.loc 1 197 7
  82 0042 012B     		cmp	r3, #1
  83 0044 17D1     		bne	.L5
 198:./Libraries/STM32F4xx_HAL_Driver/Src/stm32f4xx_hal_flash_ex.c ****     {
 199:./Libraries/STM32F4xx_HAL_Driver/Src/stm32f4xx_hal_flash_ex.c ****       /*Mass erase to be done*/
 200:./Libraries/STM32F4xx_HAL_Driver/Src/stm32f4xx_hal_flash_ex.c ****       FLASH_MassErase((uint8_t) pEraseInit->VoltageRange, pEraseInit->Banks);
  84              		.loc 1 200 43
  85 0046 7B68     		ldr	r3, [r7, #4]
  86 0048 1B69     		ldr	r3, [r3, #16]
ARM GAS  /tmp/cc52q51R.s 			page 6


  87              		.loc 1 200 7
  88 004a DAB2     		uxtb	r2, r3
  89 004c 7B68     		ldr	r3, [r7, #4]
  90 004e 5B68     		ldr	r3, [r3, #4]
  91 0050 1946     		mov	r1, r3
  92 0052 1046     		mov	r0, r2
  93 0054 FFF7FEFF 		bl	FLASH_MassErase
 201:./Libraries/STM32F4xx_HAL_Driver/Src/stm32f4xx_hal_flash_ex.c **** 
 202:./Libraries/STM32F4xx_HAL_Driver/Src/stm32f4xx_hal_flash_ex.c ****       /* Wait for last operation to be completed */
 203:./Libraries/STM32F4xx_HAL_Driver/Src/stm32f4xx_hal_flash_ex.c ****       status = FLASH_WaitForLastOperation((uint32_t)FLASH_TIMEOUT_VALUE);
  94              		.loc 1 203 16
  95 0058 4CF25030 		movw	r0, #50000
  96 005c FFF7FEFF 		bl	FLASH_WaitForLastOperation
  97 0060 0346     		mov	r3, r0
  98 0062 FB73     		strb	r3, [r7, #15]
 204:./Libraries/STM32F4xx_HAL_Driver/Src/stm32f4xx_hal_flash_ex.c ****       
 205:./Libraries/STM32F4xx_HAL_Driver/Src/stm32f4xx_hal_flash_ex.c ****       /* if the erase operation is completed, disable the MER Bit */
 206:./Libraries/STM32F4xx_HAL_Driver/Src/stm32f4xx_hal_flash_ex.c ****       FLASH->CR &= (~FLASH_MER_BIT);
  99              		.loc 1 206 17
 100 0064 1E4B     		ldr	r3, .L10+4
 101 0066 1B69     		ldr	r3, [r3, #16]
 102 0068 1D4A     		ldr	r2, .L10+4
 103 006a 23F40043 		bic	r3, r3, #32768
 104 006e 23F00403 		bic	r3, r3, #4
 105 0072 1361     		str	r3, [r2, #16]
 106 0074 28E0     		b	.L6
 107              	.L5:
 207:./Libraries/STM32F4xx_HAL_Driver/Src/stm32f4xx_hal_flash_ex.c ****     }
 208:./Libraries/STM32F4xx_HAL_Driver/Src/stm32f4xx_hal_flash_ex.c ****     else
 209:./Libraries/STM32F4xx_HAL_Driver/Src/stm32f4xx_hal_flash_ex.c ****     {
 210:./Libraries/STM32F4xx_HAL_Driver/Src/stm32f4xx_hal_flash_ex.c ****       /* Check the parameters */
 211:./Libraries/STM32F4xx_HAL_Driver/Src/stm32f4xx_hal_flash_ex.c ****       assert_param(IS_FLASH_NBSECTORS(pEraseInit->NbSectors + pEraseInit->Sector));
 212:./Libraries/STM32F4xx_HAL_Driver/Src/stm32f4xx_hal_flash_ex.c **** 
 213:./Libraries/STM32F4xx_HAL_Driver/Src/stm32f4xx_hal_flash_ex.c ****       /* Erase by sector by sector to be done*/
 214:./Libraries/STM32F4xx_HAL_Driver/Src/stm32f4xx_hal_flash_ex.c ****       for(index = pEraseInit->Sector; index < (pEraseInit->NbSectors + pEraseInit->Sector); index++
 108              		.loc 1 214 17
 109 0076 7B68     		ldr	r3, [r7, #4]
 110 0078 9B68     		ldr	r3, [r3, #8]
 111 007a BB60     		str	r3, [r7, #8]
 112              		.loc 1 214 7
 113 007c 1CE0     		b	.L7
 114              	.L9:
 215:./Libraries/STM32F4xx_HAL_Driver/Src/stm32f4xx_hal_flash_ex.c ****       {
 216:./Libraries/STM32F4xx_HAL_Driver/Src/stm32f4xx_hal_flash_ex.c ****         FLASH_Erase_Sector(index, (uint8_t) pEraseInit->VoltageRange);
 115              		.loc 1 216 55
 116 007e 7B68     		ldr	r3, [r7, #4]
 117 0080 1B69     		ldr	r3, [r3, #16]
 118              		.loc 1 216 9
 119 0082 DBB2     		uxtb	r3, r3
 120 0084 1946     		mov	r1, r3
 121 0086 B868     		ldr	r0, [r7, #8]
 122 0088 FFF7FEFF 		bl	FLASH_Erase_Sector
 217:./Libraries/STM32F4xx_HAL_Driver/Src/stm32f4xx_hal_flash_ex.c **** 
 218:./Libraries/STM32F4xx_HAL_Driver/Src/stm32f4xx_hal_flash_ex.c ****         /* Wait for last operation to be completed */
 219:./Libraries/STM32F4xx_HAL_Driver/Src/stm32f4xx_hal_flash_ex.c ****         status = FLASH_WaitForLastOperation((uint32_t)FLASH_TIMEOUT_VALUE);
 123              		.loc 1 219 18
 124 008c 4CF25030 		movw	r0, #50000
ARM GAS  /tmp/cc52q51R.s 			page 7


 125 0090 FFF7FEFF 		bl	FLASH_WaitForLastOperation
 126 0094 0346     		mov	r3, r0
 127 0096 FB73     		strb	r3, [r7, #15]
 220:./Libraries/STM32F4xx_HAL_Driver/Src/stm32f4xx_hal_flash_ex.c ****         
 221:./Libraries/STM32F4xx_HAL_Driver/Src/stm32f4xx_hal_flash_ex.c ****         /* If the erase operation is completed, disable the SER and SNB Bits */
 222:./Libraries/STM32F4xx_HAL_Driver/Src/stm32f4xx_hal_flash_ex.c ****         CLEAR_BIT(FLASH->CR, (FLASH_CR_SER | FLASH_CR_SNB));
 128              		.loc 1 222 9
 129 0098 114B     		ldr	r3, .L10+4
 130 009a 1B69     		ldr	r3, [r3, #16]
 131 009c 104A     		ldr	r2, .L10+4
 132 009e 23F0FA03 		bic	r3, r3, #250
 133 00a2 1361     		str	r3, [r2, #16]
 223:./Libraries/STM32F4xx_HAL_Driver/Src/stm32f4xx_hal_flash_ex.c **** 
 224:./Libraries/STM32F4xx_HAL_Driver/Src/stm32f4xx_hal_flash_ex.c ****         if(status != HAL_OK) 
 134              		.loc 1 224 11
 135 00a4 FB7B     		ldrb	r3, [r7, #15]	@ zero_extendqisi2
 136 00a6 002B     		cmp	r3, #0
 137 00a8 03D0     		beq	.L8
 225:./Libraries/STM32F4xx_HAL_Driver/Src/stm32f4xx_hal_flash_ex.c ****         {
 226:./Libraries/STM32F4xx_HAL_Driver/Src/stm32f4xx_hal_flash_ex.c ****           /* In case of error, stop erase procedure and return the faulty sector*/
 227:./Libraries/STM32F4xx_HAL_Driver/Src/stm32f4xx_hal_flash_ex.c ****           *SectorError = index;
 138              		.loc 1 227 24
 139 00aa 3B68     		ldr	r3, [r7]
 140 00ac BA68     		ldr	r2, [r7, #8]
 141 00ae 1A60     		str	r2, [r3]
 228:./Libraries/STM32F4xx_HAL_Driver/Src/stm32f4xx_hal_flash_ex.c ****           break;
 142              		.loc 1 228 11
 143 00b0 0AE0     		b	.L6
 144              	.L8:
 214:./Libraries/STM32F4xx_HAL_Driver/Src/stm32f4xx_hal_flash_ex.c ****       {
 145              		.loc 1 214 98 discriminator 2
 146 00b2 BB68     		ldr	r3, [r7, #8]
 147 00b4 0133     		adds	r3, r3, #1
 148 00b6 BB60     		str	r3, [r7, #8]
 149              	.L7:
 214:./Libraries/STM32F4xx_HAL_Driver/Src/stm32f4xx_hal_flash_ex.c ****       {
 150              		.loc 1 214 58 discriminator 1
 151 00b8 7B68     		ldr	r3, [r7, #4]
 152 00ba DA68     		ldr	r2, [r3, #12]
 214:./Libraries/STM32F4xx_HAL_Driver/Src/stm32f4xx_hal_flash_ex.c ****       {
 153              		.loc 1 214 82 discriminator 1
 154 00bc 7B68     		ldr	r3, [r7, #4]
 155 00be 9B68     		ldr	r3, [r3, #8]
 214:./Libraries/STM32F4xx_HAL_Driver/Src/stm32f4xx_hal_flash_ex.c ****       {
 156              		.loc 1 214 70 discriminator 1
 157 00c0 1344     		add	r3, r3, r2
 214:./Libraries/STM32F4xx_HAL_Driver/Src/stm32f4xx_hal_flash_ex.c ****       {
 158              		.loc 1 214 7 discriminator 1
 159 00c2 BA68     		ldr	r2, [r7, #8]
 160 00c4 9A42     		cmp	r2, r3
 161 00c6 DAD3     		bcc	.L9
 162              	.L6:
 229:./Libraries/STM32F4xx_HAL_Driver/Src/stm32f4xx_hal_flash_ex.c ****         }
 230:./Libraries/STM32F4xx_HAL_Driver/Src/stm32f4xx_hal_flash_ex.c ****       }
 231:./Libraries/STM32F4xx_HAL_Driver/Src/stm32f4xx_hal_flash_ex.c ****     }
 232:./Libraries/STM32F4xx_HAL_Driver/Src/stm32f4xx_hal_flash_ex.c ****     /* Flush the caches to be sure of the data consistency */
 233:./Libraries/STM32F4xx_HAL_Driver/Src/stm32f4xx_hal_flash_ex.c ****     FLASH_FlushCaches();    
ARM GAS  /tmp/cc52q51R.s 			page 8


 163              		.loc 1 233 5
 164 00c8 FFF7FEFF 		bl	FLASH_FlushCaches
 165              	.L4:
 234:./Libraries/STM32F4xx_HAL_Driver/Src/stm32f4xx_hal_flash_ex.c ****   }
 235:./Libraries/STM32F4xx_HAL_Driver/Src/stm32f4xx_hal_flash_ex.c **** 
 236:./Libraries/STM32F4xx_HAL_Driver/Src/stm32f4xx_hal_flash_ex.c ****   /* Process Unlocked */
 237:./Libraries/STM32F4xx_HAL_Driver/Src/stm32f4xx_hal_flash_ex.c ****   __HAL_UNLOCK(&pFlash);
 166              		.loc 1 237 3
 167 00cc 034B     		ldr	r3, .L10
 168 00ce 0022     		movs	r2, #0
 169 00d0 1A76     		strb	r2, [r3, #24]
 238:./Libraries/STM32F4xx_HAL_Driver/Src/stm32f4xx_hal_flash_ex.c **** 
 239:./Libraries/STM32F4xx_HAL_Driver/Src/stm32f4xx_hal_flash_ex.c ****   return status;
 170              		.loc 1 239 10
 171 00d2 FB7B     		ldrb	r3, [r7, #15]	@ zero_extendqisi2
 172              	.L3:
 240:./Libraries/STM32F4xx_HAL_Driver/Src/stm32f4xx_hal_flash_ex.c **** }
 173              		.loc 1 240 1
 174 00d4 1846     		mov	r0, r3
 175 00d6 1037     		adds	r7, r7, #16
 176              	.LCFI3:
 177              		.cfi_def_cfa_offset 8
 178 00d8 BD46     		mov	sp, r7
 179              	.LCFI4:
 180              		.cfi_def_cfa_register 13
 181              		@ sp needed
 182 00da 80BD     		pop	{r7, pc}
 183              	.L11:
 184              		.align	2
 185              	.L10:
 186 00dc 00000000 		.word	pFlash
 187 00e0 003C0240 		.word	1073888256
 188              		.cfi_endproc
 189              	.LFE126:
 191              		.section	.text.HAL_FLASHEx_Erase_IT,"ax",%progbits
 192              		.align	1
 193              		.global	HAL_FLASHEx_Erase_IT
 194              		.syntax unified
 195              		.thumb
 196              		.thumb_func
 197              		.fpu fpv4-sp-d16
 199              	HAL_FLASHEx_Erase_IT:
 200              	.LFB127:
 241:./Libraries/STM32F4xx_HAL_Driver/Src/stm32f4xx_hal_flash_ex.c **** 
 242:./Libraries/STM32F4xx_HAL_Driver/Src/stm32f4xx_hal_flash_ex.c **** /**
 243:./Libraries/STM32F4xx_HAL_Driver/Src/stm32f4xx_hal_flash_ex.c ****   * @brief  Perform a mass erase or erase the specified FLASH memory sectors  with interrupt enable
 244:./Libraries/STM32F4xx_HAL_Driver/Src/stm32f4xx_hal_flash_ex.c ****   * @param  pEraseInit pointer to an FLASH_EraseInitTypeDef structure that
 245:./Libraries/STM32F4xx_HAL_Driver/Src/stm32f4xx_hal_flash_ex.c ****   *         contains the configuration information for the erasing.
 246:./Libraries/STM32F4xx_HAL_Driver/Src/stm32f4xx_hal_flash_ex.c ****   * 
 247:./Libraries/STM32F4xx_HAL_Driver/Src/stm32f4xx_hal_flash_ex.c ****   * @retval HAL Status
 248:./Libraries/STM32F4xx_HAL_Driver/Src/stm32f4xx_hal_flash_ex.c ****   */
 249:./Libraries/STM32F4xx_HAL_Driver/Src/stm32f4xx_hal_flash_ex.c **** HAL_StatusTypeDef HAL_FLASHEx_Erase_IT(FLASH_EraseInitTypeDef *pEraseInit)
 250:./Libraries/STM32F4xx_HAL_Driver/Src/stm32f4xx_hal_flash_ex.c **** {
 201              		.loc 1 250 1
 202              		.cfi_startproc
 203              		@ args = 0, pretend = 0, frame = 16
 204              		@ frame_needed = 1, uses_anonymous_args = 0
ARM GAS  /tmp/cc52q51R.s 			page 9


 205 0000 80B5     		push	{r7, lr}
 206              	.LCFI5:
 207              		.cfi_def_cfa_offset 8
 208              		.cfi_offset 7, -8
 209              		.cfi_offset 14, -4
 210 0002 84B0     		sub	sp, sp, #16
 211              	.LCFI6:
 212              		.cfi_def_cfa_offset 24
 213 0004 00AF     		add	r7, sp, #0
 214              	.LCFI7:
 215              		.cfi_def_cfa_register 7
 216 0006 7860     		str	r0, [r7, #4]
 251:./Libraries/STM32F4xx_HAL_Driver/Src/stm32f4xx_hal_flash_ex.c ****   HAL_StatusTypeDef status = HAL_OK;
 217              		.loc 1 251 21
 218 0008 0023     		movs	r3, #0
 219 000a FB73     		strb	r3, [r7, #15]
 252:./Libraries/STM32F4xx_HAL_Driver/Src/stm32f4xx_hal_flash_ex.c **** 
 253:./Libraries/STM32F4xx_HAL_Driver/Src/stm32f4xx_hal_flash_ex.c ****   /* Process Locked */
 254:./Libraries/STM32F4xx_HAL_Driver/Src/stm32f4xx_hal_flash_ex.c ****   __HAL_LOCK(&pFlash);
 220              		.loc 1 254 3
 221 000c 254B     		ldr	r3, .L17
 222 000e 1B7E     		ldrb	r3, [r3, #24]	@ zero_extendqisi2
 223 0010 012B     		cmp	r3, #1
 224 0012 01D1     		bne	.L13
 225              		.loc 1 254 3 is_stmt 0 discriminator 1
 226 0014 0223     		movs	r3, #2
 227 0016 40E0     		b	.L14
 228              	.L13:
 229              		.loc 1 254 3 discriminator 2
 230 0018 224B     		ldr	r3, .L17
 231 001a 0122     		movs	r2, #1
 232 001c 1A76     		strb	r2, [r3, #24]
 255:./Libraries/STM32F4xx_HAL_Driver/Src/stm32f4xx_hal_flash_ex.c **** 
 256:./Libraries/STM32F4xx_HAL_Driver/Src/stm32f4xx_hal_flash_ex.c ****   /* Check the parameters */
 257:./Libraries/STM32F4xx_HAL_Driver/Src/stm32f4xx_hal_flash_ex.c ****   assert_param(IS_FLASH_TYPEERASE(pEraseInit->TypeErase));
 258:./Libraries/STM32F4xx_HAL_Driver/Src/stm32f4xx_hal_flash_ex.c **** 
 259:./Libraries/STM32F4xx_HAL_Driver/Src/stm32f4xx_hal_flash_ex.c ****   /* Enable End of FLASH Operation interrupt */
 260:./Libraries/STM32F4xx_HAL_Driver/Src/stm32f4xx_hal_flash_ex.c ****   __HAL_FLASH_ENABLE_IT(FLASH_IT_EOP);
 233              		.loc 1 260 3 is_stmt 1 discriminator 2
 234 001e 224B     		ldr	r3, .L17+4
 235 0020 1B69     		ldr	r3, [r3, #16]
 236 0022 214A     		ldr	r2, .L17+4
 237 0024 43F08073 		orr	r3, r3, #16777216
 238 0028 1361     		str	r3, [r2, #16]
 261:./Libraries/STM32F4xx_HAL_Driver/Src/stm32f4xx_hal_flash_ex.c ****   
 262:./Libraries/STM32F4xx_HAL_Driver/Src/stm32f4xx_hal_flash_ex.c ****   /* Enable Error source interrupt */
 263:./Libraries/STM32F4xx_HAL_Driver/Src/stm32f4xx_hal_flash_ex.c ****   __HAL_FLASH_ENABLE_IT(FLASH_IT_ERR);
 239              		.loc 1 263 3 discriminator 2
 240 002a 1F4B     		ldr	r3, .L17+4
 241 002c 1B69     		ldr	r3, [r3, #16]
 242 002e 1E4A     		ldr	r2, .L17+4
 243 0030 43F00073 		orr	r3, r3, #33554432
 244 0034 1361     		str	r3, [r2, #16]
 264:./Libraries/STM32F4xx_HAL_Driver/Src/stm32f4xx_hal_flash_ex.c ****   
 265:./Libraries/STM32F4xx_HAL_Driver/Src/stm32f4xx_hal_flash_ex.c ****   /* Clear pending flags (if any) */  
 266:./Libraries/STM32F4xx_HAL_Driver/Src/stm32f4xx_hal_flash_ex.c ****   __HAL_FLASH_CLEAR_FLAG(FLASH_FLAG_EOP    | FLASH_FLAG_OPERR | FLASH_FLAG_WRPERR |\
 245              		.loc 1 266 3 discriminator 2
ARM GAS  /tmp/cc52q51R.s 			page 10


 246 0036 1C4B     		ldr	r3, .L17+4
 247 0038 F322     		movs	r2, #243
 248 003a DA60     		str	r2, [r3, #12]
 267:./Libraries/STM32F4xx_HAL_Driver/Src/stm32f4xx_hal_flash_ex.c ****                          FLASH_FLAG_PGAERR | FLASH_FLAG_PGPERR| FLASH_FLAG_PGSERR);  
 268:./Libraries/STM32F4xx_HAL_Driver/Src/stm32f4xx_hal_flash_ex.c ****   
 269:./Libraries/STM32F4xx_HAL_Driver/Src/stm32f4xx_hal_flash_ex.c ****   if(pEraseInit->TypeErase == FLASH_TYPEERASE_MASSERASE)
 249              		.loc 1 269 16 discriminator 2
 250 003c 7B68     		ldr	r3, [r7, #4]
 251 003e 1B68     		ldr	r3, [r3]
 252              		.loc 1 269 5 discriminator 2
 253 0040 012B     		cmp	r3, #1
 254 0042 10D1     		bne	.L15
 270:./Libraries/STM32F4xx_HAL_Driver/Src/stm32f4xx_hal_flash_ex.c ****   {
 271:./Libraries/STM32F4xx_HAL_Driver/Src/stm32f4xx_hal_flash_ex.c ****     /*Mass erase to be done*/
 272:./Libraries/STM32F4xx_HAL_Driver/Src/stm32f4xx_hal_flash_ex.c ****     pFlash.ProcedureOnGoing = FLASH_PROC_MASSERASE;
 255              		.loc 1 272 29
 256 0044 174B     		ldr	r3, .L17
 257 0046 0222     		movs	r2, #2
 258 0048 1A70     		strb	r2, [r3]
 273:./Libraries/STM32F4xx_HAL_Driver/Src/stm32f4xx_hal_flash_ex.c ****     pFlash.Bank = pEraseInit->Banks;
 259              		.loc 1 273 29
 260 004a 7B68     		ldr	r3, [r7, #4]
 261 004c 5B68     		ldr	r3, [r3, #4]
 262              		.loc 1 273 17
 263 004e 154A     		ldr	r2, .L17
 264 0050 1361     		str	r3, [r2, #16]
 274:./Libraries/STM32F4xx_HAL_Driver/Src/stm32f4xx_hal_flash_ex.c ****     FLASH_MassErase((uint8_t) pEraseInit->VoltageRange, pEraseInit->Banks);
 265              		.loc 1 274 41
 266 0052 7B68     		ldr	r3, [r7, #4]
 267 0054 1B69     		ldr	r3, [r3, #16]
 268              		.loc 1 274 5
 269 0056 DAB2     		uxtb	r2, r3
 270 0058 7B68     		ldr	r3, [r7, #4]
 271 005a 5B68     		ldr	r3, [r3, #4]
 272 005c 1946     		mov	r1, r3
 273 005e 1046     		mov	r0, r2
 274 0060 FFF7FEFF 		bl	FLASH_MassErase
 275 0064 18E0     		b	.L16
 276              	.L15:
 275:./Libraries/STM32F4xx_HAL_Driver/Src/stm32f4xx_hal_flash_ex.c ****   }
 276:./Libraries/STM32F4xx_HAL_Driver/Src/stm32f4xx_hal_flash_ex.c ****   else
 277:./Libraries/STM32F4xx_HAL_Driver/Src/stm32f4xx_hal_flash_ex.c ****   {
 278:./Libraries/STM32F4xx_HAL_Driver/Src/stm32f4xx_hal_flash_ex.c ****     /* Erase by sector to be done*/
 279:./Libraries/STM32F4xx_HAL_Driver/Src/stm32f4xx_hal_flash_ex.c **** 
 280:./Libraries/STM32F4xx_HAL_Driver/Src/stm32f4xx_hal_flash_ex.c ****     /* Check the parameters */
 281:./Libraries/STM32F4xx_HAL_Driver/Src/stm32f4xx_hal_flash_ex.c ****     assert_param(IS_FLASH_NBSECTORS(pEraseInit->NbSectors + pEraseInit->Sector));
 282:./Libraries/STM32F4xx_HAL_Driver/Src/stm32f4xx_hal_flash_ex.c **** 
 283:./Libraries/STM32F4xx_HAL_Driver/Src/stm32f4xx_hal_flash_ex.c ****     pFlash.ProcedureOnGoing = FLASH_PROC_SECTERASE;
 277              		.loc 1 283 29
 278 0066 0F4B     		ldr	r3, .L17
 279 0068 0122     		movs	r2, #1
 280 006a 1A70     		strb	r2, [r3]
 284:./Libraries/STM32F4xx_HAL_Driver/Src/stm32f4xx_hal_flash_ex.c ****     pFlash.NbSectorsToErase = pEraseInit->NbSectors;
 281              		.loc 1 284 41
 282 006c 7B68     		ldr	r3, [r7, #4]
 283 006e DB68     		ldr	r3, [r3, #12]
 284              		.loc 1 284 29
ARM GAS  /tmp/cc52q51R.s 			page 11


 285 0070 0C4A     		ldr	r2, .L17
 286 0072 5360     		str	r3, [r2, #4]
 285:./Libraries/STM32F4xx_HAL_Driver/Src/stm32f4xx_hal_flash_ex.c ****     pFlash.Sector = pEraseInit->Sector;
 287              		.loc 1 285 31
 288 0074 7B68     		ldr	r3, [r7, #4]
 289 0076 9B68     		ldr	r3, [r3, #8]
 290              		.loc 1 285 19
 291 0078 0A4A     		ldr	r2, .L17
 292 007a D360     		str	r3, [r2, #12]
 286:./Libraries/STM32F4xx_HAL_Driver/Src/stm32f4xx_hal_flash_ex.c ****     pFlash.VoltageForErase = (uint8_t)pEraseInit->VoltageRange;
 293              		.loc 1 286 49
 294 007c 7B68     		ldr	r3, [r7, #4]
 295 007e 1B69     		ldr	r3, [r3, #16]
 296              		.loc 1 286 30
 297 0080 DAB2     		uxtb	r2, r3
 298              		.loc 1 286 28
 299 0082 084B     		ldr	r3, .L17
 300 0084 1A72     		strb	r2, [r3, #8]
 287:./Libraries/STM32F4xx_HAL_Driver/Src/stm32f4xx_hal_flash_ex.c **** 
 288:./Libraries/STM32F4xx_HAL_Driver/Src/stm32f4xx_hal_flash_ex.c ****     /*Erase 1st sector and wait for IT*/
 289:./Libraries/STM32F4xx_HAL_Driver/Src/stm32f4xx_hal_flash_ex.c ****     FLASH_Erase_Sector(pEraseInit->Sector, pEraseInit->VoltageRange);
 301              		.loc 1 289 5
 302 0086 7B68     		ldr	r3, [r7, #4]
 303 0088 9A68     		ldr	r2, [r3, #8]
 304              		.loc 1 289 54
 305 008a 7B68     		ldr	r3, [r7, #4]
 306 008c 1B69     		ldr	r3, [r3, #16]
 307              		.loc 1 289 5
 308 008e DBB2     		uxtb	r3, r3
 309 0090 1946     		mov	r1, r3
 310 0092 1046     		mov	r0, r2
 311 0094 FFF7FEFF 		bl	FLASH_Erase_Sector
 312              	.L16:
 290:./Libraries/STM32F4xx_HAL_Driver/Src/stm32f4xx_hal_flash_ex.c ****   }
 291:./Libraries/STM32F4xx_HAL_Driver/Src/stm32f4xx_hal_flash_ex.c **** 
 292:./Libraries/STM32F4xx_HAL_Driver/Src/stm32f4xx_hal_flash_ex.c ****   return status;
 313              		.loc 1 292 10
 314 0098 FB7B     		ldrb	r3, [r7, #15]	@ zero_extendqisi2
 315              	.L14:
 293:./Libraries/STM32F4xx_HAL_Driver/Src/stm32f4xx_hal_flash_ex.c **** }
 316              		.loc 1 293 1
 317 009a 1846     		mov	r0, r3
 318 009c 1037     		adds	r7, r7, #16
 319              	.LCFI8:
 320              		.cfi_def_cfa_offset 8
 321 009e BD46     		mov	sp, r7
 322              	.LCFI9:
 323              		.cfi_def_cfa_register 13
 324              		@ sp needed
 325 00a0 80BD     		pop	{r7, pc}
 326              	.L18:
 327 00a2 00BF     		.align	2
 328              	.L17:
 329 00a4 00000000 		.word	pFlash
 330 00a8 003C0240 		.word	1073888256
 331              		.cfi_endproc
 332              	.LFE127:
ARM GAS  /tmp/cc52q51R.s 			page 12


 334              		.section	.text.HAL_FLASHEx_OBProgram,"ax",%progbits
 335              		.align	1
 336              		.global	HAL_FLASHEx_OBProgram
 337              		.syntax unified
 338              		.thumb
 339              		.thumb_func
 340              		.fpu fpv4-sp-d16
 342              	HAL_FLASHEx_OBProgram:
 343              	.LFB128:
 294:./Libraries/STM32F4xx_HAL_Driver/Src/stm32f4xx_hal_flash_ex.c **** 
 295:./Libraries/STM32F4xx_HAL_Driver/Src/stm32f4xx_hal_flash_ex.c **** /**
 296:./Libraries/STM32F4xx_HAL_Driver/Src/stm32f4xx_hal_flash_ex.c ****   * @brief   Program option bytes
 297:./Libraries/STM32F4xx_HAL_Driver/Src/stm32f4xx_hal_flash_ex.c ****   * @param  pOBInit pointer to an FLASH_OBInitStruct structure that
 298:./Libraries/STM32F4xx_HAL_Driver/Src/stm32f4xx_hal_flash_ex.c ****   *         contains the configuration information for the programming.
 299:./Libraries/STM32F4xx_HAL_Driver/Src/stm32f4xx_hal_flash_ex.c ****   * 
 300:./Libraries/STM32F4xx_HAL_Driver/Src/stm32f4xx_hal_flash_ex.c ****   * @retval HAL Status
 301:./Libraries/STM32F4xx_HAL_Driver/Src/stm32f4xx_hal_flash_ex.c ****   */
 302:./Libraries/STM32F4xx_HAL_Driver/Src/stm32f4xx_hal_flash_ex.c **** HAL_StatusTypeDef HAL_FLASHEx_OBProgram(FLASH_OBProgramInitTypeDef *pOBInit)
 303:./Libraries/STM32F4xx_HAL_Driver/Src/stm32f4xx_hal_flash_ex.c **** {
 344              		.loc 1 303 1
 345              		.cfi_startproc
 346              		@ args = 0, pretend = 0, frame = 16
 347              		@ frame_needed = 1, uses_anonymous_args = 0
 348 0000 80B5     		push	{r7, lr}
 349              	.LCFI10:
 350              		.cfi_def_cfa_offset 8
 351              		.cfi_offset 7, -8
 352              		.cfi_offset 14, -4
 353 0002 84B0     		sub	sp, sp, #16
 354              	.LCFI11:
 355              		.cfi_def_cfa_offset 24
 356 0004 00AF     		add	r7, sp, #0
 357              	.LCFI12:
 358              		.cfi_def_cfa_register 7
 359 0006 7860     		str	r0, [r7, #4]
 304:./Libraries/STM32F4xx_HAL_Driver/Src/stm32f4xx_hal_flash_ex.c ****   HAL_StatusTypeDef status = HAL_ERROR;
 360              		.loc 1 304 21
 361 0008 0123     		movs	r3, #1
 362 000a FB73     		strb	r3, [r7, #15]
 305:./Libraries/STM32F4xx_HAL_Driver/Src/stm32f4xx_hal_flash_ex.c ****   
 306:./Libraries/STM32F4xx_HAL_Driver/Src/stm32f4xx_hal_flash_ex.c ****   /* Process Locked */
 307:./Libraries/STM32F4xx_HAL_Driver/Src/stm32f4xx_hal_flash_ex.c ****   __HAL_LOCK(&pFlash);
 363              		.loc 1 307 3
 364 000c 324B     		ldr	r3, .L27
 365 000e 1B7E     		ldrb	r3, [r3, #24]	@ zero_extendqisi2
 366 0010 012B     		cmp	r3, #1
 367 0012 01D1     		bne	.L20
 368              		.loc 1 307 3 is_stmt 0 discriminator 1
 369 0014 0223     		movs	r3, #2
 370 0016 5BE0     		b	.L21
 371              	.L20:
 372              		.loc 1 307 3 discriminator 2
 373 0018 2F4B     		ldr	r3, .L27
 374 001a 0122     		movs	r2, #1
 375 001c 1A76     		strb	r2, [r3, #24]
 308:./Libraries/STM32F4xx_HAL_Driver/Src/stm32f4xx_hal_flash_ex.c **** 
 309:./Libraries/STM32F4xx_HAL_Driver/Src/stm32f4xx_hal_flash_ex.c ****   /* Check the parameters */
ARM GAS  /tmp/cc52q51R.s 			page 13


 310:./Libraries/STM32F4xx_HAL_Driver/Src/stm32f4xx_hal_flash_ex.c ****   assert_param(IS_OPTIONBYTE(pOBInit->OptionType));
 311:./Libraries/STM32F4xx_HAL_Driver/Src/stm32f4xx_hal_flash_ex.c **** 
 312:./Libraries/STM32F4xx_HAL_Driver/Src/stm32f4xx_hal_flash_ex.c ****   /*Write protection configuration*/
 313:./Libraries/STM32F4xx_HAL_Driver/Src/stm32f4xx_hal_flash_ex.c ****   if((pOBInit->OptionType & OPTIONBYTE_WRP) == OPTIONBYTE_WRP)
 376              		.loc 1 313 14 is_stmt 1 discriminator 2
 377 001e 7B68     		ldr	r3, [r7, #4]
 378 0020 1B68     		ldr	r3, [r3]
 379              		.loc 1 313 27 discriminator 2
 380 0022 03F00103 		and	r3, r3, #1
 381              		.loc 1 313 5 discriminator 2
 382 0026 002B     		cmp	r3, #0
 383 0028 18D0     		beq	.L22
 314:./Libraries/STM32F4xx_HAL_Driver/Src/stm32f4xx_hal_flash_ex.c ****   {
 315:./Libraries/STM32F4xx_HAL_Driver/Src/stm32f4xx_hal_flash_ex.c ****     assert_param(IS_WRPSTATE(pOBInit->WRPState));
 316:./Libraries/STM32F4xx_HAL_Driver/Src/stm32f4xx_hal_flash_ex.c ****     if(pOBInit->WRPState == OB_WRPSTATE_ENABLE)
 384              		.loc 1 316 15
 385 002a 7B68     		ldr	r3, [r7, #4]
 386 002c 5B68     		ldr	r3, [r3, #4]
 387              		.loc 1 316 7
 388 002e 012B     		cmp	r3, #1
 389 0030 0AD1     		bne	.L23
 317:./Libraries/STM32F4xx_HAL_Driver/Src/stm32f4xx_hal_flash_ex.c ****     {
 318:./Libraries/STM32F4xx_HAL_Driver/Src/stm32f4xx_hal_flash_ex.c ****       /*Enable of Write protection on the selected Sector*/
 319:./Libraries/STM32F4xx_HAL_Driver/Src/stm32f4xx_hal_flash_ex.c ****       status = FLASH_OB_EnableWRP(pOBInit->WRPSector, pOBInit->Banks);
 390              		.loc 1 319 16
 391 0032 7B68     		ldr	r3, [r7, #4]
 392 0034 9A68     		ldr	r2, [r3, #8]
 393 0036 7B68     		ldr	r3, [r7, #4]
 394 0038 DB68     		ldr	r3, [r3, #12]
 395 003a 1946     		mov	r1, r3
 396 003c 1046     		mov	r0, r2
 397 003e FFF7FEFF 		bl	FLASH_OB_EnableWRP
 398 0042 0346     		mov	r3, r0
 399 0044 FB73     		strb	r3, [r7, #15]
 400 0046 09E0     		b	.L22
 401              	.L23:
 320:./Libraries/STM32F4xx_HAL_Driver/Src/stm32f4xx_hal_flash_ex.c ****     }
 321:./Libraries/STM32F4xx_HAL_Driver/Src/stm32f4xx_hal_flash_ex.c ****     else
 322:./Libraries/STM32F4xx_HAL_Driver/Src/stm32f4xx_hal_flash_ex.c ****     {
 323:./Libraries/STM32F4xx_HAL_Driver/Src/stm32f4xx_hal_flash_ex.c ****       /*Disable of Write protection on the selected Sector*/
 324:./Libraries/STM32F4xx_HAL_Driver/Src/stm32f4xx_hal_flash_ex.c ****       status = FLASH_OB_DisableWRP(pOBInit->WRPSector, pOBInit->Banks);
 402              		.loc 1 324 16
 403 0048 7B68     		ldr	r3, [r7, #4]
 404 004a 9A68     		ldr	r2, [r3, #8]
 405 004c 7B68     		ldr	r3, [r7, #4]
 406 004e DB68     		ldr	r3, [r3, #12]
 407 0050 1946     		mov	r1, r3
 408 0052 1046     		mov	r0, r2
 409 0054 FFF7FEFF 		bl	FLASH_OB_DisableWRP
 410 0058 0346     		mov	r3, r0
 411 005a FB73     		strb	r3, [r7, #15]
 412              	.L22:
 325:./Libraries/STM32F4xx_HAL_Driver/Src/stm32f4xx_hal_flash_ex.c ****     }
 326:./Libraries/STM32F4xx_HAL_Driver/Src/stm32f4xx_hal_flash_ex.c ****   }
 327:./Libraries/STM32F4xx_HAL_Driver/Src/stm32f4xx_hal_flash_ex.c **** 
 328:./Libraries/STM32F4xx_HAL_Driver/Src/stm32f4xx_hal_flash_ex.c ****   /*Read protection configuration*/
 329:./Libraries/STM32F4xx_HAL_Driver/Src/stm32f4xx_hal_flash_ex.c ****   if((pOBInit->OptionType & OPTIONBYTE_RDP) == OPTIONBYTE_RDP)
ARM GAS  /tmp/cc52q51R.s 			page 14


 413              		.loc 1 329 14
 414 005c 7B68     		ldr	r3, [r7, #4]
 415 005e 1B68     		ldr	r3, [r3]
 416              		.loc 1 329 27
 417 0060 03F00203 		and	r3, r3, #2
 418              		.loc 1 329 5
 419 0064 002B     		cmp	r3, #0
 420 0066 07D0     		beq	.L24
 330:./Libraries/STM32F4xx_HAL_Driver/Src/stm32f4xx_hal_flash_ex.c ****   {
 331:./Libraries/STM32F4xx_HAL_Driver/Src/stm32f4xx_hal_flash_ex.c ****     status = FLASH_OB_RDP_LevelConfig(pOBInit->RDPLevel);
 421              		.loc 1 331 46
 422 0068 7B68     		ldr	r3, [r7, #4]
 423 006a 1B69     		ldr	r3, [r3, #16]
 424              		.loc 1 331 14
 425 006c DBB2     		uxtb	r3, r3
 426 006e 1846     		mov	r0, r3
 427 0070 FFF7FEFF 		bl	FLASH_OB_RDP_LevelConfig
 428 0074 0346     		mov	r3, r0
 429 0076 FB73     		strb	r3, [r7, #15]
 430              	.L24:
 332:./Libraries/STM32F4xx_HAL_Driver/Src/stm32f4xx_hal_flash_ex.c ****   }
 333:./Libraries/STM32F4xx_HAL_Driver/Src/stm32f4xx_hal_flash_ex.c **** 
 334:./Libraries/STM32F4xx_HAL_Driver/Src/stm32f4xx_hal_flash_ex.c ****   /*USER  configuration*/
 335:./Libraries/STM32F4xx_HAL_Driver/Src/stm32f4xx_hal_flash_ex.c ****   if((pOBInit->OptionType & OPTIONBYTE_USER) == OPTIONBYTE_USER)
 431              		.loc 1 335 14
 432 0078 7B68     		ldr	r3, [r7, #4]
 433 007a 1B68     		ldr	r3, [r3]
 434              		.loc 1 335 27
 435 007c 03F00403 		and	r3, r3, #4
 436              		.loc 1 335 5
 437 0080 002B     		cmp	r3, #0
 438 0082 13D0     		beq	.L25
 336:./Libraries/STM32F4xx_HAL_Driver/Src/stm32f4xx_hal_flash_ex.c ****   {
 337:./Libraries/STM32F4xx_HAL_Driver/Src/stm32f4xx_hal_flash_ex.c ****     status = FLASH_OB_UserConfig(pOBInit->USERConfig&OB_IWDG_SW, 
 439              		.loc 1 337 41
 440 0084 7B68     		ldr	r3, [r7, #4]
 441 0086 1B7E     		ldrb	r3, [r3, #24]	@ zero_extendqisi2
 442              		.loc 1 337 14
 443 0088 03F02003 		and	r3, r3, #32
 444 008c D8B2     		uxtb	r0, r3
 338:./Libraries/STM32F4xx_HAL_Driver/Src/stm32f4xx_hal_flash_ex.c ****                                      pOBInit->USERConfig&OB_STOP_NO_RST,
 445              		.loc 1 338 45
 446 008e 7B68     		ldr	r3, [r7, #4]
 447 0090 1B7E     		ldrb	r3, [r3, #24]	@ zero_extendqisi2
 337:./Libraries/STM32F4xx_HAL_Driver/Src/stm32f4xx_hal_flash_ex.c ****                                      pOBInit->USERConfig&OB_STOP_NO_RST,
 448              		.loc 1 337 14
 449 0092 03F04003 		and	r3, r3, #64
 450 0096 D9B2     		uxtb	r1, r3
 339:./Libraries/STM32F4xx_HAL_Driver/Src/stm32f4xx_hal_flash_ex.c ****                                      pOBInit->USERConfig&OB_STDBY_NO_RST);
 451              		.loc 1 339 45
 452 0098 7B68     		ldr	r3, [r7, #4]
 453 009a 1B7E     		ldrb	r3, [r3, #24]	@ zero_extendqisi2
 337:./Libraries/STM32F4xx_HAL_Driver/Src/stm32f4xx_hal_flash_ex.c ****                                      pOBInit->USERConfig&OB_STOP_NO_RST,
 454              		.loc 1 337 14
 455 009c 23F07F03 		bic	r3, r3, #127
 456 00a0 DBB2     		uxtb	r3, r3
 457 00a2 1A46     		mov	r2, r3
ARM GAS  /tmp/cc52q51R.s 			page 15


 458 00a4 FFF7FEFF 		bl	FLASH_OB_UserConfig
 459 00a8 0346     		mov	r3, r0
 460 00aa FB73     		strb	r3, [r7, #15]
 461              	.L25:
 340:./Libraries/STM32F4xx_HAL_Driver/Src/stm32f4xx_hal_flash_ex.c ****   }
 341:./Libraries/STM32F4xx_HAL_Driver/Src/stm32f4xx_hal_flash_ex.c **** 
 342:./Libraries/STM32F4xx_HAL_Driver/Src/stm32f4xx_hal_flash_ex.c ****   /*BOR Level  configuration*/
 343:./Libraries/STM32F4xx_HAL_Driver/Src/stm32f4xx_hal_flash_ex.c ****   if((pOBInit->OptionType & OPTIONBYTE_BOR) == OPTIONBYTE_BOR)
 462              		.loc 1 343 14
 463 00ac 7B68     		ldr	r3, [r7, #4]
 464 00ae 1B68     		ldr	r3, [r3]
 465              		.loc 1 343 27
 466 00b0 03F00803 		and	r3, r3, #8
 467              		.loc 1 343 5
 468 00b4 002B     		cmp	r3, #0
 469 00b6 07D0     		beq	.L26
 344:./Libraries/STM32F4xx_HAL_Driver/Src/stm32f4xx_hal_flash_ex.c ****   {
 345:./Libraries/STM32F4xx_HAL_Driver/Src/stm32f4xx_hal_flash_ex.c ****     status = FLASH_OB_BOR_LevelConfig(pOBInit->BORLevel);
 470              		.loc 1 345 46
 471 00b8 7B68     		ldr	r3, [r7, #4]
 472 00ba 5B69     		ldr	r3, [r3, #20]
 473              		.loc 1 345 14
 474 00bc DBB2     		uxtb	r3, r3
 475 00be 1846     		mov	r0, r3
 476 00c0 FFF7FEFF 		bl	FLASH_OB_BOR_LevelConfig
 477 00c4 0346     		mov	r3, r0
 478 00c6 FB73     		strb	r3, [r7, #15]
 479              	.L26:
 346:./Libraries/STM32F4xx_HAL_Driver/Src/stm32f4xx_hal_flash_ex.c ****   }
 347:./Libraries/STM32F4xx_HAL_Driver/Src/stm32f4xx_hal_flash_ex.c **** 
 348:./Libraries/STM32F4xx_HAL_Driver/Src/stm32f4xx_hal_flash_ex.c ****   /* Process Unlocked */
 349:./Libraries/STM32F4xx_HAL_Driver/Src/stm32f4xx_hal_flash_ex.c ****   __HAL_UNLOCK(&pFlash);
 480              		.loc 1 349 3
 481 00c8 034B     		ldr	r3, .L27
 482 00ca 0022     		movs	r2, #0
 483 00cc 1A76     		strb	r2, [r3, #24]
 350:./Libraries/STM32F4xx_HAL_Driver/Src/stm32f4xx_hal_flash_ex.c **** 
 351:./Libraries/STM32F4xx_HAL_Driver/Src/stm32f4xx_hal_flash_ex.c ****   return status;
 484              		.loc 1 351 10
 485 00ce FB7B     		ldrb	r3, [r7, #15]	@ zero_extendqisi2
 486              	.L21:
 352:./Libraries/STM32F4xx_HAL_Driver/Src/stm32f4xx_hal_flash_ex.c **** }
 487              		.loc 1 352 1
 488 00d0 1846     		mov	r0, r3
 489 00d2 1037     		adds	r7, r7, #16
 490              	.LCFI13:
 491              		.cfi_def_cfa_offset 8
 492 00d4 BD46     		mov	sp, r7
 493              	.LCFI14:
 494              		.cfi_def_cfa_register 13
 495              		@ sp needed
 496 00d6 80BD     		pop	{r7, pc}
 497              	.L28:
 498              		.align	2
 499              	.L27:
 500 00d8 00000000 		.word	pFlash
 501              		.cfi_endproc
ARM GAS  /tmp/cc52q51R.s 			page 16


 502              	.LFE128:
 504              		.section	.text.HAL_FLASHEx_OBGetConfig,"ax",%progbits
 505              		.align	1
 506              		.global	HAL_FLASHEx_OBGetConfig
 507              		.syntax unified
 508              		.thumb
 509              		.thumb_func
 510              		.fpu fpv4-sp-d16
 512              	HAL_FLASHEx_OBGetConfig:
 513              	.LFB129:
 353:./Libraries/STM32F4xx_HAL_Driver/Src/stm32f4xx_hal_flash_ex.c **** 
 354:./Libraries/STM32F4xx_HAL_Driver/Src/stm32f4xx_hal_flash_ex.c **** /**
 355:./Libraries/STM32F4xx_HAL_Driver/Src/stm32f4xx_hal_flash_ex.c ****   * @brief   Get the Option byte configuration
 356:./Libraries/STM32F4xx_HAL_Driver/Src/stm32f4xx_hal_flash_ex.c ****   * @param  pOBInit pointer to an FLASH_OBInitStruct structure that
 357:./Libraries/STM32F4xx_HAL_Driver/Src/stm32f4xx_hal_flash_ex.c ****   *         contains the configuration information for the programming.
 358:./Libraries/STM32F4xx_HAL_Driver/Src/stm32f4xx_hal_flash_ex.c ****   * 
 359:./Libraries/STM32F4xx_HAL_Driver/Src/stm32f4xx_hal_flash_ex.c ****   * @retval None
 360:./Libraries/STM32F4xx_HAL_Driver/Src/stm32f4xx_hal_flash_ex.c ****   */
 361:./Libraries/STM32F4xx_HAL_Driver/Src/stm32f4xx_hal_flash_ex.c **** void HAL_FLASHEx_OBGetConfig(FLASH_OBProgramInitTypeDef *pOBInit)
 362:./Libraries/STM32F4xx_HAL_Driver/Src/stm32f4xx_hal_flash_ex.c **** {
 514              		.loc 1 362 1
 515              		.cfi_startproc
 516              		@ args = 0, pretend = 0, frame = 8
 517              		@ frame_needed = 1, uses_anonymous_args = 0
 518 0000 80B5     		push	{r7, lr}
 519              	.LCFI15:
 520              		.cfi_def_cfa_offset 8
 521              		.cfi_offset 7, -8
 522              		.cfi_offset 14, -4
 523 0002 82B0     		sub	sp, sp, #8
 524              	.LCFI16:
 525              		.cfi_def_cfa_offset 16
 526 0004 00AF     		add	r7, sp, #0
 527              	.LCFI17:
 528              		.cfi_def_cfa_register 7
 529 0006 7860     		str	r0, [r7, #4]
 363:./Libraries/STM32F4xx_HAL_Driver/Src/stm32f4xx_hal_flash_ex.c ****   pOBInit->OptionType = OPTIONBYTE_WRP | OPTIONBYTE_RDP | OPTIONBYTE_USER | OPTIONBYTE_BOR;
 530              		.loc 1 363 23
 531 0008 7B68     		ldr	r3, [r7, #4]
 532 000a 0F22     		movs	r2, #15
 533 000c 1A60     		str	r2, [r3]
 364:./Libraries/STM32F4xx_HAL_Driver/Src/stm32f4xx_hal_flash_ex.c **** 
 365:./Libraries/STM32F4xx_HAL_Driver/Src/stm32f4xx_hal_flash_ex.c ****   /*Get WRP*/
 366:./Libraries/STM32F4xx_HAL_Driver/Src/stm32f4xx_hal_flash_ex.c ****   pOBInit->WRPSector = (uint32_t)FLASH_OB_GetWRP();
 534              		.loc 1 366 34
 535 000e FFF7FEFF 		bl	FLASH_OB_GetWRP
 536 0012 0346     		mov	r3, r0
 537              		.loc 1 366 24
 538 0014 1A46     		mov	r2, r3
 539              		.loc 1 366 22
 540 0016 7B68     		ldr	r3, [r7, #4]
 541 0018 9A60     		str	r2, [r3, #8]
 367:./Libraries/STM32F4xx_HAL_Driver/Src/stm32f4xx_hal_flash_ex.c **** 
 368:./Libraries/STM32F4xx_HAL_Driver/Src/stm32f4xx_hal_flash_ex.c ****   /*Get RDP Level*/
 369:./Libraries/STM32F4xx_HAL_Driver/Src/stm32f4xx_hal_flash_ex.c ****   pOBInit->RDPLevel = (uint32_t)FLASH_OB_GetRDP();
 542              		.loc 1 369 33
 543 001a FFF7FEFF 		bl	FLASH_OB_GetRDP
ARM GAS  /tmp/cc52q51R.s 			page 17


 544 001e 0346     		mov	r3, r0
 545              		.loc 1 369 23
 546 0020 1A46     		mov	r2, r3
 547              		.loc 1 369 21
 548 0022 7B68     		ldr	r3, [r7, #4]
 549 0024 1A61     		str	r2, [r3, #16]
 370:./Libraries/STM32F4xx_HAL_Driver/Src/stm32f4xx_hal_flash_ex.c **** 
 371:./Libraries/STM32F4xx_HAL_Driver/Src/stm32f4xx_hal_flash_ex.c ****   /*Get USER*/
 372:./Libraries/STM32F4xx_HAL_Driver/Src/stm32f4xx_hal_flash_ex.c ****   pOBInit->USERConfig = (uint8_t)FLASH_OB_GetUser();
 550              		.loc 1 372 34
 551 0026 FFF7FEFF 		bl	FLASH_OB_GetUser
 552 002a 0346     		mov	r3, r0
 553 002c 1A46     		mov	r2, r3
 554              		.loc 1 372 23
 555 002e 7B68     		ldr	r3, [r7, #4]
 556 0030 1A76     		strb	r2, [r3, #24]
 373:./Libraries/STM32F4xx_HAL_Driver/Src/stm32f4xx_hal_flash_ex.c **** 
 374:./Libraries/STM32F4xx_HAL_Driver/Src/stm32f4xx_hal_flash_ex.c ****   /*Get BOR Level*/
 375:./Libraries/STM32F4xx_HAL_Driver/Src/stm32f4xx_hal_flash_ex.c ****   pOBInit->BORLevel = (uint32_t)FLASH_OB_GetBOR();
 557              		.loc 1 375 33
 558 0032 FFF7FEFF 		bl	FLASH_OB_GetBOR
 559 0036 0346     		mov	r3, r0
 560              		.loc 1 375 23
 561 0038 1A46     		mov	r2, r3
 562              		.loc 1 375 21
 563 003a 7B68     		ldr	r3, [r7, #4]
 564 003c 5A61     		str	r2, [r3, #20]
 376:./Libraries/STM32F4xx_HAL_Driver/Src/stm32f4xx_hal_flash_ex.c **** }
 565              		.loc 1 376 1
 566 003e 00BF     		nop
 567 0040 0837     		adds	r7, r7, #8
 568              	.LCFI18:
 569              		.cfi_def_cfa_offset 8
 570 0042 BD46     		mov	sp, r7
 571              	.LCFI19:
 572              		.cfi_def_cfa_register 13
 573              		@ sp needed
 574 0044 80BD     		pop	{r7, pc}
 575              		.cfi_endproc
 576              	.LFE129:
 578              		.section	.text.HAL_FLASHEx_AdvOBProgram,"ax",%progbits
 579              		.align	1
 580              		.global	HAL_FLASHEx_AdvOBProgram
 581              		.syntax unified
 582              		.thumb
 583              		.thumb_func
 584              		.fpu fpv4-sp-d16
 586              	HAL_FLASHEx_AdvOBProgram:
 587              	.LFB130:
 377:./Libraries/STM32F4xx_HAL_Driver/Src/stm32f4xx_hal_flash_ex.c **** 
 378:./Libraries/STM32F4xx_HAL_Driver/Src/stm32f4xx_hal_flash_ex.c **** #if defined(STM32F427xx) || defined(STM32F437xx) || defined(STM32F429xx) || defined(STM32F439xx) ||
 379:./Libraries/STM32F4xx_HAL_Driver/Src/stm32f4xx_hal_flash_ex.c ****     defined(STM32F401xC) || defined(STM32F401xE) || defined(STM32F410Tx) || defined(STM32F410Cx) ||
 380:./Libraries/STM32F4xx_HAL_Driver/Src/stm32f4xx_hal_flash_ex.c ****     defined(STM32F410Rx) || defined(STM32F411xE) || defined(STM32F446xx) || defined(STM32F469xx) ||
 381:./Libraries/STM32F4xx_HAL_Driver/Src/stm32f4xx_hal_flash_ex.c ****     defined(STM32F479xx) || defined(STM32F412Zx) || defined(STM32F412Vx) || defined(STM32F412Rx) ||
 382:./Libraries/STM32F4xx_HAL_Driver/Src/stm32f4xx_hal_flash_ex.c ****     defined(STM32F412Cx) || defined(STM32F413xx) || defined(STM32F423xx)
 383:./Libraries/STM32F4xx_HAL_Driver/Src/stm32f4xx_hal_flash_ex.c **** /**
 384:./Libraries/STM32F4xx_HAL_Driver/Src/stm32f4xx_hal_flash_ex.c ****   * @brief   Program option bytes
ARM GAS  /tmp/cc52q51R.s 			page 18


 385:./Libraries/STM32F4xx_HAL_Driver/Src/stm32f4xx_hal_flash_ex.c ****   * @param  pAdvOBInit pointer to an FLASH_AdvOBProgramInitTypeDef structure that
 386:./Libraries/STM32F4xx_HAL_Driver/Src/stm32f4xx_hal_flash_ex.c ****   *         contains the configuration information for the programming.
 387:./Libraries/STM32F4xx_HAL_Driver/Src/stm32f4xx_hal_flash_ex.c ****   * 
 388:./Libraries/STM32F4xx_HAL_Driver/Src/stm32f4xx_hal_flash_ex.c ****   * @retval HAL Status
 389:./Libraries/STM32F4xx_HAL_Driver/Src/stm32f4xx_hal_flash_ex.c ****   */
 390:./Libraries/STM32F4xx_HAL_Driver/Src/stm32f4xx_hal_flash_ex.c **** HAL_StatusTypeDef HAL_FLASHEx_AdvOBProgram (FLASH_AdvOBProgramInitTypeDef *pAdvOBInit)
 391:./Libraries/STM32F4xx_HAL_Driver/Src/stm32f4xx_hal_flash_ex.c **** {
 588              		.loc 1 391 1
 589              		.cfi_startproc
 590              		@ args = 0, pretend = 0, frame = 16
 591              		@ frame_needed = 1, uses_anonymous_args = 0
 592 0000 80B5     		push	{r7, lr}
 593              	.LCFI20:
 594              		.cfi_def_cfa_offset 8
 595              		.cfi_offset 7, -8
 596              		.cfi_offset 14, -4
 597 0002 84B0     		sub	sp, sp, #16
 598              	.LCFI21:
 599              		.cfi_def_cfa_offset 24
 600 0004 00AF     		add	r7, sp, #0
 601              	.LCFI22:
 602              		.cfi_def_cfa_register 7
 603 0006 7860     		str	r0, [r7, #4]
 392:./Libraries/STM32F4xx_HAL_Driver/Src/stm32f4xx_hal_flash_ex.c ****   HAL_StatusTypeDef status = HAL_ERROR;
 604              		.loc 1 392 21
 605 0008 0123     		movs	r3, #1
 606 000a FB73     		strb	r3, [r7, #15]
 393:./Libraries/STM32F4xx_HAL_Driver/Src/stm32f4xx_hal_flash_ex.c ****   
 394:./Libraries/STM32F4xx_HAL_Driver/Src/stm32f4xx_hal_flash_ex.c ****   /* Check the parameters */
 395:./Libraries/STM32F4xx_HAL_Driver/Src/stm32f4xx_hal_flash_ex.c ****   assert_param(IS_OBEX(pAdvOBInit->OptionType));
 396:./Libraries/STM32F4xx_HAL_Driver/Src/stm32f4xx_hal_flash_ex.c **** 
 397:./Libraries/STM32F4xx_HAL_Driver/Src/stm32f4xx_hal_flash_ex.c ****   /*Program PCROP option byte*/
 398:./Libraries/STM32F4xx_HAL_Driver/Src/stm32f4xx_hal_flash_ex.c ****   if(((pAdvOBInit->OptionType) & OPTIONBYTE_PCROP) == OPTIONBYTE_PCROP)
 607              		.loc 1 398 18
 608 000c 7B68     		ldr	r3, [r7, #4]
 609 000e 1B68     		ldr	r3, [r3]
 610              		.loc 1 398 32
 611 0010 03F00103 		and	r3, r3, #1
 612              		.loc 1 398 5
 613 0014 002B     		cmp	r3, #0
 614 0016 1ED0     		beq	.L31
 399:./Libraries/STM32F4xx_HAL_Driver/Src/stm32f4xx_hal_flash_ex.c ****   {
 400:./Libraries/STM32F4xx_HAL_Driver/Src/stm32f4xx_hal_flash_ex.c ****     /* Check the parameters */
 401:./Libraries/STM32F4xx_HAL_Driver/Src/stm32f4xx_hal_flash_ex.c ****     assert_param(IS_PCROPSTATE(pAdvOBInit->PCROPState));
 402:./Libraries/STM32F4xx_HAL_Driver/Src/stm32f4xx_hal_flash_ex.c ****     if((pAdvOBInit->PCROPState) == OB_PCROP_STATE_ENABLE)
 615              		.loc 1 402 19
 616 0018 7B68     		ldr	r3, [r7, #4]
 617 001a 5B68     		ldr	r3, [r3, #4]
 618              		.loc 1 402 7
 619 001c 012B     		cmp	r3, #1
 620 001e 0DD1     		bne	.L32
 403:./Libraries/STM32F4xx_HAL_Driver/Src/stm32f4xx_hal_flash_ex.c ****     {
 404:./Libraries/STM32F4xx_HAL_Driver/Src/stm32f4xx_hal_flash_ex.c ****       /*Enable of Write protection on the selected Sector*/
 405:./Libraries/STM32F4xx_HAL_Driver/Src/stm32f4xx_hal_flash_ex.c **** #if defined(STM32F401xC) || defined(STM32F401xE) || defined(STM32F410Tx) || defined(STM32F410Cx) ||
 406:./Libraries/STM32F4xx_HAL_Driver/Src/stm32f4xx_hal_flash_ex.c ****     defined(STM32F411xE) || defined(STM32F446xx) || defined(STM32F412Zx) || defined(STM32F412Vx) ||
 407:./Libraries/STM32F4xx_HAL_Driver/Src/stm32f4xx_hal_flash_ex.c ****     defined(STM32F412Cx) || defined(STM32F413xx) || defined(STM32F423xx)
 408:./Libraries/STM32F4xx_HAL_Driver/Src/stm32f4xx_hal_flash_ex.c ****       status = FLASH_OB_EnablePCROP(pAdvOBInit->Sectors);
ARM GAS  /tmp/cc52q51R.s 			page 19


 409:./Libraries/STM32F4xx_HAL_Driver/Src/stm32f4xx_hal_flash_ex.c **** #else  /* STM32F427xx || STM32F437xx || STM32F429xx|| STM32F439xx || STM32F469xx || STM32F479xx */
 410:./Libraries/STM32F4xx_HAL_Driver/Src/stm32f4xx_hal_flash_ex.c ****       status = FLASH_OB_EnablePCROP(pAdvOBInit->SectorsBank1, pAdvOBInit->SectorsBank2, pAdvOBInit-
 621              		.loc 1 410 47
 622 0020 7B68     		ldr	r3, [r7, #4]
 623 0022 9B89     		ldrh	r3, [r3, #12]
 624              		.loc 1 410 16
 625 0024 1846     		mov	r0, r3
 626              		.loc 1 410 73
 627 0026 7B68     		ldr	r3, [r7, #4]
 628 0028 DB89     		ldrh	r3, [r3, #14]
 629              		.loc 1 410 16
 630 002a 1946     		mov	r1, r3
 631 002c 7B68     		ldr	r3, [r7, #4]
 632 002e 9B68     		ldr	r3, [r3, #8]
 633 0030 1A46     		mov	r2, r3
 634 0032 FFF7FEFF 		bl	FLASH_OB_EnablePCROP
 635 0036 0346     		mov	r3, r0
 636 0038 FB73     		strb	r3, [r7, #15]
 637 003a 0CE0     		b	.L31
 638              	.L32:
 411:./Libraries/STM32F4xx_HAL_Driver/Src/stm32f4xx_hal_flash_ex.c **** #endif /* STM32F401xC || STM32F401xE || STM32F410xx || STM32F411xE || STM32F446xx || STM32F412Zx ||
 412:./Libraries/STM32F4xx_HAL_Driver/Src/stm32f4xx_hal_flash_ex.c ****           STM32F413xx || STM32F423xx */
 413:./Libraries/STM32F4xx_HAL_Driver/Src/stm32f4xx_hal_flash_ex.c ****     }
 414:./Libraries/STM32F4xx_HAL_Driver/Src/stm32f4xx_hal_flash_ex.c ****     else
 415:./Libraries/STM32F4xx_HAL_Driver/Src/stm32f4xx_hal_flash_ex.c ****     {
 416:./Libraries/STM32F4xx_HAL_Driver/Src/stm32f4xx_hal_flash_ex.c ****       /*Disable of Write protection on the selected Sector*/
 417:./Libraries/STM32F4xx_HAL_Driver/Src/stm32f4xx_hal_flash_ex.c **** #if defined(STM32F401xC) || defined(STM32F401xE) || defined(STM32F410Tx) || defined(STM32F410Cx) ||
 418:./Libraries/STM32F4xx_HAL_Driver/Src/stm32f4xx_hal_flash_ex.c ****     defined(STM32F411xE) || defined(STM32F446xx) || defined(STM32F412Zx) || defined(STM32F412Vx) ||
 419:./Libraries/STM32F4xx_HAL_Driver/Src/stm32f4xx_hal_flash_ex.c ****     defined(STM32F412Cx) || defined(STM32F413xx) || defined(STM32F423xx)
 420:./Libraries/STM32F4xx_HAL_Driver/Src/stm32f4xx_hal_flash_ex.c ****       status = FLASH_OB_DisablePCROP(pAdvOBInit->Sectors);
 421:./Libraries/STM32F4xx_HAL_Driver/Src/stm32f4xx_hal_flash_ex.c **** #else /* STM32F427xx || STM32F437xx || STM32F429xx|| STM32F439xx || STM32F469xx || STM32F479xx */
 422:./Libraries/STM32F4xx_HAL_Driver/Src/stm32f4xx_hal_flash_ex.c ****       status = FLASH_OB_DisablePCROP(pAdvOBInit->SectorsBank1, pAdvOBInit->SectorsBank2, pAdvOBInit
 639              		.loc 1 422 48
 640 003c 7B68     		ldr	r3, [r7, #4]
 641 003e 9B89     		ldrh	r3, [r3, #12]
 642              		.loc 1 422 16
 643 0040 1846     		mov	r0, r3
 644              		.loc 1 422 74
 645 0042 7B68     		ldr	r3, [r7, #4]
 646 0044 DB89     		ldrh	r3, [r3, #14]
 647              		.loc 1 422 16
 648 0046 1946     		mov	r1, r3
 649 0048 7B68     		ldr	r3, [r7, #4]
 650 004a 9B68     		ldr	r3, [r3, #8]
 651 004c 1A46     		mov	r2, r3
 652 004e FFF7FEFF 		bl	FLASH_OB_DisablePCROP
 653 0052 0346     		mov	r3, r0
 654 0054 FB73     		strb	r3, [r7, #15]
 655              	.L31:
 423:./Libraries/STM32F4xx_HAL_Driver/Src/stm32f4xx_hal_flash_ex.c **** #endif /* STM32F401xC || STM32F401xE || STM32F410xx || STM32F411xE || STM32F446xx || STM32F412Zx ||
 424:./Libraries/STM32F4xx_HAL_Driver/Src/stm32f4xx_hal_flash_ex.c ****           STM32F413xx || STM32F423xx */
 425:./Libraries/STM32F4xx_HAL_Driver/Src/stm32f4xx_hal_flash_ex.c ****     }
 426:./Libraries/STM32F4xx_HAL_Driver/Src/stm32f4xx_hal_flash_ex.c ****   }
 427:./Libraries/STM32F4xx_HAL_Driver/Src/stm32f4xx_hal_flash_ex.c ****    
 428:./Libraries/STM32F4xx_HAL_Driver/Src/stm32f4xx_hal_flash_ex.c **** #if defined(STM32F427xx) || defined(STM32F437xx) || defined(STM32F429xx) || defined(STM32F439xx) ||
 429:./Libraries/STM32F4xx_HAL_Driver/Src/stm32f4xx_hal_flash_ex.c ****   /*Program BOOT config option byte*/
 430:./Libraries/STM32F4xx_HAL_Driver/Src/stm32f4xx_hal_flash_ex.c ****   if(((pAdvOBInit->OptionType) & OPTIONBYTE_BOOTCONFIG) == OPTIONBYTE_BOOTCONFIG)
ARM GAS  /tmp/cc52q51R.s 			page 20


 656              		.loc 1 430 18
 657 0056 7B68     		ldr	r3, [r7, #4]
 658 0058 1B68     		ldr	r3, [r3]
 659              		.loc 1 430 32
 660 005a 03F00203 		and	r3, r3, #2
 661              		.loc 1 430 5
 662 005e 002B     		cmp	r3, #0
 663 0060 06D0     		beq	.L33
 431:./Libraries/STM32F4xx_HAL_Driver/Src/stm32f4xx_hal_flash_ex.c ****   {
 432:./Libraries/STM32F4xx_HAL_Driver/Src/stm32f4xx_hal_flash_ex.c ****     status = FLASH_OB_BootConfig(pAdvOBInit->BootConfig);
 664              		.loc 1 432 14
 665 0062 7B68     		ldr	r3, [r7, #4]
 666 0064 1B7C     		ldrb	r3, [r3, #16]	@ zero_extendqisi2
 667 0066 1846     		mov	r0, r3
 668 0068 FFF7FEFF 		bl	FLASH_OB_BootConfig
 669 006c 0346     		mov	r3, r0
 670 006e FB73     		strb	r3, [r7, #15]
 671              	.L33:
 433:./Libraries/STM32F4xx_HAL_Driver/Src/stm32f4xx_hal_flash_ex.c ****   }
 434:./Libraries/STM32F4xx_HAL_Driver/Src/stm32f4xx_hal_flash_ex.c **** #endif /* STM32F427xx || STM32F437xx || STM32F429xx || STM32F439xx || STM32F469xx || STM32F479xx */
 435:./Libraries/STM32F4xx_HAL_Driver/Src/stm32f4xx_hal_flash_ex.c **** 
 436:./Libraries/STM32F4xx_HAL_Driver/Src/stm32f4xx_hal_flash_ex.c ****   return status;
 672              		.loc 1 436 10
 673 0070 FB7B     		ldrb	r3, [r7, #15]	@ zero_extendqisi2
 437:./Libraries/STM32F4xx_HAL_Driver/Src/stm32f4xx_hal_flash_ex.c **** }
 674              		.loc 1 437 1
 675 0072 1846     		mov	r0, r3
 676 0074 1037     		adds	r7, r7, #16
 677              	.LCFI23:
 678              		.cfi_def_cfa_offset 8
 679 0076 BD46     		mov	sp, r7
 680              	.LCFI24:
 681              		.cfi_def_cfa_register 13
 682              		@ sp needed
 683 0078 80BD     		pop	{r7, pc}
 684              		.cfi_endproc
 685              	.LFE130:
 687              		.section	.text.HAL_FLASHEx_AdvOBGetConfig,"ax",%progbits
 688              		.align	1
 689              		.global	HAL_FLASHEx_AdvOBGetConfig
 690              		.syntax unified
 691              		.thumb
 692              		.thumb_func
 693              		.fpu fpv4-sp-d16
 695              	HAL_FLASHEx_AdvOBGetConfig:
 696              	.LFB131:
 438:./Libraries/STM32F4xx_HAL_Driver/Src/stm32f4xx_hal_flash_ex.c **** 
 439:./Libraries/STM32F4xx_HAL_Driver/Src/stm32f4xx_hal_flash_ex.c **** /**
 440:./Libraries/STM32F4xx_HAL_Driver/Src/stm32f4xx_hal_flash_ex.c ****   * @brief   Get the OBEX byte configuration
 441:./Libraries/STM32F4xx_HAL_Driver/Src/stm32f4xx_hal_flash_ex.c ****   * @param  pAdvOBInit pointer to an FLASH_AdvOBProgramInitTypeDef structure that
 442:./Libraries/STM32F4xx_HAL_Driver/Src/stm32f4xx_hal_flash_ex.c ****   *         contains the configuration information for the programming.
 443:./Libraries/STM32F4xx_HAL_Driver/Src/stm32f4xx_hal_flash_ex.c ****   * 
 444:./Libraries/STM32F4xx_HAL_Driver/Src/stm32f4xx_hal_flash_ex.c ****   * @retval None
 445:./Libraries/STM32F4xx_HAL_Driver/Src/stm32f4xx_hal_flash_ex.c ****   */
 446:./Libraries/STM32F4xx_HAL_Driver/Src/stm32f4xx_hal_flash_ex.c **** void HAL_FLASHEx_AdvOBGetConfig(FLASH_AdvOBProgramInitTypeDef *pAdvOBInit)
 447:./Libraries/STM32F4xx_HAL_Driver/Src/stm32f4xx_hal_flash_ex.c **** {
 697              		.loc 1 447 1
ARM GAS  /tmp/cc52q51R.s 			page 21


 698              		.cfi_startproc
 699              		@ args = 0, pretend = 0, frame = 8
 700              		@ frame_needed = 1, uses_anonymous_args = 0
 701              		@ link register save eliminated.
 702 0000 80B4     		push	{r7}
 703              	.LCFI25:
 704              		.cfi_def_cfa_offset 4
 705              		.cfi_offset 7, -4
 706 0002 83B0     		sub	sp, sp, #12
 707              	.LCFI26:
 708              		.cfi_def_cfa_offset 16
 709 0004 00AF     		add	r7, sp, #0
 710              	.LCFI27:
 711              		.cfi_def_cfa_register 7
 712 0006 7860     		str	r0, [r7, #4]
 448:./Libraries/STM32F4xx_HAL_Driver/Src/stm32f4xx_hal_flash_ex.c **** #if defined(STM32F401xC) || defined(STM32F401xE) || defined(STM32F410Tx) || defined(STM32F410Cx) ||
 449:./Libraries/STM32F4xx_HAL_Driver/Src/stm32f4xx_hal_flash_ex.c ****     defined(STM32F411xE) || defined(STM32F446xx) || defined(STM32F412Zx) || defined(STM32F412Vx) ||
 450:./Libraries/STM32F4xx_HAL_Driver/Src/stm32f4xx_hal_flash_ex.c ****     defined(STM32F412Cx) || defined(STM32F413xx) || defined(STM32F423xx)
 451:./Libraries/STM32F4xx_HAL_Driver/Src/stm32f4xx_hal_flash_ex.c ****   /*Get Sector*/
 452:./Libraries/STM32F4xx_HAL_Driver/Src/stm32f4xx_hal_flash_ex.c ****   pAdvOBInit->Sectors = (*(__IO uint16_t *)(OPTCR_BYTE2_ADDRESS));
 453:./Libraries/STM32F4xx_HAL_Driver/Src/stm32f4xx_hal_flash_ex.c **** #else  /* STM32F427xx || STM32F437xx || STM32F429xx|| STM32F439xx || STM32F469xx || STM32F479xx */
 454:./Libraries/STM32F4xx_HAL_Driver/Src/stm32f4xx_hal_flash_ex.c ****   /*Get Sector for Bank1*/
 455:./Libraries/STM32F4xx_HAL_Driver/Src/stm32f4xx_hal_flash_ex.c ****   pAdvOBInit->SectorsBank1 = (*(__IO uint16_t *)(OPTCR_BYTE2_ADDRESS));
 713              		.loc 1 455 31
 714 0008 0A4B     		ldr	r3, .L36
 715 000a 1B88     		ldrh	r3, [r3]	@ movhi
 716 000c 9AB2     		uxth	r2, r3
 717              		.loc 1 455 28
 718 000e 7B68     		ldr	r3, [r7, #4]
 719 0010 9A81     		strh	r2, [r3, #12]	@ movhi
 456:./Libraries/STM32F4xx_HAL_Driver/Src/stm32f4xx_hal_flash_ex.c **** 
 457:./Libraries/STM32F4xx_HAL_Driver/Src/stm32f4xx_hal_flash_ex.c ****   /*Get Sector for Bank2*/
 458:./Libraries/STM32F4xx_HAL_Driver/Src/stm32f4xx_hal_flash_ex.c ****   pAdvOBInit->SectorsBank2 = (*(__IO uint16_t *)(OPTCR1_BYTE2_ADDRESS));
 720              		.loc 1 458 31
 721 0012 094B     		ldr	r3, .L36+4
 722 0014 1B88     		ldrh	r3, [r3]	@ movhi
 723 0016 9AB2     		uxth	r2, r3
 724              		.loc 1 458 28
 725 0018 7B68     		ldr	r3, [r7, #4]
 726 001a DA81     		strh	r2, [r3, #14]	@ movhi
 459:./Libraries/STM32F4xx_HAL_Driver/Src/stm32f4xx_hal_flash_ex.c **** 
 460:./Libraries/STM32F4xx_HAL_Driver/Src/stm32f4xx_hal_flash_ex.c ****   /*Get Boot config OB*/
 461:./Libraries/STM32F4xx_HAL_Driver/Src/stm32f4xx_hal_flash_ex.c ****   pAdvOBInit->BootConfig = *(__IO uint8_t *)OPTCR_BYTE0_ADDRESS;
 727              		.loc 1 461 28
 728 001c 074B     		ldr	r3, .L36+8
 729 001e 1B78     		ldrb	r3, [r3]
 730 0020 DAB2     		uxtb	r2, r3
 731              		.loc 1 461 26
 732 0022 7B68     		ldr	r3, [r7, #4]
 733 0024 1A74     		strb	r2, [r3, #16]
 462:./Libraries/STM32F4xx_HAL_Driver/Src/stm32f4xx_hal_flash_ex.c **** #endif /* STM32F401xC || STM32F401xE || STM32F410xx || STM32F411xE || STM32F446xx || STM32F412Zx ||
 463:./Libraries/STM32F4xx_HAL_Driver/Src/stm32f4xx_hal_flash_ex.c ****           STM32F413xx || STM32F423xx */
 464:./Libraries/STM32F4xx_HAL_Driver/Src/stm32f4xx_hal_flash_ex.c **** }
 734              		.loc 1 464 1
 735 0026 00BF     		nop
 736 0028 0C37     		adds	r7, r7, #12
 737              	.LCFI28:
ARM GAS  /tmp/cc52q51R.s 			page 22


 738              		.cfi_def_cfa_offset 4
 739 002a BD46     		mov	sp, r7
 740              	.LCFI29:
 741              		.cfi_def_cfa_register 13
 742              		@ sp needed
 743 002c 5DF8047B 		ldr	r7, [sp], #4
 744              	.LCFI30:
 745              		.cfi_restore 7
 746              		.cfi_def_cfa_offset 0
 747 0030 7047     		bx	lr
 748              	.L37:
 749 0032 00BF     		.align	2
 750              	.L36:
 751 0034 163C0240 		.word	1073888278
 752 0038 1A3C0240 		.word	1073888282
 753 003c 143C0240 		.word	1073888276
 754              		.cfi_endproc
 755              	.LFE131:
 757              		.section	.text.HAL_FLASHEx_OB_SelectPCROP,"ax",%progbits
 758              		.align	1
 759              		.global	HAL_FLASHEx_OB_SelectPCROP
 760              		.syntax unified
 761              		.thumb
 762              		.thumb_func
 763              		.fpu fpv4-sp-d16
 765              	HAL_FLASHEx_OB_SelectPCROP:
 766              	.LFB132:
 465:./Libraries/STM32F4xx_HAL_Driver/Src/stm32f4xx_hal_flash_ex.c **** 
 466:./Libraries/STM32F4xx_HAL_Driver/Src/stm32f4xx_hal_flash_ex.c **** /**
 467:./Libraries/STM32F4xx_HAL_Driver/Src/stm32f4xx_hal_flash_ex.c ****   * @brief  Select the Protection Mode 
 468:./Libraries/STM32F4xx_HAL_Driver/Src/stm32f4xx_hal_flash_ex.c ****   * 
 469:./Libraries/STM32F4xx_HAL_Driver/Src/stm32f4xx_hal_flash_ex.c ****   * @note   After PCROP activated Option Byte modification NOT POSSIBLE! excepted 
 470:./Libraries/STM32F4xx_HAL_Driver/Src/stm32f4xx_hal_flash_ex.c ****   *         Global Read Out Protection modification (from level1 to level0) 
 471:./Libraries/STM32F4xx_HAL_Driver/Src/stm32f4xx_hal_flash_ex.c ****   * @note   Once SPRMOD bit is active unprotection of a protected sector is not possible 
 472:./Libraries/STM32F4xx_HAL_Driver/Src/stm32f4xx_hal_flash_ex.c ****   * @note   Read a protected sector will set RDERR Flag and write a protected sector will set WRPER
 473:./Libraries/STM32F4xx_HAL_Driver/Src/stm32f4xx_hal_flash_ex.c ****   * @note   This function can be used only for STM32F42xxx/STM32F43xxx/STM32F401xx/STM32F411xx/STM3
 474:./Libraries/STM32F4xx_HAL_Driver/Src/stm32f4xx_hal_flash_ex.c ****   *         STM32F469xx/STM32F479xx/STM32F412xx/STM32F413xx devices.
 475:./Libraries/STM32F4xx_HAL_Driver/Src/stm32f4xx_hal_flash_ex.c ****   * 
 476:./Libraries/STM32F4xx_HAL_Driver/Src/stm32f4xx_hal_flash_ex.c ****   * @retval HAL Status
 477:./Libraries/STM32F4xx_HAL_Driver/Src/stm32f4xx_hal_flash_ex.c ****   */
 478:./Libraries/STM32F4xx_HAL_Driver/Src/stm32f4xx_hal_flash_ex.c **** HAL_StatusTypeDef HAL_FLASHEx_OB_SelectPCROP(void)
 479:./Libraries/STM32F4xx_HAL_Driver/Src/stm32f4xx_hal_flash_ex.c **** {
 767              		.loc 1 479 1
 768              		.cfi_startproc
 769              		@ args = 0, pretend = 0, frame = 8
 770              		@ frame_needed = 1, uses_anonymous_args = 0
 771              		@ link register save eliminated.
 772 0000 80B4     		push	{r7}
 773              	.LCFI31:
 774              		.cfi_def_cfa_offset 4
 775              		.cfi_offset 7, -4
 776 0002 83B0     		sub	sp, sp, #12
 777              	.LCFI32:
 778              		.cfi_def_cfa_offset 16
 779 0004 00AF     		add	r7, sp, #0
 780              	.LCFI33:
 781              		.cfi_def_cfa_register 7
ARM GAS  /tmp/cc52q51R.s 			page 23


 480:./Libraries/STM32F4xx_HAL_Driver/Src/stm32f4xx_hal_flash_ex.c ****   uint8_t optiontmp = 0xFF;
 782              		.loc 1 480 11
 783 0006 FF23     		movs	r3, #255
 784 0008 FB71     		strb	r3, [r7, #7]
 481:./Libraries/STM32F4xx_HAL_Driver/Src/stm32f4xx_hal_flash_ex.c **** 
 482:./Libraries/STM32F4xx_HAL_Driver/Src/stm32f4xx_hal_flash_ex.c ****   /* Mask SPRMOD bit */
 483:./Libraries/STM32F4xx_HAL_Driver/Src/stm32f4xx_hal_flash_ex.c ****   optiontmp =  (uint8_t)((*(__IO uint8_t *)OPTCR_BYTE3_ADDRESS) & (uint8_t)0x7F); 
 785              		.loc 1 483 65
 786 000a 094B     		ldr	r3, .L40
 787 000c 1B78     		ldrb	r3, [r3]
 788 000e DBB2     		uxtb	r3, r3
 789              		.loc 1 483 13
 790 0010 03F07F03 		and	r3, r3, #127
 791 0014 FB71     		strb	r3, [r7, #7]
 484:./Libraries/STM32F4xx_HAL_Driver/Src/stm32f4xx_hal_flash_ex.c ****   
 485:./Libraries/STM32F4xx_HAL_Driver/Src/stm32f4xx_hal_flash_ex.c ****   /* Update Option Byte */
 486:./Libraries/STM32F4xx_HAL_Driver/Src/stm32f4xx_hal_flash_ex.c ****   *(__IO uint8_t *)OPTCR_BYTE3_ADDRESS = (uint8_t)(OB_PCROP_SELECTED | optiontmp); 
 792              		.loc 1 486 3
 793 0016 064A     		ldr	r2, .L40
 794              		.loc 1 486 42
 795 0018 FB79     		ldrb	r3, [r7, #7]
 796 001a 63F07F03 		orn	r3, r3, #127
 797 001e DBB2     		uxtb	r3, r3
 798              		.loc 1 486 40
 799 0020 1370     		strb	r3, [r2]
 487:./Libraries/STM32F4xx_HAL_Driver/Src/stm32f4xx_hal_flash_ex.c ****   
 488:./Libraries/STM32F4xx_HAL_Driver/Src/stm32f4xx_hal_flash_ex.c ****   return HAL_OK;
 800              		.loc 1 488 10
 801 0022 0023     		movs	r3, #0
 489:./Libraries/STM32F4xx_HAL_Driver/Src/stm32f4xx_hal_flash_ex.c **** }
 802              		.loc 1 489 1
 803 0024 1846     		mov	r0, r3
 804 0026 0C37     		adds	r7, r7, #12
 805              	.LCFI34:
 806              		.cfi_def_cfa_offset 4
 807 0028 BD46     		mov	sp, r7
 808              	.LCFI35:
 809              		.cfi_def_cfa_register 13
 810              		@ sp needed
 811 002a 5DF8047B 		ldr	r7, [sp], #4
 812              	.LCFI36:
 813              		.cfi_restore 7
 814              		.cfi_def_cfa_offset 0
 815 002e 7047     		bx	lr
 816              	.L41:
 817              		.align	2
 818              	.L40:
 819 0030 173C0240 		.word	1073888279
 820              		.cfi_endproc
 821              	.LFE132:
 823              		.section	.text.HAL_FLASHEx_OB_DeSelectPCROP,"ax",%progbits
 824              		.align	1
 825              		.global	HAL_FLASHEx_OB_DeSelectPCROP
 826              		.syntax unified
 827              		.thumb
 828              		.thumb_func
 829              		.fpu fpv4-sp-d16
ARM GAS  /tmp/cc52q51R.s 			page 24


 831              	HAL_FLASHEx_OB_DeSelectPCROP:
 832              	.LFB133:
 490:./Libraries/STM32F4xx_HAL_Driver/Src/stm32f4xx_hal_flash_ex.c **** 
 491:./Libraries/STM32F4xx_HAL_Driver/Src/stm32f4xx_hal_flash_ex.c **** /**
 492:./Libraries/STM32F4xx_HAL_Driver/Src/stm32f4xx_hal_flash_ex.c ****   * @brief  Deselect the Protection Mode 
 493:./Libraries/STM32F4xx_HAL_Driver/Src/stm32f4xx_hal_flash_ex.c ****   * 
 494:./Libraries/STM32F4xx_HAL_Driver/Src/stm32f4xx_hal_flash_ex.c ****   * @note   After PCROP activated Option Byte modification NOT POSSIBLE! excepted 
 495:./Libraries/STM32F4xx_HAL_Driver/Src/stm32f4xx_hal_flash_ex.c ****   *         Global Read Out Protection modification (from level1 to level0) 
 496:./Libraries/STM32F4xx_HAL_Driver/Src/stm32f4xx_hal_flash_ex.c ****   * @note   Once SPRMOD bit is active unprotection of a protected sector is not possible 
 497:./Libraries/STM32F4xx_HAL_Driver/Src/stm32f4xx_hal_flash_ex.c ****   * @note   Read a protected sector will set RDERR Flag and write a protected sector will set WRPER
 498:./Libraries/STM32F4xx_HAL_Driver/Src/stm32f4xx_hal_flash_ex.c ****   * @note   This function can be used only for STM32F42xxx/STM32F43xxx/STM32F401xx/STM32F411xx/STM3
 499:./Libraries/STM32F4xx_HAL_Driver/Src/stm32f4xx_hal_flash_ex.c ****   *         STM32F469xx/STM32F479xx/STM32F412xx/STM32F413xx devices.
 500:./Libraries/STM32F4xx_HAL_Driver/Src/stm32f4xx_hal_flash_ex.c ****   * 
 501:./Libraries/STM32F4xx_HAL_Driver/Src/stm32f4xx_hal_flash_ex.c ****   * @retval HAL Status
 502:./Libraries/STM32F4xx_HAL_Driver/Src/stm32f4xx_hal_flash_ex.c ****   */
 503:./Libraries/STM32F4xx_HAL_Driver/Src/stm32f4xx_hal_flash_ex.c **** HAL_StatusTypeDef HAL_FLASHEx_OB_DeSelectPCROP(void)
 504:./Libraries/STM32F4xx_HAL_Driver/Src/stm32f4xx_hal_flash_ex.c **** {
 833              		.loc 1 504 1
 834              		.cfi_startproc
 835              		@ args = 0, pretend = 0, frame = 8
 836              		@ frame_needed = 1, uses_anonymous_args = 0
 837              		@ link register save eliminated.
 838 0000 80B4     		push	{r7}
 839              	.LCFI37:
 840              		.cfi_def_cfa_offset 4
 841              		.cfi_offset 7, -4
 842 0002 83B0     		sub	sp, sp, #12
 843              	.LCFI38:
 844              		.cfi_def_cfa_offset 16
 845 0004 00AF     		add	r7, sp, #0
 846              	.LCFI39:
 847              		.cfi_def_cfa_register 7
 505:./Libraries/STM32F4xx_HAL_Driver/Src/stm32f4xx_hal_flash_ex.c ****   uint8_t optiontmp = 0xFF;
 848              		.loc 1 505 11
 849 0006 FF23     		movs	r3, #255
 850 0008 FB71     		strb	r3, [r7, #7]
 506:./Libraries/STM32F4xx_HAL_Driver/Src/stm32f4xx_hal_flash_ex.c ****   
 507:./Libraries/STM32F4xx_HAL_Driver/Src/stm32f4xx_hal_flash_ex.c ****   /* Mask SPRMOD bit */
 508:./Libraries/STM32F4xx_HAL_Driver/Src/stm32f4xx_hal_flash_ex.c ****   optiontmp =  (uint8_t)((*(__IO uint8_t *)OPTCR_BYTE3_ADDRESS) & (uint8_t)0x7F); 
 851              		.loc 1 508 65
 852 000a 084B     		ldr	r3, .L44
 853 000c 1B78     		ldrb	r3, [r3]
 854 000e DBB2     		uxtb	r3, r3
 855              		.loc 1 508 13
 856 0010 03F07F03 		and	r3, r3, #127
 857 0014 FB71     		strb	r3, [r7, #7]
 509:./Libraries/STM32F4xx_HAL_Driver/Src/stm32f4xx_hal_flash_ex.c ****   
 510:./Libraries/STM32F4xx_HAL_Driver/Src/stm32f4xx_hal_flash_ex.c ****   /* Update Option Byte */
 511:./Libraries/STM32F4xx_HAL_Driver/Src/stm32f4xx_hal_flash_ex.c ****   *(__IO uint8_t *)OPTCR_BYTE3_ADDRESS = (uint8_t)(OB_PCROP_DESELECTED | optiontmp);  
 858              		.loc 1 511 3
 859 0016 054A     		ldr	r2, .L44
 860              		.loc 1 511 40
 861 0018 FB79     		ldrb	r3, [r7, #7]
 862 001a 1370     		strb	r3, [r2]
 512:./Libraries/STM32F4xx_HAL_Driver/Src/stm32f4xx_hal_flash_ex.c ****   
 513:./Libraries/STM32F4xx_HAL_Driver/Src/stm32f4xx_hal_flash_ex.c ****   return HAL_OK;
 863              		.loc 1 513 10
ARM GAS  /tmp/cc52q51R.s 			page 25


 864 001c 0023     		movs	r3, #0
 514:./Libraries/STM32F4xx_HAL_Driver/Src/stm32f4xx_hal_flash_ex.c **** }
 865              		.loc 1 514 1
 866 001e 1846     		mov	r0, r3
 867 0020 0C37     		adds	r7, r7, #12
 868              	.LCFI40:
 869              		.cfi_def_cfa_offset 4
 870 0022 BD46     		mov	sp, r7
 871              	.LCFI41:
 872              		.cfi_def_cfa_register 13
 873              		@ sp needed
 874 0024 5DF8047B 		ldr	r7, [sp], #4
 875              	.LCFI42:
 876              		.cfi_restore 7
 877              		.cfi_def_cfa_offset 0
 878 0028 7047     		bx	lr
 879              	.L45:
 880 002a 00BF     		.align	2
 881              	.L44:
 882 002c 173C0240 		.word	1073888279
 883              		.cfi_endproc
 884              	.LFE133:
 886              		.section	.text.HAL_FLASHEx_OB_GetBank2WRP,"ax",%progbits
 887              		.align	1
 888              		.global	HAL_FLASHEx_OB_GetBank2WRP
 889              		.syntax unified
 890              		.thumb
 891              		.thumb_func
 892              		.fpu fpv4-sp-d16
 894              	HAL_FLASHEx_OB_GetBank2WRP:
 895              	.LFB134:
 515:./Libraries/STM32F4xx_HAL_Driver/Src/stm32f4xx_hal_flash_ex.c **** #endif /* STM32F427xx || STM32F437xx || STM32F429xx || STM32F439xx || STM32F401xC || STM32F401xE ||
 516:./Libraries/STM32F4xx_HAL_Driver/Src/stm32f4xx_hal_flash_ex.c ****           STM32F411xE || STM32F469xx || STM32F479xx || STM32F412Zx || STM32F412Vx || STM32F412Rx ||
 517:./Libraries/STM32F4xx_HAL_Driver/Src/stm32f4xx_hal_flash_ex.c ****           STM32F413xx || STM32F423xx */
 518:./Libraries/STM32F4xx_HAL_Driver/Src/stm32f4xx_hal_flash_ex.c **** 
 519:./Libraries/STM32F4xx_HAL_Driver/Src/stm32f4xx_hal_flash_ex.c **** #if defined(STM32F427xx) || defined(STM32F437xx) || defined(STM32F429xx)|| defined(STM32F439xx) || 
 520:./Libraries/STM32F4xx_HAL_Driver/Src/stm32f4xx_hal_flash_ex.c **** /**
 521:./Libraries/STM32F4xx_HAL_Driver/Src/stm32f4xx_hal_flash_ex.c ****   * @brief  Returns the FLASH Write Protection Option Bytes value for Bank 2
 522:./Libraries/STM32F4xx_HAL_Driver/Src/stm32f4xx_hal_flash_ex.c ****   * @note   This function can be used only for STM32F42xxx/STM32F43xxx/STM32F469xx/STM32F479xx devi
 523:./Libraries/STM32F4xx_HAL_Driver/Src/stm32f4xx_hal_flash_ex.c ****   * @retval The FLASH Write Protection  Option Bytes value
 524:./Libraries/STM32F4xx_HAL_Driver/Src/stm32f4xx_hal_flash_ex.c ****   */
 525:./Libraries/STM32F4xx_HAL_Driver/Src/stm32f4xx_hal_flash_ex.c **** uint16_t HAL_FLASHEx_OB_GetBank2WRP(void)
 526:./Libraries/STM32F4xx_HAL_Driver/Src/stm32f4xx_hal_flash_ex.c **** {                            
 896              		.loc 1 526 1
 897              		.cfi_startproc
 898              		@ args = 0, pretend = 0, frame = 0
 899              		@ frame_needed = 1, uses_anonymous_args = 0
 900              		@ link register save eliminated.
 901 0000 80B4     		push	{r7}
 902              	.LCFI43:
 903              		.cfi_def_cfa_offset 4
 904              		.cfi_offset 7, -4
 905 0002 00AF     		add	r7, sp, #0
 906              	.LCFI44:
 907              		.cfi_def_cfa_register 7
 527:./Libraries/STM32F4xx_HAL_Driver/Src/stm32f4xx_hal_flash_ex.c ****   /* Return the FLASH write protection Register value */
 528:./Libraries/STM32F4xx_HAL_Driver/Src/stm32f4xx_hal_flash_ex.c ****   return (*(__IO uint16_t *)(OPTCR1_BYTE2_ADDRESS));
ARM GAS  /tmp/cc52q51R.s 			page 26


 908              		.loc 1 528 11
 909 0004 034B     		ldr	r3, .L48
 910 0006 1B88     		ldrh	r3, [r3]	@ movhi
 911 0008 9BB2     		uxth	r3, r3
 529:./Libraries/STM32F4xx_HAL_Driver/Src/stm32f4xx_hal_flash_ex.c **** }
 912              		.loc 1 529 1
 913 000a 1846     		mov	r0, r3
 914 000c BD46     		mov	sp, r7
 915              	.LCFI45:
 916              		.cfi_def_cfa_register 13
 917              		@ sp needed
 918 000e 5DF8047B 		ldr	r7, [sp], #4
 919              	.LCFI46:
 920              		.cfi_restore 7
 921              		.cfi_def_cfa_offset 0
 922 0012 7047     		bx	lr
 923              	.L49:
 924              		.align	2
 925              	.L48:
 926 0014 1A3C0240 		.word	1073888282
 927              		.cfi_endproc
 928              	.LFE134:
 930              		.section	.text.FLASH_MassErase,"ax",%progbits
 931              		.align	1
 932              		.syntax unified
 933              		.thumb
 934              		.thumb_func
 935              		.fpu fpv4-sp-d16
 937              	FLASH_MassErase:
 938              	.LFB135:
 530:./Libraries/STM32F4xx_HAL_Driver/Src/stm32f4xx_hal_flash_ex.c **** #endif /* STM32F427xx || STM32F437xx || STM32F429xx || STM32F439xx || STM32F469xx || STM32F479xx */
 531:./Libraries/STM32F4xx_HAL_Driver/Src/stm32f4xx_hal_flash_ex.c **** 
 532:./Libraries/STM32F4xx_HAL_Driver/Src/stm32f4xx_hal_flash_ex.c **** /**
 533:./Libraries/STM32F4xx_HAL_Driver/Src/stm32f4xx_hal_flash_ex.c ****   * @}
 534:./Libraries/STM32F4xx_HAL_Driver/Src/stm32f4xx_hal_flash_ex.c ****   */
 535:./Libraries/STM32F4xx_HAL_Driver/Src/stm32f4xx_hal_flash_ex.c ****   
 536:./Libraries/STM32F4xx_HAL_Driver/Src/stm32f4xx_hal_flash_ex.c **** #if defined(STM32F427xx) || defined(STM32F437xx) || defined(STM32F429xx) || defined(STM32F439xx) ||
 537:./Libraries/STM32F4xx_HAL_Driver/Src/stm32f4xx_hal_flash_ex.c **** /**
 538:./Libraries/STM32F4xx_HAL_Driver/Src/stm32f4xx_hal_flash_ex.c ****   * @brief  Full erase of FLASH memory sectors 
 539:./Libraries/STM32F4xx_HAL_Driver/Src/stm32f4xx_hal_flash_ex.c ****   * @param  VoltageRange The device voltage range which defines the erase parallelism.  
 540:./Libraries/STM32F4xx_HAL_Driver/Src/stm32f4xx_hal_flash_ex.c ****   *          This parameter can be one of the following values:
 541:./Libraries/STM32F4xx_HAL_Driver/Src/stm32f4xx_hal_flash_ex.c ****   *            @arg FLASH_VOLTAGE_RANGE_1: when the device voltage range is 1.8V to 2.1V, 
 542:./Libraries/STM32F4xx_HAL_Driver/Src/stm32f4xx_hal_flash_ex.c ****   *                                  the operation will be done by byte (8-bit) 
 543:./Libraries/STM32F4xx_HAL_Driver/Src/stm32f4xx_hal_flash_ex.c ****   *            @arg FLASH_VOLTAGE_RANGE_2: when the device voltage range is 2.1V to 2.7V,
 544:./Libraries/STM32F4xx_HAL_Driver/Src/stm32f4xx_hal_flash_ex.c ****   *                                  the operation will be done by half word (16-bit)
 545:./Libraries/STM32F4xx_HAL_Driver/Src/stm32f4xx_hal_flash_ex.c ****   *            @arg FLASH_VOLTAGE_RANGE_3: when the device voltage range is 2.7V to 3.6V,
 546:./Libraries/STM32F4xx_HAL_Driver/Src/stm32f4xx_hal_flash_ex.c ****   *                                  the operation will be done by word (32-bit)
 547:./Libraries/STM32F4xx_HAL_Driver/Src/stm32f4xx_hal_flash_ex.c ****   *            @arg FLASH_VOLTAGE_RANGE_4: when the device voltage range is 2.7V to 3.6V + External
 548:./Libraries/STM32F4xx_HAL_Driver/Src/stm32f4xx_hal_flash_ex.c ****   *                                  the operation will be done by double word (64-bit)
 549:./Libraries/STM32F4xx_HAL_Driver/Src/stm32f4xx_hal_flash_ex.c ****   * 
 550:./Libraries/STM32F4xx_HAL_Driver/Src/stm32f4xx_hal_flash_ex.c ****   * @param  Banks Banks to be erased
 551:./Libraries/STM32F4xx_HAL_Driver/Src/stm32f4xx_hal_flash_ex.c ****   *          This parameter can be one of the following values:
 552:./Libraries/STM32F4xx_HAL_Driver/Src/stm32f4xx_hal_flash_ex.c ****   *            @arg FLASH_BANK_1: Bank1 to be erased
 553:./Libraries/STM32F4xx_HAL_Driver/Src/stm32f4xx_hal_flash_ex.c ****   *            @arg FLASH_BANK_2: Bank2 to be erased
 554:./Libraries/STM32F4xx_HAL_Driver/Src/stm32f4xx_hal_flash_ex.c ****   *            @arg FLASH_BANK_BOTH: Bank1 and Bank2 to be erased
 555:./Libraries/STM32F4xx_HAL_Driver/Src/stm32f4xx_hal_flash_ex.c ****   *
 556:./Libraries/STM32F4xx_HAL_Driver/Src/stm32f4xx_hal_flash_ex.c ****   * @retval HAL Status
ARM GAS  /tmp/cc52q51R.s 			page 27


 557:./Libraries/STM32F4xx_HAL_Driver/Src/stm32f4xx_hal_flash_ex.c ****   */
 558:./Libraries/STM32F4xx_HAL_Driver/Src/stm32f4xx_hal_flash_ex.c **** static void FLASH_MassErase(uint8_t VoltageRange, uint32_t Banks)
 559:./Libraries/STM32F4xx_HAL_Driver/Src/stm32f4xx_hal_flash_ex.c **** {
 939              		.loc 1 559 1
 940              		.cfi_startproc
 941              		@ args = 0, pretend = 0, frame = 8
 942              		@ frame_needed = 1, uses_anonymous_args = 0
 943              		@ link register save eliminated.
 944 0000 80B4     		push	{r7}
 945              	.LCFI47:
 946              		.cfi_def_cfa_offset 4
 947              		.cfi_offset 7, -4
 948 0002 83B0     		sub	sp, sp, #12
 949              	.LCFI48:
 950              		.cfi_def_cfa_offset 16
 951 0004 00AF     		add	r7, sp, #0
 952              	.LCFI49:
 953              		.cfi_def_cfa_register 7
 954 0006 0346     		mov	r3, r0
 955 0008 3960     		str	r1, [r7]
 956 000a FB71     		strb	r3, [r7, #7]
 560:./Libraries/STM32F4xx_HAL_Driver/Src/stm32f4xx_hal_flash_ex.c ****   /* Check the parameters */
 561:./Libraries/STM32F4xx_HAL_Driver/Src/stm32f4xx_hal_flash_ex.c ****   assert_param(IS_VOLTAGERANGE(VoltageRange));
 562:./Libraries/STM32F4xx_HAL_Driver/Src/stm32f4xx_hal_flash_ex.c ****   assert_param(IS_FLASH_BANK(Banks));
 563:./Libraries/STM32F4xx_HAL_Driver/Src/stm32f4xx_hal_flash_ex.c **** 
 564:./Libraries/STM32F4xx_HAL_Driver/Src/stm32f4xx_hal_flash_ex.c ****   /* if the previous operation is completed, proceed to erase all sectors */
 565:./Libraries/STM32F4xx_HAL_Driver/Src/stm32f4xx_hal_flash_ex.c ****   CLEAR_BIT(FLASH->CR, FLASH_CR_PSIZE);
 957              		.loc 1 565 3
 958 000c 184B     		ldr	r3, .L54
 959 000e 1B69     		ldr	r3, [r3, #16]
 960 0010 174A     		ldr	r2, .L54
 961 0012 23F44073 		bic	r3, r3, #768
 962 0016 1361     		str	r3, [r2, #16]
 566:./Libraries/STM32F4xx_HAL_Driver/Src/stm32f4xx_hal_flash_ex.c **** 
 567:./Libraries/STM32F4xx_HAL_Driver/Src/stm32f4xx_hal_flash_ex.c ****   if(Banks == FLASH_BANK_BOTH)
 963              		.loc 1 567 5
 964 0018 3B68     		ldr	r3, [r7]
 965 001a 032B     		cmp	r3, #3
 966 001c 08D1     		bne	.L51
 568:./Libraries/STM32F4xx_HAL_Driver/Src/stm32f4xx_hal_flash_ex.c ****   {
 569:./Libraries/STM32F4xx_HAL_Driver/Src/stm32f4xx_hal_flash_ex.c ****     /* bank1 & bank2 will be erased*/
 570:./Libraries/STM32F4xx_HAL_Driver/Src/stm32f4xx_hal_flash_ex.c ****     FLASH->CR |= FLASH_MER_BIT;
 967              		.loc 1 570 15
 968 001e 144B     		ldr	r3, .L54
 969 0020 1B69     		ldr	r3, [r3, #16]
 970 0022 134A     		ldr	r2, .L54
 971 0024 43F40043 		orr	r3, r3, #32768
 972 0028 43F00403 		orr	r3, r3, #4
 973 002c 1361     		str	r3, [r2, #16]
 974 002e 0FE0     		b	.L52
 975              	.L51:
 571:./Libraries/STM32F4xx_HAL_Driver/Src/stm32f4xx_hal_flash_ex.c ****   }
 572:./Libraries/STM32F4xx_HAL_Driver/Src/stm32f4xx_hal_flash_ex.c ****   else if(Banks == FLASH_BANK_1)
 976              		.loc 1 572 10
 977 0030 3B68     		ldr	r3, [r7]
 978 0032 012B     		cmp	r3, #1
 979 0034 06D1     		bne	.L53
ARM GAS  /tmp/cc52q51R.s 			page 28


 573:./Libraries/STM32F4xx_HAL_Driver/Src/stm32f4xx_hal_flash_ex.c ****   {
 574:./Libraries/STM32F4xx_HAL_Driver/Src/stm32f4xx_hal_flash_ex.c ****     /*Only bank1 will be erased*/
 575:./Libraries/STM32F4xx_HAL_Driver/Src/stm32f4xx_hal_flash_ex.c ****     FLASH->CR |= FLASH_CR_MER1;
 980              		.loc 1 575 15
 981 0036 0E4B     		ldr	r3, .L54
 982 0038 1B69     		ldr	r3, [r3, #16]
 983 003a 0D4A     		ldr	r2, .L54
 984 003c 43F00403 		orr	r3, r3, #4
 985 0040 1361     		str	r3, [r2, #16]
 986 0042 05E0     		b	.L52
 987              	.L53:
 576:./Libraries/STM32F4xx_HAL_Driver/Src/stm32f4xx_hal_flash_ex.c ****   }
 577:./Libraries/STM32F4xx_HAL_Driver/Src/stm32f4xx_hal_flash_ex.c ****   else
 578:./Libraries/STM32F4xx_HAL_Driver/Src/stm32f4xx_hal_flash_ex.c ****   {
 579:./Libraries/STM32F4xx_HAL_Driver/Src/stm32f4xx_hal_flash_ex.c ****     /*Only bank2 will be erased*/
 580:./Libraries/STM32F4xx_HAL_Driver/Src/stm32f4xx_hal_flash_ex.c ****     FLASH->CR |= FLASH_CR_MER2;
 988              		.loc 1 580 15
 989 0044 0A4B     		ldr	r3, .L54
 990 0046 1B69     		ldr	r3, [r3, #16]
 991 0048 094A     		ldr	r2, .L54
 992 004a 43F40043 		orr	r3, r3, #32768
 993 004e 1361     		str	r3, [r2, #16]
 994              	.L52:
 581:./Libraries/STM32F4xx_HAL_Driver/Src/stm32f4xx_hal_flash_ex.c ****   }
 582:./Libraries/STM32F4xx_HAL_Driver/Src/stm32f4xx_hal_flash_ex.c ****   FLASH->CR |= FLASH_CR_STRT | ((uint32_t)VoltageRange <<8U);
 995              		.loc 1 582 13
 996 0050 074B     		ldr	r3, .L54
 997 0052 1A69     		ldr	r2, [r3, #16]
 998              		.loc 1 582 33
 999 0054 FB79     		ldrb	r3, [r7, #7]	@ zero_extendqisi2
 1000              		.loc 1 582 56
 1001 0056 1B02     		lsls	r3, r3, #8
 1002              		.loc 1 582 13
 1003 0058 1343     		orrs	r3, r3, r2
 1004 005a 054A     		ldr	r2, .L54
 1005 005c 43F48033 		orr	r3, r3, #65536
 1006 0060 1361     		str	r3, [r2, #16]
 583:./Libraries/STM32F4xx_HAL_Driver/Src/stm32f4xx_hal_flash_ex.c **** }
 1007              		.loc 1 583 1
 1008 0062 00BF     		nop
 1009 0064 0C37     		adds	r7, r7, #12
 1010              	.LCFI50:
 1011              		.cfi_def_cfa_offset 4
 1012 0066 BD46     		mov	sp, r7
 1013              	.LCFI51:
 1014              		.cfi_def_cfa_register 13
 1015              		@ sp needed
 1016 0068 5DF8047B 		ldr	r7, [sp], #4
 1017              	.LCFI52:
 1018              		.cfi_restore 7
 1019              		.cfi_def_cfa_offset 0
 1020 006c 7047     		bx	lr
 1021              	.L55:
 1022 006e 00BF     		.align	2
 1023              	.L54:
 1024 0070 003C0240 		.word	1073888256
 1025              		.cfi_endproc
ARM GAS  /tmp/cc52q51R.s 			page 29


 1026              	.LFE135:
 1028              		.section	.text.FLASH_Erase_Sector,"ax",%progbits
 1029              		.align	1
 1030              		.global	FLASH_Erase_Sector
 1031              		.syntax unified
 1032              		.thumb
 1033              		.thumb_func
 1034              		.fpu fpv4-sp-d16
 1036              	FLASH_Erase_Sector:
 1037              	.LFB136:
 584:./Libraries/STM32F4xx_HAL_Driver/Src/stm32f4xx_hal_flash_ex.c **** 
 585:./Libraries/STM32F4xx_HAL_Driver/Src/stm32f4xx_hal_flash_ex.c **** /**
 586:./Libraries/STM32F4xx_HAL_Driver/Src/stm32f4xx_hal_flash_ex.c ****   * @brief  Erase the specified FLASH memory sector
 587:./Libraries/STM32F4xx_HAL_Driver/Src/stm32f4xx_hal_flash_ex.c ****   * @param  Sector FLASH sector to erase
 588:./Libraries/STM32F4xx_HAL_Driver/Src/stm32f4xx_hal_flash_ex.c ****   *         The value of this parameter depend on device used within the same series      
 589:./Libraries/STM32F4xx_HAL_Driver/Src/stm32f4xx_hal_flash_ex.c ****   * @param  VoltageRange The device voltage range which defines the erase parallelism.  
 590:./Libraries/STM32F4xx_HAL_Driver/Src/stm32f4xx_hal_flash_ex.c ****   *          This parameter can be one of the following values:
 591:./Libraries/STM32F4xx_HAL_Driver/Src/stm32f4xx_hal_flash_ex.c ****   *            @arg FLASH_VOLTAGE_RANGE_1: when the device voltage range is 1.8V to 2.1V, 
 592:./Libraries/STM32F4xx_HAL_Driver/Src/stm32f4xx_hal_flash_ex.c ****   *                                  the operation will be done by byte (8-bit) 
 593:./Libraries/STM32F4xx_HAL_Driver/Src/stm32f4xx_hal_flash_ex.c ****   *            @arg FLASH_VOLTAGE_RANGE_2: when the device voltage range is 2.1V to 2.7V,
 594:./Libraries/STM32F4xx_HAL_Driver/Src/stm32f4xx_hal_flash_ex.c ****   *                                  the operation will be done by half word (16-bit)
 595:./Libraries/STM32F4xx_HAL_Driver/Src/stm32f4xx_hal_flash_ex.c ****   *            @arg FLASH_VOLTAGE_RANGE_3: when the device voltage range is 2.7V to 3.6V,
 596:./Libraries/STM32F4xx_HAL_Driver/Src/stm32f4xx_hal_flash_ex.c ****   *                                  the operation will be done by word (32-bit)
 597:./Libraries/STM32F4xx_HAL_Driver/Src/stm32f4xx_hal_flash_ex.c ****   *            @arg FLASH_VOLTAGE_RANGE_4: when the device voltage range is 2.7V to 3.6V + External
 598:./Libraries/STM32F4xx_HAL_Driver/Src/stm32f4xx_hal_flash_ex.c ****   *                                  the operation will be done by double word (64-bit)
 599:./Libraries/STM32F4xx_HAL_Driver/Src/stm32f4xx_hal_flash_ex.c ****   * 
 600:./Libraries/STM32F4xx_HAL_Driver/Src/stm32f4xx_hal_flash_ex.c ****   * @retval None
 601:./Libraries/STM32F4xx_HAL_Driver/Src/stm32f4xx_hal_flash_ex.c ****   */
 602:./Libraries/STM32F4xx_HAL_Driver/Src/stm32f4xx_hal_flash_ex.c **** void FLASH_Erase_Sector(uint32_t Sector, uint8_t VoltageRange)
 603:./Libraries/STM32F4xx_HAL_Driver/Src/stm32f4xx_hal_flash_ex.c **** {
 1038              		.loc 1 603 1
 1039              		.cfi_startproc
 1040              		@ args = 0, pretend = 0, frame = 16
 1041              		@ frame_needed = 1, uses_anonymous_args = 0
 1042              		@ link register save eliminated.
 1043 0000 80B4     		push	{r7}
 1044              	.LCFI53:
 1045              		.cfi_def_cfa_offset 4
 1046              		.cfi_offset 7, -4
 1047 0002 85B0     		sub	sp, sp, #20
 1048              	.LCFI54:
 1049              		.cfi_def_cfa_offset 24
 1050 0004 00AF     		add	r7, sp, #0
 1051              	.LCFI55:
 1052              		.cfi_def_cfa_register 7
 1053 0006 7860     		str	r0, [r7, #4]
 1054 0008 0B46     		mov	r3, r1
 1055 000a FB70     		strb	r3, [r7, #3]
 604:./Libraries/STM32F4xx_HAL_Driver/Src/stm32f4xx_hal_flash_ex.c ****   uint32_t tmp_psize = 0U;
 1056              		.loc 1 604 12
 1057 000c 0023     		movs	r3, #0
 1058 000e FB60     		str	r3, [r7, #12]
 605:./Libraries/STM32F4xx_HAL_Driver/Src/stm32f4xx_hal_flash_ex.c **** 
 606:./Libraries/STM32F4xx_HAL_Driver/Src/stm32f4xx_hal_flash_ex.c ****   /* Check the parameters */
 607:./Libraries/STM32F4xx_HAL_Driver/Src/stm32f4xx_hal_flash_ex.c ****   assert_param(IS_FLASH_SECTOR(Sector));
 608:./Libraries/STM32F4xx_HAL_Driver/Src/stm32f4xx_hal_flash_ex.c ****   assert_param(IS_VOLTAGERANGE(VoltageRange));
 609:./Libraries/STM32F4xx_HAL_Driver/Src/stm32f4xx_hal_flash_ex.c ****   
ARM GAS  /tmp/cc52q51R.s 			page 30


 610:./Libraries/STM32F4xx_HAL_Driver/Src/stm32f4xx_hal_flash_ex.c ****   if(VoltageRange == FLASH_VOLTAGE_RANGE_1)
 1059              		.loc 1 610 5
 1060 0010 FB78     		ldrb	r3, [r7, #3]	@ zero_extendqisi2
 1061 0012 002B     		cmp	r3, #0
 1062 0014 02D1     		bne	.L57
 611:./Libraries/STM32F4xx_HAL_Driver/Src/stm32f4xx_hal_flash_ex.c ****   {
 612:./Libraries/STM32F4xx_HAL_Driver/Src/stm32f4xx_hal_flash_ex.c ****      tmp_psize = FLASH_PSIZE_BYTE;
 1063              		.loc 1 612 16
 1064 0016 0023     		movs	r3, #0
 1065 0018 FB60     		str	r3, [r7, #12]
 1066 001a 10E0     		b	.L58
 1067              	.L57:
 613:./Libraries/STM32F4xx_HAL_Driver/Src/stm32f4xx_hal_flash_ex.c ****   }
 614:./Libraries/STM32F4xx_HAL_Driver/Src/stm32f4xx_hal_flash_ex.c ****   else if(VoltageRange == FLASH_VOLTAGE_RANGE_2)
 1068              		.loc 1 614 10
 1069 001c FB78     		ldrb	r3, [r7, #3]	@ zero_extendqisi2
 1070 001e 012B     		cmp	r3, #1
 1071 0020 03D1     		bne	.L59
 615:./Libraries/STM32F4xx_HAL_Driver/Src/stm32f4xx_hal_flash_ex.c ****   {
 616:./Libraries/STM32F4xx_HAL_Driver/Src/stm32f4xx_hal_flash_ex.c ****     tmp_psize = FLASH_PSIZE_HALF_WORD;
 1072              		.loc 1 616 15
 1073 0022 4FF48073 		mov	r3, #256
 1074 0026 FB60     		str	r3, [r7, #12]
 1075 0028 09E0     		b	.L58
 1076              	.L59:
 617:./Libraries/STM32F4xx_HAL_Driver/Src/stm32f4xx_hal_flash_ex.c ****   }
 618:./Libraries/STM32F4xx_HAL_Driver/Src/stm32f4xx_hal_flash_ex.c ****   else if(VoltageRange == FLASH_VOLTAGE_RANGE_3)
 1077              		.loc 1 618 10
 1078 002a FB78     		ldrb	r3, [r7, #3]	@ zero_extendqisi2
 1079 002c 022B     		cmp	r3, #2
 1080 002e 03D1     		bne	.L60
 619:./Libraries/STM32F4xx_HAL_Driver/Src/stm32f4xx_hal_flash_ex.c ****   {
 620:./Libraries/STM32F4xx_HAL_Driver/Src/stm32f4xx_hal_flash_ex.c ****     tmp_psize = FLASH_PSIZE_WORD;
 1081              		.loc 1 620 15
 1082 0030 4FF40073 		mov	r3, #512
 1083 0034 FB60     		str	r3, [r7, #12]
 1084 0036 02E0     		b	.L58
 1085              	.L60:
 621:./Libraries/STM32F4xx_HAL_Driver/Src/stm32f4xx_hal_flash_ex.c ****   }
 622:./Libraries/STM32F4xx_HAL_Driver/Src/stm32f4xx_hal_flash_ex.c ****   else
 623:./Libraries/STM32F4xx_HAL_Driver/Src/stm32f4xx_hal_flash_ex.c ****   {
 624:./Libraries/STM32F4xx_HAL_Driver/Src/stm32f4xx_hal_flash_ex.c ****     tmp_psize = FLASH_PSIZE_DOUBLE_WORD;
 1086              		.loc 1 624 15
 1087 0038 4FF44073 		mov	r3, #768
 1088 003c FB60     		str	r3, [r7, #12]
 1089              	.L58:
 625:./Libraries/STM32F4xx_HAL_Driver/Src/stm32f4xx_hal_flash_ex.c ****   }
 626:./Libraries/STM32F4xx_HAL_Driver/Src/stm32f4xx_hal_flash_ex.c **** 
 627:./Libraries/STM32F4xx_HAL_Driver/Src/stm32f4xx_hal_flash_ex.c ****   /* Need to add offset of 4 when sector higher than FLASH_SECTOR_11 */
 628:./Libraries/STM32F4xx_HAL_Driver/Src/stm32f4xx_hal_flash_ex.c ****   if(Sector > FLASH_SECTOR_11) 
 1090              		.loc 1 628 5
 1091 003e 7B68     		ldr	r3, [r7, #4]
 1092 0040 0B2B     		cmp	r3, #11
 1093 0042 02D9     		bls	.L61
 629:./Libraries/STM32F4xx_HAL_Driver/Src/stm32f4xx_hal_flash_ex.c ****   {
 630:./Libraries/STM32F4xx_HAL_Driver/Src/stm32f4xx_hal_flash_ex.c ****     Sector += 4U;
 1094              		.loc 1 630 12
ARM GAS  /tmp/cc52q51R.s 			page 31


 1095 0044 7B68     		ldr	r3, [r7, #4]
 1096 0046 0433     		adds	r3, r3, #4
 1097 0048 7B60     		str	r3, [r7, #4]
 1098              	.L61:
 631:./Libraries/STM32F4xx_HAL_Driver/Src/stm32f4xx_hal_flash_ex.c ****   }
 632:./Libraries/STM32F4xx_HAL_Driver/Src/stm32f4xx_hal_flash_ex.c ****   /* If the previous operation is completed, proceed to erase the sector */
 633:./Libraries/STM32F4xx_HAL_Driver/Src/stm32f4xx_hal_flash_ex.c ****   CLEAR_BIT(FLASH->CR, FLASH_CR_PSIZE);
 1099              		.loc 1 633 3
 1100 004a 134B     		ldr	r3, .L62
 1101 004c 1B69     		ldr	r3, [r3, #16]
 1102 004e 124A     		ldr	r2, .L62
 1103 0050 23F44073 		bic	r3, r3, #768
 1104 0054 1361     		str	r3, [r2, #16]
 634:./Libraries/STM32F4xx_HAL_Driver/Src/stm32f4xx_hal_flash_ex.c ****   FLASH->CR |= tmp_psize;
 1105              		.loc 1 634 13
 1106 0056 104B     		ldr	r3, .L62
 1107 0058 1A69     		ldr	r2, [r3, #16]
 1108 005a 0F49     		ldr	r1, .L62
 1109 005c FB68     		ldr	r3, [r7, #12]
 1110 005e 1343     		orrs	r3, r3, r2
 1111 0060 0B61     		str	r3, [r1, #16]
 635:./Libraries/STM32F4xx_HAL_Driver/Src/stm32f4xx_hal_flash_ex.c ****   CLEAR_BIT(FLASH->CR, FLASH_CR_SNB);
 1112              		.loc 1 635 3
 1113 0062 0D4B     		ldr	r3, .L62
 1114 0064 1B69     		ldr	r3, [r3, #16]
 1115 0066 0C4A     		ldr	r2, .L62
 1116 0068 23F0F803 		bic	r3, r3, #248
 1117 006c 1361     		str	r3, [r2, #16]
 636:./Libraries/STM32F4xx_HAL_Driver/Src/stm32f4xx_hal_flash_ex.c ****   FLASH->CR |= FLASH_CR_SER | (Sector << FLASH_CR_SNB_Pos);
 1118              		.loc 1 636 13
 1119 006e 0A4B     		ldr	r3, .L62
 1120 0070 1A69     		ldr	r2, [r3, #16]
 1121              		.loc 1 636 39
 1122 0072 7B68     		ldr	r3, [r7, #4]
 1123 0074 DB00     		lsls	r3, r3, #3
 1124              		.loc 1 636 13
 1125 0076 1343     		orrs	r3, r3, r2
 1126 0078 074A     		ldr	r2, .L62
 1127 007a 43F00203 		orr	r3, r3, #2
 1128 007e 1361     		str	r3, [r2, #16]
 637:./Libraries/STM32F4xx_HAL_Driver/Src/stm32f4xx_hal_flash_ex.c ****   FLASH->CR |= FLASH_CR_STRT;
 1129              		.loc 1 637 13
 1130 0080 054B     		ldr	r3, .L62
 1131 0082 1B69     		ldr	r3, [r3, #16]
 1132 0084 044A     		ldr	r2, .L62
 1133 0086 43F48033 		orr	r3, r3, #65536
 1134 008a 1361     		str	r3, [r2, #16]
 638:./Libraries/STM32F4xx_HAL_Driver/Src/stm32f4xx_hal_flash_ex.c **** }
 1135              		.loc 1 638 1
 1136 008c 00BF     		nop
 1137 008e 1437     		adds	r7, r7, #20
 1138              	.LCFI56:
 1139              		.cfi_def_cfa_offset 4
 1140 0090 BD46     		mov	sp, r7
 1141              	.LCFI57:
 1142              		.cfi_def_cfa_register 13
 1143              		@ sp needed
ARM GAS  /tmp/cc52q51R.s 			page 32


 1144 0092 5DF8047B 		ldr	r7, [sp], #4
 1145              	.LCFI58:
 1146              		.cfi_restore 7
 1147              		.cfi_def_cfa_offset 0
 1148 0096 7047     		bx	lr
 1149              	.L63:
 1150              		.align	2
 1151              	.L62:
 1152 0098 003C0240 		.word	1073888256
 1153              		.cfi_endproc
 1154              	.LFE136:
 1156              		.section	.text.FLASH_OB_EnableWRP,"ax",%progbits
 1157              		.align	1
 1158              		.syntax unified
 1159              		.thumb
 1160              		.thumb_func
 1161              		.fpu fpv4-sp-d16
 1163              	FLASH_OB_EnableWRP:
 1164              	.LFB137:
 639:./Libraries/STM32F4xx_HAL_Driver/Src/stm32f4xx_hal_flash_ex.c **** 
 640:./Libraries/STM32F4xx_HAL_Driver/Src/stm32f4xx_hal_flash_ex.c **** /**
 641:./Libraries/STM32F4xx_HAL_Driver/Src/stm32f4xx_hal_flash_ex.c ****   * @brief  Enable the write protection of the desired bank1 or bank 2 sectors
 642:./Libraries/STM32F4xx_HAL_Driver/Src/stm32f4xx_hal_flash_ex.c ****   *
 643:./Libraries/STM32F4xx_HAL_Driver/Src/stm32f4xx_hal_flash_ex.c ****   * @note   When the memory read protection level is selected (RDP level = 1), 
 644:./Libraries/STM32F4xx_HAL_Driver/Src/stm32f4xx_hal_flash_ex.c ****   *         it is not possible to program or erase the flash sector i if CortexM4  
 645:./Libraries/STM32F4xx_HAL_Driver/Src/stm32f4xx_hal_flash_ex.c ****   *         debug features are connected or boot code is executed in RAM, even if nWRPi = 1 
 646:./Libraries/STM32F4xx_HAL_Driver/Src/stm32f4xx_hal_flash_ex.c ****   * @note   Active value of nWRPi bits is inverted when PCROP mode is active (SPRMOD =1).   
 647:./Libraries/STM32F4xx_HAL_Driver/Src/stm32f4xx_hal_flash_ex.c ****   * 
 648:./Libraries/STM32F4xx_HAL_Driver/Src/stm32f4xx_hal_flash_ex.c ****   * @param  WRPSector specifies the sector(s) to be write protected.
 649:./Libraries/STM32F4xx_HAL_Driver/Src/stm32f4xx_hal_flash_ex.c ****   *          This parameter can be one of the following values:
 650:./Libraries/STM32F4xx_HAL_Driver/Src/stm32f4xx_hal_flash_ex.c ****   *            @arg WRPSector: A value between OB_WRP_SECTOR_0 and OB_WRP_SECTOR_23
 651:./Libraries/STM32F4xx_HAL_Driver/Src/stm32f4xx_hal_flash_ex.c ****   *            @arg OB_WRP_SECTOR_All
 652:./Libraries/STM32F4xx_HAL_Driver/Src/stm32f4xx_hal_flash_ex.c ****   * @note   BANK2 starts from OB_WRP_SECTOR_12
 653:./Libraries/STM32F4xx_HAL_Driver/Src/stm32f4xx_hal_flash_ex.c ****   *
 654:./Libraries/STM32F4xx_HAL_Driver/Src/stm32f4xx_hal_flash_ex.c ****   * @param  Banks Enable write protection on all the sectors for the specific bank
 655:./Libraries/STM32F4xx_HAL_Driver/Src/stm32f4xx_hal_flash_ex.c ****   *          This parameter can be one of the following values:
 656:./Libraries/STM32F4xx_HAL_Driver/Src/stm32f4xx_hal_flash_ex.c ****   *            @arg FLASH_BANK_1: WRP on all sectors of bank1
 657:./Libraries/STM32F4xx_HAL_Driver/Src/stm32f4xx_hal_flash_ex.c ****   *            @arg FLASH_BANK_2: WRP on all sectors of bank2
 658:./Libraries/STM32F4xx_HAL_Driver/Src/stm32f4xx_hal_flash_ex.c ****   *            @arg FLASH_BANK_BOTH: WRP on all sectors of bank1 & bank2
 659:./Libraries/STM32F4xx_HAL_Driver/Src/stm32f4xx_hal_flash_ex.c ****   *
 660:./Libraries/STM32F4xx_HAL_Driver/Src/stm32f4xx_hal_flash_ex.c ****   * @retval HAL FLASH State   
 661:./Libraries/STM32F4xx_HAL_Driver/Src/stm32f4xx_hal_flash_ex.c ****   */
 662:./Libraries/STM32F4xx_HAL_Driver/Src/stm32f4xx_hal_flash_ex.c **** static HAL_StatusTypeDef FLASH_OB_EnableWRP(uint32_t WRPSector, uint32_t Banks)
 663:./Libraries/STM32F4xx_HAL_Driver/Src/stm32f4xx_hal_flash_ex.c **** {
 1165              		.loc 1 663 1
 1166              		.cfi_startproc
 1167              		@ args = 0, pretend = 0, frame = 16
 1168              		@ frame_needed = 1, uses_anonymous_args = 0
 1169 0000 80B5     		push	{r7, lr}
 1170              	.LCFI59:
 1171              		.cfi_def_cfa_offset 8
 1172              		.cfi_offset 7, -8
 1173              		.cfi_offset 14, -4
 1174 0002 84B0     		sub	sp, sp, #16
 1175              	.LCFI60:
 1176              		.cfi_def_cfa_offset 24
 1177 0004 00AF     		add	r7, sp, #0
ARM GAS  /tmp/cc52q51R.s 			page 33


 1178              	.LCFI61:
 1179              		.cfi_def_cfa_register 7
 1180 0006 7860     		str	r0, [r7, #4]
 1181 0008 3960     		str	r1, [r7]
 664:./Libraries/STM32F4xx_HAL_Driver/Src/stm32f4xx_hal_flash_ex.c ****   HAL_StatusTypeDef status = HAL_OK;
 1182              		.loc 1 664 21
 1183 000a 0023     		movs	r3, #0
 1184 000c FB73     		strb	r3, [r7, #15]
 665:./Libraries/STM32F4xx_HAL_Driver/Src/stm32f4xx_hal_flash_ex.c ****   
 666:./Libraries/STM32F4xx_HAL_Driver/Src/stm32f4xx_hal_flash_ex.c ****   /* Check the parameters */
 667:./Libraries/STM32F4xx_HAL_Driver/Src/stm32f4xx_hal_flash_ex.c ****   assert_param(IS_OB_WRP_SECTOR(WRPSector));
 668:./Libraries/STM32F4xx_HAL_Driver/Src/stm32f4xx_hal_flash_ex.c ****   assert_param(IS_FLASH_BANK(Banks));
 669:./Libraries/STM32F4xx_HAL_Driver/Src/stm32f4xx_hal_flash_ex.c ****     
 670:./Libraries/STM32F4xx_HAL_Driver/Src/stm32f4xx_hal_flash_ex.c ****   /* Wait for last operation to be completed */
 671:./Libraries/STM32F4xx_HAL_Driver/Src/stm32f4xx_hal_flash_ex.c ****   status = FLASH_WaitForLastOperation((uint32_t)FLASH_TIMEOUT_VALUE);
 1185              		.loc 1 671 12
 1186 000e 4CF25030 		movw	r0, #50000
 1187 0012 FFF7FEFF 		bl	FLASH_WaitForLastOperation
 1188 0016 0346     		mov	r3, r0
 1189 0018 FB73     		strb	r3, [r7, #15]
 672:./Libraries/STM32F4xx_HAL_Driver/Src/stm32f4xx_hal_flash_ex.c **** 
 673:./Libraries/STM32F4xx_HAL_Driver/Src/stm32f4xx_hal_flash_ex.c ****   if(status == HAL_OK)
 1190              		.loc 1 673 5
 1191 001a FB7B     		ldrb	r3, [r7, #15]	@ zero_extendqisi2
 1192 001c 002B     		cmp	r3, #0
 1193 001e 52D1     		bne	.L65
 674:./Libraries/STM32F4xx_HAL_Driver/Src/stm32f4xx_hal_flash_ex.c ****   {
 675:./Libraries/STM32F4xx_HAL_Driver/Src/stm32f4xx_hal_flash_ex.c ****     if(((WRPSector == OB_WRP_SECTOR_All) && ((Banks == FLASH_BANK_1) || (Banks == FLASH_BANK_BOTH))
 1194              		.loc 1 675 7
 1195 0020 7B68     		ldr	r3, [r7, #4]
 1196 0022 2B4A     		ldr	r2, .L73
 1197 0024 9342     		cmp	r3, r2
 1198 0026 05D1     		bne	.L66
 1199              		.loc 1 675 42 discriminator 1
 1200 0028 3B68     		ldr	r3, [r7]
 1201 002a 012B     		cmp	r3, #1
 1202 002c 06D0     		beq	.L67
 1203              		.loc 1 675 70 discriminator 3
 1204 002e 3B68     		ldr	r3, [r7]
 1205 0030 032B     		cmp	r3, #3
 1206 0032 03D0     		beq	.L67
 1207              	.L66:
 1208              		.loc 1 675 102 discriminator 4
 1209 0034 7B68     		ldr	r3, [r7, #4]
 1210 0036 B3F5805F 		cmp	r3, #4096
 1211 003a 1CD2     		bcs	.L68
 1212              	.L67:
 676:./Libraries/STM32F4xx_HAL_Driver/Src/stm32f4xx_hal_flash_ex.c ****          (WRPSector < OB_WRP_SECTOR_12))
 677:./Libraries/STM32F4xx_HAL_Driver/Src/stm32f4xx_hal_flash_ex.c ****     {
 678:./Libraries/STM32F4xx_HAL_Driver/Src/stm32f4xx_hal_flash_ex.c ****        if(WRPSector == OB_WRP_SECTOR_All)
 1213              		.loc 1 678 10
 1214 003c 7B68     		ldr	r3, [r7, #4]
 1215 003e 244A     		ldr	r2, .L73
 1216 0040 9342     		cmp	r3, r2
 1217 0042 0CD1     		bne	.L69
 679:./Libraries/STM32F4xx_HAL_Driver/Src/stm32f4xx_hal_flash_ex.c ****        {
 680:./Libraries/STM32F4xx_HAL_Driver/Src/stm32f4xx_hal_flash_ex.c ****           /*Write protection on all sector of BANK1*/
ARM GAS  /tmp/cc52q51R.s 			page 34


 681:./Libraries/STM32F4xx_HAL_Driver/Src/stm32f4xx_hal_flash_ex.c ****           *(__IO uint16_t*)OPTCR_BYTE2_ADDRESS &= (~(WRPSector>>12));  
 1218              		.loc 1 681 48
 1219 0044 234B     		ldr	r3, .L73+4
 1220 0046 1B88     		ldrh	r3, [r3]	@ movhi
 1221 0048 9AB2     		uxth	r2, r3
 1222              		.loc 1 681 63
 1223 004a 7B68     		ldr	r3, [r7, #4]
 1224 004c 1B0B     		lsrs	r3, r3, #12
 1225              		.loc 1 681 48
 1226 004e 9BB2     		uxth	r3, r3
 1227 0050 DB43     		mvns	r3, r3
 1228 0052 9BB2     		uxth	r3, r3
 1229 0054 1F49     		ldr	r1, .L73+4
 1230 0056 1340     		ands	r3, r3, r2
 1231 0058 9BB2     		uxth	r3, r3
 1232 005a 0B80     		strh	r3, [r1]	@ movhi
 678:./Libraries/STM32F4xx_HAL_Driver/Src/stm32f4xx_hal_flash_ex.c ****        {
 1233              		.loc 1 678 10
 1234 005c 17E0     		b	.L71
 1235              	.L69:
 682:./Libraries/STM32F4xx_HAL_Driver/Src/stm32f4xx_hal_flash_ex.c ****        }
 683:./Libraries/STM32F4xx_HAL_Driver/Src/stm32f4xx_hal_flash_ex.c ****        else
 684:./Libraries/STM32F4xx_HAL_Driver/Src/stm32f4xx_hal_flash_ex.c ****        {
 685:./Libraries/STM32F4xx_HAL_Driver/Src/stm32f4xx_hal_flash_ex.c ****           /*Write protection done on sectors of BANK1*/
 686:./Libraries/STM32F4xx_HAL_Driver/Src/stm32f4xx_hal_flash_ex.c ****           *(__IO uint16_t*)OPTCR_BYTE2_ADDRESS &= (~WRPSector);  
 1236              		.loc 1 686 48
 1237 005e 1D4B     		ldr	r3, .L73+4
 1238 0060 1B88     		ldrh	r3, [r3]	@ movhi
 1239 0062 9AB2     		uxth	r2, r3
 1240 0064 7B68     		ldr	r3, [r7, #4]
 1241 0066 9BB2     		uxth	r3, r3
 1242 0068 DB43     		mvns	r3, r3
 1243 006a 9BB2     		uxth	r3, r3
 1244 006c 1949     		ldr	r1, .L73+4
 1245 006e 1340     		ands	r3, r3, r2
 1246 0070 9BB2     		uxth	r3, r3
 1247 0072 0B80     		strh	r3, [r1]	@ movhi
 678:./Libraries/STM32F4xx_HAL_Driver/Src/stm32f4xx_hal_flash_ex.c ****        {
 1248              		.loc 1 678 10
 1249 0074 0BE0     		b	.L71
 1250              	.L68:
 687:./Libraries/STM32F4xx_HAL_Driver/Src/stm32f4xx_hal_flash_ex.c ****        }
 688:./Libraries/STM32F4xx_HAL_Driver/Src/stm32f4xx_hal_flash_ex.c ****     }
 689:./Libraries/STM32F4xx_HAL_Driver/Src/stm32f4xx_hal_flash_ex.c ****     else 
 690:./Libraries/STM32F4xx_HAL_Driver/Src/stm32f4xx_hal_flash_ex.c ****     {
 691:./Libraries/STM32F4xx_HAL_Driver/Src/stm32f4xx_hal_flash_ex.c ****       /*Write protection done on sectors of BANK2*/
 692:./Libraries/STM32F4xx_HAL_Driver/Src/stm32f4xx_hal_flash_ex.c ****       *(__IO uint16_t*)OPTCR1_BYTE2_ADDRESS &= (~(WRPSector>>12));  
 1251              		.loc 1 692 45
 1252 0076 184B     		ldr	r3, .L73+8
 1253 0078 1B88     		ldrh	r3, [r3]	@ movhi
 1254 007a 9AB2     		uxth	r2, r3
 1255              		.loc 1 692 60
 1256 007c 7B68     		ldr	r3, [r7, #4]
 1257 007e 1B0B     		lsrs	r3, r3, #12
 1258              		.loc 1 692 45
 1259 0080 9BB2     		uxth	r3, r3
 1260 0082 DB43     		mvns	r3, r3
ARM GAS  /tmp/cc52q51R.s 			page 35


 1261 0084 9BB2     		uxth	r3, r3
 1262 0086 1449     		ldr	r1, .L73+8
 1263 0088 1340     		ands	r3, r3, r2
 1264 008a 9BB2     		uxth	r3, r3
 1265 008c 0B80     		strh	r3, [r1]	@ movhi
 1266              	.L71:
 693:./Libraries/STM32F4xx_HAL_Driver/Src/stm32f4xx_hal_flash_ex.c ****     }
 694:./Libraries/STM32F4xx_HAL_Driver/Src/stm32f4xx_hal_flash_ex.c **** 
 695:./Libraries/STM32F4xx_HAL_Driver/Src/stm32f4xx_hal_flash_ex.c ****     /*Write protection on all sector of BANK2*/
 696:./Libraries/STM32F4xx_HAL_Driver/Src/stm32f4xx_hal_flash_ex.c ****     if((WRPSector == OB_WRP_SECTOR_All) && (Banks == FLASH_BANK_BOTH))
 1267              		.loc 1 696 7
 1268 008e 7B68     		ldr	r3, [r7, #4]
 1269 0090 0F4A     		ldr	r2, .L73
 1270 0092 9342     		cmp	r3, r2
 1271 0094 17D1     		bne	.L65
 1272              		.loc 1 696 41 discriminator 1
 1273 0096 3B68     		ldr	r3, [r7]
 1274 0098 032B     		cmp	r3, #3
 1275 009a 14D1     		bne	.L65
 697:./Libraries/STM32F4xx_HAL_Driver/Src/stm32f4xx_hal_flash_ex.c ****     {
 698:./Libraries/STM32F4xx_HAL_Driver/Src/stm32f4xx_hal_flash_ex.c ****       /* Wait for last operation to be completed */
 699:./Libraries/STM32F4xx_HAL_Driver/Src/stm32f4xx_hal_flash_ex.c ****       status = FLASH_WaitForLastOperation((uint32_t)FLASH_TIMEOUT_VALUE);
 1276              		.loc 1 699 16
 1277 009c 4CF25030 		movw	r0, #50000
 1278 00a0 FFF7FEFF 		bl	FLASH_WaitForLastOperation
 1279 00a4 0346     		mov	r3, r0
 1280 00a6 FB73     		strb	r3, [r7, #15]
 700:./Libraries/STM32F4xx_HAL_Driver/Src/stm32f4xx_hal_flash_ex.c ****       
 701:./Libraries/STM32F4xx_HAL_Driver/Src/stm32f4xx_hal_flash_ex.c ****       if(status == HAL_OK)
 1281              		.loc 1 701 9
 1282 00a8 FB7B     		ldrb	r3, [r7, #15]	@ zero_extendqisi2
 1283 00aa 002B     		cmp	r3, #0
 1284 00ac 0BD1     		bne	.L65
 702:./Libraries/STM32F4xx_HAL_Driver/Src/stm32f4xx_hal_flash_ex.c ****       { 
 703:./Libraries/STM32F4xx_HAL_Driver/Src/stm32f4xx_hal_flash_ex.c ****         *(__IO uint16_t*)OPTCR1_BYTE2_ADDRESS &= (~(WRPSector>>12));  
 1285              		.loc 1 703 47
 1286 00ae 0A4B     		ldr	r3, .L73+8
 1287 00b0 1B88     		ldrh	r3, [r3]	@ movhi
 1288 00b2 9AB2     		uxth	r2, r3
 1289              		.loc 1 703 62
 1290 00b4 7B68     		ldr	r3, [r7, #4]
 1291 00b6 1B0B     		lsrs	r3, r3, #12
 1292              		.loc 1 703 47
 1293 00b8 9BB2     		uxth	r3, r3
 1294 00ba DB43     		mvns	r3, r3
 1295 00bc 9BB2     		uxth	r3, r3
 1296 00be 0649     		ldr	r1, .L73+8
 1297 00c0 1340     		ands	r3, r3, r2
 1298 00c2 9BB2     		uxth	r3, r3
 1299 00c4 0B80     		strh	r3, [r1]	@ movhi
 1300              	.L65:
 704:./Libraries/STM32F4xx_HAL_Driver/Src/stm32f4xx_hal_flash_ex.c ****       }
 705:./Libraries/STM32F4xx_HAL_Driver/Src/stm32f4xx_hal_flash_ex.c ****     }
 706:./Libraries/STM32F4xx_HAL_Driver/Src/stm32f4xx_hal_flash_ex.c ****     
 707:./Libraries/STM32F4xx_HAL_Driver/Src/stm32f4xx_hal_flash_ex.c ****   }
 708:./Libraries/STM32F4xx_HAL_Driver/Src/stm32f4xx_hal_flash_ex.c ****   return status;
 1301              		.loc 1 708 10
ARM GAS  /tmp/cc52q51R.s 			page 36


 1302 00c6 FB7B     		ldrb	r3, [r7, #15]	@ zero_extendqisi2
 709:./Libraries/STM32F4xx_HAL_Driver/Src/stm32f4xx_hal_flash_ex.c **** }
 1303              		.loc 1 709 1
 1304 00c8 1846     		mov	r0, r3
 1305 00ca 1037     		adds	r7, r7, #16
 1306              	.LCFI62:
 1307              		.cfi_def_cfa_offset 8
 1308 00cc BD46     		mov	sp, r7
 1309              	.LCFI63:
 1310              		.cfi_def_cfa_register 13
 1311              		@ sp needed
 1312 00ce 80BD     		pop	{r7, pc}
 1313              	.L74:
 1314              		.align	2
 1315              	.L73:
 1316 00d0 00F0FF00 		.word	16773120
 1317 00d4 163C0240 		.word	1073888278
 1318 00d8 1A3C0240 		.word	1073888282
 1319              		.cfi_endproc
 1320              	.LFE137:
 1322              		.section	.text.FLASH_OB_DisableWRP,"ax",%progbits
 1323              		.align	1
 1324              		.syntax unified
 1325              		.thumb
 1326              		.thumb_func
 1327              		.fpu fpv4-sp-d16
 1329              	FLASH_OB_DisableWRP:
 1330              	.LFB138:
 710:./Libraries/STM32F4xx_HAL_Driver/Src/stm32f4xx_hal_flash_ex.c **** 
 711:./Libraries/STM32F4xx_HAL_Driver/Src/stm32f4xx_hal_flash_ex.c **** /**
 712:./Libraries/STM32F4xx_HAL_Driver/Src/stm32f4xx_hal_flash_ex.c ****   * @brief  Disable the write protection of the desired bank1 or bank 2 sectors
 713:./Libraries/STM32F4xx_HAL_Driver/Src/stm32f4xx_hal_flash_ex.c ****   *
 714:./Libraries/STM32F4xx_HAL_Driver/Src/stm32f4xx_hal_flash_ex.c ****   * @note   When the memory read protection level is selected (RDP level = 1), 
 715:./Libraries/STM32F4xx_HAL_Driver/Src/stm32f4xx_hal_flash_ex.c ****   *         it is not possible to program or erase the flash sector i if CortexM4  
 716:./Libraries/STM32F4xx_HAL_Driver/Src/stm32f4xx_hal_flash_ex.c ****   *         debug features are connected or boot code is executed in RAM, even if nWRPi = 1 
 717:./Libraries/STM32F4xx_HAL_Driver/Src/stm32f4xx_hal_flash_ex.c ****   * @note   Active value of nWRPi bits is inverted when PCROP mode is active (SPRMOD =1).   
 718:./Libraries/STM32F4xx_HAL_Driver/Src/stm32f4xx_hal_flash_ex.c ****   * 
 719:./Libraries/STM32F4xx_HAL_Driver/Src/stm32f4xx_hal_flash_ex.c ****   * @param  WRPSector specifies the sector(s) to be write protected.
 720:./Libraries/STM32F4xx_HAL_Driver/Src/stm32f4xx_hal_flash_ex.c ****   *          This parameter can be one of the following values:
 721:./Libraries/STM32F4xx_HAL_Driver/Src/stm32f4xx_hal_flash_ex.c ****   *            @arg WRPSector: A value between OB_WRP_SECTOR_0 and OB_WRP_SECTOR_23
 722:./Libraries/STM32F4xx_HAL_Driver/Src/stm32f4xx_hal_flash_ex.c ****   *            @arg OB_WRP_Sector_All
 723:./Libraries/STM32F4xx_HAL_Driver/Src/stm32f4xx_hal_flash_ex.c ****   * @note   BANK2 starts from OB_WRP_SECTOR_12
 724:./Libraries/STM32F4xx_HAL_Driver/Src/stm32f4xx_hal_flash_ex.c ****   *
 725:./Libraries/STM32F4xx_HAL_Driver/Src/stm32f4xx_hal_flash_ex.c ****   * @param  Banks Disable write protection on all the sectors for the specific bank
 726:./Libraries/STM32F4xx_HAL_Driver/Src/stm32f4xx_hal_flash_ex.c ****   *          This parameter can be one of the following values:
 727:./Libraries/STM32F4xx_HAL_Driver/Src/stm32f4xx_hal_flash_ex.c ****   *            @arg FLASH_BANK_1: Bank1 to be erased
 728:./Libraries/STM32F4xx_HAL_Driver/Src/stm32f4xx_hal_flash_ex.c ****   *            @arg FLASH_BANK_2: Bank2 to be erased
 729:./Libraries/STM32F4xx_HAL_Driver/Src/stm32f4xx_hal_flash_ex.c ****   *            @arg FLASH_BANK_BOTH: Bank1 and Bank2 to be erased
 730:./Libraries/STM32F4xx_HAL_Driver/Src/stm32f4xx_hal_flash_ex.c ****   *
 731:./Libraries/STM32F4xx_HAL_Driver/Src/stm32f4xx_hal_flash_ex.c ****   * @retval HAL Status   
 732:./Libraries/STM32F4xx_HAL_Driver/Src/stm32f4xx_hal_flash_ex.c ****   */
 733:./Libraries/STM32F4xx_HAL_Driver/Src/stm32f4xx_hal_flash_ex.c **** static HAL_StatusTypeDef FLASH_OB_DisableWRP(uint32_t WRPSector, uint32_t Banks)
 734:./Libraries/STM32F4xx_HAL_Driver/Src/stm32f4xx_hal_flash_ex.c **** {
 1331              		.loc 1 734 1
 1332              		.cfi_startproc
 1333              		@ args = 0, pretend = 0, frame = 16
 1334              		@ frame_needed = 1, uses_anonymous_args = 0
ARM GAS  /tmp/cc52q51R.s 			page 37


 1335 0000 80B5     		push	{r7, lr}
 1336              	.LCFI64:
 1337              		.cfi_def_cfa_offset 8
 1338              		.cfi_offset 7, -8
 1339              		.cfi_offset 14, -4
 1340 0002 84B0     		sub	sp, sp, #16
 1341              	.LCFI65:
 1342              		.cfi_def_cfa_offset 24
 1343 0004 00AF     		add	r7, sp, #0
 1344              	.LCFI66:
 1345              		.cfi_def_cfa_register 7
 1346 0006 7860     		str	r0, [r7, #4]
 1347 0008 3960     		str	r1, [r7]
 735:./Libraries/STM32F4xx_HAL_Driver/Src/stm32f4xx_hal_flash_ex.c ****   HAL_StatusTypeDef status = HAL_OK;
 1348              		.loc 1 735 21
 1349 000a 0023     		movs	r3, #0
 1350 000c FB73     		strb	r3, [r7, #15]
 736:./Libraries/STM32F4xx_HAL_Driver/Src/stm32f4xx_hal_flash_ex.c ****   
 737:./Libraries/STM32F4xx_HAL_Driver/Src/stm32f4xx_hal_flash_ex.c ****   /* Check the parameters */
 738:./Libraries/STM32F4xx_HAL_Driver/Src/stm32f4xx_hal_flash_ex.c ****   assert_param(IS_OB_WRP_SECTOR(WRPSector));
 739:./Libraries/STM32F4xx_HAL_Driver/Src/stm32f4xx_hal_flash_ex.c ****   assert_param(IS_FLASH_BANK(Banks));
 740:./Libraries/STM32F4xx_HAL_Driver/Src/stm32f4xx_hal_flash_ex.c ****     
 741:./Libraries/STM32F4xx_HAL_Driver/Src/stm32f4xx_hal_flash_ex.c ****   /* Wait for last operation to be completed */
 742:./Libraries/STM32F4xx_HAL_Driver/Src/stm32f4xx_hal_flash_ex.c ****   status = FLASH_WaitForLastOperation((uint32_t)FLASH_TIMEOUT_VALUE);
 1351              		.loc 1 742 12
 1352 000e 4CF25030 		movw	r0, #50000
 1353 0012 FFF7FEFF 		bl	FLASH_WaitForLastOperation
 1354 0016 0346     		mov	r3, r0
 1355 0018 FB73     		strb	r3, [r7, #15]
 743:./Libraries/STM32F4xx_HAL_Driver/Src/stm32f4xx_hal_flash_ex.c **** 
 744:./Libraries/STM32F4xx_HAL_Driver/Src/stm32f4xx_hal_flash_ex.c ****   if(status == HAL_OK)
 1356              		.loc 1 744 5
 1357 001a FB7B     		ldrb	r3, [r7, #15]	@ zero_extendqisi2
 1358 001c 002B     		cmp	r3, #0
 1359 001e 4AD1     		bne	.L76
 745:./Libraries/STM32F4xx_HAL_Driver/Src/stm32f4xx_hal_flash_ex.c ****   {
 746:./Libraries/STM32F4xx_HAL_Driver/Src/stm32f4xx_hal_flash_ex.c ****     if(((WRPSector == OB_WRP_SECTOR_All) && ((Banks == FLASH_BANK_1) || (Banks == FLASH_BANK_BOTH))
 1360              		.loc 1 746 7
 1361 0020 7B68     		ldr	r3, [r7, #4]
 1362 0022 274A     		ldr	r2, .L84
 1363 0024 9342     		cmp	r3, r2
 1364 0026 05D1     		bne	.L77
 1365              		.loc 1 746 42 discriminator 1
 1366 0028 3B68     		ldr	r3, [r7]
 1367 002a 012B     		cmp	r3, #1
 1368 002c 06D0     		beq	.L78
 1369              		.loc 1 746 70 discriminator 3
 1370 002e 3B68     		ldr	r3, [r7]
 1371 0030 032B     		cmp	r3, #3
 1372 0032 03D0     		beq	.L78
 1373              	.L77:
 1374              		.loc 1 746 102 discriminator 4
 1375 0034 7B68     		ldr	r3, [r7, #4]
 1376 0036 B3F5805F 		cmp	r3, #4096
 1377 003a 18D2     		bcs	.L79
 1378              	.L78:
 747:./Libraries/STM32F4xx_HAL_Driver/Src/stm32f4xx_hal_flash_ex.c ****          (WRPSector < OB_WRP_SECTOR_12))
ARM GAS  /tmp/cc52q51R.s 			page 38


 748:./Libraries/STM32F4xx_HAL_Driver/Src/stm32f4xx_hal_flash_ex.c ****     {
 749:./Libraries/STM32F4xx_HAL_Driver/Src/stm32f4xx_hal_flash_ex.c ****        if(WRPSector == OB_WRP_SECTOR_All)
 1379              		.loc 1 749 10
 1380 003c 7B68     		ldr	r3, [r7, #4]
 1381 003e 204A     		ldr	r2, .L84
 1382 0040 9342     		cmp	r3, r2
 1383 0042 0AD1     		bne	.L80
 750:./Libraries/STM32F4xx_HAL_Driver/Src/stm32f4xx_hal_flash_ex.c ****        {
 751:./Libraries/STM32F4xx_HAL_Driver/Src/stm32f4xx_hal_flash_ex.c ****           /*Write protection on all sector of BANK1*/
 752:./Libraries/STM32F4xx_HAL_Driver/Src/stm32f4xx_hal_flash_ex.c ****           *(__IO uint16_t*)OPTCR_BYTE2_ADDRESS |= (uint16_t)(WRPSector>>12); 
 1384              		.loc 1 752 48
 1385 0044 1F4B     		ldr	r3, .L84+4
 1386 0046 1B88     		ldrh	r3, [r3]	@ movhi
 1387 0048 9AB2     		uxth	r2, r3
 1388              		.loc 1 752 71
 1389 004a 7B68     		ldr	r3, [r7, #4]
 1390 004c 1B0B     		lsrs	r3, r3, #12
 1391              		.loc 1 752 51
 1392 004e 9BB2     		uxth	r3, r3
 1393              		.loc 1 752 48
 1394 0050 1C49     		ldr	r1, .L84+4
 1395 0052 1343     		orrs	r3, r3, r2
 1396 0054 9BB2     		uxth	r3, r3
 1397 0056 0B80     		strh	r3, [r1]	@ movhi
 749:./Libraries/STM32F4xx_HAL_Driver/Src/stm32f4xx_hal_flash_ex.c ****        {
 1398              		.loc 1 749 10
 1399 0058 13E0     		b	.L82
 1400              	.L80:
 753:./Libraries/STM32F4xx_HAL_Driver/Src/stm32f4xx_hal_flash_ex.c ****        }
 754:./Libraries/STM32F4xx_HAL_Driver/Src/stm32f4xx_hal_flash_ex.c ****        else
 755:./Libraries/STM32F4xx_HAL_Driver/Src/stm32f4xx_hal_flash_ex.c ****        {
 756:./Libraries/STM32F4xx_HAL_Driver/Src/stm32f4xx_hal_flash_ex.c ****           /*Write protection done on sectors of BANK1*/
 757:./Libraries/STM32F4xx_HAL_Driver/Src/stm32f4xx_hal_flash_ex.c ****           *(__IO uint16_t*)OPTCR_BYTE2_ADDRESS |= (uint16_t)WRPSector; 
 1401              		.loc 1 757 48
 1402 005a 1A4B     		ldr	r3, .L84+4
 1403 005c 1B88     		ldrh	r3, [r3]	@ movhi
 1404 005e 9AB2     		uxth	r2, r3
 1405              		.loc 1 757 51
 1406 0060 7B68     		ldr	r3, [r7, #4]
 1407 0062 9BB2     		uxth	r3, r3
 1408              		.loc 1 757 48
 1409 0064 1749     		ldr	r1, .L84+4
 1410 0066 1343     		orrs	r3, r3, r2
 1411 0068 9BB2     		uxth	r3, r3
 1412 006a 0B80     		strh	r3, [r1]	@ movhi
 749:./Libraries/STM32F4xx_HAL_Driver/Src/stm32f4xx_hal_flash_ex.c ****        {
 1413              		.loc 1 749 10
 1414 006c 09E0     		b	.L82
 1415              	.L79:
 758:./Libraries/STM32F4xx_HAL_Driver/Src/stm32f4xx_hal_flash_ex.c ****        }
 759:./Libraries/STM32F4xx_HAL_Driver/Src/stm32f4xx_hal_flash_ex.c ****     }
 760:./Libraries/STM32F4xx_HAL_Driver/Src/stm32f4xx_hal_flash_ex.c ****     else 
 761:./Libraries/STM32F4xx_HAL_Driver/Src/stm32f4xx_hal_flash_ex.c ****     {
 762:./Libraries/STM32F4xx_HAL_Driver/Src/stm32f4xx_hal_flash_ex.c ****       /*Write protection done on sectors of BANK2*/
 763:./Libraries/STM32F4xx_HAL_Driver/Src/stm32f4xx_hal_flash_ex.c ****       *(__IO uint16_t*)OPTCR1_BYTE2_ADDRESS |= (uint16_t)(WRPSector>>12); 
 1416              		.loc 1 763 45
 1417 006e 164B     		ldr	r3, .L84+8
ARM GAS  /tmp/cc52q51R.s 			page 39


 1418 0070 1B88     		ldrh	r3, [r3]	@ movhi
 1419 0072 9AB2     		uxth	r2, r3
 1420              		.loc 1 763 68
 1421 0074 7B68     		ldr	r3, [r7, #4]
 1422 0076 1B0B     		lsrs	r3, r3, #12
 1423              		.loc 1 763 48
 1424 0078 9BB2     		uxth	r3, r3
 1425              		.loc 1 763 45
 1426 007a 1349     		ldr	r1, .L84+8
 1427 007c 1343     		orrs	r3, r3, r2
 1428 007e 9BB2     		uxth	r3, r3
 1429 0080 0B80     		strh	r3, [r1]	@ movhi
 1430              	.L82:
 764:./Libraries/STM32F4xx_HAL_Driver/Src/stm32f4xx_hal_flash_ex.c ****     }
 765:./Libraries/STM32F4xx_HAL_Driver/Src/stm32f4xx_hal_flash_ex.c **** 
 766:./Libraries/STM32F4xx_HAL_Driver/Src/stm32f4xx_hal_flash_ex.c ****     /*Write protection on all sector  of BANK2*/
 767:./Libraries/STM32F4xx_HAL_Driver/Src/stm32f4xx_hal_flash_ex.c ****     if((WRPSector == OB_WRP_SECTOR_All) && (Banks == FLASH_BANK_BOTH))
 1431              		.loc 1 767 7
 1432 0082 7B68     		ldr	r3, [r7, #4]
 1433 0084 0E4A     		ldr	r2, .L84
 1434 0086 9342     		cmp	r3, r2
 1435 0088 15D1     		bne	.L76
 1436              		.loc 1 767 41 discriminator 1
 1437 008a 3B68     		ldr	r3, [r7]
 1438 008c 032B     		cmp	r3, #3
 1439 008e 12D1     		bne	.L76
 768:./Libraries/STM32F4xx_HAL_Driver/Src/stm32f4xx_hal_flash_ex.c ****     {
 769:./Libraries/STM32F4xx_HAL_Driver/Src/stm32f4xx_hal_flash_ex.c ****       /* Wait for last operation to be completed */
 770:./Libraries/STM32F4xx_HAL_Driver/Src/stm32f4xx_hal_flash_ex.c ****       status = FLASH_WaitForLastOperation((uint32_t)FLASH_TIMEOUT_VALUE);
 1440              		.loc 1 770 16
 1441 0090 4CF25030 		movw	r0, #50000
 1442 0094 FFF7FEFF 		bl	FLASH_WaitForLastOperation
 1443 0098 0346     		mov	r3, r0
 1444 009a FB73     		strb	r3, [r7, #15]
 771:./Libraries/STM32F4xx_HAL_Driver/Src/stm32f4xx_hal_flash_ex.c ****       
 772:./Libraries/STM32F4xx_HAL_Driver/Src/stm32f4xx_hal_flash_ex.c ****       if(status == HAL_OK)
 1445              		.loc 1 772 9
 1446 009c FB7B     		ldrb	r3, [r7, #15]	@ zero_extendqisi2
 1447 009e 002B     		cmp	r3, #0
 1448 00a0 09D1     		bne	.L76
 773:./Libraries/STM32F4xx_HAL_Driver/Src/stm32f4xx_hal_flash_ex.c ****       { 
 774:./Libraries/STM32F4xx_HAL_Driver/Src/stm32f4xx_hal_flash_ex.c ****         *(__IO uint16_t*)OPTCR1_BYTE2_ADDRESS |= (uint16_t)(WRPSector>>12); 
 1449              		.loc 1 774 47
 1450 00a2 094B     		ldr	r3, .L84+8
 1451 00a4 1B88     		ldrh	r3, [r3]	@ movhi
 1452 00a6 9AB2     		uxth	r2, r3
 1453              		.loc 1 774 70
 1454 00a8 7B68     		ldr	r3, [r7, #4]
 1455 00aa 1B0B     		lsrs	r3, r3, #12
 1456              		.loc 1 774 50
 1457 00ac 9BB2     		uxth	r3, r3
 1458              		.loc 1 774 47
 1459 00ae 0649     		ldr	r1, .L84+8
 1460 00b0 1343     		orrs	r3, r3, r2
 1461 00b2 9BB2     		uxth	r3, r3
 1462 00b4 0B80     		strh	r3, [r1]	@ movhi
 1463              	.L76:
ARM GAS  /tmp/cc52q51R.s 			page 40


 775:./Libraries/STM32F4xx_HAL_Driver/Src/stm32f4xx_hal_flash_ex.c ****       }
 776:./Libraries/STM32F4xx_HAL_Driver/Src/stm32f4xx_hal_flash_ex.c ****     }
 777:./Libraries/STM32F4xx_HAL_Driver/Src/stm32f4xx_hal_flash_ex.c ****     
 778:./Libraries/STM32F4xx_HAL_Driver/Src/stm32f4xx_hal_flash_ex.c ****   }
 779:./Libraries/STM32F4xx_HAL_Driver/Src/stm32f4xx_hal_flash_ex.c **** 
 780:./Libraries/STM32F4xx_HAL_Driver/Src/stm32f4xx_hal_flash_ex.c ****   return status;
 1464              		.loc 1 780 10
 1465 00b6 FB7B     		ldrb	r3, [r7, #15]	@ zero_extendqisi2
 781:./Libraries/STM32F4xx_HAL_Driver/Src/stm32f4xx_hal_flash_ex.c **** }
 1466              		.loc 1 781 1
 1467 00b8 1846     		mov	r0, r3
 1468 00ba 1037     		adds	r7, r7, #16
 1469              	.LCFI67:
 1470              		.cfi_def_cfa_offset 8
 1471 00bc BD46     		mov	sp, r7
 1472              	.LCFI68:
 1473              		.cfi_def_cfa_register 13
 1474              		@ sp needed
 1475 00be 80BD     		pop	{r7, pc}
 1476              	.L85:
 1477              		.align	2
 1478              	.L84:
 1479 00c0 00F0FF00 		.word	16773120
 1480 00c4 163C0240 		.word	1073888278
 1481 00c8 1A3C0240 		.word	1073888282
 1482              		.cfi_endproc
 1483              	.LFE138:
 1485              		.section	.text.FLASH_OB_BootConfig,"ax",%progbits
 1486              		.align	1
 1487              		.syntax unified
 1488              		.thumb
 1489              		.thumb_func
 1490              		.fpu fpv4-sp-d16
 1492              	FLASH_OB_BootConfig:
 1493              	.LFB139:
 782:./Libraries/STM32F4xx_HAL_Driver/Src/stm32f4xx_hal_flash_ex.c **** 
 783:./Libraries/STM32F4xx_HAL_Driver/Src/stm32f4xx_hal_flash_ex.c **** /**
 784:./Libraries/STM32F4xx_HAL_Driver/Src/stm32f4xx_hal_flash_ex.c ****   * @brief  Configure the Dual Bank Boot.
 785:./Libraries/STM32F4xx_HAL_Driver/Src/stm32f4xx_hal_flash_ex.c ****   *   
 786:./Libraries/STM32F4xx_HAL_Driver/Src/stm32f4xx_hal_flash_ex.c ****   * @note   This function can be used only for STM32F42xxx/43xxx devices.
 787:./Libraries/STM32F4xx_HAL_Driver/Src/stm32f4xx_hal_flash_ex.c ****   *      
 788:./Libraries/STM32F4xx_HAL_Driver/Src/stm32f4xx_hal_flash_ex.c ****   * @param  BootConfig specifies the Dual Bank Boot Option byte.
 789:./Libraries/STM32F4xx_HAL_Driver/Src/stm32f4xx_hal_flash_ex.c ****   *          This parameter can be one of the following values:
 790:./Libraries/STM32F4xx_HAL_Driver/Src/stm32f4xx_hal_flash_ex.c ****   *            @arg OB_Dual_BootEnabled: Dual Bank Boot Enable
 791:./Libraries/STM32F4xx_HAL_Driver/Src/stm32f4xx_hal_flash_ex.c ****   *            @arg OB_Dual_BootDisabled: Dual Bank Boot Disabled
 792:./Libraries/STM32F4xx_HAL_Driver/Src/stm32f4xx_hal_flash_ex.c ****   * @retval None
 793:./Libraries/STM32F4xx_HAL_Driver/Src/stm32f4xx_hal_flash_ex.c ****   */
 794:./Libraries/STM32F4xx_HAL_Driver/Src/stm32f4xx_hal_flash_ex.c **** static HAL_StatusTypeDef FLASH_OB_BootConfig(uint8_t BootConfig)
 795:./Libraries/STM32F4xx_HAL_Driver/Src/stm32f4xx_hal_flash_ex.c **** {
 1494              		.loc 1 795 1
 1495              		.cfi_startproc
 1496              		@ args = 0, pretend = 0, frame = 16
 1497              		@ frame_needed = 1, uses_anonymous_args = 0
 1498 0000 80B5     		push	{r7, lr}
 1499              	.LCFI69:
 1500              		.cfi_def_cfa_offset 8
 1501              		.cfi_offset 7, -8
ARM GAS  /tmp/cc52q51R.s 			page 41


 1502              		.cfi_offset 14, -4
 1503 0002 84B0     		sub	sp, sp, #16
 1504              	.LCFI70:
 1505              		.cfi_def_cfa_offset 24
 1506 0004 00AF     		add	r7, sp, #0
 1507              	.LCFI71:
 1508              		.cfi_def_cfa_register 7
 1509 0006 0346     		mov	r3, r0
 1510 0008 FB71     		strb	r3, [r7, #7]
 796:./Libraries/STM32F4xx_HAL_Driver/Src/stm32f4xx_hal_flash_ex.c ****   HAL_StatusTypeDef status = HAL_OK;
 1511              		.loc 1 796 21
 1512 000a 0023     		movs	r3, #0
 1513 000c FB73     		strb	r3, [r7, #15]
 797:./Libraries/STM32F4xx_HAL_Driver/Src/stm32f4xx_hal_flash_ex.c **** 
 798:./Libraries/STM32F4xx_HAL_Driver/Src/stm32f4xx_hal_flash_ex.c ****   /* Check the parameters */
 799:./Libraries/STM32F4xx_HAL_Driver/Src/stm32f4xx_hal_flash_ex.c ****   assert_param(IS_OB_BOOT(BootConfig));
 800:./Libraries/STM32F4xx_HAL_Driver/Src/stm32f4xx_hal_flash_ex.c **** 
 801:./Libraries/STM32F4xx_HAL_Driver/Src/stm32f4xx_hal_flash_ex.c ****   /* Wait for last operation to be completed */  
 802:./Libraries/STM32F4xx_HAL_Driver/Src/stm32f4xx_hal_flash_ex.c ****   status = FLASH_WaitForLastOperation((uint32_t)FLASH_TIMEOUT_VALUE);
 1514              		.loc 1 802 12
 1515 000e 4CF25030 		movw	r0, #50000
 1516 0012 FFF7FEFF 		bl	FLASH_WaitForLastOperation
 1517 0016 0346     		mov	r3, r0
 1518 0018 FB73     		strb	r3, [r7, #15]
 803:./Libraries/STM32F4xx_HAL_Driver/Src/stm32f4xx_hal_flash_ex.c **** 
 804:./Libraries/STM32F4xx_HAL_Driver/Src/stm32f4xx_hal_flash_ex.c ****   if(status == HAL_OK)
 1519              		.loc 1 804 5
 1520 001a FB7B     		ldrb	r3, [r7, #15]	@ zero_extendqisi2
 1521 001c 002B     		cmp	r3, #0
 1522 001e 0FD1     		bne	.L87
 805:./Libraries/STM32F4xx_HAL_Driver/Src/stm32f4xx_hal_flash_ex.c ****   { 
 806:./Libraries/STM32F4xx_HAL_Driver/Src/stm32f4xx_hal_flash_ex.c ****     /* Set Dual Bank Boot */
 807:./Libraries/STM32F4xx_HAL_Driver/Src/stm32f4xx_hal_flash_ex.c ****     *(__IO uint8_t *)OPTCR_BYTE0_ADDRESS &= (~FLASH_OPTCR_BFB2);
 1523              		.loc 1 807 42
 1524 0020 0A4B     		ldr	r3, .L89
 1525 0022 1B78     		ldrb	r3, [r3]
 1526 0024 DBB2     		uxtb	r3, r3
 1527 0026 094A     		ldr	r2, .L89
 1528 0028 23F01003 		bic	r3, r3, #16
 1529 002c DBB2     		uxtb	r3, r3
 1530 002e 1370     		strb	r3, [r2]
 808:./Libraries/STM32F4xx_HAL_Driver/Src/stm32f4xx_hal_flash_ex.c ****     *(__IO uint8_t *)OPTCR_BYTE0_ADDRESS |= BootConfig;
 1531              		.loc 1 808 42
 1532 0030 064B     		ldr	r3, .L89
 1533 0032 1B78     		ldrb	r3, [r3]
 1534 0034 DAB2     		uxtb	r2, r3
 1535 0036 0549     		ldr	r1, .L89
 1536 0038 FB79     		ldrb	r3, [r7, #7]
 1537 003a 1343     		orrs	r3, r3, r2
 1538 003c DBB2     		uxtb	r3, r3
 1539 003e 0B70     		strb	r3, [r1]
 1540              	.L87:
 809:./Libraries/STM32F4xx_HAL_Driver/Src/stm32f4xx_hal_flash_ex.c ****   }
 810:./Libraries/STM32F4xx_HAL_Driver/Src/stm32f4xx_hal_flash_ex.c ****   
 811:./Libraries/STM32F4xx_HAL_Driver/Src/stm32f4xx_hal_flash_ex.c ****   return status;
 1541              		.loc 1 811 10
 1542 0040 FB7B     		ldrb	r3, [r7, #15]	@ zero_extendqisi2
ARM GAS  /tmp/cc52q51R.s 			page 42


 812:./Libraries/STM32F4xx_HAL_Driver/Src/stm32f4xx_hal_flash_ex.c **** }
 1543              		.loc 1 812 1
 1544 0042 1846     		mov	r0, r3
 1545 0044 1037     		adds	r7, r7, #16
 1546              	.LCFI72:
 1547              		.cfi_def_cfa_offset 8
 1548 0046 BD46     		mov	sp, r7
 1549              	.LCFI73:
 1550              		.cfi_def_cfa_register 13
 1551              		@ sp needed
 1552 0048 80BD     		pop	{r7, pc}
 1553              	.L90:
 1554 004a 00BF     		.align	2
 1555              	.L89:
 1556 004c 143C0240 		.word	1073888276
 1557              		.cfi_endproc
 1558              	.LFE139:
 1560              		.section	.text.FLASH_OB_EnablePCROP,"ax",%progbits
 1561              		.align	1
 1562              		.syntax unified
 1563              		.thumb
 1564              		.thumb_func
 1565              		.fpu fpv4-sp-d16
 1567              	FLASH_OB_EnablePCROP:
 1568              	.LFB140:
 813:./Libraries/STM32F4xx_HAL_Driver/Src/stm32f4xx_hal_flash_ex.c **** 
 814:./Libraries/STM32F4xx_HAL_Driver/Src/stm32f4xx_hal_flash_ex.c **** /**
 815:./Libraries/STM32F4xx_HAL_Driver/Src/stm32f4xx_hal_flash_ex.c ****   * @brief  Enable the read/write protection (PCROP) of the desired 
 816:./Libraries/STM32F4xx_HAL_Driver/Src/stm32f4xx_hal_flash_ex.c ****   *         sectors of Bank 1 and/or Bank 2.
 817:./Libraries/STM32F4xx_HAL_Driver/Src/stm32f4xx_hal_flash_ex.c ****   * @note   This function can be used only for STM32F42xxx/43xxx devices.
 818:./Libraries/STM32F4xx_HAL_Driver/Src/stm32f4xx_hal_flash_ex.c ****   * @param  SectorBank1 Specifies the sector(s) to be read/write protected or unprotected for bank1
 819:./Libraries/STM32F4xx_HAL_Driver/Src/stm32f4xx_hal_flash_ex.c ****   *          This parameter can be one of the following values:
 820:./Libraries/STM32F4xx_HAL_Driver/Src/stm32f4xx_hal_flash_ex.c ****   *            @arg OB_PCROP: A value between OB_PCROP_SECTOR_0 and OB_PCROP_SECTOR_11
 821:./Libraries/STM32F4xx_HAL_Driver/Src/stm32f4xx_hal_flash_ex.c ****   *            @arg OB_PCROP_SECTOR__All                         
 822:./Libraries/STM32F4xx_HAL_Driver/Src/stm32f4xx_hal_flash_ex.c ****   * @param  SectorBank2 Specifies the sector(s) to be read/write protected or unprotected for bank2
 823:./Libraries/STM32F4xx_HAL_Driver/Src/stm32f4xx_hal_flash_ex.c ****   *          This parameter can be one of the following values:
 824:./Libraries/STM32F4xx_HAL_Driver/Src/stm32f4xx_hal_flash_ex.c ****   *            @arg OB_PCROP: A value between OB_PCROP_SECTOR_12 and OB_PCROP_SECTOR_23
 825:./Libraries/STM32F4xx_HAL_Driver/Src/stm32f4xx_hal_flash_ex.c ****   *            @arg OB_PCROP_SECTOR__All                         
 826:./Libraries/STM32F4xx_HAL_Driver/Src/stm32f4xx_hal_flash_ex.c ****   * @param  Banks Enable PCROP protection on all the sectors for the specific bank
 827:./Libraries/STM32F4xx_HAL_Driver/Src/stm32f4xx_hal_flash_ex.c ****   *          This parameter can be one of the following values:
 828:./Libraries/STM32F4xx_HAL_Driver/Src/stm32f4xx_hal_flash_ex.c ****   *            @arg FLASH_BANK_1: WRP on all sectors of bank1
 829:./Libraries/STM32F4xx_HAL_Driver/Src/stm32f4xx_hal_flash_ex.c ****   *            @arg FLASH_BANK_2: WRP on all sectors of bank2
 830:./Libraries/STM32F4xx_HAL_Driver/Src/stm32f4xx_hal_flash_ex.c ****   *            @arg FLASH_BANK_BOTH: WRP on all sectors of bank1 & bank2
 831:./Libraries/STM32F4xx_HAL_Driver/Src/stm32f4xx_hal_flash_ex.c ****   *
 832:./Libraries/STM32F4xx_HAL_Driver/Src/stm32f4xx_hal_flash_ex.c ****   * @retval HAL Status  
 833:./Libraries/STM32F4xx_HAL_Driver/Src/stm32f4xx_hal_flash_ex.c ****   */
 834:./Libraries/STM32F4xx_HAL_Driver/Src/stm32f4xx_hal_flash_ex.c **** static HAL_StatusTypeDef FLASH_OB_EnablePCROP(uint32_t SectorBank1, uint32_t SectorBank2, uint32_t 
 835:./Libraries/STM32F4xx_HAL_Driver/Src/stm32f4xx_hal_flash_ex.c **** {
 1569              		.loc 1 835 1
 1570              		.cfi_startproc
 1571              		@ args = 0, pretend = 0, frame = 24
 1572              		@ frame_needed = 1, uses_anonymous_args = 0
 1573 0000 80B5     		push	{r7, lr}
 1574              	.LCFI74:
 1575              		.cfi_def_cfa_offset 8
 1576              		.cfi_offset 7, -8
 1577              		.cfi_offset 14, -4
ARM GAS  /tmp/cc52q51R.s 			page 43


 1578 0002 86B0     		sub	sp, sp, #24
 1579              	.LCFI75:
 1580              		.cfi_def_cfa_offset 32
 1581 0004 00AF     		add	r7, sp, #0
 1582              	.LCFI76:
 1583              		.cfi_def_cfa_register 7
 1584 0006 F860     		str	r0, [r7, #12]
 1585 0008 B960     		str	r1, [r7, #8]
 1586 000a 7A60     		str	r2, [r7, #4]
 836:./Libraries/STM32F4xx_HAL_Driver/Src/stm32f4xx_hal_flash_ex.c ****   HAL_StatusTypeDef status = HAL_OK;
 1587              		.loc 1 836 21
 1588 000c 0023     		movs	r3, #0
 1589 000e FB75     		strb	r3, [r7, #23]
 837:./Libraries/STM32F4xx_HAL_Driver/Src/stm32f4xx_hal_flash_ex.c ****   
 838:./Libraries/STM32F4xx_HAL_Driver/Src/stm32f4xx_hal_flash_ex.c ****   assert_param(IS_FLASH_BANK(Banks));
 839:./Libraries/STM32F4xx_HAL_Driver/Src/stm32f4xx_hal_flash_ex.c ****     
 840:./Libraries/STM32F4xx_HAL_Driver/Src/stm32f4xx_hal_flash_ex.c ****   /* Wait for last operation to be completed */
 841:./Libraries/STM32F4xx_HAL_Driver/Src/stm32f4xx_hal_flash_ex.c ****   status = FLASH_WaitForLastOperation((uint32_t)FLASH_TIMEOUT_VALUE);
 1590              		.loc 1 841 12
 1591 0010 4CF25030 		movw	r0, #50000
 1592 0014 FFF7FEFF 		bl	FLASH_WaitForLastOperation
 1593 0018 0346     		mov	r3, r0
 1594 001a FB75     		strb	r3, [r7, #23]
 842:./Libraries/STM32F4xx_HAL_Driver/Src/stm32f4xx_hal_flash_ex.c **** 
 843:./Libraries/STM32F4xx_HAL_Driver/Src/stm32f4xx_hal_flash_ex.c ****   if(status == HAL_OK)
 1595              		.loc 1 843 5
 1596 001c FB7D     		ldrb	r3, [r7, #23]	@ zero_extendqisi2
 1597 001e 002B     		cmp	r3, #0
 1598 0020 2DD1     		bne	.L92
 844:./Libraries/STM32F4xx_HAL_Driver/Src/stm32f4xx_hal_flash_ex.c ****   {
 845:./Libraries/STM32F4xx_HAL_Driver/Src/stm32f4xx_hal_flash_ex.c ****     if((Banks == FLASH_BANK_1) || (Banks == FLASH_BANK_BOTH))
 1599              		.loc 1 845 7
 1600 0022 7B68     		ldr	r3, [r7, #4]
 1601 0024 012B     		cmp	r3, #1
 1602 0026 02D0     		beq	.L93
 1603              		.loc 1 845 32 discriminator 1
 1604 0028 7B68     		ldr	r3, [r7, #4]
 1605 002a 032B     		cmp	r3, #3
 1606 002c 09D1     		bne	.L94
 1607              	.L93:
 846:./Libraries/STM32F4xx_HAL_Driver/Src/stm32f4xx_hal_flash_ex.c ****     {
 847:./Libraries/STM32F4xx_HAL_Driver/Src/stm32f4xx_hal_flash_ex.c ****       assert_param(IS_OB_PCROP(SectorBank1));
 848:./Libraries/STM32F4xx_HAL_Driver/Src/stm32f4xx_hal_flash_ex.c ****       /*Write protection done on sectors of BANK1*/
 849:./Libraries/STM32F4xx_HAL_Driver/Src/stm32f4xx_hal_flash_ex.c ****       *(__IO uint16_t*)OPTCR_BYTE2_ADDRESS |= (uint16_t)SectorBank1; 
 1608              		.loc 1 849 44
 1609 002e 164B     		ldr	r3, .L97
 1610 0030 1B88     		ldrh	r3, [r3]	@ movhi
 1611 0032 9AB2     		uxth	r2, r3
 1612              		.loc 1 849 47
 1613 0034 FB68     		ldr	r3, [r7, #12]
 1614 0036 9BB2     		uxth	r3, r3
 1615              		.loc 1 849 44
 1616 0038 1349     		ldr	r1, .L97
 1617 003a 1343     		orrs	r3, r3, r2
 1618 003c 9BB2     		uxth	r3, r3
 1619 003e 0B80     		strh	r3, [r1]	@ movhi
 1620 0040 08E0     		b	.L95
ARM GAS  /tmp/cc52q51R.s 			page 44


 1621              	.L94:
 850:./Libraries/STM32F4xx_HAL_Driver/Src/stm32f4xx_hal_flash_ex.c ****     }
 851:./Libraries/STM32F4xx_HAL_Driver/Src/stm32f4xx_hal_flash_ex.c ****     else 
 852:./Libraries/STM32F4xx_HAL_Driver/Src/stm32f4xx_hal_flash_ex.c ****     {
 853:./Libraries/STM32F4xx_HAL_Driver/Src/stm32f4xx_hal_flash_ex.c ****       assert_param(IS_OB_PCROP(SectorBank2));
 854:./Libraries/STM32F4xx_HAL_Driver/Src/stm32f4xx_hal_flash_ex.c ****       /*Write protection done on sectors of BANK2*/
 855:./Libraries/STM32F4xx_HAL_Driver/Src/stm32f4xx_hal_flash_ex.c ****       *(__IO uint16_t*)OPTCR1_BYTE2_ADDRESS |= (uint16_t)SectorBank2; 
 1622              		.loc 1 855 45
 1623 0042 124B     		ldr	r3, .L97+4
 1624 0044 1B88     		ldrh	r3, [r3]	@ movhi
 1625 0046 9AB2     		uxth	r2, r3
 1626              		.loc 1 855 48
 1627 0048 BB68     		ldr	r3, [r7, #8]
 1628 004a 9BB2     		uxth	r3, r3
 1629              		.loc 1 855 45
 1630 004c 0F49     		ldr	r1, .L97+4
 1631 004e 1343     		orrs	r3, r3, r2
 1632 0050 9BB2     		uxth	r3, r3
 1633 0052 0B80     		strh	r3, [r1]	@ movhi
 1634              	.L95:
 856:./Libraries/STM32F4xx_HAL_Driver/Src/stm32f4xx_hal_flash_ex.c ****     }
 857:./Libraries/STM32F4xx_HAL_Driver/Src/stm32f4xx_hal_flash_ex.c **** 
 858:./Libraries/STM32F4xx_HAL_Driver/Src/stm32f4xx_hal_flash_ex.c ****     /*Write protection on all sector  of BANK2*/
 859:./Libraries/STM32F4xx_HAL_Driver/Src/stm32f4xx_hal_flash_ex.c ****     if(Banks == FLASH_BANK_BOTH)
 1635              		.loc 1 859 7
 1636 0054 7B68     		ldr	r3, [r7, #4]
 1637 0056 032B     		cmp	r3, #3
 1638 0058 11D1     		bne	.L92
 860:./Libraries/STM32F4xx_HAL_Driver/Src/stm32f4xx_hal_flash_ex.c ****     {
 861:./Libraries/STM32F4xx_HAL_Driver/Src/stm32f4xx_hal_flash_ex.c ****       assert_param(IS_OB_PCROP(SectorBank2));
 862:./Libraries/STM32F4xx_HAL_Driver/Src/stm32f4xx_hal_flash_ex.c ****       /* Wait for last operation to be completed */
 863:./Libraries/STM32F4xx_HAL_Driver/Src/stm32f4xx_hal_flash_ex.c ****       status = FLASH_WaitForLastOperation((uint32_t)FLASH_TIMEOUT_VALUE);
 1639              		.loc 1 863 16
 1640 005a 4CF25030 		movw	r0, #50000
 1641 005e FFF7FEFF 		bl	FLASH_WaitForLastOperation
 1642 0062 0346     		mov	r3, r0
 1643 0064 FB75     		strb	r3, [r7, #23]
 864:./Libraries/STM32F4xx_HAL_Driver/Src/stm32f4xx_hal_flash_ex.c ****       
 865:./Libraries/STM32F4xx_HAL_Driver/Src/stm32f4xx_hal_flash_ex.c ****       if(status == HAL_OK)
 1644              		.loc 1 865 9
 1645 0066 FB7D     		ldrb	r3, [r7, #23]	@ zero_extendqisi2
 1646 0068 002B     		cmp	r3, #0
 1647 006a 08D1     		bne	.L92
 866:./Libraries/STM32F4xx_HAL_Driver/Src/stm32f4xx_hal_flash_ex.c ****       { 
 867:./Libraries/STM32F4xx_HAL_Driver/Src/stm32f4xx_hal_flash_ex.c ****         /*Write protection done on sectors of BANK2*/
 868:./Libraries/STM32F4xx_HAL_Driver/Src/stm32f4xx_hal_flash_ex.c ****         *(__IO uint16_t*)OPTCR1_BYTE2_ADDRESS |= (uint16_t)SectorBank2; 
 1648              		.loc 1 868 47
 1649 006c 074B     		ldr	r3, .L97+4
 1650 006e 1B88     		ldrh	r3, [r3]	@ movhi
 1651 0070 9AB2     		uxth	r2, r3
 1652              		.loc 1 868 50
 1653 0072 BB68     		ldr	r3, [r7, #8]
 1654 0074 9BB2     		uxth	r3, r3
 1655              		.loc 1 868 47
 1656 0076 0549     		ldr	r1, .L97+4
 1657 0078 1343     		orrs	r3, r3, r2
 1658 007a 9BB2     		uxth	r3, r3
ARM GAS  /tmp/cc52q51R.s 			page 45


 1659 007c 0B80     		strh	r3, [r1]	@ movhi
 1660              	.L92:
 869:./Libraries/STM32F4xx_HAL_Driver/Src/stm32f4xx_hal_flash_ex.c ****       }
 870:./Libraries/STM32F4xx_HAL_Driver/Src/stm32f4xx_hal_flash_ex.c ****     }
 871:./Libraries/STM32F4xx_HAL_Driver/Src/stm32f4xx_hal_flash_ex.c ****     
 872:./Libraries/STM32F4xx_HAL_Driver/Src/stm32f4xx_hal_flash_ex.c ****   }
 873:./Libraries/STM32F4xx_HAL_Driver/Src/stm32f4xx_hal_flash_ex.c **** 
 874:./Libraries/STM32F4xx_HAL_Driver/Src/stm32f4xx_hal_flash_ex.c ****   return status;
 1661              		.loc 1 874 10
 1662 007e FB7D     		ldrb	r3, [r7, #23]	@ zero_extendqisi2
 875:./Libraries/STM32F4xx_HAL_Driver/Src/stm32f4xx_hal_flash_ex.c **** }
 1663              		.loc 1 875 1
 1664 0080 1846     		mov	r0, r3
 1665 0082 1837     		adds	r7, r7, #24
 1666              	.LCFI77:
 1667              		.cfi_def_cfa_offset 8
 1668 0084 BD46     		mov	sp, r7
 1669              	.LCFI78:
 1670              		.cfi_def_cfa_register 13
 1671              		@ sp needed
 1672 0086 80BD     		pop	{r7, pc}
 1673              	.L98:
 1674              		.align	2
 1675              	.L97:
 1676 0088 163C0240 		.word	1073888278
 1677 008c 1A3C0240 		.word	1073888282
 1678              		.cfi_endproc
 1679              	.LFE140:
 1681              		.section	.text.FLASH_OB_DisablePCROP,"ax",%progbits
 1682              		.align	1
 1683              		.syntax unified
 1684              		.thumb
 1685              		.thumb_func
 1686              		.fpu fpv4-sp-d16
 1688              	FLASH_OB_DisablePCROP:
 1689              	.LFB141:
 876:./Libraries/STM32F4xx_HAL_Driver/Src/stm32f4xx_hal_flash_ex.c **** 
 877:./Libraries/STM32F4xx_HAL_Driver/Src/stm32f4xx_hal_flash_ex.c **** 
 878:./Libraries/STM32F4xx_HAL_Driver/Src/stm32f4xx_hal_flash_ex.c **** /**
 879:./Libraries/STM32F4xx_HAL_Driver/Src/stm32f4xx_hal_flash_ex.c ****   * @brief  Disable the read/write protection (PCROP) of the desired 
 880:./Libraries/STM32F4xx_HAL_Driver/Src/stm32f4xx_hal_flash_ex.c ****   *         sectors  of Bank 1 and/or Bank 2.
 881:./Libraries/STM32F4xx_HAL_Driver/Src/stm32f4xx_hal_flash_ex.c ****   * @note   This function can be used only for STM32F42xxx/43xxx devices.
 882:./Libraries/STM32F4xx_HAL_Driver/Src/stm32f4xx_hal_flash_ex.c ****   * @param  SectorBank1 specifies the sector(s) to be read/write protected or unprotected for bank1
 883:./Libraries/STM32F4xx_HAL_Driver/Src/stm32f4xx_hal_flash_ex.c ****   *          This parameter can be one of the following values:
 884:./Libraries/STM32F4xx_HAL_Driver/Src/stm32f4xx_hal_flash_ex.c ****   *            @arg OB_PCROP: A value between OB_PCROP_SECTOR_0 and OB_PCROP_SECTOR_11
 885:./Libraries/STM32F4xx_HAL_Driver/Src/stm32f4xx_hal_flash_ex.c ****   *            @arg OB_PCROP_SECTOR__All                         
 886:./Libraries/STM32F4xx_HAL_Driver/Src/stm32f4xx_hal_flash_ex.c ****   * @param  SectorBank2 Specifies the sector(s) to be read/write protected or unprotected for bank2
 887:./Libraries/STM32F4xx_HAL_Driver/Src/stm32f4xx_hal_flash_ex.c ****   *          This parameter can be one of the following values:
 888:./Libraries/STM32F4xx_HAL_Driver/Src/stm32f4xx_hal_flash_ex.c ****   *            @arg OB_PCROP: A value between OB_PCROP_SECTOR_12 and OB_PCROP_SECTOR_23
 889:./Libraries/STM32F4xx_HAL_Driver/Src/stm32f4xx_hal_flash_ex.c ****   *            @arg OB_PCROP_SECTOR__All                         
 890:./Libraries/STM32F4xx_HAL_Driver/Src/stm32f4xx_hal_flash_ex.c ****   * @param  Banks Disable PCROP protection on all the sectors for the specific bank
 891:./Libraries/STM32F4xx_HAL_Driver/Src/stm32f4xx_hal_flash_ex.c ****   *          This parameter can be one of the following values:
 892:./Libraries/STM32F4xx_HAL_Driver/Src/stm32f4xx_hal_flash_ex.c ****   *            @arg FLASH_BANK_1: WRP on all sectors of bank1
 893:./Libraries/STM32F4xx_HAL_Driver/Src/stm32f4xx_hal_flash_ex.c ****   *            @arg FLASH_BANK_2: WRP on all sectors of bank2
 894:./Libraries/STM32F4xx_HAL_Driver/Src/stm32f4xx_hal_flash_ex.c ****   *            @arg FLASH_BANK_BOTH: WRP on all sectors of bank1 & bank2
 895:./Libraries/STM32F4xx_HAL_Driver/Src/stm32f4xx_hal_flash_ex.c ****   *
 896:./Libraries/STM32F4xx_HAL_Driver/Src/stm32f4xx_hal_flash_ex.c ****   * @retval HAL Status  
ARM GAS  /tmp/cc52q51R.s 			page 46


 897:./Libraries/STM32F4xx_HAL_Driver/Src/stm32f4xx_hal_flash_ex.c ****   */
 898:./Libraries/STM32F4xx_HAL_Driver/Src/stm32f4xx_hal_flash_ex.c **** static HAL_StatusTypeDef FLASH_OB_DisablePCROP(uint32_t SectorBank1, uint32_t SectorBank2, uint32_t
 899:./Libraries/STM32F4xx_HAL_Driver/Src/stm32f4xx_hal_flash_ex.c **** {  
 1690              		.loc 1 899 1
 1691              		.cfi_startproc
 1692              		@ args = 0, pretend = 0, frame = 24
 1693              		@ frame_needed = 1, uses_anonymous_args = 0
 1694 0000 80B5     		push	{r7, lr}
 1695              	.LCFI79:
 1696              		.cfi_def_cfa_offset 8
 1697              		.cfi_offset 7, -8
 1698              		.cfi_offset 14, -4
 1699 0002 86B0     		sub	sp, sp, #24
 1700              	.LCFI80:
 1701              		.cfi_def_cfa_offset 32
 1702 0004 00AF     		add	r7, sp, #0
 1703              	.LCFI81:
 1704              		.cfi_def_cfa_register 7
 1705 0006 F860     		str	r0, [r7, #12]
 1706 0008 B960     		str	r1, [r7, #8]
 1707 000a 7A60     		str	r2, [r7, #4]
 900:./Libraries/STM32F4xx_HAL_Driver/Src/stm32f4xx_hal_flash_ex.c ****   HAL_StatusTypeDef status = HAL_OK;
 1708              		.loc 1 900 21
 1709 000c 0023     		movs	r3, #0
 1710 000e FB75     		strb	r3, [r7, #23]
 901:./Libraries/STM32F4xx_HAL_Driver/Src/stm32f4xx_hal_flash_ex.c ****   
 902:./Libraries/STM32F4xx_HAL_Driver/Src/stm32f4xx_hal_flash_ex.c ****   /* Check the parameters */
 903:./Libraries/STM32F4xx_HAL_Driver/Src/stm32f4xx_hal_flash_ex.c ****   assert_param(IS_FLASH_BANK(Banks));
 904:./Libraries/STM32F4xx_HAL_Driver/Src/stm32f4xx_hal_flash_ex.c ****     
 905:./Libraries/STM32F4xx_HAL_Driver/Src/stm32f4xx_hal_flash_ex.c ****   /* Wait for last operation to be completed */
 906:./Libraries/STM32F4xx_HAL_Driver/Src/stm32f4xx_hal_flash_ex.c ****   status = FLASH_WaitForLastOperation((uint32_t)FLASH_TIMEOUT_VALUE);
 1711              		.loc 1 906 12
 1712 0010 4CF25030 		movw	r0, #50000
 1713 0014 FFF7FEFF 		bl	FLASH_WaitForLastOperation
 1714 0018 0346     		mov	r3, r0
 1715 001a FB75     		strb	r3, [r7, #23]
 907:./Libraries/STM32F4xx_HAL_Driver/Src/stm32f4xx_hal_flash_ex.c **** 
 908:./Libraries/STM32F4xx_HAL_Driver/Src/stm32f4xx_hal_flash_ex.c ****   if(status == HAL_OK)
 1716              		.loc 1 908 5
 1717 001c FB7D     		ldrb	r3, [r7, #23]	@ zero_extendqisi2
 1718 001e 002B     		cmp	r3, #0
 1719 0020 33D1     		bne	.L100
 909:./Libraries/STM32F4xx_HAL_Driver/Src/stm32f4xx_hal_flash_ex.c ****   {
 910:./Libraries/STM32F4xx_HAL_Driver/Src/stm32f4xx_hal_flash_ex.c ****     if((Banks == FLASH_BANK_1) || (Banks == FLASH_BANK_BOTH))
 1720              		.loc 1 910 7
 1721 0022 7B68     		ldr	r3, [r7, #4]
 1722 0024 012B     		cmp	r3, #1
 1723 0026 02D0     		beq	.L101
 1724              		.loc 1 910 32 discriminator 1
 1725 0028 7B68     		ldr	r3, [r7, #4]
 1726 002a 032B     		cmp	r3, #3
 1727 002c 0BD1     		bne	.L102
 1728              	.L101:
 911:./Libraries/STM32F4xx_HAL_Driver/Src/stm32f4xx_hal_flash_ex.c ****     {
 912:./Libraries/STM32F4xx_HAL_Driver/Src/stm32f4xx_hal_flash_ex.c ****       assert_param(IS_OB_PCROP(SectorBank1));
 913:./Libraries/STM32F4xx_HAL_Driver/Src/stm32f4xx_hal_flash_ex.c ****       /*Write protection done on sectors of BANK1*/
 914:./Libraries/STM32F4xx_HAL_Driver/Src/stm32f4xx_hal_flash_ex.c ****       *(__IO uint16_t*)OPTCR_BYTE2_ADDRESS &= (~SectorBank1); 
ARM GAS  /tmp/cc52q51R.s 			page 47


 1729              		.loc 1 914 44
 1730 002e 194B     		ldr	r3, .L105
 1731 0030 1B88     		ldrh	r3, [r3]	@ movhi
 1732 0032 9AB2     		uxth	r2, r3
 1733 0034 FB68     		ldr	r3, [r7, #12]
 1734 0036 9BB2     		uxth	r3, r3
 1735 0038 DB43     		mvns	r3, r3
 1736 003a 9BB2     		uxth	r3, r3
 1737 003c 1549     		ldr	r1, .L105
 1738 003e 1340     		ands	r3, r3, r2
 1739 0040 9BB2     		uxth	r3, r3
 1740 0042 0B80     		strh	r3, [r1]	@ movhi
 1741 0044 0AE0     		b	.L103
 1742              	.L102:
 915:./Libraries/STM32F4xx_HAL_Driver/Src/stm32f4xx_hal_flash_ex.c ****     }
 916:./Libraries/STM32F4xx_HAL_Driver/Src/stm32f4xx_hal_flash_ex.c ****     else 
 917:./Libraries/STM32F4xx_HAL_Driver/Src/stm32f4xx_hal_flash_ex.c ****     {
 918:./Libraries/STM32F4xx_HAL_Driver/Src/stm32f4xx_hal_flash_ex.c ****       /*Write protection done on sectors of BANK2*/
 919:./Libraries/STM32F4xx_HAL_Driver/Src/stm32f4xx_hal_flash_ex.c ****       assert_param(IS_OB_PCROP(SectorBank2));
 920:./Libraries/STM32F4xx_HAL_Driver/Src/stm32f4xx_hal_flash_ex.c ****       *(__IO uint16_t*)OPTCR1_BYTE2_ADDRESS &= (~SectorBank2); 
 1743              		.loc 1 920 45
 1744 0046 144B     		ldr	r3, .L105+4
 1745 0048 1B88     		ldrh	r3, [r3]	@ movhi
 1746 004a 9AB2     		uxth	r2, r3
 1747 004c BB68     		ldr	r3, [r7, #8]
 1748 004e 9BB2     		uxth	r3, r3
 1749 0050 DB43     		mvns	r3, r3
 1750 0052 9BB2     		uxth	r3, r3
 1751 0054 1049     		ldr	r1, .L105+4
 1752 0056 1340     		ands	r3, r3, r2
 1753 0058 9BB2     		uxth	r3, r3
 1754 005a 0B80     		strh	r3, [r1]	@ movhi
 1755              	.L103:
 921:./Libraries/STM32F4xx_HAL_Driver/Src/stm32f4xx_hal_flash_ex.c ****     }
 922:./Libraries/STM32F4xx_HAL_Driver/Src/stm32f4xx_hal_flash_ex.c **** 
 923:./Libraries/STM32F4xx_HAL_Driver/Src/stm32f4xx_hal_flash_ex.c ****     /*Write protection on all sector  of BANK2*/
 924:./Libraries/STM32F4xx_HAL_Driver/Src/stm32f4xx_hal_flash_ex.c ****     if(Banks == FLASH_BANK_BOTH)
 1756              		.loc 1 924 7
 1757 005c 7B68     		ldr	r3, [r7, #4]
 1758 005e 032B     		cmp	r3, #3
 1759 0060 13D1     		bne	.L100
 925:./Libraries/STM32F4xx_HAL_Driver/Src/stm32f4xx_hal_flash_ex.c ****     {
 926:./Libraries/STM32F4xx_HAL_Driver/Src/stm32f4xx_hal_flash_ex.c ****       assert_param(IS_OB_PCROP(SectorBank2));
 927:./Libraries/STM32F4xx_HAL_Driver/Src/stm32f4xx_hal_flash_ex.c ****      /* Wait for last operation to be completed */
 928:./Libraries/STM32F4xx_HAL_Driver/Src/stm32f4xx_hal_flash_ex.c ****       status = FLASH_WaitForLastOperation((uint32_t)FLASH_TIMEOUT_VALUE);
 1760              		.loc 1 928 16
 1761 0062 4CF25030 		movw	r0, #50000
 1762 0066 FFF7FEFF 		bl	FLASH_WaitForLastOperation
 1763 006a 0346     		mov	r3, r0
 1764 006c FB75     		strb	r3, [r7, #23]
 929:./Libraries/STM32F4xx_HAL_Driver/Src/stm32f4xx_hal_flash_ex.c ****       
 930:./Libraries/STM32F4xx_HAL_Driver/Src/stm32f4xx_hal_flash_ex.c ****       if(status == HAL_OK)
 1765              		.loc 1 930 9
 1766 006e FB7D     		ldrb	r3, [r7, #23]	@ zero_extendqisi2
 1767 0070 002B     		cmp	r3, #0
 1768 0072 0AD1     		bne	.L100
 931:./Libraries/STM32F4xx_HAL_Driver/Src/stm32f4xx_hal_flash_ex.c ****       { 
ARM GAS  /tmp/cc52q51R.s 			page 48


 932:./Libraries/STM32F4xx_HAL_Driver/Src/stm32f4xx_hal_flash_ex.c ****         /*Write protection done on sectors of BANK2*/
 933:./Libraries/STM32F4xx_HAL_Driver/Src/stm32f4xx_hal_flash_ex.c ****         *(__IO uint16_t*)OPTCR1_BYTE2_ADDRESS &= (~SectorBank2); 
 1769              		.loc 1 933 47
 1770 0074 084B     		ldr	r3, .L105+4
 1771 0076 1B88     		ldrh	r3, [r3]	@ movhi
 1772 0078 9AB2     		uxth	r2, r3
 1773 007a BB68     		ldr	r3, [r7, #8]
 1774 007c 9BB2     		uxth	r3, r3
 1775 007e DB43     		mvns	r3, r3
 1776 0080 9BB2     		uxth	r3, r3
 1777 0082 0549     		ldr	r1, .L105+4
 1778 0084 1340     		ands	r3, r3, r2
 1779 0086 9BB2     		uxth	r3, r3
 1780 0088 0B80     		strh	r3, [r1]	@ movhi
 1781              	.L100:
 934:./Libraries/STM32F4xx_HAL_Driver/Src/stm32f4xx_hal_flash_ex.c ****       }
 935:./Libraries/STM32F4xx_HAL_Driver/Src/stm32f4xx_hal_flash_ex.c ****     }
 936:./Libraries/STM32F4xx_HAL_Driver/Src/stm32f4xx_hal_flash_ex.c ****     
 937:./Libraries/STM32F4xx_HAL_Driver/Src/stm32f4xx_hal_flash_ex.c ****   }
 938:./Libraries/STM32F4xx_HAL_Driver/Src/stm32f4xx_hal_flash_ex.c ****   
 939:./Libraries/STM32F4xx_HAL_Driver/Src/stm32f4xx_hal_flash_ex.c ****   return status;
 1782              		.loc 1 939 10
 1783 008a FB7D     		ldrb	r3, [r7, #23]	@ zero_extendqisi2
 940:./Libraries/STM32F4xx_HAL_Driver/Src/stm32f4xx_hal_flash_ex.c **** 
 941:./Libraries/STM32F4xx_HAL_Driver/Src/stm32f4xx_hal_flash_ex.c **** }
 1784              		.loc 1 941 1
 1785 008c 1846     		mov	r0, r3
 1786 008e 1837     		adds	r7, r7, #24
 1787              	.LCFI82:
 1788              		.cfi_def_cfa_offset 8
 1789 0090 BD46     		mov	sp, r7
 1790              	.LCFI83:
 1791              		.cfi_def_cfa_register 13
 1792              		@ sp needed
 1793 0092 80BD     		pop	{r7, pc}
 1794              	.L106:
 1795              		.align	2
 1796              	.L105:
 1797 0094 163C0240 		.word	1073888278
 1798 0098 1A3C0240 		.word	1073888282
 1799              		.cfi_endproc
 1800              	.LFE141:
 1802              		.section	.text.FLASH_OB_RDP_LevelConfig,"ax",%progbits
 1803              		.align	1
 1804              		.syntax unified
 1805              		.thumb
 1806              		.thumb_func
 1807              		.fpu fpv4-sp-d16
 1809              	FLASH_OB_RDP_LevelConfig:
 1810              	.LFB142:
 942:./Libraries/STM32F4xx_HAL_Driver/Src/stm32f4xx_hal_flash_ex.c **** 
 943:./Libraries/STM32F4xx_HAL_Driver/Src/stm32f4xx_hal_flash_ex.c **** #endif /* STM32F427xx || STM32F437xx || STM32F429xx || STM32F439xx || STM32F469xx || STM32F479xx */
 944:./Libraries/STM32F4xx_HAL_Driver/Src/stm32f4xx_hal_flash_ex.c **** 
 945:./Libraries/STM32F4xx_HAL_Driver/Src/stm32f4xx_hal_flash_ex.c **** #if defined(STM32F405xx) || defined(STM32F415xx) || defined(STM32F407xx) || defined(STM32F417xx) ||
 946:./Libraries/STM32F4xx_HAL_Driver/Src/stm32f4xx_hal_flash_ex.c ****     defined(STM32F401xC) || defined(STM32F401xE) || defined(STM32F410Tx) || defined(STM32F410Cx) ||
 947:./Libraries/STM32F4xx_HAL_Driver/Src/stm32f4xx_hal_flash_ex.c ****     defined(STM32F410Rx) || defined(STM32F411xE) || defined(STM32F446xx) || defined(STM32F412Zx) ||
 948:./Libraries/STM32F4xx_HAL_Driver/Src/stm32f4xx_hal_flash_ex.c ****     defined(STM32F412Vx) || defined(STM32F412Rx) || defined(STM32F412Cx) || defined(STM32F413xx) ||
ARM GAS  /tmp/cc52q51R.s 			page 49


 949:./Libraries/STM32F4xx_HAL_Driver/Src/stm32f4xx_hal_flash_ex.c ****     defined(STM32F423xx)
 950:./Libraries/STM32F4xx_HAL_Driver/Src/stm32f4xx_hal_flash_ex.c **** /**
 951:./Libraries/STM32F4xx_HAL_Driver/Src/stm32f4xx_hal_flash_ex.c ****   * @brief  Mass erase of FLASH memory
 952:./Libraries/STM32F4xx_HAL_Driver/Src/stm32f4xx_hal_flash_ex.c ****   * @param  VoltageRange The device voltage range which defines the erase parallelism.  
 953:./Libraries/STM32F4xx_HAL_Driver/Src/stm32f4xx_hal_flash_ex.c ****   *          This parameter can be one of the following values:
 954:./Libraries/STM32F4xx_HAL_Driver/Src/stm32f4xx_hal_flash_ex.c ****   *            @arg FLASH_VOLTAGE_RANGE_1: when the device voltage range is 1.8V to 2.1V, 
 955:./Libraries/STM32F4xx_HAL_Driver/Src/stm32f4xx_hal_flash_ex.c ****   *                                  the operation will be done by byte (8-bit) 
 956:./Libraries/STM32F4xx_HAL_Driver/Src/stm32f4xx_hal_flash_ex.c ****   *            @arg FLASH_VOLTAGE_RANGE_2: when the device voltage range is 2.1V to 2.7V,
 957:./Libraries/STM32F4xx_HAL_Driver/Src/stm32f4xx_hal_flash_ex.c ****   *                                  the operation will be done by half word (16-bit)
 958:./Libraries/STM32F4xx_HAL_Driver/Src/stm32f4xx_hal_flash_ex.c ****   *            @arg FLASH_VOLTAGE_RANGE_3: when the device voltage range is 2.7V to 3.6V,
 959:./Libraries/STM32F4xx_HAL_Driver/Src/stm32f4xx_hal_flash_ex.c ****   *                                  the operation will be done by word (32-bit)
 960:./Libraries/STM32F4xx_HAL_Driver/Src/stm32f4xx_hal_flash_ex.c ****   *            @arg FLASH_VOLTAGE_RANGE_4: when the device voltage range is 2.7V to 3.6V + External
 961:./Libraries/STM32F4xx_HAL_Driver/Src/stm32f4xx_hal_flash_ex.c ****   *                                  the operation will be done by double word (64-bit)
 962:./Libraries/STM32F4xx_HAL_Driver/Src/stm32f4xx_hal_flash_ex.c ****   * 
 963:./Libraries/STM32F4xx_HAL_Driver/Src/stm32f4xx_hal_flash_ex.c ****   * @param  Banks Banks to be erased
 964:./Libraries/STM32F4xx_HAL_Driver/Src/stm32f4xx_hal_flash_ex.c ****   *          This parameter can be one of the following values:
 965:./Libraries/STM32F4xx_HAL_Driver/Src/stm32f4xx_hal_flash_ex.c ****   *            @arg FLASH_BANK_1: Bank1 to be erased
 966:./Libraries/STM32F4xx_HAL_Driver/Src/stm32f4xx_hal_flash_ex.c ****   *
 967:./Libraries/STM32F4xx_HAL_Driver/Src/stm32f4xx_hal_flash_ex.c ****   * @retval None
 968:./Libraries/STM32F4xx_HAL_Driver/Src/stm32f4xx_hal_flash_ex.c ****   */
 969:./Libraries/STM32F4xx_HAL_Driver/Src/stm32f4xx_hal_flash_ex.c **** static void FLASH_MassErase(uint8_t VoltageRange, uint32_t Banks)
 970:./Libraries/STM32F4xx_HAL_Driver/Src/stm32f4xx_hal_flash_ex.c **** {
 971:./Libraries/STM32F4xx_HAL_Driver/Src/stm32f4xx_hal_flash_ex.c ****   /* Check the parameters */
 972:./Libraries/STM32F4xx_HAL_Driver/Src/stm32f4xx_hal_flash_ex.c ****   assert_param(IS_VOLTAGERANGE(VoltageRange));
 973:./Libraries/STM32F4xx_HAL_Driver/Src/stm32f4xx_hal_flash_ex.c ****   assert_param(IS_FLASH_BANK(Banks));
 974:./Libraries/STM32F4xx_HAL_Driver/Src/stm32f4xx_hal_flash_ex.c ****   
 975:./Libraries/STM32F4xx_HAL_Driver/Src/stm32f4xx_hal_flash_ex.c ****   /* If the previous operation is completed, proceed to erase all sectors */
 976:./Libraries/STM32F4xx_HAL_Driver/Src/stm32f4xx_hal_flash_ex.c ****   CLEAR_BIT(FLASH->CR, FLASH_CR_PSIZE);
 977:./Libraries/STM32F4xx_HAL_Driver/Src/stm32f4xx_hal_flash_ex.c ****   FLASH->CR |= FLASH_CR_MER;
 978:./Libraries/STM32F4xx_HAL_Driver/Src/stm32f4xx_hal_flash_ex.c ****   FLASH->CR |= FLASH_CR_STRT | ((uint32_t)VoltageRange <<8U);
 979:./Libraries/STM32F4xx_HAL_Driver/Src/stm32f4xx_hal_flash_ex.c **** }
 980:./Libraries/STM32F4xx_HAL_Driver/Src/stm32f4xx_hal_flash_ex.c **** 
 981:./Libraries/STM32F4xx_HAL_Driver/Src/stm32f4xx_hal_flash_ex.c **** /**
 982:./Libraries/STM32F4xx_HAL_Driver/Src/stm32f4xx_hal_flash_ex.c ****   * @brief  Erase the specified FLASH memory sector
 983:./Libraries/STM32F4xx_HAL_Driver/Src/stm32f4xx_hal_flash_ex.c ****   * @param  Sector FLASH sector to erase
 984:./Libraries/STM32F4xx_HAL_Driver/Src/stm32f4xx_hal_flash_ex.c ****   *         The value of this parameter depend on device used within the same series      
 985:./Libraries/STM32F4xx_HAL_Driver/Src/stm32f4xx_hal_flash_ex.c ****   * @param  VoltageRange The device voltage range which defines the erase parallelism.  
 986:./Libraries/STM32F4xx_HAL_Driver/Src/stm32f4xx_hal_flash_ex.c ****   *          This parameter can be one of the following values:
 987:./Libraries/STM32F4xx_HAL_Driver/Src/stm32f4xx_hal_flash_ex.c ****   *            @arg FLASH_VOLTAGE_RANGE_1: when the device voltage range is 1.8V to 2.1V, 
 988:./Libraries/STM32F4xx_HAL_Driver/Src/stm32f4xx_hal_flash_ex.c ****   *                                  the operation will be done by byte (8-bit) 
 989:./Libraries/STM32F4xx_HAL_Driver/Src/stm32f4xx_hal_flash_ex.c ****   *            @arg FLASH_VOLTAGE_RANGE_2: when the device voltage range is 2.1V to 2.7V,
 990:./Libraries/STM32F4xx_HAL_Driver/Src/stm32f4xx_hal_flash_ex.c ****   *                                  the operation will be done by half word (16-bit)
 991:./Libraries/STM32F4xx_HAL_Driver/Src/stm32f4xx_hal_flash_ex.c ****   *            @arg FLASH_VOLTAGE_RANGE_3: when the device voltage range is 2.7V to 3.6V,
 992:./Libraries/STM32F4xx_HAL_Driver/Src/stm32f4xx_hal_flash_ex.c ****   *                                  the operation will be done by word (32-bit)
 993:./Libraries/STM32F4xx_HAL_Driver/Src/stm32f4xx_hal_flash_ex.c ****   *            @arg FLASH_VOLTAGE_RANGE_4: when the device voltage range is 2.7V to 3.6V + External
 994:./Libraries/STM32F4xx_HAL_Driver/Src/stm32f4xx_hal_flash_ex.c ****   *                                  the operation will be done by double word (64-bit)
 995:./Libraries/STM32F4xx_HAL_Driver/Src/stm32f4xx_hal_flash_ex.c ****   * 
 996:./Libraries/STM32F4xx_HAL_Driver/Src/stm32f4xx_hal_flash_ex.c ****   * @retval None
 997:./Libraries/STM32F4xx_HAL_Driver/Src/stm32f4xx_hal_flash_ex.c ****   */
 998:./Libraries/STM32F4xx_HAL_Driver/Src/stm32f4xx_hal_flash_ex.c **** void FLASH_Erase_Sector(uint32_t Sector, uint8_t VoltageRange)
 999:./Libraries/STM32F4xx_HAL_Driver/Src/stm32f4xx_hal_flash_ex.c **** {
1000:./Libraries/STM32F4xx_HAL_Driver/Src/stm32f4xx_hal_flash_ex.c ****   uint32_t tmp_psize = 0U;
1001:./Libraries/STM32F4xx_HAL_Driver/Src/stm32f4xx_hal_flash_ex.c **** 
1002:./Libraries/STM32F4xx_HAL_Driver/Src/stm32f4xx_hal_flash_ex.c ****   /* Check the parameters */
1003:./Libraries/STM32F4xx_HAL_Driver/Src/stm32f4xx_hal_flash_ex.c ****   assert_param(IS_FLASH_SECTOR(Sector));
1004:./Libraries/STM32F4xx_HAL_Driver/Src/stm32f4xx_hal_flash_ex.c ****   assert_param(IS_VOLTAGERANGE(VoltageRange));
1005:./Libraries/STM32F4xx_HAL_Driver/Src/stm32f4xx_hal_flash_ex.c ****   
ARM GAS  /tmp/cc52q51R.s 			page 50


1006:./Libraries/STM32F4xx_HAL_Driver/Src/stm32f4xx_hal_flash_ex.c ****   if(VoltageRange == FLASH_VOLTAGE_RANGE_1)
1007:./Libraries/STM32F4xx_HAL_Driver/Src/stm32f4xx_hal_flash_ex.c ****   {
1008:./Libraries/STM32F4xx_HAL_Driver/Src/stm32f4xx_hal_flash_ex.c ****      tmp_psize = FLASH_PSIZE_BYTE;
1009:./Libraries/STM32F4xx_HAL_Driver/Src/stm32f4xx_hal_flash_ex.c ****   }
1010:./Libraries/STM32F4xx_HAL_Driver/Src/stm32f4xx_hal_flash_ex.c ****   else if(VoltageRange == FLASH_VOLTAGE_RANGE_2)
1011:./Libraries/STM32F4xx_HAL_Driver/Src/stm32f4xx_hal_flash_ex.c ****   {
1012:./Libraries/STM32F4xx_HAL_Driver/Src/stm32f4xx_hal_flash_ex.c ****     tmp_psize = FLASH_PSIZE_HALF_WORD;
1013:./Libraries/STM32F4xx_HAL_Driver/Src/stm32f4xx_hal_flash_ex.c ****   }
1014:./Libraries/STM32F4xx_HAL_Driver/Src/stm32f4xx_hal_flash_ex.c ****   else if(VoltageRange == FLASH_VOLTAGE_RANGE_3)
1015:./Libraries/STM32F4xx_HAL_Driver/Src/stm32f4xx_hal_flash_ex.c ****   {
1016:./Libraries/STM32F4xx_HAL_Driver/Src/stm32f4xx_hal_flash_ex.c ****     tmp_psize = FLASH_PSIZE_WORD;
1017:./Libraries/STM32F4xx_HAL_Driver/Src/stm32f4xx_hal_flash_ex.c ****   }
1018:./Libraries/STM32F4xx_HAL_Driver/Src/stm32f4xx_hal_flash_ex.c ****   else
1019:./Libraries/STM32F4xx_HAL_Driver/Src/stm32f4xx_hal_flash_ex.c ****   {
1020:./Libraries/STM32F4xx_HAL_Driver/Src/stm32f4xx_hal_flash_ex.c ****     tmp_psize = FLASH_PSIZE_DOUBLE_WORD;
1021:./Libraries/STM32F4xx_HAL_Driver/Src/stm32f4xx_hal_flash_ex.c ****   }
1022:./Libraries/STM32F4xx_HAL_Driver/Src/stm32f4xx_hal_flash_ex.c **** 
1023:./Libraries/STM32F4xx_HAL_Driver/Src/stm32f4xx_hal_flash_ex.c ****   /* If the previous operation is completed, proceed to erase the sector */
1024:./Libraries/STM32F4xx_HAL_Driver/Src/stm32f4xx_hal_flash_ex.c ****   CLEAR_BIT(FLASH->CR, FLASH_CR_PSIZE);
1025:./Libraries/STM32F4xx_HAL_Driver/Src/stm32f4xx_hal_flash_ex.c ****   FLASH->CR |= tmp_psize;
1026:./Libraries/STM32F4xx_HAL_Driver/Src/stm32f4xx_hal_flash_ex.c ****   CLEAR_BIT(FLASH->CR, FLASH_CR_SNB);
1027:./Libraries/STM32F4xx_HAL_Driver/Src/stm32f4xx_hal_flash_ex.c ****   FLASH->CR |= FLASH_CR_SER | (Sector << FLASH_CR_SNB_Pos);
1028:./Libraries/STM32F4xx_HAL_Driver/Src/stm32f4xx_hal_flash_ex.c ****   FLASH->CR |= FLASH_CR_STRT;
1029:./Libraries/STM32F4xx_HAL_Driver/Src/stm32f4xx_hal_flash_ex.c **** }
1030:./Libraries/STM32F4xx_HAL_Driver/Src/stm32f4xx_hal_flash_ex.c **** 
1031:./Libraries/STM32F4xx_HAL_Driver/Src/stm32f4xx_hal_flash_ex.c **** /**
1032:./Libraries/STM32F4xx_HAL_Driver/Src/stm32f4xx_hal_flash_ex.c ****   * @brief  Enable the write protection of the desired bank 1 sectors
1033:./Libraries/STM32F4xx_HAL_Driver/Src/stm32f4xx_hal_flash_ex.c ****   *
1034:./Libraries/STM32F4xx_HAL_Driver/Src/stm32f4xx_hal_flash_ex.c ****   * @note   When the memory read protection level is selected (RDP level = 1), 
1035:./Libraries/STM32F4xx_HAL_Driver/Src/stm32f4xx_hal_flash_ex.c ****   *         it is not possible to program or erase the flash sector i if CortexM4  
1036:./Libraries/STM32F4xx_HAL_Driver/Src/stm32f4xx_hal_flash_ex.c ****   *         debug features are connected or boot code is executed in RAM, even if nWRPi = 1 
1037:./Libraries/STM32F4xx_HAL_Driver/Src/stm32f4xx_hal_flash_ex.c ****   * @note   Active value of nWRPi bits is inverted when PCROP mode is active (SPRMOD =1).   
1038:./Libraries/STM32F4xx_HAL_Driver/Src/stm32f4xx_hal_flash_ex.c ****   * 
1039:./Libraries/STM32F4xx_HAL_Driver/Src/stm32f4xx_hal_flash_ex.c ****   * @param  WRPSector specifies the sector(s) to be write protected.
1040:./Libraries/STM32F4xx_HAL_Driver/Src/stm32f4xx_hal_flash_ex.c ****   *         The value of this parameter depend on device used within the same series 
1041:./Libraries/STM32F4xx_HAL_Driver/Src/stm32f4xx_hal_flash_ex.c ****   * 
1042:./Libraries/STM32F4xx_HAL_Driver/Src/stm32f4xx_hal_flash_ex.c ****   * @param  Banks Enable write protection on all the sectors for the specific bank
1043:./Libraries/STM32F4xx_HAL_Driver/Src/stm32f4xx_hal_flash_ex.c ****   *          This parameter can be one of the following values:
1044:./Libraries/STM32F4xx_HAL_Driver/Src/stm32f4xx_hal_flash_ex.c ****   *            @arg FLASH_BANK_1: WRP on all sectors of bank1
1045:./Libraries/STM32F4xx_HAL_Driver/Src/stm32f4xx_hal_flash_ex.c ****   *
1046:./Libraries/STM32F4xx_HAL_Driver/Src/stm32f4xx_hal_flash_ex.c ****   * @retval HAL Status 
1047:./Libraries/STM32F4xx_HAL_Driver/Src/stm32f4xx_hal_flash_ex.c ****   */
1048:./Libraries/STM32F4xx_HAL_Driver/Src/stm32f4xx_hal_flash_ex.c **** static HAL_StatusTypeDef FLASH_OB_EnableWRP(uint32_t WRPSector, uint32_t Banks)
1049:./Libraries/STM32F4xx_HAL_Driver/Src/stm32f4xx_hal_flash_ex.c **** {
1050:./Libraries/STM32F4xx_HAL_Driver/Src/stm32f4xx_hal_flash_ex.c ****   HAL_StatusTypeDef status = HAL_OK;
1051:./Libraries/STM32F4xx_HAL_Driver/Src/stm32f4xx_hal_flash_ex.c ****   
1052:./Libraries/STM32F4xx_HAL_Driver/Src/stm32f4xx_hal_flash_ex.c ****   /* Check the parameters */
1053:./Libraries/STM32F4xx_HAL_Driver/Src/stm32f4xx_hal_flash_ex.c ****   assert_param(IS_OB_WRP_SECTOR(WRPSector));
1054:./Libraries/STM32F4xx_HAL_Driver/Src/stm32f4xx_hal_flash_ex.c ****   assert_param(IS_FLASH_BANK(Banks));
1055:./Libraries/STM32F4xx_HAL_Driver/Src/stm32f4xx_hal_flash_ex.c ****     
1056:./Libraries/STM32F4xx_HAL_Driver/Src/stm32f4xx_hal_flash_ex.c ****   /* Wait for last operation to be completed */
1057:./Libraries/STM32F4xx_HAL_Driver/Src/stm32f4xx_hal_flash_ex.c ****   status = FLASH_WaitForLastOperation((uint32_t)FLASH_TIMEOUT_VALUE);
1058:./Libraries/STM32F4xx_HAL_Driver/Src/stm32f4xx_hal_flash_ex.c **** 
1059:./Libraries/STM32F4xx_HAL_Driver/Src/stm32f4xx_hal_flash_ex.c ****   if(status == HAL_OK)
1060:./Libraries/STM32F4xx_HAL_Driver/Src/stm32f4xx_hal_flash_ex.c ****   { 
1061:./Libraries/STM32F4xx_HAL_Driver/Src/stm32f4xx_hal_flash_ex.c ****     *(__IO uint16_t*)OPTCR_BYTE2_ADDRESS &= (~WRPSector);  
1062:./Libraries/STM32F4xx_HAL_Driver/Src/stm32f4xx_hal_flash_ex.c ****   }
ARM GAS  /tmp/cc52q51R.s 			page 51


1063:./Libraries/STM32F4xx_HAL_Driver/Src/stm32f4xx_hal_flash_ex.c ****   
1064:./Libraries/STM32F4xx_HAL_Driver/Src/stm32f4xx_hal_flash_ex.c ****   return status;
1065:./Libraries/STM32F4xx_HAL_Driver/Src/stm32f4xx_hal_flash_ex.c **** }
1066:./Libraries/STM32F4xx_HAL_Driver/Src/stm32f4xx_hal_flash_ex.c **** 
1067:./Libraries/STM32F4xx_HAL_Driver/Src/stm32f4xx_hal_flash_ex.c **** /**
1068:./Libraries/STM32F4xx_HAL_Driver/Src/stm32f4xx_hal_flash_ex.c ****   * @brief  Disable the write protection of the desired bank 1 sectors
1069:./Libraries/STM32F4xx_HAL_Driver/Src/stm32f4xx_hal_flash_ex.c ****   *
1070:./Libraries/STM32F4xx_HAL_Driver/Src/stm32f4xx_hal_flash_ex.c ****   * @note   When the memory read protection level is selected (RDP level = 1), 
1071:./Libraries/STM32F4xx_HAL_Driver/Src/stm32f4xx_hal_flash_ex.c ****   *         it is not possible to program or erase the flash sector i if CortexM4  
1072:./Libraries/STM32F4xx_HAL_Driver/Src/stm32f4xx_hal_flash_ex.c ****   *         debug features are connected or boot code is executed in RAM, even if nWRPi = 1 
1073:./Libraries/STM32F4xx_HAL_Driver/Src/stm32f4xx_hal_flash_ex.c ****   * @note   Active value of nWRPi bits is inverted when PCROP mode is active (SPRMOD =1).   
1074:./Libraries/STM32F4xx_HAL_Driver/Src/stm32f4xx_hal_flash_ex.c ****   * 
1075:./Libraries/STM32F4xx_HAL_Driver/Src/stm32f4xx_hal_flash_ex.c ****   * @param  WRPSector specifies the sector(s) to be write protected.
1076:./Libraries/STM32F4xx_HAL_Driver/Src/stm32f4xx_hal_flash_ex.c ****   *         The value of this parameter depend on device used within the same series 
1077:./Libraries/STM32F4xx_HAL_Driver/Src/stm32f4xx_hal_flash_ex.c ****   * 
1078:./Libraries/STM32F4xx_HAL_Driver/Src/stm32f4xx_hal_flash_ex.c ****   * @param  Banks Enable write protection on all the sectors for the specific bank
1079:./Libraries/STM32F4xx_HAL_Driver/Src/stm32f4xx_hal_flash_ex.c ****   *          This parameter can be one of the following values:
1080:./Libraries/STM32F4xx_HAL_Driver/Src/stm32f4xx_hal_flash_ex.c ****   *            @arg FLASH_BANK_1: WRP on all sectors of bank1
1081:./Libraries/STM32F4xx_HAL_Driver/Src/stm32f4xx_hal_flash_ex.c ****   *
1082:./Libraries/STM32F4xx_HAL_Driver/Src/stm32f4xx_hal_flash_ex.c ****   * @retval HAL Status 
1083:./Libraries/STM32F4xx_HAL_Driver/Src/stm32f4xx_hal_flash_ex.c ****   */
1084:./Libraries/STM32F4xx_HAL_Driver/Src/stm32f4xx_hal_flash_ex.c **** static HAL_StatusTypeDef FLASH_OB_DisableWRP(uint32_t WRPSector, uint32_t Banks)
1085:./Libraries/STM32F4xx_HAL_Driver/Src/stm32f4xx_hal_flash_ex.c **** {
1086:./Libraries/STM32F4xx_HAL_Driver/Src/stm32f4xx_hal_flash_ex.c ****   HAL_StatusTypeDef status = HAL_OK;
1087:./Libraries/STM32F4xx_HAL_Driver/Src/stm32f4xx_hal_flash_ex.c ****   
1088:./Libraries/STM32F4xx_HAL_Driver/Src/stm32f4xx_hal_flash_ex.c ****   /* Check the parameters */
1089:./Libraries/STM32F4xx_HAL_Driver/Src/stm32f4xx_hal_flash_ex.c ****   assert_param(IS_OB_WRP_SECTOR(WRPSector));
1090:./Libraries/STM32F4xx_HAL_Driver/Src/stm32f4xx_hal_flash_ex.c ****   assert_param(IS_FLASH_BANK(Banks));
1091:./Libraries/STM32F4xx_HAL_Driver/Src/stm32f4xx_hal_flash_ex.c ****     
1092:./Libraries/STM32F4xx_HAL_Driver/Src/stm32f4xx_hal_flash_ex.c ****   /* Wait for last operation to be completed */
1093:./Libraries/STM32F4xx_HAL_Driver/Src/stm32f4xx_hal_flash_ex.c ****   status = FLASH_WaitForLastOperation((uint32_t)FLASH_TIMEOUT_VALUE);
1094:./Libraries/STM32F4xx_HAL_Driver/Src/stm32f4xx_hal_flash_ex.c **** 
1095:./Libraries/STM32F4xx_HAL_Driver/Src/stm32f4xx_hal_flash_ex.c ****   if(status == HAL_OK)
1096:./Libraries/STM32F4xx_HAL_Driver/Src/stm32f4xx_hal_flash_ex.c ****   { 
1097:./Libraries/STM32F4xx_HAL_Driver/Src/stm32f4xx_hal_flash_ex.c ****     *(__IO uint16_t*)OPTCR_BYTE2_ADDRESS |= (uint16_t)WRPSector; 
1098:./Libraries/STM32F4xx_HAL_Driver/Src/stm32f4xx_hal_flash_ex.c ****   }
1099:./Libraries/STM32F4xx_HAL_Driver/Src/stm32f4xx_hal_flash_ex.c ****   
1100:./Libraries/STM32F4xx_HAL_Driver/Src/stm32f4xx_hal_flash_ex.c ****   return status;
1101:./Libraries/STM32F4xx_HAL_Driver/Src/stm32f4xx_hal_flash_ex.c **** }
1102:./Libraries/STM32F4xx_HAL_Driver/Src/stm32f4xx_hal_flash_ex.c **** #endif /* STM32F40xxx || STM32F41xxx || STM32F401xx || STM32F410xx || STM32F411xE || STM32F446xx ||
1103:./Libraries/STM32F4xx_HAL_Driver/Src/stm32f4xx_hal_flash_ex.c ****           STM32F413xx || STM32F423xx */
1104:./Libraries/STM32F4xx_HAL_Driver/Src/stm32f4xx_hal_flash_ex.c **** 
1105:./Libraries/STM32F4xx_HAL_Driver/Src/stm32f4xx_hal_flash_ex.c **** #if defined(STM32F401xC) || defined(STM32F401xE) || defined(STM32F410Tx) || defined(STM32F410Cx) ||
1106:./Libraries/STM32F4xx_HAL_Driver/Src/stm32f4xx_hal_flash_ex.c ****     defined(STM32F411xE) || defined(STM32F446xx) || defined(STM32F412Zx) || defined(STM32F412Vx) ||
1107:./Libraries/STM32F4xx_HAL_Driver/Src/stm32f4xx_hal_flash_ex.c ****     defined(STM32F412Cx) || defined(STM32F413xx) || defined(STM32F423xx)
1108:./Libraries/STM32F4xx_HAL_Driver/Src/stm32f4xx_hal_flash_ex.c **** /**
1109:./Libraries/STM32F4xx_HAL_Driver/Src/stm32f4xx_hal_flash_ex.c ****   * @brief  Enable the read/write protection (PCROP) of the desired sectors.
1110:./Libraries/STM32F4xx_HAL_Driver/Src/stm32f4xx_hal_flash_ex.c ****   * @note   This function can be used only for STM32F401xx devices.
1111:./Libraries/STM32F4xx_HAL_Driver/Src/stm32f4xx_hal_flash_ex.c ****   * @param  Sector specifies the sector(s) to be read/write protected or unprotected.
1112:./Libraries/STM32F4xx_HAL_Driver/Src/stm32f4xx_hal_flash_ex.c ****   *          This parameter can be one of the following values:
1113:./Libraries/STM32F4xx_HAL_Driver/Src/stm32f4xx_hal_flash_ex.c ****   *            @arg OB_PCROP: A value between OB_PCROP_Sector0 and OB_PCROP_Sector5
1114:./Libraries/STM32F4xx_HAL_Driver/Src/stm32f4xx_hal_flash_ex.c ****   *            @arg OB_PCROP_Sector_All                         
1115:./Libraries/STM32F4xx_HAL_Driver/Src/stm32f4xx_hal_flash_ex.c ****   * @retval HAL Status  
1116:./Libraries/STM32F4xx_HAL_Driver/Src/stm32f4xx_hal_flash_ex.c ****   */
1117:./Libraries/STM32F4xx_HAL_Driver/Src/stm32f4xx_hal_flash_ex.c **** static HAL_StatusTypeDef FLASH_OB_EnablePCROP(uint32_t Sector)
1118:./Libraries/STM32F4xx_HAL_Driver/Src/stm32f4xx_hal_flash_ex.c **** {
1119:./Libraries/STM32F4xx_HAL_Driver/Src/stm32f4xx_hal_flash_ex.c ****   HAL_StatusTypeDef status = HAL_OK;
ARM GAS  /tmp/cc52q51R.s 			page 52


1120:./Libraries/STM32F4xx_HAL_Driver/Src/stm32f4xx_hal_flash_ex.c ****   
1121:./Libraries/STM32F4xx_HAL_Driver/Src/stm32f4xx_hal_flash_ex.c ****   /* Check the parameters */
1122:./Libraries/STM32F4xx_HAL_Driver/Src/stm32f4xx_hal_flash_ex.c ****   assert_param(IS_OB_PCROP(Sector));
1123:./Libraries/STM32F4xx_HAL_Driver/Src/stm32f4xx_hal_flash_ex.c ****     
1124:./Libraries/STM32F4xx_HAL_Driver/Src/stm32f4xx_hal_flash_ex.c ****   /* Wait for last operation to be completed */  
1125:./Libraries/STM32F4xx_HAL_Driver/Src/stm32f4xx_hal_flash_ex.c ****   status = FLASH_WaitForLastOperation((uint32_t)FLASH_TIMEOUT_VALUE);
1126:./Libraries/STM32F4xx_HAL_Driver/Src/stm32f4xx_hal_flash_ex.c **** 
1127:./Libraries/STM32F4xx_HAL_Driver/Src/stm32f4xx_hal_flash_ex.c ****   if(status == HAL_OK)
1128:./Libraries/STM32F4xx_HAL_Driver/Src/stm32f4xx_hal_flash_ex.c ****   { 
1129:./Libraries/STM32F4xx_HAL_Driver/Src/stm32f4xx_hal_flash_ex.c ****     *(__IO uint16_t*)OPTCR_BYTE2_ADDRESS |= (uint16_t)Sector;
1130:./Libraries/STM32F4xx_HAL_Driver/Src/stm32f4xx_hal_flash_ex.c ****   }
1131:./Libraries/STM32F4xx_HAL_Driver/Src/stm32f4xx_hal_flash_ex.c ****   
1132:./Libraries/STM32F4xx_HAL_Driver/Src/stm32f4xx_hal_flash_ex.c ****   return status;
1133:./Libraries/STM32F4xx_HAL_Driver/Src/stm32f4xx_hal_flash_ex.c **** }
1134:./Libraries/STM32F4xx_HAL_Driver/Src/stm32f4xx_hal_flash_ex.c **** 
1135:./Libraries/STM32F4xx_HAL_Driver/Src/stm32f4xx_hal_flash_ex.c **** 
1136:./Libraries/STM32F4xx_HAL_Driver/Src/stm32f4xx_hal_flash_ex.c **** /**
1137:./Libraries/STM32F4xx_HAL_Driver/Src/stm32f4xx_hal_flash_ex.c ****   * @brief  Disable the read/write protection (PCROP) of the desired sectors.
1138:./Libraries/STM32F4xx_HAL_Driver/Src/stm32f4xx_hal_flash_ex.c ****   * @note   This function can be used only for STM32F401xx devices.
1139:./Libraries/STM32F4xx_HAL_Driver/Src/stm32f4xx_hal_flash_ex.c ****   * @param  Sector specifies the sector(s) to be read/write protected or unprotected.
1140:./Libraries/STM32F4xx_HAL_Driver/Src/stm32f4xx_hal_flash_ex.c ****   *          This parameter can be one of the following values:
1141:./Libraries/STM32F4xx_HAL_Driver/Src/stm32f4xx_hal_flash_ex.c ****   *            @arg OB_PCROP: A value between OB_PCROP_Sector0 and OB_PCROP_Sector5
1142:./Libraries/STM32F4xx_HAL_Driver/Src/stm32f4xx_hal_flash_ex.c ****   *            @arg OB_PCROP_Sector_All                         
1143:./Libraries/STM32F4xx_HAL_Driver/Src/stm32f4xx_hal_flash_ex.c ****   * @retval HAL Status  
1144:./Libraries/STM32F4xx_HAL_Driver/Src/stm32f4xx_hal_flash_ex.c ****   */
1145:./Libraries/STM32F4xx_HAL_Driver/Src/stm32f4xx_hal_flash_ex.c **** static HAL_StatusTypeDef FLASH_OB_DisablePCROP(uint32_t Sector)
1146:./Libraries/STM32F4xx_HAL_Driver/Src/stm32f4xx_hal_flash_ex.c **** {  
1147:./Libraries/STM32F4xx_HAL_Driver/Src/stm32f4xx_hal_flash_ex.c ****   HAL_StatusTypeDef status = HAL_OK;
1148:./Libraries/STM32F4xx_HAL_Driver/Src/stm32f4xx_hal_flash_ex.c ****   
1149:./Libraries/STM32F4xx_HAL_Driver/Src/stm32f4xx_hal_flash_ex.c ****   /* Check the parameters */
1150:./Libraries/STM32F4xx_HAL_Driver/Src/stm32f4xx_hal_flash_ex.c ****   assert_param(IS_OB_PCROP(Sector));
1151:./Libraries/STM32F4xx_HAL_Driver/Src/stm32f4xx_hal_flash_ex.c ****     
1152:./Libraries/STM32F4xx_HAL_Driver/Src/stm32f4xx_hal_flash_ex.c ****   /* Wait for last operation to be completed */  
1153:./Libraries/STM32F4xx_HAL_Driver/Src/stm32f4xx_hal_flash_ex.c ****   status = FLASH_WaitForLastOperation((uint32_t)FLASH_TIMEOUT_VALUE);
1154:./Libraries/STM32F4xx_HAL_Driver/Src/stm32f4xx_hal_flash_ex.c **** 
1155:./Libraries/STM32F4xx_HAL_Driver/Src/stm32f4xx_hal_flash_ex.c ****   if(status == HAL_OK)
1156:./Libraries/STM32F4xx_HAL_Driver/Src/stm32f4xx_hal_flash_ex.c ****   { 
1157:./Libraries/STM32F4xx_HAL_Driver/Src/stm32f4xx_hal_flash_ex.c ****     *(__IO uint16_t*)OPTCR_BYTE2_ADDRESS &= (~Sector);
1158:./Libraries/STM32F4xx_HAL_Driver/Src/stm32f4xx_hal_flash_ex.c ****   }
1159:./Libraries/STM32F4xx_HAL_Driver/Src/stm32f4xx_hal_flash_ex.c ****   
1160:./Libraries/STM32F4xx_HAL_Driver/Src/stm32f4xx_hal_flash_ex.c ****   return status;
1161:./Libraries/STM32F4xx_HAL_Driver/Src/stm32f4xx_hal_flash_ex.c **** 
1162:./Libraries/STM32F4xx_HAL_Driver/Src/stm32f4xx_hal_flash_ex.c **** }
1163:./Libraries/STM32F4xx_HAL_Driver/Src/stm32f4xx_hal_flash_ex.c **** #endif /* STM32F401xC || STM32F401xE || STM32F411xE || STM32F446xx || STM32F412Zx || STM32F412Vx ||
1164:./Libraries/STM32F4xx_HAL_Driver/Src/stm32f4xx_hal_flash_ex.c ****           STM32F413xx || STM32F423xx */
1165:./Libraries/STM32F4xx_HAL_Driver/Src/stm32f4xx_hal_flash_ex.c **** 
1166:./Libraries/STM32F4xx_HAL_Driver/Src/stm32f4xx_hal_flash_ex.c **** /**
1167:./Libraries/STM32F4xx_HAL_Driver/Src/stm32f4xx_hal_flash_ex.c ****   * @brief  Set the read protection level.
1168:./Libraries/STM32F4xx_HAL_Driver/Src/stm32f4xx_hal_flash_ex.c ****   * @param  Level specifies the read protection level.
1169:./Libraries/STM32F4xx_HAL_Driver/Src/stm32f4xx_hal_flash_ex.c ****   *          This parameter can be one of the following values:
1170:./Libraries/STM32F4xx_HAL_Driver/Src/stm32f4xx_hal_flash_ex.c ****   *            @arg OB_RDP_LEVEL_0: No protection
1171:./Libraries/STM32F4xx_HAL_Driver/Src/stm32f4xx_hal_flash_ex.c ****   *            @arg OB_RDP_LEVEL_1: Read protection of the memory
1172:./Libraries/STM32F4xx_HAL_Driver/Src/stm32f4xx_hal_flash_ex.c ****   *            @arg OB_RDP_LEVEL_2: Full chip protection
1173:./Libraries/STM32F4xx_HAL_Driver/Src/stm32f4xx_hal_flash_ex.c ****   *   
1174:./Libraries/STM32F4xx_HAL_Driver/Src/stm32f4xx_hal_flash_ex.c ****   * @note WARNING: When enabling OB_RDP level 2 it's no more possible to go back to level 1 or 0
1175:./Libraries/STM32F4xx_HAL_Driver/Src/stm32f4xx_hal_flash_ex.c ****   *    
1176:./Libraries/STM32F4xx_HAL_Driver/Src/stm32f4xx_hal_flash_ex.c ****   * @retval HAL Status
ARM GAS  /tmp/cc52q51R.s 			page 53


1177:./Libraries/STM32F4xx_HAL_Driver/Src/stm32f4xx_hal_flash_ex.c ****   */
1178:./Libraries/STM32F4xx_HAL_Driver/Src/stm32f4xx_hal_flash_ex.c **** static HAL_StatusTypeDef FLASH_OB_RDP_LevelConfig(uint8_t Level)
1179:./Libraries/STM32F4xx_HAL_Driver/Src/stm32f4xx_hal_flash_ex.c **** {
 1811              		.loc 1 1179 1
 1812              		.cfi_startproc
 1813              		@ args = 0, pretend = 0, frame = 16
 1814              		@ frame_needed = 1, uses_anonymous_args = 0
 1815 0000 80B5     		push	{r7, lr}
 1816              	.LCFI84:
 1817              		.cfi_def_cfa_offset 8
 1818              		.cfi_offset 7, -8
 1819              		.cfi_offset 14, -4
 1820 0002 84B0     		sub	sp, sp, #16
 1821              	.LCFI85:
 1822              		.cfi_def_cfa_offset 24
 1823 0004 00AF     		add	r7, sp, #0
 1824              	.LCFI86:
 1825              		.cfi_def_cfa_register 7
 1826 0006 0346     		mov	r3, r0
 1827 0008 FB71     		strb	r3, [r7, #7]
1180:./Libraries/STM32F4xx_HAL_Driver/Src/stm32f4xx_hal_flash_ex.c ****   HAL_StatusTypeDef status = HAL_OK;
 1828              		.loc 1 1180 21
 1829 000a 0023     		movs	r3, #0
 1830 000c FB73     		strb	r3, [r7, #15]
1181:./Libraries/STM32F4xx_HAL_Driver/Src/stm32f4xx_hal_flash_ex.c ****   
1182:./Libraries/STM32F4xx_HAL_Driver/Src/stm32f4xx_hal_flash_ex.c ****   /* Check the parameters */
1183:./Libraries/STM32F4xx_HAL_Driver/Src/stm32f4xx_hal_flash_ex.c ****   assert_param(IS_OB_RDP_LEVEL(Level));
1184:./Libraries/STM32F4xx_HAL_Driver/Src/stm32f4xx_hal_flash_ex.c ****     
1185:./Libraries/STM32F4xx_HAL_Driver/Src/stm32f4xx_hal_flash_ex.c ****   /* Wait for last operation to be completed */
1186:./Libraries/STM32F4xx_HAL_Driver/Src/stm32f4xx_hal_flash_ex.c ****   status = FLASH_WaitForLastOperation((uint32_t)FLASH_TIMEOUT_VALUE);
 1831              		.loc 1 1186 12
 1832 000e 4CF25030 		movw	r0, #50000
 1833 0012 FFF7FEFF 		bl	FLASH_WaitForLastOperation
 1834 0016 0346     		mov	r3, r0
 1835 0018 FB73     		strb	r3, [r7, #15]
1187:./Libraries/STM32F4xx_HAL_Driver/Src/stm32f4xx_hal_flash_ex.c **** 
1188:./Libraries/STM32F4xx_HAL_Driver/Src/stm32f4xx_hal_flash_ex.c ****   if(status == HAL_OK)
 1836              		.loc 1 1188 5
 1837 001a FB7B     		ldrb	r3, [r7, #15]	@ zero_extendqisi2
 1838 001c 002B     		cmp	r3, #0
 1839 001e 02D1     		bne	.L108
1189:./Libraries/STM32F4xx_HAL_Driver/Src/stm32f4xx_hal_flash_ex.c ****   { 
1190:./Libraries/STM32F4xx_HAL_Driver/Src/stm32f4xx_hal_flash_ex.c ****     *(__IO uint8_t*)OPTCR_BYTE1_ADDRESS = Level;
 1840              		.loc 1 1190 5
 1841 0020 034A     		ldr	r2, .L110
 1842              		.loc 1 1190 41
 1843 0022 FB79     		ldrb	r3, [r7, #7]
 1844 0024 1370     		strb	r3, [r2]
 1845              	.L108:
1191:./Libraries/STM32F4xx_HAL_Driver/Src/stm32f4xx_hal_flash_ex.c ****   }
1192:./Libraries/STM32F4xx_HAL_Driver/Src/stm32f4xx_hal_flash_ex.c ****   
1193:./Libraries/STM32F4xx_HAL_Driver/Src/stm32f4xx_hal_flash_ex.c ****   return status;
 1846              		.loc 1 1193 10
 1847 0026 FB7B     		ldrb	r3, [r7, #15]	@ zero_extendqisi2
1194:./Libraries/STM32F4xx_HAL_Driver/Src/stm32f4xx_hal_flash_ex.c **** }
 1848              		.loc 1 1194 1
 1849 0028 1846     		mov	r0, r3
ARM GAS  /tmp/cc52q51R.s 			page 54


 1850 002a 1037     		adds	r7, r7, #16
 1851              	.LCFI87:
 1852              		.cfi_def_cfa_offset 8
 1853 002c BD46     		mov	sp, r7
 1854              	.LCFI88:
 1855              		.cfi_def_cfa_register 13
 1856              		@ sp needed
 1857 002e 80BD     		pop	{r7, pc}
 1858              	.L111:
 1859              		.align	2
 1860              	.L110:
 1861 0030 153C0240 		.word	1073888277
 1862              		.cfi_endproc
 1863              	.LFE142:
 1865              		.section	.text.FLASH_OB_UserConfig,"ax",%progbits
 1866              		.align	1
 1867              		.syntax unified
 1868              		.thumb
 1869              		.thumb_func
 1870              		.fpu fpv4-sp-d16
 1872              	FLASH_OB_UserConfig:
 1873              	.LFB143:
1195:./Libraries/STM32F4xx_HAL_Driver/Src/stm32f4xx_hal_flash_ex.c **** 
1196:./Libraries/STM32F4xx_HAL_Driver/Src/stm32f4xx_hal_flash_ex.c **** /**
1197:./Libraries/STM32F4xx_HAL_Driver/Src/stm32f4xx_hal_flash_ex.c ****   * @brief  Program the FLASH User Option Byte: IWDG_SW / RST_STOP / RST_STDBY.    
1198:./Libraries/STM32F4xx_HAL_Driver/Src/stm32f4xx_hal_flash_ex.c ****   * @param  Iwdg Selects the IWDG mode
1199:./Libraries/STM32F4xx_HAL_Driver/Src/stm32f4xx_hal_flash_ex.c ****   *          This parameter can be one of the following values:
1200:./Libraries/STM32F4xx_HAL_Driver/Src/stm32f4xx_hal_flash_ex.c ****   *            @arg OB_IWDG_SW: Software IWDG selected
1201:./Libraries/STM32F4xx_HAL_Driver/Src/stm32f4xx_hal_flash_ex.c ****   *            @arg OB_IWDG_HW: Hardware IWDG selected
1202:./Libraries/STM32F4xx_HAL_Driver/Src/stm32f4xx_hal_flash_ex.c ****   * @param  Stop Reset event when entering STOP mode.
1203:./Libraries/STM32F4xx_HAL_Driver/Src/stm32f4xx_hal_flash_ex.c ****   *          This parameter  can be one of the following values:
1204:./Libraries/STM32F4xx_HAL_Driver/Src/stm32f4xx_hal_flash_ex.c ****   *            @arg OB_STOP_NO_RST: No reset generated when entering in STOP
1205:./Libraries/STM32F4xx_HAL_Driver/Src/stm32f4xx_hal_flash_ex.c ****   *            @arg OB_STOP_RST: Reset generated when entering in STOP
1206:./Libraries/STM32F4xx_HAL_Driver/Src/stm32f4xx_hal_flash_ex.c ****   * @param  Stdby Reset event when entering Standby mode.
1207:./Libraries/STM32F4xx_HAL_Driver/Src/stm32f4xx_hal_flash_ex.c ****   *          This parameter  can be one of the following values:
1208:./Libraries/STM32F4xx_HAL_Driver/Src/stm32f4xx_hal_flash_ex.c ****   *            @arg OB_STDBY_NO_RST: No reset generated when entering in STANDBY
1209:./Libraries/STM32F4xx_HAL_Driver/Src/stm32f4xx_hal_flash_ex.c ****   *            @arg OB_STDBY_RST: Reset generated when entering in STANDBY
1210:./Libraries/STM32F4xx_HAL_Driver/Src/stm32f4xx_hal_flash_ex.c ****   * @retval HAL Status
1211:./Libraries/STM32F4xx_HAL_Driver/Src/stm32f4xx_hal_flash_ex.c ****   */
1212:./Libraries/STM32F4xx_HAL_Driver/Src/stm32f4xx_hal_flash_ex.c **** static HAL_StatusTypeDef FLASH_OB_UserConfig(uint8_t Iwdg, uint8_t Stop, uint8_t Stdby)
1213:./Libraries/STM32F4xx_HAL_Driver/Src/stm32f4xx_hal_flash_ex.c **** {
 1874              		.loc 1 1213 1
 1875              		.cfi_startproc
 1876              		@ args = 0, pretend = 0, frame = 16
 1877              		@ frame_needed = 1, uses_anonymous_args = 0
 1878 0000 80B5     		push	{r7, lr}
 1879              	.LCFI89:
 1880              		.cfi_def_cfa_offset 8
 1881              		.cfi_offset 7, -8
 1882              		.cfi_offset 14, -4
 1883 0002 84B0     		sub	sp, sp, #16
 1884              	.LCFI90:
 1885              		.cfi_def_cfa_offset 24
 1886 0004 00AF     		add	r7, sp, #0
 1887              	.LCFI91:
 1888              		.cfi_def_cfa_register 7
 1889 0006 0346     		mov	r3, r0
ARM GAS  /tmp/cc52q51R.s 			page 55


 1890 0008 FB71     		strb	r3, [r7, #7]
 1891 000a 0B46     		mov	r3, r1
 1892 000c BB71     		strb	r3, [r7, #6]
 1893 000e 1346     		mov	r3, r2
 1894 0010 7B71     		strb	r3, [r7, #5]
1214:./Libraries/STM32F4xx_HAL_Driver/Src/stm32f4xx_hal_flash_ex.c ****   uint8_t optiontmp = 0xFF;
 1895              		.loc 1 1214 11
 1896 0012 FF23     		movs	r3, #255
 1897 0014 FB73     		strb	r3, [r7, #15]
1215:./Libraries/STM32F4xx_HAL_Driver/Src/stm32f4xx_hal_flash_ex.c ****   HAL_StatusTypeDef status = HAL_OK;
 1898              		.loc 1 1215 21
 1899 0016 0023     		movs	r3, #0
 1900 0018 BB73     		strb	r3, [r7, #14]
1216:./Libraries/STM32F4xx_HAL_Driver/Src/stm32f4xx_hal_flash_ex.c **** 
1217:./Libraries/STM32F4xx_HAL_Driver/Src/stm32f4xx_hal_flash_ex.c ****   /* Check the parameters */
1218:./Libraries/STM32F4xx_HAL_Driver/Src/stm32f4xx_hal_flash_ex.c ****   assert_param(IS_OB_IWDG_SOURCE(Iwdg));
1219:./Libraries/STM32F4xx_HAL_Driver/Src/stm32f4xx_hal_flash_ex.c ****   assert_param(IS_OB_STOP_SOURCE(Stop));
1220:./Libraries/STM32F4xx_HAL_Driver/Src/stm32f4xx_hal_flash_ex.c ****   assert_param(IS_OB_STDBY_SOURCE(Stdby));
1221:./Libraries/STM32F4xx_HAL_Driver/Src/stm32f4xx_hal_flash_ex.c **** 
1222:./Libraries/STM32F4xx_HAL_Driver/Src/stm32f4xx_hal_flash_ex.c ****   /* Wait for last operation to be completed */
1223:./Libraries/STM32F4xx_HAL_Driver/Src/stm32f4xx_hal_flash_ex.c ****   status = FLASH_WaitForLastOperation((uint32_t)FLASH_TIMEOUT_VALUE);
 1901              		.loc 1 1223 12
 1902 001a 4CF25030 		movw	r0, #50000
 1903 001e FFF7FEFF 		bl	FLASH_WaitForLastOperation
 1904 0022 0346     		mov	r3, r0
 1905 0024 BB73     		strb	r3, [r7, #14]
1224:./Libraries/STM32F4xx_HAL_Driver/Src/stm32f4xx_hal_flash_ex.c ****   
1225:./Libraries/STM32F4xx_HAL_Driver/Src/stm32f4xx_hal_flash_ex.c ****   if(status == HAL_OK)
 1906              		.loc 1 1225 5
 1907 0026 BB7B     		ldrb	r3, [r7, #14]	@ zero_extendqisi2
 1908 0028 002B     		cmp	r3, #0
 1909 002a 11D1     		bne	.L113
1226:./Libraries/STM32F4xx_HAL_Driver/Src/stm32f4xx_hal_flash_ex.c ****   {     
1227:./Libraries/STM32F4xx_HAL_Driver/Src/stm32f4xx_hal_flash_ex.c ****     /* Mask OPTLOCK, OPTSTRT, BOR_LEV and BFB2 bits */
1228:./Libraries/STM32F4xx_HAL_Driver/Src/stm32f4xx_hal_flash_ex.c ****     optiontmp =  (uint8_t)((*(__IO uint8_t *)OPTCR_BYTE0_ADDRESS) & (uint8_t)0x1F);
 1910              		.loc 1 1228 67
 1911 002c 0B4B     		ldr	r3, .L115
 1912 002e 1B78     		ldrb	r3, [r3]
 1913 0030 DBB2     		uxtb	r3, r3
 1914              		.loc 1 1228 15
 1915 0032 03F01F03 		and	r3, r3, #31
 1916 0036 FB73     		strb	r3, [r7, #15]
1229:./Libraries/STM32F4xx_HAL_Driver/Src/stm32f4xx_hal_flash_ex.c **** 
1230:./Libraries/STM32F4xx_HAL_Driver/Src/stm32f4xx_hal_flash_ex.c ****     /* Update User Option Byte */
1231:./Libraries/STM32F4xx_HAL_Driver/Src/stm32f4xx_hal_flash_ex.c ****     *(__IO uint8_t *)OPTCR_BYTE0_ADDRESS = Iwdg | (uint8_t)(Stdby | (uint8_t)(Stop | ((uint8_t)opti
 1917              		.loc 1 1231 69
 1918 0038 BA79     		ldrb	r2, [r7, #6]
 1919 003a FB7B     		ldrb	r3, [r7, #15]
 1920 003c 1343     		orrs	r3, r3, r2
 1921 003e DAB2     		uxtb	r2, r3
 1922              		.loc 1 1231 51
 1923 0040 7B79     		ldrb	r3, [r7, #5]
 1924 0042 1343     		orrs	r3, r3, r2
 1925 0044 DAB2     		uxtb	r2, r3
 1926              		.loc 1 1231 5
 1927 0046 0549     		ldr	r1, .L115
 1928              		.loc 1 1231 42
ARM GAS  /tmp/cc52q51R.s 			page 56


 1929 0048 FB79     		ldrb	r3, [r7, #7]
 1930 004a 1343     		orrs	r3, r3, r2
 1931 004c DBB2     		uxtb	r3, r3
 1932 004e 0B70     		strb	r3, [r1]
 1933              	.L113:
1232:./Libraries/STM32F4xx_HAL_Driver/Src/stm32f4xx_hal_flash_ex.c ****   }
1233:./Libraries/STM32F4xx_HAL_Driver/Src/stm32f4xx_hal_flash_ex.c ****   
1234:./Libraries/STM32F4xx_HAL_Driver/Src/stm32f4xx_hal_flash_ex.c ****   return status; 
 1934              		.loc 1 1234 10
 1935 0050 BB7B     		ldrb	r3, [r7, #14]	@ zero_extendqisi2
1235:./Libraries/STM32F4xx_HAL_Driver/Src/stm32f4xx_hal_flash_ex.c **** }
 1936              		.loc 1 1235 1
 1937 0052 1846     		mov	r0, r3
 1938 0054 1037     		adds	r7, r7, #16
 1939              	.LCFI92:
 1940              		.cfi_def_cfa_offset 8
 1941 0056 BD46     		mov	sp, r7
 1942              	.LCFI93:
 1943              		.cfi_def_cfa_register 13
 1944              		@ sp needed
 1945 0058 80BD     		pop	{r7, pc}
 1946              	.L116:
 1947 005a 00BF     		.align	2
 1948              	.L115:
 1949 005c 143C0240 		.word	1073888276
 1950              		.cfi_endproc
 1951              	.LFE143:
 1953              		.section	.text.FLASH_OB_BOR_LevelConfig,"ax",%progbits
 1954              		.align	1
 1955              		.syntax unified
 1956              		.thumb
 1957              		.thumb_func
 1958              		.fpu fpv4-sp-d16
 1960              	FLASH_OB_BOR_LevelConfig:
 1961              	.LFB144:
1236:./Libraries/STM32F4xx_HAL_Driver/Src/stm32f4xx_hal_flash_ex.c **** 
1237:./Libraries/STM32F4xx_HAL_Driver/Src/stm32f4xx_hal_flash_ex.c **** /**
1238:./Libraries/STM32F4xx_HAL_Driver/Src/stm32f4xx_hal_flash_ex.c ****   * @brief  Set the BOR Level. 
1239:./Libraries/STM32F4xx_HAL_Driver/Src/stm32f4xx_hal_flash_ex.c ****   * @param  Level specifies the Option Bytes BOR Reset Level.
1240:./Libraries/STM32F4xx_HAL_Driver/Src/stm32f4xx_hal_flash_ex.c ****   *          This parameter can be one of the following values:
1241:./Libraries/STM32F4xx_HAL_Driver/Src/stm32f4xx_hal_flash_ex.c ****   *            @arg OB_BOR_LEVEL3: Supply voltage ranges from 2.7 to 3.6 V
1242:./Libraries/STM32F4xx_HAL_Driver/Src/stm32f4xx_hal_flash_ex.c ****   *            @arg OB_BOR_LEVEL2: Supply voltage ranges from 2.4 to 2.7 V
1243:./Libraries/STM32F4xx_HAL_Driver/Src/stm32f4xx_hal_flash_ex.c ****   *            @arg OB_BOR_LEVEL1: Supply voltage ranges from 2.1 to 2.4 V
1244:./Libraries/STM32F4xx_HAL_Driver/Src/stm32f4xx_hal_flash_ex.c ****   *            @arg OB_BOR_OFF: Supply voltage ranges from 1.62 to 2.1 V
1245:./Libraries/STM32F4xx_HAL_Driver/Src/stm32f4xx_hal_flash_ex.c ****   * @retval HAL Status
1246:./Libraries/STM32F4xx_HAL_Driver/Src/stm32f4xx_hal_flash_ex.c ****   */
1247:./Libraries/STM32F4xx_HAL_Driver/Src/stm32f4xx_hal_flash_ex.c **** static HAL_StatusTypeDef FLASH_OB_BOR_LevelConfig(uint8_t Level)
1248:./Libraries/STM32F4xx_HAL_Driver/Src/stm32f4xx_hal_flash_ex.c **** {
 1962              		.loc 1 1248 1
 1963              		.cfi_startproc
 1964              		@ args = 0, pretend = 0, frame = 8
 1965              		@ frame_needed = 1, uses_anonymous_args = 0
 1966              		@ link register save eliminated.
 1967 0000 80B4     		push	{r7}
 1968              	.LCFI94:
 1969              		.cfi_def_cfa_offset 4
 1970              		.cfi_offset 7, -4
ARM GAS  /tmp/cc52q51R.s 			page 57


 1971 0002 83B0     		sub	sp, sp, #12
 1972              	.LCFI95:
 1973              		.cfi_def_cfa_offset 16
 1974 0004 00AF     		add	r7, sp, #0
 1975              	.LCFI96:
 1976              		.cfi_def_cfa_register 7
 1977 0006 0346     		mov	r3, r0
 1978 0008 FB71     		strb	r3, [r7, #7]
1249:./Libraries/STM32F4xx_HAL_Driver/Src/stm32f4xx_hal_flash_ex.c ****   /* Check the parameters */
1250:./Libraries/STM32F4xx_HAL_Driver/Src/stm32f4xx_hal_flash_ex.c ****   assert_param(IS_OB_BOR_LEVEL(Level));
1251:./Libraries/STM32F4xx_HAL_Driver/Src/stm32f4xx_hal_flash_ex.c **** 
1252:./Libraries/STM32F4xx_HAL_Driver/Src/stm32f4xx_hal_flash_ex.c ****   /* Set the BOR Level */
1253:./Libraries/STM32F4xx_HAL_Driver/Src/stm32f4xx_hal_flash_ex.c ****   *(__IO uint8_t *)OPTCR_BYTE0_ADDRESS &= (~FLASH_OPTCR_BOR_LEV);
 1979              		.loc 1 1253 40
 1980 000a 0B4B     		ldr	r3, .L119
 1981 000c 1B78     		ldrb	r3, [r3]
 1982 000e DBB2     		uxtb	r3, r3
 1983 0010 094A     		ldr	r2, .L119
 1984 0012 23F00C03 		bic	r3, r3, #12
 1985 0016 DBB2     		uxtb	r3, r3
 1986 0018 1370     		strb	r3, [r2]
1254:./Libraries/STM32F4xx_HAL_Driver/Src/stm32f4xx_hal_flash_ex.c ****   *(__IO uint8_t *)OPTCR_BYTE0_ADDRESS |= Level;
 1987              		.loc 1 1254 40
 1988 001a 074B     		ldr	r3, .L119
 1989 001c 1B78     		ldrb	r3, [r3]
 1990 001e DAB2     		uxtb	r2, r3
 1991 0020 0549     		ldr	r1, .L119
 1992 0022 FB79     		ldrb	r3, [r7, #7]
 1993 0024 1343     		orrs	r3, r3, r2
 1994 0026 DBB2     		uxtb	r3, r3
 1995 0028 0B70     		strb	r3, [r1]
1255:./Libraries/STM32F4xx_HAL_Driver/Src/stm32f4xx_hal_flash_ex.c ****   
1256:./Libraries/STM32F4xx_HAL_Driver/Src/stm32f4xx_hal_flash_ex.c ****   return HAL_OK;
 1996              		.loc 1 1256 10
 1997 002a 0023     		movs	r3, #0
1257:./Libraries/STM32F4xx_HAL_Driver/Src/stm32f4xx_hal_flash_ex.c ****   
1258:./Libraries/STM32F4xx_HAL_Driver/Src/stm32f4xx_hal_flash_ex.c **** }
 1998              		.loc 1 1258 1
 1999 002c 1846     		mov	r0, r3
 2000 002e 0C37     		adds	r7, r7, #12
 2001              	.LCFI97:
 2002              		.cfi_def_cfa_offset 4
 2003 0030 BD46     		mov	sp, r7
 2004              	.LCFI98:
 2005              		.cfi_def_cfa_register 13
 2006              		@ sp needed
 2007 0032 5DF8047B 		ldr	r7, [sp], #4
 2008              	.LCFI99:
 2009              		.cfi_restore 7
 2010              		.cfi_def_cfa_offset 0
 2011 0036 7047     		bx	lr
 2012              	.L120:
 2013              		.align	2
 2014              	.L119:
 2015 0038 143C0240 		.word	1073888276
 2016              		.cfi_endproc
 2017              	.LFE144:
ARM GAS  /tmp/cc52q51R.s 			page 58


 2019              		.section	.text.FLASH_OB_GetUser,"ax",%progbits
 2020              		.align	1
 2021              		.syntax unified
 2022              		.thumb
 2023              		.thumb_func
 2024              		.fpu fpv4-sp-d16
 2026              	FLASH_OB_GetUser:
 2027              	.LFB145:
1259:./Libraries/STM32F4xx_HAL_Driver/Src/stm32f4xx_hal_flash_ex.c **** 
1260:./Libraries/STM32F4xx_HAL_Driver/Src/stm32f4xx_hal_flash_ex.c **** /**
1261:./Libraries/STM32F4xx_HAL_Driver/Src/stm32f4xx_hal_flash_ex.c ****   * @brief  Return the FLASH User Option Byte value.
1262:./Libraries/STM32F4xx_HAL_Driver/Src/stm32f4xx_hal_flash_ex.c ****   * @retval uint8_t FLASH User Option Bytes values: IWDG_SW(Bit0), RST_STOP(Bit1)
1263:./Libraries/STM32F4xx_HAL_Driver/Src/stm32f4xx_hal_flash_ex.c ****   *         and RST_STDBY(Bit2).
1264:./Libraries/STM32F4xx_HAL_Driver/Src/stm32f4xx_hal_flash_ex.c ****   */
1265:./Libraries/STM32F4xx_HAL_Driver/Src/stm32f4xx_hal_flash_ex.c **** static uint8_t FLASH_OB_GetUser(void)
1266:./Libraries/STM32F4xx_HAL_Driver/Src/stm32f4xx_hal_flash_ex.c **** {
 2028              		.loc 1 1266 1
 2029              		.cfi_startproc
 2030              		@ args = 0, pretend = 0, frame = 0
 2031              		@ frame_needed = 1, uses_anonymous_args = 0
 2032              		@ link register save eliminated.
 2033 0000 80B4     		push	{r7}
 2034              	.LCFI100:
 2035              		.cfi_def_cfa_offset 4
 2036              		.cfi_offset 7, -4
 2037 0002 00AF     		add	r7, sp, #0
 2038              	.LCFI101:
 2039              		.cfi_def_cfa_register 7
1267:./Libraries/STM32F4xx_HAL_Driver/Src/stm32f4xx_hal_flash_ex.c ****   /* Return the User Option Byte */
1268:./Libraries/STM32F4xx_HAL_Driver/Src/stm32f4xx_hal_flash_ex.c ****   return ((uint8_t)(FLASH->OPTCR & 0xE0));
 2040              		.loc 1 1268 26
 2041 0004 054B     		ldr	r3, .L123
 2042 0006 5B69     		ldr	r3, [r3, #20]
 2043              		.loc 1 1268 11
 2044 0008 DBB2     		uxtb	r3, r3
 2045 000a 23F01F03 		bic	r3, r3, #31
 2046 000e DBB2     		uxtb	r3, r3
1269:./Libraries/STM32F4xx_HAL_Driver/Src/stm32f4xx_hal_flash_ex.c **** }
 2047              		.loc 1 1269 1
 2048 0010 1846     		mov	r0, r3
 2049 0012 BD46     		mov	sp, r7
 2050              	.LCFI102:
 2051              		.cfi_def_cfa_register 13
 2052              		@ sp needed
 2053 0014 5DF8047B 		ldr	r7, [sp], #4
 2054              	.LCFI103:
 2055              		.cfi_restore 7
 2056              		.cfi_def_cfa_offset 0
 2057 0018 7047     		bx	lr
 2058              	.L124:
 2059 001a 00BF     		.align	2
 2060              	.L123:
 2061 001c 003C0240 		.word	1073888256
 2062              		.cfi_endproc
 2063              	.LFE145:
 2065              		.section	.text.FLASH_OB_GetWRP,"ax",%progbits
 2066              		.align	1
ARM GAS  /tmp/cc52q51R.s 			page 59


 2067              		.syntax unified
 2068              		.thumb
 2069              		.thumb_func
 2070              		.fpu fpv4-sp-d16
 2072              	FLASH_OB_GetWRP:
 2073              	.LFB146:
1270:./Libraries/STM32F4xx_HAL_Driver/Src/stm32f4xx_hal_flash_ex.c **** 
1271:./Libraries/STM32F4xx_HAL_Driver/Src/stm32f4xx_hal_flash_ex.c **** /**
1272:./Libraries/STM32F4xx_HAL_Driver/Src/stm32f4xx_hal_flash_ex.c ****   * @brief  Return the FLASH Write Protection Option Bytes value.
1273:./Libraries/STM32F4xx_HAL_Driver/Src/stm32f4xx_hal_flash_ex.c ****   * @retval uint16_t FLASH Write Protection Option Bytes value
1274:./Libraries/STM32F4xx_HAL_Driver/Src/stm32f4xx_hal_flash_ex.c ****   */
1275:./Libraries/STM32F4xx_HAL_Driver/Src/stm32f4xx_hal_flash_ex.c **** static uint16_t FLASH_OB_GetWRP(void)
1276:./Libraries/STM32F4xx_HAL_Driver/Src/stm32f4xx_hal_flash_ex.c **** {
 2074              		.loc 1 1276 1
 2075              		.cfi_startproc
 2076              		@ args = 0, pretend = 0, frame = 0
 2077              		@ frame_needed = 1, uses_anonymous_args = 0
 2078              		@ link register save eliminated.
 2079 0000 80B4     		push	{r7}
 2080              	.LCFI104:
 2081              		.cfi_def_cfa_offset 4
 2082              		.cfi_offset 7, -4
 2083 0002 00AF     		add	r7, sp, #0
 2084              	.LCFI105:
 2085              		.cfi_def_cfa_register 7
1277:./Libraries/STM32F4xx_HAL_Driver/Src/stm32f4xx_hal_flash_ex.c ****   /* Return the FLASH write protection Register value */
1278:./Libraries/STM32F4xx_HAL_Driver/Src/stm32f4xx_hal_flash_ex.c ****   return (*(__IO uint16_t *)(OPTCR_BYTE2_ADDRESS));
 2086              		.loc 1 1278 11
 2087 0004 034B     		ldr	r3, .L127
 2088 0006 1B88     		ldrh	r3, [r3]	@ movhi
 2089 0008 9BB2     		uxth	r3, r3
1279:./Libraries/STM32F4xx_HAL_Driver/Src/stm32f4xx_hal_flash_ex.c **** }
 2090              		.loc 1 1279 1
 2091 000a 1846     		mov	r0, r3
 2092 000c BD46     		mov	sp, r7
 2093              	.LCFI106:
 2094              		.cfi_def_cfa_register 13
 2095              		@ sp needed
 2096 000e 5DF8047B 		ldr	r7, [sp], #4
 2097              	.LCFI107:
 2098              		.cfi_restore 7
 2099              		.cfi_def_cfa_offset 0
 2100 0012 7047     		bx	lr
 2101              	.L128:
 2102              		.align	2
 2103              	.L127:
 2104 0014 163C0240 		.word	1073888278
 2105              		.cfi_endproc
 2106              	.LFE146:
 2108              		.section	.text.FLASH_OB_GetRDP,"ax",%progbits
 2109              		.align	1
 2110              		.syntax unified
 2111              		.thumb
 2112              		.thumb_func
 2113              		.fpu fpv4-sp-d16
 2115              	FLASH_OB_GetRDP:
 2116              	.LFB147:
ARM GAS  /tmp/cc52q51R.s 			page 60


1280:./Libraries/STM32F4xx_HAL_Driver/Src/stm32f4xx_hal_flash_ex.c **** 
1281:./Libraries/STM32F4xx_HAL_Driver/Src/stm32f4xx_hal_flash_ex.c **** /**
1282:./Libraries/STM32F4xx_HAL_Driver/Src/stm32f4xx_hal_flash_ex.c ****   * @brief  Returns the FLASH Read Protection level.
1283:./Libraries/STM32F4xx_HAL_Driver/Src/stm32f4xx_hal_flash_ex.c ****   * @retval FLASH ReadOut Protection Status:
1284:./Libraries/STM32F4xx_HAL_Driver/Src/stm32f4xx_hal_flash_ex.c ****   *         This parameter can be one of the following values:
1285:./Libraries/STM32F4xx_HAL_Driver/Src/stm32f4xx_hal_flash_ex.c ****   *            @arg OB_RDP_LEVEL_0: No protection
1286:./Libraries/STM32F4xx_HAL_Driver/Src/stm32f4xx_hal_flash_ex.c ****   *            @arg OB_RDP_LEVEL_1: Read protection of the memory
1287:./Libraries/STM32F4xx_HAL_Driver/Src/stm32f4xx_hal_flash_ex.c ****   *            @arg OB_RDP_LEVEL_2: Full chip protection
1288:./Libraries/STM32F4xx_HAL_Driver/Src/stm32f4xx_hal_flash_ex.c ****   */
1289:./Libraries/STM32F4xx_HAL_Driver/Src/stm32f4xx_hal_flash_ex.c **** static uint8_t FLASH_OB_GetRDP(void)
1290:./Libraries/STM32F4xx_HAL_Driver/Src/stm32f4xx_hal_flash_ex.c **** {
 2117              		.loc 1 1290 1
 2118              		.cfi_startproc
 2119              		@ args = 0, pretend = 0, frame = 8
 2120              		@ frame_needed = 1, uses_anonymous_args = 0
 2121              		@ link register save eliminated.
 2122 0000 80B4     		push	{r7}
 2123              	.LCFI108:
 2124              		.cfi_def_cfa_offset 4
 2125              		.cfi_offset 7, -4
 2126 0002 83B0     		sub	sp, sp, #12
 2127              	.LCFI109:
 2128              		.cfi_def_cfa_offset 16
 2129 0004 00AF     		add	r7, sp, #0
 2130              	.LCFI110:
 2131              		.cfi_def_cfa_register 7
1291:./Libraries/STM32F4xx_HAL_Driver/Src/stm32f4xx_hal_flash_ex.c ****   uint8_t readstatus = OB_RDP_LEVEL_0;
 2132              		.loc 1 1291 11
 2133 0006 AA23     		movs	r3, #170
 2134 0008 FB71     		strb	r3, [r7, #7]
1292:./Libraries/STM32F4xx_HAL_Driver/Src/stm32f4xx_hal_flash_ex.c **** 
1293:./Libraries/STM32F4xx_HAL_Driver/Src/stm32f4xx_hal_flash_ex.c ****   if((*(__IO uint8_t*)(OPTCR_BYTE1_ADDRESS) == (uint8_t)OB_RDP_LEVEL_2))
 2135              		.loc 1 1293 7
 2136 000a 0C4B     		ldr	r3, .L134
 2137 000c 1B78     		ldrb	r3, [r3]
 2138 000e DBB2     		uxtb	r3, r3
 2139              		.loc 1 1293 5
 2140 0010 CC2B     		cmp	r3, #204
 2141 0012 02D1     		bne	.L130
1294:./Libraries/STM32F4xx_HAL_Driver/Src/stm32f4xx_hal_flash_ex.c ****   {
1295:./Libraries/STM32F4xx_HAL_Driver/Src/stm32f4xx_hal_flash_ex.c ****     readstatus = OB_RDP_LEVEL_2;
 2142              		.loc 1 1295 16
 2143 0014 CC23     		movs	r3, #204
 2144 0016 FB71     		strb	r3, [r7, #7]
 2145 0018 09E0     		b	.L131
 2146              	.L130:
1296:./Libraries/STM32F4xx_HAL_Driver/Src/stm32f4xx_hal_flash_ex.c ****   }
1297:./Libraries/STM32F4xx_HAL_Driver/Src/stm32f4xx_hal_flash_ex.c ****   else if((*(__IO uint8_t*)(OPTCR_BYTE1_ADDRESS) == (uint8_t)OB_RDP_LEVEL_1))
 2147              		.loc 1 1297 12
 2148 001a 084B     		ldr	r3, .L134
 2149 001c 1B78     		ldrb	r3, [r3]
 2150 001e DBB2     		uxtb	r3, r3
 2151              		.loc 1 1297 10
 2152 0020 552B     		cmp	r3, #85
 2153 0022 02D1     		bne	.L132
1298:./Libraries/STM32F4xx_HAL_Driver/Src/stm32f4xx_hal_flash_ex.c ****   {
1299:./Libraries/STM32F4xx_HAL_Driver/Src/stm32f4xx_hal_flash_ex.c ****     readstatus = OB_RDP_LEVEL_1;
ARM GAS  /tmp/cc52q51R.s 			page 61


 2154              		.loc 1 1299 16
 2155 0024 5523     		movs	r3, #85
 2156 0026 FB71     		strb	r3, [r7, #7]
 2157 0028 01E0     		b	.L131
 2158              	.L132:
1300:./Libraries/STM32F4xx_HAL_Driver/Src/stm32f4xx_hal_flash_ex.c ****   }
1301:./Libraries/STM32F4xx_HAL_Driver/Src/stm32f4xx_hal_flash_ex.c ****   else 
1302:./Libraries/STM32F4xx_HAL_Driver/Src/stm32f4xx_hal_flash_ex.c ****   {
1303:./Libraries/STM32F4xx_HAL_Driver/Src/stm32f4xx_hal_flash_ex.c ****     readstatus = OB_RDP_LEVEL_0;
 2159              		.loc 1 1303 16
 2160 002a AA23     		movs	r3, #170
 2161 002c FB71     		strb	r3, [r7, #7]
 2162              	.L131:
1304:./Libraries/STM32F4xx_HAL_Driver/Src/stm32f4xx_hal_flash_ex.c ****   }
1305:./Libraries/STM32F4xx_HAL_Driver/Src/stm32f4xx_hal_flash_ex.c **** 
1306:./Libraries/STM32F4xx_HAL_Driver/Src/stm32f4xx_hal_flash_ex.c ****   return readstatus;
 2163              		.loc 1 1306 10
 2164 002e FB79     		ldrb	r3, [r7, #7]	@ zero_extendqisi2
1307:./Libraries/STM32F4xx_HAL_Driver/Src/stm32f4xx_hal_flash_ex.c **** }
 2165              		.loc 1 1307 1
 2166 0030 1846     		mov	r0, r3
 2167 0032 0C37     		adds	r7, r7, #12
 2168              	.LCFI111:
 2169              		.cfi_def_cfa_offset 4
 2170 0034 BD46     		mov	sp, r7
 2171              	.LCFI112:
 2172              		.cfi_def_cfa_register 13
 2173              		@ sp needed
 2174 0036 5DF8047B 		ldr	r7, [sp], #4
 2175              	.LCFI113:
 2176              		.cfi_restore 7
 2177              		.cfi_def_cfa_offset 0
 2178 003a 7047     		bx	lr
 2179              	.L135:
 2180              		.align	2
 2181              	.L134:
 2182 003c 153C0240 		.word	1073888277
 2183              		.cfi_endproc
 2184              	.LFE147:
 2186              		.section	.text.FLASH_OB_GetBOR,"ax",%progbits
 2187              		.align	1
 2188              		.syntax unified
 2189              		.thumb
 2190              		.thumb_func
 2191              		.fpu fpv4-sp-d16
 2193              	FLASH_OB_GetBOR:
 2194              	.LFB148:
1308:./Libraries/STM32F4xx_HAL_Driver/Src/stm32f4xx_hal_flash_ex.c **** 
1309:./Libraries/STM32F4xx_HAL_Driver/Src/stm32f4xx_hal_flash_ex.c **** /**
1310:./Libraries/STM32F4xx_HAL_Driver/Src/stm32f4xx_hal_flash_ex.c ****   * @brief  Returns the FLASH BOR level.
1311:./Libraries/STM32F4xx_HAL_Driver/Src/stm32f4xx_hal_flash_ex.c ****   * @retval uint8_t The FLASH BOR level:
1312:./Libraries/STM32F4xx_HAL_Driver/Src/stm32f4xx_hal_flash_ex.c ****   *           - OB_BOR_LEVEL3: Supply voltage ranges from 2.7 to 3.6 V
1313:./Libraries/STM32F4xx_HAL_Driver/Src/stm32f4xx_hal_flash_ex.c ****   *           - OB_BOR_LEVEL2: Supply voltage ranges from 2.4 to 2.7 V
1314:./Libraries/STM32F4xx_HAL_Driver/Src/stm32f4xx_hal_flash_ex.c ****   *           - OB_BOR_LEVEL1: Supply voltage ranges from 2.1 to 2.4 V
1315:./Libraries/STM32F4xx_HAL_Driver/Src/stm32f4xx_hal_flash_ex.c ****   *           - OB_BOR_OFF   : Supply voltage ranges from 1.62 to 2.1 V  
1316:./Libraries/STM32F4xx_HAL_Driver/Src/stm32f4xx_hal_flash_ex.c ****   */
1317:./Libraries/STM32F4xx_HAL_Driver/Src/stm32f4xx_hal_flash_ex.c **** static uint8_t FLASH_OB_GetBOR(void)
ARM GAS  /tmp/cc52q51R.s 			page 62


1318:./Libraries/STM32F4xx_HAL_Driver/Src/stm32f4xx_hal_flash_ex.c **** {
 2195              		.loc 1 1318 1
 2196              		.cfi_startproc
 2197              		@ args = 0, pretend = 0, frame = 0
 2198              		@ frame_needed = 1, uses_anonymous_args = 0
 2199              		@ link register save eliminated.
 2200 0000 80B4     		push	{r7}
 2201              	.LCFI114:
 2202              		.cfi_def_cfa_offset 4
 2203              		.cfi_offset 7, -4
 2204 0002 00AF     		add	r7, sp, #0
 2205              	.LCFI115:
 2206              		.cfi_def_cfa_register 7
1319:./Libraries/STM32F4xx_HAL_Driver/Src/stm32f4xx_hal_flash_ex.c ****   /* Return the FLASH BOR level */
1320:./Libraries/STM32F4xx_HAL_Driver/Src/stm32f4xx_hal_flash_ex.c ****   return (uint8_t)(*(__IO uint8_t *)(OPTCR_BYTE0_ADDRESS) & (uint8_t)0x0C);
 2207              		.loc 1 1320 10
 2208 0004 054B     		ldr	r3, .L138
 2209 0006 1B78     		ldrb	r3, [r3]
 2210 0008 DBB2     		uxtb	r3, r3
 2211 000a 03F00C03 		and	r3, r3, #12
 2212 000e DBB2     		uxtb	r3, r3
1321:./Libraries/STM32F4xx_HAL_Driver/Src/stm32f4xx_hal_flash_ex.c **** }
 2213              		.loc 1 1321 1
 2214 0010 1846     		mov	r0, r3
 2215 0012 BD46     		mov	sp, r7
 2216              	.LCFI116:
 2217              		.cfi_def_cfa_register 13
 2218              		@ sp needed
 2219 0014 5DF8047B 		ldr	r7, [sp], #4
 2220              	.LCFI117:
 2221              		.cfi_restore 7
 2222              		.cfi_def_cfa_offset 0
 2223 0018 7047     		bx	lr
 2224              	.L139:
 2225 001a 00BF     		.align	2
 2226              	.L138:
 2227 001c 143C0240 		.word	1073888276
 2228              		.cfi_endproc
 2229              	.LFE148:
 2231              		.section	.text.FLASH_FlushCaches,"ax",%progbits
 2232              		.align	1
 2233              		.global	FLASH_FlushCaches
 2234              		.syntax unified
 2235              		.thumb
 2236              		.thumb_func
 2237              		.fpu fpv4-sp-d16
 2239              	FLASH_FlushCaches:
 2240              	.LFB149:
1322:./Libraries/STM32F4xx_HAL_Driver/Src/stm32f4xx_hal_flash_ex.c **** 
1323:./Libraries/STM32F4xx_HAL_Driver/Src/stm32f4xx_hal_flash_ex.c **** /**
1324:./Libraries/STM32F4xx_HAL_Driver/Src/stm32f4xx_hal_flash_ex.c ****   * @brief  Flush the instruction and data caches
1325:./Libraries/STM32F4xx_HAL_Driver/Src/stm32f4xx_hal_flash_ex.c ****   * @retval None
1326:./Libraries/STM32F4xx_HAL_Driver/Src/stm32f4xx_hal_flash_ex.c ****   */
1327:./Libraries/STM32F4xx_HAL_Driver/Src/stm32f4xx_hal_flash_ex.c **** void FLASH_FlushCaches(void)
1328:./Libraries/STM32F4xx_HAL_Driver/Src/stm32f4xx_hal_flash_ex.c **** {
 2241              		.loc 1 1328 1
 2242              		.cfi_startproc
ARM GAS  /tmp/cc52q51R.s 			page 63


 2243              		@ args = 0, pretend = 0, frame = 0
 2244              		@ frame_needed = 1, uses_anonymous_args = 0
 2245              		@ link register save eliminated.
 2246 0000 80B4     		push	{r7}
 2247              	.LCFI118:
 2248              		.cfi_def_cfa_offset 4
 2249              		.cfi_offset 7, -4
 2250 0002 00AF     		add	r7, sp, #0
 2251              	.LCFI119:
 2252              		.cfi_def_cfa_register 7
1329:./Libraries/STM32F4xx_HAL_Driver/Src/stm32f4xx_hal_flash_ex.c ****   /* Flush instruction cache  */
1330:./Libraries/STM32F4xx_HAL_Driver/Src/stm32f4xx_hal_flash_ex.c ****   if(READ_BIT(FLASH->ACR, FLASH_ACR_ICEN)!= RESET)
 2253              		.loc 1 1330 6
 2254 0004 204B     		ldr	r3, .L144
 2255 0006 1B68     		ldr	r3, [r3]
 2256 0008 03F40073 		and	r3, r3, #512
 2257              		.loc 1 1330 5
 2258 000c 002B     		cmp	r3, #0
 2259 000e 17D0     		beq	.L141
1331:./Libraries/STM32F4xx_HAL_Driver/Src/stm32f4xx_hal_flash_ex.c ****   {
1332:./Libraries/STM32F4xx_HAL_Driver/Src/stm32f4xx_hal_flash_ex.c ****     /* Disable instruction cache  */
1333:./Libraries/STM32F4xx_HAL_Driver/Src/stm32f4xx_hal_flash_ex.c ****     __HAL_FLASH_INSTRUCTION_CACHE_DISABLE();
 2260              		.loc 1 1333 5
 2261 0010 1D4B     		ldr	r3, .L144
 2262 0012 1B68     		ldr	r3, [r3]
 2263 0014 1C4A     		ldr	r2, .L144
 2264 0016 23F40073 		bic	r3, r3, #512
 2265 001a 1360     		str	r3, [r2]
1334:./Libraries/STM32F4xx_HAL_Driver/Src/stm32f4xx_hal_flash_ex.c ****     /* Reset instruction cache */
1335:./Libraries/STM32F4xx_HAL_Driver/Src/stm32f4xx_hal_flash_ex.c ****     __HAL_FLASH_INSTRUCTION_CACHE_RESET();
 2266              		.loc 1 1335 5
 2267 001c 1A4B     		ldr	r3, .L144
 2268 001e 1B68     		ldr	r3, [r3]
 2269 0020 194A     		ldr	r2, .L144
 2270 0022 43F40063 		orr	r3, r3, #2048
 2271 0026 1360     		str	r3, [r2]
 2272 0028 174B     		ldr	r3, .L144
 2273 002a 1B68     		ldr	r3, [r3]
 2274 002c 164A     		ldr	r2, .L144
 2275 002e 23F40063 		bic	r3, r3, #2048
 2276 0032 1360     		str	r3, [r2]
1336:./Libraries/STM32F4xx_HAL_Driver/Src/stm32f4xx_hal_flash_ex.c ****     /* Enable instruction cache */
1337:./Libraries/STM32F4xx_HAL_Driver/Src/stm32f4xx_hal_flash_ex.c ****     __HAL_FLASH_INSTRUCTION_CACHE_ENABLE();
 2277              		.loc 1 1337 5
 2278 0034 144B     		ldr	r3, .L144
 2279 0036 1B68     		ldr	r3, [r3]
 2280 0038 134A     		ldr	r2, .L144
 2281 003a 43F40073 		orr	r3, r3, #512
 2282 003e 1360     		str	r3, [r2]
 2283              	.L141:
1338:./Libraries/STM32F4xx_HAL_Driver/Src/stm32f4xx_hal_flash_ex.c ****   }
1339:./Libraries/STM32F4xx_HAL_Driver/Src/stm32f4xx_hal_flash_ex.c ****   
1340:./Libraries/STM32F4xx_HAL_Driver/Src/stm32f4xx_hal_flash_ex.c ****   /* Flush data cache */
1341:./Libraries/STM32F4xx_HAL_Driver/Src/stm32f4xx_hal_flash_ex.c ****   if(READ_BIT(FLASH->ACR, FLASH_ACR_DCEN) != RESET)
 2284              		.loc 1 1341 6
 2285 0040 114B     		ldr	r3, .L144
 2286 0042 1B68     		ldr	r3, [r3]
ARM GAS  /tmp/cc52q51R.s 			page 64


 2287 0044 03F48063 		and	r3, r3, #1024
 2288              		.loc 1 1341 5
 2289 0048 002B     		cmp	r3, #0
 2290 004a 17D0     		beq	.L143
1342:./Libraries/STM32F4xx_HAL_Driver/Src/stm32f4xx_hal_flash_ex.c ****   {
1343:./Libraries/STM32F4xx_HAL_Driver/Src/stm32f4xx_hal_flash_ex.c ****     /* Disable data cache  */
1344:./Libraries/STM32F4xx_HAL_Driver/Src/stm32f4xx_hal_flash_ex.c ****     __HAL_FLASH_DATA_CACHE_DISABLE();
 2291              		.loc 1 1344 5
 2292 004c 0E4B     		ldr	r3, .L144
 2293 004e 1B68     		ldr	r3, [r3]
 2294 0050 0D4A     		ldr	r2, .L144
 2295 0052 23F48063 		bic	r3, r3, #1024
 2296 0056 1360     		str	r3, [r2]
1345:./Libraries/STM32F4xx_HAL_Driver/Src/stm32f4xx_hal_flash_ex.c ****     /* Reset data cache */
1346:./Libraries/STM32F4xx_HAL_Driver/Src/stm32f4xx_hal_flash_ex.c ****     __HAL_FLASH_DATA_CACHE_RESET();
 2297              		.loc 1 1346 5
 2298 0058 0B4B     		ldr	r3, .L144
 2299 005a 1B68     		ldr	r3, [r3]
 2300 005c 0A4A     		ldr	r2, .L144
 2301 005e 43F48053 		orr	r3, r3, #4096
 2302 0062 1360     		str	r3, [r2]
 2303 0064 084B     		ldr	r3, .L144
 2304 0066 1B68     		ldr	r3, [r3]
 2305 0068 074A     		ldr	r2, .L144
 2306 006a 23F48053 		bic	r3, r3, #4096
 2307 006e 1360     		str	r3, [r2]
1347:./Libraries/STM32F4xx_HAL_Driver/Src/stm32f4xx_hal_flash_ex.c ****     /* Enable data cache */
1348:./Libraries/STM32F4xx_HAL_Driver/Src/stm32f4xx_hal_flash_ex.c ****     __HAL_FLASH_DATA_CACHE_ENABLE();
 2308              		.loc 1 1348 5
 2309 0070 054B     		ldr	r3, .L144
 2310 0072 1B68     		ldr	r3, [r3]
 2311 0074 044A     		ldr	r2, .L144
 2312 0076 43F48063 		orr	r3, r3, #1024
 2313 007a 1360     		str	r3, [r2]
 2314              	.L143:
1349:./Libraries/STM32F4xx_HAL_Driver/Src/stm32f4xx_hal_flash_ex.c ****   }
1350:./Libraries/STM32F4xx_HAL_Driver/Src/stm32f4xx_hal_flash_ex.c **** }
 2315              		.loc 1 1350 1
 2316 007c 00BF     		nop
 2317 007e BD46     		mov	sp, r7
 2318              	.LCFI120:
 2319              		.cfi_def_cfa_register 13
 2320              		@ sp needed
 2321 0080 5DF8047B 		ldr	r7, [sp], #4
 2322              	.LCFI121:
 2323              		.cfi_restore 7
 2324              		.cfi_def_cfa_offset 0
 2325 0084 7047     		bx	lr
 2326              	.L145:
 2327 0086 00BF     		.align	2
 2328              	.L144:
 2329 0088 003C0240 		.word	1073888256
 2330              		.cfi_endproc
 2331              	.LFE149:
 2333              		.text
 2334              	.Letext0:
 2335              		.file 2 "/home/hao/Documents/gcc-arm-none-eabi/arm-none-eabi/include/machine/_default_types.h"
ARM GAS  /tmp/cc52q51R.s 			page 65


 2336              		.file 3 "/home/hao/Documents/gcc-arm-none-eabi/arm-none-eabi/include/sys/_stdint.h"
 2337              		.file 4 "./Libraries/CMSIS/Device/ST/STM32F4xx/Include/stm32f429xx.h"
 2338              		.file 5 "./Libraries/CMSIS/Device/ST/STM32F4xx/Include/stm32f4xx.h"
 2339              		.file 6 "./Libraries/STM32F4xx_HAL_Driver/Inc/stm32f4xx_hal_def.h"
 2340              		.file 7 "./Libraries/STM32F4xx_HAL_Driver/Inc/stm32f4xx_hal_flash.h"
 2341              		.file 8 "./Libraries/STM32F4xx_HAL_Driver/Inc/stm32f4xx_hal_flash_ex.h"
ARM GAS  /tmp/cc52q51R.s 			page 66

