ARM GAS  /tmp/ccNCvjXU.s 			page 1


   1              		.cpu cortex-m4
   2              		.eabi_attribute 27, 1
   3              		.eabi_attribute 28, 1
   4              		.eabi_attribute 20, 1
   5              		.eabi_attribute 21, 1
   6              		.eabi_attribute 23, 3
   7              		.eabi_attribute 24, 1
   8              		.eabi_attribute 25, 1
   9              		.eabi_attribute 26, 1
  10              		.eabi_attribute 30, 6
  11              		.eabi_attribute 34, 1
  12              		.eabi_attribute 18, 4
  13              		.file	"stm32f4xx_hal_pcd.c"
  14              		.text
  15              	.Ltext0:
  16              		.cfi_sections	.debug_frame
  17              		.section	.text.HAL_PCD_Init,"ax",%progbits
  18              		.align	1
  19              		.global	HAL_PCD_Init
  20              		.arch armv7e-m
  21              		.syntax unified
  22              		.thumb
  23              		.thumb_func
  24              		.fpu fpv4-sp-d16
  26              	HAL_PCD_Init:
  27              	.LFB126:
  28              		.file 1 "./Libraries/STM32F4xx_HAL_Driver/Src/stm32f4xx_hal_pcd.c"
   1:./Libraries/STM32F4xx_HAL_Driver/Src/stm32f4xx_hal_pcd.c **** /**
   2:./Libraries/STM32F4xx_HAL_Driver/Src/stm32f4xx_hal_pcd.c ****   ******************************************************************************
   3:./Libraries/STM32F4xx_HAL_Driver/Src/stm32f4xx_hal_pcd.c ****   * @file    stm32f4xx_hal_pcd.c
   4:./Libraries/STM32F4xx_HAL_Driver/Src/stm32f4xx_hal_pcd.c ****   * @author  MCD Application Team
   5:./Libraries/STM32F4xx_HAL_Driver/Src/stm32f4xx_hal_pcd.c ****   * @brief   PCD HAL module driver.
   6:./Libraries/STM32F4xx_HAL_Driver/Src/stm32f4xx_hal_pcd.c ****   *          This file provides firmware functions to manage the following 
   7:./Libraries/STM32F4xx_HAL_Driver/Src/stm32f4xx_hal_pcd.c ****   *          functionalities of the USB Peripheral Controller:
   8:./Libraries/STM32F4xx_HAL_Driver/Src/stm32f4xx_hal_pcd.c ****   *           + Initialization and de-initialization functions
   9:./Libraries/STM32F4xx_HAL_Driver/Src/stm32f4xx_hal_pcd.c ****   *           + IO operation functions
  10:./Libraries/STM32F4xx_HAL_Driver/Src/stm32f4xx_hal_pcd.c ****   *           + Peripheral Control functions 
  11:./Libraries/STM32F4xx_HAL_Driver/Src/stm32f4xx_hal_pcd.c ****   *           + Peripheral State functions
  12:./Libraries/STM32F4xx_HAL_Driver/Src/stm32f4xx_hal_pcd.c ****   *         
  13:./Libraries/STM32F4xx_HAL_Driver/Src/stm32f4xx_hal_pcd.c ****   @verbatim
  14:./Libraries/STM32F4xx_HAL_Driver/Src/stm32f4xx_hal_pcd.c ****   ==============================================================================
  15:./Libraries/STM32F4xx_HAL_Driver/Src/stm32f4xx_hal_pcd.c ****                     ##### How to use this driver #####
  16:./Libraries/STM32F4xx_HAL_Driver/Src/stm32f4xx_hal_pcd.c ****   ==============================================================================
  17:./Libraries/STM32F4xx_HAL_Driver/Src/stm32f4xx_hal_pcd.c ****     [..]
  18:./Libraries/STM32F4xx_HAL_Driver/Src/stm32f4xx_hal_pcd.c ****       The PCD HAL driver can be used as follows:
  19:./Libraries/STM32F4xx_HAL_Driver/Src/stm32f4xx_hal_pcd.c **** 
  20:./Libraries/STM32F4xx_HAL_Driver/Src/stm32f4xx_hal_pcd.c ****      (#) Declare a PCD_HandleTypeDef handle structure, for example:
  21:./Libraries/STM32F4xx_HAL_Driver/Src/stm32f4xx_hal_pcd.c ****          PCD_HandleTypeDef  hpcd;
  22:./Libraries/STM32F4xx_HAL_Driver/Src/stm32f4xx_hal_pcd.c ****         
  23:./Libraries/STM32F4xx_HAL_Driver/Src/stm32f4xx_hal_pcd.c ****      (#) Fill parameters of Init structure in HCD handle
  24:./Libraries/STM32F4xx_HAL_Driver/Src/stm32f4xx_hal_pcd.c ****   
  25:./Libraries/STM32F4xx_HAL_Driver/Src/stm32f4xx_hal_pcd.c ****      (#) Call HAL_PCD_Init() API to initialize the PCD peripheral (Core, Device core, ...) 
  26:./Libraries/STM32F4xx_HAL_Driver/Src/stm32f4xx_hal_pcd.c **** 
  27:./Libraries/STM32F4xx_HAL_Driver/Src/stm32f4xx_hal_pcd.c ****      (#) Initialize the PCD low level resources through the HAL_PCD_MspInit() API:
  28:./Libraries/STM32F4xx_HAL_Driver/Src/stm32f4xx_hal_pcd.c ****          (##) Enable the PCD/USB Low Level interface clock using 
  29:./Libraries/STM32F4xx_HAL_Driver/Src/stm32f4xx_hal_pcd.c ****               (+++) __HAL_RCC_USB_OTG_FS_CLK_ENABLE();
  30:./Libraries/STM32F4xx_HAL_Driver/Src/stm32f4xx_hal_pcd.c ****               (+++) __HAL_RCC_USB_OTG_HS_CLK_ENABLE(); (For High Speed Mode)
ARM GAS  /tmp/ccNCvjXU.s 			page 2


  31:./Libraries/STM32F4xx_HAL_Driver/Src/stm32f4xx_hal_pcd.c ****            
  32:./Libraries/STM32F4xx_HAL_Driver/Src/stm32f4xx_hal_pcd.c ****          (##) Initialize the related GPIO clocks
  33:./Libraries/STM32F4xx_HAL_Driver/Src/stm32f4xx_hal_pcd.c ****          (##) Configure PCD pin-out
  34:./Libraries/STM32F4xx_HAL_Driver/Src/stm32f4xx_hal_pcd.c ****          (##) Configure PCD NVIC interrupt
  35:./Libraries/STM32F4xx_HAL_Driver/Src/stm32f4xx_hal_pcd.c ****     
  36:./Libraries/STM32F4xx_HAL_Driver/Src/stm32f4xx_hal_pcd.c ****      (#)Associate the Upper USB device stack to the HAL PCD Driver:
  37:./Libraries/STM32F4xx_HAL_Driver/Src/stm32f4xx_hal_pcd.c ****          (##) hpcd.pData = pdev;
  38:./Libraries/STM32F4xx_HAL_Driver/Src/stm32f4xx_hal_pcd.c **** 
  39:./Libraries/STM32F4xx_HAL_Driver/Src/stm32f4xx_hal_pcd.c ****      (#)Enable PCD transmission and reception:
  40:./Libraries/STM32F4xx_HAL_Driver/Src/stm32f4xx_hal_pcd.c ****          (##) HAL_PCD_Start();
  41:./Libraries/STM32F4xx_HAL_Driver/Src/stm32f4xx_hal_pcd.c **** 
  42:./Libraries/STM32F4xx_HAL_Driver/Src/stm32f4xx_hal_pcd.c ****   @endverbatim
  43:./Libraries/STM32F4xx_HAL_Driver/Src/stm32f4xx_hal_pcd.c ****   ******************************************************************************
  44:./Libraries/STM32F4xx_HAL_Driver/Src/stm32f4xx_hal_pcd.c ****   * @attention
  45:./Libraries/STM32F4xx_HAL_Driver/Src/stm32f4xx_hal_pcd.c ****   *
  46:./Libraries/STM32F4xx_HAL_Driver/Src/stm32f4xx_hal_pcd.c ****   * <h2><center>&copy; COPYRIGHT(c) 2017 STMicroelectronics</center></h2>
  47:./Libraries/STM32F4xx_HAL_Driver/Src/stm32f4xx_hal_pcd.c ****   *
  48:./Libraries/STM32F4xx_HAL_Driver/Src/stm32f4xx_hal_pcd.c ****   * Redistribution and use in source and binary forms, with or without modification,
  49:./Libraries/STM32F4xx_HAL_Driver/Src/stm32f4xx_hal_pcd.c ****   * are permitted provided that the following conditions are met:
  50:./Libraries/STM32F4xx_HAL_Driver/Src/stm32f4xx_hal_pcd.c ****   *   1. Redistributions of source code must retain the above copyright notice,
  51:./Libraries/STM32F4xx_HAL_Driver/Src/stm32f4xx_hal_pcd.c ****   *      this list of conditions and the following disclaimer.
  52:./Libraries/STM32F4xx_HAL_Driver/Src/stm32f4xx_hal_pcd.c ****   *   2. Redistributions in binary form must reproduce the above copyright notice,
  53:./Libraries/STM32F4xx_HAL_Driver/Src/stm32f4xx_hal_pcd.c ****   *      this list of conditions and the following disclaimer in the documentation
  54:./Libraries/STM32F4xx_HAL_Driver/Src/stm32f4xx_hal_pcd.c ****   *      and/or other materials provided with the distribution.
  55:./Libraries/STM32F4xx_HAL_Driver/Src/stm32f4xx_hal_pcd.c ****   *   3. Neither the name of STMicroelectronics nor the names of its contributors
  56:./Libraries/STM32F4xx_HAL_Driver/Src/stm32f4xx_hal_pcd.c ****   *      may be used to endorse or promote products derived from this software
  57:./Libraries/STM32F4xx_HAL_Driver/Src/stm32f4xx_hal_pcd.c ****   *      without specific prior written permission.
  58:./Libraries/STM32F4xx_HAL_Driver/Src/stm32f4xx_hal_pcd.c ****   *
  59:./Libraries/STM32F4xx_HAL_Driver/Src/stm32f4xx_hal_pcd.c ****   * THIS SOFTWARE IS PROVIDED BY THE COPYRIGHT HOLDERS AND CONTRIBUTORS "AS IS"
  60:./Libraries/STM32F4xx_HAL_Driver/Src/stm32f4xx_hal_pcd.c ****   * AND ANY EXPRESS OR IMPLIED WARRANTIES, INCLUDING, BUT NOT LIMITED TO, THE
  61:./Libraries/STM32F4xx_HAL_Driver/Src/stm32f4xx_hal_pcd.c ****   * IMPLIED WARRANTIES OF MERCHANTABILITY AND FITNESS FOR A PARTICULAR PURPOSE ARE
  62:./Libraries/STM32F4xx_HAL_Driver/Src/stm32f4xx_hal_pcd.c ****   * DISCLAIMED. IN NO EVENT SHALL THE COPYRIGHT HOLDER OR CONTRIBUTORS BE LIABLE
  63:./Libraries/STM32F4xx_HAL_Driver/Src/stm32f4xx_hal_pcd.c ****   * FOR ANY DIRECT, INDIRECT, INCIDENTAL, SPECIAL, EXEMPLARY, OR CONSEQUENTIAL
  64:./Libraries/STM32F4xx_HAL_Driver/Src/stm32f4xx_hal_pcd.c ****   * DAMAGES (INCLUDING, BUT NOT LIMITED TO, PROCUREMENT OF SUBSTITUTE GOODS OR
  65:./Libraries/STM32F4xx_HAL_Driver/Src/stm32f4xx_hal_pcd.c ****   * SERVICES; LOSS OF USE, DATA, OR PROFITS; OR BUSINESS INTERRUPTION) HOWEVER
  66:./Libraries/STM32F4xx_HAL_Driver/Src/stm32f4xx_hal_pcd.c ****   * CAUSED AND ON ANY THEORY OF LIABILITY, WHETHER IN CONTRACT, STRICT LIABILITY,
  67:./Libraries/STM32F4xx_HAL_Driver/Src/stm32f4xx_hal_pcd.c ****   * OR TORT (INCLUDING NEGLIGENCE OR OTHERWISE) ARISING IN ANY WAY OUT OF THE USE
  68:./Libraries/STM32F4xx_HAL_Driver/Src/stm32f4xx_hal_pcd.c ****   * OF THIS SOFTWARE, EVEN IF ADVISED OF THE POSSIBILITY OF SUCH DAMAGE.
  69:./Libraries/STM32F4xx_HAL_Driver/Src/stm32f4xx_hal_pcd.c ****   *
  70:./Libraries/STM32F4xx_HAL_Driver/Src/stm32f4xx_hal_pcd.c ****   ******************************************************************************
  71:./Libraries/STM32F4xx_HAL_Driver/Src/stm32f4xx_hal_pcd.c ****   */ 
  72:./Libraries/STM32F4xx_HAL_Driver/Src/stm32f4xx_hal_pcd.c **** 
  73:./Libraries/STM32F4xx_HAL_Driver/Src/stm32f4xx_hal_pcd.c **** /* Includes ------------------------------------------------------------------*/
  74:./Libraries/STM32F4xx_HAL_Driver/Src/stm32f4xx_hal_pcd.c **** #include "stm32f4xx_hal.h"
  75:./Libraries/STM32F4xx_HAL_Driver/Src/stm32f4xx_hal_pcd.c **** 
  76:./Libraries/STM32F4xx_HAL_Driver/Src/stm32f4xx_hal_pcd.c **** /** @addtogroup STM32F4xx_HAL_Driver
  77:./Libraries/STM32F4xx_HAL_Driver/Src/stm32f4xx_hal_pcd.c ****   * @{
  78:./Libraries/STM32F4xx_HAL_Driver/Src/stm32f4xx_hal_pcd.c ****   */
  79:./Libraries/STM32F4xx_HAL_Driver/Src/stm32f4xx_hal_pcd.c **** 
  80:./Libraries/STM32F4xx_HAL_Driver/Src/stm32f4xx_hal_pcd.c **** /** @defgroup PCD PCD
  81:./Libraries/STM32F4xx_HAL_Driver/Src/stm32f4xx_hal_pcd.c ****   * @brief PCD HAL module driver
  82:./Libraries/STM32F4xx_HAL_Driver/Src/stm32f4xx_hal_pcd.c ****   * @{
  83:./Libraries/STM32F4xx_HAL_Driver/Src/stm32f4xx_hal_pcd.c ****   */
  84:./Libraries/STM32F4xx_HAL_Driver/Src/stm32f4xx_hal_pcd.c **** 
  85:./Libraries/STM32F4xx_HAL_Driver/Src/stm32f4xx_hal_pcd.c **** #ifdef HAL_PCD_MODULE_ENABLED
  86:./Libraries/STM32F4xx_HAL_Driver/Src/stm32f4xx_hal_pcd.c **** #if defined(STM32F405xx) || defined(STM32F415xx) || defined(STM32F407xx) || defined(STM32F417xx) ||
  87:./Libraries/STM32F4xx_HAL_Driver/Src/stm32f4xx_hal_pcd.c ****     defined(STM32F427xx) || defined(STM32F437xx) || defined(STM32F429xx) || defined(STM32F439xx) ||
ARM GAS  /tmp/ccNCvjXU.s 			page 3


  88:./Libraries/STM32F4xx_HAL_Driver/Src/stm32f4xx_hal_pcd.c ****     defined(STM32F401xC) || defined(STM32F401xE) || defined(STM32F411xE) || defined(STM32F446xx) ||
  89:./Libraries/STM32F4xx_HAL_Driver/Src/stm32f4xx_hal_pcd.c ****     defined(STM32F469xx) || defined(STM32F479xx) || defined(STM32F412Zx) || defined(STM32F412Vx) ||
  90:./Libraries/STM32F4xx_HAL_Driver/Src/stm32f4xx_hal_pcd.c ****     defined(STM32F412Rx) || defined(STM32F412Cx) || defined(STM32F413xx) || defined(STM32F423xx)
  91:./Libraries/STM32F4xx_HAL_Driver/Src/stm32f4xx_hal_pcd.c **** /* Private types -------------------------------------------------------------*/
  92:./Libraries/STM32F4xx_HAL_Driver/Src/stm32f4xx_hal_pcd.c **** /* Private variables ---------------------------------------------------------*/
  93:./Libraries/STM32F4xx_HAL_Driver/Src/stm32f4xx_hal_pcd.c **** /* Private constants ---------------------------------------------------------*/
  94:./Libraries/STM32F4xx_HAL_Driver/Src/stm32f4xx_hal_pcd.c **** /* Private macros ------------------------------------------------------------*/
  95:./Libraries/STM32F4xx_HAL_Driver/Src/stm32f4xx_hal_pcd.c **** /** @defgroup PCD_Private_Macros PCD Private Macros
  96:./Libraries/STM32F4xx_HAL_Driver/Src/stm32f4xx_hal_pcd.c ****   * @{
  97:./Libraries/STM32F4xx_HAL_Driver/Src/stm32f4xx_hal_pcd.c ****   */ 
  98:./Libraries/STM32F4xx_HAL_Driver/Src/stm32f4xx_hal_pcd.c **** #define PCD_MIN(a, b)  (((a) < (b)) ? (a) : (b))
  99:./Libraries/STM32F4xx_HAL_Driver/Src/stm32f4xx_hal_pcd.c **** #define PCD_MAX(a, b)  (((a) > (b)) ? (a) : (b))
 100:./Libraries/STM32F4xx_HAL_Driver/Src/stm32f4xx_hal_pcd.c **** /**
 101:./Libraries/STM32F4xx_HAL_Driver/Src/stm32f4xx_hal_pcd.c ****   * @}
 102:./Libraries/STM32F4xx_HAL_Driver/Src/stm32f4xx_hal_pcd.c ****   */
 103:./Libraries/STM32F4xx_HAL_Driver/Src/stm32f4xx_hal_pcd.c **** 
 104:./Libraries/STM32F4xx_HAL_Driver/Src/stm32f4xx_hal_pcd.c **** /* Private functions prototypes ----------------------------------------------*/
 105:./Libraries/STM32F4xx_HAL_Driver/Src/stm32f4xx_hal_pcd.c **** /** @defgroup PCD_Private_Functions PCD Private Functions
 106:./Libraries/STM32F4xx_HAL_Driver/Src/stm32f4xx_hal_pcd.c ****   * @{
 107:./Libraries/STM32F4xx_HAL_Driver/Src/stm32f4xx_hal_pcd.c ****   */
 108:./Libraries/STM32F4xx_HAL_Driver/Src/stm32f4xx_hal_pcd.c **** static HAL_StatusTypeDef PCD_WriteEmptyTxFifo(PCD_HandleTypeDef *hpcd, uint32_t epnum);
 109:./Libraries/STM32F4xx_HAL_Driver/Src/stm32f4xx_hal_pcd.c **** /**
 110:./Libraries/STM32F4xx_HAL_Driver/Src/stm32f4xx_hal_pcd.c ****   * @}
 111:./Libraries/STM32F4xx_HAL_Driver/Src/stm32f4xx_hal_pcd.c ****   */
 112:./Libraries/STM32F4xx_HAL_Driver/Src/stm32f4xx_hal_pcd.c **** 
 113:./Libraries/STM32F4xx_HAL_Driver/Src/stm32f4xx_hal_pcd.c **** /* Exported functions --------------------------------------------------------*/
 114:./Libraries/STM32F4xx_HAL_Driver/Src/stm32f4xx_hal_pcd.c **** /** @defgroup PCD_Exported_Functions PCD Exported Functions
 115:./Libraries/STM32F4xx_HAL_Driver/Src/stm32f4xx_hal_pcd.c ****   * @{
 116:./Libraries/STM32F4xx_HAL_Driver/Src/stm32f4xx_hal_pcd.c ****   */
 117:./Libraries/STM32F4xx_HAL_Driver/Src/stm32f4xx_hal_pcd.c **** 
 118:./Libraries/STM32F4xx_HAL_Driver/Src/stm32f4xx_hal_pcd.c **** /** @defgroup PCD_Exported_Functions_Group1 Initialization and de-initialization functions 
 119:./Libraries/STM32F4xx_HAL_Driver/Src/stm32f4xx_hal_pcd.c ****  *  @brief    Initialization and Configuration functions 
 120:./Libraries/STM32F4xx_HAL_Driver/Src/stm32f4xx_hal_pcd.c ****  *
 121:./Libraries/STM32F4xx_HAL_Driver/Src/stm32f4xx_hal_pcd.c **** @verbatim 
 122:./Libraries/STM32F4xx_HAL_Driver/Src/stm32f4xx_hal_pcd.c ****  ===============================================================================
 123:./Libraries/STM32F4xx_HAL_Driver/Src/stm32f4xx_hal_pcd.c ****             ##### Initialization and de-initialization functions #####
 124:./Libraries/STM32F4xx_HAL_Driver/Src/stm32f4xx_hal_pcd.c ****  ===============================================================================
 125:./Libraries/STM32F4xx_HAL_Driver/Src/stm32f4xx_hal_pcd.c ****     [..]  This section provides functions allowing to:
 126:./Libraries/STM32F4xx_HAL_Driver/Src/stm32f4xx_hal_pcd.c ****  
 127:./Libraries/STM32F4xx_HAL_Driver/Src/stm32f4xx_hal_pcd.c **** @endverbatim
 128:./Libraries/STM32F4xx_HAL_Driver/Src/stm32f4xx_hal_pcd.c ****   * @{
 129:./Libraries/STM32F4xx_HAL_Driver/Src/stm32f4xx_hal_pcd.c ****   */
 130:./Libraries/STM32F4xx_HAL_Driver/Src/stm32f4xx_hal_pcd.c **** 
 131:./Libraries/STM32F4xx_HAL_Driver/Src/stm32f4xx_hal_pcd.c **** /**
 132:./Libraries/STM32F4xx_HAL_Driver/Src/stm32f4xx_hal_pcd.c ****   * @brief  Initializes the PCD according to the specified
 133:./Libraries/STM32F4xx_HAL_Driver/Src/stm32f4xx_hal_pcd.c ****   *         parameters in the PCD_InitTypeDef and initialize the associated handle.
 134:./Libraries/STM32F4xx_HAL_Driver/Src/stm32f4xx_hal_pcd.c ****   * @param  hpcd PCD handle
 135:./Libraries/STM32F4xx_HAL_Driver/Src/stm32f4xx_hal_pcd.c ****   * @retval HAL status
 136:./Libraries/STM32F4xx_HAL_Driver/Src/stm32f4xx_hal_pcd.c ****   */
 137:./Libraries/STM32F4xx_HAL_Driver/Src/stm32f4xx_hal_pcd.c **** HAL_StatusTypeDef HAL_PCD_Init(PCD_HandleTypeDef *hpcd)
 138:./Libraries/STM32F4xx_HAL_Driver/Src/stm32f4xx_hal_pcd.c **** { 
  29              		.loc 1 138 1
  30              		.cfi_startproc
  31              		@ args = 0, pretend = 0, frame = 16
  32              		@ frame_needed = 1, uses_anonymous_args = 0
  33 0000 F0B5     		push	{r4, r5, r6, r7, lr}
  34              	.LCFI0:
ARM GAS  /tmp/ccNCvjXU.s 			page 4


  35              		.cfi_def_cfa_offset 20
  36              		.cfi_offset 4, -20
  37              		.cfi_offset 5, -16
  38              		.cfi_offset 6, -12
  39              		.cfi_offset 7, -8
  40              		.cfi_offset 14, -4
  41 0002 8FB0     		sub	sp, sp, #60
  42              	.LCFI1:
  43              		.cfi_def_cfa_offset 80
  44 0004 0AAF     		add	r7, sp, #40
  45              	.LCFI2:
  46              		.cfi_def_cfa 7, 40
  47 0006 7860     		str	r0, [r7, #4]
 139:./Libraries/STM32F4xx_HAL_Driver/Src/stm32f4xx_hal_pcd.c ****   uint32_t i = 0U;
  48              		.loc 1 139 12
  49 0008 0023     		movs	r3, #0
  50 000a FB60     		str	r3, [r7, #12]
 140:./Libraries/STM32F4xx_HAL_Driver/Src/stm32f4xx_hal_pcd.c ****   
 141:./Libraries/STM32F4xx_HAL_Driver/Src/stm32f4xx_hal_pcd.c ****   /* Check the PCD handle allocation */
 142:./Libraries/STM32F4xx_HAL_Driver/Src/stm32f4xx_hal_pcd.c ****   if(hpcd == NULL)
  51              		.loc 1 142 5
  52 000c 7B68     		ldr	r3, [r7, #4]
  53 000e 002B     		cmp	r3, #0
  54 0010 01D1     		bne	.L2
 143:./Libraries/STM32F4xx_HAL_Driver/Src/stm32f4xx_hal_pcd.c ****   {
 144:./Libraries/STM32F4xx_HAL_Driver/Src/stm32f4xx_hal_pcd.c ****     return HAL_ERROR;
  55              		.loc 1 144 12
  56 0012 0123     		movs	r3, #1
  57 0014 F7E0     		b	.L3
  58              	.L2:
 145:./Libraries/STM32F4xx_HAL_Driver/Src/stm32f4xx_hal_pcd.c ****   }
 146:./Libraries/STM32F4xx_HAL_Driver/Src/stm32f4xx_hal_pcd.c ****   
 147:./Libraries/STM32F4xx_HAL_Driver/Src/stm32f4xx_hal_pcd.c ****   /* Check the parameters */
 148:./Libraries/STM32F4xx_HAL_Driver/Src/stm32f4xx_hal_pcd.c ****   assert_param(IS_PCD_ALL_INSTANCE(hpcd->Instance));
 149:./Libraries/STM32F4xx_HAL_Driver/Src/stm32f4xx_hal_pcd.c **** 
 150:./Libraries/STM32F4xx_HAL_Driver/Src/stm32f4xx_hal_pcd.c ****   hpcd->State = HAL_PCD_STATE_BUSY;
  59              		.loc 1 150 15
  60 0016 7B68     		ldr	r3, [r7, #4]
  61 0018 0322     		movs	r2, #3
  62 001a 83F8B923 		strb	r2, [r3, #953]
 151:./Libraries/STM32F4xx_HAL_Driver/Src/stm32f4xx_hal_pcd.c ****   
 152:./Libraries/STM32F4xx_HAL_Driver/Src/stm32f4xx_hal_pcd.c ****   /* Init the low level hardware : GPIO, CLOCK, NVIC... */
 153:./Libraries/STM32F4xx_HAL_Driver/Src/stm32f4xx_hal_pcd.c ****   HAL_PCD_MspInit(hpcd);
  63              		.loc 1 153 3
  64 001e 7868     		ldr	r0, [r7, #4]
  65 0020 FFF7FEFF 		bl	HAL_PCD_MspInit
 154:./Libraries/STM32F4xx_HAL_Driver/Src/stm32f4xx_hal_pcd.c **** 
 155:./Libraries/STM32F4xx_HAL_Driver/Src/stm32f4xx_hal_pcd.c ****   /* Disable the Interrupts */
 156:./Libraries/STM32F4xx_HAL_Driver/Src/stm32f4xx_hal_pcd.c ****  __HAL_PCD_DISABLE(hpcd);
  66              		.loc 1 156 2
  67 0024 7B68     		ldr	r3, [r7, #4]
  68 0026 1B68     		ldr	r3, [r3]
  69 0028 1846     		mov	r0, r3
  70 002a FFF7FEFF 		bl	USB_DisableGlobalInt
 157:./Libraries/STM32F4xx_HAL_Driver/Src/stm32f4xx_hal_pcd.c ****  
 158:./Libraries/STM32F4xx_HAL_Driver/Src/stm32f4xx_hal_pcd.c ****  /*Init the Core (common init.) */
 159:./Libraries/STM32F4xx_HAL_Driver/Src/stm32f4xx_hal_pcd.c ****  USB_CoreInit(hpcd->Instance, hpcd->Init);
ARM GAS  /tmp/ccNCvjXU.s 			page 5


  71              		.loc 1 159 19
  72 002e 7B68     		ldr	r3, [r7, #4]
  73 0030 1B68     		ldr	r3, [r3]
  74 0032 3B60     		str	r3, [r7]
  75              		.loc 1 159 2
  76 0034 7E68     		ldr	r6, [r7, #4]
  77 0036 6D46     		mov	r5, sp
  78 0038 06F11004 		add	r4, r6, #16
  79 003c 0FCC     		ldmia	r4!, {r0, r1, r2, r3}
  80 003e 0FC5     		stmia	r5!, {r0, r1, r2, r3}
  81 0040 0FCC     		ldmia	r4!, {r0, r1, r2, r3}
  82 0042 0FC5     		stmia	r5!, {r0, r1, r2, r3}
  83 0044 94E80300 		ldm	r4, {r0, r1}
  84 0048 85E80300 		stm	r5, {r0, r1}
  85 004c 331D     		adds	r3, r6, #4
  86 004e 0ECB     		ldm	r3, {r1, r2, r3}
  87 0050 3868     		ldr	r0, [r7]
  88 0052 FFF7FEFF 		bl	USB_CoreInit
 160:./Libraries/STM32F4xx_HAL_Driver/Src/stm32f4xx_hal_pcd.c ****  
 161:./Libraries/STM32F4xx_HAL_Driver/Src/stm32f4xx_hal_pcd.c ****  /* Force Device Mode*/
 162:./Libraries/STM32F4xx_HAL_Driver/Src/stm32f4xx_hal_pcd.c ****  USB_SetCurrentMode(hpcd->Instance , USB_OTG_DEVICE_MODE);
  89              		.loc 1 162 25
  90 0056 7B68     		ldr	r3, [r7, #4]
  91 0058 1B68     		ldr	r3, [r3]
  92              		.loc 1 162 2
  93 005a 0021     		movs	r1, #0
  94 005c 1846     		mov	r0, r3
  95 005e FFF7FEFF 		bl	USB_SetCurrentMode
 163:./Libraries/STM32F4xx_HAL_Driver/Src/stm32f4xx_hal_pcd.c ****  
 164:./Libraries/STM32F4xx_HAL_Driver/Src/stm32f4xx_hal_pcd.c ****  /* Init endpoints structures */
 165:./Libraries/STM32F4xx_HAL_Driver/Src/stm32f4xx_hal_pcd.c ****  for (i = 0U; i < 15U; i++)
  96              		.loc 1 165 9
  97 0062 0023     		movs	r3, #0
  98 0064 FB60     		str	r3, [r7, #12]
  99              		.loc 1 165 2
 100 0066 4CE0     		b	.L4
 101              	.L5:
 166:./Libraries/STM32F4xx_HAL_Driver/Src/stm32f4xx_hal_pcd.c ****  {
 167:./Libraries/STM32F4xx_HAL_Driver/Src/stm32f4xx_hal_pcd.c ****    /* Init ep structure */
 168:./Libraries/STM32F4xx_HAL_Driver/Src/stm32f4xx_hal_pcd.c ****    hpcd->IN_ep[i].is_in = 1U;
 102              		.loc 1 168 25 discriminator 3
 103 0068 7968     		ldr	r1, [r7, #4]
 104 006a FA68     		ldr	r2, [r7, #12]
 105 006c 1346     		mov	r3, r2
 106 006e DB00     		lsls	r3, r3, #3
 107 0070 9B1A     		subs	r3, r3, r2
 108 0072 9B00     		lsls	r3, r3, #2
 109 0074 0B44     		add	r3, r3, r1
 110 0076 3933     		adds	r3, r3, #57
 111 0078 0122     		movs	r2, #1
 112 007a 1A70     		strb	r2, [r3]
 169:./Libraries/STM32F4xx_HAL_Driver/Src/stm32f4xx_hal_pcd.c ****    hpcd->IN_ep[i].num = i;
 113              		.loc 1 169 23 discriminator 3
 114 007c FB68     		ldr	r3, [r7, #12]
 115 007e D8B2     		uxtb	r0, r3
 116 0080 7968     		ldr	r1, [r7, #4]
 117 0082 FA68     		ldr	r2, [r7, #12]
ARM GAS  /tmp/ccNCvjXU.s 			page 6


 118 0084 1346     		mov	r3, r2
 119 0086 DB00     		lsls	r3, r3, #3
 120 0088 9B1A     		subs	r3, r3, r2
 121 008a 9B00     		lsls	r3, r3, #2
 122 008c 0B44     		add	r3, r3, r1
 123 008e 3833     		adds	r3, r3, #56
 124 0090 0246     		mov	r2, r0
 125 0092 1A70     		strb	r2, [r3]
 170:./Libraries/STM32F4xx_HAL_Driver/Src/stm32f4xx_hal_pcd.c ****    hpcd->IN_ep[i].tx_fifo_num = i;
 126              		.loc 1 170 31 discriminator 3
 127 0094 FB68     		ldr	r3, [r7, #12]
 128 0096 98B2     		uxth	r0, r3
 129 0098 7968     		ldr	r1, [r7, #4]
 130 009a FA68     		ldr	r2, [r7, #12]
 131 009c 1346     		mov	r3, r2
 132 009e DB00     		lsls	r3, r3, #3
 133 00a0 9B1A     		subs	r3, r3, r2
 134 00a2 9B00     		lsls	r3, r3, #2
 135 00a4 0B44     		add	r3, r3, r1
 136 00a6 3E33     		adds	r3, r3, #62
 137 00a8 0246     		mov	r2, r0	@ movhi
 138 00aa 1A80     		strh	r2, [r3]	@ movhi
 171:./Libraries/STM32F4xx_HAL_Driver/Src/stm32f4xx_hal_pcd.c ****    /* Control until ep is activated */
 172:./Libraries/STM32F4xx_HAL_Driver/Src/stm32f4xx_hal_pcd.c ****    hpcd->IN_ep[i].type = EP_TYPE_CTRL;
 139              		.loc 1 172 24 discriminator 3
 140 00ac 7968     		ldr	r1, [r7, #4]
 141 00ae FA68     		ldr	r2, [r7, #12]
 142 00b0 1346     		mov	r3, r2
 143 00b2 DB00     		lsls	r3, r3, #3
 144 00b4 9B1A     		subs	r3, r3, r2
 145 00b6 9B00     		lsls	r3, r3, #2
 146 00b8 0B44     		add	r3, r3, r1
 147 00ba 3B33     		adds	r3, r3, #59
 148 00bc 0022     		movs	r2, #0
 149 00be 1A70     		strb	r2, [r3]
 173:./Libraries/STM32F4xx_HAL_Driver/Src/stm32f4xx_hal_pcd.c ****    hpcd->IN_ep[i].maxpacket = 0U;
 150              		.loc 1 173 29 discriminator 3
 151 00c0 7968     		ldr	r1, [r7, #4]
 152 00c2 FA68     		ldr	r2, [r7, #12]
 153 00c4 1346     		mov	r3, r2
 154 00c6 DB00     		lsls	r3, r3, #3
 155 00c8 9B1A     		subs	r3, r3, r2
 156 00ca 9B00     		lsls	r3, r3, #2
 157 00cc 0B44     		add	r3, r3, r1
 158 00ce 4033     		adds	r3, r3, #64
 159 00d0 0022     		movs	r2, #0
 160 00d2 1A60     		str	r2, [r3]
 174:./Libraries/STM32F4xx_HAL_Driver/Src/stm32f4xx_hal_pcd.c ****    hpcd->IN_ep[i].xfer_buff = 0U;
 161              		.loc 1 174 29 discriminator 3
 162 00d4 7968     		ldr	r1, [r7, #4]
 163 00d6 FA68     		ldr	r2, [r7, #12]
 164 00d8 1346     		mov	r3, r2
 165 00da DB00     		lsls	r3, r3, #3
 166 00dc 9B1A     		subs	r3, r3, r2
 167 00de 9B00     		lsls	r3, r3, #2
 168 00e0 0B44     		add	r3, r3, r1
 169 00e2 4433     		adds	r3, r3, #68
ARM GAS  /tmp/ccNCvjXU.s 			page 7


 170 00e4 0022     		movs	r2, #0
 171 00e6 1A60     		str	r2, [r3]
 175:./Libraries/STM32F4xx_HAL_Driver/Src/stm32f4xx_hal_pcd.c ****    hpcd->IN_ep[i].xfer_len = 0U;
 172              		.loc 1 175 28 discriminator 3
 173 00e8 7968     		ldr	r1, [r7, #4]
 174 00ea FA68     		ldr	r2, [r7, #12]
 175 00ec 1346     		mov	r3, r2
 176 00ee DB00     		lsls	r3, r3, #3
 177 00f0 9B1A     		subs	r3, r3, r2
 178 00f2 9B00     		lsls	r3, r3, #2
 179 00f4 0B44     		add	r3, r3, r1
 180 00f6 4C33     		adds	r3, r3, #76
 181 00f8 0022     		movs	r2, #0
 182 00fa 1A60     		str	r2, [r3]
 165:./Libraries/STM32F4xx_HAL_Driver/Src/stm32f4xx_hal_pcd.c ****  {
 183              		.loc 1 165 25 discriminator 3
 184 00fc FB68     		ldr	r3, [r7, #12]
 185 00fe 0133     		adds	r3, r3, #1
 186 0100 FB60     		str	r3, [r7, #12]
 187              	.L4:
 165:./Libraries/STM32F4xx_HAL_Driver/Src/stm32f4xx_hal_pcd.c ****  {
 188              		.loc 1 165 2 discriminator 1
 189 0102 FB68     		ldr	r3, [r7, #12]
 190 0104 0E2B     		cmp	r3, #14
 191 0106 AFD9     		bls	.L5
 176:./Libraries/STM32F4xx_HAL_Driver/Src/stm32f4xx_hal_pcd.c ****  }
 177:./Libraries/STM32F4xx_HAL_Driver/Src/stm32f4xx_hal_pcd.c ****  
 178:./Libraries/STM32F4xx_HAL_Driver/Src/stm32f4xx_hal_pcd.c ****  for (i = 0U; i < 15U; i++)
 192              		.loc 1 178 9
 193 0108 0023     		movs	r3, #0
 194 010a FB60     		str	r3, [r7, #12]
 195              		.loc 1 178 2
 196 010c 5AE0     		b	.L6
 197              	.L7:
 179:./Libraries/STM32F4xx_HAL_Driver/Src/stm32f4xx_hal_pcd.c ****  {
 180:./Libraries/STM32F4xx_HAL_Driver/Src/stm32f4xx_hal_pcd.c ****    hpcd->OUT_ep[i].is_in = 0U;
 198              		.loc 1 180 26 discriminator 3
 199 010e 7968     		ldr	r1, [r7, #4]
 200 0110 FA68     		ldr	r2, [r7, #12]
 201 0112 1346     		mov	r3, r2
 202 0114 DB00     		lsls	r3, r3, #3
 203 0116 9B1A     		subs	r3, r3, r2
 204 0118 9B00     		lsls	r3, r3, #2
 205 011a 0B44     		add	r3, r3, r1
 206 011c 03F2F913 		addw	r3, r3, #505
 207 0120 0022     		movs	r2, #0
 208 0122 1A70     		strb	r2, [r3]
 181:./Libraries/STM32F4xx_HAL_Driver/Src/stm32f4xx_hal_pcd.c ****    hpcd->OUT_ep[i].num = i;
 209              		.loc 1 181 24 discriminator 3
 210 0124 FB68     		ldr	r3, [r7, #12]
 211 0126 D8B2     		uxtb	r0, r3
 212 0128 7968     		ldr	r1, [r7, #4]
 213 012a FA68     		ldr	r2, [r7, #12]
 214 012c 1346     		mov	r3, r2
 215 012e DB00     		lsls	r3, r3, #3
 216 0130 9B1A     		subs	r3, r3, r2
 217 0132 9B00     		lsls	r3, r3, #2
ARM GAS  /tmp/ccNCvjXU.s 			page 8


 218 0134 0B44     		add	r3, r3, r1
 219 0136 03F5FC73 		add	r3, r3, #504
 220 013a 0246     		mov	r2, r0
 221 013c 1A70     		strb	r2, [r3]
 182:./Libraries/STM32F4xx_HAL_Driver/Src/stm32f4xx_hal_pcd.c ****    hpcd->IN_ep[i].tx_fifo_num = i;
 222              		.loc 1 182 31 discriminator 3
 223 013e FB68     		ldr	r3, [r7, #12]
 224 0140 98B2     		uxth	r0, r3
 225 0142 7968     		ldr	r1, [r7, #4]
 226 0144 FA68     		ldr	r2, [r7, #12]
 227 0146 1346     		mov	r3, r2
 228 0148 DB00     		lsls	r3, r3, #3
 229 014a 9B1A     		subs	r3, r3, r2
 230 014c 9B00     		lsls	r3, r3, #2
 231 014e 0B44     		add	r3, r3, r1
 232 0150 3E33     		adds	r3, r3, #62
 233 0152 0246     		mov	r2, r0	@ movhi
 234 0154 1A80     		strh	r2, [r3]	@ movhi
 183:./Libraries/STM32F4xx_HAL_Driver/Src/stm32f4xx_hal_pcd.c ****    /* Control until ep is activated */
 184:./Libraries/STM32F4xx_HAL_Driver/Src/stm32f4xx_hal_pcd.c ****    hpcd->OUT_ep[i].type = EP_TYPE_CTRL;
 235              		.loc 1 184 25 discriminator 3
 236 0156 7968     		ldr	r1, [r7, #4]
 237 0158 FA68     		ldr	r2, [r7, #12]
 238 015a 1346     		mov	r3, r2
 239 015c DB00     		lsls	r3, r3, #3
 240 015e 9B1A     		subs	r3, r3, r2
 241 0160 9B00     		lsls	r3, r3, #2
 242 0162 0B44     		add	r3, r3, r1
 243 0164 03F2FB13 		addw	r3, r3, #507
 244 0168 0022     		movs	r2, #0
 245 016a 1A70     		strb	r2, [r3]
 185:./Libraries/STM32F4xx_HAL_Driver/Src/stm32f4xx_hal_pcd.c ****    hpcd->OUT_ep[i].maxpacket = 0U;
 246              		.loc 1 185 30 discriminator 3
 247 016c 7968     		ldr	r1, [r7, #4]
 248 016e FA68     		ldr	r2, [r7, #12]
 249 0170 1346     		mov	r3, r2
 250 0172 DB00     		lsls	r3, r3, #3
 251 0174 9B1A     		subs	r3, r3, r2
 252 0176 9B00     		lsls	r3, r3, #2
 253 0178 0B44     		add	r3, r3, r1
 254 017a 03F50073 		add	r3, r3, #512
 255 017e 0022     		movs	r2, #0
 256 0180 1A60     		str	r2, [r3]
 186:./Libraries/STM32F4xx_HAL_Driver/Src/stm32f4xx_hal_pcd.c ****    hpcd->OUT_ep[i].xfer_buff = 0U;
 257              		.loc 1 186 30 discriminator 3
 258 0182 7968     		ldr	r1, [r7, #4]
 259 0184 FA68     		ldr	r2, [r7, #12]
 260 0186 1346     		mov	r3, r2
 261 0188 DB00     		lsls	r3, r3, #3
 262 018a 9B1A     		subs	r3, r3, r2
 263 018c 9B00     		lsls	r3, r3, #2
 264 018e 0B44     		add	r3, r3, r1
 265 0190 03F50173 		add	r3, r3, #516
 266 0194 0022     		movs	r2, #0
 267 0196 1A60     		str	r2, [r3]
 187:./Libraries/STM32F4xx_HAL_Driver/Src/stm32f4xx_hal_pcd.c ****    hpcd->OUT_ep[i].xfer_len = 0U;
 268              		.loc 1 187 29 discriminator 3
ARM GAS  /tmp/ccNCvjXU.s 			page 9


 269 0198 7968     		ldr	r1, [r7, #4]
 270 019a FA68     		ldr	r2, [r7, #12]
 271 019c 1346     		mov	r3, r2
 272 019e DB00     		lsls	r3, r3, #3
 273 01a0 9B1A     		subs	r3, r3, r2
 274 01a2 9B00     		lsls	r3, r3, #2
 275 01a4 0B44     		add	r3, r3, r1
 276 01a6 03F50373 		add	r3, r3, #524
 277 01aa 0022     		movs	r2, #0
 278 01ac 1A60     		str	r2, [r3]
 188:./Libraries/STM32F4xx_HAL_Driver/Src/stm32f4xx_hal_pcd.c ****    
 189:./Libraries/STM32F4xx_HAL_Driver/Src/stm32f4xx_hal_pcd.c ****    hpcd->Instance->DIEPTXF[i] = 0U;
 279              		.loc 1 189 8 discriminator 3
 280 01ae 7B68     		ldr	r3, [r7, #4]
 281 01b0 1A68     		ldr	r2, [r3]
 282              		.loc 1 189 31 discriminator 3
 283 01b2 FB68     		ldr	r3, [r7, #12]
 284 01b4 4033     		adds	r3, r3, #64
 285 01b6 9B00     		lsls	r3, r3, #2
 286 01b8 1344     		add	r3, r3, r2
 287 01ba 0022     		movs	r2, #0
 288 01bc 5A60     		str	r2, [r3, #4]
 178:./Libraries/STM32F4xx_HAL_Driver/Src/stm32f4xx_hal_pcd.c ****  {
 289              		.loc 1 178 25 discriminator 3
 290 01be FB68     		ldr	r3, [r7, #12]
 291 01c0 0133     		adds	r3, r3, #1
 292 01c2 FB60     		str	r3, [r7, #12]
 293              	.L6:
 178:./Libraries/STM32F4xx_HAL_Driver/Src/stm32f4xx_hal_pcd.c ****  {
 294              		.loc 1 178 2 discriminator 1
 295 01c4 FB68     		ldr	r3, [r7, #12]
 296 01c6 0E2B     		cmp	r3, #14
 297 01c8 A1D9     		bls	.L7
 190:./Libraries/STM32F4xx_HAL_Driver/Src/stm32f4xx_hal_pcd.c ****  }
 191:./Libraries/STM32F4xx_HAL_Driver/Src/stm32f4xx_hal_pcd.c ****  
 192:./Libraries/STM32F4xx_HAL_Driver/Src/stm32f4xx_hal_pcd.c ****  /* Init Device */
 193:./Libraries/STM32F4xx_HAL_Driver/Src/stm32f4xx_hal_pcd.c ****  USB_DevInit(hpcd->Instance, hpcd->Init);
 298              		.loc 1 193 18
 299 01ca 7B68     		ldr	r3, [r7, #4]
 300 01cc 1B68     		ldr	r3, [r3]
 301 01ce 3B60     		str	r3, [r7]
 302              		.loc 1 193 2
 303 01d0 7E68     		ldr	r6, [r7, #4]
 304 01d2 6D46     		mov	r5, sp
 305 01d4 06F11004 		add	r4, r6, #16
 306 01d8 0FCC     		ldmia	r4!, {r0, r1, r2, r3}
 307 01da 0FC5     		stmia	r5!, {r0, r1, r2, r3}
 308 01dc 0FCC     		ldmia	r4!, {r0, r1, r2, r3}
 309 01de 0FC5     		stmia	r5!, {r0, r1, r2, r3}
 310 01e0 94E80300 		ldm	r4, {r0, r1}
 311 01e4 85E80300 		stm	r5, {r0, r1}
 312 01e8 331D     		adds	r3, r6, #4
 313 01ea 0ECB     		ldm	r3, {r1, r2, r3}
 314 01ec 3868     		ldr	r0, [r7]
 315 01ee FFF7FEFF 		bl	USB_DevInit
 194:./Libraries/STM32F4xx_HAL_Driver/Src/stm32f4xx_hal_pcd.c ****  
 195:./Libraries/STM32F4xx_HAL_Driver/Src/stm32f4xx_hal_pcd.c ****  hpcd->State= HAL_PCD_STATE_READY;
ARM GAS  /tmp/ccNCvjXU.s 			page 10


 316              		.loc 1 195 13
 317 01f2 7B68     		ldr	r3, [r7, #4]
 318 01f4 0122     		movs	r2, #1
 319 01f6 83F8B923 		strb	r2, [r3, #953]
 196:./Libraries/STM32F4xx_HAL_Driver/Src/stm32f4xx_hal_pcd.c ****  
 197:./Libraries/STM32F4xx_HAL_Driver/Src/stm32f4xx_hal_pcd.c **** #ifdef USB_OTG_GLPMCFG_LPMEN
 198:./Libraries/STM32F4xx_HAL_Driver/Src/stm32f4xx_hal_pcd.c ****  /* Activate LPM */
 199:./Libraries/STM32F4xx_HAL_Driver/Src/stm32f4xx_hal_pcd.c ****  if (hpcd->Init.lpm_enable == 1U)
 200:./Libraries/STM32F4xx_HAL_Driver/Src/stm32f4xx_hal_pcd.c ****  {
 201:./Libraries/STM32F4xx_HAL_Driver/Src/stm32f4xx_hal_pcd.c ****    HAL_PCDEx_ActivateLPM(hpcd);
 202:./Libraries/STM32F4xx_HAL_Driver/Src/stm32f4xx_hal_pcd.c ****  }
 203:./Libraries/STM32F4xx_HAL_Driver/Src/stm32f4xx_hal_pcd.c **** #endif /* USB_OTG_GLPMCFG_LPMEN */
 204:./Libraries/STM32F4xx_HAL_Driver/Src/stm32f4xx_hal_pcd.c ****  
 205:./Libraries/STM32F4xx_HAL_Driver/Src/stm32f4xx_hal_pcd.c **** #ifdef USB_OTG_GCCFG_BCDEN
 206:./Libraries/STM32F4xx_HAL_Driver/Src/stm32f4xx_hal_pcd.c ****  /* Activate Battery charging */
 207:./Libraries/STM32F4xx_HAL_Driver/Src/stm32f4xx_hal_pcd.c ****  if (hpcd->Init.battery_charging_enable == 1U)
 208:./Libraries/STM32F4xx_HAL_Driver/Src/stm32f4xx_hal_pcd.c ****  {
 209:./Libraries/STM32F4xx_HAL_Driver/Src/stm32f4xx_hal_pcd.c ****    HAL_PCDEx_ActivateBCD(hpcd);
 210:./Libraries/STM32F4xx_HAL_Driver/Src/stm32f4xx_hal_pcd.c ****  }
 211:./Libraries/STM32F4xx_HAL_Driver/Src/stm32f4xx_hal_pcd.c **** #endif /* USB_OTG_GCCFG_BCDEN */
 212:./Libraries/STM32F4xx_HAL_Driver/Src/stm32f4xx_hal_pcd.c ****  
 213:./Libraries/STM32F4xx_HAL_Driver/Src/stm32f4xx_hal_pcd.c ****  USB_DevDisconnect (hpcd->Instance);  
 320              		.loc 1 213 25
 321 01fa 7B68     		ldr	r3, [r7, #4]
 322 01fc 1B68     		ldr	r3, [r3]
 323              		.loc 1 213 2
 324 01fe 1846     		mov	r0, r3
 325 0200 FFF7FEFF 		bl	USB_DevDisconnect
 214:./Libraries/STM32F4xx_HAL_Driver/Src/stm32f4xx_hal_pcd.c ****  return HAL_OK;
 326              		.loc 1 214 9
 327 0204 0023     		movs	r3, #0
 328              	.L3:
 215:./Libraries/STM32F4xx_HAL_Driver/Src/stm32f4xx_hal_pcd.c **** }
 329              		.loc 1 215 1
 330 0206 1846     		mov	r0, r3
 331 0208 1437     		adds	r7, r7, #20
 332              	.LCFI3:
 333              		.cfi_def_cfa_offset 20
 334 020a BD46     		mov	sp, r7
 335              	.LCFI4:
 336              		.cfi_def_cfa_register 13
 337              		@ sp needed
 338 020c F0BD     		pop	{r4, r5, r6, r7, pc}
 339              		.cfi_endproc
 340              	.LFE126:
 342              		.section	.text.HAL_PCD_DeInit,"ax",%progbits
 343              		.align	1
 344              		.global	HAL_PCD_DeInit
 345              		.syntax unified
 346              		.thumb
 347              		.thumb_func
 348              		.fpu fpv4-sp-d16
 350              	HAL_PCD_DeInit:
 351              	.LFB127:
 216:./Libraries/STM32F4xx_HAL_Driver/Src/stm32f4xx_hal_pcd.c **** 
 217:./Libraries/STM32F4xx_HAL_Driver/Src/stm32f4xx_hal_pcd.c **** /**
 218:./Libraries/STM32F4xx_HAL_Driver/Src/stm32f4xx_hal_pcd.c ****   * @brief  DeInitializes the PCD peripheral. 
ARM GAS  /tmp/ccNCvjXU.s 			page 11


 219:./Libraries/STM32F4xx_HAL_Driver/Src/stm32f4xx_hal_pcd.c ****   * @param  hpcd PCD handle
 220:./Libraries/STM32F4xx_HAL_Driver/Src/stm32f4xx_hal_pcd.c ****   * @retval HAL status
 221:./Libraries/STM32F4xx_HAL_Driver/Src/stm32f4xx_hal_pcd.c ****   */
 222:./Libraries/STM32F4xx_HAL_Driver/Src/stm32f4xx_hal_pcd.c **** HAL_StatusTypeDef HAL_PCD_DeInit(PCD_HandleTypeDef *hpcd)
 223:./Libraries/STM32F4xx_HAL_Driver/Src/stm32f4xx_hal_pcd.c **** {
 352              		.loc 1 223 1
 353              		.cfi_startproc
 354              		@ args = 0, pretend = 0, frame = 8
 355              		@ frame_needed = 1, uses_anonymous_args = 0
 356 0000 80B5     		push	{r7, lr}
 357              	.LCFI5:
 358              		.cfi_def_cfa_offset 8
 359              		.cfi_offset 7, -8
 360              		.cfi_offset 14, -4
 361 0002 82B0     		sub	sp, sp, #8
 362              	.LCFI6:
 363              		.cfi_def_cfa_offset 16
 364 0004 00AF     		add	r7, sp, #0
 365              	.LCFI7:
 366              		.cfi_def_cfa_register 7
 367 0006 7860     		str	r0, [r7, #4]
 224:./Libraries/STM32F4xx_HAL_Driver/Src/stm32f4xx_hal_pcd.c ****   /* Check the PCD handle allocation */
 225:./Libraries/STM32F4xx_HAL_Driver/Src/stm32f4xx_hal_pcd.c ****   if(hpcd == NULL)
 368              		.loc 1 225 5
 369 0008 7B68     		ldr	r3, [r7, #4]
 370 000a 002B     		cmp	r3, #0
 371 000c 01D1     		bne	.L9
 226:./Libraries/STM32F4xx_HAL_Driver/Src/stm32f4xx_hal_pcd.c ****   {
 227:./Libraries/STM32F4xx_HAL_Driver/Src/stm32f4xx_hal_pcd.c ****     return HAL_ERROR;
 372              		.loc 1 227 12
 373 000e 0123     		movs	r3, #1
 374 0010 0EE0     		b	.L10
 375              	.L9:
 228:./Libraries/STM32F4xx_HAL_Driver/Src/stm32f4xx_hal_pcd.c ****   }
 229:./Libraries/STM32F4xx_HAL_Driver/Src/stm32f4xx_hal_pcd.c **** 
 230:./Libraries/STM32F4xx_HAL_Driver/Src/stm32f4xx_hal_pcd.c ****   hpcd->State = HAL_PCD_STATE_BUSY;
 376              		.loc 1 230 15
 377 0012 7B68     		ldr	r3, [r7, #4]
 378 0014 0322     		movs	r2, #3
 379 0016 83F8B923 		strb	r2, [r3, #953]
 231:./Libraries/STM32F4xx_HAL_Driver/Src/stm32f4xx_hal_pcd.c ****   
 232:./Libraries/STM32F4xx_HAL_Driver/Src/stm32f4xx_hal_pcd.c ****   /* Stop Device */
 233:./Libraries/STM32F4xx_HAL_Driver/Src/stm32f4xx_hal_pcd.c ****   HAL_PCD_Stop(hpcd);
 380              		.loc 1 233 3
 381 001a 7868     		ldr	r0, [r7, #4]
 382 001c FFF7FEFF 		bl	HAL_PCD_Stop
 234:./Libraries/STM32F4xx_HAL_Driver/Src/stm32f4xx_hal_pcd.c ****     
 235:./Libraries/STM32F4xx_HAL_Driver/Src/stm32f4xx_hal_pcd.c ****   /* DeInit the low level hardware */
 236:./Libraries/STM32F4xx_HAL_Driver/Src/stm32f4xx_hal_pcd.c ****   HAL_PCD_MspDeInit(hpcd);
 383              		.loc 1 236 3
 384 0020 7868     		ldr	r0, [r7, #4]
 385 0022 FFF7FEFF 		bl	HAL_PCD_MspDeInit
 237:./Libraries/STM32F4xx_HAL_Driver/Src/stm32f4xx_hal_pcd.c ****   
 238:./Libraries/STM32F4xx_HAL_Driver/Src/stm32f4xx_hal_pcd.c ****   hpcd->State = HAL_PCD_STATE_RESET; 
 386              		.loc 1 238 15
 387 0026 7B68     		ldr	r3, [r7, #4]
 388 0028 0022     		movs	r2, #0
ARM GAS  /tmp/ccNCvjXU.s 			page 12


 389 002a 83F8B923 		strb	r2, [r3, #953]
 239:./Libraries/STM32F4xx_HAL_Driver/Src/stm32f4xx_hal_pcd.c ****   
 240:./Libraries/STM32F4xx_HAL_Driver/Src/stm32f4xx_hal_pcd.c ****   return HAL_OK;
 390              		.loc 1 240 10
 391 002e 0023     		movs	r3, #0
 392              	.L10:
 241:./Libraries/STM32F4xx_HAL_Driver/Src/stm32f4xx_hal_pcd.c **** }
 393              		.loc 1 241 1
 394 0030 1846     		mov	r0, r3
 395 0032 0837     		adds	r7, r7, #8
 396              	.LCFI8:
 397              		.cfi_def_cfa_offset 8
 398 0034 BD46     		mov	sp, r7
 399              	.LCFI9:
 400              		.cfi_def_cfa_register 13
 401              		@ sp needed
 402 0036 80BD     		pop	{r7, pc}
 403              		.cfi_endproc
 404              	.LFE127:
 406              		.section	.text.HAL_PCD_MspInit,"ax",%progbits
 407              		.align	1
 408              		.weak	HAL_PCD_MspInit
 409              		.syntax unified
 410              		.thumb
 411              		.thumb_func
 412              		.fpu fpv4-sp-d16
 414              	HAL_PCD_MspInit:
 415              	.LFB128:
 242:./Libraries/STM32F4xx_HAL_Driver/Src/stm32f4xx_hal_pcd.c **** 
 243:./Libraries/STM32F4xx_HAL_Driver/Src/stm32f4xx_hal_pcd.c **** /**
 244:./Libraries/STM32F4xx_HAL_Driver/Src/stm32f4xx_hal_pcd.c ****   * @brief  Initializes the PCD MSP.
 245:./Libraries/STM32F4xx_HAL_Driver/Src/stm32f4xx_hal_pcd.c ****   * @param  hpcd PCD handle
 246:./Libraries/STM32F4xx_HAL_Driver/Src/stm32f4xx_hal_pcd.c ****   * @retval None
 247:./Libraries/STM32F4xx_HAL_Driver/Src/stm32f4xx_hal_pcd.c ****   */
 248:./Libraries/STM32F4xx_HAL_Driver/Src/stm32f4xx_hal_pcd.c **** __weak void HAL_PCD_MspInit(PCD_HandleTypeDef *hpcd)
 249:./Libraries/STM32F4xx_HAL_Driver/Src/stm32f4xx_hal_pcd.c **** {
 416              		.loc 1 249 1
 417              		.cfi_startproc
 418              		@ args = 0, pretend = 0, frame = 8
 419              		@ frame_needed = 1, uses_anonymous_args = 0
 420              		@ link register save eliminated.
 421 0000 80B4     		push	{r7}
 422              	.LCFI10:
 423              		.cfi_def_cfa_offset 4
 424              		.cfi_offset 7, -4
 425 0002 83B0     		sub	sp, sp, #12
 426              	.LCFI11:
 427              		.cfi_def_cfa_offset 16
 428 0004 00AF     		add	r7, sp, #0
 429              	.LCFI12:
 430              		.cfi_def_cfa_register 7
 431 0006 7860     		str	r0, [r7, #4]
 250:./Libraries/STM32F4xx_HAL_Driver/Src/stm32f4xx_hal_pcd.c ****   /* Prevent unused argument(s) compilation warning */
 251:./Libraries/STM32F4xx_HAL_Driver/Src/stm32f4xx_hal_pcd.c ****   UNUSED(hpcd);
 252:./Libraries/STM32F4xx_HAL_Driver/Src/stm32f4xx_hal_pcd.c ****   /* NOTE : This function Should not be modified, when the callback is needed,
 253:./Libraries/STM32F4xx_HAL_Driver/Src/stm32f4xx_hal_pcd.c ****             the HAL_PCD_MspInit could be implemented in the user file
 254:./Libraries/STM32F4xx_HAL_Driver/Src/stm32f4xx_hal_pcd.c ****    */
ARM GAS  /tmp/ccNCvjXU.s 			page 13


 255:./Libraries/STM32F4xx_HAL_Driver/Src/stm32f4xx_hal_pcd.c **** }
 432              		.loc 1 255 1
 433 0008 00BF     		nop
 434 000a 0C37     		adds	r7, r7, #12
 435              	.LCFI13:
 436              		.cfi_def_cfa_offset 4
 437 000c BD46     		mov	sp, r7
 438              	.LCFI14:
 439              		.cfi_def_cfa_register 13
 440              		@ sp needed
 441 000e 5DF8047B 		ldr	r7, [sp], #4
 442              	.LCFI15:
 443              		.cfi_restore 7
 444              		.cfi_def_cfa_offset 0
 445 0012 7047     		bx	lr
 446              		.cfi_endproc
 447              	.LFE128:
 449              		.section	.text.HAL_PCD_MspDeInit,"ax",%progbits
 450              		.align	1
 451              		.weak	HAL_PCD_MspDeInit
 452              		.syntax unified
 453              		.thumb
 454              		.thumb_func
 455              		.fpu fpv4-sp-d16
 457              	HAL_PCD_MspDeInit:
 458              	.LFB129:
 256:./Libraries/STM32F4xx_HAL_Driver/Src/stm32f4xx_hal_pcd.c **** 
 257:./Libraries/STM32F4xx_HAL_Driver/Src/stm32f4xx_hal_pcd.c **** /**
 258:./Libraries/STM32F4xx_HAL_Driver/Src/stm32f4xx_hal_pcd.c ****   * @brief  DeInitializes PCD MSP.
 259:./Libraries/STM32F4xx_HAL_Driver/Src/stm32f4xx_hal_pcd.c ****   * @param  hpcd PCD handle
 260:./Libraries/STM32F4xx_HAL_Driver/Src/stm32f4xx_hal_pcd.c ****   * @retval None
 261:./Libraries/STM32F4xx_HAL_Driver/Src/stm32f4xx_hal_pcd.c ****   */
 262:./Libraries/STM32F4xx_HAL_Driver/Src/stm32f4xx_hal_pcd.c **** __weak void HAL_PCD_MspDeInit(PCD_HandleTypeDef *hpcd)
 263:./Libraries/STM32F4xx_HAL_Driver/Src/stm32f4xx_hal_pcd.c **** {
 459              		.loc 1 263 1
 460              		.cfi_startproc
 461              		@ args = 0, pretend = 0, frame = 8
 462              		@ frame_needed = 1, uses_anonymous_args = 0
 463              		@ link register save eliminated.
 464 0000 80B4     		push	{r7}
 465              	.LCFI16:
 466              		.cfi_def_cfa_offset 4
 467              		.cfi_offset 7, -4
 468 0002 83B0     		sub	sp, sp, #12
 469              	.LCFI17:
 470              		.cfi_def_cfa_offset 16
 471 0004 00AF     		add	r7, sp, #0
 472              	.LCFI18:
 473              		.cfi_def_cfa_register 7
 474 0006 7860     		str	r0, [r7, #4]
 264:./Libraries/STM32F4xx_HAL_Driver/Src/stm32f4xx_hal_pcd.c ****   /* Prevent unused argument(s) compilation warning */
 265:./Libraries/STM32F4xx_HAL_Driver/Src/stm32f4xx_hal_pcd.c ****   UNUSED(hpcd);
 266:./Libraries/STM32F4xx_HAL_Driver/Src/stm32f4xx_hal_pcd.c ****   /* NOTE : This function Should not be modified, when the callback is needed,
 267:./Libraries/STM32F4xx_HAL_Driver/Src/stm32f4xx_hal_pcd.c ****             the HAL_PCD_MspDeInit could be implemented in the user file
 268:./Libraries/STM32F4xx_HAL_Driver/Src/stm32f4xx_hal_pcd.c ****    */
 269:./Libraries/STM32F4xx_HAL_Driver/Src/stm32f4xx_hal_pcd.c **** }
 475              		.loc 1 269 1
ARM GAS  /tmp/ccNCvjXU.s 			page 14


 476 0008 00BF     		nop
 477 000a 0C37     		adds	r7, r7, #12
 478              	.LCFI19:
 479              		.cfi_def_cfa_offset 4
 480 000c BD46     		mov	sp, r7
 481              	.LCFI20:
 482              		.cfi_def_cfa_register 13
 483              		@ sp needed
 484 000e 5DF8047B 		ldr	r7, [sp], #4
 485              	.LCFI21:
 486              		.cfi_restore 7
 487              		.cfi_def_cfa_offset 0
 488 0012 7047     		bx	lr
 489              		.cfi_endproc
 490              	.LFE129:
 492              		.section	.text.HAL_PCD_Start,"ax",%progbits
 493              		.align	1
 494              		.global	HAL_PCD_Start
 495              		.syntax unified
 496              		.thumb
 497              		.thumb_func
 498              		.fpu fpv4-sp-d16
 500              	HAL_PCD_Start:
 501              	.LFB130:
 270:./Libraries/STM32F4xx_HAL_Driver/Src/stm32f4xx_hal_pcd.c **** 
 271:./Libraries/STM32F4xx_HAL_Driver/Src/stm32f4xx_hal_pcd.c **** /**
 272:./Libraries/STM32F4xx_HAL_Driver/Src/stm32f4xx_hal_pcd.c ****   * @}
 273:./Libraries/STM32F4xx_HAL_Driver/Src/stm32f4xx_hal_pcd.c ****   */
 274:./Libraries/STM32F4xx_HAL_Driver/Src/stm32f4xx_hal_pcd.c **** 
 275:./Libraries/STM32F4xx_HAL_Driver/Src/stm32f4xx_hal_pcd.c **** /** @defgroup PCD_Exported_Functions_Group2 Input and Output operation functions 
 276:./Libraries/STM32F4xx_HAL_Driver/Src/stm32f4xx_hal_pcd.c ****  *  @brief   Data transfers functions 
 277:./Libraries/STM32F4xx_HAL_Driver/Src/stm32f4xx_hal_pcd.c ****  *
 278:./Libraries/STM32F4xx_HAL_Driver/Src/stm32f4xx_hal_pcd.c **** @verbatim 
 279:./Libraries/STM32F4xx_HAL_Driver/Src/stm32f4xx_hal_pcd.c ****  ===============================================================================
 280:./Libraries/STM32F4xx_HAL_Driver/Src/stm32f4xx_hal_pcd.c ****                       ##### IO operation functions #####
 281:./Libraries/STM32F4xx_HAL_Driver/Src/stm32f4xx_hal_pcd.c ****  ===============================================================================  
 282:./Libraries/STM32F4xx_HAL_Driver/Src/stm32f4xx_hal_pcd.c ****     [..]
 283:./Libraries/STM32F4xx_HAL_Driver/Src/stm32f4xx_hal_pcd.c ****     This subsection provides a set of functions allowing to manage the PCD data 
 284:./Libraries/STM32F4xx_HAL_Driver/Src/stm32f4xx_hal_pcd.c ****     transfers.
 285:./Libraries/STM32F4xx_HAL_Driver/Src/stm32f4xx_hal_pcd.c **** 
 286:./Libraries/STM32F4xx_HAL_Driver/Src/stm32f4xx_hal_pcd.c **** @endverbatim
 287:./Libraries/STM32F4xx_HAL_Driver/Src/stm32f4xx_hal_pcd.c ****   * @{
 288:./Libraries/STM32F4xx_HAL_Driver/Src/stm32f4xx_hal_pcd.c ****   */
 289:./Libraries/STM32F4xx_HAL_Driver/Src/stm32f4xx_hal_pcd.c ****   
 290:./Libraries/STM32F4xx_HAL_Driver/Src/stm32f4xx_hal_pcd.c **** /**
 291:./Libraries/STM32F4xx_HAL_Driver/Src/stm32f4xx_hal_pcd.c ****   * @brief  Start The USB OTG Device.
 292:./Libraries/STM32F4xx_HAL_Driver/Src/stm32f4xx_hal_pcd.c ****   * @param  hpcd PCD handle
 293:./Libraries/STM32F4xx_HAL_Driver/Src/stm32f4xx_hal_pcd.c ****   * @retval HAL status
 294:./Libraries/STM32F4xx_HAL_Driver/Src/stm32f4xx_hal_pcd.c ****   */
 295:./Libraries/STM32F4xx_HAL_Driver/Src/stm32f4xx_hal_pcd.c **** HAL_StatusTypeDef HAL_PCD_Start(PCD_HandleTypeDef *hpcd)
 296:./Libraries/STM32F4xx_HAL_Driver/Src/stm32f4xx_hal_pcd.c **** { 
 502              		.loc 1 296 1
 503              		.cfi_startproc
 504              		@ args = 0, pretend = 0, frame = 8
 505              		@ frame_needed = 1, uses_anonymous_args = 0
 506 0000 80B5     		push	{r7, lr}
 507              	.LCFI22:
ARM GAS  /tmp/ccNCvjXU.s 			page 15


 508              		.cfi_def_cfa_offset 8
 509              		.cfi_offset 7, -8
 510              		.cfi_offset 14, -4
 511 0002 82B0     		sub	sp, sp, #8
 512              	.LCFI23:
 513              		.cfi_def_cfa_offset 16
 514 0004 00AF     		add	r7, sp, #0
 515              	.LCFI24:
 516              		.cfi_def_cfa_register 7
 517 0006 7860     		str	r0, [r7, #4]
 297:./Libraries/STM32F4xx_HAL_Driver/Src/stm32f4xx_hal_pcd.c ****   __HAL_LOCK(hpcd); 
 518              		.loc 1 297 3
 519 0008 7B68     		ldr	r3, [r7, #4]
 520 000a 93F8B833 		ldrb	r3, [r3, #952]	@ zero_extendqisi2
 521 000e 012B     		cmp	r3, #1
 522 0010 01D1     		bne	.L14
 523              		.loc 1 297 3 is_stmt 0 discriminator 1
 524 0012 0223     		movs	r3, #2
 525 0014 12E0     		b	.L15
 526              	.L14:
 527              		.loc 1 297 3 discriminator 2
 528 0016 7B68     		ldr	r3, [r7, #4]
 529 0018 0122     		movs	r2, #1
 530 001a 83F8B823 		strb	r2, [r3, #952]
 298:./Libraries/STM32F4xx_HAL_Driver/Src/stm32f4xx_hal_pcd.c ****   USB_DevConnect (hpcd->Instance);  
 531              		.loc 1 298 23 is_stmt 1 discriminator 2
 532 001e 7B68     		ldr	r3, [r7, #4]
 533 0020 1B68     		ldr	r3, [r3]
 534              		.loc 1 298 3 discriminator 2
 535 0022 1846     		mov	r0, r3
 536 0024 FFF7FEFF 		bl	USB_DevConnect
 299:./Libraries/STM32F4xx_HAL_Driver/Src/stm32f4xx_hal_pcd.c ****   __HAL_PCD_ENABLE(hpcd);
 537              		.loc 1 299 3 discriminator 2
 538 0028 7B68     		ldr	r3, [r7, #4]
 539 002a 1B68     		ldr	r3, [r3]
 540 002c 1846     		mov	r0, r3
 541 002e FFF7FEFF 		bl	USB_EnableGlobalInt
 300:./Libraries/STM32F4xx_HAL_Driver/Src/stm32f4xx_hal_pcd.c ****   __HAL_UNLOCK(hpcd); 
 542              		.loc 1 300 3 discriminator 2
 543 0032 7B68     		ldr	r3, [r7, #4]
 544 0034 0022     		movs	r2, #0
 545 0036 83F8B823 		strb	r2, [r3, #952]
 301:./Libraries/STM32F4xx_HAL_Driver/Src/stm32f4xx_hal_pcd.c ****   return HAL_OK;
 546              		.loc 1 301 10 discriminator 2
 547 003a 0023     		movs	r3, #0
 548              	.L15:
 302:./Libraries/STM32F4xx_HAL_Driver/Src/stm32f4xx_hal_pcd.c **** }
 549              		.loc 1 302 1
 550 003c 1846     		mov	r0, r3
 551 003e 0837     		adds	r7, r7, #8
 552              	.LCFI25:
 553              		.cfi_def_cfa_offset 8
 554 0040 BD46     		mov	sp, r7
 555              	.LCFI26:
 556              		.cfi_def_cfa_register 13
 557              		@ sp needed
 558 0042 80BD     		pop	{r7, pc}
ARM GAS  /tmp/ccNCvjXU.s 			page 16


 559              		.cfi_endproc
 560              	.LFE130:
 562              		.section	.text.HAL_PCD_Stop,"ax",%progbits
 563              		.align	1
 564              		.global	HAL_PCD_Stop
 565              		.syntax unified
 566              		.thumb
 567              		.thumb_func
 568              		.fpu fpv4-sp-d16
 570              	HAL_PCD_Stop:
 571              	.LFB131:
 303:./Libraries/STM32F4xx_HAL_Driver/Src/stm32f4xx_hal_pcd.c **** 
 304:./Libraries/STM32F4xx_HAL_Driver/Src/stm32f4xx_hal_pcd.c **** /**
 305:./Libraries/STM32F4xx_HAL_Driver/Src/stm32f4xx_hal_pcd.c ****   * @brief  Stop The USB OTG Device.
 306:./Libraries/STM32F4xx_HAL_Driver/Src/stm32f4xx_hal_pcd.c ****   * @param  hpcd PCD handle
 307:./Libraries/STM32F4xx_HAL_Driver/Src/stm32f4xx_hal_pcd.c ****   * @retval HAL status
 308:./Libraries/STM32F4xx_HAL_Driver/Src/stm32f4xx_hal_pcd.c ****   */
 309:./Libraries/STM32F4xx_HAL_Driver/Src/stm32f4xx_hal_pcd.c **** HAL_StatusTypeDef HAL_PCD_Stop(PCD_HandleTypeDef *hpcd)
 310:./Libraries/STM32F4xx_HAL_Driver/Src/stm32f4xx_hal_pcd.c **** { 
 572              		.loc 1 310 1
 573              		.cfi_startproc
 574              		@ args = 0, pretend = 0, frame = 8
 575              		@ frame_needed = 1, uses_anonymous_args = 0
 576 0000 80B5     		push	{r7, lr}
 577              	.LCFI27:
 578              		.cfi_def_cfa_offset 8
 579              		.cfi_offset 7, -8
 580              		.cfi_offset 14, -4
 581 0002 82B0     		sub	sp, sp, #8
 582              	.LCFI28:
 583              		.cfi_def_cfa_offset 16
 584 0004 00AF     		add	r7, sp, #0
 585              	.LCFI29:
 586              		.cfi_def_cfa_register 7
 587 0006 7860     		str	r0, [r7, #4]
 311:./Libraries/STM32F4xx_HAL_Driver/Src/stm32f4xx_hal_pcd.c ****   __HAL_LOCK(hpcd); 
 588              		.loc 1 311 3
 589 0008 7B68     		ldr	r3, [r7, #4]
 590 000a 93F8B833 		ldrb	r3, [r3, #952]	@ zero_extendqisi2
 591 000e 012B     		cmp	r3, #1
 592 0010 01D1     		bne	.L17
 593              		.loc 1 311 3 is_stmt 0 discriminator 1
 594 0012 0223     		movs	r3, #2
 595 0014 17E0     		b	.L18
 596              	.L17:
 597              		.loc 1 311 3 discriminator 2
 598 0016 7B68     		ldr	r3, [r7, #4]
 599 0018 0122     		movs	r2, #1
 600 001a 83F8B823 		strb	r2, [r3, #952]
 312:./Libraries/STM32F4xx_HAL_Driver/Src/stm32f4xx_hal_pcd.c ****   __HAL_PCD_DISABLE(hpcd);
 601              		.loc 1 312 3 is_stmt 1 discriminator 2
 602 001e 7B68     		ldr	r3, [r7, #4]
 603 0020 1B68     		ldr	r3, [r3]
 604 0022 1846     		mov	r0, r3
 605 0024 FFF7FEFF 		bl	USB_DisableGlobalInt
 313:./Libraries/STM32F4xx_HAL_Driver/Src/stm32f4xx_hal_pcd.c ****   USB_StopDevice(hpcd->Instance);
 606              		.loc 1 313 22 discriminator 2
ARM GAS  /tmp/ccNCvjXU.s 			page 17


 607 0028 7B68     		ldr	r3, [r7, #4]
 608 002a 1B68     		ldr	r3, [r3]
 609              		.loc 1 313 3 discriminator 2
 610 002c 1846     		mov	r0, r3
 611 002e FFF7FEFF 		bl	USB_StopDevice
 314:./Libraries/STM32F4xx_HAL_Driver/Src/stm32f4xx_hal_pcd.c ****   USB_DevDisconnect(hpcd->Instance);
 612              		.loc 1 314 25 discriminator 2
 613 0032 7B68     		ldr	r3, [r7, #4]
 614 0034 1B68     		ldr	r3, [r3]
 615              		.loc 1 314 3 discriminator 2
 616 0036 1846     		mov	r0, r3
 617 0038 FFF7FEFF 		bl	USB_DevDisconnect
 315:./Libraries/STM32F4xx_HAL_Driver/Src/stm32f4xx_hal_pcd.c ****   __HAL_UNLOCK(hpcd); 
 618              		.loc 1 315 3 discriminator 2
 619 003c 7B68     		ldr	r3, [r7, #4]
 620 003e 0022     		movs	r2, #0
 621 0040 83F8B823 		strb	r2, [r3, #952]
 316:./Libraries/STM32F4xx_HAL_Driver/Src/stm32f4xx_hal_pcd.c ****   return HAL_OK;
 622              		.loc 1 316 10 discriminator 2
 623 0044 0023     		movs	r3, #0
 624              	.L18:
 317:./Libraries/STM32F4xx_HAL_Driver/Src/stm32f4xx_hal_pcd.c **** }
 625              		.loc 1 317 1
 626 0046 1846     		mov	r0, r3
 627 0048 0837     		adds	r7, r7, #8
 628              	.LCFI30:
 629              		.cfi_def_cfa_offset 8
 630 004a BD46     		mov	sp, r7
 631              	.LCFI31:
 632              		.cfi_def_cfa_register 13
 633              		@ sp needed
 634 004c 80BD     		pop	{r7, pc}
 635              		.cfi_endproc
 636              	.LFE131:
 638              		.section	.text.HAL_PCD_IRQHandler,"ax",%progbits
 639              		.align	1
 640              		.global	HAL_PCD_IRQHandler
 641              		.syntax unified
 642              		.thumb
 643              		.thumb_func
 644              		.fpu fpv4-sp-d16
 646              	HAL_PCD_IRQHandler:
 647              	.LFB132:
 318:./Libraries/STM32F4xx_HAL_Driver/Src/stm32f4xx_hal_pcd.c **** 
 319:./Libraries/STM32F4xx_HAL_Driver/Src/stm32f4xx_hal_pcd.c **** /**
 320:./Libraries/STM32F4xx_HAL_Driver/Src/stm32f4xx_hal_pcd.c ****   * @brief  Handles PCD interrupt request.
 321:./Libraries/STM32F4xx_HAL_Driver/Src/stm32f4xx_hal_pcd.c ****   * @param  hpcd PCD handle
 322:./Libraries/STM32F4xx_HAL_Driver/Src/stm32f4xx_hal_pcd.c ****   * @retval HAL status
 323:./Libraries/STM32F4xx_HAL_Driver/Src/stm32f4xx_hal_pcd.c ****   */
 324:./Libraries/STM32F4xx_HAL_Driver/Src/stm32f4xx_hal_pcd.c **** void HAL_PCD_IRQHandler(PCD_HandleTypeDef *hpcd)
 325:./Libraries/STM32F4xx_HAL_Driver/Src/stm32f4xx_hal_pcd.c **** {
 648              		.loc 1 325 1
 649              		.cfi_startproc
 650              		@ args = 0, pretend = 0, frame = 48
 651              		@ frame_needed = 1, uses_anonymous_args = 0
 652 0000 80B5     		push	{r7, lr}
 653              	.LCFI32:
ARM GAS  /tmp/ccNCvjXU.s 			page 18


 654              		.cfi_def_cfa_offset 8
 655              		.cfi_offset 7, -8
 656              		.cfi_offset 14, -4
 657 0002 8CB0     		sub	sp, sp, #48
 658              	.LCFI33:
 659              		.cfi_def_cfa_offset 56
 660 0004 00AF     		add	r7, sp, #0
 661              	.LCFI34:
 662              		.cfi_def_cfa_register 7
 663 0006 7860     		str	r0, [r7, #4]
 326:./Libraries/STM32F4xx_HAL_Driver/Src/stm32f4xx_hal_pcd.c ****   USB_OTG_GlobalTypeDef *USBx = hpcd->Instance;
 664              		.loc 1 326 26
 665 0008 7B68     		ldr	r3, [r7, #4]
 666 000a 1B68     		ldr	r3, [r3]
 667 000c 3B62     		str	r3, [r7, #32]
 327:./Libraries/STM32F4xx_HAL_Driver/Src/stm32f4xx_hal_pcd.c ****   uint32_t i = 0U, ep_intr = 0U, epint = 0U, epnum = 0U;
 668              		.loc 1 327 12
 669 000e 0023     		movs	r3, #0
 670 0010 FB62     		str	r3, [r7, #44]
 671              		.loc 1 327 20
 672 0012 0023     		movs	r3, #0
 673 0014 BB62     		str	r3, [r7, #40]
 674              		.loc 1 327 34
 675 0016 0023     		movs	r3, #0
 676 0018 FB61     		str	r3, [r7, #28]
 677              		.loc 1 327 46
 678 001a 0023     		movs	r3, #0
 679 001c 7B62     		str	r3, [r7, #36]
 328:./Libraries/STM32F4xx_HAL_Driver/Src/stm32f4xx_hal_pcd.c ****   uint32_t fifoemptymsk = 0U, temp = 0U;
 680              		.loc 1 328 12
 681 001e 0023     		movs	r3, #0
 682 0020 BB61     		str	r3, [r7, #24]
 683              		.loc 1 328 31
 684 0022 0023     		movs	r3, #0
 685 0024 7B61     		str	r3, [r7, #20]
 329:./Libraries/STM32F4xx_HAL_Driver/Src/stm32f4xx_hal_pcd.c ****   USB_OTG_EPTypeDef *ep;
 330:./Libraries/STM32F4xx_HAL_Driver/Src/stm32f4xx_hal_pcd.c ****   uint32_t hclk = 180000000U;
 686              		.loc 1 330 12
 687 0026 7C4B     		ldr	r3, .L69
 688 0028 3B61     		str	r3, [r7, #16]
 331:./Libraries/STM32F4xx_HAL_Driver/Src/stm32f4xx_hal_pcd.c ****   
 332:./Libraries/STM32F4xx_HAL_Driver/Src/stm32f4xx_hal_pcd.c ****   /* ensure that we are in device mode */
 333:./Libraries/STM32F4xx_HAL_Driver/Src/stm32f4xx_hal_pcd.c ****   if (USB_GetMode(hpcd->Instance) == USB_OTG_MODE_DEVICE)
 689              		.loc 1 333 23
 690 002a 7B68     		ldr	r3, [r7, #4]
 691 002c 1B68     		ldr	r3, [r3]
 692              		.loc 1 333 7
 693 002e 1846     		mov	r0, r3
 694 0030 FFF7FEFF 		bl	USB_GetMode
 695 0034 0346     		mov	r3, r0
 696              		.loc 1 333 6
 697 0036 002B     		cmp	r3, #0
 698 0038 40F06084 		bne	.L19
 334:./Libraries/STM32F4xx_HAL_Driver/Src/stm32f4xx_hal_pcd.c ****   {    
 335:./Libraries/STM32F4xx_HAL_Driver/Src/stm32f4xx_hal_pcd.c ****     /* avoid spurious interrupt */
 336:./Libraries/STM32F4xx_HAL_Driver/Src/stm32f4xx_hal_pcd.c ****     if(__HAL_PCD_IS_INVALID_INTERRUPT(hpcd)) 
 699              		.loc 1 336 8
ARM GAS  /tmp/ccNCvjXU.s 			page 19


 700 003c 7B68     		ldr	r3, [r7, #4]
 701 003e 1B68     		ldr	r3, [r3]
 702 0040 1846     		mov	r0, r3
 703 0042 FFF7FEFF 		bl	USB_ReadInterrupts
 704 0046 0346     		mov	r3, r0
 705              		.loc 1 336 7
 706 0048 002B     		cmp	r3, #0
 707 004a 00F05684 		beq	.L68
 337:./Libraries/STM32F4xx_HAL_Driver/Src/stm32f4xx_hal_pcd.c ****     {
 338:./Libraries/STM32F4xx_HAL_Driver/Src/stm32f4xx_hal_pcd.c ****       return;
 339:./Libraries/STM32F4xx_HAL_Driver/Src/stm32f4xx_hal_pcd.c ****     }
 340:./Libraries/STM32F4xx_HAL_Driver/Src/stm32f4xx_hal_pcd.c ****     
 341:./Libraries/STM32F4xx_HAL_Driver/Src/stm32f4xx_hal_pcd.c ****     if(__HAL_PCD_GET_FLAG(hpcd, USB_OTG_GINTSTS_MMIS))
 708              		.loc 1 341 8
 709 004e 7B68     		ldr	r3, [r7, #4]
 710 0050 1B68     		ldr	r3, [r3]
 711 0052 1846     		mov	r0, r3
 712 0054 FFF7FEFF 		bl	USB_ReadInterrupts
 713 0058 0346     		mov	r3, r0
 714 005a 03F00203 		and	r3, r3, #2
 715              		.loc 1 341 7
 716 005e 022B     		cmp	r3, #2
 717 0060 07D1     		bne	.L22
 342:./Libraries/STM32F4xx_HAL_Driver/Src/stm32f4xx_hal_pcd.c ****     {
 343:./Libraries/STM32F4xx_HAL_Driver/Src/stm32f4xx_hal_pcd.c ****      /* incorrect mode, acknowledge the interrupt */
 344:./Libraries/STM32F4xx_HAL_Driver/Src/stm32f4xx_hal_pcd.c ****       __HAL_PCD_CLEAR_FLAG(hpcd, USB_OTG_GINTSTS_MMIS);
 718              		.loc 1 344 7
 719 0062 7B68     		ldr	r3, [r7, #4]
 720 0064 1B68     		ldr	r3, [r3]
 721 0066 5A69     		ldr	r2, [r3, #20]
 722 0068 7B68     		ldr	r3, [r7, #4]
 723 006a 1B68     		ldr	r3, [r3]
 724 006c 02F00202 		and	r2, r2, #2
 725 0070 5A61     		str	r2, [r3, #20]
 726              	.L22:
 345:./Libraries/STM32F4xx_HAL_Driver/Src/stm32f4xx_hal_pcd.c ****     }
 346:./Libraries/STM32F4xx_HAL_Driver/Src/stm32f4xx_hal_pcd.c ****     
 347:./Libraries/STM32F4xx_HAL_Driver/Src/stm32f4xx_hal_pcd.c ****     if(__HAL_PCD_GET_FLAG(hpcd, USB_OTG_GINTSTS_OEPINT))
 727              		.loc 1 347 8
 728 0072 7B68     		ldr	r3, [r7, #4]
 729 0074 1B68     		ldr	r3, [r3]
 730 0076 1846     		mov	r0, r3
 731 0078 FFF7FEFF 		bl	USB_ReadInterrupts
 732 007c 0346     		mov	r3, r0
 733 007e 03F40023 		and	r3, r3, #524288
 734              		.loc 1 347 7
 735 0082 B3F5002F 		cmp	r3, #524288
 736 0086 40F0B280 		bne	.L23
 348:./Libraries/STM32F4xx_HAL_Driver/Src/stm32f4xx_hal_pcd.c ****     {
 349:./Libraries/STM32F4xx_HAL_Driver/Src/stm32f4xx_hal_pcd.c ****       epnum = 0U;
 737              		.loc 1 349 13
 738 008a 0023     		movs	r3, #0
 739 008c 7B62     		str	r3, [r7, #36]
 350:./Libraries/STM32F4xx_HAL_Driver/Src/stm32f4xx_hal_pcd.c ****       
 351:./Libraries/STM32F4xx_HAL_Driver/Src/stm32f4xx_hal_pcd.c ****       /* Read in the device interrupt bits */
 352:./Libraries/STM32F4xx_HAL_Driver/Src/stm32f4xx_hal_pcd.c ****       ep_intr = USB_ReadDevAllOutEpInterrupt(hpcd->Instance);
 740              		.loc 1 352 50
ARM GAS  /tmp/ccNCvjXU.s 			page 20


 741 008e 7B68     		ldr	r3, [r7, #4]
 742 0090 1B68     		ldr	r3, [r3]
 743              		.loc 1 352 17
 744 0092 1846     		mov	r0, r3
 745 0094 FFF7FEFF 		bl	USB_ReadDevAllOutEpInterrupt
 746 0098 B862     		str	r0, [r7, #40]
 353:./Libraries/STM32F4xx_HAL_Driver/Src/stm32f4xx_hal_pcd.c ****       
 354:./Libraries/STM32F4xx_HAL_Driver/Src/stm32f4xx_hal_pcd.c ****       while ( ep_intr )
 747              		.loc 1 354 13
 748 009a A4E0     		b	.L24
 749              	.L29:
 355:./Libraries/STM32F4xx_HAL_Driver/Src/stm32f4xx_hal_pcd.c ****       {
 356:./Libraries/STM32F4xx_HAL_Driver/Src/stm32f4xx_hal_pcd.c ****         if (ep_intr & 0x1U)
 750              		.loc 1 356 21
 751 009c BB6A     		ldr	r3, [r7, #40]
 752 009e 03F00103 		and	r3, r3, #1
 753              		.loc 1 356 12
 754 00a2 002B     		cmp	r3, #0
 755 00a4 00F09980 		beq	.L25
 357:./Libraries/STM32F4xx_HAL_Driver/Src/stm32f4xx_hal_pcd.c ****         {
 358:./Libraries/STM32F4xx_HAL_Driver/Src/stm32f4xx_hal_pcd.c ****           epint = USB_ReadDevOutEPInterrupt(hpcd->Instance, epnum);
 756              		.loc 1 358 49
 757 00a8 7B68     		ldr	r3, [r7, #4]
 758 00aa 1B68     		ldr	r3, [r3]
 759              		.loc 1 358 19
 760 00ac 7A6A     		ldr	r2, [r7, #36]
 761 00ae D2B2     		uxtb	r2, r2
 762 00b0 1146     		mov	r1, r2
 763 00b2 1846     		mov	r0, r3
 764 00b4 FFF7FEFF 		bl	USB_ReadDevOutEPInterrupt
 765 00b8 F861     		str	r0, [r7, #28]
 359:./Libraries/STM32F4xx_HAL_Driver/Src/stm32f4xx_hal_pcd.c ****           
 360:./Libraries/STM32F4xx_HAL_Driver/Src/stm32f4xx_hal_pcd.c ****           if(( epint & USB_OTG_DOEPINT_XFRC) == USB_OTG_DOEPINT_XFRC)
 766              		.loc 1 360 22
 767 00ba FB69     		ldr	r3, [r7, #28]
 768 00bc 03F00103 		and	r3, r3, #1
 769              		.loc 1 360 13
 770 00c0 002B     		cmp	r3, #0
 771 00c2 6BD0     		beq	.L26
 361:./Libraries/STM32F4xx_HAL_Driver/Src/stm32f4xx_hal_pcd.c ****           {
 362:./Libraries/STM32F4xx_HAL_Driver/Src/stm32f4xx_hal_pcd.c ****             CLEAR_OUT_EP_INTR(epnum, USB_OTG_DOEPINT_XFRC);
 772              		.loc 1 362 13
 773 00c4 7B6A     		ldr	r3, [r7, #36]
 774 00c6 5A01     		lsls	r2, r3, #5
 775 00c8 3B6A     		ldr	r3, [r7, #32]
 776 00ca 1344     		add	r3, r3, r2
 777 00cc 03F53063 		add	r3, r3, #2816
 778 00d0 1A46     		mov	r2, r3
 779 00d2 0123     		movs	r3, #1
 780 00d4 9360     		str	r3, [r2, #8]
 363:./Libraries/STM32F4xx_HAL_Driver/Src/stm32f4xx_hal_pcd.c ****             
 364:./Libraries/STM32F4xx_HAL_Driver/Src/stm32f4xx_hal_pcd.c ****             if(hpcd->Init.dma_enable == 1U)
 781              		.loc 1 364 26
 782 00d6 7B68     		ldr	r3, [r7, #4]
 783 00d8 1B69     		ldr	r3, [r3, #16]
 784              		.loc 1 364 15
 785 00da 012B     		cmp	r3, #1
ARM GAS  /tmp/ccNCvjXU.s 			page 21


 786 00dc 3CD1     		bne	.L27
 365:./Libraries/STM32F4xx_HAL_Driver/Src/stm32f4xx_hal_pcd.c ****             {
 366:./Libraries/STM32F4xx_HAL_Driver/Src/stm32f4xx_hal_pcd.c ****               hpcd->OUT_ep[epnum].xfer_count = hpcd->OUT_ep[epnum].maxpacket- (USBx_OUTEP(epnum)->D
 787              		.loc 1 366 67
 788 00de 7968     		ldr	r1, [r7, #4]
 789 00e0 7A6A     		ldr	r2, [r7, #36]
 790 00e2 1346     		mov	r3, r2
 791 00e4 DB00     		lsls	r3, r3, #3
 792 00e6 9B1A     		subs	r3, r3, r2
 793 00e8 9B00     		lsls	r3, r3, #2
 794 00ea 0B44     		add	r3, r3, r1
 795 00ec 03F50073 		add	r3, r3, #512
 796 00f0 1A68     		ldr	r2, [r3]
 797              		.loc 1 366 80
 798 00f2 7B6A     		ldr	r3, [r7, #36]
 799 00f4 5901     		lsls	r1, r3, #5
 800 00f6 3B6A     		ldr	r3, [r7, #32]
 801 00f8 0B44     		add	r3, r3, r1
 802 00fa 03F53063 		add	r3, r3, #2816
 803              		.loc 1 366 97
 804 00fe 1B69     		ldr	r3, [r3, #16]
 805              		.loc 1 366 108
 806 0100 C3F31203 		ubfx	r3, r3, #0, #19
 807              		.loc 1 366 77
 808 0104 D11A     		subs	r1, r2, r3
 809              		.loc 1 366 46
 810 0106 7868     		ldr	r0, [r7, #4]
 811 0108 7A6A     		ldr	r2, [r7, #36]
 812 010a 1346     		mov	r3, r2
 813 010c DB00     		lsls	r3, r3, #3
 814 010e 9B1A     		subs	r3, r3, r2
 815 0110 9B00     		lsls	r3, r3, #2
 816 0112 0344     		add	r3, r3, r0
 817 0114 03F50473 		add	r3, r3, #528
 818 0118 1960     		str	r1, [r3]
 367:./Libraries/STM32F4xx_HAL_Driver/Src/stm32f4xx_hal_pcd.c ****               hpcd->OUT_ep[epnum].xfer_buff += hpcd->OUT_ep[epnum].maxpacket;            
 819              		.loc 1 367 45
 820 011a 7968     		ldr	r1, [r7, #4]
 821 011c 7A6A     		ldr	r2, [r7, #36]
 822 011e 1346     		mov	r3, r2
 823 0120 DB00     		lsls	r3, r3, #3
 824 0122 9B1A     		subs	r3, r3, r2
 825 0124 9B00     		lsls	r3, r3, #2
 826 0126 0B44     		add	r3, r3, r1
 827 0128 03F50173 		add	r3, r3, #516
 828 012c 1968     		ldr	r1, [r3]
 829              		.loc 1 367 67
 830 012e 7868     		ldr	r0, [r7, #4]
 831 0130 7A6A     		ldr	r2, [r7, #36]
 832 0132 1346     		mov	r3, r2
 833 0134 DB00     		lsls	r3, r3, #3
 834 0136 9B1A     		subs	r3, r3, r2
 835 0138 9B00     		lsls	r3, r3, #2
 836 013a 0344     		add	r3, r3, r0
 837 013c 03F50073 		add	r3, r3, #512
 838 0140 1B68     		ldr	r3, [r3]
 839              		.loc 1 367 45
ARM GAS  /tmp/ccNCvjXU.s 			page 22


 840 0142 1944     		add	r1, r1, r3
 841 0144 7868     		ldr	r0, [r7, #4]
 842 0146 7A6A     		ldr	r2, [r7, #36]
 843 0148 1346     		mov	r3, r2
 844 014a DB00     		lsls	r3, r3, #3
 845 014c 9B1A     		subs	r3, r3, r2
 846 014e 9B00     		lsls	r3, r3, #2
 847 0150 0344     		add	r3, r3, r0
 848 0152 03F50173 		add	r3, r3, #516
 849 0156 1960     		str	r1, [r3]
 850              	.L27:
 368:./Libraries/STM32F4xx_HAL_Driver/Src/stm32f4xx_hal_pcd.c ****             }
 369:./Libraries/STM32F4xx_HAL_Driver/Src/stm32f4xx_hal_pcd.c ****             
 370:./Libraries/STM32F4xx_HAL_Driver/Src/stm32f4xx_hal_pcd.c ****             HAL_PCD_DataOutStageCallback(hpcd, epnum);
 851              		.loc 1 370 13
 852 0158 7B6A     		ldr	r3, [r7, #36]
 853 015a DBB2     		uxtb	r3, r3
 854 015c 1946     		mov	r1, r3
 855 015e 7868     		ldr	r0, [r7, #4]
 856 0160 FFF7FEFF 		bl	HAL_PCD_DataOutStageCallback
 371:./Libraries/STM32F4xx_HAL_Driver/Src/stm32f4xx_hal_pcd.c ****             if(hpcd->Init.dma_enable == 1U)
 857              		.loc 1 371 26
 858 0164 7B68     		ldr	r3, [r7, #4]
 859 0166 1B69     		ldr	r3, [r3, #16]
 860              		.loc 1 371 15
 861 0168 012B     		cmp	r3, #1
 862 016a 17D1     		bne	.L26
 372:./Libraries/STM32F4xx_HAL_Driver/Src/stm32f4xx_hal_pcd.c ****             {
 373:./Libraries/STM32F4xx_HAL_Driver/Src/stm32f4xx_hal_pcd.c ****               if((epnum == 0U) && (hpcd->OUT_ep[epnum].xfer_len == 0U))
 863              		.loc 1 373 17
 864 016c 7B6A     		ldr	r3, [r7, #36]
 865 016e 002B     		cmp	r3, #0
 866 0170 14D1     		bne	.L26
 867              		.loc 1 373 55 discriminator 1
 868 0172 7968     		ldr	r1, [r7, #4]
 869 0174 7A6A     		ldr	r2, [r7, #36]
 870 0176 1346     		mov	r3, r2
 871 0178 DB00     		lsls	r3, r3, #3
 872 017a 9B1A     		subs	r3, r3, r2
 873 017c 9B00     		lsls	r3, r3, #2
 874 017e 0B44     		add	r3, r3, r1
 875 0180 03F50373 		add	r3, r3, #524
 876 0184 1B68     		ldr	r3, [r3]
 877              		.loc 1 373 32 discriminator 1
 878 0186 002B     		cmp	r3, #0
 879 0188 08D1     		bne	.L26
 374:./Libraries/STM32F4xx_HAL_Driver/Src/stm32f4xx_hal_pcd.c ****               {
 375:./Libraries/STM32F4xx_HAL_Driver/Src/stm32f4xx_hal_pcd.c ****                  /* this is ZLP, so prepare EP0 for next setup */
 376:./Libraries/STM32F4xx_HAL_Driver/Src/stm32f4xx_hal_pcd.c ****                 USB_EP0_OutStart(hpcd->Instance, 1U, (uint8_t *)hpcd->Setup);
 880              		.loc 1 376 38
 881 018a 7B68     		ldr	r3, [r7, #4]
 882 018c 1868     		ldr	r0, [r3]
 883              		.loc 1 376 65
 884 018e 7B68     		ldr	r3, [r7, #4]
 885 0190 03F56F73 		add	r3, r3, #956
 886              		.loc 1 376 17
 887 0194 1A46     		mov	r2, r3
ARM GAS  /tmp/ccNCvjXU.s 			page 23


 888 0196 0121     		movs	r1, #1
 889 0198 FFF7FEFF 		bl	USB_EP0_OutStart
 890              	.L26:
 377:./Libraries/STM32F4xx_HAL_Driver/Src/stm32f4xx_hal_pcd.c ****               }              
 378:./Libraries/STM32F4xx_HAL_Driver/Src/stm32f4xx_hal_pcd.c ****             }
 379:./Libraries/STM32F4xx_HAL_Driver/Src/stm32f4xx_hal_pcd.c ****           }
 380:./Libraries/STM32F4xx_HAL_Driver/Src/stm32f4xx_hal_pcd.c ****           
 381:./Libraries/STM32F4xx_HAL_Driver/Src/stm32f4xx_hal_pcd.c ****           if(( epint & USB_OTG_DOEPINT_STUP) == USB_OTG_DOEPINT_STUP)
 891              		.loc 1 381 22
 892 019c FB69     		ldr	r3, [r7, #28]
 893 019e 03F00803 		and	r3, r3, #8
 894              		.loc 1 381 13
 895 01a2 002B     		cmp	r3, #0
 896 01a4 0BD0     		beq	.L28
 382:./Libraries/STM32F4xx_HAL_Driver/Src/stm32f4xx_hal_pcd.c ****           {
 383:./Libraries/STM32F4xx_HAL_Driver/Src/stm32f4xx_hal_pcd.c ****             /* Inform the upper layer that a setup packet is available */
 384:./Libraries/STM32F4xx_HAL_Driver/Src/stm32f4xx_hal_pcd.c ****             HAL_PCD_SetupStageCallback(hpcd);
 897              		.loc 1 384 13
 898 01a6 7868     		ldr	r0, [r7, #4]
 899 01a8 FFF7FEFF 		bl	HAL_PCD_SetupStageCallback
 385:./Libraries/STM32F4xx_HAL_Driver/Src/stm32f4xx_hal_pcd.c ****             CLEAR_OUT_EP_INTR(epnum, USB_OTG_DOEPINT_STUP);
 900              		.loc 1 385 13
 901 01ac 7B6A     		ldr	r3, [r7, #36]
 902 01ae 5A01     		lsls	r2, r3, #5
 903 01b0 3B6A     		ldr	r3, [r7, #32]
 904 01b2 1344     		add	r3, r3, r2
 905 01b4 03F53063 		add	r3, r3, #2816
 906 01b8 1A46     		mov	r2, r3
 907 01ba 0823     		movs	r3, #8
 908 01bc 9360     		str	r3, [r2, #8]
 909              	.L28:
 386:./Libraries/STM32F4xx_HAL_Driver/Src/stm32f4xx_hal_pcd.c ****           }
 387:./Libraries/STM32F4xx_HAL_Driver/Src/stm32f4xx_hal_pcd.c ****           
 388:./Libraries/STM32F4xx_HAL_Driver/Src/stm32f4xx_hal_pcd.c ****           if(( epint & USB_OTG_DOEPINT_OTEPDIS) == USB_OTG_DOEPINT_OTEPDIS)
 910              		.loc 1 388 22
 911 01be FB69     		ldr	r3, [r7, #28]
 912 01c0 03F01003 		and	r3, r3, #16
 913              		.loc 1 388 13
 914 01c4 002B     		cmp	r3, #0
 915 01c6 08D0     		beq	.L25
 389:./Libraries/STM32F4xx_HAL_Driver/Src/stm32f4xx_hal_pcd.c ****           {
 390:./Libraries/STM32F4xx_HAL_Driver/Src/stm32f4xx_hal_pcd.c ****             CLEAR_OUT_EP_INTR(epnum, USB_OTG_DOEPINT_OTEPDIS);
 916              		.loc 1 390 13
 917 01c8 7B6A     		ldr	r3, [r7, #36]
 918 01ca 5A01     		lsls	r2, r3, #5
 919 01cc 3B6A     		ldr	r3, [r7, #32]
 920 01ce 1344     		add	r3, r3, r2
 921 01d0 03F53063 		add	r3, r3, #2816
 922 01d4 1A46     		mov	r2, r3
 923 01d6 1023     		movs	r3, #16
 924 01d8 9360     		str	r3, [r2, #8]
 925              	.L25:
 391:./Libraries/STM32F4xx_HAL_Driver/Src/stm32f4xx_hal_pcd.c ****           }
 392:./Libraries/STM32F4xx_HAL_Driver/Src/stm32f4xx_hal_pcd.c **** 
 393:./Libraries/STM32F4xx_HAL_Driver/Src/stm32f4xx_hal_pcd.c **** #ifdef USB_OTG_DOEPINT_OTEPSPR 
 394:./Libraries/STM32F4xx_HAL_Driver/Src/stm32f4xx_hal_pcd.c ****           /* Clear Status Phase Received interrupt */
 395:./Libraries/STM32F4xx_HAL_Driver/Src/stm32f4xx_hal_pcd.c ****           if(( epint & USB_OTG_DOEPINT_OTEPSPR) == USB_OTG_DOEPINT_OTEPSPR)
ARM GAS  /tmp/ccNCvjXU.s 			page 24


 396:./Libraries/STM32F4xx_HAL_Driver/Src/stm32f4xx_hal_pcd.c ****           {
 397:./Libraries/STM32F4xx_HAL_Driver/Src/stm32f4xx_hal_pcd.c ****             CLEAR_OUT_EP_INTR(epnum, USB_OTG_DOEPINT_OTEPSPR);
 398:./Libraries/STM32F4xx_HAL_Driver/Src/stm32f4xx_hal_pcd.c ****           }
 399:./Libraries/STM32F4xx_HAL_Driver/Src/stm32f4xx_hal_pcd.c **** #endif /* USB_OTG_DOEPINT_OTEPSPR */
 400:./Libraries/STM32F4xx_HAL_Driver/Src/stm32f4xx_hal_pcd.c ****         }
 401:./Libraries/STM32F4xx_HAL_Driver/Src/stm32f4xx_hal_pcd.c ****         epnum++;
 926              		.loc 1 401 14
 927 01da 7B6A     		ldr	r3, [r7, #36]
 928 01dc 0133     		adds	r3, r3, #1
 929 01de 7B62     		str	r3, [r7, #36]
 402:./Libraries/STM32F4xx_HAL_Driver/Src/stm32f4xx_hal_pcd.c ****         ep_intr >>= 1U;
 930              		.loc 1 402 17
 931 01e0 BB6A     		ldr	r3, [r7, #40]
 932 01e2 5B08     		lsrs	r3, r3, #1
 933 01e4 BB62     		str	r3, [r7, #40]
 934              	.L24:
 354:./Libraries/STM32F4xx_HAL_Driver/Src/stm32f4xx_hal_pcd.c ****       {
 935              		.loc 1 354 13
 936 01e6 BB6A     		ldr	r3, [r7, #40]
 937 01e8 002B     		cmp	r3, #0
 938 01ea 7FF457AF 		bne	.L29
 939              	.L23:
 403:./Libraries/STM32F4xx_HAL_Driver/Src/stm32f4xx_hal_pcd.c ****       }
 404:./Libraries/STM32F4xx_HAL_Driver/Src/stm32f4xx_hal_pcd.c ****     }
 405:./Libraries/STM32F4xx_HAL_Driver/Src/stm32f4xx_hal_pcd.c ****     
 406:./Libraries/STM32F4xx_HAL_Driver/Src/stm32f4xx_hal_pcd.c ****     if(__HAL_PCD_GET_FLAG(hpcd, USB_OTG_GINTSTS_IEPINT))
 940              		.loc 1 406 8
 941 01ee 7B68     		ldr	r3, [r7, #4]
 942 01f0 1B68     		ldr	r3, [r3]
 943 01f2 1846     		mov	r0, r3
 944 01f4 FFF7FEFF 		bl	USB_ReadInterrupts
 945 01f8 0346     		mov	r3, r0
 946 01fa 03F48023 		and	r3, r3, #262144
 947              		.loc 1 406 7
 948 01fe B3F5802F 		cmp	r3, #262144
 949 0202 40F0C480 		bne	.L30
 407:./Libraries/STM32F4xx_HAL_Driver/Src/stm32f4xx_hal_pcd.c ****     {
 408:./Libraries/STM32F4xx_HAL_Driver/Src/stm32f4xx_hal_pcd.c ****       /* Read in the device interrupt bits */
 409:./Libraries/STM32F4xx_HAL_Driver/Src/stm32f4xx_hal_pcd.c ****       ep_intr = USB_ReadDevAllInEpInterrupt(hpcd->Instance);
 950              		.loc 1 409 49
 951 0206 7B68     		ldr	r3, [r7, #4]
 952 0208 1B68     		ldr	r3, [r3]
 953              		.loc 1 409 17
 954 020a 1846     		mov	r0, r3
 955 020c FFF7FEFF 		bl	USB_ReadDevAllInEpInterrupt
 956 0210 B862     		str	r0, [r7, #40]
 410:./Libraries/STM32F4xx_HAL_Driver/Src/stm32f4xx_hal_pcd.c ****       
 411:./Libraries/STM32F4xx_HAL_Driver/Src/stm32f4xx_hal_pcd.c ****       epnum = 0U;
 957              		.loc 1 411 13
 958 0212 0023     		movs	r3, #0
 959 0214 7B62     		str	r3, [r7, #36]
 412:./Libraries/STM32F4xx_HAL_Driver/Src/stm32f4xx_hal_pcd.c ****       
 413:./Libraries/STM32F4xx_HAL_Driver/Src/stm32f4xx_hal_pcd.c ****       while ( ep_intr )
 960              		.loc 1 413 13
 961 0216 B6E0     		b	.L31
 962              	.L70:
 963              		.align	2
ARM GAS  /tmp/ccNCvjXU.s 			page 25


 964              	.L69:
 965 0218 0095BA0A 		.word	180000000
 966              	.L39:
 414:./Libraries/STM32F4xx_HAL_Driver/Src/stm32f4xx_hal_pcd.c ****       {
 415:./Libraries/STM32F4xx_HAL_Driver/Src/stm32f4xx_hal_pcd.c ****         if (ep_intr & 0x1U) /* In ITR */
 967              		.loc 1 415 21
 968 021c BB6A     		ldr	r3, [r7, #40]
 969 021e 03F00103 		and	r3, r3, #1
 970              		.loc 1 415 12
 971 0222 002B     		cmp	r3, #0
 972 0224 00F0A980 		beq	.L32
 416:./Libraries/STM32F4xx_HAL_Driver/Src/stm32f4xx_hal_pcd.c ****         {
 417:./Libraries/STM32F4xx_HAL_Driver/Src/stm32f4xx_hal_pcd.c ****           epint = USB_ReadDevInEPInterrupt(hpcd->Instance, epnum);
 973              		.loc 1 417 48
 974 0228 7B68     		ldr	r3, [r7, #4]
 975 022a 1B68     		ldr	r3, [r3]
 976              		.loc 1 417 19
 977 022c 7A6A     		ldr	r2, [r7, #36]
 978 022e D2B2     		uxtb	r2, r2
 979 0230 1146     		mov	r1, r2
 980 0232 1846     		mov	r0, r3
 981 0234 FFF7FEFF 		bl	USB_ReadDevInEPInterrupt
 982 0238 F861     		str	r0, [r7, #28]
 418:./Libraries/STM32F4xx_HAL_Driver/Src/stm32f4xx_hal_pcd.c **** 
 419:./Libraries/STM32F4xx_HAL_Driver/Src/stm32f4xx_hal_pcd.c ****            if(( epint & USB_OTG_DIEPINT_XFRC) == USB_OTG_DIEPINT_XFRC)
 983              		.loc 1 419 23
 984 023a FB69     		ldr	r3, [r7, #28]
 985 023c 03F00103 		and	r3, r3, #1
 986              		.loc 1 419 14
 987 0240 002B     		cmp	r3, #0
 988 0242 59D0     		beq	.L33
 420:./Libraries/STM32F4xx_HAL_Driver/Src/stm32f4xx_hal_pcd.c ****           {
 421:./Libraries/STM32F4xx_HAL_Driver/Src/stm32f4xx_hal_pcd.c ****             fifoemptymsk = 0x1U << epnum;
 989              		.loc 1 421 26
 990 0244 0122     		movs	r2, #1
 991 0246 7B6A     		ldr	r3, [r7, #36]
 992 0248 02FA03F3 		lsl	r3, r2, r3
 993 024c BB61     		str	r3, [r7, #24]
 422:./Libraries/STM32F4xx_HAL_Driver/Src/stm32f4xx_hal_pcd.c ****             USBx_DEVICE->DIEPEMPMSK &= ~fifoemptymsk;
 994              		.loc 1 422 37
 995 024e 3B6A     		ldr	r3, [r7, #32]
 996 0250 03F50063 		add	r3, r3, #2048
 997 0254 5A6B     		ldr	r2, [r3, #52]
 998              		.loc 1 422 40
 999 0256 BB69     		ldr	r3, [r7, #24]
 1000 0258 DB43     		mvns	r3, r3
 1001              		.loc 1 422 37
 1002 025a 396A     		ldr	r1, [r7, #32]
 1003 025c 01F50061 		add	r1, r1, #2048
 1004 0260 1340     		ands	r3, r3, r2
 1005 0262 4B63     		str	r3, [r1, #52]
 423:./Libraries/STM32F4xx_HAL_Driver/Src/stm32f4xx_hal_pcd.c ****             
 424:./Libraries/STM32F4xx_HAL_Driver/Src/stm32f4xx_hal_pcd.c ****             CLEAR_IN_EP_INTR(epnum, USB_OTG_DIEPINT_XFRC);
 1006              		.loc 1 424 13
 1007 0264 7B6A     		ldr	r3, [r7, #36]
 1008 0266 5A01     		lsls	r2, r3, #5
 1009 0268 3B6A     		ldr	r3, [r7, #32]
ARM GAS  /tmp/ccNCvjXU.s 			page 26


 1010 026a 1344     		add	r3, r3, r2
 1011 026c 03F51063 		add	r3, r3, #2304
 1012 0270 1A46     		mov	r2, r3
 1013 0272 0123     		movs	r3, #1
 1014 0274 9360     		str	r3, [r2, #8]
 425:./Libraries/STM32F4xx_HAL_Driver/Src/stm32f4xx_hal_pcd.c ****             
 426:./Libraries/STM32F4xx_HAL_Driver/Src/stm32f4xx_hal_pcd.c ****             if (hpcd->Init.dma_enable == 1U)
 1015              		.loc 1 426 27
 1016 0276 7B68     		ldr	r3, [r7, #4]
 1017 0278 1B69     		ldr	r3, [r3, #16]
 1018              		.loc 1 426 16
 1019 027a 012B     		cmp	r3, #1
 1020 027c 1BD1     		bne	.L34
 427:./Libraries/STM32F4xx_HAL_Driver/Src/stm32f4xx_hal_pcd.c ****             {
 428:./Libraries/STM32F4xx_HAL_Driver/Src/stm32f4xx_hal_pcd.c ****               hpcd->IN_ep[epnum].xfer_buff += hpcd->IN_ep[epnum].maxpacket; 
 1021              		.loc 1 428 44
 1022 027e 7968     		ldr	r1, [r7, #4]
 1023 0280 7A6A     		ldr	r2, [r7, #36]
 1024 0282 1346     		mov	r3, r2
 1025 0284 DB00     		lsls	r3, r3, #3
 1026 0286 9B1A     		subs	r3, r3, r2
 1027 0288 9B00     		lsls	r3, r3, #2
 1028 028a 0B44     		add	r3, r3, r1
 1029 028c 4433     		adds	r3, r3, #68
 1030 028e 1968     		ldr	r1, [r3]
 1031              		.loc 1 428 65
 1032 0290 7868     		ldr	r0, [r7, #4]
 1033 0292 7A6A     		ldr	r2, [r7, #36]
 1034 0294 1346     		mov	r3, r2
 1035 0296 DB00     		lsls	r3, r3, #3
 1036 0298 9B1A     		subs	r3, r3, r2
 1037 029a 9B00     		lsls	r3, r3, #2
 1038 029c 0344     		add	r3, r3, r0
 1039 029e 4033     		adds	r3, r3, #64
 1040 02a0 1B68     		ldr	r3, [r3]
 1041              		.loc 1 428 44
 1042 02a2 1944     		add	r1, r1, r3
 1043 02a4 7868     		ldr	r0, [r7, #4]
 1044 02a6 7A6A     		ldr	r2, [r7, #36]
 1045 02a8 1346     		mov	r3, r2
 1046 02aa DB00     		lsls	r3, r3, #3
 1047 02ac 9B1A     		subs	r3, r3, r2
 1048 02ae 9B00     		lsls	r3, r3, #2
 1049 02b0 0344     		add	r3, r3, r0
 1050 02b2 4433     		adds	r3, r3, #68
 1051 02b4 1960     		str	r1, [r3]
 1052              	.L34:
 429:./Libraries/STM32F4xx_HAL_Driver/Src/stm32f4xx_hal_pcd.c ****             }
 430:./Libraries/STM32F4xx_HAL_Driver/Src/stm32f4xx_hal_pcd.c ****                                       
 431:./Libraries/STM32F4xx_HAL_Driver/Src/stm32f4xx_hal_pcd.c ****             HAL_PCD_DataInStageCallback(hpcd, epnum);
 1053              		.loc 1 431 13
 1054 02b6 7B6A     		ldr	r3, [r7, #36]
 1055 02b8 DBB2     		uxtb	r3, r3
 1056 02ba 1946     		mov	r1, r3
 1057 02bc 7868     		ldr	r0, [r7, #4]
 1058 02be FFF7FEFF 		bl	HAL_PCD_DataInStageCallback
 432:./Libraries/STM32F4xx_HAL_Driver/Src/stm32f4xx_hal_pcd.c **** 
ARM GAS  /tmp/ccNCvjXU.s 			page 27


 433:./Libraries/STM32F4xx_HAL_Driver/Src/stm32f4xx_hal_pcd.c ****             if (hpcd->Init.dma_enable == 1U)
 1059              		.loc 1 433 27
 1060 02c2 7B68     		ldr	r3, [r7, #4]
 1061 02c4 1B69     		ldr	r3, [r3, #16]
 1062              		.loc 1 433 16
 1063 02c6 012B     		cmp	r3, #1
 1064 02c8 16D1     		bne	.L33
 434:./Libraries/STM32F4xx_HAL_Driver/Src/stm32f4xx_hal_pcd.c ****             {
 435:./Libraries/STM32F4xx_HAL_Driver/Src/stm32f4xx_hal_pcd.c ****               /* this is ZLP, so prepare EP0 for next setup */
 436:./Libraries/STM32F4xx_HAL_Driver/Src/stm32f4xx_hal_pcd.c ****               if((epnum == 0U) && (hpcd->IN_ep[epnum].xfer_len == 0U))
 1065              		.loc 1 436 17
 1066 02ca 7B6A     		ldr	r3, [r7, #36]
 1067 02cc 002B     		cmp	r3, #0
 1068 02ce 13D1     		bne	.L33
 1069              		.loc 1 436 54 discriminator 1
 1070 02d0 7968     		ldr	r1, [r7, #4]
 1071 02d2 7A6A     		ldr	r2, [r7, #36]
 1072 02d4 1346     		mov	r3, r2
 1073 02d6 DB00     		lsls	r3, r3, #3
 1074 02d8 9B1A     		subs	r3, r3, r2
 1075 02da 9B00     		lsls	r3, r3, #2
 1076 02dc 0B44     		add	r3, r3, r1
 1077 02de 4C33     		adds	r3, r3, #76
 1078 02e0 1B68     		ldr	r3, [r3]
 1079              		.loc 1 436 32 discriminator 1
 1080 02e2 002B     		cmp	r3, #0
 1081 02e4 08D1     		bne	.L33
 437:./Libraries/STM32F4xx_HAL_Driver/Src/stm32f4xx_hal_pcd.c ****               {
 438:./Libraries/STM32F4xx_HAL_Driver/Src/stm32f4xx_hal_pcd.c ****                 /* prepare to rx more setup packets */
 439:./Libraries/STM32F4xx_HAL_Driver/Src/stm32f4xx_hal_pcd.c ****                 USB_EP0_OutStart(hpcd->Instance, 1U, (uint8_t *)hpcd->Setup);
 1082              		.loc 1 439 38
 1083 02e6 7B68     		ldr	r3, [r7, #4]
 1084 02e8 1868     		ldr	r0, [r3]
 1085              		.loc 1 439 65
 1086 02ea 7B68     		ldr	r3, [r7, #4]
 1087 02ec 03F56F73 		add	r3, r3, #956
 1088              		.loc 1 439 17
 1089 02f0 1A46     		mov	r2, r3
 1090 02f2 0121     		movs	r1, #1
 1091 02f4 FFF7FEFF 		bl	USB_EP0_OutStart
 1092              	.L33:
 440:./Libraries/STM32F4xx_HAL_Driver/Src/stm32f4xx_hal_pcd.c ****               }
 441:./Libraries/STM32F4xx_HAL_Driver/Src/stm32f4xx_hal_pcd.c ****             }           
 442:./Libraries/STM32F4xx_HAL_Driver/Src/stm32f4xx_hal_pcd.c ****           }
 443:./Libraries/STM32F4xx_HAL_Driver/Src/stm32f4xx_hal_pcd.c ****            if(( epint & USB_OTG_DIEPINT_TOC) == USB_OTG_DIEPINT_TOC)
 1093              		.loc 1 443 23
 1094 02f8 FB69     		ldr	r3, [r7, #28]
 1095 02fa 03F00803 		and	r3, r3, #8
 1096              		.loc 1 443 14
 1097 02fe 002B     		cmp	r3, #0
 1098 0300 08D0     		beq	.L35
 444:./Libraries/STM32F4xx_HAL_Driver/Src/stm32f4xx_hal_pcd.c ****           {
 445:./Libraries/STM32F4xx_HAL_Driver/Src/stm32f4xx_hal_pcd.c ****             CLEAR_IN_EP_INTR(epnum, USB_OTG_DIEPINT_TOC);
 1099              		.loc 1 445 13
 1100 0302 7B6A     		ldr	r3, [r7, #36]
 1101 0304 5A01     		lsls	r2, r3, #5
 1102 0306 3B6A     		ldr	r3, [r7, #32]
ARM GAS  /tmp/ccNCvjXU.s 			page 28


 1103 0308 1344     		add	r3, r3, r2
 1104 030a 03F51063 		add	r3, r3, #2304
 1105 030e 1A46     		mov	r2, r3
 1106 0310 0823     		movs	r3, #8
 1107 0312 9360     		str	r3, [r2, #8]
 1108              	.L35:
 446:./Libraries/STM32F4xx_HAL_Driver/Src/stm32f4xx_hal_pcd.c ****           }
 447:./Libraries/STM32F4xx_HAL_Driver/Src/stm32f4xx_hal_pcd.c ****           if(( epint & USB_OTG_DIEPINT_ITTXFE) == USB_OTG_DIEPINT_ITTXFE)
 1109              		.loc 1 447 22
 1110 0314 FB69     		ldr	r3, [r7, #28]
 1111 0316 03F01003 		and	r3, r3, #16
 1112              		.loc 1 447 13
 1113 031a 002B     		cmp	r3, #0
 1114 031c 08D0     		beq	.L36
 448:./Libraries/STM32F4xx_HAL_Driver/Src/stm32f4xx_hal_pcd.c ****           {
 449:./Libraries/STM32F4xx_HAL_Driver/Src/stm32f4xx_hal_pcd.c ****             CLEAR_IN_EP_INTR(epnum, USB_OTG_DIEPINT_ITTXFE);
 1115              		.loc 1 449 13
 1116 031e 7B6A     		ldr	r3, [r7, #36]
 1117 0320 5A01     		lsls	r2, r3, #5
 1118 0322 3B6A     		ldr	r3, [r7, #32]
 1119 0324 1344     		add	r3, r3, r2
 1120 0326 03F51063 		add	r3, r3, #2304
 1121 032a 1A46     		mov	r2, r3
 1122 032c 1023     		movs	r3, #16
 1123 032e 9360     		str	r3, [r2, #8]
 1124              	.L36:
 450:./Libraries/STM32F4xx_HAL_Driver/Src/stm32f4xx_hal_pcd.c ****           }
 451:./Libraries/STM32F4xx_HAL_Driver/Src/stm32f4xx_hal_pcd.c ****           if(( epint & USB_OTG_DIEPINT_INEPNE) == USB_OTG_DIEPINT_INEPNE)
 1125              		.loc 1 451 22
 1126 0330 FB69     		ldr	r3, [r7, #28]
 1127 0332 03F04003 		and	r3, r3, #64
 1128              		.loc 1 451 13
 1129 0336 002B     		cmp	r3, #0
 1130 0338 08D0     		beq	.L37
 452:./Libraries/STM32F4xx_HAL_Driver/Src/stm32f4xx_hal_pcd.c ****           {
 453:./Libraries/STM32F4xx_HAL_Driver/Src/stm32f4xx_hal_pcd.c ****             CLEAR_IN_EP_INTR(epnum, USB_OTG_DIEPINT_INEPNE);
 1131              		.loc 1 453 13
 1132 033a 7B6A     		ldr	r3, [r7, #36]
 1133 033c 5A01     		lsls	r2, r3, #5
 1134 033e 3B6A     		ldr	r3, [r7, #32]
 1135 0340 1344     		add	r3, r3, r2
 1136 0342 03F51063 		add	r3, r3, #2304
 1137 0346 1A46     		mov	r2, r3
 1138 0348 4023     		movs	r3, #64
 1139 034a 9360     		str	r3, [r2, #8]
 1140              	.L37:
 454:./Libraries/STM32F4xx_HAL_Driver/Src/stm32f4xx_hal_pcd.c ****           }
 455:./Libraries/STM32F4xx_HAL_Driver/Src/stm32f4xx_hal_pcd.c ****           if(( epint & USB_OTG_DIEPINT_EPDISD) == USB_OTG_DIEPINT_EPDISD)
 1141              		.loc 1 455 22
 1142 034c FB69     		ldr	r3, [r7, #28]
 1143 034e 03F00203 		and	r3, r3, #2
 1144              		.loc 1 455 13
 1145 0352 002B     		cmp	r3, #0
 1146 0354 08D0     		beq	.L38
 456:./Libraries/STM32F4xx_HAL_Driver/Src/stm32f4xx_hal_pcd.c ****           {
 457:./Libraries/STM32F4xx_HAL_Driver/Src/stm32f4xx_hal_pcd.c ****             CLEAR_IN_EP_INTR(epnum, USB_OTG_DIEPINT_EPDISD);
 1147              		.loc 1 457 13
ARM GAS  /tmp/ccNCvjXU.s 			page 29


 1148 0356 7B6A     		ldr	r3, [r7, #36]
 1149 0358 5A01     		lsls	r2, r3, #5
 1150 035a 3B6A     		ldr	r3, [r7, #32]
 1151 035c 1344     		add	r3, r3, r2
 1152 035e 03F51063 		add	r3, r3, #2304
 1153 0362 1A46     		mov	r2, r3
 1154 0364 0223     		movs	r3, #2
 1155 0366 9360     		str	r3, [r2, #8]
 1156              	.L38:
 458:./Libraries/STM32F4xx_HAL_Driver/Src/stm32f4xx_hal_pcd.c ****           }       
 459:./Libraries/STM32F4xx_HAL_Driver/Src/stm32f4xx_hal_pcd.c ****           if(( epint & USB_OTG_DIEPINT_TXFE) == USB_OTG_DIEPINT_TXFE)
 1157              		.loc 1 459 22
 1158 0368 FB69     		ldr	r3, [r7, #28]
 1159 036a 03F08003 		and	r3, r3, #128
 1160              		.loc 1 459 13
 1161 036e 002B     		cmp	r3, #0
 1162 0370 03D0     		beq	.L32
 460:./Libraries/STM32F4xx_HAL_Driver/Src/stm32f4xx_hal_pcd.c ****           {
 461:./Libraries/STM32F4xx_HAL_Driver/Src/stm32f4xx_hal_pcd.c ****             PCD_WriteEmptyTxFifo(hpcd , epnum);
 1163              		.loc 1 461 13
 1164 0372 796A     		ldr	r1, [r7, #36]
 1165 0374 7868     		ldr	r0, [r7, #4]
 1166 0376 FFF7FEFF 		bl	PCD_WriteEmptyTxFifo
 1167              	.L32:
 462:./Libraries/STM32F4xx_HAL_Driver/Src/stm32f4xx_hal_pcd.c ****           }
 463:./Libraries/STM32F4xx_HAL_Driver/Src/stm32f4xx_hal_pcd.c ****         }
 464:./Libraries/STM32F4xx_HAL_Driver/Src/stm32f4xx_hal_pcd.c ****         epnum++;
 1168              		.loc 1 464 14
 1169 037a 7B6A     		ldr	r3, [r7, #36]
 1170 037c 0133     		adds	r3, r3, #1
 1171 037e 7B62     		str	r3, [r7, #36]
 465:./Libraries/STM32F4xx_HAL_Driver/Src/stm32f4xx_hal_pcd.c ****         ep_intr >>= 1U;
 1172              		.loc 1 465 17
 1173 0380 BB6A     		ldr	r3, [r7, #40]
 1174 0382 5B08     		lsrs	r3, r3, #1
 1175 0384 BB62     		str	r3, [r7, #40]
 1176              	.L31:
 413:./Libraries/STM32F4xx_HAL_Driver/Src/stm32f4xx_hal_pcd.c ****       {
 1177              		.loc 1 413 13
 1178 0386 BB6A     		ldr	r3, [r7, #40]
 1179 0388 002B     		cmp	r3, #0
 1180 038a 7FF447AF 		bne	.L39
 1181              	.L30:
 466:./Libraries/STM32F4xx_HAL_Driver/Src/stm32f4xx_hal_pcd.c ****       }
 467:./Libraries/STM32F4xx_HAL_Driver/Src/stm32f4xx_hal_pcd.c ****     }
 468:./Libraries/STM32F4xx_HAL_Driver/Src/stm32f4xx_hal_pcd.c ****     
 469:./Libraries/STM32F4xx_HAL_Driver/Src/stm32f4xx_hal_pcd.c ****     /* Handle Resume Interrupt */
 470:./Libraries/STM32F4xx_HAL_Driver/Src/stm32f4xx_hal_pcd.c ****     if(__HAL_PCD_GET_FLAG(hpcd, USB_OTG_GINTSTS_WKUINT))
 1182              		.loc 1 470 8
 1183 038e 7B68     		ldr	r3, [r7, #4]
 1184 0390 1B68     		ldr	r3, [r3]
 1185 0392 1846     		mov	r0, r3
 1186 0394 FFF7FEFF 		bl	USB_ReadInterrupts
 1187 0398 0346     		mov	r3, r0
 1188 039a 03F00043 		and	r3, r3, #-2147483648
 1189              		.loc 1 470 7
 1190 039e B3F1004F 		cmp	r3, #-2147483648
ARM GAS  /tmp/ccNCvjXU.s 			page 30


 1191 03a2 14D1     		bne	.L40
 471:./Libraries/STM32F4xx_HAL_Driver/Src/stm32f4xx_hal_pcd.c ****     {    
 472:./Libraries/STM32F4xx_HAL_Driver/Src/stm32f4xx_hal_pcd.c ****       /* Clear the Remote Wake-up Signaling */
 473:./Libraries/STM32F4xx_HAL_Driver/Src/stm32f4xx_hal_pcd.c ****       USBx_DEVICE->DCTL &= ~USB_OTG_DCTL_RWUSIG;
 1192              		.loc 1 473 25
 1193 03a4 3B6A     		ldr	r3, [r7, #32]
 1194 03a6 03F50063 		add	r3, r3, #2048
 1195 03aa 5B68     		ldr	r3, [r3, #4]
 1196 03ac 3A6A     		ldr	r2, [r7, #32]
 1197 03ae 02F50062 		add	r2, r2, #2048
 1198 03b2 23F00103 		bic	r3, r3, #1
 1199 03b6 5360     		str	r3, [r2, #4]
 474:./Libraries/STM32F4xx_HAL_Driver/Src/stm32f4xx_hal_pcd.c **** 
 475:./Libraries/STM32F4xx_HAL_Driver/Src/stm32f4xx_hal_pcd.c **** #ifdef USB_OTG_GLPMCFG_LPMEN
 476:./Libraries/STM32F4xx_HAL_Driver/Src/stm32f4xx_hal_pcd.c ****       if(hpcd->LPM_State == LPM_L1)
 477:./Libraries/STM32F4xx_HAL_Driver/Src/stm32f4xx_hal_pcd.c ****       {
 478:./Libraries/STM32F4xx_HAL_Driver/Src/stm32f4xx_hal_pcd.c ****         hpcd->LPM_State = LPM_L0;
 479:./Libraries/STM32F4xx_HAL_Driver/Src/stm32f4xx_hal_pcd.c ****         HAL_PCDEx_LPM_Callback(hpcd, PCD_LPM_L0_ACTIVE);
 480:./Libraries/STM32F4xx_HAL_Driver/Src/stm32f4xx_hal_pcd.c ****       }
 481:./Libraries/STM32F4xx_HAL_Driver/Src/stm32f4xx_hal_pcd.c ****       else
 482:./Libraries/STM32F4xx_HAL_Driver/Src/stm32f4xx_hal_pcd.c **** #endif /* USB_OTG_GLPMCFG_LPMEN */
 483:./Libraries/STM32F4xx_HAL_Driver/Src/stm32f4xx_hal_pcd.c ****       {
 484:./Libraries/STM32F4xx_HAL_Driver/Src/stm32f4xx_hal_pcd.c ****         HAL_PCD_ResumeCallback(hpcd);
 1200              		.loc 1 484 9
 1201 03b8 7868     		ldr	r0, [r7, #4]
 1202 03ba FFF7FEFF 		bl	HAL_PCD_ResumeCallback
 485:./Libraries/STM32F4xx_HAL_Driver/Src/stm32f4xx_hal_pcd.c ****       }
 486:./Libraries/STM32F4xx_HAL_Driver/Src/stm32f4xx_hal_pcd.c ****       
 487:./Libraries/STM32F4xx_HAL_Driver/Src/stm32f4xx_hal_pcd.c ****       __HAL_PCD_CLEAR_FLAG(hpcd, USB_OTG_GINTSTS_WKUINT);
 1203              		.loc 1 487 7
 1204 03be 7B68     		ldr	r3, [r7, #4]
 1205 03c0 1B68     		ldr	r3, [r3]
 1206 03c2 5A69     		ldr	r2, [r3, #20]
 1207 03c4 7B68     		ldr	r3, [r7, #4]
 1208 03c6 1B68     		ldr	r3, [r3]
 1209 03c8 02F00042 		and	r2, r2, #-2147483648
 1210 03cc 5A61     		str	r2, [r3, #20]
 1211              	.L40:
 488:./Libraries/STM32F4xx_HAL_Driver/Src/stm32f4xx_hal_pcd.c ****     }
 489:./Libraries/STM32F4xx_HAL_Driver/Src/stm32f4xx_hal_pcd.c ****     
 490:./Libraries/STM32F4xx_HAL_Driver/Src/stm32f4xx_hal_pcd.c ****     /* Handle Suspend Interrupt */
 491:./Libraries/STM32F4xx_HAL_Driver/Src/stm32f4xx_hal_pcd.c ****     if(__HAL_PCD_GET_FLAG(hpcd, USB_OTG_GINTSTS_USBSUSP))
 1212              		.loc 1 491 8
 1213 03ce 7B68     		ldr	r3, [r7, #4]
 1214 03d0 1B68     		ldr	r3, [r3]
 1215 03d2 1846     		mov	r0, r3
 1216 03d4 FFF7FEFF 		bl	USB_ReadInterrupts
 1217 03d8 0346     		mov	r3, r0
 1218 03da 03F40063 		and	r3, r3, #2048
 1219              		.loc 1 491 7
 1220 03de B3F5006F 		cmp	r3, #2048
 1221 03e2 12D1     		bne	.L41
 492:./Libraries/STM32F4xx_HAL_Driver/Src/stm32f4xx_hal_pcd.c ****     {
 493:./Libraries/STM32F4xx_HAL_Driver/Src/stm32f4xx_hal_pcd.c ****       if((USBx_DEVICE->DSTS & USB_OTG_DSTS_SUSPSTS) == USB_OTG_DSTS_SUSPSTS)
 1222              		.loc 1 493 11
 1223 03e4 3B6A     		ldr	r3, [r7, #32]
 1224 03e6 03F50063 		add	r3, r3, #2048
ARM GAS  /tmp/ccNCvjXU.s 			page 31


 1225              		.loc 1 493 22
 1226 03ea 9B68     		ldr	r3, [r3, #8]
 1227              		.loc 1 493 29
 1228 03ec 03F00103 		and	r3, r3, #1
 1229              		.loc 1 493 9
 1230 03f0 012B     		cmp	r3, #1
 1231 03f2 02D1     		bne	.L42
 494:./Libraries/STM32F4xx_HAL_Driver/Src/stm32f4xx_hal_pcd.c ****       {
 495:./Libraries/STM32F4xx_HAL_Driver/Src/stm32f4xx_hal_pcd.c ****         
 496:./Libraries/STM32F4xx_HAL_Driver/Src/stm32f4xx_hal_pcd.c ****         HAL_PCD_SuspendCallback(hpcd);
 1232              		.loc 1 496 9
 1233 03f4 7868     		ldr	r0, [r7, #4]
 1234 03f6 FFF7FEFF 		bl	HAL_PCD_SuspendCallback
 1235              	.L42:
 497:./Libraries/STM32F4xx_HAL_Driver/Src/stm32f4xx_hal_pcd.c ****       }
 498:./Libraries/STM32F4xx_HAL_Driver/Src/stm32f4xx_hal_pcd.c ****       __HAL_PCD_CLEAR_FLAG(hpcd, USB_OTG_GINTSTS_USBSUSP);
 1236              		.loc 1 498 7
 1237 03fa 7B68     		ldr	r3, [r7, #4]
 1238 03fc 1B68     		ldr	r3, [r3]
 1239 03fe 5A69     		ldr	r2, [r3, #20]
 1240 0400 7B68     		ldr	r3, [r7, #4]
 1241 0402 1B68     		ldr	r3, [r3]
 1242 0404 02F40062 		and	r2, r2, #2048
 1243 0408 5A61     		str	r2, [r3, #20]
 1244              	.L41:
 499:./Libraries/STM32F4xx_HAL_Driver/Src/stm32f4xx_hal_pcd.c ****     }
 500:./Libraries/STM32F4xx_HAL_Driver/Src/stm32f4xx_hal_pcd.c **** 
 501:./Libraries/STM32F4xx_HAL_Driver/Src/stm32f4xx_hal_pcd.c **** #ifdef USB_OTG_GLPMCFG_LPMEN
 502:./Libraries/STM32F4xx_HAL_Driver/Src/stm32f4xx_hal_pcd.c ****     /* Handle LPM Interrupt */ 
 503:./Libraries/STM32F4xx_HAL_Driver/Src/stm32f4xx_hal_pcd.c ****     if(__HAL_PCD_GET_FLAG(hpcd, USB_OTG_GINTSTS_LPMINT))
 504:./Libraries/STM32F4xx_HAL_Driver/Src/stm32f4xx_hal_pcd.c ****     {
 505:./Libraries/STM32F4xx_HAL_Driver/Src/stm32f4xx_hal_pcd.c ****       __HAL_PCD_CLEAR_FLAG(hpcd, USB_OTG_GINTSTS_LPMINT);      
 506:./Libraries/STM32F4xx_HAL_Driver/Src/stm32f4xx_hal_pcd.c ****       if( hpcd->LPM_State == LPM_L0)
 507:./Libraries/STM32F4xx_HAL_Driver/Src/stm32f4xx_hal_pcd.c ****       {
 508:./Libraries/STM32F4xx_HAL_Driver/Src/stm32f4xx_hal_pcd.c ****         hpcd->LPM_State = LPM_L1;
 509:./Libraries/STM32F4xx_HAL_Driver/Src/stm32f4xx_hal_pcd.c ****         hpcd->BESL = (hpcd->Instance->GLPMCFG & USB_OTG_GLPMCFG_BESL) >> 2U;
 510:./Libraries/STM32F4xx_HAL_Driver/Src/stm32f4xx_hal_pcd.c ****         HAL_PCDEx_LPM_Callback(hpcd, PCD_LPM_L1_ACTIVE);
 511:./Libraries/STM32F4xx_HAL_Driver/Src/stm32f4xx_hal_pcd.c ****       }
 512:./Libraries/STM32F4xx_HAL_Driver/Src/stm32f4xx_hal_pcd.c ****       else
 513:./Libraries/STM32F4xx_HAL_Driver/Src/stm32f4xx_hal_pcd.c ****       {
 514:./Libraries/STM32F4xx_HAL_Driver/Src/stm32f4xx_hal_pcd.c ****         HAL_PCD_SuspendCallback(hpcd);
 515:./Libraries/STM32F4xx_HAL_Driver/Src/stm32f4xx_hal_pcd.c ****       }
 516:./Libraries/STM32F4xx_HAL_Driver/Src/stm32f4xx_hal_pcd.c ****     }
 517:./Libraries/STM32F4xx_HAL_Driver/Src/stm32f4xx_hal_pcd.c **** #endif /* USB_OTG_GLPMCFG_LPMEN */
 518:./Libraries/STM32F4xx_HAL_Driver/Src/stm32f4xx_hal_pcd.c **** 
 519:./Libraries/STM32F4xx_HAL_Driver/Src/stm32f4xx_hal_pcd.c ****     /* Handle Reset Interrupt */
 520:./Libraries/STM32F4xx_HAL_Driver/Src/stm32f4xx_hal_pcd.c ****     if(__HAL_PCD_GET_FLAG(hpcd, USB_OTG_GINTSTS_USBRST))
 1245              		.loc 1 520 8
 1246 040a 7B68     		ldr	r3, [r7, #4]
 1247 040c 1B68     		ldr	r3, [r3]
 1248 040e 1846     		mov	r0, r3
 1249 0410 FFF7FEFF 		bl	USB_ReadInterrupts
 1250 0414 0346     		mov	r3, r0
 1251 0416 03F48053 		and	r3, r3, #4096
 1252              		.loc 1 520 7
 1253 041a B3F5805F 		cmp	r3, #4096
 1254 041e 40F08A80 		bne	.L43
ARM GAS  /tmp/ccNCvjXU.s 			page 32


 521:./Libraries/STM32F4xx_HAL_Driver/Src/stm32f4xx_hal_pcd.c ****     {
 522:./Libraries/STM32F4xx_HAL_Driver/Src/stm32f4xx_hal_pcd.c ****       USBx_DEVICE->DCTL &= ~USB_OTG_DCTL_RWUSIG; 
 1255              		.loc 1 522 25
 1256 0422 3B6A     		ldr	r3, [r7, #32]
 1257 0424 03F50063 		add	r3, r3, #2048
 1258 0428 5B68     		ldr	r3, [r3, #4]
 1259 042a 3A6A     		ldr	r2, [r7, #32]
 1260 042c 02F50062 		add	r2, r2, #2048
 1261 0430 23F00103 		bic	r3, r3, #1
 1262 0434 5360     		str	r3, [r2, #4]
 523:./Libraries/STM32F4xx_HAL_Driver/Src/stm32f4xx_hal_pcd.c ****       USB_FlushTxFifo(hpcd->Instance , 0x10U);
 1263              		.loc 1 523 27
 1264 0436 7B68     		ldr	r3, [r7, #4]
 1265 0438 1B68     		ldr	r3, [r3]
 1266              		.loc 1 523 7
 1267 043a 1021     		movs	r1, #16
 1268 043c 1846     		mov	r0, r3
 1269 043e FFF7FEFF 		bl	USB_FlushTxFifo
 524:./Libraries/STM32F4xx_HAL_Driver/Src/stm32f4xx_hal_pcd.c ****       
 525:./Libraries/STM32F4xx_HAL_Driver/Src/stm32f4xx_hal_pcd.c ****       for (i = 0U; i < hpcd->Init.dev_endpoints; i++)
 1270              		.loc 1 525 14
 1271 0442 0023     		movs	r3, #0
 1272 0444 FB62     		str	r3, [r7, #44]
 1273              		.loc 1 525 7
 1274 0446 14E0     		b	.L44
 1275              	.L45:
 526:./Libraries/STM32F4xx_HAL_Driver/Src/stm32f4xx_hal_pcd.c ****       {
 527:./Libraries/STM32F4xx_HAL_Driver/Src/stm32f4xx_hal_pcd.c ****         USBx_INEP(i)->DIEPINT = 0xFFU;
 1276              		.loc 1 527 9 discriminator 3
 1277 0448 FB6A     		ldr	r3, [r7, #44]
 1278 044a 5A01     		lsls	r2, r3, #5
 1279 044c 3B6A     		ldr	r3, [r7, #32]
 1280 044e 1344     		add	r3, r3, r2
 1281 0450 03F51063 		add	r3, r3, #2304
 1282 0454 1A46     		mov	r2, r3
 1283              		.loc 1 527 31 discriminator 3
 1284 0456 FF23     		movs	r3, #255
 1285 0458 9360     		str	r3, [r2, #8]
 528:./Libraries/STM32F4xx_HAL_Driver/Src/stm32f4xx_hal_pcd.c ****         USBx_OUTEP(i)->DOEPINT = 0xFFU;
 1286              		.loc 1 528 9 discriminator 3
 1287 045a FB6A     		ldr	r3, [r7, #44]
 1288 045c 5A01     		lsls	r2, r3, #5
 1289 045e 3B6A     		ldr	r3, [r7, #32]
 1290 0460 1344     		add	r3, r3, r2
 1291 0462 03F53063 		add	r3, r3, #2816
 1292 0466 1A46     		mov	r2, r3
 1293              		.loc 1 528 32 discriminator 3
 1294 0468 FF23     		movs	r3, #255
 1295 046a 9360     		str	r3, [r2, #8]
 525:./Libraries/STM32F4xx_HAL_Driver/Src/stm32f4xx_hal_pcd.c ****       {
 1296              		.loc 1 525 51 discriminator 3
 1297 046c FB6A     		ldr	r3, [r7, #44]
 1298 046e 0133     		adds	r3, r3, #1
 1299 0470 FB62     		str	r3, [r7, #44]
 1300              	.L44:
 525:./Libraries/STM32F4xx_HAL_Driver/Src/stm32f4xx_hal_pcd.c ****       {
 1301              		.loc 1 525 34 discriminator 1
ARM GAS  /tmp/ccNCvjXU.s 			page 33


 1302 0472 7B68     		ldr	r3, [r7, #4]
 1303 0474 5B68     		ldr	r3, [r3, #4]
 525:./Libraries/STM32F4xx_HAL_Driver/Src/stm32f4xx_hal_pcd.c ****       {
 1304              		.loc 1 525 7 discriminator 1
 1305 0476 FA6A     		ldr	r2, [r7, #44]
 1306 0478 9A42     		cmp	r2, r3
 1307 047a E5D3     		bcc	.L45
 529:./Libraries/STM32F4xx_HAL_Driver/Src/stm32f4xx_hal_pcd.c ****       }
 530:./Libraries/STM32F4xx_HAL_Driver/Src/stm32f4xx_hal_pcd.c ****       USBx_DEVICE->DAINT = 0xFFFFFFFFU;
 1308              		.loc 1 530 7
 1309 047c 3B6A     		ldr	r3, [r7, #32]
 1310 047e 03F50063 		add	r3, r3, #2048
 1311 0482 1A46     		mov	r2, r3
 1312              		.loc 1 530 26
 1313 0484 4FF0FF33 		mov	r3, #-1
 1314 0488 9361     		str	r3, [r2, #24]
 531:./Libraries/STM32F4xx_HAL_Driver/Src/stm32f4xx_hal_pcd.c ****       USBx_DEVICE->DAINTMSK |= 0x10001U;
 1315              		.loc 1 531 29
 1316 048a 3B6A     		ldr	r3, [r7, #32]
 1317 048c 03F50063 		add	r3, r3, #2048
 1318 0490 DB69     		ldr	r3, [r3, #28]
 1319 0492 3A6A     		ldr	r2, [r7, #32]
 1320 0494 02F50062 		add	r2, r2, #2048
 1321 0498 43F00113 		orr	r3, r3, #65537
 1322 049c D361     		str	r3, [r2, #28]
 532:./Libraries/STM32F4xx_HAL_Driver/Src/stm32f4xx_hal_pcd.c ****       
 533:./Libraries/STM32F4xx_HAL_Driver/Src/stm32f4xx_hal_pcd.c ****       if(hpcd->Init.use_dedicated_ep1)
 1323              		.loc 1 533 20
 1324 049e 7B68     		ldr	r3, [r7, #4]
 1325 04a0 1B6B     		ldr	r3, [r3, #48]
 1326              		.loc 1 533 9
 1327 04a2 002B     		cmp	r3, #0
 1328 04a4 16D0     		beq	.L46
 534:./Libraries/STM32F4xx_HAL_Driver/Src/stm32f4xx_hal_pcd.c ****       {
 535:./Libraries/STM32F4xx_HAL_Driver/Src/stm32f4xx_hal_pcd.c ****         USBx_DEVICE->DOUTEP1MSK |= (USB_OTG_DOEPMSK_STUPM | USB_OTG_DOEPMSK_XFRCM | USB_OTG_DOEPMSK
 1329              		.loc 1 535 33
 1330 04a6 3B6A     		ldr	r3, [r7, #32]
 1331 04a8 03F50063 		add	r3, r3, #2048
 1332 04ac D3F88430 		ldr	r3, [r3, #132]
 1333 04b0 3A6A     		ldr	r2, [r7, #32]
 1334 04b2 02F50062 		add	r2, r2, #2048
 1335 04b6 43F00B03 		orr	r3, r3, #11
 1336 04ba C2F88430 		str	r3, [r2, #132]
 536:./Libraries/STM32F4xx_HAL_Driver/Src/stm32f4xx_hal_pcd.c ****         USBx_DEVICE->DINEP1MSK |= (USB_OTG_DIEPMSK_TOM | USB_OTG_DIEPMSK_XFRCM | USB_OTG_DIEPMSK_EP
 1337              		.loc 1 536 32
 1338 04be 3B6A     		ldr	r3, [r7, #32]
 1339 04c0 03F50063 		add	r3, r3, #2048
 1340 04c4 5B6C     		ldr	r3, [r3, #68]
 1341 04c6 3A6A     		ldr	r2, [r7, #32]
 1342 04c8 02F50062 		add	r2, r2, #2048
 1343 04cc 43F00B03 		orr	r3, r3, #11
 1344 04d0 5364     		str	r3, [r2, #68]
 1345 04d2 13E0     		b	.L47
 1346              	.L46:
 537:./Libraries/STM32F4xx_HAL_Driver/Src/stm32f4xx_hal_pcd.c ****       }
 538:./Libraries/STM32F4xx_HAL_Driver/Src/stm32f4xx_hal_pcd.c ****       else
 539:./Libraries/STM32F4xx_HAL_Driver/Src/stm32f4xx_hal_pcd.c ****       {
ARM GAS  /tmp/ccNCvjXU.s 			page 34


 540:./Libraries/STM32F4xx_HAL_Driver/Src/stm32f4xx_hal_pcd.c **** #ifdef USB_OTG_DOEPINT_OTEPSPR
 541:./Libraries/STM32F4xx_HAL_Driver/Src/stm32f4xx_hal_pcd.c ****         USBx_DEVICE->DOEPMSK |= (USB_OTG_DOEPMSK_STUPM | USB_OTG_DOEPMSK_XFRCM | USB_OTG_DOEPMSK_EP
 542:./Libraries/STM32F4xx_HAL_Driver/Src/stm32f4xx_hal_pcd.c **** #else
 543:./Libraries/STM32F4xx_HAL_Driver/Src/stm32f4xx_hal_pcd.c ****         USBx_DEVICE->DOEPMSK |= (USB_OTG_DOEPMSK_STUPM | USB_OTG_DOEPMSK_XFRCM | USB_OTG_DOEPMSK_EP
 1347              		.loc 1 543 30
 1348 04d4 3B6A     		ldr	r3, [r7, #32]
 1349 04d6 03F50063 		add	r3, r3, #2048
 1350 04da 5B69     		ldr	r3, [r3, #20]
 1351 04dc 3A6A     		ldr	r2, [r7, #32]
 1352 04de 02F50062 		add	r2, r2, #2048
 1353 04e2 43F00B03 		orr	r3, r3, #11
 1354 04e6 5361     		str	r3, [r2, #20]
 544:./Libraries/STM32F4xx_HAL_Driver/Src/stm32f4xx_hal_pcd.c **** #endif /* USB_OTG_DOEPINT_OTEPSPR */
 545:./Libraries/STM32F4xx_HAL_Driver/Src/stm32f4xx_hal_pcd.c ****         USBx_DEVICE->DIEPMSK |= (USB_OTG_DIEPMSK_TOM | USB_OTG_DIEPMSK_XFRCM | USB_OTG_DIEPMSK_EPDM
 1355              		.loc 1 545 30
 1356 04e8 3B6A     		ldr	r3, [r7, #32]
 1357 04ea 03F50063 		add	r3, r3, #2048
 1358 04ee 1B69     		ldr	r3, [r3, #16]
 1359 04f0 3A6A     		ldr	r2, [r7, #32]
 1360 04f2 02F50062 		add	r2, r2, #2048
 1361 04f6 43F00B03 		orr	r3, r3, #11
 1362 04fa 1361     		str	r3, [r2, #16]
 1363              	.L47:
 546:./Libraries/STM32F4xx_HAL_Driver/Src/stm32f4xx_hal_pcd.c ****       }
 547:./Libraries/STM32F4xx_HAL_Driver/Src/stm32f4xx_hal_pcd.c ****       
 548:./Libraries/STM32F4xx_HAL_Driver/Src/stm32f4xx_hal_pcd.c ****       /* Set Default Address to 0 */
 549:./Libraries/STM32F4xx_HAL_Driver/Src/stm32f4xx_hal_pcd.c ****       USBx_DEVICE->DCFG &= ~USB_OTG_DCFG_DAD;
 1364              		.loc 1 549 25
 1365 04fc 3B6A     		ldr	r3, [r7, #32]
 1366 04fe 03F50063 		add	r3, r3, #2048
 1367 0502 1B68     		ldr	r3, [r3]
 1368 0504 3A6A     		ldr	r2, [r7, #32]
 1369 0506 02F50062 		add	r2, r2, #2048
 1370 050a 23F4FE63 		bic	r3, r3, #2032
 1371 050e 1360     		str	r3, [r2]
 550:./Libraries/STM32F4xx_HAL_Driver/Src/stm32f4xx_hal_pcd.c ****       
 551:./Libraries/STM32F4xx_HAL_Driver/Src/stm32f4xx_hal_pcd.c ****       /* setup EP0 to receive SETUP packets */
 552:./Libraries/STM32F4xx_HAL_Driver/Src/stm32f4xx_hal_pcd.c ****       USB_EP0_OutStart(hpcd->Instance, hpcd->Init.dma_enable, (uint8_t *)hpcd->Setup);
 1372              		.loc 1 552 28
 1373 0510 7B68     		ldr	r3, [r7, #4]
 1374 0512 1868     		ldr	r0, [r3]
 1375              		.loc 1 552 50
 1376 0514 7B68     		ldr	r3, [r7, #4]
 1377 0516 1B69     		ldr	r3, [r3, #16]
 1378              		.loc 1 552 7
 1379 0518 D9B2     		uxtb	r1, r3
 1380              		.loc 1 552 74
 1381 051a 7B68     		ldr	r3, [r7, #4]
 1382 051c 03F56F73 		add	r3, r3, #956
 1383              		.loc 1 552 7
 1384 0520 1A46     		mov	r2, r3
 1385 0522 FFF7FEFF 		bl	USB_EP0_OutStart
 553:./Libraries/STM32F4xx_HAL_Driver/Src/stm32f4xx_hal_pcd.c ****         
 554:./Libraries/STM32F4xx_HAL_Driver/Src/stm32f4xx_hal_pcd.c ****       __HAL_PCD_CLEAR_FLAG(hpcd, USB_OTG_GINTSTS_USBRST);
 1386              		.loc 1 554 7
 1387 0526 7B68     		ldr	r3, [r7, #4]
 1388 0528 1B68     		ldr	r3, [r3]
ARM GAS  /tmp/ccNCvjXU.s 			page 35


 1389 052a 5A69     		ldr	r2, [r3, #20]
 1390 052c 7B68     		ldr	r3, [r7, #4]
 1391 052e 1B68     		ldr	r3, [r3]
 1392 0530 02F48052 		and	r2, r2, #4096
 1393 0534 5A61     		str	r2, [r3, #20]
 1394              	.L43:
 555:./Libraries/STM32F4xx_HAL_Driver/Src/stm32f4xx_hal_pcd.c ****     }
 556:./Libraries/STM32F4xx_HAL_Driver/Src/stm32f4xx_hal_pcd.c ****     
 557:./Libraries/STM32F4xx_HAL_Driver/Src/stm32f4xx_hal_pcd.c ****     /* Handle Enumeration done Interrupt */
 558:./Libraries/STM32F4xx_HAL_Driver/Src/stm32f4xx_hal_pcd.c ****     if(__HAL_PCD_GET_FLAG(hpcd, USB_OTG_GINTSTS_ENUMDNE))
 1395              		.loc 1 558 8
 1396 0536 7B68     		ldr	r3, [r7, #4]
 1397 0538 1B68     		ldr	r3, [r3]
 1398 053a 1846     		mov	r0, r3
 1399 053c FFF7FEFF 		bl	USB_ReadInterrupts
 1400 0540 0346     		mov	r3, r0
 1401 0542 03F40053 		and	r3, r3, #8192
 1402              		.loc 1 558 7
 1403 0546 B3F5005F 		cmp	r3, #8192
 1404 054a 40F0DA80 		bne	.L48
 559:./Libraries/STM32F4xx_HAL_Driver/Src/stm32f4xx_hal_pcd.c ****     {
 560:./Libraries/STM32F4xx_HAL_Driver/Src/stm32f4xx_hal_pcd.c ****       USB_ActivateSetup(hpcd->Instance);
 1405              		.loc 1 560 29
 1406 054e 7B68     		ldr	r3, [r7, #4]
 1407 0550 1B68     		ldr	r3, [r3]
 1408              		.loc 1 560 7
 1409 0552 1846     		mov	r0, r3
 1410 0554 FFF7FEFF 		bl	USB_ActivateSetup
 561:./Libraries/STM32F4xx_HAL_Driver/Src/stm32f4xx_hal_pcd.c ****       hpcd->Instance->GUSBCFG &= ~USB_OTG_GUSBCFG_TRDT;
 1411              		.loc 1 561 11
 1412 0558 7B68     		ldr	r3, [r7, #4]
 1413 055a 1B68     		ldr	r3, [r3]
 1414              		.loc 1 561 31
 1415 055c DA68     		ldr	r2, [r3, #12]
 1416              		.loc 1 561 11
 1417 055e 7B68     		ldr	r3, [r7, #4]
 1418 0560 1B68     		ldr	r3, [r3]
 1419              		.loc 1 561 31
 1420 0562 22F47052 		bic	r2, r2, #15360
 1421 0566 DA60     		str	r2, [r3, #12]
 562:./Libraries/STM32F4xx_HAL_Driver/Src/stm32f4xx_hal_pcd.c ****       
 563:./Libraries/STM32F4xx_HAL_Driver/Src/stm32f4xx_hal_pcd.c ****       if ( USB_GetDevSpeed(hpcd->Instance) == USB_OTG_SPEED_HIGH)
 1422              		.loc 1 563 32
 1423 0568 7B68     		ldr	r3, [r7, #4]
 1424 056a 1B68     		ldr	r3, [r3]
 1425              		.loc 1 563 12
 1426 056c 1846     		mov	r0, r3
 1427 056e FFF7FEFF 		bl	USB_GetDevSpeed
 1428 0572 0346     		mov	r3, r0
 1429              		.loc 1 563 10
 1430 0574 002B     		cmp	r3, #0
 1431 0576 0FD1     		bne	.L49
 564:./Libraries/STM32F4xx_HAL_Driver/Src/stm32f4xx_hal_pcd.c ****       {
 565:./Libraries/STM32F4xx_HAL_Driver/Src/stm32f4xx_hal_pcd.c ****         hpcd->Init.speed            = USB_OTG_SPEED_HIGH;
 1432              		.loc 1 565 37
 1433 0578 7B68     		ldr	r3, [r7, #4]
 1434 057a 0022     		movs	r2, #0
ARM GAS  /tmp/ccNCvjXU.s 			page 36


 1435 057c DA60     		str	r2, [r3, #12]
 566:./Libraries/STM32F4xx_HAL_Driver/Src/stm32f4xx_hal_pcd.c ****         hpcd->Init.ep0_mps          = USB_OTG_HS_MAX_PACKET_SIZE ;    
 1436              		.loc 1 566 37
 1437 057e 7B68     		ldr	r3, [r7, #4]
 1438 0580 4FF40072 		mov	r2, #512
 1439 0584 5A61     		str	r2, [r3, #20]
 567:./Libraries/STM32F4xx_HAL_Driver/Src/stm32f4xx_hal_pcd.c ****         hpcd->Instance->GUSBCFG |= (uint32_t)((USBD_HS_TRDT_VALUE << 10U) & USB_OTG_GUSBCFG_TRDT);
 1440              		.loc 1 567 13
 1441 0586 7B68     		ldr	r3, [r7, #4]
 1442 0588 1B68     		ldr	r3, [r3]
 1443              		.loc 1 567 33
 1444 058a DA68     		ldr	r2, [r3, #12]
 1445              		.loc 1 567 13
 1446 058c 7B68     		ldr	r3, [r7, #4]
 1447 058e 1B68     		ldr	r3, [r3]
 1448              		.loc 1 567 33
 1449 0590 42F41052 		orr	r2, r2, #9216
 1450 0594 DA60     		str	r2, [r3, #12]
 1451 0596 A9E0     		b	.L50
 1452              	.L49:
 568:./Libraries/STM32F4xx_HAL_Driver/Src/stm32f4xx_hal_pcd.c ****       }
 569:./Libraries/STM32F4xx_HAL_Driver/Src/stm32f4xx_hal_pcd.c ****       else
 570:./Libraries/STM32F4xx_HAL_Driver/Src/stm32f4xx_hal_pcd.c ****       {
 571:./Libraries/STM32F4xx_HAL_Driver/Src/stm32f4xx_hal_pcd.c ****         hpcd->Init.speed            = USB_OTG_SPEED_FULL;
 1453              		.loc 1 571 37
 1454 0598 7B68     		ldr	r3, [r7, #4]
 1455 059a 0322     		movs	r2, #3
 1456 059c DA60     		str	r2, [r3, #12]
 572:./Libraries/STM32F4xx_HAL_Driver/Src/stm32f4xx_hal_pcd.c ****         hpcd->Init.ep0_mps          = USB_OTG_FS_MAX_PACKET_SIZE ;  
 1457              		.loc 1 572 37
 1458 059e 7B68     		ldr	r3, [r7, #4]
 1459 05a0 4022     		movs	r2, #64
 1460 05a2 5A61     		str	r2, [r3, #20]
 573:./Libraries/STM32F4xx_HAL_Driver/Src/stm32f4xx_hal_pcd.c ****         
 574:./Libraries/STM32F4xx_HAL_Driver/Src/stm32f4xx_hal_pcd.c ****         /* The USBTRD is configured according to the tables below, depending on AHB frequency 
 575:./Libraries/STM32F4xx_HAL_Driver/Src/stm32f4xx_hal_pcd.c ****         used by application. In the low AHB frequency range it is used to stretch enough the USB re
 576:./Libraries/STM32F4xx_HAL_Driver/Src/stm32f4xx_hal_pcd.c ****         time to IN tokens, the USB turnaround time, so to compensate for the longer AHB read access
 577:./Libraries/STM32F4xx_HAL_Driver/Src/stm32f4xx_hal_pcd.c ****         latency to the Data FIFO */
 578:./Libraries/STM32F4xx_HAL_Driver/Src/stm32f4xx_hal_pcd.c ****         
 579:./Libraries/STM32F4xx_HAL_Driver/Src/stm32f4xx_hal_pcd.c ****         /* Get hclk frequency value */
 580:./Libraries/STM32F4xx_HAL_Driver/Src/stm32f4xx_hal_pcd.c ****         hclk = HAL_RCC_GetHCLKFreq();
 1461              		.loc 1 580 16
 1462 05a4 FFF7FEFF 		bl	HAL_RCC_GetHCLKFreq
 1463 05a8 3861     		str	r0, [r7, #16]
 581:./Libraries/STM32F4xx_HAL_Driver/Src/stm32f4xx_hal_pcd.c ****         
 582:./Libraries/STM32F4xx_HAL_Driver/Src/stm32f4xx_hal_pcd.c ****         if((hclk >= 14200000U)&&(hclk < 15000000U))
 1464              		.loc 1 582 11
 1465 05aa 3B69     		ldr	r3, [r7, #16]
 1466 05ac 7B4A     		ldr	r2, .L71
 1467 05ae 9342     		cmp	r3, r2
 1468 05b0 0CD9     		bls	.L51
 1469              		.loc 1 582 31 discriminator 1
 1470 05b2 3B69     		ldr	r3, [r7, #16]
 1471 05b4 7A4A     		ldr	r2, .L71+4
 1472 05b6 9342     		cmp	r3, r2
 1473 05b8 08D2     		bcs	.L51
 583:./Libraries/STM32F4xx_HAL_Driver/Src/stm32f4xx_hal_pcd.c ****         {
ARM GAS  /tmp/ccNCvjXU.s 			page 37


 584:./Libraries/STM32F4xx_HAL_Driver/Src/stm32f4xx_hal_pcd.c ****           /* hclk Clock Range between 14.2-15 MHz */
 585:./Libraries/STM32F4xx_HAL_Driver/Src/stm32f4xx_hal_pcd.c ****           hpcd->Instance->GUSBCFG |= (uint32_t)((0xFU << 10U) & USB_OTG_GUSBCFG_TRDT);
 1474              		.loc 1 585 15
 1475 05ba 7B68     		ldr	r3, [r7, #4]
 1476 05bc 1B68     		ldr	r3, [r3]
 1477              		.loc 1 585 35
 1478 05be DA68     		ldr	r2, [r3, #12]
 1479              		.loc 1 585 15
 1480 05c0 7B68     		ldr	r3, [r7, #4]
 1481 05c2 1B68     		ldr	r3, [r3]
 1482              		.loc 1 585 35
 1483 05c4 42F47052 		orr	r2, r2, #15360
 1484 05c8 DA60     		str	r2, [r3, #12]
 1485 05ca 8FE0     		b	.L50
 1486              	.L51:
 586:./Libraries/STM32F4xx_HAL_Driver/Src/stm32f4xx_hal_pcd.c ****         }
 587:./Libraries/STM32F4xx_HAL_Driver/Src/stm32f4xx_hal_pcd.c ****         
 588:./Libraries/STM32F4xx_HAL_Driver/Src/stm32f4xx_hal_pcd.c ****         else if((hclk >= 15000000U)&&(hclk < 16000000U))
 1487              		.loc 1 588 16
 1488 05cc 3B69     		ldr	r3, [r7, #16]
 1489 05ce 744A     		ldr	r2, .L71+4
 1490 05d0 9342     		cmp	r3, r2
 1491 05d2 0CD3     		bcc	.L52
 1492              		.loc 1 588 36 discriminator 1
 1493 05d4 3B69     		ldr	r3, [r7, #16]
 1494 05d6 734A     		ldr	r2, .L71+8
 1495 05d8 9342     		cmp	r3, r2
 1496 05da 08D2     		bcs	.L52
 589:./Libraries/STM32F4xx_HAL_Driver/Src/stm32f4xx_hal_pcd.c ****         {
 590:./Libraries/STM32F4xx_HAL_Driver/Src/stm32f4xx_hal_pcd.c ****           /* hclk Clock Range between 15-16 MHz */
 591:./Libraries/STM32F4xx_HAL_Driver/Src/stm32f4xx_hal_pcd.c ****           hpcd->Instance->GUSBCFG |= (uint32_t)((0xEU << 10U) & USB_OTG_GUSBCFG_TRDT);
 1497              		.loc 1 591 15
 1498 05dc 7B68     		ldr	r3, [r7, #4]
 1499 05de 1B68     		ldr	r3, [r3]
 1500              		.loc 1 591 35
 1501 05e0 DA68     		ldr	r2, [r3, #12]
 1502              		.loc 1 591 15
 1503 05e2 7B68     		ldr	r3, [r7, #4]
 1504 05e4 1B68     		ldr	r3, [r3]
 1505              		.loc 1 591 35
 1506 05e6 42F46052 		orr	r2, r2, #14336
 1507 05ea DA60     		str	r2, [r3, #12]
 1508 05ec 7EE0     		b	.L50
 1509              	.L52:
 592:./Libraries/STM32F4xx_HAL_Driver/Src/stm32f4xx_hal_pcd.c ****         }
 593:./Libraries/STM32F4xx_HAL_Driver/Src/stm32f4xx_hal_pcd.c ****         
 594:./Libraries/STM32F4xx_HAL_Driver/Src/stm32f4xx_hal_pcd.c ****         else if((hclk >= 16000000U)&&(hclk < 17200000U))
 1510              		.loc 1 594 16
 1511 05ee 3B69     		ldr	r3, [r7, #16]
 1512 05f0 6C4A     		ldr	r2, .L71+8
 1513 05f2 9342     		cmp	r3, r2
 1514 05f4 0CD3     		bcc	.L53
 1515              		.loc 1 594 36 discriminator 1
 1516 05f6 3B69     		ldr	r3, [r7, #16]
 1517 05f8 6B4A     		ldr	r2, .L71+12
 1518 05fa 9342     		cmp	r3, r2
 1519 05fc 08D2     		bcs	.L53
ARM GAS  /tmp/ccNCvjXU.s 			page 38


 595:./Libraries/STM32F4xx_HAL_Driver/Src/stm32f4xx_hal_pcd.c ****         {
 596:./Libraries/STM32F4xx_HAL_Driver/Src/stm32f4xx_hal_pcd.c ****           /* hclk Clock Range between 16-17.2 MHz */
 597:./Libraries/STM32F4xx_HAL_Driver/Src/stm32f4xx_hal_pcd.c ****           hpcd->Instance->GUSBCFG |= (uint32_t)((0xDU << 10U) & USB_OTG_GUSBCFG_TRDT);
 1520              		.loc 1 597 15
 1521 05fe 7B68     		ldr	r3, [r7, #4]
 1522 0600 1B68     		ldr	r3, [r3]
 1523              		.loc 1 597 35
 1524 0602 DA68     		ldr	r2, [r3, #12]
 1525              		.loc 1 597 15
 1526 0604 7B68     		ldr	r3, [r7, #4]
 1527 0606 1B68     		ldr	r3, [r3]
 1528              		.loc 1 597 35
 1529 0608 42F45052 		orr	r2, r2, #13312
 1530 060c DA60     		str	r2, [r3, #12]
 1531 060e 6DE0     		b	.L50
 1532              	.L53:
 598:./Libraries/STM32F4xx_HAL_Driver/Src/stm32f4xx_hal_pcd.c ****         }
 599:./Libraries/STM32F4xx_HAL_Driver/Src/stm32f4xx_hal_pcd.c ****         
 600:./Libraries/STM32F4xx_HAL_Driver/Src/stm32f4xx_hal_pcd.c ****         else if((hclk >= 17200000U)&&(hclk < 18500000U))
 1533              		.loc 1 600 16
 1534 0610 3B69     		ldr	r3, [r7, #16]
 1535 0612 654A     		ldr	r2, .L71+12
 1536 0614 9342     		cmp	r3, r2
 1537 0616 0CD3     		bcc	.L54
 1538              		.loc 1 600 36 discriminator 1
 1539 0618 3B69     		ldr	r3, [r7, #16]
 1540 061a 644A     		ldr	r2, .L71+16
 1541 061c 9342     		cmp	r3, r2
 1542 061e 08D8     		bhi	.L54
 601:./Libraries/STM32F4xx_HAL_Driver/Src/stm32f4xx_hal_pcd.c ****         {
 602:./Libraries/STM32F4xx_HAL_Driver/Src/stm32f4xx_hal_pcd.c ****           /* hclk Clock Range between 17.2-18.5 MHz */
 603:./Libraries/STM32F4xx_HAL_Driver/Src/stm32f4xx_hal_pcd.c ****           hpcd->Instance->GUSBCFG |= (uint32_t)((0xCU << 10U) & USB_OTG_GUSBCFG_TRDT);
 1543              		.loc 1 603 15
 1544 0620 7B68     		ldr	r3, [r7, #4]
 1545 0622 1B68     		ldr	r3, [r3]
 1546              		.loc 1 603 35
 1547 0624 DA68     		ldr	r2, [r3, #12]
 1548              		.loc 1 603 15
 1549 0626 7B68     		ldr	r3, [r7, #4]
 1550 0628 1B68     		ldr	r3, [r3]
 1551              		.loc 1 603 35
 1552 062a 42F44052 		orr	r2, r2, #12288
 1553 062e DA60     		str	r2, [r3, #12]
 1554 0630 5CE0     		b	.L50
 1555              	.L54:
 604:./Libraries/STM32F4xx_HAL_Driver/Src/stm32f4xx_hal_pcd.c ****         }
 605:./Libraries/STM32F4xx_HAL_Driver/Src/stm32f4xx_hal_pcd.c ****         
 606:./Libraries/STM32F4xx_HAL_Driver/Src/stm32f4xx_hal_pcd.c ****         else if((hclk >= 18500000U)&&(hclk < 20000000U))
 1556              		.loc 1 606 16
 1557 0632 3B69     		ldr	r3, [r7, #16]
 1558 0634 5D4A     		ldr	r2, .L71+16
 1559 0636 9342     		cmp	r3, r2
 1560 0638 0CD9     		bls	.L55
 1561              		.loc 1 606 36 discriminator 1
 1562 063a 3B69     		ldr	r3, [r7, #16]
 1563 063c 5C4A     		ldr	r2, .L71+20
 1564 063e 9342     		cmp	r3, r2
ARM GAS  /tmp/ccNCvjXU.s 			page 39


 1565 0640 08D8     		bhi	.L55
 607:./Libraries/STM32F4xx_HAL_Driver/Src/stm32f4xx_hal_pcd.c ****         {
 608:./Libraries/STM32F4xx_HAL_Driver/Src/stm32f4xx_hal_pcd.c ****           /* hclk Clock Range between 18.5-20 MHz */
 609:./Libraries/STM32F4xx_HAL_Driver/Src/stm32f4xx_hal_pcd.c ****           hpcd->Instance->GUSBCFG |= (uint32_t)((0xBU << 10U) & USB_OTG_GUSBCFG_TRDT);
 1566              		.loc 1 609 15
 1567 0642 7B68     		ldr	r3, [r7, #4]
 1568 0644 1B68     		ldr	r3, [r3]
 1569              		.loc 1 609 35
 1570 0646 DA68     		ldr	r2, [r3, #12]
 1571              		.loc 1 609 15
 1572 0648 7B68     		ldr	r3, [r7, #4]
 1573 064a 1B68     		ldr	r3, [r3]
 1574              		.loc 1 609 35
 1575 064c 42F43052 		orr	r2, r2, #11264
 1576 0650 DA60     		str	r2, [r3, #12]
 1577 0652 4BE0     		b	.L50
 1578              	.L55:
 610:./Libraries/STM32F4xx_HAL_Driver/Src/stm32f4xx_hal_pcd.c ****         }
 611:./Libraries/STM32F4xx_HAL_Driver/Src/stm32f4xx_hal_pcd.c ****         
 612:./Libraries/STM32F4xx_HAL_Driver/Src/stm32f4xx_hal_pcd.c ****         else if((hclk >= 20000000U)&&(hclk < 21800000U))
 1579              		.loc 1 612 16
 1580 0654 3B69     		ldr	r3, [r7, #16]
 1581 0656 564A     		ldr	r2, .L71+20
 1582 0658 9342     		cmp	r3, r2
 1583 065a 0CD9     		bls	.L56
 1584              		.loc 1 612 36 discriminator 1
 1585 065c 3B69     		ldr	r3, [r7, #16]
 1586 065e 554A     		ldr	r2, .L71+24
 1587 0660 9342     		cmp	r3, r2
 1588 0662 08D8     		bhi	.L56
 613:./Libraries/STM32F4xx_HAL_Driver/Src/stm32f4xx_hal_pcd.c ****         {
 614:./Libraries/STM32F4xx_HAL_Driver/Src/stm32f4xx_hal_pcd.c ****           /* hclk Clock Range between 20-21.8 MHz */
 615:./Libraries/STM32F4xx_HAL_Driver/Src/stm32f4xx_hal_pcd.c ****           hpcd->Instance->GUSBCFG |= (uint32_t)((0xAU << 10U) & USB_OTG_GUSBCFG_TRDT);
 1589              		.loc 1 615 15
 1590 0664 7B68     		ldr	r3, [r7, #4]
 1591 0666 1B68     		ldr	r3, [r3]
 1592              		.loc 1 615 35
 1593 0668 DA68     		ldr	r2, [r3, #12]
 1594              		.loc 1 615 15
 1595 066a 7B68     		ldr	r3, [r7, #4]
 1596 066c 1B68     		ldr	r3, [r3]
 1597              		.loc 1 615 35
 1598 066e 42F42052 		orr	r2, r2, #10240
 1599 0672 DA60     		str	r2, [r3, #12]
 1600 0674 3AE0     		b	.L50
 1601              	.L56:
 616:./Libraries/STM32F4xx_HAL_Driver/Src/stm32f4xx_hal_pcd.c ****         }
 617:./Libraries/STM32F4xx_HAL_Driver/Src/stm32f4xx_hal_pcd.c ****         
 618:./Libraries/STM32F4xx_HAL_Driver/Src/stm32f4xx_hal_pcd.c ****         else if((hclk >= 21800000U)&&(hclk < 24000000U))
 1602              		.loc 1 618 16
 1603 0676 3B69     		ldr	r3, [r7, #16]
 1604 0678 4E4A     		ldr	r2, .L71+24
 1605 067a 9342     		cmp	r3, r2
 1606 067c 0CD9     		bls	.L57
 1607              		.loc 1 618 36 discriminator 1
 1608 067e 3B69     		ldr	r3, [r7, #16]
 1609 0680 4D4A     		ldr	r2, .L71+28
ARM GAS  /tmp/ccNCvjXU.s 			page 40


 1610 0682 9342     		cmp	r3, r2
 1611 0684 08D2     		bcs	.L57
 619:./Libraries/STM32F4xx_HAL_Driver/Src/stm32f4xx_hal_pcd.c ****         {
 620:./Libraries/STM32F4xx_HAL_Driver/Src/stm32f4xx_hal_pcd.c ****           /* hclk Clock Range between 21.8-24 MHz */
 621:./Libraries/STM32F4xx_HAL_Driver/Src/stm32f4xx_hal_pcd.c ****           hpcd->Instance->GUSBCFG |= (uint32_t)((0x9U << 10U) & USB_OTG_GUSBCFG_TRDT);
 1612              		.loc 1 621 15
 1613 0686 7B68     		ldr	r3, [r7, #4]
 1614 0688 1B68     		ldr	r3, [r3]
 1615              		.loc 1 621 35
 1616 068a DA68     		ldr	r2, [r3, #12]
 1617              		.loc 1 621 15
 1618 068c 7B68     		ldr	r3, [r7, #4]
 1619 068e 1B68     		ldr	r3, [r3]
 1620              		.loc 1 621 35
 1621 0690 42F41052 		orr	r2, r2, #9216
 1622 0694 DA60     		str	r2, [r3, #12]
 1623 0696 29E0     		b	.L50
 1624              	.L57:
 622:./Libraries/STM32F4xx_HAL_Driver/Src/stm32f4xx_hal_pcd.c ****         }
 623:./Libraries/STM32F4xx_HAL_Driver/Src/stm32f4xx_hal_pcd.c ****         
 624:./Libraries/STM32F4xx_HAL_Driver/Src/stm32f4xx_hal_pcd.c ****         else if((hclk >= 24000000U)&&(hclk < 27700000U))
 1625              		.loc 1 624 16
 1626 0698 3B69     		ldr	r3, [r7, #16]
 1627 069a 474A     		ldr	r2, .L71+28
 1628 069c 9342     		cmp	r3, r2
 1629 069e 0CD3     		bcc	.L58
 1630              		.loc 1 624 36 discriminator 1
 1631 06a0 3B69     		ldr	r3, [r7, #16]
 1632 06a2 464A     		ldr	r2, .L71+32
 1633 06a4 9342     		cmp	r3, r2
 1634 06a6 08D8     		bhi	.L58
 625:./Libraries/STM32F4xx_HAL_Driver/Src/stm32f4xx_hal_pcd.c ****         {
 626:./Libraries/STM32F4xx_HAL_Driver/Src/stm32f4xx_hal_pcd.c ****           /* hclk Clock Range between 24-27.7 MHz */
 627:./Libraries/STM32F4xx_HAL_Driver/Src/stm32f4xx_hal_pcd.c ****           hpcd->Instance->GUSBCFG |= (uint32_t)((0x8U << 10U) & USB_OTG_GUSBCFG_TRDT);
 1635              		.loc 1 627 15
 1636 06a8 7B68     		ldr	r3, [r7, #4]
 1637 06aa 1B68     		ldr	r3, [r3]
 1638              		.loc 1 627 35
 1639 06ac DA68     		ldr	r2, [r3, #12]
 1640              		.loc 1 627 15
 1641 06ae 7B68     		ldr	r3, [r7, #4]
 1642 06b0 1B68     		ldr	r3, [r3]
 1643              		.loc 1 627 35
 1644 06b2 42F40052 		orr	r2, r2, #8192
 1645 06b6 DA60     		str	r2, [r3, #12]
 1646 06b8 18E0     		b	.L50
 1647              	.L58:
 628:./Libraries/STM32F4xx_HAL_Driver/Src/stm32f4xx_hal_pcd.c ****         }
 629:./Libraries/STM32F4xx_HAL_Driver/Src/stm32f4xx_hal_pcd.c ****         
 630:./Libraries/STM32F4xx_HAL_Driver/Src/stm32f4xx_hal_pcd.c ****         else if((hclk >= 27700000U)&&(hclk < 32000000U))
 1648              		.loc 1 630 16
 1649 06ba 3B69     		ldr	r3, [r7, #16]
 1650 06bc 3F4A     		ldr	r2, .L71+32
 1651 06be 9342     		cmp	r3, r2
 1652 06c0 0CD9     		bls	.L59
 1653              		.loc 1 630 36 discriminator 1
 1654 06c2 3B69     		ldr	r3, [r7, #16]
ARM GAS  /tmp/ccNCvjXU.s 			page 41


 1655 06c4 3E4A     		ldr	r2, .L71+36
 1656 06c6 9342     		cmp	r3, r2
 1657 06c8 08D2     		bcs	.L59
 631:./Libraries/STM32F4xx_HAL_Driver/Src/stm32f4xx_hal_pcd.c ****         {
 632:./Libraries/STM32F4xx_HAL_Driver/Src/stm32f4xx_hal_pcd.c ****           /* hclk Clock Range between 27.7-32 MHz */
 633:./Libraries/STM32F4xx_HAL_Driver/Src/stm32f4xx_hal_pcd.c ****           hpcd->Instance->GUSBCFG |= (uint32_t)((0x7U << 10U) & USB_OTG_GUSBCFG_TRDT);
 1658              		.loc 1 633 15
 1659 06ca 7B68     		ldr	r3, [r7, #4]
 1660 06cc 1B68     		ldr	r3, [r3]
 1661              		.loc 1 633 35
 1662 06ce DA68     		ldr	r2, [r3, #12]
 1663              		.loc 1 633 15
 1664 06d0 7B68     		ldr	r3, [r7, #4]
 1665 06d2 1B68     		ldr	r3, [r3]
 1666              		.loc 1 633 35
 1667 06d4 42F4E052 		orr	r2, r2, #7168
 1668 06d8 DA60     		str	r2, [r3, #12]
 1669 06da 07E0     		b	.L50
 1670              	.L59:
 634:./Libraries/STM32F4xx_HAL_Driver/Src/stm32f4xx_hal_pcd.c ****         }
 635:./Libraries/STM32F4xx_HAL_Driver/Src/stm32f4xx_hal_pcd.c ****         
 636:./Libraries/STM32F4xx_HAL_Driver/Src/stm32f4xx_hal_pcd.c ****         else /* if(hclk >= 32000000) */
 637:./Libraries/STM32F4xx_HAL_Driver/Src/stm32f4xx_hal_pcd.c ****         {
 638:./Libraries/STM32F4xx_HAL_Driver/Src/stm32f4xx_hal_pcd.c ****           /* hclk Clock Range between 32-180 MHz */
 639:./Libraries/STM32F4xx_HAL_Driver/Src/stm32f4xx_hal_pcd.c ****           hpcd->Instance->GUSBCFG |= (uint32_t)((0x6U << 10U) & USB_OTG_GUSBCFG_TRDT);
 1671              		.loc 1 639 15
 1672 06dc 7B68     		ldr	r3, [r7, #4]
 1673 06de 1B68     		ldr	r3, [r3]
 1674              		.loc 1 639 35
 1675 06e0 DA68     		ldr	r2, [r3, #12]
 1676              		.loc 1 639 15
 1677 06e2 7B68     		ldr	r3, [r7, #4]
 1678 06e4 1B68     		ldr	r3, [r3]
 1679              		.loc 1 639 35
 1680 06e6 42F4C052 		orr	r2, r2, #6144
 1681 06ea DA60     		str	r2, [r3, #12]
 1682              	.L50:
 640:./Libraries/STM32F4xx_HAL_Driver/Src/stm32f4xx_hal_pcd.c ****         }  
 641:./Libraries/STM32F4xx_HAL_Driver/Src/stm32f4xx_hal_pcd.c ****       }
 642:./Libraries/STM32F4xx_HAL_Driver/Src/stm32f4xx_hal_pcd.c ****       
 643:./Libraries/STM32F4xx_HAL_Driver/Src/stm32f4xx_hal_pcd.c ****       HAL_PCD_ResetCallback(hpcd);
 1683              		.loc 1 643 7
 1684 06ec 7868     		ldr	r0, [r7, #4]
 1685 06ee FFF7FEFF 		bl	HAL_PCD_ResetCallback
 644:./Libraries/STM32F4xx_HAL_Driver/Src/stm32f4xx_hal_pcd.c ****       
 645:./Libraries/STM32F4xx_HAL_Driver/Src/stm32f4xx_hal_pcd.c ****       __HAL_PCD_CLEAR_FLAG(hpcd, USB_OTG_GINTSTS_ENUMDNE);
 1686              		.loc 1 645 7
 1687 06f2 7B68     		ldr	r3, [r7, #4]
 1688 06f4 1B68     		ldr	r3, [r3]
 1689 06f6 5A69     		ldr	r2, [r3, #20]
 1690 06f8 7B68     		ldr	r3, [r7, #4]
 1691 06fa 1B68     		ldr	r3, [r3]
 1692 06fc 02F40052 		and	r2, r2, #8192
 1693 0700 5A61     		str	r2, [r3, #20]
 1694              	.L48:
 646:./Libraries/STM32F4xx_HAL_Driver/Src/stm32f4xx_hal_pcd.c ****     }
 647:./Libraries/STM32F4xx_HAL_Driver/Src/stm32f4xx_hal_pcd.c **** 
ARM GAS  /tmp/ccNCvjXU.s 			page 42


 648:./Libraries/STM32F4xx_HAL_Driver/Src/stm32f4xx_hal_pcd.c ****     /* Handle RxQLevel Interrupt */
 649:./Libraries/STM32F4xx_HAL_Driver/Src/stm32f4xx_hal_pcd.c ****     if(__HAL_PCD_GET_FLAG(hpcd, USB_OTG_GINTSTS_RXFLVL))
 1695              		.loc 1 649 8
 1696 0702 7B68     		ldr	r3, [r7, #4]
 1697 0704 1B68     		ldr	r3, [r3]
 1698 0706 1846     		mov	r0, r3
 1699 0708 FFF7FEFF 		bl	USB_ReadInterrupts
 1700 070c 0346     		mov	r3, r0
 1701 070e 03F01003 		and	r3, r3, #16
 1702              		.loc 1 649 7
 1703 0712 102B     		cmp	r3, #16
 1704 0714 75D1     		bne	.L60
 650:./Libraries/STM32F4xx_HAL_Driver/Src/stm32f4xx_hal_pcd.c ****     {
 651:./Libraries/STM32F4xx_HAL_Driver/Src/stm32f4xx_hal_pcd.c ****       USB_MASK_INTERRUPT(hpcd->Instance, USB_OTG_GINTSTS_RXFLVL);
 1705              		.loc 1 651 7
 1706 0716 7B68     		ldr	r3, [r7, #4]
 1707 0718 1B68     		ldr	r3, [r3]
 1708 071a 9A69     		ldr	r2, [r3, #24]
 1709 071c 7B68     		ldr	r3, [r7, #4]
 1710 071e 1B68     		ldr	r3, [r3]
 1711 0720 22F01002 		bic	r2, r2, #16
 1712 0724 9A61     		str	r2, [r3, #24]
 652:./Libraries/STM32F4xx_HAL_Driver/Src/stm32f4xx_hal_pcd.c ****       
 653:./Libraries/STM32F4xx_HAL_Driver/Src/stm32f4xx_hal_pcd.c ****       temp = USBx->GRXSTSP;
 1713              		.loc 1 653 12
 1714 0726 3B6A     		ldr	r3, [r7, #32]
 1715 0728 1B6A     		ldr	r3, [r3, #32]
 1716 072a 7B61     		str	r3, [r7, #20]
 654:./Libraries/STM32F4xx_HAL_Driver/Src/stm32f4xx_hal_pcd.c ****       
 655:./Libraries/STM32F4xx_HAL_Driver/Src/stm32f4xx_hal_pcd.c ****       ep = &hpcd->OUT_ep[temp & USB_OTG_GRXSTSP_EPNUM];
 1717              		.loc 1 655 31
 1718 072c 7B69     		ldr	r3, [r7, #20]
 1719 072e 03F00F02 		and	r2, r3, #15
 1720              		.loc 1 655 10
 1721 0732 1346     		mov	r3, r2
 1722 0734 DB00     		lsls	r3, r3, #3
 1723 0736 9B1A     		subs	r3, r3, r2
 1724 0738 9B00     		lsls	r3, r3, #2
 1725 073a 03F5FC73 		add	r3, r3, #504
 1726 073e 7A68     		ldr	r2, [r7, #4]
 1727 0740 1344     		add	r3, r3, r2
 1728 0742 FB60     		str	r3, [r7, #12]
 656:./Libraries/STM32F4xx_HAL_Driver/Src/stm32f4xx_hal_pcd.c ****       
 657:./Libraries/STM32F4xx_HAL_Driver/Src/stm32f4xx_hal_pcd.c ****       if(((temp & USB_OTG_GRXSTSP_PKTSTS) >> 17U) ==  STS_DATA_UPDT)
 1729              		.loc 1 657 43
 1730 0744 7B69     		ldr	r3, [r7, #20]
 1731 0746 5B0C     		lsrs	r3, r3, #17
 1732 0748 03F00F03 		and	r3, r3, #15
 1733              		.loc 1 657 9
 1734 074c 022B     		cmp	r3, #2
 1735 074e 39D1     		bne	.L61
 658:./Libraries/STM32F4xx_HAL_Driver/Src/stm32f4xx_hal_pcd.c ****       {
 659:./Libraries/STM32F4xx_HAL_Driver/Src/stm32f4xx_hal_pcd.c ****         if((temp & USB_OTG_GRXSTSP_BCNT) != 0U)
 1736              		.loc 1 659 18
 1737 0750 7A69     		ldr	r2, [r7, #20]
 1738 0752 47F6F073 		movw	r3, #32752
 1739 0756 1340     		ands	r3, r3, r2
ARM GAS  /tmp/ccNCvjXU.s 			page 43


 1740              		.loc 1 659 11
 1741 0758 002B     		cmp	r3, #0
 1742 075a 4AD0     		beq	.L62
 660:./Libraries/STM32F4xx_HAL_Driver/Src/stm32f4xx_hal_pcd.c ****         {
 661:./Libraries/STM32F4xx_HAL_Driver/Src/stm32f4xx_hal_pcd.c ****           USB_ReadPacket(USBx, ep->xfer_buff, (temp & USB_OTG_GRXSTSP_BCNT) >> 4U);
 1743              		.loc 1 661 11
 1744 075c FB68     		ldr	r3, [r7, #12]
 1745 075e D968     		ldr	r1, [r3, #12]
 1746              		.loc 1 661 77
 1747 0760 7B69     		ldr	r3, [r7, #20]
 1748 0762 1B09     		lsrs	r3, r3, #4
 1749              		.loc 1 661 11
 1750 0764 9BB2     		uxth	r3, r3
 1751 0766 C3F30A03 		ubfx	r3, r3, #0, #11
 1752 076a 9BB2     		uxth	r3, r3
 1753 076c 1A46     		mov	r2, r3
 1754 076e 386A     		ldr	r0, [r7, #32]
 1755 0770 FFF7FEFF 		bl	USB_ReadPacket
 662:./Libraries/STM32F4xx_HAL_Driver/Src/stm32f4xx_hal_pcd.c ****           ep->xfer_buff += (temp & USB_OTG_GRXSTSP_BCNT) >> 4U;
 1756              		.loc 1 662 25
 1757 0774 FB68     		ldr	r3, [r7, #12]
 1758 0776 DA68     		ldr	r2, [r3, #12]
 1759              		.loc 1 662 58
 1760 0778 7B69     		ldr	r3, [r7, #20]
 1761 077a 1B09     		lsrs	r3, r3, #4
 1762 077c C3F30A03 		ubfx	r3, r3, #0, #11
 1763              		.loc 1 662 25
 1764 0780 1A44     		add	r2, r2, r3
 1765 0782 FB68     		ldr	r3, [r7, #12]
 1766 0784 DA60     		str	r2, [r3, #12]
 663:./Libraries/STM32F4xx_HAL_Driver/Src/stm32f4xx_hal_pcd.c ****           ep->xfer_count += (temp & USB_OTG_GRXSTSP_BCNT) >> 4U;
 1767              		.loc 1 663 26
 1768 0786 FB68     		ldr	r3, [r7, #12]
 1769 0788 9A69     		ldr	r2, [r3, #24]
 1770              		.loc 1 663 59
 1771 078a 7B69     		ldr	r3, [r7, #20]
 1772 078c 1B09     		lsrs	r3, r3, #4
 1773 078e C3F30A03 		ubfx	r3, r3, #0, #11
 1774              		.loc 1 663 26
 1775 0792 1A44     		add	r2, r2, r3
 1776 0794 FB68     		ldr	r3, [r7, #12]
 1777 0796 9A61     		str	r2, [r3, #24]
 1778 0798 2BE0     		b	.L62
 1779              	.L72:
 1780 079a 00BF     		.align	2
 1781              	.L71:
 1782 079c BFACD800 		.word	14199999
 1783 07a0 C0E1E400 		.word	15000000
 1784 07a4 0024F400 		.word	16000000
 1785 07a8 80730601 		.word	17200000
 1786 07ac 9F491A01 		.word	18499999
 1787 07b0 FF2C3101 		.word	19999999
 1788 07b4 3FA44C01 		.word	21799999
 1789 07b8 00366E01 		.word	24000000
 1790 07bc 1FABA601 		.word	27699999
 1791 07c0 0048E801 		.word	32000000
 1792              	.L61:
ARM GAS  /tmp/ccNCvjXU.s 			page 44


 664:./Libraries/STM32F4xx_HAL_Driver/Src/stm32f4xx_hal_pcd.c ****         }
 665:./Libraries/STM32F4xx_HAL_Driver/Src/stm32f4xx_hal_pcd.c ****       }
 666:./Libraries/STM32F4xx_HAL_Driver/Src/stm32f4xx_hal_pcd.c ****       else if (((temp & USB_OTG_GRXSTSP_PKTSTS) >> 17U) ==  STS_SETUP_UPDT)
 1793              		.loc 1 666 49
 1794 07c4 7B69     		ldr	r3, [r7, #20]
 1795 07c6 5B0C     		lsrs	r3, r3, #17
 1796 07c8 03F00F03 		and	r3, r3, #15
 1797              		.loc 1 666 15
 1798 07cc 062B     		cmp	r3, #6
 1799 07ce 10D1     		bne	.L62
 667:./Libraries/STM32F4xx_HAL_Driver/Src/stm32f4xx_hal_pcd.c ****       {
 668:./Libraries/STM32F4xx_HAL_Driver/Src/stm32f4xx_hal_pcd.c ****         USB_ReadPacket(USBx, (uint8_t *)hpcd->Setup, 8U);
 1800              		.loc 1 668 41
 1801 07d0 7B68     		ldr	r3, [r7, #4]
 1802 07d2 03F56F73 		add	r3, r3, #956
 1803              		.loc 1 668 9
 1804 07d6 0822     		movs	r2, #8
 1805 07d8 1946     		mov	r1, r3
 1806 07da 386A     		ldr	r0, [r7, #32]
 1807 07dc FFF7FEFF 		bl	USB_ReadPacket
 669:./Libraries/STM32F4xx_HAL_Driver/Src/stm32f4xx_hal_pcd.c ****         ep->xfer_count += (temp & USB_OTG_GRXSTSP_BCNT) >> 4U;
 1808              		.loc 1 669 24
 1809 07e0 FB68     		ldr	r3, [r7, #12]
 1810 07e2 9A69     		ldr	r2, [r3, #24]
 1811              		.loc 1 669 57
 1812 07e4 7B69     		ldr	r3, [r7, #20]
 1813 07e6 1B09     		lsrs	r3, r3, #4
 1814 07e8 C3F30A03 		ubfx	r3, r3, #0, #11
 1815              		.loc 1 669 24
 1816 07ec 1A44     		add	r2, r2, r3
 1817 07ee FB68     		ldr	r3, [r7, #12]
 1818 07f0 9A61     		str	r2, [r3, #24]
 1819              	.L62:
 670:./Libraries/STM32F4xx_HAL_Driver/Src/stm32f4xx_hal_pcd.c ****       }
 671:./Libraries/STM32F4xx_HAL_Driver/Src/stm32f4xx_hal_pcd.c ****       USB_UNMASK_INTERRUPT(hpcd->Instance, USB_OTG_GINTSTS_RXFLVL);
 1820              		.loc 1 671 7
 1821 07f2 7B68     		ldr	r3, [r7, #4]
 1822 07f4 1B68     		ldr	r3, [r3]
 1823 07f6 9A69     		ldr	r2, [r3, #24]
 1824 07f8 7B68     		ldr	r3, [r7, #4]
 1825 07fa 1B68     		ldr	r3, [r3]
 1826 07fc 42F01002 		orr	r2, r2, #16
 1827 0800 9A61     		str	r2, [r3, #24]
 1828              	.L60:
 672:./Libraries/STM32F4xx_HAL_Driver/Src/stm32f4xx_hal_pcd.c ****     }
 673:./Libraries/STM32F4xx_HAL_Driver/Src/stm32f4xx_hal_pcd.c ****     
 674:./Libraries/STM32F4xx_HAL_Driver/Src/stm32f4xx_hal_pcd.c ****     /* Handle SOF Interrupt */
 675:./Libraries/STM32F4xx_HAL_Driver/Src/stm32f4xx_hal_pcd.c ****     if(__HAL_PCD_GET_FLAG(hpcd, USB_OTG_GINTSTS_SOF))
 1829              		.loc 1 675 8
 1830 0802 7B68     		ldr	r3, [r7, #4]
 1831 0804 1B68     		ldr	r3, [r3]
 1832 0806 1846     		mov	r0, r3
 1833 0808 FFF7FEFF 		bl	USB_ReadInterrupts
 1834 080c 0346     		mov	r3, r0
 1835 080e 03F00803 		and	r3, r3, #8
 1836              		.loc 1 675 7
 1837 0812 082B     		cmp	r3, #8
ARM GAS  /tmp/ccNCvjXU.s 			page 45


 1838 0814 0AD1     		bne	.L63
 676:./Libraries/STM32F4xx_HAL_Driver/Src/stm32f4xx_hal_pcd.c ****     {
 677:./Libraries/STM32F4xx_HAL_Driver/Src/stm32f4xx_hal_pcd.c ****       HAL_PCD_SOFCallback(hpcd);
 1839              		.loc 1 677 7
 1840 0816 7868     		ldr	r0, [r7, #4]
 1841 0818 FFF7FEFF 		bl	HAL_PCD_SOFCallback
 678:./Libraries/STM32F4xx_HAL_Driver/Src/stm32f4xx_hal_pcd.c ****       __HAL_PCD_CLEAR_FLAG(hpcd, USB_OTG_GINTSTS_SOF);
 1842              		.loc 1 678 7
 1843 081c 7B68     		ldr	r3, [r7, #4]
 1844 081e 1B68     		ldr	r3, [r3]
 1845 0820 5A69     		ldr	r2, [r3, #20]
 1846 0822 7B68     		ldr	r3, [r7, #4]
 1847 0824 1B68     		ldr	r3, [r3]
 1848 0826 02F00802 		and	r2, r2, #8
 1849 082a 5A61     		str	r2, [r3, #20]
 1850              	.L63:
 679:./Libraries/STM32F4xx_HAL_Driver/Src/stm32f4xx_hal_pcd.c ****     }
 680:./Libraries/STM32F4xx_HAL_Driver/Src/stm32f4xx_hal_pcd.c ****     
 681:./Libraries/STM32F4xx_HAL_Driver/Src/stm32f4xx_hal_pcd.c ****     /* Handle Incomplete ISO IN Interrupt */
 682:./Libraries/STM32F4xx_HAL_Driver/Src/stm32f4xx_hal_pcd.c ****     if(__HAL_PCD_GET_FLAG(hpcd, USB_OTG_GINTSTS_IISOIXFR))
 1851              		.loc 1 682 8
 1852 082c 7B68     		ldr	r3, [r7, #4]
 1853 082e 1B68     		ldr	r3, [r3]
 1854 0830 1846     		mov	r0, r3
 1855 0832 FFF7FEFF 		bl	USB_ReadInterrupts
 1856 0836 0346     		mov	r3, r0
 1857 0838 03F48013 		and	r3, r3, #1048576
 1858              		.loc 1 682 7
 1859 083c B3F5801F 		cmp	r3, #1048576
 1860 0840 0DD1     		bne	.L64
 683:./Libraries/STM32F4xx_HAL_Driver/Src/stm32f4xx_hal_pcd.c ****     {
 684:./Libraries/STM32F4xx_HAL_Driver/Src/stm32f4xx_hal_pcd.c ****       HAL_PCD_ISOINIncompleteCallback(hpcd, epnum);
 1861              		.loc 1 684 7
 1862 0842 7B6A     		ldr	r3, [r7, #36]
 1863 0844 DBB2     		uxtb	r3, r3
 1864 0846 1946     		mov	r1, r3
 1865 0848 7868     		ldr	r0, [r7, #4]
 1866 084a FFF7FEFF 		bl	HAL_PCD_ISOINIncompleteCallback
 685:./Libraries/STM32F4xx_HAL_Driver/Src/stm32f4xx_hal_pcd.c ****       __HAL_PCD_CLEAR_FLAG(hpcd, USB_OTG_GINTSTS_IISOIXFR);
 1867              		.loc 1 685 7
 1868 084e 7B68     		ldr	r3, [r7, #4]
 1869 0850 1B68     		ldr	r3, [r3]
 1870 0852 5A69     		ldr	r2, [r3, #20]
 1871 0854 7B68     		ldr	r3, [r7, #4]
 1872 0856 1B68     		ldr	r3, [r3]
 1873 0858 02F48012 		and	r2, r2, #1048576
 1874 085c 5A61     		str	r2, [r3, #20]
 1875              	.L64:
 686:./Libraries/STM32F4xx_HAL_Driver/Src/stm32f4xx_hal_pcd.c ****     } 
 687:./Libraries/STM32F4xx_HAL_Driver/Src/stm32f4xx_hal_pcd.c ****     
 688:./Libraries/STM32F4xx_HAL_Driver/Src/stm32f4xx_hal_pcd.c ****     /* Handle Incomplete ISO OUT Interrupt */
 689:./Libraries/STM32F4xx_HAL_Driver/Src/stm32f4xx_hal_pcd.c ****     if(__HAL_PCD_GET_FLAG(hpcd, USB_OTG_GINTSTS_PXFR_INCOMPISOOUT))
 1876              		.loc 1 689 8
 1877 085e 7B68     		ldr	r3, [r7, #4]
 1878 0860 1B68     		ldr	r3, [r3]
 1879 0862 1846     		mov	r0, r3
 1880 0864 FFF7FEFF 		bl	USB_ReadInterrupts
ARM GAS  /tmp/ccNCvjXU.s 			page 46


 1881 0868 0346     		mov	r3, r0
 1882 086a 03F40013 		and	r3, r3, #2097152
 1883              		.loc 1 689 7
 1884 086e B3F5001F 		cmp	r3, #2097152
 1885 0872 0DD1     		bne	.L65
 690:./Libraries/STM32F4xx_HAL_Driver/Src/stm32f4xx_hal_pcd.c ****     {
 691:./Libraries/STM32F4xx_HAL_Driver/Src/stm32f4xx_hal_pcd.c ****       HAL_PCD_ISOOUTIncompleteCallback(hpcd, epnum);
 1886              		.loc 1 691 7
 1887 0874 7B6A     		ldr	r3, [r7, #36]
 1888 0876 DBB2     		uxtb	r3, r3
 1889 0878 1946     		mov	r1, r3
 1890 087a 7868     		ldr	r0, [r7, #4]
 1891 087c FFF7FEFF 		bl	HAL_PCD_ISOOUTIncompleteCallback
 692:./Libraries/STM32F4xx_HAL_Driver/Src/stm32f4xx_hal_pcd.c ****       __HAL_PCD_CLEAR_FLAG(hpcd, USB_OTG_GINTSTS_PXFR_INCOMPISOOUT);
 1892              		.loc 1 692 7
 1893 0880 7B68     		ldr	r3, [r7, #4]
 1894 0882 1B68     		ldr	r3, [r3]
 1895 0884 5A69     		ldr	r2, [r3, #20]
 1896 0886 7B68     		ldr	r3, [r7, #4]
 1897 0888 1B68     		ldr	r3, [r3]
 1898 088a 02F40012 		and	r2, r2, #2097152
 1899 088e 5A61     		str	r2, [r3, #20]
 1900              	.L65:
 693:./Libraries/STM32F4xx_HAL_Driver/Src/stm32f4xx_hal_pcd.c ****     } 
 694:./Libraries/STM32F4xx_HAL_Driver/Src/stm32f4xx_hal_pcd.c ****     
 695:./Libraries/STM32F4xx_HAL_Driver/Src/stm32f4xx_hal_pcd.c ****     /* Handle Connection event Interrupt */
 696:./Libraries/STM32F4xx_HAL_Driver/Src/stm32f4xx_hal_pcd.c ****     if(__HAL_PCD_GET_FLAG(hpcd, USB_OTG_GINTSTS_SRQINT))
 1901              		.loc 1 696 8
 1902 0890 7B68     		ldr	r3, [r7, #4]
 1903 0892 1B68     		ldr	r3, [r3]
 1904 0894 1846     		mov	r0, r3
 1905 0896 FFF7FEFF 		bl	USB_ReadInterrupts
 1906 089a 0346     		mov	r3, r0
 1907 089c 03F08043 		and	r3, r3, #1073741824
 1908              		.loc 1 696 7
 1909 08a0 B3F1804F 		cmp	r3, #1073741824
 1910 08a4 0AD1     		bne	.L66
 697:./Libraries/STM32F4xx_HAL_Driver/Src/stm32f4xx_hal_pcd.c ****     {
 698:./Libraries/STM32F4xx_HAL_Driver/Src/stm32f4xx_hal_pcd.c ****       HAL_PCD_ConnectCallback(hpcd);
 1911              		.loc 1 698 7
 1912 08a6 7868     		ldr	r0, [r7, #4]
 1913 08a8 FFF7FEFF 		bl	HAL_PCD_ConnectCallback
 699:./Libraries/STM32F4xx_HAL_Driver/Src/stm32f4xx_hal_pcd.c ****       __HAL_PCD_CLEAR_FLAG(hpcd, USB_OTG_GINTSTS_SRQINT);
 1914              		.loc 1 699 7
 1915 08ac 7B68     		ldr	r3, [r7, #4]
 1916 08ae 1B68     		ldr	r3, [r3]
 1917 08b0 5A69     		ldr	r2, [r3, #20]
 1918 08b2 7B68     		ldr	r3, [r7, #4]
 1919 08b4 1B68     		ldr	r3, [r3]
 1920 08b6 02F08042 		and	r2, r2, #1073741824
 1921 08ba 5A61     		str	r2, [r3, #20]
 1922              	.L66:
 700:./Libraries/STM32F4xx_HAL_Driver/Src/stm32f4xx_hal_pcd.c ****     } 
 701:./Libraries/STM32F4xx_HAL_Driver/Src/stm32f4xx_hal_pcd.c ****     
 702:./Libraries/STM32F4xx_HAL_Driver/Src/stm32f4xx_hal_pcd.c ****     /* Handle Disconnection event Interrupt */
 703:./Libraries/STM32F4xx_HAL_Driver/Src/stm32f4xx_hal_pcd.c ****     if(__HAL_PCD_GET_FLAG(hpcd, USB_OTG_GINTSTS_OTGINT))
 1923              		.loc 1 703 8
ARM GAS  /tmp/ccNCvjXU.s 			page 47


 1924 08bc 7B68     		ldr	r3, [r7, #4]
 1925 08be 1B68     		ldr	r3, [r3]
 1926 08c0 1846     		mov	r0, r3
 1927 08c2 FFF7FEFF 		bl	USB_ReadInterrupts
 1928 08c6 0346     		mov	r3, r0
 1929 08c8 03F00403 		and	r3, r3, #4
 1930              		.loc 1 703 7
 1931 08cc 042B     		cmp	r3, #4
 1932 08ce 15D1     		bne	.L19
 704:./Libraries/STM32F4xx_HAL_Driver/Src/stm32f4xx_hal_pcd.c ****     {
 705:./Libraries/STM32F4xx_HAL_Driver/Src/stm32f4xx_hal_pcd.c ****       temp = hpcd->Instance->GOTGINT;
 1933              		.loc 1 705 18
 1934 08d0 7B68     		ldr	r3, [r7, #4]
 1935 08d2 1B68     		ldr	r3, [r3]
 1936              		.loc 1 705 12
 1937 08d4 5B68     		ldr	r3, [r3, #4]
 1938 08d6 7B61     		str	r3, [r7, #20]
 706:./Libraries/STM32F4xx_HAL_Driver/Src/stm32f4xx_hal_pcd.c ****       
 707:./Libraries/STM32F4xx_HAL_Driver/Src/stm32f4xx_hal_pcd.c ****       if((temp & USB_OTG_GOTGINT_SEDET) == USB_OTG_GOTGINT_SEDET)
 1939              		.loc 1 707 16
 1940 08d8 7B69     		ldr	r3, [r7, #20]
 1941 08da 03F00403 		and	r3, r3, #4
 1942              		.loc 1 707 9
 1943 08de 002B     		cmp	r3, #0
 1944 08e0 02D0     		beq	.L67
 708:./Libraries/STM32F4xx_HAL_Driver/Src/stm32f4xx_hal_pcd.c ****       {
 709:./Libraries/STM32F4xx_HAL_Driver/Src/stm32f4xx_hal_pcd.c ****         HAL_PCD_DisconnectCallback(hpcd);
 1945              		.loc 1 709 9
 1946 08e2 7868     		ldr	r0, [r7, #4]
 1947 08e4 FFF7FEFF 		bl	HAL_PCD_DisconnectCallback
 1948              	.L67:
 710:./Libraries/STM32F4xx_HAL_Driver/Src/stm32f4xx_hal_pcd.c ****       }
 711:./Libraries/STM32F4xx_HAL_Driver/Src/stm32f4xx_hal_pcd.c ****       hpcd->Instance->GOTGINT |= temp;
 1949              		.loc 1 711 11
 1950 08e8 7B68     		ldr	r3, [r7, #4]
 1951 08ea 1B68     		ldr	r3, [r3]
 1952              		.loc 1 711 31
 1953 08ec 5968     		ldr	r1, [r3, #4]
 1954              		.loc 1 711 11
 1955 08ee 7B68     		ldr	r3, [r7, #4]
 1956 08f0 1B68     		ldr	r3, [r3]
 1957              		.loc 1 711 31
 1958 08f2 7A69     		ldr	r2, [r7, #20]
 1959 08f4 0A43     		orrs	r2, r2, r1
 1960 08f6 5A60     		str	r2, [r3, #4]
 1961 08f8 00E0     		b	.L19
 1962              	.L68:
 338:./Libraries/STM32F4xx_HAL_Driver/Src/stm32f4xx_hal_pcd.c ****     }
 1963              		.loc 1 338 7
 1964 08fa 00BF     		nop
 1965              	.L19:
 712:./Libraries/STM32F4xx_HAL_Driver/Src/stm32f4xx_hal_pcd.c ****     }
 713:./Libraries/STM32F4xx_HAL_Driver/Src/stm32f4xx_hal_pcd.c ****   }
 714:./Libraries/STM32F4xx_HAL_Driver/Src/stm32f4xx_hal_pcd.c **** }
 1966              		.loc 1 714 1
 1967 08fc 3037     		adds	r7, r7, #48
 1968              	.LCFI35:
ARM GAS  /tmp/ccNCvjXU.s 			page 48


 1969              		.cfi_def_cfa_offset 8
 1970 08fe BD46     		mov	sp, r7
 1971              	.LCFI36:
 1972              		.cfi_def_cfa_register 13
 1973              		@ sp needed
 1974 0900 80BD     		pop	{r7, pc}
 1975              		.cfi_endproc
 1976              	.LFE132:
 1978 0902 00BF     		.section	.text.HAL_PCD_DataOutStageCallback,"ax",%progbits
 1979              		.align	1
 1980              		.weak	HAL_PCD_DataOutStageCallback
 1981              		.syntax unified
 1982              		.thumb
 1983              		.thumb_func
 1984              		.fpu fpv4-sp-d16
 1986              	HAL_PCD_DataOutStageCallback:
 1987              	.LFB133:
 715:./Libraries/STM32F4xx_HAL_Driver/Src/stm32f4xx_hal_pcd.c **** 
 716:./Libraries/STM32F4xx_HAL_Driver/Src/stm32f4xx_hal_pcd.c **** /**
 717:./Libraries/STM32F4xx_HAL_Driver/Src/stm32f4xx_hal_pcd.c ****   * @brief  Data OUT stage callback.
 718:./Libraries/STM32F4xx_HAL_Driver/Src/stm32f4xx_hal_pcd.c ****   * @param  hpcd PCD handle
 719:./Libraries/STM32F4xx_HAL_Driver/Src/stm32f4xx_hal_pcd.c ****   * @param  epnum endpoint number  
 720:./Libraries/STM32F4xx_HAL_Driver/Src/stm32f4xx_hal_pcd.c ****   * @retval None
 721:./Libraries/STM32F4xx_HAL_Driver/Src/stm32f4xx_hal_pcd.c ****   */
 722:./Libraries/STM32F4xx_HAL_Driver/Src/stm32f4xx_hal_pcd.c ****  __weak void HAL_PCD_DataOutStageCallback(PCD_HandleTypeDef *hpcd, uint8_t epnum)
 723:./Libraries/STM32F4xx_HAL_Driver/Src/stm32f4xx_hal_pcd.c **** {
 1988              		.loc 1 723 1
 1989              		.cfi_startproc
 1990              		@ args = 0, pretend = 0, frame = 8
 1991              		@ frame_needed = 1, uses_anonymous_args = 0
 1992              		@ link register save eliminated.
 1993 0000 80B4     		push	{r7}
 1994              	.LCFI37:
 1995              		.cfi_def_cfa_offset 4
 1996              		.cfi_offset 7, -4
 1997 0002 83B0     		sub	sp, sp, #12
 1998              	.LCFI38:
 1999              		.cfi_def_cfa_offset 16
 2000 0004 00AF     		add	r7, sp, #0
 2001              	.LCFI39:
 2002              		.cfi_def_cfa_register 7
 2003 0006 7860     		str	r0, [r7, #4]
 2004 0008 0B46     		mov	r3, r1
 2005 000a FB70     		strb	r3, [r7, #3]
 724:./Libraries/STM32F4xx_HAL_Driver/Src/stm32f4xx_hal_pcd.c ****   /* Prevent unused argument(s) compilation warning */
 725:./Libraries/STM32F4xx_HAL_Driver/Src/stm32f4xx_hal_pcd.c ****   UNUSED(hpcd);
 726:./Libraries/STM32F4xx_HAL_Driver/Src/stm32f4xx_hal_pcd.c ****   UNUSED(epnum);
 727:./Libraries/STM32F4xx_HAL_Driver/Src/stm32f4xx_hal_pcd.c ****   /* NOTE : This function Should not be modified, when the callback is needed,
 728:./Libraries/STM32F4xx_HAL_Driver/Src/stm32f4xx_hal_pcd.c ****             the HAL_PCD_DataOutStageCallback could be implemented in the user file
 729:./Libraries/STM32F4xx_HAL_Driver/Src/stm32f4xx_hal_pcd.c ****    */ 
 730:./Libraries/STM32F4xx_HAL_Driver/Src/stm32f4xx_hal_pcd.c **** }
 2006              		.loc 1 730 1
 2007 000c 00BF     		nop
 2008 000e 0C37     		adds	r7, r7, #12
 2009              	.LCFI40:
 2010              		.cfi_def_cfa_offset 4
 2011 0010 BD46     		mov	sp, r7
ARM GAS  /tmp/ccNCvjXU.s 			page 49


 2012              	.LCFI41:
 2013              		.cfi_def_cfa_register 13
 2014              		@ sp needed
 2015 0012 5DF8047B 		ldr	r7, [sp], #4
 2016              	.LCFI42:
 2017              		.cfi_restore 7
 2018              		.cfi_def_cfa_offset 0
 2019 0016 7047     		bx	lr
 2020              		.cfi_endproc
 2021              	.LFE133:
 2023              		.section	.text.HAL_PCD_DataInStageCallback,"ax",%progbits
 2024              		.align	1
 2025              		.weak	HAL_PCD_DataInStageCallback
 2026              		.syntax unified
 2027              		.thumb
 2028              		.thumb_func
 2029              		.fpu fpv4-sp-d16
 2031              	HAL_PCD_DataInStageCallback:
 2032              	.LFB134:
 731:./Libraries/STM32F4xx_HAL_Driver/Src/stm32f4xx_hal_pcd.c **** 
 732:./Libraries/STM32F4xx_HAL_Driver/Src/stm32f4xx_hal_pcd.c **** /**
 733:./Libraries/STM32F4xx_HAL_Driver/Src/stm32f4xx_hal_pcd.c ****   * @brief  Data IN stage callback.
 734:./Libraries/STM32F4xx_HAL_Driver/Src/stm32f4xx_hal_pcd.c ****   * @param  hpcd PCD handle
 735:./Libraries/STM32F4xx_HAL_Driver/Src/stm32f4xx_hal_pcd.c ****   * @param  epnum endpoint number
 736:./Libraries/STM32F4xx_HAL_Driver/Src/stm32f4xx_hal_pcd.c ****   * @retval None
 737:./Libraries/STM32F4xx_HAL_Driver/Src/stm32f4xx_hal_pcd.c ****   */
 738:./Libraries/STM32F4xx_HAL_Driver/Src/stm32f4xx_hal_pcd.c ****  __weak void HAL_PCD_DataInStageCallback(PCD_HandleTypeDef *hpcd, uint8_t epnum)
 739:./Libraries/STM32F4xx_HAL_Driver/Src/stm32f4xx_hal_pcd.c **** {
 2033              		.loc 1 739 1
 2034              		.cfi_startproc
 2035              		@ args = 0, pretend = 0, frame = 8
 2036              		@ frame_needed = 1, uses_anonymous_args = 0
 2037              		@ link register save eliminated.
 2038 0000 80B4     		push	{r7}
 2039              	.LCFI43:
 2040              		.cfi_def_cfa_offset 4
 2041              		.cfi_offset 7, -4
 2042 0002 83B0     		sub	sp, sp, #12
 2043              	.LCFI44:
 2044              		.cfi_def_cfa_offset 16
 2045 0004 00AF     		add	r7, sp, #0
 2046              	.LCFI45:
 2047              		.cfi_def_cfa_register 7
 2048 0006 7860     		str	r0, [r7, #4]
 2049 0008 0B46     		mov	r3, r1
 2050 000a FB70     		strb	r3, [r7, #3]
 740:./Libraries/STM32F4xx_HAL_Driver/Src/stm32f4xx_hal_pcd.c ****   /* Prevent unused argument(s) compilation warning */
 741:./Libraries/STM32F4xx_HAL_Driver/Src/stm32f4xx_hal_pcd.c ****   UNUSED(hpcd);
 742:./Libraries/STM32F4xx_HAL_Driver/Src/stm32f4xx_hal_pcd.c ****   UNUSED(epnum);
 743:./Libraries/STM32F4xx_HAL_Driver/Src/stm32f4xx_hal_pcd.c ****   /* NOTE : This function Should not be modified, when the callback is needed,
 744:./Libraries/STM32F4xx_HAL_Driver/Src/stm32f4xx_hal_pcd.c ****             the HAL_PCD_DataInStageCallback could be implemented in the user file
 745:./Libraries/STM32F4xx_HAL_Driver/Src/stm32f4xx_hal_pcd.c ****    */ 
 746:./Libraries/STM32F4xx_HAL_Driver/Src/stm32f4xx_hal_pcd.c **** }
 2051              		.loc 1 746 1
 2052 000c 00BF     		nop
 2053 000e 0C37     		adds	r7, r7, #12
 2054              	.LCFI46:
ARM GAS  /tmp/ccNCvjXU.s 			page 50


 2055              		.cfi_def_cfa_offset 4
 2056 0010 BD46     		mov	sp, r7
 2057              	.LCFI47:
 2058              		.cfi_def_cfa_register 13
 2059              		@ sp needed
 2060 0012 5DF8047B 		ldr	r7, [sp], #4
 2061              	.LCFI48:
 2062              		.cfi_restore 7
 2063              		.cfi_def_cfa_offset 0
 2064 0016 7047     		bx	lr
 2065              		.cfi_endproc
 2066              	.LFE134:
 2068              		.section	.text.HAL_PCD_SetupStageCallback,"ax",%progbits
 2069              		.align	1
 2070              		.weak	HAL_PCD_SetupStageCallback
 2071              		.syntax unified
 2072              		.thumb
 2073              		.thumb_func
 2074              		.fpu fpv4-sp-d16
 2076              	HAL_PCD_SetupStageCallback:
 2077              	.LFB135:
 747:./Libraries/STM32F4xx_HAL_Driver/Src/stm32f4xx_hal_pcd.c **** /**
 748:./Libraries/STM32F4xx_HAL_Driver/Src/stm32f4xx_hal_pcd.c ****   * @brief  Setup stage callback.
 749:./Libraries/STM32F4xx_HAL_Driver/Src/stm32f4xx_hal_pcd.c ****   * @param  hpcd PCD handle
 750:./Libraries/STM32F4xx_HAL_Driver/Src/stm32f4xx_hal_pcd.c ****   * @retval None
 751:./Libraries/STM32F4xx_HAL_Driver/Src/stm32f4xx_hal_pcd.c ****   */
 752:./Libraries/STM32F4xx_HAL_Driver/Src/stm32f4xx_hal_pcd.c ****  __weak void HAL_PCD_SetupStageCallback(PCD_HandleTypeDef *hpcd)
 753:./Libraries/STM32F4xx_HAL_Driver/Src/stm32f4xx_hal_pcd.c **** {
 2078              		.loc 1 753 1
 2079              		.cfi_startproc
 2080              		@ args = 0, pretend = 0, frame = 8
 2081              		@ frame_needed = 1, uses_anonymous_args = 0
 2082              		@ link register save eliminated.
 2083 0000 80B4     		push	{r7}
 2084              	.LCFI49:
 2085              		.cfi_def_cfa_offset 4
 2086              		.cfi_offset 7, -4
 2087 0002 83B0     		sub	sp, sp, #12
 2088              	.LCFI50:
 2089              		.cfi_def_cfa_offset 16
 2090 0004 00AF     		add	r7, sp, #0
 2091              	.LCFI51:
 2092              		.cfi_def_cfa_register 7
 2093 0006 7860     		str	r0, [r7, #4]
 754:./Libraries/STM32F4xx_HAL_Driver/Src/stm32f4xx_hal_pcd.c ****   /* Prevent unused argument(s) compilation warning */
 755:./Libraries/STM32F4xx_HAL_Driver/Src/stm32f4xx_hal_pcd.c ****   UNUSED(hpcd);
 756:./Libraries/STM32F4xx_HAL_Driver/Src/stm32f4xx_hal_pcd.c ****   /* NOTE : This function Should not be modified, when the callback is needed,
 757:./Libraries/STM32F4xx_HAL_Driver/Src/stm32f4xx_hal_pcd.c ****             the HAL_PCD_SetupStageCallback could be implemented in the user file
 758:./Libraries/STM32F4xx_HAL_Driver/Src/stm32f4xx_hal_pcd.c ****    */ 
 759:./Libraries/STM32F4xx_HAL_Driver/Src/stm32f4xx_hal_pcd.c **** }
 2094              		.loc 1 759 1
 2095 0008 00BF     		nop
 2096 000a 0C37     		adds	r7, r7, #12
 2097              	.LCFI52:
 2098              		.cfi_def_cfa_offset 4
 2099 000c BD46     		mov	sp, r7
 2100              	.LCFI53:
ARM GAS  /tmp/ccNCvjXU.s 			page 51


 2101              		.cfi_def_cfa_register 13
 2102              		@ sp needed
 2103 000e 5DF8047B 		ldr	r7, [sp], #4
 2104              	.LCFI54:
 2105              		.cfi_restore 7
 2106              		.cfi_def_cfa_offset 0
 2107 0012 7047     		bx	lr
 2108              		.cfi_endproc
 2109              	.LFE135:
 2111              		.section	.text.HAL_PCD_SOFCallback,"ax",%progbits
 2112              		.align	1
 2113              		.weak	HAL_PCD_SOFCallback
 2114              		.syntax unified
 2115              		.thumb
 2116              		.thumb_func
 2117              		.fpu fpv4-sp-d16
 2119              	HAL_PCD_SOFCallback:
 2120              	.LFB136:
 760:./Libraries/STM32F4xx_HAL_Driver/Src/stm32f4xx_hal_pcd.c **** 
 761:./Libraries/STM32F4xx_HAL_Driver/Src/stm32f4xx_hal_pcd.c **** /**
 762:./Libraries/STM32F4xx_HAL_Driver/Src/stm32f4xx_hal_pcd.c ****   * @brief  USB Start Of Frame callback.
 763:./Libraries/STM32F4xx_HAL_Driver/Src/stm32f4xx_hal_pcd.c ****   * @param  hpcd PCD handle
 764:./Libraries/STM32F4xx_HAL_Driver/Src/stm32f4xx_hal_pcd.c ****   * @retval None
 765:./Libraries/STM32F4xx_HAL_Driver/Src/stm32f4xx_hal_pcd.c ****   */
 766:./Libraries/STM32F4xx_HAL_Driver/Src/stm32f4xx_hal_pcd.c ****  __weak void HAL_PCD_SOFCallback(PCD_HandleTypeDef *hpcd)
 767:./Libraries/STM32F4xx_HAL_Driver/Src/stm32f4xx_hal_pcd.c **** {
 2121              		.loc 1 767 1
 2122              		.cfi_startproc
 2123              		@ args = 0, pretend = 0, frame = 8
 2124              		@ frame_needed = 1, uses_anonymous_args = 0
 2125              		@ link register save eliminated.
 2126 0000 80B4     		push	{r7}
 2127              	.LCFI55:
 2128              		.cfi_def_cfa_offset 4
 2129              		.cfi_offset 7, -4
 2130 0002 83B0     		sub	sp, sp, #12
 2131              	.LCFI56:
 2132              		.cfi_def_cfa_offset 16
 2133 0004 00AF     		add	r7, sp, #0
 2134              	.LCFI57:
 2135              		.cfi_def_cfa_register 7
 2136 0006 7860     		str	r0, [r7, #4]
 768:./Libraries/STM32F4xx_HAL_Driver/Src/stm32f4xx_hal_pcd.c ****   /* Prevent unused argument(s) compilation warning */
 769:./Libraries/STM32F4xx_HAL_Driver/Src/stm32f4xx_hal_pcd.c ****   UNUSED(hpcd);
 770:./Libraries/STM32F4xx_HAL_Driver/Src/stm32f4xx_hal_pcd.c ****   /* NOTE : This function Should not be modified, when the callback is needed,
 771:./Libraries/STM32F4xx_HAL_Driver/Src/stm32f4xx_hal_pcd.c ****             the HAL_PCD_SOFCallback could be implemented in the user file
 772:./Libraries/STM32F4xx_HAL_Driver/Src/stm32f4xx_hal_pcd.c ****    */ 
 773:./Libraries/STM32F4xx_HAL_Driver/Src/stm32f4xx_hal_pcd.c **** }
 2137              		.loc 1 773 1
 2138 0008 00BF     		nop
 2139 000a 0C37     		adds	r7, r7, #12
 2140              	.LCFI58:
 2141              		.cfi_def_cfa_offset 4
 2142 000c BD46     		mov	sp, r7
 2143              	.LCFI59:
 2144              		.cfi_def_cfa_register 13
 2145              		@ sp needed
ARM GAS  /tmp/ccNCvjXU.s 			page 52


 2146 000e 5DF8047B 		ldr	r7, [sp], #4
 2147              	.LCFI60:
 2148              		.cfi_restore 7
 2149              		.cfi_def_cfa_offset 0
 2150 0012 7047     		bx	lr
 2151              		.cfi_endproc
 2152              	.LFE136:
 2154              		.section	.text.HAL_PCD_ResetCallback,"ax",%progbits
 2155              		.align	1
 2156              		.weak	HAL_PCD_ResetCallback
 2157              		.syntax unified
 2158              		.thumb
 2159              		.thumb_func
 2160              		.fpu fpv4-sp-d16
 2162              	HAL_PCD_ResetCallback:
 2163              	.LFB137:
 774:./Libraries/STM32F4xx_HAL_Driver/Src/stm32f4xx_hal_pcd.c **** 
 775:./Libraries/STM32F4xx_HAL_Driver/Src/stm32f4xx_hal_pcd.c **** /**
 776:./Libraries/STM32F4xx_HAL_Driver/Src/stm32f4xx_hal_pcd.c ****   * @brief  USB Reset callback.
 777:./Libraries/STM32F4xx_HAL_Driver/Src/stm32f4xx_hal_pcd.c ****   * @param  hpcd PCD handle
 778:./Libraries/STM32F4xx_HAL_Driver/Src/stm32f4xx_hal_pcd.c ****   * @retval None
 779:./Libraries/STM32F4xx_HAL_Driver/Src/stm32f4xx_hal_pcd.c ****   */
 780:./Libraries/STM32F4xx_HAL_Driver/Src/stm32f4xx_hal_pcd.c ****  __weak void HAL_PCD_ResetCallback(PCD_HandleTypeDef *hpcd)
 781:./Libraries/STM32F4xx_HAL_Driver/Src/stm32f4xx_hal_pcd.c **** {
 2164              		.loc 1 781 1
 2165              		.cfi_startproc
 2166              		@ args = 0, pretend = 0, frame = 8
 2167              		@ frame_needed = 1, uses_anonymous_args = 0
 2168              		@ link register save eliminated.
 2169 0000 80B4     		push	{r7}
 2170              	.LCFI61:
 2171              		.cfi_def_cfa_offset 4
 2172              		.cfi_offset 7, -4
 2173 0002 83B0     		sub	sp, sp, #12
 2174              	.LCFI62:
 2175              		.cfi_def_cfa_offset 16
 2176 0004 00AF     		add	r7, sp, #0
 2177              	.LCFI63:
 2178              		.cfi_def_cfa_register 7
 2179 0006 7860     		str	r0, [r7, #4]
 782:./Libraries/STM32F4xx_HAL_Driver/Src/stm32f4xx_hal_pcd.c ****   /* Prevent unused argument(s) compilation warning */
 783:./Libraries/STM32F4xx_HAL_Driver/Src/stm32f4xx_hal_pcd.c ****   UNUSED(hpcd);
 784:./Libraries/STM32F4xx_HAL_Driver/Src/stm32f4xx_hal_pcd.c ****   /* NOTE : This function Should not be modified, when the callback is needed,
 785:./Libraries/STM32F4xx_HAL_Driver/Src/stm32f4xx_hal_pcd.c ****             the HAL_PCD_ResetCallback could be implemented in the user file
 786:./Libraries/STM32F4xx_HAL_Driver/Src/stm32f4xx_hal_pcd.c ****    */ 
 787:./Libraries/STM32F4xx_HAL_Driver/Src/stm32f4xx_hal_pcd.c **** }
 2180              		.loc 1 787 1
 2181 0008 00BF     		nop
 2182 000a 0C37     		adds	r7, r7, #12
 2183              	.LCFI64:
 2184              		.cfi_def_cfa_offset 4
 2185 000c BD46     		mov	sp, r7
 2186              	.LCFI65:
 2187              		.cfi_def_cfa_register 13
 2188              		@ sp needed
 2189 000e 5DF8047B 		ldr	r7, [sp], #4
 2190              	.LCFI66:
ARM GAS  /tmp/ccNCvjXU.s 			page 53


 2191              		.cfi_restore 7
 2192              		.cfi_def_cfa_offset 0
 2193 0012 7047     		bx	lr
 2194              		.cfi_endproc
 2195              	.LFE137:
 2197              		.section	.text.HAL_PCD_SuspendCallback,"ax",%progbits
 2198              		.align	1
 2199              		.weak	HAL_PCD_SuspendCallback
 2200              		.syntax unified
 2201              		.thumb
 2202              		.thumb_func
 2203              		.fpu fpv4-sp-d16
 2205              	HAL_PCD_SuspendCallback:
 2206              	.LFB138:
 788:./Libraries/STM32F4xx_HAL_Driver/Src/stm32f4xx_hal_pcd.c **** 
 789:./Libraries/STM32F4xx_HAL_Driver/Src/stm32f4xx_hal_pcd.c **** /**
 790:./Libraries/STM32F4xx_HAL_Driver/Src/stm32f4xx_hal_pcd.c ****   * @brief  Suspend event callback.
 791:./Libraries/STM32F4xx_HAL_Driver/Src/stm32f4xx_hal_pcd.c ****   * @param  hpcd PCD handle
 792:./Libraries/STM32F4xx_HAL_Driver/Src/stm32f4xx_hal_pcd.c ****   * @retval None
 793:./Libraries/STM32F4xx_HAL_Driver/Src/stm32f4xx_hal_pcd.c ****   */
 794:./Libraries/STM32F4xx_HAL_Driver/Src/stm32f4xx_hal_pcd.c ****  __weak void HAL_PCD_SuspendCallback(PCD_HandleTypeDef *hpcd)
 795:./Libraries/STM32F4xx_HAL_Driver/Src/stm32f4xx_hal_pcd.c **** {
 2207              		.loc 1 795 1
 2208              		.cfi_startproc
 2209              		@ args = 0, pretend = 0, frame = 8
 2210              		@ frame_needed = 1, uses_anonymous_args = 0
 2211              		@ link register save eliminated.
 2212 0000 80B4     		push	{r7}
 2213              	.LCFI67:
 2214              		.cfi_def_cfa_offset 4
 2215              		.cfi_offset 7, -4
 2216 0002 83B0     		sub	sp, sp, #12
 2217              	.LCFI68:
 2218              		.cfi_def_cfa_offset 16
 2219 0004 00AF     		add	r7, sp, #0
 2220              	.LCFI69:
 2221              		.cfi_def_cfa_register 7
 2222 0006 7860     		str	r0, [r7, #4]
 796:./Libraries/STM32F4xx_HAL_Driver/Src/stm32f4xx_hal_pcd.c ****   /* Prevent unused argument(s) compilation warning */
 797:./Libraries/STM32F4xx_HAL_Driver/Src/stm32f4xx_hal_pcd.c ****   UNUSED(hpcd);
 798:./Libraries/STM32F4xx_HAL_Driver/Src/stm32f4xx_hal_pcd.c ****   /* NOTE : This function Should not be modified, when the callback is needed,
 799:./Libraries/STM32F4xx_HAL_Driver/Src/stm32f4xx_hal_pcd.c ****             the HAL_PCD_SuspendCallback could be implemented in the user file
 800:./Libraries/STM32F4xx_HAL_Driver/Src/stm32f4xx_hal_pcd.c ****    */ 
 801:./Libraries/STM32F4xx_HAL_Driver/Src/stm32f4xx_hal_pcd.c **** }
 2223              		.loc 1 801 1
 2224 0008 00BF     		nop
 2225 000a 0C37     		adds	r7, r7, #12
 2226              	.LCFI70:
 2227              		.cfi_def_cfa_offset 4
 2228 000c BD46     		mov	sp, r7
 2229              	.LCFI71:
 2230              		.cfi_def_cfa_register 13
 2231              		@ sp needed
 2232 000e 5DF8047B 		ldr	r7, [sp], #4
 2233              	.LCFI72:
 2234              		.cfi_restore 7
 2235              		.cfi_def_cfa_offset 0
ARM GAS  /tmp/ccNCvjXU.s 			page 54


 2236 0012 7047     		bx	lr
 2237              		.cfi_endproc
 2238              	.LFE138:
 2240              		.section	.text.HAL_PCD_ResumeCallback,"ax",%progbits
 2241              		.align	1
 2242              		.weak	HAL_PCD_ResumeCallback
 2243              		.syntax unified
 2244              		.thumb
 2245              		.thumb_func
 2246              		.fpu fpv4-sp-d16
 2248              	HAL_PCD_ResumeCallback:
 2249              	.LFB139:
 802:./Libraries/STM32F4xx_HAL_Driver/Src/stm32f4xx_hal_pcd.c **** 
 803:./Libraries/STM32F4xx_HAL_Driver/Src/stm32f4xx_hal_pcd.c **** /**
 804:./Libraries/STM32F4xx_HAL_Driver/Src/stm32f4xx_hal_pcd.c ****   * @brief  Resume event callback.
 805:./Libraries/STM32F4xx_HAL_Driver/Src/stm32f4xx_hal_pcd.c ****   * @param  hpcd PCD handle
 806:./Libraries/STM32F4xx_HAL_Driver/Src/stm32f4xx_hal_pcd.c ****   * @retval None
 807:./Libraries/STM32F4xx_HAL_Driver/Src/stm32f4xx_hal_pcd.c ****   */
 808:./Libraries/STM32F4xx_HAL_Driver/Src/stm32f4xx_hal_pcd.c ****  __weak void HAL_PCD_ResumeCallback(PCD_HandleTypeDef *hpcd)
 809:./Libraries/STM32F4xx_HAL_Driver/Src/stm32f4xx_hal_pcd.c **** {
 2250              		.loc 1 809 1
 2251              		.cfi_startproc
 2252              		@ args = 0, pretend = 0, frame = 8
 2253              		@ frame_needed = 1, uses_anonymous_args = 0
 2254              		@ link register save eliminated.
 2255 0000 80B4     		push	{r7}
 2256              	.LCFI73:
 2257              		.cfi_def_cfa_offset 4
 2258              		.cfi_offset 7, -4
 2259 0002 83B0     		sub	sp, sp, #12
 2260              	.LCFI74:
 2261              		.cfi_def_cfa_offset 16
 2262 0004 00AF     		add	r7, sp, #0
 2263              	.LCFI75:
 2264              		.cfi_def_cfa_register 7
 2265 0006 7860     		str	r0, [r7, #4]
 810:./Libraries/STM32F4xx_HAL_Driver/Src/stm32f4xx_hal_pcd.c ****   /* Prevent unused argument(s) compilation warning */
 811:./Libraries/STM32F4xx_HAL_Driver/Src/stm32f4xx_hal_pcd.c ****   UNUSED(hpcd);
 812:./Libraries/STM32F4xx_HAL_Driver/Src/stm32f4xx_hal_pcd.c ****   /* NOTE : This function Should not be modified, when the callback is needed,
 813:./Libraries/STM32F4xx_HAL_Driver/Src/stm32f4xx_hal_pcd.c ****             the HAL_PCD_ResumeCallback could be implemented in the user file
 814:./Libraries/STM32F4xx_HAL_Driver/Src/stm32f4xx_hal_pcd.c ****    */ 
 815:./Libraries/STM32F4xx_HAL_Driver/Src/stm32f4xx_hal_pcd.c **** }
 2266              		.loc 1 815 1
 2267 0008 00BF     		nop
 2268 000a 0C37     		adds	r7, r7, #12
 2269              	.LCFI76:
 2270              		.cfi_def_cfa_offset 4
 2271 000c BD46     		mov	sp, r7
 2272              	.LCFI77:
 2273              		.cfi_def_cfa_register 13
 2274              		@ sp needed
 2275 000e 5DF8047B 		ldr	r7, [sp], #4
 2276              	.LCFI78:
 2277              		.cfi_restore 7
 2278              		.cfi_def_cfa_offset 0
 2279 0012 7047     		bx	lr
 2280              		.cfi_endproc
ARM GAS  /tmp/ccNCvjXU.s 			page 55


 2281              	.LFE139:
 2283              		.section	.text.HAL_PCD_ISOOUTIncompleteCallback,"ax",%progbits
 2284              		.align	1
 2285              		.weak	HAL_PCD_ISOOUTIncompleteCallback
 2286              		.syntax unified
 2287              		.thumb
 2288              		.thumb_func
 2289              		.fpu fpv4-sp-d16
 2291              	HAL_PCD_ISOOUTIncompleteCallback:
 2292              	.LFB140:
 816:./Libraries/STM32F4xx_HAL_Driver/Src/stm32f4xx_hal_pcd.c **** 
 817:./Libraries/STM32F4xx_HAL_Driver/Src/stm32f4xx_hal_pcd.c **** /**
 818:./Libraries/STM32F4xx_HAL_Driver/Src/stm32f4xx_hal_pcd.c ****   * @brief  Incomplete ISO OUT callback.
 819:./Libraries/STM32F4xx_HAL_Driver/Src/stm32f4xx_hal_pcd.c ****   * @param  hpcd PCD handle
 820:./Libraries/STM32F4xx_HAL_Driver/Src/stm32f4xx_hal_pcd.c ****   * @param  epnum endpoint number
 821:./Libraries/STM32F4xx_HAL_Driver/Src/stm32f4xx_hal_pcd.c ****   * @retval None
 822:./Libraries/STM32F4xx_HAL_Driver/Src/stm32f4xx_hal_pcd.c ****   */
 823:./Libraries/STM32F4xx_HAL_Driver/Src/stm32f4xx_hal_pcd.c ****  __weak void HAL_PCD_ISOOUTIncompleteCallback(PCD_HandleTypeDef *hpcd, uint8_t epnum)
 824:./Libraries/STM32F4xx_HAL_Driver/Src/stm32f4xx_hal_pcd.c **** {
 2293              		.loc 1 824 1
 2294              		.cfi_startproc
 2295              		@ args = 0, pretend = 0, frame = 8
 2296              		@ frame_needed = 1, uses_anonymous_args = 0
 2297              		@ link register save eliminated.
 2298 0000 80B4     		push	{r7}
 2299              	.LCFI79:
 2300              		.cfi_def_cfa_offset 4
 2301              		.cfi_offset 7, -4
 2302 0002 83B0     		sub	sp, sp, #12
 2303              	.LCFI80:
 2304              		.cfi_def_cfa_offset 16
 2305 0004 00AF     		add	r7, sp, #0
 2306              	.LCFI81:
 2307              		.cfi_def_cfa_register 7
 2308 0006 7860     		str	r0, [r7, #4]
 2309 0008 0B46     		mov	r3, r1
 2310 000a FB70     		strb	r3, [r7, #3]
 825:./Libraries/STM32F4xx_HAL_Driver/Src/stm32f4xx_hal_pcd.c ****   /* Prevent unused argument(s) compilation warning */
 826:./Libraries/STM32F4xx_HAL_Driver/Src/stm32f4xx_hal_pcd.c ****   UNUSED(hpcd);
 827:./Libraries/STM32F4xx_HAL_Driver/Src/stm32f4xx_hal_pcd.c ****   UNUSED(epnum);
 828:./Libraries/STM32F4xx_HAL_Driver/Src/stm32f4xx_hal_pcd.c ****   /* NOTE : This function Should not be modified, when the callback is needed,
 829:./Libraries/STM32F4xx_HAL_Driver/Src/stm32f4xx_hal_pcd.c ****             the HAL_PCD_ISOOUTIncompleteCallback could be implemented in the user file
 830:./Libraries/STM32F4xx_HAL_Driver/Src/stm32f4xx_hal_pcd.c ****    */ 
 831:./Libraries/STM32F4xx_HAL_Driver/Src/stm32f4xx_hal_pcd.c **** }
 2311              		.loc 1 831 1
 2312 000c 00BF     		nop
 2313 000e 0C37     		adds	r7, r7, #12
 2314              	.LCFI82:
 2315              		.cfi_def_cfa_offset 4
 2316 0010 BD46     		mov	sp, r7
 2317              	.LCFI83:
 2318              		.cfi_def_cfa_register 13
 2319              		@ sp needed
 2320 0012 5DF8047B 		ldr	r7, [sp], #4
 2321              	.LCFI84:
 2322              		.cfi_restore 7
 2323              		.cfi_def_cfa_offset 0
ARM GAS  /tmp/ccNCvjXU.s 			page 56


 2324 0016 7047     		bx	lr
 2325              		.cfi_endproc
 2326              	.LFE140:
 2328              		.section	.text.HAL_PCD_ISOINIncompleteCallback,"ax",%progbits
 2329              		.align	1
 2330              		.weak	HAL_PCD_ISOINIncompleteCallback
 2331              		.syntax unified
 2332              		.thumb
 2333              		.thumb_func
 2334              		.fpu fpv4-sp-d16
 2336              	HAL_PCD_ISOINIncompleteCallback:
 2337              	.LFB141:
 832:./Libraries/STM32F4xx_HAL_Driver/Src/stm32f4xx_hal_pcd.c **** 
 833:./Libraries/STM32F4xx_HAL_Driver/Src/stm32f4xx_hal_pcd.c **** /**
 834:./Libraries/STM32F4xx_HAL_Driver/Src/stm32f4xx_hal_pcd.c ****   * @brief  Incomplete ISO IN callback.
 835:./Libraries/STM32F4xx_HAL_Driver/Src/stm32f4xx_hal_pcd.c ****   * @param  hpcd PCD handle
 836:./Libraries/STM32F4xx_HAL_Driver/Src/stm32f4xx_hal_pcd.c ****   * @param  epnum endpoint number  
 837:./Libraries/STM32F4xx_HAL_Driver/Src/stm32f4xx_hal_pcd.c ****   * @retval None
 838:./Libraries/STM32F4xx_HAL_Driver/Src/stm32f4xx_hal_pcd.c ****   */
 839:./Libraries/STM32F4xx_HAL_Driver/Src/stm32f4xx_hal_pcd.c ****  __weak void HAL_PCD_ISOINIncompleteCallback(PCD_HandleTypeDef *hpcd, uint8_t epnum)
 840:./Libraries/STM32F4xx_HAL_Driver/Src/stm32f4xx_hal_pcd.c **** {
 2338              		.loc 1 840 1
 2339              		.cfi_startproc
 2340              		@ args = 0, pretend = 0, frame = 8
 2341              		@ frame_needed = 1, uses_anonymous_args = 0
 2342              		@ link register save eliminated.
 2343 0000 80B4     		push	{r7}
 2344              	.LCFI85:
 2345              		.cfi_def_cfa_offset 4
 2346              		.cfi_offset 7, -4
 2347 0002 83B0     		sub	sp, sp, #12
 2348              	.LCFI86:
 2349              		.cfi_def_cfa_offset 16
 2350 0004 00AF     		add	r7, sp, #0
 2351              	.LCFI87:
 2352              		.cfi_def_cfa_register 7
 2353 0006 7860     		str	r0, [r7, #4]
 2354 0008 0B46     		mov	r3, r1
 2355 000a FB70     		strb	r3, [r7, #3]
 841:./Libraries/STM32F4xx_HAL_Driver/Src/stm32f4xx_hal_pcd.c ****   /* Prevent unused argument(s) compilation warning */
 842:./Libraries/STM32F4xx_HAL_Driver/Src/stm32f4xx_hal_pcd.c ****   UNUSED(hpcd);
 843:./Libraries/STM32F4xx_HAL_Driver/Src/stm32f4xx_hal_pcd.c ****   UNUSED(epnum);
 844:./Libraries/STM32F4xx_HAL_Driver/Src/stm32f4xx_hal_pcd.c ****   /* NOTE : This function Should not be modified, when the callback is needed,
 845:./Libraries/STM32F4xx_HAL_Driver/Src/stm32f4xx_hal_pcd.c ****             the HAL_PCD_ISOINIncompleteCallback could be implemented in the user file
 846:./Libraries/STM32F4xx_HAL_Driver/Src/stm32f4xx_hal_pcd.c ****    */ 
 847:./Libraries/STM32F4xx_HAL_Driver/Src/stm32f4xx_hal_pcd.c **** }
 2356              		.loc 1 847 1
 2357 000c 00BF     		nop
 2358 000e 0C37     		adds	r7, r7, #12
 2359              	.LCFI88:
 2360              		.cfi_def_cfa_offset 4
 2361 0010 BD46     		mov	sp, r7
 2362              	.LCFI89:
 2363              		.cfi_def_cfa_register 13
 2364              		@ sp needed
 2365 0012 5DF8047B 		ldr	r7, [sp], #4
 2366              	.LCFI90:
ARM GAS  /tmp/ccNCvjXU.s 			page 57


 2367              		.cfi_restore 7
 2368              		.cfi_def_cfa_offset 0
 2369 0016 7047     		bx	lr
 2370              		.cfi_endproc
 2371              	.LFE141:
 2373              		.section	.text.HAL_PCD_ConnectCallback,"ax",%progbits
 2374              		.align	1
 2375              		.weak	HAL_PCD_ConnectCallback
 2376              		.syntax unified
 2377              		.thumb
 2378              		.thumb_func
 2379              		.fpu fpv4-sp-d16
 2381              	HAL_PCD_ConnectCallback:
 2382              	.LFB142:
 848:./Libraries/STM32F4xx_HAL_Driver/Src/stm32f4xx_hal_pcd.c **** 
 849:./Libraries/STM32F4xx_HAL_Driver/Src/stm32f4xx_hal_pcd.c **** /**
 850:./Libraries/STM32F4xx_HAL_Driver/Src/stm32f4xx_hal_pcd.c ****   * @brief  Connection event callback.
 851:./Libraries/STM32F4xx_HAL_Driver/Src/stm32f4xx_hal_pcd.c ****   * @param  hpcd PCD handle
 852:./Libraries/STM32F4xx_HAL_Driver/Src/stm32f4xx_hal_pcd.c ****   * @retval None
 853:./Libraries/STM32F4xx_HAL_Driver/Src/stm32f4xx_hal_pcd.c ****   */
 854:./Libraries/STM32F4xx_HAL_Driver/Src/stm32f4xx_hal_pcd.c ****  __weak void HAL_PCD_ConnectCallback(PCD_HandleTypeDef *hpcd)
 855:./Libraries/STM32F4xx_HAL_Driver/Src/stm32f4xx_hal_pcd.c **** {
 2383              		.loc 1 855 1
 2384              		.cfi_startproc
 2385              		@ args = 0, pretend = 0, frame = 8
 2386              		@ frame_needed = 1, uses_anonymous_args = 0
 2387              		@ link register save eliminated.
 2388 0000 80B4     		push	{r7}
 2389              	.LCFI91:
 2390              		.cfi_def_cfa_offset 4
 2391              		.cfi_offset 7, -4
 2392 0002 83B0     		sub	sp, sp, #12
 2393              	.LCFI92:
 2394              		.cfi_def_cfa_offset 16
 2395 0004 00AF     		add	r7, sp, #0
 2396              	.LCFI93:
 2397              		.cfi_def_cfa_register 7
 2398 0006 7860     		str	r0, [r7, #4]
 856:./Libraries/STM32F4xx_HAL_Driver/Src/stm32f4xx_hal_pcd.c ****   /* Prevent unused argument(s) compilation warning */
 857:./Libraries/STM32F4xx_HAL_Driver/Src/stm32f4xx_hal_pcd.c ****   UNUSED(hpcd);
 858:./Libraries/STM32F4xx_HAL_Driver/Src/stm32f4xx_hal_pcd.c ****   /* NOTE : This function Should not be modified, when the callback is needed,
 859:./Libraries/STM32F4xx_HAL_Driver/Src/stm32f4xx_hal_pcd.c ****             the HAL_PCD_ConnectCallback could be implemented in the user file
 860:./Libraries/STM32F4xx_HAL_Driver/Src/stm32f4xx_hal_pcd.c ****    */ 
 861:./Libraries/STM32F4xx_HAL_Driver/Src/stm32f4xx_hal_pcd.c **** }
 2399              		.loc 1 861 1
 2400 0008 00BF     		nop
 2401 000a 0C37     		adds	r7, r7, #12
 2402              	.LCFI94:
 2403              		.cfi_def_cfa_offset 4
 2404 000c BD46     		mov	sp, r7
 2405              	.LCFI95:
 2406              		.cfi_def_cfa_register 13
 2407              		@ sp needed
 2408 000e 5DF8047B 		ldr	r7, [sp], #4
 2409              	.LCFI96:
 2410              		.cfi_restore 7
 2411              		.cfi_def_cfa_offset 0
ARM GAS  /tmp/ccNCvjXU.s 			page 58


 2412 0012 7047     		bx	lr
 2413              		.cfi_endproc
 2414              	.LFE142:
 2416              		.section	.text.HAL_PCD_DisconnectCallback,"ax",%progbits
 2417              		.align	1
 2418              		.weak	HAL_PCD_DisconnectCallback
 2419              		.syntax unified
 2420              		.thumb
 2421              		.thumb_func
 2422              		.fpu fpv4-sp-d16
 2424              	HAL_PCD_DisconnectCallback:
 2425              	.LFB143:
 862:./Libraries/STM32F4xx_HAL_Driver/Src/stm32f4xx_hal_pcd.c **** 
 863:./Libraries/STM32F4xx_HAL_Driver/Src/stm32f4xx_hal_pcd.c **** /**
 864:./Libraries/STM32F4xx_HAL_Driver/Src/stm32f4xx_hal_pcd.c ****   * @brief  Disconnection event callback.
 865:./Libraries/STM32F4xx_HAL_Driver/Src/stm32f4xx_hal_pcd.c ****   * @param  hpcd PCD handle
 866:./Libraries/STM32F4xx_HAL_Driver/Src/stm32f4xx_hal_pcd.c ****   * @retval None
 867:./Libraries/STM32F4xx_HAL_Driver/Src/stm32f4xx_hal_pcd.c ****   */
 868:./Libraries/STM32F4xx_HAL_Driver/Src/stm32f4xx_hal_pcd.c ****  __weak void HAL_PCD_DisconnectCallback(PCD_HandleTypeDef *hpcd)
 869:./Libraries/STM32F4xx_HAL_Driver/Src/stm32f4xx_hal_pcd.c **** {
 2426              		.loc 1 869 1
 2427              		.cfi_startproc
 2428              		@ args = 0, pretend = 0, frame = 8
 2429              		@ frame_needed = 1, uses_anonymous_args = 0
 2430              		@ link register save eliminated.
 2431 0000 80B4     		push	{r7}
 2432              	.LCFI97:
 2433              		.cfi_def_cfa_offset 4
 2434              		.cfi_offset 7, -4
 2435 0002 83B0     		sub	sp, sp, #12
 2436              	.LCFI98:
 2437              		.cfi_def_cfa_offset 16
 2438 0004 00AF     		add	r7, sp, #0
 2439              	.LCFI99:
 2440              		.cfi_def_cfa_register 7
 2441 0006 7860     		str	r0, [r7, #4]
 870:./Libraries/STM32F4xx_HAL_Driver/Src/stm32f4xx_hal_pcd.c ****   /* Prevent unused argument(s) compilation warning */
 871:./Libraries/STM32F4xx_HAL_Driver/Src/stm32f4xx_hal_pcd.c ****   UNUSED(hpcd);
 872:./Libraries/STM32F4xx_HAL_Driver/Src/stm32f4xx_hal_pcd.c ****   /* NOTE : This function Should not be modified, when the callback is needed,
 873:./Libraries/STM32F4xx_HAL_Driver/Src/stm32f4xx_hal_pcd.c ****             the HAL_PCD_DisconnectCallback could be implemented in the user file
 874:./Libraries/STM32F4xx_HAL_Driver/Src/stm32f4xx_hal_pcd.c ****    */ 
 875:./Libraries/STM32F4xx_HAL_Driver/Src/stm32f4xx_hal_pcd.c **** }
 2442              		.loc 1 875 1
 2443 0008 00BF     		nop
 2444 000a 0C37     		adds	r7, r7, #12
 2445              	.LCFI100:
 2446              		.cfi_def_cfa_offset 4
 2447 000c BD46     		mov	sp, r7
 2448              	.LCFI101:
 2449              		.cfi_def_cfa_register 13
 2450              		@ sp needed
 2451 000e 5DF8047B 		ldr	r7, [sp], #4
 2452              	.LCFI102:
 2453              		.cfi_restore 7
 2454              		.cfi_def_cfa_offset 0
 2455 0012 7047     		bx	lr
 2456              		.cfi_endproc
ARM GAS  /tmp/ccNCvjXU.s 			page 59


 2457              	.LFE143:
 2459              		.section	.text.HAL_PCD_DevConnect,"ax",%progbits
 2460              		.align	1
 2461              		.global	HAL_PCD_DevConnect
 2462              		.syntax unified
 2463              		.thumb
 2464              		.thumb_func
 2465              		.fpu fpv4-sp-d16
 2467              	HAL_PCD_DevConnect:
 2468              	.LFB144:
 876:./Libraries/STM32F4xx_HAL_Driver/Src/stm32f4xx_hal_pcd.c **** 
 877:./Libraries/STM32F4xx_HAL_Driver/Src/stm32f4xx_hal_pcd.c **** /**
 878:./Libraries/STM32F4xx_HAL_Driver/Src/stm32f4xx_hal_pcd.c ****   * @}
 879:./Libraries/STM32F4xx_HAL_Driver/Src/stm32f4xx_hal_pcd.c ****   */
 880:./Libraries/STM32F4xx_HAL_Driver/Src/stm32f4xx_hal_pcd.c **** 
 881:./Libraries/STM32F4xx_HAL_Driver/Src/stm32f4xx_hal_pcd.c **** /** @defgroup PCD_Exported_Functions_Group3 Peripheral Control functions
 882:./Libraries/STM32F4xx_HAL_Driver/Src/stm32f4xx_hal_pcd.c ****  *  @brief   management functions
 883:./Libraries/STM32F4xx_HAL_Driver/Src/stm32f4xx_hal_pcd.c ****  *
 884:./Libraries/STM32F4xx_HAL_Driver/Src/stm32f4xx_hal_pcd.c **** @verbatim 
 885:./Libraries/STM32F4xx_HAL_Driver/Src/stm32f4xx_hal_pcd.c ****  ===============================================================================
 886:./Libraries/STM32F4xx_HAL_Driver/Src/stm32f4xx_hal_pcd.c ****                       ##### Peripheral Control functions #####
 887:./Libraries/STM32F4xx_HAL_Driver/Src/stm32f4xx_hal_pcd.c ****  ===============================================================================  
 888:./Libraries/STM32F4xx_HAL_Driver/Src/stm32f4xx_hal_pcd.c ****     [..]
 889:./Libraries/STM32F4xx_HAL_Driver/Src/stm32f4xx_hal_pcd.c ****     This subsection provides a set of functions allowing to control the PCD data 
 890:./Libraries/STM32F4xx_HAL_Driver/Src/stm32f4xx_hal_pcd.c ****     transfers.
 891:./Libraries/STM32F4xx_HAL_Driver/Src/stm32f4xx_hal_pcd.c **** 
 892:./Libraries/STM32F4xx_HAL_Driver/Src/stm32f4xx_hal_pcd.c **** @endverbatim
 893:./Libraries/STM32F4xx_HAL_Driver/Src/stm32f4xx_hal_pcd.c ****   * @{
 894:./Libraries/STM32F4xx_HAL_Driver/Src/stm32f4xx_hal_pcd.c ****   */
 895:./Libraries/STM32F4xx_HAL_Driver/Src/stm32f4xx_hal_pcd.c **** 
 896:./Libraries/STM32F4xx_HAL_Driver/Src/stm32f4xx_hal_pcd.c **** /**
 897:./Libraries/STM32F4xx_HAL_Driver/Src/stm32f4xx_hal_pcd.c ****   * @brief  Connect the USB device.
 898:./Libraries/STM32F4xx_HAL_Driver/Src/stm32f4xx_hal_pcd.c ****   * @param  hpcd PCD handle
 899:./Libraries/STM32F4xx_HAL_Driver/Src/stm32f4xx_hal_pcd.c ****   * @retval HAL status
 900:./Libraries/STM32F4xx_HAL_Driver/Src/stm32f4xx_hal_pcd.c ****   */
 901:./Libraries/STM32F4xx_HAL_Driver/Src/stm32f4xx_hal_pcd.c **** HAL_StatusTypeDef HAL_PCD_DevConnect(PCD_HandleTypeDef *hpcd)
 902:./Libraries/STM32F4xx_HAL_Driver/Src/stm32f4xx_hal_pcd.c **** {
 2469              		.loc 1 902 1
 2470              		.cfi_startproc
 2471              		@ args = 0, pretend = 0, frame = 8
 2472              		@ frame_needed = 1, uses_anonymous_args = 0
 2473 0000 80B5     		push	{r7, lr}
 2474              	.LCFI103:
 2475              		.cfi_def_cfa_offset 8
 2476              		.cfi_offset 7, -8
 2477              		.cfi_offset 14, -4
 2478 0002 82B0     		sub	sp, sp, #8
 2479              	.LCFI104:
 2480              		.cfi_def_cfa_offset 16
 2481 0004 00AF     		add	r7, sp, #0
 2482              	.LCFI105:
 2483              		.cfi_def_cfa_register 7
 2484 0006 7860     		str	r0, [r7, #4]
 903:./Libraries/STM32F4xx_HAL_Driver/Src/stm32f4xx_hal_pcd.c ****   __HAL_LOCK(hpcd); 
 2485              		.loc 1 903 3
 2486 0008 7B68     		ldr	r3, [r7, #4]
 2487 000a 93F8B833 		ldrb	r3, [r3, #952]	@ zero_extendqisi2
ARM GAS  /tmp/ccNCvjXU.s 			page 60


 2488 000e 012B     		cmp	r3, #1
 2489 0010 01D1     		bne	.L85
 2490              		.loc 1 903 3 is_stmt 0 discriminator 1
 2491 0012 0223     		movs	r3, #2
 2492 0014 0DE0     		b	.L86
 2493              	.L85:
 2494              		.loc 1 903 3 discriminator 2
 2495 0016 7B68     		ldr	r3, [r7, #4]
 2496 0018 0122     		movs	r2, #1
 2497 001a 83F8B823 		strb	r2, [r3, #952]
 904:./Libraries/STM32F4xx_HAL_Driver/Src/stm32f4xx_hal_pcd.c ****   USB_DevConnect(hpcd->Instance);
 2498              		.loc 1 904 22 is_stmt 1 discriminator 2
 2499 001e 7B68     		ldr	r3, [r7, #4]
 2500 0020 1B68     		ldr	r3, [r3]
 2501              		.loc 1 904 3 discriminator 2
 2502 0022 1846     		mov	r0, r3
 2503 0024 FFF7FEFF 		bl	USB_DevConnect
 905:./Libraries/STM32F4xx_HAL_Driver/Src/stm32f4xx_hal_pcd.c ****   __HAL_UNLOCK(hpcd); 
 2504              		.loc 1 905 3 discriminator 2
 2505 0028 7B68     		ldr	r3, [r7, #4]
 2506 002a 0022     		movs	r2, #0
 2507 002c 83F8B823 		strb	r2, [r3, #952]
 906:./Libraries/STM32F4xx_HAL_Driver/Src/stm32f4xx_hal_pcd.c ****   return HAL_OK;
 2508              		.loc 1 906 10 discriminator 2
 2509 0030 0023     		movs	r3, #0
 2510              	.L86:
 907:./Libraries/STM32F4xx_HAL_Driver/Src/stm32f4xx_hal_pcd.c **** }
 2511              		.loc 1 907 1
 2512 0032 1846     		mov	r0, r3
 2513 0034 0837     		adds	r7, r7, #8
 2514              	.LCFI106:
 2515              		.cfi_def_cfa_offset 8
 2516 0036 BD46     		mov	sp, r7
 2517              	.LCFI107:
 2518              		.cfi_def_cfa_register 13
 2519              		@ sp needed
 2520 0038 80BD     		pop	{r7, pc}
 2521              		.cfi_endproc
 2522              	.LFE144:
 2524              		.section	.text.HAL_PCD_DevDisconnect,"ax",%progbits
 2525              		.align	1
 2526              		.global	HAL_PCD_DevDisconnect
 2527              		.syntax unified
 2528              		.thumb
 2529              		.thumb_func
 2530              		.fpu fpv4-sp-d16
 2532              	HAL_PCD_DevDisconnect:
 2533              	.LFB145:
 908:./Libraries/STM32F4xx_HAL_Driver/Src/stm32f4xx_hal_pcd.c **** 
 909:./Libraries/STM32F4xx_HAL_Driver/Src/stm32f4xx_hal_pcd.c **** /**
 910:./Libraries/STM32F4xx_HAL_Driver/Src/stm32f4xx_hal_pcd.c ****   * @brief  Disconnect the USB device.
 911:./Libraries/STM32F4xx_HAL_Driver/Src/stm32f4xx_hal_pcd.c ****   * @param  hpcd PCD handle
 912:./Libraries/STM32F4xx_HAL_Driver/Src/stm32f4xx_hal_pcd.c ****   * @retval HAL status
 913:./Libraries/STM32F4xx_HAL_Driver/Src/stm32f4xx_hal_pcd.c ****   */
 914:./Libraries/STM32F4xx_HAL_Driver/Src/stm32f4xx_hal_pcd.c **** HAL_StatusTypeDef HAL_PCD_DevDisconnect(PCD_HandleTypeDef *hpcd)
 915:./Libraries/STM32F4xx_HAL_Driver/Src/stm32f4xx_hal_pcd.c **** {
 2534              		.loc 1 915 1
ARM GAS  /tmp/ccNCvjXU.s 			page 61


 2535              		.cfi_startproc
 2536              		@ args = 0, pretend = 0, frame = 8
 2537              		@ frame_needed = 1, uses_anonymous_args = 0
 2538 0000 80B5     		push	{r7, lr}
 2539              	.LCFI108:
 2540              		.cfi_def_cfa_offset 8
 2541              		.cfi_offset 7, -8
 2542              		.cfi_offset 14, -4
 2543 0002 82B0     		sub	sp, sp, #8
 2544              	.LCFI109:
 2545              		.cfi_def_cfa_offset 16
 2546 0004 00AF     		add	r7, sp, #0
 2547              	.LCFI110:
 2548              		.cfi_def_cfa_register 7
 2549 0006 7860     		str	r0, [r7, #4]
 916:./Libraries/STM32F4xx_HAL_Driver/Src/stm32f4xx_hal_pcd.c ****   __HAL_LOCK(hpcd); 
 2550              		.loc 1 916 3
 2551 0008 7B68     		ldr	r3, [r7, #4]
 2552 000a 93F8B833 		ldrb	r3, [r3, #952]	@ zero_extendqisi2
 2553 000e 012B     		cmp	r3, #1
 2554 0010 01D1     		bne	.L88
 2555              		.loc 1 916 3 is_stmt 0 discriminator 1
 2556 0012 0223     		movs	r3, #2
 2557 0014 0DE0     		b	.L89
 2558              	.L88:
 2559              		.loc 1 916 3 discriminator 2
 2560 0016 7B68     		ldr	r3, [r7, #4]
 2561 0018 0122     		movs	r2, #1
 2562 001a 83F8B823 		strb	r2, [r3, #952]
 917:./Libraries/STM32F4xx_HAL_Driver/Src/stm32f4xx_hal_pcd.c ****   USB_DevDisconnect(hpcd->Instance);
 2563              		.loc 1 917 25 is_stmt 1 discriminator 2
 2564 001e 7B68     		ldr	r3, [r7, #4]
 2565 0020 1B68     		ldr	r3, [r3]
 2566              		.loc 1 917 3 discriminator 2
 2567 0022 1846     		mov	r0, r3
 2568 0024 FFF7FEFF 		bl	USB_DevDisconnect
 918:./Libraries/STM32F4xx_HAL_Driver/Src/stm32f4xx_hal_pcd.c ****   __HAL_UNLOCK(hpcd); 
 2569              		.loc 1 918 3 discriminator 2
 2570 0028 7B68     		ldr	r3, [r7, #4]
 2571 002a 0022     		movs	r2, #0
 2572 002c 83F8B823 		strb	r2, [r3, #952]
 919:./Libraries/STM32F4xx_HAL_Driver/Src/stm32f4xx_hal_pcd.c ****   return HAL_OK;
 2573              		.loc 1 919 10 discriminator 2
 2574 0030 0023     		movs	r3, #0
 2575              	.L89:
 920:./Libraries/STM32F4xx_HAL_Driver/Src/stm32f4xx_hal_pcd.c **** }
 2576              		.loc 1 920 1
 2577 0032 1846     		mov	r0, r3
 2578 0034 0837     		adds	r7, r7, #8
 2579              	.LCFI111:
 2580              		.cfi_def_cfa_offset 8
 2581 0036 BD46     		mov	sp, r7
 2582              	.LCFI112:
 2583              		.cfi_def_cfa_register 13
 2584              		@ sp needed
 2585 0038 80BD     		pop	{r7, pc}
 2586              		.cfi_endproc
ARM GAS  /tmp/ccNCvjXU.s 			page 62


 2587              	.LFE145:
 2589              		.section	.text.HAL_PCD_SetAddress,"ax",%progbits
 2590              		.align	1
 2591              		.global	HAL_PCD_SetAddress
 2592              		.syntax unified
 2593              		.thumb
 2594              		.thumb_func
 2595              		.fpu fpv4-sp-d16
 2597              	HAL_PCD_SetAddress:
 2598              	.LFB146:
 921:./Libraries/STM32F4xx_HAL_Driver/Src/stm32f4xx_hal_pcd.c **** 
 922:./Libraries/STM32F4xx_HAL_Driver/Src/stm32f4xx_hal_pcd.c **** /**
 923:./Libraries/STM32F4xx_HAL_Driver/Src/stm32f4xx_hal_pcd.c ****   * @brief  Set the USB Device address. 
 924:./Libraries/STM32F4xx_HAL_Driver/Src/stm32f4xx_hal_pcd.c ****   * @param  hpcd PCD handle
 925:./Libraries/STM32F4xx_HAL_Driver/Src/stm32f4xx_hal_pcd.c ****   * @param  address new device address
 926:./Libraries/STM32F4xx_HAL_Driver/Src/stm32f4xx_hal_pcd.c ****   * @retval HAL status
 927:./Libraries/STM32F4xx_HAL_Driver/Src/stm32f4xx_hal_pcd.c ****   */
 928:./Libraries/STM32F4xx_HAL_Driver/Src/stm32f4xx_hal_pcd.c **** HAL_StatusTypeDef HAL_PCD_SetAddress(PCD_HandleTypeDef *hpcd, uint8_t address)
 929:./Libraries/STM32F4xx_HAL_Driver/Src/stm32f4xx_hal_pcd.c **** {
 2599              		.loc 1 929 1
 2600              		.cfi_startproc
 2601              		@ args = 0, pretend = 0, frame = 8
 2602              		@ frame_needed = 1, uses_anonymous_args = 0
 2603 0000 80B5     		push	{r7, lr}
 2604              	.LCFI113:
 2605              		.cfi_def_cfa_offset 8
 2606              		.cfi_offset 7, -8
 2607              		.cfi_offset 14, -4
 2608 0002 82B0     		sub	sp, sp, #8
 2609              	.LCFI114:
 2610              		.cfi_def_cfa_offset 16
 2611 0004 00AF     		add	r7, sp, #0
 2612              	.LCFI115:
 2613              		.cfi_def_cfa_register 7
 2614 0006 7860     		str	r0, [r7, #4]
 2615 0008 0B46     		mov	r3, r1
 2616 000a FB70     		strb	r3, [r7, #3]
 930:./Libraries/STM32F4xx_HAL_Driver/Src/stm32f4xx_hal_pcd.c ****   __HAL_LOCK(hpcd); 
 2617              		.loc 1 930 3
 2618 000c 7B68     		ldr	r3, [r7, #4]
 2619 000e 93F8B833 		ldrb	r3, [r3, #952]	@ zero_extendqisi2
 2620 0012 012B     		cmp	r3, #1
 2621 0014 01D1     		bne	.L91
 2622              		.loc 1 930 3 is_stmt 0 discriminator 1
 2623 0016 0223     		movs	r3, #2
 2624 0018 0FE0     		b	.L92
 2625              	.L91:
 2626              		.loc 1 930 3 discriminator 2
 2627 001a 7B68     		ldr	r3, [r7, #4]
 2628 001c 0122     		movs	r2, #1
 2629 001e 83F8B823 		strb	r2, [r3, #952]
 931:./Libraries/STM32F4xx_HAL_Driver/Src/stm32f4xx_hal_pcd.c ****   USB_SetDevAddress(hpcd->Instance, address);
 2630              		.loc 1 931 25 is_stmt 1 discriminator 2
 2631 0022 7B68     		ldr	r3, [r7, #4]
 2632 0024 1B68     		ldr	r3, [r3]
 2633              		.loc 1 931 3 discriminator 2
 2634 0026 FA78     		ldrb	r2, [r7, #3]	@ zero_extendqisi2
ARM GAS  /tmp/ccNCvjXU.s 			page 63


 2635 0028 1146     		mov	r1, r2
 2636 002a 1846     		mov	r0, r3
 2637 002c FFF7FEFF 		bl	USB_SetDevAddress
 932:./Libraries/STM32F4xx_HAL_Driver/Src/stm32f4xx_hal_pcd.c ****   __HAL_UNLOCK(hpcd);   
 2638              		.loc 1 932 3 discriminator 2
 2639 0030 7B68     		ldr	r3, [r7, #4]
 2640 0032 0022     		movs	r2, #0
 2641 0034 83F8B823 		strb	r2, [r3, #952]
 933:./Libraries/STM32F4xx_HAL_Driver/Src/stm32f4xx_hal_pcd.c ****   return HAL_OK;
 2642              		.loc 1 933 10 discriminator 2
 2643 0038 0023     		movs	r3, #0
 2644              	.L92:
 934:./Libraries/STM32F4xx_HAL_Driver/Src/stm32f4xx_hal_pcd.c **** }
 2645              		.loc 1 934 1
 2646 003a 1846     		mov	r0, r3
 2647 003c 0837     		adds	r7, r7, #8
 2648              	.LCFI116:
 2649              		.cfi_def_cfa_offset 8
 2650 003e BD46     		mov	sp, r7
 2651              	.LCFI117:
 2652              		.cfi_def_cfa_register 13
 2653              		@ sp needed
 2654 0040 80BD     		pop	{r7, pc}
 2655              		.cfi_endproc
 2656              	.LFE146:
 2658              		.section	.text.HAL_PCD_EP_Open,"ax",%progbits
 2659              		.align	1
 2660              		.global	HAL_PCD_EP_Open
 2661              		.syntax unified
 2662              		.thumb
 2663              		.thumb_func
 2664              		.fpu fpv4-sp-d16
 2666              	HAL_PCD_EP_Open:
 2667              	.LFB147:
 935:./Libraries/STM32F4xx_HAL_Driver/Src/stm32f4xx_hal_pcd.c **** /**
 936:./Libraries/STM32F4xx_HAL_Driver/Src/stm32f4xx_hal_pcd.c ****   * @brief  Open and configure an endpoint.
 937:./Libraries/STM32F4xx_HAL_Driver/Src/stm32f4xx_hal_pcd.c ****   * @param  hpcd PCD handle
 938:./Libraries/STM32F4xx_HAL_Driver/Src/stm32f4xx_hal_pcd.c ****   * @param  ep_addr endpoint address
 939:./Libraries/STM32F4xx_HAL_Driver/Src/stm32f4xx_hal_pcd.c ****   * @param  ep_mps endpoint max packet size
 940:./Libraries/STM32F4xx_HAL_Driver/Src/stm32f4xx_hal_pcd.c ****   * @param  ep_type endpoint type   
 941:./Libraries/STM32F4xx_HAL_Driver/Src/stm32f4xx_hal_pcd.c ****   * @retval HAL status
 942:./Libraries/STM32F4xx_HAL_Driver/Src/stm32f4xx_hal_pcd.c ****   */
 943:./Libraries/STM32F4xx_HAL_Driver/Src/stm32f4xx_hal_pcd.c **** HAL_StatusTypeDef HAL_PCD_EP_Open(PCD_HandleTypeDef *hpcd, uint8_t ep_addr, uint16_t ep_mps, uint8_
 944:./Libraries/STM32F4xx_HAL_Driver/Src/stm32f4xx_hal_pcd.c **** {
 2668              		.loc 1 944 1
 2669              		.cfi_startproc
 2670              		@ args = 0, pretend = 0, frame = 16
 2671              		@ frame_needed = 1, uses_anonymous_args = 0
 2672 0000 80B5     		push	{r7, lr}
 2673              	.LCFI118:
 2674              		.cfi_def_cfa_offset 8
 2675              		.cfi_offset 7, -8
 2676              		.cfi_offset 14, -4
 2677 0002 84B0     		sub	sp, sp, #16
 2678              	.LCFI119:
 2679              		.cfi_def_cfa_offset 24
 2680 0004 00AF     		add	r7, sp, #0
ARM GAS  /tmp/ccNCvjXU.s 			page 64


 2681              	.LCFI120:
 2682              		.cfi_def_cfa_register 7
 2683 0006 7860     		str	r0, [r7, #4]
 2684 0008 0846     		mov	r0, r1
 2685 000a 1146     		mov	r1, r2
 2686 000c 1A46     		mov	r2, r3
 2687 000e 0346     		mov	r3, r0
 2688 0010 FB70     		strb	r3, [r7, #3]
 2689 0012 0B46     		mov	r3, r1	@ movhi
 2690 0014 3B80     		strh	r3, [r7]	@ movhi
 2691 0016 1346     		mov	r3, r2
 2692 0018 BB70     		strb	r3, [r7, #2]
 945:./Libraries/STM32F4xx_HAL_Driver/Src/stm32f4xx_hal_pcd.c ****   HAL_StatusTypeDef  ret = HAL_OK;
 2693              		.loc 1 945 22
 2694 001a 0023     		movs	r3, #0
 2695 001c FB72     		strb	r3, [r7, #11]
 946:./Libraries/STM32F4xx_HAL_Driver/Src/stm32f4xx_hal_pcd.c ****   USB_OTG_EPTypeDef *ep;
 947:./Libraries/STM32F4xx_HAL_Driver/Src/stm32f4xx_hal_pcd.c ****   
 948:./Libraries/STM32F4xx_HAL_Driver/Src/stm32f4xx_hal_pcd.c ****   if ((ep_addr & 0x80) == 0x80)
 2696              		.loc 1 948 24
 2697 001e 97F90330 		ldrsb	r3, [r7, #3]
 2698              		.loc 1 948 6
 2699 0022 002B     		cmp	r3, #0
 2700 0024 0BDA     		bge	.L94
 949:./Libraries/STM32F4xx_HAL_Driver/Src/stm32f4xx_hal_pcd.c ****   {
 950:./Libraries/STM32F4xx_HAL_Driver/Src/stm32f4xx_hal_pcd.c ****     ep = &hpcd->IN_ep[ep_addr & 0x7F];
 2701              		.loc 1 950 31
 2702 0026 FB78     		ldrb	r3, [r7, #3]	@ zero_extendqisi2
 2703 0028 03F07F02 		and	r2, r3, #127
 2704              		.loc 1 950 8
 2705 002c 1346     		mov	r3, r2
 2706 002e DB00     		lsls	r3, r3, #3
 2707 0030 9B1A     		subs	r3, r3, r2
 2708 0032 9B00     		lsls	r3, r3, #2
 2709 0034 3833     		adds	r3, r3, #56
 2710 0036 7A68     		ldr	r2, [r7, #4]
 2711 0038 1344     		add	r3, r3, r2
 2712 003a FB60     		str	r3, [r7, #12]
 2713 003c 0BE0     		b	.L95
 2714              	.L94:
 951:./Libraries/STM32F4xx_HAL_Driver/Src/stm32f4xx_hal_pcd.c ****   }
 952:./Libraries/STM32F4xx_HAL_Driver/Src/stm32f4xx_hal_pcd.c ****   else
 953:./Libraries/STM32F4xx_HAL_Driver/Src/stm32f4xx_hal_pcd.c ****   {
 954:./Libraries/STM32F4xx_HAL_Driver/Src/stm32f4xx_hal_pcd.c ****     ep = &hpcd->OUT_ep[ep_addr & 0x7F];
 2715              		.loc 1 954 32
 2716 003e FB78     		ldrb	r3, [r7, #3]	@ zero_extendqisi2
 2717 0040 03F07F02 		and	r2, r3, #127
 2718              		.loc 1 954 8
 2719 0044 1346     		mov	r3, r2
 2720 0046 DB00     		lsls	r3, r3, #3
 2721 0048 9B1A     		subs	r3, r3, r2
 2722 004a 9B00     		lsls	r3, r3, #2
 2723 004c 03F5FC73 		add	r3, r3, #504
 2724 0050 7A68     		ldr	r2, [r7, #4]
 2725 0052 1344     		add	r3, r3, r2
 2726 0054 FB60     		str	r3, [r7, #12]
 2727              	.L95:
ARM GAS  /tmp/ccNCvjXU.s 			page 65


 955:./Libraries/STM32F4xx_HAL_Driver/Src/stm32f4xx_hal_pcd.c ****   }
 956:./Libraries/STM32F4xx_HAL_Driver/Src/stm32f4xx_hal_pcd.c ****   ep->num   = ep_addr & 0x7F;
 2728              		.loc 1 956 23
 2729 0056 FB78     		ldrb	r3, [r7, #3]
 2730 0058 03F07F03 		and	r3, r3, #127
 2731 005c DAB2     		uxtb	r2, r3
 2732              		.loc 1 956 13
 2733 005e FB68     		ldr	r3, [r7, #12]
 2734 0060 1A70     		strb	r2, [r3]
 957:./Libraries/STM32F4xx_HAL_Driver/Src/stm32f4xx_hal_pcd.c ****   
 958:./Libraries/STM32F4xx_HAL_Driver/Src/stm32f4xx_hal_pcd.c ****   ep->is_in = (0x80 & ep_addr) != 0;
 2735              		.loc 1 958 32
 2736 0062 97F90330 		ldrsb	r3, [r7, #3]
 2737 0066 DBB2     		uxtb	r3, r3
 2738 0068 DB09     		lsrs	r3, r3, #7
 2739 006a DBB2     		uxtb	r3, r3
 2740 006c 1A46     		mov	r2, r3
 2741              		.loc 1 958 13
 2742 006e FB68     		ldr	r3, [r7, #12]
 2743 0070 5A70     		strb	r2, [r3, #1]
 959:./Libraries/STM32F4xx_HAL_Driver/Src/stm32f4xx_hal_pcd.c ****   ep->maxpacket = ep_mps;
 2744              		.loc 1 959 17
 2745 0072 3A88     		ldrh	r2, [r7]
 2746 0074 FB68     		ldr	r3, [r7, #12]
 2747 0076 9A60     		str	r2, [r3, #8]
 960:./Libraries/STM32F4xx_HAL_Driver/Src/stm32f4xx_hal_pcd.c ****   ep->type = ep_type;
 2748              		.loc 1 960 12
 2749 0078 FB68     		ldr	r3, [r7, #12]
 2750 007a BA78     		ldrb	r2, [r7, #2]
 2751 007c DA70     		strb	r2, [r3, #3]
 961:./Libraries/STM32F4xx_HAL_Driver/Src/stm32f4xx_hal_pcd.c ****   if (ep->is_in)
 2752              		.loc 1 961 9
 2753 007e FB68     		ldr	r3, [r7, #12]
 2754 0080 5B78     		ldrb	r3, [r3, #1]	@ zero_extendqisi2
 2755              		.loc 1 961 6
 2756 0082 002B     		cmp	r3, #0
 2757 0084 04D0     		beq	.L96
 962:./Libraries/STM32F4xx_HAL_Driver/Src/stm32f4xx_hal_pcd.c ****   {
 963:./Libraries/STM32F4xx_HAL_Driver/Src/stm32f4xx_hal_pcd.c ****     /* Assign a Tx FIFO */
 964:./Libraries/STM32F4xx_HAL_Driver/Src/stm32f4xx_hal_pcd.c ****     ep->tx_fifo_num = ep->num;
 2758              		.loc 1 964 25
 2759 0086 FB68     		ldr	r3, [r7, #12]
 2760 0088 1B78     		ldrb	r3, [r3]	@ zero_extendqisi2
 2761 008a 9AB2     		uxth	r2, r3
 2762              		.loc 1 964 21
 2763 008c FB68     		ldr	r3, [r7, #12]
 2764 008e DA80     		strh	r2, [r3, #6]	@ movhi
 2765              	.L96:
 965:./Libraries/STM32F4xx_HAL_Driver/Src/stm32f4xx_hal_pcd.c ****   }
 966:./Libraries/STM32F4xx_HAL_Driver/Src/stm32f4xx_hal_pcd.c ****   /* Set initial data PID. */
 967:./Libraries/STM32F4xx_HAL_Driver/Src/stm32f4xx_hal_pcd.c ****   if (ep_type == EP_TYPE_BULK )
 2766              		.loc 1 967 6
 2767 0090 BB78     		ldrb	r3, [r7, #2]	@ zero_extendqisi2
 2768 0092 022B     		cmp	r3, #2
 2769 0094 02D1     		bne	.L97
 968:./Libraries/STM32F4xx_HAL_Driver/Src/stm32f4xx_hal_pcd.c ****   {
 969:./Libraries/STM32F4xx_HAL_Driver/Src/stm32f4xx_hal_pcd.c ****     ep->data_pid_start = 0U;
ARM GAS  /tmp/ccNCvjXU.s 			page 66


 2770              		.loc 1 969 24
 2771 0096 FB68     		ldr	r3, [r7, #12]
 2772 0098 0022     		movs	r2, #0
 2773 009a 1A71     		strb	r2, [r3, #4]
 2774              	.L97:
 970:./Libraries/STM32F4xx_HAL_Driver/Src/stm32f4xx_hal_pcd.c ****   }
 971:./Libraries/STM32F4xx_HAL_Driver/Src/stm32f4xx_hal_pcd.c ****   
 972:./Libraries/STM32F4xx_HAL_Driver/Src/stm32f4xx_hal_pcd.c ****   __HAL_LOCK(hpcd); 
 2775              		.loc 1 972 3
 2776 009c 7B68     		ldr	r3, [r7, #4]
 2777 009e 93F8B833 		ldrb	r3, [r3, #952]	@ zero_extendqisi2
 2778 00a2 012B     		cmp	r3, #1
 2779 00a4 01D1     		bne	.L98
 2780              		.loc 1 972 3 is_stmt 0 discriminator 1
 2781 00a6 0223     		movs	r3, #2
 2782 00a8 0EE0     		b	.L99
 2783              	.L98:
 2784              		.loc 1 972 3 discriminator 2
 2785 00aa 7B68     		ldr	r3, [r7, #4]
 2786 00ac 0122     		movs	r2, #1
 2787 00ae 83F8B823 		strb	r2, [r3, #952]
 973:./Libraries/STM32F4xx_HAL_Driver/Src/stm32f4xx_hal_pcd.c ****   USB_ActivateEndpoint(hpcd->Instance , ep);
 2788              		.loc 1 973 28 is_stmt 1 discriminator 2
 2789 00b2 7B68     		ldr	r3, [r7, #4]
 2790 00b4 1B68     		ldr	r3, [r3]
 2791              		.loc 1 973 3 discriminator 2
 2792 00b6 F968     		ldr	r1, [r7, #12]
 2793 00b8 1846     		mov	r0, r3
 2794 00ba FFF7FEFF 		bl	USB_ActivateEndpoint
 974:./Libraries/STM32F4xx_HAL_Driver/Src/stm32f4xx_hal_pcd.c ****   __HAL_UNLOCK(hpcd);   
 2795              		.loc 1 974 3 discriminator 2
 2796 00be 7B68     		ldr	r3, [r7, #4]
 2797 00c0 0022     		movs	r2, #0
 2798 00c2 83F8B823 		strb	r2, [r3, #952]
 975:./Libraries/STM32F4xx_HAL_Driver/Src/stm32f4xx_hal_pcd.c ****   return ret;
 2799              		.loc 1 975 10 discriminator 2
 2800 00c6 FB7A     		ldrb	r3, [r7, #11]	@ zero_extendqisi2
 2801              	.L99:
 976:./Libraries/STM32F4xx_HAL_Driver/Src/stm32f4xx_hal_pcd.c **** }
 2802              		.loc 1 976 1
 2803 00c8 1846     		mov	r0, r3
 2804 00ca 1037     		adds	r7, r7, #16
 2805              	.LCFI121:
 2806              		.cfi_def_cfa_offset 8
 2807 00cc BD46     		mov	sp, r7
 2808              	.LCFI122:
 2809              		.cfi_def_cfa_register 13
 2810              		@ sp needed
 2811 00ce 80BD     		pop	{r7, pc}
 2812              		.cfi_endproc
 2813              	.LFE147:
 2815              		.section	.text.HAL_PCD_EP_Close,"ax",%progbits
 2816              		.align	1
 2817              		.global	HAL_PCD_EP_Close
 2818              		.syntax unified
 2819              		.thumb
 2820              		.thumb_func
ARM GAS  /tmp/ccNCvjXU.s 			page 67


 2821              		.fpu fpv4-sp-d16
 2823              	HAL_PCD_EP_Close:
 2824              	.LFB148:
 977:./Libraries/STM32F4xx_HAL_Driver/Src/stm32f4xx_hal_pcd.c **** 
 978:./Libraries/STM32F4xx_HAL_Driver/Src/stm32f4xx_hal_pcd.c **** 
 979:./Libraries/STM32F4xx_HAL_Driver/Src/stm32f4xx_hal_pcd.c **** /**
 980:./Libraries/STM32F4xx_HAL_Driver/Src/stm32f4xx_hal_pcd.c ****   * @brief  Deactivate an endpoint.
 981:./Libraries/STM32F4xx_HAL_Driver/Src/stm32f4xx_hal_pcd.c ****   * @param  hpcd PCD handle
 982:./Libraries/STM32F4xx_HAL_Driver/Src/stm32f4xx_hal_pcd.c ****   * @param  ep_addr endpoint address
 983:./Libraries/STM32F4xx_HAL_Driver/Src/stm32f4xx_hal_pcd.c ****   * @retval HAL status
 984:./Libraries/STM32F4xx_HAL_Driver/Src/stm32f4xx_hal_pcd.c ****   */
 985:./Libraries/STM32F4xx_HAL_Driver/Src/stm32f4xx_hal_pcd.c **** HAL_StatusTypeDef HAL_PCD_EP_Close(PCD_HandleTypeDef *hpcd, uint8_t ep_addr)
 986:./Libraries/STM32F4xx_HAL_Driver/Src/stm32f4xx_hal_pcd.c **** {  
 2825              		.loc 1 986 1
 2826              		.cfi_startproc
 2827              		@ args = 0, pretend = 0, frame = 16
 2828              		@ frame_needed = 1, uses_anonymous_args = 0
 2829 0000 80B5     		push	{r7, lr}
 2830              	.LCFI123:
 2831              		.cfi_def_cfa_offset 8
 2832              		.cfi_offset 7, -8
 2833              		.cfi_offset 14, -4
 2834 0002 84B0     		sub	sp, sp, #16
 2835              	.LCFI124:
 2836              		.cfi_def_cfa_offset 24
 2837 0004 00AF     		add	r7, sp, #0
 2838              	.LCFI125:
 2839              		.cfi_def_cfa_register 7
 2840 0006 7860     		str	r0, [r7, #4]
 2841 0008 0B46     		mov	r3, r1
 2842 000a FB70     		strb	r3, [r7, #3]
 987:./Libraries/STM32F4xx_HAL_Driver/Src/stm32f4xx_hal_pcd.c ****   USB_OTG_EPTypeDef *ep;
 988:./Libraries/STM32F4xx_HAL_Driver/Src/stm32f4xx_hal_pcd.c ****   
 989:./Libraries/STM32F4xx_HAL_Driver/Src/stm32f4xx_hal_pcd.c ****   if ((ep_addr & 0x80) == 0x80)
 2843              		.loc 1 989 24
 2844 000c 97F90330 		ldrsb	r3, [r7, #3]
 2845              		.loc 1 989 6
 2846 0010 002B     		cmp	r3, #0
 2847 0012 0BDA     		bge	.L101
 990:./Libraries/STM32F4xx_HAL_Driver/Src/stm32f4xx_hal_pcd.c ****   {
 991:./Libraries/STM32F4xx_HAL_Driver/Src/stm32f4xx_hal_pcd.c ****     ep = &hpcd->IN_ep[ep_addr & 0x7F];
 2848              		.loc 1 991 31
 2849 0014 FB78     		ldrb	r3, [r7, #3]	@ zero_extendqisi2
 2850 0016 03F07F02 		and	r2, r3, #127
 2851              		.loc 1 991 8
 2852 001a 1346     		mov	r3, r2
 2853 001c DB00     		lsls	r3, r3, #3
 2854 001e 9B1A     		subs	r3, r3, r2
 2855 0020 9B00     		lsls	r3, r3, #2
 2856 0022 3833     		adds	r3, r3, #56
 2857 0024 7A68     		ldr	r2, [r7, #4]
 2858 0026 1344     		add	r3, r3, r2
 2859 0028 FB60     		str	r3, [r7, #12]
 2860 002a 0BE0     		b	.L102
 2861              	.L101:
 992:./Libraries/STM32F4xx_HAL_Driver/Src/stm32f4xx_hal_pcd.c ****   }
 993:./Libraries/STM32F4xx_HAL_Driver/Src/stm32f4xx_hal_pcd.c ****   else
ARM GAS  /tmp/ccNCvjXU.s 			page 68


 994:./Libraries/STM32F4xx_HAL_Driver/Src/stm32f4xx_hal_pcd.c ****   {
 995:./Libraries/STM32F4xx_HAL_Driver/Src/stm32f4xx_hal_pcd.c ****     ep = &hpcd->OUT_ep[ep_addr & 0x7F];
 2862              		.loc 1 995 32
 2863 002c FB78     		ldrb	r3, [r7, #3]	@ zero_extendqisi2
 2864 002e 03F07F02 		and	r2, r3, #127
 2865              		.loc 1 995 8
 2866 0032 1346     		mov	r3, r2
 2867 0034 DB00     		lsls	r3, r3, #3
 2868 0036 9B1A     		subs	r3, r3, r2
 2869 0038 9B00     		lsls	r3, r3, #2
 2870 003a 03F5FC73 		add	r3, r3, #504
 2871 003e 7A68     		ldr	r2, [r7, #4]
 2872 0040 1344     		add	r3, r3, r2
 2873 0042 FB60     		str	r3, [r7, #12]
 2874              	.L102:
 996:./Libraries/STM32F4xx_HAL_Driver/Src/stm32f4xx_hal_pcd.c ****   }
 997:./Libraries/STM32F4xx_HAL_Driver/Src/stm32f4xx_hal_pcd.c ****   ep->num   = ep_addr & 0x7F;
 2875              		.loc 1 997 23
 2876 0044 FB78     		ldrb	r3, [r7, #3]
 2877 0046 03F07F03 		and	r3, r3, #127
 2878 004a DAB2     		uxtb	r2, r3
 2879              		.loc 1 997 13
 2880 004c FB68     		ldr	r3, [r7, #12]
 2881 004e 1A70     		strb	r2, [r3]
 998:./Libraries/STM32F4xx_HAL_Driver/Src/stm32f4xx_hal_pcd.c ****   
 999:./Libraries/STM32F4xx_HAL_Driver/Src/stm32f4xx_hal_pcd.c ****   ep->is_in = (0x80 & ep_addr) != 0;
 2882              		.loc 1 999 32
 2883 0050 97F90330 		ldrsb	r3, [r7, #3]
 2884 0054 DBB2     		uxtb	r3, r3
 2885 0056 DB09     		lsrs	r3, r3, #7
 2886 0058 DBB2     		uxtb	r3, r3
 2887 005a 1A46     		mov	r2, r3
 2888              		.loc 1 999 13
 2889 005c FB68     		ldr	r3, [r7, #12]
 2890 005e 5A70     		strb	r2, [r3, #1]
1000:./Libraries/STM32F4xx_HAL_Driver/Src/stm32f4xx_hal_pcd.c ****   
1001:./Libraries/STM32F4xx_HAL_Driver/Src/stm32f4xx_hal_pcd.c ****   __HAL_LOCK(hpcd); 
 2891              		.loc 1 1001 3
 2892 0060 7B68     		ldr	r3, [r7, #4]
 2893 0062 93F8B833 		ldrb	r3, [r3, #952]	@ zero_extendqisi2
 2894 0066 012B     		cmp	r3, #1
 2895 0068 01D1     		bne	.L103
 2896              		.loc 1 1001 3 is_stmt 0 discriminator 1
 2897 006a 0223     		movs	r3, #2
 2898 006c 0EE0     		b	.L104
 2899              	.L103:
 2900              		.loc 1 1001 3 discriminator 2
 2901 006e 7B68     		ldr	r3, [r7, #4]
 2902 0070 0122     		movs	r2, #1
 2903 0072 83F8B823 		strb	r2, [r3, #952]
1002:./Libraries/STM32F4xx_HAL_Driver/Src/stm32f4xx_hal_pcd.c ****   USB_DeactivateEndpoint(hpcd->Instance , ep);
 2904              		.loc 1 1002 30 is_stmt 1 discriminator 2
 2905 0076 7B68     		ldr	r3, [r7, #4]
 2906 0078 1B68     		ldr	r3, [r3]
 2907              		.loc 1 1002 3 discriminator 2
 2908 007a F968     		ldr	r1, [r7, #12]
 2909 007c 1846     		mov	r0, r3
ARM GAS  /tmp/ccNCvjXU.s 			page 69


 2910 007e FFF7FEFF 		bl	USB_DeactivateEndpoint
1003:./Libraries/STM32F4xx_HAL_Driver/Src/stm32f4xx_hal_pcd.c ****   __HAL_UNLOCK(hpcd);   
 2911              		.loc 1 1003 3 discriminator 2
 2912 0082 7B68     		ldr	r3, [r7, #4]
 2913 0084 0022     		movs	r2, #0
 2914 0086 83F8B823 		strb	r2, [r3, #952]
1004:./Libraries/STM32F4xx_HAL_Driver/Src/stm32f4xx_hal_pcd.c ****   return HAL_OK;
 2915              		.loc 1 1004 10 discriminator 2
 2916 008a 0023     		movs	r3, #0
 2917              	.L104:
1005:./Libraries/STM32F4xx_HAL_Driver/Src/stm32f4xx_hal_pcd.c **** }
 2918              		.loc 1 1005 1
 2919 008c 1846     		mov	r0, r3
 2920 008e 1037     		adds	r7, r7, #16
 2921              	.LCFI126:
 2922              		.cfi_def_cfa_offset 8
 2923 0090 BD46     		mov	sp, r7
 2924              	.LCFI127:
 2925              		.cfi_def_cfa_register 13
 2926              		@ sp needed
 2927 0092 80BD     		pop	{r7, pc}
 2928              		.cfi_endproc
 2929              	.LFE148:
 2931              		.section	.text.HAL_PCD_EP_Receive,"ax",%progbits
 2932              		.align	1
 2933              		.global	HAL_PCD_EP_Receive
 2934              		.syntax unified
 2935              		.thumb
 2936              		.thumb_func
 2937              		.fpu fpv4-sp-d16
 2939              	HAL_PCD_EP_Receive:
 2940              	.LFB149:
1006:./Libraries/STM32F4xx_HAL_Driver/Src/stm32f4xx_hal_pcd.c **** 
1007:./Libraries/STM32F4xx_HAL_Driver/Src/stm32f4xx_hal_pcd.c **** 
1008:./Libraries/STM32F4xx_HAL_Driver/Src/stm32f4xx_hal_pcd.c **** /**
1009:./Libraries/STM32F4xx_HAL_Driver/Src/stm32f4xx_hal_pcd.c ****   * @brief  Receive an amount of data.  
1010:./Libraries/STM32F4xx_HAL_Driver/Src/stm32f4xx_hal_pcd.c ****   * @param  hpcd PCD handle
1011:./Libraries/STM32F4xx_HAL_Driver/Src/stm32f4xx_hal_pcd.c ****   * @param  ep_addr endpoint address
1012:./Libraries/STM32F4xx_HAL_Driver/Src/stm32f4xx_hal_pcd.c ****   * @param  pBuf pointer to the reception buffer   
1013:./Libraries/STM32F4xx_HAL_Driver/Src/stm32f4xx_hal_pcd.c ****   * @param  len amount of data to be received
1014:./Libraries/STM32F4xx_HAL_Driver/Src/stm32f4xx_hal_pcd.c ****   * @retval HAL status
1015:./Libraries/STM32F4xx_HAL_Driver/Src/stm32f4xx_hal_pcd.c ****   */
1016:./Libraries/STM32F4xx_HAL_Driver/Src/stm32f4xx_hal_pcd.c **** HAL_StatusTypeDef HAL_PCD_EP_Receive(PCD_HandleTypeDef *hpcd, uint8_t ep_addr, uint8_t *pBuf, uint3
1017:./Libraries/STM32F4xx_HAL_Driver/Src/stm32f4xx_hal_pcd.c **** {
 2941              		.loc 1 1017 1
 2942              		.cfi_startproc
 2943              		@ args = 0, pretend = 0, frame = 24
 2944              		@ frame_needed = 1, uses_anonymous_args = 0
 2945 0000 80B5     		push	{r7, lr}
 2946              	.LCFI128:
 2947              		.cfi_def_cfa_offset 8
 2948              		.cfi_offset 7, -8
 2949              		.cfi_offset 14, -4
 2950 0002 86B0     		sub	sp, sp, #24
 2951              	.LCFI129:
 2952              		.cfi_def_cfa_offset 32
 2953 0004 00AF     		add	r7, sp, #0
ARM GAS  /tmp/ccNCvjXU.s 			page 70


 2954              	.LCFI130:
 2955              		.cfi_def_cfa_register 7
 2956 0006 F860     		str	r0, [r7, #12]
 2957 0008 7A60     		str	r2, [r7, #4]
 2958 000a 3B60     		str	r3, [r7]
 2959 000c 0B46     		mov	r3, r1
 2960 000e FB72     		strb	r3, [r7, #11]
1018:./Libraries/STM32F4xx_HAL_Driver/Src/stm32f4xx_hal_pcd.c ****   USB_OTG_EPTypeDef *ep;
1019:./Libraries/STM32F4xx_HAL_Driver/Src/stm32f4xx_hal_pcd.c ****   
1020:./Libraries/STM32F4xx_HAL_Driver/Src/stm32f4xx_hal_pcd.c ****   ep = &hpcd->OUT_ep[ep_addr & 0x7F];
 2961              		.loc 1 1020 30
 2962 0010 FB7A     		ldrb	r3, [r7, #11]	@ zero_extendqisi2
 2963 0012 03F07F02 		and	r2, r3, #127
 2964              		.loc 1 1020 6
 2965 0016 1346     		mov	r3, r2
 2966 0018 DB00     		lsls	r3, r3, #3
 2967 001a 9B1A     		subs	r3, r3, r2
 2968 001c 9B00     		lsls	r3, r3, #2
 2969 001e 03F5FC73 		add	r3, r3, #504
 2970 0022 FA68     		ldr	r2, [r7, #12]
 2971 0024 1344     		add	r3, r3, r2
 2972 0026 7B61     		str	r3, [r7, #20]
1021:./Libraries/STM32F4xx_HAL_Driver/Src/stm32f4xx_hal_pcd.c ****   
1022:./Libraries/STM32F4xx_HAL_Driver/Src/stm32f4xx_hal_pcd.c ****   /*setup and start the Xfer */
1023:./Libraries/STM32F4xx_HAL_Driver/Src/stm32f4xx_hal_pcd.c ****   ep->xfer_buff = pBuf;  
 2973              		.loc 1 1023 17
 2974 0028 7B69     		ldr	r3, [r7, #20]
 2975 002a 7A68     		ldr	r2, [r7, #4]
 2976 002c DA60     		str	r2, [r3, #12]
1024:./Libraries/STM32F4xx_HAL_Driver/Src/stm32f4xx_hal_pcd.c ****   ep->xfer_len = len;
 2977              		.loc 1 1024 16
 2978 002e 7B69     		ldr	r3, [r7, #20]
 2979 0030 3A68     		ldr	r2, [r7]
 2980 0032 5A61     		str	r2, [r3, #20]
1025:./Libraries/STM32F4xx_HAL_Driver/Src/stm32f4xx_hal_pcd.c ****   ep->xfer_count = 0U;
 2981              		.loc 1 1025 18
 2982 0034 7B69     		ldr	r3, [r7, #20]
 2983 0036 0022     		movs	r2, #0
 2984 0038 9A61     		str	r2, [r3, #24]
1026:./Libraries/STM32F4xx_HAL_Driver/Src/stm32f4xx_hal_pcd.c ****   ep->is_in = 0U;
 2985              		.loc 1 1026 13
 2986 003a 7B69     		ldr	r3, [r7, #20]
 2987 003c 0022     		movs	r2, #0
 2988 003e 5A70     		strb	r2, [r3, #1]
1027:./Libraries/STM32F4xx_HAL_Driver/Src/stm32f4xx_hal_pcd.c ****   ep->num = ep_addr & 0x7F;
 2989              		.loc 1 1027 21
 2990 0040 FB7A     		ldrb	r3, [r7, #11]
 2991 0042 03F07F03 		and	r3, r3, #127
 2992 0046 DAB2     		uxtb	r2, r3
 2993              		.loc 1 1027 11
 2994 0048 7B69     		ldr	r3, [r7, #20]
 2995 004a 1A70     		strb	r2, [r3]
1028:./Libraries/STM32F4xx_HAL_Driver/Src/stm32f4xx_hal_pcd.c ****   
1029:./Libraries/STM32F4xx_HAL_Driver/Src/stm32f4xx_hal_pcd.c ****   if (hpcd->Init.dma_enable == 1U)
 2996              		.loc 1 1029 17
 2997 004c FB68     		ldr	r3, [r7, #12]
 2998 004e 1B69     		ldr	r3, [r3, #16]
ARM GAS  /tmp/ccNCvjXU.s 			page 71


 2999              		.loc 1 1029 6
 3000 0050 012B     		cmp	r3, #1
 3001 0052 02D1     		bne	.L106
1030:./Libraries/STM32F4xx_HAL_Driver/Src/stm32f4xx_hal_pcd.c ****   {
1031:./Libraries/STM32F4xx_HAL_Driver/Src/stm32f4xx_hal_pcd.c ****     ep->dma_addr = (uint32_t)pBuf;  
 3002              		.loc 1 1031 20
 3003 0054 7A68     		ldr	r2, [r7, #4]
 3004              		.loc 1 1031 18
 3005 0056 7B69     		ldr	r3, [r7, #20]
 3006 0058 1A61     		str	r2, [r3, #16]
 3007              	.L106:
1032:./Libraries/STM32F4xx_HAL_Driver/Src/stm32f4xx_hal_pcd.c ****   }
1033:./Libraries/STM32F4xx_HAL_Driver/Src/stm32f4xx_hal_pcd.c ****   
1034:./Libraries/STM32F4xx_HAL_Driver/Src/stm32f4xx_hal_pcd.c ****   if ((ep_addr & 0x7F) == 0)
 3008              		.loc 1 1034 16
 3009 005a FB7A     		ldrb	r3, [r7, #11]	@ zero_extendqisi2
 3010 005c 03F07F03 		and	r3, r3, #127
 3011              		.loc 1 1034 6
 3012 0060 002B     		cmp	r3, #0
 3013 0062 09D1     		bne	.L107
1035:./Libraries/STM32F4xx_HAL_Driver/Src/stm32f4xx_hal_pcd.c ****   {
1036:./Libraries/STM32F4xx_HAL_Driver/Src/stm32f4xx_hal_pcd.c ****     USB_EP0StartXfer(hpcd->Instance , ep, hpcd->Init.dma_enable);
 3014              		.loc 1 1036 26
 3015 0064 FB68     		ldr	r3, [r7, #12]
 3016 0066 1868     		ldr	r0, [r3]
 3017              		.loc 1 1036 53
 3018 0068 FB68     		ldr	r3, [r7, #12]
 3019 006a 1B69     		ldr	r3, [r3, #16]
 3020              		.loc 1 1036 5
 3021 006c DBB2     		uxtb	r3, r3
 3022 006e 1A46     		mov	r2, r3
 3023 0070 7969     		ldr	r1, [r7, #20]
 3024 0072 FFF7FEFF 		bl	USB_EP0StartXfer
 3025 0076 08E0     		b	.L108
 3026              	.L107:
1037:./Libraries/STM32F4xx_HAL_Driver/Src/stm32f4xx_hal_pcd.c ****   }
1038:./Libraries/STM32F4xx_HAL_Driver/Src/stm32f4xx_hal_pcd.c ****   else
1039:./Libraries/STM32F4xx_HAL_Driver/Src/stm32f4xx_hal_pcd.c ****   {
1040:./Libraries/STM32F4xx_HAL_Driver/Src/stm32f4xx_hal_pcd.c ****     USB_EPStartXfer(hpcd->Instance , ep, hpcd->Init.dma_enable);
 3027              		.loc 1 1040 25
 3028 0078 FB68     		ldr	r3, [r7, #12]
 3029 007a 1868     		ldr	r0, [r3]
 3030              		.loc 1 1040 52
 3031 007c FB68     		ldr	r3, [r7, #12]
 3032 007e 1B69     		ldr	r3, [r3, #16]
 3033              		.loc 1 1040 5
 3034 0080 DBB2     		uxtb	r3, r3
 3035 0082 1A46     		mov	r2, r3
 3036 0084 7969     		ldr	r1, [r7, #20]
 3037 0086 FFF7FEFF 		bl	USB_EPStartXfer
 3038              	.L108:
1041:./Libraries/STM32F4xx_HAL_Driver/Src/stm32f4xx_hal_pcd.c ****   }
1042:./Libraries/STM32F4xx_HAL_Driver/Src/stm32f4xx_hal_pcd.c ****   
1043:./Libraries/STM32F4xx_HAL_Driver/Src/stm32f4xx_hal_pcd.c ****   return HAL_OK;
 3039              		.loc 1 1043 10
 3040 008a 0023     		movs	r3, #0
1044:./Libraries/STM32F4xx_HAL_Driver/Src/stm32f4xx_hal_pcd.c **** }
ARM GAS  /tmp/ccNCvjXU.s 			page 72


 3041              		.loc 1 1044 1
 3042 008c 1846     		mov	r0, r3
 3043 008e 1837     		adds	r7, r7, #24
 3044              	.LCFI131:
 3045              		.cfi_def_cfa_offset 8
 3046 0090 BD46     		mov	sp, r7
 3047              	.LCFI132:
 3048              		.cfi_def_cfa_register 13
 3049              		@ sp needed
 3050 0092 80BD     		pop	{r7, pc}
 3051              		.cfi_endproc
 3052              	.LFE149:
 3054              		.section	.text.HAL_PCD_EP_GetRxCount,"ax",%progbits
 3055              		.align	1
 3056              		.global	HAL_PCD_EP_GetRxCount
 3057              		.syntax unified
 3058              		.thumb
 3059              		.thumb_func
 3060              		.fpu fpv4-sp-d16
 3062              	HAL_PCD_EP_GetRxCount:
 3063              	.LFB150:
1045:./Libraries/STM32F4xx_HAL_Driver/Src/stm32f4xx_hal_pcd.c **** 
1046:./Libraries/STM32F4xx_HAL_Driver/Src/stm32f4xx_hal_pcd.c **** /**
1047:./Libraries/STM32F4xx_HAL_Driver/Src/stm32f4xx_hal_pcd.c ****   * @brief  Get Received Data Size.
1048:./Libraries/STM32F4xx_HAL_Driver/Src/stm32f4xx_hal_pcd.c ****   * @param  hpcd PCD handle
1049:./Libraries/STM32F4xx_HAL_Driver/Src/stm32f4xx_hal_pcd.c ****   * @param  ep_addr endpoint address
1050:./Libraries/STM32F4xx_HAL_Driver/Src/stm32f4xx_hal_pcd.c ****   * @retval Data Size
1051:./Libraries/STM32F4xx_HAL_Driver/Src/stm32f4xx_hal_pcd.c ****   */
1052:./Libraries/STM32F4xx_HAL_Driver/Src/stm32f4xx_hal_pcd.c **** uint16_t HAL_PCD_EP_GetRxCount(PCD_HandleTypeDef *hpcd, uint8_t ep_addr)
1053:./Libraries/STM32F4xx_HAL_Driver/Src/stm32f4xx_hal_pcd.c **** {
 3064              		.loc 1 1053 1
 3065              		.cfi_startproc
 3066              		@ args = 0, pretend = 0, frame = 8
 3067              		@ frame_needed = 1, uses_anonymous_args = 0
 3068              		@ link register save eliminated.
 3069 0000 80B4     		push	{r7}
 3070              	.LCFI133:
 3071              		.cfi_def_cfa_offset 4
 3072              		.cfi_offset 7, -4
 3073 0002 83B0     		sub	sp, sp, #12
 3074              	.LCFI134:
 3075              		.cfi_def_cfa_offset 16
 3076 0004 00AF     		add	r7, sp, #0
 3077              	.LCFI135:
 3078              		.cfi_def_cfa_register 7
 3079 0006 7860     		str	r0, [r7, #4]
 3080 0008 0B46     		mov	r3, r1
 3081 000a FB70     		strb	r3, [r7, #3]
1054:./Libraries/STM32F4xx_HAL_Driver/Src/stm32f4xx_hal_pcd.c ****   return hpcd->OUT_ep[ep_addr & 0xF].xfer_count;
 3082              		.loc 1 1054 31
 3083 000c FB78     		ldrb	r3, [r7, #3]	@ zero_extendqisi2
 3084 000e 03F00F02 		and	r2, r3, #15
 3085              		.loc 1 1054 37
 3086 0012 7968     		ldr	r1, [r7, #4]
 3087 0014 1346     		mov	r3, r2
 3088 0016 DB00     		lsls	r3, r3, #3
 3089 0018 9B1A     		subs	r3, r3, r2
ARM GAS  /tmp/ccNCvjXU.s 			page 73


 3090 001a 9B00     		lsls	r3, r3, #2
 3091 001c 0B44     		add	r3, r3, r1
 3092 001e 03F50473 		add	r3, r3, #528
 3093 0022 1B68     		ldr	r3, [r3]
 3094 0024 9BB2     		uxth	r3, r3
1055:./Libraries/STM32F4xx_HAL_Driver/Src/stm32f4xx_hal_pcd.c **** }
 3095              		.loc 1 1055 1
 3096 0026 1846     		mov	r0, r3
 3097 0028 0C37     		adds	r7, r7, #12
 3098              	.LCFI136:
 3099              		.cfi_def_cfa_offset 4
 3100 002a BD46     		mov	sp, r7
 3101              	.LCFI137:
 3102              		.cfi_def_cfa_register 13
 3103              		@ sp needed
 3104 002c 5DF8047B 		ldr	r7, [sp], #4
 3105              	.LCFI138:
 3106              		.cfi_restore 7
 3107              		.cfi_def_cfa_offset 0
 3108 0030 7047     		bx	lr
 3109              		.cfi_endproc
 3110              	.LFE150:
 3112              		.section	.text.HAL_PCD_EP_Transmit,"ax",%progbits
 3113              		.align	1
 3114              		.global	HAL_PCD_EP_Transmit
 3115              		.syntax unified
 3116              		.thumb
 3117              		.thumb_func
 3118              		.fpu fpv4-sp-d16
 3120              	HAL_PCD_EP_Transmit:
 3121              	.LFB151:
1056:./Libraries/STM32F4xx_HAL_Driver/Src/stm32f4xx_hal_pcd.c **** /**
1057:./Libraries/STM32F4xx_HAL_Driver/Src/stm32f4xx_hal_pcd.c ****   * @brief  Send an amount of data.  
1058:./Libraries/STM32F4xx_HAL_Driver/Src/stm32f4xx_hal_pcd.c ****   * @param  hpcd PCD handle
1059:./Libraries/STM32F4xx_HAL_Driver/Src/stm32f4xx_hal_pcd.c ****   * @param  ep_addr endpoint address
1060:./Libraries/STM32F4xx_HAL_Driver/Src/stm32f4xx_hal_pcd.c ****   * @param  pBuf pointer to the transmission buffer   
1061:./Libraries/STM32F4xx_HAL_Driver/Src/stm32f4xx_hal_pcd.c ****   * @param  len amount of data to be sent
1062:./Libraries/STM32F4xx_HAL_Driver/Src/stm32f4xx_hal_pcd.c ****   * @retval HAL status
1063:./Libraries/STM32F4xx_HAL_Driver/Src/stm32f4xx_hal_pcd.c ****   */
1064:./Libraries/STM32F4xx_HAL_Driver/Src/stm32f4xx_hal_pcd.c **** HAL_StatusTypeDef HAL_PCD_EP_Transmit(PCD_HandleTypeDef *hpcd, uint8_t ep_addr, uint8_t *pBuf, uint
1065:./Libraries/STM32F4xx_HAL_Driver/Src/stm32f4xx_hal_pcd.c **** {
 3122              		.loc 1 1065 1
 3123              		.cfi_startproc
 3124              		@ args = 0, pretend = 0, frame = 24
 3125              		@ frame_needed = 1, uses_anonymous_args = 0
 3126 0000 80B5     		push	{r7, lr}
 3127              	.LCFI139:
 3128              		.cfi_def_cfa_offset 8
 3129              		.cfi_offset 7, -8
 3130              		.cfi_offset 14, -4
 3131 0002 86B0     		sub	sp, sp, #24
 3132              	.LCFI140:
 3133              		.cfi_def_cfa_offset 32
 3134 0004 00AF     		add	r7, sp, #0
 3135              	.LCFI141:
 3136              		.cfi_def_cfa_register 7
 3137 0006 F860     		str	r0, [r7, #12]
ARM GAS  /tmp/ccNCvjXU.s 			page 74


 3138 0008 7A60     		str	r2, [r7, #4]
 3139 000a 3B60     		str	r3, [r7]
 3140 000c 0B46     		mov	r3, r1
 3141 000e FB72     		strb	r3, [r7, #11]
1066:./Libraries/STM32F4xx_HAL_Driver/Src/stm32f4xx_hal_pcd.c ****   USB_OTG_EPTypeDef *ep;
1067:./Libraries/STM32F4xx_HAL_Driver/Src/stm32f4xx_hal_pcd.c ****   
1068:./Libraries/STM32F4xx_HAL_Driver/Src/stm32f4xx_hal_pcd.c ****   ep = &hpcd->IN_ep[ep_addr & 0x7F];
 3142              		.loc 1 1068 29
 3143 0010 FB7A     		ldrb	r3, [r7, #11]	@ zero_extendqisi2
 3144 0012 03F07F02 		and	r2, r3, #127
 3145              		.loc 1 1068 6
 3146 0016 1346     		mov	r3, r2
 3147 0018 DB00     		lsls	r3, r3, #3
 3148 001a 9B1A     		subs	r3, r3, r2
 3149 001c 9B00     		lsls	r3, r3, #2
 3150 001e 3833     		adds	r3, r3, #56
 3151 0020 FA68     		ldr	r2, [r7, #12]
 3152 0022 1344     		add	r3, r3, r2
 3153 0024 7B61     		str	r3, [r7, #20]
1069:./Libraries/STM32F4xx_HAL_Driver/Src/stm32f4xx_hal_pcd.c ****   
1070:./Libraries/STM32F4xx_HAL_Driver/Src/stm32f4xx_hal_pcd.c ****   /*setup and start the Xfer */
1071:./Libraries/STM32F4xx_HAL_Driver/Src/stm32f4xx_hal_pcd.c ****   ep->xfer_buff = pBuf;  
 3154              		.loc 1 1071 17
 3155 0026 7B69     		ldr	r3, [r7, #20]
 3156 0028 7A68     		ldr	r2, [r7, #4]
 3157 002a DA60     		str	r2, [r3, #12]
1072:./Libraries/STM32F4xx_HAL_Driver/Src/stm32f4xx_hal_pcd.c ****   ep->xfer_len = len;
 3158              		.loc 1 1072 16
 3159 002c 7B69     		ldr	r3, [r7, #20]
 3160 002e 3A68     		ldr	r2, [r7]
 3161 0030 5A61     		str	r2, [r3, #20]
1073:./Libraries/STM32F4xx_HAL_Driver/Src/stm32f4xx_hal_pcd.c ****   ep->xfer_count = 0U;
 3162              		.loc 1 1073 18
 3163 0032 7B69     		ldr	r3, [r7, #20]
 3164 0034 0022     		movs	r2, #0
 3165 0036 9A61     		str	r2, [r3, #24]
1074:./Libraries/STM32F4xx_HAL_Driver/Src/stm32f4xx_hal_pcd.c ****   ep->is_in = 1U;
 3166              		.loc 1 1074 13
 3167 0038 7B69     		ldr	r3, [r7, #20]
 3168 003a 0122     		movs	r2, #1
 3169 003c 5A70     		strb	r2, [r3, #1]
1075:./Libraries/STM32F4xx_HAL_Driver/Src/stm32f4xx_hal_pcd.c ****   ep->num = ep_addr & 0x7F;
 3170              		.loc 1 1075 21
 3171 003e FB7A     		ldrb	r3, [r7, #11]
 3172 0040 03F07F03 		and	r3, r3, #127
 3173 0044 DAB2     		uxtb	r2, r3
 3174              		.loc 1 1075 11
 3175 0046 7B69     		ldr	r3, [r7, #20]
 3176 0048 1A70     		strb	r2, [r3]
1076:./Libraries/STM32F4xx_HAL_Driver/Src/stm32f4xx_hal_pcd.c ****   
1077:./Libraries/STM32F4xx_HAL_Driver/Src/stm32f4xx_hal_pcd.c ****   if (hpcd->Init.dma_enable == 1U)
 3177              		.loc 1 1077 17
 3178 004a FB68     		ldr	r3, [r7, #12]
 3179 004c 1B69     		ldr	r3, [r3, #16]
 3180              		.loc 1 1077 6
 3181 004e 012B     		cmp	r3, #1
 3182 0050 02D1     		bne	.L113
ARM GAS  /tmp/ccNCvjXU.s 			page 75


1078:./Libraries/STM32F4xx_HAL_Driver/Src/stm32f4xx_hal_pcd.c ****   {
1079:./Libraries/STM32F4xx_HAL_Driver/Src/stm32f4xx_hal_pcd.c ****     ep->dma_addr = (uint32_t)pBuf;  
 3183              		.loc 1 1079 20
 3184 0052 7A68     		ldr	r2, [r7, #4]
 3185              		.loc 1 1079 18
 3186 0054 7B69     		ldr	r3, [r7, #20]
 3187 0056 1A61     		str	r2, [r3, #16]
 3188              	.L113:
1080:./Libraries/STM32F4xx_HAL_Driver/Src/stm32f4xx_hal_pcd.c ****   }
1081:./Libraries/STM32F4xx_HAL_Driver/Src/stm32f4xx_hal_pcd.c ****   
1082:./Libraries/STM32F4xx_HAL_Driver/Src/stm32f4xx_hal_pcd.c ****   if ((ep_addr & 0x7F) == 0)
 3189              		.loc 1 1082 16
 3190 0058 FB7A     		ldrb	r3, [r7, #11]	@ zero_extendqisi2
 3191 005a 03F07F03 		and	r3, r3, #127
 3192              		.loc 1 1082 6
 3193 005e 002B     		cmp	r3, #0
 3194 0060 09D1     		bne	.L114
1083:./Libraries/STM32F4xx_HAL_Driver/Src/stm32f4xx_hal_pcd.c ****   {
1084:./Libraries/STM32F4xx_HAL_Driver/Src/stm32f4xx_hal_pcd.c ****     USB_EP0StartXfer(hpcd->Instance , ep, hpcd->Init.dma_enable);
 3195              		.loc 1 1084 26
 3196 0062 FB68     		ldr	r3, [r7, #12]
 3197 0064 1868     		ldr	r0, [r3]
 3198              		.loc 1 1084 53
 3199 0066 FB68     		ldr	r3, [r7, #12]
 3200 0068 1B69     		ldr	r3, [r3, #16]
 3201              		.loc 1 1084 5
 3202 006a DBB2     		uxtb	r3, r3
 3203 006c 1A46     		mov	r2, r3
 3204 006e 7969     		ldr	r1, [r7, #20]
 3205 0070 FFF7FEFF 		bl	USB_EP0StartXfer
 3206 0074 08E0     		b	.L115
 3207              	.L114:
1085:./Libraries/STM32F4xx_HAL_Driver/Src/stm32f4xx_hal_pcd.c ****   }
1086:./Libraries/STM32F4xx_HAL_Driver/Src/stm32f4xx_hal_pcd.c ****   else
1087:./Libraries/STM32F4xx_HAL_Driver/Src/stm32f4xx_hal_pcd.c ****   {
1088:./Libraries/STM32F4xx_HAL_Driver/Src/stm32f4xx_hal_pcd.c ****     USB_EPStartXfer(hpcd->Instance , ep, hpcd->Init.dma_enable);
 3208              		.loc 1 1088 25
 3209 0076 FB68     		ldr	r3, [r7, #12]
 3210 0078 1868     		ldr	r0, [r3]
 3211              		.loc 1 1088 52
 3212 007a FB68     		ldr	r3, [r7, #12]
 3213 007c 1B69     		ldr	r3, [r3, #16]
 3214              		.loc 1 1088 5
 3215 007e DBB2     		uxtb	r3, r3
 3216 0080 1A46     		mov	r2, r3
 3217 0082 7969     		ldr	r1, [r7, #20]
 3218 0084 FFF7FEFF 		bl	USB_EPStartXfer
 3219              	.L115:
1089:./Libraries/STM32F4xx_HAL_Driver/Src/stm32f4xx_hal_pcd.c ****   }
1090:./Libraries/STM32F4xx_HAL_Driver/Src/stm32f4xx_hal_pcd.c ****   
1091:./Libraries/STM32F4xx_HAL_Driver/Src/stm32f4xx_hal_pcd.c ****   return HAL_OK;
 3220              		.loc 1 1091 10
 3221 0088 0023     		movs	r3, #0
1092:./Libraries/STM32F4xx_HAL_Driver/Src/stm32f4xx_hal_pcd.c **** }
 3222              		.loc 1 1092 1
 3223 008a 1846     		mov	r0, r3
 3224 008c 1837     		adds	r7, r7, #24
ARM GAS  /tmp/ccNCvjXU.s 			page 76


 3225              	.LCFI142:
 3226              		.cfi_def_cfa_offset 8
 3227 008e BD46     		mov	sp, r7
 3228              	.LCFI143:
 3229              		.cfi_def_cfa_register 13
 3230              		@ sp needed
 3231 0090 80BD     		pop	{r7, pc}
 3232              		.cfi_endproc
 3233              	.LFE151:
 3235              		.section	.text.HAL_PCD_EP_SetStall,"ax",%progbits
 3236              		.align	1
 3237              		.global	HAL_PCD_EP_SetStall
 3238              		.syntax unified
 3239              		.thumb
 3240              		.thumb_func
 3241              		.fpu fpv4-sp-d16
 3243              	HAL_PCD_EP_SetStall:
 3244              	.LFB152:
1093:./Libraries/STM32F4xx_HAL_Driver/Src/stm32f4xx_hal_pcd.c **** 
1094:./Libraries/STM32F4xx_HAL_Driver/Src/stm32f4xx_hal_pcd.c **** /**
1095:./Libraries/STM32F4xx_HAL_Driver/Src/stm32f4xx_hal_pcd.c ****   * @brief  Set a STALL condition over an endpoint.
1096:./Libraries/STM32F4xx_HAL_Driver/Src/stm32f4xx_hal_pcd.c ****   * @param  hpcd PCD handle
1097:./Libraries/STM32F4xx_HAL_Driver/Src/stm32f4xx_hal_pcd.c ****   * @param  ep_addr endpoint address
1098:./Libraries/STM32F4xx_HAL_Driver/Src/stm32f4xx_hal_pcd.c ****   * @retval HAL status
1099:./Libraries/STM32F4xx_HAL_Driver/Src/stm32f4xx_hal_pcd.c ****   */
1100:./Libraries/STM32F4xx_HAL_Driver/Src/stm32f4xx_hal_pcd.c **** HAL_StatusTypeDef HAL_PCD_EP_SetStall(PCD_HandleTypeDef *hpcd, uint8_t ep_addr)
1101:./Libraries/STM32F4xx_HAL_Driver/Src/stm32f4xx_hal_pcd.c **** {
 3245              		.loc 1 1101 1
 3246              		.cfi_startproc
 3247              		@ args = 0, pretend = 0, frame = 16
 3248              		@ frame_needed = 1, uses_anonymous_args = 0
 3249 0000 80B5     		push	{r7, lr}
 3250              	.LCFI144:
 3251              		.cfi_def_cfa_offset 8
 3252              		.cfi_offset 7, -8
 3253              		.cfi_offset 14, -4
 3254 0002 84B0     		sub	sp, sp, #16
 3255              	.LCFI145:
 3256              		.cfi_def_cfa_offset 24
 3257 0004 00AF     		add	r7, sp, #0
 3258              	.LCFI146:
 3259              		.cfi_def_cfa_register 7
 3260 0006 7860     		str	r0, [r7, #4]
 3261 0008 0B46     		mov	r3, r1
 3262 000a FB70     		strb	r3, [r7, #3]
1102:./Libraries/STM32F4xx_HAL_Driver/Src/stm32f4xx_hal_pcd.c ****   USB_OTG_EPTypeDef *ep;
1103:./Libraries/STM32F4xx_HAL_Driver/Src/stm32f4xx_hal_pcd.c ****   
1104:./Libraries/STM32F4xx_HAL_Driver/Src/stm32f4xx_hal_pcd.c ****   if ((0x80 & ep_addr) == 0x80)
 3263              		.loc 1 1104 24
 3264 000c 97F90330 		ldrsb	r3, [r7, #3]
 3265              		.loc 1 1104 6
 3266 0010 002B     		cmp	r3, #0
 3267 0012 0BDA     		bge	.L118
1105:./Libraries/STM32F4xx_HAL_Driver/Src/stm32f4xx_hal_pcd.c ****   {
1106:./Libraries/STM32F4xx_HAL_Driver/Src/stm32f4xx_hal_pcd.c ****     ep = &hpcd->IN_ep[ep_addr & 0x7F];
 3268              		.loc 1 1106 31
 3269 0014 FB78     		ldrb	r3, [r7, #3]	@ zero_extendqisi2
ARM GAS  /tmp/ccNCvjXU.s 			page 77


 3270 0016 03F07F02 		and	r2, r3, #127
 3271              		.loc 1 1106 8
 3272 001a 1346     		mov	r3, r2
 3273 001c DB00     		lsls	r3, r3, #3
 3274 001e 9B1A     		subs	r3, r3, r2
 3275 0020 9B00     		lsls	r3, r3, #2
 3276 0022 3833     		adds	r3, r3, #56
 3277 0024 7A68     		ldr	r2, [r7, #4]
 3278 0026 1344     		add	r3, r3, r2
 3279 0028 FB60     		str	r3, [r7, #12]
 3280 002a 09E0     		b	.L119
 3281              	.L118:
1107:./Libraries/STM32F4xx_HAL_Driver/Src/stm32f4xx_hal_pcd.c ****   }
1108:./Libraries/STM32F4xx_HAL_Driver/Src/stm32f4xx_hal_pcd.c ****   else
1109:./Libraries/STM32F4xx_HAL_Driver/Src/stm32f4xx_hal_pcd.c ****   {
1110:./Libraries/STM32F4xx_HAL_Driver/Src/stm32f4xx_hal_pcd.c ****     ep = &hpcd->OUT_ep[ep_addr];
 3282              		.loc 1 1110 23
 3283 002c FA78     		ldrb	r2, [r7, #3]	@ zero_extendqisi2
 3284              		.loc 1 1110 8
 3285 002e 1346     		mov	r3, r2
 3286 0030 DB00     		lsls	r3, r3, #3
 3287 0032 9B1A     		subs	r3, r3, r2
 3288 0034 9B00     		lsls	r3, r3, #2
 3289 0036 03F5FC73 		add	r3, r3, #504
 3290 003a 7A68     		ldr	r2, [r7, #4]
 3291 003c 1344     		add	r3, r3, r2
 3292 003e FB60     		str	r3, [r7, #12]
 3293              	.L119:
1111:./Libraries/STM32F4xx_HAL_Driver/Src/stm32f4xx_hal_pcd.c ****   }
1112:./Libraries/STM32F4xx_HAL_Driver/Src/stm32f4xx_hal_pcd.c ****   
1113:./Libraries/STM32F4xx_HAL_Driver/Src/stm32f4xx_hal_pcd.c ****   ep->is_stall = 1U;
 3294              		.loc 1 1113 16
 3295 0040 FB68     		ldr	r3, [r7, #12]
 3296 0042 0122     		movs	r2, #1
 3297 0044 9A70     		strb	r2, [r3, #2]
1114:./Libraries/STM32F4xx_HAL_Driver/Src/stm32f4xx_hal_pcd.c ****   ep->num   = ep_addr & 0x7F;
 3298              		.loc 1 1114 23
 3299 0046 FB78     		ldrb	r3, [r7, #3]
 3300 0048 03F07F03 		and	r3, r3, #127
 3301 004c DAB2     		uxtb	r2, r3
 3302              		.loc 1 1114 13
 3303 004e FB68     		ldr	r3, [r7, #12]
 3304 0050 1A70     		strb	r2, [r3]
1115:./Libraries/STM32F4xx_HAL_Driver/Src/stm32f4xx_hal_pcd.c ****   ep->is_in = ((ep_addr & 0x80) == 0x80);
 3305              		.loc 1 1115 33
 3306 0052 97F90330 		ldrsb	r3, [r7, #3]
 3307 0056 DBB2     		uxtb	r3, r3
 3308 0058 DB09     		lsrs	r3, r3, #7
 3309 005a DBB2     		uxtb	r3, r3
 3310 005c 1A46     		mov	r2, r3
 3311              		.loc 1 1115 13
 3312 005e FB68     		ldr	r3, [r7, #12]
 3313 0060 5A70     		strb	r2, [r3, #1]
1116:./Libraries/STM32F4xx_HAL_Driver/Src/stm32f4xx_hal_pcd.c ****   
1117:./Libraries/STM32F4xx_HAL_Driver/Src/stm32f4xx_hal_pcd.c ****   
1118:./Libraries/STM32F4xx_HAL_Driver/Src/stm32f4xx_hal_pcd.c ****   __HAL_LOCK(hpcd); 
 3314              		.loc 1 1118 3
ARM GAS  /tmp/ccNCvjXU.s 			page 78


 3315 0062 7B68     		ldr	r3, [r7, #4]
 3316 0064 93F8B833 		ldrb	r3, [r3, #952]	@ zero_extendqisi2
 3317 0068 012B     		cmp	r3, #1
 3318 006a 01D1     		bne	.L120
 3319              		.loc 1 1118 3 is_stmt 0 discriminator 1
 3320 006c 0223     		movs	r3, #2
 3321 006e 1EE0     		b	.L121
 3322              	.L120:
 3323              		.loc 1 1118 3 discriminator 2
 3324 0070 7B68     		ldr	r3, [r7, #4]
 3325 0072 0122     		movs	r2, #1
 3326 0074 83F8B823 		strb	r2, [r3, #952]
1119:./Libraries/STM32F4xx_HAL_Driver/Src/stm32f4xx_hal_pcd.c ****   USB_EPSetStall(hpcd->Instance , ep);
 3327              		.loc 1 1119 22 is_stmt 1 discriminator 2
 3328 0078 7B68     		ldr	r3, [r7, #4]
 3329 007a 1B68     		ldr	r3, [r3]
 3330              		.loc 1 1119 3 discriminator 2
 3331 007c F968     		ldr	r1, [r7, #12]
 3332 007e 1846     		mov	r0, r3
 3333 0080 FFF7FEFF 		bl	USB_EPSetStall
1120:./Libraries/STM32F4xx_HAL_Driver/Src/stm32f4xx_hal_pcd.c ****   if((ep_addr & 0x7F) == 0)
 3334              		.loc 1 1120 15 discriminator 2
 3335 0084 FB78     		ldrb	r3, [r7, #3]	@ zero_extendqisi2
 3336 0086 03F07F03 		and	r3, r3, #127
 3337              		.loc 1 1120 5 discriminator 2
 3338 008a 002B     		cmp	r3, #0
 3339 008c 0AD1     		bne	.L122
1121:./Libraries/STM32F4xx_HAL_Driver/Src/stm32f4xx_hal_pcd.c ****   {
1122:./Libraries/STM32F4xx_HAL_Driver/Src/stm32f4xx_hal_pcd.c ****     USB_EP0_OutStart(hpcd->Instance, hpcd->Init.dma_enable, (uint8_t *)hpcd->Setup);
 3340              		.loc 1 1122 26
 3341 008e 7B68     		ldr	r3, [r7, #4]
 3342 0090 1868     		ldr	r0, [r3]
 3343              		.loc 1 1122 48
 3344 0092 7B68     		ldr	r3, [r7, #4]
 3345 0094 1B69     		ldr	r3, [r3, #16]
 3346              		.loc 1 1122 5
 3347 0096 D9B2     		uxtb	r1, r3
 3348              		.loc 1 1122 72
 3349 0098 7B68     		ldr	r3, [r7, #4]
 3350 009a 03F56F73 		add	r3, r3, #956
 3351              		.loc 1 1122 5
 3352 009e 1A46     		mov	r2, r3
 3353 00a0 FFF7FEFF 		bl	USB_EP0_OutStart
 3354              	.L122:
1123:./Libraries/STM32F4xx_HAL_Driver/Src/stm32f4xx_hal_pcd.c ****   }
1124:./Libraries/STM32F4xx_HAL_Driver/Src/stm32f4xx_hal_pcd.c ****   __HAL_UNLOCK(hpcd); 
 3355              		.loc 1 1124 3
 3356 00a4 7B68     		ldr	r3, [r7, #4]
 3357 00a6 0022     		movs	r2, #0
 3358 00a8 83F8B823 		strb	r2, [r3, #952]
1125:./Libraries/STM32F4xx_HAL_Driver/Src/stm32f4xx_hal_pcd.c ****   
1126:./Libraries/STM32F4xx_HAL_Driver/Src/stm32f4xx_hal_pcd.c ****   return HAL_OK;
 3359              		.loc 1 1126 10
 3360 00ac 0023     		movs	r3, #0
 3361              	.L121:
1127:./Libraries/STM32F4xx_HAL_Driver/Src/stm32f4xx_hal_pcd.c **** }
 3362              		.loc 1 1127 1
ARM GAS  /tmp/ccNCvjXU.s 			page 79


 3363 00ae 1846     		mov	r0, r3
 3364 00b0 1037     		adds	r7, r7, #16
 3365              	.LCFI147:
 3366              		.cfi_def_cfa_offset 8
 3367 00b2 BD46     		mov	sp, r7
 3368              	.LCFI148:
 3369              		.cfi_def_cfa_register 13
 3370              		@ sp needed
 3371 00b4 80BD     		pop	{r7, pc}
 3372              		.cfi_endproc
 3373              	.LFE152:
 3375              		.section	.text.HAL_PCD_EP_ClrStall,"ax",%progbits
 3376              		.align	1
 3377              		.global	HAL_PCD_EP_ClrStall
 3378              		.syntax unified
 3379              		.thumb
 3380              		.thumb_func
 3381              		.fpu fpv4-sp-d16
 3383              	HAL_PCD_EP_ClrStall:
 3384              	.LFB153:
1128:./Libraries/STM32F4xx_HAL_Driver/Src/stm32f4xx_hal_pcd.c **** 
1129:./Libraries/STM32F4xx_HAL_Driver/Src/stm32f4xx_hal_pcd.c **** /**
1130:./Libraries/STM32F4xx_HAL_Driver/Src/stm32f4xx_hal_pcd.c ****   * @brief  Clear a STALL condition over in an endpoint.
1131:./Libraries/STM32F4xx_HAL_Driver/Src/stm32f4xx_hal_pcd.c ****   * @param  hpcd PCD handle
1132:./Libraries/STM32F4xx_HAL_Driver/Src/stm32f4xx_hal_pcd.c ****   * @param  ep_addr endpoint address
1133:./Libraries/STM32F4xx_HAL_Driver/Src/stm32f4xx_hal_pcd.c ****   * @retval HAL status
1134:./Libraries/STM32F4xx_HAL_Driver/Src/stm32f4xx_hal_pcd.c ****   */
1135:./Libraries/STM32F4xx_HAL_Driver/Src/stm32f4xx_hal_pcd.c **** HAL_StatusTypeDef HAL_PCD_EP_ClrStall(PCD_HandleTypeDef *hpcd, uint8_t ep_addr)
1136:./Libraries/STM32F4xx_HAL_Driver/Src/stm32f4xx_hal_pcd.c **** {
 3385              		.loc 1 1136 1
 3386              		.cfi_startproc
 3387              		@ args = 0, pretend = 0, frame = 16
 3388              		@ frame_needed = 1, uses_anonymous_args = 0
 3389 0000 80B5     		push	{r7, lr}
 3390              	.LCFI149:
 3391              		.cfi_def_cfa_offset 8
 3392              		.cfi_offset 7, -8
 3393              		.cfi_offset 14, -4
 3394 0002 84B0     		sub	sp, sp, #16
 3395              	.LCFI150:
 3396              		.cfi_def_cfa_offset 24
 3397 0004 00AF     		add	r7, sp, #0
 3398              	.LCFI151:
 3399              		.cfi_def_cfa_register 7
 3400 0006 7860     		str	r0, [r7, #4]
 3401 0008 0B46     		mov	r3, r1
 3402 000a FB70     		strb	r3, [r7, #3]
1137:./Libraries/STM32F4xx_HAL_Driver/Src/stm32f4xx_hal_pcd.c ****   USB_OTG_EPTypeDef *ep;
1138:./Libraries/STM32F4xx_HAL_Driver/Src/stm32f4xx_hal_pcd.c ****   
1139:./Libraries/STM32F4xx_HAL_Driver/Src/stm32f4xx_hal_pcd.c ****   if ((0x80 & ep_addr) == 0x80)
 3403              		.loc 1 1139 24
 3404 000c 97F90330 		ldrsb	r3, [r7, #3]
 3405              		.loc 1 1139 6
 3406 0010 002B     		cmp	r3, #0
 3407 0012 0BDA     		bge	.L124
1140:./Libraries/STM32F4xx_HAL_Driver/Src/stm32f4xx_hal_pcd.c ****   {
1141:./Libraries/STM32F4xx_HAL_Driver/Src/stm32f4xx_hal_pcd.c ****     ep = &hpcd->IN_ep[ep_addr & 0x7F];
ARM GAS  /tmp/ccNCvjXU.s 			page 80


 3408              		.loc 1 1141 31
 3409 0014 FB78     		ldrb	r3, [r7, #3]	@ zero_extendqisi2
 3410 0016 03F07F02 		and	r2, r3, #127
 3411              		.loc 1 1141 8
 3412 001a 1346     		mov	r3, r2
 3413 001c DB00     		lsls	r3, r3, #3
 3414 001e 9B1A     		subs	r3, r3, r2
 3415 0020 9B00     		lsls	r3, r3, #2
 3416 0022 3833     		adds	r3, r3, #56
 3417 0024 7A68     		ldr	r2, [r7, #4]
 3418 0026 1344     		add	r3, r3, r2
 3419 0028 FB60     		str	r3, [r7, #12]
 3420 002a 09E0     		b	.L125
 3421              	.L124:
1142:./Libraries/STM32F4xx_HAL_Driver/Src/stm32f4xx_hal_pcd.c ****   }
1143:./Libraries/STM32F4xx_HAL_Driver/Src/stm32f4xx_hal_pcd.c ****   else
1144:./Libraries/STM32F4xx_HAL_Driver/Src/stm32f4xx_hal_pcd.c ****   {
1145:./Libraries/STM32F4xx_HAL_Driver/Src/stm32f4xx_hal_pcd.c ****     ep = &hpcd->OUT_ep[ep_addr];
 3422              		.loc 1 1145 23
 3423 002c FA78     		ldrb	r2, [r7, #3]	@ zero_extendqisi2
 3424              		.loc 1 1145 8
 3425 002e 1346     		mov	r3, r2
 3426 0030 DB00     		lsls	r3, r3, #3
 3427 0032 9B1A     		subs	r3, r3, r2
 3428 0034 9B00     		lsls	r3, r3, #2
 3429 0036 03F5FC73 		add	r3, r3, #504
 3430 003a 7A68     		ldr	r2, [r7, #4]
 3431 003c 1344     		add	r3, r3, r2
 3432 003e FB60     		str	r3, [r7, #12]
 3433              	.L125:
1146:./Libraries/STM32F4xx_HAL_Driver/Src/stm32f4xx_hal_pcd.c ****   }
1147:./Libraries/STM32F4xx_HAL_Driver/Src/stm32f4xx_hal_pcd.c ****   
1148:./Libraries/STM32F4xx_HAL_Driver/Src/stm32f4xx_hal_pcd.c ****   ep->is_stall = 0U;
 3434              		.loc 1 1148 16
 3435 0040 FB68     		ldr	r3, [r7, #12]
 3436 0042 0022     		movs	r2, #0
 3437 0044 9A70     		strb	r2, [r3, #2]
1149:./Libraries/STM32F4xx_HAL_Driver/Src/stm32f4xx_hal_pcd.c ****   ep->num   = ep_addr & 0x7F;
 3438              		.loc 1 1149 23
 3439 0046 FB78     		ldrb	r3, [r7, #3]
 3440 0048 03F07F03 		and	r3, r3, #127
 3441 004c DAB2     		uxtb	r2, r3
 3442              		.loc 1 1149 13
 3443 004e FB68     		ldr	r3, [r7, #12]
 3444 0050 1A70     		strb	r2, [r3]
1150:./Libraries/STM32F4xx_HAL_Driver/Src/stm32f4xx_hal_pcd.c ****   ep->is_in = ((ep_addr & 0x80) == 0x80);
 3445              		.loc 1 1150 33
 3446 0052 97F90330 		ldrsb	r3, [r7, #3]
 3447 0056 DBB2     		uxtb	r3, r3
 3448 0058 DB09     		lsrs	r3, r3, #7
 3449 005a DBB2     		uxtb	r3, r3
 3450 005c 1A46     		mov	r2, r3
 3451              		.loc 1 1150 13
 3452 005e FB68     		ldr	r3, [r7, #12]
 3453 0060 5A70     		strb	r2, [r3, #1]
1151:./Libraries/STM32F4xx_HAL_Driver/Src/stm32f4xx_hal_pcd.c ****   
1152:./Libraries/STM32F4xx_HAL_Driver/Src/stm32f4xx_hal_pcd.c ****   __HAL_LOCK(hpcd); 
ARM GAS  /tmp/ccNCvjXU.s 			page 81


 3454              		.loc 1 1152 3
 3455 0062 7B68     		ldr	r3, [r7, #4]
 3456 0064 93F8B833 		ldrb	r3, [r3, #952]	@ zero_extendqisi2
 3457 0068 012B     		cmp	r3, #1
 3458 006a 01D1     		bne	.L126
 3459              		.loc 1 1152 3 is_stmt 0 discriminator 1
 3460 006c 0223     		movs	r3, #2
 3461 006e 0EE0     		b	.L127
 3462              	.L126:
 3463              		.loc 1 1152 3 discriminator 2
 3464 0070 7B68     		ldr	r3, [r7, #4]
 3465 0072 0122     		movs	r2, #1
 3466 0074 83F8B823 		strb	r2, [r3, #952]
1153:./Libraries/STM32F4xx_HAL_Driver/Src/stm32f4xx_hal_pcd.c ****   USB_EPClearStall(hpcd->Instance , ep);
 3467              		.loc 1 1153 24 is_stmt 1 discriminator 2
 3468 0078 7B68     		ldr	r3, [r7, #4]
 3469 007a 1B68     		ldr	r3, [r3]
 3470              		.loc 1 1153 3 discriminator 2
 3471 007c F968     		ldr	r1, [r7, #12]
 3472 007e 1846     		mov	r0, r3
 3473 0080 FFF7FEFF 		bl	USB_EPClearStall
1154:./Libraries/STM32F4xx_HAL_Driver/Src/stm32f4xx_hal_pcd.c ****   __HAL_UNLOCK(hpcd); 
 3474              		.loc 1 1154 3 discriminator 2
 3475 0084 7B68     		ldr	r3, [r7, #4]
 3476 0086 0022     		movs	r2, #0
 3477 0088 83F8B823 		strb	r2, [r3, #952]
1155:./Libraries/STM32F4xx_HAL_Driver/Src/stm32f4xx_hal_pcd.c ****     
1156:./Libraries/STM32F4xx_HAL_Driver/Src/stm32f4xx_hal_pcd.c ****   return HAL_OK;
 3478              		.loc 1 1156 10 discriminator 2
 3479 008c 0023     		movs	r3, #0
 3480              	.L127:
1157:./Libraries/STM32F4xx_HAL_Driver/Src/stm32f4xx_hal_pcd.c **** }
 3481              		.loc 1 1157 1
 3482 008e 1846     		mov	r0, r3
 3483 0090 1037     		adds	r7, r7, #16
 3484              	.LCFI152:
 3485              		.cfi_def_cfa_offset 8
 3486 0092 BD46     		mov	sp, r7
 3487              	.LCFI153:
 3488              		.cfi_def_cfa_register 13
 3489              		@ sp needed
 3490 0094 80BD     		pop	{r7, pc}
 3491              		.cfi_endproc
 3492              	.LFE153:
 3494              		.section	.text.HAL_PCD_EP_Flush,"ax",%progbits
 3495              		.align	1
 3496              		.global	HAL_PCD_EP_Flush
 3497              		.syntax unified
 3498              		.thumb
 3499              		.thumb_func
 3500              		.fpu fpv4-sp-d16
 3502              	HAL_PCD_EP_Flush:
 3503              	.LFB154:
1158:./Libraries/STM32F4xx_HAL_Driver/Src/stm32f4xx_hal_pcd.c **** 
1159:./Libraries/STM32F4xx_HAL_Driver/Src/stm32f4xx_hal_pcd.c **** /**
1160:./Libraries/STM32F4xx_HAL_Driver/Src/stm32f4xx_hal_pcd.c ****   * @brief  Flush an endpoint.
1161:./Libraries/STM32F4xx_HAL_Driver/Src/stm32f4xx_hal_pcd.c ****   * @param  hpcd PCD handle
ARM GAS  /tmp/ccNCvjXU.s 			page 82


1162:./Libraries/STM32F4xx_HAL_Driver/Src/stm32f4xx_hal_pcd.c ****   * @param  ep_addr endpoint address
1163:./Libraries/STM32F4xx_HAL_Driver/Src/stm32f4xx_hal_pcd.c ****   * @retval HAL status
1164:./Libraries/STM32F4xx_HAL_Driver/Src/stm32f4xx_hal_pcd.c ****   */
1165:./Libraries/STM32F4xx_HAL_Driver/Src/stm32f4xx_hal_pcd.c **** HAL_StatusTypeDef HAL_PCD_EP_Flush(PCD_HandleTypeDef *hpcd, uint8_t ep_addr)
1166:./Libraries/STM32F4xx_HAL_Driver/Src/stm32f4xx_hal_pcd.c **** {
 3504              		.loc 1 1166 1
 3505              		.cfi_startproc
 3506              		@ args = 0, pretend = 0, frame = 8
 3507              		@ frame_needed = 1, uses_anonymous_args = 0
 3508 0000 80B5     		push	{r7, lr}
 3509              	.LCFI154:
 3510              		.cfi_def_cfa_offset 8
 3511              		.cfi_offset 7, -8
 3512              		.cfi_offset 14, -4
 3513 0002 82B0     		sub	sp, sp, #8
 3514              	.LCFI155:
 3515              		.cfi_def_cfa_offset 16
 3516 0004 00AF     		add	r7, sp, #0
 3517              	.LCFI156:
 3518              		.cfi_def_cfa_register 7
 3519 0006 7860     		str	r0, [r7, #4]
 3520 0008 0B46     		mov	r3, r1
 3521 000a FB70     		strb	r3, [r7, #3]
1167:./Libraries/STM32F4xx_HAL_Driver/Src/stm32f4xx_hal_pcd.c ****   __HAL_LOCK(hpcd); 
 3522              		.loc 1 1167 3
 3523 000c 7B68     		ldr	r3, [r7, #4]
 3524 000e 93F8B833 		ldrb	r3, [r3, #952]	@ zero_extendqisi2
 3525 0012 012B     		cmp	r3, #1
 3526 0014 01D1     		bne	.L129
 3527              		.loc 1 1167 3 is_stmt 0 discriminator 1
 3528 0016 0223     		movs	r3, #2
 3529 0018 1BE0     		b	.L130
 3530              	.L129:
 3531              		.loc 1 1167 3 discriminator 2
 3532 001a 7B68     		ldr	r3, [r7, #4]
 3533 001c 0122     		movs	r2, #1
 3534 001e 83F8B823 		strb	r2, [r3, #952]
1168:./Libraries/STM32F4xx_HAL_Driver/Src/stm32f4xx_hal_pcd.c ****   
1169:./Libraries/STM32F4xx_HAL_Driver/Src/stm32f4xx_hal_pcd.c ****   if ((ep_addr & 0x80) == 0x80)
 3535              		.loc 1 1169 24 is_stmt 1 discriminator 2
 3536 0022 97F90330 		ldrsb	r3, [r7, #3]
 3537              		.loc 1 1169 6 discriminator 2
 3538 0026 002B     		cmp	r3, #0
 3539 0028 09DA     		bge	.L131
1170:./Libraries/STM32F4xx_HAL_Driver/Src/stm32f4xx_hal_pcd.c ****   {
1171:./Libraries/STM32F4xx_HAL_Driver/Src/stm32f4xx_hal_pcd.c ****     USB_FlushTxFifo(hpcd->Instance, ep_addr & 0x7F);
 3540              		.loc 1 1171 25
 3541 002a 7B68     		ldr	r3, [r7, #4]
 3542 002c 1A68     		ldr	r2, [r3]
 3543              		.loc 1 1171 45
 3544 002e FB78     		ldrb	r3, [r7, #3]	@ zero_extendqisi2
 3545              		.loc 1 1171 5
 3546 0030 03F07F03 		and	r3, r3, #127
 3547 0034 1946     		mov	r1, r3
 3548 0036 1046     		mov	r0, r2
 3549 0038 FFF7FEFF 		bl	USB_FlushTxFifo
 3550 003c 04E0     		b	.L132
ARM GAS  /tmp/ccNCvjXU.s 			page 83


 3551              	.L131:
1172:./Libraries/STM32F4xx_HAL_Driver/Src/stm32f4xx_hal_pcd.c ****   }
1173:./Libraries/STM32F4xx_HAL_Driver/Src/stm32f4xx_hal_pcd.c ****   else
1174:./Libraries/STM32F4xx_HAL_Driver/Src/stm32f4xx_hal_pcd.c ****   {
1175:./Libraries/STM32F4xx_HAL_Driver/Src/stm32f4xx_hal_pcd.c ****     USB_FlushRxFifo(hpcd->Instance);
 3552              		.loc 1 1175 25
 3553 003e 7B68     		ldr	r3, [r7, #4]
 3554 0040 1B68     		ldr	r3, [r3]
 3555              		.loc 1 1175 5
 3556 0042 1846     		mov	r0, r3
 3557 0044 FFF7FEFF 		bl	USB_FlushRxFifo
 3558              	.L132:
1176:./Libraries/STM32F4xx_HAL_Driver/Src/stm32f4xx_hal_pcd.c ****   }
1177:./Libraries/STM32F4xx_HAL_Driver/Src/stm32f4xx_hal_pcd.c ****   
1178:./Libraries/STM32F4xx_HAL_Driver/Src/stm32f4xx_hal_pcd.c ****   __HAL_UNLOCK(hpcd); 
 3559              		.loc 1 1178 3
 3560 0048 7B68     		ldr	r3, [r7, #4]
 3561 004a 0022     		movs	r2, #0
 3562 004c 83F8B823 		strb	r2, [r3, #952]
1179:./Libraries/STM32F4xx_HAL_Driver/Src/stm32f4xx_hal_pcd.c ****     
1180:./Libraries/STM32F4xx_HAL_Driver/Src/stm32f4xx_hal_pcd.c ****   return HAL_OK;
 3563              		.loc 1 1180 10
 3564 0050 0023     		movs	r3, #0
 3565              	.L130:
1181:./Libraries/STM32F4xx_HAL_Driver/Src/stm32f4xx_hal_pcd.c **** }
 3566              		.loc 1 1181 1
 3567 0052 1846     		mov	r0, r3
 3568 0054 0837     		adds	r7, r7, #8
 3569              	.LCFI157:
 3570              		.cfi_def_cfa_offset 8
 3571 0056 BD46     		mov	sp, r7
 3572              	.LCFI158:
 3573              		.cfi_def_cfa_register 13
 3574              		@ sp needed
 3575 0058 80BD     		pop	{r7, pc}
 3576              		.cfi_endproc
 3577              	.LFE154:
 3579              		.section	.text.HAL_PCD_ActivateRemoteWakeup,"ax",%progbits
 3580              		.align	1
 3581              		.global	HAL_PCD_ActivateRemoteWakeup
 3582              		.syntax unified
 3583              		.thumb
 3584              		.thumb_func
 3585              		.fpu fpv4-sp-d16
 3587              	HAL_PCD_ActivateRemoteWakeup:
 3588              	.LFB155:
1182:./Libraries/STM32F4xx_HAL_Driver/Src/stm32f4xx_hal_pcd.c **** 
1183:./Libraries/STM32F4xx_HAL_Driver/Src/stm32f4xx_hal_pcd.c **** /**
1184:./Libraries/STM32F4xx_HAL_Driver/Src/stm32f4xx_hal_pcd.c ****   * @brief  Activate remote wakeup signalling.
1185:./Libraries/STM32F4xx_HAL_Driver/Src/stm32f4xx_hal_pcd.c ****   * @param  hpcd PCD handle
1186:./Libraries/STM32F4xx_HAL_Driver/Src/stm32f4xx_hal_pcd.c ****   * @retval HAL status
