ARM GAS  /tmp/ccpPm7TE.s 			page 1


   1              		.cpu cortex-m4
   2              		.eabi_attribute 27, 1
   3              		.eabi_attribute 28, 1
   4              		.eabi_attribute 20, 1
   5              		.eabi_attribute 21, 1
   6              		.eabi_attribute 23, 3
   7              		.eabi_attribute 24, 1
   8              		.eabi_attribute 25, 1
   9              		.eabi_attribute 26, 1
  10              		.eabi_attribute 30, 6
  11              		.eabi_attribute 34, 1
  12              		.eabi_attribute 18, 4
  13              		.file	"stm32f4xx_hal_tim_ex.c"
  14              		.text
  15              	.Ltext0:
  16              		.cfi_sections	.debug_frame
  17              		.section	.text.HAL_TIMEx_HallSensor_Init,"ax",%progbits
  18              		.align	1
  19              		.global	HAL_TIMEx_HallSensor_Init
  20              		.arch armv7e-m
  21              		.syntax unified
  22              		.thumb
  23              		.thumb_func
  24              		.fpu fpv4-sp-d16
  26              	HAL_TIMEx_HallSensor_Init:
  27              	.LFB126:
  28              		.file 1 "./Libraries/STM32F4xx_HAL_Driver/Src/stm32f4xx_hal_tim_ex.c"
   1:./Libraries/STM32F4xx_HAL_Driver/Src/stm32f4xx_hal_tim_ex.c **** /**
   2:./Libraries/STM32F4xx_HAL_Driver/Src/stm32f4xx_hal_tim_ex.c ****   ******************************************************************************
   3:./Libraries/STM32F4xx_HAL_Driver/Src/stm32f4xx_hal_tim_ex.c ****   * @file    stm32f4xx_hal_tim_ex.c
   4:./Libraries/STM32F4xx_HAL_Driver/Src/stm32f4xx_hal_tim_ex.c ****   * @author  MCD Application Team
   5:./Libraries/STM32F4xx_HAL_Driver/Src/stm32f4xx_hal_tim_ex.c ****   * @brief   TIM HAL module driver.
   6:./Libraries/STM32F4xx_HAL_Driver/Src/stm32f4xx_hal_tim_ex.c ****   *          This file provides firmware functions to manage the following 
   7:./Libraries/STM32F4xx_HAL_Driver/Src/stm32f4xx_hal_tim_ex.c ****   *          functionalities of the Timer extension peripheral:
   8:./Libraries/STM32F4xx_HAL_Driver/Src/stm32f4xx_hal_tim_ex.c ****   *           + Time Hall Sensor Interface Initialization
   9:./Libraries/STM32F4xx_HAL_Driver/Src/stm32f4xx_hal_tim_ex.c ****   *           + Time Hall Sensor Interface Start
  10:./Libraries/STM32F4xx_HAL_Driver/Src/stm32f4xx_hal_tim_ex.c ****   *           + Time Complementary signal bread and dead time configuration  
  11:./Libraries/STM32F4xx_HAL_Driver/Src/stm32f4xx_hal_tim_ex.c ****   *           + Time Master and Slave synchronization configuration
  12:./Libraries/STM32F4xx_HAL_Driver/Src/stm32f4xx_hal_tim_ex.c ****   @verbatim 
  13:./Libraries/STM32F4xx_HAL_Driver/Src/stm32f4xx_hal_tim_ex.c ****   ==============================================================================
  14:./Libraries/STM32F4xx_HAL_Driver/Src/stm32f4xx_hal_tim_ex.c ****                       ##### TIMER Extended features #####
  15:./Libraries/STM32F4xx_HAL_Driver/Src/stm32f4xx_hal_tim_ex.c ****   ==============================================================================
  16:./Libraries/STM32F4xx_HAL_Driver/Src/stm32f4xx_hal_tim_ex.c ****   [..] 
  17:./Libraries/STM32F4xx_HAL_Driver/Src/stm32f4xx_hal_tim_ex.c ****     The Timer Extension features include: 
  18:./Libraries/STM32F4xx_HAL_Driver/Src/stm32f4xx_hal_tim_ex.c ****     (#) Complementary outputs with programmable dead-time for :
  19:./Libraries/STM32F4xx_HAL_Driver/Src/stm32f4xx_hal_tim_ex.c ****         (++) Input Capture
  20:./Libraries/STM32F4xx_HAL_Driver/Src/stm32f4xx_hal_tim_ex.c ****         (++) Output Compare
  21:./Libraries/STM32F4xx_HAL_Driver/Src/stm32f4xx_hal_tim_ex.c ****         (++) PWM generation (Edge and Center-aligned Mode)
  22:./Libraries/STM32F4xx_HAL_Driver/Src/stm32f4xx_hal_tim_ex.c ****         (++) One-pulse mode output
  23:./Libraries/STM32F4xx_HAL_Driver/Src/stm32f4xx_hal_tim_ex.c ****     (#) Synchronization circuit to control the timer with external signals and to 
  24:./Libraries/STM32F4xx_HAL_Driver/Src/stm32f4xx_hal_tim_ex.c ****         interconnect several timers together.
  25:./Libraries/STM32F4xx_HAL_Driver/Src/stm32f4xx_hal_tim_ex.c ****     (#) Break input to put the timer output signals in reset state or in a known state.
  26:./Libraries/STM32F4xx_HAL_Driver/Src/stm32f4xx_hal_tim_ex.c ****     (#) Supports incremental (quadrature) encoder and hall-sensor circuitry for 
  27:./Libraries/STM32F4xx_HAL_Driver/Src/stm32f4xx_hal_tim_ex.c ****         positioning purposes                
  28:./Libraries/STM32F4xx_HAL_Driver/Src/stm32f4xx_hal_tim_ex.c ****    
  29:./Libraries/STM32F4xx_HAL_Driver/Src/stm32f4xx_hal_tim_ex.c ****                         ##### How to use this driver #####
  30:./Libraries/STM32F4xx_HAL_Driver/Src/stm32f4xx_hal_tim_ex.c ****   ==============================================================================
ARM GAS  /tmp/ccpPm7TE.s 			page 2


  31:./Libraries/STM32F4xx_HAL_Driver/Src/stm32f4xx_hal_tim_ex.c ****   [..]
  32:./Libraries/STM32F4xx_HAL_Driver/Src/stm32f4xx_hal_tim_ex.c ****      (#) Initialize the TIM low level resources by implementing the following functions 
  33:./Libraries/STM32F4xx_HAL_Driver/Src/stm32f4xx_hal_tim_ex.c ****          depending from feature used :
  34:./Libraries/STM32F4xx_HAL_Driver/Src/stm32f4xx_hal_tim_ex.c ****            (++) Complementary Output Compare : HAL_TIM_OC_MspInit()
  35:./Libraries/STM32F4xx_HAL_Driver/Src/stm32f4xx_hal_tim_ex.c ****            (++) Complementary PWM generation : HAL_TIM_PWM_MspInit()
  36:./Libraries/STM32F4xx_HAL_Driver/Src/stm32f4xx_hal_tim_ex.c ****            (++) Complementary One-pulse mode output : HAL_TIM_OnePulse_MspInit()
  37:./Libraries/STM32F4xx_HAL_Driver/Src/stm32f4xx_hal_tim_ex.c ****            (++) Hall Sensor output : HAL_TIM_HallSensor_MspInit()
  38:./Libraries/STM32F4xx_HAL_Driver/Src/stm32f4xx_hal_tim_ex.c ****            
  39:./Libraries/STM32F4xx_HAL_Driver/Src/stm32f4xx_hal_tim_ex.c ****      (#) Initialize the TIM low level resources :
  40:./Libraries/STM32F4xx_HAL_Driver/Src/stm32f4xx_hal_tim_ex.c ****         (##) Enable the TIM interface clock using __TIMx_CLK_ENABLE(); 
  41:./Libraries/STM32F4xx_HAL_Driver/Src/stm32f4xx_hal_tim_ex.c ****         (##) TIM pins configuration
  42:./Libraries/STM32F4xx_HAL_Driver/Src/stm32f4xx_hal_tim_ex.c ****             (+++) Enable the clock for the TIM GPIOs using the following function:
  43:./Libraries/STM32F4xx_HAL_Driver/Src/stm32f4xx_hal_tim_ex.c ****                  __GPIOx_CLK_ENABLE();   
  44:./Libraries/STM32F4xx_HAL_Driver/Src/stm32f4xx_hal_tim_ex.c ****             (+++) Configure these TIM pins in Alternate function mode using HAL_GPIO_Init();  
  45:./Libraries/STM32F4xx_HAL_Driver/Src/stm32f4xx_hal_tim_ex.c **** 
  46:./Libraries/STM32F4xx_HAL_Driver/Src/stm32f4xx_hal_tim_ex.c ****      (#) The external Clock can be configured, if needed (the default clock is the 
  47:./Libraries/STM32F4xx_HAL_Driver/Src/stm32f4xx_hal_tim_ex.c ****          internal clock from the APBx), using the following function:
  48:./Libraries/STM32F4xx_HAL_Driver/Src/stm32f4xx_hal_tim_ex.c ****          HAL_TIM_ConfigClockSource, the clock configuration should be done before 
  49:./Libraries/STM32F4xx_HAL_Driver/Src/stm32f4xx_hal_tim_ex.c ****          any start function.
  50:./Libraries/STM32F4xx_HAL_Driver/Src/stm32f4xx_hal_tim_ex.c ****   
  51:./Libraries/STM32F4xx_HAL_Driver/Src/stm32f4xx_hal_tim_ex.c ****     (#) Configure the TIM in the desired functioning mode using one of the 
  52:./Libraries/STM32F4xx_HAL_Driver/Src/stm32f4xx_hal_tim_ex.c ****         initialization function of this driver:
  53:./Libraries/STM32F4xx_HAL_Driver/Src/stm32f4xx_hal_tim_ex.c ****         (++) HAL_TIMEx_HallSensor_Init and HAL_TIMEx_ConfigCommutationEvent: to use the 
  54:./Libraries/STM32F4xx_HAL_Driver/Src/stm32f4xx_hal_tim_ex.c ****              Timer Hall Sensor Interface and the commutation event with the corresponding 
  55:./Libraries/STM32F4xx_HAL_Driver/Src/stm32f4xx_hal_tim_ex.c ****              Interrupt and DMA request if needed (Note that One Timer is used to interface 
  56:./Libraries/STM32F4xx_HAL_Driver/Src/stm32f4xx_hal_tim_ex.c ****              with the Hall sensor Interface and another Timer should be used to use 
  57:./Libraries/STM32F4xx_HAL_Driver/Src/stm32f4xx_hal_tim_ex.c ****              the commutation event).
  58:./Libraries/STM32F4xx_HAL_Driver/Src/stm32f4xx_hal_tim_ex.c **** 
  59:./Libraries/STM32F4xx_HAL_Driver/Src/stm32f4xx_hal_tim_ex.c ****     (#) Activate the TIM peripheral using one of the start functions: 
  60:./Libraries/STM32F4xx_HAL_Driver/Src/stm32f4xx_hal_tim_ex.c ****            (++) Complementary Output Compare : HAL_TIMEx_OCN_Start(), HAL_TIMEx_OCN_Start_DMA(), HA
  61:./Libraries/STM32F4xx_HAL_Driver/Src/stm32f4xx_hal_tim_ex.c ****            (++) Complementary PWM generation : HAL_TIMEx_PWMN_Start(), HAL_TIMEx_PWMN_Start_DMA(), 
  62:./Libraries/STM32F4xx_HAL_Driver/Src/stm32f4xx_hal_tim_ex.c ****            (++) Complementary One-pulse mode output : HAL_TIMEx_OnePulseN_Start(), HAL_TIMEx_OnePul
  63:./Libraries/STM32F4xx_HAL_Driver/Src/stm32f4xx_hal_tim_ex.c ****            (++) Hall Sensor output : HAL_TIMEx_HallSensor_Start(), HAL_TIMEx_HallSensor_Start_DMA()
  64:./Libraries/STM32F4xx_HAL_Driver/Src/stm32f4xx_hal_tim_ex.c **** 
  65:./Libraries/STM32F4xx_HAL_Driver/Src/stm32f4xx_hal_tim_ex.c ****   
  66:./Libraries/STM32F4xx_HAL_Driver/Src/stm32f4xx_hal_tim_ex.c ****   @endverbatim
  67:./Libraries/STM32F4xx_HAL_Driver/Src/stm32f4xx_hal_tim_ex.c ****   ******************************************************************************
  68:./Libraries/STM32F4xx_HAL_Driver/Src/stm32f4xx_hal_tim_ex.c ****   * @attention
  69:./Libraries/STM32F4xx_HAL_Driver/Src/stm32f4xx_hal_tim_ex.c ****   *
  70:./Libraries/STM32F4xx_HAL_Driver/Src/stm32f4xx_hal_tim_ex.c ****   * <h2><center>&copy; COPYRIGHT(c) 2017 STMicroelectronics</center></h2>
  71:./Libraries/STM32F4xx_HAL_Driver/Src/stm32f4xx_hal_tim_ex.c ****   *
  72:./Libraries/STM32F4xx_HAL_Driver/Src/stm32f4xx_hal_tim_ex.c ****   * Redistribution and use in source and binary forms, with or without modification,
  73:./Libraries/STM32F4xx_HAL_Driver/Src/stm32f4xx_hal_tim_ex.c ****   * are permitted provided that the following conditions are met:
  74:./Libraries/STM32F4xx_HAL_Driver/Src/stm32f4xx_hal_tim_ex.c ****   *   1. Redistributions of source code must retain the above copyright notice,
  75:./Libraries/STM32F4xx_HAL_Driver/Src/stm32f4xx_hal_tim_ex.c ****   *      this list of conditions and the following disclaimer.
  76:./Libraries/STM32F4xx_HAL_Driver/Src/stm32f4xx_hal_tim_ex.c ****   *   2. Redistributions in binary form must reproduce the above copyright notice,
  77:./Libraries/STM32F4xx_HAL_Driver/Src/stm32f4xx_hal_tim_ex.c ****   *      this list of conditions and the following disclaimer in the documentation
  78:./Libraries/STM32F4xx_HAL_Driver/Src/stm32f4xx_hal_tim_ex.c ****   *      and/or other materials provided with the distribution.
  79:./Libraries/STM32F4xx_HAL_Driver/Src/stm32f4xx_hal_tim_ex.c ****   *   3. Neither the name of STMicroelectronics nor the names of its contributors
  80:./Libraries/STM32F4xx_HAL_Driver/Src/stm32f4xx_hal_tim_ex.c ****   *      may be used to endorse or promote products derived from this software
  81:./Libraries/STM32F4xx_HAL_Driver/Src/stm32f4xx_hal_tim_ex.c ****   *      without specific prior written permission.
  82:./Libraries/STM32F4xx_HAL_Driver/Src/stm32f4xx_hal_tim_ex.c ****   *
  83:./Libraries/STM32F4xx_HAL_Driver/Src/stm32f4xx_hal_tim_ex.c ****   * THIS SOFTWARE IS PROVIDED BY THE COPYRIGHT HOLDERS AND CONTRIBUTORS "AS IS"
  84:./Libraries/STM32F4xx_HAL_Driver/Src/stm32f4xx_hal_tim_ex.c ****   * AND ANY EXPRESS OR IMPLIED WARRANTIES, INCLUDING, BUT NOT LIMITED TO, THE
  85:./Libraries/STM32F4xx_HAL_Driver/Src/stm32f4xx_hal_tim_ex.c ****   * IMPLIED WARRANTIES OF MERCHANTABILITY AND FITNESS FOR A PARTICULAR PURPOSE ARE
  86:./Libraries/STM32F4xx_HAL_Driver/Src/stm32f4xx_hal_tim_ex.c ****   * DISCLAIMED. IN NO EVENT SHALL THE COPYRIGHT HOLDER OR CONTRIBUTORS BE LIABLE
  87:./Libraries/STM32F4xx_HAL_Driver/Src/stm32f4xx_hal_tim_ex.c ****   * FOR ANY DIRECT, INDIRECT, INCIDENTAL, SPECIAL, EXEMPLARY, OR CONSEQUENTIAL
ARM GAS  /tmp/ccpPm7TE.s 			page 3


  88:./Libraries/STM32F4xx_HAL_Driver/Src/stm32f4xx_hal_tim_ex.c ****   * DAMAGES (INCLUDING, BUT NOT LIMITED TO, PROCUREMENT OF SUBSTITUTE GOODS OR
  89:./Libraries/STM32F4xx_HAL_Driver/Src/stm32f4xx_hal_tim_ex.c ****   * SERVICES; LOSS OF USE, DATA, OR PROFITS; OR BUSINESS INTERRUPTION) HOWEVER
  90:./Libraries/STM32F4xx_HAL_Driver/Src/stm32f4xx_hal_tim_ex.c ****   * CAUSED AND ON ANY THEORY OF LIABILITY, WHETHER IN CONTRACT, STRICT LIABILITY,
  91:./Libraries/STM32F4xx_HAL_Driver/Src/stm32f4xx_hal_tim_ex.c ****   * OR TORT (INCLUDING NEGLIGENCE OR OTHERWISE) ARISING IN ANY WAY OUT OF THE USE
  92:./Libraries/STM32F4xx_HAL_Driver/Src/stm32f4xx_hal_tim_ex.c ****   * OF THIS SOFTWARE, EVEN IF ADVISED OF THE POSSIBILITY OF SUCH DAMAGE.
  93:./Libraries/STM32F4xx_HAL_Driver/Src/stm32f4xx_hal_tim_ex.c ****   *
  94:./Libraries/STM32F4xx_HAL_Driver/Src/stm32f4xx_hal_tim_ex.c ****   ******************************************************************************
  95:./Libraries/STM32F4xx_HAL_Driver/Src/stm32f4xx_hal_tim_ex.c ****   */ 
  96:./Libraries/STM32F4xx_HAL_Driver/Src/stm32f4xx_hal_tim_ex.c **** 
  97:./Libraries/STM32F4xx_HAL_Driver/Src/stm32f4xx_hal_tim_ex.c **** /* Includes ------------------------------------------------------------------*/
  98:./Libraries/STM32F4xx_HAL_Driver/Src/stm32f4xx_hal_tim_ex.c **** #include "stm32f4xx_hal.h"
  99:./Libraries/STM32F4xx_HAL_Driver/Src/stm32f4xx_hal_tim_ex.c **** 
 100:./Libraries/STM32F4xx_HAL_Driver/Src/stm32f4xx_hal_tim_ex.c **** /** @addtogroup STM32F4xx_HAL_Driver
 101:./Libraries/STM32F4xx_HAL_Driver/Src/stm32f4xx_hal_tim_ex.c ****   * @{
 102:./Libraries/STM32F4xx_HAL_Driver/Src/stm32f4xx_hal_tim_ex.c ****   */
 103:./Libraries/STM32F4xx_HAL_Driver/Src/stm32f4xx_hal_tim_ex.c **** 
 104:./Libraries/STM32F4xx_HAL_Driver/Src/stm32f4xx_hal_tim_ex.c **** /** @defgroup TIMEx  TIMEx
 105:./Libraries/STM32F4xx_HAL_Driver/Src/stm32f4xx_hal_tim_ex.c ****   * @brief TIM HAL module driver
 106:./Libraries/STM32F4xx_HAL_Driver/Src/stm32f4xx_hal_tim_ex.c ****   * @{
 107:./Libraries/STM32F4xx_HAL_Driver/Src/stm32f4xx_hal_tim_ex.c ****   */
 108:./Libraries/STM32F4xx_HAL_Driver/Src/stm32f4xx_hal_tim_ex.c **** 
 109:./Libraries/STM32F4xx_HAL_Driver/Src/stm32f4xx_hal_tim_ex.c **** #ifdef HAL_TIM_MODULE_ENABLED
 110:./Libraries/STM32F4xx_HAL_Driver/Src/stm32f4xx_hal_tim_ex.c **** 
 111:./Libraries/STM32F4xx_HAL_Driver/Src/stm32f4xx_hal_tim_ex.c **** /* Private typedef -----------------------------------------------------------*/
 112:./Libraries/STM32F4xx_HAL_Driver/Src/stm32f4xx_hal_tim_ex.c **** /* Private define ------------------------------------------------------------*/
 113:./Libraries/STM32F4xx_HAL_Driver/Src/stm32f4xx_hal_tim_ex.c **** /* Private macro -------------------------------------------------------------*/
 114:./Libraries/STM32F4xx_HAL_Driver/Src/stm32f4xx_hal_tim_ex.c **** /* Private variables ---------------------------------------------------------*/
 115:./Libraries/STM32F4xx_HAL_Driver/Src/stm32f4xx_hal_tim_ex.c **** /** @addtogroup TIMEx_Private_Functions
 116:./Libraries/STM32F4xx_HAL_Driver/Src/stm32f4xx_hal_tim_ex.c ****   * @{
 117:./Libraries/STM32F4xx_HAL_Driver/Src/stm32f4xx_hal_tim_ex.c ****   */
 118:./Libraries/STM32F4xx_HAL_Driver/Src/stm32f4xx_hal_tim_ex.c **** /* Private function prototypes -----------------------------------------------*/
 119:./Libraries/STM32F4xx_HAL_Driver/Src/stm32f4xx_hal_tim_ex.c **** static void TIM_CCxNChannelCmd(TIM_TypeDef* TIMx, uint32_t Channel, uint32_t ChannelNState);
 120:./Libraries/STM32F4xx_HAL_Driver/Src/stm32f4xx_hal_tim_ex.c **** /**
 121:./Libraries/STM32F4xx_HAL_Driver/Src/stm32f4xx_hal_tim_ex.c ****   * @}
 122:./Libraries/STM32F4xx_HAL_Driver/Src/stm32f4xx_hal_tim_ex.c ****   */
 123:./Libraries/STM32F4xx_HAL_Driver/Src/stm32f4xx_hal_tim_ex.c ****       
 124:./Libraries/STM32F4xx_HAL_Driver/Src/stm32f4xx_hal_tim_ex.c **** /* Exported functions --------------------------------------------------------*/
 125:./Libraries/STM32F4xx_HAL_Driver/Src/stm32f4xx_hal_tim_ex.c **** /** @defgroup TIMEx_Exported_Functions TIM Exported Functions
 126:./Libraries/STM32F4xx_HAL_Driver/Src/stm32f4xx_hal_tim_ex.c ****   * @{
 127:./Libraries/STM32F4xx_HAL_Driver/Src/stm32f4xx_hal_tim_ex.c ****   */
 128:./Libraries/STM32F4xx_HAL_Driver/Src/stm32f4xx_hal_tim_ex.c **** 
 129:./Libraries/STM32F4xx_HAL_Driver/Src/stm32f4xx_hal_tim_ex.c **** /** @defgroup TIMEx_Exported_Functions_Group1 Timer Hall Sensor functions 
 130:./Libraries/STM32F4xx_HAL_Driver/Src/stm32f4xx_hal_tim_ex.c ****  *  @brief    Timer Hall Sensor functions 
 131:./Libraries/STM32F4xx_HAL_Driver/Src/stm32f4xx_hal_tim_ex.c ****  *
 132:./Libraries/STM32F4xx_HAL_Driver/Src/stm32f4xx_hal_tim_ex.c **** @verbatim    
 133:./Libraries/STM32F4xx_HAL_Driver/Src/stm32f4xx_hal_tim_ex.c ****   ==============================================================================
 134:./Libraries/STM32F4xx_HAL_Driver/Src/stm32f4xx_hal_tim_ex.c ****                       ##### Timer Hall Sensor functions #####
 135:./Libraries/STM32F4xx_HAL_Driver/Src/stm32f4xx_hal_tim_ex.c ****   ==============================================================================
 136:./Libraries/STM32F4xx_HAL_Driver/Src/stm32f4xx_hal_tim_ex.c ****   [..]  
 137:./Libraries/STM32F4xx_HAL_Driver/Src/stm32f4xx_hal_tim_ex.c ****     This section provides functions allowing to:
 138:./Libraries/STM32F4xx_HAL_Driver/Src/stm32f4xx_hal_tim_ex.c ****     (+) Initialize and configure TIM HAL Sensor. 
 139:./Libraries/STM32F4xx_HAL_Driver/Src/stm32f4xx_hal_tim_ex.c ****     (+) De-initialize TIM HAL Sensor.
 140:./Libraries/STM32F4xx_HAL_Driver/Src/stm32f4xx_hal_tim_ex.c ****     (+) Start the Hall Sensor Interface.
 141:./Libraries/STM32F4xx_HAL_Driver/Src/stm32f4xx_hal_tim_ex.c ****     (+) Stop the Hall Sensor Interface.
 142:./Libraries/STM32F4xx_HAL_Driver/Src/stm32f4xx_hal_tim_ex.c ****     (+) Start the Hall Sensor Interface and enable interrupts.
 143:./Libraries/STM32F4xx_HAL_Driver/Src/stm32f4xx_hal_tim_ex.c ****     (+) Stop the Hall Sensor Interface and disable interrupts.
 144:./Libraries/STM32F4xx_HAL_Driver/Src/stm32f4xx_hal_tim_ex.c ****     (+) Start the Hall Sensor Interface and enable DMA transfers.
ARM GAS  /tmp/ccpPm7TE.s 			page 4


 145:./Libraries/STM32F4xx_HAL_Driver/Src/stm32f4xx_hal_tim_ex.c ****     (+) Stop the Hall Sensor Interface and disable DMA transfers.
 146:./Libraries/STM32F4xx_HAL_Driver/Src/stm32f4xx_hal_tim_ex.c ****  
 147:./Libraries/STM32F4xx_HAL_Driver/Src/stm32f4xx_hal_tim_ex.c **** @endverbatim
 148:./Libraries/STM32F4xx_HAL_Driver/Src/stm32f4xx_hal_tim_ex.c ****   * @{
 149:./Libraries/STM32F4xx_HAL_Driver/Src/stm32f4xx_hal_tim_ex.c ****   */
 150:./Libraries/STM32F4xx_HAL_Driver/Src/stm32f4xx_hal_tim_ex.c **** /**
 151:./Libraries/STM32F4xx_HAL_Driver/Src/stm32f4xx_hal_tim_ex.c ****   * @brief  Initializes the TIM Hall Sensor Interface and create the associated handle.
 152:./Libraries/STM32F4xx_HAL_Driver/Src/stm32f4xx_hal_tim_ex.c ****   * @param  htim pointer to a TIM_HandleTypeDef structure that contains
 153:./Libraries/STM32F4xx_HAL_Driver/Src/stm32f4xx_hal_tim_ex.c ****   *                the configuration information for TIM module.
 154:./Libraries/STM32F4xx_HAL_Driver/Src/stm32f4xx_hal_tim_ex.c ****   * @param  sConfig TIM Hall Sensor configuration structure
 155:./Libraries/STM32F4xx_HAL_Driver/Src/stm32f4xx_hal_tim_ex.c ****   * @retval HAL status
 156:./Libraries/STM32F4xx_HAL_Driver/Src/stm32f4xx_hal_tim_ex.c ****   */
 157:./Libraries/STM32F4xx_HAL_Driver/Src/stm32f4xx_hal_tim_ex.c **** HAL_StatusTypeDef HAL_TIMEx_HallSensor_Init(TIM_HandleTypeDef *htim, TIM_HallSensor_InitTypeDef* sC
 158:./Libraries/STM32F4xx_HAL_Driver/Src/stm32f4xx_hal_tim_ex.c **** {
  29              		.loc 1 158 1
  30              		.cfi_startproc
  31              		@ args = 0, pretend = 0, frame = 40
  32              		@ frame_needed = 1, uses_anonymous_args = 0
  33 0000 80B5     		push	{r7, lr}
  34              	.LCFI0:
  35              		.cfi_def_cfa_offset 8
  36              		.cfi_offset 7, -8
  37              		.cfi_offset 14, -4
  38 0002 8AB0     		sub	sp, sp, #40
  39              	.LCFI1:
  40              		.cfi_def_cfa_offset 48
  41 0004 00AF     		add	r7, sp, #0
  42              	.LCFI2:
  43              		.cfi_def_cfa_register 7
  44 0006 7860     		str	r0, [r7, #4]
  45 0008 3960     		str	r1, [r7]
 159:./Libraries/STM32F4xx_HAL_Driver/Src/stm32f4xx_hal_tim_ex.c ****   TIM_OC_InitTypeDef OC_Config;
 160:./Libraries/STM32F4xx_HAL_Driver/Src/stm32f4xx_hal_tim_ex.c ****     
 161:./Libraries/STM32F4xx_HAL_Driver/Src/stm32f4xx_hal_tim_ex.c ****   /* Check the TIM handle allocation */
 162:./Libraries/STM32F4xx_HAL_Driver/Src/stm32f4xx_hal_tim_ex.c ****   if(htim == NULL)
  46              		.loc 1 162 5
  47 000a 7B68     		ldr	r3, [r7, #4]
  48 000c 002B     		cmp	r3, #0
  49 000e 01D1     		bne	.L2
 163:./Libraries/STM32F4xx_HAL_Driver/Src/stm32f4xx_hal_tim_ex.c ****   {
 164:./Libraries/STM32F4xx_HAL_Driver/Src/stm32f4xx_hal_tim_ex.c ****     return HAL_ERROR;
  50              		.loc 1 164 12
  51 0010 0123     		movs	r3, #1
  52 0012 7CE0     		b	.L4
  53              	.L2:
 165:./Libraries/STM32F4xx_HAL_Driver/Src/stm32f4xx_hal_tim_ex.c ****   }
 166:./Libraries/STM32F4xx_HAL_Driver/Src/stm32f4xx_hal_tim_ex.c ****   
 167:./Libraries/STM32F4xx_HAL_Driver/Src/stm32f4xx_hal_tim_ex.c ****   assert_param(IS_TIM_XOR_INSTANCE(htim->Instance));
 168:./Libraries/STM32F4xx_HAL_Driver/Src/stm32f4xx_hal_tim_ex.c ****   assert_param(IS_TIM_COUNTER_MODE(htim->Init.CounterMode));
 169:./Libraries/STM32F4xx_HAL_Driver/Src/stm32f4xx_hal_tim_ex.c ****   assert_param(IS_TIM_CLOCKDIVISION_DIV(htim->Init.ClockDivision));
 170:./Libraries/STM32F4xx_HAL_Driver/Src/stm32f4xx_hal_tim_ex.c ****   assert_param(IS_TIM_IC_POLARITY(sConfig->IC1Polarity));
 171:./Libraries/STM32F4xx_HAL_Driver/Src/stm32f4xx_hal_tim_ex.c ****   assert_param(IS_TIM_IC_PRESCALER(sConfig->IC1Prescaler));
 172:./Libraries/STM32F4xx_HAL_Driver/Src/stm32f4xx_hal_tim_ex.c ****   assert_param(IS_TIM_IC_FILTER(sConfig->IC1Filter));
 173:./Libraries/STM32F4xx_HAL_Driver/Src/stm32f4xx_hal_tim_ex.c **** 
 174:./Libraries/STM32F4xx_HAL_Driver/Src/stm32f4xx_hal_tim_ex.c ****   /* Set the TIM state */
 175:./Libraries/STM32F4xx_HAL_Driver/Src/stm32f4xx_hal_tim_ex.c ****   htim->State= HAL_TIM_STATE_BUSY;
  54              		.loc 1 175 14
ARM GAS  /tmp/ccpPm7TE.s 			page 5


  55 0014 7B68     		ldr	r3, [r7, #4]
  56 0016 0222     		movs	r2, #2
  57 0018 83F83920 		strb	r2, [r3, #57]
 176:./Libraries/STM32F4xx_HAL_Driver/Src/stm32f4xx_hal_tim_ex.c ****   
 177:./Libraries/STM32F4xx_HAL_Driver/Src/stm32f4xx_hal_tim_ex.c ****   /* Init the low level hardware : GPIO, CLOCK, NVIC and DMA */
 178:./Libraries/STM32F4xx_HAL_Driver/Src/stm32f4xx_hal_tim_ex.c ****   HAL_TIMEx_HallSensor_MspInit(htim);
  58              		.loc 1 178 3
  59 001c 7868     		ldr	r0, [r7, #4]
  60 001e FFF7FEFF 		bl	HAL_TIMEx_HallSensor_MspInit
 179:./Libraries/STM32F4xx_HAL_Driver/Src/stm32f4xx_hal_tim_ex.c ****   
 180:./Libraries/STM32F4xx_HAL_Driver/Src/stm32f4xx_hal_tim_ex.c ****   /* Configure the Time base in the Encoder Mode */
 181:./Libraries/STM32F4xx_HAL_Driver/Src/stm32f4xx_hal_tim_ex.c ****   TIM_Base_SetConfig(htim->Instance, &htim->Init);
  61              		.loc 1 181 3
  62 0022 7B68     		ldr	r3, [r7, #4]
  63 0024 1A68     		ldr	r2, [r3]
  64 0026 7B68     		ldr	r3, [r7, #4]
  65 0028 0433     		adds	r3, r3, #4
  66 002a 1946     		mov	r1, r3
  67 002c 1046     		mov	r0, r2
  68 002e FFF7FEFF 		bl	TIM_Base_SetConfig
 182:./Libraries/STM32F4xx_HAL_Driver/Src/stm32f4xx_hal_tim_ex.c ****   
 183:./Libraries/STM32F4xx_HAL_Driver/Src/stm32f4xx_hal_tim_ex.c ****   /* Configure the Channel 1 as Input Channel to interface with the three Outputs of the  Hall sens
 184:./Libraries/STM32F4xx_HAL_Driver/Src/stm32f4xx_hal_tim_ex.c ****   TIM_TI1_SetConfig(htim->Instance, sConfig->IC1Polarity, TIM_ICSELECTION_TRC, sConfig->IC1Filter);
  69              		.loc 1 184 3
  70 0032 7B68     		ldr	r3, [r7, #4]
  71 0034 1868     		ldr	r0, [r3]
  72 0036 3B68     		ldr	r3, [r7]
  73 0038 1968     		ldr	r1, [r3]
  74 003a 3B68     		ldr	r3, [r7]
  75 003c 9B68     		ldr	r3, [r3, #8]
  76 003e 0322     		movs	r2, #3
  77 0040 FFF7FEFF 		bl	TIM_TI1_SetConfig
 185:./Libraries/STM32F4xx_HAL_Driver/Src/stm32f4xx_hal_tim_ex.c ****   
 186:./Libraries/STM32F4xx_HAL_Driver/Src/stm32f4xx_hal_tim_ex.c ****   /* Reset the IC1PSC Bits */
 187:./Libraries/STM32F4xx_HAL_Driver/Src/stm32f4xx_hal_tim_ex.c ****   htim->Instance->CCMR1 &= ~TIM_CCMR1_IC1PSC;
  78              		.loc 1 187 7
  79 0044 7B68     		ldr	r3, [r7, #4]
  80 0046 1B68     		ldr	r3, [r3]
  81              		.loc 1 187 25
  82 0048 9A69     		ldr	r2, [r3, #24]
  83              		.loc 1 187 7
  84 004a 7B68     		ldr	r3, [r7, #4]
  85 004c 1B68     		ldr	r3, [r3]
  86              		.loc 1 187 25
  87 004e 22F00C02 		bic	r2, r2, #12
  88 0052 9A61     		str	r2, [r3, #24]
 188:./Libraries/STM32F4xx_HAL_Driver/Src/stm32f4xx_hal_tim_ex.c ****   /* Set the IC1PSC value */
 189:./Libraries/STM32F4xx_HAL_Driver/Src/stm32f4xx_hal_tim_ex.c ****   htim->Instance->CCMR1 |= sConfig->IC1Prescaler;
  89              		.loc 1 189 7
  90 0054 7B68     		ldr	r3, [r7, #4]
  91 0056 1B68     		ldr	r3, [r3]
  92              		.loc 1 189 25
  93 0058 9969     		ldr	r1, [r3, #24]
  94              		.loc 1 189 35
  95 005a 3B68     		ldr	r3, [r7]
  96 005c 5A68     		ldr	r2, [r3, #4]
  97              		.loc 1 189 7
ARM GAS  /tmp/ccpPm7TE.s 			page 6


  98 005e 7B68     		ldr	r3, [r7, #4]
  99 0060 1B68     		ldr	r3, [r3]
 100              		.loc 1 189 25
 101 0062 0A43     		orrs	r2, r2, r1
 102 0064 9A61     		str	r2, [r3, #24]
 190:./Libraries/STM32F4xx_HAL_Driver/Src/stm32f4xx_hal_tim_ex.c ****   
 191:./Libraries/STM32F4xx_HAL_Driver/Src/stm32f4xx_hal_tim_ex.c ****   /* Enable the Hall sensor interface (XOR function of the three inputs) */
 192:./Libraries/STM32F4xx_HAL_Driver/Src/stm32f4xx_hal_tim_ex.c ****   htim->Instance->CR2 |= TIM_CR2_TI1S;
 103              		.loc 1 192 7
 104 0066 7B68     		ldr	r3, [r7, #4]
 105 0068 1B68     		ldr	r3, [r3]
 106              		.loc 1 192 23
 107 006a 5A68     		ldr	r2, [r3, #4]
 108              		.loc 1 192 7
 109 006c 7B68     		ldr	r3, [r7, #4]
 110 006e 1B68     		ldr	r3, [r3]
 111              		.loc 1 192 23
 112 0070 42F08002 		orr	r2, r2, #128
 113 0074 5A60     		str	r2, [r3, #4]
 193:./Libraries/STM32F4xx_HAL_Driver/Src/stm32f4xx_hal_tim_ex.c ****   
 194:./Libraries/STM32F4xx_HAL_Driver/Src/stm32f4xx_hal_tim_ex.c ****   /* Select the TIM_TS_TI1F_ED signal as Input trigger for the TIM */
 195:./Libraries/STM32F4xx_HAL_Driver/Src/stm32f4xx_hal_tim_ex.c ****   htim->Instance->SMCR &= ~TIM_SMCR_TS;
 114              		.loc 1 195 7
 115 0076 7B68     		ldr	r3, [r7, #4]
 116 0078 1B68     		ldr	r3, [r3]
 117              		.loc 1 195 24
 118 007a 9A68     		ldr	r2, [r3, #8]
 119              		.loc 1 195 7
 120 007c 7B68     		ldr	r3, [r7, #4]
 121 007e 1B68     		ldr	r3, [r3]
 122              		.loc 1 195 24
 123 0080 22F07002 		bic	r2, r2, #112
 124 0084 9A60     		str	r2, [r3, #8]
 196:./Libraries/STM32F4xx_HAL_Driver/Src/stm32f4xx_hal_tim_ex.c ****   htim->Instance->SMCR |= TIM_TS_TI1F_ED;
 125              		.loc 1 196 7
 126 0086 7B68     		ldr	r3, [r7, #4]
 127 0088 1B68     		ldr	r3, [r3]
 128              		.loc 1 196 24
 129 008a 9A68     		ldr	r2, [r3, #8]
 130              		.loc 1 196 7
 131 008c 7B68     		ldr	r3, [r7, #4]
 132 008e 1B68     		ldr	r3, [r3]
 133              		.loc 1 196 24
 134 0090 42F04002 		orr	r2, r2, #64
 135 0094 9A60     		str	r2, [r3, #8]
 197:./Libraries/STM32F4xx_HAL_Driver/Src/stm32f4xx_hal_tim_ex.c ****   
 198:./Libraries/STM32F4xx_HAL_Driver/Src/stm32f4xx_hal_tim_ex.c ****   /* Use the TIM_TS_TI1F_ED signal to reset the TIM counter each edge detection */  
 199:./Libraries/STM32F4xx_HAL_Driver/Src/stm32f4xx_hal_tim_ex.c ****   htim->Instance->SMCR &= ~TIM_SMCR_SMS;
 136              		.loc 1 199 7
 137 0096 7B68     		ldr	r3, [r7, #4]
 138 0098 1B68     		ldr	r3, [r3]
 139              		.loc 1 199 24
 140 009a 9A68     		ldr	r2, [r3, #8]
 141              		.loc 1 199 7
 142 009c 7B68     		ldr	r3, [r7, #4]
 143 009e 1B68     		ldr	r3, [r3]
 144              		.loc 1 199 24
ARM GAS  /tmp/ccpPm7TE.s 			page 7


 145 00a0 22F00702 		bic	r2, r2, #7
 146 00a4 9A60     		str	r2, [r3, #8]
 200:./Libraries/STM32F4xx_HAL_Driver/Src/stm32f4xx_hal_tim_ex.c ****   htim->Instance->SMCR |= TIM_SLAVEMODE_RESET;
 147              		.loc 1 200 7
 148 00a6 7B68     		ldr	r3, [r7, #4]
 149 00a8 1B68     		ldr	r3, [r3]
 150              		.loc 1 200 24
 151 00aa 9A68     		ldr	r2, [r3, #8]
 152              		.loc 1 200 7
 153 00ac 7B68     		ldr	r3, [r7, #4]
 154 00ae 1B68     		ldr	r3, [r3]
 155              		.loc 1 200 24
 156 00b0 42F00402 		orr	r2, r2, #4
 157 00b4 9A60     		str	r2, [r3, #8]
 201:./Libraries/STM32F4xx_HAL_Driver/Src/stm32f4xx_hal_tim_ex.c ****   
 202:./Libraries/STM32F4xx_HAL_Driver/Src/stm32f4xx_hal_tim_ex.c ****   /* Program channel 2 in PWM 2 mode with the desired Commutation_Delay*/
 203:./Libraries/STM32F4xx_HAL_Driver/Src/stm32f4xx_hal_tim_ex.c ****   OC_Config.OCFastMode = TIM_OCFAST_DISABLE;
 158              		.loc 1 203 24
 159 00b6 0023     		movs	r3, #0
 160 00b8 FB61     		str	r3, [r7, #28]
 204:./Libraries/STM32F4xx_HAL_Driver/Src/stm32f4xx_hal_tim_ex.c ****   OC_Config.OCIdleState = TIM_OCIDLESTATE_RESET;
 161              		.loc 1 204 25
 162 00ba 0023     		movs	r3, #0
 163 00bc 3B62     		str	r3, [r7, #32]
 205:./Libraries/STM32F4xx_HAL_Driver/Src/stm32f4xx_hal_tim_ex.c ****   OC_Config.OCMode = TIM_OCMODE_PWM2;
 164              		.loc 1 205 20
 165 00be 7023     		movs	r3, #112
 166 00c0 FB60     		str	r3, [r7, #12]
 206:./Libraries/STM32F4xx_HAL_Driver/Src/stm32f4xx_hal_tim_ex.c ****   OC_Config.OCNIdleState = TIM_OCNIDLESTATE_RESET;
 167              		.loc 1 206 26
 168 00c2 0023     		movs	r3, #0
 169 00c4 7B62     		str	r3, [r7, #36]
 207:./Libraries/STM32F4xx_HAL_Driver/Src/stm32f4xx_hal_tim_ex.c ****   OC_Config.OCNPolarity = TIM_OCNPOLARITY_HIGH;
 170              		.loc 1 207 25
 171 00c6 0023     		movs	r3, #0
 172 00c8 BB61     		str	r3, [r7, #24]
 208:./Libraries/STM32F4xx_HAL_Driver/Src/stm32f4xx_hal_tim_ex.c ****   OC_Config.OCPolarity = TIM_OCPOLARITY_HIGH;
 173              		.loc 1 208 24
 174 00ca 0023     		movs	r3, #0
 175 00cc 7B61     		str	r3, [r7, #20]
 209:./Libraries/STM32F4xx_HAL_Driver/Src/stm32f4xx_hal_tim_ex.c ****   OC_Config.Pulse = sConfig->Commutation_Delay; 
 176              		.loc 1 209 28
 177 00ce 3B68     		ldr	r3, [r7]
 178 00d0 DB68     		ldr	r3, [r3, #12]
 179              		.loc 1 209 19
 180 00d2 3B61     		str	r3, [r7, #16]
 210:./Libraries/STM32F4xx_HAL_Driver/Src/stm32f4xx_hal_tim_ex.c ****     
 211:./Libraries/STM32F4xx_HAL_Driver/Src/stm32f4xx_hal_tim_ex.c ****   TIM_OC2_SetConfig(htim->Instance, &OC_Config);
 181              		.loc 1 211 3
 182 00d4 7B68     		ldr	r3, [r7, #4]
 183 00d6 1B68     		ldr	r3, [r3]
 184 00d8 07F10C02 		add	r2, r7, #12
 185 00dc 1146     		mov	r1, r2
 186 00de 1846     		mov	r0, r3
 187 00e0 FFF7FEFF 		bl	TIM_OC2_SetConfig
 212:./Libraries/STM32F4xx_HAL_Driver/Src/stm32f4xx_hal_tim_ex.c ****   
 213:./Libraries/STM32F4xx_HAL_Driver/Src/stm32f4xx_hal_tim_ex.c ****   /* Select OC2REF as trigger output on TRGO: write the MMS bits in the TIMx_CR2
ARM GAS  /tmp/ccpPm7TE.s 			page 8


 214:./Libraries/STM32F4xx_HAL_Driver/Src/stm32f4xx_hal_tim_ex.c ****     register to 101 */
 215:./Libraries/STM32F4xx_HAL_Driver/Src/stm32f4xx_hal_tim_ex.c ****   htim->Instance->CR2 &= ~TIM_CR2_MMS;
 188              		.loc 1 215 7
 189 00e4 7B68     		ldr	r3, [r7, #4]
 190 00e6 1B68     		ldr	r3, [r3]
 191              		.loc 1 215 23
 192 00e8 5A68     		ldr	r2, [r3, #4]
 193              		.loc 1 215 7
 194 00ea 7B68     		ldr	r3, [r7, #4]
 195 00ec 1B68     		ldr	r3, [r3]
 196              		.loc 1 215 23
 197 00ee 22F07002 		bic	r2, r2, #112
 198 00f2 5A60     		str	r2, [r3, #4]
 216:./Libraries/STM32F4xx_HAL_Driver/Src/stm32f4xx_hal_tim_ex.c ****   htim->Instance->CR2 |= TIM_TRGO_OC2REF; 
 199              		.loc 1 216 7
 200 00f4 7B68     		ldr	r3, [r7, #4]
 201 00f6 1B68     		ldr	r3, [r3]
 202              		.loc 1 216 23
 203 00f8 5A68     		ldr	r2, [r3, #4]
 204              		.loc 1 216 7
 205 00fa 7B68     		ldr	r3, [r7, #4]
 206 00fc 1B68     		ldr	r3, [r3]
 207              		.loc 1 216 23
 208 00fe 42F05002 		orr	r2, r2, #80
 209 0102 5A60     		str	r2, [r3, #4]
 217:./Libraries/STM32F4xx_HAL_Driver/Src/stm32f4xx_hal_tim_ex.c ****   
 218:./Libraries/STM32F4xx_HAL_Driver/Src/stm32f4xx_hal_tim_ex.c ****   /* Initialize the TIM state*/
 219:./Libraries/STM32F4xx_HAL_Driver/Src/stm32f4xx_hal_tim_ex.c ****   htim->State= HAL_TIM_STATE_READY;
 210              		.loc 1 219 14
 211 0104 7B68     		ldr	r3, [r7, #4]
 212 0106 0122     		movs	r2, #1
 213 0108 83F83920 		strb	r2, [r3, #57]
 220:./Libraries/STM32F4xx_HAL_Driver/Src/stm32f4xx_hal_tim_ex.c **** 
 221:./Libraries/STM32F4xx_HAL_Driver/Src/stm32f4xx_hal_tim_ex.c ****   return HAL_OK;
 214              		.loc 1 221 10
 215 010c 0023     		movs	r3, #0
 216              	.L4:
 222:./Libraries/STM32F4xx_HAL_Driver/Src/stm32f4xx_hal_tim_ex.c **** }
 217              		.loc 1 222 1 discriminator 1
 218 010e 1846     		mov	r0, r3
 219 0110 2837     		adds	r7, r7, #40
 220              	.LCFI3:
 221              		.cfi_def_cfa_offset 8
 222 0112 BD46     		mov	sp, r7
 223              	.LCFI4:
 224              		.cfi_def_cfa_register 13
 225              		@ sp needed
 226 0114 80BD     		pop	{r7, pc}
 227              		.cfi_endproc
 228              	.LFE126:
 230              		.section	.text.HAL_TIMEx_HallSensor_DeInit,"ax",%progbits
 231              		.align	1
 232              		.global	HAL_TIMEx_HallSensor_DeInit
 233              		.syntax unified
 234              		.thumb
 235              		.thumb_func
 236              		.fpu fpv4-sp-d16
ARM GAS  /tmp/ccpPm7TE.s 			page 9


 238              	HAL_TIMEx_HallSensor_DeInit:
 239              	.LFB127:
 223:./Libraries/STM32F4xx_HAL_Driver/Src/stm32f4xx_hal_tim_ex.c **** 
 224:./Libraries/STM32F4xx_HAL_Driver/Src/stm32f4xx_hal_tim_ex.c **** /**
 225:./Libraries/STM32F4xx_HAL_Driver/Src/stm32f4xx_hal_tim_ex.c ****   * @brief  DeInitializes the TIM Hall Sensor interface  
 226:./Libraries/STM32F4xx_HAL_Driver/Src/stm32f4xx_hal_tim_ex.c ****   * @param  htim pointer to a TIM_HandleTypeDef structure that contains
 227:./Libraries/STM32F4xx_HAL_Driver/Src/stm32f4xx_hal_tim_ex.c ****   *                the configuration information for TIM module.
 228:./Libraries/STM32F4xx_HAL_Driver/Src/stm32f4xx_hal_tim_ex.c ****   * @retval HAL status
 229:./Libraries/STM32F4xx_HAL_Driver/Src/stm32f4xx_hal_tim_ex.c ****   */
 230:./Libraries/STM32F4xx_HAL_Driver/Src/stm32f4xx_hal_tim_ex.c **** HAL_StatusTypeDef HAL_TIMEx_HallSensor_DeInit(TIM_HandleTypeDef *htim)
 231:./Libraries/STM32F4xx_HAL_Driver/Src/stm32f4xx_hal_tim_ex.c **** {
 240              		.loc 1 231 1
 241              		.cfi_startproc
 242              		@ args = 0, pretend = 0, frame = 8
 243              		@ frame_needed = 1, uses_anonymous_args = 0
 244 0000 80B5     		push	{r7, lr}
 245              	.LCFI5:
 246              		.cfi_def_cfa_offset 8
 247              		.cfi_offset 7, -8
 248              		.cfi_offset 14, -4
 249 0002 82B0     		sub	sp, sp, #8
 250              	.LCFI6:
 251              		.cfi_def_cfa_offset 16
 252 0004 00AF     		add	r7, sp, #0
 253              	.LCFI7:
 254              		.cfi_def_cfa_register 7
 255 0006 7860     		str	r0, [r7, #4]
 232:./Libraries/STM32F4xx_HAL_Driver/Src/stm32f4xx_hal_tim_ex.c ****   /* Check the parameters */
 233:./Libraries/STM32F4xx_HAL_Driver/Src/stm32f4xx_hal_tim_ex.c ****   assert_param(IS_TIM_INSTANCE(htim->Instance));
 234:./Libraries/STM32F4xx_HAL_Driver/Src/stm32f4xx_hal_tim_ex.c **** 
 235:./Libraries/STM32F4xx_HAL_Driver/Src/stm32f4xx_hal_tim_ex.c ****   htim->State = HAL_TIM_STATE_BUSY;
 256              		.loc 1 235 15
 257 0008 7B68     		ldr	r3, [r7, #4]
 258 000a 0222     		movs	r2, #2
 259 000c 83F83920 		strb	r2, [r3, #57]
 236:./Libraries/STM32F4xx_HAL_Driver/Src/stm32f4xx_hal_tim_ex.c ****   
 237:./Libraries/STM32F4xx_HAL_Driver/Src/stm32f4xx_hal_tim_ex.c ****   /* Disable the TIM Peripheral Clock */
 238:./Libraries/STM32F4xx_HAL_Driver/Src/stm32f4xx_hal_tim_ex.c ****   __HAL_TIM_DISABLE(htim);
 260              		.loc 1 238 3
 261 0010 7B68     		ldr	r3, [r7, #4]
 262 0012 1B68     		ldr	r3, [r3]
 263 0014 1A6A     		ldr	r2, [r3, #32]
 264 0016 41F21113 		movw	r3, #4369
 265 001a 1340     		ands	r3, r3, r2
 266 001c 002B     		cmp	r3, #0
 267 001e 0FD1     		bne	.L6
 268              		.loc 1 238 3 is_stmt 0 discriminator 1
 269 0020 7B68     		ldr	r3, [r7, #4]
 270 0022 1B68     		ldr	r3, [r3]
 271 0024 1A6A     		ldr	r2, [r3, #32]
 272 0026 40F24443 		movw	r3, #1092
 273 002a 1340     		ands	r3, r3, r2
 274 002c 002B     		cmp	r3, #0
 275 002e 07D1     		bne	.L6
 276              		.loc 1 238 3 discriminator 2
 277 0030 7B68     		ldr	r3, [r7, #4]
 278 0032 1B68     		ldr	r3, [r3]
ARM GAS  /tmp/ccpPm7TE.s 			page 10


 279 0034 1A68     		ldr	r2, [r3]
 280 0036 7B68     		ldr	r3, [r7, #4]
 281 0038 1B68     		ldr	r3, [r3]
 282 003a 22F00102 		bic	r2, r2, #1
 283 003e 1A60     		str	r2, [r3]
 284              	.L6:
 239:./Libraries/STM32F4xx_HAL_Driver/Src/stm32f4xx_hal_tim_ex.c ****     
 240:./Libraries/STM32F4xx_HAL_Driver/Src/stm32f4xx_hal_tim_ex.c ****   /* DeInit the low level hardware: GPIO, CLOCK, NVIC */
 241:./Libraries/STM32F4xx_HAL_Driver/Src/stm32f4xx_hal_tim_ex.c ****   HAL_TIMEx_HallSensor_MspDeInit(htim);
 285              		.loc 1 241 3 is_stmt 1
 286 0040 7868     		ldr	r0, [r7, #4]
 287 0042 FFF7FEFF 		bl	HAL_TIMEx_HallSensor_MspDeInit
 242:./Libraries/STM32F4xx_HAL_Driver/Src/stm32f4xx_hal_tim_ex.c ****     
 243:./Libraries/STM32F4xx_HAL_Driver/Src/stm32f4xx_hal_tim_ex.c ****   /* Change TIM state */  
 244:./Libraries/STM32F4xx_HAL_Driver/Src/stm32f4xx_hal_tim_ex.c ****   htim->State = HAL_TIM_STATE_RESET; 
 288              		.loc 1 244 15
 289 0046 7B68     		ldr	r3, [r7, #4]
 290 0048 0022     		movs	r2, #0
 291 004a 83F83920 		strb	r2, [r3, #57]
 245:./Libraries/STM32F4xx_HAL_Driver/Src/stm32f4xx_hal_tim_ex.c **** 
 246:./Libraries/STM32F4xx_HAL_Driver/Src/stm32f4xx_hal_tim_ex.c ****   /* Release Lock */
 247:./Libraries/STM32F4xx_HAL_Driver/Src/stm32f4xx_hal_tim_ex.c ****   __HAL_UNLOCK(htim);
 292              		.loc 1 247 3
 293 004e 7B68     		ldr	r3, [r7, #4]
 294 0050 0022     		movs	r2, #0
 295 0052 83F83820 		strb	r2, [r3, #56]
 248:./Libraries/STM32F4xx_HAL_Driver/Src/stm32f4xx_hal_tim_ex.c **** 
 249:./Libraries/STM32F4xx_HAL_Driver/Src/stm32f4xx_hal_tim_ex.c ****   return HAL_OK;
 296              		.loc 1 249 10
 297 0056 0023     		movs	r3, #0
 250:./Libraries/STM32F4xx_HAL_Driver/Src/stm32f4xx_hal_tim_ex.c **** }
 298              		.loc 1 250 1
 299 0058 1846     		mov	r0, r3
 300 005a 0837     		adds	r7, r7, #8
 301              	.LCFI8:
 302              		.cfi_def_cfa_offset 8
 303 005c BD46     		mov	sp, r7
 304              	.LCFI9:
 305              		.cfi_def_cfa_register 13
 306              		@ sp needed
 307 005e 80BD     		pop	{r7, pc}
 308              		.cfi_endproc
 309              	.LFE127:
 311              		.section	.text.HAL_TIMEx_HallSensor_MspInit,"ax",%progbits
 312              		.align	1
 313              		.weak	HAL_TIMEx_HallSensor_MspInit
 314              		.syntax unified
 315              		.thumb
 316              		.thumb_func
 317              		.fpu fpv4-sp-d16
 319              	HAL_TIMEx_HallSensor_MspInit:
 320              	.LFB128:
 251:./Libraries/STM32F4xx_HAL_Driver/Src/stm32f4xx_hal_tim_ex.c **** 
 252:./Libraries/STM32F4xx_HAL_Driver/Src/stm32f4xx_hal_tim_ex.c **** /**
 253:./Libraries/STM32F4xx_HAL_Driver/Src/stm32f4xx_hal_tim_ex.c ****   * @brief  Initializes the TIM Hall Sensor MSP.
 254:./Libraries/STM32F4xx_HAL_Driver/Src/stm32f4xx_hal_tim_ex.c ****   * @param  htim pointer to a TIM_HandleTypeDef structure that contains
 255:./Libraries/STM32F4xx_HAL_Driver/Src/stm32f4xx_hal_tim_ex.c ****   *                the configuration information for TIM module.
ARM GAS  /tmp/ccpPm7TE.s 			page 11


 256:./Libraries/STM32F4xx_HAL_Driver/Src/stm32f4xx_hal_tim_ex.c ****   * @retval None
 257:./Libraries/STM32F4xx_HAL_Driver/Src/stm32f4xx_hal_tim_ex.c ****   */
 258:./Libraries/STM32F4xx_HAL_Driver/Src/stm32f4xx_hal_tim_ex.c **** __weak void HAL_TIMEx_HallSensor_MspInit(TIM_HandleTypeDef *htim)
 259:./Libraries/STM32F4xx_HAL_Driver/Src/stm32f4xx_hal_tim_ex.c **** {
 321              		.loc 1 259 1
 322              		.cfi_startproc
 323              		@ args = 0, pretend = 0, frame = 8
 324              		@ frame_needed = 1, uses_anonymous_args = 0
 325              		@ link register save eliminated.
 326 0000 80B4     		push	{r7}
 327              	.LCFI10:
 328              		.cfi_def_cfa_offset 4
 329              		.cfi_offset 7, -4
 330 0002 83B0     		sub	sp, sp, #12
 331              	.LCFI11:
 332              		.cfi_def_cfa_offset 16
 333 0004 00AF     		add	r7, sp, #0
 334              	.LCFI12:
 335              		.cfi_def_cfa_register 7
 336 0006 7860     		str	r0, [r7, #4]
 260:./Libraries/STM32F4xx_HAL_Driver/Src/stm32f4xx_hal_tim_ex.c ****   /* Prevent unused argument(s) compilation warning */
 261:./Libraries/STM32F4xx_HAL_Driver/Src/stm32f4xx_hal_tim_ex.c ****   UNUSED(htim);
 262:./Libraries/STM32F4xx_HAL_Driver/Src/stm32f4xx_hal_tim_ex.c ****   /* NOTE : This function Should not be modified, when the callback is needed,
 263:./Libraries/STM32F4xx_HAL_Driver/Src/stm32f4xx_hal_tim_ex.c ****             the HAL_TIMEx_HallSensor_MspInit could be implemented in the user file
 264:./Libraries/STM32F4xx_HAL_Driver/Src/stm32f4xx_hal_tim_ex.c ****    */
 265:./Libraries/STM32F4xx_HAL_Driver/Src/stm32f4xx_hal_tim_ex.c **** }
 337              		.loc 1 265 1
 338 0008 00BF     		nop
 339 000a 0C37     		adds	r7, r7, #12
 340              	.LCFI13:
 341              		.cfi_def_cfa_offset 4
 342 000c BD46     		mov	sp, r7
 343              	.LCFI14:
 344              		.cfi_def_cfa_register 13
 345              		@ sp needed
 346 000e 5DF8047B 		ldr	r7, [sp], #4
 347              	.LCFI15:
 348              		.cfi_restore 7
 349              		.cfi_def_cfa_offset 0
 350 0012 7047     		bx	lr
 351              		.cfi_endproc
 352              	.LFE128:
 354              		.section	.text.HAL_TIMEx_HallSensor_MspDeInit,"ax",%progbits
 355              		.align	1
 356              		.weak	HAL_TIMEx_HallSensor_MspDeInit
 357              		.syntax unified
 358              		.thumb
 359              		.thumb_func
 360              		.fpu fpv4-sp-d16
 362              	HAL_TIMEx_HallSensor_MspDeInit:
 363              	.LFB129:
 266:./Libraries/STM32F4xx_HAL_Driver/Src/stm32f4xx_hal_tim_ex.c **** 
 267:./Libraries/STM32F4xx_HAL_Driver/Src/stm32f4xx_hal_tim_ex.c **** /**
 268:./Libraries/STM32F4xx_HAL_Driver/Src/stm32f4xx_hal_tim_ex.c ****   * @brief  DeInitializes TIM Hall Sensor MSP.
 269:./Libraries/STM32F4xx_HAL_Driver/Src/stm32f4xx_hal_tim_ex.c ****   * @param  htim pointer to a TIM_HandleTypeDef structure that contains
 270:./Libraries/STM32F4xx_HAL_Driver/Src/stm32f4xx_hal_tim_ex.c ****   *                the configuration information for TIM module.
 271:./Libraries/STM32F4xx_HAL_Driver/Src/stm32f4xx_hal_tim_ex.c ****   * @retval None
ARM GAS  /tmp/ccpPm7TE.s 			page 12


 272:./Libraries/STM32F4xx_HAL_Driver/Src/stm32f4xx_hal_tim_ex.c ****   */
 273:./Libraries/STM32F4xx_HAL_Driver/Src/stm32f4xx_hal_tim_ex.c **** __weak void HAL_TIMEx_HallSensor_MspDeInit(TIM_HandleTypeDef *htim)
 274:./Libraries/STM32F4xx_HAL_Driver/Src/stm32f4xx_hal_tim_ex.c **** {
 364              		.loc 1 274 1
 365              		.cfi_startproc
 366              		@ args = 0, pretend = 0, frame = 8
 367              		@ frame_needed = 1, uses_anonymous_args = 0
 368              		@ link register save eliminated.
 369 0000 80B4     		push	{r7}
 370              	.LCFI16:
 371              		.cfi_def_cfa_offset 4
 372              		.cfi_offset 7, -4
 373 0002 83B0     		sub	sp, sp, #12
 374              	.LCFI17:
 375              		.cfi_def_cfa_offset 16
 376 0004 00AF     		add	r7, sp, #0
 377              	.LCFI18:
 378              		.cfi_def_cfa_register 7
 379 0006 7860     		str	r0, [r7, #4]
 275:./Libraries/STM32F4xx_HAL_Driver/Src/stm32f4xx_hal_tim_ex.c ****   /* Prevent unused argument(s) compilation warning */
 276:./Libraries/STM32F4xx_HAL_Driver/Src/stm32f4xx_hal_tim_ex.c ****   UNUSED(htim);
 277:./Libraries/STM32F4xx_HAL_Driver/Src/stm32f4xx_hal_tim_ex.c ****   /* NOTE : This function Should not be modified, when the callback is needed,
 278:./Libraries/STM32F4xx_HAL_Driver/Src/stm32f4xx_hal_tim_ex.c ****             the HAL_TIMEx_HallSensor_MspDeInit could be implemented in the user file
 279:./Libraries/STM32F4xx_HAL_Driver/Src/stm32f4xx_hal_tim_ex.c ****    */
 280:./Libraries/STM32F4xx_HAL_Driver/Src/stm32f4xx_hal_tim_ex.c **** }
 380              		.loc 1 280 1
 381 0008 00BF     		nop
 382 000a 0C37     		adds	r7, r7, #12
 383              	.LCFI19:
 384              		.cfi_def_cfa_offset 4
 385 000c BD46     		mov	sp, r7
 386              	.LCFI20:
 387              		.cfi_def_cfa_register 13
 388              		@ sp needed
 389 000e 5DF8047B 		ldr	r7, [sp], #4
 390              	.LCFI21:
 391              		.cfi_restore 7
 392              		.cfi_def_cfa_offset 0
 393 0012 7047     		bx	lr
 394              		.cfi_endproc
 395              	.LFE129:
 397              		.section	.text.HAL_TIMEx_HallSensor_Start,"ax",%progbits
 398              		.align	1
 399              		.global	HAL_TIMEx_HallSensor_Start
 400              		.syntax unified
 401              		.thumb
 402              		.thumb_func
 403              		.fpu fpv4-sp-d16
 405              	HAL_TIMEx_HallSensor_Start:
 406              	.LFB130:
 281:./Libraries/STM32F4xx_HAL_Driver/Src/stm32f4xx_hal_tim_ex.c **** 
 282:./Libraries/STM32F4xx_HAL_Driver/Src/stm32f4xx_hal_tim_ex.c **** /**
 283:./Libraries/STM32F4xx_HAL_Driver/Src/stm32f4xx_hal_tim_ex.c ****   * @brief  Starts the TIM Hall Sensor Interface.
 284:./Libraries/STM32F4xx_HAL_Driver/Src/stm32f4xx_hal_tim_ex.c ****   * @param  htim pointer to a TIM_HandleTypeDef structure that contains
 285:./Libraries/STM32F4xx_HAL_Driver/Src/stm32f4xx_hal_tim_ex.c ****   *                the configuration information for TIM module.
 286:./Libraries/STM32F4xx_HAL_Driver/Src/stm32f4xx_hal_tim_ex.c ****   * @retval HAL status
 287:./Libraries/STM32F4xx_HAL_Driver/Src/stm32f4xx_hal_tim_ex.c ****   */
ARM GAS  /tmp/ccpPm7TE.s 			page 13


 288:./Libraries/STM32F4xx_HAL_Driver/Src/stm32f4xx_hal_tim_ex.c **** HAL_StatusTypeDef HAL_TIMEx_HallSensor_Start(TIM_HandleTypeDef *htim)
 289:./Libraries/STM32F4xx_HAL_Driver/Src/stm32f4xx_hal_tim_ex.c **** {
 407              		.loc 1 289 1
 408              		.cfi_startproc
 409              		@ args = 0, pretend = 0, frame = 8
 410              		@ frame_needed = 1, uses_anonymous_args = 0
 411 0000 80B5     		push	{r7, lr}
 412              	.LCFI22:
 413              		.cfi_def_cfa_offset 8
 414              		.cfi_offset 7, -8
 415              		.cfi_offset 14, -4
 416 0002 82B0     		sub	sp, sp, #8
 417              	.LCFI23:
 418              		.cfi_def_cfa_offset 16
 419 0004 00AF     		add	r7, sp, #0
 420              	.LCFI24:
 421              		.cfi_def_cfa_register 7
 422 0006 7860     		str	r0, [r7, #4]
 290:./Libraries/STM32F4xx_HAL_Driver/Src/stm32f4xx_hal_tim_ex.c ****   /* Check the parameters */
 291:./Libraries/STM32F4xx_HAL_Driver/Src/stm32f4xx_hal_tim_ex.c ****   assert_param(IS_TIM_XOR_INSTANCE(htim->Instance));
 292:./Libraries/STM32F4xx_HAL_Driver/Src/stm32f4xx_hal_tim_ex.c ****   
 293:./Libraries/STM32F4xx_HAL_Driver/Src/stm32f4xx_hal_tim_ex.c ****   /* Enable the Input Capture channels 1
 294:./Libraries/STM32F4xx_HAL_Driver/Src/stm32f4xx_hal_tim_ex.c ****     (in the Hall Sensor Interface the Three possible channels that can be used are TIM_CHANNEL_1, T
 295:./Libraries/STM32F4xx_HAL_Driver/Src/stm32f4xx_hal_tim_ex.c ****   TIM_CCxChannelCmd(htim->Instance, TIM_CHANNEL_1, TIM_CCx_ENABLE); 
 423              		.loc 1 295 3
 424 0008 7B68     		ldr	r3, [r7, #4]
 425 000a 1B68     		ldr	r3, [r3]
 426 000c 0122     		movs	r2, #1
 427 000e 0021     		movs	r1, #0
 428 0010 1846     		mov	r0, r3
 429 0012 FFF7FEFF 		bl	TIM_CCxChannelCmd
 296:./Libraries/STM32F4xx_HAL_Driver/Src/stm32f4xx_hal_tim_ex.c ****   
 297:./Libraries/STM32F4xx_HAL_Driver/Src/stm32f4xx_hal_tim_ex.c ****   /* Enable the Peripheral */
 298:./Libraries/STM32F4xx_HAL_Driver/Src/stm32f4xx_hal_tim_ex.c ****   __HAL_TIM_ENABLE(htim);
 430              		.loc 1 298 3
 431 0016 7B68     		ldr	r3, [r7, #4]
 432 0018 1B68     		ldr	r3, [r3]
 433 001a 1A68     		ldr	r2, [r3]
 434 001c 7B68     		ldr	r3, [r7, #4]
 435 001e 1B68     		ldr	r3, [r3]
 436 0020 42F00102 		orr	r2, r2, #1
 437 0024 1A60     		str	r2, [r3]
 299:./Libraries/STM32F4xx_HAL_Driver/Src/stm32f4xx_hal_tim_ex.c ****   
 300:./Libraries/STM32F4xx_HAL_Driver/Src/stm32f4xx_hal_tim_ex.c ****   /* Return function status */
 301:./Libraries/STM32F4xx_HAL_Driver/Src/stm32f4xx_hal_tim_ex.c ****   return HAL_OK;
 438              		.loc 1 301 10
 439 0026 0023     		movs	r3, #0
 302:./Libraries/STM32F4xx_HAL_Driver/Src/stm32f4xx_hal_tim_ex.c **** }
 440              		.loc 1 302 1
 441 0028 1846     		mov	r0, r3
 442 002a 0837     		adds	r7, r7, #8
 443              	.LCFI25:
 444              		.cfi_def_cfa_offset 8
 445 002c BD46     		mov	sp, r7
 446              	.LCFI26:
 447              		.cfi_def_cfa_register 13
 448              		@ sp needed
ARM GAS  /tmp/ccpPm7TE.s 			page 14


 449 002e 80BD     		pop	{r7, pc}
 450              		.cfi_endproc
 451              	.LFE130:
 453              		.section	.text.HAL_TIMEx_HallSensor_Stop,"ax",%progbits
 454              		.align	1
 455              		.global	HAL_TIMEx_HallSensor_Stop
 456              		.syntax unified
 457              		.thumb
 458              		.thumb_func
 459              		.fpu fpv4-sp-d16
 461              	HAL_TIMEx_HallSensor_Stop:
 462              	.LFB131:
 303:./Libraries/STM32F4xx_HAL_Driver/Src/stm32f4xx_hal_tim_ex.c **** 
 304:./Libraries/STM32F4xx_HAL_Driver/Src/stm32f4xx_hal_tim_ex.c **** /**
 305:./Libraries/STM32F4xx_HAL_Driver/Src/stm32f4xx_hal_tim_ex.c ****   * @brief  Stops the TIM Hall sensor Interface.
 306:./Libraries/STM32F4xx_HAL_Driver/Src/stm32f4xx_hal_tim_ex.c ****   * @param  htim pointer to a TIM_HandleTypeDef structure that contains
 307:./Libraries/STM32F4xx_HAL_Driver/Src/stm32f4xx_hal_tim_ex.c ****   *                the configuration information for TIM module.
 308:./Libraries/STM32F4xx_HAL_Driver/Src/stm32f4xx_hal_tim_ex.c ****   * @retval HAL status
 309:./Libraries/STM32F4xx_HAL_Driver/Src/stm32f4xx_hal_tim_ex.c ****   */
 310:./Libraries/STM32F4xx_HAL_Driver/Src/stm32f4xx_hal_tim_ex.c **** HAL_StatusTypeDef HAL_TIMEx_HallSensor_Stop(TIM_HandleTypeDef *htim)
 311:./Libraries/STM32F4xx_HAL_Driver/Src/stm32f4xx_hal_tim_ex.c **** {
 463              		.loc 1 311 1
 464              		.cfi_startproc
 465              		@ args = 0, pretend = 0, frame = 8
 466              		@ frame_needed = 1, uses_anonymous_args = 0
 467 0000 80B5     		push	{r7, lr}
 468              	.LCFI27:
 469              		.cfi_def_cfa_offset 8
 470              		.cfi_offset 7, -8
 471              		.cfi_offset 14, -4
 472 0002 82B0     		sub	sp, sp, #8
 473              	.LCFI28:
 474              		.cfi_def_cfa_offset 16
 475 0004 00AF     		add	r7, sp, #0
 476              	.LCFI29:
 477              		.cfi_def_cfa_register 7
 478 0006 7860     		str	r0, [r7, #4]
 312:./Libraries/STM32F4xx_HAL_Driver/Src/stm32f4xx_hal_tim_ex.c ****   /* Check the parameters */
 313:./Libraries/STM32F4xx_HAL_Driver/Src/stm32f4xx_hal_tim_ex.c ****   assert_param(IS_TIM_XOR_INSTANCE(htim->Instance));
 314:./Libraries/STM32F4xx_HAL_Driver/Src/stm32f4xx_hal_tim_ex.c ****   
 315:./Libraries/STM32F4xx_HAL_Driver/Src/stm32f4xx_hal_tim_ex.c ****   /* Disable the Input Capture channels 1, 2 and 3
 316:./Libraries/STM32F4xx_HAL_Driver/Src/stm32f4xx_hal_tim_ex.c ****     (in the Hall Sensor Interface the Three possible channels that can be used are TIM_CHANNEL_1, T
 317:./Libraries/STM32F4xx_HAL_Driver/Src/stm32f4xx_hal_tim_ex.c ****   TIM_CCxChannelCmd(htim->Instance, TIM_CHANNEL_1, TIM_CCx_DISABLE); 
 479              		.loc 1 317 3
 480 0008 7B68     		ldr	r3, [r7, #4]
 481 000a 1B68     		ldr	r3, [r3]
 482 000c 0022     		movs	r2, #0
 483 000e 0021     		movs	r1, #0
 484 0010 1846     		mov	r0, r3
 485 0012 FFF7FEFF 		bl	TIM_CCxChannelCmd
 318:./Libraries/STM32F4xx_HAL_Driver/Src/stm32f4xx_hal_tim_ex.c **** 
 319:./Libraries/STM32F4xx_HAL_Driver/Src/stm32f4xx_hal_tim_ex.c ****   /* Disable the Peripheral */
 320:./Libraries/STM32F4xx_HAL_Driver/Src/stm32f4xx_hal_tim_ex.c ****   __HAL_TIM_DISABLE(htim);
 486              		.loc 1 320 3
 487 0016 7B68     		ldr	r3, [r7, #4]
 488 0018 1B68     		ldr	r3, [r3]
 489 001a 1A6A     		ldr	r2, [r3, #32]
ARM GAS  /tmp/ccpPm7TE.s 			page 15


 490 001c 41F21113 		movw	r3, #4369
 491 0020 1340     		ands	r3, r3, r2
 492 0022 002B     		cmp	r3, #0
 493 0024 0FD1     		bne	.L13
 494              		.loc 1 320 3 is_stmt 0 discriminator 1
 495 0026 7B68     		ldr	r3, [r7, #4]
 496 0028 1B68     		ldr	r3, [r3]
 497 002a 1A6A     		ldr	r2, [r3, #32]
 498 002c 40F24443 		movw	r3, #1092
 499 0030 1340     		ands	r3, r3, r2
 500 0032 002B     		cmp	r3, #0
 501 0034 07D1     		bne	.L13
 502              		.loc 1 320 3 discriminator 2
 503 0036 7B68     		ldr	r3, [r7, #4]
 504 0038 1B68     		ldr	r3, [r3]
 505 003a 1A68     		ldr	r2, [r3]
 506 003c 7B68     		ldr	r3, [r7, #4]
 507 003e 1B68     		ldr	r3, [r3]
 508 0040 22F00102 		bic	r2, r2, #1
 509 0044 1A60     		str	r2, [r3]
 510              	.L13:
 321:./Libraries/STM32F4xx_HAL_Driver/Src/stm32f4xx_hal_tim_ex.c ****   
 322:./Libraries/STM32F4xx_HAL_Driver/Src/stm32f4xx_hal_tim_ex.c ****   /* Return function status */
 323:./Libraries/STM32F4xx_HAL_Driver/Src/stm32f4xx_hal_tim_ex.c ****   return HAL_OK;
 511              		.loc 1 323 10 is_stmt 1
 512 0046 0023     		movs	r3, #0
 324:./Libraries/STM32F4xx_HAL_Driver/Src/stm32f4xx_hal_tim_ex.c **** }
 513              		.loc 1 324 1
 514 0048 1846     		mov	r0, r3
 515 004a 0837     		adds	r7, r7, #8
 516              	.LCFI30:
 517              		.cfi_def_cfa_offset 8
 518 004c BD46     		mov	sp, r7
 519              	.LCFI31:
 520              		.cfi_def_cfa_register 13
 521              		@ sp needed
 522 004e 80BD     		pop	{r7, pc}
 523              		.cfi_endproc
 524              	.LFE131:
 526              		.section	.text.HAL_TIMEx_HallSensor_Start_IT,"ax",%progbits
 527              		.align	1
 528              		.global	HAL_TIMEx_HallSensor_Start_IT
 529              		.syntax unified
 530              		.thumb
 531              		.thumb_func
 532              		.fpu fpv4-sp-d16
 534              	HAL_TIMEx_HallSensor_Start_IT:
 535              	.LFB132:
 325:./Libraries/STM32F4xx_HAL_Driver/Src/stm32f4xx_hal_tim_ex.c **** 
 326:./Libraries/STM32F4xx_HAL_Driver/Src/stm32f4xx_hal_tim_ex.c **** /**
 327:./Libraries/STM32F4xx_HAL_Driver/Src/stm32f4xx_hal_tim_ex.c ****   * @brief  Starts the TIM Hall Sensor Interface in interrupt mode.
 328:./Libraries/STM32F4xx_HAL_Driver/Src/stm32f4xx_hal_tim_ex.c ****   * @param  htim pointer to a TIM_HandleTypeDef structure that contains
 329:./Libraries/STM32F4xx_HAL_Driver/Src/stm32f4xx_hal_tim_ex.c ****   *                the configuration information for TIM module.
 330:./Libraries/STM32F4xx_HAL_Driver/Src/stm32f4xx_hal_tim_ex.c ****   * @retval HAL status
 331:./Libraries/STM32F4xx_HAL_Driver/Src/stm32f4xx_hal_tim_ex.c ****   */
 332:./Libraries/STM32F4xx_HAL_Driver/Src/stm32f4xx_hal_tim_ex.c **** HAL_StatusTypeDef HAL_TIMEx_HallSensor_Start_IT(TIM_HandleTypeDef *htim)
 333:./Libraries/STM32F4xx_HAL_Driver/Src/stm32f4xx_hal_tim_ex.c **** { 
ARM GAS  /tmp/ccpPm7TE.s 			page 16


 536              		.loc 1 333 1
 537              		.cfi_startproc
 538              		@ args = 0, pretend = 0, frame = 8
 539              		@ frame_needed = 1, uses_anonymous_args = 0
 540 0000 80B5     		push	{r7, lr}
 541              	.LCFI32:
 542              		.cfi_def_cfa_offset 8
 543              		.cfi_offset 7, -8
 544              		.cfi_offset 14, -4
 545 0002 82B0     		sub	sp, sp, #8
 546              	.LCFI33:
 547              		.cfi_def_cfa_offset 16
 548 0004 00AF     		add	r7, sp, #0
 549              	.LCFI34:
 550              		.cfi_def_cfa_register 7
 551 0006 7860     		str	r0, [r7, #4]
 334:./Libraries/STM32F4xx_HAL_Driver/Src/stm32f4xx_hal_tim_ex.c ****   /* Check the parameters */
 335:./Libraries/STM32F4xx_HAL_Driver/Src/stm32f4xx_hal_tim_ex.c ****   assert_param(IS_TIM_XOR_INSTANCE(htim->Instance));
 336:./Libraries/STM32F4xx_HAL_Driver/Src/stm32f4xx_hal_tim_ex.c ****   
 337:./Libraries/STM32F4xx_HAL_Driver/Src/stm32f4xx_hal_tim_ex.c ****   /* Enable the capture compare Interrupts 1 event */
 338:./Libraries/STM32F4xx_HAL_Driver/Src/stm32f4xx_hal_tim_ex.c ****   __HAL_TIM_ENABLE_IT(htim, TIM_IT_CC1);
 552              		.loc 1 338 3
 553 0008 7B68     		ldr	r3, [r7, #4]
 554 000a 1B68     		ldr	r3, [r3]
 555 000c DA68     		ldr	r2, [r3, #12]
 556 000e 7B68     		ldr	r3, [r7, #4]
 557 0010 1B68     		ldr	r3, [r3]
 558 0012 42F00202 		orr	r2, r2, #2
 559 0016 DA60     		str	r2, [r3, #12]
 339:./Libraries/STM32F4xx_HAL_Driver/Src/stm32f4xx_hal_tim_ex.c ****   
 340:./Libraries/STM32F4xx_HAL_Driver/Src/stm32f4xx_hal_tim_ex.c ****   /* Enable the Input Capture channels 1
 341:./Libraries/STM32F4xx_HAL_Driver/Src/stm32f4xx_hal_tim_ex.c ****     (in the Hall Sensor Interface the Three possible channels that can be used are TIM_CHANNEL_1, T
 342:./Libraries/STM32F4xx_HAL_Driver/Src/stm32f4xx_hal_tim_ex.c ****   TIM_CCxChannelCmd(htim->Instance, TIM_CHANNEL_1, TIM_CCx_ENABLE);  
 560              		.loc 1 342 3
 561 0018 7B68     		ldr	r3, [r7, #4]
 562 001a 1B68     		ldr	r3, [r3]
 563 001c 0122     		movs	r2, #1
 564 001e 0021     		movs	r1, #0
 565 0020 1846     		mov	r0, r3
 566 0022 FFF7FEFF 		bl	TIM_CCxChannelCmd
 343:./Libraries/STM32F4xx_HAL_Driver/Src/stm32f4xx_hal_tim_ex.c ****   
 344:./Libraries/STM32F4xx_HAL_Driver/Src/stm32f4xx_hal_tim_ex.c ****   /* Enable the Peripheral */
 345:./Libraries/STM32F4xx_HAL_Driver/Src/stm32f4xx_hal_tim_ex.c ****   __HAL_TIM_ENABLE(htim);
 567              		.loc 1 345 3
 568 0026 7B68     		ldr	r3, [r7, #4]
 569 0028 1B68     		ldr	r3, [r3]
 570 002a 1A68     		ldr	r2, [r3]
 571 002c 7B68     		ldr	r3, [r7, #4]
 572 002e 1B68     		ldr	r3, [r3]
 573 0030 42F00102 		orr	r2, r2, #1
 574 0034 1A60     		str	r2, [r3]
 346:./Libraries/STM32F4xx_HAL_Driver/Src/stm32f4xx_hal_tim_ex.c ****   
 347:./Libraries/STM32F4xx_HAL_Driver/Src/stm32f4xx_hal_tim_ex.c ****   /* Return function status */
 348:./Libraries/STM32F4xx_HAL_Driver/Src/stm32f4xx_hal_tim_ex.c ****   return HAL_OK;
 575              		.loc 1 348 10
 576 0036 0023     		movs	r3, #0
 349:./Libraries/STM32F4xx_HAL_Driver/Src/stm32f4xx_hal_tim_ex.c **** }
ARM GAS  /tmp/ccpPm7TE.s 			page 17


 577              		.loc 1 349 1
 578 0038 1846     		mov	r0, r3
 579 003a 0837     		adds	r7, r7, #8
 580              	.LCFI35:
 581              		.cfi_def_cfa_offset 8
 582 003c BD46     		mov	sp, r7
 583              	.LCFI36:
 584              		.cfi_def_cfa_register 13
 585              		@ sp needed
 586 003e 80BD     		pop	{r7, pc}
 587              		.cfi_endproc
 588              	.LFE132:
 590              		.section	.text.HAL_TIMEx_HallSensor_Stop_IT,"ax",%progbits
 591              		.align	1
 592              		.global	HAL_TIMEx_HallSensor_Stop_IT
 593              		.syntax unified
 594              		.thumb
 595              		.thumb_func
 596              		.fpu fpv4-sp-d16
 598              	HAL_TIMEx_HallSensor_Stop_IT:
 599              	.LFB133:
 350:./Libraries/STM32F4xx_HAL_Driver/Src/stm32f4xx_hal_tim_ex.c **** 
 351:./Libraries/STM32F4xx_HAL_Driver/Src/stm32f4xx_hal_tim_ex.c **** /**
 352:./Libraries/STM32F4xx_HAL_Driver/Src/stm32f4xx_hal_tim_ex.c ****   * @brief  Stops the TIM Hall Sensor Interface in interrupt mode.
 353:./Libraries/STM32F4xx_HAL_Driver/Src/stm32f4xx_hal_tim_ex.c ****   * @param  htim pointer to a TIM_HandleTypeDef structure that contains
 354:./Libraries/STM32F4xx_HAL_Driver/Src/stm32f4xx_hal_tim_ex.c ****   *                the configuration information for TIM module.
 355:./Libraries/STM32F4xx_HAL_Driver/Src/stm32f4xx_hal_tim_ex.c ****   * @retval HAL status
 356:./Libraries/STM32F4xx_HAL_Driver/Src/stm32f4xx_hal_tim_ex.c ****   */
 357:./Libraries/STM32F4xx_HAL_Driver/Src/stm32f4xx_hal_tim_ex.c **** HAL_StatusTypeDef HAL_TIMEx_HallSensor_Stop_IT(TIM_HandleTypeDef *htim)
 358:./Libraries/STM32F4xx_HAL_Driver/Src/stm32f4xx_hal_tim_ex.c **** {
 600              		.loc 1 358 1
 601              		.cfi_startproc
 602              		@ args = 0, pretend = 0, frame = 8
 603              		@ frame_needed = 1, uses_anonymous_args = 0
 604 0000 80B5     		push	{r7, lr}
 605              	.LCFI37:
 606              		.cfi_def_cfa_offset 8
 607              		.cfi_offset 7, -8
 608              		.cfi_offset 14, -4
 609 0002 82B0     		sub	sp, sp, #8
 610              	.LCFI38:
 611              		.cfi_def_cfa_offset 16
 612 0004 00AF     		add	r7, sp, #0
 613              	.LCFI39:
 614              		.cfi_def_cfa_register 7
 615 0006 7860     		str	r0, [r7, #4]
 359:./Libraries/STM32F4xx_HAL_Driver/Src/stm32f4xx_hal_tim_ex.c ****   /* Check the parameters */
 360:./Libraries/STM32F4xx_HAL_Driver/Src/stm32f4xx_hal_tim_ex.c ****   assert_param(IS_TIM_XOR_INSTANCE(htim->Instance));
 361:./Libraries/STM32F4xx_HAL_Driver/Src/stm32f4xx_hal_tim_ex.c ****   
 362:./Libraries/STM32F4xx_HAL_Driver/Src/stm32f4xx_hal_tim_ex.c ****   /* Disable the Input Capture channels 1
 363:./Libraries/STM32F4xx_HAL_Driver/Src/stm32f4xx_hal_tim_ex.c ****     (in the Hall Sensor Interface the Three possible channels that can be used are TIM_CHANNEL_1, T
 364:./Libraries/STM32F4xx_HAL_Driver/Src/stm32f4xx_hal_tim_ex.c ****   TIM_CCxChannelCmd(htim->Instance, TIM_CHANNEL_1, TIM_CCx_DISABLE); 
 616              		.loc 1 364 3
 617 0008 7B68     		ldr	r3, [r7, #4]
 618 000a 1B68     		ldr	r3, [r3]
 619 000c 0022     		movs	r2, #0
 620 000e 0021     		movs	r1, #0
ARM GAS  /tmp/ccpPm7TE.s 			page 18


 621 0010 1846     		mov	r0, r3
 622 0012 FFF7FEFF 		bl	TIM_CCxChannelCmd
 365:./Libraries/STM32F4xx_HAL_Driver/Src/stm32f4xx_hal_tim_ex.c ****   
 366:./Libraries/STM32F4xx_HAL_Driver/Src/stm32f4xx_hal_tim_ex.c ****   /* Disable the capture compare Interrupts event */
 367:./Libraries/STM32F4xx_HAL_Driver/Src/stm32f4xx_hal_tim_ex.c ****   __HAL_TIM_DISABLE_IT(htim, TIM_IT_CC1);
 623              		.loc 1 367 3
 624 0016 7B68     		ldr	r3, [r7, #4]
 625 0018 1B68     		ldr	r3, [r3]
 626 001a DA68     		ldr	r2, [r3, #12]
 627 001c 7B68     		ldr	r3, [r7, #4]
 628 001e 1B68     		ldr	r3, [r3]
 629 0020 22F00202 		bic	r2, r2, #2
 630 0024 DA60     		str	r2, [r3, #12]
 368:./Libraries/STM32F4xx_HAL_Driver/Src/stm32f4xx_hal_tim_ex.c ****   
 369:./Libraries/STM32F4xx_HAL_Driver/Src/stm32f4xx_hal_tim_ex.c ****   /* Disable the Peripheral */
 370:./Libraries/STM32F4xx_HAL_Driver/Src/stm32f4xx_hal_tim_ex.c ****   __HAL_TIM_DISABLE(htim);
 631              		.loc 1 370 3
 632 0026 7B68     		ldr	r3, [r7, #4]
 633 0028 1B68     		ldr	r3, [r3]
 634 002a 1A6A     		ldr	r2, [r3, #32]
 635 002c 41F21113 		movw	r3, #4369
 636 0030 1340     		ands	r3, r3, r2
 637 0032 002B     		cmp	r3, #0
 638 0034 0FD1     		bne	.L18
 639              		.loc 1 370 3 is_stmt 0 discriminator 1
 640 0036 7B68     		ldr	r3, [r7, #4]
 641 0038 1B68     		ldr	r3, [r3]
 642 003a 1A6A     		ldr	r2, [r3, #32]
 643 003c 40F24443 		movw	r3, #1092
 644 0040 1340     		ands	r3, r3, r2
 645 0042 002B     		cmp	r3, #0
 646 0044 07D1     		bne	.L18
 647              		.loc 1 370 3 discriminator 2
 648 0046 7B68     		ldr	r3, [r7, #4]
 649 0048 1B68     		ldr	r3, [r3]
 650 004a 1A68     		ldr	r2, [r3]
 651 004c 7B68     		ldr	r3, [r7, #4]
 652 004e 1B68     		ldr	r3, [r3]
 653 0050 22F00102 		bic	r2, r2, #1
 654 0054 1A60     		str	r2, [r3]
 655              	.L18:
 371:./Libraries/STM32F4xx_HAL_Driver/Src/stm32f4xx_hal_tim_ex.c ****   
 372:./Libraries/STM32F4xx_HAL_Driver/Src/stm32f4xx_hal_tim_ex.c ****   /* Return function status */
 373:./Libraries/STM32F4xx_HAL_Driver/Src/stm32f4xx_hal_tim_ex.c ****   return HAL_OK;
 656              		.loc 1 373 10 is_stmt 1
 657 0056 0023     		movs	r3, #0
 374:./Libraries/STM32F4xx_HAL_Driver/Src/stm32f4xx_hal_tim_ex.c **** }
 658              		.loc 1 374 1
 659 0058 1846     		mov	r0, r3
 660 005a 0837     		adds	r7, r7, #8
 661              	.LCFI40:
 662              		.cfi_def_cfa_offset 8
 663 005c BD46     		mov	sp, r7
 664              	.LCFI41:
 665              		.cfi_def_cfa_register 13
 666              		@ sp needed
 667 005e 80BD     		pop	{r7, pc}
ARM GAS  /tmp/ccpPm7TE.s 			page 19


 668              		.cfi_endproc
 669              	.LFE133:
 671              		.section	.text.HAL_TIMEx_HallSensor_Start_DMA,"ax",%progbits
 672              		.align	1
 673              		.global	HAL_TIMEx_HallSensor_Start_DMA
 674              		.syntax unified
 675              		.thumb
 676              		.thumb_func
 677              		.fpu fpv4-sp-d16
 679              	HAL_TIMEx_HallSensor_Start_DMA:
 680              	.LFB134:
 375:./Libraries/STM32F4xx_HAL_Driver/Src/stm32f4xx_hal_tim_ex.c **** 
 376:./Libraries/STM32F4xx_HAL_Driver/Src/stm32f4xx_hal_tim_ex.c **** /**
 377:./Libraries/STM32F4xx_HAL_Driver/Src/stm32f4xx_hal_tim_ex.c ****   * @brief  Starts the TIM Hall Sensor Interface in DMA mode.
 378:./Libraries/STM32F4xx_HAL_Driver/Src/stm32f4xx_hal_tim_ex.c ****   * @param  htim pointer to a TIM_HandleTypeDef structure that contains
 379:./Libraries/STM32F4xx_HAL_Driver/Src/stm32f4xx_hal_tim_ex.c ****   *                the configuration information for TIM module.
 380:./Libraries/STM32F4xx_HAL_Driver/Src/stm32f4xx_hal_tim_ex.c ****   * @param  pData The destination Buffer address.
 381:./Libraries/STM32F4xx_HAL_Driver/Src/stm32f4xx_hal_tim_ex.c ****   * @param  Length The length of data to be transferred from TIM peripheral to memory.
 382:./Libraries/STM32F4xx_HAL_Driver/Src/stm32f4xx_hal_tim_ex.c ****   * @retval HAL status
 383:./Libraries/STM32F4xx_HAL_Driver/Src/stm32f4xx_hal_tim_ex.c ****   */
 384:./Libraries/STM32F4xx_HAL_Driver/Src/stm32f4xx_hal_tim_ex.c **** HAL_StatusTypeDef HAL_TIMEx_HallSensor_Start_DMA(TIM_HandleTypeDef *htim, uint32_t *pData, uint16_t
 385:./Libraries/STM32F4xx_HAL_Driver/Src/stm32f4xx_hal_tim_ex.c **** {
 681              		.loc 1 385 1
 682              		.cfi_startproc
 683              		@ args = 0, pretend = 0, frame = 16
 684              		@ frame_needed = 1, uses_anonymous_args = 0
 685 0000 80B5     		push	{r7, lr}
 686              	.LCFI42:
 687              		.cfi_def_cfa_offset 8
 688              		.cfi_offset 7, -8
 689              		.cfi_offset 14, -4
 690 0002 84B0     		sub	sp, sp, #16
 691              	.LCFI43:
 692              		.cfi_def_cfa_offset 24
 693 0004 00AF     		add	r7, sp, #0
 694              	.LCFI44:
 695              		.cfi_def_cfa_register 7
 696 0006 F860     		str	r0, [r7, #12]
 697 0008 B960     		str	r1, [r7, #8]
 698 000a 1346     		mov	r3, r2
 699 000c FB80     		strh	r3, [r7, #6]	@ movhi
 386:./Libraries/STM32F4xx_HAL_Driver/Src/stm32f4xx_hal_tim_ex.c ****   /* Check the parameters */
 387:./Libraries/STM32F4xx_HAL_Driver/Src/stm32f4xx_hal_tim_ex.c ****   assert_param(IS_TIM_XOR_INSTANCE(htim->Instance));
 388:./Libraries/STM32F4xx_HAL_Driver/Src/stm32f4xx_hal_tim_ex.c ****   
 389:./Libraries/STM32F4xx_HAL_Driver/Src/stm32f4xx_hal_tim_ex.c ****    if((htim->State == HAL_TIM_STATE_BUSY))
 700              		.loc 1 389 12
 701 000e FB68     		ldr	r3, [r7, #12]
 702 0010 93F83930 		ldrb	r3, [r3, #57]
 703 0014 DBB2     		uxtb	r3, r3
 704              		.loc 1 389 6
 705 0016 022B     		cmp	r3, #2
 706 0018 01D1     		bne	.L21
 390:./Libraries/STM32F4xx_HAL_Driver/Src/stm32f4xx_hal_tim_ex.c ****   {
 391:./Libraries/STM32F4xx_HAL_Driver/Src/stm32f4xx_hal_tim_ex.c ****      return HAL_BUSY;
 707              		.loc 1 391 13
 708 001a 0223     		movs	r3, #2
 709 001c 3BE0     		b	.L22
ARM GAS  /tmp/ccpPm7TE.s 			page 20


 710              	.L21:
 392:./Libraries/STM32F4xx_HAL_Driver/Src/stm32f4xx_hal_tim_ex.c ****   }
 393:./Libraries/STM32F4xx_HAL_Driver/Src/stm32f4xx_hal_tim_ex.c ****   else if((htim->State == HAL_TIM_STATE_READY))
 711              		.loc 1 393 16
 712 001e FB68     		ldr	r3, [r7, #12]
 713 0020 93F83930 		ldrb	r3, [r3, #57]
 714 0024 DBB2     		uxtb	r3, r3
 715              		.loc 1 393 10
 716 0026 012B     		cmp	r3, #1
 717 0028 0BD1     		bne	.L23
 394:./Libraries/STM32F4xx_HAL_Driver/Src/stm32f4xx_hal_tim_ex.c ****   {
 395:./Libraries/STM32F4xx_HAL_Driver/Src/stm32f4xx_hal_tim_ex.c ****     if(((uint32_t)pData == 0U) && (Length > 0)) 
 718              		.loc 1 395 7
 719 002a BB68     		ldr	r3, [r7, #8]
 720 002c 002B     		cmp	r3, #0
 721 002e 04D1     		bne	.L24
 722              		.loc 1 395 32 discriminator 1
 723 0030 FB88     		ldrh	r3, [r7, #6]
 724 0032 002B     		cmp	r3, #0
 725 0034 01D0     		beq	.L24
 396:./Libraries/STM32F4xx_HAL_Driver/Src/stm32f4xx_hal_tim_ex.c ****     {
 397:./Libraries/STM32F4xx_HAL_Driver/Src/stm32f4xx_hal_tim_ex.c ****       return HAL_ERROR;                                    
 726              		.loc 1 397 14
 727 0036 0123     		movs	r3, #1
 728 0038 2DE0     		b	.L22
 729              	.L24:
 398:./Libraries/STM32F4xx_HAL_Driver/Src/stm32f4xx_hal_tim_ex.c ****     }
 399:./Libraries/STM32F4xx_HAL_Driver/Src/stm32f4xx_hal_tim_ex.c ****     else
 400:./Libraries/STM32F4xx_HAL_Driver/Src/stm32f4xx_hal_tim_ex.c ****     {
 401:./Libraries/STM32F4xx_HAL_Driver/Src/stm32f4xx_hal_tim_ex.c ****       htim->State = HAL_TIM_STATE_BUSY;
 730              		.loc 1 401 19
 731 003a FB68     		ldr	r3, [r7, #12]
 732 003c 0222     		movs	r2, #2
 733 003e 83F83920 		strb	r2, [r3, #57]
 734              	.L23:
 402:./Libraries/STM32F4xx_HAL_Driver/Src/stm32f4xx_hal_tim_ex.c ****     }
 403:./Libraries/STM32F4xx_HAL_Driver/Src/stm32f4xx_hal_tim_ex.c ****   }
 404:./Libraries/STM32F4xx_HAL_Driver/Src/stm32f4xx_hal_tim_ex.c ****   /* Enable the Input Capture channels 1
 405:./Libraries/STM32F4xx_HAL_Driver/Src/stm32f4xx_hal_tim_ex.c ****     (in the Hall Sensor Interface the Three possible channels that can be used are TIM_CHANNEL_1, T
 406:./Libraries/STM32F4xx_HAL_Driver/Src/stm32f4xx_hal_tim_ex.c ****   TIM_CCxChannelCmd(htim->Instance, TIM_CHANNEL_1, TIM_CCx_ENABLE); 
 735              		.loc 1 406 3
 736 0042 FB68     		ldr	r3, [r7, #12]
 737 0044 1B68     		ldr	r3, [r3]
 738 0046 0122     		movs	r2, #1
 739 0048 0021     		movs	r1, #0
 740 004a 1846     		mov	r0, r3
 741 004c FFF7FEFF 		bl	TIM_CCxChannelCmd
 407:./Libraries/STM32F4xx_HAL_Driver/Src/stm32f4xx_hal_tim_ex.c ****   
 408:./Libraries/STM32F4xx_HAL_Driver/Src/stm32f4xx_hal_tim_ex.c ****   /* Set the DMA Input Capture 1 Callback */
 409:./Libraries/STM32F4xx_HAL_Driver/Src/stm32f4xx_hal_tim_ex.c ****   htim->hdma[TIM_DMA_ID_CC1]->XferCpltCallback = TIM_DMACaptureCplt;     
 742              		.loc 1 409 13
 743 0050 FB68     		ldr	r3, [r7, #12]
 744 0052 1B6A     		ldr	r3, [r3, #32]
 745              		.loc 1 409 48
 746 0054 124A     		ldr	r2, .L25
 747 0056 DA63     		str	r2, [r3, #60]
 410:./Libraries/STM32F4xx_HAL_Driver/Src/stm32f4xx_hal_tim_ex.c ****   /* Set the DMA error callback */
ARM GAS  /tmp/ccpPm7TE.s 			page 21


 411:./Libraries/STM32F4xx_HAL_Driver/Src/stm32f4xx_hal_tim_ex.c ****   htim->hdma[TIM_DMA_ID_CC1]->XferErrorCallback = TIM_DMAError ;
 748              		.loc 1 411 13
 749 0058 FB68     		ldr	r3, [r7, #12]
 750 005a 1B6A     		ldr	r3, [r3, #32]
 751              		.loc 1 411 49
 752 005c 114A     		ldr	r2, .L25+4
 753 005e DA64     		str	r2, [r3, #76]
 412:./Libraries/STM32F4xx_HAL_Driver/Src/stm32f4xx_hal_tim_ex.c ****   
 413:./Libraries/STM32F4xx_HAL_Driver/Src/stm32f4xx_hal_tim_ex.c ****   /* Enable the DMA Stream for Capture 1*/
 414:./Libraries/STM32F4xx_HAL_Driver/Src/stm32f4xx_hal_tim_ex.c ****   HAL_DMA_Start_IT(htim->hdma[TIM_DMA_ID_CC1], (uint32_t)&htim->Instance->CCR1, (uint32_t)pData, Le
 754              		.loc 1 414 3
 755 0060 FB68     		ldr	r3, [r7, #12]
 756 0062 186A     		ldr	r0, [r3, #32]
 757              		.loc 1 414 63
 758 0064 FB68     		ldr	r3, [r7, #12]
 759 0066 1B68     		ldr	r3, [r3]
 760              		.loc 1 414 58
 761 0068 3433     		adds	r3, r3, #52
 762              		.loc 1 414 3
 763 006a 1946     		mov	r1, r3
 764 006c BA68     		ldr	r2, [r7, #8]
 765 006e FB88     		ldrh	r3, [r7, #6]
 766 0070 FFF7FEFF 		bl	HAL_DMA_Start_IT
 415:./Libraries/STM32F4xx_HAL_Driver/Src/stm32f4xx_hal_tim_ex.c ****   
 416:./Libraries/STM32F4xx_HAL_Driver/Src/stm32f4xx_hal_tim_ex.c ****   /* Enable the capture compare 1 Interrupt */
 417:./Libraries/STM32F4xx_HAL_Driver/Src/stm32f4xx_hal_tim_ex.c ****   __HAL_TIM_ENABLE_DMA(htim, TIM_DMA_CC1);
 767              		.loc 1 417 3
 768 0074 FB68     		ldr	r3, [r7, #12]
 769 0076 1B68     		ldr	r3, [r3]
 770 0078 DA68     		ldr	r2, [r3, #12]
 771 007a FB68     		ldr	r3, [r7, #12]
 772 007c 1B68     		ldr	r3, [r3]
 773 007e 42F40072 		orr	r2, r2, #512
 774 0082 DA60     		str	r2, [r3, #12]
 418:./Libraries/STM32F4xx_HAL_Driver/Src/stm32f4xx_hal_tim_ex.c ****  
 419:./Libraries/STM32F4xx_HAL_Driver/Src/stm32f4xx_hal_tim_ex.c ****   /* Enable the Peripheral */
 420:./Libraries/STM32F4xx_HAL_Driver/Src/stm32f4xx_hal_tim_ex.c ****   __HAL_TIM_ENABLE(htim);
 775              		.loc 1 420 3
 776 0084 FB68     		ldr	r3, [r7, #12]
 777 0086 1B68     		ldr	r3, [r3]
 778 0088 1A68     		ldr	r2, [r3]
 779 008a FB68     		ldr	r3, [r7, #12]
 780 008c 1B68     		ldr	r3, [r3]
 781 008e 42F00102 		orr	r2, r2, #1
 782 0092 1A60     		str	r2, [r3]
 421:./Libraries/STM32F4xx_HAL_Driver/Src/stm32f4xx_hal_tim_ex.c ****   
 422:./Libraries/STM32F4xx_HAL_Driver/Src/stm32f4xx_hal_tim_ex.c ****   /* Return function status */
 423:./Libraries/STM32F4xx_HAL_Driver/Src/stm32f4xx_hal_tim_ex.c ****   return HAL_OK;
 783              		.loc 1 423 10
 784 0094 0023     		movs	r3, #0
 785              	.L22:
 424:./Libraries/STM32F4xx_HAL_Driver/Src/stm32f4xx_hal_tim_ex.c **** }
 786              		.loc 1 424 1
 787 0096 1846     		mov	r0, r3
 788 0098 1037     		adds	r7, r7, #16
 789              	.LCFI45:
 790              		.cfi_def_cfa_offset 8
ARM GAS  /tmp/ccpPm7TE.s 			page 22


 791 009a BD46     		mov	sp, r7
 792              	.LCFI46:
 793              		.cfi_def_cfa_register 13
 794              		@ sp needed
 795 009c 80BD     		pop	{r7, pc}
 796              	.L26:
 797 009e 00BF     		.align	2
 798              	.L25:
 799 00a0 00000000 		.word	TIM_DMACaptureCplt
 800 00a4 00000000 		.word	TIM_DMAError
 801              		.cfi_endproc
 802              	.LFE134:
 804              		.section	.text.HAL_TIMEx_HallSensor_Stop_DMA,"ax",%progbits
 805              		.align	1
 806              		.global	HAL_TIMEx_HallSensor_Stop_DMA
 807              		.syntax unified
 808              		.thumb
 809              		.thumb_func
 810              		.fpu fpv4-sp-d16
 812              	HAL_TIMEx_HallSensor_Stop_DMA:
 813              	.LFB135:
 425:./Libraries/STM32F4xx_HAL_Driver/Src/stm32f4xx_hal_tim_ex.c **** 
 426:./Libraries/STM32F4xx_HAL_Driver/Src/stm32f4xx_hal_tim_ex.c **** /**
 427:./Libraries/STM32F4xx_HAL_Driver/Src/stm32f4xx_hal_tim_ex.c ****   * @brief  Stops the TIM Hall Sensor Interface in DMA mode.
 428:./Libraries/STM32F4xx_HAL_Driver/Src/stm32f4xx_hal_tim_ex.c ****   * @param  htim pointer to a TIM_HandleTypeDef structure that contains
 429:./Libraries/STM32F4xx_HAL_Driver/Src/stm32f4xx_hal_tim_ex.c ****   *                the configuration information for TIM module.
 430:./Libraries/STM32F4xx_HAL_Driver/Src/stm32f4xx_hal_tim_ex.c ****   * @retval HAL status
 431:./Libraries/STM32F4xx_HAL_Driver/Src/stm32f4xx_hal_tim_ex.c ****   */
 432:./Libraries/STM32F4xx_HAL_Driver/Src/stm32f4xx_hal_tim_ex.c **** HAL_StatusTypeDef HAL_TIMEx_HallSensor_Stop_DMA(TIM_HandleTypeDef *htim)
 433:./Libraries/STM32F4xx_HAL_Driver/Src/stm32f4xx_hal_tim_ex.c **** {
 814              		.loc 1 433 1
 815              		.cfi_startproc
 816              		@ args = 0, pretend = 0, frame = 8
 817              		@ frame_needed = 1, uses_anonymous_args = 0
 818 0000 80B5     		push	{r7, lr}
 819              	.LCFI47:
 820              		.cfi_def_cfa_offset 8
 821              		.cfi_offset 7, -8
 822              		.cfi_offset 14, -4
 823 0002 82B0     		sub	sp, sp, #8
 824              	.LCFI48:
 825              		.cfi_def_cfa_offset 16
 826 0004 00AF     		add	r7, sp, #0
 827              	.LCFI49:
 828              		.cfi_def_cfa_register 7
 829 0006 7860     		str	r0, [r7, #4]
 434:./Libraries/STM32F4xx_HAL_Driver/Src/stm32f4xx_hal_tim_ex.c ****   /* Check the parameters */
 435:./Libraries/STM32F4xx_HAL_Driver/Src/stm32f4xx_hal_tim_ex.c ****   assert_param(IS_TIM_XOR_INSTANCE(htim->Instance));
 436:./Libraries/STM32F4xx_HAL_Driver/Src/stm32f4xx_hal_tim_ex.c ****   
 437:./Libraries/STM32F4xx_HAL_Driver/Src/stm32f4xx_hal_tim_ex.c ****   /* Disable the Input Capture channels 1
 438:./Libraries/STM32F4xx_HAL_Driver/Src/stm32f4xx_hal_tim_ex.c ****     (in the Hall Sensor Interface the Three possible channels that can be used are TIM_CHANNEL_1, T
 439:./Libraries/STM32F4xx_HAL_Driver/Src/stm32f4xx_hal_tim_ex.c ****   TIM_CCxChannelCmd(htim->Instance, TIM_CHANNEL_1, TIM_CCx_DISABLE); 
 830              		.loc 1 439 3
 831 0008 7B68     		ldr	r3, [r7, #4]
 832 000a 1B68     		ldr	r3, [r3]
 833 000c 0022     		movs	r2, #0
 834 000e 0021     		movs	r1, #0
ARM GAS  /tmp/ccpPm7TE.s 			page 23


 835 0010 1846     		mov	r0, r3
 836 0012 FFF7FEFF 		bl	TIM_CCxChannelCmd
 440:./Libraries/STM32F4xx_HAL_Driver/Src/stm32f4xx_hal_tim_ex.c ****  
 441:./Libraries/STM32F4xx_HAL_Driver/Src/stm32f4xx_hal_tim_ex.c ****   
 442:./Libraries/STM32F4xx_HAL_Driver/Src/stm32f4xx_hal_tim_ex.c ****   /* Disable the capture compare Interrupts 1 event */
 443:./Libraries/STM32F4xx_HAL_Driver/Src/stm32f4xx_hal_tim_ex.c ****   __HAL_TIM_DISABLE_DMA(htim, TIM_DMA_CC1);
 837              		.loc 1 443 3
 838 0016 7B68     		ldr	r3, [r7, #4]
 839 0018 1B68     		ldr	r3, [r3]
 840 001a DA68     		ldr	r2, [r3, #12]
 841 001c 7B68     		ldr	r3, [r7, #4]
 842 001e 1B68     		ldr	r3, [r3]
 843 0020 22F40072 		bic	r2, r2, #512
 844 0024 DA60     		str	r2, [r3, #12]
 444:./Libraries/STM32F4xx_HAL_Driver/Src/stm32f4xx_hal_tim_ex.c ****  
 445:./Libraries/STM32F4xx_HAL_Driver/Src/stm32f4xx_hal_tim_ex.c ****   /* Disable the Peripheral */
 446:./Libraries/STM32F4xx_HAL_Driver/Src/stm32f4xx_hal_tim_ex.c ****   __HAL_TIM_DISABLE(htim);
 845              		.loc 1 446 3
 846 0026 7B68     		ldr	r3, [r7, #4]
 847 0028 1B68     		ldr	r3, [r3]
 848 002a 1A6A     		ldr	r2, [r3, #32]
 849 002c 41F21113 		movw	r3, #4369
 850 0030 1340     		ands	r3, r3, r2
 851 0032 002B     		cmp	r3, #0
 852 0034 0FD1     		bne	.L28
 853              		.loc 1 446 3 is_stmt 0 discriminator 1
 854 0036 7B68     		ldr	r3, [r7, #4]
 855 0038 1B68     		ldr	r3, [r3]
 856 003a 1A6A     		ldr	r2, [r3, #32]
 857 003c 40F24443 		movw	r3, #1092
 858 0040 1340     		ands	r3, r3, r2
 859 0042 002B     		cmp	r3, #0
 860 0044 07D1     		bne	.L28
 861              		.loc 1 446 3 discriminator 2
 862 0046 7B68     		ldr	r3, [r7, #4]
 863 0048 1B68     		ldr	r3, [r3]
 864 004a 1A68     		ldr	r2, [r3]
 865 004c 7B68     		ldr	r3, [r7, #4]
 866 004e 1B68     		ldr	r3, [r3]
 867 0050 22F00102 		bic	r2, r2, #1
 868 0054 1A60     		str	r2, [r3]
 869              	.L28:
 447:./Libraries/STM32F4xx_HAL_Driver/Src/stm32f4xx_hal_tim_ex.c ****   
 448:./Libraries/STM32F4xx_HAL_Driver/Src/stm32f4xx_hal_tim_ex.c ****   /* Return function status */
 449:./Libraries/STM32F4xx_HAL_Driver/Src/stm32f4xx_hal_tim_ex.c ****   return HAL_OK;
 870              		.loc 1 449 10 is_stmt 1
 871 0056 0023     		movs	r3, #0
 450:./Libraries/STM32F4xx_HAL_Driver/Src/stm32f4xx_hal_tim_ex.c **** }
 872              		.loc 1 450 1
 873 0058 1846     		mov	r0, r3
 874 005a 0837     		adds	r7, r7, #8
 875              	.LCFI50:
 876              		.cfi_def_cfa_offset 8
 877 005c BD46     		mov	sp, r7
 878              	.LCFI51:
 879              		.cfi_def_cfa_register 13
 880              		@ sp needed
ARM GAS  /tmp/ccpPm7TE.s 			page 24


 881 005e 80BD     		pop	{r7, pc}
 882              		.cfi_endproc
 883              	.LFE135:
 885              		.section	.text.HAL_TIMEx_OCN_Start,"ax",%progbits
 886              		.align	1
 887              		.global	HAL_TIMEx_OCN_Start
 888              		.syntax unified
 889              		.thumb
 890              		.thumb_func
 891              		.fpu fpv4-sp-d16
 893              	HAL_TIMEx_OCN_Start:
 894              	.LFB136:
 451:./Libraries/STM32F4xx_HAL_Driver/Src/stm32f4xx_hal_tim_ex.c **** /**
 452:./Libraries/STM32F4xx_HAL_Driver/Src/stm32f4xx_hal_tim_ex.c ****   * @}
 453:./Libraries/STM32F4xx_HAL_Driver/Src/stm32f4xx_hal_tim_ex.c ****   */
 454:./Libraries/STM32F4xx_HAL_Driver/Src/stm32f4xx_hal_tim_ex.c ****   
 455:./Libraries/STM32F4xx_HAL_Driver/Src/stm32f4xx_hal_tim_ex.c **** /** @defgroup TIMEx_Exported_Functions_Group2 Timer Complementary Output Compare functions
 456:./Libraries/STM32F4xx_HAL_Driver/Src/stm32f4xx_hal_tim_ex.c ****  *  @brief    Timer Complementary Output Compare functions 
 457:./Libraries/STM32F4xx_HAL_Driver/Src/stm32f4xx_hal_tim_ex.c ****  *
 458:./Libraries/STM32F4xx_HAL_Driver/Src/stm32f4xx_hal_tim_ex.c **** @verbatim   
 459:./Libraries/STM32F4xx_HAL_Driver/Src/stm32f4xx_hal_tim_ex.c ****   ==============================================================================
 460:./Libraries/STM32F4xx_HAL_Driver/Src/stm32f4xx_hal_tim_ex.c ****               ##### Timer Complementary Output Compare functions #####
 461:./Libraries/STM32F4xx_HAL_Driver/Src/stm32f4xx_hal_tim_ex.c ****   ==============================================================================  
 462:./Libraries/STM32F4xx_HAL_Driver/Src/stm32f4xx_hal_tim_ex.c ****   [..]  
 463:./Libraries/STM32F4xx_HAL_Driver/Src/stm32f4xx_hal_tim_ex.c ****     This section provides functions allowing to:
 464:./Libraries/STM32F4xx_HAL_Driver/Src/stm32f4xx_hal_tim_ex.c ****     (+) Start the Complementary Output Compare/PWM.
 465:./Libraries/STM32F4xx_HAL_Driver/Src/stm32f4xx_hal_tim_ex.c ****     (+) Stop the Complementary Output Compare/PWM.
 466:./Libraries/STM32F4xx_HAL_Driver/Src/stm32f4xx_hal_tim_ex.c ****     (+) Start the Complementary Output Compare/PWM and enable interrupts.
 467:./Libraries/STM32F4xx_HAL_Driver/Src/stm32f4xx_hal_tim_ex.c ****     (+) Stop the Complementary Output Compare/PWM and disable interrupts.
 468:./Libraries/STM32F4xx_HAL_Driver/Src/stm32f4xx_hal_tim_ex.c ****     (+) Start the Complementary Output Compare/PWM and enable DMA transfers.
 469:./Libraries/STM32F4xx_HAL_Driver/Src/stm32f4xx_hal_tim_ex.c ****     (+) Stop the Complementary Output Compare/PWM and disable DMA transfers.
 470:./Libraries/STM32F4xx_HAL_Driver/Src/stm32f4xx_hal_tim_ex.c ****                
 471:./Libraries/STM32F4xx_HAL_Driver/Src/stm32f4xx_hal_tim_ex.c **** @endverbatim
 472:./Libraries/STM32F4xx_HAL_Driver/Src/stm32f4xx_hal_tim_ex.c ****   * @{
 473:./Libraries/STM32F4xx_HAL_Driver/Src/stm32f4xx_hal_tim_ex.c ****   */
 474:./Libraries/STM32F4xx_HAL_Driver/Src/stm32f4xx_hal_tim_ex.c ****   
 475:./Libraries/STM32F4xx_HAL_Driver/Src/stm32f4xx_hal_tim_ex.c **** /**
 476:./Libraries/STM32F4xx_HAL_Driver/Src/stm32f4xx_hal_tim_ex.c ****   * @brief  Starts the TIM Output Compare signal generation on the complementary
 477:./Libraries/STM32F4xx_HAL_Driver/Src/stm32f4xx_hal_tim_ex.c ****   *         output.
 478:./Libraries/STM32F4xx_HAL_Driver/Src/stm32f4xx_hal_tim_ex.c ****   * @param  htim pointer to a TIM_HandleTypeDef structure that contains
 479:./Libraries/STM32F4xx_HAL_Driver/Src/stm32f4xx_hal_tim_ex.c ****   *                the configuration information for TIM module.  
 480:./Libraries/STM32F4xx_HAL_Driver/Src/stm32f4xx_hal_tim_ex.c ****   * @param  Channel TIM Channel to be enabled.
 481:./Libraries/STM32F4xx_HAL_Driver/Src/stm32f4xx_hal_tim_ex.c ****   *          This parameter can be one of the following values:
 482:./Libraries/STM32F4xx_HAL_Driver/Src/stm32f4xx_hal_tim_ex.c ****   *            @arg TIM_CHANNEL_1: TIM Channel 1 selected
 483:./Libraries/STM32F4xx_HAL_Driver/Src/stm32f4xx_hal_tim_ex.c ****   *            @arg TIM_CHANNEL_2: TIM Channel 2 selected
 484:./Libraries/STM32F4xx_HAL_Driver/Src/stm32f4xx_hal_tim_ex.c ****   *            @arg TIM_CHANNEL_3: TIM Channel 3 selected
 485:./Libraries/STM32F4xx_HAL_Driver/Src/stm32f4xx_hal_tim_ex.c ****   * @retval HAL status
 486:./Libraries/STM32F4xx_HAL_Driver/Src/stm32f4xx_hal_tim_ex.c ****   */
 487:./Libraries/STM32F4xx_HAL_Driver/Src/stm32f4xx_hal_tim_ex.c **** HAL_StatusTypeDef HAL_TIMEx_OCN_Start(TIM_HandleTypeDef *htim, uint32_t Channel)
 488:./Libraries/STM32F4xx_HAL_Driver/Src/stm32f4xx_hal_tim_ex.c **** {
 895              		.loc 1 488 1
 896              		.cfi_startproc
 897              		@ args = 0, pretend = 0, frame = 8
 898              		@ frame_needed = 1, uses_anonymous_args = 0
 899 0000 80B5     		push	{r7, lr}
 900              	.LCFI52:
 901              		.cfi_def_cfa_offset 8
ARM GAS  /tmp/ccpPm7TE.s 			page 25


 902              		.cfi_offset 7, -8
 903              		.cfi_offset 14, -4
 904 0002 82B0     		sub	sp, sp, #8
 905              	.LCFI53:
 906              		.cfi_def_cfa_offset 16
 907 0004 00AF     		add	r7, sp, #0
 908              	.LCFI54:
 909              		.cfi_def_cfa_register 7
 910 0006 7860     		str	r0, [r7, #4]
 911 0008 3960     		str	r1, [r7]
 489:./Libraries/STM32F4xx_HAL_Driver/Src/stm32f4xx_hal_tim_ex.c ****   /* Check the parameters */
 490:./Libraries/STM32F4xx_HAL_Driver/Src/stm32f4xx_hal_tim_ex.c ****   assert_param(IS_TIM_CCXN_INSTANCE(htim->Instance, Channel)); 
 491:./Libraries/STM32F4xx_HAL_Driver/Src/stm32f4xx_hal_tim_ex.c ****   
 492:./Libraries/STM32F4xx_HAL_Driver/Src/stm32f4xx_hal_tim_ex.c ****      /* Enable the Capture compare channel N */
 493:./Libraries/STM32F4xx_HAL_Driver/Src/stm32f4xx_hal_tim_ex.c ****      TIM_CCxNChannelCmd(htim->Instance, Channel, TIM_CCxN_ENABLE);
 912              		.loc 1 493 6
 913 000a 7B68     		ldr	r3, [r7, #4]
 914 000c 1B68     		ldr	r3, [r3]
 915 000e 0422     		movs	r2, #4
 916 0010 3968     		ldr	r1, [r7]
 917 0012 1846     		mov	r0, r3
 918 0014 FFF7FEFF 		bl	TIM_CCxNChannelCmd
 494:./Libraries/STM32F4xx_HAL_Driver/Src/stm32f4xx_hal_tim_ex.c ****     
 495:./Libraries/STM32F4xx_HAL_Driver/Src/stm32f4xx_hal_tim_ex.c ****   /* Enable the Main Output */
 496:./Libraries/STM32F4xx_HAL_Driver/Src/stm32f4xx_hal_tim_ex.c ****     __HAL_TIM_MOE_ENABLE(htim);
 919              		.loc 1 496 5
 920 0018 7B68     		ldr	r3, [r7, #4]
 921 001a 1B68     		ldr	r3, [r3]
 922 001c 5A6C     		ldr	r2, [r3, #68]
 923 001e 7B68     		ldr	r3, [r7, #4]
 924 0020 1B68     		ldr	r3, [r3]
 925 0022 42F40042 		orr	r2, r2, #32768
 926 0026 5A64     		str	r2, [r3, #68]
 497:./Libraries/STM32F4xx_HAL_Driver/Src/stm32f4xx_hal_tim_ex.c **** 
 498:./Libraries/STM32F4xx_HAL_Driver/Src/stm32f4xx_hal_tim_ex.c ****   /* Enable the Peripheral */
 499:./Libraries/STM32F4xx_HAL_Driver/Src/stm32f4xx_hal_tim_ex.c ****   __HAL_TIM_ENABLE(htim);
 927              		.loc 1 499 3
 928 0028 7B68     		ldr	r3, [r7, #4]
 929 002a 1B68     		ldr	r3, [r3]
 930 002c 1A68     		ldr	r2, [r3]
 931 002e 7B68     		ldr	r3, [r7, #4]
 932 0030 1B68     		ldr	r3, [r3]
 933 0032 42F00102 		orr	r2, r2, #1
 934 0036 1A60     		str	r2, [r3]
 500:./Libraries/STM32F4xx_HAL_Driver/Src/stm32f4xx_hal_tim_ex.c ****   
 501:./Libraries/STM32F4xx_HAL_Driver/Src/stm32f4xx_hal_tim_ex.c ****   /* Return function status */
 502:./Libraries/STM32F4xx_HAL_Driver/Src/stm32f4xx_hal_tim_ex.c ****   return HAL_OK;
 935              		.loc 1 502 10
 936 0038 0023     		movs	r3, #0
 503:./Libraries/STM32F4xx_HAL_Driver/Src/stm32f4xx_hal_tim_ex.c **** } 
 937              		.loc 1 503 1
 938 003a 1846     		mov	r0, r3
 939 003c 0837     		adds	r7, r7, #8
 940              	.LCFI55:
 941              		.cfi_def_cfa_offset 8
 942 003e BD46     		mov	sp, r7
 943              	.LCFI56:
ARM GAS  /tmp/ccpPm7TE.s 			page 26


 944              		.cfi_def_cfa_register 13
 945              		@ sp needed
 946 0040 80BD     		pop	{r7, pc}
 947              		.cfi_endproc
 948              	.LFE136:
 950              		.section	.text.HAL_TIMEx_OCN_Stop,"ax",%progbits
 951              		.align	1
 952              		.global	HAL_TIMEx_OCN_Stop
 953              		.syntax unified
 954              		.thumb
 955              		.thumb_func
 956              		.fpu fpv4-sp-d16
 958              	HAL_TIMEx_OCN_Stop:
 959              	.LFB137:
 504:./Libraries/STM32F4xx_HAL_Driver/Src/stm32f4xx_hal_tim_ex.c **** 
 505:./Libraries/STM32F4xx_HAL_Driver/Src/stm32f4xx_hal_tim_ex.c **** /**
 506:./Libraries/STM32F4xx_HAL_Driver/Src/stm32f4xx_hal_tim_ex.c ****   * @brief  Stops the TIM Output Compare signal generation on the complementary
 507:./Libraries/STM32F4xx_HAL_Driver/Src/stm32f4xx_hal_tim_ex.c ****   *         output.
 508:./Libraries/STM32F4xx_HAL_Driver/Src/stm32f4xx_hal_tim_ex.c ****   * @param  htim pointer to a TIM_HandleTypeDef structure that contains
 509:./Libraries/STM32F4xx_HAL_Driver/Src/stm32f4xx_hal_tim_ex.c ****   *                the configuration information for TIM module.
 510:./Libraries/STM32F4xx_HAL_Driver/Src/stm32f4xx_hal_tim_ex.c ****   * @param  Channel TIM Channel to be disabled.
 511:./Libraries/STM32F4xx_HAL_Driver/Src/stm32f4xx_hal_tim_ex.c ****   *          This parameter can be one of the following values:
 512:./Libraries/STM32F4xx_HAL_Driver/Src/stm32f4xx_hal_tim_ex.c ****   *            @arg TIM_CHANNEL_1: TIM Channel 1 selected
 513:./Libraries/STM32F4xx_HAL_Driver/Src/stm32f4xx_hal_tim_ex.c ****   *            @arg TIM_CHANNEL_2: TIM Channel 2 selected
 514:./Libraries/STM32F4xx_HAL_Driver/Src/stm32f4xx_hal_tim_ex.c ****   *            @arg TIM_CHANNEL_3: TIM Channel 3 selected
 515:./Libraries/STM32F4xx_HAL_Driver/Src/stm32f4xx_hal_tim_ex.c ****   * @retval HAL status
 516:./Libraries/STM32F4xx_HAL_Driver/Src/stm32f4xx_hal_tim_ex.c ****   */
 517:./Libraries/STM32F4xx_HAL_Driver/Src/stm32f4xx_hal_tim_ex.c **** HAL_StatusTypeDef HAL_TIMEx_OCN_Stop(TIM_HandleTypeDef *htim, uint32_t Channel)
 518:./Libraries/STM32F4xx_HAL_Driver/Src/stm32f4xx_hal_tim_ex.c **** { 
 960              		.loc 1 518 1
 961              		.cfi_startproc
 962              		@ args = 0, pretend = 0, frame = 8
 963              		@ frame_needed = 1, uses_anonymous_args = 0
 964 0000 80B5     		push	{r7, lr}
 965              	.LCFI57:
 966              		.cfi_def_cfa_offset 8
 967              		.cfi_offset 7, -8
 968              		.cfi_offset 14, -4
 969 0002 82B0     		sub	sp, sp, #8
 970              	.LCFI58:
 971              		.cfi_def_cfa_offset 16
 972 0004 00AF     		add	r7, sp, #0
 973              	.LCFI59:
 974              		.cfi_def_cfa_register 7
 975 0006 7860     		str	r0, [r7, #4]
 976 0008 3960     		str	r1, [r7]
 519:./Libraries/STM32F4xx_HAL_Driver/Src/stm32f4xx_hal_tim_ex.c ****   /* Check the parameters */
 520:./Libraries/STM32F4xx_HAL_Driver/Src/stm32f4xx_hal_tim_ex.c ****   assert_param(IS_TIM_CCXN_INSTANCE(htim->Instance, Channel)); 
 521:./Libraries/STM32F4xx_HAL_Driver/Src/stm32f4xx_hal_tim_ex.c ****   
 522:./Libraries/STM32F4xx_HAL_Driver/Src/stm32f4xx_hal_tim_ex.c ****     /* Disable the Capture compare channel N */
 523:./Libraries/STM32F4xx_HAL_Driver/Src/stm32f4xx_hal_tim_ex.c ****   TIM_CCxNChannelCmd(htim->Instance, Channel, TIM_CCxN_DISABLE);
 977              		.loc 1 523 3
 978 000a 7B68     		ldr	r3, [r7, #4]
 979 000c 1B68     		ldr	r3, [r3]
 980 000e 0022     		movs	r2, #0
 981 0010 3968     		ldr	r1, [r7]
 982 0012 1846     		mov	r0, r3
ARM GAS  /tmp/ccpPm7TE.s 			page 27


 983 0014 FFF7FEFF 		bl	TIM_CCxNChannelCmd
 524:./Libraries/STM32F4xx_HAL_Driver/Src/stm32f4xx_hal_tim_ex.c ****     
 525:./Libraries/STM32F4xx_HAL_Driver/Src/stm32f4xx_hal_tim_ex.c ****   /* Disable the Main Output */
 526:./Libraries/STM32F4xx_HAL_Driver/Src/stm32f4xx_hal_tim_ex.c ****     __HAL_TIM_MOE_DISABLE(htim);
 984              		.loc 1 526 5
 985 0018 7B68     		ldr	r3, [r7, #4]
 986 001a 1B68     		ldr	r3, [r3]
 987 001c 1A6A     		ldr	r2, [r3, #32]
 988 001e 41F21113 		movw	r3, #4369
 989 0022 1340     		ands	r3, r3, r2
 990 0024 002B     		cmp	r3, #0
 991 0026 0FD1     		bne	.L33
 992              		.loc 1 526 5 is_stmt 0 discriminator 1
 993 0028 7B68     		ldr	r3, [r7, #4]
 994 002a 1B68     		ldr	r3, [r3]
 995 002c 1A6A     		ldr	r2, [r3, #32]
 996 002e 40F24443 		movw	r3, #1092
 997 0032 1340     		ands	r3, r3, r2
 998 0034 002B     		cmp	r3, #0
 999 0036 07D1     		bne	.L33
 1000              		.loc 1 526 5 discriminator 2
 1001 0038 7B68     		ldr	r3, [r7, #4]
 1002 003a 1B68     		ldr	r3, [r3]
 1003 003c 5A6C     		ldr	r2, [r3, #68]
 1004 003e 7B68     		ldr	r3, [r7, #4]
 1005 0040 1B68     		ldr	r3, [r3]
 1006 0042 22F40042 		bic	r2, r2, #32768
 1007 0046 5A64     		str	r2, [r3, #68]
 1008              	.L33:
 527:./Libraries/STM32F4xx_HAL_Driver/Src/stm32f4xx_hal_tim_ex.c **** 
 528:./Libraries/STM32F4xx_HAL_Driver/Src/stm32f4xx_hal_tim_ex.c ****   /* Disable the Peripheral */
 529:./Libraries/STM32F4xx_HAL_Driver/Src/stm32f4xx_hal_tim_ex.c ****   __HAL_TIM_DISABLE(htim);
 1009              		.loc 1 529 3 is_stmt 1
 1010 0048 7B68     		ldr	r3, [r7, #4]
 1011 004a 1B68     		ldr	r3, [r3]
 1012 004c 1A6A     		ldr	r2, [r3, #32]
 1013 004e 41F21113 		movw	r3, #4369
 1014 0052 1340     		ands	r3, r3, r2
 1015 0054 002B     		cmp	r3, #0
 1016 0056 0FD1     		bne	.L34
 1017              		.loc 1 529 3 is_stmt 0 discriminator 1
 1018 0058 7B68     		ldr	r3, [r7, #4]
 1019 005a 1B68     		ldr	r3, [r3]
 1020 005c 1A6A     		ldr	r2, [r3, #32]
 1021 005e 40F24443 		movw	r3, #1092
 1022 0062 1340     		ands	r3, r3, r2
 1023 0064 002B     		cmp	r3, #0
 1024 0066 07D1     		bne	.L34
 1025              		.loc 1 529 3 discriminator 2
 1026 0068 7B68     		ldr	r3, [r7, #4]
 1027 006a 1B68     		ldr	r3, [r3]
 1028 006c 1A68     		ldr	r2, [r3]
 1029 006e 7B68     		ldr	r3, [r7, #4]
 1030 0070 1B68     		ldr	r3, [r3]
 1031 0072 22F00102 		bic	r2, r2, #1
 1032 0076 1A60     		str	r2, [r3]
 1033              	.L34:
ARM GAS  /tmp/ccpPm7TE.s 			page 28


 530:./Libraries/STM32F4xx_HAL_Driver/Src/stm32f4xx_hal_tim_ex.c ****   
 531:./Libraries/STM32F4xx_HAL_Driver/Src/stm32f4xx_hal_tim_ex.c ****   /* Return function status */
 532:./Libraries/STM32F4xx_HAL_Driver/Src/stm32f4xx_hal_tim_ex.c ****   return HAL_OK;
 1034              		.loc 1 532 10 is_stmt 1
 1035 0078 0023     		movs	r3, #0
 533:./Libraries/STM32F4xx_HAL_Driver/Src/stm32f4xx_hal_tim_ex.c **** } 
 1036              		.loc 1 533 1
 1037 007a 1846     		mov	r0, r3
 1038 007c 0837     		adds	r7, r7, #8
 1039              	.LCFI60:
 1040              		.cfi_def_cfa_offset 8
 1041 007e BD46     		mov	sp, r7
 1042              	.LCFI61:
 1043              		.cfi_def_cfa_register 13
 1044              		@ sp needed
 1045 0080 80BD     		pop	{r7, pc}
 1046              		.cfi_endproc
 1047              	.LFE137:
 1049              		.section	.text.HAL_TIMEx_OCN_Start_IT,"ax",%progbits
 1050              		.align	1
 1051              		.global	HAL_TIMEx_OCN_Start_IT
 1052              		.syntax unified
 1053              		.thumb
 1054              		.thumb_func
 1055              		.fpu fpv4-sp-d16
 1057              	HAL_TIMEx_OCN_Start_IT:
 1058              	.LFB138:
 534:./Libraries/STM32F4xx_HAL_Driver/Src/stm32f4xx_hal_tim_ex.c **** 
 535:./Libraries/STM32F4xx_HAL_Driver/Src/stm32f4xx_hal_tim_ex.c **** /**
 536:./Libraries/STM32F4xx_HAL_Driver/Src/stm32f4xx_hal_tim_ex.c ****   * @brief  Starts the TIM Output Compare signal generation in interrupt mode 
 537:./Libraries/STM32F4xx_HAL_Driver/Src/stm32f4xx_hal_tim_ex.c ****   *         on the complementary output.
 538:./Libraries/STM32F4xx_HAL_Driver/Src/stm32f4xx_hal_tim_ex.c ****   * @param  htim pointer to a TIM_HandleTypeDef structure that contains
 539:./Libraries/STM32F4xx_HAL_Driver/Src/stm32f4xx_hal_tim_ex.c ****   *                the configuration information for TIM module.
 540:./Libraries/STM32F4xx_HAL_Driver/Src/stm32f4xx_hal_tim_ex.c ****   * @param  Channel TIM Channel to be enabled.
 541:./Libraries/STM32F4xx_HAL_Driver/Src/stm32f4xx_hal_tim_ex.c ****   *          This parameter can be one of the following values:
 542:./Libraries/STM32F4xx_HAL_Driver/Src/stm32f4xx_hal_tim_ex.c ****   *            @arg TIM_CHANNEL_1: TIM Channel 1 selected
 543:./Libraries/STM32F4xx_HAL_Driver/Src/stm32f4xx_hal_tim_ex.c ****   *            @arg TIM_CHANNEL_2: TIM Channel 2 selected
 544:./Libraries/STM32F4xx_HAL_Driver/Src/stm32f4xx_hal_tim_ex.c ****   *            @arg TIM_CHANNEL_3: TIM Channel 3 selected
 545:./Libraries/STM32F4xx_HAL_Driver/Src/stm32f4xx_hal_tim_ex.c ****   * @retval HAL status
 546:./Libraries/STM32F4xx_HAL_Driver/Src/stm32f4xx_hal_tim_ex.c ****   */
 547:./Libraries/STM32F4xx_HAL_Driver/Src/stm32f4xx_hal_tim_ex.c **** HAL_StatusTypeDef HAL_TIMEx_OCN_Start_IT(TIM_HandleTypeDef *htim, uint32_t Channel)
 548:./Libraries/STM32F4xx_HAL_Driver/Src/stm32f4xx_hal_tim_ex.c **** {
 1059              		.loc 1 548 1
 1060              		.cfi_startproc
 1061              		@ args = 0, pretend = 0, frame = 8
 1062              		@ frame_needed = 1, uses_anonymous_args = 0
 1063 0000 80B5     		push	{r7, lr}
 1064              	.LCFI62:
 1065              		.cfi_def_cfa_offset 8
 1066              		.cfi_offset 7, -8
 1067              		.cfi_offset 14, -4
 1068 0002 82B0     		sub	sp, sp, #8
 1069              	.LCFI63:
 1070              		.cfi_def_cfa_offset 16
 1071 0004 00AF     		add	r7, sp, #0
 1072              	.LCFI64:
 1073              		.cfi_def_cfa_register 7
ARM GAS  /tmp/ccpPm7TE.s 			page 29


 1074 0006 7860     		str	r0, [r7, #4]
 1075 0008 3960     		str	r1, [r7]
 1076 000a 3B68     		ldr	r3, [r7]
 1077 000c 0C2B     		cmp	r3, #12
 1078 000e 41D8     		bhi	.L45
 1079 0010 01A2     		adr	r2, .L39
 1080 0012 52F823F0 		ldr	pc, [r2, r3, lsl #2]
 1081 0016 00BF     		.p2align 2
 1082              	.L39:
 1083 0018 4D000000 		.word	.L42+1
 1084 001c 95000000 		.word	.L45+1
 1085 0020 95000000 		.word	.L45+1
 1086 0024 95000000 		.word	.L45+1
 1087 0028 5F000000 		.word	.L41+1
 1088 002c 95000000 		.word	.L45+1
 1089 0030 95000000 		.word	.L45+1
 1090 0034 95000000 		.word	.L45+1
 1091 0038 71000000 		.word	.L40+1
 1092 003c 95000000 		.word	.L45+1
 1093 0040 95000000 		.word	.L45+1
 1094 0044 95000000 		.word	.L45+1
 1095 0048 83000000 		.word	.L38+1
 1096              		.p2align 1
 1097              	.L42:
 549:./Libraries/STM32F4xx_HAL_Driver/Src/stm32f4xx_hal_tim_ex.c ****   /* Check the parameters */
 550:./Libraries/STM32F4xx_HAL_Driver/Src/stm32f4xx_hal_tim_ex.c ****   assert_param(IS_TIM_CCXN_INSTANCE(htim->Instance, Channel)); 
 551:./Libraries/STM32F4xx_HAL_Driver/Src/stm32f4xx_hal_tim_ex.c ****   
 552:./Libraries/STM32F4xx_HAL_Driver/Src/stm32f4xx_hal_tim_ex.c ****   switch (Channel)
 553:./Libraries/STM32F4xx_HAL_Driver/Src/stm32f4xx_hal_tim_ex.c ****   {
 554:./Libraries/STM32F4xx_HAL_Driver/Src/stm32f4xx_hal_tim_ex.c ****     case TIM_CHANNEL_1:
 555:./Libraries/STM32F4xx_HAL_Driver/Src/stm32f4xx_hal_tim_ex.c ****     {       
 556:./Libraries/STM32F4xx_HAL_Driver/Src/stm32f4xx_hal_tim_ex.c ****       /* Enable the TIM Output Compare interrupt */
 557:./Libraries/STM32F4xx_HAL_Driver/Src/stm32f4xx_hal_tim_ex.c ****       __HAL_TIM_ENABLE_IT(htim, TIM_IT_CC1);
 1098              		.loc 1 557 7
 1099 004c 7B68     		ldr	r3, [r7, #4]
 1100 004e 1B68     		ldr	r3, [r3]
 1101 0050 DA68     		ldr	r2, [r3, #12]
 1102 0052 7B68     		ldr	r3, [r7, #4]
 1103 0054 1B68     		ldr	r3, [r3]
 1104 0056 42F00202 		orr	r2, r2, #2
 1105 005a DA60     		str	r2, [r3, #12]
 558:./Libraries/STM32F4xx_HAL_Driver/Src/stm32f4xx_hal_tim_ex.c ****     }
 559:./Libraries/STM32F4xx_HAL_Driver/Src/stm32f4xx_hal_tim_ex.c ****     break;
 1106              		.loc 1 559 5
 1107 005c 1BE0     		b	.L43
 1108              	.L41:
 560:./Libraries/STM32F4xx_HAL_Driver/Src/stm32f4xx_hal_tim_ex.c ****     
 561:./Libraries/STM32F4xx_HAL_Driver/Src/stm32f4xx_hal_tim_ex.c ****     case TIM_CHANNEL_2:
 562:./Libraries/STM32F4xx_HAL_Driver/Src/stm32f4xx_hal_tim_ex.c ****     {
 563:./Libraries/STM32F4xx_HAL_Driver/Src/stm32f4xx_hal_tim_ex.c ****       /* Enable the TIM Output Compare interrupt */
 564:./Libraries/STM32F4xx_HAL_Driver/Src/stm32f4xx_hal_tim_ex.c ****       __HAL_TIM_ENABLE_IT(htim, TIM_IT_CC2);
 1109              		.loc 1 564 7
 1110 005e 7B68     		ldr	r3, [r7, #4]
 1111 0060 1B68     		ldr	r3, [r3]
 1112 0062 DA68     		ldr	r2, [r3, #12]
 1113 0064 7B68     		ldr	r3, [r7, #4]
 1114 0066 1B68     		ldr	r3, [r3]
ARM GAS  /tmp/ccpPm7TE.s 			page 30


 1115 0068 42F00402 		orr	r2, r2, #4
 1116 006c DA60     		str	r2, [r3, #12]
 565:./Libraries/STM32F4xx_HAL_Driver/Src/stm32f4xx_hal_tim_ex.c ****     }
 566:./Libraries/STM32F4xx_HAL_Driver/Src/stm32f4xx_hal_tim_ex.c ****     break;
 1117              		.loc 1 566 5
 1118 006e 12E0     		b	.L43
 1119              	.L40:
 567:./Libraries/STM32F4xx_HAL_Driver/Src/stm32f4xx_hal_tim_ex.c ****     
 568:./Libraries/STM32F4xx_HAL_Driver/Src/stm32f4xx_hal_tim_ex.c ****     case TIM_CHANNEL_3:
 569:./Libraries/STM32F4xx_HAL_Driver/Src/stm32f4xx_hal_tim_ex.c ****     {
 570:./Libraries/STM32F4xx_HAL_Driver/Src/stm32f4xx_hal_tim_ex.c ****       /* Enable the TIM Output Compare interrupt */
 571:./Libraries/STM32F4xx_HAL_Driver/Src/stm32f4xx_hal_tim_ex.c ****       __HAL_TIM_ENABLE_IT(htim, TIM_IT_CC3);
 1120              		.loc 1 571 7
 1121 0070 7B68     		ldr	r3, [r7, #4]
 1122 0072 1B68     		ldr	r3, [r3]
 1123 0074 DA68     		ldr	r2, [r3, #12]
 1124 0076 7B68     		ldr	r3, [r7, #4]
 1125 0078 1B68     		ldr	r3, [r3]
 1126 007a 42F00802 		orr	r2, r2, #8
 1127 007e DA60     		str	r2, [r3, #12]
 572:./Libraries/STM32F4xx_HAL_Driver/Src/stm32f4xx_hal_tim_ex.c ****     }
 573:./Libraries/STM32F4xx_HAL_Driver/Src/stm32f4xx_hal_tim_ex.c ****     break;
 1128              		.loc 1 573 5
 1129 0080 09E0     		b	.L43
 1130              	.L38:
 574:./Libraries/STM32F4xx_HAL_Driver/Src/stm32f4xx_hal_tim_ex.c ****     
 575:./Libraries/STM32F4xx_HAL_Driver/Src/stm32f4xx_hal_tim_ex.c ****     case TIM_CHANNEL_4:
 576:./Libraries/STM32F4xx_HAL_Driver/Src/stm32f4xx_hal_tim_ex.c ****     {
 577:./Libraries/STM32F4xx_HAL_Driver/Src/stm32f4xx_hal_tim_ex.c ****       /* Enable the TIM Output Compare interrupt */
 578:./Libraries/STM32F4xx_HAL_Driver/Src/stm32f4xx_hal_tim_ex.c ****       __HAL_TIM_ENABLE_IT(htim, TIM_IT_CC4);
 1131              		.loc 1 578 7
 1132 0082 7B68     		ldr	r3, [r7, #4]
 1133 0084 1B68     		ldr	r3, [r3]
 1134 0086 DA68     		ldr	r2, [r3, #12]
 1135 0088 7B68     		ldr	r3, [r7, #4]
 1136 008a 1B68     		ldr	r3, [r3]
 1137 008c 42F01002 		orr	r2, r2, #16
 1138 0090 DA60     		str	r2, [r3, #12]
 579:./Libraries/STM32F4xx_HAL_Driver/Src/stm32f4xx_hal_tim_ex.c ****     }
 580:./Libraries/STM32F4xx_HAL_Driver/Src/stm32f4xx_hal_tim_ex.c ****     break;
 1139              		.loc 1 580 5
 1140 0092 00E0     		b	.L43
 1141              	.L45:
 581:./Libraries/STM32F4xx_HAL_Driver/Src/stm32f4xx_hal_tim_ex.c ****     
 582:./Libraries/STM32F4xx_HAL_Driver/Src/stm32f4xx_hal_tim_ex.c ****     default:
 583:./Libraries/STM32F4xx_HAL_Driver/Src/stm32f4xx_hal_tim_ex.c ****     break;
 1142              		.loc 1 583 5
 1143 0094 00BF     		nop
 1144              	.L43:
 584:./Libraries/STM32F4xx_HAL_Driver/Src/stm32f4xx_hal_tim_ex.c ****   } 
 585:./Libraries/STM32F4xx_HAL_Driver/Src/stm32f4xx_hal_tim_ex.c ****   
 586:./Libraries/STM32F4xx_HAL_Driver/Src/stm32f4xx_hal_tim_ex.c ****   /* Enable the TIM Break interrupt */
 587:./Libraries/STM32F4xx_HAL_Driver/Src/stm32f4xx_hal_tim_ex.c ****   __HAL_TIM_ENABLE_IT(htim, TIM_IT_BREAK);
 1145              		.loc 1 587 3
 1146 0096 7B68     		ldr	r3, [r7, #4]
 1147 0098 1B68     		ldr	r3, [r3]
 1148 009a DA68     		ldr	r2, [r3, #12]
ARM GAS  /tmp/ccpPm7TE.s 			page 31


 1149 009c 7B68     		ldr	r3, [r7, #4]
 1150 009e 1B68     		ldr	r3, [r3]
 1151 00a0 42F08002 		orr	r2, r2, #128
 1152 00a4 DA60     		str	r2, [r3, #12]
 588:./Libraries/STM32F4xx_HAL_Driver/Src/stm32f4xx_hal_tim_ex.c ****   
 589:./Libraries/STM32F4xx_HAL_Driver/Src/stm32f4xx_hal_tim_ex.c ****   /* Enable the Capture compare channel N */
 590:./Libraries/STM32F4xx_HAL_Driver/Src/stm32f4xx_hal_tim_ex.c ****   TIM_CCxNChannelCmd(htim->Instance, Channel, TIM_CCxN_ENABLE);
 1153              		.loc 1 590 3
 1154 00a6 7B68     		ldr	r3, [r7, #4]
 1155 00a8 1B68     		ldr	r3, [r3]
 1156 00aa 0422     		movs	r2, #4
 1157 00ac 3968     		ldr	r1, [r7]
 1158 00ae 1846     		mov	r0, r3
 1159 00b0 FFF7FEFF 		bl	TIM_CCxNChannelCmd
 591:./Libraries/STM32F4xx_HAL_Driver/Src/stm32f4xx_hal_tim_ex.c ****   
 592:./Libraries/STM32F4xx_HAL_Driver/Src/stm32f4xx_hal_tim_ex.c ****   /* Enable the Main Output */
 593:./Libraries/STM32F4xx_HAL_Driver/Src/stm32f4xx_hal_tim_ex.c ****   __HAL_TIM_MOE_ENABLE(htim);
 1160              		.loc 1 593 3
 1161 00b4 7B68     		ldr	r3, [r7, #4]
 1162 00b6 1B68     		ldr	r3, [r3]
 1163 00b8 5A6C     		ldr	r2, [r3, #68]
 1164 00ba 7B68     		ldr	r3, [r7, #4]
 1165 00bc 1B68     		ldr	r3, [r3]
 1166 00be 42F40042 		orr	r2, r2, #32768
 1167 00c2 5A64     		str	r2, [r3, #68]
 594:./Libraries/STM32F4xx_HAL_Driver/Src/stm32f4xx_hal_tim_ex.c ****   
 595:./Libraries/STM32F4xx_HAL_Driver/Src/stm32f4xx_hal_tim_ex.c ****   /* Enable the Peripheral */
 596:./Libraries/STM32F4xx_HAL_Driver/Src/stm32f4xx_hal_tim_ex.c ****   __HAL_TIM_ENABLE(htim);
 1168              		.loc 1 596 3
 1169 00c4 7B68     		ldr	r3, [r7, #4]
 1170 00c6 1B68     		ldr	r3, [r3]
 1171 00c8 1A68     		ldr	r2, [r3]
 1172 00ca 7B68     		ldr	r3, [r7, #4]
 1173 00cc 1B68     		ldr	r3, [r3]
 1174 00ce 42F00102 		orr	r2, r2, #1
 1175 00d2 1A60     		str	r2, [r3]
 597:./Libraries/STM32F4xx_HAL_Driver/Src/stm32f4xx_hal_tim_ex.c ****   
 598:./Libraries/STM32F4xx_HAL_Driver/Src/stm32f4xx_hal_tim_ex.c ****   /* Return function status */
 599:./Libraries/STM32F4xx_HAL_Driver/Src/stm32f4xx_hal_tim_ex.c ****   return HAL_OK;
 1176              		.loc 1 599 10
 1177 00d4 0023     		movs	r3, #0
 600:./Libraries/STM32F4xx_HAL_Driver/Src/stm32f4xx_hal_tim_ex.c **** } 
 1178              		.loc 1 600 1
 1179 00d6 1846     		mov	r0, r3
 1180 00d8 0837     		adds	r7, r7, #8
 1181              	.LCFI65:
 1182              		.cfi_def_cfa_offset 8
 1183 00da BD46     		mov	sp, r7
 1184              	.LCFI66:
 1185              		.cfi_def_cfa_register 13
 1186              		@ sp needed
 1187 00dc 80BD     		pop	{r7, pc}
 1188              		.cfi_endproc
 1189              	.LFE138:
 1191 00de 00BF     		.section	.text.HAL_TIMEx_OCN_Stop_IT,"ax",%progbits
 1192              		.align	1
 1193              		.global	HAL_TIMEx_OCN_Stop_IT
ARM GAS  /tmp/ccpPm7TE.s 			page 32


 1194              		.syntax unified
 1195              		.thumb
 1196              		.thumb_func
 1197              		.fpu fpv4-sp-d16
 1199              	HAL_TIMEx_OCN_Stop_IT:
 1200              	.LFB139:
 601:./Libraries/STM32F4xx_HAL_Driver/Src/stm32f4xx_hal_tim_ex.c **** 
 602:./Libraries/STM32F4xx_HAL_Driver/Src/stm32f4xx_hal_tim_ex.c **** /**
 603:./Libraries/STM32F4xx_HAL_Driver/Src/stm32f4xx_hal_tim_ex.c ****   * @brief  Stops the TIM Output Compare signal generation in interrupt mode 
 604:./Libraries/STM32F4xx_HAL_Driver/Src/stm32f4xx_hal_tim_ex.c ****   *         on the complementary output.
 605:./Libraries/STM32F4xx_HAL_Driver/Src/stm32f4xx_hal_tim_ex.c ****   * @param  htim pointer to a TIM_HandleTypeDef structure that contains
 606:./Libraries/STM32F4xx_HAL_Driver/Src/stm32f4xx_hal_tim_ex.c ****   *                the configuration information for TIM module.
 607:./Libraries/STM32F4xx_HAL_Driver/Src/stm32f4xx_hal_tim_ex.c ****   * @param  Channel TIM Channel to be disabled.
 608:./Libraries/STM32F4xx_HAL_Driver/Src/stm32f4xx_hal_tim_ex.c ****   *          This parameter can be one of the following values:
 609:./Libraries/STM32F4xx_HAL_Driver/Src/stm32f4xx_hal_tim_ex.c ****   *            @arg TIM_CHANNEL_1: TIM Channel 1 selected
 610:./Libraries/STM32F4xx_HAL_Driver/Src/stm32f4xx_hal_tim_ex.c ****   *            @arg TIM_CHANNEL_2: TIM Channel 2 selected
 611:./Libraries/STM32F4xx_HAL_Driver/Src/stm32f4xx_hal_tim_ex.c ****   *            @arg TIM_CHANNEL_3: TIM Channel 3 selected
 612:./Libraries/STM32F4xx_HAL_Driver/Src/stm32f4xx_hal_tim_ex.c ****   * @retval HAL status
 613:./Libraries/STM32F4xx_HAL_Driver/Src/stm32f4xx_hal_tim_ex.c ****   */
 614:./Libraries/STM32F4xx_HAL_Driver/Src/stm32f4xx_hal_tim_ex.c **** HAL_StatusTypeDef HAL_TIMEx_OCN_Stop_IT(TIM_HandleTypeDef *htim, uint32_t Channel)
 615:./Libraries/STM32F4xx_HAL_Driver/Src/stm32f4xx_hal_tim_ex.c **** {
 1201              		.loc 1 615 1
 1202              		.cfi_startproc
 1203              		@ args = 0, pretend = 0, frame = 8
 1204              		@ frame_needed = 1, uses_anonymous_args = 0
 1205 0000 80B5     		push	{r7, lr}
 1206              	.LCFI67:
 1207              		.cfi_def_cfa_offset 8
 1208              		.cfi_offset 7, -8
 1209              		.cfi_offset 14, -4
 1210 0002 82B0     		sub	sp, sp, #8
 1211              	.LCFI68:
 1212              		.cfi_def_cfa_offset 16
 1213 0004 00AF     		add	r7, sp, #0
 1214              	.LCFI69:
 1215              		.cfi_def_cfa_register 7
 1216 0006 7860     		str	r0, [r7, #4]
 1217 0008 3960     		str	r1, [r7]
 1218 000a 3B68     		ldr	r3, [r7]
 1219 000c 0C2B     		cmp	r3, #12
 1220 000e 41D8     		bhi	.L58
 1221 0010 01A2     		adr	r2, .L49
 1222 0012 52F823F0 		ldr	pc, [r2, r3, lsl #2]
 1223 0016 00BF     		.p2align 2
 1224              	.L49:
 1225 0018 4D000000 		.word	.L52+1
 1226 001c 95000000 		.word	.L58+1
 1227 0020 95000000 		.word	.L58+1
 1228 0024 95000000 		.word	.L58+1
 1229 0028 5F000000 		.word	.L51+1
 1230 002c 95000000 		.word	.L58+1
 1231 0030 95000000 		.word	.L58+1
 1232 0034 95000000 		.word	.L58+1
 1233 0038 71000000 		.word	.L50+1
 1234 003c 95000000 		.word	.L58+1
 1235 0040 95000000 		.word	.L58+1
 1236 0044 95000000 		.word	.L58+1
ARM GAS  /tmp/ccpPm7TE.s 			page 33


 1237 0048 83000000 		.word	.L48+1
 1238              		.p2align 1
 1239              	.L52:
 616:./Libraries/STM32F4xx_HAL_Driver/Src/stm32f4xx_hal_tim_ex.c ****   /* Check the parameters */
 617:./Libraries/STM32F4xx_HAL_Driver/Src/stm32f4xx_hal_tim_ex.c ****   assert_param(IS_TIM_CCXN_INSTANCE(htim->Instance, Channel)); 
 618:./Libraries/STM32F4xx_HAL_Driver/Src/stm32f4xx_hal_tim_ex.c ****   
 619:./Libraries/STM32F4xx_HAL_Driver/Src/stm32f4xx_hal_tim_ex.c ****   switch (Channel)
 620:./Libraries/STM32F4xx_HAL_Driver/Src/stm32f4xx_hal_tim_ex.c ****   {
 621:./Libraries/STM32F4xx_HAL_Driver/Src/stm32f4xx_hal_tim_ex.c ****     case TIM_CHANNEL_1:
 622:./Libraries/STM32F4xx_HAL_Driver/Src/stm32f4xx_hal_tim_ex.c ****     {       
 623:./Libraries/STM32F4xx_HAL_Driver/Src/stm32f4xx_hal_tim_ex.c ****       /* Disable the TIM Output Compare interrupt */
 624:./Libraries/STM32F4xx_HAL_Driver/Src/stm32f4xx_hal_tim_ex.c ****       __HAL_TIM_DISABLE_IT(htim, TIM_IT_CC1);
 1240              		.loc 1 624 7
 1241 004c 7B68     		ldr	r3, [r7, #4]
 1242 004e 1B68     		ldr	r3, [r3]
 1243 0050 DA68     		ldr	r2, [r3, #12]
 1244 0052 7B68     		ldr	r3, [r7, #4]
 1245 0054 1B68     		ldr	r3, [r3]
 1246 0056 22F00202 		bic	r2, r2, #2
 1247 005a DA60     		str	r2, [r3, #12]
 625:./Libraries/STM32F4xx_HAL_Driver/Src/stm32f4xx_hal_tim_ex.c ****     }
 626:./Libraries/STM32F4xx_HAL_Driver/Src/stm32f4xx_hal_tim_ex.c ****     break;
 1248              		.loc 1 626 5
 1249 005c 1BE0     		b	.L53
 1250              	.L51:
 627:./Libraries/STM32F4xx_HAL_Driver/Src/stm32f4xx_hal_tim_ex.c ****     
 628:./Libraries/STM32F4xx_HAL_Driver/Src/stm32f4xx_hal_tim_ex.c ****     case TIM_CHANNEL_2:
 629:./Libraries/STM32F4xx_HAL_Driver/Src/stm32f4xx_hal_tim_ex.c ****     {
 630:./Libraries/STM32F4xx_HAL_Driver/Src/stm32f4xx_hal_tim_ex.c ****       /* Disable the TIM Output Compare interrupt */
 631:./Libraries/STM32F4xx_HAL_Driver/Src/stm32f4xx_hal_tim_ex.c ****       __HAL_TIM_DISABLE_IT(htim, TIM_IT_CC2);
 1251              		.loc 1 631 7
 1252 005e 7B68     		ldr	r3, [r7, #4]
 1253 0060 1B68     		ldr	r3, [r3]
 1254 0062 DA68     		ldr	r2, [r3, #12]
 1255 0064 7B68     		ldr	r3, [r7, #4]
 1256 0066 1B68     		ldr	r3, [r3]
 1257 0068 22F00402 		bic	r2, r2, #4
 1258 006c DA60     		str	r2, [r3, #12]
 632:./Libraries/STM32F4xx_HAL_Driver/Src/stm32f4xx_hal_tim_ex.c ****     }
 633:./Libraries/STM32F4xx_HAL_Driver/Src/stm32f4xx_hal_tim_ex.c ****     break;
 1259              		.loc 1 633 5
 1260 006e 12E0     		b	.L53
 1261              	.L50:
 634:./Libraries/STM32F4xx_HAL_Driver/Src/stm32f4xx_hal_tim_ex.c ****     
 635:./Libraries/STM32F4xx_HAL_Driver/Src/stm32f4xx_hal_tim_ex.c ****     case TIM_CHANNEL_3:
 636:./Libraries/STM32F4xx_HAL_Driver/Src/stm32f4xx_hal_tim_ex.c ****     {
 637:./Libraries/STM32F4xx_HAL_Driver/Src/stm32f4xx_hal_tim_ex.c ****       /* Disable the TIM Output Compare interrupt */
 638:./Libraries/STM32F4xx_HAL_Driver/Src/stm32f4xx_hal_tim_ex.c ****       __HAL_TIM_DISABLE_IT(htim, TIM_IT_CC3);
 1262              		.loc 1 638 7
 1263 0070 7B68     		ldr	r3, [r7, #4]
 1264 0072 1B68     		ldr	r3, [r3]
 1265 0074 DA68     		ldr	r2, [r3, #12]
 1266 0076 7B68     		ldr	r3, [r7, #4]
 1267 0078 1B68     		ldr	r3, [r3]
 1268 007a 22F00802 		bic	r2, r2, #8
 1269 007e DA60     		str	r2, [r3, #12]
 639:./Libraries/STM32F4xx_HAL_Driver/Src/stm32f4xx_hal_tim_ex.c ****     }
ARM GAS  /tmp/ccpPm7TE.s 			page 34


 640:./Libraries/STM32F4xx_HAL_Driver/Src/stm32f4xx_hal_tim_ex.c ****     break;
 1270              		.loc 1 640 5
 1271 0080 09E0     		b	.L53
 1272              	.L48:
 641:./Libraries/STM32F4xx_HAL_Driver/Src/stm32f4xx_hal_tim_ex.c ****     
 642:./Libraries/STM32F4xx_HAL_Driver/Src/stm32f4xx_hal_tim_ex.c ****     case TIM_CHANNEL_4:
 643:./Libraries/STM32F4xx_HAL_Driver/Src/stm32f4xx_hal_tim_ex.c ****     {
 644:./Libraries/STM32F4xx_HAL_Driver/Src/stm32f4xx_hal_tim_ex.c ****       /* Disable the TIM Output Compare interrupt */
 645:./Libraries/STM32F4xx_HAL_Driver/Src/stm32f4xx_hal_tim_ex.c ****       __HAL_TIM_DISABLE_IT(htim, TIM_IT_CC4);
 1273              		.loc 1 645 7
 1274 0082 7B68     		ldr	r3, [r7, #4]
 1275 0084 1B68     		ldr	r3, [r3]
 1276 0086 DA68     		ldr	r2, [r3, #12]
 1277 0088 7B68     		ldr	r3, [r7, #4]
 1278 008a 1B68     		ldr	r3, [r3]
 1279 008c 22F01002 		bic	r2, r2, #16
 1280 0090 DA60     		str	r2, [r3, #12]
 646:./Libraries/STM32F4xx_HAL_Driver/Src/stm32f4xx_hal_tim_ex.c ****     }
 647:./Libraries/STM32F4xx_HAL_Driver/Src/stm32f4xx_hal_tim_ex.c ****     break;
 1281              		.loc 1 647 5
 1282 0092 00E0     		b	.L53
 1283              	.L58:
 648:./Libraries/STM32F4xx_HAL_Driver/Src/stm32f4xx_hal_tim_ex.c ****     
 649:./Libraries/STM32F4xx_HAL_Driver/Src/stm32f4xx_hal_tim_ex.c ****     default:
 650:./Libraries/STM32F4xx_HAL_Driver/Src/stm32f4xx_hal_tim_ex.c ****     break; 
 1284              		.loc 1 650 5
 1285 0094 00BF     		nop
 1286              	.L53:
 651:./Libraries/STM32F4xx_HAL_Driver/Src/stm32f4xx_hal_tim_ex.c ****   }
 652:./Libraries/STM32F4xx_HAL_Driver/Src/stm32f4xx_hal_tim_ex.c ****   
 653:./Libraries/STM32F4xx_HAL_Driver/Src/stm32f4xx_hal_tim_ex.c ****   /* Disable the Capture compare channel N */
 654:./Libraries/STM32F4xx_HAL_Driver/Src/stm32f4xx_hal_tim_ex.c ****   TIM_CCxNChannelCmd(htim->Instance, Channel, TIM_CCxN_DISABLE);
 1287              		.loc 1 654 3
 1288 0096 7B68     		ldr	r3, [r7, #4]
 1289 0098 1B68     		ldr	r3, [r3]
 1290 009a 0022     		movs	r2, #0
 1291 009c 3968     		ldr	r1, [r7]
 1292 009e 1846     		mov	r0, r3
 1293 00a0 FFF7FEFF 		bl	TIM_CCxNChannelCmd
 655:./Libraries/STM32F4xx_HAL_Driver/Src/stm32f4xx_hal_tim_ex.c **** 
 656:./Libraries/STM32F4xx_HAL_Driver/Src/stm32f4xx_hal_tim_ex.c ****   /* Disable the TIM Break interrupt (only if no more channel is active) */
 657:./Libraries/STM32F4xx_HAL_Driver/Src/stm32f4xx_hal_tim_ex.c ****   if((READ_REG(htim->Instance->CCER) & (TIM_CCER_CC1NE | TIM_CCER_CC2NE | TIM_CCER_CC3NE)) == RESET
 1294              		.loc 1 657 7
 1295 00a4 7B68     		ldr	r3, [r7, #4]
 1296 00a6 1B68     		ldr	r3, [r3]
 1297 00a8 1A6A     		ldr	r2, [r3, #32]
 1298              		.loc 1 657 38
 1299 00aa 40F24443 		movw	r3, #1092
 1300 00ae 1340     		ands	r3, r3, r2
 1301              		.loc 1 657 5
 1302 00b0 002B     		cmp	r3, #0
 1303 00b2 07D1     		bne	.L54
 658:./Libraries/STM32F4xx_HAL_Driver/Src/stm32f4xx_hal_tim_ex.c ****   {
 659:./Libraries/STM32F4xx_HAL_Driver/Src/stm32f4xx_hal_tim_ex.c ****     __HAL_TIM_DISABLE_IT(htim, TIM_IT_BREAK);
 1304              		.loc 1 659 5
 1305 00b4 7B68     		ldr	r3, [r7, #4]
 1306 00b6 1B68     		ldr	r3, [r3]
ARM GAS  /tmp/ccpPm7TE.s 			page 35


 1307 00b8 DA68     		ldr	r2, [r3, #12]
 1308 00ba 7B68     		ldr	r3, [r7, #4]
 1309 00bc 1B68     		ldr	r3, [r3]
 1310 00be 22F08002 		bic	r2, r2, #128
 1311 00c2 DA60     		str	r2, [r3, #12]
 1312              	.L54:
 660:./Libraries/STM32F4xx_HAL_Driver/Src/stm32f4xx_hal_tim_ex.c ****   }
 661:./Libraries/STM32F4xx_HAL_Driver/Src/stm32f4xx_hal_tim_ex.c ****   
 662:./Libraries/STM32F4xx_HAL_Driver/Src/stm32f4xx_hal_tim_ex.c ****   /* Disable the Main Output */
 663:./Libraries/STM32F4xx_HAL_Driver/Src/stm32f4xx_hal_tim_ex.c ****   __HAL_TIM_MOE_DISABLE(htim);
 1313              		.loc 1 663 3
 1314 00c4 7B68     		ldr	r3, [r7, #4]
 1315 00c6 1B68     		ldr	r3, [r3]
 1316 00c8 1A6A     		ldr	r2, [r3, #32]
 1317 00ca 41F21113 		movw	r3, #4369
 1318 00ce 1340     		ands	r3, r3, r2
 1319 00d0 002B     		cmp	r3, #0
 1320 00d2 0FD1     		bne	.L55
 1321              		.loc 1 663 3 is_stmt 0 discriminator 1
 1322 00d4 7B68     		ldr	r3, [r7, #4]
 1323 00d6 1B68     		ldr	r3, [r3]
 1324 00d8 1A6A     		ldr	r2, [r3, #32]
 1325 00da 40F24443 		movw	r3, #1092
 1326 00de 1340     		ands	r3, r3, r2
 1327 00e0 002B     		cmp	r3, #0
 1328 00e2 07D1     		bne	.L55
 1329              		.loc 1 663 3 discriminator 2
 1330 00e4 7B68     		ldr	r3, [r7, #4]
 1331 00e6 1B68     		ldr	r3, [r3]
 1332 00e8 5A6C     		ldr	r2, [r3, #68]
 1333 00ea 7B68     		ldr	r3, [r7, #4]
 1334 00ec 1B68     		ldr	r3, [r3]
 1335 00ee 22F40042 		bic	r2, r2, #32768
 1336 00f2 5A64     		str	r2, [r3, #68]
 1337              	.L55:
 664:./Libraries/STM32F4xx_HAL_Driver/Src/stm32f4xx_hal_tim_ex.c ****   
 665:./Libraries/STM32F4xx_HAL_Driver/Src/stm32f4xx_hal_tim_ex.c ****   /* Disable the Peripheral */
 666:./Libraries/STM32F4xx_HAL_Driver/Src/stm32f4xx_hal_tim_ex.c ****   __HAL_TIM_DISABLE(htim);
 1338              		.loc 1 666 3 is_stmt 1
 1339 00f4 7B68     		ldr	r3, [r7, #4]
 1340 00f6 1B68     		ldr	r3, [r3]
 1341 00f8 1A6A     		ldr	r2, [r3, #32]
 1342 00fa 41F21113 		movw	r3, #4369
 1343 00fe 1340     		ands	r3, r3, r2
 1344 0100 002B     		cmp	r3, #0
 1345 0102 0FD1     		bne	.L56
 1346              		.loc 1 666 3 is_stmt 0 discriminator 1
 1347 0104 7B68     		ldr	r3, [r7, #4]
 1348 0106 1B68     		ldr	r3, [r3]
 1349 0108 1A6A     		ldr	r2, [r3, #32]
 1350 010a 40F24443 		movw	r3, #1092
 1351 010e 1340     		ands	r3, r3, r2
 1352 0110 002B     		cmp	r3, #0
 1353 0112 07D1     		bne	.L56
 1354              		.loc 1 666 3 discriminator 2
 1355 0114 7B68     		ldr	r3, [r7, #4]
 1356 0116 1B68     		ldr	r3, [r3]
ARM GAS  /tmp/ccpPm7TE.s 			page 36


 1357 0118 1A68     		ldr	r2, [r3]
 1358 011a 7B68     		ldr	r3, [r7, #4]
 1359 011c 1B68     		ldr	r3, [r3]
 1360 011e 22F00102 		bic	r2, r2, #1
 1361 0122 1A60     		str	r2, [r3]
 1362              	.L56:
 667:./Libraries/STM32F4xx_HAL_Driver/Src/stm32f4xx_hal_tim_ex.c ****   
 668:./Libraries/STM32F4xx_HAL_Driver/Src/stm32f4xx_hal_tim_ex.c ****   /* Return function status */
 669:./Libraries/STM32F4xx_HAL_Driver/Src/stm32f4xx_hal_tim_ex.c ****   return HAL_OK;
 1363              		.loc 1 669 10 is_stmt 1
 1364 0124 0023     		movs	r3, #0
 670:./Libraries/STM32F4xx_HAL_Driver/Src/stm32f4xx_hal_tim_ex.c **** } 
 1365              		.loc 1 670 1
 1366 0126 1846     		mov	r0, r3
 1367 0128 0837     		adds	r7, r7, #8
 1368              	.LCFI70:
 1369              		.cfi_def_cfa_offset 8
 1370 012a BD46     		mov	sp, r7
 1371              	.LCFI71:
 1372              		.cfi_def_cfa_register 13
 1373              		@ sp needed
 1374 012c 80BD     		pop	{r7, pc}
 1375              		.cfi_endproc
 1376              	.LFE139:
 1378 012e 00BF     		.section	.text.HAL_TIMEx_OCN_Start_DMA,"ax",%progbits
 1379              		.align	1
 1380              		.global	HAL_TIMEx_OCN_Start_DMA
 1381              		.syntax unified
 1382              		.thumb
 1383              		.thumb_func
 1384              		.fpu fpv4-sp-d16
 1386              	HAL_TIMEx_OCN_Start_DMA:
 1387              	.LFB140:
 671:./Libraries/STM32F4xx_HAL_Driver/Src/stm32f4xx_hal_tim_ex.c **** 
 672:./Libraries/STM32F4xx_HAL_Driver/Src/stm32f4xx_hal_tim_ex.c **** /**
 673:./Libraries/STM32F4xx_HAL_Driver/Src/stm32f4xx_hal_tim_ex.c ****   * @brief  Starts the TIM Output Compare signal generation in DMA mode 
 674:./Libraries/STM32F4xx_HAL_Driver/Src/stm32f4xx_hal_tim_ex.c ****   *         on the complementary output.
 675:./Libraries/STM32F4xx_HAL_Driver/Src/stm32f4xx_hal_tim_ex.c ****   * @param  htim pointer to a TIM_HandleTypeDef structure that contains
 676:./Libraries/STM32F4xx_HAL_Driver/Src/stm32f4xx_hal_tim_ex.c ****   *                the configuration information for TIM module.
 677:./Libraries/STM32F4xx_HAL_Driver/Src/stm32f4xx_hal_tim_ex.c ****   * @param  Channel TIM Channel to be enabled.
 678:./Libraries/STM32F4xx_HAL_Driver/Src/stm32f4xx_hal_tim_ex.c ****   *          This parameter can be one of the following values:
 679:./Libraries/STM32F4xx_HAL_Driver/Src/stm32f4xx_hal_tim_ex.c ****   *            @arg TIM_CHANNEL_1: TIM Channel 1 selected
 680:./Libraries/STM32F4xx_HAL_Driver/Src/stm32f4xx_hal_tim_ex.c ****   *            @arg TIM_CHANNEL_2: TIM Channel 2 selected
 681:./Libraries/STM32F4xx_HAL_Driver/Src/stm32f4xx_hal_tim_ex.c ****   *            @arg TIM_CHANNEL_3: TIM Channel 3 selected
 682:./Libraries/STM32F4xx_HAL_Driver/Src/stm32f4xx_hal_tim_ex.c ****   * @param  pData The source Buffer address.
 683:./Libraries/STM32F4xx_HAL_Driver/Src/stm32f4xx_hal_tim_ex.c ****   * @param  Length The length of data to be transferred from memory to TIM peripheral
 684:./Libraries/STM32F4xx_HAL_Driver/Src/stm32f4xx_hal_tim_ex.c ****   * @retval HAL status
 685:./Libraries/STM32F4xx_HAL_Driver/Src/stm32f4xx_hal_tim_ex.c ****   */
 686:./Libraries/STM32F4xx_HAL_Driver/Src/stm32f4xx_hal_tim_ex.c **** HAL_StatusTypeDef HAL_TIMEx_OCN_Start_DMA(TIM_HandleTypeDef *htim, uint32_t Channel, uint32_t *pDat
 687:./Libraries/STM32F4xx_HAL_Driver/Src/stm32f4xx_hal_tim_ex.c **** {
 1388              		.loc 1 687 1
 1389              		.cfi_startproc
 1390              		@ args = 0, pretend = 0, frame = 16
 1391              		@ frame_needed = 1, uses_anonymous_args = 0
 1392 0000 80B5     		push	{r7, lr}
 1393              	.LCFI72:
 1394              		.cfi_def_cfa_offset 8
ARM GAS  /tmp/ccpPm7TE.s 			page 37


 1395              		.cfi_offset 7, -8
 1396              		.cfi_offset 14, -4
 1397 0002 84B0     		sub	sp, sp, #16
 1398              	.LCFI73:
 1399              		.cfi_def_cfa_offset 24
 1400 0004 00AF     		add	r7, sp, #0
 1401              	.LCFI74:
 1402              		.cfi_def_cfa_register 7
 1403 0006 F860     		str	r0, [r7, #12]
 1404 0008 B960     		str	r1, [r7, #8]
 1405 000a 7A60     		str	r2, [r7, #4]
 1406 000c 7B80     		strh	r3, [r7, #2]	@ movhi
 688:./Libraries/STM32F4xx_HAL_Driver/Src/stm32f4xx_hal_tim_ex.c ****   /* Check the parameters */
 689:./Libraries/STM32F4xx_HAL_Driver/Src/stm32f4xx_hal_tim_ex.c ****   assert_param(IS_TIM_CCXN_INSTANCE(htim->Instance, Channel)); 
 690:./Libraries/STM32F4xx_HAL_Driver/Src/stm32f4xx_hal_tim_ex.c ****   
 691:./Libraries/STM32F4xx_HAL_Driver/Src/stm32f4xx_hal_tim_ex.c ****   if((htim->State == HAL_TIM_STATE_BUSY))
 1407              		.loc 1 691 11
 1408 000e FB68     		ldr	r3, [r7, #12]
 1409 0010 93F83930 		ldrb	r3, [r3, #57]
 1410 0014 DBB2     		uxtb	r3, r3
 1411              		.loc 1 691 5
 1412 0016 022B     		cmp	r3, #2
 1413 0018 01D1     		bne	.L60
 692:./Libraries/STM32F4xx_HAL_Driver/Src/stm32f4xx_hal_tim_ex.c ****   {
 693:./Libraries/STM32F4xx_HAL_Driver/Src/stm32f4xx_hal_tim_ex.c ****      return HAL_BUSY;
 1414              		.loc 1 693 13
 1415 001a 0223     		movs	r3, #2
 1416 001c B7E0     		b	.L61
 1417              	.L60:
 694:./Libraries/STM32F4xx_HAL_Driver/Src/stm32f4xx_hal_tim_ex.c ****   }
 695:./Libraries/STM32F4xx_HAL_Driver/Src/stm32f4xx_hal_tim_ex.c ****   else if((htim->State == HAL_TIM_STATE_READY))
 1418              		.loc 1 695 16
 1419 001e FB68     		ldr	r3, [r7, #12]
 1420 0020 93F83930 		ldrb	r3, [r3, #57]
 1421 0024 DBB2     		uxtb	r3, r3
 1422              		.loc 1 695 10
 1423 0026 012B     		cmp	r3, #1
 1424 0028 0BD1     		bne	.L62
 696:./Libraries/STM32F4xx_HAL_Driver/Src/stm32f4xx_hal_tim_ex.c ****   {
 697:./Libraries/STM32F4xx_HAL_Driver/Src/stm32f4xx_hal_tim_ex.c ****     if(((uint32_t)pData == 0U) && (Length > 0)) 
 1425              		.loc 1 697 7
 1426 002a 7B68     		ldr	r3, [r7, #4]
 1427 002c 002B     		cmp	r3, #0
 1428 002e 04D1     		bne	.L63
 1429              		.loc 1 697 32 discriminator 1
 1430 0030 7B88     		ldrh	r3, [r7, #2]
 1431 0032 002B     		cmp	r3, #0
 1432 0034 01D0     		beq	.L63
 698:./Libraries/STM32F4xx_HAL_Driver/Src/stm32f4xx_hal_tim_ex.c ****     {
 699:./Libraries/STM32F4xx_HAL_Driver/Src/stm32f4xx_hal_tim_ex.c ****       return HAL_ERROR;                                    
 1433              		.loc 1 699 14
 1434 0036 0123     		movs	r3, #1
 1435 0038 A9E0     		b	.L61
 1436              	.L63:
 700:./Libraries/STM32F4xx_HAL_Driver/Src/stm32f4xx_hal_tim_ex.c ****     }
 701:./Libraries/STM32F4xx_HAL_Driver/Src/stm32f4xx_hal_tim_ex.c ****     else
 702:./Libraries/STM32F4xx_HAL_Driver/Src/stm32f4xx_hal_tim_ex.c ****     {
ARM GAS  /tmp/ccpPm7TE.s 			page 38


 703:./Libraries/STM32F4xx_HAL_Driver/Src/stm32f4xx_hal_tim_ex.c ****       htim->State = HAL_TIM_STATE_BUSY;
 1437              		.loc 1 703 19
 1438 003a FB68     		ldr	r3, [r7, #12]
 1439 003c 0222     		movs	r2, #2
 1440 003e 83F83920 		strb	r2, [r3, #57]
 1441              	.L62:
 1442 0042 BB68     		ldr	r3, [r7, #8]
 1443 0044 0C2B     		cmp	r3, #12
 1444 0046 00F28980 		bhi	.L71
 1445 004a 01A2     		adr	r2, .L66
 1446 004c 52F823F0 		ldr	pc, [r2, r3, lsl #2]
 1447              		.p2align 2
 1448              	.L66:
 1449 0050 85000000 		.word	.L69+1
 1450 0054 5D010000 		.word	.L71+1
 1451 0058 5D010000 		.word	.L71+1
 1452 005c 5D010000 		.word	.L71+1
 1453 0060 BB000000 		.word	.L68+1
 1454 0064 5D010000 		.word	.L71+1
 1455 0068 5D010000 		.word	.L71+1
 1456 006c 5D010000 		.word	.L71+1
 1457 0070 F1000000 		.word	.L67+1
 1458 0074 5D010000 		.word	.L71+1
 1459 0078 5D010000 		.word	.L71+1
 1460 007c 5D010000 		.word	.L71+1
 1461 0080 27010000 		.word	.L65+1
 1462              		.p2align 1
 1463              	.L69:
 704:./Libraries/STM32F4xx_HAL_Driver/Src/stm32f4xx_hal_tim_ex.c ****     }
 705:./Libraries/STM32F4xx_HAL_Driver/Src/stm32f4xx_hal_tim_ex.c ****   }    
 706:./Libraries/STM32F4xx_HAL_Driver/Src/stm32f4xx_hal_tim_ex.c ****   switch (Channel)
 707:./Libraries/STM32F4xx_HAL_Driver/Src/stm32f4xx_hal_tim_ex.c ****   {
 708:./Libraries/STM32F4xx_HAL_Driver/Src/stm32f4xx_hal_tim_ex.c ****     case TIM_CHANNEL_1:
 709:./Libraries/STM32F4xx_HAL_Driver/Src/stm32f4xx_hal_tim_ex.c ****     {      
 710:./Libraries/STM32F4xx_HAL_Driver/Src/stm32f4xx_hal_tim_ex.c ****       /* Set the DMA Period elapsed callback */
 711:./Libraries/STM32F4xx_HAL_Driver/Src/stm32f4xx_hal_tim_ex.c ****       htim->hdma[TIM_DMA_ID_CC1]->XferCpltCallback = TIM_DMADelayPulseCplt;
 1464              		.loc 1 711 17
 1465 0084 FB68     		ldr	r3, [r7, #12]
 1466 0086 1B6A     		ldr	r3, [r3, #32]
 1467              		.loc 1 711 52
 1468 0088 434A     		ldr	r2, .L72
 1469 008a DA63     		str	r2, [r3, #60]
 712:./Libraries/STM32F4xx_HAL_Driver/Src/stm32f4xx_hal_tim_ex.c ****      
 713:./Libraries/STM32F4xx_HAL_Driver/Src/stm32f4xx_hal_tim_ex.c ****       /* Set the DMA error callback */
 714:./Libraries/STM32F4xx_HAL_Driver/Src/stm32f4xx_hal_tim_ex.c ****       htim->hdma[TIM_DMA_ID_CC1]->XferErrorCallback = TIM_DMAError ;
 1470              		.loc 1 714 17
 1471 008c FB68     		ldr	r3, [r7, #12]
 1472 008e 1B6A     		ldr	r3, [r3, #32]
 1473              		.loc 1 714 53
 1474 0090 424A     		ldr	r2, .L72+4
 1475 0092 DA64     		str	r2, [r3, #76]
 715:./Libraries/STM32F4xx_HAL_Driver/Src/stm32f4xx_hal_tim_ex.c ****       
 716:./Libraries/STM32F4xx_HAL_Driver/Src/stm32f4xx_hal_tim_ex.c ****       /* Enable the DMA Stream */
 717:./Libraries/STM32F4xx_HAL_Driver/Src/stm32f4xx_hal_tim_ex.c ****       HAL_DMA_Start_IT(htim->hdma[TIM_DMA_ID_CC1], (uint32_t)pData, (uint32_t)&htim->Instance->CCR1
 1476              		.loc 1 717 7
 1477 0094 FB68     		ldr	r3, [r7, #12]
 1478 0096 186A     		ldr	r0, [r3, #32]
ARM GAS  /tmp/ccpPm7TE.s 			page 39


 1479 0098 7968     		ldr	r1, [r7, #4]
 1480              		.loc 1 717 84
 1481 009a FB68     		ldr	r3, [r7, #12]
 1482 009c 1B68     		ldr	r3, [r3]
 1483              		.loc 1 717 79
 1484 009e 3433     		adds	r3, r3, #52
 1485              		.loc 1 717 7
 1486 00a0 1A46     		mov	r2, r3
 1487 00a2 7B88     		ldrh	r3, [r7, #2]
 1488 00a4 FFF7FEFF 		bl	HAL_DMA_Start_IT
 718:./Libraries/STM32F4xx_HAL_Driver/Src/stm32f4xx_hal_tim_ex.c ****       
 719:./Libraries/STM32F4xx_HAL_Driver/Src/stm32f4xx_hal_tim_ex.c ****       /* Enable the TIM Output Compare DMA request */
 720:./Libraries/STM32F4xx_HAL_Driver/Src/stm32f4xx_hal_tim_ex.c ****       __HAL_TIM_ENABLE_DMA(htim, TIM_DMA_CC1);
 1489              		.loc 1 720 7
 1490 00a8 FB68     		ldr	r3, [r7, #12]
 1491 00aa 1B68     		ldr	r3, [r3]
 1492 00ac DA68     		ldr	r2, [r3, #12]
 1493 00ae FB68     		ldr	r3, [r7, #12]
 1494 00b0 1B68     		ldr	r3, [r3]
 1495 00b2 42F40072 		orr	r2, r2, #512
 1496 00b6 DA60     		str	r2, [r3, #12]
 721:./Libraries/STM32F4xx_HAL_Driver/Src/stm32f4xx_hal_tim_ex.c ****     }
 722:./Libraries/STM32F4xx_HAL_Driver/Src/stm32f4xx_hal_tim_ex.c ****     break;
 1497              		.loc 1 722 5
 1498 00b8 51E0     		b	.L70
 1499              	.L68:
 723:./Libraries/STM32F4xx_HAL_Driver/Src/stm32f4xx_hal_tim_ex.c ****     
 724:./Libraries/STM32F4xx_HAL_Driver/Src/stm32f4xx_hal_tim_ex.c ****     case TIM_CHANNEL_2:
 725:./Libraries/STM32F4xx_HAL_Driver/Src/stm32f4xx_hal_tim_ex.c ****     {
 726:./Libraries/STM32F4xx_HAL_Driver/Src/stm32f4xx_hal_tim_ex.c ****       /* Set the DMA Period elapsed callback */
 727:./Libraries/STM32F4xx_HAL_Driver/Src/stm32f4xx_hal_tim_ex.c ****       htim->hdma[TIM_DMA_ID_CC2]->XferCpltCallback = TIM_DMADelayPulseCplt;
 1500              		.loc 1 727 17
 1501 00ba FB68     		ldr	r3, [r7, #12]
 1502 00bc 5B6A     		ldr	r3, [r3, #36]
 1503              		.loc 1 727 52
 1504 00be 364A     		ldr	r2, .L72
 1505 00c0 DA63     		str	r2, [r3, #60]
 728:./Libraries/STM32F4xx_HAL_Driver/Src/stm32f4xx_hal_tim_ex.c ****      
 729:./Libraries/STM32F4xx_HAL_Driver/Src/stm32f4xx_hal_tim_ex.c ****       /* Set the DMA error callback */
 730:./Libraries/STM32F4xx_HAL_Driver/Src/stm32f4xx_hal_tim_ex.c ****       htim->hdma[TIM_DMA_ID_CC2]->XferErrorCallback = TIM_DMAError ;
 1506              		.loc 1 730 17
 1507 00c2 FB68     		ldr	r3, [r7, #12]
 1508 00c4 5B6A     		ldr	r3, [r3, #36]
 1509              		.loc 1 730 53
 1510 00c6 354A     		ldr	r2, .L72+4
 1511 00c8 DA64     		str	r2, [r3, #76]
 731:./Libraries/STM32F4xx_HAL_Driver/Src/stm32f4xx_hal_tim_ex.c ****       
 732:./Libraries/STM32F4xx_HAL_Driver/Src/stm32f4xx_hal_tim_ex.c ****       /* Enable the DMA Stream */
 733:./Libraries/STM32F4xx_HAL_Driver/Src/stm32f4xx_hal_tim_ex.c ****       HAL_DMA_Start_IT(htim->hdma[TIM_DMA_ID_CC2], (uint32_t)pData, (uint32_t)&htim->Instance->CCR2
 1512              		.loc 1 733 7
 1513 00ca FB68     		ldr	r3, [r7, #12]
 1514 00cc 586A     		ldr	r0, [r3, #36]
 1515 00ce 7968     		ldr	r1, [r7, #4]
 1516              		.loc 1 733 84
 1517 00d0 FB68     		ldr	r3, [r7, #12]
 1518 00d2 1B68     		ldr	r3, [r3]
 1519              		.loc 1 733 79
ARM GAS  /tmp/ccpPm7TE.s 			page 40


 1520 00d4 3833     		adds	r3, r3, #56
 1521              		.loc 1 733 7
 1522 00d6 1A46     		mov	r2, r3
 1523 00d8 7B88     		ldrh	r3, [r7, #2]
 1524 00da FFF7FEFF 		bl	HAL_DMA_Start_IT
 734:./Libraries/STM32F4xx_HAL_Driver/Src/stm32f4xx_hal_tim_ex.c ****       
 735:./Libraries/STM32F4xx_HAL_Driver/Src/stm32f4xx_hal_tim_ex.c ****       /* Enable the TIM Output Compare DMA request */
 736:./Libraries/STM32F4xx_HAL_Driver/Src/stm32f4xx_hal_tim_ex.c ****       __HAL_TIM_ENABLE_DMA(htim, TIM_DMA_CC2);
 1525              		.loc 1 736 7
 1526 00de FB68     		ldr	r3, [r7, #12]
 1527 00e0 1B68     		ldr	r3, [r3]
 1528 00e2 DA68     		ldr	r2, [r3, #12]
 1529 00e4 FB68     		ldr	r3, [r7, #12]
 1530 00e6 1B68     		ldr	r3, [r3]
 1531 00e8 42F48062 		orr	r2, r2, #1024
 1532 00ec DA60     		str	r2, [r3, #12]
 737:./Libraries/STM32F4xx_HAL_Driver/Src/stm32f4xx_hal_tim_ex.c ****     }
 738:./Libraries/STM32F4xx_HAL_Driver/Src/stm32f4xx_hal_tim_ex.c ****     break;
 1533              		.loc 1 738 5
 1534 00ee 36E0     		b	.L70
 1535              	.L67:
 739:./Libraries/STM32F4xx_HAL_Driver/Src/stm32f4xx_hal_tim_ex.c ****     
 740:./Libraries/STM32F4xx_HAL_Driver/Src/stm32f4xx_hal_tim_ex.c ****     case TIM_CHANNEL_3:
 741:./Libraries/STM32F4xx_HAL_Driver/Src/stm32f4xx_hal_tim_ex.c **** {
 742:./Libraries/STM32F4xx_HAL_Driver/Src/stm32f4xx_hal_tim_ex.c ****       /* Set the DMA Period elapsed callback */
 743:./Libraries/STM32F4xx_HAL_Driver/Src/stm32f4xx_hal_tim_ex.c ****       htim->hdma[TIM_DMA_ID_CC3]->XferCpltCallback = TIM_DMADelayPulseCplt;
 1536              		.loc 1 743 17
 1537 00f0 FB68     		ldr	r3, [r7, #12]
 1538 00f2 9B6A     		ldr	r3, [r3, #40]
 1539              		.loc 1 743 52
 1540 00f4 284A     		ldr	r2, .L72
 1541 00f6 DA63     		str	r2, [r3, #60]
 744:./Libraries/STM32F4xx_HAL_Driver/Src/stm32f4xx_hal_tim_ex.c ****      
 745:./Libraries/STM32F4xx_HAL_Driver/Src/stm32f4xx_hal_tim_ex.c ****       /* Set the DMA error callback */
 746:./Libraries/STM32F4xx_HAL_Driver/Src/stm32f4xx_hal_tim_ex.c ****       htim->hdma[TIM_DMA_ID_CC3]->XferErrorCallback = TIM_DMAError ;
 1542              		.loc 1 746 17
 1543 00f8 FB68     		ldr	r3, [r7, #12]
 1544 00fa 9B6A     		ldr	r3, [r3, #40]
 1545              		.loc 1 746 53
 1546 00fc 274A     		ldr	r2, .L72+4
 1547 00fe DA64     		str	r2, [r3, #76]
 747:./Libraries/STM32F4xx_HAL_Driver/Src/stm32f4xx_hal_tim_ex.c ****       
 748:./Libraries/STM32F4xx_HAL_Driver/Src/stm32f4xx_hal_tim_ex.c ****       /* Enable the DMA Stream */
 749:./Libraries/STM32F4xx_HAL_Driver/Src/stm32f4xx_hal_tim_ex.c ****       HAL_DMA_Start_IT(htim->hdma[TIM_DMA_ID_CC3], (uint32_t)pData, (uint32_t)&htim->Instance->CCR3
 1548              		.loc 1 749 7
 1549 0100 FB68     		ldr	r3, [r7, #12]
 1550 0102 986A     		ldr	r0, [r3, #40]
 1551 0104 7968     		ldr	r1, [r7, #4]
 1552              		.loc 1 749 84
 1553 0106 FB68     		ldr	r3, [r7, #12]
 1554 0108 1B68     		ldr	r3, [r3]
 1555              		.loc 1 749 79
 1556 010a 3C33     		adds	r3, r3, #60
 1557              		.loc 1 749 7
 1558 010c 1A46     		mov	r2, r3
 1559 010e 7B88     		ldrh	r3, [r7, #2]
 1560 0110 FFF7FEFF 		bl	HAL_DMA_Start_IT
ARM GAS  /tmp/ccpPm7TE.s 			page 41


 750:./Libraries/STM32F4xx_HAL_Driver/Src/stm32f4xx_hal_tim_ex.c ****       
 751:./Libraries/STM32F4xx_HAL_Driver/Src/stm32f4xx_hal_tim_ex.c ****       /* Enable the TIM Output Compare DMA request */
 752:./Libraries/STM32F4xx_HAL_Driver/Src/stm32f4xx_hal_tim_ex.c ****       __HAL_TIM_ENABLE_DMA(htim, TIM_DMA_CC3);
 1561              		.loc 1 752 7
 1562 0114 FB68     		ldr	r3, [r7, #12]
 1563 0116 1B68     		ldr	r3, [r3]
 1564 0118 DA68     		ldr	r2, [r3, #12]
 1565 011a FB68     		ldr	r3, [r7, #12]
 1566 011c 1B68     		ldr	r3, [r3]
 1567 011e 42F40062 		orr	r2, r2, #2048
 1568 0122 DA60     		str	r2, [r3, #12]
 753:./Libraries/STM32F4xx_HAL_Driver/Src/stm32f4xx_hal_tim_ex.c ****     }
 754:./Libraries/STM32F4xx_HAL_Driver/Src/stm32f4xx_hal_tim_ex.c ****     break;
 1569              		.loc 1 754 5
 1570 0124 1BE0     		b	.L70
 1571              	.L65:
 755:./Libraries/STM32F4xx_HAL_Driver/Src/stm32f4xx_hal_tim_ex.c ****     
 756:./Libraries/STM32F4xx_HAL_Driver/Src/stm32f4xx_hal_tim_ex.c ****     case TIM_CHANNEL_4:
 757:./Libraries/STM32F4xx_HAL_Driver/Src/stm32f4xx_hal_tim_ex.c ****     {
 758:./Libraries/STM32F4xx_HAL_Driver/Src/stm32f4xx_hal_tim_ex.c ****      /* Set the DMA Period elapsed callback */
 759:./Libraries/STM32F4xx_HAL_Driver/Src/stm32f4xx_hal_tim_ex.c ****       htim->hdma[TIM_DMA_ID_CC4]->XferCpltCallback = TIM_DMADelayPulseCplt;
 1572              		.loc 1 759 17
 1573 0126 FB68     		ldr	r3, [r7, #12]
 1574 0128 DB6A     		ldr	r3, [r3, #44]
 1575              		.loc 1 759 52
 1576 012a 1B4A     		ldr	r2, .L72
 1577 012c DA63     		str	r2, [r3, #60]
 760:./Libraries/STM32F4xx_HAL_Driver/Src/stm32f4xx_hal_tim_ex.c ****      
 761:./Libraries/STM32F4xx_HAL_Driver/Src/stm32f4xx_hal_tim_ex.c ****       /* Set the DMA error callback */
 762:./Libraries/STM32F4xx_HAL_Driver/Src/stm32f4xx_hal_tim_ex.c ****       htim->hdma[TIM_DMA_ID_CC4]->XferErrorCallback = TIM_DMAError ;
 1578              		.loc 1 762 17
 1579 012e FB68     		ldr	r3, [r7, #12]
 1580 0130 DB6A     		ldr	r3, [r3, #44]
 1581              		.loc 1 762 53
 1582 0132 1A4A     		ldr	r2, .L72+4
 1583 0134 DA64     		str	r2, [r3, #76]
 763:./Libraries/STM32F4xx_HAL_Driver/Src/stm32f4xx_hal_tim_ex.c ****       
 764:./Libraries/STM32F4xx_HAL_Driver/Src/stm32f4xx_hal_tim_ex.c ****       /* Enable the DMA Stream */
 765:./Libraries/STM32F4xx_HAL_Driver/Src/stm32f4xx_hal_tim_ex.c ****       HAL_DMA_Start_IT(htim->hdma[TIM_DMA_ID_CC4], (uint32_t)pData, (uint32_t)&htim->Instance->CCR4
 1584              		.loc 1 765 7
 1585 0136 FB68     		ldr	r3, [r7, #12]
 1586 0138 D86A     		ldr	r0, [r3, #44]
 1587 013a 7968     		ldr	r1, [r7, #4]
 1588              		.loc 1 765 84
 1589 013c FB68     		ldr	r3, [r7, #12]
 1590 013e 1B68     		ldr	r3, [r3]
 1591              		.loc 1 765 79
 1592 0140 4033     		adds	r3, r3, #64
 1593              		.loc 1 765 7
 1594 0142 1A46     		mov	r2, r3
 1595 0144 7B88     		ldrh	r3, [r7, #2]
 1596 0146 FFF7FEFF 		bl	HAL_DMA_Start_IT
 766:./Libraries/STM32F4xx_HAL_Driver/Src/stm32f4xx_hal_tim_ex.c ****       
 767:./Libraries/STM32F4xx_HAL_Driver/Src/stm32f4xx_hal_tim_ex.c ****       /* Enable the TIM Output Compare DMA request */
 768:./Libraries/STM32F4xx_HAL_Driver/Src/stm32f4xx_hal_tim_ex.c ****       __HAL_TIM_ENABLE_DMA(htim, TIM_DMA_CC4);
 1597              		.loc 1 768 7
 1598 014a FB68     		ldr	r3, [r7, #12]
ARM GAS  /tmp/ccpPm7TE.s 			page 42


 1599 014c 1B68     		ldr	r3, [r3]
 1600 014e DA68     		ldr	r2, [r3, #12]
 1601 0150 FB68     		ldr	r3, [r7, #12]
 1602 0152 1B68     		ldr	r3, [r3]
 1603 0154 42F48052 		orr	r2, r2, #4096
 1604 0158 DA60     		str	r2, [r3, #12]
 769:./Libraries/STM32F4xx_HAL_Driver/Src/stm32f4xx_hal_tim_ex.c ****     }
 770:./Libraries/STM32F4xx_HAL_Driver/Src/stm32f4xx_hal_tim_ex.c ****     break;
 1605              		.loc 1 770 5
 1606 015a 00E0     		b	.L70
 1607              	.L71:
 771:./Libraries/STM32F4xx_HAL_Driver/Src/stm32f4xx_hal_tim_ex.c ****     
 772:./Libraries/STM32F4xx_HAL_Driver/Src/stm32f4xx_hal_tim_ex.c ****     default:
 773:./Libraries/STM32F4xx_HAL_Driver/Src/stm32f4xx_hal_tim_ex.c ****     break;
 1608              		.loc 1 773 5
 1609 015c 00BF     		nop
 1610              	.L70:
 774:./Libraries/STM32F4xx_HAL_Driver/Src/stm32f4xx_hal_tim_ex.c ****   }
 775:./Libraries/STM32F4xx_HAL_Driver/Src/stm32f4xx_hal_tim_ex.c **** 
 776:./Libraries/STM32F4xx_HAL_Driver/Src/stm32f4xx_hal_tim_ex.c ****   /* Enable the Capture compare channel N */
 777:./Libraries/STM32F4xx_HAL_Driver/Src/stm32f4xx_hal_tim_ex.c ****   TIM_CCxNChannelCmd(htim->Instance, Channel, TIM_CCxN_ENABLE);
 1611              		.loc 1 777 3
 1612 015e FB68     		ldr	r3, [r7, #12]
 1613 0160 1B68     		ldr	r3, [r3]
 1614 0162 0422     		movs	r2, #4
 1615 0164 B968     		ldr	r1, [r7, #8]
 1616 0166 1846     		mov	r0, r3
 1617 0168 FFF7FEFF 		bl	TIM_CCxNChannelCmd
 778:./Libraries/STM32F4xx_HAL_Driver/Src/stm32f4xx_hal_tim_ex.c ****   
 779:./Libraries/STM32F4xx_HAL_Driver/Src/stm32f4xx_hal_tim_ex.c ****   /* Enable the Main Output */
 780:./Libraries/STM32F4xx_HAL_Driver/Src/stm32f4xx_hal_tim_ex.c ****   __HAL_TIM_MOE_ENABLE(htim);
 1618              		.loc 1 780 3
 1619 016c FB68     		ldr	r3, [r7, #12]
 1620 016e 1B68     		ldr	r3, [r3]
 1621 0170 5A6C     		ldr	r2, [r3, #68]
 1622 0172 FB68     		ldr	r3, [r7, #12]
 1623 0174 1B68     		ldr	r3, [r3]
 1624 0176 42F40042 		orr	r2, r2, #32768
 1625 017a 5A64     		str	r2, [r3, #68]
 781:./Libraries/STM32F4xx_HAL_Driver/Src/stm32f4xx_hal_tim_ex.c ****   
 782:./Libraries/STM32F4xx_HAL_Driver/Src/stm32f4xx_hal_tim_ex.c ****   /* Enable the Peripheral */
 783:./Libraries/STM32F4xx_HAL_Driver/Src/stm32f4xx_hal_tim_ex.c ****   __HAL_TIM_ENABLE(htim); 
 1626              		.loc 1 783 3
 1627 017c FB68     		ldr	r3, [r7, #12]
 1628 017e 1B68     		ldr	r3, [r3]
 1629 0180 1A68     		ldr	r2, [r3]
 1630 0182 FB68     		ldr	r3, [r7, #12]
 1631 0184 1B68     		ldr	r3, [r3]
 1632 0186 42F00102 		orr	r2, r2, #1
 1633 018a 1A60     		str	r2, [r3]
 784:./Libraries/STM32F4xx_HAL_Driver/Src/stm32f4xx_hal_tim_ex.c ****   
 785:./Libraries/STM32F4xx_HAL_Driver/Src/stm32f4xx_hal_tim_ex.c ****   /* Return function status */
 786:./Libraries/STM32F4xx_HAL_Driver/Src/stm32f4xx_hal_tim_ex.c ****   return HAL_OK;
 1634              		.loc 1 786 10
 1635 018c 0023     		movs	r3, #0
 1636              	.L61:
 787:./Libraries/STM32F4xx_HAL_Driver/Src/stm32f4xx_hal_tim_ex.c **** }
ARM GAS  /tmp/ccpPm7TE.s 			page 43


 1637              		.loc 1 787 1
 1638 018e 1846     		mov	r0, r3
 1639 0190 1037     		adds	r7, r7, #16
 1640              	.LCFI75:
 1641              		.cfi_def_cfa_offset 8
 1642 0192 BD46     		mov	sp, r7
 1643              	.LCFI76:
 1644              		.cfi_def_cfa_register 13
 1645              		@ sp needed
 1646 0194 80BD     		pop	{r7, pc}
 1647              	.L73:
 1648 0196 00BF     		.align	2
 1649              	.L72:
 1650 0198 00000000 		.word	TIM_DMADelayPulseCplt
 1651 019c 00000000 		.word	TIM_DMAError
 1652              		.cfi_endproc
 1653              	.LFE140:
 1655              		.section	.text.HAL_TIMEx_OCN_Stop_DMA,"ax",%progbits
 1656              		.align	1
 1657              		.global	HAL_TIMEx_OCN_Stop_DMA
 1658              		.syntax unified
 1659              		.thumb
 1660              		.thumb_func
 1661              		.fpu fpv4-sp-d16
 1663              	HAL_TIMEx_OCN_Stop_DMA:
 1664              	.LFB141:
 788:./Libraries/STM32F4xx_HAL_Driver/Src/stm32f4xx_hal_tim_ex.c **** 
 789:./Libraries/STM32F4xx_HAL_Driver/Src/stm32f4xx_hal_tim_ex.c **** /**
 790:./Libraries/STM32F4xx_HAL_Driver/Src/stm32f4xx_hal_tim_ex.c ****   * @brief  Stops the TIM Output Compare signal generation in DMA mode 
 791:./Libraries/STM32F4xx_HAL_Driver/Src/stm32f4xx_hal_tim_ex.c ****   *         on the complementary output.
 792:./Libraries/STM32F4xx_HAL_Driver/Src/stm32f4xx_hal_tim_ex.c ****   * @param  htim pointer to a TIM_HandleTypeDef structure that contains
 793:./Libraries/STM32F4xx_HAL_Driver/Src/stm32f4xx_hal_tim_ex.c ****   *                the configuration information for TIM module.
 794:./Libraries/STM32F4xx_HAL_Driver/Src/stm32f4xx_hal_tim_ex.c ****   * @param  Channel TIM Channel to be disabled.
 795:./Libraries/STM32F4xx_HAL_Driver/Src/stm32f4xx_hal_tim_ex.c ****   *          This parameter can be one of the following values:
 796:./Libraries/STM32F4xx_HAL_Driver/Src/stm32f4xx_hal_tim_ex.c ****   *            @arg TIM_CHANNEL_1: TIM Channel 1 selected
 797:./Libraries/STM32F4xx_HAL_Driver/Src/stm32f4xx_hal_tim_ex.c ****   *            @arg TIM_CHANNEL_2: TIM Channel 2 selected
 798:./Libraries/STM32F4xx_HAL_Driver/Src/stm32f4xx_hal_tim_ex.c ****   *            @arg TIM_CHANNEL_3: TIM Channel 3 selected
 799:./Libraries/STM32F4xx_HAL_Driver/Src/stm32f4xx_hal_tim_ex.c ****   * @retval HAL status
 800:./Libraries/STM32F4xx_HAL_Driver/Src/stm32f4xx_hal_tim_ex.c ****   */
 801:./Libraries/STM32F4xx_HAL_Driver/Src/stm32f4xx_hal_tim_ex.c **** HAL_StatusTypeDef HAL_TIMEx_OCN_Stop_DMA(TIM_HandleTypeDef *htim, uint32_t Channel)
 802:./Libraries/STM32F4xx_HAL_Driver/Src/stm32f4xx_hal_tim_ex.c **** {
 1665              		.loc 1 802 1
 1666              		.cfi_startproc
 1667              		@ args = 0, pretend = 0, frame = 8
 1668              		@ frame_needed = 1, uses_anonymous_args = 0
 1669 0000 80B5     		push	{r7, lr}
 1670              	.LCFI77:
 1671              		.cfi_def_cfa_offset 8
 1672              		.cfi_offset 7, -8
 1673              		.cfi_offset 14, -4
 1674 0002 82B0     		sub	sp, sp, #8
 1675              	.LCFI78:
 1676              		.cfi_def_cfa_offset 16
 1677 0004 00AF     		add	r7, sp, #0
 1678              	.LCFI79:
 1679              		.cfi_def_cfa_register 7
 1680 0006 7860     		str	r0, [r7, #4]
ARM GAS  /tmp/ccpPm7TE.s 			page 44


 1681 0008 3960     		str	r1, [r7]
 1682 000a 3B68     		ldr	r3, [r7]
 1683 000c 0C2B     		cmp	r3, #12
 1684 000e 41D8     		bhi	.L85
 1685 0010 01A2     		adr	r2, .L77
 1686 0012 52F823F0 		ldr	pc, [r2, r3, lsl #2]
 1687 0016 00BF     		.p2align 2
 1688              	.L77:
 1689 0018 4D000000 		.word	.L80+1
 1690 001c 95000000 		.word	.L85+1
 1691 0020 95000000 		.word	.L85+1
 1692 0024 95000000 		.word	.L85+1
 1693 0028 5F000000 		.word	.L79+1
 1694 002c 95000000 		.word	.L85+1
 1695 0030 95000000 		.word	.L85+1
 1696 0034 95000000 		.word	.L85+1
 1697 0038 71000000 		.word	.L78+1
 1698 003c 95000000 		.word	.L85+1
 1699 0040 95000000 		.word	.L85+1
 1700 0044 95000000 		.word	.L85+1
 1701 0048 83000000 		.word	.L76+1
 1702              		.p2align 1
 1703              	.L80:
 803:./Libraries/STM32F4xx_HAL_Driver/Src/stm32f4xx_hal_tim_ex.c ****   /* Check the parameters */
 804:./Libraries/STM32F4xx_HAL_Driver/Src/stm32f4xx_hal_tim_ex.c ****   assert_param(IS_TIM_CCXN_INSTANCE(htim->Instance, Channel)); 
 805:./Libraries/STM32F4xx_HAL_Driver/Src/stm32f4xx_hal_tim_ex.c ****   
 806:./Libraries/STM32F4xx_HAL_Driver/Src/stm32f4xx_hal_tim_ex.c ****   switch (Channel)
 807:./Libraries/STM32F4xx_HAL_Driver/Src/stm32f4xx_hal_tim_ex.c ****   {
 808:./Libraries/STM32F4xx_HAL_Driver/Src/stm32f4xx_hal_tim_ex.c ****     case TIM_CHANNEL_1:
 809:./Libraries/STM32F4xx_HAL_Driver/Src/stm32f4xx_hal_tim_ex.c ****     {       
 810:./Libraries/STM32F4xx_HAL_Driver/Src/stm32f4xx_hal_tim_ex.c ****       /* Disable the TIM Output Compare DMA request */
 811:./Libraries/STM32F4xx_HAL_Driver/Src/stm32f4xx_hal_tim_ex.c ****       __HAL_TIM_DISABLE_DMA(htim, TIM_DMA_CC1);
 1704              		.loc 1 811 7
 1705 004c 7B68     		ldr	r3, [r7, #4]
 1706 004e 1B68     		ldr	r3, [r3]
 1707 0050 DA68     		ldr	r2, [r3, #12]
 1708 0052 7B68     		ldr	r3, [r7, #4]
 1709 0054 1B68     		ldr	r3, [r3]
 1710 0056 22F40072 		bic	r2, r2, #512
 1711 005a DA60     		str	r2, [r3, #12]
 812:./Libraries/STM32F4xx_HAL_Driver/Src/stm32f4xx_hal_tim_ex.c ****     }
 813:./Libraries/STM32F4xx_HAL_Driver/Src/stm32f4xx_hal_tim_ex.c ****     break;
 1712              		.loc 1 813 5
 1713 005c 1BE0     		b	.L81
 1714              	.L79:
 814:./Libraries/STM32F4xx_HAL_Driver/Src/stm32f4xx_hal_tim_ex.c ****     
 815:./Libraries/STM32F4xx_HAL_Driver/Src/stm32f4xx_hal_tim_ex.c ****     case TIM_CHANNEL_2:
 816:./Libraries/STM32F4xx_HAL_Driver/Src/stm32f4xx_hal_tim_ex.c ****     {
 817:./Libraries/STM32F4xx_HAL_Driver/Src/stm32f4xx_hal_tim_ex.c ****       /* Disable the TIM Output Compare DMA request */
 818:./Libraries/STM32F4xx_HAL_Driver/Src/stm32f4xx_hal_tim_ex.c ****       __HAL_TIM_DISABLE_DMA(htim, TIM_DMA_CC2);
 1715              		.loc 1 818 7
 1716 005e 7B68     		ldr	r3, [r7, #4]
 1717 0060 1B68     		ldr	r3, [r3]
 1718 0062 DA68     		ldr	r2, [r3, #12]
 1719 0064 7B68     		ldr	r3, [r7, #4]
 1720 0066 1B68     		ldr	r3, [r3]
 1721 0068 22F48062 		bic	r2, r2, #1024
ARM GAS  /tmp/ccpPm7TE.s 			page 45


 1722 006c DA60     		str	r2, [r3, #12]
 819:./Libraries/STM32F4xx_HAL_Driver/Src/stm32f4xx_hal_tim_ex.c ****     }
 820:./Libraries/STM32F4xx_HAL_Driver/Src/stm32f4xx_hal_tim_ex.c ****     break;
 1723              		.loc 1 820 5
 1724 006e 12E0     		b	.L81
 1725              	.L78:
 821:./Libraries/STM32F4xx_HAL_Driver/Src/stm32f4xx_hal_tim_ex.c ****     
 822:./Libraries/STM32F4xx_HAL_Driver/Src/stm32f4xx_hal_tim_ex.c ****     case TIM_CHANNEL_3:
 823:./Libraries/STM32F4xx_HAL_Driver/Src/stm32f4xx_hal_tim_ex.c ****     {
 824:./Libraries/STM32F4xx_HAL_Driver/Src/stm32f4xx_hal_tim_ex.c ****       /* Disable the TIM Output Compare DMA request */
 825:./Libraries/STM32F4xx_HAL_Driver/Src/stm32f4xx_hal_tim_ex.c ****       __HAL_TIM_DISABLE_DMA(htim, TIM_DMA_CC3);
 1726              		.loc 1 825 7
 1727 0070 7B68     		ldr	r3, [r7, #4]
 1728 0072 1B68     		ldr	r3, [r3]
 1729 0074 DA68     		ldr	r2, [r3, #12]
 1730 0076 7B68     		ldr	r3, [r7, #4]
 1731 0078 1B68     		ldr	r3, [r3]
 1732 007a 22F40062 		bic	r2, r2, #2048
 1733 007e DA60     		str	r2, [r3, #12]
 826:./Libraries/STM32F4xx_HAL_Driver/Src/stm32f4xx_hal_tim_ex.c ****     }
 827:./Libraries/STM32F4xx_HAL_Driver/Src/stm32f4xx_hal_tim_ex.c ****     break;
 1734              		.loc 1 827 5
 1735 0080 09E0     		b	.L81
 1736              	.L76:
 828:./Libraries/STM32F4xx_HAL_Driver/Src/stm32f4xx_hal_tim_ex.c ****     
 829:./Libraries/STM32F4xx_HAL_Driver/Src/stm32f4xx_hal_tim_ex.c ****     case TIM_CHANNEL_4:
 830:./Libraries/STM32F4xx_HAL_Driver/Src/stm32f4xx_hal_tim_ex.c ****     {
 831:./Libraries/STM32F4xx_HAL_Driver/Src/stm32f4xx_hal_tim_ex.c ****       /* Disable the TIM Output Compare interrupt */
 832:./Libraries/STM32F4xx_HAL_Driver/Src/stm32f4xx_hal_tim_ex.c ****       __HAL_TIM_DISABLE_DMA(htim, TIM_DMA_CC4);
 1737              		.loc 1 832 7
 1738 0082 7B68     		ldr	r3, [r7, #4]
 1739 0084 1B68     		ldr	r3, [r3]
 1740 0086 DA68     		ldr	r2, [r3, #12]
 1741 0088 7B68     		ldr	r3, [r7, #4]
 1742 008a 1B68     		ldr	r3, [r3]
 1743 008c 22F48052 		bic	r2, r2, #4096
 1744 0090 DA60     		str	r2, [r3, #12]
 833:./Libraries/STM32F4xx_HAL_Driver/Src/stm32f4xx_hal_tim_ex.c ****     }
 834:./Libraries/STM32F4xx_HAL_Driver/Src/stm32f4xx_hal_tim_ex.c ****     break;
 1745              		.loc 1 834 5
 1746 0092 00E0     		b	.L81
 1747              	.L85:
 835:./Libraries/STM32F4xx_HAL_Driver/Src/stm32f4xx_hal_tim_ex.c ****     
 836:./Libraries/STM32F4xx_HAL_Driver/Src/stm32f4xx_hal_tim_ex.c ****     default:
 837:./Libraries/STM32F4xx_HAL_Driver/Src/stm32f4xx_hal_tim_ex.c ****     break;
 1748              		.loc 1 837 5
 1749 0094 00BF     		nop
 1750              	.L81:
 838:./Libraries/STM32F4xx_HAL_Driver/Src/stm32f4xx_hal_tim_ex.c ****   } 
 839:./Libraries/STM32F4xx_HAL_Driver/Src/stm32f4xx_hal_tim_ex.c ****   
 840:./Libraries/STM32F4xx_HAL_Driver/Src/stm32f4xx_hal_tim_ex.c ****   /* Disable the Capture compare channel N */
 841:./Libraries/STM32F4xx_HAL_Driver/Src/stm32f4xx_hal_tim_ex.c ****   TIM_CCxNChannelCmd(htim->Instance, Channel, TIM_CCxN_DISABLE);
 1751              		.loc 1 841 3
 1752 0096 7B68     		ldr	r3, [r7, #4]
 1753 0098 1B68     		ldr	r3, [r3]
 1754 009a 0022     		movs	r2, #0
 1755 009c 3968     		ldr	r1, [r7]
ARM GAS  /tmp/ccpPm7TE.s 			page 46


 1756 009e 1846     		mov	r0, r3
 1757 00a0 FFF7FEFF 		bl	TIM_CCxNChannelCmd
 842:./Libraries/STM32F4xx_HAL_Driver/Src/stm32f4xx_hal_tim_ex.c ****   
 843:./Libraries/STM32F4xx_HAL_Driver/Src/stm32f4xx_hal_tim_ex.c ****   /* Disable the Main Output */
 844:./Libraries/STM32F4xx_HAL_Driver/Src/stm32f4xx_hal_tim_ex.c ****   __HAL_TIM_MOE_DISABLE(htim);
 1758              		.loc 1 844 3
 1759 00a4 7B68     		ldr	r3, [r7, #4]
 1760 00a6 1B68     		ldr	r3, [r3]
 1761 00a8 1A6A     		ldr	r2, [r3, #32]
 1762 00aa 41F21113 		movw	r3, #4369
 1763 00ae 1340     		ands	r3, r3, r2
 1764 00b0 002B     		cmp	r3, #0
 1765 00b2 0FD1     		bne	.L82
 1766              		.loc 1 844 3 is_stmt 0 discriminator 1
 1767 00b4 7B68     		ldr	r3, [r7, #4]
 1768 00b6 1B68     		ldr	r3, [r3]
 1769 00b8 1A6A     		ldr	r2, [r3, #32]
 1770 00ba 40F24443 		movw	r3, #1092
 1771 00be 1340     		ands	r3, r3, r2
 1772 00c0 002B     		cmp	r3, #0
 1773 00c2 07D1     		bne	.L82
 1774              		.loc 1 844 3 discriminator 2
 1775 00c4 7B68     		ldr	r3, [r7, #4]
 1776 00c6 1B68     		ldr	r3, [r3]
 1777 00c8 5A6C     		ldr	r2, [r3, #68]
 1778 00ca 7B68     		ldr	r3, [r7, #4]
 1779 00cc 1B68     		ldr	r3, [r3]
 1780 00ce 22F40042 		bic	r2, r2, #32768
 1781 00d2 5A64     		str	r2, [r3, #68]
 1782              	.L82:
 845:./Libraries/STM32F4xx_HAL_Driver/Src/stm32f4xx_hal_tim_ex.c ****   
 846:./Libraries/STM32F4xx_HAL_Driver/Src/stm32f4xx_hal_tim_ex.c ****   /* Disable the Peripheral */
 847:./Libraries/STM32F4xx_HAL_Driver/Src/stm32f4xx_hal_tim_ex.c ****   __HAL_TIM_DISABLE(htim);
 1783              		.loc 1 847 3 is_stmt 1
 1784 00d4 7B68     		ldr	r3, [r7, #4]
 1785 00d6 1B68     		ldr	r3, [r3]
 1786 00d8 1A6A     		ldr	r2, [r3, #32]
 1787 00da 41F21113 		movw	r3, #4369
 1788 00de 1340     		ands	r3, r3, r2
 1789 00e0 002B     		cmp	r3, #0
 1790 00e2 0FD1     		bne	.L83
 1791              		.loc 1 847 3 is_stmt 0 discriminator 1
 1792 00e4 7B68     		ldr	r3, [r7, #4]
 1793 00e6 1B68     		ldr	r3, [r3]
 1794 00e8 1A6A     		ldr	r2, [r3, #32]
 1795 00ea 40F24443 		movw	r3, #1092
 1796 00ee 1340     		ands	r3, r3, r2
 1797 00f0 002B     		cmp	r3, #0
 1798 00f2 07D1     		bne	.L83
 1799              		.loc 1 847 3 discriminator 2
 1800 00f4 7B68     		ldr	r3, [r7, #4]
 1801 00f6 1B68     		ldr	r3, [r3]
 1802 00f8 1A68     		ldr	r2, [r3]
 1803 00fa 7B68     		ldr	r3, [r7, #4]
 1804 00fc 1B68     		ldr	r3, [r3]
 1805 00fe 22F00102 		bic	r2, r2, #1
 1806 0102 1A60     		str	r2, [r3]
ARM GAS  /tmp/ccpPm7TE.s 			page 47


 1807              	.L83:
 848:./Libraries/STM32F4xx_HAL_Driver/Src/stm32f4xx_hal_tim_ex.c ****   
 849:./Libraries/STM32F4xx_HAL_Driver/Src/stm32f4xx_hal_tim_ex.c ****   /* Change the htim state */
 850:./Libraries/STM32F4xx_HAL_Driver/Src/stm32f4xx_hal_tim_ex.c ****   htim->State = HAL_TIM_STATE_READY;
 1808              		.loc 1 850 15 is_stmt 1
 1809 0104 7B68     		ldr	r3, [r7, #4]
 1810 0106 0122     		movs	r2, #1
 1811 0108 83F83920 		strb	r2, [r3, #57]
 851:./Libraries/STM32F4xx_HAL_Driver/Src/stm32f4xx_hal_tim_ex.c ****   
 852:./Libraries/STM32F4xx_HAL_Driver/Src/stm32f4xx_hal_tim_ex.c ****   /* Return function status */
 853:./Libraries/STM32F4xx_HAL_Driver/Src/stm32f4xx_hal_tim_ex.c ****   return HAL_OK;
 1812              		.loc 1 853 10
 1813 010c 0023     		movs	r3, #0
 854:./Libraries/STM32F4xx_HAL_Driver/Src/stm32f4xx_hal_tim_ex.c **** }
 1814              		.loc 1 854 1
 1815 010e 1846     		mov	r0, r3
 1816 0110 0837     		adds	r7, r7, #8
 1817              	.LCFI80:
 1818              		.cfi_def_cfa_offset 8
 1819 0112 BD46     		mov	sp, r7
 1820              	.LCFI81:
 1821              		.cfi_def_cfa_register 13
 1822              		@ sp needed
 1823 0114 80BD     		pop	{r7, pc}
 1824              		.cfi_endproc
 1825              	.LFE141:
 1827 0116 00BF     		.section	.text.HAL_TIMEx_PWMN_Start,"ax",%progbits
 1828              		.align	1
 1829              		.global	HAL_TIMEx_PWMN_Start
 1830              		.syntax unified
 1831              		.thumb
 1832              		.thumb_func
 1833              		.fpu fpv4-sp-d16
 1835              	HAL_TIMEx_PWMN_Start:
 1836              	.LFB142:
 855:./Libraries/STM32F4xx_HAL_Driver/Src/stm32f4xx_hal_tim_ex.c **** /**
 856:./Libraries/STM32F4xx_HAL_Driver/Src/stm32f4xx_hal_tim_ex.c ****   * @}
 857:./Libraries/STM32F4xx_HAL_Driver/Src/stm32f4xx_hal_tim_ex.c ****   */
 858:./Libraries/STM32F4xx_HAL_Driver/Src/stm32f4xx_hal_tim_ex.c ****   
 859:./Libraries/STM32F4xx_HAL_Driver/Src/stm32f4xx_hal_tim_ex.c **** /** @defgroup TIMEx_Exported_Functions_Group3 Timer Complementary PWM functions
 860:./Libraries/STM32F4xx_HAL_Driver/Src/stm32f4xx_hal_tim_ex.c ****  *  @brief    Timer Complementary PWM functions 
 861:./Libraries/STM32F4xx_HAL_Driver/Src/stm32f4xx_hal_tim_ex.c ****  *
 862:./Libraries/STM32F4xx_HAL_Driver/Src/stm32f4xx_hal_tim_ex.c **** @verbatim   
 863:./Libraries/STM32F4xx_HAL_Driver/Src/stm32f4xx_hal_tim_ex.c ****   ==============================================================================
 864:./Libraries/STM32F4xx_HAL_Driver/Src/stm32f4xx_hal_tim_ex.c ****                  ##### Timer Complementary PWM functions #####
 865:./Libraries/STM32F4xx_HAL_Driver/Src/stm32f4xx_hal_tim_ex.c ****   ==============================================================================  
 866:./Libraries/STM32F4xx_HAL_Driver/Src/stm32f4xx_hal_tim_ex.c ****   [..]  
 867:./Libraries/STM32F4xx_HAL_Driver/Src/stm32f4xx_hal_tim_ex.c ****     This section provides functions allowing to:
 868:./Libraries/STM32F4xx_HAL_Driver/Src/stm32f4xx_hal_tim_ex.c ****     (+) Start the Complementary PWM.
 869:./Libraries/STM32F4xx_HAL_Driver/Src/stm32f4xx_hal_tim_ex.c ****     (+) Stop the Complementary PWM.
 870:./Libraries/STM32F4xx_HAL_Driver/Src/stm32f4xx_hal_tim_ex.c ****     (+) Start the Complementary PWM and enable interrupts.
 871:./Libraries/STM32F4xx_HAL_Driver/Src/stm32f4xx_hal_tim_ex.c ****     (+) Stop the Complementary PWM and disable interrupts.
 872:./Libraries/STM32F4xx_HAL_Driver/Src/stm32f4xx_hal_tim_ex.c ****     (+) Start the Complementary PWM and enable DMA transfers.
 873:./Libraries/STM32F4xx_HAL_Driver/Src/stm32f4xx_hal_tim_ex.c ****     (+) Stop the Complementary PWM and disable DMA transfers.
 874:./Libraries/STM32F4xx_HAL_Driver/Src/stm32f4xx_hal_tim_ex.c ****     (+) Start the Complementary Input Capture measurement.
 875:./Libraries/STM32F4xx_HAL_Driver/Src/stm32f4xx_hal_tim_ex.c ****     (+) Stop the Complementary Input Capture.
 876:./Libraries/STM32F4xx_HAL_Driver/Src/stm32f4xx_hal_tim_ex.c ****     (+) Start the Complementary Input Capture and enable interrupts.
ARM GAS  /tmp/ccpPm7TE.s 			page 48


 877:./Libraries/STM32F4xx_HAL_Driver/Src/stm32f4xx_hal_tim_ex.c ****     (+) Stop the Complementary Input Capture and disable interrupts.
 878:./Libraries/STM32F4xx_HAL_Driver/Src/stm32f4xx_hal_tim_ex.c ****     (+) Start the Complementary Input Capture and enable DMA transfers.
 879:./Libraries/STM32F4xx_HAL_Driver/Src/stm32f4xx_hal_tim_ex.c ****     (+) Stop the Complementary Input Capture and disable DMA transfers.
 880:./Libraries/STM32F4xx_HAL_Driver/Src/stm32f4xx_hal_tim_ex.c ****     (+) Start the Complementary One Pulse generation.
 881:./Libraries/STM32F4xx_HAL_Driver/Src/stm32f4xx_hal_tim_ex.c ****     (+) Stop the Complementary One Pulse.
 882:./Libraries/STM32F4xx_HAL_Driver/Src/stm32f4xx_hal_tim_ex.c ****     (+) Start the Complementary One Pulse and enable interrupts.
 883:./Libraries/STM32F4xx_HAL_Driver/Src/stm32f4xx_hal_tim_ex.c ****     (+) Stop the Complementary One Pulse and disable interrupts.
 884:./Libraries/STM32F4xx_HAL_Driver/Src/stm32f4xx_hal_tim_ex.c ****                
 885:./Libraries/STM32F4xx_HAL_Driver/Src/stm32f4xx_hal_tim_ex.c **** @endverbatim
 886:./Libraries/STM32F4xx_HAL_Driver/Src/stm32f4xx_hal_tim_ex.c ****   * @{
 887:./Libraries/STM32F4xx_HAL_Driver/Src/stm32f4xx_hal_tim_ex.c ****   */
 888:./Libraries/STM32F4xx_HAL_Driver/Src/stm32f4xx_hal_tim_ex.c **** 
 889:./Libraries/STM32F4xx_HAL_Driver/Src/stm32f4xx_hal_tim_ex.c **** /**
 890:./Libraries/STM32F4xx_HAL_Driver/Src/stm32f4xx_hal_tim_ex.c ****   * @brief  Starts the PWM signal generation on the complementary output.
 891:./Libraries/STM32F4xx_HAL_Driver/Src/stm32f4xx_hal_tim_ex.c ****   * @param  htim pointer to a TIM_HandleTypeDef structure that contains
 892:./Libraries/STM32F4xx_HAL_Driver/Src/stm32f4xx_hal_tim_ex.c ****   *                the configuration information for TIM module.
 893:./Libraries/STM32F4xx_HAL_Driver/Src/stm32f4xx_hal_tim_ex.c ****   * @param  Channel TIM Channel to be enabled.
 894:./Libraries/STM32F4xx_HAL_Driver/Src/stm32f4xx_hal_tim_ex.c ****   *          This parameter can be one of the following values:
 895:./Libraries/STM32F4xx_HAL_Driver/Src/stm32f4xx_hal_tim_ex.c ****   *            @arg TIM_CHANNEL_1: TIM Channel 1 selected
 896:./Libraries/STM32F4xx_HAL_Driver/Src/stm32f4xx_hal_tim_ex.c ****   *            @arg TIM_CHANNEL_2: TIM Channel 2 selected
 897:./Libraries/STM32F4xx_HAL_Driver/Src/stm32f4xx_hal_tim_ex.c ****   *            @arg TIM_CHANNEL_3: TIM Channel 3 selected
 898:./Libraries/STM32F4xx_HAL_Driver/Src/stm32f4xx_hal_tim_ex.c ****   * @retval HAL status
 899:./Libraries/STM32F4xx_HAL_Driver/Src/stm32f4xx_hal_tim_ex.c ****   */
 900:./Libraries/STM32F4xx_HAL_Driver/Src/stm32f4xx_hal_tim_ex.c **** HAL_StatusTypeDef HAL_TIMEx_PWMN_Start(TIM_HandleTypeDef *htim, uint32_t Channel)
 901:./Libraries/STM32F4xx_HAL_Driver/Src/stm32f4xx_hal_tim_ex.c **** {
 1837              		.loc 1 901 1
 1838              		.cfi_startproc
 1839              		@ args = 0, pretend = 0, frame = 8
 1840              		@ frame_needed = 1, uses_anonymous_args = 0
 1841 0000 80B5     		push	{r7, lr}
 1842              	.LCFI82:
 1843              		.cfi_def_cfa_offset 8
 1844              		.cfi_offset 7, -8
 1845              		.cfi_offset 14, -4
 1846 0002 82B0     		sub	sp, sp, #8
 1847              	.LCFI83:
 1848              		.cfi_def_cfa_offset 16
 1849 0004 00AF     		add	r7, sp, #0
 1850              	.LCFI84:
 1851              		.cfi_def_cfa_register 7
 1852 0006 7860     		str	r0, [r7, #4]
 1853 0008 3960     		str	r1, [r7]
 902:./Libraries/STM32F4xx_HAL_Driver/Src/stm32f4xx_hal_tim_ex.c ****   /* Check the parameters */
 903:./Libraries/STM32F4xx_HAL_Driver/Src/stm32f4xx_hal_tim_ex.c ****   assert_param(IS_TIM_CCXN_INSTANCE(htim->Instance, Channel)); 
 904:./Libraries/STM32F4xx_HAL_Driver/Src/stm32f4xx_hal_tim_ex.c ****   
 905:./Libraries/STM32F4xx_HAL_Driver/Src/stm32f4xx_hal_tim_ex.c ****   /* Enable the complementary PWM output  */
 906:./Libraries/STM32F4xx_HAL_Driver/Src/stm32f4xx_hal_tim_ex.c ****   TIM_CCxNChannelCmd(htim->Instance, Channel, TIM_CCxN_ENABLE);
 1854              		.loc 1 906 3
 1855 000a 7B68     		ldr	r3, [r7, #4]
 1856 000c 1B68     		ldr	r3, [r3]
 1857 000e 0422     		movs	r2, #4
 1858 0010 3968     		ldr	r1, [r7]
 1859 0012 1846     		mov	r0, r3
 1860 0014 FFF7FEFF 		bl	TIM_CCxNChannelCmd
 907:./Libraries/STM32F4xx_HAL_Driver/Src/stm32f4xx_hal_tim_ex.c ****   
 908:./Libraries/STM32F4xx_HAL_Driver/Src/stm32f4xx_hal_tim_ex.c ****   /* Enable the Main Output */
 909:./Libraries/STM32F4xx_HAL_Driver/Src/stm32f4xx_hal_tim_ex.c ****   __HAL_TIM_MOE_ENABLE(htim);
ARM GAS  /tmp/ccpPm7TE.s 			page 49


 1861              		.loc 1 909 3
 1862 0018 7B68     		ldr	r3, [r7, #4]
 1863 001a 1B68     		ldr	r3, [r3]
 1864 001c 5A6C     		ldr	r2, [r3, #68]
 1865 001e 7B68     		ldr	r3, [r7, #4]
 1866 0020 1B68     		ldr	r3, [r3]
 1867 0022 42F40042 		orr	r2, r2, #32768
 1868 0026 5A64     		str	r2, [r3, #68]
 910:./Libraries/STM32F4xx_HAL_Driver/Src/stm32f4xx_hal_tim_ex.c ****   
 911:./Libraries/STM32F4xx_HAL_Driver/Src/stm32f4xx_hal_tim_ex.c ****   /* Enable the Peripheral */
 912:./Libraries/STM32F4xx_HAL_Driver/Src/stm32f4xx_hal_tim_ex.c ****   __HAL_TIM_ENABLE(htim);
 1869              		.loc 1 912 3
 1870 0028 7B68     		ldr	r3, [r7, #4]
 1871 002a 1B68     		ldr	r3, [r3]
 1872 002c 1A68     		ldr	r2, [r3]
 1873 002e 7B68     		ldr	r3, [r7, #4]
 1874 0030 1B68     		ldr	r3, [r3]
 1875 0032 42F00102 		orr	r2, r2, #1
 1876 0036 1A60     		str	r2, [r3]
 913:./Libraries/STM32F4xx_HAL_Driver/Src/stm32f4xx_hal_tim_ex.c ****   
 914:./Libraries/STM32F4xx_HAL_Driver/Src/stm32f4xx_hal_tim_ex.c ****   /* Return function status */
 915:./Libraries/STM32F4xx_HAL_Driver/Src/stm32f4xx_hal_tim_ex.c ****   return HAL_OK;
 1877              		.loc 1 915 10
 1878 0038 0023     		movs	r3, #0
 916:./Libraries/STM32F4xx_HAL_Driver/Src/stm32f4xx_hal_tim_ex.c **** } 
 1879              		.loc 1 916 1
 1880 003a 1846     		mov	r0, r3
 1881 003c 0837     		adds	r7, r7, #8
 1882              	.LCFI85:
 1883              		.cfi_def_cfa_offset 8
 1884 003e BD46     		mov	sp, r7
 1885              	.LCFI86:
 1886              		.cfi_def_cfa_register 13
 1887              		@ sp needed
 1888 0040 80BD     		pop	{r7, pc}
 1889              		.cfi_endproc
 1890              	.LFE142:
 1892              		.section	.text.HAL_TIMEx_PWMN_Stop,"ax",%progbits
 1893              		.align	1
 1894              		.global	HAL_TIMEx_PWMN_Stop
 1895              		.syntax unified
 1896              		.thumb
 1897              		.thumb_func
 1898              		.fpu fpv4-sp-d16
 1900              	HAL_TIMEx_PWMN_Stop:
 1901              	.LFB143:
 917:./Libraries/STM32F4xx_HAL_Driver/Src/stm32f4xx_hal_tim_ex.c **** 
 918:./Libraries/STM32F4xx_HAL_Driver/Src/stm32f4xx_hal_tim_ex.c **** /**
 919:./Libraries/STM32F4xx_HAL_Driver/Src/stm32f4xx_hal_tim_ex.c ****   * @brief  Stops the PWM signal generation on the complementary output.
 920:./Libraries/STM32F4xx_HAL_Driver/Src/stm32f4xx_hal_tim_ex.c ****   * @param  htim pointer to a TIM_HandleTypeDef structure that contains
 921:./Libraries/STM32F4xx_HAL_Driver/Src/stm32f4xx_hal_tim_ex.c ****   *                the configuration information for TIM module.
 922:./Libraries/STM32F4xx_HAL_Driver/Src/stm32f4xx_hal_tim_ex.c ****   * @param  Channel TIM Channel to be disabled.
 923:./Libraries/STM32F4xx_HAL_Driver/Src/stm32f4xx_hal_tim_ex.c ****   *          This parameter can be one of the following values:
 924:./Libraries/STM32F4xx_HAL_Driver/Src/stm32f4xx_hal_tim_ex.c ****   *            @arg TIM_CHANNEL_1: TIM Channel 1 selected
 925:./Libraries/STM32F4xx_HAL_Driver/Src/stm32f4xx_hal_tim_ex.c ****   *            @arg TIM_CHANNEL_2: TIM Channel 2 selected
 926:./Libraries/STM32F4xx_HAL_Driver/Src/stm32f4xx_hal_tim_ex.c ****   *            @arg TIM_CHANNEL_3: TIM Channel 3 selected
 927:./Libraries/STM32F4xx_HAL_Driver/Src/stm32f4xx_hal_tim_ex.c ****   * @retval HAL status
ARM GAS  /tmp/ccpPm7TE.s 			page 50


 928:./Libraries/STM32F4xx_HAL_Driver/Src/stm32f4xx_hal_tim_ex.c ****   */
 929:./Libraries/STM32F4xx_HAL_Driver/Src/stm32f4xx_hal_tim_ex.c **** HAL_StatusTypeDef HAL_TIMEx_PWMN_Stop(TIM_HandleTypeDef *htim, uint32_t Channel)
 930:./Libraries/STM32F4xx_HAL_Driver/Src/stm32f4xx_hal_tim_ex.c **** { 
 1902              		.loc 1 930 1
 1903              		.cfi_startproc
 1904              		@ args = 0, pretend = 0, frame = 8
 1905              		@ frame_needed = 1, uses_anonymous_args = 0
 1906 0000 80B5     		push	{r7, lr}
 1907              	.LCFI87:
 1908              		.cfi_def_cfa_offset 8
 1909              		.cfi_offset 7, -8
 1910              		.cfi_offset 14, -4
 1911 0002 82B0     		sub	sp, sp, #8
 1912              	.LCFI88:
 1913              		.cfi_def_cfa_offset 16
 1914 0004 00AF     		add	r7, sp, #0
 1915              	.LCFI89:
 1916              		.cfi_def_cfa_register 7
 1917 0006 7860     		str	r0, [r7, #4]
 1918 0008 3960     		str	r1, [r7]
 931:./Libraries/STM32F4xx_HAL_Driver/Src/stm32f4xx_hal_tim_ex.c ****   /* Check the parameters */
 932:./Libraries/STM32F4xx_HAL_Driver/Src/stm32f4xx_hal_tim_ex.c ****   assert_param(IS_TIM_CCXN_INSTANCE(htim->Instance, Channel)); 
 933:./Libraries/STM32F4xx_HAL_Driver/Src/stm32f4xx_hal_tim_ex.c ****   
 934:./Libraries/STM32F4xx_HAL_Driver/Src/stm32f4xx_hal_tim_ex.c ****   /* Disable the complementary PWM output  */
 935:./Libraries/STM32F4xx_HAL_Driver/Src/stm32f4xx_hal_tim_ex.c ****   TIM_CCxNChannelCmd(htim->Instance, Channel, TIM_CCxN_DISABLE);  
 1919              		.loc 1 935 3
 1920 000a 7B68     		ldr	r3, [r7, #4]
 1921 000c 1B68     		ldr	r3, [r3]
 1922 000e 0022     		movs	r2, #0
 1923 0010 3968     		ldr	r1, [r7]
 1924 0012 1846     		mov	r0, r3
 1925 0014 FFF7FEFF 		bl	TIM_CCxNChannelCmd
 936:./Libraries/STM32F4xx_HAL_Driver/Src/stm32f4xx_hal_tim_ex.c ****   
 937:./Libraries/STM32F4xx_HAL_Driver/Src/stm32f4xx_hal_tim_ex.c ****   /* Disable the Main Output */
 938:./Libraries/STM32F4xx_HAL_Driver/Src/stm32f4xx_hal_tim_ex.c ****   __HAL_TIM_MOE_DISABLE(htim);
 1926              		.loc 1 938 3
 1927 0018 7B68     		ldr	r3, [r7, #4]
 1928 001a 1B68     		ldr	r3, [r3]
 1929 001c 1A6A     		ldr	r2, [r3, #32]
 1930 001e 41F21113 		movw	r3, #4369
 1931 0022 1340     		ands	r3, r3, r2
 1932 0024 002B     		cmp	r3, #0
 1933 0026 0FD1     		bne	.L89
 1934              		.loc 1 938 3 is_stmt 0 discriminator 1
 1935 0028 7B68     		ldr	r3, [r7, #4]
 1936 002a 1B68     		ldr	r3, [r3]
 1937 002c 1A6A     		ldr	r2, [r3, #32]
 1938 002e 40F24443 		movw	r3, #1092
 1939 0032 1340     		ands	r3, r3, r2
 1940 0034 002B     		cmp	r3, #0
 1941 0036 07D1     		bne	.L89
 1942              		.loc 1 938 3 discriminator 2
 1943 0038 7B68     		ldr	r3, [r7, #4]
 1944 003a 1B68     		ldr	r3, [r3]
 1945 003c 5A6C     		ldr	r2, [r3, #68]
 1946 003e 7B68     		ldr	r3, [r7, #4]
 1947 0040 1B68     		ldr	r3, [r3]
ARM GAS  /tmp/ccpPm7TE.s 			page 51


 1948 0042 22F40042 		bic	r2, r2, #32768
 1949 0046 5A64     		str	r2, [r3, #68]
 1950              	.L89:
 939:./Libraries/STM32F4xx_HAL_Driver/Src/stm32f4xx_hal_tim_ex.c ****   
 940:./Libraries/STM32F4xx_HAL_Driver/Src/stm32f4xx_hal_tim_ex.c ****   /* Disable the Peripheral */
 941:./Libraries/STM32F4xx_HAL_Driver/Src/stm32f4xx_hal_tim_ex.c ****   __HAL_TIM_DISABLE(htim);
 1951              		.loc 1 941 3 is_stmt 1
 1952 0048 7B68     		ldr	r3, [r7, #4]
 1953 004a 1B68     		ldr	r3, [r3]
 1954 004c 1A6A     		ldr	r2, [r3, #32]
 1955 004e 41F21113 		movw	r3, #4369
 1956 0052 1340     		ands	r3, r3, r2
 1957 0054 002B     		cmp	r3, #0
 1958 0056 0FD1     		bne	.L90
 1959              		.loc 1 941 3 is_stmt 0 discriminator 1
 1960 0058 7B68     		ldr	r3, [r7, #4]
 1961 005a 1B68     		ldr	r3, [r3]
 1962 005c 1A6A     		ldr	r2, [r3, #32]
 1963 005e 40F24443 		movw	r3, #1092
 1964 0062 1340     		ands	r3, r3, r2
 1965 0064 002B     		cmp	r3, #0
 1966 0066 07D1     		bne	.L90
 1967              		.loc 1 941 3 discriminator 2
 1968 0068 7B68     		ldr	r3, [r7, #4]
 1969 006a 1B68     		ldr	r3, [r3]
 1970 006c 1A68     		ldr	r2, [r3]
 1971 006e 7B68     		ldr	r3, [r7, #4]
 1972 0070 1B68     		ldr	r3, [r3]
 1973 0072 22F00102 		bic	r2, r2, #1
 1974 0076 1A60     		str	r2, [r3]
 1975              	.L90:
 942:./Libraries/STM32F4xx_HAL_Driver/Src/stm32f4xx_hal_tim_ex.c ****   
 943:./Libraries/STM32F4xx_HAL_Driver/Src/stm32f4xx_hal_tim_ex.c ****   /* Return function status */
 944:./Libraries/STM32F4xx_HAL_Driver/Src/stm32f4xx_hal_tim_ex.c ****   return HAL_OK;
 1976              		.loc 1 944 10 is_stmt 1
 1977 0078 0023     		movs	r3, #0
 945:./Libraries/STM32F4xx_HAL_Driver/Src/stm32f4xx_hal_tim_ex.c **** } 
 1978              		.loc 1 945 1
 1979 007a 1846     		mov	r0, r3
 1980 007c 0837     		adds	r7, r7, #8
 1981              	.LCFI90:
 1982              		.cfi_def_cfa_offset 8
 1983 007e BD46     		mov	sp, r7
 1984              	.LCFI91:
 1985              		.cfi_def_cfa_register 13
 1986              		@ sp needed
 1987 0080 80BD     		pop	{r7, pc}
 1988              		.cfi_endproc
 1989              	.LFE143:
 1991              		.section	.text.HAL_TIMEx_PWMN_Start_IT,"ax",%progbits
 1992              		.align	1
 1993              		.global	HAL_TIMEx_PWMN_Start_IT
 1994              		.syntax unified
 1995              		.thumb
 1996              		.thumb_func
 1997              		.fpu fpv4-sp-d16
 1999              	HAL_TIMEx_PWMN_Start_IT:
ARM GAS  /tmp/ccpPm7TE.s 			page 52


 2000              	.LFB144:
 946:./Libraries/STM32F4xx_HAL_Driver/Src/stm32f4xx_hal_tim_ex.c **** 
 947:./Libraries/STM32F4xx_HAL_Driver/Src/stm32f4xx_hal_tim_ex.c **** /**
 948:./Libraries/STM32F4xx_HAL_Driver/Src/stm32f4xx_hal_tim_ex.c ****   * @brief  Starts the PWM signal generation in interrupt mode on the 
 949:./Libraries/STM32F4xx_HAL_Driver/Src/stm32f4xx_hal_tim_ex.c ****   *         complementary output.
 950:./Libraries/STM32F4xx_HAL_Driver/Src/stm32f4xx_hal_tim_ex.c ****   * @param  htim pointer to a TIM_HandleTypeDef structure that contains
 951:./Libraries/STM32F4xx_HAL_Driver/Src/stm32f4xx_hal_tim_ex.c ****   *                the configuration information for TIM module.
 952:./Libraries/STM32F4xx_HAL_Driver/Src/stm32f4xx_hal_tim_ex.c ****   * @param  Channel TIM Channel to be disabled.
 953:./Libraries/STM32F4xx_HAL_Driver/Src/stm32f4xx_hal_tim_ex.c ****   *          This parameter can be one of the following values:
 954:./Libraries/STM32F4xx_HAL_Driver/Src/stm32f4xx_hal_tim_ex.c ****   *            @arg TIM_CHANNEL_1: TIM Channel 1 selected
 955:./Libraries/STM32F4xx_HAL_Driver/Src/stm32f4xx_hal_tim_ex.c ****   *            @arg TIM_CHANNEL_2: TIM Channel 2 selected
 956:./Libraries/STM32F4xx_HAL_Driver/Src/stm32f4xx_hal_tim_ex.c ****   *            @arg TIM_CHANNEL_3: TIM Channel 3 selected
 957:./Libraries/STM32F4xx_HAL_Driver/Src/stm32f4xx_hal_tim_ex.c ****   * @retval HAL status
 958:./Libraries/STM32F4xx_HAL_Driver/Src/stm32f4xx_hal_tim_ex.c ****   */
 959:./Libraries/STM32F4xx_HAL_Driver/Src/stm32f4xx_hal_tim_ex.c **** HAL_StatusTypeDef HAL_TIMEx_PWMN_Start_IT(TIM_HandleTypeDef *htim, uint32_t Channel)
 960:./Libraries/STM32F4xx_HAL_Driver/Src/stm32f4xx_hal_tim_ex.c **** {
 2001              		.loc 1 960 1
 2002              		.cfi_startproc
 2003              		@ args = 0, pretend = 0, frame = 8
 2004              		@ frame_needed = 1, uses_anonymous_args = 0
 2005 0000 80B5     		push	{r7, lr}
 2006              	.LCFI92:
 2007              		.cfi_def_cfa_offset 8
 2008              		.cfi_offset 7, -8
 2009              		.cfi_offset 14, -4
 2010 0002 82B0     		sub	sp, sp, #8
 2011              	.LCFI93:
 2012              		.cfi_def_cfa_offset 16
 2013 0004 00AF     		add	r7, sp, #0
 2014              	.LCFI94:
 2015              		.cfi_def_cfa_register 7
 2016 0006 7860     		str	r0, [r7, #4]
 2017 0008 3960     		str	r1, [r7]
 2018 000a 3B68     		ldr	r3, [r7]
 2019 000c 0C2B     		cmp	r3, #12
 2020 000e 41D8     		bhi	.L101
 2021 0010 01A2     		adr	r2, .L95
 2022 0012 52F823F0 		ldr	pc, [r2, r3, lsl #2]
 2023 0016 00BF     		.p2align 2
 2024              	.L95:
 2025 0018 4D000000 		.word	.L98+1
 2026 001c 95000000 		.word	.L101+1
 2027 0020 95000000 		.word	.L101+1
 2028 0024 95000000 		.word	.L101+1
 2029 0028 5F000000 		.word	.L97+1
 2030 002c 95000000 		.word	.L101+1
 2031 0030 95000000 		.word	.L101+1
 2032 0034 95000000 		.word	.L101+1
 2033 0038 71000000 		.word	.L96+1
 2034 003c 95000000 		.word	.L101+1
 2035 0040 95000000 		.word	.L101+1
 2036 0044 95000000 		.word	.L101+1
 2037 0048 83000000 		.word	.L94+1
 2038              		.p2align 1
 2039              	.L98:
 961:./Libraries/STM32F4xx_HAL_Driver/Src/stm32f4xx_hal_tim_ex.c ****   /* Check the parameters */
 962:./Libraries/STM32F4xx_HAL_Driver/Src/stm32f4xx_hal_tim_ex.c ****   assert_param(IS_TIM_CCXN_INSTANCE(htim->Instance, Channel)); 
ARM GAS  /tmp/ccpPm7TE.s 			page 53


 963:./Libraries/STM32F4xx_HAL_Driver/Src/stm32f4xx_hal_tim_ex.c ****   
 964:./Libraries/STM32F4xx_HAL_Driver/Src/stm32f4xx_hal_tim_ex.c ****   switch (Channel)
 965:./Libraries/STM32F4xx_HAL_Driver/Src/stm32f4xx_hal_tim_ex.c ****   {
 966:./Libraries/STM32F4xx_HAL_Driver/Src/stm32f4xx_hal_tim_ex.c ****     case TIM_CHANNEL_1:
 967:./Libraries/STM32F4xx_HAL_Driver/Src/stm32f4xx_hal_tim_ex.c ****     {       
 968:./Libraries/STM32F4xx_HAL_Driver/Src/stm32f4xx_hal_tim_ex.c ****       /* Enable the TIM Capture/Compare 1 interrupt */
 969:./Libraries/STM32F4xx_HAL_Driver/Src/stm32f4xx_hal_tim_ex.c ****       __HAL_TIM_ENABLE_IT(htim, TIM_IT_CC1);
 2040              		.loc 1 969 7
 2041 004c 7B68     		ldr	r3, [r7, #4]
 2042 004e 1B68     		ldr	r3, [r3]
 2043 0050 DA68     		ldr	r2, [r3, #12]
 2044 0052 7B68     		ldr	r3, [r7, #4]
 2045 0054 1B68     		ldr	r3, [r3]
 2046 0056 42F00202 		orr	r2, r2, #2
 2047 005a DA60     		str	r2, [r3, #12]
 970:./Libraries/STM32F4xx_HAL_Driver/Src/stm32f4xx_hal_tim_ex.c ****     }
 971:./Libraries/STM32F4xx_HAL_Driver/Src/stm32f4xx_hal_tim_ex.c ****     break;
 2048              		.loc 1 971 5
 2049 005c 1BE0     		b	.L99
 2050              	.L97:
 972:./Libraries/STM32F4xx_HAL_Driver/Src/stm32f4xx_hal_tim_ex.c ****     
 973:./Libraries/STM32F4xx_HAL_Driver/Src/stm32f4xx_hal_tim_ex.c ****     case TIM_CHANNEL_2:
 974:./Libraries/STM32F4xx_HAL_Driver/Src/stm32f4xx_hal_tim_ex.c ****     {
 975:./Libraries/STM32F4xx_HAL_Driver/Src/stm32f4xx_hal_tim_ex.c ****       /* Enable the TIM Capture/Compare 2 interrupt */
 976:./Libraries/STM32F4xx_HAL_Driver/Src/stm32f4xx_hal_tim_ex.c ****       __HAL_TIM_ENABLE_IT(htim, TIM_IT_CC2);
 2051              		.loc 1 976 7
 2052 005e 7B68     		ldr	r3, [r7, #4]
 2053 0060 1B68     		ldr	r3, [r3]
 2054 0062 DA68     		ldr	r2, [r3, #12]
 2055 0064 7B68     		ldr	r3, [r7, #4]
 2056 0066 1B68     		ldr	r3, [r3]
 2057 0068 42F00402 		orr	r2, r2, #4
 2058 006c DA60     		str	r2, [r3, #12]
 977:./Libraries/STM32F4xx_HAL_Driver/Src/stm32f4xx_hal_tim_ex.c ****     }
 978:./Libraries/STM32F4xx_HAL_Driver/Src/stm32f4xx_hal_tim_ex.c ****     break;
 2059              		.loc 1 978 5
 2060 006e 12E0     		b	.L99
 2061              	.L96:
 979:./Libraries/STM32F4xx_HAL_Driver/Src/stm32f4xx_hal_tim_ex.c ****     
 980:./Libraries/STM32F4xx_HAL_Driver/Src/stm32f4xx_hal_tim_ex.c ****     case TIM_CHANNEL_3:
 981:./Libraries/STM32F4xx_HAL_Driver/Src/stm32f4xx_hal_tim_ex.c ****     {
 982:./Libraries/STM32F4xx_HAL_Driver/Src/stm32f4xx_hal_tim_ex.c ****       /* Enable the TIM Capture/Compare 3 interrupt */
 983:./Libraries/STM32F4xx_HAL_Driver/Src/stm32f4xx_hal_tim_ex.c ****       __HAL_TIM_ENABLE_IT(htim, TIM_IT_CC3);
 2062              		.loc 1 983 7
 2063 0070 7B68     		ldr	r3, [r7, #4]
 2064 0072 1B68     		ldr	r3, [r3]
 2065 0074 DA68     		ldr	r2, [r3, #12]
 2066 0076 7B68     		ldr	r3, [r7, #4]
 2067 0078 1B68     		ldr	r3, [r3]
 2068 007a 42F00802 		orr	r2, r2, #8
 2069 007e DA60     		str	r2, [r3, #12]
 984:./Libraries/STM32F4xx_HAL_Driver/Src/stm32f4xx_hal_tim_ex.c ****     }
 985:./Libraries/STM32F4xx_HAL_Driver/Src/stm32f4xx_hal_tim_ex.c ****     break;
 2070              		.loc 1 985 5
 2071 0080 09E0     		b	.L99
 2072              	.L94:
 986:./Libraries/STM32F4xx_HAL_Driver/Src/stm32f4xx_hal_tim_ex.c ****     
ARM GAS  /tmp/ccpPm7TE.s 			page 54


 987:./Libraries/STM32F4xx_HAL_Driver/Src/stm32f4xx_hal_tim_ex.c ****     case TIM_CHANNEL_4:
 988:./Libraries/STM32F4xx_HAL_Driver/Src/stm32f4xx_hal_tim_ex.c ****     {
 989:./Libraries/STM32F4xx_HAL_Driver/Src/stm32f4xx_hal_tim_ex.c ****       /* Enable the TIM Capture/Compare 4 interrupt */
 990:./Libraries/STM32F4xx_HAL_Driver/Src/stm32f4xx_hal_tim_ex.c ****       __HAL_TIM_ENABLE_IT(htim, TIM_IT_CC4);
 2073              		.loc 1 990 7
 2074 0082 7B68     		ldr	r3, [r7, #4]
 2075 0084 1B68     		ldr	r3, [r3]
 2076 0086 DA68     		ldr	r2, [r3, #12]
 2077 0088 7B68     		ldr	r3, [r7, #4]
 2078 008a 1B68     		ldr	r3, [r3]
 2079 008c 42F01002 		orr	r2, r2, #16
 2080 0090 DA60     		str	r2, [r3, #12]
 991:./Libraries/STM32F4xx_HAL_Driver/Src/stm32f4xx_hal_tim_ex.c ****     }
 992:./Libraries/STM32F4xx_HAL_Driver/Src/stm32f4xx_hal_tim_ex.c ****     break;
 2081              		.loc 1 992 5
 2082 0092 00E0     		b	.L99
 2083              	.L101:
 993:./Libraries/STM32F4xx_HAL_Driver/Src/stm32f4xx_hal_tim_ex.c ****     
 994:./Libraries/STM32F4xx_HAL_Driver/Src/stm32f4xx_hal_tim_ex.c ****     default:
 995:./Libraries/STM32F4xx_HAL_Driver/Src/stm32f4xx_hal_tim_ex.c ****     break;
 2084              		.loc 1 995 5
 2085 0094 00BF     		nop
 2086              	.L99:
 996:./Libraries/STM32F4xx_HAL_Driver/Src/stm32f4xx_hal_tim_ex.c ****   } 
 997:./Libraries/STM32F4xx_HAL_Driver/Src/stm32f4xx_hal_tim_ex.c ****   
 998:./Libraries/STM32F4xx_HAL_Driver/Src/stm32f4xx_hal_tim_ex.c ****   /* Enable the TIM Break interrupt */
 999:./Libraries/STM32F4xx_HAL_Driver/Src/stm32f4xx_hal_tim_ex.c ****   __HAL_TIM_ENABLE_IT(htim, TIM_IT_BREAK);
 2087              		.loc 1 999 3
 2088 0096 7B68     		ldr	r3, [r7, #4]
 2089 0098 1B68     		ldr	r3, [r3]
 2090 009a DA68     		ldr	r2, [r3, #12]
 2091 009c 7B68     		ldr	r3, [r7, #4]
 2092 009e 1B68     		ldr	r3, [r3]
 2093 00a0 42F08002 		orr	r2, r2, #128
 2094 00a4 DA60     		str	r2, [r3, #12]
1000:./Libraries/STM32F4xx_HAL_Driver/Src/stm32f4xx_hal_tim_ex.c ****   
1001:./Libraries/STM32F4xx_HAL_Driver/Src/stm32f4xx_hal_tim_ex.c ****   /* Enable the complementary PWM output  */
1002:./Libraries/STM32F4xx_HAL_Driver/Src/stm32f4xx_hal_tim_ex.c ****   TIM_CCxNChannelCmd(htim->Instance, Channel, TIM_CCxN_ENABLE);
 2095              		.loc 1 1002 3
 2096 00a6 7B68     		ldr	r3, [r7, #4]
 2097 00a8 1B68     		ldr	r3, [r3]
 2098 00aa 0422     		movs	r2, #4
 2099 00ac 3968     		ldr	r1, [r7]
 2100 00ae 1846     		mov	r0, r3
 2101 00b0 FFF7FEFF 		bl	TIM_CCxNChannelCmd
1003:./Libraries/STM32F4xx_HAL_Driver/Src/stm32f4xx_hal_tim_ex.c ****   
1004:./Libraries/STM32F4xx_HAL_Driver/Src/stm32f4xx_hal_tim_ex.c ****   /* Enable the Main Output */
1005:./Libraries/STM32F4xx_HAL_Driver/Src/stm32f4xx_hal_tim_ex.c ****   __HAL_TIM_MOE_ENABLE(htim);
 2102              		.loc 1 1005 3
 2103 00b4 7B68     		ldr	r3, [r7, #4]
 2104 00b6 1B68     		ldr	r3, [r3]
 2105 00b8 5A6C     		ldr	r2, [r3, #68]
 2106 00ba 7B68     		ldr	r3, [r7, #4]
 2107 00bc 1B68     		ldr	r3, [r3]
 2108 00be 42F40042 		orr	r2, r2, #32768
 2109 00c2 5A64     		str	r2, [r3, #68]
1006:./Libraries/STM32F4xx_HAL_Driver/Src/stm32f4xx_hal_tim_ex.c ****   
ARM GAS  /tmp/ccpPm7TE.s 			page 55


1007:./Libraries/STM32F4xx_HAL_Driver/Src/stm32f4xx_hal_tim_ex.c ****   /* Enable the Peripheral */
1008:./Libraries/STM32F4xx_HAL_Driver/Src/stm32f4xx_hal_tim_ex.c ****   __HAL_TIM_ENABLE(htim);
 2110              		.loc 1 1008 3
 2111 00c4 7B68     		ldr	r3, [r7, #4]
 2112 00c6 1B68     		ldr	r3, [r3]
 2113 00c8 1A68     		ldr	r2, [r3]
 2114 00ca 7B68     		ldr	r3, [r7, #4]
 2115 00cc 1B68     		ldr	r3, [r3]
 2116 00ce 42F00102 		orr	r2, r2, #1
 2117 00d2 1A60     		str	r2, [r3]
1009:./Libraries/STM32F4xx_HAL_Driver/Src/stm32f4xx_hal_tim_ex.c ****   
1010:./Libraries/STM32F4xx_HAL_Driver/Src/stm32f4xx_hal_tim_ex.c ****   /* Return function status */
1011:./Libraries/STM32F4xx_HAL_Driver/Src/stm32f4xx_hal_tim_ex.c ****   return HAL_OK;
 2118              		.loc 1 1011 10
 2119 00d4 0023     		movs	r3, #0
1012:./Libraries/STM32F4xx_HAL_Driver/Src/stm32f4xx_hal_tim_ex.c **** } 
 2120              		.loc 1 1012 1
 2121 00d6 1846     		mov	r0, r3
 2122 00d8 0837     		adds	r7, r7, #8
 2123              	.LCFI95:
 2124              		.cfi_def_cfa_offset 8
 2125 00da BD46     		mov	sp, r7
 2126              	.LCFI96:
 2127              		.cfi_def_cfa_register 13
 2128              		@ sp needed
 2129 00dc 80BD     		pop	{r7, pc}
 2130              		.cfi_endproc
 2131              	.LFE144:
 2133 00de 00BF     		.section	.text.HAL_TIMEx_PWMN_Stop_IT,"ax",%progbits
 2134              		.align	1
 2135              		.global	HAL_TIMEx_PWMN_Stop_IT
 2136              		.syntax unified
 2137              		.thumb
 2138              		.thumb_func
 2139              		.fpu fpv4-sp-d16
 2141              	HAL_TIMEx_PWMN_Stop_IT:
 2142              	.LFB145:
1013:./Libraries/STM32F4xx_HAL_Driver/Src/stm32f4xx_hal_tim_ex.c **** 
1014:./Libraries/STM32F4xx_HAL_Driver/Src/stm32f4xx_hal_tim_ex.c **** /**
1015:./Libraries/STM32F4xx_HAL_Driver/Src/stm32f4xx_hal_tim_ex.c ****   * @brief  Stops the PWM signal generation in interrupt mode on the 
1016:./Libraries/STM32F4xx_HAL_Driver/Src/stm32f4xx_hal_tim_ex.c ****   *         complementary output.
1017:./Libraries/STM32F4xx_HAL_Driver/Src/stm32f4xx_hal_tim_ex.c ****   * @param  htim pointer to a TIM_HandleTypeDef structure that contains
1018:./Libraries/STM32F4xx_HAL_Driver/Src/stm32f4xx_hal_tim_ex.c ****   *                the configuration information for TIM module.
1019:./Libraries/STM32F4xx_HAL_Driver/Src/stm32f4xx_hal_tim_ex.c ****   * @param  Channel TIM Channel to be disabled.
1020:./Libraries/STM32F4xx_HAL_Driver/Src/stm32f4xx_hal_tim_ex.c ****   *          This parameter can be one of the following values:
1021:./Libraries/STM32F4xx_HAL_Driver/Src/stm32f4xx_hal_tim_ex.c ****   *            @arg TIM_CHANNEL_1: TIM Channel 1 selected
1022:./Libraries/STM32F4xx_HAL_Driver/Src/stm32f4xx_hal_tim_ex.c ****   *            @arg TIM_CHANNEL_2: TIM Channel 2 selected
1023:./Libraries/STM32F4xx_HAL_Driver/Src/stm32f4xx_hal_tim_ex.c ****   *            @arg TIM_CHANNEL_3: TIM Channel 3 selected
1024:./Libraries/STM32F4xx_HAL_Driver/Src/stm32f4xx_hal_tim_ex.c ****   * @retval HAL status
1025:./Libraries/STM32F4xx_HAL_Driver/Src/stm32f4xx_hal_tim_ex.c ****   */
1026:./Libraries/STM32F4xx_HAL_Driver/Src/stm32f4xx_hal_tim_ex.c **** HAL_StatusTypeDef HAL_TIMEx_PWMN_Stop_IT (TIM_HandleTypeDef *htim, uint32_t Channel)
1027:./Libraries/STM32F4xx_HAL_Driver/Src/stm32f4xx_hal_tim_ex.c **** {
 2143              		.loc 1 1027 1
 2144              		.cfi_startproc
 2145              		@ args = 0, pretend = 0, frame = 8
 2146              		@ frame_needed = 1, uses_anonymous_args = 0
 2147 0000 80B5     		push	{r7, lr}
ARM GAS  /tmp/ccpPm7TE.s 			page 56


 2148              	.LCFI97:
 2149              		.cfi_def_cfa_offset 8
 2150              		.cfi_offset 7, -8
 2151              		.cfi_offset 14, -4
 2152 0002 82B0     		sub	sp, sp, #8
 2153              	.LCFI98:
 2154              		.cfi_def_cfa_offset 16
 2155 0004 00AF     		add	r7, sp, #0
 2156              	.LCFI99:
 2157              		.cfi_def_cfa_register 7
 2158 0006 7860     		str	r0, [r7, #4]
 2159 0008 3960     		str	r1, [r7]
 2160 000a 3B68     		ldr	r3, [r7]
 2161 000c 0C2B     		cmp	r3, #12
 2162 000e 41D8     		bhi	.L114
 2163 0010 01A2     		adr	r2, .L105
 2164 0012 52F823F0 		ldr	pc, [r2, r3, lsl #2]
 2165 0016 00BF     		.p2align 2
 2166              	.L105:
 2167 0018 4D000000 		.word	.L108+1
 2168 001c 95000000 		.word	.L114+1
 2169 0020 95000000 		.word	.L114+1
 2170 0024 95000000 		.word	.L114+1
 2171 0028 5F000000 		.word	.L107+1
 2172 002c 95000000 		.word	.L114+1
 2173 0030 95000000 		.word	.L114+1
 2174 0034 95000000 		.word	.L114+1
 2175 0038 71000000 		.word	.L106+1
 2176 003c 95000000 		.word	.L114+1
 2177 0040 95000000 		.word	.L114+1
 2178 0044 95000000 		.word	.L114+1
 2179 0048 83000000 		.word	.L104+1
 2180              		.p2align 1
 2181              	.L108:
1028:./Libraries/STM32F4xx_HAL_Driver/Src/stm32f4xx_hal_tim_ex.c ****   /* Check the parameters */
1029:./Libraries/STM32F4xx_HAL_Driver/Src/stm32f4xx_hal_tim_ex.c ****   assert_param(IS_TIM_CCXN_INSTANCE(htim->Instance, Channel)); 
1030:./Libraries/STM32F4xx_HAL_Driver/Src/stm32f4xx_hal_tim_ex.c **** 
1031:./Libraries/STM32F4xx_HAL_Driver/Src/stm32f4xx_hal_tim_ex.c ****   switch (Channel)
1032:./Libraries/STM32F4xx_HAL_Driver/Src/stm32f4xx_hal_tim_ex.c ****   {
1033:./Libraries/STM32F4xx_HAL_Driver/Src/stm32f4xx_hal_tim_ex.c ****     case TIM_CHANNEL_1:
1034:./Libraries/STM32F4xx_HAL_Driver/Src/stm32f4xx_hal_tim_ex.c ****     {       
1035:./Libraries/STM32F4xx_HAL_Driver/Src/stm32f4xx_hal_tim_ex.c ****       /* Disable the TIM Capture/Compare 1 interrupt */
1036:./Libraries/STM32F4xx_HAL_Driver/Src/stm32f4xx_hal_tim_ex.c ****       __HAL_TIM_DISABLE_IT(htim, TIM_IT_CC1);
 2182              		.loc 1 1036 7
 2183 004c 7B68     		ldr	r3, [r7, #4]
 2184 004e 1B68     		ldr	r3, [r3]
 2185 0050 DA68     		ldr	r2, [r3, #12]
 2186 0052 7B68     		ldr	r3, [r7, #4]
 2187 0054 1B68     		ldr	r3, [r3]
 2188 0056 22F00202 		bic	r2, r2, #2
 2189 005a DA60     		str	r2, [r3, #12]
1037:./Libraries/STM32F4xx_HAL_Driver/Src/stm32f4xx_hal_tim_ex.c ****     }
1038:./Libraries/STM32F4xx_HAL_Driver/Src/stm32f4xx_hal_tim_ex.c ****     break;
 2190              		.loc 1 1038 5
 2191 005c 1BE0     		b	.L109
 2192              	.L107:
1039:./Libraries/STM32F4xx_HAL_Driver/Src/stm32f4xx_hal_tim_ex.c ****     
ARM GAS  /tmp/ccpPm7TE.s 			page 57


1040:./Libraries/STM32F4xx_HAL_Driver/Src/stm32f4xx_hal_tim_ex.c ****     case TIM_CHANNEL_2:
1041:./Libraries/STM32F4xx_HAL_Driver/Src/stm32f4xx_hal_tim_ex.c ****     {
1042:./Libraries/STM32F4xx_HAL_Driver/Src/stm32f4xx_hal_tim_ex.c ****       /* Disable the TIM Capture/Compare 2 interrupt */
1043:./Libraries/STM32F4xx_HAL_Driver/Src/stm32f4xx_hal_tim_ex.c ****       __HAL_TIM_DISABLE_IT(htim, TIM_IT_CC2);
 2193              		.loc 1 1043 7
 2194 005e 7B68     		ldr	r3, [r7, #4]
 2195 0060 1B68     		ldr	r3, [r3]
 2196 0062 DA68     		ldr	r2, [r3, #12]
 2197 0064 7B68     		ldr	r3, [r7, #4]
 2198 0066 1B68     		ldr	r3, [r3]
 2199 0068 22F00402 		bic	r2, r2, #4
 2200 006c DA60     		str	r2, [r3, #12]
1044:./Libraries/STM32F4xx_HAL_Driver/Src/stm32f4xx_hal_tim_ex.c ****     }
1045:./Libraries/STM32F4xx_HAL_Driver/Src/stm32f4xx_hal_tim_ex.c ****     break;
 2201              		.loc 1 1045 5
 2202 006e 12E0     		b	.L109
 2203              	.L106:
1046:./Libraries/STM32F4xx_HAL_Driver/Src/stm32f4xx_hal_tim_ex.c ****     
1047:./Libraries/STM32F4xx_HAL_Driver/Src/stm32f4xx_hal_tim_ex.c ****     case TIM_CHANNEL_3:
1048:./Libraries/STM32F4xx_HAL_Driver/Src/stm32f4xx_hal_tim_ex.c ****     {
1049:./Libraries/STM32F4xx_HAL_Driver/Src/stm32f4xx_hal_tim_ex.c ****       /* Disable the TIM Capture/Compare 3 interrupt */
1050:./Libraries/STM32F4xx_HAL_Driver/Src/stm32f4xx_hal_tim_ex.c ****       __HAL_TIM_DISABLE_IT(htim, TIM_IT_CC3);
 2204              		.loc 1 1050 7
 2205 0070 7B68     		ldr	r3, [r7, #4]
 2206 0072 1B68     		ldr	r3, [r3]
 2207 0074 DA68     		ldr	r2, [r3, #12]
 2208 0076 7B68     		ldr	r3, [r7, #4]
 2209 0078 1B68     		ldr	r3, [r3]
 2210 007a 22F00802 		bic	r2, r2, #8
 2211 007e DA60     		str	r2, [r3, #12]
1051:./Libraries/STM32F4xx_HAL_Driver/Src/stm32f4xx_hal_tim_ex.c ****     }
1052:./Libraries/STM32F4xx_HAL_Driver/Src/stm32f4xx_hal_tim_ex.c ****     break;
 2212              		.loc 1 1052 5
 2213 0080 09E0     		b	.L109
 2214              	.L104:
1053:./Libraries/STM32F4xx_HAL_Driver/Src/stm32f4xx_hal_tim_ex.c ****     
1054:./Libraries/STM32F4xx_HAL_Driver/Src/stm32f4xx_hal_tim_ex.c ****     case TIM_CHANNEL_4:
1055:./Libraries/STM32F4xx_HAL_Driver/Src/stm32f4xx_hal_tim_ex.c ****     {
1056:./Libraries/STM32F4xx_HAL_Driver/Src/stm32f4xx_hal_tim_ex.c ****       /* Disable the TIM Capture/Compare 3 interrupt */
1057:./Libraries/STM32F4xx_HAL_Driver/Src/stm32f4xx_hal_tim_ex.c ****       __HAL_TIM_DISABLE_IT(htim, TIM_IT_CC4);
 2215              		.loc 1 1057 7
 2216 0082 7B68     		ldr	r3, [r7, #4]
 2217 0084 1B68     		ldr	r3, [r3]
 2218 0086 DA68     		ldr	r2, [r3, #12]
 2219 0088 7B68     		ldr	r3, [r7, #4]
 2220 008a 1B68     		ldr	r3, [r3]
 2221 008c 22F01002 		bic	r2, r2, #16
 2222 0090 DA60     		str	r2, [r3, #12]
1058:./Libraries/STM32F4xx_HAL_Driver/Src/stm32f4xx_hal_tim_ex.c ****     }
1059:./Libraries/STM32F4xx_HAL_Driver/Src/stm32f4xx_hal_tim_ex.c ****     break;
 2223              		.loc 1 1059 5
 2224 0092 00E0     		b	.L109
 2225              	.L114:
1060:./Libraries/STM32F4xx_HAL_Driver/Src/stm32f4xx_hal_tim_ex.c ****     
1061:./Libraries/STM32F4xx_HAL_Driver/Src/stm32f4xx_hal_tim_ex.c ****     default:
1062:./Libraries/STM32F4xx_HAL_Driver/Src/stm32f4xx_hal_tim_ex.c ****     break; 
 2226              		.loc 1 1062 5
ARM GAS  /tmp/ccpPm7TE.s 			page 58


 2227 0094 00BF     		nop
 2228              	.L109:
1063:./Libraries/STM32F4xx_HAL_Driver/Src/stm32f4xx_hal_tim_ex.c ****   }
1064:./Libraries/STM32F4xx_HAL_Driver/Src/stm32f4xx_hal_tim_ex.c ****   
1065:./Libraries/STM32F4xx_HAL_Driver/Src/stm32f4xx_hal_tim_ex.c ****   /* Disable the complementary PWM output  */
1066:./Libraries/STM32F4xx_HAL_Driver/Src/stm32f4xx_hal_tim_ex.c ****   TIM_CCxNChannelCmd(htim->Instance, Channel, TIM_CCxN_DISABLE);
 2229              		.loc 1 1066 3
 2230 0096 7B68     		ldr	r3, [r7, #4]
 2231 0098 1B68     		ldr	r3, [r3]
 2232 009a 0022     		movs	r2, #0
 2233 009c 3968     		ldr	r1, [r7]
 2234 009e 1846     		mov	r0, r3
 2235 00a0 FFF7FEFF 		bl	TIM_CCxNChannelCmd
1067:./Libraries/STM32F4xx_HAL_Driver/Src/stm32f4xx_hal_tim_ex.c ****   
1068:./Libraries/STM32F4xx_HAL_Driver/Src/stm32f4xx_hal_tim_ex.c ****   /* Disable the TIM Break interrupt (only if no more channel is active) */
1069:./Libraries/STM32F4xx_HAL_Driver/Src/stm32f4xx_hal_tim_ex.c ****   if((READ_REG(htim->Instance->CCER) & (TIM_CCER_CC1NE | TIM_CCER_CC2NE | TIM_CCER_CC3NE)) == RESET
 2236              		.loc 1 1069 7
 2237 00a4 7B68     		ldr	r3, [r7, #4]
 2238 00a6 1B68     		ldr	r3, [r3]
 2239 00a8 1A6A     		ldr	r2, [r3, #32]
 2240              		.loc 1 1069 38
 2241 00aa 40F24443 		movw	r3, #1092
 2242 00ae 1340     		ands	r3, r3, r2
 2243              		.loc 1 1069 5
 2244 00b0 002B     		cmp	r3, #0
 2245 00b2 07D1     		bne	.L110
1070:./Libraries/STM32F4xx_HAL_Driver/Src/stm32f4xx_hal_tim_ex.c ****   {
1071:./Libraries/STM32F4xx_HAL_Driver/Src/stm32f4xx_hal_tim_ex.c ****     __HAL_TIM_DISABLE_IT(htim, TIM_IT_BREAK);
 2246              		.loc 1 1071 5
 2247 00b4 7B68     		ldr	r3, [r7, #4]
 2248 00b6 1B68     		ldr	r3, [r3]
 2249 00b8 DA68     		ldr	r2, [r3, #12]
 2250 00ba 7B68     		ldr	r3, [r7, #4]
 2251 00bc 1B68     		ldr	r3, [r3]
 2252 00be 22F08002 		bic	r2, r2, #128
 2253 00c2 DA60     		str	r2, [r3, #12]
 2254              	.L110:
1072:./Libraries/STM32F4xx_HAL_Driver/Src/stm32f4xx_hal_tim_ex.c ****   }
1073:./Libraries/STM32F4xx_HAL_Driver/Src/stm32f4xx_hal_tim_ex.c ****   
1074:./Libraries/STM32F4xx_HAL_Driver/Src/stm32f4xx_hal_tim_ex.c ****   /* Disable the Main Output */
1075:./Libraries/STM32F4xx_HAL_Driver/Src/stm32f4xx_hal_tim_ex.c ****   __HAL_TIM_MOE_DISABLE(htim);
 2255              		.loc 1 1075 3
 2256 00c4 7B68     		ldr	r3, [r7, #4]
 2257 00c6 1B68     		ldr	r3, [r3]
 2258 00c8 1A6A     		ldr	r2, [r3, #32]
 2259 00ca 41F21113 		movw	r3, #4369
 2260 00ce 1340     		ands	r3, r3, r2
 2261 00d0 002B     		cmp	r3, #0
 2262 00d2 0FD1     		bne	.L111
 2263              		.loc 1 1075 3 is_stmt 0 discriminator 1
 2264 00d4 7B68     		ldr	r3, [r7, #4]
 2265 00d6 1B68     		ldr	r3, [r3]
 2266 00d8 1A6A     		ldr	r2, [r3, #32]
 2267 00da 40F24443 		movw	r3, #1092
 2268 00de 1340     		ands	r3, r3, r2
 2269 00e0 002B     		cmp	r3, #0
 2270 00e2 07D1     		bne	.L111
ARM GAS  /tmp/ccpPm7TE.s 			page 59


 2271              		.loc 1 1075 3 discriminator 2
 2272 00e4 7B68     		ldr	r3, [r7, #4]
 2273 00e6 1B68     		ldr	r3, [r3]
 2274 00e8 5A6C     		ldr	r2, [r3, #68]
 2275 00ea 7B68     		ldr	r3, [r7, #4]
 2276 00ec 1B68     		ldr	r3, [r3]
 2277 00ee 22F40042 		bic	r2, r2, #32768
 2278 00f2 5A64     		str	r2, [r3, #68]
 2279              	.L111:
1076:./Libraries/STM32F4xx_HAL_Driver/Src/stm32f4xx_hal_tim_ex.c ****   
1077:./Libraries/STM32F4xx_HAL_Driver/Src/stm32f4xx_hal_tim_ex.c ****   /* Disable the Peripheral */
1078:./Libraries/STM32F4xx_HAL_Driver/Src/stm32f4xx_hal_tim_ex.c ****   __HAL_TIM_DISABLE(htim);
 2280              		.loc 1 1078 3 is_stmt 1
 2281 00f4 7B68     		ldr	r3, [r7, #4]
 2282 00f6 1B68     		ldr	r3, [r3]
 2283 00f8 1A6A     		ldr	r2, [r3, #32]
 2284 00fa 41F21113 		movw	r3, #4369
 2285 00fe 1340     		ands	r3, r3, r2
 2286 0100 002B     		cmp	r3, #0
 2287 0102 0FD1     		bne	.L112
 2288              		.loc 1 1078 3 is_stmt 0 discriminator 1
 2289 0104 7B68     		ldr	r3, [r7, #4]
 2290 0106 1B68     		ldr	r3, [r3]
 2291 0108 1A6A     		ldr	r2, [r3, #32]
 2292 010a 40F24443 		movw	r3, #1092
 2293 010e 1340     		ands	r3, r3, r2
 2294 0110 002B     		cmp	r3, #0
 2295 0112 07D1     		bne	.L112
 2296              		.loc 1 1078 3 discriminator 2
 2297 0114 7B68     		ldr	r3, [r7, #4]
 2298 0116 1B68     		ldr	r3, [r3]
 2299 0118 1A68     		ldr	r2, [r3]
 2300 011a 7B68     		ldr	r3, [r7, #4]
 2301 011c 1B68     		ldr	r3, [r3]
 2302 011e 22F00102 		bic	r2, r2, #1
 2303 0122 1A60     		str	r2, [r3]
 2304              	.L112:
1079:./Libraries/STM32F4xx_HAL_Driver/Src/stm32f4xx_hal_tim_ex.c ****   
1080:./Libraries/STM32F4xx_HAL_Driver/Src/stm32f4xx_hal_tim_ex.c ****   /* Return function status */
1081:./Libraries/STM32F4xx_HAL_Driver/Src/stm32f4xx_hal_tim_ex.c ****   return HAL_OK;
 2305              		.loc 1 1081 10 is_stmt 1
 2306 0124 0023     		movs	r3, #0
1082:./Libraries/STM32F4xx_HAL_Driver/Src/stm32f4xx_hal_tim_ex.c **** } 
 2307              		.loc 1 1082 1
 2308 0126 1846     		mov	r0, r3
 2309 0128 0837     		adds	r7, r7, #8
 2310              	.LCFI100:
 2311              		.cfi_def_cfa_offset 8
 2312 012a BD46     		mov	sp, r7
 2313              	.LCFI101:
 2314              		.cfi_def_cfa_register 13
 2315              		@ sp needed
 2316 012c 80BD     		pop	{r7, pc}
 2317              		.cfi_endproc
 2318              	.LFE145:
 2320 012e 00BF     		.section	.text.HAL_TIMEx_PWMN_Start_DMA,"ax",%progbits
 2321              		.align	1
ARM GAS  /tmp/ccpPm7TE.s 			page 60


 2322              		.global	HAL_TIMEx_PWMN_Start_DMA
 2323              		.syntax unified
 2324              		.thumb
 2325              		.thumb_func
 2326              		.fpu fpv4-sp-d16
 2328              	HAL_TIMEx_PWMN_Start_DMA:
 2329              	.LFB146:
1083:./Libraries/STM32F4xx_HAL_Driver/Src/stm32f4xx_hal_tim_ex.c **** 
1084:./Libraries/STM32F4xx_HAL_Driver/Src/stm32f4xx_hal_tim_ex.c **** /**
1085:./Libraries/STM32F4xx_HAL_Driver/Src/stm32f4xx_hal_tim_ex.c ****   * @brief  Starts the TIM PWM signal generation in DMA mode on the 
1086:./Libraries/STM32F4xx_HAL_Driver/Src/stm32f4xx_hal_tim_ex.c ****   *         complementary output
1087:./Libraries/STM32F4xx_HAL_Driver/Src/stm32f4xx_hal_tim_ex.c ****   * @param  htim pointer to a TIM_HandleTypeDef structure that contains
1088:./Libraries/STM32F4xx_HAL_Driver/Src/stm32f4xx_hal_tim_ex.c ****   *                the configuration information for TIM module.
1089:./Libraries/STM32F4xx_HAL_Driver/Src/stm32f4xx_hal_tim_ex.c ****   * @param  Channel TIM Channel to be enabled.
1090:./Libraries/STM32F4xx_HAL_Driver/Src/stm32f4xx_hal_tim_ex.c ****   *          This parameter can be one of the following values:
1091:./Libraries/STM32F4xx_HAL_Driver/Src/stm32f4xx_hal_tim_ex.c ****   *            @arg TIM_CHANNEL_1: TIM Channel 1 selected
1092:./Libraries/STM32F4xx_HAL_Driver/Src/stm32f4xx_hal_tim_ex.c ****   *            @arg TIM_CHANNEL_2: TIM Channel 2 selected
1093:./Libraries/STM32F4xx_HAL_Driver/Src/stm32f4xx_hal_tim_ex.c ****   *            @arg TIM_CHANNEL_3: TIM Channel 3 selected
1094:./Libraries/STM32F4xx_HAL_Driver/Src/stm32f4xx_hal_tim_ex.c ****   * @param  pData The source Buffer address.
1095:./Libraries/STM32F4xx_HAL_Driver/Src/stm32f4xx_hal_tim_ex.c ****   * @param  Length The length of data to be transferred from memory to TIM peripheral
1096:./Libraries/STM32F4xx_HAL_Driver/Src/stm32f4xx_hal_tim_ex.c ****   * @retval HAL status
1097:./Libraries/STM32F4xx_HAL_Driver/Src/stm32f4xx_hal_tim_ex.c ****   */
1098:./Libraries/STM32F4xx_HAL_Driver/Src/stm32f4xx_hal_tim_ex.c **** HAL_StatusTypeDef HAL_TIMEx_PWMN_Start_DMA(TIM_HandleTypeDef *htim, uint32_t Channel, uint32_t *pDa
1099:./Libraries/STM32F4xx_HAL_Driver/Src/stm32f4xx_hal_tim_ex.c **** {
 2330              		.loc 1 1099 1
 2331              		.cfi_startproc
 2332              		@ args = 0, pretend = 0, frame = 16
 2333              		@ frame_needed = 1, uses_anonymous_args = 0
 2334 0000 80B5     		push	{r7, lr}
 2335              	.LCFI102:
 2336              		.cfi_def_cfa_offset 8
 2337              		.cfi_offset 7, -8
 2338              		.cfi_offset 14, -4
 2339 0002 84B0     		sub	sp, sp, #16
 2340              	.LCFI103:
 2341              		.cfi_def_cfa_offset 24
 2342 0004 00AF     		add	r7, sp, #0
 2343              	.LCFI104:
 2344              		.cfi_def_cfa_register 7
 2345 0006 F860     		str	r0, [r7, #12]
 2346 0008 B960     		str	r1, [r7, #8]
 2347 000a 7A60     		str	r2, [r7, #4]
 2348 000c 7B80     		strh	r3, [r7, #2]	@ movhi
1100:./Libraries/STM32F4xx_HAL_Driver/Src/stm32f4xx_hal_tim_ex.c ****   /* Check the parameters */
1101:./Libraries/STM32F4xx_HAL_Driver/Src/stm32f4xx_hal_tim_ex.c ****   assert_param(IS_TIM_CCXN_INSTANCE(htim->Instance, Channel)); 
1102:./Libraries/STM32F4xx_HAL_Driver/Src/stm32f4xx_hal_tim_ex.c ****   
1103:./Libraries/STM32F4xx_HAL_Driver/Src/stm32f4xx_hal_tim_ex.c ****   if((htim->State == HAL_TIM_STATE_BUSY))
 2349              		.loc 1 1103 11
 2350 000e FB68     		ldr	r3, [r7, #12]
 2351 0010 93F83930 		ldrb	r3, [r3, #57]
 2352 0014 DBB2     		uxtb	r3, r3
 2353              		.loc 1 1103 5
 2354 0016 022B     		cmp	r3, #2
 2355 0018 01D1     		bne	.L116
1104:./Libraries/STM32F4xx_HAL_Driver/Src/stm32f4xx_hal_tim_ex.c ****   {
1105:./Libraries/STM32F4xx_HAL_Driver/Src/stm32f4xx_hal_tim_ex.c ****      return HAL_BUSY;
 2356              		.loc 1 1105 13
ARM GAS  /tmp/ccpPm7TE.s 			page 61


 2357 001a 0223     		movs	r3, #2
 2358 001c B7E0     		b	.L117
 2359              	.L116:
1106:./Libraries/STM32F4xx_HAL_Driver/Src/stm32f4xx_hal_tim_ex.c ****   }
1107:./Libraries/STM32F4xx_HAL_Driver/Src/stm32f4xx_hal_tim_ex.c ****   else if((htim->State == HAL_TIM_STATE_READY))
 2360              		.loc 1 1107 16
 2361 001e FB68     		ldr	r3, [r7, #12]
 2362 0020 93F83930 		ldrb	r3, [r3, #57]
 2363 0024 DBB2     		uxtb	r3, r3
 2364              		.loc 1 1107 10
 2365 0026 012B     		cmp	r3, #1
 2366 0028 0BD1     		bne	.L118
1108:./Libraries/STM32F4xx_HAL_Driver/Src/stm32f4xx_hal_tim_ex.c ****   {
1109:./Libraries/STM32F4xx_HAL_Driver/Src/stm32f4xx_hal_tim_ex.c ****     if(((uint32_t)pData == 0U) && (Length > 0)) 
 2367              		.loc 1 1109 7
 2368 002a 7B68     		ldr	r3, [r7, #4]
 2369 002c 002B     		cmp	r3, #0
 2370 002e 04D1     		bne	.L119
 2371              		.loc 1 1109 32 discriminator 1
 2372 0030 7B88     		ldrh	r3, [r7, #2]
 2373 0032 002B     		cmp	r3, #0
 2374 0034 01D0     		beq	.L119
1110:./Libraries/STM32F4xx_HAL_Driver/Src/stm32f4xx_hal_tim_ex.c ****     {
1111:./Libraries/STM32F4xx_HAL_Driver/Src/stm32f4xx_hal_tim_ex.c ****       return HAL_ERROR;                                    
 2375              		.loc 1 1111 14
 2376 0036 0123     		movs	r3, #1
 2377 0038 A9E0     		b	.L117
 2378              	.L119:
1112:./Libraries/STM32F4xx_HAL_Driver/Src/stm32f4xx_hal_tim_ex.c ****     }
1113:./Libraries/STM32F4xx_HAL_Driver/Src/stm32f4xx_hal_tim_ex.c ****     else
1114:./Libraries/STM32F4xx_HAL_Driver/Src/stm32f4xx_hal_tim_ex.c ****     {
1115:./Libraries/STM32F4xx_HAL_Driver/Src/stm32f4xx_hal_tim_ex.c ****       htim->State = HAL_TIM_STATE_BUSY;
 2379              		.loc 1 1115 19
 2380 003a FB68     		ldr	r3, [r7, #12]
 2381 003c 0222     		movs	r2, #2
 2382 003e 83F83920 		strb	r2, [r3, #57]
 2383              	.L118:
 2384 0042 BB68     		ldr	r3, [r7, #8]
 2385 0044 0C2B     		cmp	r3, #12
 2386 0046 00F28980 		bhi	.L127
 2387 004a 01A2     		adr	r2, .L122
 2388 004c 52F823F0 		ldr	pc, [r2, r3, lsl #2]
 2389              		.p2align 2
 2390              	.L122:
 2391 0050 85000000 		.word	.L125+1
 2392 0054 5D010000 		.word	.L127+1
 2393 0058 5D010000 		.word	.L127+1
 2394 005c 5D010000 		.word	.L127+1
 2395 0060 BB000000 		.word	.L124+1
 2396 0064 5D010000 		.word	.L127+1
 2397 0068 5D010000 		.word	.L127+1
 2398 006c 5D010000 		.word	.L127+1
 2399 0070 F1000000 		.word	.L123+1
 2400 0074 5D010000 		.word	.L127+1
 2401 0078 5D010000 		.word	.L127+1
 2402 007c 5D010000 		.word	.L127+1
 2403 0080 27010000 		.word	.L121+1
ARM GAS  /tmp/ccpPm7TE.s 			page 62


 2404              		.p2align 1
 2405              	.L125:
1116:./Libraries/STM32F4xx_HAL_Driver/Src/stm32f4xx_hal_tim_ex.c ****     }
1117:./Libraries/STM32F4xx_HAL_Driver/Src/stm32f4xx_hal_tim_ex.c ****   }    
1118:./Libraries/STM32F4xx_HAL_Driver/Src/stm32f4xx_hal_tim_ex.c ****   switch (Channel)
1119:./Libraries/STM32F4xx_HAL_Driver/Src/stm32f4xx_hal_tim_ex.c ****   {
1120:./Libraries/STM32F4xx_HAL_Driver/Src/stm32f4xx_hal_tim_ex.c ****     case TIM_CHANNEL_1:
1121:./Libraries/STM32F4xx_HAL_Driver/Src/stm32f4xx_hal_tim_ex.c ****     {      
1122:./Libraries/STM32F4xx_HAL_Driver/Src/stm32f4xx_hal_tim_ex.c ****       /* Set the DMA Period elapsed callback */
1123:./Libraries/STM32F4xx_HAL_Driver/Src/stm32f4xx_hal_tim_ex.c ****       htim->hdma[TIM_DMA_ID_CC1]->XferCpltCallback = TIM_DMADelayPulseCplt;
 2406              		.loc 1 1123 17
 2407 0084 FB68     		ldr	r3, [r7, #12]
 2408 0086 1B6A     		ldr	r3, [r3, #32]
 2409              		.loc 1 1123 52
 2410 0088 434A     		ldr	r2, .L128
 2411 008a DA63     		str	r2, [r3, #60]
1124:./Libraries/STM32F4xx_HAL_Driver/Src/stm32f4xx_hal_tim_ex.c ****      
1125:./Libraries/STM32F4xx_HAL_Driver/Src/stm32f4xx_hal_tim_ex.c ****       /* Set the DMA error callback */
1126:./Libraries/STM32F4xx_HAL_Driver/Src/stm32f4xx_hal_tim_ex.c ****       htim->hdma[TIM_DMA_ID_CC1]->XferErrorCallback = TIM_DMAError ;
 2412              		.loc 1 1126 17
 2413 008c FB68     		ldr	r3, [r7, #12]
 2414 008e 1B6A     		ldr	r3, [r3, #32]
 2415              		.loc 1 1126 53
 2416 0090 424A     		ldr	r2, .L128+4
 2417 0092 DA64     		str	r2, [r3, #76]
1127:./Libraries/STM32F4xx_HAL_Driver/Src/stm32f4xx_hal_tim_ex.c ****       
1128:./Libraries/STM32F4xx_HAL_Driver/Src/stm32f4xx_hal_tim_ex.c ****       /* Enable the DMA Stream */
1129:./Libraries/STM32F4xx_HAL_Driver/Src/stm32f4xx_hal_tim_ex.c ****       HAL_DMA_Start_IT(htim->hdma[TIM_DMA_ID_CC1], (uint32_t)pData, (uint32_t)&htim->Instance->CCR1
 2418              		.loc 1 1129 7
 2419 0094 FB68     		ldr	r3, [r7, #12]
 2420 0096 186A     		ldr	r0, [r3, #32]
 2421 0098 7968     		ldr	r1, [r7, #4]
 2422              		.loc 1 1129 84
 2423 009a FB68     		ldr	r3, [r7, #12]
 2424 009c 1B68     		ldr	r3, [r3]
 2425              		.loc 1 1129 79
 2426 009e 3433     		adds	r3, r3, #52
 2427              		.loc 1 1129 7
 2428 00a0 1A46     		mov	r2, r3
 2429 00a2 7B88     		ldrh	r3, [r7, #2]
 2430 00a4 FFF7FEFF 		bl	HAL_DMA_Start_IT
1130:./Libraries/STM32F4xx_HAL_Driver/Src/stm32f4xx_hal_tim_ex.c ****       
1131:./Libraries/STM32F4xx_HAL_Driver/Src/stm32f4xx_hal_tim_ex.c ****       /* Enable the TIM Capture/Compare 1 DMA request */
1132:./Libraries/STM32F4xx_HAL_Driver/Src/stm32f4xx_hal_tim_ex.c ****       __HAL_TIM_ENABLE_DMA(htim, TIM_DMA_CC1);
 2431              		.loc 1 1132 7
 2432 00a8 FB68     		ldr	r3, [r7, #12]
 2433 00aa 1B68     		ldr	r3, [r3]
 2434 00ac DA68     		ldr	r2, [r3, #12]
 2435 00ae FB68     		ldr	r3, [r7, #12]
 2436 00b0 1B68     		ldr	r3, [r3]
 2437 00b2 42F40072 		orr	r2, r2, #512
 2438 00b6 DA60     		str	r2, [r3, #12]
1133:./Libraries/STM32F4xx_HAL_Driver/Src/stm32f4xx_hal_tim_ex.c ****     }
1134:./Libraries/STM32F4xx_HAL_Driver/Src/stm32f4xx_hal_tim_ex.c ****     break;
 2439              		.loc 1 1134 5
 2440 00b8 51E0     		b	.L126
 2441              	.L124:
ARM GAS  /tmp/ccpPm7TE.s 			page 63


1135:./Libraries/STM32F4xx_HAL_Driver/Src/stm32f4xx_hal_tim_ex.c ****     
1136:./Libraries/STM32F4xx_HAL_Driver/Src/stm32f4xx_hal_tim_ex.c ****     case TIM_CHANNEL_2:
1137:./Libraries/STM32F4xx_HAL_Driver/Src/stm32f4xx_hal_tim_ex.c ****     {
1138:./Libraries/STM32F4xx_HAL_Driver/Src/stm32f4xx_hal_tim_ex.c ****       /* Set the DMA Period elapsed callback */
1139:./Libraries/STM32F4xx_HAL_Driver/Src/stm32f4xx_hal_tim_ex.c ****       htim->hdma[TIM_DMA_ID_CC2]->XferCpltCallback = TIM_DMADelayPulseCplt;
 2442              		.loc 1 1139 17
 2443 00ba FB68     		ldr	r3, [r7, #12]
 2444 00bc 5B6A     		ldr	r3, [r3, #36]
 2445              		.loc 1 1139 52
 2446 00be 364A     		ldr	r2, .L128
 2447 00c0 DA63     		str	r2, [r3, #60]
1140:./Libraries/STM32F4xx_HAL_Driver/Src/stm32f4xx_hal_tim_ex.c ****      
1141:./Libraries/STM32F4xx_HAL_Driver/Src/stm32f4xx_hal_tim_ex.c ****       /* Set the DMA error callback */
1142:./Libraries/STM32F4xx_HAL_Driver/Src/stm32f4xx_hal_tim_ex.c ****       htim->hdma[TIM_DMA_ID_CC2]->XferErrorCallback = TIM_DMAError ;
 2448              		.loc 1 1142 17
 2449 00c2 FB68     		ldr	r3, [r7, #12]
 2450 00c4 5B6A     		ldr	r3, [r3, #36]
 2451              		.loc 1 1142 53
 2452 00c6 354A     		ldr	r2, .L128+4
 2453 00c8 DA64     		str	r2, [r3, #76]
1143:./Libraries/STM32F4xx_HAL_Driver/Src/stm32f4xx_hal_tim_ex.c ****       
1144:./Libraries/STM32F4xx_HAL_Driver/Src/stm32f4xx_hal_tim_ex.c ****       /* Enable the DMA Stream */
1145:./Libraries/STM32F4xx_HAL_Driver/Src/stm32f4xx_hal_tim_ex.c ****       HAL_DMA_Start_IT(htim->hdma[TIM_DMA_ID_CC2], (uint32_t)pData, (uint32_t)&htim->Instance->CCR2
 2454              		.loc 1 1145 7
 2455 00ca FB68     		ldr	r3, [r7, #12]
 2456 00cc 586A     		ldr	r0, [r3, #36]
 2457 00ce 7968     		ldr	r1, [r7, #4]
 2458              		.loc 1 1145 84
 2459 00d0 FB68     		ldr	r3, [r7, #12]
 2460 00d2 1B68     		ldr	r3, [r3]
 2461              		.loc 1 1145 79
 2462 00d4 3833     		adds	r3, r3, #56
 2463              		.loc 1 1145 7
 2464 00d6 1A46     		mov	r2, r3
 2465 00d8 7B88     		ldrh	r3, [r7, #2]
 2466 00da FFF7FEFF 		bl	HAL_DMA_Start_IT
1146:./Libraries/STM32F4xx_HAL_Driver/Src/stm32f4xx_hal_tim_ex.c ****       
1147:./Libraries/STM32F4xx_HAL_Driver/Src/stm32f4xx_hal_tim_ex.c ****       /* Enable the TIM Capture/Compare 2 DMA request */
1148:./Libraries/STM32F4xx_HAL_Driver/Src/stm32f4xx_hal_tim_ex.c ****       __HAL_TIM_ENABLE_DMA(htim, TIM_DMA_CC2);
 2467              		.loc 1 1148 7
 2468 00de FB68     		ldr	r3, [r7, #12]
 2469 00e0 1B68     		ldr	r3, [r3]
 2470 00e2 DA68     		ldr	r2, [r3, #12]
 2471 00e4 FB68     		ldr	r3, [r7, #12]
 2472 00e6 1B68     		ldr	r3, [r3]
 2473 00e8 42F48062 		orr	r2, r2, #1024
 2474 00ec DA60     		str	r2, [r3, #12]
1149:./Libraries/STM32F4xx_HAL_Driver/Src/stm32f4xx_hal_tim_ex.c ****     }
1150:./Libraries/STM32F4xx_HAL_Driver/Src/stm32f4xx_hal_tim_ex.c ****     break;
 2475              		.loc 1 1150 5
 2476 00ee 36E0     		b	.L126
 2477              	.L123:
1151:./Libraries/STM32F4xx_HAL_Driver/Src/stm32f4xx_hal_tim_ex.c ****     
1152:./Libraries/STM32F4xx_HAL_Driver/Src/stm32f4xx_hal_tim_ex.c ****     case TIM_CHANNEL_3:
1153:./Libraries/STM32F4xx_HAL_Driver/Src/stm32f4xx_hal_tim_ex.c ****     {
1154:./Libraries/STM32F4xx_HAL_Driver/Src/stm32f4xx_hal_tim_ex.c ****       /* Set the DMA Period elapsed callback */
1155:./Libraries/STM32F4xx_HAL_Driver/Src/stm32f4xx_hal_tim_ex.c ****       htim->hdma[TIM_DMA_ID_CC3]->XferCpltCallback = TIM_DMADelayPulseCplt;
ARM GAS  /tmp/ccpPm7TE.s 			page 64


 2478              		.loc 1 1155 17
 2479 00f0 FB68     		ldr	r3, [r7, #12]
 2480 00f2 9B6A     		ldr	r3, [r3, #40]
 2481              		.loc 1 1155 52
 2482 00f4 284A     		ldr	r2, .L128
 2483 00f6 DA63     		str	r2, [r3, #60]
1156:./Libraries/STM32F4xx_HAL_Driver/Src/stm32f4xx_hal_tim_ex.c ****      
1157:./Libraries/STM32F4xx_HAL_Driver/Src/stm32f4xx_hal_tim_ex.c ****       /* Set the DMA error callback */
1158:./Libraries/STM32F4xx_HAL_Driver/Src/stm32f4xx_hal_tim_ex.c ****       htim->hdma[TIM_DMA_ID_CC3]->XferErrorCallback = TIM_DMAError ;
 2484              		.loc 1 1158 17
 2485 00f8 FB68     		ldr	r3, [r7, #12]
 2486 00fa 9B6A     		ldr	r3, [r3, #40]
 2487              		.loc 1 1158 53
 2488 00fc 274A     		ldr	r2, .L128+4
 2489 00fe DA64     		str	r2, [r3, #76]
1159:./Libraries/STM32F4xx_HAL_Driver/Src/stm32f4xx_hal_tim_ex.c ****       
1160:./Libraries/STM32F4xx_HAL_Driver/Src/stm32f4xx_hal_tim_ex.c ****       /* Enable the DMA Stream */
1161:./Libraries/STM32F4xx_HAL_Driver/Src/stm32f4xx_hal_tim_ex.c ****       HAL_DMA_Start_IT(htim->hdma[TIM_DMA_ID_CC3], (uint32_t)pData, (uint32_t)&htim->Instance->CCR3
 2490              		.loc 1 1161 7
 2491 0100 FB68     		ldr	r3, [r7, #12]
 2492 0102 986A     		ldr	r0, [r3, #40]
 2493 0104 7968     		ldr	r1, [r7, #4]
 2494              		.loc 1 1161 84
 2495 0106 FB68     		ldr	r3, [r7, #12]
 2496 0108 1B68     		ldr	r3, [r3]
 2497              		.loc 1 1161 79
 2498 010a 3C33     		adds	r3, r3, #60
 2499              		.loc 1 1161 7
 2500 010c 1A46     		mov	r2, r3
 2501 010e 7B88     		ldrh	r3, [r7, #2]
 2502 0110 FFF7FEFF 		bl	HAL_DMA_Start_IT
1162:./Libraries/STM32F4xx_HAL_Driver/Src/stm32f4xx_hal_tim_ex.c ****       
1163:./Libraries/STM32F4xx_HAL_Driver/Src/stm32f4xx_hal_tim_ex.c ****       /* Enable the TIM Capture/Compare 3 DMA request */
1164:./Libraries/STM32F4xx_HAL_Driver/Src/stm32f4xx_hal_tim_ex.c ****       __HAL_TIM_ENABLE_DMA(htim, TIM_DMA_CC3);
 2503              		.loc 1 1164 7
 2504 0114 FB68     		ldr	r3, [r7, #12]
 2505 0116 1B68     		ldr	r3, [r3]
 2506 0118 DA68     		ldr	r2, [r3, #12]
 2507 011a FB68     		ldr	r3, [r7, #12]
 2508 011c 1B68     		ldr	r3, [r3]
 2509 011e 42F40062 		orr	r2, r2, #2048
 2510 0122 DA60     		str	r2, [r3, #12]
1165:./Libraries/STM32F4xx_HAL_Driver/Src/stm32f4xx_hal_tim_ex.c ****     }
1166:./Libraries/STM32F4xx_HAL_Driver/Src/stm32f4xx_hal_tim_ex.c ****     break;
 2511              		.loc 1 1166 5
 2512 0124 1BE0     		b	.L126
 2513              	.L121:
1167:./Libraries/STM32F4xx_HAL_Driver/Src/stm32f4xx_hal_tim_ex.c ****     
1168:./Libraries/STM32F4xx_HAL_Driver/Src/stm32f4xx_hal_tim_ex.c ****     case TIM_CHANNEL_4:
1169:./Libraries/STM32F4xx_HAL_Driver/Src/stm32f4xx_hal_tim_ex.c ****     {
1170:./Libraries/STM32F4xx_HAL_Driver/Src/stm32f4xx_hal_tim_ex.c ****      /* Set the DMA Period elapsed callback */
1171:./Libraries/STM32F4xx_HAL_Driver/Src/stm32f4xx_hal_tim_ex.c ****       htim->hdma[TIM_DMA_ID_CC4]->XferCpltCallback = TIM_DMADelayPulseCplt;
 2514              		.loc 1 1171 17
 2515 0126 FB68     		ldr	r3, [r7, #12]
 2516 0128 DB6A     		ldr	r3, [r3, #44]
 2517              		.loc 1 1171 52
 2518 012a 1B4A     		ldr	r2, .L128
ARM GAS  /tmp/ccpPm7TE.s 			page 65


 2519 012c DA63     		str	r2, [r3, #60]
1172:./Libraries/STM32F4xx_HAL_Driver/Src/stm32f4xx_hal_tim_ex.c ****      
1173:./Libraries/STM32F4xx_HAL_Driver/Src/stm32f4xx_hal_tim_ex.c ****       /* Set the DMA error callback */
1174:./Libraries/STM32F4xx_HAL_Driver/Src/stm32f4xx_hal_tim_ex.c ****       htim->hdma[TIM_DMA_ID_CC4]->XferErrorCallback = TIM_DMAError ;
 2520              		.loc 1 1174 17
 2521 012e FB68     		ldr	r3, [r7, #12]
 2522 0130 DB6A     		ldr	r3, [r3, #44]
 2523              		.loc 1 1174 53
 2524 0132 1A4A     		ldr	r2, .L128+4
 2525 0134 DA64     		str	r2, [r3, #76]
1175:./Libraries/STM32F4xx_HAL_Driver/Src/stm32f4xx_hal_tim_ex.c ****       
1176:./Libraries/STM32F4xx_HAL_Driver/Src/stm32f4xx_hal_tim_ex.c ****       /* Enable the DMA Stream */
1177:./Libraries/STM32F4xx_HAL_Driver/Src/stm32f4xx_hal_tim_ex.c ****       HAL_DMA_Start_IT(htim->hdma[TIM_DMA_ID_CC4], (uint32_t)pData, (uint32_t)&htim->Instance->CCR4
 2526              		.loc 1 1177 7
 2527 0136 FB68     		ldr	r3, [r7, #12]
 2528 0138 D86A     		ldr	r0, [r3, #44]
 2529 013a 7968     		ldr	r1, [r7, #4]
 2530              		.loc 1 1177 84
 2531 013c FB68     		ldr	r3, [r7, #12]
 2532 013e 1B68     		ldr	r3, [r3]
 2533              		.loc 1 1177 79
 2534 0140 4033     		adds	r3, r3, #64
 2535              		.loc 1 1177 7
 2536 0142 1A46     		mov	r2, r3
 2537 0144 7B88     		ldrh	r3, [r7, #2]
 2538 0146 FFF7FEFF 		bl	HAL_DMA_Start_IT
1178:./Libraries/STM32F4xx_HAL_Driver/Src/stm32f4xx_hal_tim_ex.c ****       
1179:./Libraries/STM32F4xx_HAL_Driver/Src/stm32f4xx_hal_tim_ex.c ****       /* Enable the TIM Capture/Compare 4 DMA request */
1180:./Libraries/STM32F4xx_HAL_Driver/Src/stm32f4xx_hal_tim_ex.c ****       __HAL_TIM_ENABLE_DMA(htim, TIM_DMA_CC4);
 2539              		.loc 1 1180 7
 2540 014a FB68     		ldr	r3, [r7, #12]
 2541 014c 1B68     		ldr	r3, [r3]
 2542 014e DA68     		ldr	r2, [r3, #12]
 2543 0150 FB68     		ldr	r3, [r7, #12]
 2544 0152 1B68     		ldr	r3, [r3]
 2545 0154 42F48052 		orr	r2, r2, #4096
 2546 0158 DA60     		str	r2, [r3, #12]
1181:./Libraries/STM32F4xx_HAL_Driver/Src/stm32f4xx_hal_tim_ex.c ****     }
1182:./Libraries/STM32F4xx_HAL_Driver/Src/stm32f4xx_hal_tim_ex.c ****     break;
 2547              		.loc 1 1182 5
 2548 015a 00E0     		b	.L126
 2549              	.L127:
1183:./Libraries/STM32F4xx_HAL_Driver/Src/stm32f4xx_hal_tim_ex.c ****     
1184:./Libraries/STM32F4xx_HAL_Driver/Src/stm32f4xx_hal_tim_ex.c ****     default:
1185:./Libraries/STM32F4xx_HAL_Driver/Src/stm32f4xx_hal_tim_ex.c ****     break;
 2550              		.loc 1 1185 5
 2551 015c 00BF     		nop
 2552              	.L126:
1186:./Libraries/STM32F4xx_HAL_Driver/Src/stm32f4xx_hal_tim_ex.c ****   }
1187:./Libraries/STM32F4xx_HAL_Driver/Src/stm32f4xx_hal_tim_ex.c **** 
1188:./Libraries/STM32F4xx_HAL_Driver/Src/stm32f4xx_hal_tim_ex.c ****   /* Enable the complementary PWM output  */
1189:./Libraries/STM32F4xx_HAL_Driver/Src/stm32f4xx_hal_tim_ex.c ****      TIM_CCxNChannelCmd(htim->Instance, Channel, TIM_CCxN_ENABLE);
 2553              		.loc 1 1189 6
 2554 015e FB68     		ldr	r3, [r7, #12]
 2555 0160 1B68     		ldr	r3, [r3]
 2556 0162 0422     		movs	r2, #4
 2557 0164 B968     		ldr	r1, [r7, #8]
ARM GAS  /tmp/ccpPm7TE.s 			page 66


 2558 0166 1846     		mov	r0, r3
 2559 0168 FFF7FEFF 		bl	TIM_CCxNChannelCmd
1190:./Libraries/STM32F4xx_HAL_Driver/Src/stm32f4xx_hal_tim_ex.c ****     
1191:./Libraries/STM32F4xx_HAL_Driver/Src/stm32f4xx_hal_tim_ex.c ****   /* Enable the Main Output */
1192:./Libraries/STM32F4xx_HAL_Driver/Src/stm32f4xx_hal_tim_ex.c ****     __HAL_TIM_MOE_ENABLE(htim);
 2560              		.loc 1 1192 5
 2561 016c FB68     		ldr	r3, [r7, #12]
 2562 016e 1B68     		ldr	r3, [r3]
 2563 0170 5A6C     		ldr	r2, [r3, #68]
 2564 0172 FB68     		ldr	r3, [r7, #12]
 2565 0174 1B68     		ldr	r3, [r3]
 2566 0176 42F40042 		orr	r2, r2, #32768
 2567 017a 5A64     		str	r2, [r3, #68]
1193:./Libraries/STM32F4xx_HAL_Driver/Src/stm32f4xx_hal_tim_ex.c ****   
1194:./Libraries/STM32F4xx_HAL_Driver/Src/stm32f4xx_hal_tim_ex.c ****   /* Enable the Peripheral */
1195:./Libraries/STM32F4xx_HAL_Driver/Src/stm32f4xx_hal_tim_ex.c ****   __HAL_TIM_ENABLE(htim); 
 2568              		.loc 1 1195 3
 2569 017c FB68     		ldr	r3, [r7, #12]
 2570 017e 1B68     		ldr	r3, [r3]
 2571 0180 1A68     		ldr	r2, [r3]
 2572 0182 FB68     		ldr	r3, [r7, #12]
 2573 0184 1B68     		ldr	r3, [r3]
 2574 0186 42F00102 		orr	r2, r2, #1
 2575 018a 1A60     		str	r2, [r3]
1196:./Libraries/STM32F4xx_HAL_Driver/Src/stm32f4xx_hal_tim_ex.c ****   
1197:./Libraries/STM32F4xx_HAL_Driver/Src/stm32f4xx_hal_tim_ex.c ****   /* Return function status */
1198:./Libraries/STM32F4xx_HAL_Driver/Src/stm32f4xx_hal_tim_ex.c ****   return HAL_OK;
 2576              		.loc 1 1198 10
 2577 018c 0023     		movs	r3, #0
 2578              	.L117:
1199:./Libraries/STM32F4xx_HAL_Driver/Src/stm32f4xx_hal_tim_ex.c **** }
 2579              		.loc 1 1199 1
 2580 018e 1846     		mov	r0, r3
 2581 0190 1037     		adds	r7, r7, #16
 2582              	.LCFI105:
 2583              		.cfi_def_cfa_offset 8
 2584 0192 BD46     		mov	sp, r7
 2585              	.LCFI106:
 2586              		.cfi_def_cfa_register 13
 2587              		@ sp needed
 2588 0194 80BD     		pop	{r7, pc}
 2589              	.L129:
 2590 0196 00BF     		.align	2
 2591              	.L128:
 2592 0198 00000000 		.word	TIM_DMADelayPulseCplt
 2593 019c 00000000 		.word	TIM_DMAError
 2594              		.cfi_endproc
 2595              	.LFE146:
 2597              		.section	.text.HAL_TIMEx_PWMN_Stop_DMA,"ax",%progbits
 2598              		.align	1
 2599              		.global	HAL_TIMEx_PWMN_Stop_DMA
 2600              		.syntax unified
 2601              		.thumb
 2602              		.thumb_func
 2603              		.fpu fpv4-sp-d16
 2605              	HAL_TIMEx_PWMN_Stop_DMA:
 2606              	.LFB147:
ARM GAS  /tmp/ccpPm7TE.s 			page 67


1200:./Libraries/STM32F4xx_HAL_Driver/Src/stm32f4xx_hal_tim_ex.c **** 
1201:./Libraries/STM32F4xx_HAL_Driver/Src/stm32f4xx_hal_tim_ex.c **** /**
1202:./Libraries/STM32F4xx_HAL_Driver/Src/stm32f4xx_hal_tim_ex.c ****   * @brief  Stops the TIM PWM signal generation in DMA mode on the complementary
1203:./Libraries/STM32F4xx_HAL_Driver/Src/stm32f4xx_hal_tim_ex.c ****   *         output
1204:./Libraries/STM32F4xx_HAL_Driver/Src/stm32f4xx_hal_tim_ex.c ****   * @param  htim pointer to a TIM_HandleTypeDef structure that contains
1205:./Libraries/STM32F4xx_HAL_Driver/Src/stm32f4xx_hal_tim_ex.c ****   *                the configuration information for TIM module.
1206:./Libraries/STM32F4xx_HAL_Driver/Src/stm32f4xx_hal_tim_ex.c ****   * @param  Channel TIM Channel to be disabled.
1207:./Libraries/STM32F4xx_HAL_Driver/Src/stm32f4xx_hal_tim_ex.c ****   *          This parameter can be one of the following values:
1208:./Libraries/STM32F4xx_HAL_Driver/Src/stm32f4xx_hal_tim_ex.c ****   *            @arg TIM_CHANNEL_1: TIM Channel 1 selected
1209:./Libraries/STM32F4xx_HAL_Driver/Src/stm32f4xx_hal_tim_ex.c ****   *            @arg TIM_CHANNEL_2: TIM Channel 2 selected
1210:./Libraries/STM32F4xx_HAL_Driver/Src/stm32f4xx_hal_tim_ex.c ****   *            @arg TIM_CHANNEL_3: TIM Channel 3 selected
1211:./Libraries/STM32F4xx_HAL_Driver/Src/stm32f4xx_hal_tim_ex.c ****   * @retval HAL status
1212:./Libraries/STM32F4xx_HAL_Driver/Src/stm32f4xx_hal_tim_ex.c ****   */
1213:./Libraries/STM32F4xx_HAL_Driver/Src/stm32f4xx_hal_tim_ex.c **** HAL_StatusTypeDef HAL_TIMEx_PWMN_Stop_DMA(TIM_HandleTypeDef *htim, uint32_t Channel)
1214:./Libraries/STM32F4xx_HAL_Driver/Src/stm32f4xx_hal_tim_ex.c **** {
 2607              		.loc 1 1214 1
 2608              		.cfi_startproc
 2609              		@ args = 0, pretend = 0, frame = 8
 2610              		@ frame_needed = 1, uses_anonymous_args = 0
 2611 0000 80B5     		push	{r7, lr}
 2612              	.LCFI107:
 2613              		.cfi_def_cfa_offset 8
 2614              		.cfi_offset 7, -8
 2615              		.cfi_offset 14, -4
 2616 0002 82B0     		sub	sp, sp, #8
 2617              	.LCFI108:
 2618              		.cfi_def_cfa_offset 16
 2619 0004 00AF     		add	r7, sp, #0
 2620              	.LCFI109:
 2621              		.cfi_def_cfa_register 7
 2622 0006 7860     		str	r0, [r7, #4]
 2623 0008 3960     		str	r1, [r7]
 2624 000a 3B68     		ldr	r3, [r7]
 2625 000c 0C2B     		cmp	r3, #12
 2626 000e 41D8     		bhi	.L141
 2627 0010 01A2     		adr	r2, .L133
 2628 0012 52F823F0 		ldr	pc, [r2, r3, lsl #2]
 2629 0016 00BF     		.p2align 2
 2630              	.L133:
 2631 0018 4D000000 		.word	.L136+1
 2632 001c 95000000 		.word	.L141+1
 2633 0020 95000000 		.word	.L141+1
 2634 0024 95000000 		.word	.L141+1
 2635 0028 5F000000 		.word	.L135+1
 2636 002c 95000000 		.word	.L141+1
 2637 0030 95000000 		.word	.L141+1
 2638 0034 95000000 		.word	.L141+1
 2639 0038 71000000 		.word	.L134+1
 2640 003c 95000000 		.word	.L141+1
 2641 0040 95000000 		.word	.L141+1
 2642 0044 95000000 		.word	.L141+1
 2643 0048 83000000 		.word	.L132+1
 2644              		.p2align 1
 2645              	.L136:
1215:./Libraries/STM32F4xx_HAL_Driver/Src/stm32f4xx_hal_tim_ex.c ****   /* Check the parameters */
1216:./Libraries/STM32F4xx_HAL_Driver/Src/stm32f4xx_hal_tim_ex.c ****   assert_param(IS_TIM_CCXN_INSTANCE(htim->Instance, Channel)); 
1217:./Libraries/STM32F4xx_HAL_Driver/Src/stm32f4xx_hal_tim_ex.c ****   
ARM GAS  /tmp/ccpPm7TE.s 			page 68


1218:./Libraries/STM32F4xx_HAL_Driver/Src/stm32f4xx_hal_tim_ex.c ****   switch (Channel)
1219:./Libraries/STM32F4xx_HAL_Driver/Src/stm32f4xx_hal_tim_ex.c ****   {
1220:./Libraries/STM32F4xx_HAL_Driver/Src/stm32f4xx_hal_tim_ex.c ****     case TIM_CHANNEL_1:
1221:./Libraries/STM32F4xx_HAL_Driver/Src/stm32f4xx_hal_tim_ex.c ****     {       
1222:./Libraries/STM32F4xx_HAL_Driver/Src/stm32f4xx_hal_tim_ex.c ****       /* Disable the TIM Capture/Compare 1 DMA request */
1223:./Libraries/STM32F4xx_HAL_Driver/Src/stm32f4xx_hal_tim_ex.c ****       __HAL_TIM_DISABLE_DMA(htim, TIM_DMA_CC1);
 2646              		.loc 1 1223 7
 2647 004c 7B68     		ldr	r3, [r7, #4]
 2648 004e 1B68     		ldr	r3, [r3]
 2649 0050 DA68     		ldr	r2, [r3, #12]
 2650 0052 7B68     		ldr	r3, [r7, #4]
 2651 0054 1B68     		ldr	r3, [r3]
 2652 0056 22F40072 		bic	r2, r2, #512
 2653 005a DA60     		str	r2, [r3, #12]
1224:./Libraries/STM32F4xx_HAL_Driver/Src/stm32f4xx_hal_tim_ex.c ****     }
1225:./Libraries/STM32F4xx_HAL_Driver/Src/stm32f4xx_hal_tim_ex.c ****     break;
 2654              		.loc 1 1225 5
 2655 005c 1BE0     		b	.L137
 2656              	.L135:
1226:./Libraries/STM32F4xx_HAL_Driver/Src/stm32f4xx_hal_tim_ex.c ****     
1227:./Libraries/STM32F4xx_HAL_Driver/Src/stm32f4xx_hal_tim_ex.c ****     case TIM_CHANNEL_2:
1228:./Libraries/STM32F4xx_HAL_Driver/Src/stm32f4xx_hal_tim_ex.c ****     {
1229:./Libraries/STM32F4xx_HAL_Driver/Src/stm32f4xx_hal_tim_ex.c ****       /* Disable the TIM Capture/Compare 2 DMA request */
1230:./Libraries/STM32F4xx_HAL_Driver/Src/stm32f4xx_hal_tim_ex.c ****       __HAL_TIM_DISABLE_DMA(htim, TIM_DMA_CC2);
 2657              		.loc 1 1230 7
 2658 005e 7B68     		ldr	r3, [r7, #4]
 2659 0060 1B68     		ldr	r3, [r3]
 2660 0062 DA68     		ldr	r2, [r3, #12]
 2661 0064 7B68     		ldr	r3, [r7, #4]
 2662 0066 1B68     		ldr	r3, [r3]
 2663 0068 22F48062 		bic	r2, r2, #1024
 2664 006c DA60     		str	r2, [r3, #12]
1231:./Libraries/STM32F4xx_HAL_Driver/Src/stm32f4xx_hal_tim_ex.c ****     }
1232:./Libraries/STM32F4xx_HAL_Driver/Src/stm32f4xx_hal_tim_ex.c ****     break;
 2665              		.loc 1 1232 5
 2666 006e 12E0     		b	.L137
 2667              	.L134:
1233:./Libraries/STM32F4xx_HAL_Driver/Src/stm32f4xx_hal_tim_ex.c ****     
1234:./Libraries/STM32F4xx_HAL_Driver/Src/stm32f4xx_hal_tim_ex.c ****     case TIM_CHANNEL_3:
1235:./Libraries/STM32F4xx_HAL_Driver/Src/stm32f4xx_hal_tim_ex.c ****     {
1236:./Libraries/STM32F4xx_HAL_Driver/Src/stm32f4xx_hal_tim_ex.c ****       /* Disable the TIM Capture/Compare 3 DMA request */
1237:./Libraries/STM32F4xx_HAL_Driver/Src/stm32f4xx_hal_tim_ex.c ****       __HAL_TIM_DISABLE_DMA(htim, TIM_DMA_CC3);
 2668              		.loc 1 1237 7
 2669 0070 7B68     		ldr	r3, [r7, #4]
 2670 0072 1B68     		ldr	r3, [r3]
 2671 0074 DA68     		ldr	r2, [r3, #12]
 2672 0076 7B68     		ldr	r3, [r7, #4]
 2673 0078 1B68     		ldr	r3, [r3]
 2674 007a 22F40062 		bic	r2, r2, #2048
 2675 007e DA60     		str	r2, [r3, #12]
1238:./Libraries/STM32F4xx_HAL_Driver/Src/stm32f4xx_hal_tim_ex.c ****     }
1239:./Libraries/STM32F4xx_HAL_Driver/Src/stm32f4xx_hal_tim_ex.c ****     break;
 2676              		.loc 1 1239 5
 2677 0080 09E0     		b	.L137
 2678              	.L132:
1240:./Libraries/STM32F4xx_HAL_Driver/Src/stm32f4xx_hal_tim_ex.c ****     
1241:./Libraries/STM32F4xx_HAL_Driver/Src/stm32f4xx_hal_tim_ex.c ****     case TIM_CHANNEL_4:
ARM GAS  /tmp/ccpPm7TE.s 			page 69


1242:./Libraries/STM32F4xx_HAL_Driver/Src/stm32f4xx_hal_tim_ex.c ****     {
1243:./Libraries/STM32F4xx_HAL_Driver/Src/stm32f4xx_hal_tim_ex.c ****       /* Disable the TIM Capture/Compare 4 DMA request */
1244:./Libraries/STM32F4xx_HAL_Driver/Src/stm32f4xx_hal_tim_ex.c ****       __HAL_TIM_DISABLE_DMA(htim, TIM_DMA_CC4);
 2679              		.loc 1 1244 7
 2680 0082 7B68     		ldr	r3, [r7, #4]
 2681 0084 1B68     		ldr	r3, [r3]
 2682 0086 DA68     		ldr	r2, [r3, #12]
 2683 0088 7B68     		ldr	r3, [r7, #4]
 2684 008a 1B68     		ldr	r3, [r3]
 2685 008c 22F48052 		bic	r2, r2, #4096
 2686 0090 DA60     		str	r2, [r3, #12]
1245:./Libraries/STM32F4xx_HAL_Driver/Src/stm32f4xx_hal_tim_ex.c ****     }
1246:./Libraries/STM32F4xx_HAL_Driver/Src/stm32f4xx_hal_tim_ex.c ****     break;
 2687              		.loc 1 1246 5
 2688 0092 00E0     		b	.L137
 2689              	.L141:
1247:./Libraries/STM32F4xx_HAL_Driver/Src/stm32f4xx_hal_tim_ex.c ****     
1248:./Libraries/STM32F4xx_HAL_Driver/Src/stm32f4xx_hal_tim_ex.c ****     default:
1249:./Libraries/STM32F4xx_HAL_Driver/Src/stm32f4xx_hal_tim_ex.c ****     break;
 2690              		.loc 1 1249 5
 2691 0094 00BF     		nop
 2692              	.L137:
1250:./Libraries/STM32F4xx_HAL_Driver/Src/stm32f4xx_hal_tim_ex.c ****   } 
1251:./Libraries/STM32F4xx_HAL_Driver/Src/stm32f4xx_hal_tim_ex.c ****   
1252:./Libraries/STM32F4xx_HAL_Driver/Src/stm32f4xx_hal_tim_ex.c ****   /* Disable the complementary PWM output */
1253:./Libraries/STM32F4xx_HAL_Driver/Src/stm32f4xx_hal_tim_ex.c ****     TIM_CCxNChannelCmd(htim->Instance, Channel, TIM_CCxN_DISABLE);
 2693              		.loc 1 1253 5
 2694 0096 7B68     		ldr	r3, [r7, #4]
 2695 0098 1B68     		ldr	r3, [r3]
 2696 009a 0022     		movs	r2, #0
 2697 009c 3968     		ldr	r1, [r7]
 2698 009e 1846     		mov	r0, r3
 2699 00a0 FFF7FEFF 		bl	TIM_CCxNChannelCmd
1254:./Libraries/STM32F4xx_HAL_Driver/Src/stm32f4xx_hal_tim_ex.c ****      
1255:./Libraries/STM32F4xx_HAL_Driver/Src/stm32f4xx_hal_tim_ex.c ****   /* Disable the Main Output */
1256:./Libraries/STM32F4xx_HAL_Driver/Src/stm32f4xx_hal_tim_ex.c ****     __HAL_TIM_MOE_DISABLE(htim);
 2700              		.loc 1 1256 5
 2701 00a4 7B68     		ldr	r3, [r7, #4]
 2702 00a6 1B68     		ldr	r3, [r3]
 2703 00a8 1A6A     		ldr	r2, [r3, #32]
 2704 00aa 41F21113 		movw	r3, #4369
 2705 00ae 1340     		ands	r3, r3, r2
 2706 00b0 002B     		cmp	r3, #0
 2707 00b2 0FD1     		bne	.L138
 2708              		.loc 1 1256 5 is_stmt 0 discriminator 1
 2709 00b4 7B68     		ldr	r3, [r7, #4]
 2710 00b6 1B68     		ldr	r3, [r3]
 2711 00b8 1A6A     		ldr	r2, [r3, #32]
 2712 00ba 40F24443 		movw	r3, #1092
 2713 00be 1340     		ands	r3, r3, r2
 2714 00c0 002B     		cmp	r3, #0
 2715 00c2 07D1     		bne	.L138
 2716              		.loc 1 1256 5 discriminator 2
 2717 00c4 7B68     		ldr	r3, [r7, #4]
 2718 00c6 1B68     		ldr	r3, [r3]
 2719 00c8 5A6C     		ldr	r2, [r3, #68]
 2720 00ca 7B68     		ldr	r3, [r7, #4]
ARM GAS  /tmp/ccpPm7TE.s 			page 70


 2721 00cc 1B68     		ldr	r3, [r3]
 2722 00ce 22F40042 		bic	r2, r2, #32768
 2723 00d2 5A64     		str	r2, [r3, #68]
 2724              	.L138:
1257:./Libraries/STM32F4xx_HAL_Driver/Src/stm32f4xx_hal_tim_ex.c **** 
1258:./Libraries/STM32F4xx_HAL_Driver/Src/stm32f4xx_hal_tim_ex.c ****   /* Disable the Peripheral */
1259:./Libraries/STM32F4xx_HAL_Driver/Src/stm32f4xx_hal_tim_ex.c ****   __HAL_TIM_DISABLE(htim);
 2725              		.loc 1 1259 3 is_stmt 1
 2726 00d4 7B68     		ldr	r3, [r7, #4]
 2727 00d6 1B68     		ldr	r3, [r3]
 2728 00d8 1A6A     		ldr	r2, [r3, #32]
 2729 00da 41F21113 		movw	r3, #4369
 2730 00de 1340     		ands	r3, r3, r2
 2731 00e0 002B     		cmp	r3, #0
 2732 00e2 0FD1     		bne	.L139
 2733              		.loc 1 1259 3 is_stmt 0 discriminator 1
 2734 00e4 7B68     		ldr	r3, [r7, #4]
 2735 00e6 1B68     		ldr	r3, [r3]
 2736 00e8 1A6A     		ldr	r2, [r3, #32]
 2737 00ea 40F24443 		movw	r3, #1092
 2738 00ee 1340     		ands	r3, r3, r2
 2739 00f0 002B     		cmp	r3, #0
 2740 00f2 07D1     		bne	.L139
 2741              		.loc 1 1259 3 discriminator 2
 2742 00f4 7B68     		ldr	r3, [r7, #4]
 2743 00f6 1B68     		ldr	r3, [r3]
 2744 00f8 1A68     		ldr	r2, [r3]
 2745 00fa 7B68     		ldr	r3, [r7, #4]
 2746 00fc 1B68     		ldr	r3, [r3]
 2747 00fe 22F00102 		bic	r2, r2, #1
 2748 0102 1A60     		str	r2, [r3]
 2749              	.L139:
1260:./Libraries/STM32F4xx_HAL_Driver/Src/stm32f4xx_hal_tim_ex.c ****   
1261:./Libraries/STM32F4xx_HAL_Driver/Src/stm32f4xx_hal_tim_ex.c ****   /* Change the htim state */
1262:./Libraries/STM32F4xx_HAL_Driver/Src/stm32f4xx_hal_tim_ex.c ****   htim->State = HAL_TIM_STATE_READY;
 2750              		.loc 1 1262 15 is_stmt 1
 2751 0104 7B68     		ldr	r3, [r7, #4]
 2752 0106 0122     		movs	r2, #1
 2753 0108 83F83920 		strb	r2, [r3, #57]
1263:./Libraries/STM32F4xx_HAL_Driver/Src/stm32f4xx_hal_tim_ex.c ****   
1264:./Libraries/STM32F4xx_HAL_Driver/Src/stm32f4xx_hal_tim_ex.c ****   /* Return function status */
1265:./Libraries/STM32F4xx_HAL_Driver/Src/stm32f4xx_hal_tim_ex.c ****   return HAL_OK;
 2754              		.loc 1 1265 10
 2755 010c 0023     		movs	r3, #0
1266:./Libraries/STM32F4xx_HAL_Driver/Src/stm32f4xx_hal_tim_ex.c **** }
 2756              		.loc 1 1266 1
 2757 010e 1846     		mov	r0, r3
 2758 0110 0837     		adds	r7, r7, #8
 2759              	.LCFI110:
 2760              		.cfi_def_cfa_offset 8
 2761 0112 BD46     		mov	sp, r7
 2762              	.LCFI111:
 2763              		.cfi_def_cfa_register 13
 2764              		@ sp needed
 2765 0114 80BD     		pop	{r7, pc}
 2766              		.cfi_endproc
 2767              	.LFE147:
ARM GAS  /tmp/ccpPm7TE.s 			page 71


 2769 0116 00BF     		.section	.text.HAL_TIMEx_OnePulseN_Start,"ax",%progbits
 2770              		.align	1
 2771              		.global	HAL_TIMEx_OnePulseN_Start
 2772              		.syntax unified
 2773              		.thumb
 2774              		.thumb_func
 2775              		.fpu fpv4-sp-d16
 2777              	HAL_TIMEx_OnePulseN_Start:
 2778              	.LFB148:
1267:./Libraries/STM32F4xx_HAL_Driver/Src/stm32f4xx_hal_tim_ex.c **** 
1268:./Libraries/STM32F4xx_HAL_Driver/Src/stm32f4xx_hal_tim_ex.c **** /**
1269:./Libraries/STM32F4xx_HAL_Driver/Src/stm32f4xx_hal_tim_ex.c ****   * @}
1270:./Libraries/STM32F4xx_HAL_Driver/Src/stm32f4xx_hal_tim_ex.c ****   */
1271:./Libraries/STM32F4xx_HAL_Driver/Src/stm32f4xx_hal_tim_ex.c ****   
1272:./Libraries/STM32F4xx_HAL_Driver/Src/stm32f4xx_hal_tim_ex.c **** /** @defgroup TIMEx_Exported_Functions_Group4 Timer Complementary One Pulse functions
1273:./Libraries/STM32F4xx_HAL_Driver/Src/stm32f4xx_hal_tim_ex.c ****  *  @brief    Timer Complementary One Pulse functions 
1274:./Libraries/STM32F4xx_HAL_Driver/Src/stm32f4xx_hal_tim_ex.c ****  *
1275:./Libraries/STM32F4xx_HAL_Driver/Src/stm32f4xx_hal_tim_ex.c **** @verbatim   
1276:./Libraries/STM32F4xx_HAL_Driver/Src/stm32f4xx_hal_tim_ex.c ****   ==============================================================================
1277:./Libraries/STM32F4xx_HAL_Driver/Src/stm32f4xx_hal_tim_ex.c ****                 ##### Timer Complementary One Pulse functions #####
1278:./Libraries/STM32F4xx_HAL_Driver/Src/stm32f4xx_hal_tim_ex.c ****   ==============================================================================  
1279:./Libraries/STM32F4xx_HAL_Driver/Src/stm32f4xx_hal_tim_ex.c ****   [..]  
1280:./Libraries/STM32F4xx_HAL_Driver/Src/stm32f4xx_hal_tim_ex.c ****     This section provides functions allowing to:
1281:./Libraries/STM32F4xx_HAL_Driver/Src/stm32f4xx_hal_tim_ex.c ****     (+) Start the Complementary One Pulse generation.
1282:./Libraries/STM32F4xx_HAL_Driver/Src/stm32f4xx_hal_tim_ex.c ****     (+) Stop the Complementary One Pulse.
1283:./Libraries/STM32F4xx_HAL_Driver/Src/stm32f4xx_hal_tim_ex.c ****     (+) Start the Complementary One Pulse and enable interrupts.
1284:./Libraries/STM32F4xx_HAL_Driver/Src/stm32f4xx_hal_tim_ex.c ****     (+) Stop the Complementary One Pulse and disable interrupts.
1285:./Libraries/STM32F4xx_HAL_Driver/Src/stm32f4xx_hal_tim_ex.c ****                
1286:./Libraries/STM32F4xx_HAL_Driver/Src/stm32f4xx_hal_tim_ex.c **** @endverbatim
1287:./Libraries/STM32F4xx_HAL_Driver/Src/stm32f4xx_hal_tim_ex.c ****   * @{
1288:./Libraries/STM32F4xx_HAL_Driver/Src/stm32f4xx_hal_tim_ex.c ****   */
1289:./Libraries/STM32F4xx_HAL_Driver/Src/stm32f4xx_hal_tim_ex.c **** 
1290:./Libraries/STM32F4xx_HAL_Driver/Src/stm32f4xx_hal_tim_ex.c **** /**
1291:./Libraries/STM32F4xx_HAL_Driver/Src/stm32f4xx_hal_tim_ex.c ****   * @brief  Starts the TIM One Pulse signal generation on the complementary 
1292:./Libraries/STM32F4xx_HAL_Driver/Src/stm32f4xx_hal_tim_ex.c ****   *         output.
1293:./Libraries/STM32F4xx_HAL_Driver/Src/stm32f4xx_hal_tim_ex.c ****   * @param  htim pointer to a TIM_HandleTypeDef structure that contains
1294:./Libraries/STM32F4xx_HAL_Driver/Src/stm32f4xx_hal_tim_ex.c ****   *                the configuration information for TIM module.
1295:./Libraries/STM32F4xx_HAL_Driver/Src/stm32f4xx_hal_tim_ex.c ****   * @param  OutputChannel TIM Channel to be enabled.
1296:./Libraries/STM32F4xx_HAL_Driver/Src/stm32f4xx_hal_tim_ex.c ****   *          This parameter can be one of the following values:
1297:./Libraries/STM32F4xx_HAL_Driver/Src/stm32f4xx_hal_tim_ex.c ****   *            @arg TIM_CHANNEL_1: TIM Channel 1 selected
1298:./Libraries/STM32F4xx_HAL_Driver/Src/stm32f4xx_hal_tim_ex.c ****   *            @arg TIM_CHANNEL_2: TIM Channel 2 selected
1299:./Libraries/STM32F4xx_HAL_Driver/Src/stm32f4xx_hal_tim_ex.c ****   * @retval HAL status
1300:./Libraries/STM32F4xx_HAL_Driver/Src/stm32f4xx_hal_tim_ex.c ****   */
1301:./Libraries/STM32F4xx_HAL_Driver/Src/stm32f4xx_hal_tim_ex.c **** HAL_StatusTypeDef HAL_TIMEx_OnePulseN_Start(TIM_HandleTypeDef *htim, uint32_t OutputChannel)
1302:./Libraries/STM32F4xx_HAL_Driver/Src/stm32f4xx_hal_tim_ex.c ****   {
 2779              		.loc 1 1302 3
 2780              		.cfi_startproc
 2781              		@ args = 0, pretend = 0, frame = 8
 2782              		@ frame_needed = 1, uses_anonymous_args = 0
 2783 0000 80B5     		push	{r7, lr}
 2784              	.LCFI112:
 2785              		.cfi_def_cfa_offset 8
 2786              		.cfi_offset 7, -8
 2787              		.cfi_offset 14, -4
 2788 0002 82B0     		sub	sp, sp, #8
 2789              	.LCFI113:
 2790              		.cfi_def_cfa_offset 16
ARM GAS  /tmp/ccpPm7TE.s 			page 72


 2791 0004 00AF     		add	r7, sp, #0
 2792              	.LCFI114:
 2793              		.cfi_def_cfa_register 7
 2794 0006 7860     		str	r0, [r7, #4]
 2795 0008 3960     		str	r1, [r7]
1303:./Libraries/STM32F4xx_HAL_Driver/Src/stm32f4xx_hal_tim_ex.c ****   /* Check the parameters */
1304:./Libraries/STM32F4xx_HAL_Driver/Src/stm32f4xx_hal_tim_ex.c ****   assert_param(IS_TIM_CCXN_INSTANCE(htim->Instance, OutputChannel)); 
1305:./Libraries/STM32F4xx_HAL_Driver/Src/stm32f4xx_hal_tim_ex.c ****   
1306:./Libraries/STM32F4xx_HAL_Driver/Src/stm32f4xx_hal_tim_ex.c ****   /* Enable the complementary One Pulse output */
1307:./Libraries/STM32F4xx_HAL_Driver/Src/stm32f4xx_hal_tim_ex.c ****   TIM_CCxNChannelCmd(htim->Instance, OutputChannel, TIM_CCxN_ENABLE); 
 2796              		.loc 1 1307 3
 2797 000a 7B68     		ldr	r3, [r7, #4]
 2798 000c 1B68     		ldr	r3, [r3]
 2799 000e 0422     		movs	r2, #4
 2800 0010 3968     		ldr	r1, [r7]
 2801 0012 1846     		mov	r0, r3
 2802 0014 FFF7FEFF 		bl	TIM_CCxNChannelCmd
1308:./Libraries/STM32F4xx_HAL_Driver/Src/stm32f4xx_hal_tim_ex.c ****   
1309:./Libraries/STM32F4xx_HAL_Driver/Src/stm32f4xx_hal_tim_ex.c ****   /* Enable the Main Output */
1310:./Libraries/STM32F4xx_HAL_Driver/Src/stm32f4xx_hal_tim_ex.c ****   __HAL_TIM_MOE_ENABLE(htim);
 2803              		.loc 1 1310 3
 2804 0018 7B68     		ldr	r3, [r7, #4]
 2805 001a 1B68     		ldr	r3, [r3]
 2806 001c 5A6C     		ldr	r2, [r3, #68]
 2807 001e 7B68     		ldr	r3, [r7, #4]
 2808 0020 1B68     		ldr	r3, [r3]
 2809 0022 42F40042 		orr	r2, r2, #32768
 2810 0026 5A64     		str	r2, [r3, #68]
1311:./Libraries/STM32F4xx_HAL_Driver/Src/stm32f4xx_hal_tim_ex.c ****   
1312:./Libraries/STM32F4xx_HAL_Driver/Src/stm32f4xx_hal_tim_ex.c ****   /* Return function status */
1313:./Libraries/STM32F4xx_HAL_Driver/Src/stm32f4xx_hal_tim_ex.c ****   return HAL_OK;
 2811              		.loc 1 1313 10
 2812 0028 0023     		movs	r3, #0
1314:./Libraries/STM32F4xx_HAL_Driver/Src/stm32f4xx_hal_tim_ex.c **** }
 2813              		.loc 1 1314 1
 2814 002a 1846     		mov	r0, r3
 2815 002c 0837     		adds	r7, r7, #8
 2816              	.LCFI115:
 2817              		.cfi_def_cfa_offset 8
 2818 002e BD46     		mov	sp, r7
 2819              	.LCFI116:
 2820              		.cfi_def_cfa_register 13
 2821              		@ sp needed
 2822 0030 80BD     		pop	{r7, pc}
 2823              		.cfi_endproc
 2824              	.LFE148:
 2826              		.section	.text.HAL_TIMEx_OnePulseN_Stop,"ax",%progbits
 2827              		.align	1
 2828              		.global	HAL_TIMEx_OnePulseN_Stop
 2829              		.syntax unified
 2830              		.thumb
 2831              		.thumb_func
 2832              		.fpu fpv4-sp-d16
 2834              	HAL_TIMEx_OnePulseN_Stop:
 2835              	.LFB149:
1315:./Libraries/STM32F4xx_HAL_Driver/Src/stm32f4xx_hal_tim_ex.c **** 
1316:./Libraries/STM32F4xx_HAL_Driver/Src/stm32f4xx_hal_tim_ex.c **** /**
ARM GAS  /tmp/ccpPm7TE.s 			page 73


1317:./Libraries/STM32F4xx_HAL_Driver/Src/stm32f4xx_hal_tim_ex.c ****   * @brief  Stops the TIM One Pulse signal generation on the complementary 
1318:./Libraries/STM32F4xx_HAL_Driver/Src/stm32f4xx_hal_tim_ex.c ****   *         output.
1319:./Libraries/STM32F4xx_HAL_Driver/Src/stm32f4xx_hal_tim_ex.c ****   * @param  htim pointer to a TIM_HandleTypeDef structure that contains
1320:./Libraries/STM32F4xx_HAL_Driver/Src/stm32f4xx_hal_tim_ex.c ****   *                the configuration information for TIM module.
1321:./Libraries/STM32F4xx_HAL_Driver/Src/stm32f4xx_hal_tim_ex.c ****   * @param  OutputChannel TIM Channel to be disabled.
1322:./Libraries/STM32F4xx_HAL_Driver/Src/stm32f4xx_hal_tim_ex.c ****   *          This parameter can be one of the following values:
1323:./Libraries/STM32F4xx_HAL_Driver/Src/stm32f4xx_hal_tim_ex.c ****   *            @arg TIM_CHANNEL_1: TIM Channel 1 selected
1324:./Libraries/STM32F4xx_HAL_Driver/Src/stm32f4xx_hal_tim_ex.c ****   *            @arg TIM_CHANNEL_2: TIM Channel 2 selected
1325:./Libraries/STM32F4xx_HAL_Driver/Src/stm32f4xx_hal_tim_ex.c ****   * @retval HAL status
1326:./Libraries/STM32F4xx_HAL_Driver/Src/stm32f4xx_hal_tim_ex.c ****   */
1327:./Libraries/STM32F4xx_HAL_Driver/Src/stm32f4xx_hal_tim_ex.c **** HAL_StatusTypeDef HAL_TIMEx_OnePulseN_Stop(TIM_HandleTypeDef *htim, uint32_t OutputChannel)
1328:./Libraries/STM32F4xx_HAL_Driver/Src/stm32f4xx_hal_tim_ex.c **** {
 2836              		.loc 1 1328 1
 2837              		.cfi_startproc
 2838              		@ args = 0, pretend = 0, frame = 8
 2839              		@ frame_needed = 1, uses_anonymous_args = 0
 2840 0000 80B5     		push	{r7, lr}
 2841              	.LCFI117:
 2842              		.cfi_def_cfa_offset 8
 2843              		.cfi_offset 7, -8
 2844              		.cfi_offset 14, -4
 2845 0002 82B0     		sub	sp, sp, #8
 2846              	.LCFI118:
 2847              		.cfi_def_cfa_offset 16
 2848 0004 00AF     		add	r7, sp, #0
 2849              	.LCFI119:
 2850              		.cfi_def_cfa_register 7
 2851 0006 7860     		str	r0, [r7, #4]
 2852 0008 3960     		str	r1, [r7]
1329:./Libraries/STM32F4xx_HAL_Driver/Src/stm32f4xx_hal_tim_ex.c **** 
1330:./Libraries/STM32F4xx_HAL_Driver/Src/stm32f4xx_hal_tim_ex.c ****   /* Check the parameters */
1331:./Libraries/STM32F4xx_HAL_Driver/Src/stm32f4xx_hal_tim_ex.c ****   assert_param(IS_TIM_CCXN_INSTANCE(htim->Instance, OutputChannel)); 
1332:./Libraries/STM32F4xx_HAL_Driver/Src/stm32f4xx_hal_tim_ex.c **** 
1333:./Libraries/STM32F4xx_HAL_Driver/Src/stm32f4xx_hal_tim_ex.c ****   /* Disable the complementary One Pulse output */
1334:./Libraries/STM32F4xx_HAL_Driver/Src/stm32f4xx_hal_tim_ex.c ****     TIM_CCxNChannelCmd(htim->Instance, OutputChannel, TIM_CCxN_DISABLE);
 2853              		.loc 1 1334 5
 2854 000a 7B68     		ldr	r3, [r7, #4]
 2855 000c 1B68     		ldr	r3, [r3]
 2856 000e 0022     		movs	r2, #0
 2857 0010 3968     		ldr	r1, [r7]
 2858 0012 1846     		mov	r0, r3
 2859 0014 FFF7FEFF 		bl	TIM_CCxNChannelCmd
1335:./Libraries/STM32F4xx_HAL_Driver/Src/stm32f4xx_hal_tim_ex.c ****   
1336:./Libraries/STM32F4xx_HAL_Driver/Src/stm32f4xx_hal_tim_ex.c ****   /* Disable the Main Output */
1337:./Libraries/STM32F4xx_HAL_Driver/Src/stm32f4xx_hal_tim_ex.c ****     __HAL_TIM_MOE_DISABLE(htim);
 2860              		.loc 1 1337 5
 2861 0018 7B68     		ldr	r3, [r7, #4]
 2862 001a 1B68     		ldr	r3, [r3]
 2863 001c 1A6A     		ldr	r2, [r3, #32]
 2864 001e 41F21113 		movw	r3, #4369
 2865 0022 1340     		ands	r3, r3, r2
 2866 0024 002B     		cmp	r3, #0
 2867 0026 0FD1     		bne	.L145
 2868              		.loc 1 1337 5 is_stmt 0 discriminator 1
 2869 0028 7B68     		ldr	r3, [r7, #4]
 2870 002a 1B68     		ldr	r3, [r3]
 2871 002c 1A6A     		ldr	r2, [r3, #32]
ARM GAS  /tmp/ccpPm7TE.s 			page 74


 2872 002e 40F24443 		movw	r3, #1092
 2873 0032 1340     		ands	r3, r3, r2
 2874 0034 002B     		cmp	r3, #0
 2875 0036 07D1     		bne	.L145
 2876              		.loc 1 1337 5 discriminator 2
 2877 0038 7B68     		ldr	r3, [r7, #4]
 2878 003a 1B68     		ldr	r3, [r3]
 2879 003c 5A6C     		ldr	r2, [r3, #68]
 2880 003e 7B68     		ldr	r3, [r7, #4]
 2881 0040 1B68     		ldr	r3, [r3]
 2882 0042 22F40042 		bic	r2, r2, #32768
 2883 0046 5A64     		str	r2, [r3, #68]
 2884              	.L145:
1338:./Libraries/STM32F4xx_HAL_Driver/Src/stm32f4xx_hal_tim_ex.c ****   
1339:./Libraries/STM32F4xx_HAL_Driver/Src/stm32f4xx_hal_tim_ex.c ****   /* Disable the Peripheral */
1340:./Libraries/STM32F4xx_HAL_Driver/Src/stm32f4xx_hal_tim_ex.c ****   __HAL_TIM_DISABLE(htim); 
 2885              		.loc 1 1340 3 is_stmt 1
 2886 0048 7B68     		ldr	r3, [r7, #4]
 2887 004a 1B68     		ldr	r3, [r3]
 2888 004c 1A6A     		ldr	r2, [r3, #32]
 2889 004e 41F21113 		movw	r3, #4369
 2890 0052 1340     		ands	r3, r3, r2
 2891 0054 002B     		cmp	r3, #0
 2892 0056 0FD1     		bne	.L146
 2893              		.loc 1 1340 3 is_stmt 0 discriminator 1
 2894 0058 7B68     		ldr	r3, [r7, #4]
 2895 005a 1B68     		ldr	r3, [r3]
 2896 005c 1A6A     		ldr	r2, [r3, #32]
 2897 005e 40F24443 		movw	r3, #1092
 2898 0062 1340     		ands	r3, r3, r2
 2899 0064 002B     		cmp	r3, #0
 2900 0066 07D1     		bne	.L146
 2901              		.loc 1 1340 3 discriminator 2
 2902 0068 7B68     		ldr	r3, [r7, #4]
 2903 006a 1B68     		ldr	r3, [r3]
 2904 006c 1A68     		ldr	r2, [r3]
 2905 006e 7B68     		ldr	r3, [r7, #4]
 2906 0070 1B68     		ldr	r3, [r3]
 2907 0072 22F00102 		bic	r2, r2, #1
 2908 0076 1A60     		str	r2, [r3]
 2909              	.L146:
1341:./Libraries/STM32F4xx_HAL_Driver/Src/stm32f4xx_hal_tim_ex.c ****    
1342:./Libraries/STM32F4xx_HAL_Driver/Src/stm32f4xx_hal_tim_ex.c ****   /* Return function status */
1343:./Libraries/STM32F4xx_HAL_Driver/Src/stm32f4xx_hal_tim_ex.c ****   return HAL_OK;
 2910              		.loc 1 1343 10 is_stmt 1
 2911 0078 0023     		movs	r3, #0
1344:./Libraries/STM32F4xx_HAL_Driver/Src/stm32f4xx_hal_tim_ex.c **** }
 2912              		.loc 1 1344 1
 2913 007a 1846     		mov	r0, r3
 2914 007c 0837     		adds	r7, r7, #8
 2915              	.LCFI120:
 2916              		.cfi_def_cfa_offset 8
 2917 007e BD46     		mov	sp, r7
 2918              	.LCFI121:
 2919              		.cfi_def_cfa_register 13
 2920              		@ sp needed
 2921 0080 80BD     		pop	{r7, pc}
ARM GAS  /tmp/ccpPm7TE.s 			page 75


 2922              		.cfi_endproc
 2923              	.LFE149:
 2925              		.section	.text.HAL_TIMEx_OnePulseN_Start_IT,"ax",%progbits
 2926              		.align	1
 2927              		.global	HAL_TIMEx_OnePulseN_Start_IT
 2928              		.syntax unified
 2929              		.thumb
 2930              		.thumb_func
 2931              		.fpu fpv4-sp-d16
 2933              	HAL_TIMEx_OnePulseN_Start_IT:
 2934              	.LFB150:
1345:./Libraries/STM32F4xx_HAL_Driver/Src/stm32f4xx_hal_tim_ex.c **** 
1346:./Libraries/STM32F4xx_HAL_Driver/Src/stm32f4xx_hal_tim_ex.c **** /**
1347:./Libraries/STM32F4xx_HAL_Driver/Src/stm32f4xx_hal_tim_ex.c ****   * @brief  Starts the TIM One Pulse signal generation in interrupt mode on the
1348:./Libraries/STM32F4xx_HAL_Driver/Src/stm32f4xx_hal_tim_ex.c ****   *         complementary channel.
1349:./Libraries/STM32F4xx_HAL_Driver/Src/stm32f4xx_hal_tim_ex.c ****   * @param  htim pointer to a TIM_HandleTypeDef structure that contains
1350:./Libraries/STM32F4xx_HAL_Driver/Src/stm32f4xx_hal_tim_ex.c ****   *                the configuration information for TIM module.
1351:./Libraries/STM32F4xx_HAL_Driver/Src/stm32f4xx_hal_tim_ex.c ****   * @param  OutputChannel TIM Channel to be enabled.
1352:./Libraries/STM32F4xx_HAL_Driver/Src/stm32f4xx_hal_tim_ex.c ****   *          This parameter can be one of the following values:
1353:./Libraries/STM32F4xx_HAL_Driver/Src/stm32f4xx_hal_tim_ex.c ****   *            @arg TIM_CHANNEL_1: TIM Channel 1 selected
1354:./Libraries/STM32F4xx_HAL_Driver/Src/stm32f4xx_hal_tim_ex.c ****   *            @arg TIM_CHANNEL_2: TIM Channel 2 selected
1355:./Libraries/STM32F4xx_HAL_Driver/Src/stm32f4xx_hal_tim_ex.c ****   * @retval HAL status
1356:./Libraries/STM32F4xx_HAL_Driver/Src/stm32f4xx_hal_tim_ex.c ****   */
1357:./Libraries/STM32F4xx_HAL_Driver/Src/stm32f4xx_hal_tim_ex.c **** HAL_StatusTypeDef HAL_TIMEx_OnePulseN_Start_IT(TIM_HandleTypeDef *htim, uint32_t OutputChannel)
1358:./Libraries/STM32F4xx_HAL_Driver/Src/stm32f4xx_hal_tim_ex.c **** {
 2935              		.loc 1 1358 1
 2936              		.cfi_startproc
 2937              		@ args = 0, pretend = 0, frame = 8
 2938              		@ frame_needed = 1, uses_anonymous_args = 0
 2939 0000 80B5     		push	{r7, lr}
