ARM GAS  /tmp/ccOBznmR.s 			page 1


   1              		.cpu cortex-m4
   2              		.eabi_attribute 27, 1
   3              		.eabi_attribute 28, 1
   4              		.eabi_attribute 20, 1
   5              		.eabi_attribute 21, 1
   6              		.eabi_attribute 23, 3
   7              		.eabi_attribute 24, 1
   8              		.eabi_attribute 25, 1
   9              		.eabi_attribute 26, 1
  10              		.eabi_attribute 30, 6
  11              		.eabi_attribute 34, 1
  12              		.eabi_attribute 18, 4
  13              		.file	"stm32f4xx_hal_uart.c"
  14              		.text
  15              	.Ltext0:
  16              		.cfi_sections	.debug_frame
  17              		.section	.text.HAL_UART_Init,"ax",%progbits
  18              		.align	1
  19              		.global	HAL_UART_Init
  20              		.arch armv7e-m
  21              		.syntax unified
  22              		.thumb
  23              		.thumb_func
  24              		.fpu fpv4-sp-d16
  26              	HAL_UART_Init:
  27              	.LFB126:
  28              		.file 1 "./Libraries/STM32F4xx_HAL_Driver/Src/stm32f4xx_hal_uart.c"
   1:./Libraries/STM32F4xx_HAL_Driver/Src/stm32f4xx_hal_uart.c **** /**
   2:./Libraries/STM32F4xx_HAL_Driver/Src/stm32f4xx_hal_uart.c ****   ******************************************************************************
   3:./Libraries/STM32F4xx_HAL_Driver/Src/stm32f4xx_hal_uart.c ****   * @file    stm32f4xx_hal_uart.c
   4:./Libraries/STM32F4xx_HAL_Driver/Src/stm32f4xx_hal_uart.c ****   * @author  MCD Application Team
   5:./Libraries/STM32F4xx_HAL_Driver/Src/stm32f4xx_hal_uart.c ****   * @brief   UART HAL module driver.
   6:./Libraries/STM32F4xx_HAL_Driver/Src/stm32f4xx_hal_uart.c ****   *          This file provides firmware functions to manage the following 
   7:./Libraries/STM32F4xx_HAL_Driver/Src/stm32f4xx_hal_uart.c ****   *          functionalities of the Universal Asynchronous Receiver Transmitter (UART) peripheral:
   8:./Libraries/STM32F4xx_HAL_Driver/Src/stm32f4xx_hal_uart.c ****   *           + Initialization and de-initialization functions
   9:./Libraries/STM32F4xx_HAL_Driver/Src/stm32f4xx_hal_uart.c ****   *           + IO operation functions
  10:./Libraries/STM32F4xx_HAL_Driver/Src/stm32f4xx_hal_uart.c ****   *           + Peripheral Control functions  
  11:./Libraries/STM32F4xx_HAL_Driver/Src/stm32f4xx_hal_uart.c ****   *           + Peripheral State and Errors functions  
  12:./Libraries/STM32F4xx_HAL_Driver/Src/stm32f4xx_hal_uart.c ****   *           
  13:./Libraries/STM32F4xx_HAL_Driver/Src/stm32f4xx_hal_uart.c ****   @verbatim       
  14:./Libraries/STM32F4xx_HAL_Driver/Src/stm32f4xx_hal_uart.c ****   ==============================================================================
  15:./Libraries/STM32F4xx_HAL_Driver/Src/stm32f4xx_hal_uart.c ****                         ##### How to use this driver #####
  16:./Libraries/STM32F4xx_HAL_Driver/Src/stm32f4xx_hal_uart.c ****   ==============================================================================
  17:./Libraries/STM32F4xx_HAL_Driver/Src/stm32f4xx_hal_uart.c ****   [..]
  18:./Libraries/STM32F4xx_HAL_Driver/Src/stm32f4xx_hal_uart.c ****     The UART HAL driver can be used as follows:
  19:./Libraries/STM32F4xx_HAL_Driver/Src/stm32f4xx_hal_uart.c ****     
  20:./Libraries/STM32F4xx_HAL_Driver/Src/stm32f4xx_hal_uart.c ****     (#) Declare a UART_HandleTypeDef handle structure.
  21:./Libraries/STM32F4xx_HAL_Driver/Src/stm32f4xx_hal_uart.c ****   
  22:./Libraries/STM32F4xx_HAL_Driver/Src/stm32f4xx_hal_uart.c ****     (#) Initialize the UART low level resources by implementing the HAL_UART_MspInit() API:
  23:./Libraries/STM32F4xx_HAL_Driver/Src/stm32f4xx_hal_uart.c ****         (##) Enable the USARTx interface clock.
  24:./Libraries/STM32F4xx_HAL_Driver/Src/stm32f4xx_hal_uart.c ****         (##) UART pins configuration:
  25:./Libraries/STM32F4xx_HAL_Driver/Src/stm32f4xx_hal_uart.c ****             (+++) Enable the clock for the UART GPIOs.
  26:./Libraries/STM32F4xx_HAL_Driver/Src/stm32f4xx_hal_uart.c ****             (+++) Configure these UART pins as alternate function pull-up.
  27:./Libraries/STM32F4xx_HAL_Driver/Src/stm32f4xx_hal_uart.c ****         (##) NVIC configuration if you need to use interrupt process (HAL_UART_Transmit_IT()
  28:./Libraries/STM32F4xx_HAL_Driver/Src/stm32f4xx_hal_uart.c ****              and HAL_UART_Receive_IT() APIs):
  29:./Libraries/STM32F4xx_HAL_Driver/Src/stm32f4xx_hal_uart.c ****             (+++) Configure the USARTx interrupt priority.
  30:./Libraries/STM32F4xx_HAL_Driver/Src/stm32f4xx_hal_uart.c ****             (+++) Enable the NVIC USART IRQ handle.
ARM GAS  /tmp/ccOBznmR.s 			page 2


  31:./Libraries/STM32F4xx_HAL_Driver/Src/stm32f4xx_hal_uart.c ****         (##) DMA Configuration if you need to use DMA process (HAL_UART_Transmit_DMA()
  32:./Libraries/STM32F4xx_HAL_Driver/Src/stm32f4xx_hal_uart.c ****              and HAL_UART_Receive_DMA() APIs):
  33:./Libraries/STM32F4xx_HAL_Driver/Src/stm32f4xx_hal_uart.c ****             (+++) Declare a DMA handle structure for the Tx/Rx stream.
  34:./Libraries/STM32F4xx_HAL_Driver/Src/stm32f4xx_hal_uart.c ****             (+++) Enable the DMAx interface clock.
  35:./Libraries/STM32F4xx_HAL_Driver/Src/stm32f4xx_hal_uart.c ****             (+++) Configure the declared DMA handle structure with the required 
  36:./Libraries/STM32F4xx_HAL_Driver/Src/stm32f4xx_hal_uart.c ****                   Tx/Rx parameters.                
  37:./Libraries/STM32F4xx_HAL_Driver/Src/stm32f4xx_hal_uart.c ****             (+++) Configure the DMA Tx/Rx Stream.
  38:./Libraries/STM32F4xx_HAL_Driver/Src/stm32f4xx_hal_uart.c ****             (+++) Associate the initialized DMA handle to the UART DMA Tx/Rx handle.
  39:./Libraries/STM32F4xx_HAL_Driver/Src/stm32f4xx_hal_uart.c ****             (+++) Configure the priority and enable the NVIC for the transfer complete 
  40:./Libraries/STM32F4xx_HAL_Driver/Src/stm32f4xx_hal_uart.c ****                   interrupt on the DMA Tx/Rx Stream.
  41:./Libraries/STM32F4xx_HAL_Driver/Src/stm32f4xx_hal_uart.c **** 
  42:./Libraries/STM32F4xx_HAL_Driver/Src/stm32f4xx_hal_uart.c ****     (#) Program the Baud Rate, Word Length, Stop Bit, Parity, Hardware 
  43:./Libraries/STM32F4xx_HAL_Driver/Src/stm32f4xx_hal_uart.c ****         flow control and Mode(Receiver/Transmitter) in the Init structure.
  44:./Libraries/STM32F4xx_HAL_Driver/Src/stm32f4xx_hal_uart.c **** 
  45:./Libraries/STM32F4xx_HAL_Driver/Src/stm32f4xx_hal_uart.c ****     (#) For the UART asynchronous mode, initialize the UART registers by calling
  46:./Libraries/STM32F4xx_HAL_Driver/Src/stm32f4xx_hal_uart.c ****         the HAL_UART_Init() API.
  47:./Libraries/STM32F4xx_HAL_Driver/Src/stm32f4xx_hal_uart.c ****     
  48:./Libraries/STM32F4xx_HAL_Driver/Src/stm32f4xx_hal_uart.c ****     (#) For the UART Half duplex mode, initialize the UART registers by calling 
  49:./Libraries/STM32F4xx_HAL_Driver/Src/stm32f4xx_hal_uart.c ****         the HAL_HalfDuplex_Init() API.
  50:./Libraries/STM32F4xx_HAL_Driver/Src/stm32f4xx_hal_uart.c ****     
  51:./Libraries/STM32F4xx_HAL_Driver/Src/stm32f4xx_hal_uart.c ****     (#) For the LIN mode, initialize the UART registers by calling the HAL_LIN_Init() API.
  52:./Libraries/STM32F4xx_HAL_Driver/Src/stm32f4xx_hal_uart.c ****     
  53:./Libraries/STM32F4xx_HAL_Driver/Src/stm32f4xx_hal_uart.c ****     (#) For the Multi-Processor mode, initialize the UART registers by calling 
  54:./Libraries/STM32F4xx_HAL_Driver/Src/stm32f4xx_hal_uart.c ****         the HAL_MultiProcessor_Init() API.
  55:./Libraries/STM32F4xx_HAL_Driver/Src/stm32f4xx_hal_uart.c ****         
  56:./Libraries/STM32F4xx_HAL_Driver/Src/stm32f4xx_hal_uart.c ****      [..] 
  57:./Libraries/STM32F4xx_HAL_Driver/Src/stm32f4xx_hal_uart.c ****        (@) The specific UART interrupts (Transmission complete interrupt, 
  58:./Libraries/STM32F4xx_HAL_Driver/Src/stm32f4xx_hal_uart.c ****             RXNE interrupt and Error Interrupts) will be managed using the macros
  59:./Libraries/STM32F4xx_HAL_Driver/Src/stm32f4xx_hal_uart.c ****             __HAL_UART_ENABLE_IT() and __HAL_UART_DISABLE_IT() inside the transmit 
  60:./Libraries/STM32F4xx_HAL_Driver/Src/stm32f4xx_hal_uart.c ****             and receive process.
  61:./Libraries/STM32F4xx_HAL_Driver/Src/stm32f4xx_hal_uart.c ****           
  62:./Libraries/STM32F4xx_HAL_Driver/Src/stm32f4xx_hal_uart.c ****      [..] 
  63:./Libraries/STM32F4xx_HAL_Driver/Src/stm32f4xx_hal_uart.c ****        (@) These APIs (HAL_UART_Init() and HAL_HalfDuplex_Init()) configure also the 
  64:./Libraries/STM32F4xx_HAL_Driver/Src/stm32f4xx_hal_uart.c ****             low level Hardware GPIO, CLOCK, CORTEX...etc) by calling the customized 
  65:./Libraries/STM32F4xx_HAL_Driver/Src/stm32f4xx_hal_uart.c ****             HAL_UART_MspInit() API.
  66:./Libraries/STM32F4xx_HAL_Driver/Src/stm32f4xx_hal_uart.c ****           
  67:./Libraries/STM32F4xx_HAL_Driver/Src/stm32f4xx_hal_uart.c ****      [..] 
  68:./Libraries/STM32F4xx_HAL_Driver/Src/stm32f4xx_hal_uart.c ****         Three operation modes are available within this driver :     
  69:./Libraries/STM32F4xx_HAL_Driver/Src/stm32f4xx_hal_uart.c ****   
  70:./Libraries/STM32F4xx_HAL_Driver/Src/stm32f4xx_hal_uart.c ****      *** Polling mode IO operation ***
  71:./Libraries/STM32F4xx_HAL_Driver/Src/stm32f4xx_hal_uart.c ****      =================================
  72:./Libraries/STM32F4xx_HAL_Driver/Src/stm32f4xx_hal_uart.c ****      [..]    
  73:./Libraries/STM32F4xx_HAL_Driver/Src/stm32f4xx_hal_uart.c ****        (+) Send an amount of data in blocking mode using HAL_UART_Transmit() 
  74:./Libraries/STM32F4xx_HAL_Driver/Src/stm32f4xx_hal_uart.c ****        (+) Receive an amount of data in blocking mode using HAL_UART_Receive()
  75:./Libraries/STM32F4xx_HAL_Driver/Src/stm32f4xx_hal_uart.c ****        
  76:./Libraries/STM32F4xx_HAL_Driver/Src/stm32f4xx_hal_uart.c ****      *** Interrupt mode IO operation ***    
  77:./Libraries/STM32F4xx_HAL_Driver/Src/stm32f4xx_hal_uart.c ****      ===================================
  78:./Libraries/STM32F4xx_HAL_Driver/Src/stm32f4xx_hal_uart.c ****      [..]    
  79:./Libraries/STM32F4xx_HAL_Driver/Src/stm32f4xx_hal_uart.c ****        (+) Send an amount of data in non blocking mode using HAL_UART_Transmit_IT() 
  80:./Libraries/STM32F4xx_HAL_Driver/Src/stm32f4xx_hal_uart.c ****        (+) At transmission end of transfer HAL_UART_TxCpltCallback is executed and user can 
  81:./Libraries/STM32F4xx_HAL_Driver/Src/stm32f4xx_hal_uart.c ****             add his own code by customization of function pointer HAL_UART_TxCpltCallback
  82:./Libraries/STM32F4xx_HAL_Driver/Src/stm32f4xx_hal_uart.c ****        (+) Receive an amount of data in non blocking mode using HAL_UART_Receive_IT() 
  83:./Libraries/STM32F4xx_HAL_Driver/Src/stm32f4xx_hal_uart.c ****        (+) At reception end of transfer HAL_UART_RxCpltCallback is executed and user can 
  84:./Libraries/STM32F4xx_HAL_Driver/Src/stm32f4xx_hal_uart.c ****             add his own code by customization of function pointer HAL_UART_RxCpltCallback
  85:./Libraries/STM32F4xx_HAL_Driver/Src/stm32f4xx_hal_uart.c ****        (+) In case of transfer Error, HAL_UART_ErrorCallback() function is executed and user can 
  86:./Libraries/STM32F4xx_HAL_Driver/Src/stm32f4xx_hal_uart.c ****             add his own code by customization of function pointer HAL_UART_ErrorCallback
  87:./Libraries/STM32F4xx_HAL_Driver/Src/stm32f4xx_hal_uart.c **** 
ARM GAS  /tmp/ccOBznmR.s 			page 3


  88:./Libraries/STM32F4xx_HAL_Driver/Src/stm32f4xx_hal_uart.c ****      *** DMA mode IO operation ***    
  89:./Libraries/STM32F4xx_HAL_Driver/Src/stm32f4xx_hal_uart.c ****      ==============================
  90:./Libraries/STM32F4xx_HAL_Driver/Src/stm32f4xx_hal_uart.c ****      [..] 
  91:./Libraries/STM32F4xx_HAL_Driver/Src/stm32f4xx_hal_uart.c ****        (+) Send an amount of data in non blocking mode (DMA) using HAL_UART_Transmit_DMA() 
  92:./Libraries/STM32F4xx_HAL_Driver/Src/stm32f4xx_hal_uart.c ****        (+) At transmission end of half transfer HAL_UART_TxHalfCpltCallback is executed and user ca
  93:./Libraries/STM32F4xx_HAL_Driver/Src/stm32f4xx_hal_uart.c ****             add his own code by customization of function pointer HAL_UART_TxHalfCpltCallback 
  94:./Libraries/STM32F4xx_HAL_Driver/Src/stm32f4xx_hal_uart.c ****        (+) At transmission end of transfer HAL_UART_TxCpltCallback is executed and user can 
  95:./Libraries/STM32F4xx_HAL_Driver/Src/stm32f4xx_hal_uart.c ****             add his own code by customization of function pointer HAL_UART_TxCpltCallback
  96:./Libraries/STM32F4xx_HAL_Driver/Src/stm32f4xx_hal_uart.c ****        (+) Receive an amount of data in non blocking mode (DMA) using HAL_UART_Receive_DMA() 
  97:./Libraries/STM32F4xx_HAL_Driver/Src/stm32f4xx_hal_uart.c ****        (+) At reception end of half transfer HAL_UART_RxHalfCpltCallback is executed and user can 
  98:./Libraries/STM32F4xx_HAL_Driver/Src/stm32f4xx_hal_uart.c ****             add his own code by customization of function pointer HAL_UART_RxHalfCpltCallback 
  99:./Libraries/STM32F4xx_HAL_Driver/Src/stm32f4xx_hal_uart.c ****        (+) At reception end of transfer HAL_UART_RxCpltCallback is executed and user can 
 100:./Libraries/STM32F4xx_HAL_Driver/Src/stm32f4xx_hal_uart.c ****             add his own code by customization of function pointer HAL_UART_RxCpltCallback
 101:./Libraries/STM32F4xx_HAL_Driver/Src/stm32f4xx_hal_uart.c ****        (+) In case of transfer Error, HAL_UART_ErrorCallback() function is executed and user can 
 102:./Libraries/STM32F4xx_HAL_Driver/Src/stm32f4xx_hal_uart.c ****             add his own code by customization of function pointer HAL_UART_ErrorCallback
 103:./Libraries/STM32F4xx_HAL_Driver/Src/stm32f4xx_hal_uart.c ****        (+) Pause the DMA Transfer using HAL_UART_DMAPause()      
 104:./Libraries/STM32F4xx_HAL_Driver/Src/stm32f4xx_hal_uart.c ****        (+) Resume the DMA Transfer using HAL_UART_DMAResume()  
 105:./Libraries/STM32F4xx_HAL_Driver/Src/stm32f4xx_hal_uart.c ****        (+) Stop the DMA Transfer using HAL_UART_DMAStop()      
 106:./Libraries/STM32F4xx_HAL_Driver/Src/stm32f4xx_hal_uart.c ****     
 107:./Libraries/STM32F4xx_HAL_Driver/Src/stm32f4xx_hal_uart.c ****      *** UART HAL driver macros list ***
 108:./Libraries/STM32F4xx_HAL_Driver/Src/stm32f4xx_hal_uart.c ****      ============================================= 
 109:./Libraries/STM32F4xx_HAL_Driver/Src/stm32f4xx_hal_uart.c ****      [..]
 110:./Libraries/STM32F4xx_HAL_Driver/Src/stm32f4xx_hal_uart.c ****        Below the list of most used macros in UART HAL driver.
 111:./Libraries/STM32F4xx_HAL_Driver/Src/stm32f4xx_hal_uart.c ****        
 112:./Libraries/STM32F4xx_HAL_Driver/Src/stm32f4xx_hal_uart.c ****       (+) __HAL_UART_ENABLE: Enable the UART peripheral 
 113:./Libraries/STM32F4xx_HAL_Driver/Src/stm32f4xx_hal_uart.c ****       (+) __HAL_UART_DISABLE: Disable the UART peripheral     
 114:./Libraries/STM32F4xx_HAL_Driver/Src/stm32f4xx_hal_uart.c ****       (+) __HAL_UART_GET_FLAG : Check whether the specified UART flag is set or not
 115:./Libraries/STM32F4xx_HAL_Driver/Src/stm32f4xx_hal_uart.c ****       (+) __HAL_UART_CLEAR_FLAG : Clear the specified UART pending flag
 116:./Libraries/STM32F4xx_HAL_Driver/Src/stm32f4xx_hal_uart.c ****       (+) __HAL_UART_ENABLE_IT: Enable the specified UART interrupt
 117:./Libraries/STM32F4xx_HAL_Driver/Src/stm32f4xx_hal_uart.c ****       (+) __HAL_UART_DISABLE_IT: Disable the specified UART interrupt
 118:./Libraries/STM32F4xx_HAL_Driver/Src/stm32f4xx_hal_uart.c ****       (+) __HAL_UART_GET_IT_SOURCE: Check whether the specified UART interrupt has occurred or not
 119:./Libraries/STM32F4xx_HAL_Driver/Src/stm32f4xx_hal_uart.c ****       
 120:./Libraries/STM32F4xx_HAL_Driver/Src/stm32f4xx_hal_uart.c ****      [..] 
 121:./Libraries/STM32F4xx_HAL_Driver/Src/stm32f4xx_hal_uart.c ****        (@) You can refer to the UART HAL driver header file for more useful macros 
 122:./Libraries/STM32F4xx_HAL_Driver/Src/stm32f4xx_hal_uart.c ****       
 123:./Libraries/STM32F4xx_HAL_Driver/Src/stm32f4xx_hal_uart.c ****   @endverbatim
 124:./Libraries/STM32F4xx_HAL_Driver/Src/stm32f4xx_hal_uart.c ****   ******************************************************************************
 125:./Libraries/STM32F4xx_HAL_Driver/Src/stm32f4xx_hal_uart.c ****   * @attention
 126:./Libraries/STM32F4xx_HAL_Driver/Src/stm32f4xx_hal_uart.c ****   *
 127:./Libraries/STM32F4xx_HAL_Driver/Src/stm32f4xx_hal_uart.c ****   * <h2><center>&copy; COPYRIGHT(c) 2017 STMicroelectronics</center></h2>
 128:./Libraries/STM32F4xx_HAL_Driver/Src/stm32f4xx_hal_uart.c ****   *
 129:./Libraries/STM32F4xx_HAL_Driver/Src/stm32f4xx_hal_uart.c ****   * Redistribution and use in source and binary forms, with or without modification,
 130:./Libraries/STM32F4xx_HAL_Driver/Src/stm32f4xx_hal_uart.c ****   * are permitted provided that the following conditions are met:
 131:./Libraries/STM32F4xx_HAL_Driver/Src/stm32f4xx_hal_uart.c ****   *   1. Redistributions of source code must retain the above copyright notice,
 132:./Libraries/STM32F4xx_HAL_Driver/Src/stm32f4xx_hal_uart.c ****   *      this list of conditions and the following disclaimer.
 133:./Libraries/STM32F4xx_HAL_Driver/Src/stm32f4xx_hal_uart.c ****   *   2. Redistributions in binary form must reproduce the above copyright notice,
 134:./Libraries/STM32F4xx_HAL_Driver/Src/stm32f4xx_hal_uart.c ****   *      this list of conditions and the following disclaimer in the documentation
 135:./Libraries/STM32F4xx_HAL_Driver/Src/stm32f4xx_hal_uart.c ****   *      and/or other materials provided with the distribution.
 136:./Libraries/STM32F4xx_HAL_Driver/Src/stm32f4xx_hal_uart.c ****   *   3. Neither the name of STMicroelectronics nor the names of its contributors
 137:./Libraries/STM32F4xx_HAL_Driver/Src/stm32f4xx_hal_uart.c ****   *      may be used to endorse or promote products derived from this software
 138:./Libraries/STM32F4xx_HAL_Driver/Src/stm32f4xx_hal_uart.c ****   *      without specific prior written permission.
 139:./Libraries/STM32F4xx_HAL_Driver/Src/stm32f4xx_hal_uart.c ****   *
 140:./Libraries/STM32F4xx_HAL_Driver/Src/stm32f4xx_hal_uart.c ****   * THIS SOFTWARE IS PROVIDED BY THE COPYRIGHT HOLDERS AND CONTRIBUTORS "AS IS"
 141:./Libraries/STM32F4xx_HAL_Driver/Src/stm32f4xx_hal_uart.c ****   * AND ANY EXPRESS OR IMPLIED WARRANTIES, INCLUDING, BUT NOT LIMITED TO, THE
 142:./Libraries/STM32F4xx_HAL_Driver/Src/stm32f4xx_hal_uart.c ****   * IMPLIED WARRANTIES OF MERCHANTABILITY AND FITNESS FOR A PARTICULAR PURPOSE ARE
 143:./Libraries/STM32F4xx_HAL_Driver/Src/stm32f4xx_hal_uart.c ****   * DISCLAIMED. IN NO EVENT SHALL THE COPYRIGHT HOLDER OR CONTRIBUTORS BE LIABLE
 144:./Libraries/STM32F4xx_HAL_Driver/Src/stm32f4xx_hal_uart.c ****   * FOR ANY DIRECT, INDIRECT, INCIDENTAL, SPECIAL, EXEMPLARY, OR CONSEQUENTIAL
ARM GAS  /tmp/ccOBznmR.s 			page 4


 145:./Libraries/STM32F4xx_HAL_Driver/Src/stm32f4xx_hal_uart.c ****   * DAMAGES (INCLUDING, BUT NOT LIMITED TO, PROCUREMENT OF SUBSTITUTE GOODS OR
 146:./Libraries/STM32F4xx_HAL_Driver/Src/stm32f4xx_hal_uart.c ****   * SERVICES; LOSS OF USE, DATA, OR PROFITS; OR BUSINESS INTERRUPTION) HOWEVER
 147:./Libraries/STM32F4xx_HAL_Driver/Src/stm32f4xx_hal_uart.c ****   * CAUSED AND ON ANY THEORY OF LIABILITY, WHETHER IN CONTRACT, STRICT LIABILITY,
 148:./Libraries/STM32F4xx_HAL_Driver/Src/stm32f4xx_hal_uart.c ****   * OR TORT (INCLUDING NEGLIGENCE OR OTHERWISE) ARISING IN ANY WAY OUT OF THE USE
 149:./Libraries/STM32F4xx_HAL_Driver/Src/stm32f4xx_hal_uart.c ****   * OF THIS SOFTWARE, EVEN IF ADVISED OF THE POSSIBILITY OF SUCH DAMAGE.
 150:./Libraries/STM32F4xx_HAL_Driver/Src/stm32f4xx_hal_uart.c ****   *
 151:./Libraries/STM32F4xx_HAL_Driver/Src/stm32f4xx_hal_uart.c ****   ******************************************************************************
 152:./Libraries/STM32F4xx_HAL_Driver/Src/stm32f4xx_hal_uart.c ****   */ 
 153:./Libraries/STM32F4xx_HAL_Driver/Src/stm32f4xx_hal_uart.c **** 
 154:./Libraries/STM32F4xx_HAL_Driver/Src/stm32f4xx_hal_uart.c **** /* Includes ------------------------------------------------------------------*/
 155:./Libraries/STM32F4xx_HAL_Driver/Src/stm32f4xx_hal_uart.c **** #include "stm32f4xx_hal.h"
 156:./Libraries/STM32F4xx_HAL_Driver/Src/stm32f4xx_hal_uart.c **** 
 157:./Libraries/STM32F4xx_HAL_Driver/Src/stm32f4xx_hal_uart.c **** /** @addtogroup STM32F4xx_HAL_Driver
 158:./Libraries/STM32F4xx_HAL_Driver/Src/stm32f4xx_hal_uart.c ****   * @{
 159:./Libraries/STM32F4xx_HAL_Driver/Src/stm32f4xx_hal_uart.c ****   */
 160:./Libraries/STM32F4xx_HAL_Driver/Src/stm32f4xx_hal_uart.c **** 
 161:./Libraries/STM32F4xx_HAL_Driver/Src/stm32f4xx_hal_uart.c **** /** @defgroup UART UART
 162:./Libraries/STM32F4xx_HAL_Driver/Src/stm32f4xx_hal_uart.c ****   * @brief HAL UART module driver
 163:./Libraries/STM32F4xx_HAL_Driver/Src/stm32f4xx_hal_uart.c ****   * @{
 164:./Libraries/STM32F4xx_HAL_Driver/Src/stm32f4xx_hal_uart.c ****   */
 165:./Libraries/STM32F4xx_HAL_Driver/Src/stm32f4xx_hal_uart.c **** #ifdef HAL_UART_MODULE_ENABLED
 166:./Libraries/STM32F4xx_HAL_Driver/Src/stm32f4xx_hal_uart.c ****     
 167:./Libraries/STM32F4xx_HAL_Driver/Src/stm32f4xx_hal_uart.c **** /* Private typedef -----------------------------------------------------------*/
 168:./Libraries/STM32F4xx_HAL_Driver/Src/stm32f4xx_hal_uart.c **** /* Private define ------------------------------------------------------------*/
 169:./Libraries/STM32F4xx_HAL_Driver/Src/stm32f4xx_hal_uart.c **** /** @addtogroup UART_Private_Constants
 170:./Libraries/STM32F4xx_HAL_Driver/Src/stm32f4xx_hal_uart.c ****   * @{
 171:./Libraries/STM32F4xx_HAL_Driver/Src/stm32f4xx_hal_uart.c ****   */
 172:./Libraries/STM32F4xx_HAL_Driver/Src/stm32f4xx_hal_uart.c **** /**
 173:./Libraries/STM32F4xx_HAL_Driver/Src/stm32f4xx_hal_uart.c ****   * @}
 174:./Libraries/STM32F4xx_HAL_Driver/Src/stm32f4xx_hal_uart.c ****   */
 175:./Libraries/STM32F4xx_HAL_Driver/Src/stm32f4xx_hal_uart.c **** /* Private macro -------------------------------------------------------------*/
 176:./Libraries/STM32F4xx_HAL_Driver/Src/stm32f4xx_hal_uart.c **** /* Private variables ---------------------------------------------------------*/
 177:./Libraries/STM32F4xx_HAL_Driver/Src/stm32f4xx_hal_uart.c **** /* Private function prototypes -----------------------------------------------*/
 178:./Libraries/STM32F4xx_HAL_Driver/Src/stm32f4xx_hal_uart.c **** /** @addtogroup UART_Private_Functions   UART Private Functions
 179:./Libraries/STM32F4xx_HAL_Driver/Src/stm32f4xx_hal_uart.c ****   * @{
 180:./Libraries/STM32F4xx_HAL_Driver/Src/stm32f4xx_hal_uart.c ****   */
 181:./Libraries/STM32F4xx_HAL_Driver/Src/stm32f4xx_hal_uart.c **** static void UART_EndTxTransfer(UART_HandleTypeDef *huart);
 182:./Libraries/STM32F4xx_HAL_Driver/Src/stm32f4xx_hal_uart.c **** static void UART_EndRxTransfer(UART_HandleTypeDef *huart);
 183:./Libraries/STM32F4xx_HAL_Driver/Src/stm32f4xx_hal_uart.c **** static void UART_DMATransmitCplt(DMA_HandleTypeDef *hdma);
 184:./Libraries/STM32F4xx_HAL_Driver/Src/stm32f4xx_hal_uart.c **** static void UART_DMAReceiveCplt(DMA_HandleTypeDef *hdma);
 185:./Libraries/STM32F4xx_HAL_Driver/Src/stm32f4xx_hal_uart.c **** static void UART_DMATxHalfCplt(DMA_HandleTypeDef *hdma);
 186:./Libraries/STM32F4xx_HAL_Driver/Src/stm32f4xx_hal_uart.c **** static void UART_DMARxHalfCplt(DMA_HandleTypeDef *hdma);
 187:./Libraries/STM32F4xx_HAL_Driver/Src/stm32f4xx_hal_uart.c **** static void UART_DMAError(DMA_HandleTypeDef *hdma); 
 188:./Libraries/STM32F4xx_HAL_Driver/Src/stm32f4xx_hal_uart.c **** static void UART_DMAAbortOnError(DMA_HandleTypeDef *hdma);
 189:./Libraries/STM32F4xx_HAL_Driver/Src/stm32f4xx_hal_uart.c **** static void UART_DMATxAbortCallback(DMA_HandleTypeDef *hdma);
 190:./Libraries/STM32F4xx_HAL_Driver/Src/stm32f4xx_hal_uart.c **** static void UART_DMARxAbortCallback(DMA_HandleTypeDef *hdma);
 191:./Libraries/STM32F4xx_HAL_Driver/Src/stm32f4xx_hal_uart.c **** static void UART_DMATxOnlyAbortCallback(DMA_HandleTypeDef *hdma);
 192:./Libraries/STM32F4xx_HAL_Driver/Src/stm32f4xx_hal_uart.c **** static void UART_DMARxOnlyAbortCallback(DMA_HandleTypeDef *hdma);
 193:./Libraries/STM32F4xx_HAL_Driver/Src/stm32f4xx_hal_uart.c **** static HAL_StatusTypeDef UART_Transmit_IT(UART_HandleTypeDef *huart);
 194:./Libraries/STM32F4xx_HAL_Driver/Src/stm32f4xx_hal_uart.c **** static HAL_StatusTypeDef UART_EndTransmit_IT(UART_HandleTypeDef *huart);
 195:./Libraries/STM32F4xx_HAL_Driver/Src/stm32f4xx_hal_uart.c **** static HAL_StatusTypeDef UART_Receive_IT(UART_HandleTypeDef *huart);
 196:./Libraries/STM32F4xx_HAL_Driver/Src/stm32f4xx_hal_uart.c **** static HAL_StatusTypeDef UART_WaitOnFlagUntilTimeout(UART_HandleTypeDef *huart, uint32_t Flag, Flag
 197:./Libraries/STM32F4xx_HAL_Driver/Src/stm32f4xx_hal_uart.c **** static void UART_SetConfig (UART_HandleTypeDef *huart);
 198:./Libraries/STM32F4xx_HAL_Driver/Src/stm32f4xx_hal_uart.c **** /**
 199:./Libraries/STM32F4xx_HAL_Driver/Src/stm32f4xx_hal_uart.c ****   * @}
 200:./Libraries/STM32F4xx_HAL_Driver/Src/stm32f4xx_hal_uart.c ****   */
 201:./Libraries/STM32F4xx_HAL_Driver/Src/stm32f4xx_hal_uart.c **** 
ARM GAS  /tmp/ccOBznmR.s 			page 5


 202:./Libraries/STM32F4xx_HAL_Driver/Src/stm32f4xx_hal_uart.c **** /* Exported functions ---------------------------------------------------------*/
 203:./Libraries/STM32F4xx_HAL_Driver/Src/stm32f4xx_hal_uart.c **** /** @defgroup UART_Exported_Functions UART Exported Functions
 204:./Libraries/STM32F4xx_HAL_Driver/Src/stm32f4xx_hal_uart.c ****   * @{
 205:./Libraries/STM32F4xx_HAL_Driver/Src/stm32f4xx_hal_uart.c ****   */
 206:./Libraries/STM32F4xx_HAL_Driver/Src/stm32f4xx_hal_uart.c **** 
 207:./Libraries/STM32F4xx_HAL_Driver/Src/stm32f4xx_hal_uart.c **** /** @defgroup UART_Exported_Functions_Group1 Initialization and de-initialization functions 
 208:./Libraries/STM32F4xx_HAL_Driver/Src/stm32f4xx_hal_uart.c ****   *  @brief    Initialization and Configuration functions 
 209:./Libraries/STM32F4xx_HAL_Driver/Src/stm32f4xx_hal_uart.c ****   *
 210:./Libraries/STM32F4xx_HAL_Driver/Src/stm32f4xx_hal_uart.c **** @verbatim    
 211:./Libraries/STM32F4xx_HAL_Driver/Src/stm32f4xx_hal_uart.c **** ===============================================================================
 212:./Libraries/STM32F4xx_HAL_Driver/Src/stm32f4xx_hal_uart.c ****             ##### Initialization and Configuration functions #####
 213:./Libraries/STM32F4xx_HAL_Driver/Src/stm32f4xx_hal_uart.c ****  ===============================================================================  
 214:./Libraries/STM32F4xx_HAL_Driver/Src/stm32f4xx_hal_uart.c ****     [..]
 215:./Libraries/STM32F4xx_HAL_Driver/Src/stm32f4xx_hal_uart.c ****     This subsection provides a set of functions allowing to initialize the USARTx or the UARTy 
 216:./Libraries/STM32F4xx_HAL_Driver/Src/stm32f4xx_hal_uart.c ****     in asynchronous mode.
 217:./Libraries/STM32F4xx_HAL_Driver/Src/stm32f4xx_hal_uart.c ****       (+) For the asynchronous mode only these parameters can be configured: 
 218:./Libraries/STM32F4xx_HAL_Driver/Src/stm32f4xx_hal_uart.c ****         (++) Baud Rate
 219:./Libraries/STM32F4xx_HAL_Driver/Src/stm32f4xx_hal_uart.c ****         (++) Word Length 
 220:./Libraries/STM32F4xx_HAL_Driver/Src/stm32f4xx_hal_uart.c ****         (++) Stop Bit
 221:./Libraries/STM32F4xx_HAL_Driver/Src/stm32f4xx_hal_uart.c ****         (++) Parity: If the parity is enabled, then the MSB bit of the data written
 222:./Libraries/STM32F4xx_HAL_Driver/Src/stm32f4xx_hal_uart.c ****              in the data register is transmitted but is changed by the parity bit.
 223:./Libraries/STM32F4xx_HAL_Driver/Src/stm32f4xx_hal_uart.c ****              Depending on the frame length defined by the M bit (8-bits or 9-bits),
 224:./Libraries/STM32F4xx_HAL_Driver/Src/stm32f4xx_hal_uart.c ****              please refer to Reference manual for possible UART frame formats.           
 225:./Libraries/STM32F4xx_HAL_Driver/Src/stm32f4xx_hal_uart.c ****         (++) Hardware flow control
 226:./Libraries/STM32F4xx_HAL_Driver/Src/stm32f4xx_hal_uart.c ****         (++) Receiver/transmitter modes
 227:./Libraries/STM32F4xx_HAL_Driver/Src/stm32f4xx_hal_uart.c ****         (++) Over Sampling Method
 228:./Libraries/STM32F4xx_HAL_Driver/Src/stm32f4xx_hal_uart.c ****     [..]
 229:./Libraries/STM32F4xx_HAL_Driver/Src/stm32f4xx_hal_uart.c ****     The HAL_UART_Init(), HAL_HalfDuplex_Init(), HAL_LIN_Init() and HAL_MultiProcessor_Init() APIs 
 230:./Libraries/STM32F4xx_HAL_Driver/Src/stm32f4xx_hal_uart.c ****     follow respectively the UART asynchronous, UART Half duplex, LIN and Multi-Processor
 231:./Libraries/STM32F4xx_HAL_Driver/Src/stm32f4xx_hal_uart.c ****     configuration procedures (details for the procedures are available in reference manual (RM0329)
 232:./Libraries/STM32F4xx_HAL_Driver/Src/stm32f4xx_hal_uart.c **** 
 233:./Libraries/STM32F4xx_HAL_Driver/Src/stm32f4xx_hal_uart.c **** @endverbatim
 234:./Libraries/STM32F4xx_HAL_Driver/Src/stm32f4xx_hal_uart.c ****   * @{
 235:./Libraries/STM32F4xx_HAL_Driver/Src/stm32f4xx_hal_uart.c ****   */
 236:./Libraries/STM32F4xx_HAL_Driver/Src/stm32f4xx_hal_uart.c **** 
 237:./Libraries/STM32F4xx_HAL_Driver/Src/stm32f4xx_hal_uart.c **** /**
 238:./Libraries/STM32F4xx_HAL_Driver/Src/stm32f4xx_hal_uart.c ****   * @brief  Initializes the UART mode according to the specified parameters in
 239:./Libraries/STM32F4xx_HAL_Driver/Src/stm32f4xx_hal_uart.c ****   *         the UART_InitTypeDef and create the associated handle.
 240:./Libraries/STM32F4xx_HAL_Driver/Src/stm32f4xx_hal_uart.c ****   * @param  huart pointer to a UART_HandleTypeDef structure that contains
 241:./Libraries/STM32F4xx_HAL_Driver/Src/stm32f4xx_hal_uart.c ****   *                the configuration information for the specified UART module.
 242:./Libraries/STM32F4xx_HAL_Driver/Src/stm32f4xx_hal_uart.c ****   * @retval HAL status
 243:./Libraries/STM32F4xx_HAL_Driver/Src/stm32f4xx_hal_uart.c ****   */
 244:./Libraries/STM32F4xx_HAL_Driver/Src/stm32f4xx_hal_uart.c **** HAL_StatusTypeDef HAL_UART_Init(UART_HandleTypeDef *huart)
 245:./Libraries/STM32F4xx_HAL_Driver/Src/stm32f4xx_hal_uart.c **** {
  29              		.loc 1 245 1
  30              		.cfi_startproc
  31              		@ args = 0, pretend = 0, frame = 8
  32              		@ frame_needed = 1, uses_anonymous_args = 0
  33 0000 80B5     		push	{r7, lr}
  34              	.LCFI0:
  35              		.cfi_def_cfa_offset 8
  36              		.cfi_offset 7, -8
  37              		.cfi_offset 14, -4
  38 0002 82B0     		sub	sp, sp, #8
  39              	.LCFI1:
  40              		.cfi_def_cfa_offset 16
  41 0004 00AF     		add	r7, sp, #0
ARM GAS  /tmp/ccOBznmR.s 			page 6


  42              	.LCFI2:
  43              		.cfi_def_cfa_register 7
  44 0006 7860     		str	r0, [r7, #4]
 246:./Libraries/STM32F4xx_HAL_Driver/Src/stm32f4xx_hal_uart.c ****   /* Check the UART handle allocation */
 247:./Libraries/STM32F4xx_HAL_Driver/Src/stm32f4xx_hal_uart.c ****   if(huart == NULL)
  45              		.loc 1 247 5
  46 0008 7B68     		ldr	r3, [r7, #4]
  47 000a 002B     		cmp	r3, #0
  48 000c 01D1     		bne	.L2
 248:./Libraries/STM32F4xx_HAL_Driver/Src/stm32f4xx_hal_uart.c ****   {
 249:./Libraries/STM32F4xx_HAL_Driver/Src/stm32f4xx_hal_uart.c ****     return HAL_ERROR;
  49              		.loc 1 249 12
  50 000e 0123     		movs	r3, #1
  51 0010 3FE0     		b	.L3
  52              	.L2:
 250:./Libraries/STM32F4xx_HAL_Driver/Src/stm32f4xx_hal_uart.c ****   }
 251:./Libraries/STM32F4xx_HAL_Driver/Src/stm32f4xx_hal_uart.c **** 
 252:./Libraries/STM32F4xx_HAL_Driver/Src/stm32f4xx_hal_uart.c ****   /* Check the parameters */
 253:./Libraries/STM32F4xx_HAL_Driver/Src/stm32f4xx_hal_uart.c ****   if(huart->Init.HwFlowCtl != UART_HWCONTROL_NONE)
 254:./Libraries/STM32F4xx_HAL_Driver/Src/stm32f4xx_hal_uart.c ****   { 
 255:./Libraries/STM32F4xx_HAL_Driver/Src/stm32f4xx_hal_uart.c ****     /* The hardware flow control is available only for USART1, USART2, USART3 and USART6 */
 256:./Libraries/STM32F4xx_HAL_Driver/Src/stm32f4xx_hal_uart.c ****     assert_param(IS_UART_HWFLOW_INSTANCE(huart->Instance));
 257:./Libraries/STM32F4xx_HAL_Driver/Src/stm32f4xx_hal_uart.c ****     assert_param(IS_UART_HARDWARE_FLOW_CONTROL(huart->Init.HwFlowCtl));
 258:./Libraries/STM32F4xx_HAL_Driver/Src/stm32f4xx_hal_uart.c ****   }
 259:./Libraries/STM32F4xx_HAL_Driver/Src/stm32f4xx_hal_uart.c ****   else
 260:./Libraries/STM32F4xx_HAL_Driver/Src/stm32f4xx_hal_uart.c ****   {
 261:./Libraries/STM32F4xx_HAL_Driver/Src/stm32f4xx_hal_uart.c ****     assert_param(IS_UART_INSTANCE(huart->Instance));
 262:./Libraries/STM32F4xx_HAL_Driver/Src/stm32f4xx_hal_uart.c ****   }
 263:./Libraries/STM32F4xx_HAL_Driver/Src/stm32f4xx_hal_uart.c ****   assert_param(IS_UART_WORD_LENGTH(huart->Init.WordLength));
 264:./Libraries/STM32F4xx_HAL_Driver/Src/stm32f4xx_hal_uart.c ****   assert_param(IS_UART_OVERSAMPLING(huart->Init.OverSampling));
 265:./Libraries/STM32F4xx_HAL_Driver/Src/stm32f4xx_hal_uart.c ****   
 266:./Libraries/STM32F4xx_HAL_Driver/Src/stm32f4xx_hal_uart.c ****   if(huart->gState == HAL_UART_STATE_RESET)
  53              		.loc 1 266 11
  54 0012 7B68     		ldr	r3, [r7, #4]
  55 0014 93F83930 		ldrb	r3, [r3, #57]
  56 0018 DBB2     		uxtb	r3, r3
  57              		.loc 1 266 5
  58 001a 002B     		cmp	r3, #0
  59 001c 06D1     		bne	.L4
 267:./Libraries/STM32F4xx_HAL_Driver/Src/stm32f4xx_hal_uart.c ****   {  
 268:./Libraries/STM32F4xx_HAL_Driver/Src/stm32f4xx_hal_uart.c ****     /* Allocate lock resource and initialize it */
 269:./Libraries/STM32F4xx_HAL_Driver/Src/stm32f4xx_hal_uart.c ****     huart->Lock = HAL_UNLOCKED;
  60              		.loc 1 269 17
  61 001e 7B68     		ldr	r3, [r7, #4]
  62 0020 0022     		movs	r2, #0
  63 0022 83F83820 		strb	r2, [r3, #56]
 270:./Libraries/STM32F4xx_HAL_Driver/Src/stm32f4xx_hal_uart.c ****     /* Init the low level hardware */
 271:./Libraries/STM32F4xx_HAL_Driver/Src/stm32f4xx_hal_uart.c ****     HAL_UART_MspInit(huart);
  64              		.loc 1 271 5
  65 0026 7868     		ldr	r0, [r7, #4]
  66 0028 FFF7FEFF 		bl	HAL_UART_MspInit
  67              	.L4:
 272:./Libraries/STM32F4xx_HAL_Driver/Src/stm32f4xx_hal_uart.c ****   }
 273:./Libraries/STM32F4xx_HAL_Driver/Src/stm32f4xx_hal_uart.c **** 
 274:./Libraries/STM32F4xx_HAL_Driver/Src/stm32f4xx_hal_uart.c ****   huart->gState = HAL_UART_STATE_BUSY;
  68              		.loc 1 274 17
  69 002c 7B68     		ldr	r3, [r7, #4]
ARM GAS  /tmp/ccOBznmR.s 			page 7


  70 002e 2422     		movs	r2, #36
  71 0030 83F83920 		strb	r2, [r3, #57]
 275:./Libraries/STM32F4xx_HAL_Driver/Src/stm32f4xx_hal_uart.c **** 
 276:./Libraries/STM32F4xx_HAL_Driver/Src/stm32f4xx_hal_uart.c ****   /* Disable the peripheral */
 277:./Libraries/STM32F4xx_HAL_Driver/Src/stm32f4xx_hal_uart.c ****   __HAL_UART_DISABLE(huart);
  72              		.loc 1 277 3
  73 0034 7B68     		ldr	r3, [r7, #4]
  74 0036 1B68     		ldr	r3, [r3]
  75 0038 DA68     		ldr	r2, [r3, #12]
  76 003a 7B68     		ldr	r3, [r7, #4]
  77 003c 1B68     		ldr	r3, [r3]
  78 003e 22F40052 		bic	r2, r2, #8192
  79 0042 DA60     		str	r2, [r3, #12]
 278:./Libraries/STM32F4xx_HAL_Driver/Src/stm32f4xx_hal_uart.c ****   
 279:./Libraries/STM32F4xx_HAL_Driver/Src/stm32f4xx_hal_uart.c ****   /* Set the UART Communication parameters */
 280:./Libraries/STM32F4xx_HAL_Driver/Src/stm32f4xx_hal_uart.c ****   UART_SetConfig(huart);
  80              		.loc 1 280 3
  81 0044 7868     		ldr	r0, [r7, #4]
  82 0046 FFF7FEFF 		bl	UART_SetConfig
 281:./Libraries/STM32F4xx_HAL_Driver/Src/stm32f4xx_hal_uart.c ****   
 282:./Libraries/STM32F4xx_HAL_Driver/Src/stm32f4xx_hal_uart.c ****   /* In asynchronous mode, the following bits must be kept cleared: 
 283:./Libraries/STM32F4xx_HAL_Driver/Src/stm32f4xx_hal_uart.c ****      - LINEN and CLKEN bits in the USART_CR2 register,
 284:./Libraries/STM32F4xx_HAL_Driver/Src/stm32f4xx_hal_uart.c ****      - SCEN, HDSEL and IREN  bits in the USART_CR3 register.*/
 285:./Libraries/STM32F4xx_HAL_Driver/Src/stm32f4xx_hal_uart.c ****   CLEAR_BIT(huart->Instance->CR2, (USART_CR2_LINEN | USART_CR2_CLKEN));
  83              		.loc 1 285 3
  84 004a 7B68     		ldr	r3, [r7, #4]
  85 004c 1B68     		ldr	r3, [r3]
  86 004e 1A69     		ldr	r2, [r3, #16]
  87 0050 7B68     		ldr	r3, [r7, #4]
  88 0052 1B68     		ldr	r3, [r3]
  89 0054 22F49042 		bic	r2, r2, #18432
  90 0058 1A61     		str	r2, [r3, #16]
 286:./Libraries/STM32F4xx_HAL_Driver/Src/stm32f4xx_hal_uart.c ****   CLEAR_BIT(huart->Instance->CR3, (USART_CR3_SCEN | USART_CR3_HDSEL | USART_CR3_IREN));
  91              		.loc 1 286 3
  92 005a 7B68     		ldr	r3, [r7, #4]
  93 005c 1B68     		ldr	r3, [r3]
  94 005e 5A69     		ldr	r2, [r3, #20]
  95 0060 7B68     		ldr	r3, [r7, #4]
  96 0062 1B68     		ldr	r3, [r3]
  97 0064 22F02A02 		bic	r2, r2, #42
  98 0068 5A61     		str	r2, [r3, #20]
 287:./Libraries/STM32F4xx_HAL_Driver/Src/stm32f4xx_hal_uart.c ****   
 288:./Libraries/STM32F4xx_HAL_Driver/Src/stm32f4xx_hal_uart.c ****   /* Enable the peripheral */
 289:./Libraries/STM32F4xx_HAL_Driver/Src/stm32f4xx_hal_uart.c ****   __HAL_UART_ENABLE(huart);
  99              		.loc 1 289 3
 100 006a 7B68     		ldr	r3, [r7, #4]
 101 006c 1B68     		ldr	r3, [r3]
 102 006e DA68     		ldr	r2, [r3, #12]
 103 0070 7B68     		ldr	r3, [r7, #4]
 104 0072 1B68     		ldr	r3, [r3]
 105 0074 42F40052 		orr	r2, r2, #8192
 106 0078 DA60     		str	r2, [r3, #12]
 290:./Libraries/STM32F4xx_HAL_Driver/Src/stm32f4xx_hal_uart.c ****   
 291:./Libraries/STM32F4xx_HAL_Driver/Src/stm32f4xx_hal_uart.c ****   /* Initialize the UART state */
 292:./Libraries/STM32F4xx_HAL_Driver/Src/stm32f4xx_hal_uart.c ****   huart->ErrorCode = HAL_UART_ERROR_NONE;
 107              		.loc 1 292 20
 108 007a 7B68     		ldr	r3, [r7, #4]
ARM GAS  /tmp/ccOBznmR.s 			page 8


 109 007c 0022     		movs	r2, #0
 110 007e DA63     		str	r2, [r3, #60]
 293:./Libraries/STM32F4xx_HAL_Driver/Src/stm32f4xx_hal_uart.c ****   huart->gState= HAL_UART_STATE_READY;
 111              		.loc 1 293 16
 112 0080 7B68     		ldr	r3, [r7, #4]
 113 0082 2022     		movs	r2, #32
 114 0084 83F83920 		strb	r2, [r3, #57]
 294:./Libraries/STM32F4xx_HAL_Driver/Src/stm32f4xx_hal_uart.c ****   huart->RxState= HAL_UART_STATE_READY;
 115              		.loc 1 294 17
 116 0088 7B68     		ldr	r3, [r7, #4]
 117 008a 2022     		movs	r2, #32
 118 008c 83F83A20 		strb	r2, [r3, #58]
 295:./Libraries/STM32F4xx_HAL_Driver/Src/stm32f4xx_hal_uart.c ****   
 296:./Libraries/STM32F4xx_HAL_Driver/Src/stm32f4xx_hal_uart.c ****   return HAL_OK;
 119              		.loc 1 296 10
 120 0090 0023     		movs	r3, #0
 121              	.L3:
 297:./Libraries/STM32F4xx_HAL_Driver/Src/stm32f4xx_hal_uart.c **** }
 122              		.loc 1 297 1
 123 0092 1846     		mov	r0, r3
 124 0094 0837     		adds	r7, r7, #8
 125              	.LCFI3:
 126              		.cfi_def_cfa_offset 8
 127 0096 BD46     		mov	sp, r7
 128              	.LCFI4:
 129              		.cfi_def_cfa_register 13
 130              		@ sp needed
 131 0098 80BD     		pop	{r7, pc}
 132              		.cfi_endproc
 133              	.LFE126:
 135              		.section	.text.HAL_HalfDuplex_Init,"ax",%progbits
 136              		.align	1
 137              		.global	HAL_HalfDuplex_Init
 138              		.syntax unified
 139              		.thumb
 140              		.thumb_func
 141              		.fpu fpv4-sp-d16
 143              	HAL_HalfDuplex_Init:
 144              	.LFB127:
 298:./Libraries/STM32F4xx_HAL_Driver/Src/stm32f4xx_hal_uart.c **** 
 299:./Libraries/STM32F4xx_HAL_Driver/Src/stm32f4xx_hal_uart.c **** /**
 300:./Libraries/STM32F4xx_HAL_Driver/Src/stm32f4xx_hal_uart.c ****   * @brief  Initializes the half-duplex mode according to the specified
 301:./Libraries/STM32F4xx_HAL_Driver/Src/stm32f4xx_hal_uart.c ****   *         parameters in the UART_InitTypeDef and create the associated handle.
 302:./Libraries/STM32F4xx_HAL_Driver/Src/stm32f4xx_hal_uart.c ****   * @param  huart pointer to a UART_HandleTypeDef structure that contains
 303:./Libraries/STM32F4xx_HAL_Driver/Src/stm32f4xx_hal_uart.c ****   *                the configuration information for the specified UART module.
 304:./Libraries/STM32F4xx_HAL_Driver/Src/stm32f4xx_hal_uart.c ****   * @retval HAL status
 305:./Libraries/STM32F4xx_HAL_Driver/Src/stm32f4xx_hal_uart.c ****   */
 306:./Libraries/STM32F4xx_HAL_Driver/Src/stm32f4xx_hal_uart.c **** HAL_StatusTypeDef HAL_HalfDuplex_Init(UART_HandleTypeDef *huart)
 307:./Libraries/STM32F4xx_HAL_Driver/Src/stm32f4xx_hal_uart.c **** {
 145              		.loc 1 307 1
 146              		.cfi_startproc
 147              		@ args = 0, pretend = 0, frame = 8
 148              		@ frame_needed = 1, uses_anonymous_args = 0
 149 0000 80B5     		push	{r7, lr}
 150              	.LCFI5:
 151              		.cfi_def_cfa_offset 8
 152              		.cfi_offset 7, -8
ARM GAS  /tmp/ccOBznmR.s 			page 9


 153              		.cfi_offset 14, -4
 154 0002 82B0     		sub	sp, sp, #8
 155              	.LCFI6:
 156              		.cfi_def_cfa_offset 16
 157 0004 00AF     		add	r7, sp, #0
 158              	.LCFI7:
 159              		.cfi_def_cfa_register 7
 160 0006 7860     		str	r0, [r7, #4]
 308:./Libraries/STM32F4xx_HAL_Driver/Src/stm32f4xx_hal_uart.c ****   /* Check the UART handle allocation */
 309:./Libraries/STM32F4xx_HAL_Driver/Src/stm32f4xx_hal_uart.c ****   if(huart == NULL)
 161              		.loc 1 309 5
 162 0008 7B68     		ldr	r3, [r7, #4]
 163 000a 002B     		cmp	r3, #0
 164 000c 01D1     		bne	.L6
 310:./Libraries/STM32F4xx_HAL_Driver/Src/stm32f4xx_hal_uart.c ****   {
 311:./Libraries/STM32F4xx_HAL_Driver/Src/stm32f4xx_hal_uart.c ****     return HAL_ERROR;
 165              		.loc 1 311 12
 166 000e 0123     		movs	r3, #1
 167 0010 47E0     		b	.L7
 168              	.L6:
 312:./Libraries/STM32F4xx_HAL_Driver/Src/stm32f4xx_hal_uart.c ****   }
 313:./Libraries/STM32F4xx_HAL_Driver/Src/stm32f4xx_hal_uart.c ****  
 314:./Libraries/STM32F4xx_HAL_Driver/Src/stm32f4xx_hal_uart.c ****   /* Check the parameters */ 
 315:./Libraries/STM32F4xx_HAL_Driver/Src/stm32f4xx_hal_uart.c ****   assert_param(IS_UART_INSTANCE(huart->Instance));
 316:./Libraries/STM32F4xx_HAL_Driver/Src/stm32f4xx_hal_uart.c ****   assert_param(IS_UART_WORD_LENGTH(huart->Init.WordLength));
 317:./Libraries/STM32F4xx_HAL_Driver/Src/stm32f4xx_hal_uart.c ****   assert_param(IS_UART_OVERSAMPLING(huart->Init.OverSampling));
 318:./Libraries/STM32F4xx_HAL_Driver/Src/stm32f4xx_hal_uart.c **** 
 319:./Libraries/STM32F4xx_HAL_Driver/Src/stm32f4xx_hal_uart.c ****   if(huart->gState == HAL_UART_STATE_RESET)
 169              		.loc 1 319 11
 170 0012 7B68     		ldr	r3, [r7, #4]
 171 0014 93F83930 		ldrb	r3, [r3, #57]
 172 0018 DBB2     		uxtb	r3, r3
 173              		.loc 1 319 5
 174 001a 002B     		cmp	r3, #0
 175 001c 06D1     		bne	.L8
 320:./Libraries/STM32F4xx_HAL_Driver/Src/stm32f4xx_hal_uart.c ****   { 
 321:./Libraries/STM32F4xx_HAL_Driver/Src/stm32f4xx_hal_uart.c ****     /* Allocate lock resource and initialize it */
 322:./Libraries/STM32F4xx_HAL_Driver/Src/stm32f4xx_hal_uart.c ****     huart->Lock = HAL_UNLOCKED;
 176              		.loc 1 322 17
 177 001e 7B68     		ldr	r3, [r7, #4]
 178 0020 0022     		movs	r2, #0
 179 0022 83F83820 		strb	r2, [r3, #56]
 323:./Libraries/STM32F4xx_HAL_Driver/Src/stm32f4xx_hal_uart.c ****     /* Init the low level hardware */
 324:./Libraries/STM32F4xx_HAL_Driver/Src/stm32f4xx_hal_uart.c ****     HAL_UART_MspInit(huart);
 180              		.loc 1 324 5
 181 0026 7868     		ldr	r0, [r7, #4]
 182 0028 FFF7FEFF 		bl	HAL_UART_MspInit
 183              	.L8:
 325:./Libraries/STM32F4xx_HAL_Driver/Src/stm32f4xx_hal_uart.c ****   }
 326:./Libraries/STM32F4xx_HAL_Driver/Src/stm32f4xx_hal_uart.c **** 
 327:./Libraries/STM32F4xx_HAL_Driver/Src/stm32f4xx_hal_uart.c ****   huart->gState = HAL_UART_STATE_BUSY;
 184              		.loc 1 327 17
 185 002c 7B68     		ldr	r3, [r7, #4]
 186 002e 2422     		movs	r2, #36
 187 0030 83F83920 		strb	r2, [r3, #57]
 328:./Libraries/STM32F4xx_HAL_Driver/Src/stm32f4xx_hal_uart.c **** 
 329:./Libraries/STM32F4xx_HAL_Driver/Src/stm32f4xx_hal_uart.c ****   /* Disable the peripheral */
ARM GAS  /tmp/ccOBznmR.s 			page 10


 330:./Libraries/STM32F4xx_HAL_Driver/Src/stm32f4xx_hal_uart.c ****   __HAL_UART_DISABLE(huart);
 188              		.loc 1 330 3
 189 0034 7B68     		ldr	r3, [r7, #4]
 190 0036 1B68     		ldr	r3, [r3]
 191 0038 DA68     		ldr	r2, [r3, #12]
 192 003a 7B68     		ldr	r3, [r7, #4]
 193 003c 1B68     		ldr	r3, [r3]
 194 003e 22F40052 		bic	r2, r2, #8192
 195 0042 DA60     		str	r2, [r3, #12]
 331:./Libraries/STM32F4xx_HAL_Driver/Src/stm32f4xx_hal_uart.c ****   
 332:./Libraries/STM32F4xx_HAL_Driver/Src/stm32f4xx_hal_uart.c ****   /* Set the UART Communication parameters */
 333:./Libraries/STM32F4xx_HAL_Driver/Src/stm32f4xx_hal_uart.c ****   UART_SetConfig(huart);
 196              		.loc 1 333 3
 197 0044 7868     		ldr	r0, [r7, #4]
 198 0046 FFF7FEFF 		bl	UART_SetConfig
 334:./Libraries/STM32F4xx_HAL_Driver/Src/stm32f4xx_hal_uart.c ****   
 335:./Libraries/STM32F4xx_HAL_Driver/Src/stm32f4xx_hal_uart.c ****   /* In half-duplex mode, the following bits must be kept cleared: 
 336:./Libraries/STM32F4xx_HAL_Driver/Src/stm32f4xx_hal_uart.c ****      - LINEN and CLKEN bits in the USART_CR2 register,
 337:./Libraries/STM32F4xx_HAL_Driver/Src/stm32f4xx_hal_uart.c ****      - SCEN and IREN bits in the USART_CR3 register.*/
 338:./Libraries/STM32F4xx_HAL_Driver/Src/stm32f4xx_hal_uart.c ****   CLEAR_BIT(huart->Instance->CR2, (USART_CR2_LINEN | USART_CR2_CLKEN));
 199              		.loc 1 338 3
 200 004a 7B68     		ldr	r3, [r7, #4]
 201 004c 1B68     		ldr	r3, [r3]
 202 004e 1A69     		ldr	r2, [r3, #16]
 203 0050 7B68     		ldr	r3, [r7, #4]
 204 0052 1B68     		ldr	r3, [r3]
 205 0054 22F49042 		bic	r2, r2, #18432
 206 0058 1A61     		str	r2, [r3, #16]
 339:./Libraries/STM32F4xx_HAL_Driver/Src/stm32f4xx_hal_uart.c ****   CLEAR_BIT(huart->Instance->CR3, (USART_CR3_IREN | USART_CR3_SCEN));
 207              		.loc 1 339 3
 208 005a 7B68     		ldr	r3, [r7, #4]
 209 005c 1B68     		ldr	r3, [r3]
 210 005e 5A69     		ldr	r2, [r3, #20]
 211 0060 7B68     		ldr	r3, [r7, #4]
 212 0062 1B68     		ldr	r3, [r3]
 213 0064 22F02202 		bic	r2, r2, #34
 214 0068 5A61     		str	r2, [r3, #20]
 340:./Libraries/STM32F4xx_HAL_Driver/Src/stm32f4xx_hal_uart.c ****   
 341:./Libraries/STM32F4xx_HAL_Driver/Src/stm32f4xx_hal_uart.c ****   /* Enable the Half-Duplex mode by setting the HDSEL bit in the CR3 register */
 342:./Libraries/STM32F4xx_HAL_Driver/Src/stm32f4xx_hal_uart.c ****   SET_BIT(huart->Instance->CR3, USART_CR3_HDSEL);
 215              		.loc 1 342 3
 216 006a 7B68     		ldr	r3, [r7, #4]
 217 006c 1B68     		ldr	r3, [r3]
 218 006e 5A69     		ldr	r2, [r3, #20]
 219 0070 7B68     		ldr	r3, [r7, #4]
 220 0072 1B68     		ldr	r3, [r3]
 221 0074 42F00802 		orr	r2, r2, #8
 222 0078 5A61     		str	r2, [r3, #20]
 343:./Libraries/STM32F4xx_HAL_Driver/Src/stm32f4xx_hal_uart.c ****  
 344:./Libraries/STM32F4xx_HAL_Driver/Src/stm32f4xx_hal_uart.c ****   /* Enable the peripheral */
 345:./Libraries/STM32F4xx_HAL_Driver/Src/stm32f4xx_hal_uart.c ****   __HAL_UART_ENABLE(huart);
 223              		.loc 1 345 3
 224 007a 7B68     		ldr	r3, [r7, #4]
 225 007c 1B68     		ldr	r3, [r3]
 226 007e DA68     		ldr	r2, [r3, #12]
 227 0080 7B68     		ldr	r3, [r7, #4]
 228 0082 1B68     		ldr	r3, [r3]
ARM GAS  /tmp/ccOBznmR.s 			page 11


 229 0084 42F40052 		orr	r2, r2, #8192
 230 0088 DA60     		str	r2, [r3, #12]
 346:./Libraries/STM32F4xx_HAL_Driver/Src/stm32f4xx_hal_uart.c ****   
 347:./Libraries/STM32F4xx_HAL_Driver/Src/stm32f4xx_hal_uart.c ****   /* Initialize the UART state*/
 348:./Libraries/STM32F4xx_HAL_Driver/Src/stm32f4xx_hal_uart.c ****   huart->ErrorCode = HAL_UART_ERROR_NONE;
 231              		.loc 1 348 20
 232 008a 7B68     		ldr	r3, [r7, #4]
 233 008c 0022     		movs	r2, #0
 234 008e DA63     		str	r2, [r3, #60]
 349:./Libraries/STM32F4xx_HAL_Driver/Src/stm32f4xx_hal_uart.c ****   huart->gState= HAL_UART_STATE_READY;
 235              		.loc 1 349 16
 236 0090 7B68     		ldr	r3, [r7, #4]
 237 0092 2022     		movs	r2, #32
 238 0094 83F83920 		strb	r2, [r3, #57]
 350:./Libraries/STM32F4xx_HAL_Driver/Src/stm32f4xx_hal_uart.c ****   huart->RxState= HAL_UART_STATE_READY;
 239              		.loc 1 350 17
 240 0098 7B68     		ldr	r3, [r7, #4]
 241 009a 2022     		movs	r2, #32
 242 009c 83F83A20 		strb	r2, [r3, #58]
 351:./Libraries/STM32F4xx_HAL_Driver/Src/stm32f4xx_hal_uart.c ****   
 352:./Libraries/STM32F4xx_HAL_Driver/Src/stm32f4xx_hal_uart.c ****   return HAL_OK;
 243              		.loc 1 352 10
 244 00a0 0023     		movs	r3, #0
 245              	.L7:
 353:./Libraries/STM32F4xx_HAL_Driver/Src/stm32f4xx_hal_uart.c **** }
 246              		.loc 1 353 1
 247 00a2 1846     		mov	r0, r3
 248 00a4 0837     		adds	r7, r7, #8
 249              	.LCFI8:
 250              		.cfi_def_cfa_offset 8
 251 00a6 BD46     		mov	sp, r7
 252              	.LCFI9:
 253              		.cfi_def_cfa_register 13
 254              		@ sp needed
 255 00a8 80BD     		pop	{r7, pc}
 256              		.cfi_endproc
 257              	.LFE127:
 259              		.section	.text.HAL_LIN_Init,"ax",%progbits
 260              		.align	1
 261              		.global	HAL_LIN_Init
 262              		.syntax unified
 263              		.thumb
 264              		.thumb_func
 265              		.fpu fpv4-sp-d16
 267              	HAL_LIN_Init:
 268              	.LFB128:
 354:./Libraries/STM32F4xx_HAL_Driver/Src/stm32f4xx_hal_uart.c **** 
 355:./Libraries/STM32F4xx_HAL_Driver/Src/stm32f4xx_hal_uart.c **** /**
 356:./Libraries/STM32F4xx_HAL_Driver/Src/stm32f4xx_hal_uart.c ****   * @brief  Initializes the LIN mode according to the specified
 357:./Libraries/STM32F4xx_HAL_Driver/Src/stm32f4xx_hal_uart.c ****   *         parameters in the UART_InitTypeDef and create the associated handle.
 358:./Libraries/STM32F4xx_HAL_Driver/Src/stm32f4xx_hal_uart.c ****   * @param  huart pointer to a UART_HandleTypeDef structure that contains
 359:./Libraries/STM32F4xx_HAL_Driver/Src/stm32f4xx_hal_uart.c ****   *                the configuration information for the specified UART module.
 360:./Libraries/STM32F4xx_HAL_Driver/Src/stm32f4xx_hal_uart.c ****   * @param  BreakDetectLength Specifies the LIN break detection length.
 361:./Libraries/STM32F4xx_HAL_Driver/Src/stm32f4xx_hal_uart.c ****   *         This parameter can be one of the following values:
 362:./Libraries/STM32F4xx_HAL_Driver/Src/stm32f4xx_hal_uart.c ****   *            @arg UART_LINBREAKDETECTLENGTH_10B: 10-bit break detection
 363:./Libraries/STM32F4xx_HAL_Driver/Src/stm32f4xx_hal_uart.c ****   *            @arg UART_LINBREAKDETECTLENGTH_11B: 11-bit break detection
 364:./Libraries/STM32F4xx_HAL_Driver/Src/stm32f4xx_hal_uart.c ****   * @retval HAL status
ARM GAS  /tmp/ccOBznmR.s 			page 12


 365:./Libraries/STM32F4xx_HAL_Driver/Src/stm32f4xx_hal_uart.c ****   */
 366:./Libraries/STM32F4xx_HAL_Driver/Src/stm32f4xx_hal_uart.c **** HAL_StatusTypeDef HAL_LIN_Init(UART_HandleTypeDef *huart, uint32_t BreakDetectLength)
 367:./Libraries/STM32F4xx_HAL_Driver/Src/stm32f4xx_hal_uart.c **** {
 269              		.loc 1 367 1
 270              		.cfi_startproc
 271              		@ args = 0, pretend = 0, frame = 8
 272              		@ frame_needed = 1, uses_anonymous_args = 0
 273 0000 80B5     		push	{r7, lr}
 274              	.LCFI10:
 275              		.cfi_def_cfa_offset 8
 276              		.cfi_offset 7, -8
 277              		.cfi_offset 14, -4
 278 0002 82B0     		sub	sp, sp, #8
 279              	.LCFI11:
 280              		.cfi_def_cfa_offset 16
 281 0004 00AF     		add	r7, sp, #0
 282              	.LCFI12:
 283              		.cfi_def_cfa_register 7
 284 0006 7860     		str	r0, [r7, #4]
 285 0008 3960     		str	r1, [r7]
 368:./Libraries/STM32F4xx_HAL_Driver/Src/stm32f4xx_hal_uart.c ****   /* Check the UART handle allocation */
 369:./Libraries/STM32F4xx_HAL_Driver/Src/stm32f4xx_hal_uart.c ****   if(huart == NULL)
 286              		.loc 1 369 5
 287 000a 7B68     		ldr	r3, [r7, #4]
 288 000c 002B     		cmp	r3, #0
 289 000e 01D1     		bne	.L10
 370:./Libraries/STM32F4xx_HAL_Driver/Src/stm32f4xx_hal_uart.c ****   {
 371:./Libraries/STM32F4xx_HAL_Driver/Src/stm32f4xx_hal_uart.c ****     return HAL_ERROR;
 290              		.loc 1 371 12
 291 0010 0123     		movs	r3, #1
 292 0012 57E0     		b	.L11
 293              	.L10:
 372:./Libraries/STM32F4xx_HAL_Driver/Src/stm32f4xx_hal_uart.c ****   }
 373:./Libraries/STM32F4xx_HAL_Driver/Src/stm32f4xx_hal_uart.c ****    
 374:./Libraries/STM32F4xx_HAL_Driver/Src/stm32f4xx_hal_uart.c ****   /* Check the parameters */
 375:./Libraries/STM32F4xx_HAL_Driver/Src/stm32f4xx_hal_uart.c ****   assert_param(IS_UART_INSTANCE(huart->Instance));
 376:./Libraries/STM32F4xx_HAL_Driver/Src/stm32f4xx_hal_uart.c ****   assert_param(IS_UART_LIN_BREAK_DETECT_LENGTH(BreakDetectLength));
 377:./Libraries/STM32F4xx_HAL_Driver/Src/stm32f4xx_hal_uart.c ****   assert_param(IS_UART_LIN_WORD_LENGTH(huart->Init.WordLength));
 378:./Libraries/STM32F4xx_HAL_Driver/Src/stm32f4xx_hal_uart.c ****   assert_param(IS_UART_LIN_OVERSAMPLING(huart->Init.OverSampling));
 379:./Libraries/STM32F4xx_HAL_Driver/Src/stm32f4xx_hal_uart.c ****   
 380:./Libraries/STM32F4xx_HAL_Driver/Src/stm32f4xx_hal_uart.c ****   if(huart->gState == HAL_UART_STATE_RESET)
 294              		.loc 1 380 11
 295 0014 7B68     		ldr	r3, [r7, #4]
 296 0016 93F83930 		ldrb	r3, [r3, #57]
 297 001a DBB2     		uxtb	r3, r3
 298              		.loc 1 380 5
 299 001c 002B     		cmp	r3, #0
 300 001e 06D1     		bne	.L12
 381:./Libraries/STM32F4xx_HAL_Driver/Src/stm32f4xx_hal_uart.c ****   {
 382:./Libraries/STM32F4xx_HAL_Driver/Src/stm32f4xx_hal_uart.c ****     /* Allocate lock resource and initialize it */
 383:./Libraries/STM32F4xx_HAL_Driver/Src/stm32f4xx_hal_uart.c ****     huart->Lock = HAL_UNLOCKED;
 301              		.loc 1 383 17
 302 0020 7B68     		ldr	r3, [r7, #4]
 303 0022 0022     		movs	r2, #0
 304 0024 83F83820 		strb	r2, [r3, #56]
 384:./Libraries/STM32F4xx_HAL_Driver/Src/stm32f4xx_hal_uart.c ****     /* Init the low level hardware */
 385:./Libraries/STM32F4xx_HAL_Driver/Src/stm32f4xx_hal_uart.c ****     HAL_UART_MspInit(huart);
ARM GAS  /tmp/ccOBznmR.s 			page 13


 305              		.loc 1 385 5
 306 0028 7868     		ldr	r0, [r7, #4]
 307 002a FFF7FEFF 		bl	HAL_UART_MspInit
 308              	.L12:
 386:./Libraries/STM32F4xx_HAL_Driver/Src/stm32f4xx_hal_uart.c ****   }
 387:./Libraries/STM32F4xx_HAL_Driver/Src/stm32f4xx_hal_uart.c **** 
 388:./Libraries/STM32F4xx_HAL_Driver/Src/stm32f4xx_hal_uart.c ****   huart->gState = HAL_UART_STATE_BUSY;
 309              		.loc 1 388 17
 310 002e 7B68     		ldr	r3, [r7, #4]
 311 0030 2422     		movs	r2, #36
 312 0032 83F83920 		strb	r2, [r3, #57]
 389:./Libraries/STM32F4xx_HAL_Driver/Src/stm32f4xx_hal_uart.c **** 
 390:./Libraries/STM32F4xx_HAL_Driver/Src/stm32f4xx_hal_uart.c ****   /* Disable the peripheral */
 391:./Libraries/STM32F4xx_HAL_Driver/Src/stm32f4xx_hal_uart.c ****   __HAL_UART_DISABLE(huart);
 313              		.loc 1 391 3
 314 0036 7B68     		ldr	r3, [r7, #4]
 315 0038 1B68     		ldr	r3, [r3]
 316 003a DA68     		ldr	r2, [r3, #12]
 317 003c 7B68     		ldr	r3, [r7, #4]
 318 003e 1B68     		ldr	r3, [r3]
 319 0040 22F40052 		bic	r2, r2, #8192
 320 0044 DA60     		str	r2, [r3, #12]
 392:./Libraries/STM32F4xx_HAL_Driver/Src/stm32f4xx_hal_uart.c ****   
 393:./Libraries/STM32F4xx_HAL_Driver/Src/stm32f4xx_hal_uart.c ****   /* Set the UART Communication parameters */
 394:./Libraries/STM32F4xx_HAL_Driver/Src/stm32f4xx_hal_uart.c ****   UART_SetConfig(huart);
 321              		.loc 1 394 3
 322 0046 7868     		ldr	r0, [r7, #4]
 323 0048 FFF7FEFF 		bl	UART_SetConfig
 395:./Libraries/STM32F4xx_HAL_Driver/Src/stm32f4xx_hal_uart.c ****   
 396:./Libraries/STM32F4xx_HAL_Driver/Src/stm32f4xx_hal_uart.c ****   /* In LIN mode, the following bits must be kept cleared: 
 397:./Libraries/STM32F4xx_HAL_Driver/Src/stm32f4xx_hal_uart.c ****      - LINEN and CLKEN bits in the USART_CR2 register,
 398:./Libraries/STM32F4xx_HAL_Driver/Src/stm32f4xx_hal_uart.c ****      - SCEN and IREN bits in the USART_CR3 register.*/
 399:./Libraries/STM32F4xx_HAL_Driver/Src/stm32f4xx_hal_uart.c ****   CLEAR_BIT(huart->Instance->CR2, USART_CR2_CLKEN);
 324              		.loc 1 399 3
 325 004c 7B68     		ldr	r3, [r7, #4]
 326 004e 1B68     		ldr	r3, [r3]
 327 0050 1A69     		ldr	r2, [r3, #16]
 328 0052 7B68     		ldr	r3, [r7, #4]
 329 0054 1B68     		ldr	r3, [r3]
 330 0056 22F40062 		bic	r2, r2, #2048
 331 005a 1A61     		str	r2, [r3, #16]
 400:./Libraries/STM32F4xx_HAL_Driver/Src/stm32f4xx_hal_uart.c ****   CLEAR_BIT(huart->Instance->CR3, (USART_CR3_HDSEL | USART_CR3_IREN | USART_CR3_SCEN));
 332              		.loc 1 400 3
 333 005c 7B68     		ldr	r3, [r7, #4]
 334 005e 1B68     		ldr	r3, [r3]
 335 0060 5A69     		ldr	r2, [r3, #20]
 336 0062 7B68     		ldr	r3, [r7, #4]
 337 0064 1B68     		ldr	r3, [r3]
 338 0066 22F02A02 		bic	r2, r2, #42
 339 006a 5A61     		str	r2, [r3, #20]
 401:./Libraries/STM32F4xx_HAL_Driver/Src/stm32f4xx_hal_uart.c ****   
 402:./Libraries/STM32F4xx_HAL_Driver/Src/stm32f4xx_hal_uart.c ****   /* Enable the LIN mode by setting the LINEN bit in the CR2 register */
 403:./Libraries/STM32F4xx_HAL_Driver/Src/stm32f4xx_hal_uart.c ****   SET_BIT(huart->Instance->CR2, USART_CR2_LINEN);
 340              		.loc 1 403 3
 341 006c 7B68     		ldr	r3, [r7, #4]
 342 006e 1B68     		ldr	r3, [r3]
 343 0070 1A69     		ldr	r2, [r3, #16]
ARM GAS  /tmp/ccOBznmR.s 			page 14


 344 0072 7B68     		ldr	r3, [r7, #4]
 345 0074 1B68     		ldr	r3, [r3]
 346 0076 42F48042 		orr	r2, r2, #16384
 347 007a 1A61     		str	r2, [r3, #16]
 404:./Libraries/STM32F4xx_HAL_Driver/Src/stm32f4xx_hal_uart.c ****   
 405:./Libraries/STM32F4xx_HAL_Driver/Src/stm32f4xx_hal_uart.c ****   /* Set the USART LIN Break detection length. */
 406:./Libraries/STM32F4xx_HAL_Driver/Src/stm32f4xx_hal_uart.c ****   CLEAR_BIT(huart->Instance->CR2, USART_CR2_LBDL);
 348              		.loc 1 406 3
 349 007c 7B68     		ldr	r3, [r7, #4]
 350 007e 1B68     		ldr	r3, [r3]
 351 0080 1A69     		ldr	r2, [r3, #16]
 352 0082 7B68     		ldr	r3, [r7, #4]
 353 0084 1B68     		ldr	r3, [r3]
 354 0086 22F02002 		bic	r2, r2, #32
 355 008a 1A61     		str	r2, [r3, #16]
 407:./Libraries/STM32F4xx_HAL_Driver/Src/stm32f4xx_hal_uart.c ****   SET_BIT(huart->Instance->CR2, BreakDetectLength);
 356              		.loc 1 407 3
 357 008c 7B68     		ldr	r3, [r7, #4]
 358 008e 1B68     		ldr	r3, [r3]
 359 0090 1969     		ldr	r1, [r3, #16]
 360 0092 7B68     		ldr	r3, [r7, #4]
 361 0094 1B68     		ldr	r3, [r3]
 362 0096 3A68     		ldr	r2, [r7]
 363 0098 0A43     		orrs	r2, r2, r1
 364 009a 1A61     		str	r2, [r3, #16]
 408:./Libraries/STM32F4xx_HAL_Driver/Src/stm32f4xx_hal_uart.c ****   
 409:./Libraries/STM32F4xx_HAL_Driver/Src/stm32f4xx_hal_uart.c ****   /* Enable the peripheral */
 410:./Libraries/STM32F4xx_HAL_Driver/Src/stm32f4xx_hal_uart.c ****   __HAL_UART_ENABLE(huart);
 365              		.loc 1 410 3
 366 009c 7B68     		ldr	r3, [r7, #4]
 367 009e 1B68     		ldr	r3, [r3]
 368 00a0 DA68     		ldr	r2, [r3, #12]
 369 00a2 7B68     		ldr	r3, [r7, #4]
 370 00a4 1B68     		ldr	r3, [r3]
 371 00a6 42F40052 		orr	r2, r2, #8192
 372 00aa DA60     		str	r2, [r3, #12]
 411:./Libraries/STM32F4xx_HAL_Driver/Src/stm32f4xx_hal_uart.c ****   
 412:./Libraries/STM32F4xx_HAL_Driver/Src/stm32f4xx_hal_uart.c ****   /* Initialize the UART state*/
 413:./Libraries/STM32F4xx_HAL_Driver/Src/stm32f4xx_hal_uart.c ****   huart->ErrorCode = HAL_UART_ERROR_NONE;
 373              		.loc 1 413 20
 374 00ac 7B68     		ldr	r3, [r7, #4]
 375 00ae 0022     		movs	r2, #0
 376 00b0 DA63     		str	r2, [r3, #60]
 414:./Libraries/STM32F4xx_HAL_Driver/Src/stm32f4xx_hal_uart.c ****   huart->gState= HAL_UART_STATE_READY;
 377              		.loc 1 414 16
 378 00b2 7B68     		ldr	r3, [r7, #4]
 379 00b4 2022     		movs	r2, #32
 380 00b6 83F83920 		strb	r2, [r3, #57]
 415:./Libraries/STM32F4xx_HAL_Driver/Src/stm32f4xx_hal_uart.c ****   huart->RxState= HAL_UART_STATE_READY;
 381              		.loc 1 415 17
 382 00ba 7B68     		ldr	r3, [r7, #4]
 383 00bc 2022     		movs	r2, #32
 384 00be 83F83A20 		strb	r2, [r3, #58]
 416:./Libraries/STM32F4xx_HAL_Driver/Src/stm32f4xx_hal_uart.c ****   
 417:./Libraries/STM32F4xx_HAL_Driver/Src/stm32f4xx_hal_uart.c ****   return HAL_OK;
 385              		.loc 1 417 10
 386 00c2 0023     		movs	r3, #0
ARM GAS  /tmp/ccOBznmR.s 			page 15


 387              	.L11:
 418:./Libraries/STM32F4xx_HAL_Driver/Src/stm32f4xx_hal_uart.c **** }
 388              		.loc 1 418 1
 389 00c4 1846     		mov	r0, r3
 390 00c6 0837     		adds	r7, r7, #8
 391              	.LCFI13:
 392              		.cfi_def_cfa_offset 8
 393 00c8 BD46     		mov	sp, r7
 394              	.LCFI14:
 395              		.cfi_def_cfa_register 13
 396              		@ sp needed
 397 00ca 80BD     		pop	{r7, pc}
 398              		.cfi_endproc
 399              	.LFE128:
 401              		.section	.text.HAL_MultiProcessor_Init,"ax",%progbits
 402              		.align	1
 403              		.global	HAL_MultiProcessor_Init
 404              		.syntax unified
 405              		.thumb
 406              		.thumb_func
 407              		.fpu fpv4-sp-d16
 409              	HAL_MultiProcessor_Init:
 410              	.LFB129:
 419:./Libraries/STM32F4xx_HAL_Driver/Src/stm32f4xx_hal_uart.c **** 
 420:./Libraries/STM32F4xx_HAL_Driver/Src/stm32f4xx_hal_uart.c **** /**
 421:./Libraries/STM32F4xx_HAL_Driver/Src/stm32f4xx_hal_uart.c ****   * @brief  Initializes the Multi-Processor mode according to the specified
 422:./Libraries/STM32F4xx_HAL_Driver/Src/stm32f4xx_hal_uart.c ****   *         parameters in the UART_InitTypeDef and create the associated handle.
 423:./Libraries/STM32F4xx_HAL_Driver/Src/stm32f4xx_hal_uart.c ****   * @param  huart pointer to a UART_HandleTypeDef structure that contains
 424:./Libraries/STM32F4xx_HAL_Driver/Src/stm32f4xx_hal_uart.c ****   *                the configuration information for the specified UART module.
 425:./Libraries/STM32F4xx_HAL_Driver/Src/stm32f4xx_hal_uart.c ****   * @param  Address USART address
 426:./Libraries/STM32F4xx_HAL_Driver/Src/stm32f4xx_hal_uart.c ****   * @param  WakeUpMethod specifies the USART wake-up method.
 427:./Libraries/STM32F4xx_HAL_Driver/Src/stm32f4xx_hal_uart.c ****   *          This parameter can be one of the following values:
 428:./Libraries/STM32F4xx_HAL_Driver/Src/stm32f4xx_hal_uart.c ****   *            @arg UART_WAKEUPMETHOD_IDLELINE: Wake-up by an idle line detection
 429:./Libraries/STM32F4xx_HAL_Driver/Src/stm32f4xx_hal_uart.c ****   *            @arg UART_WAKEUPMETHOD_ADDRESSMARK: Wake-up by an address mark
 430:./Libraries/STM32F4xx_HAL_Driver/Src/stm32f4xx_hal_uart.c ****   * @retval HAL status
 431:./Libraries/STM32F4xx_HAL_Driver/Src/stm32f4xx_hal_uart.c ****   */
 432:./Libraries/STM32F4xx_HAL_Driver/Src/stm32f4xx_hal_uart.c **** HAL_StatusTypeDef HAL_MultiProcessor_Init(UART_HandleTypeDef *huart, uint8_t Address, uint32_t Wake
 433:./Libraries/STM32F4xx_HAL_Driver/Src/stm32f4xx_hal_uart.c **** {
 411              		.loc 1 433 1
 412              		.cfi_startproc
 413              		@ args = 0, pretend = 0, frame = 16
 414              		@ frame_needed = 1, uses_anonymous_args = 0
 415 0000 80B5     		push	{r7, lr}
 416              	.LCFI15:
 417              		.cfi_def_cfa_offset 8
 418              		.cfi_offset 7, -8
 419              		.cfi_offset 14, -4
 420 0002 84B0     		sub	sp, sp, #16
 421              	.LCFI16:
 422              		.cfi_def_cfa_offset 24
 423 0004 00AF     		add	r7, sp, #0
 424              	.LCFI17:
 425              		.cfi_def_cfa_register 7
 426 0006 F860     		str	r0, [r7, #12]
 427 0008 0B46     		mov	r3, r1
 428 000a 7A60     		str	r2, [r7, #4]
 429 000c FB72     		strb	r3, [r7, #11]
ARM GAS  /tmp/ccOBznmR.s 			page 16


 434:./Libraries/STM32F4xx_HAL_Driver/Src/stm32f4xx_hal_uart.c ****   /* Check the UART handle allocation */
 435:./Libraries/STM32F4xx_HAL_Driver/Src/stm32f4xx_hal_uart.c ****   if(huart == NULL)
 430              		.loc 1 435 5
 431 000e FB68     		ldr	r3, [r7, #12]
 432 0010 002B     		cmp	r3, #0
 433 0012 01D1     		bne	.L14
 436:./Libraries/STM32F4xx_HAL_Driver/Src/stm32f4xx_hal_uart.c ****   {
 437:./Libraries/STM32F4xx_HAL_Driver/Src/stm32f4xx_hal_uart.c ****     return HAL_ERROR;
 434              		.loc 1 437 12
 435 0014 0123     		movs	r3, #1
 436 0016 5FE0     		b	.L15
 437              	.L14:
 438:./Libraries/STM32F4xx_HAL_Driver/Src/stm32f4xx_hal_uart.c ****   }
 439:./Libraries/STM32F4xx_HAL_Driver/Src/stm32f4xx_hal_uart.c **** 
 440:./Libraries/STM32F4xx_HAL_Driver/Src/stm32f4xx_hal_uart.c ****   /* Check the parameters */
 441:./Libraries/STM32F4xx_HAL_Driver/Src/stm32f4xx_hal_uart.c ****   assert_param(IS_UART_INSTANCE(huart->Instance));
 442:./Libraries/STM32F4xx_HAL_Driver/Src/stm32f4xx_hal_uart.c ****   assert_param(IS_UART_WAKEUPMETHOD(WakeUpMethod));
 443:./Libraries/STM32F4xx_HAL_Driver/Src/stm32f4xx_hal_uart.c ****   assert_param(IS_UART_ADDRESS(Address));
 444:./Libraries/STM32F4xx_HAL_Driver/Src/stm32f4xx_hal_uart.c ****   assert_param(IS_UART_WORD_LENGTH(huart->Init.WordLength));
 445:./Libraries/STM32F4xx_HAL_Driver/Src/stm32f4xx_hal_uart.c ****   assert_param(IS_UART_OVERSAMPLING(huart->Init.OverSampling));
 446:./Libraries/STM32F4xx_HAL_Driver/Src/stm32f4xx_hal_uart.c **** 
 447:./Libraries/STM32F4xx_HAL_Driver/Src/stm32f4xx_hal_uart.c ****   if(huart->gState == HAL_UART_STATE_RESET)
 438              		.loc 1 447 11
 439 0018 FB68     		ldr	r3, [r7, #12]
 440 001a 93F83930 		ldrb	r3, [r3, #57]
 441 001e DBB2     		uxtb	r3, r3
 442              		.loc 1 447 5
 443 0020 002B     		cmp	r3, #0
 444 0022 06D1     		bne	.L16
 448:./Libraries/STM32F4xx_HAL_Driver/Src/stm32f4xx_hal_uart.c ****   {
 449:./Libraries/STM32F4xx_HAL_Driver/Src/stm32f4xx_hal_uart.c ****     /* Allocate lock resource and initialize it */
 450:./Libraries/STM32F4xx_HAL_Driver/Src/stm32f4xx_hal_uart.c ****     huart->Lock = HAL_UNLOCKED;
 445              		.loc 1 450 17
 446 0024 FB68     		ldr	r3, [r7, #12]
 447 0026 0022     		movs	r2, #0
 448 0028 83F83820 		strb	r2, [r3, #56]
 451:./Libraries/STM32F4xx_HAL_Driver/Src/stm32f4xx_hal_uart.c ****     /* Init the low level hardware */
 452:./Libraries/STM32F4xx_HAL_Driver/Src/stm32f4xx_hal_uart.c ****     HAL_UART_MspInit(huart);
 449              		.loc 1 452 5
 450 002c F868     		ldr	r0, [r7, #12]
 451 002e FFF7FEFF 		bl	HAL_UART_MspInit
 452              	.L16:
 453:./Libraries/STM32F4xx_HAL_Driver/Src/stm32f4xx_hal_uart.c ****   }
 454:./Libraries/STM32F4xx_HAL_Driver/Src/stm32f4xx_hal_uart.c **** 
 455:./Libraries/STM32F4xx_HAL_Driver/Src/stm32f4xx_hal_uart.c ****   huart->gState = HAL_UART_STATE_BUSY;
 453              		.loc 1 455 17
 454 0032 FB68     		ldr	r3, [r7, #12]
 455 0034 2422     		movs	r2, #36
 456 0036 83F83920 		strb	r2, [r3, #57]
 456:./Libraries/STM32F4xx_HAL_Driver/Src/stm32f4xx_hal_uart.c **** 
 457:./Libraries/STM32F4xx_HAL_Driver/Src/stm32f4xx_hal_uart.c ****   /* Disable the peripheral */
 458:./Libraries/STM32F4xx_HAL_Driver/Src/stm32f4xx_hal_uart.c ****   __HAL_UART_DISABLE(huart);
 457              		.loc 1 458 3
 458 003a FB68     		ldr	r3, [r7, #12]
 459 003c 1B68     		ldr	r3, [r3]
 460 003e DA68     		ldr	r2, [r3, #12]
 461 0040 FB68     		ldr	r3, [r7, #12]
ARM GAS  /tmp/ccOBznmR.s 			page 17


 462 0042 1B68     		ldr	r3, [r3]
 463 0044 22F40052 		bic	r2, r2, #8192
 464 0048 DA60     		str	r2, [r3, #12]
 459:./Libraries/STM32F4xx_HAL_Driver/Src/stm32f4xx_hal_uart.c ****   
 460:./Libraries/STM32F4xx_HAL_Driver/Src/stm32f4xx_hal_uart.c ****   /* Set the UART Communication parameters */
 461:./Libraries/STM32F4xx_HAL_Driver/Src/stm32f4xx_hal_uart.c ****   UART_SetConfig(huart);
 465              		.loc 1 461 3
 466 004a F868     		ldr	r0, [r7, #12]
 467 004c FFF7FEFF 		bl	UART_SetConfig
 462:./Libraries/STM32F4xx_HAL_Driver/Src/stm32f4xx_hal_uart.c ****   
 463:./Libraries/STM32F4xx_HAL_Driver/Src/stm32f4xx_hal_uart.c ****   /* In Multi-Processor mode, the following bits must be kept cleared: 
 464:./Libraries/STM32F4xx_HAL_Driver/Src/stm32f4xx_hal_uart.c ****      - LINEN and CLKEN bits in the USART_CR2 register,
 465:./Libraries/STM32F4xx_HAL_Driver/Src/stm32f4xx_hal_uart.c ****      - SCEN, HDSEL and IREN  bits in the USART_CR3 register */
 466:./Libraries/STM32F4xx_HAL_Driver/Src/stm32f4xx_hal_uart.c ****   CLEAR_BIT(huart->Instance->CR2, (USART_CR2_LINEN | USART_CR2_CLKEN));
 468              		.loc 1 466 3
 469 0050 FB68     		ldr	r3, [r7, #12]
 470 0052 1B68     		ldr	r3, [r3]
 471 0054 1A69     		ldr	r2, [r3, #16]
 472 0056 FB68     		ldr	r3, [r7, #12]
 473 0058 1B68     		ldr	r3, [r3]
 474 005a 22F49042 		bic	r2, r2, #18432
 475 005e 1A61     		str	r2, [r3, #16]
 467:./Libraries/STM32F4xx_HAL_Driver/Src/stm32f4xx_hal_uart.c ****   CLEAR_BIT(huart->Instance->CR3, (USART_CR3_SCEN | USART_CR3_HDSEL | USART_CR3_IREN));
 476              		.loc 1 467 3
 477 0060 FB68     		ldr	r3, [r7, #12]
 478 0062 1B68     		ldr	r3, [r3]
 479 0064 5A69     		ldr	r2, [r3, #20]
 480 0066 FB68     		ldr	r3, [r7, #12]
 481 0068 1B68     		ldr	r3, [r3]
 482 006a 22F02A02 		bic	r2, r2, #42
 483 006e 5A61     		str	r2, [r3, #20]
 468:./Libraries/STM32F4xx_HAL_Driver/Src/stm32f4xx_hal_uart.c ****   
 469:./Libraries/STM32F4xx_HAL_Driver/Src/stm32f4xx_hal_uart.c ****   /* Clear the USART address */
 470:./Libraries/STM32F4xx_HAL_Driver/Src/stm32f4xx_hal_uart.c ****   CLEAR_BIT(huart->Instance->CR2, USART_CR2_ADD);
 484              		.loc 1 470 3
 485 0070 FB68     		ldr	r3, [r7, #12]
 486 0072 1B68     		ldr	r3, [r3]
 487 0074 1A69     		ldr	r2, [r3, #16]
 488 0076 FB68     		ldr	r3, [r7, #12]
 489 0078 1B68     		ldr	r3, [r3]
 490 007a 22F00F02 		bic	r2, r2, #15
 491 007e 1A61     		str	r2, [r3, #16]
 471:./Libraries/STM32F4xx_HAL_Driver/Src/stm32f4xx_hal_uart.c ****   /* Set the USART address node */
 472:./Libraries/STM32F4xx_HAL_Driver/Src/stm32f4xx_hal_uart.c ****   SET_BIT(huart->Instance->CR2, Address);
 492              		.loc 1 472 3
 493 0080 FB68     		ldr	r3, [r7, #12]
 494 0082 1B68     		ldr	r3, [r3]
 495 0084 1969     		ldr	r1, [r3, #16]
 496 0086 FA7A     		ldrb	r2, [r7, #11]	@ zero_extendqisi2
 497 0088 FB68     		ldr	r3, [r7, #12]
 498 008a 1B68     		ldr	r3, [r3]
 499 008c 0A43     		orrs	r2, r2, r1
 500 008e 1A61     		str	r2, [r3, #16]
 473:./Libraries/STM32F4xx_HAL_Driver/Src/stm32f4xx_hal_uart.c ****   
 474:./Libraries/STM32F4xx_HAL_Driver/Src/stm32f4xx_hal_uart.c ****   /* Set the wake up method by setting the WAKE bit in the CR1 register */
 475:./Libraries/STM32F4xx_HAL_Driver/Src/stm32f4xx_hal_uart.c ****   CLEAR_BIT(huart->Instance->CR1, USART_CR1_WAKE);
 501              		.loc 1 475 3
ARM GAS  /tmp/ccOBznmR.s 			page 18


 502 0090 FB68     		ldr	r3, [r7, #12]
 503 0092 1B68     		ldr	r3, [r3]
 504 0094 DA68     		ldr	r2, [r3, #12]
 505 0096 FB68     		ldr	r3, [r7, #12]
 506 0098 1B68     		ldr	r3, [r3]
 507 009a 22F40062 		bic	r2, r2, #2048
 508 009e DA60     		str	r2, [r3, #12]
 476:./Libraries/STM32F4xx_HAL_Driver/Src/stm32f4xx_hal_uart.c ****   SET_BIT(huart->Instance->CR1, WakeUpMethod);
 509              		.loc 1 476 3
 510 00a0 FB68     		ldr	r3, [r7, #12]
 511 00a2 1B68     		ldr	r3, [r3]
 512 00a4 D968     		ldr	r1, [r3, #12]
 513 00a6 FB68     		ldr	r3, [r7, #12]
 514 00a8 1B68     		ldr	r3, [r3]
 515 00aa 7A68     		ldr	r2, [r7, #4]
 516 00ac 0A43     		orrs	r2, r2, r1
 517 00ae DA60     		str	r2, [r3, #12]
 477:./Libraries/STM32F4xx_HAL_Driver/Src/stm32f4xx_hal_uart.c ****   
 478:./Libraries/STM32F4xx_HAL_Driver/Src/stm32f4xx_hal_uart.c ****   /* Enable the peripheral */
 479:./Libraries/STM32F4xx_HAL_Driver/Src/stm32f4xx_hal_uart.c ****   __HAL_UART_ENABLE(huart);
 518              		.loc 1 479 3
 519 00b0 FB68     		ldr	r3, [r7, #12]
 520 00b2 1B68     		ldr	r3, [r3]
 521 00b4 DA68     		ldr	r2, [r3, #12]
 522 00b6 FB68     		ldr	r3, [r7, #12]
 523 00b8 1B68     		ldr	r3, [r3]
 524 00ba 42F40052 		orr	r2, r2, #8192
 525 00be DA60     		str	r2, [r3, #12]
 480:./Libraries/STM32F4xx_HAL_Driver/Src/stm32f4xx_hal_uart.c ****   
 481:./Libraries/STM32F4xx_HAL_Driver/Src/stm32f4xx_hal_uart.c ****   /* Initialize the UART state */
 482:./Libraries/STM32F4xx_HAL_Driver/Src/stm32f4xx_hal_uart.c ****   huart->ErrorCode = HAL_UART_ERROR_NONE;
 526              		.loc 1 482 20
 527 00c0 FB68     		ldr	r3, [r7, #12]
 528 00c2 0022     		movs	r2, #0
 529 00c4 DA63     		str	r2, [r3, #60]
 483:./Libraries/STM32F4xx_HAL_Driver/Src/stm32f4xx_hal_uart.c ****   huart->gState= HAL_UART_STATE_READY;
 530              		.loc 1 483 16
 531 00c6 FB68     		ldr	r3, [r7, #12]
 532 00c8 2022     		movs	r2, #32
 533 00ca 83F83920 		strb	r2, [r3, #57]
 484:./Libraries/STM32F4xx_HAL_Driver/Src/stm32f4xx_hal_uart.c ****   huart->RxState= HAL_UART_STATE_READY;
 534              		.loc 1 484 17
 535 00ce FB68     		ldr	r3, [r7, #12]
 536 00d0 2022     		movs	r2, #32
 537 00d2 83F83A20 		strb	r2, [r3, #58]
 485:./Libraries/STM32F4xx_HAL_Driver/Src/stm32f4xx_hal_uart.c ****   
 486:./Libraries/STM32F4xx_HAL_Driver/Src/stm32f4xx_hal_uart.c ****   return HAL_OK;
 538              		.loc 1 486 10
 539 00d6 0023     		movs	r3, #0
 540              	.L15:
 487:./Libraries/STM32F4xx_HAL_Driver/Src/stm32f4xx_hal_uart.c **** }
 541              		.loc 1 487 1
 542 00d8 1846     		mov	r0, r3
 543 00da 1037     		adds	r7, r7, #16
 544              	.LCFI18:
 545              		.cfi_def_cfa_offset 8
 546 00dc BD46     		mov	sp, r7
ARM GAS  /tmp/ccOBznmR.s 			page 19


 547              	.LCFI19:
 548              		.cfi_def_cfa_register 13
 549              		@ sp needed
 550 00de 80BD     		pop	{r7, pc}
 551              		.cfi_endproc
 552              	.LFE129:
 554              		.section	.text.HAL_UART_DeInit,"ax",%progbits
 555              		.align	1
 556              		.global	HAL_UART_DeInit
 557              		.syntax unified
 558              		.thumb
 559              		.thumb_func
 560              		.fpu fpv4-sp-d16
 562              	HAL_UART_DeInit:
 563              	.LFB130:
 488:./Libraries/STM32F4xx_HAL_Driver/Src/stm32f4xx_hal_uart.c **** 
 489:./Libraries/STM32F4xx_HAL_Driver/Src/stm32f4xx_hal_uart.c **** /**
 490:./Libraries/STM32F4xx_HAL_Driver/Src/stm32f4xx_hal_uart.c ****   * @brief  DeInitializes the UART peripheral. 
 491:./Libraries/STM32F4xx_HAL_Driver/Src/stm32f4xx_hal_uart.c ****   * @param  huart pointer to a UART_HandleTypeDef structure that contains
 492:./Libraries/STM32F4xx_HAL_Driver/Src/stm32f4xx_hal_uart.c ****   *                the configuration information for the specified UART module.
 493:./Libraries/STM32F4xx_HAL_Driver/Src/stm32f4xx_hal_uart.c ****   * @retval HAL status
 494:./Libraries/STM32F4xx_HAL_Driver/Src/stm32f4xx_hal_uart.c ****   */
 495:./Libraries/STM32F4xx_HAL_Driver/Src/stm32f4xx_hal_uart.c **** HAL_StatusTypeDef HAL_UART_DeInit(UART_HandleTypeDef *huart)
 496:./Libraries/STM32F4xx_HAL_Driver/Src/stm32f4xx_hal_uart.c **** {
 564              		.loc 1 496 1
 565              		.cfi_startproc
 566              		@ args = 0, pretend = 0, frame = 8
 567              		@ frame_needed = 1, uses_anonymous_args = 0
 568 0000 80B5     		push	{r7, lr}
 569              	.LCFI20:
 570              		.cfi_def_cfa_offset 8
 571              		.cfi_offset 7, -8
 572              		.cfi_offset 14, -4
 573 0002 82B0     		sub	sp, sp, #8
 574              	.LCFI21:
 575              		.cfi_def_cfa_offset 16
 576 0004 00AF     		add	r7, sp, #0
 577              	.LCFI22:
 578              		.cfi_def_cfa_register 7
 579 0006 7860     		str	r0, [r7, #4]
 497:./Libraries/STM32F4xx_HAL_Driver/Src/stm32f4xx_hal_uart.c ****   /* Check the UART handle allocation */
 498:./Libraries/STM32F4xx_HAL_Driver/Src/stm32f4xx_hal_uart.c ****   if(huart == NULL)
 580              		.loc 1 498 5
 581 0008 7B68     		ldr	r3, [r7, #4]
 582 000a 002B     		cmp	r3, #0
 583 000c 01D1     		bne	.L18
 499:./Libraries/STM32F4xx_HAL_Driver/Src/stm32f4xx_hal_uart.c ****   {
 500:./Libraries/STM32F4xx_HAL_Driver/Src/stm32f4xx_hal_uart.c ****     return HAL_ERROR;
 584              		.loc 1 500 12
 585 000e 0123     		movs	r3, #1
 586 0010 16E0     		b	.L19
 587              	.L18:
 501:./Libraries/STM32F4xx_HAL_Driver/Src/stm32f4xx_hal_uart.c ****   }
 502:./Libraries/STM32F4xx_HAL_Driver/Src/stm32f4xx_hal_uart.c ****   
 503:./Libraries/STM32F4xx_HAL_Driver/Src/stm32f4xx_hal_uart.c ****   /* Check the parameters */
 504:./Libraries/STM32F4xx_HAL_Driver/Src/stm32f4xx_hal_uart.c ****   assert_param(IS_UART_INSTANCE(huart->Instance));
 505:./Libraries/STM32F4xx_HAL_Driver/Src/stm32f4xx_hal_uart.c **** 
ARM GAS  /tmp/ccOBznmR.s 			page 20


 506:./Libraries/STM32F4xx_HAL_Driver/Src/stm32f4xx_hal_uart.c ****   huart->gState = HAL_UART_STATE_BUSY;
 588              		.loc 1 506 17
 589 0012 7B68     		ldr	r3, [r7, #4]
 590 0014 2422     		movs	r2, #36
 591 0016 83F83920 		strb	r2, [r3, #57]
 507:./Libraries/STM32F4xx_HAL_Driver/Src/stm32f4xx_hal_uart.c ****   
 508:./Libraries/STM32F4xx_HAL_Driver/Src/stm32f4xx_hal_uart.c ****   /* DeInit the low level hardware */
 509:./Libraries/STM32F4xx_HAL_Driver/Src/stm32f4xx_hal_uart.c ****   HAL_UART_MspDeInit(huart);
 592              		.loc 1 509 3
 593 001a 7868     		ldr	r0, [r7, #4]
 594 001c FFF7FEFF 		bl	HAL_UART_MspDeInit
 510:./Libraries/STM32F4xx_HAL_Driver/Src/stm32f4xx_hal_uart.c ****   
 511:./Libraries/STM32F4xx_HAL_Driver/Src/stm32f4xx_hal_uart.c ****   huart->ErrorCode = HAL_UART_ERROR_NONE;
 595              		.loc 1 511 20
 596 0020 7B68     		ldr	r3, [r7, #4]
 597 0022 0022     		movs	r2, #0
 598 0024 DA63     		str	r2, [r3, #60]
 512:./Libraries/STM32F4xx_HAL_Driver/Src/stm32f4xx_hal_uart.c ****   huart->gState = HAL_UART_STATE_RESET;
 599              		.loc 1 512 17
 600 0026 7B68     		ldr	r3, [r7, #4]
 601 0028 0022     		movs	r2, #0
 602 002a 83F83920 		strb	r2, [r3, #57]
 513:./Libraries/STM32F4xx_HAL_Driver/Src/stm32f4xx_hal_uart.c ****   huart->RxState = HAL_UART_STATE_RESET;
 603              		.loc 1 513 18
 604 002e 7B68     		ldr	r3, [r7, #4]
 605 0030 0022     		movs	r2, #0
 606 0032 83F83A20 		strb	r2, [r3, #58]
 514:./Libraries/STM32F4xx_HAL_Driver/Src/stm32f4xx_hal_uart.c **** 
 515:./Libraries/STM32F4xx_HAL_Driver/Src/stm32f4xx_hal_uart.c ****   /* Process Lock */
 516:./Libraries/STM32F4xx_HAL_Driver/Src/stm32f4xx_hal_uart.c ****   __HAL_UNLOCK(huart);
 607              		.loc 1 516 3
 608 0036 7B68     		ldr	r3, [r7, #4]
 609 0038 0022     		movs	r2, #0
 610 003a 83F83820 		strb	r2, [r3, #56]
 517:./Libraries/STM32F4xx_HAL_Driver/Src/stm32f4xx_hal_uart.c **** 
 518:./Libraries/STM32F4xx_HAL_Driver/Src/stm32f4xx_hal_uart.c ****   return HAL_OK;
 611              		.loc 1 518 10
 612 003e 0023     		movs	r3, #0
 613              	.L19:
 519:./Libraries/STM32F4xx_HAL_Driver/Src/stm32f4xx_hal_uart.c **** }
 614              		.loc 1 519 1
 615 0040 1846     		mov	r0, r3
 616 0042 0837     		adds	r7, r7, #8
 617              	.LCFI23:
 618              		.cfi_def_cfa_offset 8
 619 0044 BD46     		mov	sp, r7
 620              	.LCFI24:
 621              		.cfi_def_cfa_register 13
 622              		@ sp needed
 623 0046 80BD     		pop	{r7, pc}
 624              		.cfi_endproc
 625              	.LFE130:
 627              		.section	.text.HAL_UART_MspInit,"ax",%progbits
 628              		.align	1
 629              		.weak	HAL_UART_MspInit
 630              		.syntax unified
 631              		.thumb
ARM GAS  /tmp/ccOBznmR.s 			page 21


 632              		.thumb_func
 633              		.fpu fpv4-sp-d16
 635              	HAL_UART_MspInit:
 636              	.LFB131:
 520:./Libraries/STM32F4xx_HAL_Driver/Src/stm32f4xx_hal_uart.c **** 
 521:./Libraries/STM32F4xx_HAL_Driver/Src/stm32f4xx_hal_uart.c **** /**
 522:./Libraries/STM32F4xx_HAL_Driver/Src/stm32f4xx_hal_uart.c ****   * @brief  UART MSP Init.
 523:./Libraries/STM32F4xx_HAL_Driver/Src/stm32f4xx_hal_uart.c ****   * @param  huart pointer to a UART_HandleTypeDef structure that contains
 524:./Libraries/STM32F4xx_HAL_Driver/Src/stm32f4xx_hal_uart.c ****   *                the configuration information for the specified UART module.
 525:./Libraries/STM32F4xx_HAL_Driver/Src/stm32f4xx_hal_uart.c ****   * @retval None
 526:./Libraries/STM32F4xx_HAL_Driver/Src/stm32f4xx_hal_uart.c ****   */
 527:./Libraries/STM32F4xx_HAL_Driver/Src/stm32f4xx_hal_uart.c ****  __weak void HAL_UART_MspInit(UART_HandleTypeDef *huart)
 528:./Libraries/STM32F4xx_HAL_Driver/Src/stm32f4xx_hal_uart.c **** {
 637              		.loc 1 528 1
 638              		.cfi_startproc
 639              		@ args = 0, pretend = 0, frame = 8
 640              		@ frame_needed = 1, uses_anonymous_args = 0
 641              		@ link register save eliminated.
 642 0000 80B4     		push	{r7}
 643              	.LCFI25:
 644              		.cfi_def_cfa_offset 4
 645              		.cfi_offset 7, -4
 646 0002 83B0     		sub	sp, sp, #12
 647              	.LCFI26:
 648              		.cfi_def_cfa_offset 16
 649 0004 00AF     		add	r7, sp, #0
 650              	.LCFI27:
 651              		.cfi_def_cfa_register 7
 652 0006 7860     		str	r0, [r7, #4]
 529:./Libraries/STM32F4xx_HAL_Driver/Src/stm32f4xx_hal_uart.c ****    /* Prevent unused argument(s) compilation warning */
 530:./Libraries/STM32F4xx_HAL_Driver/Src/stm32f4xx_hal_uart.c ****   UNUSED(huart);
 531:./Libraries/STM32F4xx_HAL_Driver/Src/stm32f4xx_hal_uart.c ****   /* NOTE: This function Should not be modified, when the callback is needed,
 532:./Libraries/STM32F4xx_HAL_Driver/Src/stm32f4xx_hal_uart.c ****            the HAL_UART_MspInit could be implemented in the user file
 533:./Libraries/STM32F4xx_HAL_Driver/Src/stm32f4xx_hal_uart.c ****    */ 
 534:./Libraries/STM32F4xx_HAL_Driver/Src/stm32f4xx_hal_uart.c **** }
 653              		.loc 1 534 1
 654 0008 00BF     		nop
 655 000a 0C37     		adds	r7, r7, #12
 656              	.LCFI28:
 657              		.cfi_def_cfa_offset 4
 658 000c BD46     		mov	sp, r7
 659              	.LCFI29:
 660              		.cfi_def_cfa_register 13
 661              		@ sp needed
 662 000e 5DF8047B 		ldr	r7, [sp], #4
 663              	.LCFI30:
 664              		.cfi_restore 7
 665              		.cfi_def_cfa_offset 0
 666 0012 7047     		bx	lr
 667              		.cfi_endproc
 668              	.LFE131:
 670              		.section	.text.HAL_UART_MspDeInit,"ax",%progbits
 671              		.align	1
 672              		.weak	HAL_UART_MspDeInit
 673              		.syntax unified
 674              		.thumb
 675              		.thumb_func
ARM GAS  /tmp/ccOBznmR.s 			page 22


 676              		.fpu fpv4-sp-d16
 678              	HAL_UART_MspDeInit:
 679              	.LFB132:
 535:./Libraries/STM32F4xx_HAL_Driver/Src/stm32f4xx_hal_uart.c **** 
 536:./Libraries/STM32F4xx_HAL_Driver/Src/stm32f4xx_hal_uart.c **** /**
 537:./Libraries/STM32F4xx_HAL_Driver/Src/stm32f4xx_hal_uart.c ****   * @brief  UART MSP DeInit.
 538:./Libraries/STM32F4xx_HAL_Driver/Src/stm32f4xx_hal_uart.c ****   * @param  huart pointer to a UART_HandleTypeDef structure that contains
 539:./Libraries/STM32F4xx_HAL_Driver/Src/stm32f4xx_hal_uart.c ****   *                the configuration information for the specified UART module.
 540:./Libraries/STM32F4xx_HAL_Driver/Src/stm32f4xx_hal_uart.c ****   * @retval None
 541:./Libraries/STM32F4xx_HAL_Driver/Src/stm32f4xx_hal_uart.c ****   */
 542:./Libraries/STM32F4xx_HAL_Driver/Src/stm32f4xx_hal_uart.c ****  __weak void HAL_UART_MspDeInit(UART_HandleTypeDef *huart)
 543:./Libraries/STM32F4xx_HAL_Driver/Src/stm32f4xx_hal_uart.c **** {
 680              		.loc 1 543 1
 681              		.cfi_startproc
 682              		@ args = 0, pretend = 0, frame = 8
 683              		@ frame_needed = 1, uses_anonymous_args = 0
 684              		@ link register save eliminated.
 685 0000 80B4     		push	{r7}
 686              	.LCFI31:
 687              		.cfi_def_cfa_offset 4
 688              		.cfi_offset 7, -4
 689 0002 83B0     		sub	sp, sp, #12
 690              	.LCFI32:
 691              		.cfi_def_cfa_offset 16
 692 0004 00AF     		add	r7, sp, #0
 693              	.LCFI33:
 694              		.cfi_def_cfa_register 7
 695 0006 7860     		str	r0, [r7, #4]
 544:./Libraries/STM32F4xx_HAL_Driver/Src/stm32f4xx_hal_uart.c ****   /* Prevent unused argument(s) compilation warning */
 545:./Libraries/STM32F4xx_HAL_Driver/Src/stm32f4xx_hal_uart.c ****   UNUSED(huart);
 546:./Libraries/STM32F4xx_HAL_Driver/Src/stm32f4xx_hal_uart.c ****   /* NOTE: This function Should not be modified, when the callback is needed,
 547:./Libraries/STM32F4xx_HAL_Driver/Src/stm32f4xx_hal_uart.c ****            the HAL_UART_MspDeInit could be implemented in the user file
 548:./Libraries/STM32F4xx_HAL_Driver/Src/stm32f4xx_hal_uart.c ****    */ 
 549:./Libraries/STM32F4xx_HAL_Driver/Src/stm32f4xx_hal_uart.c **** }
 696              		.loc 1 549 1
 697 0008 00BF     		nop
 698 000a 0C37     		adds	r7, r7, #12
 699              	.LCFI34:
 700              		.cfi_def_cfa_offset 4
 701 000c BD46     		mov	sp, r7
 702              	.LCFI35:
 703              		.cfi_def_cfa_register 13
 704              		@ sp needed
 705 000e 5DF8047B 		ldr	r7, [sp], #4
 706              	.LCFI36:
 707              		.cfi_restore 7
 708              		.cfi_def_cfa_offset 0
 709 0012 7047     		bx	lr
 710              		.cfi_endproc
 711              	.LFE132:
 713              		.section	.text.HAL_UART_Transmit,"ax",%progbits
 714              		.align	1
 715              		.global	HAL_UART_Transmit
 716              		.syntax unified
 717              		.thumb
 718              		.thumb_func
 719              		.fpu fpv4-sp-d16
ARM GAS  /tmp/ccOBznmR.s 			page 23


 721              	HAL_UART_Transmit:
 722              	.LFB133:
 550:./Libraries/STM32F4xx_HAL_Driver/Src/stm32f4xx_hal_uart.c **** 
 551:./Libraries/STM32F4xx_HAL_Driver/Src/stm32f4xx_hal_uart.c **** /**
 552:./Libraries/STM32F4xx_HAL_Driver/Src/stm32f4xx_hal_uart.c ****   * @}
 553:./Libraries/STM32F4xx_HAL_Driver/Src/stm32f4xx_hal_uart.c ****   */
 554:./Libraries/STM32F4xx_HAL_Driver/Src/stm32f4xx_hal_uart.c **** 
 555:./Libraries/STM32F4xx_HAL_Driver/Src/stm32f4xx_hal_uart.c **** /** @defgroup UART_Exported_Functions_Group2 IO operation functions 
 556:./Libraries/STM32F4xx_HAL_Driver/Src/stm32f4xx_hal_uart.c ****   *  @brief UART Transmit and Receive functions 
 557:./Libraries/STM32F4xx_HAL_Driver/Src/stm32f4xx_hal_uart.c ****   *
 558:./Libraries/STM32F4xx_HAL_Driver/Src/stm32f4xx_hal_uart.c **** @verbatim   
 559:./Libraries/STM32F4xx_HAL_Driver/Src/stm32f4xx_hal_uart.c ****   ==============================================================================
 560:./Libraries/STM32F4xx_HAL_Driver/Src/stm32f4xx_hal_uart.c ****                       ##### IO operation functions #####
 561:./Libraries/STM32F4xx_HAL_Driver/Src/stm32f4xx_hal_uart.c ****   ==============================================================================  
 562:./Libraries/STM32F4xx_HAL_Driver/Src/stm32f4xx_hal_uart.c ****   [..]
 563:./Libraries/STM32F4xx_HAL_Driver/Src/stm32f4xx_hal_uart.c ****     This subsection provides a set of functions allowing to manage the UART asynchronous
 564:./Libraries/STM32F4xx_HAL_Driver/Src/stm32f4xx_hal_uart.c ****     and Half duplex data transfers.
 565:./Libraries/STM32F4xx_HAL_Driver/Src/stm32f4xx_hal_uart.c **** 
 566:./Libraries/STM32F4xx_HAL_Driver/Src/stm32f4xx_hal_uart.c ****     (#) There are two modes of transfer:
 567:./Libraries/STM32F4xx_HAL_Driver/Src/stm32f4xx_hal_uart.c ****        (++) Blocking mode: The communication is performed in polling mode. 
 568:./Libraries/STM32F4xx_HAL_Driver/Src/stm32f4xx_hal_uart.c ****             The HAL status of all data processing is returned by the same function 
 569:./Libraries/STM32F4xx_HAL_Driver/Src/stm32f4xx_hal_uart.c ****             after finishing transfer.  
 570:./Libraries/STM32F4xx_HAL_Driver/Src/stm32f4xx_hal_uart.c ****        (++) Non blocking mode: The communication is performed using Interrupts 
 571:./Libraries/STM32F4xx_HAL_Driver/Src/stm32f4xx_hal_uart.c ****             or DMA, these APIs return the HAL status.
 572:./Libraries/STM32F4xx_HAL_Driver/Src/stm32f4xx_hal_uart.c ****             The end of the data processing will be indicated through the 
 573:./Libraries/STM32F4xx_HAL_Driver/Src/stm32f4xx_hal_uart.c ****             dedicated UART IRQ when using Interrupt mode or the DMA IRQ when 
 574:./Libraries/STM32F4xx_HAL_Driver/Src/stm32f4xx_hal_uart.c ****             using DMA mode.
 575:./Libraries/STM32F4xx_HAL_Driver/Src/stm32f4xx_hal_uart.c ****             The HAL_UART_TxCpltCallback(), HAL_UART_RxCpltCallback() user callbacks 
 576:./Libraries/STM32F4xx_HAL_Driver/Src/stm32f4xx_hal_uart.c ****             will be executed respectively at the end of the transmit or receive process.
 577:./Libraries/STM32F4xx_HAL_Driver/Src/stm32f4xx_hal_uart.c ****             The HAL_UART_ErrorCallback() user callback will be executed when 
 578:./Libraries/STM32F4xx_HAL_Driver/Src/stm32f4xx_hal_uart.c ****             a communication error is detected.
 579:./Libraries/STM32F4xx_HAL_Driver/Src/stm32f4xx_hal_uart.c **** 
 580:./Libraries/STM32F4xx_HAL_Driver/Src/stm32f4xx_hal_uart.c ****     (#) Blocking mode APIs are:
 581:./Libraries/STM32F4xx_HAL_Driver/Src/stm32f4xx_hal_uart.c ****         (++) HAL_UART_Transmit()
 582:./Libraries/STM32F4xx_HAL_Driver/Src/stm32f4xx_hal_uart.c ****         (++) HAL_UART_Receive() 
 583:./Libraries/STM32F4xx_HAL_Driver/Src/stm32f4xx_hal_uart.c ****         
 584:./Libraries/STM32F4xx_HAL_Driver/Src/stm32f4xx_hal_uart.c ****     (#) Non Blocking mode APIs with Interrupt are:
 585:./Libraries/STM32F4xx_HAL_Driver/Src/stm32f4xx_hal_uart.c ****         (++) HAL_UART_Transmit_IT()
 586:./Libraries/STM32F4xx_HAL_Driver/Src/stm32f4xx_hal_uart.c ****         (++) HAL_UART_Receive_IT()
 587:./Libraries/STM32F4xx_HAL_Driver/Src/stm32f4xx_hal_uart.c ****         (++) HAL_UART_IRQHandler()
 588:./Libraries/STM32F4xx_HAL_Driver/Src/stm32f4xx_hal_uart.c **** 
 589:./Libraries/STM32F4xx_HAL_Driver/Src/stm32f4xx_hal_uart.c ****     (#) Non Blocking mode functions with DMA are:
 590:./Libraries/STM32F4xx_HAL_Driver/Src/stm32f4xx_hal_uart.c ****         (++) HAL_UART_Transmit_DMA()
 591:./Libraries/STM32F4xx_HAL_Driver/Src/stm32f4xx_hal_uart.c ****         (++) HAL_UART_Receive_DMA()
 592:./Libraries/STM32F4xx_HAL_Driver/Src/stm32f4xx_hal_uart.c **** 
 593:./Libraries/STM32F4xx_HAL_Driver/Src/stm32f4xx_hal_uart.c ****     (#) A set of Transfer Complete Callbacks are provided in non blocking mode:
 594:./Libraries/STM32F4xx_HAL_Driver/Src/stm32f4xx_hal_uart.c ****         (++) HAL_UART_TxCpltCallback()
 595:./Libraries/STM32F4xx_HAL_Driver/Src/stm32f4xx_hal_uart.c ****         (++) HAL_UART_RxCpltCallback()
 596:./Libraries/STM32F4xx_HAL_Driver/Src/stm32f4xx_hal_uart.c ****         (++) HAL_UART_ErrorCallback()
 597:./Libraries/STM32F4xx_HAL_Driver/Src/stm32f4xx_hal_uart.c **** 
 598:./Libraries/STM32F4xx_HAL_Driver/Src/stm32f4xx_hal_uart.c ****     [..] 
 599:./Libraries/STM32F4xx_HAL_Driver/Src/stm32f4xx_hal_uart.c ****       (@) In the Half duplex communication, it is forbidden to run the transmit 
 600:./Libraries/STM32F4xx_HAL_Driver/Src/stm32f4xx_hal_uart.c ****           and receive process in parallel, the UART state HAL_UART_STATE_BUSY_TX_RX 
 601:./Libraries/STM32F4xx_HAL_Driver/Src/stm32f4xx_hal_uart.c ****           can't be useful.
 602:./Libraries/STM32F4xx_HAL_Driver/Src/stm32f4xx_hal_uart.c ****       
 603:./Libraries/STM32F4xx_HAL_Driver/Src/stm32f4xx_hal_uart.c **** @endverbatim
 604:./Libraries/STM32F4xx_HAL_Driver/Src/stm32f4xx_hal_uart.c ****   * @{
ARM GAS  /tmp/ccOBznmR.s 			page 24


 605:./Libraries/STM32F4xx_HAL_Driver/Src/stm32f4xx_hal_uart.c ****   */
 606:./Libraries/STM32F4xx_HAL_Driver/Src/stm32f4xx_hal_uart.c **** 
 607:./Libraries/STM32F4xx_HAL_Driver/Src/stm32f4xx_hal_uart.c **** /**
 608:./Libraries/STM32F4xx_HAL_Driver/Src/stm32f4xx_hal_uart.c ****   * @brief  Sends an amount of data in blocking mode. 
 609:./Libraries/STM32F4xx_HAL_Driver/Src/stm32f4xx_hal_uart.c ****   * @param  huart pointer to a UART_HandleTypeDef structure that contains
 610:./Libraries/STM32F4xx_HAL_Driver/Src/stm32f4xx_hal_uart.c ****   *                the configuration information for the specified UART module.
 611:./Libraries/STM32F4xx_HAL_Driver/Src/stm32f4xx_hal_uart.c ****   * @param  pData Pointer to data buffer
 612:./Libraries/STM32F4xx_HAL_Driver/Src/stm32f4xx_hal_uart.c ****   * @param  Size Amount of data to be sent
 613:./Libraries/STM32F4xx_HAL_Driver/Src/stm32f4xx_hal_uart.c ****   * @param  Timeout Timeout duration  
 614:./Libraries/STM32F4xx_HAL_Driver/Src/stm32f4xx_hal_uart.c ****   * @retval HAL status
 615:./Libraries/STM32F4xx_HAL_Driver/Src/stm32f4xx_hal_uart.c ****   */
 616:./Libraries/STM32F4xx_HAL_Driver/Src/stm32f4xx_hal_uart.c **** HAL_StatusTypeDef HAL_UART_Transmit(UART_HandleTypeDef *huart, uint8_t *pData, uint16_t Size, uint3
 617:./Libraries/STM32F4xx_HAL_Driver/Src/stm32f4xx_hal_uart.c **** {
 723              		.loc 1 617 1
 724              		.cfi_startproc
 725              		@ args = 0, pretend = 0, frame = 24
 726              		@ frame_needed = 1, uses_anonymous_args = 0
 727 0000 80B5     		push	{r7, lr}
 728              	.LCFI37:
 729              		.cfi_def_cfa_offset 8
 730              		.cfi_offset 7, -8
 731              		.cfi_offset 14, -4
 732 0002 88B0     		sub	sp, sp, #32
 733              	.LCFI38:
 734              		.cfi_def_cfa_offset 40
 735 0004 02AF     		add	r7, sp, #8
 736              	.LCFI39:
 737              		.cfi_def_cfa 7, 32
 738 0006 F860     		str	r0, [r7, #12]
 739 0008 B960     		str	r1, [r7, #8]
 740 000a 3B60     		str	r3, [r7]
 741 000c 1346     		mov	r3, r2	@ movhi
 742 000e FB80     		strh	r3, [r7, #6]	@ movhi
 618:./Libraries/STM32F4xx_HAL_Driver/Src/stm32f4xx_hal_uart.c ****   uint16_t* tmp;
 619:./Libraries/STM32F4xx_HAL_Driver/Src/stm32f4xx_hal_uart.c ****   uint32_t tickstart = 0U;
 743              		.loc 1 619 12
 744 0010 0023     		movs	r3, #0
 745 0012 7B61     		str	r3, [r7, #20]
 620:./Libraries/STM32F4xx_HAL_Driver/Src/stm32f4xx_hal_uart.c ****   
 621:./Libraries/STM32F4xx_HAL_Driver/Src/stm32f4xx_hal_uart.c ****   /* Check that a Tx process is not already ongoing */
 622:./Libraries/STM32F4xx_HAL_Driver/Src/stm32f4xx_hal_uart.c ****   if(huart->gState == HAL_UART_STATE_READY) 
 746              		.loc 1 622 11
 747 0014 FB68     		ldr	r3, [r7, #12]
 748 0016 93F83930 		ldrb	r3, [r3, #57]
 749 001a DBB2     		uxtb	r3, r3
 750              		.loc 1 622 5
 751 001c 202B     		cmp	r3, #32
 752 001e 40F08380 		bne	.L23
 623:./Libraries/STM32F4xx_HAL_Driver/Src/stm32f4xx_hal_uart.c ****   {
 624:./Libraries/STM32F4xx_HAL_Driver/Src/stm32f4xx_hal_uart.c ****     if((pData == NULL ) || (Size == 0)) 
 753              		.loc 1 624 7
 754 0022 BB68     		ldr	r3, [r7, #8]
 755 0024 002B     		cmp	r3, #0
 756 0026 02D0     		beq	.L24
 757              		.loc 1 624 25 discriminator 1
 758 0028 FB88     		ldrh	r3, [r7, #6]
 759 002a 002B     		cmp	r3, #0
ARM GAS  /tmp/ccOBznmR.s 			page 25


 760 002c 01D1     		bne	.L25
 761              	.L24:
 625:./Libraries/STM32F4xx_HAL_Driver/Src/stm32f4xx_hal_uart.c ****     {
 626:./Libraries/STM32F4xx_HAL_Driver/Src/stm32f4xx_hal_uart.c ****       return  HAL_ERROR;
 762              		.loc 1 626 15
 763 002e 0123     		movs	r3, #1
 764 0030 7BE0     		b	.L26
 765              	.L25:
 627:./Libraries/STM32F4xx_HAL_Driver/Src/stm32f4xx_hal_uart.c ****     }
 628:./Libraries/STM32F4xx_HAL_Driver/Src/stm32f4xx_hal_uart.c ****     
 629:./Libraries/STM32F4xx_HAL_Driver/Src/stm32f4xx_hal_uart.c ****     /* Process Locked */
 630:./Libraries/STM32F4xx_HAL_Driver/Src/stm32f4xx_hal_uart.c ****     __HAL_LOCK(huart);
 766              		.loc 1 630 5
 767 0032 FB68     		ldr	r3, [r7, #12]
 768 0034 93F83830 		ldrb	r3, [r3, #56]	@ zero_extendqisi2
 769 0038 012B     		cmp	r3, #1
 770 003a 01D1     		bne	.L27
 771              		.loc 1 630 5 is_stmt 0 discriminator 1
 772 003c 0223     		movs	r3, #2
 773 003e 74E0     		b	.L26
 774              	.L27:
 775              		.loc 1 630 5 discriminator 2
 776 0040 FB68     		ldr	r3, [r7, #12]
 777 0042 0122     		movs	r2, #1
 778 0044 83F83820 		strb	r2, [r3, #56]
 631:./Libraries/STM32F4xx_HAL_Driver/Src/stm32f4xx_hal_uart.c ****     
 632:./Libraries/STM32F4xx_HAL_Driver/Src/stm32f4xx_hal_uart.c ****     huart->ErrorCode = HAL_UART_ERROR_NONE;
 779              		.loc 1 632 22 is_stmt 1 discriminator 2
 780 0048 FB68     		ldr	r3, [r7, #12]
 781 004a 0022     		movs	r2, #0
 782 004c DA63     		str	r2, [r3, #60]
 633:./Libraries/STM32F4xx_HAL_Driver/Src/stm32f4xx_hal_uart.c ****     huart->gState = HAL_UART_STATE_BUSY_TX;
 783              		.loc 1 633 19 discriminator 2
 784 004e FB68     		ldr	r3, [r7, #12]
 785 0050 2122     		movs	r2, #33
 786 0052 83F83920 		strb	r2, [r3, #57]
 634:./Libraries/STM32F4xx_HAL_Driver/Src/stm32f4xx_hal_uart.c **** 	
 635:./Libraries/STM32F4xx_HAL_Driver/Src/stm32f4xx_hal_uart.c ****     /* Init tickstart for timeout managment */
 636:./Libraries/STM32F4xx_HAL_Driver/Src/stm32f4xx_hal_uart.c ****     tickstart = HAL_GetTick();
 787              		.loc 1 636 17 discriminator 2
 788 0056 FFF7FEFF 		bl	HAL_GetTick
 789 005a 7861     		str	r0, [r7, #20]
 637:./Libraries/STM32F4xx_HAL_Driver/Src/stm32f4xx_hal_uart.c **** 
 638:./Libraries/STM32F4xx_HAL_Driver/Src/stm32f4xx_hal_uart.c ****     huart->TxXferSize = Size;
 790              		.loc 1 638 23 discriminator 2
 791 005c FB68     		ldr	r3, [r7, #12]
 792 005e FA88     		ldrh	r2, [r7, #6]	@ movhi
 793 0060 9A84     		strh	r2, [r3, #36]	@ movhi
 639:./Libraries/STM32F4xx_HAL_Driver/Src/stm32f4xx_hal_uart.c ****     huart->TxXferCount = Size;
 794              		.loc 1 639 24 discriminator 2
 795 0062 FB68     		ldr	r3, [r7, #12]
 796 0064 FA88     		ldrh	r2, [r7, #6]	@ movhi
 797 0066 DA84     		strh	r2, [r3, #38]	@ movhi
 640:./Libraries/STM32F4xx_HAL_Driver/Src/stm32f4xx_hal_uart.c ****     while(huart->TxXferCount > 0U)
 798              		.loc 1 640 10 discriminator 2
 799 0068 42E0     		b	.L28
 800              	.L33:
ARM GAS  /tmp/ccOBznmR.s 			page 26


 641:./Libraries/STM32F4xx_HAL_Driver/Src/stm32f4xx_hal_uart.c ****     {
 642:./Libraries/STM32F4xx_HAL_Driver/Src/stm32f4xx_hal_uart.c ****       huart->TxXferCount--;
 801              		.loc 1 642 12
 802 006a FB68     		ldr	r3, [r7, #12]
 803 006c DB8C     		ldrh	r3, [r3, #38]	@ movhi
 804 006e 9BB2     		uxth	r3, r3
 805              		.loc 1 642 25
 806 0070 013B     		subs	r3, r3, #1
 807 0072 9AB2     		uxth	r2, r3
 808 0074 FB68     		ldr	r3, [r7, #12]
 809 0076 DA84     		strh	r2, [r3, #38]	@ movhi
 643:./Libraries/STM32F4xx_HAL_Driver/Src/stm32f4xx_hal_uart.c ****       if(huart->Init.WordLength == UART_WORDLENGTH_9B)
 810              		.loc 1 643 21
 811 0078 FB68     		ldr	r3, [r7, #12]
 812 007a 9B68     		ldr	r3, [r3, #8]
 813              		.loc 1 643 9
 814 007c B3F5805F 		cmp	r3, #4096
 815 0080 22D1     		bne	.L29
 644:./Libraries/STM32F4xx_HAL_Driver/Src/stm32f4xx_hal_uart.c ****       {
 645:./Libraries/STM32F4xx_HAL_Driver/Src/stm32f4xx_hal_uart.c ****         if(UART_WaitOnFlagUntilTimeout(huart, UART_FLAG_TXE, RESET, tickstart, Timeout) != HAL_OK)
 816              		.loc 1 645 12
 817 0082 3B68     		ldr	r3, [r7]
 818 0084 0093     		str	r3, [sp]
 819 0086 7B69     		ldr	r3, [r7, #20]
 820 0088 0022     		movs	r2, #0
 821 008a 8021     		movs	r1, #128
 822 008c F868     		ldr	r0, [r7, #12]
 823 008e FFF7FEFF 		bl	UART_WaitOnFlagUntilTimeout
 824 0092 0346     		mov	r3, r0
 825              		.loc 1 645 11
 826 0094 002B     		cmp	r3, #0
 827 0096 01D0     		beq	.L30
 646:./Libraries/STM32F4xx_HAL_Driver/Src/stm32f4xx_hal_uart.c ****         { 
 647:./Libraries/STM32F4xx_HAL_Driver/Src/stm32f4xx_hal_uart.c ****           return HAL_TIMEOUT;
 828              		.loc 1 647 18
 829 0098 0323     		movs	r3, #3
 830 009a 46E0     		b	.L26
 831              	.L30:
 648:./Libraries/STM32F4xx_HAL_Driver/Src/stm32f4xx_hal_uart.c ****         }
 649:./Libraries/STM32F4xx_HAL_Driver/Src/stm32f4xx_hal_uart.c ****         tmp = (uint16_t*) pData;
 832              		.loc 1 649 13
 833 009c BB68     		ldr	r3, [r7, #8]
 834 009e 3B61     		str	r3, [r7, #16]
 650:./Libraries/STM32F4xx_HAL_Driver/Src/stm32f4xx_hal_uart.c ****         huart->Instance->DR = (*tmp & (uint16_t)0x01FF);
 835              		.loc 1 650 32
 836 00a0 3B69     		ldr	r3, [r7, #16]
 837 00a2 1B88     		ldrh	r3, [r3]
 838              		.loc 1 650 37
 839 00a4 1A46     		mov	r2, r3
 840              		.loc 1 650 14
 841 00a6 FB68     		ldr	r3, [r7, #12]
 842 00a8 1B68     		ldr	r3, [r3]
 843              		.loc 1 650 37
 844 00aa C2F30802 		ubfx	r2, r2, #0, #9
 845              		.loc 1 650 29
 846 00ae 5A60     		str	r2, [r3, #4]
 651:./Libraries/STM32F4xx_HAL_Driver/Src/stm32f4xx_hal_uart.c ****         if(huart->Init.Parity == UART_PARITY_NONE)
ARM GAS  /tmp/ccOBznmR.s 			page 27


 847              		.loc 1 651 23
 848 00b0 FB68     		ldr	r3, [r7, #12]
 849 00b2 1B69     		ldr	r3, [r3, #16]
 850              		.loc 1 651 11
 851 00b4 002B     		cmp	r3, #0
 852 00b6 03D1     		bne	.L31
 652:./Libraries/STM32F4xx_HAL_Driver/Src/stm32f4xx_hal_uart.c ****         {
 653:./Libraries/STM32F4xx_HAL_Driver/Src/stm32f4xx_hal_uart.c ****           pData +=2U;
 853              		.loc 1 653 17
 854 00b8 BB68     		ldr	r3, [r7, #8]
 855 00ba 0233     		adds	r3, r3, #2
 856 00bc BB60     		str	r3, [r7, #8]
 857 00be 17E0     		b	.L28
 858              	.L31:
 654:./Libraries/STM32F4xx_HAL_Driver/Src/stm32f4xx_hal_uart.c ****         }
 655:./Libraries/STM32F4xx_HAL_Driver/Src/stm32f4xx_hal_uart.c ****         else
 656:./Libraries/STM32F4xx_HAL_Driver/Src/stm32f4xx_hal_uart.c ****         { 
 657:./Libraries/STM32F4xx_HAL_Driver/Src/stm32f4xx_hal_uart.c ****           pData +=1U;
 859              		.loc 1 657 17
 860 00c0 BB68     		ldr	r3, [r7, #8]
 861 00c2 0133     		adds	r3, r3, #1
 862 00c4 BB60     		str	r3, [r7, #8]
 863 00c6 13E0     		b	.L28
 864              	.L29:
 658:./Libraries/STM32F4xx_HAL_Driver/Src/stm32f4xx_hal_uart.c ****         }
 659:./Libraries/STM32F4xx_HAL_Driver/Src/stm32f4xx_hal_uart.c ****       } 
 660:./Libraries/STM32F4xx_HAL_Driver/Src/stm32f4xx_hal_uart.c ****       else
 661:./Libraries/STM32F4xx_HAL_Driver/Src/stm32f4xx_hal_uart.c ****       {
 662:./Libraries/STM32F4xx_HAL_Driver/Src/stm32f4xx_hal_uart.c ****         if(UART_WaitOnFlagUntilTimeout(huart, UART_FLAG_TXE, RESET, tickstart, Timeout) != HAL_OK)
 865              		.loc 1 662 12
 866 00c8 3B68     		ldr	r3, [r7]
 867 00ca 0093     		str	r3, [sp]
 868 00cc 7B69     		ldr	r3, [r7, #20]
 869 00ce 0022     		movs	r2, #0
 870 00d0 8021     		movs	r1, #128
 871 00d2 F868     		ldr	r0, [r7, #12]
 872 00d4 FFF7FEFF 		bl	UART_WaitOnFlagUntilTimeout
 873 00d8 0346     		mov	r3, r0
 874              		.loc 1 662 11
 875 00da 002B     		cmp	r3, #0
 876 00dc 01D0     		beq	.L32
 663:./Libraries/STM32F4xx_HAL_Driver/Src/stm32f4xx_hal_uart.c ****         {
 664:./Libraries/STM32F4xx_HAL_Driver/Src/stm32f4xx_hal_uart.c ****           return HAL_TIMEOUT;
 877              		.loc 1 664 18
 878 00de 0323     		movs	r3, #3
 879 00e0 23E0     		b	.L26
 880              	.L32:
 665:./Libraries/STM32F4xx_HAL_Driver/Src/stm32f4xx_hal_uart.c ****         }
 666:./Libraries/STM32F4xx_HAL_Driver/Src/stm32f4xx_hal_uart.c ****         huart->Instance->DR = (*pData++ & (uint8_t)0xFF);
 881              		.loc 1 666 38
 882 00e2 BB68     		ldr	r3, [r7, #8]
 883 00e4 5A1C     		adds	r2, r3, #1
 884 00e6 BA60     		str	r2, [r7, #8]
 885              		.loc 1 666 32
 886 00e8 1A78     		ldrb	r2, [r3]	@ zero_extendqisi2
 887              		.loc 1 666 14
 888 00ea FB68     		ldr	r3, [r7, #12]
ARM GAS  /tmp/ccOBznmR.s 			page 28


 889 00ec 1B68     		ldr	r3, [r3]
 890              		.loc 1 666 29
 891 00ee 5A60     		str	r2, [r3, #4]
 892              	.L28:
 640:./Libraries/STM32F4xx_HAL_Driver/Src/stm32f4xx_hal_uart.c ****     {
 893              		.loc 1 640 16
 894 00f0 FB68     		ldr	r3, [r7, #12]
 895 00f2 DB8C     		ldrh	r3, [r3, #38]	@ movhi
 896 00f4 9BB2     		uxth	r3, r3
 640:./Libraries/STM32F4xx_HAL_Driver/Src/stm32f4xx_hal_uart.c ****     {
 897              		.loc 1 640 10
 898 00f6 002B     		cmp	r3, #0
 899 00f8 B7D1     		bne	.L33
 667:./Libraries/STM32F4xx_HAL_Driver/Src/stm32f4xx_hal_uart.c ****       } 
 668:./Libraries/STM32F4xx_HAL_Driver/Src/stm32f4xx_hal_uart.c ****     }
 669:./Libraries/STM32F4xx_HAL_Driver/Src/stm32f4xx_hal_uart.c ****     
 670:./Libraries/STM32F4xx_HAL_Driver/Src/stm32f4xx_hal_uart.c ****     if(UART_WaitOnFlagUntilTimeout(huart, UART_FLAG_TC, RESET, tickstart, Timeout) != HAL_OK)
 900              		.loc 1 670 8
 901 00fa 3B68     		ldr	r3, [r7]
 902 00fc 0093     		str	r3, [sp]
 903 00fe 7B69     		ldr	r3, [r7, #20]
 904 0100 0022     		movs	r2, #0
 905 0102 4021     		movs	r1, #64
 906 0104 F868     		ldr	r0, [r7, #12]
 907 0106 FFF7FEFF 		bl	UART_WaitOnFlagUntilTimeout
 908 010a 0346     		mov	r3, r0
 909              		.loc 1 670 7
 910 010c 002B     		cmp	r3, #0
 911 010e 01D0     		beq	.L34
 671:./Libraries/STM32F4xx_HAL_Driver/Src/stm32f4xx_hal_uart.c ****     { 
 672:./Libraries/STM32F4xx_HAL_Driver/Src/stm32f4xx_hal_uart.c ****       return HAL_TIMEOUT;
 912              		.loc 1 672 14
 913 0110 0323     		movs	r3, #3
 914 0112 0AE0     		b	.L26
 915              	.L34:
 673:./Libraries/STM32F4xx_HAL_Driver/Src/stm32f4xx_hal_uart.c ****     }
 674:./Libraries/STM32F4xx_HAL_Driver/Src/stm32f4xx_hal_uart.c ****     
 675:./Libraries/STM32F4xx_HAL_Driver/Src/stm32f4xx_hal_uart.c ****     /* At end of Tx process, restore huart->gState to Ready */
 676:./Libraries/STM32F4xx_HAL_Driver/Src/stm32f4xx_hal_uart.c ****       huart->gState = HAL_UART_STATE_READY;
 916              		.loc 1 676 21
 917 0114 FB68     		ldr	r3, [r7, #12]
 918 0116 2022     		movs	r2, #32
 919 0118 83F83920 		strb	r2, [r3, #57]
 677:./Libraries/STM32F4xx_HAL_Driver/Src/stm32f4xx_hal_uart.c ****     
 678:./Libraries/STM32F4xx_HAL_Driver/Src/stm32f4xx_hal_uart.c ****     /* Process Unlocked */
 679:./Libraries/STM32F4xx_HAL_Driver/Src/stm32f4xx_hal_uart.c ****     __HAL_UNLOCK(huart);
 920              		.loc 1 679 5
 921 011c FB68     		ldr	r3, [r7, #12]
 922 011e 0022     		movs	r2, #0
 923 0120 83F83820 		strb	r2, [r3, #56]
 680:./Libraries/STM32F4xx_HAL_Driver/Src/stm32f4xx_hal_uart.c ****     
 681:./Libraries/STM32F4xx_HAL_Driver/Src/stm32f4xx_hal_uart.c ****     return HAL_OK;
 924              		.loc 1 681 12
 925 0124 0023     		movs	r3, #0
 926 0126 00E0     		b	.L26
 927              	.L23:
 682:./Libraries/STM32F4xx_HAL_Driver/Src/stm32f4xx_hal_uart.c ****   }
ARM GAS  /tmp/ccOBznmR.s 			page 29


 683:./Libraries/STM32F4xx_HAL_Driver/Src/stm32f4xx_hal_uart.c ****   else
 684:./Libraries/STM32F4xx_HAL_Driver/Src/stm32f4xx_hal_uart.c ****   {
 685:./Libraries/STM32F4xx_HAL_Driver/Src/stm32f4xx_hal_uart.c ****     return HAL_BUSY;
 928              		.loc 1 685 12
 929 0128 0223     		movs	r3, #2
 930              	.L26:
 686:./Libraries/STM32F4xx_HAL_Driver/Src/stm32f4xx_hal_uart.c ****   }
 687:./Libraries/STM32F4xx_HAL_Driver/Src/stm32f4xx_hal_uart.c **** }
 931              		.loc 1 687 1
 932 012a 1846     		mov	r0, r3
 933 012c 1837     		adds	r7, r7, #24
 934              	.LCFI40:
 935              		.cfi_def_cfa_offset 8
 936 012e BD46     		mov	sp, r7
 937              	.LCFI41:
 938              		.cfi_def_cfa_register 13
 939              		@ sp needed
 940 0130 80BD     		pop	{r7, pc}
 941              		.cfi_endproc
 942              	.LFE133:
 944              		.section	.text.HAL_UART_Receive,"ax",%progbits
 945              		.align	1
 946              		.global	HAL_UART_Receive
 947              		.syntax unified
 948              		.thumb
 949              		.thumb_func
 950              		.fpu fpv4-sp-d16
 952              	HAL_UART_Receive:
 953              	.LFB134:
 688:./Libraries/STM32F4xx_HAL_Driver/Src/stm32f4xx_hal_uart.c **** 
 689:./Libraries/STM32F4xx_HAL_Driver/Src/stm32f4xx_hal_uart.c **** /**
 690:./Libraries/STM32F4xx_HAL_Driver/Src/stm32f4xx_hal_uart.c ****   * @brief  Receives an amount of data in blocking mode. 
 691:./Libraries/STM32F4xx_HAL_Driver/Src/stm32f4xx_hal_uart.c ****   * @param  huart pointer to a UART_HandleTypeDef structure that contains
 692:./Libraries/STM32F4xx_HAL_Driver/Src/stm32f4xx_hal_uart.c ****   *                the configuration information for the specified UART module.
 693:./Libraries/STM32F4xx_HAL_Driver/Src/stm32f4xx_hal_uart.c ****   * @param  pData Pointer to data buffer
 694:./Libraries/STM32F4xx_HAL_Driver/Src/stm32f4xx_hal_uart.c ****   * @param  Size Amount of data to be received
 695:./Libraries/STM32F4xx_HAL_Driver/Src/stm32f4xx_hal_uart.c ****   * @param  Timeout Timeout duration
 696:./Libraries/STM32F4xx_HAL_Driver/Src/stm32f4xx_hal_uart.c ****   * @retval HAL status
 697:./Libraries/STM32F4xx_HAL_Driver/Src/stm32f4xx_hal_uart.c ****   */
 698:./Libraries/STM32F4xx_HAL_Driver/Src/stm32f4xx_hal_uart.c **** HAL_StatusTypeDef HAL_UART_Receive(UART_HandleTypeDef *huart, uint8_t *pData, uint16_t Size, uint32
 699:./Libraries/STM32F4xx_HAL_Driver/Src/stm32f4xx_hal_uart.c **** { 
 954              		.loc 1 699 1
 955              		.cfi_startproc
 956              		@ args = 0, pretend = 0, frame = 24
 957              		@ frame_needed = 1, uses_anonymous_args = 0
 958 0000 80B5     		push	{r7, lr}
 959              	.LCFI42:
 960              		.cfi_def_cfa_offset 8
 961              		.cfi_offset 7, -8
 962              		.cfi_offset 14, -4
 963 0002 88B0     		sub	sp, sp, #32
 964              	.LCFI43:
 965              		.cfi_def_cfa_offset 40
 966 0004 02AF     		add	r7, sp, #8
 967              	.LCFI44:
 968              		.cfi_def_cfa 7, 32
 969 0006 F860     		str	r0, [r7, #12]
ARM GAS  /tmp/ccOBznmR.s 			page 30


 970 0008 B960     		str	r1, [r7, #8]
 971 000a 3B60     		str	r3, [r7]
 972 000c 1346     		mov	r3, r2	@ movhi
 973 000e FB80     		strh	r3, [r7, #6]	@ movhi
 700:./Libraries/STM32F4xx_HAL_Driver/Src/stm32f4xx_hal_uart.c ****   uint16_t* tmp;
 701:./Libraries/STM32F4xx_HAL_Driver/Src/stm32f4xx_hal_uart.c ****   uint32_t tickstart = 0U;
 974              		.loc 1 701 12
 975 0010 0023     		movs	r3, #0
 976 0012 7B61     		str	r3, [r7, #20]
 702:./Libraries/STM32F4xx_HAL_Driver/Src/stm32f4xx_hal_uart.c ****   
 703:./Libraries/STM32F4xx_HAL_Driver/Src/stm32f4xx_hal_uart.c ****   /* Check that a Rx process is not already ongoing */
 704:./Libraries/STM32F4xx_HAL_Driver/Src/stm32f4xx_hal_uart.c ****   if(huart->RxState == HAL_UART_STATE_READY) 
 977              		.loc 1 704 11
 978 0014 FB68     		ldr	r3, [r7, #12]
 979 0016 93F83A30 		ldrb	r3, [r3, #58]
 980 001a DBB2     		uxtb	r3, r3
 981              		.loc 1 704 5
 982 001c 202B     		cmp	r3, #32
 983 001e 40F09080 		bne	.L36
 705:./Libraries/STM32F4xx_HAL_Driver/Src/stm32f4xx_hal_uart.c ****   { 
 706:./Libraries/STM32F4xx_HAL_Driver/Src/stm32f4xx_hal_uart.c ****     if((pData == NULL ) || (Size == 0)) 
 984              		.loc 1 706 7
 985 0022 BB68     		ldr	r3, [r7, #8]
 986 0024 002B     		cmp	r3, #0
 987 0026 02D0     		beq	.L37
 988              		.loc 1 706 25 discriminator 1
 989 0028 FB88     		ldrh	r3, [r7, #6]
 990 002a 002B     		cmp	r3, #0
 991 002c 01D1     		bne	.L38
 992              	.L37:
 707:./Libraries/STM32F4xx_HAL_Driver/Src/stm32f4xx_hal_uart.c ****     {
 708:./Libraries/STM32F4xx_HAL_Driver/Src/stm32f4xx_hal_uart.c ****       return  HAL_ERROR;
 993              		.loc 1 708 15
 994 002e 0123     		movs	r3, #1
 995 0030 88E0     		b	.L39
 996              	.L38:
 709:./Libraries/STM32F4xx_HAL_Driver/Src/stm32f4xx_hal_uart.c ****     }
 710:./Libraries/STM32F4xx_HAL_Driver/Src/stm32f4xx_hal_uart.c ****     
 711:./Libraries/STM32F4xx_HAL_Driver/Src/stm32f4xx_hal_uart.c ****     /* Process Locked */
 712:./Libraries/STM32F4xx_HAL_Driver/Src/stm32f4xx_hal_uart.c ****     __HAL_LOCK(huart);
 997              		.loc 1 712 5
 998 0032 FB68     		ldr	r3, [r7, #12]
 999 0034 93F83830 		ldrb	r3, [r3, #56]	@ zero_extendqisi2
 1000 0038 012B     		cmp	r3, #1
 1001 003a 01D1     		bne	.L40
 1002              		.loc 1 712 5 is_stmt 0 discriminator 1
 1003 003c 0223     		movs	r3, #2
 1004 003e 81E0     		b	.L39
 1005              	.L40:
 1006              		.loc 1 712 5 discriminator 2
 1007 0040 FB68     		ldr	r3, [r7, #12]
 1008 0042 0122     		movs	r2, #1
 1009 0044 83F83820 		strb	r2, [r3, #56]
 713:./Libraries/STM32F4xx_HAL_Driver/Src/stm32f4xx_hal_uart.c ****     
 714:./Libraries/STM32F4xx_HAL_Driver/Src/stm32f4xx_hal_uart.c ****     huart->ErrorCode = HAL_UART_ERROR_NONE;
 1010              		.loc 1 714 22 is_stmt 1 discriminator 2
 1011 0048 FB68     		ldr	r3, [r7, #12]
ARM GAS  /tmp/ccOBznmR.s 			page 31


 1012 004a 0022     		movs	r2, #0
 1013 004c DA63     		str	r2, [r3, #60]
 715:./Libraries/STM32F4xx_HAL_Driver/Src/stm32f4xx_hal_uart.c ****     huart->RxState = HAL_UART_STATE_BUSY_RX;
 1014              		.loc 1 715 20 discriminator 2
 1015 004e FB68     		ldr	r3, [r7, #12]
 1016 0050 2222     		movs	r2, #34
 1017 0052 83F83A20 		strb	r2, [r3, #58]
 716:./Libraries/STM32F4xx_HAL_Driver/Src/stm32f4xx_hal_uart.c **** 	
 717:./Libraries/STM32F4xx_HAL_Driver/Src/stm32f4xx_hal_uart.c ****     /* Init tickstart for timeout managment */
 718:./Libraries/STM32F4xx_HAL_Driver/Src/stm32f4xx_hal_uart.c ****     tickstart = HAL_GetTick();
 1018              		.loc 1 718 17 discriminator 2
 1019 0056 FFF7FEFF 		bl	HAL_GetTick
 1020 005a 7861     		str	r0, [r7, #20]
 719:./Libraries/STM32F4xx_HAL_Driver/Src/stm32f4xx_hal_uart.c ****         
 720:./Libraries/STM32F4xx_HAL_Driver/Src/stm32f4xx_hal_uart.c ****     huart->RxXferSize = Size; 
 1021              		.loc 1 720 23 discriminator 2
 1022 005c FB68     		ldr	r3, [r7, #12]
 1023 005e FA88     		ldrh	r2, [r7, #6]	@ movhi
 1024 0060 9A85     		strh	r2, [r3, #44]	@ movhi
 721:./Libraries/STM32F4xx_HAL_Driver/Src/stm32f4xx_hal_uart.c ****     huart->RxXferCount = Size;
 1025              		.loc 1 721 24 discriminator 2
 1026 0062 FB68     		ldr	r3, [r7, #12]
 1027 0064 FA88     		ldrh	r2, [r7, #6]	@ movhi
 1028 0066 DA85     		strh	r2, [r3, #46]	@ movhi
 722:./Libraries/STM32F4xx_HAL_Driver/Src/stm32f4xx_hal_uart.c ****     
 723:./Libraries/STM32F4xx_HAL_Driver/Src/stm32f4xx_hal_uart.c ****     /* Check the remain data to be received */
 724:./Libraries/STM32F4xx_HAL_Driver/Src/stm32f4xx_hal_uart.c ****     while(huart->RxXferCount > 0U)
 1029              		.loc 1 724 10 discriminator 2
 1030 0068 5CE0     		b	.L41
 1031              	.L47:
 725:./Libraries/STM32F4xx_HAL_Driver/Src/stm32f4xx_hal_uart.c ****     {
 726:./Libraries/STM32F4xx_HAL_Driver/Src/stm32f4xx_hal_uart.c ****       huart->RxXferCount--;
 1032              		.loc 1 726 12
 1033 006a FB68     		ldr	r3, [r7, #12]
 1034 006c DB8D     		ldrh	r3, [r3, #46]	@ movhi
 1035 006e 9BB2     		uxth	r3, r3
 1036              		.loc 1 726 25
 1037 0070 013B     		subs	r3, r3, #1
 1038 0072 9AB2     		uxth	r2, r3
 1039 0074 FB68     		ldr	r3, [r7, #12]
 1040 0076 DA85     		strh	r2, [r3, #46]	@ movhi
 727:./Libraries/STM32F4xx_HAL_Driver/Src/stm32f4xx_hal_uart.c ****       if(huart->Init.WordLength == UART_WORDLENGTH_9B)
 1041              		.loc 1 727 21
 1042 0078 FB68     		ldr	r3, [r7, #12]
 1043 007a 9B68     		ldr	r3, [r3, #8]
 1044              		.loc 1 727 9
 1045 007c B3F5805F 		cmp	r3, #4096
 1046 0080 2BD1     		bne	.L42
 728:./Libraries/STM32F4xx_HAL_Driver/Src/stm32f4xx_hal_uart.c ****       {
 729:./Libraries/STM32F4xx_HAL_Driver/Src/stm32f4xx_hal_uart.c ****         if(UART_WaitOnFlagUntilTimeout(huart, UART_FLAG_RXNE, RESET, tickstart, Timeout) != HAL_OK)
 1047              		.loc 1 729 12
 1048 0082 3B68     		ldr	r3, [r7]
 1049 0084 0093     		str	r3, [sp]
 1050 0086 7B69     		ldr	r3, [r7, #20]
 1051 0088 0022     		movs	r2, #0
 1052 008a 2021     		movs	r1, #32
 1053 008c F868     		ldr	r0, [r7, #12]
ARM GAS  /tmp/ccOBznmR.s 			page 32


 1054 008e FFF7FEFF 		bl	UART_WaitOnFlagUntilTimeout
 1055 0092 0346     		mov	r3, r0
 1056              		.loc 1 729 11
 1057 0094 002B     		cmp	r3, #0
 1058 0096 01D0     		beq	.L43
 730:./Libraries/STM32F4xx_HAL_Driver/Src/stm32f4xx_hal_uart.c ****         { 
 731:./Libraries/STM32F4xx_HAL_Driver/Src/stm32f4xx_hal_uart.c ****           return HAL_TIMEOUT;
 1059              		.loc 1 731 18
 1060 0098 0323     		movs	r3, #3
 1061 009a 53E0     		b	.L39
 1062              	.L43:
 732:./Libraries/STM32F4xx_HAL_Driver/Src/stm32f4xx_hal_uart.c ****         }
 733:./Libraries/STM32F4xx_HAL_Driver/Src/stm32f4xx_hal_uart.c ****         tmp = (uint16_t*) pData;
 1063              		.loc 1 733 13
 1064 009c BB68     		ldr	r3, [r7, #8]
 1065 009e 3B61     		str	r3, [r7, #16]
 734:./Libraries/STM32F4xx_HAL_Driver/Src/stm32f4xx_hal_uart.c ****         if(huart->Init.Parity == UART_PARITY_NONE)
 1066              		.loc 1 734 23
 1067 00a0 FB68     		ldr	r3, [r7, #12]
 1068 00a2 1B69     		ldr	r3, [r3, #16]
 1069              		.loc 1 734 11
 1070 00a4 002B     		cmp	r3, #0
 1071 00a6 0CD1     		bne	.L44
 735:./Libraries/STM32F4xx_HAL_Driver/Src/stm32f4xx_hal_uart.c ****         {
 736:./Libraries/STM32F4xx_HAL_Driver/Src/stm32f4xx_hal_uart.c ****           *tmp = (uint16_t)(huart->Instance->DR & (uint16_t)0x01FF);
 1072              		.loc 1 736 34
 1073 00a8 FB68     		ldr	r3, [r7, #12]
 1074 00aa 1B68     		ldr	r3, [r3]
 1075              		.loc 1 736 44
 1076 00ac 5B68     		ldr	r3, [r3, #4]
 1077              		.loc 1 736 18
 1078 00ae 9BB2     		uxth	r3, r3
 1079 00b0 C3F30803 		ubfx	r3, r3, #0, #9
 1080 00b4 9AB2     		uxth	r2, r3
 1081              		.loc 1 736 16
 1082 00b6 3B69     		ldr	r3, [r7, #16]
 1083 00b8 1A80     		strh	r2, [r3]	@ movhi
 737:./Libraries/STM32F4xx_HAL_Driver/Src/stm32f4xx_hal_uart.c ****           pData +=2U;
 1084              		.loc 1 737 17
 1085 00ba BB68     		ldr	r3, [r7, #8]
 1086 00bc 0233     		adds	r3, r3, #2
 1087 00be BB60     		str	r3, [r7, #8]
 1088 00c0 30E0     		b	.L41
 1089              	.L44:
 738:./Libraries/STM32F4xx_HAL_Driver/Src/stm32f4xx_hal_uart.c ****         }
 739:./Libraries/STM32F4xx_HAL_Driver/Src/stm32f4xx_hal_uart.c ****         else
 740:./Libraries/STM32F4xx_HAL_Driver/Src/stm32f4xx_hal_uart.c ****         {
 741:./Libraries/STM32F4xx_HAL_Driver/Src/stm32f4xx_hal_uart.c ****           *tmp = (uint16_t)(huart->Instance->DR & (uint16_t)0x00FF);
 1090              		.loc 1 741 34
 1091 00c2 FB68     		ldr	r3, [r7, #12]
 1092 00c4 1B68     		ldr	r3, [r3]
 1093              		.loc 1 741 44
 1094 00c6 5B68     		ldr	r3, [r3, #4]
 1095              		.loc 1 741 18
 1096 00c8 9BB2     		uxth	r3, r3
 1097 00ca DBB2     		uxtb	r3, r3
 1098 00cc 9AB2     		uxth	r2, r3
ARM GAS  /tmp/ccOBznmR.s 			page 33


 1099              		.loc 1 741 16
 1100 00ce 3B69     		ldr	r3, [r7, #16]
 1101 00d0 1A80     		strh	r2, [r3]	@ movhi
 742:./Libraries/STM32F4xx_HAL_Driver/Src/stm32f4xx_hal_uart.c ****           pData +=1U;
 1102              		.loc 1 742 17
 1103 00d2 BB68     		ldr	r3, [r7, #8]
 1104 00d4 0133     		adds	r3, r3, #1
 1105 00d6 BB60     		str	r3, [r7, #8]
 1106 00d8 24E0     		b	.L41
 1107              	.L42:
 743:./Libraries/STM32F4xx_HAL_Driver/Src/stm32f4xx_hal_uart.c ****         }
 744:./Libraries/STM32F4xx_HAL_Driver/Src/stm32f4xx_hal_uart.c **** 
 745:./Libraries/STM32F4xx_HAL_Driver/Src/stm32f4xx_hal_uart.c ****       } 
 746:./Libraries/STM32F4xx_HAL_Driver/Src/stm32f4xx_hal_uart.c ****       else
 747:./Libraries/STM32F4xx_HAL_Driver/Src/stm32f4xx_hal_uart.c ****       {
 748:./Libraries/STM32F4xx_HAL_Driver/Src/stm32f4xx_hal_uart.c ****         if(UART_WaitOnFlagUntilTimeout(huart, UART_FLAG_RXNE, RESET, tickstart, Timeout) != HAL_OK)
 1108              		.loc 1 748 12
 1109 00da 3B68     		ldr	r3, [r7]
 1110 00dc 0093     		str	r3, [sp]
 1111 00de 7B69     		ldr	r3, [r7, #20]
 1112 00e0 0022     		movs	r2, #0
 1113 00e2 2021     		movs	r1, #32
 1114 00e4 F868     		ldr	r0, [r7, #12]
 1115 00e6 FFF7FEFF 		bl	UART_WaitOnFlagUntilTimeout
 1116 00ea 0346     		mov	r3, r0
 1117              		.loc 1 748 11
 1118 00ec 002B     		cmp	r3, #0
 1119 00ee 01D0     		beq	.L45
 749:./Libraries/STM32F4xx_HAL_Driver/Src/stm32f4xx_hal_uart.c ****         { 
 750:./Libraries/STM32F4xx_HAL_Driver/Src/stm32f4xx_hal_uart.c ****           return HAL_TIMEOUT;
 1120              		.loc 1 750 18
 1121 00f0 0323     		movs	r3, #3
 1122 00f2 27E0     		b	.L39
 1123              	.L45:
 751:./Libraries/STM32F4xx_HAL_Driver/Src/stm32f4xx_hal_uart.c ****         }
 752:./Libraries/STM32F4xx_HAL_Driver/Src/stm32f4xx_hal_uart.c ****         if(huart->Init.Parity == UART_PARITY_NONE)
 1124              		.loc 1 752 23
 1125 00f4 FB68     		ldr	r3, [r7, #12]
 1126 00f6 1B69     		ldr	r3, [r3, #16]
 1127              		.loc 1 752 11
 1128 00f8 002B     		cmp	r3, #0
 1129 00fa 08D1     		bne	.L46
 753:./Libraries/STM32F4xx_HAL_Driver/Src/stm32f4xx_hal_uart.c ****         {
 754:./Libraries/STM32F4xx_HAL_Driver/Src/stm32f4xx_hal_uart.c ****           *pData++ = (uint8_t)(huart->Instance->DR & (uint8_t)0x00FF);
 1130              		.loc 1 754 37
 1131 00fc FB68     		ldr	r3, [r7, #12]
 1132 00fe 1B68     		ldr	r3, [r3]
 1133              		.loc 1 754 47
 1134 0100 5968     		ldr	r1, [r3, #4]
 1135              		.loc 1 754 17
 1136 0102 BB68     		ldr	r3, [r7, #8]
 1137 0104 5A1C     		adds	r2, r3, #1
 1138 0106 BA60     		str	r2, [r7, #8]
 1139              		.loc 1 754 22
 1140 0108 CAB2     		uxtb	r2, r1
 1141              		.loc 1 754 20
 1142 010a 1A70     		strb	r2, [r3]
ARM GAS  /tmp/ccOBznmR.s 			page 34


 1143 010c 0AE0     		b	.L41
 1144              	.L46:
 755:./Libraries/STM32F4xx_HAL_Driver/Src/stm32f4xx_hal_uart.c ****         }
 756:./Libraries/STM32F4xx_HAL_Driver/Src/stm32f4xx_hal_uart.c ****         else
 757:./Libraries/STM32F4xx_HAL_Driver/Src/stm32f4xx_hal_uart.c ****         {
 758:./Libraries/STM32F4xx_HAL_Driver/Src/stm32f4xx_hal_uart.c ****           *pData++ = (uint8_t)(huart->Instance->DR & (uint8_t)0x007F);
 1145              		.loc 1 758 37
 1146 010e FB68     		ldr	r3, [r7, #12]
 1147 0110 1B68     		ldr	r3, [r3]
 1148              		.loc 1 758 47
 1149 0112 5B68     		ldr	r3, [r3, #4]
 1150              		.loc 1 758 22
 1151 0114 DAB2     		uxtb	r2, r3
 1152              		.loc 1 758 17
 1153 0116 BB68     		ldr	r3, [r7, #8]
 1154 0118 591C     		adds	r1, r3, #1
 1155 011a B960     		str	r1, [r7, #8]
 1156              		.loc 1 758 22
 1157 011c 02F07F02 		and	r2, r2, #127
 1158 0120 D2B2     		uxtb	r2, r2
 1159              		.loc 1 758 20
 1160 0122 1A70     		strb	r2, [r3]
 1161              	.L41:
 724:./Libraries/STM32F4xx_HAL_Driver/Src/stm32f4xx_hal_uart.c ****     {
 1162              		.loc 1 724 16
 1163 0124 FB68     		ldr	r3, [r7, #12]
 1164 0126 DB8D     		ldrh	r3, [r3, #46]	@ movhi
 1165 0128 9BB2     		uxth	r3, r3
 724:./Libraries/STM32F4xx_HAL_Driver/Src/stm32f4xx_hal_uart.c ****     {
 1166              		.loc 1 724 10
 1167 012a 002B     		cmp	r3, #0
 1168 012c 9DD1     		bne	.L47
 759:./Libraries/STM32F4xx_HAL_Driver/Src/stm32f4xx_hal_uart.c ****         }
 760:./Libraries/STM32F4xx_HAL_Driver/Src/stm32f4xx_hal_uart.c ****         
 761:./Libraries/STM32F4xx_HAL_Driver/Src/stm32f4xx_hal_uart.c ****       }
 762:./Libraries/STM32F4xx_HAL_Driver/Src/stm32f4xx_hal_uart.c ****     }
 763:./Libraries/STM32F4xx_HAL_Driver/Src/stm32f4xx_hal_uart.c ****     
 764:./Libraries/STM32F4xx_HAL_Driver/Src/stm32f4xx_hal_uart.c ****     /* At end of Rx process, restore huart->RxState to Ready */
 765:./Libraries/STM32F4xx_HAL_Driver/Src/stm32f4xx_hal_uart.c ****     huart->RxState = HAL_UART_STATE_READY;
 1169              		.loc 1 765 20
 1170 012e FB68     		ldr	r3, [r7, #12]
 1171 0130 2022     		movs	r2, #32
 1172 0132 83F83A20 		strb	r2, [r3, #58]
 766:./Libraries/STM32F4xx_HAL_Driver/Src/stm32f4xx_hal_uart.c ****     
 767:./Libraries/STM32F4xx_HAL_Driver/Src/stm32f4xx_hal_uart.c ****     /* Process Unlocked */
 768:./Libraries/STM32F4xx_HAL_Driver/Src/stm32f4xx_hal_uart.c ****     __HAL_UNLOCK(huart);
 1173              		.loc 1 768 5
 1174 0136 FB68     		ldr	r3, [r7, #12]
 1175 0138 0022     		movs	r2, #0
 1176 013a 83F83820 		strb	r2, [r3, #56]
 769:./Libraries/STM32F4xx_HAL_Driver/Src/stm32f4xx_hal_uart.c ****     
 770:./Libraries/STM32F4xx_HAL_Driver/Src/stm32f4xx_hal_uart.c ****     return HAL_OK;
 1177              		.loc 1 770 12
 1178 013e 0023     		movs	r3, #0
 1179 0140 00E0     		b	.L39
 1180              	.L36:
 771:./Libraries/STM32F4xx_HAL_Driver/Src/stm32f4xx_hal_uart.c ****   }
ARM GAS  /tmp/ccOBznmR.s 			page 35


 772:./Libraries/STM32F4xx_HAL_Driver/Src/stm32f4xx_hal_uart.c ****   else
 773:./Libraries/STM32F4xx_HAL_Driver/Src/stm32f4xx_hal_uart.c ****   {
 774:./Libraries/STM32F4xx_HAL_Driver/Src/stm32f4xx_hal_uart.c ****     return HAL_BUSY;   
 1181              		.loc 1 774 12
 1182 0142 0223     		movs	r3, #2
 1183              	.L39:
 775:./Libraries/STM32F4xx_HAL_Driver/Src/stm32f4xx_hal_uart.c ****   }
 776:./Libraries/STM32F4xx_HAL_Driver/Src/stm32f4xx_hal_uart.c **** }
 1184              		.loc 1 776 1
 1185 0144 1846     		mov	r0, r3
 1186 0146 1837     		adds	r7, r7, #24
 1187              	.LCFI45:
 1188              		.cfi_def_cfa_offset 8
 1189 0148 BD46     		mov	sp, r7
 1190              	.LCFI46:
 1191              		.cfi_def_cfa_register 13
 1192              		@ sp needed
 1193 014a 80BD     		pop	{r7, pc}
 1194              		.cfi_endproc
 1195              	.LFE134:
 1197              		.section	.text.HAL_UART_Transmit_IT,"ax",%progbits
 1198              		.align	1
 1199              		.global	HAL_UART_Transmit_IT
 1200              		.syntax unified
 1201              		.thumb
 1202              		.thumb_func
 1203              		.fpu fpv4-sp-d16
 1205              	HAL_UART_Transmit_IT:
 1206              	.LFB135:
 777:./Libraries/STM32F4xx_HAL_Driver/Src/stm32f4xx_hal_uart.c **** 
 778:./Libraries/STM32F4xx_HAL_Driver/Src/stm32f4xx_hal_uart.c **** /**
 779:./Libraries/STM32F4xx_HAL_Driver/Src/stm32f4xx_hal_uart.c ****   * @brief  Sends an amount of data in non blocking mode.
 780:./Libraries/STM32F4xx_HAL_Driver/Src/stm32f4xx_hal_uart.c ****   * @param  huart pointer to a UART_HandleTypeDef structure that contains
 781:./Libraries/STM32F4xx_HAL_Driver/Src/stm32f4xx_hal_uart.c ****   *                the configuration information for the specified UART module.
 782:./Libraries/STM32F4xx_HAL_Driver/Src/stm32f4xx_hal_uart.c ****   * @param  pData Pointer to data buffer
 783:./Libraries/STM32F4xx_HAL_Driver/Src/stm32f4xx_hal_uart.c ****   * @param  Size Amount of data to be sent
 784:./Libraries/STM32F4xx_HAL_Driver/Src/stm32f4xx_hal_uart.c ****   * @retval HAL status
 785:./Libraries/STM32F4xx_HAL_Driver/Src/stm32f4xx_hal_uart.c ****   */
 786:./Libraries/STM32F4xx_HAL_Driver/Src/stm32f4xx_hal_uart.c **** HAL_StatusTypeDef HAL_UART_Transmit_IT(UART_HandleTypeDef *huart, uint8_t *pData, uint16_t Size)
 787:./Libraries/STM32F4xx_HAL_Driver/Src/stm32f4xx_hal_uart.c **** {
 1207              		.loc 1 787 1
 1208              		.cfi_startproc
 1209              		@ args = 0, pretend = 0, frame = 16
 1210              		@ frame_needed = 1, uses_anonymous_args = 0
 1211              		@ link register save eliminated.
 1212 0000 80B4     		push	{r7}
 1213              	.LCFI47:
 1214              		.cfi_def_cfa_offset 4
 1215              		.cfi_offset 7, -4
 1216 0002 85B0     		sub	sp, sp, #20
 1217              	.LCFI48:
 1218              		.cfi_def_cfa_offset 24
 1219 0004 00AF     		add	r7, sp, #0
 1220              	.LCFI49:
 1221              		.cfi_def_cfa_register 7
 1222 0006 F860     		str	r0, [r7, #12]
 1223 0008 B960     		str	r1, [r7, #8]
ARM GAS  /tmp/ccOBznmR.s 			page 36


 1224 000a 1346     		mov	r3, r2
 1225 000c FB80     		strh	r3, [r7, #6]	@ movhi
 788:./Libraries/STM32F4xx_HAL_Driver/Src/stm32f4xx_hal_uart.c ****   /* Check that a Tx process is not already ongoing */
 789:./Libraries/STM32F4xx_HAL_Driver/Src/stm32f4xx_hal_uart.c ****   if(huart->gState == HAL_UART_STATE_READY)
 1226              		.loc 1 789 11
 1227 000e FB68     		ldr	r3, [r7, #12]
 1228 0010 93F83930 		ldrb	r3, [r3, #57]
 1229 0014 DBB2     		uxtb	r3, r3
 1230              		.loc 1 789 5
 1231 0016 202B     		cmp	r3, #32
 1232 0018 30D1     		bne	.L49
 790:./Libraries/STM32F4xx_HAL_Driver/Src/stm32f4xx_hal_uart.c ****   {
 791:./Libraries/STM32F4xx_HAL_Driver/Src/stm32f4xx_hal_uart.c ****     if((pData == NULL ) || (Size == 0)) 
 1233              		.loc 1 791 7
 1234 001a BB68     		ldr	r3, [r7, #8]
 1235 001c 002B     		cmp	r3, #0
 1236 001e 02D0     		beq	.L50
 1237              		.loc 1 791 25 discriminator 1
 1238 0020 FB88     		ldrh	r3, [r7, #6]
 1239 0022 002B     		cmp	r3, #0
 1240 0024 01D1     		bne	.L51
 1241              	.L50:
 792:./Libraries/STM32F4xx_HAL_Driver/Src/stm32f4xx_hal_uart.c ****     {
 793:./Libraries/STM32F4xx_HAL_Driver/Src/stm32f4xx_hal_uart.c ****       return HAL_ERROR;
 1242              		.loc 1 793 14
 1243 0026 0123     		movs	r3, #1
 1244 0028 29E0     		b	.L52
 1245              	.L51:
 794:./Libraries/STM32F4xx_HAL_Driver/Src/stm32f4xx_hal_uart.c ****     }
 795:./Libraries/STM32F4xx_HAL_Driver/Src/stm32f4xx_hal_uart.c ****     
 796:./Libraries/STM32F4xx_HAL_Driver/Src/stm32f4xx_hal_uart.c ****     /* Process Locked */
 797:./Libraries/STM32F4xx_HAL_Driver/Src/stm32f4xx_hal_uart.c ****     __HAL_LOCK(huart);
 1246              		.loc 1 797 5
 1247 002a FB68     		ldr	r3, [r7, #12]
 1248 002c 93F83830 		ldrb	r3, [r3, #56]	@ zero_extendqisi2
 1249 0030 012B     		cmp	r3, #1
 1250 0032 01D1     		bne	.L53
 1251              		.loc 1 797 5 is_stmt 0 discriminator 1
 1252 0034 0223     		movs	r3, #2
 1253 0036 22E0     		b	.L52
 1254              	.L53:
 1255              		.loc 1 797 5 discriminator 2
 1256 0038 FB68     		ldr	r3, [r7, #12]
 1257 003a 0122     		movs	r2, #1
 1258 003c 83F83820 		strb	r2, [r3, #56]
 798:./Libraries/STM32F4xx_HAL_Driver/Src/stm32f4xx_hal_uart.c ****     
 799:./Libraries/STM32F4xx_HAL_Driver/Src/stm32f4xx_hal_uart.c ****     huart->pTxBuffPtr = pData;
 1259              		.loc 1 799 23 is_stmt 1 discriminator 2
 1260 0040 FB68     		ldr	r3, [r7, #12]
 1261 0042 BA68     		ldr	r2, [r7, #8]
 1262 0044 1A62     		str	r2, [r3, #32]
 800:./Libraries/STM32F4xx_HAL_Driver/Src/stm32f4xx_hal_uart.c ****     huart->TxXferSize = Size;
 1263              		.loc 1 800 23 discriminator 2
 1264 0046 FB68     		ldr	r3, [r7, #12]
 1265 0048 FA88     		ldrh	r2, [r7, #6]	@ movhi
 1266 004a 9A84     		strh	r2, [r3, #36]	@ movhi
 801:./Libraries/STM32F4xx_HAL_Driver/Src/stm32f4xx_hal_uart.c ****     huart->TxXferCount = Size;
ARM GAS  /tmp/ccOBznmR.s 			page 37


 1267              		.loc 1 801 24 discriminator 2
 1268 004c FB68     		ldr	r3, [r7, #12]
 1269 004e FA88     		ldrh	r2, [r7, #6]	@ movhi
 1270 0050 DA84     		strh	r2, [r3, #38]	@ movhi
 802:./Libraries/STM32F4xx_HAL_Driver/Src/stm32f4xx_hal_uart.c **** 
 803:./Libraries/STM32F4xx_HAL_Driver/Src/stm32f4xx_hal_uart.c ****     huart->ErrorCode = HAL_UART_ERROR_NONE;
 1271              		.loc 1 803 22 discriminator 2
 1272 0052 FB68     		ldr	r3, [r7, #12]
 1273 0054 0022     		movs	r2, #0
 1274 0056 DA63     		str	r2, [r3, #60]
 804:./Libraries/STM32F4xx_HAL_Driver/Src/stm32f4xx_hal_uart.c ****     huart->gState = HAL_UART_STATE_BUSY_TX;
 1275              		.loc 1 804 19 discriminator 2
 1276 0058 FB68     		ldr	r3, [r7, #12]
 1277 005a 2122     		movs	r2, #33
 1278 005c 83F83920 		strb	r2, [r3, #57]
 805:./Libraries/STM32F4xx_HAL_Driver/Src/stm32f4xx_hal_uart.c **** 
 806:./Libraries/STM32F4xx_HAL_Driver/Src/stm32f4xx_hal_uart.c ****     /* Process Unlocked */
 807:./Libraries/STM32F4xx_HAL_Driver/Src/stm32f4xx_hal_uart.c ****     __HAL_UNLOCK(huart);
 1279              		.loc 1 807 5 discriminator 2
 1280 0060 FB68     		ldr	r3, [r7, #12]
 1281 0062 0022     		movs	r2, #0
 1282 0064 83F83820 		strb	r2, [r3, #56]
 808:./Libraries/STM32F4xx_HAL_Driver/Src/stm32f4xx_hal_uart.c **** 
 809:./Libraries/STM32F4xx_HAL_Driver/Src/stm32f4xx_hal_uart.c ****     /* Enable the UART Transmit data register empty Interrupt */
 810:./Libraries/STM32F4xx_HAL_Driver/Src/stm32f4xx_hal_uart.c ****     SET_BIT(huart->Instance->CR1, USART_CR1_TXEIE);
 1283              		.loc 1 810 5 discriminator 2
 1284 0068 FB68     		ldr	r3, [r7, #12]
 1285 006a 1B68     		ldr	r3, [r3]
 1286 006c DA68     		ldr	r2, [r3, #12]
 1287 006e FB68     		ldr	r3, [r7, #12]
 1288 0070 1B68     		ldr	r3, [r3]
 1289 0072 42F08002 		orr	r2, r2, #128
 1290 0076 DA60     		str	r2, [r3, #12]
 811:./Libraries/STM32F4xx_HAL_Driver/Src/stm32f4xx_hal_uart.c ****     
 812:./Libraries/STM32F4xx_HAL_Driver/Src/stm32f4xx_hal_uart.c ****     return HAL_OK;
 1291              		.loc 1 812 12 discriminator 2
 1292 0078 0023     		movs	r3, #0
 1293 007a 00E0     		b	.L52
 1294              	.L49:
 813:./Libraries/STM32F4xx_HAL_Driver/Src/stm32f4xx_hal_uart.c ****   }
 814:./Libraries/STM32F4xx_HAL_Driver/Src/stm32f4xx_hal_uart.c ****   else
 815:./Libraries/STM32F4xx_HAL_Driver/Src/stm32f4xx_hal_uart.c ****   {
 816:./Libraries/STM32F4xx_HAL_Driver/Src/stm32f4xx_hal_uart.c ****     return HAL_BUSY;   
 1295              		.loc 1 816 12
 1296 007c 0223     		movs	r3, #2
 1297              	.L52:
 817:./Libraries/STM32F4xx_HAL_Driver/Src/stm32f4xx_hal_uart.c ****   }
 818:./Libraries/STM32F4xx_HAL_Driver/Src/stm32f4xx_hal_uart.c **** }
 1298              		.loc 1 818 1
 1299 007e 1846     		mov	r0, r3
 1300 0080 1437     		adds	r7, r7, #20
 1301              	.LCFI50:
 1302              		.cfi_def_cfa_offset 4
 1303 0082 BD46     		mov	sp, r7
 1304              	.LCFI51:
 1305              		.cfi_def_cfa_register 13
 1306              		@ sp needed
ARM GAS  /tmp/ccOBznmR.s 			page 38


 1307 0084 5DF8047B 		ldr	r7, [sp], #4
 1308              	.LCFI52:
 1309              		.cfi_restore 7
 1310              		.cfi_def_cfa_offset 0
 1311 0088 7047     		bx	lr
 1312              		.cfi_endproc
 1313              	.LFE135:
 1315              		.section	.text.HAL_UART_Receive_IT,"ax",%progbits
 1316              		.align	1
 1317              		.global	HAL_UART_Receive_IT
 1318              		.syntax unified
 1319              		.thumb
 1320              		.thumb_func
 1321              		.fpu fpv4-sp-d16
 1323              	HAL_UART_Receive_IT:
 1324              	.LFB136:
 819:./Libraries/STM32F4xx_HAL_Driver/Src/stm32f4xx_hal_uart.c **** 
 820:./Libraries/STM32F4xx_HAL_Driver/Src/stm32f4xx_hal_uart.c **** /**
 821:./Libraries/STM32F4xx_HAL_Driver/Src/stm32f4xx_hal_uart.c ****   * @brief  Receives an amount of data in non blocking mode 
 822:./Libraries/STM32F4xx_HAL_Driver/Src/stm32f4xx_hal_uart.c ****   * @param  huart pointer to a UART_HandleTypeDef structure that contains
 823:./Libraries/STM32F4xx_HAL_Driver/Src/stm32f4xx_hal_uart.c ****   *                the configuration information for the specified UART module.
 824:./Libraries/STM32F4xx_HAL_Driver/Src/stm32f4xx_hal_uart.c ****   * @param  pData Pointer to data buffer
 825:./Libraries/STM32F4xx_HAL_Driver/Src/stm32f4xx_hal_uart.c ****   * @param  Size Amount of data to be received
 826:./Libraries/STM32F4xx_HAL_Driver/Src/stm32f4xx_hal_uart.c ****   * @retval HAL status
 827:./Libraries/STM32F4xx_HAL_Driver/Src/stm32f4xx_hal_uart.c ****   */
 828:./Libraries/STM32F4xx_HAL_Driver/Src/stm32f4xx_hal_uart.c **** HAL_StatusTypeDef HAL_UART_Receive_IT(UART_HandleTypeDef *huart, uint8_t *pData, uint16_t Size)
 829:./Libraries/STM32F4xx_HAL_Driver/Src/stm32f4xx_hal_uart.c **** {
 1325              		.loc 1 829 1
 1326              		.cfi_startproc
 1327              		@ args = 0, pretend = 0, frame = 16
 1328              		@ frame_needed = 1, uses_anonymous_args = 0
 1329              		@ link register save eliminated.
 1330 0000 80B4     		push	{r7}
 1331              	.LCFI53:
 1332              		.cfi_def_cfa_offset 4
 1333              		.cfi_offset 7, -4
 1334 0002 85B0     		sub	sp, sp, #20
 1335              	.LCFI54:
 1336              		.cfi_def_cfa_offset 24
 1337 0004 00AF     		add	r7, sp, #0
 1338              	.LCFI55:
 1339              		.cfi_def_cfa_register 7
 1340 0006 F860     		str	r0, [r7, #12]
 1341 0008 B960     		str	r1, [r7, #8]
 1342 000a 1346     		mov	r3, r2
 1343 000c FB80     		strh	r3, [r7, #6]	@ movhi
 830:./Libraries/STM32F4xx_HAL_Driver/Src/stm32f4xx_hal_uart.c ****   /* Check that a Rx process is not already ongoing */ 
 831:./Libraries/STM32F4xx_HAL_Driver/Src/stm32f4xx_hal_uart.c ****   if(huart->RxState == HAL_UART_STATE_READY)
 1344              		.loc 1 831 11
 1345 000e FB68     		ldr	r3, [r7, #12]
 1346 0010 93F83A30 		ldrb	r3, [r3, #58]
 1347 0014 DBB2     		uxtb	r3, r3
 1348              		.loc 1 831 5
 1349 0016 202B     		cmp	r3, #32
 1350 0018 38D1     		bne	.L55
 832:./Libraries/STM32F4xx_HAL_Driver/Src/stm32f4xx_hal_uart.c ****   {
 833:./Libraries/STM32F4xx_HAL_Driver/Src/stm32f4xx_hal_uart.c ****     if((pData == NULL ) || (Size == 0)) 
ARM GAS  /tmp/ccOBznmR.s 			page 39


 1351              		.loc 1 833 7
 1352 001a BB68     		ldr	r3, [r7, #8]
 1353 001c 002B     		cmp	r3, #0
 1354 001e 02D0     		beq	.L56
 1355              		.loc 1 833 25 discriminator 1
 1356 0020 FB88     		ldrh	r3, [r7, #6]
 1357 0022 002B     		cmp	r3, #0
 1358 0024 01D1     		bne	.L57
 1359              	.L56:
 834:./Libraries/STM32F4xx_HAL_Driver/Src/stm32f4xx_hal_uart.c ****     {
 835:./Libraries/STM32F4xx_HAL_Driver/Src/stm32f4xx_hal_uart.c ****       return HAL_ERROR;
 1360              		.loc 1 835 14
 1361 0026 0123     		movs	r3, #1
 1362 0028 31E0     		b	.L58
 1363              	.L57:
 836:./Libraries/STM32F4xx_HAL_Driver/Src/stm32f4xx_hal_uart.c ****     }
 837:./Libraries/STM32F4xx_HAL_Driver/Src/stm32f4xx_hal_uart.c ****     
 838:./Libraries/STM32F4xx_HAL_Driver/Src/stm32f4xx_hal_uart.c ****     /* Process Locked */
 839:./Libraries/STM32F4xx_HAL_Driver/Src/stm32f4xx_hal_uart.c ****     __HAL_LOCK(huart);
 1364              		.loc 1 839 5
 1365 002a FB68     		ldr	r3, [r7, #12]
 1366 002c 93F83830 		ldrb	r3, [r3, #56]	@ zero_extendqisi2
 1367 0030 012B     		cmp	r3, #1
 1368 0032 01D1     		bne	.L59
 1369              		.loc 1 839 5 is_stmt 0 discriminator 1
 1370 0034 0223     		movs	r3, #2
 1371 0036 2AE0     		b	.L58
 1372              	.L59:
 1373              		.loc 1 839 5 discriminator 2
 1374 0038 FB68     		ldr	r3, [r7, #12]
 1375 003a 0122     		movs	r2, #1
 1376 003c 83F83820 		strb	r2, [r3, #56]
 840:./Libraries/STM32F4xx_HAL_Driver/Src/stm32f4xx_hal_uart.c ****     
 841:./Libraries/STM32F4xx_HAL_Driver/Src/stm32f4xx_hal_uart.c ****     huart->pRxBuffPtr = pData;
 1377              		.loc 1 841 23 is_stmt 1 discriminator 2
 1378 0040 FB68     		ldr	r3, [r7, #12]
 1379 0042 BA68     		ldr	r2, [r7, #8]
 1380 0044 9A62     		str	r2, [r3, #40]
 842:./Libraries/STM32F4xx_HAL_Driver/Src/stm32f4xx_hal_uart.c ****     huart->RxXferSize = Size;
 1381              		.loc 1 842 23 discriminator 2
 1382 0046 FB68     		ldr	r3, [r7, #12]
 1383 0048 FA88     		ldrh	r2, [r7, #6]	@ movhi
 1384 004a 9A85     		strh	r2, [r3, #44]	@ movhi
 843:./Libraries/STM32F4xx_HAL_Driver/Src/stm32f4xx_hal_uart.c ****     huart->RxXferCount = Size;
 1385              		.loc 1 843 24 discriminator 2
 1386 004c FB68     		ldr	r3, [r7, #12]
 1387 004e FA88     		ldrh	r2, [r7, #6]	@ movhi
 1388 0050 DA85     		strh	r2, [r3, #46]	@ movhi
 844:./Libraries/STM32F4xx_HAL_Driver/Src/stm32f4xx_hal_uart.c ****     
 845:./Libraries/STM32F4xx_HAL_Driver/Src/stm32f4xx_hal_uart.c ****     huart->ErrorCode = HAL_UART_ERROR_NONE;
 1389              		.loc 1 845 22 discriminator 2
 1390 0052 FB68     		ldr	r3, [r7, #12]
 1391 0054 0022     		movs	r2, #0
 1392 0056 DA63     		str	r2, [r3, #60]
 846:./Libraries/STM32F4xx_HAL_Driver/Src/stm32f4xx_hal_uart.c ****     huart->RxState = HAL_UART_STATE_BUSY_RX;
 1393              		.loc 1 846 20 discriminator 2
 1394 0058 FB68     		ldr	r3, [r7, #12]
ARM GAS  /tmp/ccOBznmR.s 			page 40


 1395 005a 2222     		movs	r2, #34
 1396 005c 83F83A20 		strb	r2, [r3, #58]
 847:./Libraries/STM32F4xx_HAL_Driver/Src/stm32f4xx_hal_uart.c ****     
 848:./Libraries/STM32F4xx_HAL_Driver/Src/stm32f4xx_hal_uart.c ****     /* Process Unlocked */
 849:./Libraries/STM32F4xx_HAL_Driver/Src/stm32f4xx_hal_uart.c ****     __HAL_UNLOCK(huart);
 1397              		.loc 1 849 5 discriminator 2
 1398 0060 FB68     		ldr	r3, [r7, #12]
 1399 0062 0022     		movs	r2, #0
 1400 0064 83F83820 		strb	r2, [r3, #56]
 850:./Libraries/STM32F4xx_HAL_Driver/Src/stm32f4xx_hal_uart.c ****         
 851:./Libraries/STM32F4xx_HAL_Driver/Src/stm32f4xx_hal_uart.c ****     /* Enable the UART Error Interrupt: (Frame error, noise error, overrun error) */
 852:./Libraries/STM32F4xx_HAL_Driver/Src/stm32f4xx_hal_uart.c ****     SET_BIT(huart->Instance->CR3, USART_CR3_EIE);
 1401              		.loc 1 852 5 discriminator 2
 1402 0068 FB68     		ldr	r3, [r7, #12]
 1403 006a 1B68     		ldr	r3, [r3]
 1404 006c 5A69     		ldr	r2, [r3, #20]
 1405 006e FB68     		ldr	r3, [r7, #12]
 1406 0070 1B68     		ldr	r3, [r3]
 1407 0072 42F00102 		orr	r2, r2, #1
 1408 0076 5A61     		str	r2, [r3, #20]
 853:./Libraries/STM32F4xx_HAL_Driver/Src/stm32f4xx_hal_uart.c **** 
 854:./Libraries/STM32F4xx_HAL_Driver/Src/stm32f4xx_hal_uart.c ****     /* Enable the UART Parity Error and Data Register not empty Interrupts */
 855:./Libraries/STM32F4xx_HAL_Driver/Src/stm32f4xx_hal_uart.c ****     SET_BIT(huart->Instance->CR1, USART_CR1_PEIE | USART_CR1_RXNEIE);
 1409              		.loc 1 855 5 discriminator 2
 1410 0078 FB68     		ldr	r3, [r7, #12]
 1411 007a 1B68     		ldr	r3, [r3]
 1412 007c DA68     		ldr	r2, [r3, #12]
 1413 007e FB68     		ldr	r3, [r7, #12]
 1414 0080 1B68     		ldr	r3, [r3]
 1415 0082 42F49072 		orr	r2, r2, #288
 1416 0086 DA60     		str	r2, [r3, #12]
 856:./Libraries/STM32F4xx_HAL_Driver/Src/stm32f4xx_hal_uart.c ****     
 857:./Libraries/STM32F4xx_HAL_Driver/Src/stm32f4xx_hal_uart.c ****     return HAL_OK;
 1417              		.loc 1 857 12 discriminator 2
 1418 0088 0023     		movs	r3, #0
 1419 008a 00E0     		b	.L58
 1420              	.L55:
 858:./Libraries/STM32F4xx_HAL_Driver/Src/stm32f4xx_hal_uart.c ****   }
 859:./Libraries/STM32F4xx_HAL_Driver/Src/stm32f4xx_hal_uart.c ****   else
 860:./Libraries/STM32F4xx_HAL_Driver/Src/stm32f4xx_hal_uart.c ****   {
 861:./Libraries/STM32F4xx_HAL_Driver/Src/stm32f4xx_hal_uart.c ****     return HAL_BUSY; 
 1421              		.loc 1 861 12
 1422 008c 0223     		movs	r3, #2
 1423              	.L58:
 862:./Libraries/STM32F4xx_HAL_Driver/Src/stm32f4xx_hal_uart.c ****   }
 863:./Libraries/STM32F4xx_HAL_Driver/Src/stm32f4xx_hal_uart.c **** }
 1424              		.loc 1 863 1
 1425 008e 1846     		mov	r0, r3
 1426 0090 1437     		adds	r7, r7, #20
 1427              	.LCFI56:
 1428              		.cfi_def_cfa_offset 4
 1429 0092 BD46     		mov	sp, r7
 1430              	.LCFI57:
 1431              		.cfi_def_cfa_register 13
 1432              		@ sp needed
 1433 0094 5DF8047B 		ldr	r7, [sp], #4
 1434              	.LCFI58:
ARM GAS  /tmp/ccOBznmR.s 			page 41


 1435              		.cfi_restore 7
 1436              		.cfi_def_cfa_offset 0
 1437 0098 7047     		bx	lr
 1438              		.cfi_endproc
 1439              	.LFE136:
 1441              		.section	.text.HAL_UART_Transmit_DMA,"ax",%progbits
 1442              		.align	1
 1443              		.global	HAL_UART_Transmit_DMA
 1444              		.syntax unified
 1445              		.thumb
 1446              		.thumb_func
 1447              		.fpu fpv4-sp-d16
 1449              	HAL_UART_Transmit_DMA:
 1450              	.LFB137:
 864:./Libraries/STM32F4xx_HAL_Driver/Src/stm32f4xx_hal_uart.c **** 
 865:./Libraries/STM32F4xx_HAL_Driver/Src/stm32f4xx_hal_uart.c **** /**
 866:./Libraries/STM32F4xx_HAL_Driver/Src/stm32f4xx_hal_uart.c ****   * @brief  Sends an amount of data in non blocking mode. 
 867:./Libraries/STM32F4xx_HAL_Driver/Src/stm32f4xx_hal_uart.c ****   * @param  huart pointer to a UART_HandleTypeDef structure that contains
 868:./Libraries/STM32F4xx_HAL_Driver/Src/stm32f4xx_hal_uart.c ****   *                the configuration information for the specified UART module.
 869:./Libraries/STM32F4xx_HAL_Driver/Src/stm32f4xx_hal_uart.c ****   * @param  pData Pointer to data buffer
 870:./Libraries/STM32F4xx_HAL_Driver/Src/stm32f4xx_hal_uart.c ****   * @param  Size Amount of data to be sent
 871:./Libraries/STM32F4xx_HAL_Driver/Src/stm32f4xx_hal_uart.c ****   * @retval HAL status
 872:./Libraries/STM32F4xx_HAL_Driver/Src/stm32f4xx_hal_uart.c ****   */
 873:./Libraries/STM32F4xx_HAL_Driver/Src/stm32f4xx_hal_uart.c **** HAL_StatusTypeDef HAL_UART_Transmit_DMA(UART_HandleTypeDef *huart, uint8_t *pData, uint16_t Size)
 874:./Libraries/STM32F4xx_HAL_Driver/Src/stm32f4xx_hal_uart.c **** {
 1451              		.loc 1 874 1
 1452              		.cfi_startproc
 1453              		@ args = 0, pretend = 0, frame = 24
 1454              		@ frame_needed = 1, uses_anonymous_args = 0
 1455 0000 80B5     		push	{r7, lr}
 1456              	.LCFI59:
 1457              		.cfi_def_cfa_offset 8
 1458              		.cfi_offset 7, -8
 1459              		.cfi_offset 14, -4
 1460 0002 86B0     		sub	sp, sp, #24
 1461              	.LCFI60:
 1462              		.cfi_def_cfa_offset 32
 1463 0004 00AF     		add	r7, sp, #0
 1464              	.LCFI61:
 1465              		.cfi_def_cfa_register 7
 1466 0006 F860     		str	r0, [r7, #12]
 1467 0008 B960     		str	r1, [r7, #8]
 1468 000a 1346     		mov	r3, r2
 1469 000c FB80     		strh	r3, [r7, #6]	@ movhi
 875:./Libraries/STM32F4xx_HAL_Driver/Src/stm32f4xx_hal_uart.c ****   uint32_t *tmp;
 876:./Libraries/STM32F4xx_HAL_Driver/Src/stm32f4xx_hal_uart.c ****   
 877:./Libraries/STM32F4xx_HAL_Driver/Src/stm32f4xx_hal_uart.c ****   /* Check that a Tx process is not already ongoing */
 878:./Libraries/STM32F4xx_HAL_Driver/Src/stm32f4xx_hal_uart.c ****   if(huart->gState == HAL_UART_STATE_READY)
 1470              		.loc 1 878 11
 1471 000e FB68     		ldr	r3, [r7, #12]
 1472 0010 93F83930 		ldrb	r3, [r3, #57]
 1473 0014 DBB2     		uxtb	r3, r3
 1474              		.loc 1 878 5
 1475 0016 202B     		cmp	r3, #32
 1476 0018 53D1     		bne	.L61
 879:./Libraries/STM32F4xx_HAL_Driver/Src/stm32f4xx_hal_uart.c ****   {
 880:./Libraries/STM32F4xx_HAL_Driver/Src/stm32f4xx_hal_uart.c ****     if((pData == NULL ) || (Size == 0))
ARM GAS  /tmp/ccOBznmR.s 			page 42


 1477              		.loc 1 880 15
 1478 001a BB68     		ldr	r3, [r7, #8]
 1479              		.loc 1 880 7
 1480 001c 002B     		cmp	r3, #0
 1481 001e 02D0     		beq	.L62
 1482              		.loc 1 880 25 discriminator 1
 1483 0020 FB88     		ldrh	r3, [r7, #6]
 1484 0022 002B     		cmp	r3, #0
 1485 0024 01D1     		bne	.L63
 1486              	.L62:
 881:./Libraries/STM32F4xx_HAL_Driver/Src/stm32f4xx_hal_uart.c ****     {
 882:./Libraries/STM32F4xx_HAL_Driver/Src/stm32f4xx_hal_uart.c ****       return HAL_ERROR;
 1487              		.loc 1 882 14
 1488 0026 0123     		movs	r3, #1
 1489 0028 4CE0     		b	.L64
 1490              	.L63:
 883:./Libraries/STM32F4xx_HAL_Driver/Src/stm32f4xx_hal_uart.c ****     }
 884:./Libraries/STM32F4xx_HAL_Driver/Src/stm32f4xx_hal_uart.c **** 
 885:./Libraries/STM32F4xx_HAL_Driver/Src/stm32f4xx_hal_uart.c ****     /* Process Locked */
 886:./Libraries/STM32F4xx_HAL_Driver/Src/stm32f4xx_hal_uart.c ****     __HAL_LOCK(huart);
 1491              		.loc 1 886 5
 1492 002a FB68     		ldr	r3, [r7, #12]
 1493 002c 93F83830 		ldrb	r3, [r3, #56]	@ zero_extendqisi2
 1494 0030 012B     		cmp	r3, #1
 1495 0032 01D1     		bne	.L65
 1496              		.loc 1 886 5 is_stmt 0 discriminator 1
 1497 0034 0223     		movs	r3, #2
 1498 0036 45E0     		b	.L64
 1499              	.L65:
 1500              		.loc 1 886 5 discriminator 2
 1501 0038 FB68     		ldr	r3, [r7, #12]
 1502 003a 0122     		movs	r2, #1
 1503 003c 83F83820 		strb	r2, [r3, #56]
 887:./Libraries/STM32F4xx_HAL_Driver/Src/stm32f4xx_hal_uart.c **** 
 888:./Libraries/STM32F4xx_HAL_Driver/Src/stm32f4xx_hal_uart.c ****     huart->pTxBuffPtr = pData;
 1504              		.loc 1 888 23 is_stmt 1 discriminator 2
 1505 0040 BA68     		ldr	r2, [r7, #8]
 1506 0042 FB68     		ldr	r3, [r7, #12]
 1507 0044 1A62     		str	r2, [r3, #32]
 889:./Libraries/STM32F4xx_HAL_Driver/Src/stm32f4xx_hal_uart.c ****     huart->TxXferSize = Size;
 1508              		.loc 1 889 23 discriminator 2
 1509 0046 FB68     		ldr	r3, [r7, #12]
 1510 0048 FA88     		ldrh	r2, [r7, #6]	@ movhi
 1511 004a 9A84     		strh	r2, [r3, #36]	@ movhi
 890:./Libraries/STM32F4xx_HAL_Driver/Src/stm32f4xx_hal_uart.c ****     huart->TxXferCount = Size;
 1512              		.loc 1 890 24 discriminator 2
 1513 004c FB68     		ldr	r3, [r7, #12]
 1514 004e FA88     		ldrh	r2, [r7, #6]	@ movhi
 1515 0050 DA84     		strh	r2, [r3, #38]	@ movhi
 891:./Libraries/STM32F4xx_HAL_Driver/Src/stm32f4xx_hal_uart.c **** 
 892:./Libraries/STM32F4xx_HAL_Driver/Src/stm32f4xx_hal_uart.c ****     huart->ErrorCode = HAL_UART_ERROR_NONE;
 1516              		.loc 1 892 22 discriminator 2
 1517 0052 FB68     		ldr	r3, [r7, #12]
 1518 0054 0022     		movs	r2, #0
 1519 0056 DA63     		str	r2, [r3, #60]
 893:./Libraries/STM32F4xx_HAL_Driver/Src/stm32f4xx_hal_uart.c ****     huart->gState = HAL_UART_STATE_BUSY_TX;
 1520              		.loc 1 893 19 discriminator 2
ARM GAS  /tmp/ccOBznmR.s 			page 43


 1521 0058 FB68     		ldr	r3, [r7, #12]
 1522 005a 2122     		movs	r2, #33
 1523 005c 83F83920 		strb	r2, [r3, #57]
 894:./Libraries/STM32F4xx_HAL_Driver/Src/stm32f4xx_hal_uart.c **** 
 895:./Libraries/STM32F4xx_HAL_Driver/Src/stm32f4xx_hal_uart.c ****     /* Set the UART DMA transfer complete callback */
 896:./Libraries/STM32F4xx_HAL_Driver/Src/stm32f4xx_hal_uart.c ****     huart->hdmatx->XferCpltCallback = UART_DMATransmitCplt;
 1524              		.loc 1 896 10 discriminator 2
 1525 0060 FB68     		ldr	r3, [r7, #12]
 1526 0062 1B6B     		ldr	r3, [r3, #48]
 1527              		.loc 1 896 37 discriminator 2
 1528 0064 194A     		ldr	r2, .L66
 1529 0066 DA63     		str	r2, [r3, #60]
 897:./Libraries/STM32F4xx_HAL_Driver/Src/stm32f4xx_hal_uart.c **** 
 898:./Libraries/STM32F4xx_HAL_Driver/Src/stm32f4xx_hal_uart.c ****     /* Set the UART DMA Half transfer complete callback */
 899:./Libraries/STM32F4xx_HAL_Driver/Src/stm32f4xx_hal_uart.c ****     huart->hdmatx->XferHalfCpltCallback = UART_DMATxHalfCplt;
 1530              		.loc 1 899 10 discriminator 2
 1531 0068 FB68     		ldr	r3, [r7, #12]
 1532 006a 1B6B     		ldr	r3, [r3, #48]
 1533              		.loc 1 899 41 discriminator 2
 1534 006c 184A     		ldr	r2, .L66+4
 1535 006e 1A64     		str	r2, [r3, #64]
 900:./Libraries/STM32F4xx_HAL_Driver/Src/stm32f4xx_hal_uart.c **** 
 901:./Libraries/STM32F4xx_HAL_Driver/Src/stm32f4xx_hal_uart.c ****     /* Set the DMA error callback */
 902:./Libraries/STM32F4xx_HAL_Driver/Src/stm32f4xx_hal_uart.c ****     huart->hdmatx->XferErrorCallback = UART_DMAError;
 1536              		.loc 1 902 10 discriminator 2
 1537 0070 FB68     		ldr	r3, [r7, #12]
 1538 0072 1B6B     		ldr	r3, [r3, #48]
 1539              		.loc 1 902 38 discriminator 2
 1540 0074 174A     		ldr	r2, .L66+8
 1541 0076 DA64     		str	r2, [r3, #76]
 903:./Libraries/STM32F4xx_HAL_Driver/Src/stm32f4xx_hal_uart.c **** 
 904:./Libraries/STM32F4xx_HAL_Driver/Src/stm32f4xx_hal_uart.c ****     /* Set the DMA abort callback */
 905:./Libraries/STM32F4xx_HAL_Driver/Src/stm32f4xx_hal_uart.c ****     huart->hdmatx->XferAbortCallback = NULL;
 1542              		.loc 1 905 10 discriminator 2
 1543 0078 FB68     		ldr	r3, [r7, #12]
 1544 007a 1B6B     		ldr	r3, [r3, #48]
 1545              		.loc 1 905 38 discriminator 2
 1546 007c 0022     		movs	r2, #0
 1547 007e 1A65     		str	r2, [r3, #80]
 906:./Libraries/STM32F4xx_HAL_Driver/Src/stm32f4xx_hal_uart.c **** 
 907:./Libraries/STM32F4xx_HAL_Driver/Src/stm32f4xx_hal_uart.c ****     /* Enable the UART transmit DMA Stream */
 908:./Libraries/STM32F4xx_HAL_Driver/Src/stm32f4xx_hal_uart.c ****     tmp = (uint32_t*)&pData;
 1548              		.loc 1 908 9 discriminator 2
 1549 0080 07F10803 		add	r3, r7, #8
 1550 0084 7B61     		str	r3, [r7, #20]
 909:./Libraries/STM32F4xx_HAL_Driver/Src/stm32f4xx_hal_uart.c ****     HAL_DMA_Start_IT(huart->hdmatx, *(uint32_t*)tmp, (uint32_t)&huart->Instance->DR, Size);
 1551              		.loc 1 909 5 discriminator 2
 1552 0086 FB68     		ldr	r3, [r7, #12]
 1553 0088 186B     		ldr	r0, [r3, #48]
 1554 008a 7B69     		ldr	r3, [r7, #20]
 1555 008c 1968     		ldr	r1, [r3]
 1556              		.loc 1 909 70 discriminator 2
 1557 008e FB68     		ldr	r3, [r7, #12]
 1558 0090 1B68     		ldr	r3, [r3]
 1559              		.loc 1 909 64 discriminator 2
 1560 0092 0433     		adds	r3, r3, #4
 1561              		.loc 1 909 5 discriminator 2
ARM GAS  /tmp/ccOBznmR.s 			page 44


 1562 0094 1A46     		mov	r2, r3
 1563 0096 FB88     		ldrh	r3, [r7, #6]
 1564 0098 FFF7FEFF 		bl	HAL_DMA_Start_IT
 910:./Libraries/STM32F4xx_HAL_Driver/Src/stm32f4xx_hal_uart.c ****     
 911:./Libraries/STM32F4xx_HAL_Driver/Src/stm32f4xx_hal_uart.c ****     /* Clear the TC flag in the SR register by writing 0 to it */
 912:./Libraries/STM32F4xx_HAL_Driver/Src/stm32f4xx_hal_uart.c ****     __HAL_UART_CLEAR_FLAG(huart, UART_FLAG_TC);
 1565              		.loc 1 912 5 discriminator 2
 1566 009c FB68     		ldr	r3, [r7, #12]
 1567 009e 1B68     		ldr	r3, [r3]
 1568 00a0 6FF04002 		mvn	r2, #64
 1569 00a4 1A60     		str	r2, [r3]
 913:./Libraries/STM32F4xx_HAL_Driver/Src/stm32f4xx_hal_uart.c ****     
 914:./Libraries/STM32F4xx_HAL_Driver/Src/stm32f4xx_hal_uart.c ****     /* Process Unlocked */
 915:./Libraries/STM32F4xx_HAL_Driver/Src/stm32f4xx_hal_uart.c ****     __HAL_UNLOCK(huart);
 1570              		.loc 1 915 5 discriminator 2
 1571 00a6 FB68     		ldr	r3, [r7, #12]
 1572 00a8 0022     		movs	r2, #0
 1573 00aa 83F83820 		strb	r2, [r3, #56]
 916:./Libraries/STM32F4xx_HAL_Driver/Src/stm32f4xx_hal_uart.c ****     
 917:./Libraries/STM32F4xx_HAL_Driver/Src/stm32f4xx_hal_uart.c ****     /* Enable the DMA transfer for transmit request by setting the DMAT bit
 918:./Libraries/STM32F4xx_HAL_Driver/Src/stm32f4xx_hal_uart.c ****        in the UART CR3 register */
 919:./Libraries/STM32F4xx_HAL_Driver/Src/stm32f4xx_hal_uart.c ****     SET_BIT(huart->Instance->CR3, USART_CR3_DMAT);
 1574              		.loc 1 919 5 discriminator 2
 1575 00ae FB68     		ldr	r3, [r7, #12]
 1576 00b0 1B68     		ldr	r3, [r3]
 1577 00b2 5A69     		ldr	r2, [r3, #20]
 1578 00b4 FB68     		ldr	r3, [r7, #12]
 1579 00b6 1B68     		ldr	r3, [r3]
 1580 00b8 42F08002 		orr	r2, r2, #128
 1581 00bc 5A61     		str	r2, [r3, #20]
 920:./Libraries/STM32F4xx_HAL_Driver/Src/stm32f4xx_hal_uart.c ****     
 921:./Libraries/STM32F4xx_HAL_Driver/Src/stm32f4xx_hal_uart.c ****     return HAL_OK;
 1582              		.loc 1 921 12 discriminator 2
 1583 00be 0023     		movs	r3, #0
 1584 00c0 00E0     		b	.L64
 1585              	.L61:
 922:./Libraries/STM32F4xx_HAL_Driver/Src/stm32f4xx_hal_uart.c ****   }
 923:./Libraries/STM32F4xx_HAL_Driver/Src/stm32f4xx_hal_uart.c ****   else
 924:./Libraries/STM32F4xx_HAL_Driver/Src/stm32f4xx_hal_uart.c ****   {
 925:./Libraries/STM32F4xx_HAL_Driver/Src/stm32f4xx_hal_uart.c ****     return HAL_BUSY;
 1586              		.loc 1 925 12
 1587 00c2 0223     		movs	r3, #2
 1588              	.L64:
 926:./Libraries/STM32F4xx_HAL_Driver/Src/stm32f4xx_hal_uart.c ****   }
 927:./Libraries/STM32F4xx_HAL_Driver/Src/stm32f4xx_hal_uart.c **** }
 1589              		.loc 1 927 1
 1590 00c4 1846     		mov	r0, r3
 1591 00c6 1837     		adds	r7, r7, #24
 1592              	.LCFI62:
 1593              		.cfi_def_cfa_offset 8
 1594 00c8 BD46     		mov	sp, r7
 1595              	.LCFI63:
 1596              		.cfi_def_cfa_register 13
 1597              		@ sp needed
 1598 00ca 80BD     		pop	{r7, pc}
 1599              	.L67:
 1600              		.align	2
ARM GAS  /tmp/ccOBznmR.s 			page 45


 1601              	.L66:
 1602 00cc 00000000 		.word	UART_DMATransmitCplt
 1603 00d0 00000000 		.word	UART_DMATxHalfCplt
 1604 00d4 00000000 		.word	UART_DMAError
 1605              		.cfi_endproc
 1606              	.LFE137:
 1608              		.section	.text.HAL_UART_Receive_DMA,"ax",%progbits
 1609              		.align	1
 1610              		.global	HAL_UART_Receive_DMA
 1611              		.syntax unified
 1612              		.thumb
 1613              		.thumb_func
 1614              		.fpu fpv4-sp-d16
 1616              	HAL_UART_Receive_DMA:
 1617              	.LFB138:
 928:./Libraries/STM32F4xx_HAL_Driver/Src/stm32f4xx_hal_uart.c **** 
 929:./Libraries/STM32F4xx_HAL_Driver/Src/stm32f4xx_hal_uart.c **** /**
 930:./Libraries/STM32F4xx_HAL_Driver/Src/stm32f4xx_hal_uart.c ****   * @brief  Receives an amount of data in non blocking mode. 
 931:./Libraries/STM32F4xx_HAL_Driver/Src/stm32f4xx_hal_uart.c ****   * @param  huart pointer to a UART_HandleTypeDef structure that contains
 932:./Libraries/STM32F4xx_HAL_Driver/Src/stm32f4xx_hal_uart.c ****   *                the configuration information for the specified UART module.
 933:./Libraries/STM32F4xx_HAL_Driver/Src/stm32f4xx_hal_uart.c ****   * @param  pData Pointer to data buffer
 934:./Libraries/STM32F4xx_HAL_Driver/Src/stm32f4xx_hal_uart.c ****   * @param  Size Amount of data to be received
 935:./Libraries/STM32F4xx_HAL_Driver/Src/stm32f4xx_hal_uart.c ****   * @note   When the UART parity is enabled (PCE = 1) the data received contain the parity bit.
 936:./Libraries/STM32F4xx_HAL_Driver/Src/stm32f4xx_hal_uart.c ****   * @retval HAL status
 937:./Libraries/STM32F4xx_HAL_Driver/Src/stm32f4xx_hal_uart.c ****   */
 938:./Libraries/STM32F4xx_HAL_Driver/Src/stm32f4xx_hal_uart.c **** HAL_StatusTypeDef HAL_UART_Receive_DMA(UART_HandleTypeDef *huart, uint8_t *pData, uint16_t Size)
 939:./Libraries/STM32F4xx_HAL_Driver/Src/stm32f4xx_hal_uart.c **** {  
 1618              		.loc 1 939 1
 1619              		.cfi_startproc
 1620              		@ args = 0, pretend = 0, frame = 24
 1621              		@ frame_needed = 1, uses_anonymous_args = 0
 1622 0000 80B5     		push	{r7, lr}
 1623              	.LCFI64:
 1624              		.cfi_def_cfa_offset 8
 1625              		.cfi_offset 7, -8
 1626              		.cfi_offset 14, -4
 1627 0002 86B0     		sub	sp, sp, #24
 1628              	.LCFI65:
 1629              		.cfi_def_cfa_offset 32
 1630 0004 00AF     		add	r7, sp, #0
 1631              	.LCFI66:
 1632              		.cfi_def_cfa_register 7
 1633 0006 F860     		str	r0, [r7, #12]
 1634 0008 B960     		str	r1, [r7, #8]
 1635 000a 1346     		mov	r3, r2
 1636 000c FB80     		strh	r3, [r7, #6]	@ movhi
 940:./Libraries/STM32F4xx_HAL_Driver/Src/stm32f4xx_hal_uart.c ****   uint32_t *tmp;
 941:./Libraries/STM32F4xx_HAL_Driver/Src/stm32f4xx_hal_uart.c ****   
 942:./Libraries/STM32F4xx_HAL_Driver/Src/stm32f4xx_hal_uart.c ****   /* Check that a Rx process is not already ongoing */
 943:./Libraries/STM32F4xx_HAL_Driver/Src/stm32f4xx_hal_uart.c ****   if(huart->RxState == HAL_UART_STATE_READY) 
 1637              		.loc 1 943 11
 1638 000e FB68     		ldr	r3, [r7, #12]
 1639 0010 93F83A30 		ldrb	r3, [r3, #58]
 1640 0014 DBB2     		uxtb	r3, r3
 1641              		.loc 1 943 5
 1642 0016 202B     		cmp	r3, #32
 1643 0018 66D1     		bne	.L69
ARM GAS  /tmp/ccOBznmR.s 			page 46


 944:./Libraries/STM32F4xx_HAL_Driver/Src/stm32f4xx_hal_uart.c ****   {
 945:./Libraries/STM32F4xx_HAL_Driver/Src/stm32f4xx_hal_uart.c ****     if((pData == NULL ) || (Size == 0)) 
 1644              		.loc 1 945 15
 1645 001a BB68     		ldr	r3, [r7, #8]
 1646              		.loc 1 945 7
 1647 001c 002B     		cmp	r3, #0
 1648 001e 02D0     		beq	.L70
 1649              		.loc 1 945 25 discriminator 1
 1650 0020 FB88     		ldrh	r3, [r7, #6]
 1651 0022 002B     		cmp	r3, #0
 1652 0024 01D1     		bne	.L71
 1653              	.L70:
 946:./Libraries/STM32F4xx_HAL_Driver/Src/stm32f4xx_hal_uart.c ****     {
 947:./Libraries/STM32F4xx_HAL_Driver/Src/stm32f4xx_hal_uart.c ****       return HAL_ERROR;
 1654              		.loc 1 947 14
 1655 0026 0123     		movs	r3, #1
 1656 0028 5FE0     		b	.L72
 1657              	.L71:
 948:./Libraries/STM32F4xx_HAL_Driver/Src/stm32f4xx_hal_uart.c ****     }
 949:./Libraries/STM32F4xx_HAL_Driver/Src/stm32f4xx_hal_uart.c ****     
 950:./Libraries/STM32F4xx_HAL_Driver/Src/stm32f4xx_hal_uart.c ****     /* Process Locked */
 951:./Libraries/STM32F4xx_HAL_Driver/Src/stm32f4xx_hal_uart.c ****     __HAL_LOCK(huart);
 1658              		.loc 1 951 5
 1659 002a FB68     		ldr	r3, [r7, #12]
 1660 002c 93F83830 		ldrb	r3, [r3, #56]	@ zero_extendqisi2
 1661 0030 012B     		cmp	r3, #1
 1662 0032 01D1     		bne	.L73
 1663              		.loc 1 951 5 is_stmt 0 discriminator 1
 1664 0034 0223     		movs	r3, #2
 1665 0036 58E0     		b	.L72
 1666              	.L73:
 1667              		.loc 1 951 5 discriminator 2
 1668 0038 FB68     		ldr	r3, [r7, #12]
 1669 003a 0122     		movs	r2, #1
 1670 003c 83F83820 		strb	r2, [r3, #56]
 952:./Libraries/STM32F4xx_HAL_Driver/Src/stm32f4xx_hal_uart.c ****     
 953:./Libraries/STM32F4xx_HAL_Driver/Src/stm32f4xx_hal_uart.c ****     huart->pRxBuffPtr = pData;
 1671              		.loc 1 953 23 is_stmt 1 discriminator 2
 1672 0040 BA68     		ldr	r2, [r7, #8]
 1673 0042 FB68     		ldr	r3, [r7, #12]
 1674 0044 9A62     		str	r2, [r3, #40]
 954:./Libraries/STM32F4xx_HAL_Driver/Src/stm32f4xx_hal_uart.c ****     huart->RxXferSize = Size;
 1675              		.loc 1 954 23 discriminator 2
 1676 0046 FB68     		ldr	r3, [r7, #12]
 1677 0048 FA88     		ldrh	r2, [r7, #6]	@ movhi
 1678 004a 9A85     		strh	r2, [r3, #44]	@ movhi
 955:./Libraries/STM32F4xx_HAL_Driver/Src/stm32f4xx_hal_uart.c ****     
 956:./Libraries/STM32F4xx_HAL_Driver/Src/stm32f4xx_hal_uart.c ****     huart->ErrorCode = HAL_UART_ERROR_NONE;
 1679              		.loc 1 956 22 discriminator 2
 1680 004c FB68     		ldr	r3, [r7, #12]
 1681 004e 0022     		movs	r2, #0
 1682 0050 DA63     		str	r2, [r3, #60]
 957:./Libraries/STM32F4xx_HAL_Driver/Src/stm32f4xx_hal_uart.c ****     huart->RxState = HAL_UART_STATE_BUSY_RX;
 1683              		.loc 1 957 20 discriminator 2
 1684 0052 FB68     		ldr	r3, [r7, #12]
 1685 0054 2222     		movs	r2, #34
 1686 0056 83F83A20 		strb	r2, [r3, #58]
ARM GAS  /tmp/ccOBznmR.s 			page 47


 958:./Libraries/STM32F4xx_HAL_Driver/Src/stm32f4xx_hal_uart.c ****         
 959:./Libraries/STM32F4xx_HAL_Driver/Src/stm32f4xx_hal_uart.c ****     /* Set the UART DMA transfer complete callback */
 960:./Libraries/STM32F4xx_HAL_Driver/Src/stm32f4xx_hal_uart.c ****     huart->hdmarx->XferCpltCallback = UART_DMAReceiveCplt;
 1687              		.loc 1 960 10 discriminator 2
 1688 005a FB68     		ldr	r3, [r7, #12]
 1689 005c 5B6B     		ldr	r3, [r3, #52]
 1690              		.loc 1 960 37 discriminator 2
 1691 005e 254A     		ldr	r2, .L74
 1692 0060 DA63     		str	r2, [r3, #60]
 961:./Libraries/STM32F4xx_HAL_Driver/Src/stm32f4xx_hal_uart.c ****     
 962:./Libraries/STM32F4xx_HAL_Driver/Src/stm32f4xx_hal_uart.c ****     /* Set the UART DMA Half transfer complete callback */
 963:./Libraries/STM32F4xx_HAL_Driver/Src/stm32f4xx_hal_uart.c ****     huart->hdmarx->XferHalfCpltCallback = UART_DMARxHalfCplt;
 1693              		.loc 1 963 10 discriminator 2
 1694 0062 FB68     		ldr	r3, [r7, #12]
 1695 0064 5B6B     		ldr	r3, [r3, #52]
 1696              		.loc 1 963 41 discriminator 2
 1697 0066 244A     		ldr	r2, .L74+4
 1698 0068 1A64     		str	r2, [r3, #64]
 964:./Libraries/STM32F4xx_HAL_Driver/Src/stm32f4xx_hal_uart.c ****     
 965:./Libraries/STM32F4xx_HAL_Driver/Src/stm32f4xx_hal_uart.c ****     /* Set the DMA error callback */
 966:./Libraries/STM32F4xx_HAL_Driver/Src/stm32f4xx_hal_uart.c ****     huart->hdmarx->XferErrorCallback = UART_DMAError;
 1699              		.loc 1 966 10 discriminator 2
 1700 006a FB68     		ldr	r3, [r7, #12]
 1701 006c 5B6B     		ldr	r3, [r3, #52]
 1702              		.loc 1 966 38 discriminator 2
 1703 006e 234A     		ldr	r2, .L74+8
 1704 0070 DA64     		str	r2, [r3, #76]
 967:./Libraries/STM32F4xx_HAL_Driver/Src/stm32f4xx_hal_uart.c ****     
 968:./Libraries/STM32F4xx_HAL_Driver/Src/stm32f4xx_hal_uart.c ****     /* Set the DMA abort callback */
 969:./Libraries/STM32F4xx_HAL_Driver/Src/stm32f4xx_hal_uart.c ****     huart->hdmarx->XferAbortCallback = NULL;
 1705              		.loc 1 969 10 discriminator 2
 1706 0072 FB68     		ldr	r3, [r7, #12]
 1707 0074 5B6B     		ldr	r3, [r3, #52]
 1708              		.loc 1 969 38 discriminator 2
 1709 0076 0022     		movs	r2, #0
 1710 0078 1A65     		str	r2, [r3, #80]
 970:./Libraries/STM32F4xx_HAL_Driver/Src/stm32f4xx_hal_uart.c **** 
 971:./Libraries/STM32F4xx_HAL_Driver/Src/stm32f4xx_hal_uart.c ****     /* Enable the DMA Stream */
 972:./Libraries/STM32F4xx_HAL_Driver/Src/stm32f4xx_hal_uart.c ****     tmp = (uint32_t*)&pData;
 1711              		.loc 1 972 9 discriminator 2
 1712 007a 07F10803 		add	r3, r7, #8
 1713 007e 7B61     		str	r3, [r7, #20]
 973:./Libraries/STM32F4xx_HAL_Driver/Src/stm32f4xx_hal_uart.c ****     HAL_DMA_Start_IT(huart->hdmarx, (uint32_t)&huart->Instance->DR, *(uint32_t*)tmp, Size);
 1714              		.loc 1 973 5 discriminator 2
 1715 0080 FB68     		ldr	r3, [r7, #12]
 1716 0082 586B     		ldr	r0, [r3, #52]
 1717              		.loc 1 973 53 discriminator 2
 1718 0084 FB68     		ldr	r3, [r7, #12]
 1719 0086 1B68     		ldr	r3, [r3]
 1720              		.loc 1 973 47 discriminator 2
 1721 0088 0433     		adds	r3, r3, #4
 1722              		.loc 1 973 5 discriminator 2
 1723 008a 1946     		mov	r1, r3
 1724 008c 7B69     		ldr	r3, [r7, #20]
 1725 008e 1A68     		ldr	r2, [r3]
 1726 0090 FB88     		ldrh	r3, [r7, #6]
 1727 0092 FFF7FEFF 		bl	HAL_DMA_Start_IT
ARM GAS  /tmp/ccOBznmR.s 			page 48


 1728              	.LBB2:
 974:./Libraries/STM32F4xx_HAL_Driver/Src/stm32f4xx_hal_uart.c **** 
 975:./Libraries/STM32F4xx_HAL_Driver/Src/stm32f4xx_hal_uart.c ****     /* Clear the Overrun flag just before enabling the DMA Rx request: can be mandatory for the sec
 976:./Libraries/STM32F4xx_HAL_Driver/Src/stm32f4xx_hal_uart.c ****     __HAL_UART_CLEAR_OREFLAG(huart);
 1729              		.loc 1 976 5 discriminator 2
 1730 0096 0023     		movs	r3, #0
 1731 0098 3B61     		str	r3, [r7, #16]
 1732 009a FB68     		ldr	r3, [r7, #12]
 1733 009c 1B68     		ldr	r3, [r3]
 1734 009e 1B68     		ldr	r3, [r3]
 1735 00a0 3B61     		str	r3, [r7, #16]
 1736 00a2 FB68     		ldr	r3, [r7, #12]
 1737 00a4 1B68     		ldr	r3, [r3]
 1738 00a6 5B68     		ldr	r3, [r3, #4]
 1739 00a8 3B61     		str	r3, [r7, #16]
 1740 00aa 3B69     		ldr	r3, [r7, #16]
 1741              	.LBE2:
 977:./Libraries/STM32F4xx_HAL_Driver/Src/stm32f4xx_hal_uart.c **** 
 978:./Libraries/STM32F4xx_HAL_Driver/Src/stm32f4xx_hal_uart.c ****     /* Process Unlocked */
 979:./Libraries/STM32F4xx_HAL_Driver/Src/stm32f4xx_hal_uart.c ****     __HAL_UNLOCK(huart);
 1742              		.loc 1 979 5 discriminator 2
 1743 00ac FB68     		ldr	r3, [r7, #12]
 1744 00ae 0022     		movs	r2, #0
 1745 00b0 83F83820 		strb	r2, [r3, #56]
 980:./Libraries/STM32F4xx_HAL_Driver/Src/stm32f4xx_hal_uart.c **** 
 981:./Libraries/STM32F4xx_HAL_Driver/Src/stm32f4xx_hal_uart.c ****     /* Enable the UART Parity Error Interrupt */
 982:./Libraries/STM32F4xx_HAL_Driver/Src/stm32f4xx_hal_uart.c ****     SET_BIT(huart->Instance->CR1, USART_CR1_PEIE);
 1746              		.loc 1 982 5 discriminator 2
 1747 00b4 FB68     		ldr	r3, [r7, #12]
 1748 00b6 1B68     		ldr	r3, [r3]
 1749 00b8 DA68     		ldr	r2, [r3, #12]
 1750 00ba FB68     		ldr	r3, [r7, #12]
 1751 00bc 1B68     		ldr	r3, [r3]
 1752 00be 42F48072 		orr	r2, r2, #256
 1753 00c2 DA60     		str	r2, [r3, #12]
 983:./Libraries/STM32F4xx_HAL_Driver/Src/stm32f4xx_hal_uart.c **** 
 984:./Libraries/STM32F4xx_HAL_Driver/Src/stm32f4xx_hal_uart.c ****     /* Enable the UART Error Interrupt: (Frame error, noise error, overrun error) */
 985:./Libraries/STM32F4xx_HAL_Driver/Src/stm32f4xx_hal_uart.c ****     SET_BIT(huart->Instance->CR3, USART_CR3_EIE);
 1754              		.loc 1 985 5 discriminator 2
 1755 00c4 FB68     		ldr	r3, [r7, #12]
 1756 00c6 1B68     		ldr	r3, [r3]
 1757 00c8 5A69     		ldr	r2, [r3, #20]
 1758 00ca FB68     		ldr	r3, [r7, #12]
 1759 00cc 1B68     		ldr	r3, [r3]
 1760 00ce 42F00102 		orr	r2, r2, #1
 1761 00d2 5A61     		str	r2, [r3, #20]
 986:./Libraries/STM32F4xx_HAL_Driver/Src/stm32f4xx_hal_uart.c ****     
 987:./Libraries/STM32F4xx_HAL_Driver/Src/stm32f4xx_hal_uart.c ****     /* Enable the DMA transfer for the receiver request by setting the DMAR bit 
 988:./Libraries/STM32F4xx_HAL_Driver/Src/stm32f4xx_hal_uart.c ****     in the UART CR3 register */
 989:./Libraries/STM32F4xx_HAL_Driver/Src/stm32f4xx_hal_uart.c ****     SET_BIT(huart->Instance->CR3, USART_CR3_DMAR);
 1762              		.loc 1 989 5 discriminator 2
 1763 00d4 FB68     		ldr	r3, [r7, #12]
 1764 00d6 1B68     		ldr	r3, [r3]
 1765 00d8 5A69     		ldr	r2, [r3, #20]
 1766 00da FB68     		ldr	r3, [r7, #12]
 1767 00dc 1B68     		ldr	r3, [r3]
 1768 00de 42F04002 		orr	r2, r2, #64
ARM GAS  /tmp/ccOBznmR.s 			page 49


 1769 00e2 5A61     		str	r2, [r3, #20]
 990:./Libraries/STM32F4xx_HAL_Driver/Src/stm32f4xx_hal_uart.c **** 
 991:./Libraries/STM32F4xx_HAL_Driver/Src/stm32f4xx_hal_uart.c ****     return HAL_OK;
 1770              		.loc 1 991 12 discriminator 2
 1771 00e4 0023     		movs	r3, #0
 1772 00e6 00E0     		b	.L72
 1773              	.L69:
 992:./Libraries/STM32F4xx_HAL_Driver/Src/stm32f4xx_hal_uart.c ****   }
 993:./Libraries/STM32F4xx_HAL_Driver/Src/stm32f4xx_hal_uart.c ****   else
 994:./Libraries/STM32F4xx_HAL_Driver/Src/stm32f4xx_hal_uart.c ****   {
 995:./Libraries/STM32F4xx_HAL_Driver/Src/stm32f4xx_hal_uart.c ****     return HAL_BUSY; 
 1774              		.loc 1 995 12
 1775 00e8 0223     		movs	r3, #2
 1776              	.L72:
 996:./Libraries/STM32F4xx_HAL_Driver/Src/stm32f4xx_hal_uart.c ****   }
 997:./Libraries/STM32F4xx_HAL_Driver/Src/stm32f4xx_hal_uart.c **** }
 1777              		.loc 1 997 1
 1778 00ea 1846     		mov	r0, r3
 1779 00ec 1837     		adds	r7, r7, #24
 1780              	.LCFI67:
 1781              		.cfi_def_cfa_offset 8
 1782 00ee BD46     		mov	sp, r7
 1783              	.LCFI68:
 1784              		.cfi_def_cfa_register 13
 1785              		@ sp needed
 1786 00f0 80BD     		pop	{r7, pc}
 1787              	.L75:
 1788 00f2 00BF     		.align	2
 1789              	.L74:
 1790 00f4 00000000 		.word	UART_DMAReceiveCplt
 1791 00f8 00000000 		.word	UART_DMARxHalfCplt
 1792 00fc 00000000 		.word	UART_DMAError
 1793              		.cfi_endproc
 1794              	.LFE138:
 1796              		.section	.text.HAL_UART_DMAPause,"ax",%progbits
 1797              		.align	1
 1798              		.global	HAL_UART_DMAPause
 1799              		.syntax unified
 1800              		.thumb
 1801              		.thumb_func
 1802              		.fpu fpv4-sp-d16
 1804              	HAL_UART_DMAPause:
 1805              	.LFB139:
 998:./Libraries/STM32F4xx_HAL_Driver/Src/stm32f4xx_hal_uart.c ****     
 999:./Libraries/STM32F4xx_HAL_Driver/Src/stm32f4xx_hal_uart.c **** /**
1000:./Libraries/STM32F4xx_HAL_Driver/Src/stm32f4xx_hal_uart.c ****   * @brief Pauses the DMA Transfer.
1001:./Libraries/STM32F4xx_HAL_Driver/Src/stm32f4xx_hal_uart.c ****   * @param  huart pointer to a UART_HandleTypeDef structure that contains
1002:./Libraries/STM32F4xx_HAL_Driver/Src/stm32f4xx_hal_uart.c ****   *                the configuration information for the specified UART module.
1003:./Libraries/STM32F4xx_HAL_Driver/Src/stm32f4xx_hal_uart.c ****   * @retval HAL status
1004:./Libraries/STM32F4xx_HAL_Driver/Src/stm32f4xx_hal_uart.c ****   */
1005:./Libraries/STM32F4xx_HAL_Driver/Src/stm32f4xx_hal_uart.c **** HAL_StatusTypeDef HAL_UART_DMAPause(UART_HandleTypeDef *huart)
1006:./Libraries/STM32F4xx_HAL_Driver/Src/stm32f4xx_hal_uart.c **** {
 1806              		.loc 1 1006 1
 1807              		.cfi_startproc
 1808              		@ args = 0, pretend = 0, frame = 16
 1809              		@ frame_needed = 1, uses_anonymous_args = 0
 1810              		@ link register save eliminated.
ARM GAS  /tmp/ccOBznmR.s 			page 50


 1811 0000 80B4     		push	{r7}
 1812              	.LCFI69:
 1813              		.cfi_def_cfa_offset 4
 1814              		.cfi_offset 7, -4
 1815 0002 85B0     		sub	sp, sp, #20
 1816              	.LCFI70:
 1817              		.cfi_def_cfa_offset 24
 1818 0004 00AF     		add	r7, sp, #0
 1819              	.LCFI71:
 1820              		.cfi_def_cfa_register 7
 1821 0006 7860     		str	r0, [r7, #4]
1007:./Libraries/STM32F4xx_HAL_Driver/Src/stm32f4xx_hal_uart.c ****    uint32_t dmarequest = 0x00U;
 1822              		.loc 1 1007 13
 1823 0008 0023     		movs	r3, #0
 1824 000a FB60     		str	r3, [r7, #12]
1008:./Libraries/STM32F4xx_HAL_Driver/Src/stm32f4xx_hal_uart.c **** 
1009:./Libraries/STM32F4xx_HAL_Driver/Src/stm32f4xx_hal_uart.c ****   /* Process Locked */
1010:./Libraries/STM32F4xx_HAL_Driver/Src/stm32f4xx_hal_uart.c ****   __HAL_LOCK(huart);
 1825              		.loc 1 1010 3
 1826 000c 7B68     		ldr	r3, [r7, #4]
 1827 000e 93F83830 		ldrb	r3, [r3, #56]	@ zero_extendqisi2
 1828 0012 012B     		cmp	r3, #1
 1829 0014 01D1     		bne	.L77
 1830              		.loc 1 1010 3 is_stmt 0 discriminator 1
 1831 0016 0223     		movs	r3, #2
 1832 0018 50E0     		b	.L78
 1833              	.L77:
 1834              		.loc 1 1010 3 discriminator 2
 1835 001a 7B68     		ldr	r3, [r7, #4]
 1836 001c 0122     		movs	r2, #1
 1837 001e 83F83820 		strb	r2, [r3, #56]
1011:./Libraries/STM32F4xx_HAL_Driver/Src/stm32f4xx_hal_uart.c ****   dmarequest = HAL_IS_BIT_SET(huart->Instance->CR3, USART_CR3_DMAT);
 1838              		.loc 1 1011 16 is_stmt 1 discriminator 2
 1839 0022 7B68     		ldr	r3, [r7, #4]
 1840 0024 1B68     		ldr	r3, [r3]
 1841 0026 5B69     		ldr	r3, [r3, #20]
 1842 0028 03F08003 		and	r3, r3, #128
 1843 002c 002B     		cmp	r3, #0
 1844 002e 14BF     		ite	ne
 1845 0030 0123     		movne	r3, #1
 1846 0032 0023     		moveq	r3, #0
 1847 0034 DBB2     		uxtb	r3, r3
 1848              		.loc 1 1011 14 discriminator 2
 1849 0036 FB60     		str	r3, [r7, #12]
1012:./Libraries/STM32F4xx_HAL_Driver/Src/stm32f4xx_hal_uart.c ****   if((huart->gState == HAL_UART_STATE_BUSY_TX) && dmarequest)
 1850              		.loc 1 1012 12 discriminator 2
 1851 0038 7B68     		ldr	r3, [r7, #4]
 1852 003a 93F83930 		ldrb	r3, [r3, #57]
 1853 003e DBB2     		uxtb	r3, r3
 1854              		.loc 1 1012 5 discriminator 2
 1855 0040 212B     		cmp	r3, #33
 1856 0042 0AD1     		bne	.L79
 1857              		.loc 1 1012 48 discriminator 1
 1858 0044 FB68     		ldr	r3, [r7, #12]
 1859 0046 002B     		cmp	r3, #0
 1860 0048 07D0     		beq	.L79
1013:./Libraries/STM32F4xx_HAL_Driver/Src/stm32f4xx_hal_uart.c ****   {
ARM GAS  /tmp/ccOBznmR.s 			page 51


1014:./Libraries/STM32F4xx_HAL_Driver/Src/stm32f4xx_hal_uart.c ****     /* Disable the UART DMA Tx request */
1015:./Libraries/STM32F4xx_HAL_Driver/Src/stm32f4xx_hal_uart.c ****     CLEAR_BIT(huart->Instance->CR3, USART_CR3_DMAT);
 1861              		.loc 1 1015 5
 1862 004a 7B68     		ldr	r3, [r7, #4]
 1863 004c 1B68     		ldr	r3, [r3]
 1864 004e 5A69     		ldr	r2, [r3, #20]
 1865 0050 7B68     		ldr	r3, [r7, #4]
 1866 0052 1B68     		ldr	r3, [r3]
 1867 0054 22F08002 		bic	r2, r2, #128
 1868 0058 5A61     		str	r2, [r3, #20]
 1869              	.L79:
1016:./Libraries/STM32F4xx_HAL_Driver/Src/stm32f4xx_hal_uart.c ****   }
1017:./Libraries/STM32F4xx_HAL_Driver/Src/stm32f4xx_hal_uart.c ****   dmarequest = HAL_IS_BIT_SET(huart->Instance->CR3, USART_CR3_DMAR);
 1870              		.loc 1 1017 16
 1871 005a 7B68     		ldr	r3, [r7, #4]
 1872 005c 1B68     		ldr	r3, [r3]
 1873 005e 5B69     		ldr	r3, [r3, #20]
 1874 0060 03F04003 		and	r3, r3, #64
 1875 0064 002B     		cmp	r3, #0
 1876 0066 14BF     		ite	ne
 1877 0068 0123     		movne	r3, #1
 1878 006a 0023     		moveq	r3, #0
 1879 006c DBB2     		uxtb	r3, r3
 1880              		.loc 1 1017 14
 1881 006e FB60     		str	r3, [r7, #12]
1018:./Libraries/STM32F4xx_HAL_Driver/Src/stm32f4xx_hal_uart.c ****   if((huart->RxState == HAL_UART_STATE_BUSY_RX) && dmarequest)
 1882              		.loc 1 1018 12
 1883 0070 7B68     		ldr	r3, [r7, #4]
 1884 0072 93F83A30 		ldrb	r3, [r3, #58]
 1885 0076 DBB2     		uxtb	r3, r3
 1886              		.loc 1 1018 5
 1887 0078 222B     		cmp	r3, #34
 1888 007a 1AD1     		bne	.L80
 1889              		.loc 1 1018 49 discriminator 1
 1890 007c FB68     		ldr	r3, [r7, #12]
 1891 007e 002B     		cmp	r3, #0
 1892 0080 17D0     		beq	.L80
1019:./Libraries/STM32F4xx_HAL_Driver/Src/stm32f4xx_hal_uart.c ****   {
1020:./Libraries/STM32F4xx_HAL_Driver/Src/stm32f4xx_hal_uart.c ****     /* Disable RXNE, PE and ERR (Frame error, noise error, overrun error) interrupts */
1021:./Libraries/STM32F4xx_HAL_Driver/Src/stm32f4xx_hal_uart.c ****     CLEAR_BIT(huart->Instance->CR1, USART_CR1_PEIE);
 1893              		.loc 1 1021 5
 1894 0082 7B68     		ldr	r3, [r7, #4]
 1895 0084 1B68     		ldr	r3, [r3]
 1896 0086 DA68     		ldr	r2, [r3, #12]
 1897 0088 7B68     		ldr	r3, [r7, #4]
 1898 008a 1B68     		ldr	r3, [r3]
 1899 008c 22F48072 		bic	r2, r2, #256
 1900 0090 DA60     		str	r2, [r3, #12]
1022:./Libraries/STM32F4xx_HAL_Driver/Src/stm32f4xx_hal_uart.c ****     CLEAR_BIT(huart->Instance->CR3, USART_CR3_EIE);
 1901              		.loc 1 1022 5
 1902 0092 7B68     		ldr	r3, [r7, #4]
 1903 0094 1B68     		ldr	r3, [r3]
 1904 0096 5A69     		ldr	r2, [r3, #20]
 1905 0098 7B68     		ldr	r3, [r7, #4]
 1906 009a 1B68     		ldr	r3, [r3]
 1907 009c 22F00102 		bic	r2, r2, #1
 1908 00a0 5A61     		str	r2, [r3, #20]
ARM GAS  /tmp/ccOBznmR.s 			page 52


1023:./Libraries/STM32F4xx_HAL_Driver/Src/stm32f4xx_hal_uart.c ****     
1024:./Libraries/STM32F4xx_HAL_Driver/Src/stm32f4xx_hal_uart.c ****     /* Disable the UART DMA Rx request */
1025:./Libraries/STM32F4xx_HAL_Driver/Src/stm32f4xx_hal_uart.c ****     CLEAR_BIT(huart->Instance->CR3, USART_CR3_DMAR);
 1909              		.loc 1 1025 5
 1910 00a2 7B68     		ldr	r3, [r7, #4]
 1911 00a4 1B68     		ldr	r3, [r3]
 1912 00a6 5A69     		ldr	r2, [r3, #20]
 1913 00a8 7B68     		ldr	r3, [r7, #4]
 1914 00aa 1B68     		ldr	r3, [r3]
 1915 00ac 22F04002 		bic	r2, r2, #64
 1916 00b0 5A61     		str	r2, [r3, #20]
 1917              	.L80:
1026:./Libraries/STM32F4xx_HAL_Driver/Src/stm32f4xx_hal_uart.c ****   }
1027:./Libraries/STM32F4xx_HAL_Driver/Src/stm32f4xx_hal_uart.c ****   
1028:./Libraries/STM32F4xx_HAL_Driver/Src/stm32f4xx_hal_uart.c ****   /* Process Unlocked */
1029:./Libraries/STM32F4xx_HAL_Driver/Src/stm32f4xx_hal_uart.c ****   __HAL_UNLOCK(huart);
 1918              		.loc 1 1029 3
 1919 00b2 7B68     		ldr	r3, [r7, #4]
 1920 00b4 0022     		movs	r2, #0
 1921 00b6 83F83820 		strb	r2, [r3, #56]
1030:./Libraries/STM32F4xx_HAL_Driver/Src/stm32f4xx_hal_uart.c ****   
1031:./Libraries/STM32F4xx_HAL_Driver/Src/stm32f4xx_hal_uart.c ****   return HAL_OK; 
 1922              		.loc 1 1031 10
 1923 00ba 0023     		movs	r3, #0
 1924              	.L78:
1032:./Libraries/STM32F4xx_HAL_Driver/Src/stm32f4xx_hal_uart.c **** }
 1925              		.loc 1 1032 1
 1926 00bc 1846     		mov	r0, r3
 1927 00be 1437     		adds	r7, r7, #20
 1928              	.LCFI72:
 1929              		.cfi_def_cfa_offset 4
 1930 00c0 BD46     		mov	sp, r7
 1931              	.LCFI73:
 1932              		.cfi_def_cfa_register 13
 1933              		@ sp needed
 1934 00c2 5DF8047B 		ldr	r7, [sp], #4
 1935              	.LCFI74:
 1936              		.cfi_restore 7
 1937              		.cfi_def_cfa_offset 0
 1938 00c6 7047     		bx	lr
 1939              		.cfi_endproc
 1940              	.LFE139:
 1942              		.section	.text.HAL_UART_DMAResume,"ax",%progbits
 1943              		.align	1
 1944              		.global	HAL_UART_DMAResume
 1945              		.syntax unified
 1946              		.thumb
 1947              		.thumb_func
 1948              		.fpu fpv4-sp-d16
 1950              	HAL_UART_DMAResume:
 1951              	.LFB140:
1033:./Libraries/STM32F4xx_HAL_Driver/Src/stm32f4xx_hal_uart.c **** 
1034:./Libraries/STM32F4xx_HAL_Driver/Src/stm32f4xx_hal_uart.c **** /**
1035:./Libraries/STM32F4xx_HAL_Driver/Src/stm32f4xx_hal_uart.c ****   * @brief Resumes the DMA Transfer.
1036:./Libraries/STM32F4xx_HAL_Driver/Src/stm32f4xx_hal_uart.c ****   * @param  huart pointer to a UART_HandleTypeDef structure that contains
1037:./Libraries/STM32F4xx_HAL_Driver/Src/stm32f4xx_hal_uart.c ****   *                the configuration information for the specified UART module.
1038:./Libraries/STM32F4xx_HAL_Driver/Src/stm32f4xx_hal_uart.c ****   * @retval HAL status
ARM GAS  /tmp/ccOBznmR.s 			page 53


1039:./Libraries/STM32F4xx_HAL_Driver/Src/stm32f4xx_hal_uart.c ****   */
1040:./Libraries/STM32F4xx_HAL_Driver/Src/stm32f4xx_hal_uart.c **** HAL_StatusTypeDef HAL_UART_DMAResume(UART_HandleTypeDef *huart)
1041:./Libraries/STM32F4xx_HAL_Driver/Src/stm32f4xx_hal_uart.c **** {
 1952              		.loc 1 1041 1
 1953              		.cfi_startproc
 1954              		@ args = 0, pretend = 0, frame = 16
 1955              		@ frame_needed = 1, uses_anonymous_args = 0
 1956              		@ link register save eliminated.
 1957 0000 80B4     		push	{r7}
 1958              	.LCFI75:
 1959              		.cfi_def_cfa_offset 4
 1960              		.cfi_offset 7, -4
 1961 0002 85B0     		sub	sp, sp, #20
 1962              	.LCFI76:
 1963              		.cfi_def_cfa_offset 24
 1964 0004 00AF     		add	r7, sp, #0
 1965              	.LCFI77:
 1966              		.cfi_def_cfa_register 7
 1967 0006 7860     		str	r0, [r7, #4]
1042:./Libraries/STM32F4xx_HAL_Driver/Src/stm32f4xx_hal_uart.c ****   /* Process Locked */
1043:./Libraries/STM32F4xx_HAL_Driver/Src/stm32f4xx_hal_uart.c ****   __HAL_LOCK(huart);
 1968              		.loc 1 1043 3
 1969 0008 7B68     		ldr	r3, [r7, #4]
 1970 000a 93F83830 		ldrb	r3, [r3, #56]	@ zero_extendqisi2
 1971 000e 012B     		cmp	r3, #1
 1972 0010 01D1     		bne	.L82
 1973              		.loc 1 1043 3 is_stmt 0 discriminator 1
 1974 0012 0223     		movs	r3, #2
 1975 0014 3FE0     		b	.L83
 1976              	.L82:
 1977              		.loc 1 1043 3 discriminator 2
 1978 0016 7B68     		ldr	r3, [r7, #4]
 1979 0018 0122     		movs	r2, #1
 1980 001a 83F83820 		strb	r2, [r3, #56]
1044:./Libraries/STM32F4xx_HAL_Driver/Src/stm32f4xx_hal_uart.c ****   
1045:./Libraries/STM32F4xx_HAL_Driver/Src/stm32f4xx_hal_uart.c ****   if(huart->gState == HAL_UART_STATE_BUSY_TX)
 1981              		.loc 1 1045 11 is_stmt 1 discriminator 2
 1982 001e 7B68     		ldr	r3, [r7, #4]
 1983 0020 93F83930 		ldrb	r3, [r3, #57]
 1984 0024 DBB2     		uxtb	r3, r3
 1985              		.loc 1 1045 5 discriminator 2
 1986 0026 212B     		cmp	r3, #33
 1987 0028 07D1     		bne	.L84
1046:./Libraries/STM32F4xx_HAL_Driver/Src/stm32f4xx_hal_uart.c ****   {
1047:./Libraries/STM32F4xx_HAL_Driver/Src/stm32f4xx_hal_uart.c ****     /* Enable the UART DMA Tx request */
1048:./Libraries/STM32F4xx_HAL_Driver/Src/stm32f4xx_hal_uart.c ****     SET_BIT(huart->Instance->CR3, USART_CR3_DMAT);
 1988              		.loc 1 1048 5
 1989 002a 7B68     		ldr	r3, [r7, #4]
 1990 002c 1B68     		ldr	r3, [r3]
 1991 002e 5A69     		ldr	r2, [r3, #20]
 1992 0030 7B68     		ldr	r3, [r7, #4]
 1993 0032 1B68     		ldr	r3, [r3]
 1994 0034 42F08002 		orr	r2, r2, #128
 1995 0038 5A61     		str	r2, [r3, #20]
 1996              	.L84:
1049:./Libraries/STM32F4xx_HAL_Driver/Src/stm32f4xx_hal_uart.c ****   }
1050:./Libraries/STM32F4xx_HAL_Driver/Src/stm32f4xx_hal_uart.c ****   if(huart->RxState == HAL_UART_STATE_BUSY_RX)
ARM GAS  /tmp/ccOBznmR.s 			page 54


 1997              		.loc 1 1050 11
 1998 003a 7B68     		ldr	r3, [r7, #4]
 1999 003c 93F83A30 		ldrb	r3, [r3, #58]
 2000 0040 DBB2     		uxtb	r3, r3
 2001              		.loc 1 1050 5
 2002 0042 222B     		cmp	r3, #34
 2003 0044 22D1     		bne	.L85
 2004              	.LBB3:
1051:./Libraries/STM32F4xx_HAL_Driver/Src/stm32f4xx_hal_uart.c ****   {
1052:./Libraries/STM32F4xx_HAL_Driver/Src/stm32f4xx_hal_uart.c ****     /* Clear the Overrun flag before resuming the Rx transfer*/
1053:./Libraries/STM32F4xx_HAL_Driver/Src/stm32f4xx_hal_uart.c ****     __HAL_UART_CLEAR_OREFLAG(huart);
 2005              		.loc 1 1053 5
 2006 0046 0023     		movs	r3, #0
 2007 0048 FB60     		str	r3, [r7, #12]
 2008 004a 7B68     		ldr	r3, [r7, #4]
 2009 004c 1B68     		ldr	r3, [r3]
 2010 004e 1B68     		ldr	r3, [r3]
 2011 0050 FB60     		str	r3, [r7, #12]
 2012 0052 7B68     		ldr	r3, [r7, #4]
 2013 0054 1B68     		ldr	r3, [r3]
 2014 0056 5B68     		ldr	r3, [r3, #4]
 2015 0058 FB60     		str	r3, [r7, #12]
 2016 005a FB68     		ldr	r3, [r7, #12]
 2017              	.LBE3:
1054:./Libraries/STM32F4xx_HAL_Driver/Src/stm32f4xx_hal_uart.c ****     
1055:./Libraries/STM32F4xx_HAL_Driver/Src/stm32f4xx_hal_uart.c ****     /* Reenable PE and ERR (Frame error, noise error, overrun error) interrupts */
1056:./Libraries/STM32F4xx_HAL_Driver/Src/stm32f4xx_hal_uart.c ****     SET_BIT(huart->Instance->CR1, USART_CR1_PEIE);
 2018              		.loc 1 1056 5
 2019 005c 7B68     		ldr	r3, [r7, #4]
 2020 005e 1B68     		ldr	r3, [r3]
 2021 0060 DA68     		ldr	r2, [r3, #12]
 2022 0062 7B68     		ldr	r3, [r7, #4]
 2023 0064 1B68     		ldr	r3, [r3]
 2024 0066 42F48072 		orr	r2, r2, #256
 2025 006a DA60     		str	r2, [r3, #12]
1057:./Libraries/STM32F4xx_HAL_Driver/Src/stm32f4xx_hal_uart.c ****     SET_BIT(huart->Instance->CR3, USART_CR3_EIE);
 2026              		.loc 1 1057 5
 2027 006c 7B68     		ldr	r3, [r7, #4]
 2028 006e 1B68     		ldr	r3, [r3]
 2029 0070 5A69     		ldr	r2, [r3, #20]
 2030 0072 7B68     		ldr	r3, [r7, #4]
 2031 0074 1B68     		ldr	r3, [r3]
 2032 0076 42F00102 		orr	r2, r2, #1
 2033 007a 5A61     		str	r2, [r3, #20]
1058:./Libraries/STM32F4xx_HAL_Driver/Src/stm32f4xx_hal_uart.c ****     
1059:./Libraries/STM32F4xx_HAL_Driver/Src/stm32f4xx_hal_uart.c ****     /* Enable the UART DMA Rx request */
1060:./Libraries/STM32F4xx_HAL_Driver/Src/stm32f4xx_hal_uart.c ****     SET_BIT(huart->Instance->CR3, USART_CR3_DMAR);
 2034              		.loc 1 1060 5
 2035 007c 7B68     		ldr	r3, [r7, #4]
 2036 007e 1B68     		ldr	r3, [r3]
 2037 0080 5A69     		ldr	r2, [r3, #20]
 2038 0082 7B68     		ldr	r3, [r7, #4]
 2039 0084 1B68     		ldr	r3, [r3]
 2040 0086 42F04002 		orr	r2, r2, #64
 2041 008a 5A61     		str	r2, [r3, #20]
 2042              	.L85:
1061:./Libraries/STM32F4xx_HAL_Driver/Src/stm32f4xx_hal_uart.c ****   }
ARM GAS  /tmp/ccOBznmR.s 			page 55


1062:./Libraries/STM32F4xx_HAL_Driver/Src/stm32f4xx_hal_uart.c ****   
1063:./Libraries/STM32F4xx_HAL_Driver/Src/stm32f4xx_hal_uart.c ****   /* Process Unlocked */
1064:./Libraries/STM32F4xx_HAL_Driver/Src/stm32f4xx_hal_uart.c ****   __HAL_UNLOCK(huart);
 2043              		.loc 1 1064 3
 2044 008c 7B68     		ldr	r3, [r7, #4]
 2045 008e 0022     		movs	r2, #0
 2046 0090 83F83820 		strb	r2, [r3, #56]
1065:./Libraries/STM32F4xx_HAL_Driver/Src/stm32f4xx_hal_uart.c ****   
1066:./Libraries/STM32F4xx_HAL_Driver/Src/stm32f4xx_hal_uart.c ****   return HAL_OK;
 2047              		.loc 1 1066 10
 2048 0094 0023     		movs	r3, #0
 2049              	.L83:
1067:./Libraries/STM32F4xx_HAL_Driver/Src/stm32f4xx_hal_uart.c **** }
 2050              		.loc 1 1067 1
 2051 0096 1846     		mov	r0, r3
 2052 0098 1437     		adds	r7, r7, #20
 2053              	.LCFI78:
 2054              		.cfi_def_cfa_offset 4
 2055 009a BD46     		mov	sp, r7
 2056              	.LCFI79:
 2057              		.cfi_def_cfa_register 13
 2058              		@ sp needed
 2059 009c 5DF8047B 		ldr	r7, [sp], #4
 2060              	.LCFI80:
 2061              		.cfi_restore 7
 2062              		.cfi_def_cfa_offset 0
 2063 00a0 7047     		bx	lr
 2064              		.cfi_endproc
 2065              	.LFE140:
 2067              		.section	.text.HAL_UART_DMAStop,"ax",%progbits
 2068              		.align	1
 2069              		.global	HAL_UART_DMAStop
 2070              		.syntax unified
 2071              		.thumb
 2072              		.thumb_func
 2073              		.fpu fpv4-sp-d16
 2075              	HAL_UART_DMAStop:
 2076              	.LFB141:
1068:./Libraries/STM32F4xx_HAL_Driver/Src/stm32f4xx_hal_uart.c **** 
1069:./Libraries/STM32F4xx_HAL_Driver/Src/stm32f4xx_hal_uart.c **** /**
1070:./Libraries/STM32F4xx_HAL_Driver/Src/stm32f4xx_hal_uart.c ****   * @brief Stops the DMA Transfer.
1071:./Libraries/STM32F4xx_HAL_Driver/Src/stm32f4xx_hal_uart.c ****   * @param  huart pointer to a UART_HandleTypeDef structure that contains
1072:./Libraries/STM32F4xx_HAL_Driver/Src/stm32f4xx_hal_uart.c ****   *                the configuration information for the specified UART module.
1073:./Libraries/STM32F4xx_HAL_Driver/Src/stm32f4xx_hal_uart.c ****   * @retval HAL status
1074:./Libraries/STM32F4xx_HAL_Driver/Src/stm32f4xx_hal_uart.c ****   */
1075:./Libraries/STM32F4xx_HAL_Driver/Src/stm32f4xx_hal_uart.c **** HAL_StatusTypeDef HAL_UART_DMAStop(UART_HandleTypeDef *huart)
1076:./Libraries/STM32F4xx_HAL_Driver/Src/stm32f4xx_hal_uart.c **** {
 2077              		.loc 1 1076 1
 2078              		.cfi_startproc
 2079              		@ args = 0, pretend = 0, frame = 16
 2080              		@ frame_needed = 1, uses_anonymous_args = 0
 2081 0000 80B5     		push	{r7, lr}
 2082              	.LCFI81:
 2083              		.cfi_def_cfa_offset 8
 2084              		.cfi_offset 7, -8
 2085              		.cfi_offset 14, -4
 2086 0002 84B0     		sub	sp, sp, #16
ARM GAS  /tmp/ccOBznmR.s 			page 56


 2087              	.LCFI82:
 2088              		.cfi_def_cfa_offset 24
 2089 0004 00AF     		add	r7, sp, #0
 2090              	.LCFI83:
 2091              		.cfi_def_cfa_register 7
 2092 0006 7860     		str	r0, [r7, #4]
1077:./Libraries/STM32F4xx_HAL_Driver/Src/stm32f4xx_hal_uart.c ****   uint32_t dmarequest = 0x00U;
 2093              		.loc 1 1077 12
 2094 0008 0023     		movs	r3, #0
 2095 000a FB60     		str	r3, [r7, #12]
1078:./Libraries/STM32F4xx_HAL_Driver/Src/stm32f4xx_hal_uart.c ****   /* The Lock is not implemented on this API to allow the user application
1079:./Libraries/STM32F4xx_HAL_Driver/Src/stm32f4xx_hal_uart.c ****      to call the HAL UART API under callbacks HAL_UART_TxCpltCallback() / HAL_UART_RxCpltCallback()
1080:./Libraries/STM32F4xx_HAL_Driver/Src/stm32f4xx_hal_uart.c ****      when calling HAL_DMA_Abort() API the DMA TX/RX Transfer complete interrupt is generated
1081:./Libraries/STM32F4xx_HAL_Driver/Src/stm32f4xx_hal_uart.c ****      and the correspond call back is executed HAL_UART_TxCpltCallback() / HAL_UART_RxCpltCallback()
1082:./Libraries/STM32F4xx_HAL_Driver/Src/stm32f4xx_hal_uart.c ****      */
1083:./Libraries/STM32F4xx_HAL_Driver/Src/stm32f4xx_hal_uart.c ****   
1084:./Libraries/STM32F4xx_HAL_Driver/Src/stm32f4xx_hal_uart.c ****   /* Stop UART DMA Tx request if ongoing */
1085:./Libraries/STM32F4xx_HAL_Driver/Src/stm32f4xx_hal_uart.c ****   dmarequest = HAL_IS_BIT_SET(huart->Instance->CR3, USART_CR3_DMAT);
 2096              		.loc 1 1085 16
 2097 000c 7B68     		ldr	r3, [r7, #4]
 2098 000e 1B68     		ldr	r3, [r3]
 2099 0010 5B69     		ldr	r3, [r3, #20]
 2100 0012 03F08003 		and	r3, r3, #128
 2101 0016 002B     		cmp	r3, #0
 2102 0018 14BF     		ite	ne
 2103 001a 0123     		movne	r3, #1
 2104 001c 0023     		moveq	r3, #0
 2105 001e DBB2     		uxtb	r3, r3
 2106              		.loc 1 1085 14
 2107 0020 FB60     		str	r3, [r7, #12]
1086:./Libraries/STM32F4xx_HAL_Driver/Src/stm32f4xx_hal_uart.c ****   if((huart->gState == HAL_UART_STATE_BUSY_TX) && dmarequest)
 2108              		.loc 1 1086 12
 2109 0022 7B68     		ldr	r3, [r7, #4]
 2110 0024 93F83930 		ldrb	r3, [r3, #57]
 2111 0028 DBB2     		uxtb	r3, r3
 2112              		.loc 1 1086 5
 2113 002a 212B     		cmp	r3, #33
 2114 002c 16D1     		bne	.L87
 2115              		.loc 1 1086 48 discriminator 1
 2116 002e FB68     		ldr	r3, [r7, #12]
 2117 0030 002B     		cmp	r3, #0
 2118 0032 13D0     		beq	.L87
1087:./Libraries/STM32F4xx_HAL_Driver/Src/stm32f4xx_hal_uart.c ****   {
1088:./Libraries/STM32F4xx_HAL_Driver/Src/stm32f4xx_hal_uart.c ****     CLEAR_BIT(huart->Instance->CR3, USART_CR3_DMAT);
 2119              		.loc 1 1088 5
 2120 0034 7B68     		ldr	r3, [r7, #4]
 2121 0036 1B68     		ldr	r3, [r3]
 2122 0038 5A69     		ldr	r2, [r3, #20]
 2123 003a 7B68     		ldr	r3, [r7, #4]
 2124 003c 1B68     		ldr	r3, [r3]
 2125 003e 22F08002 		bic	r2, r2, #128
 2126 0042 5A61     		str	r2, [r3, #20]
1089:./Libraries/STM32F4xx_HAL_Driver/Src/stm32f4xx_hal_uart.c **** 
1090:./Libraries/STM32F4xx_HAL_Driver/Src/stm32f4xx_hal_uart.c ****     /* Abort the UART DMA Tx channel */
1091:./Libraries/STM32F4xx_HAL_Driver/Src/stm32f4xx_hal_uart.c ****     if(huart->hdmatx != NULL)
 2127              		.loc 1 1091 13
 2128 0044 7B68     		ldr	r3, [r7, #4]
ARM GAS  /tmp/ccOBznmR.s 			page 57


 2129 0046 1B6B     		ldr	r3, [r3, #48]
 2130              		.loc 1 1091 7
 2131 0048 002B     		cmp	r3, #0
 2132 004a 04D0     		beq	.L88
1092:./Libraries/STM32F4xx_HAL_Driver/Src/stm32f4xx_hal_uart.c ****     {
1093:./Libraries/STM32F4xx_HAL_Driver/Src/stm32f4xx_hal_uart.c ****       HAL_DMA_Abort(huart->hdmatx);
 2133              		.loc 1 1093 7
 2134 004c 7B68     		ldr	r3, [r7, #4]
 2135 004e 1B6B     		ldr	r3, [r3, #48]
 2136 0050 1846     		mov	r0, r3
 2137 0052 FFF7FEFF 		bl	HAL_DMA_Abort
 2138              	.L88:
1094:./Libraries/STM32F4xx_HAL_Driver/Src/stm32f4xx_hal_uart.c ****     }
1095:./Libraries/STM32F4xx_HAL_Driver/Src/stm32f4xx_hal_uart.c ****     UART_EndTxTransfer(huart);
 2139              		.loc 1 1095 5
 2140 0056 7868     		ldr	r0, [r7, #4]
 2141 0058 FFF7FEFF 		bl	UART_EndTxTransfer
 2142              	.L87:
1096:./Libraries/STM32F4xx_HAL_Driver/Src/stm32f4xx_hal_uart.c ****   }
1097:./Libraries/STM32F4xx_HAL_Driver/Src/stm32f4xx_hal_uart.c **** 
1098:./Libraries/STM32F4xx_HAL_Driver/Src/stm32f4xx_hal_uart.c ****   /* Stop UART DMA Rx request if ongoing */
1099:./Libraries/STM32F4xx_HAL_Driver/Src/stm32f4xx_hal_uart.c ****   dmarequest = HAL_IS_BIT_SET(huart->Instance->CR3, USART_CR3_DMAR);
 2143              		.loc 1 1099 16
 2144 005c 7B68     		ldr	r3, [r7, #4]
 2145 005e 1B68     		ldr	r3, [r3]
 2146 0060 5B69     		ldr	r3, [r3, #20]
 2147 0062 03F04003 		and	r3, r3, #64
 2148 0066 002B     		cmp	r3, #0
 2149 0068 14BF     		ite	ne
 2150 006a 0123     		movne	r3, #1
 2151 006c 0023     		moveq	r3, #0
 2152 006e DBB2     		uxtb	r3, r3
 2153              		.loc 1 1099 14
 2154 0070 FB60     		str	r3, [r7, #12]
1100:./Libraries/STM32F4xx_HAL_Driver/Src/stm32f4xx_hal_uart.c ****   if((huart->RxState == HAL_UART_STATE_BUSY_RX) && dmarequest)
 2155              		.loc 1 1100 12
 2156 0072 7B68     		ldr	r3, [r7, #4]
 2157 0074 93F83A30 		ldrb	r3, [r3, #58]
 2158 0078 DBB2     		uxtb	r3, r3
 2159              		.loc 1 1100 5
 2160 007a 222B     		cmp	r3, #34
 2161 007c 16D1     		bne	.L89
 2162              		.loc 1 1100 49 discriminator 1
 2163 007e FB68     		ldr	r3, [r7, #12]
 2164 0080 002B     		cmp	r3, #0
 2165 0082 13D0     		beq	.L89
1101:./Libraries/STM32F4xx_HAL_Driver/Src/stm32f4xx_hal_uart.c ****   {
1102:./Libraries/STM32F4xx_HAL_Driver/Src/stm32f4xx_hal_uart.c ****     CLEAR_BIT(huart->Instance->CR3, USART_CR3_DMAR);
 2166              		.loc 1 1102 5
 2167 0084 7B68     		ldr	r3, [r7, #4]
 2168 0086 1B68     		ldr	r3, [r3]
 2169 0088 5A69     		ldr	r2, [r3, #20]
 2170 008a 7B68     		ldr	r3, [r7, #4]
 2171 008c 1B68     		ldr	r3, [r3]
 2172 008e 22F04002 		bic	r2, r2, #64
 2173 0092 5A61     		str	r2, [r3, #20]
1103:./Libraries/STM32F4xx_HAL_Driver/Src/stm32f4xx_hal_uart.c **** 
ARM GAS  /tmp/ccOBznmR.s 			page 58


1104:./Libraries/STM32F4xx_HAL_Driver/Src/stm32f4xx_hal_uart.c ****     /* Abort the UART DMA Rx channel */
1105:./Libraries/STM32F4xx_HAL_Driver/Src/stm32f4xx_hal_uart.c ****     if(huart->hdmarx != NULL)
 2174              		.loc 1 1105 13
 2175 0094 7B68     		ldr	r3, [r7, #4]
 2176 0096 5B6B     		ldr	r3, [r3, #52]
 2177              		.loc 1 1105 7
 2178 0098 002B     		cmp	r3, #0
 2179 009a 04D0     		beq	.L90
1106:./Libraries/STM32F4xx_HAL_Driver/Src/stm32f4xx_hal_uart.c ****     {
1107:./Libraries/STM32F4xx_HAL_Driver/Src/stm32f4xx_hal_uart.c ****       HAL_DMA_Abort(huart->hdmarx);
 2180              		.loc 1 1107 7
 2181 009c 7B68     		ldr	r3, [r7, #4]
 2182 009e 5B6B     		ldr	r3, [r3, #52]
 2183 00a0 1846     		mov	r0, r3
 2184 00a2 FFF7FEFF 		bl	HAL_DMA_Abort
 2185              	.L90:
1108:./Libraries/STM32F4xx_HAL_Driver/Src/stm32f4xx_hal_uart.c ****     }
1109:./Libraries/STM32F4xx_HAL_Driver/Src/stm32f4xx_hal_uart.c ****     UART_EndRxTransfer(huart);
 2186              		.loc 1 1109 5
 2187 00a6 7868     		ldr	r0, [r7, #4]
 2188 00a8 FFF7FEFF 		bl	UART_EndRxTransfer
 2189              	.L89:
1110:./Libraries/STM32F4xx_HAL_Driver/Src/stm32f4xx_hal_uart.c ****   }
1111:./Libraries/STM32F4xx_HAL_Driver/Src/stm32f4xx_hal_uart.c **** 
1112:./Libraries/STM32F4xx_HAL_Driver/Src/stm32f4xx_hal_uart.c ****   return HAL_OK;
 2190              		.loc 1 1112 10
 2191 00ac 0023     		movs	r3, #0
1113:./Libraries/STM32F4xx_HAL_Driver/Src/stm32f4xx_hal_uart.c **** }
 2192              		.loc 1 1113 1
 2193 00ae 1846     		mov	r0, r3
 2194 00b0 1037     		adds	r7, r7, #16
 2195              	.LCFI84:
 2196              		.cfi_def_cfa_offset 8
 2197 00b2 BD46     		mov	sp, r7
 2198              	.LCFI85:
 2199              		.cfi_def_cfa_register 13
 2200              		@ sp needed
 2201 00b4 80BD     		pop	{r7, pc}
 2202              		.cfi_endproc
 2203              	.LFE141:
 2205              		.section	.text.HAL_UART_Abort,"ax",%progbits
 2206              		.align	1
 2207              		.global	HAL_UART_Abort
 2208              		.syntax unified
 2209              		.thumb
 2210              		.thumb_func
 2211              		.fpu fpv4-sp-d16
 2213              	HAL_UART_Abort:
 2214              	.LFB142:
1114:./Libraries/STM32F4xx_HAL_Driver/Src/stm32f4xx_hal_uart.c **** 
1115:./Libraries/STM32F4xx_HAL_Driver/Src/stm32f4xx_hal_uart.c **** /**
1116:./Libraries/STM32F4xx_HAL_Driver/Src/stm32f4xx_hal_uart.c ****   * @brief  Abort ongoing transfers (blocking mode).
1117:./Libraries/STM32F4xx_HAL_Driver/Src/stm32f4xx_hal_uart.c ****   * @param  huart UART handle.
1118:./Libraries/STM32F4xx_HAL_Driver/Src/stm32f4xx_hal_uart.c ****   * @note   This procedure could be used for aborting any ongoing transfer started in Interrupt or 
1119:./Libraries/STM32F4xx_HAL_Driver/Src/stm32f4xx_hal_uart.c ****   *         This procedure performs following operations :
1120:./Libraries/STM32F4xx_HAL_Driver/Src/stm32f4xx_hal_uart.c ****   *           - Disable PPP Interrupts
1121:./Libraries/STM32F4xx_HAL_Driver/Src/stm32f4xx_hal_uart.c ****   *           - Disable the DMA transfer in the peripheral register (if enabled)
ARM GAS  /tmp/ccOBznmR.s 			page 59


1122:./Libraries/STM32F4xx_HAL_Driver/Src/stm32f4xx_hal_uart.c ****   *           - Abort DMA transfer by calling HAL_DMA_Abort (in case of transfer in DMA mode)
1123:./Libraries/STM32F4xx_HAL_Driver/Src/stm32f4xx_hal_uart.c ****   *           - Set handle State to READY
1124:./Libraries/STM32F4xx_HAL_Driver/Src/stm32f4xx_hal_uart.c ****   * @note   This procedure is executed in blocking mode : when exiting function, Abort is considere
1125:./Libraries/STM32F4xx_HAL_Driver/Src/stm32f4xx_hal_uart.c ****   * @retval HAL status
1126:./Libraries/STM32F4xx_HAL_Driver/Src/stm32f4xx_hal_uart.c **** */
1127:./Libraries/STM32F4xx_HAL_Driver/Src/stm32f4xx_hal_uart.c **** HAL_StatusTypeDef HAL_UART_Abort(UART_HandleTypeDef *huart)
1128:./Libraries/STM32F4xx_HAL_Driver/Src/stm32f4xx_hal_uart.c **** {
 2215              		.loc 1 1128 1
 2216              		.cfi_startproc
 2217              		@ args = 0, pretend = 0, frame = 8
 2218              		@ frame_needed = 1, uses_anonymous_args = 0
 2219 0000 80B5     		push	{r7, lr}
 2220              	.LCFI86:
 2221              		.cfi_def_cfa_offset 8
 2222              		.cfi_offset 7, -8
 2223              		.cfi_offset 14, -4
 2224 0002 82B0     		sub	sp, sp, #8
 2225              	.LCFI87:
 2226              		.cfi_def_cfa_offset 16
 2227 0004 00AF     		add	r7, sp, #0
 2228              	.LCFI88:
 2229              		.cfi_def_cfa_register 7
 2230 0006 7860     		str	r0, [r7, #4]
1129:./Libraries/STM32F4xx_HAL_Driver/Src/stm32f4xx_hal_uart.c ****   /* Disable TXEIE, TCIE, RXNE, PE and ERR (Frame error, noise error, overrun error) interrupts */
1130:./Libraries/STM32F4xx_HAL_Driver/Src/stm32f4xx_hal_uart.c ****   CLEAR_BIT(huart->Instance->CR1, (USART_CR1_RXNEIE | USART_CR1_PEIE | USART_CR1_TXEIE | USART_CR1_
 2231              		.loc 1 1130 3
 2232 0008 7B68     		ldr	r3, [r7, #4]
 2233 000a 1B68     		ldr	r3, [r3]
 2234 000c DA68     		ldr	r2, [r3, #12]
 2235 000e 7B68     		ldr	r3, [r7, #4]
 2236 0010 1B68     		ldr	r3, [r3]
 2237 0012 22F4F072 		bic	r2, r2, #480
 2238 0016 DA60     		str	r2, [r3, #12]
1131:./Libraries/STM32F4xx_HAL_Driver/Src/stm32f4xx_hal_uart.c ****   CLEAR_BIT(huart->Instance->CR3, USART_CR3_EIE);
 2239              		.loc 1 1131 3
 2240 0018 7B68     		ldr	r3, [r7, #4]
 2241 001a 1B68     		ldr	r3, [r3]
 2242 001c 5A69     		ldr	r2, [r3, #20]
 2243 001e 7B68     		ldr	r3, [r7, #4]
 2244 0020 1B68     		ldr	r3, [r3]
 2245 0022 22F00102 		bic	r2, r2, #1
 2246 0026 5A61     		str	r2, [r3, #20]
1132:./Libraries/STM32F4xx_HAL_Driver/Src/stm32f4xx_hal_uart.c ****   
1133:./Libraries/STM32F4xx_HAL_Driver/Src/stm32f4xx_hal_uart.c ****   /* Disable the UART DMA Tx request if enabled */
1134:./Libraries/STM32F4xx_HAL_Driver/Src/stm32f4xx_hal_uart.c ****   if(HAL_IS_BIT_SET(huart->Instance->CR3, USART_CR3_DMAT))
 2247              		.loc 1 1134 6
 2248 0028 7B68     		ldr	r3, [r7, #4]
 2249 002a 1B68     		ldr	r3, [r3]
 2250 002c 5B69     		ldr	r3, [r3, #20]
 2251 002e 03F08003 		and	r3, r3, #128
 2252              		.loc 1 1134 5
 2253 0032 002B     		cmp	r3, #0
 2254 0034 14D0     		beq	.L93
1135:./Libraries/STM32F4xx_HAL_Driver/Src/stm32f4xx_hal_uart.c ****   {
1136:./Libraries/STM32F4xx_HAL_Driver/Src/stm32f4xx_hal_uart.c ****     CLEAR_BIT(huart->Instance->CR3, USART_CR3_DMAT);
 2255              		.loc 1 1136 5
 2256 0036 7B68     		ldr	r3, [r7, #4]
ARM GAS  /tmp/ccOBznmR.s 			page 60


 2257 0038 1B68     		ldr	r3, [r3]
 2258 003a 5A69     		ldr	r2, [r3, #20]
 2259 003c 7B68     		ldr	r3, [r7, #4]
 2260 003e 1B68     		ldr	r3, [r3]
 2261 0040 22F08002 		bic	r2, r2, #128
 2262 0044 5A61     		str	r2, [r3, #20]
1137:./Libraries/STM32F4xx_HAL_Driver/Src/stm32f4xx_hal_uart.c **** 
1138:./Libraries/STM32F4xx_HAL_Driver/Src/stm32f4xx_hal_uart.c ****     /* Abort the UART DMA Tx channel: use blocking DMA Abort API (no callback) */
1139:./Libraries/STM32F4xx_HAL_Driver/Src/stm32f4xx_hal_uart.c ****     if(huart->hdmatx != NULL)
 2263              		.loc 1 1139 13
 2264 0046 7B68     		ldr	r3, [r7, #4]
 2265 0048 1B6B     		ldr	r3, [r3, #48]
 2266              		.loc 1 1139 7
 2267 004a 002B     		cmp	r3, #0
 2268 004c 08D0     		beq	.L93
1140:./Libraries/STM32F4xx_HAL_Driver/Src/stm32f4xx_hal_uart.c ****     {
1141:./Libraries/STM32F4xx_HAL_Driver/Src/stm32f4xx_hal_uart.c ****       /* Set the UART DMA Abort callback to Null. 
1142:./Libraries/STM32F4xx_HAL_Driver/Src/stm32f4xx_hal_uart.c ****          No call back execution at end of DMA abort procedure */
1143:./Libraries/STM32F4xx_HAL_Driver/Src/stm32f4xx_hal_uart.c ****       huart->hdmatx->XferAbortCallback = NULL;
 2269              		.loc 1 1143 12
 2270 004e 7B68     		ldr	r3, [r7, #4]
 2271 0050 1B6B     		ldr	r3, [r3, #48]
 2272              		.loc 1 1143 40
 2273 0052 0022     		movs	r2, #0
 2274 0054 1A65     		str	r2, [r3, #80]
1144:./Libraries/STM32F4xx_HAL_Driver/Src/stm32f4xx_hal_uart.c **** 
1145:./Libraries/STM32F4xx_HAL_Driver/Src/stm32f4xx_hal_uart.c ****       HAL_DMA_Abort(huart->hdmatx);
 2275              		.loc 1 1145 7
 2276 0056 7B68     		ldr	r3, [r7, #4]
 2277 0058 1B6B     		ldr	r3, [r3, #48]
 2278 005a 1846     		mov	r0, r3
 2279 005c FFF7FEFF 		bl	HAL_DMA_Abort
 2280              	.L93:
1146:./Libraries/STM32F4xx_HAL_Driver/Src/stm32f4xx_hal_uart.c ****     }
1147:./Libraries/STM32F4xx_HAL_Driver/Src/stm32f4xx_hal_uart.c ****   }
1148:./Libraries/STM32F4xx_HAL_Driver/Src/stm32f4xx_hal_uart.c **** 
1149:./Libraries/STM32F4xx_HAL_Driver/Src/stm32f4xx_hal_uart.c ****   /* Disable the UART DMA Rx request if enabled */
1150:./Libraries/STM32F4xx_HAL_Driver/Src/stm32f4xx_hal_uart.c ****   if(HAL_IS_BIT_SET(huart->Instance->CR3, USART_CR3_DMAR))
 2281              		.loc 1 1150 6
 2282 0060 7B68     		ldr	r3, [r7, #4]
 2283 0062 1B68     		ldr	r3, [r3]
 2284 0064 5B69     		ldr	r3, [r3, #20]
 2285 0066 03F04003 		and	r3, r3, #64
 2286              		.loc 1 1150 5
 2287 006a 002B     		cmp	r3, #0
 2288 006c 14D0     		beq	.L94
1151:./Libraries/STM32F4xx_HAL_Driver/Src/stm32f4xx_hal_uart.c ****   {
1152:./Libraries/STM32F4xx_HAL_Driver/Src/stm32f4xx_hal_uart.c ****     CLEAR_BIT(huart->Instance->CR3, USART_CR3_DMAR);
 2289              		.loc 1 1152 5
 2290 006e 7B68     		ldr	r3, [r7, #4]
 2291 0070 1B68     		ldr	r3, [r3]
 2292 0072 5A69     		ldr	r2, [r3, #20]
 2293 0074 7B68     		ldr	r3, [r7, #4]
 2294 0076 1B68     		ldr	r3, [r3]
 2295 0078 22F04002 		bic	r2, r2, #64
 2296 007c 5A61     		str	r2, [r3, #20]
1153:./Libraries/STM32F4xx_HAL_Driver/Src/stm32f4xx_hal_uart.c **** 
ARM GAS  /tmp/ccOBznmR.s 			page 61


1154:./Libraries/STM32F4xx_HAL_Driver/Src/stm32f4xx_hal_uart.c ****     /* Abort the UART DMA Rx channel: use blocking DMA Abort API (no callback) */
1155:./Libraries/STM32F4xx_HAL_Driver/Src/stm32f4xx_hal_uart.c ****     if(huart->hdmarx != NULL)
 2297              		.loc 1 1155 13
 2298 007e 7B68     		ldr	r3, [r7, #4]
 2299 0080 5B6B     		ldr	r3, [r3, #52]
 2300              		.loc 1 1155 7
 2301 0082 002B     		cmp	r3, #0
 2302 0084 08D0     		beq	.L94
1156:./Libraries/STM32F4xx_HAL_Driver/Src/stm32f4xx_hal_uart.c ****     {
1157:./Libraries/STM32F4xx_HAL_Driver/Src/stm32f4xx_hal_uart.c ****       /* Set the UART DMA Abort callback to Null. 
1158:./Libraries/STM32F4xx_HAL_Driver/Src/stm32f4xx_hal_uart.c ****          No call back execution at end of DMA abort procedure */
1159:./Libraries/STM32F4xx_HAL_Driver/Src/stm32f4xx_hal_uart.c ****       huart->hdmarx->XferAbortCallback = NULL;
 2303              		.loc 1 1159 12
 2304 0086 7B68     		ldr	r3, [r7, #4]
 2305 0088 5B6B     		ldr	r3, [r3, #52]
 2306              		.loc 1 1159 40
 2307 008a 0022     		movs	r2, #0
 2308 008c 1A65     		str	r2, [r3, #80]
1160:./Libraries/STM32F4xx_HAL_Driver/Src/stm32f4xx_hal_uart.c **** 
1161:./Libraries/STM32F4xx_HAL_Driver/Src/stm32f4xx_hal_uart.c ****       HAL_DMA_Abort(huart->hdmarx);
 2309              		.loc 1 1161 7
 2310 008e 7B68     		ldr	r3, [r7, #4]
 2311 0090 5B6B     		ldr	r3, [r3, #52]
 2312 0092 1846     		mov	r0, r3
 2313 0094 FFF7FEFF 		bl	HAL_DMA_Abort
 2314              	.L94:
1162:./Libraries/STM32F4xx_HAL_Driver/Src/stm32f4xx_hal_uart.c ****     }
1163:./Libraries/STM32F4xx_HAL_Driver/Src/stm32f4xx_hal_uart.c ****   }
1164:./Libraries/STM32F4xx_HAL_Driver/Src/stm32f4xx_hal_uart.c **** 
1165:./Libraries/STM32F4xx_HAL_Driver/Src/stm32f4xx_hal_uart.c ****   /* Reset Tx and Rx transfer counters */
1166:./Libraries/STM32F4xx_HAL_Driver/Src/stm32f4xx_hal_uart.c ****   huart->TxXferCount = 0x00U;
 2315              		.loc 1 1166 22
 2316 0098 7B68     		ldr	r3, [r7, #4]
 2317 009a 0022     		movs	r2, #0
 2318 009c DA84     		strh	r2, [r3, #38]	@ movhi
1167:./Libraries/STM32F4xx_HAL_Driver/Src/stm32f4xx_hal_uart.c ****   huart->RxXferCount = 0x00U;
 2319              		.loc 1 1167 22
 2320 009e 7B68     		ldr	r3, [r7, #4]
 2321 00a0 0022     		movs	r2, #0
 2322 00a2 DA85     		strh	r2, [r3, #46]	@ movhi
1168:./Libraries/STM32F4xx_HAL_Driver/Src/stm32f4xx_hal_uart.c **** 
1169:./Libraries/STM32F4xx_HAL_Driver/Src/stm32f4xx_hal_uart.c ****   /* Reset ErrorCode */
1170:./Libraries/STM32F4xx_HAL_Driver/Src/stm32f4xx_hal_uart.c ****   huart->ErrorCode = HAL_UART_ERROR_NONE;
 2323              		.loc 1 1170 20
 2324 00a4 7B68     		ldr	r3, [r7, #4]
 2325 00a6 0022     		movs	r2, #0
 2326 00a8 DA63     		str	r2, [r3, #60]
1171:./Libraries/STM32F4xx_HAL_Driver/Src/stm32f4xx_hal_uart.c **** 
1172:./Libraries/STM32F4xx_HAL_Driver/Src/stm32f4xx_hal_uart.c ****   /* Restore huart->RxState and huart->gState to Ready */
1173:./Libraries/STM32F4xx_HAL_Driver/Src/stm32f4xx_hal_uart.c ****   huart->RxState = HAL_UART_STATE_READY;
 2327              		.loc 1 1173 18
 2328 00aa 7B68     		ldr	r3, [r7, #4]
 2329 00ac 2022     		movs	r2, #32
 2330 00ae 83F83A20 		strb	r2, [r3, #58]
1174:./Libraries/STM32F4xx_HAL_Driver/Src/stm32f4xx_hal_uart.c ****   huart->gState = HAL_UART_STATE_READY;
 2331              		.loc 1 1174 17
 2332 00b2 7B68     		ldr	r3, [r7, #4]
ARM GAS  /tmp/ccOBznmR.s 			page 62


 2333 00b4 2022     		movs	r2, #32
 2334 00b6 83F83920 		strb	r2, [r3, #57]
1175:./Libraries/STM32F4xx_HAL_Driver/Src/stm32f4xx_hal_uart.c **** 
1176:./Libraries/STM32F4xx_HAL_Driver/Src/stm32f4xx_hal_uart.c ****   return HAL_OK;
 2335              		.loc 1 1176 10
 2336 00ba 0023     		movs	r3, #0
1177:./Libraries/STM32F4xx_HAL_Driver/Src/stm32f4xx_hal_uart.c **** }
 2337              		.loc 1 1177 1
 2338 00bc 1846     		mov	r0, r3
 2339 00be 0837     		adds	r7, r7, #8
 2340              	.LCFI89:
 2341              		.cfi_def_cfa_offset 8
 2342 00c0 BD46     		mov	sp, r7
 2343              	.LCFI90:
 2344              		.cfi_def_cfa_register 13
 2345              		@ sp needed
 2346 00c2 80BD     		pop	{r7, pc}
 2347              		.cfi_endproc
 2348              	.LFE142:
 2350              		.section	.text.HAL_UART_AbortTransmit,"ax",%progbits
 2351              		.align	1
 2352              		.global	HAL_UART_AbortTransmit
 2353              		.syntax unified
 2354              		.thumb
 2355              		.thumb_func
 2356              		.fpu fpv4-sp-d16
 2358              	HAL_UART_AbortTransmit:
 2359              	.LFB143:
1178:./Libraries/STM32F4xx_HAL_Driver/Src/stm32f4xx_hal_uart.c **** 
1179:./Libraries/STM32F4xx_HAL_Driver/Src/stm32f4xx_hal_uart.c **** /**
1180:./Libraries/STM32F4xx_HAL_Driver/Src/stm32f4xx_hal_uart.c ****   * @brief  Abort ongoing Transmit transfer (blocking mode).
1181:./Libraries/STM32F4xx_HAL_Driver/Src/stm32f4xx_hal_uart.c ****   * @param  huart UART handle.
1182:./Libraries/STM32F4xx_HAL_Driver/Src/stm32f4xx_hal_uart.c ****   * @note   This procedure could be used for aborting any ongoing transfer started in Interrupt or 
1183:./Libraries/STM32F4xx_HAL_Driver/Src/stm32f4xx_hal_uart.c ****   *         This procedure performs following operations :
1184:./Libraries/STM32F4xx_HAL_Driver/Src/stm32f4xx_hal_uart.c ****   *           - Disable PPP Interrupts
1185:./Libraries/STM32F4xx_HAL_Driver/Src/stm32f4xx_hal_uart.c ****   *           - Disable the DMA transfer in the peripheral register (if enabled)
1186:./Libraries/STM32F4xx_HAL_Driver/Src/stm32f4xx_hal_uart.c ****   *           - Abort DMA transfer by calling HAL_DMA_Abort (in case of transfer in DMA mode)
1187:./Libraries/STM32F4xx_HAL_Driver/Src/stm32f4xx_hal_uart.c ****   *           - Set handle State to READY
1188:./Libraries/STM32F4xx_HAL_Driver/Src/stm32f4xx_hal_uart.c ****   * @note   This procedure is executed in blocking mode : when exiting function, Abort is considere
1189:./Libraries/STM32F4xx_HAL_Driver/Src/stm32f4xx_hal_uart.c ****   * @retval HAL status
1190:./Libraries/STM32F4xx_HAL_Driver/Src/stm32f4xx_hal_uart.c **** */
1191:./Libraries/STM32F4xx_HAL_Driver/Src/stm32f4xx_hal_uart.c **** HAL_StatusTypeDef HAL_UART_AbortTransmit(UART_HandleTypeDef *huart)
1192:./Libraries/STM32F4xx_HAL_Driver/Src/stm32f4xx_hal_uart.c **** {
 2360              		.loc 1 1192 1
 2361              		.cfi_startproc
 2362              		@ args = 0, pretend = 0, frame = 8
 2363              		@ frame_needed = 1, uses_anonymous_args = 0
 2364 0000 80B5     		push	{r7, lr}
 2365              	.LCFI91:
 2366              		.cfi_def_cfa_offset 8
 2367              		.cfi_offset 7, -8
 2368              		.cfi_offset 14, -4
 2369 0002 82B0     		sub	sp, sp, #8
 2370              	.LCFI92:
 2371              		.cfi_def_cfa_offset 16
 2372 0004 00AF     		add	r7, sp, #0
 2373              	.LCFI93:
ARM GAS  /tmp/ccOBznmR.s 			page 63


 2374              		.cfi_def_cfa_register 7
 2375 0006 7860     		str	r0, [r7, #4]
1193:./Libraries/STM32F4xx_HAL_Driver/Src/stm32f4xx_hal_uart.c ****   /* Disable TXEIE and TCIE interrupts */
1194:./Libraries/STM32F4xx_HAL_Driver/Src/stm32f4xx_hal_uart.c ****   CLEAR_BIT(huart->Instance->CR1, (USART_CR1_TXEIE | USART_CR1_TCIE));
 2376              		.loc 1 1194 3
 2377 0008 7B68     		ldr	r3, [r7, #4]
 2378 000a 1B68     		ldr	r3, [r3]
 2379 000c DA68     		ldr	r2, [r3, #12]
 2380 000e 7B68     		ldr	r3, [r7, #4]
 2381 0010 1B68     		ldr	r3, [r3]
 2382 0012 22F0C002 		bic	r2, r2, #192
 2383 0016 DA60     		str	r2, [r3, #12]
1195:./Libraries/STM32F4xx_HAL_Driver/Src/stm32f4xx_hal_uart.c **** 
1196:./Libraries/STM32F4xx_HAL_Driver/Src/stm32f4xx_hal_uart.c ****   /* Disable the UART DMA Tx request if enabled */
1197:./Libraries/STM32F4xx_HAL_Driver/Src/stm32f4xx_hal_uart.c ****   if(HAL_IS_BIT_SET(huart->Instance->CR3, USART_CR3_DMAT))
 2384              		.loc 1 1197 6
 2385 0018 7B68     		ldr	r3, [r7, #4]
 2386 001a 1B68     		ldr	r3, [r3]
 2387 001c 5B69     		ldr	r3, [r3, #20]
 2388 001e 03F08003 		and	r3, r3, #128
 2389              		.loc 1 1197 5
 2390 0022 002B     		cmp	r3, #0
 2391 0024 14D0     		beq	.L97
1198:./Libraries/STM32F4xx_HAL_Driver/Src/stm32f4xx_hal_uart.c ****   {
1199:./Libraries/STM32F4xx_HAL_Driver/Src/stm32f4xx_hal_uart.c ****     CLEAR_BIT(huart->Instance->CR3, USART_CR3_DMAT);
 2392              		.loc 1 1199 5
 2393 0026 7B68     		ldr	r3, [r7, #4]
 2394 0028 1B68     		ldr	r3, [r3]
 2395 002a 5A69     		ldr	r2, [r3, #20]
 2396 002c 7B68     		ldr	r3, [r7, #4]
 2397 002e 1B68     		ldr	r3, [r3]
 2398 0030 22F08002 		bic	r2, r2, #128
 2399 0034 5A61     		str	r2, [r3, #20]
1200:./Libraries/STM32F4xx_HAL_Driver/Src/stm32f4xx_hal_uart.c **** 
1201:./Libraries/STM32F4xx_HAL_Driver/Src/stm32f4xx_hal_uart.c ****     /* Abort the UART DMA Tx channel : use blocking DMA Abort API (no callback) */
1202:./Libraries/STM32F4xx_HAL_Driver/Src/stm32f4xx_hal_uart.c ****     if(huart->hdmatx != NULL)
 2400              		.loc 1 1202 13
 2401 0036 7B68     		ldr	r3, [r7, #4]
 2402 0038 1B6B     		ldr	r3, [r3, #48]
 2403              		.loc 1 1202 7
 2404 003a 002B     		cmp	r3, #0
 2405 003c 08D0     		beq	.L97
1203:./Libraries/STM32F4xx_HAL_Driver/Src/stm32f4xx_hal_uart.c ****     {
1204:./Libraries/STM32F4xx_HAL_Driver/Src/stm32f4xx_hal_uart.c ****       /* Set the UART DMA Abort callback to Null. 
1205:./Libraries/STM32F4xx_HAL_Driver/Src/stm32f4xx_hal_uart.c ****          No call back execution at end of DMA abort procedure */
1206:./Libraries/STM32F4xx_HAL_Driver/Src/stm32f4xx_hal_uart.c ****       huart->hdmatx->XferAbortCallback = NULL;
 2406              		.loc 1 1206 12
 2407 003e 7B68     		ldr	r3, [r7, #4]
 2408 0040 1B6B     		ldr	r3, [r3, #48]
 2409              		.loc 1 1206 40
 2410 0042 0022     		movs	r2, #0
 2411 0044 1A65     		str	r2, [r3, #80]
1207:./Libraries/STM32F4xx_HAL_Driver/Src/stm32f4xx_hal_uart.c **** 
1208:./Libraries/STM32F4xx_HAL_Driver/Src/stm32f4xx_hal_uart.c ****       HAL_DMA_Abort(huart->hdmatx);
 2412              		.loc 1 1208 7
 2413 0046 7B68     		ldr	r3, [r7, #4]
 2414 0048 1B6B     		ldr	r3, [r3, #48]
ARM GAS  /tmp/ccOBznmR.s 			page 64


 2415 004a 1846     		mov	r0, r3
 2416 004c FFF7FEFF 		bl	HAL_DMA_Abort
 2417              	.L97:
1209:./Libraries/STM32F4xx_HAL_Driver/Src/stm32f4xx_hal_uart.c ****     }
1210:./Libraries/STM32F4xx_HAL_Driver/Src/stm32f4xx_hal_uart.c ****   }
1211:./Libraries/STM32F4xx_HAL_Driver/Src/stm32f4xx_hal_uart.c **** 
1212:./Libraries/STM32F4xx_HAL_Driver/Src/stm32f4xx_hal_uart.c ****   /* Reset Tx transfer counter */
1213:./Libraries/STM32F4xx_HAL_Driver/Src/stm32f4xx_hal_uart.c ****   huart->TxXferCount = 0x00U;
 2418              		.loc 1 1213 22
 2419 0050 7B68     		ldr	r3, [r7, #4]
 2420 0052 0022     		movs	r2, #0
 2421 0054 DA84     		strh	r2, [r3, #38]	@ movhi
1214:./Libraries/STM32F4xx_HAL_Driver/Src/stm32f4xx_hal_uart.c **** 
1215:./Libraries/STM32F4xx_HAL_Driver/Src/stm32f4xx_hal_uart.c ****   /* Restore huart->gState to Ready */
1216:./Libraries/STM32F4xx_HAL_Driver/Src/stm32f4xx_hal_uart.c ****   huart->gState = HAL_UART_STATE_READY;
 2422              		.loc 1 1216 17
 2423 0056 7B68     		ldr	r3, [r7, #4]
 2424 0058 2022     		movs	r2, #32
 2425 005a 83F83920 		strb	r2, [r3, #57]
1217:./Libraries/STM32F4xx_HAL_Driver/Src/stm32f4xx_hal_uart.c **** 
1218:./Libraries/STM32F4xx_HAL_Driver/Src/stm32f4xx_hal_uart.c ****   return HAL_OK;
 2426              		.loc 1 1218 10
 2427 005e 0023     		movs	r3, #0
1219:./Libraries/STM32F4xx_HAL_Driver/Src/stm32f4xx_hal_uart.c **** }
 2428              		.loc 1 1219 1
 2429 0060 1846     		mov	r0, r3
 2430 0062 0837     		adds	r7, r7, #8
 2431              	.LCFI94:
 2432              		.cfi_def_cfa_offset 8
 2433 0064 BD46     		mov	sp, r7
 2434              	.LCFI95:
 2435              		.cfi_def_cfa_register 13
 2436              		@ sp needed
 2437 0066 80BD     		pop	{r7, pc}
 2438              		.cfi_endproc
 2439              	.LFE143:
 2441              		.section	.text.HAL_UART_AbortReceive,"ax",%progbits
 2442              		.align	1
 2443              		.global	HAL_UART_AbortReceive
 2444              		.syntax unified
 2445              		.thumb
 2446              		.thumb_func
 2447              		.fpu fpv4-sp-d16
 2449              	HAL_UART_AbortReceive:
 2450              	.LFB144:
1220:./Libraries/STM32F4xx_HAL_Driver/Src/stm32f4xx_hal_uart.c **** 
1221:./Libraries/STM32F4xx_HAL_Driver/Src/stm32f4xx_hal_uart.c **** /**
1222:./Libraries/STM32F4xx_HAL_Driver/Src/stm32f4xx_hal_uart.c ****   * @brief  Abort ongoing Receive transfer (blocking mode).
1223:./Libraries/STM32F4xx_HAL_Driver/Src/stm32f4xx_hal_uart.c ****   * @param  huart UART handle.
1224:./Libraries/STM32F4xx_HAL_Driver/Src/stm32f4xx_hal_uart.c ****   * @note   This procedure could be used for aborting any ongoing transfer started in Interrupt or 
1225:./Libraries/STM32F4xx_HAL_Driver/Src/stm32f4xx_hal_uart.c ****   *         This procedure performs following operations :
1226:./Libraries/STM32F4xx_HAL_Driver/Src/stm32f4xx_hal_uart.c ****   *           - Disable PPP Interrupts
1227:./Libraries/STM32F4xx_HAL_Driver/Src/stm32f4xx_hal_uart.c ****   *           - Disable the DMA transfer in the peripheral register (if enabled)
1228:./Libraries/STM32F4xx_HAL_Driver/Src/stm32f4xx_hal_uart.c ****   *           - Abort DMA transfer by calling HAL_DMA_Abort (in case of transfer in DMA mode)
1229:./Libraries/STM32F4xx_HAL_Driver/Src/stm32f4xx_hal_uart.c ****   *           - Set handle State to READY
1230:./Libraries/STM32F4xx_HAL_Driver/Src/stm32f4xx_hal_uart.c ****   * @note   This procedure is executed in blocking mode : when exiting function, Abort is considere
1231:./Libraries/STM32F4xx_HAL_Driver/Src/stm32f4xx_hal_uart.c ****   * @retval HAL status
ARM GAS  /tmp/ccOBznmR.s 			page 65


1232:./Libraries/STM32F4xx_HAL_Driver/Src/stm32f4xx_hal_uart.c **** */
1233:./Libraries/STM32F4xx_HAL_Driver/Src/stm32f4xx_hal_uart.c **** HAL_StatusTypeDef HAL_UART_AbortReceive(UART_HandleTypeDef *huart)
1234:./Libraries/STM32F4xx_HAL_Driver/Src/stm32f4xx_hal_uart.c **** {
 2451              		.loc 1 1234 1
 2452              		.cfi_startproc
 2453              		@ args = 0, pretend = 0, frame = 8
 2454              		@ frame_needed = 1, uses_anonymous_args = 0
 2455 0000 80B5     		push	{r7, lr}
 2456              	.LCFI96:
 2457              		.cfi_def_cfa_offset 8
 2458              		.cfi_offset 7, -8
 2459              		.cfi_offset 14, -4
 2460 0002 82B0     		sub	sp, sp, #8
 2461              	.LCFI97:
 2462              		.cfi_def_cfa_offset 16
 2463 0004 00AF     		add	r7, sp, #0
 2464              	.LCFI98:
 2465              		.cfi_def_cfa_register 7
 2466 0006 7860     		str	r0, [r7, #4]
1235:./Libraries/STM32F4xx_HAL_Driver/Src/stm32f4xx_hal_uart.c ****   /* Disable RXNE, PE and ERR (Frame error, noise error, overrun error) interrupts */
1236:./Libraries/STM32F4xx_HAL_Driver/Src/stm32f4xx_hal_uart.c ****   CLEAR_BIT(huart->Instance->CR1, (USART_CR1_RXNEIE | USART_CR1_PEIE));
 2467              		.loc 1 1236 3
 2468 0008 7B68     		ldr	r3, [r7, #4]
 2469 000a 1B68     		ldr	r3, [r3]
 2470 000c DA68     		ldr	r2, [r3, #12]
 2471 000e 7B68     		ldr	r3, [r7, #4]
 2472 0010 1B68     		ldr	r3, [r3]
 2473 0012 22F49072 		bic	r2, r2, #288
 2474 0016 DA60     		str	r2, [r3, #12]
1237:./Libraries/STM32F4xx_HAL_Driver/Src/stm32f4xx_hal_uart.c ****   CLEAR_BIT(huart->Instance->CR3, USART_CR3_EIE);
 2475              		.loc 1 1237 3
 2476 0018 7B68     		ldr	r3, [r7, #4]
 2477 001a 1B68     		ldr	r3, [r3]
 2478 001c 5A69     		ldr	r2, [r3, #20]
 2479 001e 7B68     		ldr	r3, [r7, #4]
 2480 0020 1B68     		ldr	r3, [r3]
 2481 0022 22F00102 		bic	r2, r2, #1
 2482 0026 5A61     		str	r2, [r3, #20]
1238:./Libraries/STM32F4xx_HAL_Driver/Src/stm32f4xx_hal_uart.c **** 
1239:./Libraries/STM32F4xx_HAL_Driver/Src/stm32f4xx_hal_uart.c ****   /* Disable the UART DMA Rx request if enabled */
1240:./Libraries/STM32F4xx_HAL_Driver/Src/stm32f4xx_hal_uart.c ****   if(HAL_IS_BIT_SET(huart->Instance->CR3, USART_CR3_DMAR))
 2483              		.loc 1 1240 6
 2484 0028 7B68     		ldr	r3, [r7, #4]
 2485 002a 1B68     		ldr	r3, [r3]
 2486 002c 5B69     		ldr	r3, [r3, #20]
 2487 002e 03F04003 		and	r3, r3, #64
 2488              		.loc 1 1240 5
 2489 0032 002B     		cmp	r3, #0
 2490 0034 14D0     		beq	.L100
1241:./Libraries/STM32F4xx_HAL_Driver/Src/stm32f4xx_hal_uart.c ****   {
1242:./Libraries/STM32F4xx_HAL_Driver/Src/stm32f4xx_hal_uart.c ****     CLEAR_BIT(huart->Instance->CR3, USART_CR3_DMAR);
 2491              		.loc 1 1242 5
 2492 0036 7B68     		ldr	r3, [r7, #4]
 2493 0038 1B68     		ldr	r3, [r3]
 2494 003a 5A69     		ldr	r2, [r3, #20]
 2495 003c 7B68     		ldr	r3, [r7, #4]
 2496 003e 1B68     		ldr	r3, [r3]
ARM GAS  /tmp/ccOBznmR.s 			page 66


 2497 0040 22F04002 		bic	r2, r2, #64
 2498 0044 5A61     		str	r2, [r3, #20]
1243:./Libraries/STM32F4xx_HAL_Driver/Src/stm32f4xx_hal_uart.c **** 
1244:./Libraries/STM32F4xx_HAL_Driver/Src/stm32f4xx_hal_uart.c ****     /* Abort the UART DMA Rx channel : use blocking DMA Abort API (no callback) */
1245:./Libraries/STM32F4xx_HAL_Driver/Src/stm32f4xx_hal_uart.c ****     if(huart->hdmarx != NULL)
 2499              		.loc 1 1245 13
 2500 0046 7B68     		ldr	r3, [r7, #4]
 2501 0048 5B6B     		ldr	r3, [r3, #52]
 2502              		.loc 1 1245 7
 2503 004a 002B     		cmp	r3, #0
 2504 004c 08D0     		beq	.L100
1246:./Libraries/STM32F4xx_HAL_Driver/Src/stm32f4xx_hal_uart.c ****     {
1247:./Libraries/STM32F4xx_HAL_Driver/Src/stm32f4xx_hal_uart.c ****       /* Set the UART DMA Abort callback to Null. 
1248:./Libraries/STM32F4xx_HAL_Driver/Src/stm32f4xx_hal_uart.c ****          No call back execution at end of DMA abort procedure */
1249:./Libraries/STM32F4xx_HAL_Driver/Src/stm32f4xx_hal_uart.c ****       huart->hdmarx->XferAbortCallback = NULL;
 2505              		.loc 1 1249 12
 2506 004e 7B68     		ldr	r3, [r7, #4]
 2507 0050 5B6B     		ldr	r3, [r3, #52]
 2508              		.loc 1 1249 40
 2509 0052 0022     		movs	r2, #0
 2510 0054 1A65     		str	r2, [r3, #80]
1250:./Libraries/STM32F4xx_HAL_Driver/Src/stm32f4xx_hal_uart.c **** 
1251:./Libraries/STM32F4xx_HAL_Driver/Src/stm32f4xx_hal_uart.c ****       HAL_DMA_Abort(huart->hdmarx);
 2511              		.loc 1 1251 7
 2512 0056 7B68     		ldr	r3, [r7, #4]
 2513 0058 5B6B     		ldr	r3, [r3, #52]
 2514 005a 1846     		mov	r0, r3
 2515 005c FFF7FEFF 		bl	HAL_DMA_Abort
 2516              	.L100:
1252:./Libraries/STM32F4xx_HAL_Driver/Src/stm32f4xx_hal_uart.c ****     }
1253:./Libraries/STM32F4xx_HAL_Driver/Src/stm32f4xx_hal_uart.c ****   }
1254:./Libraries/STM32F4xx_HAL_Driver/Src/stm32f4xx_hal_uart.c **** 
1255:./Libraries/STM32F4xx_HAL_Driver/Src/stm32f4xx_hal_uart.c ****   /* Reset Rx transfer counter */
1256:./Libraries/STM32F4xx_HAL_Driver/Src/stm32f4xx_hal_uart.c ****   huart->RxXferCount = 0x00U;
 2517              		.loc 1 1256 22
 2518 0060 7B68     		ldr	r3, [r7, #4]
 2519 0062 0022     		movs	r2, #0
 2520 0064 DA85     		strh	r2, [r3, #46]	@ movhi
1257:./Libraries/STM32F4xx_HAL_Driver/Src/stm32f4xx_hal_uart.c **** 
1258:./Libraries/STM32F4xx_HAL_Driver/Src/stm32f4xx_hal_uart.c ****   /* Restore huart->RxState to Ready */
1259:./Libraries/STM32F4xx_HAL_Driver/Src/stm32f4xx_hal_uart.c ****   huart->RxState = HAL_UART_STATE_READY;
 2521              		.loc 1 1259 18
 2522 0066 7B68     		ldr	r3, [r7, #4]
 2523 0068 2022     		movs	r2, #32
 2524 006a 83F83A20 		strb	r2, [r3, #58]
1260:./Libraries/STM32F4xx_HAL_Driver/Src/stm32f4xx_hal_uart.c **** 
1261:./Libraries/STM32F4xx_HAL_Driver/Src/stm32f4xx_hal_uart.c ****   return HAL_OK;
 2525              		.loc 1 1261 10
 2526 006e 0023     		movs	r3, #0
1262:./Libraries/STM32F4xx_HAL_Driver/Src/stm32f4xx_hal_uart.c **** }
 2527              		.loc 1 1262 1
 2528 0070 1846     		mov	r0, r3
 2529 0072 0837     		adds	r7, r7, #8
 2530              	.LCFI99:
 2531              		.cfi_def_cfa_offset 8
 2532 0074 BD46     		mov	sp, r7
 2533              	.LCFI100:
ARM GAS  /tmp/ccOBznmR.s 			page 67


 2534              		.cfi_def_cfa_register 13
 2535              		@ sp needed
 2536 0076 80BD     		pop	{r7, pc}
 2537              		.cfi_endproc
 2538              	.LFE144:
 2540              		.section	.text.HAL_UART_Abort_IT,"ax",%progbits
 2541              		.align	1
 2542              		.global	HAL_UART_Abort_IT
 2543              		.syntax unified
 2544              		.thumb
 2545              		.thumb_func
 2546              		.fpu fpv4-sp-d16
 2548              	HAL_UART_Abort_IT:
 2549              	.LFB145:
1263:./Libraries/STM32F4xx_HAL_Driver/Src/stm32f4xx_hal_uart.c **** 
1264:./Libraries/STM32F4xx_HAL_Driver/Src/stm32f4xx_hal_uart.c **** /**
1265:./Libraries/STM32F4xx_HAL_Driver/Src/stm32f4xx_hal_uart.c ****   * @brief  Abort ongoing transfers (Interrupt mode).
1266:./Libraries/STM32F4xx_HAL_Driver/Src/stm32f4xx_hal_uart.c ****   * @param  huart UART handle.
1267:./Libraries/STM32F4xx_HAL_Driver/Src/stm32f4xx_hal_uart.c ****   * @note   This procedure could be used for aborting any ongoing transfer started in Interrupt or 
1268:./Libraries/STM32F4xx_HAL_Driver/Src/stm32f4xx_hal_uart.c ****   *         This procedure performs following operations :
1269:./Libraries/STM32F4xx_HAL_Driver/Src/stm32f4xx_hal_uart.c ****   *           - Disable PPP Interrupts
1270:./Libraries/STM32F4xx_HAL_Driver/Src/stm32f4xx_hal_uart.c ****   *           - Disable the DMA transfer in the peripheral register (if enabled)
1271:./Libraries/STM32F4xx_HAL_Driver/Src/stm32f4xx_hal_uart.c ****   *           - Abort DMA transfer by calling HAL_DMA_Abort_IT (in case of transfer in DMA mode)
1272:./Libraries/STM32F4xx_HAL_Driver/Src/stm32f4xx_hal_uart.c ****   *           - Set handle State to READY
1273:./Libraries/STM32F4xx_HAL_Driver/Src/stm32f4xx_hal_uart.c ****   *           - At abort completion, call user abort complete callback
1274:./Libraries/STM32F4xx_HAL_Driver/Src/stm32f4xx_hal_uart.c ****   * @note   This procedure is executed in Interrupt mode, meaning that abort procedure could be
1275:./Libraries/STM32F4xx_HAL_Driver/Src/stm32f4xx_hal_uart.c ****   *         considered as completed only when user abort complete callback is executed (not when ex
1276:./Libraries/STM32F4xx_HAL_Driver/Src/stm32f4xx_hal_uart.c ****   * @retval HAL status
1277:./Libraries/STM32F4xx_HAL_Driver/Src/stm32f4xx_hal_uart.c **** */
1278:./Libraries/STM32F4xx_HAL_Driver/Src/stm32f4xx_hal_uart.c **** HAL_StatusTypeDef HAL_UART_Abort_IT(UART_HandleTypeDef *huart)
1279:./Libraries/STM32F4xx_HAL_Driver/Src/stm32f4xx_hal_uart.c **** {
 2550              		.loc 1 1279 1
 2551              		.cfi_startproc
 2552              		@ args = 0, pretend = 0, frame = 16
 2553              		@ frame_needed = 1, uses_anonymous_args = 0
 2554 0000 80B5     		push	{r7, lr}
 2555              	.LCFI101:
 2556              		.cfi_def_cfa_offset 8
 2557              		.cfi_offset 7, -8
 2558              		.cfi_offset 14, -4
 2559 0002 84B0     		sub	sp, sp, #16
 2560              	.LCFI102:
 2561              		.cfi_def_cfa_offset 24
 2562 0004 00AF     		add	r7, sp, #0
 2563              	.LCFI103:
 2564              		.cfi_def_cfa_register 7
 2565 0006 7860     		str	r0, [r7, #4]
1280:./Libraries/STM32F4xx_HAL_Driver/Src/stm32f4xx_hal_uart.c ****   uint32_t AbortCplt = 0x01U;
 2566              		.loc 1 1280 12
 2567 0008 0123     		movs	r3, #1
 2568 000a FB60     		str	r3, [r7, #12]
1281:./Libraries/STM32F4xx_HAL_Driver/Src/stm32f4xx_hal_uart.c **** 
1282:./Libraries/STM32F4xx_HAL_Driver/Src/stm32f4xx_hal_uart.c ****   /* Disable TXEIE, TCIE, RXNE, PE and ERR (Frame error, noise error, overrun error) interrupts */
1283:./Libraries/STM32F4xx_HAL_Driver/Src/stm32f4xx_hal_uart.c ****   CLEAR_BIT(huart->Instance->CR1, (USART_CR1_RXNEIE | USART_CR1_PEIE | USART_CR1_TXEIE | USART_CR1_
 2569              		.loc 1 1283 3
 2570 000c 7B68     		ldr	r3, [r7, #4]
 2571 000e 1B68     		ldr	r3, [r3]
ARM GAS  /tmp/ccOBznmR.s 			page 68


 2572 0010 DA68     		ldr	r2, [r3, #12]
 2573 0012 7B68     		ldr	r3, [r7, #4]
 2574 0014 1B68     		ldr	r3, [r3]
 2575 0016 22F4F072 		bic	r2, r2, #480
 2576 001a DA60     		str	r2, [r3, #12]
1284:./Libraries/STM32F4xx_HAL_Driver/Src/stm32f4xx_hal_uart.c ****   CLEAR_BIT(huart->Instance->CR3, USART_CR3_EIE);
 2577              		.loc 1 1284 3
 2578 001c 7B68     		ldr	r3, [r7, #4]
 2579 001e 1B68     		ldr	r3, [r3]
 2580 0020 5A69     		ldr	r2, [r3, #20]
 2581 0022 7B68     		ldr	r3, [r7, #4]
 2582 0024 1B68     		ldr	r3, [r3]
 2583 0026 22F00102 		bic	r2, r2, #1
 2584 002a 5A61     		str	r2, [r3, #20]
1285:./Libraries/STM32F4xx_HAL_Driver/Src/stm32f4xx_hal_uart.c **** 
1286:./Libraries/STM32F4xx_HAL_Driver/Src/stm32f4xx_hal_uart.c ****   /* If DMA Tx and/or DMA Rx Handles are associated to UART Handle, DMA Abort complete callbacks sh
1287:./Libraries/STM32F4xx_HAL_Driver/Src/stm32f4xx_hal_uart.c ****      before any call to DMA Abort functions */
1288:./Libraries/STM32F4xx_HAL_Driver/Src/stm32f4xx_hal_uart.c ****   /* DMA Tx Handle is valid */
1289:./Libraries/STM32F4xx_HAL_Driver/Src/stm32f4xx_hal_uart.c ****   if(huart->hdmatx != NULL)
 2585              		.loc 1 1289 11
 2586 002c 7B68     		ldr	r3, [r7, #4]
 2587 002e 1B6B     		ldr	r3, [r3, #48]
 2588              		.loc 1 1289 5
 2589 0030 002B     		cmp	r3, #0
 2590 0032 0FD0     		beq	.L103
1290:./Libraries/STM32F4xx_HAL_Driver/Src/stm32f4xx_hal_uart.c ****   {
1291:./Libraries/STM32F4xx_HAL_Driver/Src/stm32f4xx_hal_uart.c ****     /* Set DMA Abort Complete callback if UART DMA Tx request if enabled.
1292:./Libraries/STM32F4xx_HAL_Driver/Src/stm32f4xx_hal_uart.c ****        Otherwise, set it to NULL */
1293:./Libraries/STM32F4xx_HAL_Driver/Src/stm32f4xx_hal_uart.c ****     if(HAL_IS_BIT_SET(huart->Instance->CR3, USART_CR3_DMAT))
 2591              		.loc 1 1293 8
 2592 0034 7B68     		ldr	r3, [r7, #4]
 2593 0036 1B68     		ldr	r3, [r3]
 2594 0038 5B69     		ldr	r3, [r3, #20]
 2595 003a 03F08003 		and	r3, r3, #128
 2596              		.loc 1 1293 7
 2597 003e 002B     		cmp	r3, #0
 2598 0040 04D0     		beq	.L104
1294:./Libraries/STM32F4xx_HAL_Driver/Src/stm32f4xx_hal_uart.c ****     {
1295:./Libraries/STM32F4xx_HAL_Driver/Src/stm32f4xx_hal_uart.c ****       huart->hdmatx->XferAbortCallback = UART_DMATxAbortCallback;
 2599              		.loc 1 1295 12
 2600 0042 7B68     		ldr	r3, [r7, #4]
 2601 0044 1B6B     		ldr	r3, [r3, #48]
 2602              		.loc 1 1295 40
 2603 0046 3E4A     		ldr	r2, .L113
 2604 0048 1A65     		str	r2, [r3, #80]
 2605 004a 03E0     		b	.L103
 2606              	.L104:
1296:./Libraries/STM32F4xx_HAL_Driver/Src/stm32f4xx_hal_uart.c ****     }
1297:./Libraries/STM32F4xx_HAL_Driver/Src/stm32f4xx_hal_uart.c ****     else
1298:./Libraries/STM32F4xx_HAL_Driver/Src/stm32f4xx_hal_uart.c ****     {
1299:./Libraries/STM32F4xx_HAL_Driver/Src/stm32f4xx_hal_uart.c ****       huart->hdmatx->XferAbortCallback = NULL;
 2607              		.loc 1 1299 12
 2608 004c 7B68     		ldr	r3, [r7, #4]
 2609 004e 1B6B     		ldr	r3, [r3, #48]
 2610              		.loc 1 1299 40
 2611 0050 0022     		movs	r2, #0
 2612 0052 1A65     		str	r2, [r3, #80]
ARM GAS  /tmp/ccOBznmR.s 			page 69


 2613              	.L103:
1300:./Libraries/STM32F4xx_HAL_Driver/Src/stm32f4xx_hal_uart.c ****     }
1301:./Libraries/STM32F4xx_HAL_Driver/Src/stm32f4xx_hal_uart.c ****   }
1302:./Libraries/STM32F4xx_HAL_Driver/Src/stm32f4xx_hal_uart.c ****   /* DMA Rx Handle is valid */
1303:./Libraries/STM32F4xx_HAL_Driver/Src/stm32f4xx_hal_uart.c ****   if(huart->hdmarx != NULL)
 2614              		.loc 1 1303 11
 2615 0054 7B68     		ldr	r3, [r7, #4]
 2616 0056 5B6B     		ldr	r3, [r3, #52]
 2617              		.loc 1 1303 5
 2618 0058 002B     		cmp	r3, #0
 2619 005a 0FD0     		beq	.L105
1304:./Libraries/STM32F4xx_HAL_Driver/Src/stm32f4xx_hal_uart.c ****   {
1305:./Libraries/STM32F4xx_HAL_Driver/Src/stm32f4xx_hal_uart.c ****     /* Set DMA Abort Complete callback if UART DMA Rx request if enabled.
1306:./Libraries/STM32F4xx_HAL_Driver/Src/stm32f4xx_hal_uart.c ****        Otherwise, set it to NULL */
1307:./Libraries/STM32F4xx_HAL_Driver/Src/stm32f4xx_hal_uart.c ****     if(HAL_IS_BIT_SET(huart->Instance->CR3, USART_CR3_DMAR))
 2620              		.loc 1 1307 8
 2621 005c 7B68     		ldr	r3, [r7, #4]
 2622 005e 1B68     		ldr	r3, [r3]
 2623 0060 5B69     		ldr	r3, [r3, #20]
 2624 0062 03F04003 		and	r3, r3, #64
 2625              		.loc 1 1307 7
 2626 0066 002B     		cmp	r3, #0
 2627 0068 04D0     		beq	.L106
1308:./Libraries/STM32F4xx_HAL_Driver/Src/stm32f4xx_hal_uart.c ****     {
1309:./Libraries/STM32F4xx_HAL_Driver/Src/stm32f4xx_hal_uart.c ****       huart->hdmarx->XferAbortCallback = UART_DMARxAbortCallback;
 2628              		.loc 1 1309 12
 2629 006a 7B68     		ldr	r3, [r7, #4]
 2630 006c 5B6B     		ldr	r3, [r3, #52]
 2631              		.loc 1 1309 40
 2632 006e 354A     		ldr	r2, .L113+4
 2633 0070 1A65     		str	r2, [r3, #80]
 2634 0072 03E0     		b	.L105
 2635              	.L106:
1310:./Libraries/STM32F4xx_HAL_Driver/Src/stm32f4xx_hal_uart.c ****     }
1311:./Libraries/STM32F4xx_HAL_Driver/Src/stm32f4xx_hal_uart.c ****     else
1312:./Libraries/STM32F4xx_HAL_Driver/Src/stm32f4xx_hal_uart.c ****     {
1313:./Libraries/STM32F4xx_HAL_Driver/Src/stm32f4xx_hal_uart.c ****       huart->hdmarx->XferAbortCallback = NULL;
 2636              		.loc 1 1313 12
 2637 0074 7B68     		ldr	r3, [r7, #4]
 2638 0076 5B6B     		ldr	r3, [r3, #52]
 2639              		.loc 1 1313 40
 2640 0078 0022     		movs	r2, #0
 2641 007a 1A65     		str	r2, [r3, #80]
 2642              	.L105:
1314:./Libraries/STM32F4xx_HAL_Driver/Src/stm32f4xx_hal_uart.c ****     }
1315:./Libraries/STM32F4xx_HAL_Driver/Src/stm32f4xx_hal_uart.c ****   }
1316:./Libraries/STM32F4xx_HAL_Driver/Src/stm32f4xx_hal_uart.c **** 
1317:./Libraries/STM32F4xx_HAL_Driver/Src/stm32f4xx_hal_uart.c ****   /* Disable the UART DMA Tx request if enabled */
1318:./Libraries/STM32F4xx_HAL_Driver/Src/stm32f4xx_hal_uart.c ****   if(HAL_IS_BIT_SET(huart->Instance->CR3, USART_CR3_DMAT))
 2643              		.loc 1 1318 6
 2644 007c 7B68     		ldr	r3, [r7, #4]
 2645 007e 1B68     		ldr	r3, [r3]
 2646 0080 5B69     		ldr	r3, [r3, #20]
 2647 0082 03F08003 		and	r3, r3, #128
 2648              		.loc 1 1318 5
 2649 0086 002B     		cmp	r3, #0
 2650 0088 1AD0     		beq	.L107
ARM GAS  /tmp/ccOBznmR.s 			page 70


1319:./Libraries/STM32F4xx_HAL_Driver/Src/stm32f4xx_hal_uart.c ****   {
1320:./Libraries/STM32F4xx_HAL_Driver/Src/stm32f4xx_hal_uart.c ****     /* Disable DMA Tx at UART level */
1321:./Libraries/STM32F4xx_HAL_Driver/Src/stm32f4xx_hal_uart.c ****     CLEAR_BIT(huart->Instance->CR3, USART_CR3_DMAT);
 2651              		.loc 1 1321 5
 2652 008a 7B68     		ldr	r3, [r7, #4]
 2653 008c 1B68     		ldr	r3, [r3]
 2654 008e 5A69     		ldr	r2, [r3, #20]
 2655 0090 7B68     		ldr	r3, [r7, #4]
 2656 0092 1B68     		ldr	r3, [r3]
 2657 0094 22F08002 		bic	r2, r2, #128
 2658 0098 5A61     		str	r2, [r3, #20]
1322:./Libraries/STM32F4xx_HAL_Driver/Src/stm32f4xx_hal_uart.c **** 
1323:./Libraries/STM32F4xx_HAL_Driver/Src/stm32f4xx_hal_uart.c ****     /* Abort the UART DMA Tx channel : use non blocking DMA Abort API (callback) */
1324:./Libraries/STM32F4xx_HAL_Driver/Src/stm32f4xx_hal_uart.c ****     if(huart->hdmatx != NULL)
 2659              		.loc 1 1324 13
 2660 009a 7B68     		ldr	r3, [r7, #4]
 2661 009c 1B6B     		ldr	r3, [r3, #48]
 2662              		.loc 1 1324 7
 2663 009e 002B     		cmp	r3, #0
 2664 00a0 0ED0     		beq	.L107
1325:./Libraries/STM32F4xx_HAL_Driver/Src/stm32f4xx_hal_uart.c ****     {
1326:./Libraries/STM32F4xx_HAL_Driver/Src/stm32f4xx_hal_uart.c ****       /* UART Tx DMA Abort callback has already been initialised : 
1327:./Libraries/STM32F4xx_HAL_Driver/Src/stm32f4xx_hal_uart.c ****          will lead to call HAL_UART_AbortCpltCallback() at end of DMA abort procedure */
1328:./Libraries/STM32F4xx_HAL_Driver/Src/stm32f4xx_hal_uart.c **** 
1329:./Libraries/STM32F4xx_HAL_Driver/Src/stm32f4xx_hal_uart.c ****       /* Abort DMA TX */
1330:./Libraries/STM32F4xx_HAL_Driver/Src/stm32f4xx_hal_uart.c ****       if(HAL_DMA_Abort_IT(huart->hdmatx) != HAL_OK)
 2665              		.loc 1 1330 10
 2666 00a2 7B68     		ldr	r3, [r7, #4]
 2667 00a4 1B6B     		ldr	r3, [r3, #48]
 2668 00a6 1846     		mov	r0, r3
 2669 00a8 FFF7FEFF 		bl	HAL_DMA_Abort_IT
 2670 00ac 0346     		mov	r3, r0
 2671              		.loc 1 1330 9
 2672 00ae 002B     		cmp	r3, #0
 2673 00b0 04D0     		beq	.L108
1331:./Libraries/STM32F4xx_HAL_Driver/Src/stm32f4xx_hal_uart.c ****       {
1332:./Libraries/STM32F4xx_HAL_Driver/Src/stm32f4xx_hal_uart.c ****         huart->hdmatx->XferAbortCallback = NULL;
 2674              		.loc 1 1332 14
 2675 00b2 7B68     		ldr	r3, [r7, #4]
 2676 00b4 1B6B     		ldr	r3, [r3, #48]
 2677              		.loc 1 1332 42
 2678 00b6 0022     		movs	r2, #0
 2679 00b8 1A65     		str	r2, [r3, #80]
 2680 00ba 01E0     		b	.L107
 2681              	.L108:
1333:./Libraries/STM32F4xx_HAL_Driver/Src/stm32f4xx_hal_uart.c ****       }
1334:./Libraries/STM32F4xx_HAL_Driver/Src/stm32f4xx_hal_uart.c ****       else
1335:./Libraries/STM32F4xx_HAL_Driver/Src/stm32f4xx_hal_uart.c ****       {
1336:./Libraries/STM32F4xx_HAL_Driver/Src/stm32f4xx_hal_uart.c ****         AbortCplt = 0x00U;
 2682              		.loc 1 1336 19
 2683 00bc 0023     		movs	r3, #0
 2684 00be FB60     		str	r3, [r7, #12]
 2685              	.L107:
1337:./Libraries/STM32F4xx_HAL_Driver/Src/stm32f4xx_hal_uart.c ****       }
1338:./Libraries/STM32F4xx_HAL_Driver/Src/stm32f4xx_hal_uart.c ****     }
1339:./Libraries/STM32F4xx_HAL_Driver/Src/stm32f4xx_hal_uart.c ****   }
1340:./Libraries/STM32F4xx_HAL_Driver/Src/stm32f4xx_hal_uart.c **** 
ARM GAS  /tmp/ccOBznmR.s 			page 71


1341:./Libraries/STM32F4xx_HAL_Driver/Src/stm32f4xx_hal_uart.c ****   /* Disable the UART DMA Rx request if enabled */
1342:./Libraries/STM32F4xx_HAL_Driver/Src/stm32f4xx_hal_uart.c ****   if(HAL_IS_BIT_SET(huart->Instance->CR3, USART_CR3_DMAR))
 2686              		.loc 1 1342 6
 2687 00c0 7B68     		ldr	r3, [r7, #4]
 2688 00c2 1B68     		ldr	r3, [r3]
 2689 00c4 5B69     		ldr	r3, [r3, #20]
 2690 00c6 03F04003 		and	r3, r3, #64
 2691              		.loc 1 1342 5
 2692 00ca 002B     		cmp	r3, #0
 2693 00cc 1CD0     		beq	.L109
1343:./Libraries/STM32F4xx_HAL_Driver/Src/stm32f4xx_hal_uart.c ****   {
1344:./Libraries/STM32F4xx_HAL_Driver/Src/stm32f4xx_hal_uart.c ****     CLEAR_BIT(huart->Instance->CR3, USART_CR3_DMAR);
 2694              		.loc 1 1344 5
 2695 00ce 7B68     		ldr	r3, [r7, #4]
 2696 00d0 1B68     		ldr	r3, [r3]
 2697 00d2 5A69     		ldr	r2, [r3, #20]
 2698 00d4 7B68     		ldr	r3, [r7, #4]
 2699 00d6 1B68     		ldr	r3, [r3]
 2700 00d8 22F04002 		bic	r2, r2, #64
 2701 00dc 5A61     		str	r2, [r3, #20]
1345:./Libraries/STM32F4xx_HAL_Driver/Src/stm32f4xx_hal_uart.c **** 
1346:./Libraries/STM32F4xx_HAL_Driver/Src/stm32f4xx_hal_uart.c ****     /* Abort the UART DMA Rx channel : use non blocking DMA Abort API (callback) */
1347:./Libraries/STM32F4xx_HAL_Driver/Src/stm32f4xx_hal_uart.c ****     if(huart->hdmarx != NULL)
 2702              		.loc 1 1347 13
 2703 00de 7B68     		ldr	r3, [r7, #4]
 2704 00e0 5B6B     		ldr	r3, [r3, #52]
 2705              		.loc 1 1347 7
 2706 00e2 002B     		cmp	r3, #0
 2707 00e4 10D0     		beq	.L109
1348:./Libraries/STM32F4xx_HAL_Driver/Src/stm32f4xx_hal_uart.c ****     {
1349:./Libraries/STM32F4xx_HAL_Driver/Src/stm32f4xx_hal_uart.c ****       /* UART Rx DMA Abort callback has already been initialised : 
1350:./Libraries/STM32F4xx_HAL_Driver/Src/stm32f4xx_hal_uart.c ****          will lead to call HAL_UART_AbortCpltCallback() at end of DMA abort procedure */
1351:./Libraries/STM32F4xx_HAL_Driver/Src/stm32f4xx_hal_uart.c **** 
1352:./Libraries/STM32F4xx_HAL_Driver/Src/stm32f4xx_hal_uart.c ****       /* Abort DMA RX */
1353:./Libraries/STM32F4xx_HAL_Driver/Src/stm32f4xx_hal_uart.c ****       if(HAL_DMA_Abort_IT(huart->hdmarx) != HAL_OK)
 2708              		.loc 1 1353 10
 2709 00e6 7B68     		ldr	r3, [r7, #4]
 2710 00e8 5B6B     		ldr	r3, [r3, #52]
 2711 00ea 1846     		mov	r0, r3
 2712 00ec FFF7FEFF 		bl	HAL_DMA_Abort_IT
 2713 00f0 0346     		mov	r3, r0
 2714              		.loc 1 1353 9
 2715 00f2 002B     		cmp	r3, #0
 2716 00f4 06D0     		beq	.L110
1354:./Libraries/STM32F4xx_HAL_Driver/Src/stm32f4xx_hal_uart.c ****       {
1355:./Libraries/STM32F4xx_HAL_Driver/Src/stm32f4xx_hal_uart.c ****         huart->hdmarx->XferAbortCallback = NULL;
 2717              		.loc 1 1355 14
 2718 00f6 7B68     		ldr	r3, [r7, #4]
 2719 00f8 5B6B     		ldr	r3, [r3, #52]
 2720              		.loc 1 1355 42
 2721 00fa 0022     		movs	r2, #0
 2722 00fc 1A65     		str	r2, [r3, #80]
1356:./Libraries/STM32F4xx_HAL_Driver/Src/stm32f4xx_hal_uart.c ****         AbortCplt = 0x01U;
 2723              		.loc 1 1356 19
 2724 00fe 0123     		movs	r3, #1
 2725 0100 FB60     		str	r3, [r7, #12]
 2726 0102 01E0     		b	.L109
ARM GAS  /tmp/ccOBznmR.s 			page 72


 2727              	.L110:
1357:./Libraries/STM32F4xx_HAL_Driver/Src/stm32f4xx_hal_uart.c ****       }
1358:./Libraries/STM32F4xx_HAL_Driver/Src/stm32f4xx_hal_uart.c ****       else
1359:./Libraries/STM32F4xx_HAL_Driver/Src/stm32f4xx_hal_uart.c ****       {
1360:./Libraries/STM32F4xx_HAL_Driver/Src/stm32f4xx_hal_uart.c ****         AbortCplt = 0x00U;
 2728              		.loc 1 1360 19
 2729 0104 0023     		movs	r3, #0
 2730 0106 FB60     		str	r3, [r7, #12]
 2731              	.L109:
1361:./Libraries/STM32F4xx_HAL_Driver/Src/stm32f4xx_hal_uart.c ****       }
1362:./Libraries/STM32F4xx_HAL_Driver/Src/stm32f4xx_hal_uart.c ****     }
1363:./Libraries/STM32F4xx_HAL_Driver/Src/stm32f4xx_hal_uart.c ****   }
1364:./Libraries/STM32F4xx_HAL_Driver/Src/stm32f4xx_hal_uart.c **** 
1365:./Libraries/STM32F4xx_HAL_Driver/Src/stm32f4xx_hal_uart.c ****   /* if no DMA abort complete callback execution is required => call user Abort Complete callback *
1366:./Libraries/STM32F4xx_HAL_Driver/Src/stm32f4xx_hal_uart.c ****   if(AbortCplt == 0x01U)
 2732              		.loc 1 1366 5
 2733 0108 FB68     		ldr	r3, [r7, #12]
 2734 010a 012B     		cmp	r3, #1
 2735 010c 13D1     		bne	.L111
1367:./Libraries/STM32F4xx_HAL_Driver/Src/stm32f4xx_hal_uart.c ****   {
1368:./Libraries/STM32F4xx_HAL_Driver/Src/stm32f4xx_hal_uart.c ****     /* Reset Tx and Rx transfer counters */
1369:./Libraries/STM32F4xx_HAL_Driver/Src/stm32f4xx_hal_uart.c ****     huart->TxXferCount = 0x00U; 
 2736              		.loc 1 1369 24
 2737 010e 7B68     		ldr	r3, [r7, #4]
 2738 0110 0022     		movs	r2, #0
 2739 0112 DA84     		strh	r2, [r3, #38]	@ movhi
1370:./Libraries/STM32F4xx_HAL_Driver/Src/stm32f4xx_hal_uart.c ****     huart->RxXferCount = 0x00U;
 2740              		.loc 1 1370 24
 2741 0114 7B68     		ldr	r3, [r7, #4]
 2742 0116 0022     		movs	r2, #0
 2743 0118 DA85     		strh	r2, [r3, #46]	@ movhi
1371:./Libraries/STM32F4xx_HAL_Driver/Src/stm32f4xx_hal_uart.c **** 
1372:./Libraries/STM32F4xx_HAL_Driver/Src/stm32f4xx_hal_uart.c ****     /* Reset ErrorCode */
1373:./Libraries/STM32F4xx_HAL_Driver/Src/stm32f4xx_hal_uart.c ****     huart->ErrorCode = HAL_UART_ERROR_NONE;
 2744              		.loc 1 1373 22
 2745 011a 7B68     		ldr	r3, [r7, #4]
 2746 011c 0022     		movs	r2, #0
 2747 011e DA63     		str	r2, [r3, #60]
1374:./Libraries/STM32F4xx_HAL_Driver/Src/stm32f4xx_hal_uart.c **** 
1375:./Libraries/STM32F4xx_HAL_Driver/Src/stm32f4xx_hal_uart.c ****     /* Restore huart->gState and huart->RxState to Ready */
1376:./Libraries/STM32F4xx_HAL_Driver/Src/stm32f4xx_hal_uart.c ****     huart->gState  = HAL_UART_STATE_READY;
 2748              		.loc 1 1376 20
 2749 0120 7B68     		ldr	r3, [r7, #4]
 2750 0122 2022     		movs	r2, #32
 2751 0124 83F83920 		strb	r2, [r3, #57]
1377:./Libraries/STM32F4xx_HAL_Driver/Src/stm32f4xx_hal_uart.c ****     huart->RxState = HAL_UART_STATE_READY;
 2752              		.loc 1 1377 20
 2753 0128 7B68     		ldr	r3, [r7, #4]
 2754 012a 2022     		movs	r2, #32
 2755 012c 83F83A20 		strb	r2, [r3, #58]
1378:./Libraries/STM32F4xx_HAL_Driver/Src/stm32f4xx_hal_uart.c **** 
1379:./Libraries/STM32F4xx_HAL_Driver/Src/stm32f4xx_hal_uart.c ****     /* As no DMA to be aborted, call directly user Abort complete callback */
1380:./Libraries/STM32F4xx_HAL_Driver/Src/stm32f4xx_hal_uart.c ****     HAL_UART_AbortCpltCallback(huart);
 2756              		.loc 1 1380 5
 2757 0130 7868     		ldr	r0, [r7, #4]
 2758 0132 FFF7FEFF 		bl	HAL_UART_AbortCpltCallback
 2759              	.L111:
ARM GAS  /tmp/ccOBznmR.s 			page 73


1381:./Libraries/STM32F4xx_HAL_Driver/Src/stm32f4xx_hal_uart.c ****   }
1382:./Libraries/STM32F4xx_HAL_Driver/Src/stm32f4xx_hal_uart.c **** 
1383:./Libraries/STM32F4xx_HAL_Driver/Src/stm32f4xx_hal_uart.c ****   return HAL_OK;
 2760              		.loc 1 1383 10
 2761 0136 0023     		movs	r3, #0
1384:./Libraries/STM32F4xx_HAL_Driver/Src/stm32f4xx_hal_uart.c **** }
 2762              		.loc 1 1384 1
 2763 0138 1846     		mov	r0, r3
 2764 013a 1037     		adds	r7, r7, #16
 2765              	.LCFI104:
 2766              		.cfi_def_cfa_offset 8
 2767 013c BD46     		mov	sp, r7
 2768              	.LCFI105:
 2769              		.cfi_def_cfa_register 13
 2770              		@ sp needed
 2771 013e 80BD     		pop	{r7, pc}
 2772              	.L114:
 2773              		.align	2
 2774              	.L113:
 2775 0140 00000000 		.word	UART_DMATxAbortCallback
 2776 0144 00000000 		.word	UART_DMARxAbortCallback
 2777              		.cfi_endproc
 2778              	.LFE145:
 2780              		.section	.text.HAL_UART_AbortTransmit_IT,"ax",%progbits
 2781              		.align	1
 2782              		.global	HAL_UART_AbortTransmit_IT
 2783              		.syntax unified
 2784              		.thumb
 2785              		.thumb_func
 2786              		.fpu fpv4-sp-d16
 2788              	HAL_UART_AbortTransmit_IT:
 2789              	.LFB146:
1385:./Libraries/STM32F4xx_HAL_Driver/Src/stm32f4xx_hal_uart.c **** 
1386:./Libraries/STM32F4xx_HAL_Driver/Src/stm32f4xx_hal_uart.c **** /**
1387:./Libraries/STM32F4xx_HAL_Driver/Src/stm32f4xx_hal_uart.c ****   * @brief  Abort ongoing Transmit transfer (Interrupt mode).
1388:./Libraries/STM32F4xx_HAL_Driver/Src/stm32f4xx_hal_uart.c ****   * @param  huart UART handle.
1389:./Libraries/STM32F4xx_HAL_Driver/Src/stm32f4xx_hal_uart.c ****   * @note   This procedure could be used for aborting any ongoing transfer started in Interrupt or 
1390:./Libraries/STM32F4xx_HAL_Driver/Src/stm32f4xx_hal_uart.c ****   *         This procedure performs following operations :
1391:./Libraries/STM32F4xx_HAL_Driver/Src/stm32f4xx_hal_uart.c ****   *           - Disable PPP Interrupts
1392:./Libraries/STM32F4xx_HAL_Driver/Src/stm32f4xx_hal_uart.c ****   *           - Disable the DMA transfer in the peripheral register (if enabled)
1393:./Libraries/STM32F4xx_HAL_Driver/Src/stm32f4xx_hal_uart.c ****   *           - Abort DMA transfer by calling HAL_DMA_Abort_IT (in case of transfer in DMA mode)
1394:./Libraries/STM32F4xx_HAL_Driver/Src/stm32f4xx_hal_uart.c ****   *           - Set handle State to READY
1395:./Libraries/STM32F4xx_HAL_Driver/Src/stm32f4xx_hal_uart.c ****   *           - At abort completion, call user abort complete callback
1396:./Libraries/STM32F4xx_HAL_Driver/Src/stm32f4xx_hal_uart.c ****   * @note   This procedure is executed in Interrupt mode, meaning that abort procedure could be
1397:./Libraries/STM32F4xx_HAL_Driver/Src/stm32f4xx_hal_uart.c ****   *         considered as completed only when user abort complete callback is executed (not when ex
1398:./Libraries/STM32F4xx_HAL_Driver/Src/stm32f4xx_hal_uart.c ****   * @retval HAL status
1399:./Libraries/STM32F4xx_HAL_Driver/Src/stm32f4xx_hal_uart.c **** */
1400:./Libraries/STM32F4xx_HAL_Driver/Src/stm32f4xx_hal_uart.c **** HAL_StatusTypeDef HAL_UART_AbortTransmit_IT(UART_HandleTypeDef *huart)
