ARM GAS  /tmp/ccits0mR.s 			page 1


   1              		.cpu cortex-m4
   2              		.eabi_attribute 27, 1
   3              		.eabi_attribute 28, 1
   4              		.eabi_attribute 20, 1
   5              		.eabi_attribute 21, 1
   6              		.eabi_attribute 23, 3
   7              		.eabi_attribute 24, 1
   8              		.eabi_attribute 25, 1
   9              		.eabi_attribute 26, 1
  10              		.eabi_attribute 30, 6
  11              		.eabi_attribute 34, 1
  12              		.eabi_attribute 18, 4
  13              		.file	"stm32f4xx_hal_spi.c"
  14              		.text
  15              	.Ltext0:
  16              		.cfi_sections	.debug_frame
  17              		.section	.text.HAL_SPI_Init,"ax",%progbits
  18              		.align	1
  19              		.global	HAL_SPI_Init
  20              		.arch armv7e-m
  21              		.syntax unified
  22              		.thumb
  23              		.thumb_func
  24              		.fpu fpv4-sp-d16
  26              	HAL_SPI_Init:
  27              	.LFB126:
  28              		.file 1 "./Libraries/STM32F4xx_HAL_Driver/Src/stm32f4xx_hal_spi.c"
   1:./Libraries/STM32F4xx_HAL_Driver/Src/stm32f4xx_hal_spi.c **** /**
   2:./Libraries/STM32F4xx_HAL_Driver/Src/stm32f4xx_hal_spi.c ****   ******************************************************************************
   3:./Libraries/STM32F4xx_HAL_Driver/Src/stm32f4xx_hal_spi.c ****   * @file    stm32f4xx_hal_spi.c
   4:./Libraries/STM32F4xx_HAL_Driver/Src/stm32f4xx_hal_spi.c ****   * @author  MCD Application Team
   5:./Libraries/STM32F4xx_HAL_Driver/Src/stm32f4xx_hal_spi.c ****   * @brief   SPI HAL module driver.
   6:./Libraries/STM32F4xx_HAL_Driver/Src/stm32f4xx_hal_spi.c ****   *          This file provides firmware functions to manage the following
   7:./Libraries/STM32F4xx_HAL_Driver/Src/stm32f4xx_hal_spi.c ****   *          functionalities of the Serial Peripheral Interface (SPI) peripheral:
   8:./Libraries/STM32F4xx_HAL_Driver/Src/stm32f4xx_hal_spi.c ****   *           + Initialization and de-initialization functions
   9:./Libraries/STM32F4xx_HAL_Driver/Src/stm32f4xx_hal_spi.c ****   *           + IO operation functions
  10:./Libraries/STM32F4xx_HAL_Driver/Src/stm32f4xx_hal_spi.c ****   *           + Peripheral Control functions
  11:./Libraries/STM32F4xx_HAL_Driver/Src/stm32f4xx_hal_spi.c ****   *           + Peripheral State functions
  12:./Libraries/STM32F4xx_HAL_Driver/Src/stm32f4xx_hal_spi.c ****   *
  13:./Libraries/STM32F4xx_HAL_Driver/Src/stm32f4xx_hal_spi.c ****   @verbatim
  14:./Libraries/STM32F4xx_HAL_Driver/Src/stm32f4xx_hal_spi.c ****   ==============================================================================
  15:./Libraries/STM32F4xx_HAL_Driver/Src/stm32f4xx_hal_spi.c ****                         ##### How to use this driver #####
  16:./Libraries/STM32F4xx_HAL_Driver/Src/stm32f4xx_hal_spi.c ****   ==============================================================================
  17:./Libraries/STM32F4xx_HAL_Driver/Src/stm32f4xx_hal_spi.c ****     [..]
  18:./Libraries/STM32F4xx_HAL_Driver/Src/stm32f4xx_hal_spi.c ****       The SPI HAL driver can be used as follows:
  19:./Libraries/STM32F4xx_HAL_Driver/Src/stm32f4xx_hal_spi.c **** 
  20:./Libraries/STM32F4xx_HAL_Driver/Src/stm32f4xx_hal_spi.c ****       (#) Declare a SPI_HandleTypeDef handle structure, for example:
  21:./Libraries/STM32F4xx_HAL_Driver/Src/stm32f4xx_hal_spi.c ****           SPI_HandleTypeDef  hspi;
  22:./Libraries/STM32F4xx_HAL_Driver/Src/stm32f4xx_hal_spi.c **** 
  23:./Libraries/STM32F4xx_HAL_Driver/Src/stm32f4xx_hal_spi.c ****       (#)Initialize the SPI low level resources by implementing the HAL_SPI_MspInit() API:
  24:./Libraries/STM32F4xx_HAL_Driver/Src/stm32f4xx_hal_spi.c ****           (##) Enable the SPIx interface clock
  25:./Libraries/STM32F4xx_HAL_Driver/Src/stm32f4xx_hal_spi.c ****           (##) SPI pins configuration
  26:./Libraries/STM32F4xx_HAL_Driver/Src/stm32f4xx_hal_spi.c ****               (+++) Enable the clock for the SPI GPIOs
  27:./Libraries/STM32F4xx_HAL_Driver/Src/stm32f4xx_hal_spi.c ****               (+++) Configure these SPI pins as alternate function push-pull
  28:./Libraries/STM32F4xx_HAL_Driver/Src/stm32f4xx_hal_spi.c ****           (##) NVIC configuration if you need to use interrupt process
  29:./Libraries/STM32F4xx_HAL_Driver/Src/stm32f4xx_hal_spi.c ****               (+++) Configure the SPIx interrupt priority
  30:./Libraries/STM32F4xx_HAL_Driver/Src/stm32f4xx_hal_spi.c ****               (+++) Enable the NVIC SPI IRQ handle
ARM GAS  /tmp/ccits0mR.s 			page 2


  31:./Libraries/STM32F4xx_HAL_Driver/Src/stm32f4xx_hal_spi.c ****           (##) DMA Configuration if you need to use DMA process
  32:./Libraries/STM32F4xx_HAL_Driver/Src/stm32f4xx_hal_spi.c ****               (+++) Declare a DMA_HandleTypeDef handle structure for the transmit or receive stream
  33:./Libraries/STM32F4xx_HAL_Driver/Src/stm32f4xx_hal_spi.c ****               (+++) Enable the DMAx clock
  34:./Libraries/STM32F4xx_HAL_Driver/Src/stm32f4xx_hal_spi.c ****               (+++) Configure the DMA handle parameters
  35:./Libraries/STM32F4xx_HAL_Driver/Src/stm32f4xx_hal_spi.c ****               (+++) Configure the DMA Tx or Rx stream
  36:./Libraries/STM32F4xx_HAL_Driver/Src/stm32f4xx_hal_spi.c ****               (+++) Associate the initialized hdma_tx handle to the hspi DMA Tx or Rx handle
  37:./Libraries/STM32F4xx_HAL_Driver/Src/stm32f4xx_hal_spi.c ****               (+++) Configure the priority and enable the NVIC for the transfer complete interrupt 
  38:./Libraries/STM32F4xx_HAL_Driver/Src/stm32f4xx_hal_spi.c **** 
  39:./Libraries/STM32F4xx_HAL_Driver/Src/stm32f4xx_hal_spi.c ****       (#) Program the Mode, BidirectionalMode , Data size, Baudrate Prescaler, NSS
  40:./Libraries/STM32F4xx_HAL_Driver/Src/stm32f4xx_hal_spi.c ****           management, Clock polarity and phase, FirstBit and CRC configuration in the hspi Init str
  41:./Libraries/STM32F4xx_HAL_Driver/Src/stm32f4xx_hal_spi.c **** 
  42:./Libraries/STM32F4xx_HAL_Driver/Src/stm32f4xx_hal_spi.c ****       (#) Initialize the SPI registers by calling the HAL_SPI_Init() API:
  43:./Libraries/STM32F4xx_HAL_Driver/Src/stm32f4xx_hal_spi.c ****           (++) This API configures also the low level Hardware GPIO, CLOCK, CORTEX...etc)
  44:./Libraries/STM32F4xx_HAL_Driver/Src/stm32f4xx_hal_spi.c ****               by calling the customized HAL_SPI_MspInit() API.
  45:./Libraries/STM32F4xx_HAL_Driver/Src/stm32f4xx_hal_spi.c ****      [..]
  46:./Libraries/STM32F4xx_HAL_Driver/Src/stm32f4xx_hal_spi.c ****        Circular mode restriction:
  47:./Libraries/STM32F4xx_HAL_Driver/Src/stm32f4xx_hal_spi.c ****       (#) The DMA circular mode cannot be used when the SPI is configured in these modes:
  48:./Libraries/STM32F4xx_HAL_Driver/Src/stm32f4xx_hal_spi.c ****           (##) Master 2Lines RxOnly
  49:./Libraries/STM32F4xx_HAL_Driver/Src/stm32f4xx_hal_spi.c ****           (##) Master 1Line Rx
  50:./Libraries/STM32F4xx_HAL_Driver/Src/stm32f4xx_hal_spi.c ****       (#) The CRC feature is not managed when the DMA circular mode is enabled
  51:./Libraries/STM32F4xx_HAL_Driver/Src/stm32f4xx_hal_spi.c ****       (#) When the SPI DMA Pause/Stop features are used, we must use the following APIs
  52:./Libraries/STM32F4xx_HAL_Driver/Src/stm32f4xx_hal_spi.c ****           the HAL_SPI_DMAPause()/ HAL_SPI_DMAStop() only under the SPI callbacks
  53:./Libraries/STM32F4xx_HAL_Driver/Src/stm32f4xx_hal_spi.c ****      [..]
  54:./Libraries/STM32F4xx_HAL_Driver/Src/stm32f4xx_hal_spi.c ****        Master Receive mode restriction:
  55:./Libraries/STM32F4xx_HAL_Driver/Src/stm32f4xx_hal_spi.c ****       (#) In Master unidirectional receive-only mode (MSTR =1, BIDIMODE=0, RXONLY=0) or
  56:./Libraries/STM32F4xx_HAL_Driver/Src/stm32f4xx_hal_spi.c ****           bidirectional receive mode (MSTR=1, BIDIMODE=1, BIDIOE=0), to ensure that the SPI
  57:./Libraries/STM32F4xx_HAL_Driver/Src/stm32f4xx_hal_spi.c ****           does not initiate a new transfer the following procedure has to be respected:
  58:./Libraries/STM32F4xx_HAL_Driver/Src/stm32f4xx_hal_spi.c ****           (##) HAL_SPI_DeInit()
  59:./Libraries/STM32F4xx_HAL_Driver/Src/stm32f4xx_hal_spi.c ****           (##) HAL_SPI_Init()
  60:./Libraries/STM32F4xx_HAL_Driver/Src/stm32f4xx_hal_spi.c **** 
  61:./Libraries/STM32F4xx_HAL_Driver/Src/stm32f4xx_hal_spi.c ****   @endverbatim
  62:./Libraries/STM32F4xx_HAL_Driver/Src/stm32f4xx_hal_spi.c **** 
  63:./Libraries/STM32F4xx_HAL_Driver/Src/stm32f4xx_hal_spi.c ****     Using the HAL it is not possible to reach all supported SPI frequency with the differents SPI M
  64:./Libraries/STM32F4xx_HAL_Driver/Src/stm32f4xx_hal_spi.c ****     the following tables resume the max SPI frequency reached with data size 8bits/16bits,
  65:./Libraries/STM32F4xx_HAL_Driver/Src/stm32f4xx_hal_spi.c ****     according to frequency used on APBx Peripheral Clock (fPCLK) used by the SPI instance :
  66:./Libraries/STM32F4xx_HAL_Driver/Src/stm32f4xx_hal_spi.c ****     
  67:./Libraries/STM32F4xx_HAL_Driver/Src/stm32f4xx_hal_spi.c ****     DataSize = SPI_DATASIZE_8BIT:
  68:./Libraries/STM32F4xx_HAL_Driver/Src/stm32f4xx_hal_spi.c ****     +----------------------------------------------------------------------------------------------
  69:./Libraries/STM32F4xx_HAL_Driver/Src/stm32f4xx_hal_spi.c ****     |         |                | 2Lines Fullduplex   |     2Lines RxOnly    |         1Line        
  70:./Libraries/STM32F4xx_HAL_Driver/Src/stm32f4xx_hal_spi.c ****     | Process | Tranfert mode  |---------------------|----------------------|----------------------
  71:./Libraries/STM32F4xx_HAL_Driver/Src/stm32f4xx_hal_spi.c ****     |         |                |  Master  |  Slave   |  Master   |  Slave   |  Master   |  Slave   
  72:./Libraries/STM32F4xx_HAL_Driver/Src/stm32f4xx_hal_spi.c ****     |==============================================================================================
  73:./Libraries/STM32F4xx_HAL_Driver/Src/stm32f4xx_hal_spi.c ****     |    T    |     Polling    | Fpclk/2  | Fpclk/2  |    NA     |    NA    |    NA     |   NA     
  74:./Libraries/STM32F4xx_HAL_Driver/Src/stm32f4xx_hal_spi.c ****     |    X    |----------------|----------|----------|-----------|----------|-----------|----------
  75:./Libraries/STM32F4xx_HAL_Driver/Src/stm32f4xx_hal_spi.c ****     |    /    |     Interrupt  | Fpclk/4  | Fpclk/8  |    NA     |    NA    |    NA     |   NA     
  76:./Libraries/STM32F4xx_HAL_Driver/Src/stm32f4xx_hal_spi.c ****     |    R    |----------------|----------|----------|-----------|----------|-----------|----------
  77:./Libraries/STM32F4xx_HAL_Driver/Src/stm32f4xx_hal_spi.c ****     |    X    |       DMA      | Fpclk/2  | Fpclk/2  |    NA     |    NA    |    NA     |   NA     
  78:./Libraries/STM32F4xx_HAL_Driver/Src/stm32f4xx_hal_spi.c ****     |=========|================|==========|==========|===========|==========|===========|==========
  79:./Libraries/STM32F4xx_HAL_Driver/Src/stm32f4xx_hal_spi.c ****     |         |     Polling    | Fpclk/2  | Fpclk/2  | Fpclk/64  | Fpclk/2  | Fpclk/64  | Fpclk/2  
  80:./Libraries/STM32F4xx_HAL_Driver/Src/stm32f4xx_hal_spi.c ****     |         |----------------|----------|----------|-----------|----------|-----------|----------
  81:./Libraries/STM32F4xx_HAL_Driver/Src/stm32f4xx_hal_spi.c ****     |    R    |     Interrupt  | Fpclk/8  | Fpclk/8  | Fpclk/64  | Fpclk/2  | Fpclk/64  | Fpclk/2  
  82:./Libraries/STM32F4xx_HAL_Driver/Src/stm32f4xx_hal_spi.c ****     |    X    |----------------|----------|----------|-----------|----------|-----------|----------
  83:./Libraries/STM32F4xx_HAL_Driver/Src/stm32f4xx_hal_spi.c ****     |         |       DMA      | Fpclk/2  | Fpclk/2  | Fpclk/64  | Fpclk/2  | Fpclk/128 | Fpclk/2  
  84:./Libraries/STM32F4xx_HAL_Driver/Src/stm32f4xx_hal_spi.c ****     |=========|================|==========|==========|===========|==========|===========|==========
  85:./Libraries/STM32F4xx_HAL_Driver/Src/stm32f4xx_hal_spi.c ****     |         |     Polling    | Fpclk/2  | Fpclk/4  |     NA    |    NA    | Fpclk/2   | Fpclk/64 
  86:./Libraries/STM32F4xx_HAL_Driver/Src/stm32f4xx_hal_spi.c ****     |         |----------------|----------|----------|-----------|----------|-----------|----------
  87:./Libraries/STM32F4xx_HAL_Driver/Src/stm32f4xx_hal_spi.c ****     |    T    |     Interrupt  | Fpclk/2  | Fpclk/4  |     NA    |    NA    | Fpclk/2   | Fpclk/64 
ARM GAS  /tmp/ccits0mR.s 			page 3


  88:./Libraries/STM32F4xx_HAL_Driver/Src/stm32f4xx_hal_spi.c ****     |    X    |----------------|----------|----------|-----------|----------|-----------|----------
  89:./Libraries/STM32F4xx_HAL_Driver/Src/stm32f4xx_hal_spi.c ****     |         |       DMA      | Fpclk/2  | Fpclk/2  |     NA    |    NA    | Fpclk/2   | Fpclk/128
  90:./Libraries/STM32F4xx_HAL_Driver/Src/stm32f4xx_hal_spi.c ****     +----------------------------------------------------------------------------------------------
  91:./Libraries/STM32F4xx_HAL_Driver/Src/stm32f4xx_hal_spi.c ****     
  92:./Libraries/STM32F4xx_HAL_Driver/Src/stm32f4xx_hal_spi.c ****     DataSize = SPI_DATASIZE_16BIT:
  93:./Libraries/STM32F4xx_HAL_Driver/Src/stm32f4xx_hal_spi.c ****     +----------------------------------------------------------------------------------------------
  94:./Libraries/STM32F4xx_HAL_Driver/Src/stm32f4xx_hal_spi.c ****     |         |                | 2Lines Fullduplex   |     2Lines RxOnly    |         1Line        
  95:./Libraries/STM32F4xx_HAL_Driver/Src/stm32f4xx_hal_spi.c ****     | Process | Tranfert mode  |---------------------|----------------------|----------------------
  96:./Libraries/STM32F4xx_HAL_Driver/Src/stm32f4xx_hal_spi.c ****     |         |                |  Master  |  Slave   |  Master   |  Slave   |  Master   |  Slave   
  97:./Libraries/STM32F4xx_HAL_Driver/Src/stm32f4xx_hal_spi.c ****     |==============================================================================================
  98:./Libraries/STM32F4xx_HAL_Driver/Src/stm32f4xx_hal_spi.c ****     |    T    |     Polling    | Fpclk/2  | Fpclk/2  |    NA     |    NA    |    NA     |   NA     
  99:./Libraries/STM32F4xx_HAL_Driver/Src/stm32f4xx_hal_spi.c ****     |    X    |----------------|----------|----------|-----------|----------|-----------|----------
 100:./Libraries/STM32F4xx_HAL_Driver/Src/stm32f4xx_hal_spi.c ****     |    /    |     Interrupt  | Fpclk/4  | Fpclk/4  |    NA     |    NA    |    NA     |   NA     
 101:./Libraries/STM32F4xx_HAL_Driver/Src/stm32f4xx_hal_spi.c ****     |    R    |----------------|----------|----------|-----------|----------|-----------|----------
 102:./Libraries/STM32F4xx_HAL_Driver/Src/stm32f4xx_hal_spi.c ****     |    X    |       DMA      | Fpclk/2  | Fpclk/2  |    NA     |    NA    |    NA     |   NA     
 103:./Libraries/STM32F4xx_HAL_Driver/Src/stm32f4xx_hal_spi.c ****     |=========|================|==========|==========|===========|==========|===========|==========
 104:./Libraries/STM32F4xx_HAL_Driver/Src/stm32f4xx_hal_spi.c ****     |         |     Polling    | Fpclk/2  | Fpclk/2  | Fpclk/64  | Fpclk/2  | Fpclk/32  | Fpclk/2  
 105:./Libraries/STM32F4xx_HAL_Driver/Src/stm32f4xx_hal_spi.c ****     |         |----------------|----------|----------|-----------|----------|-----------|----------
 106:./Libraries/STM32F4xx_HAL_Driver/Src/stm32f4xx_hal_spi.c ****     |    R    |     Interrupt  | Fpclk/4  | Fpclk/4  | Fpclk/64  | Fpclk/2  | Fpclk/64  | Fpclk/2  
 107:./Libraries/STM32F4xx_HAL_Driver/Src/stm32f4xx_hal_spi.c ****     |    X    |----------------|----------|----------|-----------|----------|-----------|----------
 108:./Libraries/STM32F4xx_HAL_Driver/Src/stm32f4xx_hal_spi.c ****     |         |       DMA      | Fpclk/2  | Fpclk/2  | Fpclk/64  | Fpclk/2  | Fpclk/128 | Fpclk/2  
 109:./Libraries/STM32F4xx_HAL_Driver/Src/stm32f4xx_hal_spi.c ****     |=========|================|==========|==========|===========|==========|===========|==========
 110:./Libraries/STM32F4xx_HAL_Driver/Src/stm32f4xx_hal_spi.c ****     |         |     Polling    | Fpclk/2  | Fpclk/2  |     NA    |    NA    | Fpclk/2   | Fpclk/32 
 111:./Libraries/STM32F4xx_HAL_Driver/Src/stm32f4xx_hal_spi.c ****     |         |----------------|----------|----------|-----------|----------|-----------|----------
 112:./Libraries/STM32F4xx_HAL_Driver/Src/stm32f4xx_hal_spi.c ****     |    T    |     Interrupt  | Fpclk/2  | Fpclk/2  |     NA    |    NA    | Fpclk/2   | Fpclk/64 
 113:./Libraries/STM32F4xx_HAL_Driver/Src/stm32f4xx_hal_spi.c ****     |    X    |----------------|----------|----------|-----------|----------|-----------|----------
 114:./Libraries/STM32F4xx_HAL_Driver/Src/stm32f4xx_hal_spi.c ****     |         |       DMA      | Fpclk/2  | Fpclk/2  |     NA    |    NA    | Fpclk/2   | Fpclk/128
 115:./Libraries/STM32F4xx_HAL_Driver/Src/stm32f4xx_hal_spi.c ****     +----------------------------------------------------------------------------------------------
 116:./Libraries/STM32F4xx_HAL_Driver/Src/stm32f4xx_hal_spi.c ****      [..]
 117:./Libraries/STM32F4xx_HAL_Driver/Src/stm32f4xx_hal_spi.c ****        (@) The max SPI frequency depend on SPI data size (8bits, 16bits),
 118:./Libraries/STM32F4xx_HAL_Driver/Src/stm32f4xx_hal_spi.c ****            SPI mode(2 Lines fullduplex, 2 lines RxOnly, 1 line TX/RX) and Process mode (Polling, IT
 119:./Libraries/STM32F4xx_HAL_Driver/Src/stm32f4xx_hal_spi.c ****        (@)
 120:./Libraries/STM32F4xx_HAL_Driver/Src/stm32f4xx_hal_spi.c ****             (+@) TX/RX processes are HAL_SPI_TransmitReceive(), HAL_SPI_TransmitReceive_IT() and HA
 121:./Libraries/STM32F4xx_HAL_Driver/Src/stm32f4xx_hal_spi.c ****             (+@) RX processes are HAL_SPI_Receive(), HAL_SPI_Receive_IT() and HAL_SPI_Receive_DMA()
 122:./Libraries/STM32F4xx_HAL_Driver/Src/stm32f4xx_hal_spi.c ****             (+@) TX processes are HAL_SPI_Transmit(), HAL_SPI_Transmit_IT() and HAL_SPI_Transmit_DM
 123:./Libraries/STM32F4xx_HAL_Driver/Src/stm32f4xx_hal_spi.c ****   ******************************************************************************
 124:./Libraries/STM32F4xx_HAL_Driver/Src/stm32f4xx_hal_spi.c ****   * @attention
 125:./Libraries/STM32F4xx_HAL_Driver/Src/stm32f4xx_hal_spi.c ****   *
 126:./Libraries/STM32F4xx_HAL_Driver/Src/stm32f4xx_hal_spi.c ****   * <h2><center>&copy; COPYRIGHT(c) 2017 STMicroelectronics</center></h2>
 127:./Libraries/STM32F4xx_HAL_Driver/Src/stm32f4xx_hal_spi.c ****   *
 128:./Libraries/STM32F4xx_HAL_Driver/Src/stm32f4xx_hal_spi.c ****   * Redistribution and use in source and binary forms, with or without modification,
 129:./Libraries/STM32F4xx_HAL_Driver/Src/stm32f4xx_hal_spi.c ****   * are permitted provided that the following conditions are met:
 130:./Libraries/STM32F4xx_HAL_Driver/Src/stm32f4xx_hal_spi.c ****   *   1. Redistributions of source code must retain the above copyright notice,
 131:./Libraries/STM32F4xx_HAL_Driver/Src/stm32f4xx_hal_spi.c ****   *      this list of conditions and the following disclaimer.
 132:./Libraries/STM32F4xx_HAL_Driver/Src/stm32f4xx_hal_spi.c ****   *   2. Redistributions in binary form must reproduce the above copyright notice,
 133:./Libraries/STM32F4xx_HAL_Driver/Src/stm32f4xx_hal_spi.c ****   *      this list of conditions and the following disclaimer in the documentation
 134:./Libraries/STM32F4xx_HAL_Driver/Src/stm32f4xx_hal_spi.c ****   *      and/or other materials provided with the distribution.
 135:./Libraries/STM32F4xx_HAL_Driver/Src/stm32f4xx_hal_spi.c ****   *   3. Neither the name of STMicroelectronics nor the names of its contributors
 136:./Libraries/STM32F4xx_HAL_Driver/Src/stm32f4xx_hal_spi.c ****   *      may be used to endorse or promote products derived from this software
 137:./Libraries/STM32F4xx_HAL_Driver/Src/stm32f4xx_hal_spi.c ****   *      without specific prior written permission.
 138:./Libraries/STM32F4xx_HAL_Driver/Src/stm32f4xx_hal_spi.c ****   *
 139:./Libraries/STM32F4xx_HAL_Driver/Src/stm32f4xx_hal_spi.c ****   * THIS SOFTWARE IS PROVIDED BY THE COPYRIGHT HOLDERS AND CONTRIBUTORS "AS IS"
 140:./Libraries/STM32F4xx_HAL_Driver/Src/stm32f4xx_hal_spi.c ****   * AND ANY EXPRESS OR IMPLIED WARRANTIES, INCLUDING, BUT NOT LIMITED TO, THE
 141:./Libraries/STM32F4xx_HAL_Driver/Src/stm32f4xx_hal_spi.c ****   * IMPLIED WARRANTIES OF MERCHANTABILITY AND FITNESS FOR A PARTICULAR PURPOSE ARE
 142:./Libraries/STM32F4xx_HAL_Driver/Src/stm32f4xx_hal_spi.c ****   * DISCLAIMED. IN NO EVENT SHALL THE COPYRIGHT HOLDER OR CONTRIBUTORS BE LIABLE
 143:./Libraries/STM32F4xx_HAL_Driver/Src/stm32f4xx_hal_spi.c ****   * FOR ANY DIRECT, INDIRECT, INCIDENTAL, SPECIAL, EXEMPLARY, OR CONSEQUENTIAL
 144:./Libraries/STM32F4xx_HAL_Driver/Src/stm32f4xx_hal_spi.c ****   * DAMAGES (INCLUDING, BUT NOT LIMITED TO, PROCUREMENT OF SUBSTITUTE GOODS OR
ARM GAS  /tmp/ccits0mR.s 			page 4


 145:./Libraries/STM32F4xx_HAL_Driver/Src/stm32f4xx_hal_spi.c ****   * SERVICES; LOSS OF USE, DATA, OR PROFITS; OR BUSINESS INTERRUPTION) HOWEVER
 146:./Libraries/STM32F4xx_HAL_Driver/Src/stm32f4xx_hal_spi.c ****   * CAUSED AND ON ANY THEORY OF LIABILITY, WHETHER IN CONTRACT, STRICT LIABILITY,
 147:./Libraries/STM32F4xx_HAL_Driver/Src/stm32f4xx_hal_spi.c ****   * OR TORT (INCLUDING NEGLIGENCE OR OTHERWISE) ARISING IN ANY WAY OUT OF THE USE
 148:./Libraries/STM32F4xx_HAL_Driver/Src/stm32f4xx_hal_spi.c ****   * OF THIS SOFTWARE, EVEN IF ADVISED OF THE POSSIBILITY OF SUCH DAMAGE.
 149:./Libraries/STM32F4xx_HAL_Driver/Src/stm32f4xx_hal_spi.c ****   *
 150:./Libraries/STM32F4xx_HAL_Driver/Src/stm32f4xx_hal_spi.c ****   ******************************************************************************
 151:./Libraries/STM32F4xx_HAL_Driver/Src/stm32f4xx_hal_spi.c ****   */
 152:./Libraries/STM32F4xx_HAL_Driver/Src/stm32f4xx_hal_spi.c **** 
 153:./Libraries/STM32F4xx_HAL_Driver/Src/stm32f4xx_hal_spi.c **** /* Includes ------------------------------------------------------------------*/
 154:./Libraries/STM32F4xx_HAL_Driver/Src/stm32f4xx_hal_spi.c **** #include "stm32f4xx_hal.h"
 155:./Libraries/STM32F4xx_HAL_Driver/Src/stm32f4xx_hal_spi.c **** 
 156:./Libraries/STM32F4xx_HAL_Driver/Src/stm32f4xx_hal_spi.c **** /** @addtogroup STM32F4xx_HAL_Driver
 157:./Libraries/STM32F4xx_HAL_Driver/Src/stm32f4xx_hal_spi.c ****   * @{
 158:./Libraries/STM32F4xx_HAL_Driver/Src/stm32f4xx_hal_spi.c ****   */
 159:./Libraries/STM32F4xx_HAL_Driver/Src/stm32f4xx_hal_spi.c **** /** @defgroup SPI SPI
 160:./Libraries/STM32F4xx_HAL_Driver/Src/stm32f4xx_hal_spi.c ****   * @brief SPI HAL module driver
 161:./Libraries/STM32F4xx_HAL_Driver/Src/stm32f4xx_hal_spi.c ****   * @{
 162:./Libraries/STM32F4xx_HAL_Driver/Src/stm32f4xx_hal_spi.c ****   */
 163:./Libraries/STM32F4xx_HAL_Driver/Src/stm32f4xx_hal_spi.c **** #ifdef HAL_SPI_MODULE_ENABLED
 164:./Libraries/STM32F4xx_HAL_Driver/Src/stm32f4xx_hal_spi.c **** 
 165:./Libraries/STM32F4xx_HAL_Driver/Src/stm32f4xx_hal_spi.c **** /* Private typedef -----------------------------------------------------------*/
 166:./Libraries/STM32F4xx_HAL_Driver/Src/stm32f4xx_hal_spi.c **** /* Private defines -----------------------------------------------------------*/
 167:./Libraries/STM32F4xx_HAL_Driver/Src/stm32f4xx_hal_spi.c **** /** @defgroup SPI_Private_Constants SPI Private Constants
 168:./Libraries/STM32F4xx_HAL_Driver/Src/stm32f4xx_hal_spi.c ****   * @{
 169:./Libraries/STM32F4xx_HAL_Driver/Src/stm32f4xx_hal_spi.c ****   */
 170:./Libraries/STM32F4xx_HAL_Driver/Src/stm32f4xx_hal_spi.c **** #define SPI_DEFAULT_TIMEOUT 100U
 171:./Libraries/STM32F4xx_HAL_Driver/Src/stm32f4xx_hal_spi.c **** /**
 172:./Libraries/STM32F4xx_HAL_Driver/Src/stm32f4xx_hal_spi.c ****   * @}
 173:./Libraries/STM32F4xx_HAL_Driver/Src/stm32f4xx_hal_spi.c ****   */
 174:./Libraries/STM32F4xx_HAL_Driver/Src/stm32f4xx_hal_spi.c **** 
 175:./Libraries/STM32F4xx_HAL_Driver/Src/stm32f4xx_hal_spi.c **** /* Private macros ------------------------------------------------------------*/
 176:./Libraries/STM32F4xx_HAL_Driver/Src/stm32f4xx_hal_spi.c **** /* Private variables ---------------------------------------------------------*/
 177:./Libraries/STM32F4xx_HAL_Driver/Src/stm32f4xx_hal_spi.c **** /* Private function prototypes -----------------------------------------------*/
 178:./Libraries/STM32F4xx_HAL_Driver/Src/stm32f4xx_hal_spi.c **** /** @addtogroup SPI_Private_Functions
 179:./Libraries/STM32F4xx_HAL_Driver/Src/stm32f4xx_hal_spi.c ****   * @{
 180:./Libraries/STM32F4xx_HAL_Driver/Src/stm32f4xx_hal_spi.c ****   */
 181:./Libraries/STM32F4xx_HAL_Driver/Src/stm32f4xx_hal_spi.c **** static void SPI_DMATransmitCplt(DMA_HandleTypeDef *hdma);
 182:./Libraries/STM32F4xx_HAL_Driver/Src/stm32f4xx_hal_spi.c **** static void SPI_DMAReceiveCplt(DMA_HandleTypeDef *hdma);
 183:./Libraries/STM32F4xx_HAL_Driver/Src/stm32f4xx_hal_spi.c **** static void SPI_DMATransmitReceiveCplt(DMA_HandleTypeDef *hdma);
 184:./Libraries/STM32F4xx_HAL_Driver/Src/stm32f4xx_hal_spi.c **** static void SPI_DMAHalfTransmitCplt(DMA_HandleTypeDef *hdma);
 185:./Libraries/STM32F4xx_HAL_Driver/Src/stm32f4xx_hal_spi.c **** static void SPI_DMAHalfReceiveCplt(DMA_HandleTypeDef *hdma);
 186:./Libraries/STM32F4xx_HAL_Driver/Src/stm32f4xx_hal_spi.c **** static void SPI_DMAHalfTransmitReceiveCplt(DMA_HandleTypeDef *hdma);
 187:./Libraries/STM32F4xx_HAL_Driver/Src/stm32f4xx_hal_spi.c **** static void SPI_DMAError(DMA_HandleTypeDef *hdma);
 188:./Libraries/STM32F4xx_HAL_Driver/Src/stm32f4xx_hal_spi.c **** static void SPI_DMAAbortOnError(DMA_HandleTypeDef *hdma);
 189:./Libraries/STM32F4xx_HAL_Driver/Src/stm32f4xx_hal_spi.c **** static void SPI_DMATxAbortCallback(DMA_HandleTypeDef *hdma);
 190:./Libraries/STM32F4xx_HAL_Driver/Src/stm32f4xx_hal_spi.c **** static void SPI_DMARxAbortCallback(DMA_HandleTypeDef *hdma);
 191:./Libraries/STM32F4xx_HAL_Driver/Src/stm32f4xx_hal_spi.c **** static HAL_StatusTypeDef SPI_WaitFlagStateUntilTimeout(SPI_HandleTypeDef *hspi, uint32_t Flag, uint
 192:./Libraries/STM32F4xx_HAL_Driver/Src/stm32f4xx_hal_spi.c **** static void SPI_TxISR_8BIT(struct __SPI_HandleTypeDef *hspi);
 193:./Libraries/STM32F4xx_HAL_Driver/Src/stm32f4xx_hal_spi.c **** static void SPI_TxISR_16BIT(struct __SPI_HandleTypeDef *hspi);
 194:./Libraries/STM32F4xx_HAL_Driver/Src/stm32f4xx_hal_spi.c **** static void SPI_RxISR_8BIT(struct __SPI_HandleTypeDef *hspi);
 195:./Libraries/STM32F4xx_HAL_Driver/Src/stm32f4xx_hal_spi.c **** static void SPI_RxISR_16BIT(struct __SPI_HandleTypeDef *hspi);
 196:./Libraries/STM32F4xx_HAL_Driver/Src/stm32f4xx_hal_spi.c **** static void SPI_2linesRxISR_8BIT(struct __SPI_HandleTypeDef *hspi);
 197:./Libraries/STM32F4xx_HAL_Driver/Src/stm32f4xx_hal_spi.c **** static void SPI_2linesTxISR_8BIT(struct __SPI_HandleTypeDef *hspi);
 198:./Libraries/STM32F4xx_HAL_Driver/Src/stm32f4xx_hal_spi.c **** static void SPI_2linesTxISR_16BIT(struct __SPI_HandleTypeDef *hspi);
 199:./Libraries/STM32F4xx_HAL_Driver/Src/stm32f4xx_hal_spi.c **** static void SPI_2linesRxISR_16BIT(struct __SPI_HandleTypeDef *hspi);
 200:./Libraries/STM32F4xx_HAL_Driver/Src/stm32f4xx_hal_spi.c **** #if (USE_SPI_CRC != 0U)
 201:./Libraries/STM32F4xx_HAL_Driver/Src/stm32f4xx_hal_spi.c **** static void SPI_RxISR_8BITCRC(struct __SPI_HandleTypeDef *hspi);
ARM GAS  /tmp/ccits0mR.s 			page 5


 202:./Libraries/STM32F4xx_HAL_Driver/Src/stm32f4xx_hal_spi.c **** static void SPI_RxISR_16BITCRC(struct __SPI_HandleTypeDef *hspi);
 203:./Libraries/STM32F4xx_HAL_Driver/Src/stm32f4xx_hal_spi.c **** static void SPI_2linesRxISR_8BITCRC(struct __SPI_HandleTypeDef *hspi);
 204:./Libraries/STM32F4xx_HAL_Driver/Src/stm32f4xx_hal_spi.c **** static void SPI_2linesRxISR_16BITCRC(struct __SPI_HandleTypeDef *hspi);
 205:./Libraries/STM32F4xx_HAL_Driver/Src/stm32f4xx_hal_spi.c **** #endif /* USE_SPI_CRC */
 206:./Libraries/STM32F4xx_HAL_Driver/Src/stm32f4xx_hal_spi.c **** static void SPI_AbortRx_ISR(SPI_HandleTypeDef *hspi);
 207:./Libraries/STM32F4xx_HAL_Driver/Src/stm32f4xx_hal_spi.c **** static void SPI_AbortTx_ISR(SPI_HandleTypeDef *hspi);
 208:./Libraries/STM32F4xx_HAL_Driver/Src/stm32f4xx_hal_spi.c **** static void SPI_CloseRxTx_ISR(SPI_HandleTypeDef *hspi);
 209:./Libraries/STM32F4xx_HAL_Driver/Src/stm32f4xx_hal_spi.c **** static void SPI_CloseRx_ISR(SPI_HandleTypeDef *hspi);
 210:./Libraries/STM32F4xx_HAL_Driver/Src/stm32f4xx_hal_spi.c **** static void SPI_CloseTx_ISR(SPI_HandleTypeDef *hspi);
 211:./Libraries/STM32F4xx_HAL_Driver/Src/stm32f4xx_hal_spi.c **** static HAL_StatusTypeDef SPI_CheckFlag_BSY(SPI_HandleTypeDef *hspi, uint32_t Timeout, uint32_t Tick
 212:./Libraries/STM32F4xx_HAL_Driver/Src/stm32f4xx_hal_spi.c **** /**
 213:./Libraries/STM32F4xx_HAL_Driver/Src/stm32f4xx_hal_spi.c ****   * @}
 214:./Libraries/STM32F4xx_HAL_Driver/Src/stm32f4xx_hal_spi.c ****   */
 215:./Libraries/STM32F4xx_HAL_Driver/Src/stm32f4xx_hal_spi.c **** 
 216:./Libraries/STM32F4xx_HAL_Driver/Src/stm32f4xx_hal_spi.c **** /* Exported functions --------------------------------------------------------*/
 217:./Libraries/STM32F4xx_HAL_Driver/Src/stm32f4xx_hal_spi.c **** /** @defgroup SPI_Exported_Functions SPI Exported Functions
 218:./Libraries/STM32F4xx_HAL_Driver/Src/stm32f4xx_hal_spi.c ****   * @{
 219:./Libraries/STM32F4xx_HAL_Driver/Src/stm32f4xx_hal_spi.c ****   */
 220:./Libraries/STM32F4xx_HAL_Driver/Src/stm32f4xx_hal_spi.c **** 
 221:./Libraries/STM32F4xx_HAL_Driver/Src/stm32f4xx_hal_spi.c **** /** @defgroup SPI_Exported_Functions_Group1 Initialization and de-initialization functions
 222:./Libraries/STM32F4xx_HAL_Driver/Src/stm32f4xx_hal_spi.c ****  *  @brief    Initialization and Configuration functions
 223:./Libraries/STM32F4xx_HAL_Driver/Src/stm32f4xx_hal_spi.c ****  *
 224:./Libraries/STM32F4xx_HAL_Driver/Src/stm32f4xx_hal_spi.c **** @verbatim
 225:./Libraries/STM32F4xx_HAL_Driver/Src/stm32f4xx_hal_spi.c ****  ===============================================================================
 226:./Libraries/STM32F4xx_HAL_Driver/Src/stm32f4xx_hal_spi.c ****               ##### Initialization and de-initialization functions #####
 227:./Libraries/STM32F4xx_HAL_Driver/Src/stm32f4xx_hal_spi.c ****  ===============================================================================
 228:./Libraries/STM32F4xx_HAL_Driver/Src/stm32f4xx_hal_spi.c ****     [..]  This subsection provides a set of functions allowing to initialize and
 229:./Libraries/STM32F4xx_HAL_Driver/Src/stm32f4xx_hal_spi.c ****           de-initialize the SPIx peripheral:
 230:./Libraries/STM32F4xx_HAL_Driver/Src/stm32f4xx_hal_spi.c **** 
 231:./Libraries/STM32F4xx_HAL_Driver/Src/stm32f4xx_hal_spi.c ****       (+) User must implement HAL_SPI_MspInit() function in which he configures
 232:./Libraries/STM32F4xx_HAL_Driver/Src/stm32f4xx_hal_spi.c ****           all related peripherals resources (CLOCK, GPIO, DMA, IT and NVIC ).
 233:./Libraries/STM32F4xx_HAL_Driver/Src/stm32f4xx_hal_spi.c **** 
 234:./Libraries/STM32F4xx_HAL_Driver/Src/stm32f4xx_hal_spi.c ****       (+) Call the function HAL_SPI_Init() to configure the selected device with
 235:./Libraries/STM32F4xx_HAL_Driver/Src/stm32f4xx_hal_spi.c ****           the selected configuration:
 236:./Libraries/STM32F4xx_HAL_Driver/Src/stm32f4xx_hal_spi.c ****         (++) Mode
 237:./Libraries/STM32F4xx_HAL_Driver/Src/stm32f4xx_hal_spi.c ****         (++) Direction
 238:./Libraries/STM32F4xx_HAL_Driver/Src/stm32f4xx_hal_spi.c ****         (++) Data Size
 239:./Libraries/STM32F4xx_HAL_Driver/Src/stm32f4xx_hal_spi.c ****         (++) Clock Polarity and Phase
 240:./Libraries/STM32F4xx_HAL_Driver/Src/stm32f4xx_hal_spi.c ****         (++) NSS Management
 241:./Libraries/STM32F4xx_HAL_Driver/Src/stm32f4xx_hal_spi.c ****         (++) BaudRate Prescaler
 242:./Libraries/STM32F4xx_HAL_Driver/Src/stm32f4xx_hal_spi.c ****         (++) FirstBit
 243:./Libraries/STM32F4xx_HAL_Driver/Src/stm32f4xx_hal_spi.c ****         (++) TIMode
 244:./Libraries/STM32F4xx_HAL_Driver/Src/stm32f4xx_hal_spi.c ****         (++) CRC Calculation
 245:./Libraries/STM32F4xx_HAL_Driver/Src/stm32f4xx_hal_spi.c ****         (++) CRC Polynomial if CRC enabled
 246:./Libraries/STM32F4xx_HAL_Driver/Src/stm32f4xx_hal_spi.c **** 
 247:./Libraries/STM32F4xx_HAL_Driver/Src/stm32f4xx_hal_spi.c ****       (+) Call the function HAL_SPI_DeInit() to restore the default configuration
 248:./Libraries/STM32F4xx_HAL_Driver/Src/stm32f4xx_hal_spi.c ****           of the selected SPIx peripheral.
 249:./Libraries/STM32F4xx_HAL_Driver/Src/stm32f4xx_hal_spi.c **** 
 250:./Libraries/STM32F4xx_HAL_Driver/Src/stm32f4xx_hal_spi.c **** @endverbatim
 251:./Libraries/STM32F4xx_HAL_Driver/Src/stm32f4xx_hal_spi.c ****   * @{
 252:./Libraries/STM32F4xx_HAL_Driver/Src/stm32f4xx_hal_spi.c ****   */
 253:./Libraries/STM32F4xx_HAL_Driver/Src/stm32f4xx_hal_spi.c **** 
 254:./Libraries/STM32F4xx_HAL_Driver/Src/stm32f4xx_hal_spi.c **** /**
 255:./Libraries/STM32F4xx_HAL_Driver/Src/stm32f4xx_hal_spi.c ****   * @brief  Initialize the SPI according to the specified parameters
 256:./Libraries/STM32F4xx_HAL_Driver/Src/stm32f4xx_hal_spi.c ****   *         in the SPI_InitTypeDef and initialize the associated handle.
 257:./Libraries/STM32F4xx_HAL_Driver/Src/stm32f4xx_hal_spi.c ****   * @param  hspi pointer to a SPI_HandleTypeDef structure that contains
 258:./Libraries/STM32F4xx_HAL_Driver/Src/stm32f4xx_hal_spi.c ****   *               the configuration information for SPI module.
ARM GAS  /tmp/ccits0mR.s 			page 6


 259:./Libraries/STM32F4xx_HAL_Driver/Src/stm32f4xx_hal_spi.c ****   * @retval HAL status
 260:./Libraries/STM32F4xx_HAL_Driver/Src/stm32f4xx_hal_spi.c ****   */
 261:./Libraries/STM32F4xx_HAL_Driver/Src/stm32f4xx_hal_spi.c **** HAL_StatusTypeDef HAL_SPI_Init(SPI_HandleTypeDef *hspi)
 262:./Libraries/STM32F4xx_HAL_Driver/Src/stm32f4xx_hal_spi.c **** {
  29              		.loc 1 262 1
  30              		.cfi_startproc
  31              		@ args = 0, pretend = 0, frame = 8
  32              		@ frame_needed = 1, uses_anonymous_args = 0
  33 0000 80B5     		push	{r7, lr}
  34              	.LCFI0:
  35              		.cfi_def_cfa_offset 8
  36              		.cfi_offset 7, -8
  37              		.cfi_offset 14, -4
  38 0002 82B0     		sub	sp, sp, #8
  39              	.LCFI1:
  40              		.cfi_def_cfa_offset 16
  41 0004 00AF     		add	r7, sp, #0
  42              	.LCFI2:
  43              		.cfi_def_cfa_register 7
  44 0006 7860     		str	r0, [r7, #4]
 263:./Libraries/STM32F4xx_HAL_Driver/Src/stm32f4xx_hal_spi.c ****   /* Check the SPI handle allocation */
 264:./Libraries/STM32F4xx_HAL_Driver/Src/stm32f4xx_hal_spi.c ****   if(hspi == NULL)
  45              		.loc 1 264 5
  46 0008 7B68     		ldr	r3, [r7, #4]
  47 000a 002B     		cmp	r3, #0
  48 000c 01D1     		bne	.L2
 265:./Libraries/STM32F4xx_HAL_Driver/Src/stm32f4xx_hal_spi.c ****   {
 266:./Libraries/STM32F4xx_HAL_Driver/Src/stm32f4xx_hal_spi.c ****     return HAL_ERROR;
  49              		.loc 1 266 12
  50 000e 0123     		movs	r3, #1
  51 0010 5DE0     		b	.L3
  52              	.L2:
 267:./Libraries/STM32F4xx_HAL_Driver/Src/stm32f4xx_hal_spi.c ****   }
 268:./Libraries/STM32F4xx_HAL_Driver/Src/stm32f4xx_hal_spi.c **** 
 269:./Libraries/STM32F4xx_HAL_Driver/Src/stm32f4xx_hal_spi.c ****   /* Check the parameters */
 270:./Libraries/STM32F4xx_HAL_Driver/Src/stm32f4xx_hal_spi.c ****   assert_param(IS_SPI_ALL_INSTANCE(hspi->Instance));
 271:./Libraries/STM32F4xx_HAL_Driver/Src/stm32f4xx_hal_spi.c ****   assert_param(IS_SPI_MODE(hspi->Init.Mode));
 272:./Libraries/STM32F4xx_HAL_Driver/Src/stm32f4xx_hal_spi.c ****   assert_param(IS_SPI_DIRECTION(hspi->Init.Direction));
 273:./Libraries/STM32F4xx_HAL_Driver/Src/stm32f4xx_hal_spi.c ****   assert_param(IS_SPI_DATASIZE(hspi->Init.DataSize));
 274:./Libraries/STM32F4xx_HAL_Driver/Src/stm32f4xx_hal_spi.c ****   assert_param(IS_SPI_NSS(hspi->Init.NSS));
 275:./Libraries/STM32F4xx_HAL_Driver/Src/stm32f4xx_hal_spi.c ****   assert_param(IS_SPI_BAUDRATE_PRESCALER(hspi->Init.BaudRatePrescaler));
 276:./Libraries/STM32F4xx_HAL_Driver/Src/stm32f4xx_hal_spi.c ****   assert_param(IS_SPI_FIRST_BIT(hspi->Init.FirstBit));
 277:./Libraries/STM32F4xx_HAL_Driver/Src/stm32f4xx_hal_spi.c ****   assert_param(IS_SPI_TIMODE(hspi->Init.TIMode));
 278:./Libraries/STM32F4xx_HAL_Driver/Src/stm32f4xx_hal_spi.c ****   if(hspi->Init.TIMode == SPI_TIMODE_DISABLE)
 279:./Libraries/STM32F4xx_HAL_Driver/Src/stm32f4xx_hal_spi.c ****   {
 280:./Libraries/STM32F4xx_HAL_Driver/Src/stm32f4xx_hal_spi.c ****     assert_param(IS_SPI_CPOL(hspi->Init.CLKPolarity));
 281:./Libraries/STM32F4xx_HAL_Driver/Src/stm32f4xx_hal_spi.c ****     assert_param(IS_SPI_CPHA(hspi->Init.CLKPhase));
 282:./Libraries/STM32F4xx_HAL_Driver/Src/stm32f4xx_hal_spi.c ****   }
 283:./Libraries/STM32F4xx_HAL_Driver/Src/stm32f4xx_hal_spi.c **** #if (USE_SPI_CRC != 0U)
 284:./Libraries/STM32F4xx_HAL_Driver/Src/stm32f4xx_hal_spi.c ****   assert_param(IS_SPI_CRC_CALCULATION(hspi->Init.CRCCalculation));
 285:./Libraries/STM32F4xx_HAL_Driver/Src/stm32f4xx_hal_spi.c ****   if(hspi->Init.CRCCalculation == SPI_CRCCALCULATION_ENABLE)
 286:./Libraries/STM32F4xx_HAL_Driver/Src/stm32f4xx_hal_spi.c ****   {
 287:./Libraries/STM32F4xx_HAL_Driver/Src/stm32f4xx_hal_spi.c ****     assert_param(IS_SPI_CRC_POLYNOMIAL(hspi->Init.CRCPolynomial));
 288:./Libraries/STM32F4xx_HAL_Driver/Src/stm32f4xx_hal_spi.c ****   }
 289:./Libraries/STM32F4xx_HAL_Driver/Src/stm32f4xx_hal_spi.c **** #else
 290:./Libraries/STM32F4xx_HAL_Driver/Src/stm32f4xx_hal_spi.c ****   hspi->Init.CRCCalculation = SPI_CRCCALCULATION_DISABLE;
 291:./Libraries/STM32F4xx_HAL_Driver/Src/stm32f4xx_hal_spi.c **** #endif /* USE_SPI_CRC */
ARM GAS  /tmp/ccits0mR.s 			page 7


 292:./Libraries/STM32F4xx_HAL_Driver/Src/stm32f4xx_hal_spi.c **** 
 293:./Libraries/STM32F4xx_HAL_Driver/Src/stm32f4xx_hal_spi.c ****   if(hspi->State == HAL_SPI_STATE_RESET)
  53              		.loc 1 293 10
  54 0012 7B68     		ldr	r3, [r7, #4]
  55 0014 93F85130 		ldrb	r3, [r3, #81]
  56 0018 DBB2     		uxtb	r3, r3
  57              		.loc 1 293 5
  58 001a 002B     		cmp	r3, #0
  59 001c 06D1     		bne	.L4
 294:./Libraries/STM32F4xx_HAL_Driver/Src/stm32f4xx_hal_spi.c ****   {
 295:./Libraries/STM32F4xx_HAL_Driver/Src/stm32f4xx_hal_spi.c ****     /* Allocate lock resource and initialize it */
 296:./Libraries/STM32F4xx_HAL_Driver/Src/stm32f4xx_hal_spi.c ****     hspi->Lock = HAL_UNLOCKED;
  60              		.loc 1 296 16
  61 001e 7B68     		ldr	r3, [r7, #4]
  62 0020 0022     		movs	r2, #0
  63 0022 83F85020 		strb	r2, [r3, #80]
 297:./Libraries/STM32F4xx_HAL_Driver/Src/stm32f4xx_hal_spi.c **** 
 298:./Libraries/STM32F4xx_HAL_Driver/Src/stm32f4xx_hal_spi.c ****     /* Init the low level hardware : GPIO, CLOCK, NVIC... */
 299:./Libraries/STM32F4xx_HAL_Driver/Src/stm32f4xx_hal_spi.c ****     HAL_SPI_MspInit(hspi);
  64              		.loc 1 299 5
  65 0026 7868     		ldr	r0, [r7, #4]
  66 0028 FFF7FEFF 		bl	HAL_SPI_MspInit
  67              	.L4:
 300:./Libraries/STM32F4xx_HAL_Driver/Src/stm32f4xx_hal_spi.c ****   }
 301:./Libraries/STM32F4xx_HAL_Driver/Src/stm32f4xx_hal_spi.c **** 
 302:./Libraries/STM32F4xx_HAL_Driver/Src/stm32f4xx_hal_spi.c ****   hspi->State = HAL_SPI_STATE_BUSY;
  68              		.loc 1 302 15
  69 002c 7B68     		ldr	r3, [r7, #4]
  70 002e 0222     		movs	r2, #2
  71 0030 83F85120 		strb	r2, [r3, #81]
 303:./Libraries/STM32F4xx_HAL_Driver/Src/stm32f4xx_hal_spi.c **** 
 304:./Libraries/STM32F4xx_HAL_Driver/Src/stm32f4xx_hal_spi.c ****   /* Disable the selected SPI peripheral */
 305:./Libraries/STM32F4xx_HAL_Driver/Src/stm32f4xx_hal_spi.c ****   __HAL_SPI_DISABLE(hspi);
  72              		.loc 1 305 3
  73 0034 7B68     		ldr	r3, [r7, #4]
  74 0036 1B68     		ldr	r3, [r3]
  75 0038 1A68     		ldr	r2, [r3]
  76 003a 7B68     		ldr	r3, [r7, #4]
  77 003c 1B68     		ldr	r3, [r3]
  78 003e 22F04002 		bic	r2, r2, #64
  79 0042 1A60     		str	r2, [r3]
 306:./Libraries/STM32F4xx_HAL_Driver/Src/stm32f4xx_hal_spi.c **** 
 307:./Libraries/STM32F4xx_HAL_Driver/Src/stm32f4xx_hal_spi.c ****   /*----------------------- SPIx CR1 & CR2 Configuration ---------------------*/
 308:./Libraries/STM32F4xx_HAL_Driver/Src/stm32f4xx_hal_spi.c ****   /* Configure : SPI Mode, Communication Mode, Data size, Clock polarity and phase, NSS management,
 309:./Libraries/STM32F4xx_HAL_Driver/Src/stm32f4xx_hal_spi.c ****   Communication speed, First bit and CRC calculation state */
 310:./Libraries/STM32F4xx_HAL_Driver/Src/stm32f4xx_hal_spi.c ****   WRITE_REG(hspi->Instance->CR1, (hspi->Init.Mode | hspi->Init.Direction | hspi->Init.DataSize |
  80              		.loc 1 310 3
  81 0044 7B68     		ldr	r3, [r7, #4]
  82 0046 5A68     		ldr	r2, [r3, #4]
  83 0048 7B68     		ldr	r3, [r7, #4]
  84 004a 9B68     		ldr	r3, [r3, #8]
  85 004c 1A43     		orrs	r2, r2, r3
  86 004e 7B68     		ldr	r3, [r7, #4]
  87 0050 DB68     		ldr	r3, [r3, #12]
  88 0052 1A43     		orrs	r2, r2, r3
  89 0054 7B68     		ldr	r3, [r7, #4]
  90 0056 1B69     		ldr	r3, [r3, #16]
ARM GAS  /tmp/ccits0mR.s 			page 8


  91 0058 1A43     		orrs	r2, r2, r3
  92 005a 7B68     		ldr	r3, [r7, #4]
  93 005c 5B69     		ldr	r3, [r3, #20]
  94 005e 1A43     		orrs	r2, r2, r3
  95 0060 7B68     		ldr	r3, [r7, #4]
  96 0062 9B69     		ldr	r3, [r3, #24]
  97 0064 03F40073 		and	r3, r3, #512
  98 0068 1A43     		orrs	r2, r2, r3
  99 006a 7B68     		ldr	r3, [r7, #4]
 100 006c DB69     		ldr	r3, [r3, #28]
 101 006e 1A43     		orrs	r2, r2, r3
 102 0070 7B68     		ldr	r3, [r7, #4]
 103 0072 1B6A     		ldr	r3, [r3, #32]
 104 0074 42EA0301 		orr	r1, r2, r3
 105 0078 7B68     		ldr	r3, [r7, #4]
 106 007a 9A6A     		ldr	r2, [r3, #40]
 107 007c 7B68     		ldr	r3, [r7, #4]
 108 007e 1B68     		ldr	r3, [r3]
 109 0080 0A43     		orrs	r2, r2, r1
 110 0082 1A60     		str	r2, [r3]
 311:./Libraries/STM32F4xx_HAL_Driver/Src/stm32f4xx_hal_spi.c ****                                   hspi->Init.CLKPolarity | hspi->Init.CLKPhase | (hspi->Init.NSS & 
 312:./Libraries/STM32F4xx_HAL_Driver/Src/stm32f4xx_hal_spi.c ****                                   hspi->Init.BaudRatePrescaler | hspi->Init.FirstBit  | hspi->Init.
 313:./Libraries/STM32F4xx_HAL_Driver/Src/stm32f4xx_hal_spi.c **** 
 314:./Libraries/STM32F4xx_HAL_Driver/Src/stm32f4xx_hal_spi.c ****   /* Configure : NSS management */
 315:./Libraries/STM32F4xx_HAL_Driver/Src/stm32f4xx_hal_spi.c ****   WRITE_REG(hspi->Instance->CR2, (((hspi->Init.NSS >> 16U) & SPI_CR2_SSOE) | hspi->Init.TIMode));
 111              		.loc 1 315 3
 112 0084 7B68     		ldr	r3, [r7, #4]
 113 0086 9B69     		ldr	r3, [r3, #24]
 114 0088 1B0C     		lsrs	r3, r3, #16
 115 008a 03F00401 		and	r1, r3, #4
 116 008e 7B68     		ldr	r3, [r7, #4]
 117 0090 5A6A     		ldr	r2, [r3, #36]
 118 0092 7B68     		ldr	r3, [r7, #4]
 119 0094 1B68     		ldr	r3, [r3]
 120 0096 0A43     		orrs	r2, r2, r1
 121 0098 5A60     		str	r2, [r3, #4]
 316:./Libraries/STM32F4xx_HAL_Driver/Src/stm32f4xx_hal_spi.c **** 
 317:./Libraries/STM32F4xx_HAL_Driver/Src/stm32f4xx_hal_spi.c **** #if (USE_SPI_CRC != 0U)
 318:./Libraries/STM32F4xx_HAL_Driver/Src/stm32f4xx_hal_spi.c ****   /*---------------------------- SPIx CRCPOLY Configuration ------------------*/
 319:./Libraries/STM32F4xx_HAL_Driver/Src/stm32f4xx_hal_spi.c ****   /* Configure : CRC Polynomial */
 320:./Libraries/STM32F4xx_HAL_Driver/Src/stm32f4xx_hal_spi.c ****   if(hspi->Init.CRCCalculation == SPI_CRCCALCULATION_ENABLE)
 122              		.loc 1 320 16
 123 009a 7B68     		ldr	r3, [r7, #4]
 124 009c 9B6A     		ldr	r3, [r3, #40]
 125              		.loc 1 320 5
 126 009e B3F5005F 		cmp	r3, #8192
 127 00a2 04D1     		bne	.L5
 321:./Libraries/STM32F4xx_HAL_Driver/Src/stm32f4xx_hal_spi.c ****   {
 322:./Libraries/STM32F4xx_HAL_Driver/Src/stm32f4xx_hal_spi.c ****     WRITE_REG(hspi->Instance->CRCPR, hspi->Init.CRCPolynomial);
 128              		.loc 1 322 5
 129 00a4 7B68     		ldr	r3, [r7, #4]
 130 00a6 1B68     		ldr	r3, [r3]
 131 00a8 7A68     		ldr	r2, [r7, #4]
 132 00aa D26A     		ldr	r2, [r2, #44]
 133 00ac 1A61     		str	r2, [r3, #16]
 134              	.L5:
 323:./Libraries/STM32F4xx_HAL_Driver/Src/stm32f4xx_hal_spi.c ****   }
ARM GAS  /tmp/ccits0mR.s 			page 9


 324:./Libraries/STM32F4xx_HAL_Driver/Src/stm32f4xx_hal_spi.c **** #endif /* USE_SPI_CRC */
 325:./Libraries/STM32F4xx_HAL_Driver/Src/stm32f4xx_hal_spi.c **** 
 326:./Libraries/STM32F4xx_HAL_Driver/Src/stm32f4xx_hal_spi.c **** #if defined(SPI_I2SCFGR_I2SMOD)
 327:./Libraries/STM32F4xx_HAL_Driver/Src/stm32f4xx_hal_spi.c ****   /* Activate the SPI mode (Make sure that I2SMOD bit in I2SCFGR register is reset) */
 328:./Libraries/STM32F4xx_HAL_Driver/Src/stm32f4xx_hal_spi.c ****   CLEAR_BIT(hspi->Instance->I2SCFGR, SPI_I2SCFGR_I2SMOD);
 135              		.loc 1 328 3
 136 00ae 7B68     		ldr	r3, [r7, #4]
 137 00b0 1B68     		ldr	r3, [r3]
 138 00b2 DA69     		ldr	r2, [r3, #28]
 139 00b4 7B68     		ldr	r3, [r7, #4]
 140 00b6 1B68     		ldr	r3, [r3]
 141 00b8 22F40062 		bic	r2, r2, #2048
 142 00bc DA61     		str	r2, [r3, #28]
 329:./Libraries/STM32F4xx_HAL_Driver/Src/stm32f4xx_hal_spi.c **** #endif /* USE_SPI_CRC */
 330:./Libraries/STM32F4xx_HAL_Driver/Src/stm32f4xx_hal_spi.c **** 
 331:./Libraries/STM32F4xx_HAL_Driver/Src/stm32f4xx_hal_spi.c ****   hspi->ErrorCode = HAL_SPI_ERROR_NONE;
 143              		.loc 1 331 19
 144 00be 7B68     		ldr	r3, [r7, #4]
 145 00c0 0022     		movs	r2, #0
 146 00c2 5A65     		str	r2, [r3, #84]
 332:./Libraries/STM32F4xx_HAL_Driver/Src/stm32f4xx_hal_spi.c ****   hspi->State     = HAL_SPI_STATE_READY;
 147              		.loc 1 332 19
 148 00c4 7B68     		ldr	r3, [r7, #4]
 149 00c6 0122     		movs	r2, #1
 150 00c8 83F85120 		strb	r2, [r3, #81]
 333:./Libraries/STM32F4xx_HAL_Driver/Src/stm32f4xx_hal_spi.c **** 
 334:./Libraries/STM32F4xx_HAL_Driver/Src/stm32f4xx_hal_spi.c ****   return HAL_OK;
 151              		.loc 1 334 10
 152 00cc 0023     		movs	r3, #0
 153              	.L3:
 335:./Libraries/STM32F4xx_HAL_Driver/Src/stm32f4xx_hal_spi.c **** }
 154              		.loc 1 335 1
 155 00ce 1846     		mov	r0, r3
 156 00d0 0837     		adds	r7, r7, #8
 157              	.LCFI3:
 158              		.cfi_def_cfa_offset 8
 159 00d2 BD46     		mov	sp, r7
 160              	.LCFI4:
 161              		.cfi_def_cfa_register 13
 162              		@ sp needed
 163 00d4 80BD     		pop	{r7, pc}
 164              		.cfi_endproc
 165              	.LFE126:
 167              		.section	.text.HAL_SPI_DeInit,"ax",%progbits
 168              		.align	1
 169              		.global	HAL_SPI_DeInit
 170              		.syntax unified
 171              		.thumb
 172              		.thumb_func
 173              		.fpu fpv4-sp-d16
 175              	HAL_SPI_DeInit:
 176              	.LFB127:
 336:./Libraries/STM32F4xx_HAL_Driver/Src/stm32f4xx_hal_spi.c **** 
 337:./Libraries/STM32F4xx_HAL_Driver/Src/stm32f4xx_hal_spi.c **** /**
 338:./Libraries/STM32F4xx_HAL_Driver/Src/stm32f4xx_hal_spi.c ****   * @brief  De Initialize the SPI peripheral.
 339:./Libraries/STM32F4xx_HAL_Driver/Src/stm32f4xx_hal_spi.c ****   * @param  hspi pointer to a SPI_HandleTypeDef structure that contains
 340:./Libraries/STM32F4xx_HAL_Driver/Src/stm32f4xx_hal_spi.c ****   *               the configuration information for SPI module.
ARM GAS  /tmp/ccits0mR.s 			page 10


 341:./Libraries/STM32F4xx_HAL_Driver/Src/stm32f4xx_hal_spi.c ****   * @retval HAL status
 342:./Libraries/STM32F4xx_HAL_Driver/Src/stm32f4xx_hal_spi.c ****   */
 343:./Libraries/STM32F4xx_HAL_Driver/Src/stm32f4xx_hal_spi.c **** HAL_StatusTypeDef HAL_SPI_DeInit(SPI_HandleTypeDef *hspi)
 344:./Libraries/STM32F4xx_HAL_Driver/Src/stm32f4xx_hal_spi.c **** {
 177              		.loc 1 344 1
 178              		.cfi_startproc
 179              		@ args = 0, pretend = 0, frame = 8
 180              		@ frame_needed = 1, uses_anonymous_args = 0
 181 0000 80B5     		push	{r7, lr}
 182              	.LCFI5:
 183              		.cfi_def_cfa_offset 8
 184              		.cfi_offset 7, -8
 185              		.cfi_offset 14, -4
 186 0002 82B0     		sub	sp, sp, #8
 187              	.LCFI6:
 188              		.cfi_def_cfa_offset 16
 189 0004 00AF     		add	r7, sp, #0
 190              	.LCFI7:
 191              		.cfi_def_cfa_register 7
 192 0006 7860     		str	r0, [r7, #4]
 345:./Libraries/STM32F4xx_HAL_Driver/Src/stm32f4xx_hal_spi.c ****   /* Check the SPI handle allocation */
 346:./Libraries/STM32F4xx_HAL_Driver/Src/stm32f4xx_hal_spi.c ****   if(hspi == NULL)
 193              		.loc 1 346 5
 194 0008 7B68     		ldr	r3, [r7, #4]
 195 000a 002B     		cmp	r3, #0
 196 000c 01D1     		bne	.L7
 347:./Libraries/STM32F4xx_HAL_Driver/Src/stm32f4xx_hal_spi.c ****   {
 348:./Libraries/STM32F4xx_HAL_Driver/Src/stm32f4xx_hal_spi.c ****     return HAL_ERROR;
 197              		.loc 1 348 12
 198 000e 0123     		movs	r3, #1
 199 0010 1AE0     		b	.L8
 200              	.L7:
 349:./Libraries/STM32F4xx_HAL_Driver/Src/stm32f4xx_hal_spi.c ****   }
 350:./Libraries/STM32F4xx_HAL_Driver/Src/stm32f4xx_hal_spi.c **** 
 351:./Libraries/STM32F4xx_HAL_Driver/Src/stm32f4xx_hal_spi.c ****   /* Check SPI Instance parameter */
 352:./Libraries/STM32F4xx_HAL_Driver/Src/stm32f4xx_hal_spi.c ****   assert_param(IS_SPI_ALL_INSTANCE(hspi->Instance));
 353:./Libraries/STM32F4xx_HAL_Driver/Src/stm32f4xx_hal_spi.c **** 
 354:./Libraries/STM32F4xx_HAL_Driver/Src/stm32f4xx_hal_spi.c ****   hspi->State = HAL_SPI_STATE_BUSY;
 201              		.loc 1 354 15
 202 0012 7B68     		ldr	r3, [r7, #4]
 203 0014 0222     		movs	r2, #2
 204 0016 83F85120 		strb	r2, [r3, #81]
 355:./Libraries/STM32F4xx_HAL_Driver/Src/stm32f4xx_hal_spi.c **** 
 356:./Libraries/STM32F4xx_HAL_Driver/Src/stm32f4xx_hal_spi.c ****   /* Disable the SPI Peripheral Clock */
 357:./Libraries/STM32F4xx_HAL_Driver/Src/stm32f4xx_hal_spi.c ****   __HAL_SPI_DISABLE(hspi);
 205              		.loc 1 357 3
 206 001a 7B68     		ldr	r3, [r7, #4]
 207 001c 1B68     		ldr	r3, [r3]
 208 001e 1A68     		ldr	r2, [r3]
 209 0020 7B68     		ldr	r3, [r7, #4]
 210 0022 1B68     		ldr	r3, [r3]
 211 0024 22F04002 		bic	r2, r2, #64
 212 0028 1A60     		str	r2, [r3]
 358:./Libraries/STM32F4xx_HAL_Driver/Src/stm32f4xx_hal_spi.c **** 
 359:./Libraries/STM32F4xx_HAL_Driver/Src/stm32f4xx_hal_spi.c ****   /* DeInit the low level hardware: GPIO, CLOCK, NVIC... */
 360:./Libraries/STM32F4xx_HAL_Driver/Src/stm32f4xx_hal_spi.c ****   HAL_SPI_MspDeInit(hspi);
 213              		.loc 1 360 3
ARM GAS  /tmp/ccits0mR.s 			page 11


 214 002a 7868     		ldr	r0, [r7, #4]
 215 002c FFF7FEFF 		bl	HAL_SPI_MspDeInit
 361:./Libraries/STM32F4xx_HAL_Driver/Src/stm32f4xx_hal_spi.c **** 
 362:./Libraries/STM32F4xx_HAL_Driver/Src/stm32f4xx_hal_spi.c ****   hspi->ErrorCode = HAL_SPI_ERROR_NONE;
 216              		.loc 1 362 19
 217 0030 7B68     		ldr	r3, [r7, #4]
 218 0032 0022     		movs	r2, #0
 219 0034 5A65     		str	r2, [r3, #84]
 363:./Libraries/STM32F4xx_HAL_Driver/Src/stm32f4xx_hal_spi.c ****   hspi->State = HAL_SPI_STATE_RESET;
 220              		.loc 1 363 15
 221 0036 7B68     		ldr	r3, [r7, #4]
 222 0038 0022     		movs	r2, #0
 223 003a 83F85120 		strb	r2, [r3, #81]
 364:./Libraries/STM32F4xx_HAL_Driver/Src/stm32f4xx_hal_spi.c **** 
 365:./Libraries/STM32F4xx_HAL_Driver/Src/stm32f4xx_hal_spi.c ****   /* Release Lock */
 366:./Libraries/STM32F4xx_HAL_Driver/Src/stm32f4xx_hal_spi.c ****   __HAL_UNLOCK(hspi);
 224              		.loc 1 366 3
 225 003e 7B68     		ldr	r3, [r7, #4]
 226 0040 0022     		movs	r2, #0
 227 0042 83F85020 		strb	r2, [r3, #80]
 367:./Libraries/STM32F4xx_HAL_Driver/Src/stm32f4xx_hal_spi.c **** 
 368:./Libraries/STM32F4xx_HAL_Driver/Src/stm32f4xx_hal_spi.c ****   return HAL_OK;
 228              		.loc 1 368 10
 229 0046 0023     		movs	r3, #0
 230              	.L8:
 369:./Libraries/STM32F4xx_HAL_Driver/Src/stm32f4xx_hal_spi.c **** }
 231              		.loc 1 369 1
 232 0048 1846     		mov	r0, r3
 233 004a 0837     		adds	r7, r7, #8
 234              	.LCFI8:
 235              		.cfi_def_cfa_offset 8
 236 004c BD46     		mov	sp, r7
 237              	.LCFI9:
 238              		.cfi_def_cfa_register 13
 239              		@ sp needed
 240 004e 80BD     		pop	{r7, pc}
 241              		.cfi_endproc
 242              	.LFE127:
 244              		.section	.text.HAL_SPI_MspInit,"ax",%progbits
 245              		.align	1
 246              		.weak	HAL_SPI_MspInit
 247              		.syntax unified
 248              		.thumb
 249              		.thumb_func
 250              		.fpu fpv4-sp-d16
 252              	HAL_SPI_MspInit:
 253              	.LFB128:
 370:./Libraries/STM32F4xx_HAL_Driver/Src/stm32f4xx_hal_spi.c **** 
 371:./Libraries/STM32F4xx_HAL_Driver/Src/stm32f4xx_hal_spi.c **** /**
 372:./Libraries/STM32F4xx_HAL_Driver/Src/stm32f4xx_hal_spi.c ****   * @brief  Initialize the SPI MSP.
 373:./Libraries/STM32F4xx_HAL_Driver/Src/stm32f4xx_hal_spi.c ****   * @param  hspi pointer to a SPI_HandleTypeDef structure that contains
 374:./Libraries/STM32F4xx_HAL_Driver/Src/stm32f4xx_hal_spi.c ****   *               the configuration information for SPI module.
 375:./Libraries/STM32F4xx_HAL_Driver/Src/stm32f4xx_hal_spi.c ****   * @retval None
 376:./Libraries/STM32F4xx_HAL_Driver/Src/stm32f4xx_hal_spi.c ****   */
 377:./Libraries/STM32F4xx_HAL_Driver/Src/stm32f4xx_hal_spi.c **** __weak void HAL_SPI_MspInit(SPI_HandleTypeDef *hspi)
 378:./Libraries/STM32F4xx_HAL_Driver/Src/stm32f4xx_hal_spi.c **** {
 254              		.loc 1 378 1
ARM GAS  /tmp/ccits0mR.s 			page 12


 255              		.cfi_startproc
 256              		@ args = 0, pretend = 0, frame = 8
 257              		@ frame_needed = 1, uses_anonymous_args = 0
 258              		@ link register save eliminated.
 259 0000 80B4     		push	{r7}
 260              	.LCFI10:
 261              		.cfi_def_cfa_offset 4
 262              		.cfi_offset 7, -4
 263 0002 83B0     		sub	sp, sp, #12
 264              	.LCFI11:
 265              		.cfi_def_cfa_offset 16
 266 0004 00AF     		add	r7, sp, #0
 267              	.LCFI12:
 268              		.cfi_def_cfa_register 7
 269 0006 7860     		str	r0, [r7, #4]
 379:./Libraries/STM32F4xx_HAL_Driver/Src/stm32f4xx_hal_spi.c ****   /* Prevent unused argument(s) compilation warning */
 380:./Libraries/STM32F4xx_HAL_Driver/Src/stm32f4xx_hal_spi.c ****   UNUSED(hspi);
 381:./Libraries/STM32F4xx_HAL_Driver/Src/stm32f4xx_hal_spi.c ****   /* NOTE : This function should not be modified, when the callback is needed,
 382:./Libraries/STM32F4xx_HAL_Driver/Src/stm32f4xx_hal_spi.c ****             the HAL_SPI_MspInit should be implemented in the user file
 383:./Libraries/STM32F4xx_HAL_Driver/Src/stm32f4xx_hal_spi.c ****   */
 384:./Libraries/STM32F4xx_HAL_Driver/Src/stm32f4xx_hal_spi.c **** }
 270              		.loc 1 384 1
 271 0008 00BF     		nop
 272 000a 0C37     		adds	r7, r7, #12
 273              	.LCFI13:
 274              		.cfi_def_cfa_offset 4
 275 000c BD46     		mov	sp, r7
 276              	.LCFI14:
 277              		.cfi_def_cfa_register 13
 278              		@ sp needed
 279 000e 5DF8047B 		ldr	r7, [sp], #4
 280              	.LCFI15:
 281              		.cfi_restore 7
 282              		.cfi_def_cfa_offset 0
 283 0012 7047     		bx	lr
 284              		.cfi_endproc
 285              	.LFE128:
 287              		.section	.text.HAL_SPI_MspDeInit,"ax",%progbits
 288              		.align	1
 289              		.weak	HAL_SPI_MspDeInit
 290              		.syntax unified
 291              		.thumb
 292              		.thumb_func
 293              		.fpu fpv4-sp-d16
 295              	HAL_SPI_MspDeInit:
 296              	.LFB129:
 385:./Libraries/STM32F4xx_HAL_Driver/Src/stm32f4xx_hal_spi.c **** 
 386:./Libraries/STM32F4xx_HAL_Driver/Src/stm32f4xx_hal_spi.c **** /**
 387:./Libraries/STM32F4xx_HAL_Driver/Src/stm32f4xx_hal_spi.c ****   * @brief  De-Initialize the SPI MSP.
 388:./Libraries/STM32F4xx_HAL_Driver/Src/stm32f4xx_hal_spi.c ****   * @param  hspi pointer to a SPI_HandleTypeDef structure that contains
 389:./Libraries/STM32F4xx_HAL_Driver/Src/stm32f4xx_hal_spi.c ****   *               the configuration information for SPI module.
 390:./Libraries/STM32F4xx_HAL_Driver/Src/stm32f4xx_hal_spi.c ****   * @retval None
 391:./Libraries/STM32F4xx_HAL_Driver/Src/stm32f4xx_hal_spi.c ****   */
 392:./Libraries/STM32F4xx_HAL_Driver/Src/stm32f4xx_hal_spi.c **** __weak void HAL_SPI_MspDeInit(SPI_HandleTypeDef *hspi)
 393:./Libraries/STM32F4xx_HAL_Driver/Src/stm32f4xx_hal_spi.c **** {
 297              		.loc 1 393 1
 298              		.cfi_startproc
ARM GAS  /tmp/ccits0mR.s 			page 13


 299              		@ args = 0, pretend = 0, frame = 8
 300              		@ frame_needed = 1, uses_anonymous_args = 0
 301              		@ link register save eliminated.
 302 0000 80B4     		push	{r7}
 303              	.LCFI16:
 304              		.cfi_def_cfa_offset 4
 305              		.cfi_offset 7, -4
 306 0002 83B0     		sub	sp, sp, #12
 307              	.LCFI17:
 308              		.cfi_def_cfa_offset 16
 309 0004 00AF     		add	r7, sp, #0
 310              	.LCFI18:
 311              		.cfi_def_cfa_register 7
 312 0006 7860     		str	r0, [r7, #4]
 394:./Libraries/STM32F4xx_HAL_Driver/Src/stm32f4xx_hal_spi.c ****   /* Prevent unused argument(s) compilation warning */
 395:./Libraries/STM32F4xx_HAL_Driver/Src/stm32f4xx_hal_spi.c ****   UNUSED(hspi);
 396:./Libraries/STM32F4xx_HAL_Driver/Src/stm32f4xx_hal_spi.c ****   /* NOTE : This function should not be modified, when the callback is needed,
 397:./Libraries/STM32F4xx_HAL_Driver/Src/stm32f4xx_hal_spi.c ****             the HAL_SPI_MspDeInit should be implemented in the user file
 398:./Libraries/STM32F4xx_HAL_Driver/Src/stm32f4xx_hal_spi.c ****   */
 399:./Libraries/STM32F4xx_HAL_Driver/Src/stm32f4xx_hal_spi.c **** }
 313              		.loc 1 399 1
 314 0008 00BF     		nop
 315 000a 0C37     		adds	r7, r7, #12
 316              	.LCFI19:
 317              		.cfi_def_cfa_offset 4
 318 000c BD46     		mov	sp, r7
 319              	.LCFI20:
 320              		.cfi_def_cfa_register 13
 321              		@ sp needed
 322 000e 5DF8047B 		ldr	r7, [sp], #4
 323              	.LCFI21:
 324              		.cfi_restore 7
 325              		.cfi_def_cfa_offset 0
 326 0012 7047     		bx	lr
 327              		.cfi_endproc
 328              	.LFE129:
 330              		.section	.text.HAL_SPI_Transmit,"ax",%progbits
 331              		.align	1
 332              		.global	HAL_SPI_Transmit
 333              		.syntax unified
 334              		.thumb
 335              		.thumb_func
 336              		.fpu fpv4-sp-d16
 338              	HAL_SPI_Transmit:
 339              	.LFB130:
 400:./Libraries/STM32F4xx_HAL_Driver/Src/stm32f4xx_hal_spi.c **** 
 401:./Libraries/STM32F4xx_HAL_Driver/Src/stm32f4xx_hal_spi.c **** /**
 402:./Libraries/STM32F4xx_HAL_Driver/Src/stm32f4xx_hal_spi.c ****   * @}
 403:./Libraries/STM32F4xx_HAL_Driver/Src/stm32f4xx_hal_spi.c ****   */
 404:./Libraries/STM32F4xx_HAL_Driver/Src/stm32f4xx_hal_spi.c **** 
 405:./Libraries/STM32F4xx_HAL_Driver/Src/stm32f4xx_hal_spi.c **** /** @defgroup SPI_Exported_Functions_Group2 IO operation functions
 406:./Libraries/STM32F4xx_HAL_Driver/Src/stm32f4xx_hal_spi.c ****  *  @brief   Data transfers functions
 407:./Libraries/STM32F4xx_HAL_Driver/Src/stm32f4xx_hal_spi.c ****  *
 408:./Libraries/STM32F4xx_HAL_Driver/Src/stm32f4xx_hal_spi.c **** @verbatim
 409:./Libraries/STM32F4xx_HAL_Driver/Src/stm32f4xx_hal_spi.c ****   ==============================================================================
 410:./Libraries/STM32F4xx_HAL_Driver/Src/stm32f4xx_hal_spi.c ****                       ##### IO operation functions #####
 411:./Libraries/STM32F4xx_HAL_Driver/Src/stm32f4xx_hal_spi.c ****  ===============================================================================
ARM GAS  /tmp/ccits0mR.s 			page 14


 412:./Libraries/STM32F4xx_HAL_Driver/Src/stm32f4xx_hal_spi.c ****  [..]
 413:./Libraries/STM32F4xx_HAL_Driver/Src/stm32f4xx_hal_spi.c ****     This subsection provides a set of functions allowing to manage the SPI
 414:./Libraries/STM32F4xx_HAL_Driver/Src/stm32f4xx_hal_spi.c ****     data transfers.
 415:./Libraries/STM32F4xx_HAL_Driver/Src/stm32f4xx_hal_spi.c **** 
 416:./Libraries/STM32F4xx_HAL_Driver/Src/stm32f4xx_hal_spi.c ****     [..] The SPI supports master and slave mode :
 417:./Libraries/STM32F4xx_HAL_Driver/Src/stm32f4xx_hal_spi.c **** 
 418:./Libraries/STM32F4xx_HAL_Driver/Src/stm32f4xx_hal_spi.c ****     (#) There are two modes of transfer:
 419:./Libraries/STM32F4xx_HAL_Driver/Src/stm32f4xx_hal_spi.c ****        (++) Blocking mode: The communication is performed in polling mode.
 420:./Libraries/STM32F4xx_HAL_Driver/Src/stm32f4xx_hal_spi.c ****             The HAL status of all data processing is returned by the same function
 421:./Libraries/STM32F4xx_HAL_Driver/Src/stm32f4xx_hal_spi.c ****             after finishing transfer.
 422:./Libraries/STM32F4xx_HAL_Driver/Src/stm32f4xx_hal_spi.c ****        (++) No-Blocking mode: The communication is performed using Interrupts
 423:./Libraries/STM32F4xx_HAL_Driver/Src/stm32f4xx_hal_spi.c ****             or DMA, These APIs return the HAL status.
 424:./Libraries/STM32F4xx_HAL_Driver/Src/stm32f4xx_hal_spi.c ****             The end of the data processing will be indicated through the
 425:./Libraries/STM32F4xx_HAL_Driver/Src/stm32f4xx_hal_spi.c ****             dedicated SPI IRQ when using Interrupt mode or the DMA IRQ when
 426:./Libraries/STM32F4xx_HAL_Driver/Src/stm32f4xx_hal_spi.c ****             using DMA mode.
 427:./Libraries/STM32F4xx_HAL_Driver/Src/stm32f4xx_hal_spi.c ****             The HAL_SPI_TxCpltCallback(), HAL_SPI_RxCpltCallback() and HAL_SPI_TxRxCpltCallback() u
 428:./Libraries/STM32F4xx_HAL_Driver/Src/stm32f4xx_hal_spi.c ****             will be executed respectively at the end of the transmit or Receive process
 429:./Libraries/STM32F4xx_HAL_Driver/Src/stm32f4xx_hal_spi.c ****             The HAL_SPI_ErrorCallback()user callback will be executed when a communication error is
 430:./Libraries/STM32F4xx_HAL_Driver/Src/stm32f4xx_hal_spi.c **** 
 431:./Libraries/STM32F4xx_HAL_Driver/Src/stm32f4xx_hal_spi.c ****     (#) APIs provided for these 2 transfer modes (Blocking mode or Non blocking mode using either I
 432:./Libraries/STM32F4xx_HAL_Driver/Src/stm32f4xx_hal_spi.c ****         exist for 1Line (simplex) and 2Lines (full duplex) modes.
 433:./Libraries/STM32F4xx_HAL_Driver/Src/stm32f4xx_hal_spi.c **** 
 434:./Libraries/STM32F4xx_HAL_Driver/Src/stm32f4xx_hal_spi.c **** @endverbatim
 435:./Libraries/STM32F4xx_HAL_Driver/Src/stm32f4xx_hal_spi.c ****   * @{
 436:./Libraries/STM32F4xx_HAL_Driver/Src/stm32f4xx_hal_spi.c ****   */
 437:./Libraries/STM32F4xx_HAL_Driver/Src/stm32f4xx_hal_spi.c **** 
 438:./Libraries/STM32F4xx_HAL_Driver/Src/stm32f4xx_hal_spi.c **** /**
 439:./Libraries/STM32F4xx_HAL_Driver/Src/stm32f4xx_hal_spi.c ****   * @brief  Transmit an amount of data in blocking mode.
 440:./Libraries/STM32F4xx_HAL_Driver/Src/stm32f4xx_hal_spi.c ****   * @param  hspi pointer to a SPI_HandleTypeDef structure that contains
 441:./Libraries/STM32F4xx_HAL_Driver/Src/stm32f4xx_hal_spi.c ****   *               the configuration information for SPI module.
 442:./Libraries/STM32F4xx_HAL_Driver/Src/stm32f4xx_hal_spi.c ****   * @param  pData pointer to data buffer
 443:./Libraries/STM32F4xx_HAL_Driver/Src/stm32f4xx_hal_spi.c ****   * @param  Size amount of data to be sent
 444:./Libraries/STM32F4xx_HAL_Driver/Src/stm32f4xx_hal_spi.c ****   * @param  Timeout Timeout duration
 445:./Libraries/STM32F4xx_HAL_Driver/Src/stm32f4xx_hal_spi.c ****   * @retval HAL status
 446:./Libraries/STM32F4xx_HAL_Driver/Src/stm32f4xx_hal_spi.c ****   */
 447:./Libraries/STM32F4xx_HAL_Driver/Src/stm32f4xx_hal_spi.c **** HAL_StatusTypeDef HAL_SPI_Transmit(SPI_HandleTypeDef *hspi, uint8_t *pData, uint16_t Size, uint32_t
 448:./Libraries/STM32F4xx_HAL_Driver/Src/stm32f4xx_hal_spi.c **** {
 340              		.loc 1 448 1
 341              		.cfi_startproc
 342              		@ args = 0, pretend = 0, frame = 32
 343              		@ frame_needed = 1, uses_anonymous_args = 0
 344 0000 80B5     		push	{r7, lr}
 345              	.LCFI22:
 346              		.cfi_def_cfa_offset 8
 347              		.cfi_offset 7, -8
 348              		.cfi_offset 14, -4
 349 0002 8AB0     		sub	sp, sp, #40
 350              	.LCFI23:
 351              		.cfi_def_cfa_offset 48
 352 0004 02AF     		add	r7, sp, #8
 353              	.LCFI24:
 354              		.cfi_def_cfa 7, 40
 355 0006 F860     		str	r0, [r7, #12]
 356 0008 B960     		str	r1, [r7, #8]
 357 000a 3B60     		str	r3, [r7]
 358 000c 1346     		mov	r3, r2	@ movhi
 359 000e FB80     		strh	r3, [r7, #6]	@ movhi
ARM GAS  /tmp/ccits0mR.s 			page 15


 449:./Libraries/STM32F4xx_HAL_Driver/Src/stm32f4xx_hal_spi.c ****   uint32_t tickstart = 0U;
 360              		.loc 1 449 12
 361 0010 0023     		movs	r3, #0
 362 0012 BB61     		str	r3, [r7, #24]
 450:./Libraries/STM32F4xx_HAL_Driver/Src/stm32f4xx_hal_spi.c ****   HAL_StatusTypeDef errorcode = HAL_OK;
 363              		.loc 1 450 21
 364 0014 0023     		movs	r3, #0
 365 0016 FB77     		strb	r3, [r7, #31]
 451:./Libraries/STM32F4xx_HAL_Driver/Src/stm32f4xx_hal_spi.c **** 
 452:./Libraries/STM32F4xx_HAL_Driver/Src/stm32f4xx_hal_spi.c ****   /* Check Direction parameter */
 453:./Libraries/STM32F4xx_HAL_Driver/Src/stm32f4xx_hal_spi.c ****   assert_param(IS_SPI_DIRECTION_2LINES_OR_1LINE(hspi->Init.Direction));
 454:./Libraries/STM32F4xx_HAL_Driver/Src/stm32f4xx_hal_spi.c **** 
 455:./Libraries/STM32F4xx_HAL_Driver/Src/stm32f4xx_hal_spi.c ****   /* Process Locked */
 456:./Libraries/STM32F4xx_HAL_Driver/Src/stm32f4xx_hal_spi.c ****   __HAL_LOCK(hspi);
 366              		.loc 1 456 3
 367 0018 FB68     		ldr	r3, [r7, #12]
 368 001a 93F85030 		ldrb	r3, [r3, #80]	@ zero_extendqisi2
 369 001e 012B     		cmp	r3, #1
 370 0020 01D1     		bne	.L12
 371              		.loc 1 456 3 is_stmt 0 discriminator 1
 372 0022 0223     		movs	r3, #2
 373 0024 48E1     		b	.L13
 374              	.L12:
 375              		.loc 1 456 3 discriminator 2
 376 0026 FB68     		ldr	r3, [r7, #12]
 377 0028 0122     		movs	r2, #1
 378 002a 83F85020 		strb	r2, [r3, #80]
 457:./Libraries/STM32F4xx_HAL_Driver/Src/stm32f4xx_hal_spi.c **** 
 458:./Libraries/STM32F4xx_HAL_Driver/Src/stm32f4xx_hal_spi.c ****   /* Init tickstart for timeout management*/
 459:./Libraries/STM32F4xx_HAL_Driver/Src/stm32f4xx_hal_spi.c ****   tickstart = HAL_GetTick();
 379              		.loc 1 459 15 is_stmt 1 discriminator 2
 380 002e FFF7FEFF 		bl	HAL_GetTick
 381 0032 B861     		str	r0, [r7, #24]
 460:./Libraries/STM32F4xx_HAL_Driver/Src/stm32f4xx_hal_spi.c **** 
 461:./Libraries/STM32F4xx_HAL_Driver/Src/stm32f4xx_hal_spi.c ****   if(hspi->State != HAL_SPI_STATE_READY)
 382              		.loc 1 461 10 discriminator 2
 383 0034 FB68     		ldr	r3, [r7, #12]
 384 0036 93F85130 		ldrb	r3, [r3, #81]
 385 003a DBB2     		uxtb	r3, r3
 386              		.loc 1 461 5 discriminator 2
 387 003c 012B     		cmp	r3, #1
 388 003e 02D0     		beq	.L14
 462:./Libraries/STM32F4xx_HAL_Driver/Src/stm32f4xx_hal_spi.c ****   {
 463:./Libraries/STM32F4xx_HAL_Driver/Src/stm32f4xx_hal_spi.c ****     errorcode = HAL_BUSY;
 389              		.loc 1 463 15
 390 0040 0223     		movs	r3, #2
 391 0042 FB77     		strb	r3, [r7, #31]
 464:./Libraries/STM32F4xx_HAL_Driver/Src/stm32f4xx_hal_spi.c ****     goto error;
 392              		.loc 1 464 5
 393 0044 2FE1     		b	.L15
 394              	.L14:
 465:./Libraries/STM32F4xx_HAL_Driver/Src/stm32f4xx_hal_spi.c ****   }
 466:./Libraries/STM32F4xx_HAL_Driver/Src/stm32f4xx_hal_spi.c **** 
 467:./Libraries/STM32F4xx_HAL_Driver/Src/stm32f4xx_hal_spi.c ****   if((pData == NULL ) || (Size == 0))
 395              		.loc 1 467 5
 396 0046 BB68     		ldr	r3, [r7, #8]
 397 0048 002B     		cmp	r3, #0
ARM GAS  /tmp/ccits0mR.s 			page 16


 398 004a 02D0     		beq	.L16
 399              		.loc 1 467 23 discriminator 1
 400 004c FB88     		ldrh	r3, [r7, #6]
 401 004e 002B     		cmp	r3, #0
 402 0050 02D1     		bne	.L17
 403              	.L16:
 468:./Libraries/STM32F4xx_HAL_Driver/Src/stm32f4xx_hal_spi.c ****   {
 469:./Libraries/STM32F4xx_HAL_Driver/Src/stm32f4xx_hal_spi.c ****     errorcode = HAL_ERROR;
 404              		.loc 1 469 15
 405 0052 0123     		movs	r3, #1
 406 0054 FB77     		strb	r3, [r7, #31]
 470:./Libraries/STM32F4xx_HAL_Driver/Src/stm32f4xx_hal_spi.c ****     goto error;
 407              		.loc 1 470 5
 408 0056 26E1     		b	.L15
 409              	.L17:
 471:./Libraries/STM32F4xx_HAL_Driver/Src/stm32f4xx_hal_spi.c ****   }
 472:./Libraries/STM32F4xx_HAL_Driver/Src/stm32f4xx_hal_spi.c **** 
 473:./Libraries/STM32F4xx_HAL_Driver/Src/stm32f4xx_hal_spi.c ****   /* Set the transaction information */
 474:./Libraries/STM32F4xx_HAL_Driver/Src/stm32f4xx_hal_spi.c ****   hspi->State       = HAL_SPI_STATE_BUSY_TX;
 410              		.loc 1 474 21
 411 0058 FB68     		ldr	r3, [r7, #12]
 412 005a 0322     		movs	r2, #3
 413 005c 83F85120 		strb	r2, [r3, #81]
 475:./Libraries/STM32F4xx_HAL_Driver/Src/stm32f4xx_hal_spi.c ****   hspi->ErrorCode   = HAL_SPI_ERROR_NONE;
 414              		.loc 1 475 21
 415 0060 FB68     		ldr	r3, [r7, #12]
 416 0062 0022     		movs	r2, #0
 417 0064 5A65     		str	r2, [r3, #84]
 476:./Libraries/STM32F4xx_HAL_Driver/Src/stm32f4xx_hal_spi.c ****   hspi->pTxBuffPtr  = (uint8_t *)pData;
 418              		.loc 1 476 21
 419 0066 FB68     		ldr	r3, [r7, #12]
 420 0068 BA68     		ldr	r2, [r7, #8]
 421 006a 1A63     		str	r2, [r3, #48]
 477:./Libraries/STM32F4xx_HAL_Driver/Src/stm32f4xx_hal_spi.c ****   hspi->TxXferSize  = Size;
 422              		.loc 1 477 21
 423 006c FB68     		ldr	r3, [r7, #12]
 424 006e FA88     		ldrh	r2, [r7, #6]	@ movhi
 425 0070 9A86     		strh	r2, [r3, #52]	@ movhi
 478:./Libraries/STM32F4xx_HAL_Driver/Src/stm32f4xx_hal_spi.c ****   hspi->TxXferCount = Size;
 426              		.loc 1 478 21
 427 0072 FB68     		ldr	r3, [r7, #12]
 428 0074 FA88     		ldrh	r2, [r7, #6]	@ movhi
 429 0076 DA86     		strh	r2, [r3, #54]	@ movhi
 479:./Libraries/STM32F4xx_HAL_Driver/Src/stm32f4xx_hal_spi.c **** 
 480:./Libraries/STM32F4xx_HAL_Driver/Src/stm32f4xx_hal_spi.c ****   /*Init field not used in handle to zero */
 481:./Libraries/STM32F4xx_HAL_Driver/Src/stm32f4xx_hal_spi.c ****   hspi->pRxBuffPtr  = (uint8_t *)NULL;
 430              		.loc 1 481 21
 431 0078 FB68     		ldr	r3, [r7, #12]
 432 007a 0022     		movs	r2, #0
 433 007c 9A63     		str	r2, [r3, #56]
 482:./Libraries/STM32F4xx_HAL_Driver/Src/stm32f4xx_hal_spi.c ****   hspi->RxXferSize  = 0U;
 434              		.loc 1 482 21
 435 007e FB68     		ldr	r3, [r7, #12]
 436 0080 0022     		movs	r2, #0
 437 0082 9A87     		strh	r2, [r3, #60]	@ movhi
 483:./Libraries/STM32F4xx_HAL_Driver/Src/stm32f4xx_hal_spi.c ****   hspi->RxXferCount = 0U;
 438              		.loc 1 483 21
ARM GAS  /tmp/ccits0mR.s 			page 17


 439 0084 FB68     		ldr	r3, [r7, #12]
 440 0086 0022     		movs	r2, #0
 441 0088 DA87     		strh	r2, [r3, #62]	@ movhi
 484:./Libraries/STM32F4xx_HAL_Driver/Src/stm32f4xx_hal_spi.c ****   hspi->TxISR       = NULL;
 442              		.loc 1 484 21
 443 008a FB68     		ldr	r3, [r7, #12]
 444 008c 0022     		movs	r2, #0
 445 008e 5A64     		str	r2, [r3, #68]
 485:./Libraries/STM32F4xx_HAL_Driver/Src/stm32f4xx_hal_spi.c ****   hspi->RxISR       = NULL;
 446              		.loc 1 485 21
 447 0090 FB68     		ldr	r3, [r7, #12]
 448 0092 0022     		movs	r2, #0
 449 0094 1A64     		str	r2, [r3, #64]
 486:./Libraries/STM32F4xx_HAL_Driver/Src/stm32f4xx_hal_spi.c **** 
 487:./Libraries/STM32F4xx_HAL_Driver/Src/stm32f4xx_hal_spi.c ****   /* Configure communication direction : 1Line */
 488:./Libraries/STM32F4xx_HAL_Driver/Src/stm32f4xx_hal_spi.c ****   if(hspi->Init.Direction == SPI_DIRECTION_1LINE)
 450              		.loc 1 488 16
 451 0096 FB68     		ldr	r3, [r7, #12]
 452 0098 9B68     		ldr	r3, [r3, #8]
 453              		.loc 1 488 5
 454 009a B3F5004F 		cmp	r3, #32768
 455 009e 07D1     		bne	.L18
 489:./Libraries/STM32F4xx_HAL_Driver/Src/stm32f4xx_hal_spi.c ****   {
 490:./Libraries/STM32F4xx_HAL_Driver/Src/stm32f4xx_hal_spi.c ****     SPI_1LINE_TX(hspi);
 456              		.loc 1 490 5
 457 00a0 FB68     		ldr	r3, [r7, #12]
 458 00a2 1B68     		ldr	r3, [r3]
 459 00a4 1A68     		ldr	r2, [r3]
 460 00a6 FB68     		ldr	r3, [r7, #12]
 461 00a8 1B68     		ldr	r3, [r3]
 462 00aa 42F48042 		orr	r2, r2, #16384
 463 00ae 1A60     		str	r2, [r3]
 464              	.L18:
 491:./Libraries/STM32F4xx_HAL_Driver/Src/stm32f4xx_hal_spi.c ****   }
 492:./Libraries/STM32F4xx_HAL_Driver/Src/stm32f4xx_hal_spi.c **** 
 493:./Libraries/STM32F4xx_HAL_Driver/Src/stm32f4xx_hal_spi.c **** #if (USE_SPI_CRC != 0U)
 494:./Libraries/STM32F4xx_HAL_Driver/Src/stm32f4xx_hal_spi.c ****   /* Reset CRC Calculation */
 495:./Libraries/STM32F4xx_HAL_Driver/Src/stm32f4xx_hal_spi.c ****   if(hspi->Init.CRCCalculation == SPI_CRCCALCULATION_ENABLE)
 465              		.loc 1 495 16
 466 00b0 FB68     		ldr	r3, [r7, #12]
 467 00b2 9B6A     		ldr	r3, [r3, #40]
 468              		.loc 1 495 5
 469 00b4 B3F5005F 		cmp	r3, #8192
 470 00b8 10D1     		bne	.L19
 496:./Libraries/STM32F4xx_HAL_Driver/Src/stm32f4xx_hal_spi.c ****   {
 497:./Libraries/STM32F4xx_HAL_Driver/Src/stm32f4xx_hal_spi.c ****     SPI_RESET_CRC(hspi);
 471              		.loc 1 497 5
 472 00ba FB68     		ldr	r3, [r7, #12]
 473 00bc 1B68     		ldr	r3, [r3]
 474 00be 1968     		ldr	r1, [r3]
 475 00c0 FB68     		ldr	r3, [r7, #12]
 476 00c2 1A68     		ldr	r2, [r3]
 477 00c4 4DF6FF73 		movw	r3, #57343
 478 00c8 0B40     		ands	r3, r3, r1
 479 00ca 1360     		str	r3, [r2]
 480 00cc FB68     		ldr	r3, [r7, #12]
 481 00ce 1B68     		ldr	r3, [r3]
ARM GAS  /tmp/ccits0mR.s 			page 18


 482 00d0 1A68     		ldr	r2, [r3]
 483 00d2 FB68     		ldr	r3, [r7, #12]
 484 00d4 1B68     		ldr	r3, [r3]
 485 00d6 42F40052 		orr	r2, r2, #8192
 486 00da 1A60     		str	r2, [r3]
 487              	.L19:
 498:./Libraries/STM32F4xx_HAL_Driver/Src/stm32f4xx_hal_spi.c ****   }
 499:./Libraries/STM32F4xx_HAL_Driver/Src/stm32f4xx_hal_spi.c **** #endif /* USE_SPI_CRC */
 500:./Libraries/STM32F4xx_HAL_Driver/Src/stm32f4xx_hal_spi.c **** 
 501:./Libraries/STM32F4xx_HAL_Driver/Src/stm32f4xx_hal_spi.c ****   /* Check if the SPI is already enabled */
 502:./Libraries/STM32F4xx_HAL_Driver/Src/stm32f4xx_hal_spi.c ****   if((hspi->Instance->CR1 & SPI_CR1_SPE) != SPI_CR1_SPE)
 488              		.loc 1 502 11
 489 00dc FB68     		ldr	r3, [r7, #12]
 490 00de 1B68     		ldr	r3, [r3]
 491              		.loc 1 502 21
 492 00e0 1B68     		ldr	r3, [r3]
 493              		.loc 1 502 27
 494 00e2 03F04003 		and	r3, r3, #64
 495              		.loc 1 502 5
 496 00e6 402B     		cmp	r3, #64
 497 00e8 07D0     		beq	.L20
 503:./Libraries/STM32F4xx_HAL_Driver/Src/stm32f4xx_hal_spi.c ****   {
 504:./Libraries/STM32F4xx_HAL_Driver/Src/stm32f4xx_hal_spi.c ****     /* Enable SPI peripheral */
 505:./Libraries/STM32F4xx_HAL_Driver/Src/stm32f4xx_hal_spi.c ****     __HAL_SPI_ENABLE(hspi);
 498              		.loc 1 505 5
 499 00ea FB68     		ldr	r3, [r7, #12]
 500 00ec 1B68     		ldr	r3, [r3]
 501 00ee 1A68     		ldr	r2, [r3]
 502 00f0 FB68     		ldr	r3, [r7, #12]
 503 00f2 1B68     		ldr	r3, [r3]
 504 00f4 42F04002 		orr	r2, r2, #64
 505 00f8 1A60     		str	r2, [r3]
 506              	.L20:
 506:./Libraries/STM32F4xx_HAL_Driver/Src/stm32f4xx_hal_spi.c ****   }
 507:./Libraries/STM32F4xx_HAL_Driver/Src/stm32f4xx_hal_spi.c **** 
 508:./Libraries/STM32F4xx_HAL_Driver/Src/stm32f4xx_hal_spi.c ****   /* Transmit data in 16 Bit mode */
 509:./Libraries/STM32F4xx_HAL_Driver/Src/stm32f4xx_hal_spi.c ****   if(hspi->Init.DataSize == SPI_DATASIZE_16BIT)
 507              		.loc 1 509 16
 508 00fa FB68     		ldr	r3, [r7, #12]
 509 00fc DB68     		ldr	r3, [r3, #12]
 510              		.loc 1 509 5
 511 00fe B3F5006F 		cmp	r3, #2048
 512 0102 47D1     		bne	.L21
 510:./Libraries/STM32F4xx_HAL_Driver/Src/stm32f4xx_hal_spi.c ****   {
 511:./Libraries/STM32F4xx_HAL_Driver/Src/stm32f4xx_hal_spi.c ****     if((hspi->Init.Mode == SPI_MODE_SLAVE) || (hspi->TxXferCount == 0x01))
 513              		.loc 1 511 19
 514 0104 FB68     		ldr	r3, [r7, #12]
 515 0106 5B68     		ldr	r3, [r3, #4]
 516              		.loc 1 511 7
 517 0108 002B     		cmp	r3, #0
 518 010a 04D0     		beq	.L22
 519              		.loc 1 511 52 discriminator 1
 520 010c FB68     		ldr	r3, [r7, #12]
 521 010e DB8E     		ldrh	r3, [r3, #54]	@ movhi
 522 0110 9BB2     		uxth	r3, r3
 523              		.loc 1 511 44 discriminator 1
 524 0112 012B     		cmp	r3, #1
ARM GAS  /tmp/ccits0mR.s 			page 19


 525 0114 38D1     		bne	.L24
 526              	.L22:
 512:./Libraries/STM32F4xx_HAL_Driver/Src/stm32f4xx_hal_spi.c ****     {
 513:./Libraries/STM32F4xx_HAL_Driver/Src/stm32f4xx_hal_spi.c ****       hspi->Instance->DR = *((uint16_t *)pData);
 527              		.loc 1 513 28
 528 0116 BB68     		ldr	r3, [r7, #8]
 529 0118 1A88     		ldrh	r2, [r3]
 530              		.loc 1 513 11
 531 011a FB68     		ldr	r3, [r7, #12]
 532 011c 1B68     		ldr	r3, [r3]
 533              		.loc 1 513 26
 534 011e DA60     		str	r2, [r3, #12]
 514:./Libraries/STM32F4xx_HAL_Driver/Src/stm32f4xx_hal_spi.c ****       pData += sizeof(uint16_t);
 535              		.loc 1 514 13
 536 0120 BB68     		ldr	r3, [r7, #8]
 537 0122 0233     		adds	r3, r3, #2
 538 0124 BB60     		str	r3, [r7, #8]
 515:./Libraries/STM32F4xx_HAL_Driver/Src/stm32f4xx_hal_spi.c ****       hspi->TxXferCount--;
 539              		.loc 1 515 11
 540 0126 FB68     		ldr	r3, [r7, #12]
 541 0128 DB8E     		ldrh	r3, [r3, #54]	@ movhi
 542 012a 9BB2     		uxth	r3, r3
 543              		.loc 1 515 24
 544 012c 013B     		subs	r3, r3, #1
 545 012e 9AB2     		uxth	r2, r3
 546 0130 FB68     		ldr	r3, [r7, #12]
 547 0132 DA86     		strh	r2, [r3, #54]	@ movhi
 516:./Libraries/STM32F4xx_HAL_Driver/Src/stm32f4xx_hal_spi.c ****     }
 517:./Libraries/STM32F4xx_HAL_Driver/Src/stm32f4xx_hal_spi.c ****     /* Transmit data in 16 Bit mode */
 518:./Libraries/STM32F4xx_HAL_Driver/Src/stm32f4xx_hal_spi.c ****     while (hspi->TxXferCount > 0U)
 548              		.loc 1 518 11
 549 0134 28E0     		b	.L24
 550              	.L27:
 519:./Libraries/STM32F4xx_HAL_Driver/Src/stm32f4xx_hal_spi.c ****     {
 520:./Libraries/STM32F4xx_HAL_Driver/Src/stm32f4xx_hal_spi.c ****       /* Wait until TXE flag is set to send data */
 521:./Libraries/STM32F4xx_HAL_Driver/Src/stm32f4xx_hal_spi.c ****       if(__HAL_SPI_GET_FLAG(hspi, SPI_FLAG_TXE))
 551              		.loc 1 521 10
 552 0136 FB68     		ldr	r3, [r7, #12]
 553 0138 1B68     		ldr	r3, [r3]
 554 013a 9B68     		ldr	r3, [r3, #8]
 555 013c 03F00203 		and	r3, r3, #2
 556              		.loc 1 521 9
 557 0140 022B     		cmp	r3, #2
 558 0142 0FD1     		bne	.L25
 522:./Libraries/STM32F4xx_HAL_Driver/Src/stm32f4xx_hal_spi.c ****       {
 523:./Libraries/STM32F4xx_HAL_Driver/Src/stm32f4xx_hal_spi.c ****           hspi->Instance->DR = *((uint16_t *)pData);
 559              		.loc 1 523 32
 560 0144 BB68     		ldr	r3, [r7, #8]
 561 0146 1A88     		ldrh	r2, [r3]
 562              		.loc 1 523 15
 563 0148 FB68     		ldr	r3, [r7, #12]
 564 014a 1B68     		ldr	r3, [r3]
 565              		.loc 1 523 30
 566 014c DA60     		str	r2, [r3, #12]
 524:./Libraries/STM32F4xx_HAL_Driver/Src/stm32f4xx_hal_spi.c ****           pData += sizeof(uint16_t);
 567              		.loc 1 524 17
 568 014e BB68     		ldr	r3, [r7, #8]
ARM GAS  /tmp/ccits0mR.s 			page 20


 569 0150 0233     		adds	r3, r3, #2
 570 0152 BB60     		str	r3, [r7, #8]
 525:./Libraries/STM32F4xx_HAL_Driver/Src/stm32f4xx_hal_spi.c ****           hspi->TxXferCount--;
 571              		.loc 1 525 15
 572 0154 FB68     		ldr	r3, [r7, #12]
 573 0156 DB8E     		ldrh	r3, [r3, #54]	@ movhi
 574 0158 9BB2     		uxth	r3, r3
 575              		.loc 1 525 28
 576 015a 013B     		subs	r3, r3, #1
 577 015c 9AB2     		uxth	r2, r3
 578 015e FB68     		ldr	r3, [r7, #12]
 579 0160 DA86     		strh	r2, [r3, #54]	@ movhi
 580 0162 11E0     		b	.L24
 581              	.L25:
 526:./Libraries/STM32F4xx_HAL_Driver/Src/stm32f4xx_hal_spi.c ****       }
 527:./Libraries/STM32F4xx_HAL_Driver/Src/stm32f4xx_hal_spi.c ****       else
 528:./Libraries/STM32F4xx_HAL_Driver/Src/stm32f4xx_hal_spi.c ****       {
 529:./Libraries/STM32F4xx_HAL_Driver/Src/stm32f4xx_hal_spi.c ****         /* Timeout management */
 530:./Libraries/STM32F4xx_HAL_Driver/Src/stm32f4xx_hal_spi.c ****         if((Timeout == 0U) || ((Timeout != HAL_MAX_DELAY) && ((HAL_GetTick()-tickstart) >=  Timeout
 582              		.loc 1 530 11
 583 0164 3B68     		ldr	r3, [r7]
 584 0166 002B     		cmp	r3, #0
 585 0168 0BD0     		beq	.L26
 586              		.loc 1 530 28 discriminator 1
 587 016a 3B68     		ldr	r3, [r7]
 588 016c B3F1FF3F 		cmp	r3, #-1
 589 0170 0AD0     		beq	.L24
 590              		.loc 1 530 64 discriminator 2
 591 0172 FFF7FEFF 		bl	HAL_GetTick
 592 0176 0246     		mov	r2, r0
 593              		.loc 1 530 77 discriminator 2
 594 0178 BB69     		ldr	r3, [r7, #24]
 595 017a D31A     		subs	r3, r2, r3
 596              		.loc 1 530 59 discriminator 2
 597 017c 3A68     		ldr	r2, [r7]
 598 017e 9A42     		cmp	r2, r3
 599 0180 02D8     		bhi	.L24
 600              	.L26:
 531:./Libraries/STM32F4xx_HAL_Driver/Src/stm32f4xx_hal_spi.c ****         {
 532:./Libraries/STM32F4xx_HAL_Driver/Src/stm32f4xx_hal_spi.c ****           errorcode = HAL_TIMEOUT;
 601              		.loc 1 532 21
 602 0182 0323     		movs	r3, #3
 603 0184 FB77     		strb	r3, [r7, #31]
 533:./Libraries/STM32F4xx_HAL_Driver/Src/stm32f4xx_hal_spi.c ****           goto error;
 604              		.loc 1 533 11
 605 0186 8EE0     		b	.L15
 606              	.L24:
 518:./Libraries/STM32F4xx_HAL_Driver/Src/stm32f4xx_hal_spi.c ****     {
 607              		.loc 1 518 16
 608 0188 FB68     		ldr	r3, [r7, #12]
 609 018a DB8E     		ldrh	r3, [r3, #54]	@ movhi
 610 018c 9BB2     		uxth	r3, r3
 518:./Libraries/STM32F4xx_HAL_Driver/Src/stm32f4xx_hal_spi.c ****     {
 611              		.loc 1 518 11
 612 018e 002B     		cmp	r3, #0
 613 0190 D1D1     		bne	.L27
 614 0192 48E0     		b	.L28
ARM GAS  /tmp/ccits0mR.s 			page 21


 615              	.L21:
 534:./Libraries/STM32F4xx_HAL_Driver/Src/stm32f4xx_hal_spi.c ****         }
 535:./Libraries/STM32F4xx_HAL_Driver/Src/stm32f4xx_hal_spi.c ****       }
 536:./Libraries/STM32F4xx_HAL_Driver/Src/stm32f4xx_hal_spi.c ****     }
 537:./Libraries/STM32F4xx_HAL_Driver/Src/stm32f4xx_hal_spi.c ****   }
 538:./Libraries/STM32F4xx_HAL_Driver/Src/stm32f4xx_hal_spi.c ****   /* Transmit data in 8 Bit mode */
 539:./Libraries/STM32F4xx_HAL_Driver/Src/stm32f4xx_hal_spi.c ****   else
 540:./Libraries/STM32F4xx_HAL_Driver/Src/stm32f4xx_hal_spi.c ****   {
 541:./Libraries/STM32F4xx_HAL_Driver/Src/stm32f4xx_hal_spi.c ****     if((hspi->Init.Mode == SPI_MODE_SLAVE)|| (hspi->TxXferCount == 0x01))
 616              		.loc 1 541 19
 617 0194 FB68     		ldr	r3, [r7, #12]
 618 0196 5B68     		ldr	r3, [r3, #4]
 619              		.loc 1 541 7
 620 0198 002B     		cmp	r3, #0
 621 019a 04D0     		beq	.L29
 622              		.loc 1 541 51 discriminator 1
 623 019c FB68     		ldr	r3, [r7, #12]
 624 019e DB8E     		ldrh	r3, [r3, #54]	@ movhi
 625 01a0 9BB2     		uxth	r3, r3
 626              		.loc 1 541 43 discriminator 1
 627 01a2 012B     		cmp	r3, #1
 628 01a4 3AD1     		bne	.L31
 629              	.L29:
 542:./Libraries/STM32F4xx_HAL_Driver/Src/stm32f4xx_hal_spi.c ****     {
 543:./Libraries/STM32F4xx_HAL_Driver/Src/stm32f4xx_hal_spi.c ****       *((__IO uint8_t*)&hspi->Instance->DR) = (*pData);
 630              		.loc 1 543 29
 631 01a6 FB68     		ldr	r3, [r7, #12]
 632 01a8 1B68     		ldr	r3, [r3]
 633              		.loc 1 543 24
 634 01aa 0C33     		adds	r3, r3, #12
 635              		.loc 1 543 48
 636 01ac BA68     		ldr	r2, [r7, #8]
 637 01ae 1278     		ldrb	r2, [r2]	@ zero_extendqisi2
 638              		.loc 1 543 45
 639 01b0 1A70     		strb	r2, [r3]
 544:./Libraries/STM32F4xx_HAL_Driver/Src/stm32f4xx_hal_spi.c ****       pData += sizeof(uint8_t);
 640              		.loc 1 544 13
 641 01b2 BB68     		ldr	r3, [r7, #8]
 642 01b4 0133     		adds	r3, r3, #1
 643 01b6 BB60     		str	r3, [r7, #8]
 545:./Libraries/STM32F4xx_HAL_Driver/Src/stm32f4xx_hal_spi.c ****       hspi->TxXferCount--;
 644              		.loc 1 545 11
 645 01b8 FB68     		ldr	r3, [r7, #12]
 646 01ba DB8E     		ldrh	r3, [r3, #54]	@ movhi
 647 01bc 9BB2     		uxth	r3, r3
 648              		.loc 1 545 24
 649 01be 013B     		subs	r3, r3, #1
 650 01c0 9AB2     		uxth	r2, r3
 651 01c2 FB68     		ldr	r3, [r7, #12]
 652 01c4 DA86     		strh	r2, [r3, #54]	@ movhi
 546:./Libraries/STM32F4xx_HAL_Driver/Src/stm32f4xx_hal_spi.c ****     }
 547:./Libraries/STM32F4xx_HAL_Driver/Src/stm32f4xx_hal_spi.c ****     while (hspi->TxXferCount > 0U)
 653              		.loc 1 547 11
 654 01c6 29E0     		b	.L31
 655              	.L34:
 548:./Libraries/STM32F4xx_HAL_Driver/Src/stm32f4xx_hal_spi.c ****     {
 549:./Libraries/STM32F4xx_HAL_Driver/Src/stm32f4xx_hal_spi.c ****       /* Wait until TXE flag is set to send data */
ARM GAS  /tmp/ccits0mR.s 			page 22


 550:./Libraries/STM32F4xx_HAL_Driver/Src/stm32f4xx_hal_spi.c ****       if(__HAL_SPI_GET_FLAG(hspi, SPI_FLAG_TXE))
 656              		.loc 1 550 10
 657 01c8 FB68     		ldr	r3, [r7, #12]
 658 01ca 1B68     		ldr	r3, [r3]
 659 01cc 9B68     		ldr	r3, [r3, #8]
 660 01ce 03F00203 		and	r3, r3, #2
 661              		.loc 1 550 9
 662 01d2 022B     		cmp	r3, #2
 663 01d4 10D1     		bne	.L32
 551:./Libraries/STM32F4xx_HAL_Driver/Src/stm32f4xx_hal_spi.c ****       {
 552:./Libraries/STM32F4xx_HAL_Driver/Src/stm32f4xx_hal_spi.c ****         *((__IO uint8_t*)&hspi->Instance->DR) = (*pData);
 664              		.loc 1 552 31
 665 01d6 FB68     		ldr	r3, [r7, #12]
 666 01d8 1B68     		ldr	r3, [r3]
 667              		.loc 1 552 26
 668 01da 0C33     		adds	r3, r3, #12
 669              		.loc 1 552 50
 670 01dc BA68     		ldr	r2, [r7, #8]
 671 01de 1278     		ldrb	r2, [r2]	@ zero_extendqisi2
 672              		.loc 1 552 47
 673 01e0 1A70     		strb	r2, [r3]
 553:./Libraries/STM32F4xx_HAL_Driver/Src/stm32f4xx_hal_spi.c ****         pData += sizeof(uint8_t);
 674              		.loc 1 553 15
 675 01e2 BB68     		ldr	r3, [r7, #8]
 676 01e4 0133     		adds	r3, r3, #1
 677 01e6 BB60     		str	r3, [r7, #8]
 554:./Libraries/STM32F4xx_HAL_Driver/Src/stm32f4xx_hal_spi.c ****         hspi->TxXferCount--;
 678              		.loc 1 554 13
 679 01e8 FB68     		ldr	r3, [r7, #12]
 680 01ea DB8E     		ldrh	r3, [r3, #54]	@ movhi
 681 01ec 9BB2     		uxth	r3, r3
 682              		.loc 1 554 26
 683 01ee 013B     		subs	r3, r3, #1
 684 01f0 9AB2     		uxth	r2, r3
 685 01f2 FB68     		ldr	r3, [r7, #12]
 686 01f4 DA86     		strh	r2, [r3, #54]	@ movhi
 687 01f6 11E0     		b	.L31
 688              	.L32:
 555:./Libraries/STM32F4xx_HAL_Driver/Src/stm32f4xx_hal_spi.c ****       }
 556:./Libraries/STM32F4xx_HAL_Driver/Src/stm32f4xx_hal_spi.c ****       else
 557:./Libraries/STM32F4xx_HAL_Driver/Src/stm32f4xx_hal_spi.c ****       {
 558:./Libraries/STM32F4xx_HAL_Driver/Src/stm32f4xx_hal_spi.c ****         /* Timeout management */
 559:./Libraries/STM32F4xx_HAL_Driver/Src/stm32f4xx_hal_spi.c ****         if((Timeout == 0U) || ((Timeout != HAL_MAX_DELAY) && ((HAL_GetTick()-tickstart) >=  Timeout
 689              		.loc 1 559 11
 690 01f8 3B68     		ldr	r3, [r7]
 691 01fa 002B     		cmp	r3, #0
 692 01fc 0BD0     		beq	.L33
 693              		.loc 1 559 28 discriminator 1
 694 01fe 3B68     		ldr	r3, [r7]
 695 0200 B3F1FF3F 		cmp	r3, #-1
 696 0204 0AD0     		beq	.L31
 697              		.loc 1 559 64 discriminator 2
 698 0206 FFF7FEFF 		bl	HAL_GetTick
 699 020a 0246     		mov	r2, r0
 700              		.loc 1 559 77 discriminator 2
 701 020c BB69     		ldr	r3, [r7, #24]
 702 020e D31A     		subs	r3, r2, r3
ARM GAS  /tmp/ccits0mR.s 			page 23


 703              		.loc 1 559 59 discriminator 2
 704 0210 3A68     		ldr	r2, [r7]
 705 0212 9A42     		cmp	r2, r3
 706 0214 02D8     		bhi	.L31
 707              	.L33:
 560:./Libraries/STM32F4xx_HAL_Driver/Src/stm32f4xx_hal_spi.c ****         {
 561:./Libraries/STM32F4xx_HAL_Driver/Src/stm32f4xx_hal_spi.c ****           errorcode = HAL_TIMEOUT;
 708              		.loc 1 561 21
 709 0216 0323     		movs	r3, #3
 710 0218 FB77     		strb	r3, [r7, #31]
 562:./Libraries/STM32F4xx_HAL_Driver/Src/stm32f4xx_hal_spi.c ****           goto error;
 711              		.loc 1 562 11
 712 021a 44E0     		b	.L15
 713              	.L31:
 547:./Libraries/STM32F4xx_HAL_Driver/Src/stm32f4xx_hal_spi.c ****     {
 714              		.loc 1 547 16
 715 021c FB68     		ldr	r3, [r7, #12]
 716 021e DB8E     		ldrh	r3, [r3, #54]	@ movhi
 717 0220 9BB2     		uxth	r3, r3
 547:./Libraries/STM32F4xx_HAL_Driver/Src/stm32f4xx_hal_spi.c ****     {
 718              		.loc 1 547 11
 719 0222 002B     		cmp	r3, #0
 720 0224 D0D1     		bne	.L34
 721              	.L28:
 563:./Libraries/STM32F4xx_HAL_Driver/Src/stm32f4xx_hal_spi.c ****         }
 564:./Libraries/STM32F4xx_HAL_Driver/Src/stm32f4xx_hal_spi.c ****       }
 565:./Libraries/STM32F4xx_HAL_Driver/Src/stm32f4xx_hal_spi.c ****     }
 566:./Libraries/STM32F4xx_HAL_Driver/Src/stm32f4xx_hal_spi.c ****   }
 567:./Libraries/STM32F4xx_HAL_Driver/Src/stm32f4xx_hal_spi.c **** 
 568:./Libraries/STM32F4xx_HAL_Driver/Src/stm32f4xx_hal_spi.c ****   /* Wait until TXE flag */
 569:./Libraries/STM32F4xx_HAL_Driver/Src/stm32f4xx_hal_spi.c ****   if(SPI_WaitFlagStateUntilTimeout(hspi, SPI_FLAG_TXE, SET, Timeout, tickstart) != HAL_OK)
 722              		.loc 1 569 6
 723 0226 BB69     		ldr	r3, [r7, #24]
 724 0228 0093     		str	r3, [sp]
 725 022a 3B68     		ldr	r3, [r7]
 726 022c 0122     		movs	r2, #1
 727 022e 0221     		movs	r1, #2
 728 0230 F868     		ldr	r0, [r7, #12]
 729 0232 FFF7FEFF 		bl	SPI_WaitFlagStateUntilTimeout
 730 0236 0346     		mov	r3, r0
 731              		.loc 1 569 5
 732 0238 002B     		cmp	r3, #0
 733 023a 02D0     		beq	.L35
 570:./Libraries/STM32F4xx_HAL_Driver/Src/stm32f4xx_hal_spi.c ****   {
 571:./Libraries/STM32F4xx_HAL_Driver/Src/stm32f4xx_hal_spi.c ****     errorcode = HAL_TIMEOUT;
 734              		.loc 1 571 15
 735 023c 0323     		movs	r3, #3
 736 023e FB77     		strb	r3, [r7, #31]
 572:./Libraries/STM32F4xx_HAL_Driver/Src/stm32f4xx_hal_spi.c ****     goto error;
 737              		.loc 1 572 5
 738 0240 31E0     		b	.L15
 739              	.L35:
 573:./Libraries/STM32F4xx_HAL_Driver/Src/stm32f4xx_hal_spi.c ****   }
 574:./Libraries/STM32F4xx_HAL_Driver/Src/stm32f4xx_hal_spi.c ****   
 575:./Libraries/STM32F4xx_HAL_Driver/Src/stm32f4xx_hal_spi.c ****   /* Check Busy flag */
 576:./Libraries/STM32F4xx_HAL_Driver/Src/stm32f4xx_hal_spi.c ****   if(SPI_CheckFlag_BSY(hspi, Timeout, tickstart) != HAL_OK)
 740              		.loc 1 576 6
ARM GAS  /tmp/ccits0mR.s 			page 24


 741 0242 BA69     		ldr	r2, [r7, #24]
 742 0244 3968     		ldr	r1, [r7]
 743 0246 F868     		ldr	r0, [r7, #12]
 744 0248 FFF7FEFF 		bl	SPI_CheckFlag_BSY
 745 024c 0346     		mov	r3, r0
 746              		.loc 1 576 5
 747 024e 002B     		cmp	r3, #0
 748 0250 05D0     		beq	.L36
 577:./Libraries/STM32F4xx_HAL_Driver/Src/stm32f4xx_hal_spi.c ****   {
 578:./Libraries/STM32F4xx_HAL_Driver/Src/stm32f4xx_hal_spi.c ****     errorcode = HAL_ERROR;
 749              		.loc 1 578 15
 750 0252 0123     		movs	r3, #1
 751 0254 FB77     		strb	r3, [r7, #31]
 579:./Libraries/STM32F4xx_HAL_Driver/Src/stm32f4xx_hal_spi.c ****     hspi->ErrorCode = HAL_SPI_ERROR_FLAG;
 752              		.loc 1 579 21
 753 0256 FB68     		ldr	r3, [r7, #12]
 754 0258 2022     		movs	r2, #32
 755 025a 5A65     		str	r2, [r3, #84]
 580:./Libraries/STM32F4xx_HAL_Driver/Src/stm32f4xx_hal_spi.c ****     goto error;
 756              		.loc 1 580 5
 757 025c 23E0     		b	.L15
 758              	.L36:
 581:./Libraries/STM32F4xx_HAL_Driver/Src/stm32f4xx_hal_spi.c ****   }
 582:./Libraries/STM32F4xx_HAL_Driver/Src/stm32f4xx_hal_spi.c **** 
 583:./Libraries/STM32F4xx_HAL_Driver/Src/stm32f4xx_hal_spi.c ****   /* Clear overrun flag in 2 Lines communication mode because received is not read */
 584:./Libraries/STM32F4xx_HAL_Driver/Src/stm32f4xx_hal_spi.c ****   if(hspi->Init.Direction == SPI_DIRECTION_2LINES)
 759              		.loc 1 584 16
 760 025e FB68     		ldr	r3, [r7, #12]
 761 0260 9B68     		ldr	r3, [r3, #8]
 762              		.loc 1 584 5
 763 0262 002B     		cmp	r3, #0
 764 0264 0AD1     		bne	.L37
 765              	.LBB2:
 585:./Libraries/STM32F4xx_HAL_Driver/Src/stm32f4xx_hal_spi.c ****   {
 586:./Libraries/STM32F4xx_HAL_Driver/Src/stm32f4xx_hal_spi.c ****     __HAL_SPI_CLEAR_OVRFLAG(hspi);
 766              		.loc 1 586 5
 767 0266 0023     		movs	r3, #0
 768 0268 7B61     		str	r3, [r7, #20]
 769 026a FB68     		ldr	r3, [r7, #12]
 770 026c 1B68     		ldr	r3, [r3]
 771 026e DB68     		ldr	r3, [r3, #12]
 772 0270 7B61     		str	r3, [r7, #20]
 773 0272 FB68     		ldr	r3, [r7, #12]
 774 0274 1B68     		ldr	r3, [r3]
 775 0276 9B68     		ldr	r3, [r3, #8]
 776 0278 7B61     		str	r3, [r7, #20]
 777 027a 7B69     		ldr	r3, [r7, #20]
 778              	.L37:
 779              	.LBE2:
 587:./Libraries/STM32F4xx_HAL_Driver/Src/stm32f4xx_hal_spi.c ****   }
 588:./Libraries/STM32F4xx_HAL_Driver/Src/stm32f4xx_hal_spi.c **** #if (USE_SPI_CRC != 0U)
 589:./Libraries/STM32F4xx_HAL_Driver/Src/stm32f4xx_hal_spi.c ****   /* Enable CRC Transmission */
 590:./Libraries/STM32F4xx_HAL_Driver/Src/stm32f4xx_hal_spi.c ****   if(hspi->Init.CRCCalculation == SPI_CRCCALCULATION_ENABLE)
 780              		.loc 1 590 16
 781 027c FB68     		ldr	r3, [r7, #12]
 782 027e 9B6A     		ldr	r3, [r3, #40]
 783              		.loc 1 590 5
ARM GAS  /tmp/ccits0mR.s 			page 25


 784 0280 B3F5005F 		cmp	r3, #8192
 785 0284 07D1     		bne	.L38
 591:./Libraries/STM32F4xx_HAL_Driver/Src/stm32f4xx_hal_spi.c ****   {
 592:./Libraries/STM32F4xx_HAL_Driver/Src/stm32f4xx_hal_spi.c ****      SET_BIT(hspi->Instance->CR1, SPI_CR1_CRCNEXT);
 786              		.loc 1 592 6
 787 0286 FB68     		ldr	r3, [r7, #12]
 788 0288 1B68     		ldr	r3, [r3]
 789 028a 1A68     		ldr	r2, [r3]
 790 028c FB68     		ldr	r3, [r7, #12]
 791 028e 1B68     		ldr	r3, [r3]
 792 0290 42F48052 		orr	r2, r2, #4096
 793 0294 1A60     		str	r2, [r3]
 794              	.L38:
 593:./Libraries/STM32F4xx_HAL_Driver/Src/stm32f4xx_hal_spi.c ****   }
 594:./Libraries/STM32F4xx_HAL_Driver/Src/stm32f4xx_hal_spi.c **** #endif /* USE_SPI_CRC */
 595:./Libraries/STM32F4xx_HAL_Driver/Src/stm32f4xx_hal_spi.c **** 
 596:./Libraries/STM32F4xx_HAL_Driver/Src/stm32f4xx_hal_spi.c ****   if(hspi->ErrorCode != HAL_SPI_ERROR_NONE)
 795              		.loc 1 596 10
 796 0296 FB68     		ldr	r3, [r7, #12]
 797 0298 5B6D     		ldr	r3, [r3, #84]
 798              		.loc 1 596 5
 799 029a 002B     		cmp	r3, #0
 800 029c 02D0     		beq	.L39
 597:./Libraries/STM32F4xx_HAL_Driver/Src/stm32f4xx_hal_spi.c ****   {
 598:./Libraries/STM32F4xx_HAL_Driver/Src/stm32f4xx_hal_spi.c ****     errorcode = HAL_ERROR;
 801              		.loc 1 598 15
 802 029e 0123     		movs	r3, #1
 803 02a0 FB77     		strb	r3, [r7, #31]
 804 02a2 00E0     		b	.L15
 805              	.L39:
 599:./Libraries/STM32F4xx_HAL_Driver/Src/stm32f4xx_hal_spi.c ****   }
 600:./Libraries/STM32F4xx_HAL_Driver/Src/stm32f4xx_hal_spi.c **** 
 601:./Libraries/STM32F4xx_HAL_Driver/Src/stm32f4xx_hal_spi.c **** error:
 806              		.loc 1 601 1
 807 02a4 00BF     		nop
 808              	.L15:
 602:./Libraries/STM32F4xx_HAL_Driver/Src/stm32f4xx_hal_spi.c ****   hspi->State = HAL_SPI_STATE_READY;
 809              		.loc 1 602 15
 810 02a6 FB68     		ldr	r3, [r7, #12]
 811 02a8 0122     		movs	r2, #1
 812 02aa 83F85120 		strb	r2, [r3, #81]
 603:./Libraries/STM32F4xx_HAL_Driver/Src/stm32f4xx_hal_spi.c ****   /* Process Unlocked */
 604:./Libraries/STM32F4xx_HAL_Driver/Src/stm32f4xx_hal_spi.c ****   __HAL_UNLOCK(hspi);
 813              		.loc 1 604 3
 814 02ae FB68     		ldr	r3, [r7, #12]
 815 02b0 0022     		movs	r2, #0
 816 02b2 83F85020 		strb	r2, [r3, #80]
 605:./Libraries/STM32F4xx_HAL_Driver/Src/stm32f4xx_hal_spi.c ****   return errorcode;
 817              		.loc 1 605 10
 818 02b6 FB7F     		ldrb	r3, [r7, #31]	@ zero_extendqisi2
 819              	.L13:
 606:./Libraries/STM32F4xx_HAL_Driver/Src/stm32f4xx_hal_spi.c **** }
 820              		.loc 1 606 1
 821 02b8 1846     		mov	r0, r3
 822 02ba 2037     		adds	r7, r7, #32
 823              	.LCFI25:
 824              		.cfi_def_cfa_offset 8
ARM GAS  /tmp/ccits0mR.s 			page 26


 825 02bc BD46     		mov	sp, r7
 826              	.LCFI26:
 827              		.cfi_def_cfa_register 13
 828              		@ sp needed
 829 02be 80BD     		pop	{r7, pc}
 830              		.cfi_endproc
 831              	.LFE130:
 833              		.section	.text.HAL_SPI_Receive,"ax",%progbits
 834              		.align	1
 835              		.global	HAL_SPI_Receive
 836              		.syntax unified
 837              		.thumb
 838              		.thumb_func
 839              		.fpu fpv4-sp-d16
 841              	HAL_SPI_Receive:
 842              	.LFB131:
 607:./Libraries/STM32F4xx_HAL_Driver/Src/stm32f4xx_hal_spi.c **** 
 608:./Libraries/STM32F4xx_HAL_Driver/Src/stm32f4xx_hal_spi.c **** /**
 609:./Libraries/STM32F4xx_HAL_Driver/Src/stm32f4xx_hal_spi.c ****   * @brief  Receive an amount of data in blocking mode.
 610:./Libraries/STM32F4xx_HAL_Driver/Src/stm32f4xx_hal_spi.c ****   * @param  hspi pointer to a SPI_HandleTypeDef structure that contains
 611:./Libraries/STM32F4xx_HAL_Driver/Src/stm32f4xx_hal_spi.c ****   *               the configuration information for SPI module.
 612:./Libraries/STM32F4xx_HAL_Driver/Src/stm32f4xx_hal_spi.c ****   * @param  pData pointer to data buffer
 613:./Libraries/STM32F4xx_HAL_Driver/Src/stm32f4xx_hal_spi.c ****   * @param  Size amount of data to be received
 614:./Libraries/STM32F4xx_HAL_Driver/Src/stm32f4xx_hal_spi.c ****   * @param  Timeout Timeout duration
 615:./Libraries/STM32F4xx_HAL_Driver/Src/stm32f4xx_hal_spi.c ****   * @retval HAL status
 616:./Libraries/STM32F4xx_HAL_Driver/Src/stm32f4xx_hal_spi.c ****   */
 617:./Libraries/STM32F4xx_HAL_Driver/Src/stm32f4xx_hal_spi.c **** HAL_StatusTypeDef HAL_SPI_Receive(SPI_HandleTypeDef *hspi, uint8_t *pData, uint16_t Size, uint32_t 
 618:./Libraries/STM32F4xx_HAL_Driver/Src/stm32f4xx_hal_spi.c **** {
 843              		.loc 1 618 1
 844              		.cfi_startproc
 845              		@ args = 0, pretend = 0, frame = 32
 846              		@ frame_needed = 1, uses_anonymous_args = 0
 847 0000 80B5     		push	{r7, lr}
 848              	.LCFI27:
 849              		.cfi_def_cfa_offset 8
 850              		.cfi_offset 7, -8
 851              		.cfi_offset 14, -4
 852 0002 8AB0     		sub	sp, sp, #40
 853              	.LCFI28:
 854              		.cfi_def_cfa_offset 48
 855 0004 02AF     		add	r7, sp, #8
 856              	.LCFI29:
 857              		.cfi_def_cfa 7, 40
 858 0006 F860     		str	r0, [r7, #12]
 859 0008 B960     		str	r1, [r7, #8]
 860 000a 3B60     		str	r3, [r7]
 861 000c 1346     		mov	r3, r2	@ movhi
 862 000e FB80     		strh	r3, [r7, #6]	@ movhi
 619:./Libraries/STM32F4xx_HAL_Driver/Src/stm32f4xx_hal_spi.c **** #if (USE_SPI_CRC != 0U)
 620:./Libraries/STM32F4xx_HAL_Driver/Src/stm32f4xx_hal_spi.c ****   __IO uint16_t tmpreg = 0U;
 863              		.loc 1 620 17
 864 0010 0023     		movs	r3, #0
 865 0012 FB82     		strh	r3, [r7, #22]	@ movhi
 621:./Libraries/STM32F4xx_HAL_Driver/Src/stm32f4xx_hal_spi.c **** #endif /* USE_SPI_CRC */
 622:./Libraries/STM32F4xx_HAL_Driver/Src/stm32f4xx_hal_spi.c ****   uint32_t tickstart = 0U;
 866              		.loc 1 622 12
 867 0014 0023     		movs	r3, #0
ARM GAS  /tmp/ccits0mR.s 			page 27


 868 0016 BB61     		str	r3, [r7, #24]
 623:./Libraries/STM32F4xx_HAL_Driver/Src/stm32f4xx_hal_spi.c ****   HAL_StatusTypeDef errorcode = HAL_OK;
 869              		.loc 1 623 21
 870 0018 0023     		movs	r3, #0
 871 001a FB77     		strb	r3, [r7, #31]
 624:./Libraries/STM32F4xx_HAL_Driver/Src/stm32f4xx_hal_spi.c **** 
 625:./Libraries/STM32F4xx_HAL_Driver/Src/stm32f4xx_hal_spi.c ****   if((hspi->Init.Mode == SPI_MODE_MASTER) && (hspi->Init.Direction == SPI_DIRECTION_2LINES))
 872              		.loc 1 625 17
 873 001c FB68     		ldr	r3, [r7, #12]
 874 001e 5B68     		ldr	r3, [r3, #4]
 875              		.loc 1 625 5
 876 0020 B3F5827F 		cmp	r3, #260
 877 0024 12D1     		bne	.L41
 878              		.loc 1 625 57 discriminator 1
 879 0026 FB68     		ldr	r3, [r7, #12]
 880 0028 9B68     		ldr	r3, [r3, #8]
 881              		.loc 1 625 43 discriminator 1
 882 002a 002B     		cmp	r3, #0
 883 002c 0ED1     		bne	.L41
 626:./Libraries/STM32F4xx_HAL_Driver/Src/stm32f4xx_hal_spi.c ****   {
 627:./Libraries/STM32F4xx_HAL_Driver/Src/stm32f4xx_hal_spi.c ****      hspi->State = HAL_SPI_STATE_BUSY_RX;
 884              		.loc 1 627 18
 885 002e FB68     		ldr	r3, [r7, #12]
 886 0030 0422     		movs	r2, #4
 887 0032 83F85120 		strb	r2, [r3, #81]
 628:./Libraries/STM32F4xx_HAL_Driver/Src/stm32f4xx_hal_spi.c ****      /* Call transmit-receive function to send Dummy data on Tx line and generate clock on CLK line
 629:./Libraries/STM32F4xx_HAL_Driver/Src/stm32f4xx_hal_spi.c ****     return HAL_SPI_TransmitReceive(hspi,pData,pData,Size,Timeout);
 888              		.loc 1 629 12
 889 0036 FA88     		ldrh	r2, [r7, #6]
 890 0038 3B68     		ldr	r3, [r7]
 891 003a 0093     		str	r3, [sp]
 892 003c 1346     		mov	r3, r2
 893 003e BA68     		ldr	r2, [r7, #8]
 894 0040 B968     		ldr	r1, [r7, #8]
 895 0042 F868     		ldr	r0, [r7, #12]
 896 0044 FFF7FEFF 		bl	HAL_SPI_TransmitReceive
 897 0048 0346     		mov	r3, r0
 898 004a 5EE1     		b	.L42
 899              	.L41:
 630:./Libraries/STM32F4xx_HAL_Driver/Src/stm32f4xx_hal_spi.c ****   }
 631:./Libraries/STM32F4xx_HAL_Driver/Src/stm32f4xx_hal_spi.c **** 
 632:./Libraries/STM32F4xx_HAL_Driver/Src/stm32f4xx_hal_spi.c ****   /* Process Locked */
 633:./Libraries/STM32F4xx_HAL_Driver/Src/stm32f4xx_hal_spi.c ****   __HAL_LOCK(hspi);
 900              		.loc 1 633 3
 901 004c FB68     		ldr	r3, [r7, #12]
 902 004e 93F85030 		ldrb	r3, [r3, #80]	@ zero_extendqisi2
 903 0052 012B     		cmp	r3, #1
 904 0054 01D1     		bne	.L43
 905              		.loc 1 633 3 is_stmt 0 discriminator 1
 906 0056 0223     		movs	r3, #2
 907 0058 57E1     		b	.L42
 908              	.L43:
 909              		.loc 1 633 3 discriminator 2
 910 005a FB68     		ldr	r3, [r7, #12]
 911 005c 0122     		movs	r2, #1
 912 005e 83F85020 		strb	r2, [r3, #80]
 634:./Libraries/STM32F4xx_HAL_Driver/Src/stm32f4xx_hal_spi.c **** 
ARM GAS  /tmp/ccits0mR.s 			page 28


 635:./Libraries/STM32F4xx_HAL_Driver/Src/stm32f4xx_hal_spi.c ****   /* Init tickstart for timeout management*/
 636:./Libraries/STM32F4xx_HAL_Driver/Src/stm32f4xx_hal_spi.c ****   tickstart = HAL_GetTick();
 913              		.loc 1 636 15 is_stmt 1 discriminator 2
 914 0062 FFF7FEFF 		bl	HAL_GetTick
 915 0066 B861     		str	r0, [r7, #24]
 637:./Libraries/STM32F4xx_HAL_Driver/Src/stm32f4xx_hal_spi.c **** 
 638:./Libraries/STM32F4xx_HAL_Driver/Src/stm32f4xx_hal_spi.c ****   if(hspi->State != HAL_SPI_STATE_READY)
 916              		.loc 1 638 10 discriminator 2
 917 0068 FB68     		ldr	r3, [r7, #12]
 918 006a 93F85130 		ldrb	r3, [r3, #81]
 919 006e DBB2     		uxtb	r3, r3
 920              		.loc 1 638 5 discriminator 2
 921 0070 012B     		cmp	r3, #1
 922 0072 02D0     		beq	.L44
 639:./Libraries/STM32F4xx_HAL_Driver/Src/stm32f4xx_hal_spi.c ****   {
 640:./Libraries/STM32F4xx_HAL_Driver/Src/stm32f4xx_hal_spi.c ****     errorcode = HAL_BUSY;
 923              		.loc 1 640 15
 924 0074 0223     		movs	r3, #2
 925 0076 FB77     		strb	r3, [r7, #31]
 641:./Libraries/STM32F4xx_HAL_Driver/Src/stm32f4xx_hal_spi.c ****     goto error;
 926              		.loc 1 641 5
 927 0078 3EE1     		b	.L45
 928              	.L44:
 642:./Libraries/STM32F4xx_HAL_Driver/Src/stm32f4xx_hal_spi.c ****   }
 643:./Libraries/STM32F4xx_HAL_Driver/Src/stm32f4xx_hal_spi.c **** 
 644:./Libraries/STM32F4xx_HAL_Driver/Src/stm32f4xx_hal_spi.c ****   if((pData == NULL ) || (Size == 0))
 929              		.loc 1 644 5
 930 007a BB68     		ldr	r3, [r7, #8]
 931 007c 002B     		cmp	r3, #0
 932 007e 02D0     		beq	.L46
 933              		.loc 1 644 23 discriminator 1
 934 0080 FB88     		ldrh	r3, [r7, #6]
 935 0082 002B     		cmp	r3, #0
 936 0084 02D1     		bne	.L47
 937              	.L46:
 645:./Libraries/STM32F4xx_HAL_Driver/Src/stm32f4xx_hal_spi.c ****   {
 646:./Libraries/STM32F4xx_HAL_Driver/Src/stm32f4xx_hal_spi.c ****     errorcode = HAL_ERROR;
 938              		.loc 1 646 15
 939 0086 0123     		movs	r3, #1
 940 0088 FB77     		strb	r3, [r7, #31]
 647:./Libraries/STM32F4xx_HAL_Driver/Src/stm32f4xx_hal_spi.c ****     goto error;
 941              		.loc 1 647 5
 942 008a 35E1     		b	.L45
 943              	.L47:
 648:./Libraries/STM32F4xx_HAL_Driver/Src/stm32f4xx_hal_spi.c ****   }
 649:./Libraries/STM32F4xx_HAL_Driver/Src/stm32f4xx_hal_spi.c **** 
 650:./Libraries/STM32F4xx_HAL_Driver/Src/stm32f4xx_hal_spi.c ****   /* Set the transaction information */
 651:./Libraries/STM32F4xx_HAL_Driver/Src/stm32f4xx_hal_spi.c ****   hspi->State       = HAL_SPI_STATE_BUSY_RX;
 944              		.loc 1 651 21
 945 008c FB68     		ldr	r3, [r7, #12]
 946 008e 0422     		movs	r2, #4
 947 0090 83F85120 		strb	r2, [r3, #81]
 652:./Libraries/STM32F4xx_HAL_Driver/Src/stm32f4xx_hal_spi.c ****   hspi->ErrorCode   = HAL_SPI_ERROR_NONE;
 948              		.loc 1 652 21
 949 0094 FB68     		ldr	r3, [r7, #12]
 950 0096 0022     		movs	r2, #0
 951 0098 5A65     		str	r2, [r3, #84]
ARM GAS  /tmp/ccits0mR.s 			page 29


 653:./Libraries/STM32F4xx_HAL_Driver/Src/stm32f4xx_hal_spi.c ****   hspi->pRxBuffPtr  = (uint8_t *)pData;
 952              		.loc 1 653 21
 953 009a FB68     		ldr	r3, [r7, #12]
 954 009c BA68     		ldr	r2, [r7, #8]
 955 009e 9A63     		str	r2, [r3, #56]
 654:./Libraries/STM32F4xx_HAL_Driver/Src/stm32f4xx_hal_spi.c ****   hspi->RxXferSize  = Size;
 956              		.loc 1 654 21
 957 00a0 FB68     		ldr	r3, [r7, #12]
 958 00a2 FA88     		ldrh	r2, [r7, #6]	@ movhi
 959 00a4 9A87     		strh	r2, [r3, #60]	@ movhi
 655:./Libraries/STM32F4xx_HAL_Driver/Src/stm32f4xx_hal_spi.c ****   hspi->RxXferCount = Size;
 960              		.loc 1 655 21
 961 00a6 FB68     		ldr	r3, [r7, #12]
 962 00a8 FA88     		ldrh	r2, [r7, #6]	@ movhi
 963 00aa DA87     		strh	r2, [r3, #62]	@ movhi
 656:./Libraries/STM32F4xx_HAL_Driver/Src/stm32f4xx_hal_spi.c **** 
 657:./Libraries/STM32F4xx_HAL_Driver/Src/stm32f4xx_hal_spi.c ****   /*Init field not used in handle to zero */
 658:./Libraries/STM32F4xx_HAL_Driver/Src/stm32f4xx_hal_spi.c ****   hspi->pTxBuffPtr  = (uint8_t *)NULL;
 964              		.loc 1 658 21
 965 00ac FB68     		ldr	r3, [r7, #12]
 966 00ae 0022     		movs	r2, #0
 967 00b0 1A63     		str	r2, [r3, #48]
 659:./Libraries/STM32F4xx_HAL_Driver/Src/stm32f4xx_hal_spi.c ****   hspi->TxXferSize  = 0U;
 968              		.loc 1 659 21
 969 00b2 FB68     		ldr	r3, [r7, #12]
 970 00b4 0022     		movs	r2, #0
 971 00b6 9A86     		strh	r2, [r3, #52]	@ movhi
 660:./Libraries/STM32F4xx_HAL_Driver/Src/stm32f4xx_hal_spi.c ****   hspi->TxXferCount = 0U;
 972              		.loc 1 660 21
 973 00b8 FB68     		ldr	r3, [r7, #12]
 974 00ba 0022     		movs	r2, #0
 975 00bc DA86     		strh	r2, [r3, #54]	@ movhi
 661:./Libraries/STM32F4xx_HAL_Driver/Src/stm32f4xx_hal_spi.c ****   hspi->RxISR       = NULL;
 976              		.loc 1 661 21
 977 00be FB68     		ldr	r3, [r7, #12]
 978 00c0 0022     		movs	r2, #0
 979 00c2 1A64     		str	r2, [r3, #64]
 662:./Libraries/STM32F4xx_HAL_Driver/Src/stm32f4xx_hal_spi.c ****   hspi->TxISR       = NULL;
 980              		.loc 1 662 21
 981 00c4 FB68     		ldr	r3, [r7, #12]
 982 00c6 0022     		movs	r2, #0
 983 00c8 5A64     		str	r2, [r3, #68]
 663:./Libraries/STM32F4xx_HAL_Driver/Src/stm32f4xx_hal_spi.c **** 
 664:./Libraries/STM32F4xx_HAL_Driver/Src/stm32f4xx_hal_spi.c **** #if (USE_SPI_CRC != 0U)
 665:./Libraries/STM32F4xx_HAL_Driver/Src/stm32f4xx_hal_spi.c ****   /* Reset CRC Calculation */
 666:./Libraries/STM32F4xx_HAL_Driver/Src/stm32f4xx_hal_spi.c ****   if(hspi->Init.CRCCalculation == SPI_CRCCALCULATION_ENABLE)
 984              		.loc 1 666 16
 985 00ca FB68     		ldr	r3, [r7, #12]
 986 00cc 9B6A     		ldr	r3, [r3, #40]
 987              		.loc 1 666 5
 988 00ce B3F5005F 		cmp	r3, #8192
 989 00d2 17D1     		bne	.L48
 667:./Libraries/STM32F4xx_HAL_Driver/Src/stm32f4xx_hal_spi.c ****   {
 668:./Libraries/STM32F4xx_HAL_Driver/Src/stm32f4xx_hal_spi.c ****     SPI_RESET_CRC(hspi);
 990              		.loc 1 668 5
 991 00d4 FB68     		ldr	r3, [r7, #12]
 992 00d6 1B68     		ldr	r3, [r3]
ARM GAS  /tmp/ccits0mR.s 			page 30


 993 00d8 1968     		ldr	r1, [r3]
 994 00da FB68     		ldr	r3, [r7, #12]
 995 00dc 1A68     		ldr	r2, [r3]
 996 00de 4DF6FF73 		movw	r3, #57343
 997 00e2 0B40     		ands	r3, r3, r1
 998 00e4 1360     		str	r3, [r2]
 999 00e6 FB68     		ldr	r3, [r7, #12]
 1000 00e8 1B68     		ldr	r3, [r3]
 1001 00ea 1A68     		ldr	r2, [r3]
 1002 00ec FB68     		ldr	r3, [r7, #12]
 1003 00ee 1B68     		ldr	r3, [r3]
 1004 00f0 42F40052 		orr	r2, r2, #8192
 1005 00f4 1A60     		str	r2, [r3]
 669:./Libraries/STM32F4xx_HAL_Driver/Src/stm32f4xx_hal_spi.c ****     /* this is done to handle the CRCNEXT before the latest data */
 670:./Libraries/STM32F4xx_HAL_Driver/Src/stm32f4xx_hal_spi.c ****     hspi->RxXferCount--;
 1006              		.loc 1 670 9
 1007 00f6 FB68     		ldr	r3, [r7, #12]
 1008 00f8 DB8F     		ldrh	r3, [r3, #62]	@ movhi
 1009 00fa 9BB2     		uxth	r3, r3
 1010              		.loc 1 670 22
 1011 00fc 013B     		subs	r3, r3, #1
 1012 00fe 9AB2     		uxth	r2, r3
 1013 0100 FB68     		ldr	r3, [r7, #12]
 1014 0102 DA87     		strh	r2, [r3, #62]	@ movhi
 1015              	.L48:
 671:./Libraries/STM32F4xx_HAL_Driver/Src/stm32f4xx_hal_spi.c ****   }
 672:./Libraries/STM32F4xx_HAL_Driver/Src/stm32f4xx_hal_spi.c **** #endif /* USE_SPI_CRC */
 673:./Libraries/STM32F4xx_HAL_Driver/Src/stm32f4xx_hal_spi.c **** 
 674:./Libraries/STM32F4xx_HAL_Driver/Src/stm32f4xx_hal_spi.c ****   /* Configure communication direction: 1Line */
 675:./Libraries/STM32F4xx_HAL_Driver/Src/stm32f4xx_hal_spi.c ****   if(hspi->Init.Direction == SPI_DIRECTION_1LINE)
 1016              		.loc 1 675 16
 1017 0104 FB68     		ldr	r3, [r7, #12]
 1018 0106 9B68     		ldr	r3, [r3, #8]
 1019              		.loc 1 675 5
 1020 0108 B3F5004F 		cmp	r3, #32768
 1021 010c 07D1     		bne	.L49
 676:./Libraries/STM32F4xx_HAL_Driver/Src/stm32f4xx_hal_spi.c ****   {
 677:./Libraries/STM32F4xx_HAL_Driver/Src/stm32f4xx_hal_spi.c ****     SPI_1LINE_RX(hspi);
 1022              		.loc 1 677 5
 1023 010e FB68     		ldr	r3, [r7, #12]
 1024 0110 1B68     		ldr	r3, [r3]
 1025 0112 1A68     		ldr	r2, [r3]
 1026 0114 FB68     		ldr	r3, [r7, #12]
 1027 0116 1B68     		ldr	r3, [r3]
 1028 0118 22F48042 		bic	r2, r2, #16384
 1029 011c 1A60     		str	r2, [r3]
 1030              	.L49:
 678:./Libraries/STM32F4xx_HAL_Driver/Src/stm32f4xx_hal_spi.c ****   }
 679:./Libraries/STM32F4xx_HAL_Driver/Src/stm32f4xx_hal_spi.c **** 
 680:./Libraries/STM32F4xx_HAL_Driver/Src/stm32f4xx_hal_spi.c ****   /* Check if the SPI is already enabled */
 681:./Libraries/STM32F4xx_HAL_Driver/Src/stm32f4xx_hal_spi.c ****   if((hspi->Instance->CR1 & SPI_CR1_SPE) != SPI_CR1_SPE)
 1031              		.loc 1 681 11
 1032 011e FB68     		ldr	r3, [r7, #12]
 1033 0120 1B68     		ldr	r3, [r3]
 1034              		.loc 1 681 21
 1035 0122 1B68     		ldr	r3, [r3]
 1036              		.loc 1 681 27
ARM GAS  /tmp/ccits0mR.s 			page 31


 1037 0124 03F04003 		and	r3, r3, #64
 1038              		.loc 1 681 5
 1039 0128 402B     		cmp	r3, #64
 1040 012a 07D0     		beq	.L50
 682:./Libraries/STM32F4xx_HAL_Driver/Src/stm32f4xx_hal_spi.c ****   {
 683:./Libraries/STM32F4xx_HAL_Driver/Src/stm32f4xx_hal_spi.c ****     /* Enable SPI peripheral */
 684:./Libraries/STM32F4xx_HAL_Driver/Src/stm32f4xx_hal_spi.c ****     __HAL_SPI_ENABLE(hspi);
 1041              		.loc 1 684 5
 1042 012c FB68     		ldr	r3, [r7, #12]
 1043 012e 1B68     		ldr	r3, [r3]
 1044 0130 1A68     		ldr	r2, [r3]
 1045 0132 FB68     		ldr	r3, [r7, #12]
 1046 0134 1B68     		ldr	r3, [r3]
 1047 0136 42F04002 		orr	r2, r2, #64
 1048 013a 1A60     		str	r2, [r3]
 1049              	.L50:
 685:./Libraries/STM32F4xx_HAL_Driver/Src/stm32f4xx_hal_spi.c ****   }
 686:./Libraries/STM32F4xx_HAL_Driver/Src/stm32f4xx_hal_spi.c **** 
 687:./Libraries/STM32F4xx_HAL_Driver/Src/stm32f4xx_hal_spi.c ****     /* Receive data in 8 Bit mode */
 688:./Libraries/STM32F4xx_HAL_Driver/Src/stm32f4xx_hal_spi.c ****   if(hspi->Init.DataSize == SPI_DATASIZE_8BIT)
 1050              		.loc 1 688 16
 1051 013c FB68     		ldr	r3, [r7, #12]
 1052 013e DB68     		ldr	r3, [r3, #12]
 1053              		.loc 1 688 5
 1054 0140 002B     		cmp	r3, #0
 1055 0142 5BD1     		bne	.L57
 689:./Libraries/STM32F4xx_HAL_Driver/Src/stm32f4xx_hal_spi.c ****   {
 690:./Libraries/STM32F4xx_HAL_Driver/Src/stm32f4xx_hal_spi.c ****     /* Transfer loop */
 691:./Libraries/STM32F4xx_HAL_Driver/Src/stm32f4xx_hal_spi.c ****     while(hspi->RxXferCount > 0U)
 1056              		.loc 1 691 10
 1057 0144 2AE0     		b	.L52
 1058              	.L55:
 692:./Libraries/STM32F4xx_HAL_Driver/Src/stm32f4xx_hal_spi.c ****     {
 693:./Libraries/STM32F4xx_HAL_Driver/Src/stm32f4xx_hal_spi.c ****       /* Check the RXNE flag */
 694:./Libraries/STM32F4xx_HAL_Driver/Src/stm32f4xx_hal_spi.c ****       if(__HAL_SPI_GET_FLAG(hspi, SPI_FLAG_RXNE))
 1059              		.loc 1 694 10
 1060 0146 FB68     		ldr	r3, [r7, #12]
 1061 0148 1B68     		ldr	r3, [r3]
 1062 014a 9B68     		ldr	r3, [r3, #8]
 1063 014c 03F00103 		and	r3, r3, #1
 1064              		.loc 1 694 9
 1065 0150 012B     		cmp	r3, #1
 1066 0152 11D1     		bne	.L53
 695:./Libraries/STM32F4xx_HAL_Driver/Src/stm32f4xx_hal_spi.c ****       {
 696:./Libraries/STM32F4xx_HAL_Driver/Src/stm32f4xx_hal_spi.c ****         /* read the received data */
 697:./Libraries/STM32F4xx_HAL_Driver/Src/stm32f4xx_hal_spi.c ****         (* (uint8_t *)pData)= *(__IO uint8_t *)&hspi->Instance->DR;
 1067              		.loc 1 697 53
 1068 0154 FB68     		ldr	r3, [r7, #12]
 1069 0156 1B68     		ldr	r3, [r3]
 1070              		.loc 1 697 48
 1071 0158 0C33     		adds	r3, r3, #12
 1072              		.loc 1 697 31
 1073 015a 1B78     		ldrb	r3, [r3]
 1074 015c DAB2     		uxtb	r2, r3
 1075              		.loc 1 697 29
 1076 015e BB68     		ldr	r3, [r7, #8]
 1077 0160 1A70     		strb	r2, [r3]
ARM GAS  /tmp/ccits0mR.s 			page 32


 698:./Libraries/STM32F4xx_HAL_Driver/Src/stm32f4xx_hal_spi.c ****         pData += sizeof(uint8_t);
 1078              		.loc 1 698 15
 1079 0162 BB68     		ldr	r3, [r7, #8]
 1080 0164 0133     		adds	r3, r3, #1
 1081 0166 BB60     		str	r3, [r7, #8]
 699:./Libraries/STM32F4xx_HAL_Driver/Src/stm32f4xx_hal_spi.c ****         hspi->RxXferCount--;
 1082              		.loc 1 699 13
 1083 0168 FB68     		ldr	r3, [r7, #12]
 1084 016a DB8F     		ldrh	r3, [r3, #62]	@ movhi
 1085 016c 9BB2     		uxth	r3, r3
 1086              		.loc 1 699 26
 1087 016e 013B     		subs	r3, r3, #1
 1088 0170 9AB2     		uxth	r2, r3
 1089 0172 FB68     		ldr	r3, [r7, #12]
 1090 0174 DA87     		strh	r2, [r3, #62]	@ movhi
 1091 0176 11E0     		b	.L52
 1092              	.L53:
 700:./Libraries/STM32F4xx_HAL_Driver/Src/stm32f4xx_hal_spi.c ****       }
 701:./Libraries/STM32F4xx_HAL_Driver/Src/stm32f4xx_hal_spi.c ****       else
 702:./Libraries/STM32F4xx_HAL_Driver/Src/stm32f4xx_hal_spi.c ****       {
 703:./Libraries/STM32F4xx_HAL_Driver/Src/stm32f4xx_hal_spi.c ****         /* Timeout management */
 704:./Libraries/STM32F4xx_HAL_Driver/Src/stm32f4xx_hal_spi.c ****         if((Timeout == 0U) || ((Timeout != HAL_MAX_DELAY) && ((HAL_GetTick()-tickstart) >=  Timeout
 1093              		.loc 1 704 11
 1094 0178 3B68     		ldr	r3, [r7]
 1095 017a 002B     		cmp	r3, #0
 1096 017c 0BD0     		beq	.L54
 1097              		.loc 1 704 28 discriminator 1
 1098 017e 3B68     		ldr	r3, [r7]
 1099 0180 B3F1FF3F 		cmp	r3, #-1
 1100 0184 0AD0     		beq	.L52
 1101              		.loc 1 704 64 discriminator 2
 1102 0186 FFF7FEFF 		bl	HAL_GetTick
 1103 018a 0246     		mov	r2, r0
 1104              		.loc 1 704 77 discriminator 2
 1105 018c BB69     		ldr	r3, [r7, #24]
 1106 018e D31A     		subs	r3, r2, r3
 1107              		.loc 1 704 59 discriminator 2
 1108 0190 3A68     		ldr	r2, [r7]
 1109 0192 9A42     		cmp	r2, r3
 1110 0194 02D8     		bhi	.L52
 1111              	.L54:
 705:./Libraries/STM32F4xx_HAL_Driver/Src/stm32f4xx_hal_spi.c ****         {
 706:./Libraries/STM32F4xx_HAL_Driver/Src/stm32f4xx_hal_spi.c ****           errorcode = HAL_TIMEOUT;
 1112              		.loc 1 706 21
 1113 0196 0323     		movs	r3, #3
 1114 0198 FB77     		strb	r3, [r7, #31]
 707:./Libraries/STM32F4xx_HAL_Driver/Src/stm32f4xx_hal_spi.c ****           goto error;
 1115              		.loc 1 707 11
 1116 019a ADE0     		b	.L45
 1117              	.L52:
 691:./Libraries/STM32F4xx_HAL_Driver/Src/stm32f4xx_hal_spi.c ****     {
 1118              		.loc 1 691 15
 1119 019c FB68     		ldr	r3, [r7, #12]
 1120 019e DB8F     		ldrh	r3, [r3, #62]	@ movhi
 1121 01a0 9BB2     		uxth	r3, r3
 691:./Libraries/STM32F4xx_HAL_Driver/Src/stm32f4xx_hal_spi.c ****     {
 1122              		.loc 1 691 10
ARM GAS  /tmp/ccits0mR.s 			page 33


 1123 01a2 002B     		cmp	r3, #0
 1124 01a4 CFD1     		bne	.L55
 1125 01a6 2EE0     		b	.L56
 1126              	.L60:
 708:./Libraries/STM32F4xx_HAL_Driver/Src/stm32f4xx_hal_spi.c ****         }
 709:./Libraries/STM32F4xx_HAL_Driver/Src/stm32f4xx_hal_spi.c ****       }
 710:./Libraries/STM32F4xx_HAL_Driver/Src/stm32f4xx_hal_spi.c ****     }
 711:./Libraries/STM32F4xx_HAL_Driver/Src/stm32f4xx_hal_spi.c ****   }
 712:./Libraries/STM32F4xx_HAL_Driver/Src/stm32f4xx_hal_spi.c ****   else
 713:./Libraries/STM32F4xx_HAL_Driver/Src/stm32f4xx_hal_spi.c ****   {
 714:./Libraries/STM32F4xx_HAL_Driver/Src/stm32f4xx_hal_spi.c ****     /* Transfer loop */
 715:./Libraries/STM32F4xx_HAL_Driver/Src/stm32f4xx_hal_spi.c ****     while(hspi->RxXferCount > 0U)
 716:./Libraries/STM32F4xx_HAL_Driver/Src/stm32f4xx_hal_spi.c ****     {
 717:./Libraries/STM32F4xx_HAL_Driver/Src/stm32f4xx_hal_spi.c ****       /* Check the RXNE flag */
 718:./Libraries/STM32F4xx_HAL_Driver/Src/stm32f4xx_hal_spi.c ****       if(__HAL_SPI_GET_FLAG(hspi, SPI_FLAG_RXNE))
 1127              		.loc 1 718 10
 1128 01a8 FB68     		ldr	r3, [r7, #12]
 1129 01aa 1B68     		ldr	r3, [r3]
 1130 01ac 9B68     		ldr	r3, [r3, #8]
 1131 01ae 03F00103 		and	r3, r3, #1
 1132              		.loc 1 718 9
 1133 01b2 012B     		cmp	r3, #1
 1134 01b4 10D1     		bne	.L58
 719:./Libraries/STM32F4xx_HAL_Driver/Src/stm32f4xx_hal_spi.c ****       {
 720:./Libraries/STM32F4xx_HAL_Driver/Src/stm32f4xx_hal_spi.c ****         *((uint16_t*)pData) = hspi->Instance->DR;
 1135              		.loc 1 720 35
 1136 01b6 FB68     		ldr	r3, [r7, #12]
 1137 01b8 1B68     		ldr	r3, [r3]
 1138              		.loc 1 720 45
 1139 01ba DB68     		ldr	r3, [r3, #12]
 1140              		.loc 1 720 29
 1141 01bc 9AB2     		uxth	r2, r3
 1142 01be BB68     		ldr	r3, [r7, #8]
 1143 01c0 1A80     		strh	r2, [r3]	@ movhi
 721:./Libraries/STM32F4xx_HAL_Driver/Src/stm32f4xx_hal_spi.c ****         pData += sizeof(uint16_t);
 1144              		.loc 1 721 15
 1145 01c2 BB68     		ldr	r3, [r7, #8]
 1146 01c4 0233     		adds	r3, r3, #2
 1147 01c6 BB60     		str	r3, [r7, #8]
 722:./Libraries/STM32F4xx_HAL_Driver/Src/stm32f4xx_hal_spi.c ****         hspi->RxXferCount--;
 1148              		.loc 1 722 13
 1149 01c8 FB68     		ldr	r3, [r7, #12]
 1150 01ca DB8F     		ldrh	r3, [r3, #62]	@ movhi
 1151 01cc 9BB2     		uxth	r3, r3
 1152              		.loc 1 722 26
 1153 01ce 013B     		subs	r3, r3, #1
 1154 01d0 9AB2     		uxth	r2, r3
 1155 01d2 FB68     		ldr	r3, [r7, #12]
 1156 01d4 DA87     		strh	r2, [r3, #62]	@ movhi
 1157 01d6 11E0     		b	.L57
 1158              	.L58:
 723:./Libraries/STM32F4xx_HAL_Driver/Src/stm32f4xx_hal_spi.c ****       }
 724:./Libraries/STM32F4xx_HAL_Driver/Src/stm32f4xx_hal_spi.c ****       else
 725:./Libraries/STM32F4xx_HAL_Driver/Src/stm32f4xx_hal_spi.c ****       {
 726:./Libraries/STM32F4xx_HAL_Driver/Src/stm32f4xx_hal_spi.c ****         /* Timeout management */
 727:./Libraries/STM32F4xx_HAL_Driver/Src/stm32f4xx_hal_spi.c ****         if((Timeout == 0U) || ((Timeout != HAL_MAX_DELAY) && ((HAL_GetTick()-tickstart) >=  Timeout
 1159              		.loc 1 727 11
ARM GAS  /tmp/ccits0mR.s 			page 34


 1160 01d8 3B68     		ldr	r3, [r7]
 1161 01da 002B     		cmp	r3, #0
 1162 01dc 0BD0     		beq	.L59
 1163              		.loc 1 727 28 discriminator 1
 1164 01de 3B68     		ldr	r3, [r7]
 1165 01e0 B3F1FF3F 		cmp	r3, #-1
 1166 01e4 0AD0     		beq	.L57
 1167              		.loc 1 727 64 discriminator 2
 1168 01e6 FFF7FEFF 		bl	HAL_GetTick
 1169 01ea 0246     		mov	r2, r0
 1170              		.loc 1 727 77 discriminator 2
 1171 01ec BB69     		ldr	r3, [r7, #24]
 1172 01ee D31A     		subs	r3, r2, r3
 1173              		.loc 1 727 59 discriminator 2
 1174 01f0 3A68     		ldr	r2, [r7]
 1175 01f2 9A42     		cmp	r2, r3
 1176 01f4 02D8     		bhi	.L57
 1177              	.L59:
 728:./Libraries/STM32F4xx_HAL_Driver/Src/stm32f4xx_hal_spi.c ****         {
 729:./Libraries/STM32F4xx_HAL_Driver/Src/stm32f4xx_hal_spi.c ****           errorcode = HAL_TIMEOUT;
 1178              		.loc 1 729 21
 1179 01f6 0323     		movs	r3, #3
 1180 01f8 FB77     		strb	r3, [r7, #31]
 730:./Libraries/STM32F4xx_HAL_Driver/Src/stm32f4xx_hal_spi.c ****           goto error;
 1181              		.loc 1 730 11
 1182 01fa 7DE0     		b	.L45
 1183              	.L57:
 715:./Libraries/STM32F4xx_HAL_Driver/Src/stm32f4xx_hal_spi.c ****     {
 1184              		.loc 1 715 15
 1185 01fc FB68     		ldr	r3, [r7, #12]
 1186 01fe DB8F     		ldrh	r3, [r3, #62]	@ movhi
 1187 0200 9BB2     		uxth	r3, r3
 715:./Libraries/STM32F4xx_HAL_Driver/Src/stm32f4xx_hal_spi.c ****     {
 1188              		.loc 1 715 10
 1189 0202 002B     		cmp	r3, #0
 1190 0204 D0D1     		bne	.L60
 1191              	.L56:
 731:./Libraries/STM32F4xx_HAL_Driver/Src/stm32f4xx_hal_spi.c ****         }
 732:./Libraries/STM32F4xx_HAL_Driver/Src/stm32f4xx_hal_spi.c ****       }
 733:./Libraries/STM32F4xx_HAL_Driver/Src/stm32f4xx_hal_spi.c ****     }
 734:./Libraries/STM32F4xx_HAL_Driver/Src/stm32f4xx_hal_spi.c ****   }
 735:./Libraries/STM32F4xx_HAL_Driver/Src/stm32f4xx_hal_spi.c **** 
 736:./Libraries/STM32F4xx_HAL_Driver/Src/stm32f4xx_hal_spi.c **** #if (USE_SPI_CRC != 0U)
 737:./Libraries/STM32F4xx_HAL_Driver/Src/stm32f4xx_hal_spi.c ****   /* Handle the CRC Transmission */
 738:./Libraries/STM32F4xx_HAL_Driver/Src/stm32f4xx_hal_spi.c ****   if(hspi->Init.CRCCalculation == SPI_CRCCALCULATION_ENABLE)
 1192              		.loc 1 738 16
 1193 0206 FB68     		ldr	r3, [r7, #12]
 1194 0208 9B6A     		ldr	r3, [r3, #40]
 1195              		.loc 1 738 5
 1196 020a B3F5005F 		cmp	r3, #8192
 1197 020e 42D1     		bne	.L61
 739:./Libraries/STM32F4xx_HAL_Driver/Src/stm32f4xx_hal_spi.c ****   {
 740:./Libraries/STM32F4xx_HAL_Driver/Src/stm32f4xx_hal_spi.c ****     /* freeze the CRC before the latest data */
 741:./Libraries/STM32F4xx_HAL_Driver/Src/stm32f4xx_hal_spi.c ****     SET_BIT(hspi->Instance->CR1, SPI_CR1_CRCNEXT);
 1198              		.loc 1 741 5
 1199 0210 FB68     		ldr	r3, [r7, #12]
 1200 0212 1B68     		ldr	r3, [r3]
ARM GAS  /tmp/ccits0mR.s 			page 35


 1201 0214 1A68     		ldr	r2, [r3]
 1202 0216 FB68     		ldr	r3, [r7, #12]
 1203 0218 1B68     		ldr	r3, [r3]
 1204 021a 42F48052 		orr	r2, r2, #4096
 1205 021e 1A60     		str	r2, [r3]
 742:./Libraries/STM32F4xx_HAL_Driver/Src/stm32f4xx_hal_spi.c **** 
 743:./Libraries/STM32F4xx_HAL_Driver/Src/stm32f4xx_hal_spi.c ****     /* Read the latest data */
 744:./Libraries/STM32F4xx_HAL_Driver/Src/stm32f4xx_hal_spi.c ****     if(SPI_WaitFlagStateUntilTimeout(hspi, SPI_FLAG_RXNE, SET, Timeout, tickstart) != HAL_OK)
 1206              		.loc 1 744 8
 1207 0220 BB69     		ldr	r3, [r7, #24]
 1208 0222 0093     		str	r3, [sp]
 1209 0224 3B68     		ldr	r3, [r7]
 1210 0226 0122     		movs	r2, #1
 1211 0228 0121     		movs	r1, #1
 1212 022a F868     		ldr	r0, [r7, #12]
 1213 022c FFF7FEFF 		bl	SPI_WaitFlagStateUntilTimeout
 1214 0230 0346     		mov	r3, r0
 1215              		.loc 1 744 7
 1216 0232 002B     		cmp	r3, #0
 1217 0234 02D0     		beq	.L62
 745:./Libraries/STM32F4xx_HAL_Driver/Src/stm32f4xx_hal_spi.c ****     {
 746:./Libraries/STM32F4xx_HAL_Driver/Src/stm32f4xx_hal_spi.c ****       /* the latest data has not been received */
 747:./Libraries/STM32F4xx_HAL_Driver/Src/stm32f4xx_hal_spi.c ****       errorcode = HAL_TIMEOUT;
 1218              		.loc 1 747 17
 1219 0236 0323     		movs	r3, #3
 1220 0238 FB77     		strb	r3, [r7, #31]
 748:./Libraries/STM32F4xx_HAL_Driver/Src/stm32f4xx_hal_spi.c ****       goto error;
 1221              		.loc 1 748 7
 1222 023a 5DE0     		b	.L45
 1223              	.L62:
 749:./Libraries/STM32F4xx_HAL_Driver/Src/stm32f4xx_hal_spi.c ****     }
 750:./Libraries/STM32F4xx_HAL_Driver/Src/stm32f4xx_hal_spi.c **** 
 751:./Libraries/STM32F4xx_HAL_Driver/Src/stm32f4xx_hal_spi.c ****     /* Receive last data in 16 Bit mode */
 752:./Libraries/STM32F4xx_HAL_Driver/Src/stm32f4xx_hal_spi.c ****     if(hspi->Init.DataSize == SPI_DATASIZE_16BIT)
 1224              		.loc 1 752 18
 1225 023c FB68     		ldr	r3, [r7, #12]
 1226 023e DB68     		ldr	r3, [r3, #12]
 1227              		.loc 1 752 7
 1228 0240 B3F5006F 		cmp	r3, #2048
 1229 0244 06D1     		bne	.L63
 753:./Libraries/STM32F4xx_HAL_Driver/Src/stm32f4xx_hal_spi.c ****     {
 754:./Libraries/STM32F4xx_HAL_Driver/Src/stm32f4xx_hal_spi.c ****       *((uint16_t*)pData) = hspi->Instance->DR;
 1230              		.loc 1 754 33
 1231 0246 FB68     		ldr	r3, [r7, #12]
 1232 0248 1B68     		ldr	r3, [r3]
 1233              		.loc 1 754 43
 1234 024a DB68     		ldr	r3, [r3, #12]
 1235              		.loc 1 754 27
 1236 024c 9AB2     		uxth	r2, r3
 1237 024e BB68     		ldr	r3, [r7, #8]
 1238 0250 1A80     		strh	r2, [r3]	@ movhi
 1239 0252 06E0     		b	.L64
 1240              	.L63:
 755:./Libraries/STM32F4xx_HAL_Driver/Src/stm32f4xx_hal_spi.c ****     }
 756:./Libraries/STM32F4xx_HAL_Driver/Src/stm32f4xx_hal_spi.c ****     /* Receive last data in 8 Bit mode */
 757:./Libraries/STM32F4xx_HAL_Driver/Src/stm32f4xx_hal_spi.c ****     else
 758:./Libraries/STM32F4xx_HAL_Driver/Src/stm32f4xx_hal_spi.c ****     {
ARM GAS  /tmp/ccits0mR.s 			page 36


 759:./Libraries/STM32F4xx_HAL_Driver/Src/stm32f4xx_hal_spi.c ****       (*(uint8_t *)pData) = *(__IO uint8_t *)&hspi->Instance->DR;
 1241              		.loc 1 759 51
 1242 0254 FB68     		ldr	r3, [r7, #12]
 1243 0256 1B68     		ldr	r3, [r3]
 1244              		.loc 1 759 46
 1245 0258 0C33     		adds	r3, r3, #12
 1246              		.loc 1 759 29
 1247 025a 1B78     		ldrb	r3, [r3]
 1248 025c DAB2     		uxtb	r2, r3
 1249              		.loc 1 759 27
 1250 025e BB68     		ldr	r3, [r7, #8]
 1251 0260 1A70     		strb	r2, [r3]
 1252              	.L64:
 760:./Libraries/STM32F4xx_HAL_Driver/Src/stm32f4xx_hal_spi.c ****     }
 761:./Libraries/STM32F4xx_HAL_Driver/Src/stm32f4xx_hal_spi.c **** 
 762:./Libraries/STM32F4xx_HAL_Driver/Src/stm32f4xx_hal_spi.c ****     /* Wait the CRC data */
 763:./Libraries/STM32F4xx_HAL_Driver/Src/stm32f4xx_hal_spi.c ****     if(SPI_WaitFlagStateUntilTimeout(hspi, SPI_FLAG_RXNE, SET, Timeout, tickstart) != HAL_OK)
 1253              		.loc 1 763 8
 1254 0262 BB69     		ldr	r3, [r7, #24]
 1255 0264 0093     		str	r3, [sp]
 1256 0266 3B68     		ldr	r3, [r7]
 1257 0268 0122     		movs	r2, #1
 1258 026a 0121     		movs	r1, #1
 1259 026c F868     		ldr	r0, [r7, #12]
 1260 026e FFF7FEFF 		bl	SPI_WaitFlagStateUntilTimeout
 1261 0272 0346     		mov	r3, r0
 1262              		.loc 1 763 7
 1263 0274 002B     		cmp	r3, #0
 1264 0276 08D0     		beq	.L65
 764:./Libraries/STM32F4xx_HAL_Driver/Src/stm32f4xx_hal_spi.c ****     {
 765:./Libraries/STM32F4xx_HAL_Driver/Src/stm32f4xx_hal_spi.c ****       SET_BIT(hspi->ErrorCode, HAL_SPI_ERROR_CRC);
 1265              		.loc 1 765 7
 1266 0278 FB68     		ldr	r3, [r7, #12]
 1267 027a 5B6D     		ldr	r3, [r3, #84]
 1268 027c 43F00202 		orr	r2, r3, #2
 1269 0280 FB68     		ldr	r3, [r7, #12]
 1270 0282 5A65     		str	r2, [r3, #84]
 766:./Libraries/STM32F4xx_HAL_Driver/Src/stm32f4xx_hal_spi.c ****       errorcode = HAL_TIMEOUT;
 1271              		.loc 1 766 17
 1272 0284 0323     		movs	r3, #3
 1273 0286 FB77     		strb	r3, [r7, #31]
 767:./Libraries/STM32F4xx_HAL_Driver/Src/stm32f4xx_hal_spi.c ****       goto error;
 1274              		.loc 1 767 7
 1275 0288 36E0     		b	.L45
 1276              	.L65:
 768:./Libraries/STM32F4xx_HAL_Driver/Src/stm32f4xx_hal_spi.c ****     }
 769:./Libraries/STM32F4xx_HAL_Driver/Src/stm32f4xx_hal_spi.c **** 
 770:./Libraries/STM32F4xx_HAL_Driver/Src/stm32f4xx_hal_spi.c ****     /* Read CRC to Flush DR and RXNE flag */
 771:./Libraries/STM32F4xx_HAL_Driver/Src/stm32f4xx_hal_spi.c ****     tmpreg = hspi->Instance->DR;
 1277              		.loc 1 771 18
 1278 028a FB68     		ldr	r3, [r7, #12]
 1279 028c 1B68     		ldr	r3, [r3]
 1280              		.loc 1 771 28
 1281 028e DB68     		ldr	r3, [r3, #12]
 1282              		.loc 1 771 12
 1283 0290 9BB2     		uxth	r3, r3
 1284 0292 FB82     		strh	r3, [r7, #22]	@ movhi
ARM GAS  /tmp/ccits0mR.s 			page 37


 772:./Libraries/STM32F4xx_HAL_Driver/Src/stm32f4xx_hal_spi.c ****     /* To avoid GCC warning */
 773:./Libraries/STM32F4xx_HAL_Driver/Src/stm32f4xx_hal_spi.c ****     UNUSED(tmpreg);
 1285              		.loc 1 773 5
 1286 0294 FB8A     		ldrh	r3, [r7, #22]	@ movhi
 1287              	.L61:
 774:./Libraries/STM32F4xx_HAL_Driver/Src/stm32f4xx_hal_spi.c ****   }
 775:./Libraries/STM32F4xx_HAL_Driver/Src/stm32f4xx_hal_spi.c **** #endif /* USE_SPI_CRC */
 776:./Libraries/STM32F4xx_HAL_Driver/Src/stm32f4xx_hal_spi.c **** 
 777:./Libraries/STM32F4xx_HAL_Driver/Src/stm32f4xx_hal_spi.c ****   /* Check the end of the transaction */
 778:./Libraries/STM32F4xx_HAL_Driver/Src/stm32f4xx_hal_spi.c ****   if((hspi->Init.Mode == SPI_MODE_MASTER)&&((hspi->Init.Direction == SPI_DIRECTION_1LINE)||(hspi->I
 1288              		.loc 1 778 17
 1289 0296 FB68     		ldr	r3, [r7, #12]
 1290 0298 5B68     		ldr	r3, [r3, #4]
 1291              		.loc 1 778 5
 1292 029a B3F5827F 		cmp	r3, #260
 1293 029e 11D1     		bne	.L66
 1294              		.loc 1 778 56 discriminator 1
 1295 02a0 FB68     		ldr	r3, [r7, #12]
 1296 02a2 9B68     		ldr	r3, [r3, #8]
 1297              		.loc 1 778 42 discriminator 1
 1298 02a4 B3F5004F 		cmp	r3, #32768
 1299 02a8 04D0     		beq	.L67
 1300              		.loc 1 778 103 discriminator 2
 1301 02aa FB68     		ldr	r3, [r7, #12]
 1302 02ac 9B68     		ldr	r3, [r3, #8]
 1303              		.loc 1 778 90 discriminator 2
 1304 02ae B3F5806F 		cmp	r3, #1024
 1305 02b2 07D1     		bne	.L66
 1306              	.L67:
 779:./Libraries/STM32F4xx_HAL_Driver/Src/stm32f4xx_hal_spi.c ****   {
 780:./Libraries/STM32F4xx_HAL_Driver/Src/stm32f4xx_hal_spi.c ****     /* Disable SPI peripheral */
 781:./Libraries/STM32F4xx_HAL_Driver/Src/stm32f4xx_hal_spi.c ****     __HAL_SPI_DISABLE(hspi);
 1307              		.loc 1 781 5
 1308 02b4 FB68     		ldr	r3, [r7, #12]
 1309 02b6 1B68     		ldr	r3, [r3]
 1310 02b8 1A68     		ldr	r2, [r3]
 1311 02ba FB68     		ldr	r3, [r7, #12]
 1312 02bc 1B68     		ldr	r3, [r3]
 1313 02be 22F04002 		bic	r2, r2, #64
 1314 02c2 1A60     		str	r2, [r3]
 1315              	.L66:
 782:./Libraries/STM32F4xx_HAL_Driver/Src/stm32f4xx_hal_spi.c ****   }
 783:./Libraries/STM32F4xx_HAL_Driver/Src/stm32f4xx_hal_spi.c **** 
 784:./Libraries/STM32F4xx_HAL_Driver/Src/stm32f4xx_hal_spi.c **** #if (USE_SPI_CRC != 0U)
 785:./Libraries/STM32F4xx_HAL_Driver/Src/stm32f4xx_hal_spi.c ****   /* Check if CRC error occurred */
 786:./Libraries/STM32F4xx_HAL_Driver/Src/stm32f4xx_hal_spi.c ****   if(__HAL_SPI_GET_FLAG(hspi, SPI_FLAG_CRCERR))
 1316              		.loc 1 786 6
 1317 02c4 FB68     		ldr	r3, [r7, #12]
 1318 02c6 1B68     		ldr	r3, [r3]
 1319 02c8 9B68     		ldr	r3, [r3, #8]
 1320 02ca 03F01003 		and	r3, r3, #16
 1321              		.loc 1 786 5
 1322 02ce 102B     		cmp	r3, #16
 1323 02d0 0AD1     		bne	.L68
 787:./Libraries/STM32F4xx_HAL_Driver/Src/stm32f4xx_hal_spi.c ****   {
 788:./Libraries/STM32F4xx_HAL_Driver/Src/stm32f4xx_hal_spi.c ****     SET_BIT(hspi->ErrorCode, HAL_SPI_ERROR_CRC);
 1324              		.loc 1 788 5
ARM GAS  /tmp/ccits0mR.s 			page 38


 1325 02d2 FB68     		ldr	r3, [r7, #12]
 1326 02d4 5B6D     		ldr	r3, [r3, #84]
 1327 02d6 43F00202 		orr	r2, r3, #2
 1328 02da FB68     		ldr	r3, [r7, #12]
 1329 02dc 5A65     		str	r2, [r3, #84]
 789:./Libraries/STM32F4xx_HAL_Driver/Src/stm32f4xx_hal_spi.c ****     __HAL_SPI_CLEAR_CRCERRFLAG(hspi);
 1330              		.loc 1 789 5
 1331 02de FB68     		ldr	r3, [r7, #12]
 1332 02e0 1B68     		ldr	r3, [r3]
 1333 02e2 4FF6EF72 		movw	r2, #65519
 1334 02e6 9A60     		str	r2, [r3, #8]
 1335              	.L68:
 790:./Libraries/STM32F4xx_HAL_Driver/Src/stm32f4xx_hal_spi.c ****   }
 791:./Libraries/STM32F4xx_HAL_Driver/Src/stm32f4xx_hal_spi.c **** #endif /* USE_SPI_CRC */
 792:./Libraries/STM32F4xx_HAL_Driver/Src/stm32f4xx_hal_spi.c **** 
 793:./Libraries/STM32F4xx_HAL_Driver/Src/stm32f4xx_hal_spi.c ****   if(hspi->ErrorCode != HAL_SPI_ERROR_NONE)
 1336              		.loc 1 793 10
 1337 02e8 FB68     		ldr	r3, [r7, #12]
 1338 02ea 5B6D     		ldr	r3, [r3, #84]
 1339              		.loc 1 793 5
 1340 02ec 002B     		cmp	r3, #0
 1341 02ee 02D0     		beq	.L69
 794:./Libraries/STM32F4xx_HAL_Driver/Src/stm32f4xx_hal_spi.c ****   {
 795:./Libraries/STM32F4xx_HAL_Driver/Src/stm32f4xx_hal_spi.c ****     errorcode = HAL_ERROR;
 1342              		.loc 1 795 15
 1343 02f0 0123     		movs	r3, #1
 1344 02f2 FB77     		strb	r3, [r7, #31]
 1345 02f4 00E0     		b	.L45
 1346              	.L69:
 796:./Libraries/STM32F4xx_HAL_Driver/Src/stm32f4xx_hal_spi.c ****   }
 797:./Libraries/STM32F4xx_HAL_Driver/Src/stm32f4xx_hal_spi.c **** 
 798:./Libraries/STM32F4xx_HAL_Driver/Src/stm32f4xx_hal_spi.c **** error :
 1347              		.loc 1 798 1
 1348 02f6 00BF     		nop
 1349              	.L45:
 799:./Libraries/STM32F4xx_HAL_Driver/Src/stm32f4xx_hal_spi.c ****   hspi->State = HAL_SPI_STATE_READY;
 1350              		.loc 1 799 15
 1351 02f8 FB68     		ldr	r3, [r7, #12]
 1352 02fa 0122     		movs	r2, #1
 1353 02fc 83F85120 		strb	r2, [r3, #81]
 800:./Libraries/STM32F4xx_HAL_Driver/Src/stm32f4xx_hal_spi.c ****   __HAL_UNLOCK(hspi);
 1354              		.loc 1 800 3
 1355 0300 FB68     		ldr	r3, [r7, #12]
 1356 0302 0022     		movs	r2, #0
 1357 0304 83F85020 		strb	r2, [r3, #80]
 801:./Libraries/STM32F4xx_HAL_Driver/Src/stm32f4xx_hal_spi.c ****   return errorcode;
 1358              		.loc 1 801 10
 1359 0308 FB7F     		ldrb	r3, [r7, #31]	@ zero_extendqisi2
 1360              	.L42:
 802:./Libraries/STM32F4xx_HAL_Driver/Src/stm32f4xx_hal_spi.c **** }
 1361              		.loc 1 802 1
 1362 030a 1846     		mov	r0, r3
 1363 030c 2037     		adds	r7, r7, #32
 1364              	.LCFI30:
 1365              		.cfi_def_cfa_offset 8
 1366 030e BD46     		mov	sp, r7
 1367              	.LCFI31:
ARM GAS  /tmp/ccits0mR.s 			page 39


 1368              		.cfi_def_cfa_register 13
 1369              		@ sp needed
 1370 0310 80BD     		pop	{r7, pc}
 1371              		.cfi_endproc
 1372              	.LFE131:
 1374              		.section	.text.HAL_SPI_TransmitReceive,"ax",%progbits
 1375              		.align	1
 1376              		.global	HAL_SPI_TransmitReceive
 1377              		.syntax unified
 1378              		.thumb
 1379              		.thumb_func
 1380              		.fpu fpv4-sp-d16
 1382              	HAL_SPI_TransmitReceive:
 1383              	.LFB132:
 803:./Libraries/STM32F4xx_HAL_Driver/Src/stm32f4xx_hal_spi.c **** 
 804:./Libraries/STM32F4xx_HAL_Driver/Src/stm32f4xx_hal_spi.c **** /**
 805:./Libraries/STM32F4xx_HAL_Driver/Src/stm32f4xx_hal_spi.c ****   * @brief  Transmit and Receive an amount of data in blocking mode.
 806:./Libraries/STM32F4xx_HAL_Driver/Src/stm32f4xx_hal_spi.c ****   * @param  hspi pointer to a SPI_HandleTypeDef structure that contains
 807:./Libraries/STM32F4xx_HAL_Driver/Src/stm32f4xx_hal_spi.c ****   *               the configuration information for SPI module.
 808:./Libraries/STM32F4xx_HAL_Driver/Src/stm32f4xx_hal_spi.c ****   * @param  pTxData pointer to transmission data buffer
 809:./Libraries/STM32F4xx_HAL_Driver/Src/stm32f4xx_hal_spi.c ****   * @param  pRxData pointer to reception data buffer
 810:./Libraries/STM32F4xx_HAL_Driver/Src/stm32f4xx_hal_spi.c ****   * @param  Size amount of data to be sent and received
 811:./Libraries/STM32F4xx_HAL_Driver/Src/stm32f4xx_hal_spi.c ****   * @param  Timeout Timeout duration
 812:./Libraries/STM32F4xx_HAL_Driver/Src/stm32f4xx_hal_spi.c ****   * @retval HAL status
 813:./Libraries/STM32F4xx_HAL_Driver/Src/stm32f4xx_hal_spi.c ****   */
 814:./Libraries/STM32F4xx_HAL_Driver/Src/stm32f4xx_hal_spi.c **** HAL_StatusTypeDef HAL_SPI_TransmitReceive(SPI_HandleTypeDef *hspi, uint8_t *pTxData, uint8_t *pRxDa
 815:./Libraries/STM32F4xx_HAL_Driver/Src/stm32f4xx_hal_spi.c **** {
 1384              		.loc 1 815 1
 1385              		.cfi_startproc
 1386              		@ args = 4, pretend = 0, frame = 48
 1387              		@ frame_needed = 1, uses_anonymous_args = 0
 1388 0000 80B5     		push	{r7, lr}
 1389              	.LCFI32:
 1390              		.cfi_def_cfa_offset 8
 1391              		.cfi_offset 7, -8
 1392              		.cfi_offset 14, -4
 1393 0002 8EB0     		sub	sp, sp, #56
 1394              	.LCFI33:
 1395              		.cfi_def_cfa_offset 64
 1396 0004 02AF     		add	r7, sp, #8
 1397              	.LCFI34:
 1398              		.cfi_def_cfa 7, 56
 1399 0006 F860     		str	r0, [r7, #12]
 1400 0008 B960     		str	r1, [r7, #8]
 1401 000a 7A60     		str	r2, [r7, #4]
 1402 000c 7B80     		strh	r3, [r7, #2]	@ movhi
 816:./Libraries/STM32F4xx_HAL_Driver/Src/stm32f4xx_hal_spi.c ****   uint32_t tmp = 0U, tmp1 = 0U;
 1403              		.loc 1 816 12
 1404 000e 0023     		movs	r3, #0
 1405 0010 7B62     		str	r3, [r7, #36]
 1406              		.loc 1 816 22
 1407 0012 0023     		movs	r3, #0
 1408 0014 3B62     		str	r3, [r7, #32]
 817:./Libraries/STM32F4xx_HAL_Driver/Src/stm32f4xx_hal_spi.c **** #if (USE_SPI_CRC != 0U)
 818:./Libraries/STM32F4xx_HAL_Driver/Src/stm32f4xx_hal_spi.c ****   __IO uint16_t tmpreg1 = 0U;
 1409              		.loc 1 818 17
 1410 0016 0023     		movs	r3, #0
ARM GAS  /tmp/ccits0mR.s 			page 40


 1411 0018 7B83     		strh	r3, [r7, #26]	@ movhi
 819:./Libraries/STM32F4xx_HAL_Driver/Src/stm32f4xx_hal_spi.c **** #endif /* USE_SPI_CRC */
 820:./Libraries/STM32F4xx_HAL_Driver/Src/stm32f4xx_hal_spi.c ****   uint32_t tickstart = 0U;
 1412              		.loc 1 820 12
 1413 001a 0023     		movs	r3, #0
 1414 001c FB61     		str	r3, [r7, #28]
 821:./Libraries/STM32F4xx_HAL_Driver/Src/stm32f4xx_hal_spi.c ****   /* Variable used to alternate Rx and Tx during transfer */
 822:./Libraries/STM32F4xx_HAL_Driver/Src/stm32f4xx_hal_spi.c ****   uint32_t txallowed = 1U;
 1415              		.loc 1 822 12
 1416 001e 0123     		movs	r3, #1
 1417 0020 FB62     		str	r3, [r7, #44]
 823:./Libraries/STM32F4xx_HAL_Driver/Src/stm32f4xx_hal_spi.c ****   HAL_StatusTypeDef errorcode = HAL_OK;
 1418              		.loc 1 823 21
 1419 0022 0023     		movs	r3, #0
 1420 0024 87F82B30 		strb	r3, [r7, #43]
 824:./Libraries/STM32F4xx_HAL_Driver/Src/stm32f4xx_hal_spi.c **** 
 825:./Libraries/STM32F4xx_HAL_Driver/Src/stm32f4xx_hal_spi.c ****   /* Check Direction parameter */
 826:./Libraries/STM32F4xx_HAL_Driver/Src/stm32f4xx_hal_spi.c ****   assert_param(IS_SPI_DIRECTION_2LINES(hspi->Init.Direction));
 827:./Libraries/STM32F4xx_HAL_Driver/Src/stm32f4xx_hal_spi.c **** 
 828:./Libraries/STM32F4xx_HAL_Driver/Src/stm32f4xx_hal_spi.c ****   /* Process Locked */
 829:./Libraries/STM32F4xx_HAL_Driver/Src/stm32f4xx_hal_spi.c ****   __HAL_LOCK(hspi);
 1421              		.loc 1 829 3
 1422 0028 FB68     		ldr	r3, [r7, #12]
 1423 002a 93F85030 		ldrb	r3, [r3, #80]	@ zero_extendqisi2
 1424 002e 012B     		cmp	r3, #1
 1425 0030 01D1     		bne	.L71
 1426              		.loc 1 829 3 is_stmt 0 discriminator 1
 1427 0032 0223     		movs	r3, #2
 1428 0034 F2E1     		b	.L72
 1429              	.L71:
 1430              		.loc 1 829 3 discriminator 2
 1431 0036 FB68     		ldr	r3, [r7, #12]
 1432 0038 0122     		movs	r2, #1
 1433 003a 83F85020 		strb	r2, [r3, #80]
 830:./Libraries/STM32F4xx_HAL_Driver/Src/stm32f4xx_hal_spi.c **** 
 831:./Libraries/STM32F4xx_HAL_Driver/Src/stm32f4xx_hal_spi.c ****   /* Init tickstart for timeout management*/
 832:./Libraries/STM32F4xx_HAL_Driver/Src/stm32f4xx_hal_spi.c ****   tickstart = HAL_GetTick();
 1434              		.loc 1 832 15 is_stmt 1 discriminator 2
 1435 003e FFF7FEFF 		bl	HAL_GetTick
 1436 0042 F861     		str	r0, [r7, #28]
 833:./Libraries/STM32F4xx_HAL_Driver/Src/stm32f4xx_hal_spi.c ****   
 834:./Libraries/STM32F4xx_HAL_Driver/Src/stm32f4xx_hal_spi.c ****   tmp  = hspi->State;
 1437              		.loc 1 834 14 discriminator 2
 1438 0044 FB68     		ldr	r3, [r7, #12]
 1439 0046 93F85130 		ldrb	r3, [r3, #81]
 1440 004a DBB2     		uxtb	r3, r3
 1441              		.loc 1 834 8 discriminator 2
 1442 004c 7B62     		str	r3, [r7, #36]
 835:./Libraries/STM32F4xx_HAL_Driver/Src/stm32f4xx_hal_spi.c ****   tmp1 = hspi->Init.Mode;
 1443              		.loc 1 835 8 discriminator 2
 1444 004e FB68     		ldr	r3, [r7, #12]
 1445 0050 5B68     		ldr	r3, [r3, #4]
 1446 0052 3B62     		str	r3, [r7, #32]
 836:./Libraries/STM32F4xx_HAL_Driver/Src/stm32f4xx_hal_spi.c ****   
 837:./Libraries/STM32F4xx_HAL_Driver/Src/stm32f4xx_hal_spi.c ****   if(!((tmp == HAL_SPI_STATE_READY) || \
 1447              		.loc 1 837 5 discriminator 2
 1448 0054 7B6A     		ldr	r3, [r7, #36]
ARM GAS  /tmp/ccits0mR.s 			page 41


 1449 0056 012B     		cmp	r3, #1
 1450 0058 0ED0     		beq	.L73
 1451              		.loc 1 837 6 discriminator 1
 1452 005a 3B6A     		ldr	r3, [r7, #32]
 1453 005c B3F5827F 		cmp	r3, #260
 1454 0060 06D1     		bne	.L74
 838:./Libraries/STM32F4xx_HAL_Driver/Src/stm32f4xx_hal_spi.c ****     ((tmp1 == SPI_MODE_MASTER) && (hspi->Init.Direction == SPI_DIRECTION_2LINES) && (tmp == HAL_SPI
 1455              		.loc 1 838 46
 1456 0062 FB68     		ldr	r3, [r7, #12]
 1457 0064 9B68     		ldr	r3, [r3, #8]
 1458              		.loc 1 838 32
 1459 0066 002B     		cmp	r3, #0
 1460 0068 02D1     		bne	.L74
 1461              		.loc 1 838 82 discriminator 1
 1462 006a 7B6A     		ldr	r3, [r7, #36]
 1463 006c 042B     		cmp	r3, #4
 1464 006e 03D0     		beq	.L73
 1465              	.L74:
 839:./Libraries/STM32F4xx_HAL_Driver/Src/stm32f4xx_hal_spi.c ****   {
 840:./Libraries/STM32F4xx_HAL_Driver/Src/stm32f4xx_hal_spi.c ****     errorcode = HAL_BUSY;
 1466              		.loc 1 840 15
 1467 0070 0223     		movs	r3, #2
 1468 0072 87F82B30 		strb	r3, [r7, #43]
 841:./Libraries/STM32F4xx_HAL_Driver/Src/stm32f4xx_hal_spi.c ****     goto error;
 1469              		.loc 1 841 5
 1470 0076 C7E1     		b	.L75
 1471              	.L73:
 842:./Libraries/STM32F4xx_HAL_Driver/Src/stm32f4xx_hal_spi.c ****   }
 843:./Libraries/STM32F4xx_HAL_Driver/Src/stm32f4xx_hal_spi.c **** 
 844:./Libraries/STM32F4xx_HAL_Driver/Src/stm32f4xx_hal_spi.c ****   if((pTxData == NULL) || (pRxData == NULL) || (Size == 0))
 1472              		.loc 1 844 5
 1473 0078 BB68     		ldr	r3, [r7, #8]
 1474 007a 002B     		cmp	r3, #0
 1475 007c 05D0     		beq	.L76
 1476              		.loc 1 844 24 discriminator 1
 1477 007e 7B68     		ldr	r3, [r7, #4]
 1478 0080 002B     		cmp	r3, #0
 1479 0082 02D0     		beq	.L76
 1480              		.loc 1 844 45 discriminator 2
 1481 0084 7B88     		ldrh	r3, [r7, #2]
 1482 0086 002B     		cmp	r3, #0
 1483 0088 03D1     		bne	.L77
 1484              	.L76:
 845:./Libraries/STM32F4xx_HAL_Driver/Src/stm32f4xx_hal_spi.c ****   {
 846:./Libraries/STM32F4xx_HAL_Driver/Src/stm32f4xx_hal_spi.c ****     errorcode = HAL_ERROR;
 1485              		.loc 1 846 15
 1486 008a 0123     		movs	r3, #1
 1487 008c 87F82B30 		strb	r3, [r7, #43]
 847:./Libraries/STM32F4xx_HAL_Driver/Src/stm32f4xx_hal_spi.c ****     goto error;
 1488              		.loc 1 847 5
 1489 0090 BAE1     		b	.L75
 1490              	.L77:
 848:./Libraries/STM32F4xx_HAL_Driver/Src/stm32f4xx_hal_spi.c ****   }
 849:./Libraries/STM32F4xx_HAL_Driver/Src/stm32f4xx_hal_spi.c **** 
 850:./Libraries/STM32F4xx_HAL_Driver/Src/stm32f4xx_hal_spi.c ****   /* Don't overwrite in case of HAL_SPI_STATE_BUSY_RX */
 851:./Libraries/STM32F4xx_HAL_Driver/Src/stm32f4xx_hal_spi.c ****   if(hspi->State == HAL_SPI_STATE_READY)
 1491              		.loc 1 851 10
ARM GAS  /tmp/ccits0mR.s 			page 42


 1492 0092 FB68     		ldr	r3, [r7, #12]
 1493 0094 93F85130 		ldrb	r3, [r3, #81]
 1494 0098 DBB2     		uxtb	r3, r3
 1495              		.loc 1 851 5
 1496 009a 012B     		cmp	r3, #1
 1497 009c 03D1     		bne	.L78
 852:./Libraries/STM32F4xx_HAL_Driver/Src/stm32f4xx_hal_spi.c ****   {
 853:./Libraries/STM32F4xx_HAL_Driver/Src/stm32f4xx_hal_spi.c ****     hspi->State = HAL_SPI_STATE_BUSY_TX_RX;
 1498              		.loc 1 853 17
 1499 009e FB68     		ldr	r3, [r7, #12]
 1500 00a0 0522     		movs	r2, #5
 1501 00a2 83F85120 		strb	r2, [r3, #81]
 1502              	.L78:
 854:./Libraries/STM32F4xx_HAL_Driver/Src/stm32f4xx_hal_spi.c ****   }
 855:./Libraries/STM32F4xx_HAL_Driver/Src/stm32f4xx_hal_spi.c **** 
 856:./Libraries/STM32F4xx_HAL_Driver/Src/stm32f4xx_hal_spi.c ****   /* Set the transaction information */
 857:./Libraries/STM32F4xx_HAL_Driver/Src/stm32f4xx_hal_spi.c ****   hspi->ErrorCode   = HAL_SPI_ERROR_NONE;
 1503              		.loc 1 857 21
 1504 00a6 FB68     		ldr	r3, [r7, #12]
 1505 00a8 0022     		movs	r2, #0
 1506 00aa 5A65     		str	r2, [r3, #84]
 858:./Libraries/STM32F4xx_HAL_Driver/Src/stm32f4xx_hal_spi.c ****   hspi->pRxBuffPtr  = (uint8_t *)pRxData;
 1507              		.loc 1 858 21
 1508 00ac FB68     		ldr	r3, [r7, #12]
 1509 00ae 7A68     		ldr	r2, [r7, #4]
 1510 00b0 9A63     		str	r2, [r3, #56]
 859:./Libraries/STM32F4xx_HAL_Driver/Src/stm32f4xx_hal_spi.c ****   hspi->RxXferCount = Size;
 1511              		.loc 1 859 21
 1512 00b2 FB68     		ldr	r3, [r7, #12]
 1513 00b4 7A88     		ldrh	r2, [r7, #2]	@ movhi
 1514 00b6 DA87     		strh	r2, [r3, #62]	@ movhi
 860:./Libraries/STM32F4xx_HAL_Driver/Src/stm32f4xx_hal_spi.c ****   hspi->RxXferSize  = Size;
 1515              		.loc 1 860 21
 1516 00b8 FB68     		ldr	r3, [r7, #12]
 1517 00ba 7A88     		ldrh	r2, [r7, #2]	@ movhi
 1518 00bc 9A87     		strh	r2, [r3, #60]	@ movhi
 861:./Libraries/STM32F4xx_HAL_Driver/Src/stm32f4xx_hal_spi.c ****   hspi->pTxBuffPtr  = (uint8_t *)pTxData;
 1519              		.loc 1 861 21
 1520 00be FB68     		ldr	r3, [r7, #12]
 1521 00c0 BA68     		ldr	r2, [r7, #8]
 1522 00c2 1A63     		str	r2, [r3, #48]
 862:./Libraries/STM32F4xx_HAL_Driver/Src/stm32f4xx_hal_spi.c ****   hspi->TxXferCount = Size;
 1523              		.loc 1 862 21
 1524 00c4 FB68     		ldr	r3, [r7, #12]
 1525 00c6 7A88     		ldrh	r2, [r7, #2]	@ movhi
 1526 00c8 DA86     		strh	r2, [r3, #54]	@ movhi
 863:./Libraries/STM32F4xx_HAL_Driver/Src/stm32f4xx_hal_spi.c ****   hspi->TxXferSize  = Size;
 1527              		.loc 1 863 21
 1528 00ca FB68     		ldr	r3, [r7, #12]
 1529 00cc 7A88     		ldrh	r2, [r7, #2]	@ movhi
 1530 00ce 9A86     		strh	r2, [r3, #52]	@ movhi
 864:./Libraries/STM32F4xx_HAL_Driver/Src/stm32f4xx_hal_spi.c **** 
 865:./Libraries/STM32F4xx_HAL_Driver/Src/stm32f4xx_hal_spi.c ****   /*Init field not used in handle to zero */
 866:./Libraries/STM32F4xx_HAL_Driver/Src/stm32f4xx_hal_spi.c ****   hspi->RxISR       = NULL;
 1531              		.loc 1 866 21
 1532 00d0 FB68     		ldr	r3, [r7, #12]
 1533 00d2 0022     		movs	r2, #0
ARM GAS  /tmp/ccits0mR.s 			page 43


 1534 00d4 1A64     		str	r2, [r3, #64]
 867:./Libraries/STM32F4xx_HAL_Driver/Src/stm32f4xx_hal_spi.c ****   hspi->TxISR       = NULL;
 1535              		.loc 1 867 21
 1536 00d6 FB68     		ldr	r3, [r7, #12]
 1537 00d8 0022     		movs	r2, #0
 1538 00da 5A64     		str	r2, [r3, #68]
 868:./Libraries/STM32F4xx_HAL_Driver/Src/stm32f4xx_hal_spi.c **** 
 869:./Libraries/STM32F4xx_HAL_Driver/Src/stm32f4xx_hal_spi.c **** #if (USE_SPI_CRC != 0U)
 870:./Libraries/STM32F4xx_HAL_Driver/Src/stm32f4xx_hal_spi.c ****   /* Reset CRC Calculation */
 871:./Libraries/STM32F4xx_HAL_Driver/Src/stm32f4xx_hal_spi.c ****   if(hspi->Init.CRCCalculation == SPI_CRCCALCULATION_ENABLE)
 1539              		.loc 1 871 16
 1540 00dc FB68     		ldr	r3, [r7, #12]
 1541 00de 9B6A     		ldr	r3, [r3, #40]
 1542              		.loc 1 871 5
 1543 00e0 B3F5005F 		cmp	r3, #8192
 1544 00e4 10D1     		bne	.L79
 872:./Libraries/STM32F4xx_HAL_Driver/Src/stm32f4xx_hal_spi.c ****   {
 873:./Libraries/STM32F4xx_HAL_Driver/Src/stm32f4xx_hal_spi.c ****     SPI_RESET_CRC(hspi);
 1545              		.loc 1 873 5
 1546 00e6 FB68     		ldr	r3, [r7, #12]
 1547 00e8 1B68     		ldr	r3, [r3]
 1548 00ea 1968     		ldr	r1, [r3]
 1549 00ec FB68     		ldr	r3, [r7, #12]
 1550 00ee 1A68     		ldr	r2, [r3]
 1551 00f0 4DF6FF73 		movw	r3, #57343
 1552 00f4 0B40     		ands	r3, r3, r1
 1553 00f6 1360     		str	r3, [r2]
 1554 00f8 FB68     		ldr	r3, [r7, #12]
 1555 00fa 1B68     		ldr	r3, [r3]
 1556 00fc 1A68     		ldr	r2, [r3]
 1557 00fe FB68     		ldr	r3, [r7, #12]
 1558 0100 1B68     		ldr	r3, [r3]
 1559 0102 42F40052 		orr	r2, r2, #8192
 1560 0106 1A60     		str	r2, [r3]
 1561              	.L79:
 874:./Libraries/STM32F4xx_HAL_Driver/Src/stm32f4xx_hal_spi.c ****   }
 875:./Libraries/STM32F4xx_HAL_Driver/Src/stm32f4xx_hal_spi.c **** #endif /* USE_SPI_CRC */
 876:./Libraries/STM32F4xx_HAL_Driver/Src/stm32f4xx_hal_spi.c **** 
 877:./Libraries/STM32F4xx_HAL_Driver/Src/stm32f4xx_hal_spi.c ****   /* Check if the SPI is already enabled */
 878:./Libraries/STM32F4xx_HAL_Driver/Src/stm32f4xx_hal_spi.c ****   if((hspi->Instance->CR1 &SPI_CR1_SPE) != SPI_CR1_SPE)
 1562              		.loc 1 878 11
 1563 0108 FB68     		ldr	r3, [r7, #12]
 1564 010a 1B68     		ldr	r3, [r3]
 1565              		.loc 1 878 21
 1566 010c 1B68     		ldr	r3, [r3]
 1567              		.loc 1 878 27
 1568 010e 03F04003 		and	r3, r3, #64
 1569              		.loc 1 878 5
 1570 0112 402B     		cmp	r3, #64
 1571 0114 07D0     		beq	.L80
 879:./Libraries/STM32F4xx_HAL_Driver/Src/stm32f4xx_hal_spi.c ****   {
 880:./Libraries/STM32F4xx_HAL_Driver/Src/stm32f4xx_hal_spi.c ****     /* Enable SPI peripheral */
 881:./Libraries/STM32F4xx_HAL_Driver/Src/stm32f4xx_hal_spi.c ****     __HAL_SPI_ENABLE(hspi);
 1572              		.loc 1 881 5
 1573 0116 FB68     		ldr	r3, [r7, #12]
 1574 0118 1B68     		ldr	r3, [r3]
 1575 011a 1A68     		ldr	r2, [r3]
ARM GAS  /tmp/ccits0mR.s 			page 44


 1576 011c FB68     		ldr	r3, [r7, #12]
 1577 011e 1B68     		ldr	r3, [r3]
 1578 0120 42F04002 		orr	r2, r2, #64
 1579 0124 1A60     		str	r2, [r3]
 1580              	.L80:
 882:./Libraries/STM32F4xx_HAL_Driver/Src/stm32f4xx_hal_spi.c ****   }
 883:./Libraries/STM32F4xx_HAL_Driver/Src/stm32f4xx_hal_spi.c **** 
 884:./Libraries/STM32F4xx_HAL_Driver/Src/stm32f4xx_hal_spi.c ****   /* Transmit and Receive data in 16 Bit mode */
 885:./Libraries/STM32F4xx_HAL_Driver/Src/stm32f4xx_hal_spi.c ****   if(hspi->Init.DataSize == SPI_DATASIZE_16BIT)
 1581              		.loc 1 885 16
 1582 0126 FB68     		ldr	r3, [r7, #12]
 1583 0128 DB68     		ldr	r3, [r3, #12]
 1584              		.loc 1 885 5
 1585 012a B3F5006F 		cmp	r3, #2048
 1586 012e 40F08480 		bne	.L81
 886:./Libraries/STM32F4xx_HAL_Driver/Src/stm32f4xx_hal_spi.c ****   {
 887:./Libraries/STM32F4xx_HAL_Driver/Src/stm32f4xx_hal_spi.c ****     if((hspi->Init.Mode == SPI_MODE_SLAVE) || (hspi->TxXferCount == 0x01U))
 1587              		.loc 1 887 19
 1588 0132 FB68     		ldr	r3, [r7, #12]
 1589 0134 5B68     		ldr	r3, [r3, #4]
 1590              		.loc 1 887 7
 1591 0136 002B     		cmp	r3, #0
 1592 0138 04D0     		beq	.L82
 1593              		.loc 1 887 52 discriminator 1
 1594 013a FB68     		ldr	r3, [r7, #12]
 1595 013c DB8E     		ldrh	r3, [r3, #54]	@ movhi
 1596 013e 9BB2     		uxth	r3, r3
 1597              		.loc 1 887 44 discriminator 1
 1598 0140 012B     		cmp	r3, #1
 1599 0142 6FD1     		bne	.L84
 1600              	.L82:
 888:./Libraries/STM32F4xx_HAL_Driver/Src/stm32f4xx_hal_spi.c ****     {
 889:./Libraries/STM32F4xx_HAL_Driver/Src/stm32f4xx_hal_spi.c ****       hspi->Instance->DR = *((uint16_t *)pTxData);
 1601              		.loc 1 889 28
 1602 0144 BB68     		ldr	r3, [r7, #8]
 1603 0146 1A88     		ldrh	r2, [r3]
 1604              		.loc 1 889 11
 1605 0148 FB68     		ldr	r3, [r7, #12]
 1606 014a 1B68     		ldr	r3, [r3]
 1607              		.loc 1 889 26
 1608 014c DA60     		str	r2, [r3, #12]
 890:./Libraries/STM32F4xx_HAL_Driver/Src/stm32f4xx_hal_spi.c ****       pTxData += sizeof(uint16_t);
 1609              		.loc 1 890 15
 1610 014e BB68     		ldr	r3, [r7, #8]
 1611 0150 0233     		adds	r3, r3, #2
 1612 0152 BB60     		str	r3, [r7, #8]
 891:./Libraries/STM32F4xx_HAL_Driver/Src/stm32f4xx_hal_spi.c ****       hspi->TxXferCount--;
 1613              		.loc 1 891 11
 1614 0154 FB68     		ldr	r3, [r7, #12]
 1615 0156 DB8E     		ldrh	r3, [r3, #54]	@ movhi
 1616 0158 9BB2     		uxth	r3, r3
 1617              		.loc 1 891 24
 1618 015a 013B     		subs	r3, r3, #1
 1619 015c 9AB2     		uxth	r2, r3
 1620 015e FB68     		ldr	r3, [r7, #12]
 1621 0160 DA86     		strh	r2, [r3, #54]	@ movhi
 892:./Libraries/STM32F4xx_HAL_Driver/Src/stm32f4xx_hal_spi.c ****     }
ARM GAS  /tmp/ccits0mR.s 			page 45


 893:./Libraries/STM32F4xx_HAL_Driver/Src/stm32f4xx_hal_spi.c ****     while ((hspi->TxXferCount > 0U) || (hspi->RxXferCount > 0U))
 1622              		.loc 1 893 11
 1623 0162 5FE0     		b	.L84
 1624              	.L87:
 894:./Libraries/STM32F4xx_HAL_Driver/Src/stm32f4xx_hal_spi.c ****     {
 895:./Libraries/STM32F4xx_HAL_Driver/Src/stm32f4xx_hal_spi.c ****       /* Check TXE flag */
 896:./Libraries/STM32F4xx_HAL_Driver/Src/stm32f4xx_hal_spi.c ****       if(txallowed && (hspi->TxXferCount > 0U) && (__HAL_SPI_GET_FLAG(hspi, SPI_FLAG_TXE)))
 1625              		.loc 1 896 9
 1626 0164 FB6A     		ldr	r3, [r7, #44]
 1627 0166 002B     		cmp	r3, #0
 1628 0168 2ED0     		beq	.L85
 1629              		.loc 1 896 28 discriminator 1
 1630 016a FB68     		ldr	r3, [r7, #12]
 1631 016c DB8E     		ldrh	r3, [r3, #54]	@ movhi
 1632 016e 9BB2     		uxth	r3, r3
 1633              		.loc 1 896 20 discriminator 1
 1634 0170 002B     		cmp	r3, #0
 1635 0172 29D0     		beq	.L85
 1636              		.loc 1 896 52 discriminator 2
 1637 0174 FB68     		ldr	r3, [r7, #12]
 1638 0176 1B68     		ldr	r3, [r3]
 1639 0178 9B68     		ldr	r3, [r3, #8]
 1640 017a 03F00203 		and	r3, r3, #2
 1641              		.loc 1 896 48 discriminator 2
 1642 017e 022B     		cmp	r3, #2
 1643 0180 22D1     		bne	.L85
 897:./Libraries/STM32F4xx_HAL_Driver/Src/stm32f4xx_hal_spi.c ****       {
 898:./Libraries/STM32F4xx_HAL_Driver/Src/stm32f4xx_hal_spi.c ****         hspi->Instance->DR = *((uint16_t *)pTxData);
 1644              		.loc 1 898 30
 1645 0182 BB68     		ldr	r3, [r7, #8]
 1646 0184 1A88     		ldrh	r2, [r3]
 1647              		.loc 1 898 13
 1648 0186 FB68     		ldr	r3, [r7, #12]
 1649 0188 1B68     		ldr	r3, [r3]
 1650              		.loc 1 898 28
 1651 018a DA60     		str	r2, [r3, #12]
 899:./Libraries/STM32F4xx_HAL_Driver/Src/stm32f4xx_hal_spi.c ****         pTxData += sizeof(uint16_t);
 1652              		.loc 1 899 17
 1653 018c BB68     		ldr	r3, [r7, #8]
 1654 018e 0233     		adds	r3, r3, #2
 1655 0190 BB60     		str	r3, [r7, #8]
 900:./Libraries/STM32F4xx_HAL_Driver/Src/stm32f4xx_hal_spi.c ****         hspi->TxXferCount--;
 1656              		.loc 1 900 13
 1657 0192 FB68     		ldr	r3, [r7, #12]
 1658 0194 DB8E     		ldrh	r3, [r3, #54]	@ movhi
 1659 0196 9BB2     		uxth	r3, r3
 1660              		.loc 1 900 26
 1661 0198 013B     		subs	r3, r3, #1
 1662 019a 9AB2     		uxth	r2, r3
 1663 019c FB68     		ldr	r3, [r7, #12]
 1664 019e DA86     		strh	r2, [r3, #54]	@ movhi
 901:./Libraries/STM32F4xx_HAL_Driver/Src/stm32f4xx_hal_spi.c ****         /* Next Data is a reception (Rx). Tx not allowed */ 
 902:./Libraries/STM32F4xx_HAL_Driver/Src/stm32f4xx_hal_spi.c ****         txallowed = 0U;
 1665              		.loc 1 902 19
 1666 01a0 0023     		movs	r3, #0
 1667 01a2 FB62     		str	r3, [r7, #44]
 903:./Libraries/STM32F4xx_HAL_Driver/Src/stm32f4xx_hal_spi.c **** 
ARM GAS  /tmp/ccits0mR.s 			page 46


 904:./Libraries/STM32F4xx_HAL_Driver/Src/stm32f4xx_hal_spi.c **** #if (USE_SPI_CRC != 0U)
 905:./Libraries/STM32F4xx_HAL_Driver/Src/stm32f4xx_hal_spi.c ****         /* Enable CRC Transmission */
 906:./Libraries/STM32F4xx_HAL_Driver/Src/stm32f4xx_hal_spi.c ****         if((hspi->TxXferCount == 0U) && (hspi->Init.CRCCalculation == SPI_CRCCALCULATION_ENABLE))
 1668              		.loc 1 906 17
 1669 01a4 FB68     		ldr	r3, [r7, #12]
 1670 01a6 DB8E     		ldrh	r3, [r3, #54]	@ movhi
 1671 01a8 9BB2     		uxth	r3, r3
 1672              		.loc 1 906 11
 1673 01aa 002B     		cmp	r3, #0
 1674 01ac 0CD1     		bne	.L85
 1675              		.loc 1 906 52 discriminator 1
 1676 01ae FB68     		ldr	r3, [r7, #12]
 1677 01b0 9B6A     		ldr	r3, [r3, #40]
 1678              		.loc 1 906 38 discriminator 1
 1679 01b2 B3F5005F 		cmp	r3, #8192
 1680 01b6 07D1     		bne	.L85
 907:./Libraries/STM32F4xx_HAL_Driver/Src/stm32f4xx_hal_spi.c ****         {
 908:./Libraries/STM32F4xx_HAL_Driver/Src/stm32f4xx_hal_spi.c ****           SET_BIT(hspi->Instance->CR1, SPI_CR1_CRCNEXT);
 1681              		.loc 1 908 11
 1682 01b8 FB68     		ldr	r3, [r7, #12]
 1683 01ba 1B68     		ldr	r3, [r3]
 1684 01bc 1A68     		ldr	r2, [r3]
 1685 01be FB68     		ldr	r3, [r7, #12]
 1686 01c0 1B68     		ldr	r3, [r3]
 1687 01c2 42F48052 		orr	r2, r2, #4096
 1688 01c6 1A60     		str	r2, [r3]
 1689              	.L85:
 909:./Libraries/STM32F4xx_HAL_Driver/Src/stm32f4xx_hal_spi.c ****         }
 910:./Libraries/STM32F4xx_HAL_Driver/Src/stm32f4xx_hal_spi.c **** #endif /* USE_SPI_CRC */
 911:./Libraries/STM32F4xx_HAL_Driver/Src/stm32f4xx_hal_spi.c ****       }
 912:./Libraries/STM32F4xx_HAL_Driver/Src/stm32f4xx_hal_spi.c **** 
 913:./Libraries/STM32F4xx_HAL_Driver/Src/stm32f4xx_hal_spi.c ****       /* Check RXNE flag */
 914:./Libraries/STM32F4xx_HAL_Driver/Src/stm32f4xx_hal_spi.c ****       if((hspi->RxXferCount > 0U) && (__HAL_SPI_GET_FLAG(hspi, SPI_FLAG_RXNE)))
 1690              		.loc 1 914 15
 1691 01c8 FB68     		ldr	r3, [r7, #12]
 1692 01ca DB8F     		ldrh	r3, [r3, #62]	@ movhi
 1693 01cc 9BB2     		uxth	r3, r3
 1694              		.loc 1 914 9
 1695 01ce 002B     		cmp	r3, #0
 1696 01d0 18D0     		beq	.L86
 1697              		.loc 1 914 39 discriminator 1
 1698 01d2 FB68     		ldr	r3, [r7, #12]
 1699 01d4 1B68     		ldr	r3, [r3]
 1700 01d6 9B68     		ldr	r3, [r3, #8]
 1701 01d8 03F00103 		and	r3, r3, #1
 1702              		.loc 1 914 35 discriminator 1
 1703 01dc 012B     		cmp	r3, #1
 1704 01de 11D1     		bne	.L86
 915:./Libraries/STM32F4xx_HAL_Driver/Src/stm32f4xx_hal_spi.c ****       {
 916:./Libraries/STM32F4xx_HAL_Driver/Src/stm32f4xx_hal_spi.c ****         *((uint16_t *)pRxData) = hspi->Instance->DR;
 1705              		.loc 1 916 38
 1706 01e0 FB68     		ldr	r3, [r7, #12]
 1707 01e2 1B68     		ldr	r3, [r3]
 1708              		.loc 1 916 48
 1709 01e4 DB68     		ldr	r3, [r3, #12]
 1710              		.loc 1 916 32
 1711 01e6 9AB2     		uxth	r2, r3
ARM GAS  /tmp/ccits0mR.s 			page 47


 1712 01e8 7B68     		ldr	r3, [r7, #4]
 1713 01ea 1A80     		strh	r2, [r3]	@ movhi
 917:./Libraries/STM32F4xx_HAL_Driver/Src/stm32f4xx_hal_spi.c ****         pRxData += sizeof(uint16_t);
 1714              		.loc 1 917 17
 1715 01ec 7B68     		ldr	r3, [r7, #4]
 1716 01ee 0233     		adds	r3, r3, #2
 1717 01f0 7B60     		str	r3, [r7, #4]
 918:./Libraries/STM32F4xx_HAL_Driver/Src/stm32f4xx_hal_spi.c ****         hspi->RxXferCount--;
 1718              		.loc 1 918 13
 1719 01f2 FB68     		ldr	r3, [r7, #12]
 1720 01f4 DB8F     		ldrh	r3, [r3, #62]	@ movhi
 1721 01f6 9BB2     		uxth	r3, r3
 1722              		.loc 1 918 26
 1723 01f8 013B     		subs	r3, r3, #1
 1724 01fa 9AB2     		uxth	r2, r3
 1725 01fc FB68     		ldr	r3, [r7, #12]
 1726 01fe DA87     		strh	r2, [r3, #62]	@ movhi
 919:./Libraries/STM32F4xx_HAL_Driver/Src/stm32f4xx_hal_spi.c ****         /* Next Data is a Transmission (Tx). Tx is allowed */ 
 920:./Libraries/STM32F4xx_HAL_Driver/Src/stm32f4xx_hal_spi.c ****         txallowed = 1U;
 1727              		.loc 1 920 19
 1728 0200 0123     		movs	r3, #1
 1729 0202 FB62     		str	r3, [r7, #44]
 1730              	.L86:
 921:./Libraries/STM32F4xx_HAL_Driver/Src/stm32f4xx_hal_spi.c ****       }
 922:./Libraries/STM32F4xx_HAL_Driver/Src/stm32f4xx_hal_spi.c ****       if((Timeout != HAL_MAX_DELAY) && ((HAL_GetTick()-tickstart) >=  Timeout))
 1731              		.loc 1 922 9
 1732 0204 BB6B     		ldr	r3, [r7, #56]
 1733 0206 B3F1FF3F 		cmp	r3, #-1
 1734 020a 0BD0     		beq	.L84
 1735              		.loc 1 922 42 discriminator 1
 1736 020c FFF7FEFF 		bl	HAL_GetTick
 1737 0210 0246     		mov	r2, r0
 1738              		.loc 1 922 55 discriminator 1
 1739 0212 FB69     		ldr	r3, [r7, #28]
 1740 0214 D31A     		subs	r3, r2, r3
 1741              		.loc 1 922 37 discriminator 1
 1742 0216 BA6B     		ldr	r2, [r7, #56]
 1743 0218 9A42     		cmp	r2, r3
 1744 021a 03D8     		bhi	.L84
 923:./Libraries/STM32F4xx_HAL_Driver/Src/stm32f4xx_hal_spi.c ****       {
 924:./Libraries/STM32F4xx_HAL_Driver/Src/stm32f4xx_hal_spi.c ****         errorcode = HAL_TIMEOUT;
 1745              		.loc 1 924 19
 1746 021c 0323     		movs	r3, #3
 1747 021e 87F82B30 		strb	r3, [r7, #43]
 925:./Libraries/STM32F4xx_HAL_Driver/Src/stm32f4xx_hal_spi.c ****         goto error;
 1748              		.loc 1 925 9
 1749 0222 F1E0     		b	.L75
 1750              	.L84:
 893:./Libraries/STM32F4xx_HAL_Driver/Src/stm32f4xx_hal_spi.c ****     {
 1751              		.loc 1 893 17
 1752 0224 FB68     		ldr	r3, [r7, #12]
 1753 0226 DB8E     		ldrh	r3, [r3, #54]	@ movhi
 1754 0228 9BB2     		uxth	r3, r3
 893:./Libraries/STM32F4xx_HAL_Driver/Src/stm32f4xx_hal_spi.c ****     {
 1755              		.loc 1 893 11
 1756 022a 002B     		cmp	r3, #0
 1757 022c 9AD1     		bne	.L87
ARM GAS  /tmp/ccits0mR.s 			page 48


 893:./Libraries/STM32F4xx_HAL_Driver/Src/stm32f4xx_hal_spi.c ****     {
 1758              		.loc 1 893 45 discriminator 1
 1759 022e FB68     		ldr	r3, [r7, #12]
 1760 0230 DB8F     		ldrh	r3, [r3, #62]	@ movhi
 1761 0232 9BB2     		uxth	r3, r3
 893:./Libraries/STM32F4xx_HAL_Driver/Src/stm32f4xx_hal_spi.c ****     {
 1762              		.loc 1 893 37 discriminator 1
 1763 0234 002B     		cmp	r3, #0
 1764 0236 95D1     		bne	.L87
 1765 0238 82E0     		b	.L88
 1766              	.L81:
 926:./Libraries/STM32F4xx_HAL_Driver/Src/stm32f4xx_hal_spi.c ****       }
 927:./Libraries/STM32F4xx_HAL_Driver/Src/stm32f4xx_hal_spi.c ****     }
 928:./Libraries/STM32F4xx_HAL_Driver/Src/stm32f4xx_hal_spi.c ****   }
 929:./Libraries/STM32F4xx_HAL_Driver/Src/stm32f4xx_hal_spi.c ****   /* Transmit and Receive data in 8 Bit mode */
 930:./Libraries/STM32F4xx_HAL_Driver/Src/stm32f4xx_hal_spi.c ****   else
 931:./Libraries/STM32F4xx_HAL_Driver/Src/stm32f4xx_hal_spi.c ****   {
 932:./Libraries/STM32F4xx_HAL_Driver/Src/stm32f4xx_hal_spi.c ****     if((hspi->Init.Mode == SPI_MODE_SLAVE) || (hspi->TxXferCount == 0x01U))
 1767              		.loc 1 932 19
 1768 023a FB68     		ldr	r3, [r7, #12]
 1769 023c 5B68     		ldr	r3, [r3, #4]
 1770              		.loc 1 932 7
 1771 023e 002B     		cmp	r3, #0
 1772 0240 04D0     		beq	.L89
 1773              		.loc 1 932 52 discriminator 1
 1774 0242 FB68     		ldr	r3, [r7, #12]
 1775 0244 DB8E     		ldrh	r3, [r3, #54]	@ movhi
 1776 0246 9BB2     		uxth	r3, r3
 1777              		.loc 1 932 44 discriminator 1
 1778 0248 012B     		cmp	r3, #1
 1779 024a 6FD1     		bne	.L91
 1780              	.L89:
 933:./Libraries/STM32F4xx_HAL_Driver/Src/stm32f4xx_hal_spi.c ****     {
 934:./Libraries/STM32F4xx_HAL_Driver/Src/stm32f4xx_hal_spi.c ****       *((__IO uint8_t*)&hspi->Instance->DR) = (*pTxData);
 1781              		.loc 1 934 29
 1782 024c FB68     		ldr	r3, [r7, #12]
 1783 024e 1B68     		ldr	r3, [r3]
 1784              		.loc 1 934 24
 1785 0250 0C33     		adds	r3, r3, #12
 1786              		.loc 1 934 48
 1787 0252 BA68     		ldr	r2, [r7, #8]
 1788 0254 1278     		ldrb	r2, [r2]	@ zero_extendqisi2
 1789              		.loc 1 934 45
 1790 0256 1A70     		strb	r2, [r3]
 935:./Libraries/STM32F4xx_HAL_Driver/Src/stm32f4xx_hal_spi.c ****       pTxData += sizeof(uint8_t);
 1791              		.loc 1 935 15
 1792 0258 BB68     		ldr	r3, [r7, #8]
 1793 025a 0133     		adds	r3, r3, #1
 1794 025c BB60     		str	r3, [r7, #8]
 936:./Libraries/STM32F4xx_HAL_Driver/Src/stm32f4xx_hal_spi.c ****       hspi->TxXferCount--;
 1795              		.loc 1 936 11
 1796 025e FB68     		ldr	r3, [r7, #12]
 1797 0260 DB8E     		ldrh	r3, [r3, #54]	@ movhi
 1798 0262 9BB2     		uxth	r3, r3
 1799              		.loc 1 936 24
 1800 0264 013B     		subs	r3, r3, #1
 1801 0266 9AB2     		uxth	r2, r3
ARM GAS  /tmp/ccits0mR.s 			page 49


 1802 0268 FB68     		ldr	r3, [r7, #12]
 1803 026a DA86     		strh	r2, [r3, #54]	@ movhi
 937:./Libraries/STM32F4xx_HAL_Driver/Src/stm32f4xx_hal_spi.c ****     }
 938:./Libraries/STM32F4xx_HAL_Driver/Src/stm32f4xx_hal_spi.c ****     while((hspi->TxXferCount > 0U) || (hspi->RxXferCount > 0U))
 1804              		.loc 1 938 10
 1805 026c 5EE0     		b	.L91
 1806              	.L94:
 939:./Libraries/STM32F4xx_HAL_Driver/Src/stm32f4xx_hal_spi.c ****     {
 940:./Libraries/STM32F4xx_HAL_Driver/Src/stm32f4xx_hal_spi.c ****       /* check TXE flag */
 941:./Libraries/STM32F4xx_HAL_Driver/Src/stm32f4xx_hal_spi.c ****       if(txallowed && (hspi->TxXferCount > 0U) && (__HAL_SPI_GET_FLAG(hspi, SPI_FLAG_TXE)))
 1807              		.loc 1 941 9
 1808 026e FB6A     		ldr	r3, [r7, #44]
 1809 0270 002B     		cmp	r3, #0
 1810 0272 2ED0     		beq	.L92
 1811              		.loc 1 941 28 discriminator 1
 1812 0274 FB68     		ldr	r3, [r7, #12]
 1813 0276 DB8E     		ldrh	r3, [r3, #54]	@ movhi
 1814 0278 9BB2     		uxth	r3, r3
 1815              		.loc 1 941 20 discriminator 1
 1816 027a 002B     		cmp	r3, #0
 1817 027c 29D0     		beq	.L92
 1818              		.loc 1 941 52 discriminator 2
 1819 027e FB68     		ldr	r3, [r7, #12]
 1820 0280 1B68     		ldr	r3, [r3]
 1821 0282 9B68     		ldr	r3, [r3, #8]
 1822 0284 03F00203 		and	r3, r3, #2
 1823              		.loc 1 941 48 discriminator 2
 1824 0288 022B     		cmp	r3, #2
 1825 028a 22D1     		bne	.L92
 942:./Libraries/STM32F4xx_HAL_Driver/Src/stm32f4xx_hal_spi.c ****       {
 943:./Libraries/STM32F4xx_HAL_Driver/Src/stm32f4xx_hal_spi.c ****         *(__IO uint8_t *)&hspi->Instance->DR = (*pTxData++);
 1826              		.loc 1 943 57
 1827 028c BB68     		ldr	r3, [r7, #8]
 1828 028e 5A1C     		adds	r2, r3, #1
 1829 0290 BA60     		str	r2, [r7, #8]
 1830              		.loc 1 943 31
 1831 0292 FA68     		ldr	r2, [r7, #12]
 1832 0294 1268     		ldr	r2, [r2]
 1833              		.loc 1 943 26
 1834 0296 0C32     		adds	r2, r2, #12
 1835              		.loc 1 943 49
 1836 0298 1B78     		ldrb	r3, [r3]	@ zero_extendqisi2
 1837              		.loc 1 943 46
 1838 029a 1370     		strb	r3, [r2]
 944:./Libraries/STM32F4xx_HAL_Driver/Src/stm32f4xx_hal_spi.c ****         hspi->TxXferCount--;
 1839              		.loc 1 944 13
 1840 029c FB68     		ldr	r3, [r7, #12]
 1841 029e DB8E     		ldrh	r3, [r3, #54]	@ movhi
 1842 02a0 9BB2     		uxth	r3, r3
 1843              		.loc 1 944 26
 1844 02a2 013B     		subs	r3, r3, #1
 1845 02a4 9AB2     		uxth	r2, r3
 1846 02a6 FB68     		ldr	r3, [r7, #12]
 1847 02a8 DA86     		strh	r2, [r3, #54]	@ movhi
 945:./Libraries/STM32F4xx_HAL_Driver/Src/stm32f4xx_hal_spi.c ****         /* Next Data is a reception (Rx). Tx not allowed */ 
 946:./Libraries/STM32F4xx_HAL_Driver/Src/stm32f4xx_hal_spi.c ****         txallowed = 0U;
 1848              		.loc 1 946 19
ARM GAS  /tmp/ccits0mR.s 			page 50


 1849 02aa 0023     		movs	r3, #0
 1850 02ac FB62     		str	r3, [r7, #44]
 947:./Libraries/STM32F4xx_HAL_Driver/Src/stm32f4xx_hal_spi.c **** 
 948:./Libraries/STM32F4xx_HAL_Driver/Src/stm32f4xx_hal_spi.c **** #if (USE_SPI_CRC != 0U)
 949:./Libraries/STM32F4xx_HAL_Driver/Src/stm32f4xx_hal_spi.c ****         /* Enable CRC Transmission */
 950:./Libraries/STM32F4xx_HAL_Driver/Src/stm32f4xx_hal_spi.c ****         if((hspi->TxXferCount == 0U) && (hspi->Init.CRCCalculation == SPI_CRCCALCULATION_ENABLE))
 1851              		.loc 1 950 17
 1852 02ae FB68     		ldr	r3, [r7, #12]
 1853 02b0 DB8E     		ldrh	r3, [r3, #54]	@ movhi
 1854 02b2 9BB2     		uxth	r3, r3
 1855              		.loc 1 950 11
 1856 02b4 002B     		cmp	r3, #0
 1857 02b6 0CD1     		bne	.L92
 1858              		.loc 1 950 52 discriminator 1
 1859 02b8 FB68     		ldr	r3, [r7, #12]
 1860 02ba 9B6A     		ldr	r3, [r3, #40]
 1861              		.loc 1 950 38 discriminator 1
 1862 02bc B3F5005F 		cmp	r3, #8192
 1863 02c0 07D1     		bne	.L92
 951:./Libraries/STM32F4xx_HAL_Driver/Src/stm32f4xx_hal_spi.c ****         {
 952:./Libraries/STM32F4xx_HAL_Driver/Src/stm32f4xx_hal_spi.c ****           SET_BIT(hspi->Instance->CR1, SPI_CR1_CRCNEXT);
 1864              		.loc 1 952 11
 1865 02c2 FB68     		ldr	r3, [r7, #12]
 1866 02c4 1B68     		ldr	r3, [r3]
 1867 02c6 1A68     		ldr	r2, [r3]
 1868 02c8 FB68     		ldr	r3, [r7, #12]
 1869 02ca 1B68     		ldr	r3, [r3]
 1870 02cc 42F48052 		orr	r2, r2, #4096
 1871 02d0 1A60     		str	r2, [r3]
 1872              	.L92:
 953:./Libraries/STM32F4xx_HAL_Driver/Src/stm32f4xx_hal_spi.c ****         }
 954:./Libraries/STM32F4xx_HAL_Driver/Src/stm32f4xx_hal_spi.c **** #endif /* USE_SPI_CRC */
 955:./Libraries/STM32F4xx_HAL_Driver/Src/stm32f4xx_hal_spi.c ****       }
 956:./Libraries/STM32F4xx_HAL_Driver/Src/stm32f4xx_hal_spi.c **** 
 957:./Libraries/STM32F4xx_HAL_Driver/Src/stm32f4xx_hal_spi.c ****       /* Wait until RXNE flag is reset */
 958:./Libraries/STM32F4xx_HAL_Driver/Src/stm32f4xx_hal_spi.c ****       if((hspi->RxXferCount > 0U) && (__HAL_SPI_GET_FLAG(hspi, SPI_FLAG_RXNE)))
 1873              		.loc 1 958 15
 1874 02d2 FB68     		ldr	r3, [r7, #12]
 1875 02d4 DB8F     		ldrh	r3, [r3, #62]	@ movhi
 1876 02d6 9BB2     		uxth	r3, r3
 1877              		.loc 1 958 9
 1878 02d8 002B     		cmp	r3, #0
 1879 02da 17D0     		beq	.L93
 1880              		.loc 1 958 39 discriminator 1
 1881 02dc FB68     		ldr	r3, [r7, #12]
 1882 02de 1B68     		ldr	r3, [r3]
 1883 02e0 9B68     		ldr	r3, [r3, #8]
 1884 02e2 03F00103 		and	r3, r3, #1
 1885              		.loc 1 958 35 discriminator 1
 1886 02e6 012B     		cmp	r3, #1
 1887 02e8 10D1     		bne	.L93
 959:./Libraries/STM32F4xx_HAL_Driver/Src/stm32f4xx_hal_spi.c ****       {
 960:./Libraries/STM32F4xx_HAL_Driver/Src/stm32f4xx_hal_spi.c ****         (*(uint8_t *)pRxData++) = hspi->Instance->DR;
 1888              		.loc 1 960 39
 1889 02ea FB68     		ldr	r3, [r7, #12]
 1890 02ec 1B68     		ldr	r3, [r3]
 1891              		.loc 1 960 49
ARM GAS  /tmp/ccits0mR.s 			page 51


 1892 02ee D968     		ldr	r1, [r3, #12]
 1893              		.loc 1 960 11
 1894 02f0 7B68     		ldr	r3, [r7, #4]
 1895 02f2 5A1C     		adds	r2, r3, #1
 1896 02f4 7A60     		str	r2, [r7, #4]
 1897              		.loc 1 960 33
 1898 02f6 CAB2     		uxtb	r2, r1
 1899 02f8 1A70     		strb	r2, [r3]
 961:./Libraries/STM32F4xx_HAL_Driver/Src/stm32f4xx_hal_spi.c ****         hspi->RxXferCount--;
 1900              		.loc 1 961 13
 1901 02fa FB68     		ldr	r3, [r7, #12]
 1902 02fc DB8F     		ldrh	r3, [r3, #62]	@ movhi
 1903 02fe 9BB2     		uxth	r3, r3
 1904              		.loc 1 961 26
 1905 0300 013B     		subs	r3, r3, #1
 1906 0302 9AB2     		uxth	r2, r3
 1907 0304 FB68     		ldr	r3, [r7, #12]
 1908 0306 DA87     		strh	r2, [r3, #62]	@ movhi
 962:./Libraries/STM32F4xx_HAL_Driver/Src/stm32f4xx_hal_spi.c ****         /* Next Data is a Transmission (Tx). Tx is allowed */ 
 963:./Libraries/STM32F4xx_HAL_Driver/Src/stm32f4xx_hal_spi.c ****         txallowed = 1U;
 1909              		.loc 1 963 19
 1910 0308 0123     		movs	r3, #1
 1911 030a FB62     		str	r3, [r7, #44]
 1912              	.L93:
 964:./Libraries/STM32F4xx_HAL_Driver/Src/stm32f4xx_hal_spi.c ****       }
 965:./Libraries/STM32F4xx_HAL_Driver/Src/stm32f4xx_hal_spi.c ****       if((Timeout != HAL_MAX_DELAY) && ((HAL_GetTick()-tickstart) >=  Timeout))
 1913              		.loc 1 965 9
 1914 030c BB6B     		ldr	r3, [r7, #56]
 1915 030e B3F1FF3F 		cmp	r3, #-1
 1916 0312 0BD0     		beq	.L91
 1917              		.loc 1 965 42 discriminator 1
 1918 0314 FFF7FEFF 		bl	HAL_GetTick
 1919 0318 0246     		mov	r2, r0
 1920              		.loc 1 965 55 discriminator 1
 1921 031a FB69     		ldr	r3, [r7, #28]
 1922 031c D31A     		subs	r3, r2, r3
 1923              		.loc 1 965 37 discriminator 1
 1924 031e BA6B     		ldr	r2, [r7, #56]
 1925 0320 9A42     		cmp	r2, r3
 1926 0322 03D8     		bhi	.L91
 966:./Libraries/STM32F4xx_HAL_Driver/Src/stm32f4xx_hal_spi.c ****       {
 967:./Libraries/STM32F4xx_HAL_Driver/Src/stm32f4xx_hal_spi.c ****         errorcode = HAL_TIMEOUT;
 1927              		.loc 1 967 19
 1928 0324 0323     		movs	r3, #3
 1929 0326 87F82B30 		strb	r3, [r7, #43]
 968:./Libraries/STM32F4xx_HAL_Driver/Src/stm32f4xx_hal_spi.c ****         goto error;
 1930              		.loc 1 968 9
 1931 032a 6DE0     		b	.L75
 1932              	.L91:
 938:./Libraries/STM32F4xx_HAL_Driver/Src/stm32f4xx_hal_spi.c ****     {
 1933              		.loc 1 938 16
 1934 032c FB68     		ldr	r3, [r7, #12]
 1935 032e DB8E     		ldrh	r3, [r3, #54]	@ movhi
 1936 0330 9BB2     		uxth	r3, r3
 938:./Libraries/STM32F4xx_HAL_Driver/Src/stm32f4xx_hal_spi.c ****     {
 1937              		.loc 1 938 10
 1938 0332 002B     		cmp	r3, #0
ARM GAS  /tmp/ccits0mR.s 			page 52


 1939 0334 9BD1     		bne	.L94
 938:./Libraries/STM32F4xx_HAL_Driver/Src/stm32f4xx_hal_spi.c ****     {
 1940              		.loc 1 938 44 discriminator 1
 1941 0336 FB68     		ldr	r3, [r7, #12]
 1942 0338 DB8F     		ldrh	r3, [r3, #62]	@ movhi
 1943 033a 9BB2     		uxth	r3, r3
 938:./Libraries/STM32F4xx_HAL_Driver/Src/stm32f4xx_hal_spi.c ****     {
 1944              		.loc 1 938 36 discriminator 1
 1945 033c 002B     		cmp	r3, #0
 1946 033e 96D1     		bne	.L94
 1947              	.L88:
 969:./Libraries/STM32F4xx_HAL_Driver/Src/stm32f4xx_hal_spi.c ****       }
 970:./Libraries/STM32F4xx_HAL_Driver/Src/stm32f4xx_hal_spi.c ****     }
 971:./Libraries/STM32F4xx_HAL_Driver/Src/stm32f4xx_hal_spi.c ****   }
 972:./Libraries/STM32F4xx_HAL_Driver/Src/stm32f4xx_hal_spi.c **** 
 973:./Libraries/STM32F4xx_HAL_Driver/Src/stm32f4xx_hal_spi.c **** #if (USE_SPI_CRC != 0U)
 974:./Libraries/STM32F4xx_HAL_Driver/Src/stm32f4xx_hal_spi.c ****   /* Read CRC from DR to close CRC calculation process */
 975:./Libraries/STM32F4xx_HAL_Driver/Src/stm32f4xx_hal_spi.c ****   if(hspi->Init.CRCCalculation == SPI_CRCCALCULATION_ENABLE)
 1948              		.loc 1 975 16
 1949 0340 FB68     		ldr	r3, [r7, #12]
 1950 0342 9B6A     		ldr	r3, [r3, #40]
 1951              		.loc 1 975 5
 1952 0344 B3F5005F 		cmp	r3, #8192
 1953 0348 1AD1     		bne	.L95
 976:./Libraries/STM32F4xx_HAL_Driver/Src/stm32f4xx_hal_spi.c ****   {
 977:./Libraries/STM32F4xx_HAL_Driver/Src/stm32f4xx_hal_spi.c ****     /* Wait until TXE flag */
 978:./Libraries/STM32F4xx_HAL_Driver/Src/stm32f4xx_hal_spi.c ****     if(SPI_WaitFlagStateUntilTimeout(hspi, SPI_FLAG_RXNE, SET, Timeout, tickstart) != HAL_OK)
 1954              		.loc 1 978 8
 1955 034a FB69     		ldr	r3, [r7, #28]
 1956 034c 0093     		str	r3, [sp]
 1957 034e BB6B     		ldr	r3, [r7, #56]
 1958 0350 0122     		movs	r2, #1
 1959 0352 0121     		movs	r1, #1
 1960 0354 F868     		ldr	r0, [r7, #12]
 1961 0356 FFF7FEFF 		bl	SPI_WaitFlagStateUntilTimeout
 1962 035a 0346     		mov	r3, r0
 1963              		.loc 1 978 7
 1964 035c 002B     		cmp	r3, #0
 1965 035e 09D0     		beq	.L96
 979:./Libraries/STM32F4xx_HAL_Driver/Src/stm32f4xx_hal_spi.c ****     {
 980:./Libraries/STM32F4xx_HAL_Driver/Src/stm32f4xx_hal_spi.c ****       /* Error on the CRC reception */
 981:./Libraries/STM32F4xx_HAL_Driver/Src/stm32f4xx_hal_spi.c ****       SET_BIT(hspi->ErrorCode, HAL_SPI_ERROR_CRC);
 1966              		.loc 1 981 7
 1967 0360 FB68     		ldr	r3, [r7, #12]
 1968 0362 5B6D     		ldr	r3, [r3, #84]
 1969 0364 43F00202 		orr	r2, r3, #2
 1970 0368 FB68     		ldr	r3, [r7, #12]
 1971 036a 5A65     		str	r2, [r3, #84]
 982:./Libraries/STM32F4xx_HAL_Driver/Src/stm32f4xx_hal_spi.c ****       errorcode = HAL_TIMEOUT;
 1972              		.loc 1 982 17
 1973 036c 0323     		movs	r3, #3
 1974 036e 87F82B30 		strb	r3, [r7, #43]
 983:./Libraries/STM32F4xx_HAL_Driver/Src/stm32f4xx_hal_spi.c ****       goto error;
 1975              		.loc 1 983 7
 1976 0372 49E0     		b	.L75
 1977              	.L96:
 984:./Libraries/STM32F4xx_HAL_Driver/Src/stm32f4xx_hal_spi.c ****     }
ARM GAS  /tmp/ccits0mR.s 			page 53


 985:./Libraries/STM32F4xx_HAL_Driver/Src/stm32f4xx_hal_spi.c ****     /* Read CRC */
 986:./Libraries/STM32F4xx_HAL_Driver/Src/stm32f4xx_hal_spi.c ****     tmpreg1 = hspi->Instance->DR;
 1978              		.loc 1 986 19
 1979 0374 FB68     		ldr	r3, [r7, #12]
 1980 0376 1B68     		ldr	r3, [r3]
 1981              		.loc 1 986 29
 1982 0378 DB68     		ldr	r3, [r3, #12]
 1983              		.loc 1 986 13
 1984 037a 9BB2     		uxth	r3, r3
 1985 037c 7B83     		strh	r3, [r7, #26]	@ movhi
 987:./Libraries/STM32F4xx_HAL_Driver/Src/stm32f4xx_hal_spi.c ****     /* To avoid GCC warning */
 988:./Libraries/STM32F4xx_HAL_Driver/Src/stm32f4xx_hal_spi.c ****     UNUSED(tmpreg1);
 1986              		.loc 1 988 5
 1987 037e 7B8B     		ldrh	r3, [r7, #26]	@ movhi
 1988              	.L95:
 989:./Libraries/STM32F4xx_HAL_Driver/Src/stm32f4xx_hal_spi.c ****   }
 990:./Libraries/STM32F4xx_HAL_Driver/Src/stm32f4xx_hal_spi.c **** 
 991:./Libraries/STM32F4xx_HAL_Driver/Src/stm32f4xx_hal_spi.c ****   /* Check if CRC error occurred */
 992:./Libraries/STM32F4xx_HAL_Driver/Src/stm32f4xx_hal_spi.c ****   if(__HAL_SPI_GET_FLAG(hspi, SPI_FLAG_CRCERR))
 1989              		.loc 1 992 6
 1990 0380 FB68     		ldr	r3, [r7, #12]
 1991 0382 1B68     		ldr	r3, [r3]
 1992 0384 9B68     		ldr	r3, [r3, #8]
 1993 0386 03F01003 		and	r3, r3, #16
 1994              		.loc 1 992 5
 1995 038a 102B     		cmp	r3, #16
 1996 038c 0DD1     		bne	.L97
 993:./Libraries/STM32F4xx_HAL_Driver/Src/stm32f4xx_hal_spi.c ****   {
 994:./Libraries/STM32F4xx_HAL_Driver/Src/stm32f4xx_hal_spi.c ****     SET_BIT(hspi->ErrorCode, HAL_SPI_ERROR_CRC);
 1997              		.loc 1 994 5
 1998 038e FB68     		ldr	r3, [r7, #12]
 1999 0390 5B6D     		ldr	r3, [r3, #84]
 2000 0392 43F00202 		orr	r2, r3, #2
 2001 0396 FB68     		ldr	r3, [r7, #12]
 2002 0398 5A65     		str	r2, [r3, #84]
 995:./Libraries/STM32F4xx_HAL_Driver/Src/stm32f4xx_hal_spi.c ****     /* Clear CRC Flag */
 996:./Libraries/STM32F4xx_HAL_Driver/Src/stm32f4xx_hal_spi.c ****     __HAL_SPI_CLEAR_CRCERRFLAG(hspi);
 2003              		.loc 1 996 5
 2004 039a FB68     		ldr	r3, [r7, #12]
 2005 039c 1B68     		ldr	r3, [r3]
 2006 039e 4FF6EF72 		movw	r2, #65519
 2007 03a2 9A60     		str	r2, [r3, #8]
 997:./Libraries/STM32F4xx_HAL_Driver/Src/stm32f4xx_hal_spi.c **** 
 998:./Libraries/STM32F4xx_HAL_Driver/Src/stm32f4xx_hal_spi.c ****     errorcode = HAL_ERROR;
 2008              		.loc 1 998 15
 2009 03a4 0123     		movs	r3, #1
 2010 03a6 87F82B30 		strb	r3, [r7, #43]
 2011              	.L97:
 999:./Libraries/STM32F4xx_HAL_Driver/Src/stm32f4xx_hal_spi.c ****   }
1000:./Libraries/STM32F4xx_HAL_Driver/Src/stm32f4xx_hal_spi.c **** #endif /* USE_SPI_CRC */
1001:./Libraries/STM32F4xx_HAL_Driver/Src/stm32f4xx_hal_spi.c **** 
1002:./Libraries/STM32F4xx_HAL_Driver/Src/stm32f4xx_hal_spi.c ****   /* Wait until TXE flag */
1003:./Libraries/STM32F4xx_HAL_Driver/Src/stm32f4xx_hal_spi.c ****   if(SPI_WaitFlagStateUntilTimeout(hspi, SPI_FLAG_TXE, SET, Timeout, tickstart) != HAL_OK)
 2012              		.loc 1 1003 6
 2013 03aa FB69     		ldr	r3, [r7, #28]
 2014 03ac 0093     		str	r3, [sp]
 2015 03ae BB6B     		ldr	r3, [r7, #56]
ARM GAS  /tmp/ccits0mR.s 			page 54


 2016 03b0 0122     		movs	r2, #1
 2017 03b2 0221     		movs	r1, #2
 2018 03b4 F868     		ldr	r0, [r7, #12]
 2019 03b6 FFF7FEFF 		bl	SPI_WaitFlagStateUntilTimeout
 2020 03ba 0346     		mov	r3, r0
 2021              		.loc 1 1003 5
 2022 03bc 002B     		cmp	r3, #0
 2023 03be 03D0     		beq	.L98
1004:./Libraries/STM32F4xx_HAL_Driver/Src/stm32f4xx_hal_spi.c ****   {
1005:./Libraries/STM32F4xx_HAL_Driver/Src/stm32f4xx_hal_spi.c ****     errorcode = HAL_TIMEOUT;
 2024              		.loc 1 1005 15
 2025 03c0 0323     		movs	r3, #3
 2026 03c2 87F82B30 		strb	r3, [r7, #43]
1006:./Libraries/STM32F4xx_HAL_Driver/Src/stm32f4xx_hal_spi.c ****     goto error;
 2027              		.loc 1 1006 5
 2028 03c6 1FE0     		b	.L75
 2029              	.L98:
1007:./Libraries/STM32F4xx_HAL_Driver/Src/stm32f4xx_hal_spi.c ****   }
1008:./Libraries/STM32F4xx_HAL_Driver/Src/stm32f4xx_hal_spi.c ****   
1009:./Libraries/STM32F4xx_HAL_Driver/Src/stm32f4xx_hal_spi.c ****   /* Check Busy flag */
1010:./Libraries/STM32F4xx_HAL_Driver/Src/stm32f4xx_hal_spi.c ****   if(SPI_CheckFlag_BSY(hspi, Timeout, tickstart) != HAL_OK)
 2030              		.loc 1 1010 6
 2031 03c8 FA69     		ldr	r2, [r7, #28]
 2032 03ca B96B     		ldr	r1, [r7, #56]
 2033 03cc F868     		ldr	r0, [r7, #12]
 2034 03ce FFF7FEFF 		bl	SPI_CheckFlag_BSY
 2035 03d2 0346     		mov	r3, r0
 2036              		.loc 1 1010 5
 2037 03d4 002B     		cmp	r3, #0
 2038 03d6 06D0     		beq	.L99
1011:./Libraries/STM32F4xx_HAL_Driver/Src/stm32f4xx_hal_spi.c ****   {
1012:./Libraries/STM32F4xx_HAL_Driver/Src/stm32f4xx_hal_spi.c ****     errorcode = HAL_ERROR;
 2039              		.loc 1 1012 15
 2040 03d8 0123     		movs	r3, #1
 2041 03da 87F82B30 		strb	r3, [r7, #43]
1013:./Libraries/STM32F4xx_HAL_Driver/Src/stm32f4xx_hal_spi.c ****     hspi->ErrorCode = HAL_SPI_ERROR_FLAG;
 2042              		.loc 1 1013 21
 2043 03de FB68     		ldr	r3, [r7, #12]
 2044 03e0 2022     		movs	r2, #32
 2045 03e2 5A65     		str	r2, [r3, #84]
1014:./Libraries/STM32F4xx_HAL_Driver/Src/stm32f4xx_hal_spi.c ****     goto error;
 2046              		.loc 1 1014 5
 2047 03e4 10E0     		b	.L75
 2048              	.L99:
1015:./Libraries/STM32F4xx_HAL_Driver/Src/stm32f4xx_hal_spi.c ****   }
1016:./Libraries/STM32F4xx_HAL_Driver/Src/stm32f4xx_hal_spi.c **** 
1017:./Libraries/STM32F4xx_HAL_Driver/Src/stm32f4xx_hal_spi.c ****   /* Clear overrun flag in 2 Lines communication mode because received is not read */
1018:./Libraries/STM32F4xx_HAL_Driver/Src/stm32f4xx_hal_spi.c ****   if(hspi->Init.Direction == SPI_DIRECTION_2LINES)
 2049              		.loc 1 1018 16
 2050 03e6 FB68     		ldr	r3, [r7, #12]
 2051 03e8 9B68     		ldr	r3, [r3, #8]
 2052              		.loc 1 1018 5
 2053 03ea 002B     		cmp	r3, #0
 2054 03ec 0BD1     		bne	.L100
 2055              	.LBB3:
1019:./Libraries/STM32F4xx_HAL_Driver/Src/stm32f4xx_hal_spi.c ****   {
1020:./Libraries/STM32F4xx_HAL_Driver/Src/stm32f4xx_hal_spi.c ****     __HAL_SPI_CLEAR_OVRFLAG(hspi);
ARM GAS  /tmp/ccits0mR.s 			page 55


 2056              		.loc 1 1020 5
 2057 03ee 0023     		movs	r3, #0
 2058 03f0 7B61     		str	r3, [r7, #20]
 2059 03f2 FB68     		ldr	r3, [r7, #12]
 2060 03f4 1B68     		ldr	r3, [r3]
 2061 03f6 DB68     		ldr	r3, [r3, #12]
 2062 03f8 7B61     		str	r3, [r7, #20]
 2063 03fa FB68     		ldr	r3, [r7, #12]
 2064 03fc 1B68     		ldr	r3, [r3]
 2065 03fe 9B68     		ldr	r3, [r3, #8]
 2066 0400 7B61     		str	r3, [r7, #20]
 2067 0402 7B69     		ldr	r3, [r7, #20]
 2068 0404 00E0     		b	.L75
 2069              	.L100:
 2070              	.LBE3:
1021:./Libraries/STM32F4xx_HAL_Driver/Src/stm32f4xx_hal_spi.c ****   }
1022:./Libraries/STM32F4xx_HAL_Driver/Src/stm32f4xx_hal_spi.c ****   
1023:./Libraries/STM32F4xx_HAL_Driver/Src/stm32f4xx_hal_spi.c **** error :
 2071              		.loc 1 1023 1
 2072 0406 00BF     		nop
 2073              	.L75:
1024:./Libraries/STM32F4xx_HAL_Driver/Src/stm32f4xx_hal_spi.c ****   hspi->State = HAL_SPI_STATE_READY;
 2074              		.loc 1 1024 15
 2075 0408 FB68     		ldr	r3, [r7, #12]
 2076 040a 0122     		movs	r2, #1
 2077 040c 83F85120 		strb	r2, [r3, #81]
1025:./Libraries/STM32F4xx_HAL_Driver/Src/stm32f4xx_hal_spi.c ****   __HAL_UNLOCK(hspi);
 2078              		.loc 1 1025 3
 2079 0410 FB68     		ldr	r3, [r7, #12]
 2080 0412 0022     		movs	r2, #0
 2081 0414 83F85020 		strb	r2, [r3, #80]
1026:./Libraries/STM32F4xx_HAL_Driver/Src/stm32f4xx_hal_spi.c ****   return errorcode;
 2082              		.loc 1 1026 10
 2083 0418 97F82B30 		ldrb	r3, [r7, #43]	@ zero_extendqisi2
 2084              	.L72:
1027:./Libraries/STM32F4xx_HAL_Driver/Src/stm32f4xx_hal_spi.c **** }
 2085              		.loc 1 1027 1
 2086 041c 1846     		mov	r0, r3
 2087 041e 3037     		adds	r7, r7, #48
 2088              	.LCFI35:
 2089              		.cfi_def_cfa_offset 8
 2090 0420 BD46     		mov	sp, r7
 2091              	.LCFI36:
 2092              		.cfi_def_cfa_register 13
 2093              		@ sp needed
 2094 0422 80BD     		pop	{r7, pc}
 2095              		.cfi_endproc
 2096              	.LFE132:
 2098              		.section	.text.HAL_SPI_Transmit_IT,"ax",%progbits
 2099              		.align	1
 2100              		.global	HAL_SPI_Transmit_IT
 2101              		.syntax unified
 2102              		.thumb
 2103              		.thumb_func
 2104              		.fpu fpv4-sp-d16
 2106              	HAL_SPI_Transmit_IT:
 2107              	.LFB133:
ARM GAS  /tmp/ccits0mR.s 			page 56


1028:./Libraries/STM32F4xx_HAL_Driver/Src/stm32f4xx_hal_spi.c **** 
1029:./Libraries/STM32F4xx_HAL_Driver/Src/stm32f4xx_hal_spi.c **** /**
1030:./Libraries/STM32F4xx_HAL_Driver/Src/stm32f4xx_hal_spi.c ****   * @brief  Transmit an amount of data in non-blocking mode with Interrupt.
1031:./Libraries/STM32F4xx_HAL_Driver/Src/stm32f4xx_hal_spi.c ****   * @param  hspi pointer to a SPI_HandleTypeDef structure that contains
1032:./Libraries/STM32F4xx_HAL_Driver/Src/stm32f4xx_hal_spi.c ****   *               the configuration information for SPI module.
1033:./Libraries/STM32F4xx_HAL_Driver/Src/stm32f4xx_hal_spi.c ****   * @param  pData pointer to data buffer
1034:./Libraries/STM32F4xx_HAL_Driver/Src/stm32f4xx_hal_spi.c ****   * @param  Size amount of data to be sent
1035:./Libraries/STM32F4xx_HAL_Driver/Src/stm32f4xx_hal_spi.c ****   * @retval HAL status
1036:./Libraries/STM32F4xx_HAL_Driver/Src/stm32f4xx_hal_spi.c ****   */
1037:./Libraries/STM32F4xx_HAL_Driver/Src/stm32f4xx_hal_spi.c **** HAL_StatusTypeDef HAL_SPI_Transmit_IT(SPI_HandleTypeDef *hspi, uint8_t *pData, uint16_t Size)
1038:./Libraries/STM32F4xx_HAL_Driver/Src/stm32f4xx_hal_spi.c **** {
 2108              		.loc 1 1038 1
 2109              		.cfi_startproc
 2110              		@ args = 0, pretend = 0, frame = 24
 2111              		@ frame_needed = 1, uses_anonymous_args = 0
 2112              		@ link register save eliminated.
 2113 0000 80B4     		push	{r7}
 2114              	.LCFI37:
 2115              		.cfi_def_cfa_offset 4
 2116              		.cfi_offset 7, -4
 2117 0002 87B0     		sub	sp, sp, #28
 2118              	.LCFI38:
 2119              		.cfi_def_cfa_offset 32
 2120 0004 00AF     		add	r7, sp, #0
 2121              	.LCFI39:
 2122              		.cfi_def_cfa_register 7
 2123 0006 F860     		str	r0, [r7, #12]
 2124 0008 B960     		str	r1, [r7, #8]
 2125 000a 1346     		mov	r3, r2
 2126 000c FB80     		strh	r3, [r7, #6]	@ movhi
1039:./Libraries/STM32F4xx_HAL_Driver/Src/stm32f4xx_hal_spi.c ****   HAL_StatusTypeDef errorcode = HAL_OK;
 2127              		.loc 1 1039 21
 2128 000e 0023     		movs	r3, #0
 2129 0010 FB75     		strb	r3, [r7, #23]
1040:./Libraries/STM32F4xx_HAL_Driver/Src/stm32f4xx_hal_spi.c **** 
1041:./Libraries/STM32F4xx_HAL_Driver/Src/stm32f4xx_hal_spi.c ****   /* Check Direction parameter */
1042:./Libraries/STM32F4xx_HAL_Driver/Src/stm32f4xx_hal_spi.c ****   assert_param(IS_SPI_DIRECTION_2LINES_OR_1LINE(hspi->Init.Direction));
1043:./Libraries/STM32F4xx_HAL_Driver/Src/stm32f4xx_hal_spi.c **** 
1044:./Libraries/STM32F4xx_HAL_Driver/Src/stm32f4xx_hal_spi.c ****   /* Process Locked */
1045:./Libraries/STM32F4xx_HAL_Driver/Src/stm32f4xx_hal_spi.c ****   __HAL_LOCK(hspi);
 2130              		.loc 1 1045 3
 2131 0012 FB68     		ldr	r3, [r7, #12]
 2132 0014 93F85030 		ldrb	r3, [r3, #80]	@ zero_extendqisi2
 2133 0018 012B     		cmp	r3, #1
 2134 001a 01D1     		bne	.L102
 2135              		.loc 1 1045 3 is_stmt 0 discriminator 1
 2136 001c 0223     		movs	r3, #2
 2137 001e 8AE0     		b	.L103
 2138              	.L102:
 2139              		.loc 1 1045 3 discriminator 2
 2140 0020 FB68     		ldr	r3, [r7, #12]
 2141 0022 0122     		movs	r2, #1
 2142 0024 83F85020 		strb	r2, [r3, #80]
1046:./Libraries/STM32F4xx_HAL_Driver/Src/stm32f4xx_hal_spi.c **** 
1047:./Libraries/STM32F4xx_HAL_Driver/Src/stm32f4xx_hal_spi.c ****   if((pData == NULL) || (Size == 0))
 2143              		.loc 1 1047 5 is_stmt 1 discriminator 2
 2144 0028 BB68     		ldr	r3, [r7, #8]
ARM GAS  /tmp/ccits0mR.s 			page 57


 2145 002a 002B     		cmp	r3, #0
 2146 002c 02D0     		beq	.L104
 2147              		.loc 1 1047 22 discriminator 1
 2148 002e FB88     		ldrh	r3, [r7, #6]
 2149 0030 002B     		cmp	r3, #0
 2150 0032 02D1     		bne	.L105
 2151              	.L104:
1048:./Libraries/STM32F4xx_HAL_Driver/Src/stm32f4xx_hal_spi.c ****   {
1049:./Libraries/STM32F4xx_HAL_Driver/Src/stm32f4xx_hal_spi.c ****     errorcode = HAL_ERROR;
 2152              		.loc 1 1049 15
 2153 0034 0123     		movs	r3, #1
 2154 0036 FB75     		strb	r3, [r7, #23]
1050:./Libraries/STM32F4xx_HAL_Driver/Src/stm32f4xx_hal_spi.c ****     goto error;
 2155              		.loc 1 1050 5
 2156 0038 78E0     		b	.L106
 2157              	.L105:
1051:./Libraries/STM32F4xx_HAL_Driver/Src/stm32f4xx_hal_spi.c ****   }
1052:./Libraries/STM32F4xx_HAL_Driver/Src/stm32f4xx_hal_spi.c **** 
1053:./Libraries/STM32F4xx_HAL_Driver/Src/stm32f4xx_hal_spi.c ****   if(hspi->State != HAL_SPI_STATE_READY)
 2158              		.loc 1 1053 10
 2159 003a FB68     		ldr	r3, [r7, #12]
 2160 003c 93F85130 		ldrb	r3, [r3, #81]
 2161 0040 DBB2     		uxtb	r3, r3
 2162              		.loc 1 1053 5
 2163 0042 012B     		cmp	r3, #1
 2164 0044 02D0     		beq	.L107
1054:./Libraries/STM32F4xx_HAL_Driver/Src/stm32f4xx_hal_spi.c ****   {
1055:./Libraries/STM32F4xx_HAL_Driver/Src/stm32f4xx_hal_spi.c ****     errorcode = HAL_BUSY;
 2165              		.loc 1 1055 15
 2166 0046 0223     		movs	r3, #2
 2167 0048 FB75     		strb	r3, [r7, #23]
1056:./Libraries/STM32F4xx_HAL_Driver/Src/stm32f4xx_hal_spi.c ****     goto error;
 2168              		.loc 1 1056 5
 2169 004a 6FE0     		b	.L106
 2170              	.L107:
1057:./Libraries/STM32F4xx_HAL_Driver/Src/stm32f4xx_hal_spi.c ****   }
1058:./Libraries/STM32F4xx_HAL_Driver/Src/stm32f4xx_hal_spi.c **** 
1059:./Libraries/STM32F4xx_HAL_Driver/Src/stm32f4xx_hal_spi.c ****   /* Set the transaction information */
1060:./Libraries/STM32F4xx_HAL_Driver/Src/stm32f4xx_hal_spi.c ****   hspi->State       = HAL_SPI_STATE_BUSY_TX;
 2171              		.loc 1 1060 21
 2172 004c FB68     		ldr	r3, [r7, #12]
 2173 004e 0322     		movs	r2, #3
 2174 0050 83F85120 		strb	r2, [r3, #81]
1061:./Libraries/STM32F4xx_HAL_Driver/Src/stm32f4xx_hal_spi.c ****   hspi->ErrorCode   = HAL_SPI_ERROR_NONE;
 2175              		.loc 1 1061 21
 2176 0054 FB68     		ldr	r3, [r7, #12]
 2177 0056 0022     		movs	r2, #0
 2178 0058 5A65     		str	r2, [r3, #84]
1062:./Libraries/STM32F4xx_HAL_Driver/Src/stm32f4xx_hal_spi.c ****   hspi->pTxBuffPtr  = (uint8_t *)pData;
 2179              		.loc 1 1062 21
 2180 005a FB68     		ldr	r3, [r7, #12]
 2181 005c BA68     		ldr	r2, [r7, #8]
 2182 005e 1A63     		str	r2, [r3, #48]
1063:./Libraries/STM32F4xx_HAL_Driver/Src/stm32f4xx_hal_spi.c ****   hspi->TxXferSize  = Size;
 2183              		.loc 1 1063 21
 2184 0060 FB68     		ldr	r3, [r7, #12]
 2185 0062 FA88     		ldrh	r2, [r7, #6]	@ movhi
ARM GAS  /tmp/ccits0mR.s 			page 58


 2186 0064 9A86     		strh	r2, [r3, #52]	@ movhi
1064:./Libraries/STM32F4xx_HAL_Driver/Src/stm32f4xx_hal_spi.c ****   hspi->TxXferCount = Size;
 2187              		.loc 1 1064 21
 2188 0066 FB68     		ldr	r3, [r7, #12]
 2189 0068 FA88     		ldrh	r2, [r7, #6]	@ movhi
 2190 006a DA86     		strh	r2, [r3, #54]	@ movhi
1065:./Libraries/STM32F4xx_HAL_Driver/Src/stm32f4xx_hal_spi.c **** 
1066:./Libraries/STM32F4xx_HAL_Driver/Src/stm32f4xx_hal_spi.c ****   /* Init field not used in handle to zero */
1067:./Libraries/STM32F4xx_HAL_Driver/Src/stm32f4xx_hal_spi.c ****   hspi->pRxBuffPtr  = (uint8_t *)NULL;
 2191              		.loc 1 1067 21
 2192 006c FB68     		ldr	r3, [r7, #12]
 2193 006e 0022     		movs	r2, #0
 2194 0070 9A63     		str	r2, [r3, #56]
1068:./Libraries/STM32F4xx_HAL_Driver/Src/stm32f4xx_hal_spi.c ****   hspi->RxXferSize  = 0U;
 2195              		.loc 1 1068 21
 2196 0072 FB68     		ldr	r3, [r7, #12]
 2197 0074 0022     		movs	r2, #0
 2198 0076 9A87     		strh	r2, [r3, #60]	@ movhi
1069:./Libraries/STM32F4xx_HAL_Driver/Src/stm32f4xx_hal_spi.c ****   hspi->RxXferCount = 0U;
 2199              		.loc 1 1069 21
 2200 0078 FB68     		ldr	r3, [r7, #12]
 2201 007a 0022     		movs	r2, #0
 2202 007c DA87     		strh	r2, [r3, #62]	@ movhi
1070:./Libraries/STM32F4xx_HAL_Driver/Src/stm32f4xx_hal_spi.c ****   hspi->RxISR       = NULL;
 2203              		.loc 1 1070 21
 2204 007e FB68     		ldr	r3, [r7, #12]
 2205 0080 0022     		movs	r2, #0
 2206 0082 1A64     		str	r2, [r3, #64]
1071:./Libraries/STM32F4xx_HAL_Driver/Src/stm32f4xx_hal_spi.c **** 
1072:./Libraries/STM32F4xx_HAL_Driver/Src/stm32f4xx_hal_spi.c ****   /* Set the function for IT treatment */
1073:./Libraries/STM32F4xx_HAL_Driver/Src/stm32f4xx_hal_spi.c ****   if(hspi->Init.DataSize > SPI_DATASIZE_8BIT )
 2207              		.loc 1 1073 16
 2208 0084 FB68     		ldr	r3, [r7, #12]
 2209 0086 DB68     		ldr	r3, [r3, #12]
 2210              		.loc 1 1073 5
 2211 0088 002B     		cmp	r3, #0
 2212 008a 03D0     		beq	.L108
1074:./Libraries/STM32F4xx_HAL_Driver/Src/stm32f4xx_hal_spi.c ****   {
1075:./Libraries/STM32F4xx_HAL_Driver/Src/stm32f4xx_hal_spi.c ****     hspi->TxISR = SPI_TxISR_16BIT;
 2213              		.loc 1 1075 17
 2214 008c FB68     		ldr	r3, [r7, #12]
 2215 008e 2D4A     		ldr	r2, .L115
 2216 0090 5A64     		str	r2, [r3, #68]
 2217 0092 02E0     		b	.L109
 2218              	.L108:
1076:./Libraries/STM32F4xx_HAL_Driver/Src/stm32f4xx_hal_spi.c ****   }
1077:./Libraries/STM32F4xx_HAL_Driver/Src/stm32f4xx_hal_spi.c ****   else
1078:./Libraries/STM32F4xx_HAL_Driver/Src/stm32f4xx_hal_spi.c ****   {
1079:./Libraries/STM32F4xx_HAL_Driver/Src/stm32f4xx_hal_spi.c ****     hspi->TxISR = SPI_TxISR_8BIT;
 2219              		.loc 1 1079 17
 2220 0094 FB68     		ldr	r3, [r7, #12]
 2221 0096 2C4A     		ldr	r2, .L115+4
 2222 0098 5A64     		str	r2, [r3, #68]
 2223              	.L109:
1080:./Libraries/STM32F4xx_HAL_Driver/Src/stm32f4xx_hal_spi.c ****   }
1081:./Libraries/STM32F4xx_HAL_Driver/Src/stm32f4xx_hal_spi.c **** 
1082:./Libraries/STM32F4xx_HAL_Driver/Src/stm32f4xx_hal_spi.c ****   /* Configure communication direction : 1Line */
ARM GAS  /tmp/ccits0mR.s 			page 59


1083:./Libraries/STM32F4xx_HAL_Driver/Src/stm32f4xx_hal_spi.c ****   if(hspi->Init.Direction == SPI_DIRECTION_1LINE)
 2224              		.loc 1 1083 16
 2225 009a FB68     		ldr	r3, [r7, #12]
 2226 009c 9B68     		ldr	r3, [r3, #8]
 2227              		.loc 1 1083 5
 2228 009e B3F5004F 		cmp	r3, #32768
 2229 00a2 07D1     		bne	.L110
1084:./Libraries/STM32F4xx_HAL_Driver/Src/stm32f4xx_hal_spi.c ****   {
1085:./Libraries/STM32F4xx_HAL_Driver/Src/stm32f4xx_hal_spi.c ****     SPI_1LINE_TX(hspi);
 2230              		.loc 1 1085 5
 2231 00a4 FB68     		ldr	r3, [r7, #12]
 2232 00a6 1B68     		ldr	r3, [r3]
 2233 00a8 1A68     		ldr	r2, [r3]
 2234 00aa FB68     		ldr	r3, [r7, #12]
 2235 00ac 1B68     		ldr	r3, [r3]
 2236 00ae 42F48042 		orr	r2, r2, #16384
 2237 00b2 1A60     		str	r2, [r3]
 2238              	.L110:
1086:./Libraries/STM32F4xx_HAL_Driver/Src/stm32f4xx_hal_spi.c ****   }
1087:./Libraries/STM32F4xx_HAL_Driver/Src/stm32f4xx_hal_spi.c **** 
1088:./Libraries/STM32F4xx_HAL_Driver/Src/stm32f4xx_hal_spi.c **** #if (USE_SPI_CRC != 0U)
1089:./Libraries/STM32F4xx_HAL_Driver/Src/stm32f4xx_hal_spi.c ****   /* Reset CRC Calculation */
1090:./Libraries/STM32F4xx_HAL_Driver/Src/stm32f4xx_hal_spi.c ****   if(hspi->Init.CRCCalculation == SPI_CRCCALCULATION_ENABLE)
 2239              		.loc 1 1090 16
 2240 00b4 FB68     		ldr	r3, [r7, #12]
 2241 00b6 9B6A     		ldr	r3, [r3, #40]
 2242              		.loc 1 1090 5
 2243 00b8 B3F5005F 		cmp	r3, #8192
 2244 00bc 10D1     		bne	.L111
1091:./Libraries/STM32F4xx_HAL_Driver/Src/stm32f4xx_hal_spi.c ****   {
1092:./Libraries/STM32F4xx_HAL_Driver/Src/stm32f4xx_hal_spi.c ****     SPI_RESET_CRC(hspi);
 2245              		.loc 1 1092 5
 2246 00be FB68     		ldr	r3, [r7, #12]
 2247 00c0 1B68     		ldr	r3, [r3]
 2248 00c2 1968     		ldr	r1, [r3]
 2249 00c4 FB68     		ldr	r3, [r7, #12]
 2250 00c6 1A68     		ldr	r2, [r3]
 2251 00c8 4DF6FF73 		movw	r3, #57343
 2252 00cc 0B40     		ands	r3, r3, r1
 2253 00ce 1360     		str	r3, [r2]
 2254 00d0 FB68     		ldr	r3, [r7, #12]
 2255 00d2 1B68     		ldr	r3, [r3]
 2256 00d4 1A68     		ldr	r2, [r3]
 2257 00d6 FB68     		ldr	r3, [r7, #12]
 2258 00d8 1B68     		ldr	r3, [r3]
 2259 00da 42F40052 		orr	r2, r2, #8192
 2260 00de 1A60     		str	r2, [r3]
 2261              	.L111:
1093:./Libraries/STM32F4xx_HAL_Driver/Src/stm32f4xx_hal_spi.c ****   }
1094:./Libraries/STM32F4xx_HAL_Driver/Src/stm32f4xx_hal_spi.c **** #endif /* USE_SPI_CRC */
1095:./Libraries/STM32F4xx_HAL_Driver/Src/stm32f4xx_hal_spi.c **** 
1096:./Libraries/STM32F4xx_HAL_Driver/Src/stm32f4xx_hal_spi.c ****   if (hspi->Init.Direction == SPI_DIRECTION_2LINES)
 2262              		.loc 1 1096 17
 2263 00e0 FB68     		ldr	r3, [r7, #12]
 2264 00e2 9B68     		ldr	r3, [r3, #8]
 2265              		.loc 1 1096 6
 2266 00e4 002B     		cmp	r3, #0
ARM GAS  /tmp/ccits0mR.s 			page 60


 2267 00e6 08D1     		bne	.L112
1097:./Libraries/STM32F4xx_HAL_Driver/Src/stm32f4xx_hal_spi.c ****   {
1098:./Libraries/STM32F4xx_HAL_Driver/Src/stm32f4xx_hal_spi.c ****     /* Enable TXE interrupt */
1099:./Libraries/STM32F4xx_HAL_Driver/Src/stm32f4xx_hal_spi.c ****     __HAL_SPI_ENABLE_IT(hspi, (SPI_IT_TXE));
 2268              		.loc 1 1099 5
 2269 00e8 FB68     		ldr	r3, [r7, #12]
 2270 00ea 1B68     		ldr	r3, [r3]
 2271 00ec 5A68     		ldr	r2, [r3, #4]
 2272 00ee FB68     		ldr	r3, [r7, #12]
 2273 00f0 1B68     		ldr	r3, [r3]
 2274 00f2 42F08002 		orr	r2, r2, #128
 2275 00f6 5A60     		str	r2, [r3, #4]
 2276 00f8 07E0     		b	.L113
 2277              	.L112:
1100:./Libraries/STM32F4xx_HAL_Driver/Src/stm32f4xx_hal_spi.c ****   }
1101:./Libraries/STM32F4xx_HAL_Driver/Src/stm32f4xx_hal_spi.c ****   else
1102:./Libraries/STM32F4xx_HAL_Driver/Src/stm32f4xx_hal_spi.c ****   {
1103:./Libraries/STM32F4xx_HAL_Driver/Src/stm32f4xx_hal_spi.c ****     /* Enable TXE and ERR interrupt */
1104:./Libraries/STM32F4xx_HAL_Driver/Src/stm32f4xx_hal_spi.c ****     __HAL_SPI_ENABLE_IT(hspi, (SPI_IT_TXE | SPI_IT_ERR));
 2278              		.loc 1 1104 5
 2279 00fa FB68     		ldr	r3, [r7, #12]
 2280 00fc 1B68     		ldr	r3, [r3]
 2281 00fe 5A68     		ldr	r2, [r3, #4]
 2282 0100 FB68     		ldr	r3, [r7, #12]
 2283 0102 1B68     		ldr	r3, [r3]
 2284 0104 42F0A002 		orr	r2, r2, #160
 2285 0108 5A60     		str	r2, [r3, #4]
 2286              	.L113:
1105:./Libraries/STM32F4xx_HAL_Driver/Src/stm32f4xx_hal_spi.c ****   }
1106:./Libraries/STM32F4xx_HAL_Driver/Src/stm32f4xx_hal_spi.c **** 
1107:./Libraries/STM32F4xx_HAL_Driver/Src/stm32f4xx_hal_spi.c ****   /* Check if the SPI is already enabled */
1108:./Libraries/STM32F4xx_HAL_Driver/Src/stm32f4xx_hal_spi.c ****   if((hspi->Instance->CR1 &SPI_CR1_SPE) != SPI_CR1_SPE)
 2287              		.loc 1 1108 11
 2288 010a FB68     		ldr	r3, [r7, #12]
 2289 010c 1B68     		ldr	r3, [r3]
 2290              		.loc 1 1108 21
 2291 010e 1B68     		ldr	r3, [r3]
 2292              		.loc 1 1108 27
 2293 0110 03F04003 		and	r3, r3, #64
 2294              		.loc 1 1108 5
 2295 0114 402B     		cmp	r3, #64
 2296 0116 08D0     		beq	.L114
1109:./Libraries/STM32F4xx_HAL_Driver/Src/stm32f4xx_hal_spi.c ****   {
1110:./Libraries/STM32F4xx_HAL_Driver/Src/stm32f4xx_hal_spi.c ****     /* Enable SPI peripheral */
1111:./Libraries/STM32F4xx_HAL_Driver/Src/stm32f4xx_hal_spi.c ****     __HAL_SPI_ENABLE(hspi);
 2297              		.loc 1 1111 5
 2298 0118 FB68     		ldr	r3, [r7, #12]
 2299 011a 1B68     		ldr	r3, [r3]
 2300 011c 1A68     		ldr	r2, [r3]
 2301 011e FB68     		ldr	r3, [r7, #12]
 2302 0120 1B68     		ldr	r3, [r3]
 2303 0122 42F04002 		orr	r2, r2, #64
 2304 0126 1A60     		str	r2, [r3]
 2305 0128 00E0     		b	.L106
 2306              	.L114:
1112:./Libraries/STM32F4xx_HAL_Driver/Src/stm32f4xx_hal_spi.c ****   }
1113:./Libraries/STM32F4xx_HAL_Driver/Src/stm32f4xx_hal_spi.c **** 
ARM GAS  /tmp/ccits0mR.s 			page 61


1114:./Libraries/STM32F4xx_HAL_Driver/Src/stm32f4xx_hal_spi.c **** error :
 2307              		.loc 1 1114 1
 2308 012a 00BF     		nop
 2309              	.L106:
1115:./Libraries/STM32F4xx_HAL_Driver/Src/stm32f4xx_hal_spi.c ****   __HAL_UNLOCK(hspi);
 2310              		.loc 1 1115 3
 2311 012c FB68     		ldr	r3, [r7, #12]
 2312 012e 0022     		movs	r2, #0
 2313 0130 83F85020 		strb	r2, [r3, #80]
1116:./Libraries/STM32F4xx_HAL_Driver/Src/stm32f4xx_hal_spi.c ****   return errorcode;
 2314              		.loc 1 1116 10
 2315 0134 FB7D     		ldrb	r3, [r7, #23]	@ zero_extendqisi2
 2316              	.L103:
1117:./Libraries/STM32F4xx_HAL_Driver/Src/stm32f4xx_hal_spi.c **** }
 2317              		.loc 1 1117 1
 2318 0136 1846     		mov	r0, r3
 2319 0138 1C37     		adds	r7, r7, #28
 2320              	.LCFI40:
 2321              		.cfi_def_cfa_offset 4
 2322 013a BD46     		mov	sp, r7
 2323              	.LCFI41:
 2324              		.cfi_def_cfa_register 13
 2325              		@ sp needed
 2326 013c 5DF8047B 		ldr	r7, [sp], #4
 2327              	.LCFI42:
 2328              		.cfi_restore 7
 2329              		.cfi_def_cfa_offset 0
 2330 0140 7047     		bx	lr
 2331              	.L116:
 2332 0142 00BF     		.align	2
 2333              	.L115:
 2334 0144 00000000 		.word	SPI_TxISR_16BIT
 2335 0148 00000000 		.word	SPI_TxISR_8BIT
 2336              		.cfi_endproc
 2337              	.LFE133:
 2339              		.section	.text.HAL_SPI_Receive_IT,"ax",%progbits
 2340              		.align	1
 2341              		.global	HAL_SPI_Receive_IT
 2342              		.syntax unified
 2343              		.thumb
 2344              		.thumb_func
 2345              		.fpu fpv4-sp-d16
 2347              	HAL_SPI_Receive_IT:
 2348              	.LFB134:
1118:./Libraries/STM32F4xx_HAL_Driver/Src/stm32f4xx_hal_spi.c **** 
1119:./Libraries/STM32F4xx_HAL_Driver/Src/stm32f4xx_hal_spi.c **** /**
1120:./Libraries/STM32F4xx_HAL_Driver/Src/stm32f4xx_hal_spi.c ****   * @brief  Receive an amount of data in non-blocking mode with Interrupt.
1121:./Libraries/STM32F4xx_HAL_Driver/Src/stm32f4xx_hal_spi.c ****   * @param  hspi pointer to a SPI_HandleTypeDef structure that contains
1122:./Libraries/STM32F4xx_HAL_Driver/Src/stm32f4xx_hal_spi.c ****   *               the configuration information for SPI module.
1123:./Libraries/STM32F4xx_HAL_Driver/Src/stm32f4xx_hal_spi.c ****   * @param  pData pointer to data buffer
1124:./Libraries/STM32F4xx_HAL_Driver/Src/stm32f4xx_hal_spi.c ****   * @param  Size amount of data to be sent
1125:./Libraries/STM32F4xx_HAL_Driver/Src/stm32f4xx_hal_spi.c ****   * @retval HAL status
1126:./Libraries/STM32F4xx_HAL_Driver/Src/stm32f4xx_hal_spi.c ****   */
1127:./Libraries/STM32F4xx_HAL_Driver/Src/stm32f4xx_hal_spi.c **** HAL_StatusTypeDef HAL_SPI_Receive_IT(SPI_HandleTypeDef *hspi, uint8_t *pData, uint16_t Size)
1128:./Libraries/STM32F4xx_HAL_Driver/Src/stm32f4xx_hal_spi.c **** {
 2349              		.loc 1 1128 1
 2350              		.cfi_startproc
ARM GAS  /tmp/ccits0mR.s 			page 62


 2351              		@ args = 0, pretend = 0, frame = 24
 2352              		@ frame_needed = 1, uses_anonymous_args = 0
 2353 0000 80B5     		push	{r7, lr}
 2354              	.LCFI43:
 2355              		.cfi_def_cfa_offset 8
 2356              		.cfi_offset 7, -8
 2357              		.cfi_offset 14, -4
 2358 0002 86B0     		sub	sp, sp, #24
 2359              	.LCFI44:
 2360              		.cfi_def_cfa_offset 32
 2361 0004 00AF     		add	r7, sp, #0
 2362              	.LCFI45:
 2363              		.cfi_def_cfa_register 7
 2364 0006 F860     		str	r0, [r7, #12]
 2365 0008 B960     		str	r1, [r7, #8]
 2366 000a 1346     		mov	r3, r2
 2367 000c FB80     		strh	r3, [r7, #6]	@ movhi
1129:./Libraries/STM32F4xx_HAL_Driver/Src/stm32f4xx_hal_spi.c ****   HAL_StatusTypeDef errorcode = HAL_OK;
 2368              		.loc 1 1129 21
 2369 000e 0023     		movs	r3, #0
 2370 0010 FB75     		strb	r3, [r7, #23]
1130:./Libraries/STM32F4xx_HAL_Driver/Src/stm32f4xx_hal_spi.c **** 
1131:./Libraries/STM32F4xx_HAL_Driver/Src/stm32f4xx_hal_spi.c ****   if((hspi->Init.Direction == SPI_DIRECTION_2LINES) && (hspi->Init.Mode == SPI_MODE_MASTER))
 2371              		.loc 1 1131 17
 2372 0012 FB68     		ldr	r3, [r7, #12]
 2373 0014 9B68     		ldr	r3, [r3, #8]
 2374              		.loc 1 1131 5
 2375 0016 002B     		cmp	r3, #0
 2376 0018 10D1     		bne	.L118
 2377              		.loc 1 1131 67 discriminator 1
 2378 001a FB68     		ldr	r3, [r7, #12]
 2379 001c 5B68     		ldr	r3, [r3, #4]
 2380              		.loc 1 1131 53 discriminator 1
 2381 001e B3F5827F 		cmp	r3, #260
 2382 0022 0BD1     		bne	.L118
1132:./Libraries/STM32F4xx_HAL_Driver/Src/stm32f4xx_hal_spi.c ****   {
1133:./Libraries/STM32F4xx_HAL_Driver/Src/stm32f4xx_hal_spi.c ****      hspi->State = HAL_SPI_STATE_BUSY_RX;
 2383              		.loc 1 1133 18
 2384 0024 FB68     		ldr	r3, [r7, #12]
 2385 0026 0422     		movs	r2, #4
 2386 0028 83F85120 		strb	r2, [r3, #81]
1134:./Libraries/STM32F4xx_HAL_Driver/Src/stm32f4xx_hal_spi.c ****      /* Call transmit-receive function to send Dummy data on Tx line and generate clock on CLK line
1135:./Libraries/STM32F4xx_HAL_Driver/Src/stm32f4xx_hal_spi.c ****      return HAL_SPI_TransmitReceive_IT(hspi, pData, pData, Size);
 2387              		.loc 1 1135 13
 2388 002c FB88     		ldrh	r3, [r7, #6]
 2389 002e BA68     		ldr	r2, [r7, #8]
 2390 0030 B968     		ldr	r1, [r7, #8]
 2391 0032 F868     		ldr	r0, [r7, #12]
 2392 0034 FFF7FEFF 		bl	HAL_SPI_TransmitReceive_IT
 2393 0038 0346     		mov	r3, r0
 2394 003a 84E0     		b	.L119
 2395              	.L118:
1136:./Libraries/STM32F4xx_HAL_Driver/Src/stm32f4xx_hal_spi.c ****   }
1137:./Libraries/STM32F4xx_HAL_Driver/Src/stm32f4xx_hal_spi.c **** 
1138:./Libraries/STM32F4xx_HAL_Driver/Src/stm32f4xx_hal_spi.c ****   /* Process Locked */
1139:./Libraries/STM32F4xx_HAL_Driver/Src/stm32f4xx_hal_spi.c ****   __HAL_LOCK(hspi);
 2396              		.loc 1 1139 3
ARM GAS  /tmp/ccits0mR.s 			page 63


 2397 003c FB68     		ldr	r3, [r7, #12]
 2398 003e 93F85030 		ldrb	r3, [r3, #80]	@ zero_extendqisi2
 2399 0042 012B     		cmp	r3, #1
 2400 0044 01D1     		bne	.L120
 2401              		.loc 1 1139 3 is_stmt 0 discriminator 1
 2402 0046 0223     		movs	r3, #2
 2403 0048 7DE0     		b	.L119
 2404              	.L120:
 2405              		.loc 1 1139 3 discriminator 2
 2406 004a FB68     		ldr	r3, [r7, #12]
 2407 004c 0122     		movs	r2, #1
 2408 004e 83F85020 		strb	r2, [r3, #80]
1140:./Libraries/STM32F4xx_HAL_Driver/Src/stm32f4xx_hal_spi.c **** 
1141:./Libraries/STM32F4xx_HAL_Driver/Src/stm32f4xx_hal_spi.c ****   if(hspi->State != HAL_SPI_STATE_READY)
 2409              		.loc 1 1141 10 is_stmt 1 discriminator 2
 2410 0052 FB68     		ldr	r3, [r7, #12]
 2411 0054 93F85130 		ldrb	r3, [r3, #81]
 2412 0058 DBB2     		uxtb	r3, r3
 2413              		.loc 1 1141 5 discriminator 2
 2414 005a 012B     		cmp	r3, #1
 2415 005c 02D0     		beq	.L121
1142:./Libraries/STM32F4xx_HAL_Driver/Src/stm32f4xx_hal_spi.c ****   {
1143:./Libraries/STM32F4xx_HAL_Driver/Src/stm32f4xx_hal_spi.c ****     errorcode = HAL_BUSY;
 2416              		.loc 1 1143 15
 2417 005e 0223     		movs	r3, #2
 2418 0060 FB75     		strb	r3, [r7, #23]
1144:./Libraries/STM32F4xx_HAL_Driver/Src/stm32f4xx_hal_spi.c ****     goto error;
 2419              		.loc 1 1144 5
 2420 0062 6BE0     		b	.L122
 2421              	.L121:
1145:./Libraries/STM32F4xx_HAL_Driver/Src/stm32f4xx_hal_spi.c ****   }
1146:./Libraries/STM32F4xx_HAL_Driver/Src/stm32f4xx_hal_spi.c **** 
1147:./Libraries/STM32F4xx_HAL_Driver/Src/stm32f4xx_hal_spi.c ****   if((pData == NULL) || (Size == 0))
 2422              		.loc 1 1147 5
 2423 0064 BB68     		ldr	r3, [r7, #8]
 2424 0066 002B     		cmp	r3, #0
 2425 0068 02D0     		beq	.L123
 2426              		.loc 1 1147 22 discriminator 1
 2427 006a FB88     		ldrh	r3, [r7, #6]
 2428 006c 002B     		cmp	r3, #0
 2429 006e 02D1     		bne	.L124
 2430              	.L123:
1148:./Libraries/STM32F4xx_HAL_Driver/Src/stm32f4xx_hal_spi.c ****   {
1149:./Libraries/STM32F4xx_HAL_Driver/Src/stm32f4xx_hal_spi.c ****     errorcode = HAL_ERROR;
 2431              		.loc 1 1149 15
 2432 0070 0123     		movs	r3, #1
 2433 0072 FB75     		strb	r3, [r7, #23]
1150:./Libraries/STM32F4xx_HAL_Driver/Src/stm32f4xx_hal_spi.c ****     goto error;
 2434              		.loc 1 1150 5
 2435 0074 62E0     		b	.L122
 2436              	.L124:
1151:./Libraries/STM32F4xx_HAL_Driver/Src/stm32f4xx_hal_spi.c ****   }
1152:./Libraries/STM32F4xx_HAL_Driver/Src/stm32f4xx_hal_spi.c **** 
1153:./Libraries/STM32F4xx_HAL_Driver/Src/stm32f4xx_hal_spi.c ****   /* Set the transaction information */
1154:./Libraries/STM32F4xx_HAL_Driver/Src/stm32f4xx_hal_spi.c ****   hspi->State       = HAL_SPI_STATE_BUSY_RX;
 2437              		.loc 1 1154 21
 2438 0076 FB68     		ldr	r3, [r7, #12]
ARM GAS  /tmp/ccits0mR.s 			page 64


 2439 0078 0422     		movs	r2, #4
 2440 007a 83F85120 		strb	r2, [r3, #81]
1155:./Libraries/STM32F4xx_HAL_Driver/Src/stm32f4xx_hal_spi.c ****   hspi->ErrorCode   = HAL_SPI_ERROR_NONE;
 2441              		.loc 1 1155 21
 2442 007e FB68     		ldr	r3, [r7, #12]
 2443 0080 0022     		movs	r2, #0
 2444 0082 5A65     		str	r2, [r3, #84]
1156:./Libraries/STM32F4xx_HAL_Driver/Src/stm32f4xx_hal_spi.c ****   hspi->pRxBuffPtr  = (uint8_t *)pData;
 2445              		.loc 1 1156 21
 2446 0084 FB68     		ldr	r3, [r7, #12]
 2447 0086 BA68     		ldr	r2, [r7, #8]
 2448 0088 9A63     		str	r2, [r3, #56]
1157:./Libraries/STM32F4xx_HAL_Driver/Src/stm32f4xx_hal_spi.c ****   hspi->RxXferSize  = Size;
 2449              		.loc 1 1157 21
 2450 008a FB68     		ldr	r3, [r7, #12]
 2451 008c FA88     		ldrh	r2, [r7, #6]	@ movhi
 2452 008e 9A87     		strh	r2, [r3, #60]	@ movhi
1158:./Libraries/STM32F4xx_HAL_Driver/Src/stm32f4xx_hal_spi.c ****   hspi->RxXferCount = Size;
 2453              		.loc 1 1158 21
 2454 0090 FB68     		ldr	r3, [r7, #12]
 2455 0092 FA88     		ldrh	r2, [r7, #6]	@ movhi
 2456 0094 DA87     		strh	r2, [r3, #62]	@ movhi
1159:./Libraries/STM32F4xx_HAL_Driver/Src/stm32f4xx_hal_spi.c **** 
1160:./Libraries/STM32F4xx_HAL_Driver/Src/stm32f4xx_hal_spi.c ****   /* Init field not used in handle to zero */
1161:./Libraries/STM32F4xx_HAL_Driver/Src/stm32f4xx_hal_spi.c ****   hspi->pTxBuffPtr  = (uint8_t *)NULL;
 2457              		.loc 1 1161 21
 2458 0096 FB68     		ldr	r3, [r7, #12]
 2459 0098 0022     		movs	r2, #0
 2460 009a 1A63     		str	r2, [r3, #48]
1162:./Libraries/STM32F4xx_HAL_Driver/Src/stm32f4xx_hal_spi.c ****   hspi->TxXferSize  = 0U;
 2461              		.loc 1 1162 21
 2462 009c FB68     		ldr	r3, [r7, #12]
 2463 009e 0022     		movs	r2, #0
 2464 00a0 9A86     		strh	r2, [r3, #52]	@ movhi
1163:./Libraries/STM32F4xx_HAL_Driver/Src/stm32f4xx_hal_spi.c ****   hspi->TxXferCount = 0U;
 2465              		.loc 1 1163 21
 2466 00a2 FB68     		ldr	r3, [r7, #12]
 2467 00a4 0022     		movs	r2, #0
 2468 00a6 DA86     		strh	r2, [r3, #54]	@ movhi
1164:./Libraries/STM32F4xx_HAL_Driver/Src/stm32f4xx_hal_spi.c ****   hspi->TxISR       = NULL;
 2469              		.loc 1 1164 21
 2470 00a8 FB68     		ldr	r3, [r7, #12]
 2471 00aa 0022     		movs	r2, #0
 2472 00ac 5A64     		str	r2, [r3, #68]
1165:./Libraries/STM32F4xx_HAL_Driver/Src/stm32f4xx_hal_spi.c **** 
1166:./Libraries/STM32F4xx_HAL_Driver/Src/stm32f4xx_hal_spi.c ****   /* Set the function for IT treatment */
1167:./Libraries/STM32F4xx_HAL_Driver/Src/stm32f4xx_hal_spi.c ****   if(hspi->Init.DataSize > SPI_DATASIZE_8BIT )
 2473              		.loc 1 1167 16
 2474 00ae FB68     		ldr	r3, [r7, #12]
 2475 00b0 DB68     		ldr	r3, [r3, #12]
 2476              		.loc 1 1167 5
 2477 00b2 002B     		cmp	r3, #0
 2478 00b4 03D0     		beq	.L125
1168:./Libraries/STM32F4xx_HAL_Driver/Src/stm32f4xx_hal_spi.c ****   {
1169:./Libraries/STM32F4xx_HAL_Driver/Src/stm32f4xx_hal_spi.c ****     hspi->RxISR = SPI_RxISR_16BIT;
 2479              		.loc 1 1169 17
 2480 00b6 FB68     		ldr	r3, [r7, #12]
ARM GAS  /tmp/ccits0mR.s 			page 65


 2481 00b8 254A     		ldr	r2, .L130
 2482 00ba 1A64     		str	r2, [r3, #64]
 2483 00bc 02E0     		b	.L126
 2484              	.L125:
1170:./Libraries/STM32F4xx_HAL_Driver/Src/stm32f4xx_hal_spi.c ****   }
1171:./Libraries/STM32F4xx_HAL_Driver/Src/stm32f4xx_hal_spi.c ****   else
1172:./Libraries/STM32F4xx_HAL_Driver/Src/stm32f4xx_hal_spi.c ****   {
1173:./Libraries/STM32F4xx_HAL_Driver/Src/stm32f4xx_hal_spi.c ****     hspi->RxISR = SPI_RxISR_8BIT;
 2485              		.loc 1 1173 17
 2486 00be FB68     		ldr	r3, [r7, #12]
 2487 00c0 244A     		ldr	r2, .L130+4
 2488 00c2 1A64     		str	r2, [r3, #64]
 2489              	.L126:
1174:./Libraries/STM32F4xx_HAL_Driver/Src/stm32f4xx_hal_spi.c ****   }
1175:./Libraries/STM32F4xx_HAL_Driver/Src/stm32f4xx_hal_spi.c **** 
1176:./Libraries/STM32F4xx_HAL_Driver/Src/stm32f4xx_hal_spi.c ****   /* Configure communication direction : 1Line */
1177:./Libraries/STM32F4xx_HAL_Driver/Src/stm32f4xx_hal_spi.c ****   if(hspi->Init.Direction == SPI_DIRECTION_1LINE)
 2490              		.loc 1 1177 16
 2491 00c4 FB68     		ldr	r3, [r7, #12]
 2492 00c6 9B68     		ldr	r3, [r3, #8]
 2493              		.loc 1 1177 5
 2494 00c8 B3F5004F 		cmp	r3, #32768
 2495 00cc 07D1     		bne	.L127
1178:./Libraries/STM32F4xx_HAL_Driver/Src/stm32f4xx_hal_spi.c ****   {
1179:./Libraries/STM32F4xx_HAL_Driver/Src/stm32f4xx_hal_spi.c ****     SPI_1LINE_RX(hspi);
 2496              		.loc 1 1179 5
 2497 00ce FB68     		ldr	r3, [r7, #12]
 2498 00d0 1B68     		ldr	r3, [r3]
 2499 00d2 1A68     		ldr	r2, [r3]
 2500 00d4 FB68     		ldr	r3, [r7, #12]
 2501 00d6 1B68     		ldr	r3, [r3]
 2502 00d8 22F48042 		bic	r2, r2, #16384
 2503 00dc 1A60     		str	r2, [r3]
 2504              	.L127:
1180:./Libraries/STM32F4xx_HAL_Driver/Src/stm32f4xx_hal_spi.c ****   }
1181:./Libraries/STM32F4xx_HAL_Driver/Src/stm32f4xx_hal_spi.c **** 
1182:./Libraries/STM32F4xx_HAL_Driver/Src/stm32f4xx_hal_spi.c **** #if (USE_SPI_CRC != 0U)
1183:./Libraries/STM32F4xx_HAL_Driver/Src/stm32f4xx_hal_spi.c ****   /* Reset CRC Calculation */
1184:./Libraries/STM32F4xx_HAL_Driver/Src/stm32f4xx_hal_spi.c ****   if(hspi->Init.CRCCalculation == SPI_CRCCALCULATION_ENABLE)
 2505              		.loc 1 1184 16
 2506 00de FB68     		ldr	r3, [r7, #12]
 2507 00e0 9B6A     		ldr	r3, [r3, #40]
 2508              		.loc 1 1184 5
 2509 00e2 B3F5005F 		cmp	r3, #8192
 2510 00e6 10D1     		bne	.L128
1185:./Libraries/STM32F4xx_HAL_Driver/Src/stm32f4xx_hal_spi.c ****   {
1186:./Libraries/STM32F4xx_HAL_Driver/Src/stm32f4xx_hal_spi.c ****     SPI_RESET_CRC(hspi);
 2511              		.loc 1 1186 5
 2512 00e8 FB68     		ldr	r3, [r7, #12]
 2513 00ea 1B68     		ldr	r3, [r3]
 2514 00ec 1968     		ldr	r1, [r3]
 2515 00ee FB68     		ldr	r3, [r7, #12]
 2516 00f0 1A68     		ldr	r2, [r3]
 2517 00f2 4DF6FF73 		movw	r3, #57343
 2518 00f6 0B40     		ands	r3, r3, r1
 2519 00f8 1360     		str	r3, [r2]
 2520 00fa FB68     		ldr	r3, [r7, #12]
ARM GAS  /tmp/ccits0mR.s 			page 66


 2521 00fc 1B68     		ldr	r3, [r3]
 2522 00fe 1A68     		ldr	r2, [r3]
 2523 0100 FB68     		ldr	r3, [r7, #12]
 2524 0102 1B68     		ldr	r3, [r3]
 2525 0104 42F40052 		orr	r2, r2, #8192
 2526 0108 1A60     		str	r2, [r3]
 2527              	.L128:
1187:./Libraries/STM32F4xx_HAL_Driver/Src/stm32f4xx_hal_spi.c ****   }
1188:./Libraries/STM32F4xx_HAL_Driver/Src/stm32f4xx_hal_spi.c **** #endif /* USE_SPI_CRC */
1189:./Libraries/STM32F4xx_HAL_Driver/Src/stm32f4xx_hal_spi.c **** 
1190:./Libraries/STM32F4xx_HAL_Driver/Src/stm32f4xx_hal_spi.c ****   /* Enable TXE and ERR interrupt */
1191:./Libraries/STM32F4xx_HAL_Driver/Src/stm32f4xx_hal_spi.c ****   __HAL_SPI_ENABLE_IT(hspi, (SPI_IT_RXNE | SPI_IT_ERR));
 2528              		.loc 1 1191 3
 2529 010a FB68     		ldr	r3, [r7, #12]
 2530 010c 1B68     		ldr	r3, [r3]
 2531 010e 5A68     		ldr	r2, [r3, #4]
 2532 0110 FB68     		ldr	r3, [r7, #12]
 2533 0112 1B68     		ldr	r3, [r3]
 2534 0114 42F06002 		orr	r2, r2, #96
 2535 0118 5A60     		str	r2, [r3, #4]
1192:./Libraries/STM32F4xx_HAL_Driver/Src/stm32f4xx_hal_spi.c **** 
1193:./Libraries/STM32F4xx_HAL_Driver/Src/stm32f4xx_hal_spi.c ****   /* Note : The SPI must be enabled after unlocking current process
1194:./Libraries/STM32F4xx_HAL_Driver/Src/stm32f4xx_hal_spi.c ****             to avoid the risk of SPI interrupt handle execution before current
1195:./Libraries/STM32F4xx_HAL_Driver/Src/stm32f4xx_hal_spi.c ****             process unlock */
1196:./Libraries/STM32F4xx_HAL_Driver/Src/stm32f4xx_hal_spi.c **** 
1197:./Libraries/STM32F4xx_HAL_Driver/Src/stm32f4xx_hal_spi.c ****   /* Check if the SPI is already enabled */
1198:./Libraries/STM32F4xx_HAL_Driver/Src/stm32f4xx_hal_spi.c ****   if((hspi->Instance->CR1 &SPI_CR1_SPE) != SPI_CR1_SPE)
 2536              		.loc 1 1198 11
 2537 011a FB68     		ldr	r3, [r7, #12]
 2538 011c 1B68     		ldr	r3, [r3]
 2539              		.loc 1 1198 21
 2540 011e 1B68     		ldr	r3, [r3]
 2541              		.loc 1 1198 27
 2542 0120 03F04003 		and	r3, r3, #64
 2543              		.loc 1 1198 5
 2544 0124 402B     		cmp	r3, #64
 2545 0126 08D0     		beq	.L129
1199:./Libraries/STM32F4xx_HAL_Driver/Src/stm32f4xx_hal_spi.c ****   {
1200:./Libraries/STM32F4xx_HAL_Driver/Src/stm32f4xx_hal_spi.c ****     /* Enable SPI peripheral */
1201:./Libraries/STM32F4xx_HAL_Driver/Src/stm32f4xx_hal_spi.c ****     __HAL_SPI_ENABLE(hspi);
 2546              		.loc 1 1201 5
 2547 0128 FB68     		ldr	r3, [r7, #12]
 2548 012a 1B68     		ldr	r3, [r3]
 2549 012c 1A68     		ldr	r2, [r3]
 2550 012e FB68     		ldr	r3, [r7, #12]
 2551 0130 1B68     		ldr	r3, [r3]
 2552 0132 42F04002 		orr	r2, r2, #64
 2553 0136 1A60     		str	r2, [r3]
 2554 0138 00E0     		b	.L122
 2555              	.L129:
1202:./Libraries/STM32F4xx_HAL_Driver/Src/stm32f4xx_hal_spi.c ****   }
1203:./Libraries/STM32F4xx_HAL_Driver/Src/stm32f4xx_hal_spi.c **** 
1204:./Libraries/STM32F4xx_HAL_Driver/Src/stm32f4xx_hal_spi.c **** error :
 2556              		.loc 1 1204 1
 2557 013a 00BF     		nop
 2558              	.L122:
1205:./Libraries/STM32F4xx_HAL_Driver/Src/stm32f4xx_hal_spi.c ****   /* Process Unlocked */
ARM GAS  /tmp/ccits0mR.s 			page 67


1206:./Libraries/STM32F4xx_HAL_Driver/Src/stm32f4xx_hal_spi.c ****   __HAL_UNLOCK(hspi);
 2559              		.loc 1 1206 3
 2560 013c FB68     		ldr	r3, [r7, #12]
 2561 013e 0022     		movs	r2, #0
 2562 0140 83F85020 		strb	r2, [r3, #80]
1207:./Libraries/STM32F4xx_HAL_Driver/Src/stm32f4xx_hal_spi.c ****   return errorcode;
 2563              		.loc 1 1207 10
 2564 0144 FB7D     		ldrb	r3, [r7, #23]	@ zero_extendqisi2
 2565              	.L119:
1208:./Libraries/STM32F4xx_HAL_Driver/Src/stm32f4xx_hal_spi.c **** }
 2566              		.loc 1 1208 1
 2567 0146 1846     		mov	r0, r3
 2568 0148 1837     		adds	r7, r7, #24
 2569              	.LCFI46:
 2570              		.cfi_def_cfa_offset 8
 2571 014a BD46     		mov	sp, r7
 2572              	.LCFI47:
 2573              		.cfi_def_cfa_register 13
 2574              		@ sp needed
 2575 014c 80BD     		pop	{r7, pc}
 2576              	.L131:
 2577 014e 00BF     		.align	2
 2578              	.L130:
 2579 0150 00000000 		.word	SPI_RxISR_16BIT
 2580 0154 00000000 		.word	SPI_RxISR_8BIT
 2581              		.cfi_endproc
 2582              	.LFE134:
 2584              		.section	.text.HAL_SPI_TransmitReceive_IT,"ax",%progbits
 2585              		.align	1
 2586              		.global	HAL_SPI_TransmitReceive_IT
 2587              		.syntax unified
 2588              		.thumb
 2589              		.thumb_func
 2590              		.fpu fpv4-sp-d16
 2592              	HAL_SPI_TransmitReceive_IT:
 2593              	.LFB135:
1209:./Libraries/STM32F4xx_HAL_Driver/Src/stm32f4xx_hal_spi.c **** 
1210:./Libraries/STM32F4xx_HAL_Driver/Src/stm32f4xx_hal_spi.c **** /**
1211:./Libraries/STM32F4xx_HAL_Driver/Src/stm32f4xx_hal_spi.c ****   * @brief  Transmit and Receive an amount of data in non-blocking mode with Interrupt.
1212:./Libraries/STM32F4xx_HAL_Driver/Src/stm32f4xx_hal_spi.c ****   * @param  hspi pointer to a SPI_HandleTypeDef structure that contains
1213:./Libraries/STM32F4xx_HAL_Driver/Src/stm32f4xx_hal_spi.c ****   *               the configuration information for SPI module.
1214:./Libraries/STM32F4xx_HAL_Driver/Src/stm32f4xx_hal_spi.c ****   * @param  pTxData pointer to transmission data buffer
1215:./Libraries/STM32F4xx_HAL_Driver/Src/stm32f4xx_hal_spi.c ****   * @param  pRxData pointer to reception data buffer
1216:./Libraries/STM32F4xx_HAL_Driver/Src/stm32f4xx_hal_spi.c ****   * @param  Size amount of data to be sent and received
1217:./Libraries/STM32F4xx_HAL_Driver/Src/stm32f4xx_hal_spi.c ****   * @retval HAL status
1218:./Libraries/STM32F4xx_HAL_Driver/Src/stm32f4xx_hal_spi.c ****   */
1219:./Libraries/STM32F4xx_HAL_Driver/Src/stm32f4xx_hal_spi.c **** HAL_StatusTypeDef HAL_SPI_TransmitReceive_IT(SPI_HandleTypeDef *hspi, uint8_t *pTxData, uint8_t *pR
1220:./Libraries/STM32F4xx_HAL_Driver/Src/stm32f4xx_hal_spi.c **** {
 2594              		.loc 1 1220 1
 2595              		.cfi_startproc
 2596              		@ args = 0, pretend = 0, frame = 32
 2597              		@ frame_needed = 1, uses_anonymous_args = 0
 2598              		@ link register save eliminated.
 2599 0000 80B4     		push	{r7}
 2600              	.LCFI48:
 2601              		.cfi_def_cfa_offset 4
 2602              		.cfi_offset 7, -4
ARM GAS  /tmp/ccits0mR.s 			page 68


 2603 0002 89B0     		sub	sp, sp, #36
 2604              	.LCFI49:
 2605              		.cfi_def_cfa_offset 40
 2606 0004 00AF     		add	r7, sp, #0
 2607              	.LCFI50:
 2608              		.cfi_def_cfa_register 7
 2609 0006 F860     		str	r0, [r7, #12]
 2610 0008 B960     		str	r1, [r7, #8]
 2611 000a 7A60     		str	r2, [r7, #4]
 2612 000c 7B80     		strh	r3, [r7, #2]	@ movhi
1221:./Libraries/STM32F4xx_HAL_Driver/Src/stm32f4xx_hal_spi.c ****   uint32_t tmp = 0U, tmp1 = 0U;
 2613              		.loc 1 1221 12
 2614 000e 0023     		movs	r3, #0
 2615 0010 BB61     		str	r3, [r7, #24]
 2616              		.loc 1 1221 22
 2617 0012 0023     		movs	r3, #0
 2618 0014 7B61     		str	r3, [r7, #20]
1222:./Libraries/STM32F4xx_HAL_Driver/Src/stm32f4xx_hal_spi.c ****   HAL_StatusTypeDef errorcode = HAL_OK;
 2619              		.loc 1 1222 21
 2620 0016 0023     		movs	r3, #0
 2621 0018 FB77     		strb	r3, [r7, #31]
1223:./Libraries/STM32F4xx_HAL_Driver/Src/stm32f4xx_hal_spi.c **** 
1224:./Libraries/STM32F4xx_HAL_Driver/Src/stm32f4xx_hal_spi.c ****   /* Check Direction parameter */
1225:./Libraries/STM32F4xx_HAL_Driver/Src/stm32f4xx_hal_spi.c ****   assert_param(IS_SPI_DIRECTION_2LINES(hspi->Init.Direction));
1226:./Libraries/STM32F4xx_HAL_Driver/Src/stm32f4xx_hal_spi.c **** 
1227:./Libraries/STM32F4xx_HAL_Driver/Src/stm32f4xx_hal_spi.c ****   /* Process locked */
1228:./Libraries/STM32F4xx_HAL_Driver/Src/stm32f4xx_hal_spi.c ****   __HAL_LOCK(hspi);
 2622              		.loc 1 1228 3
 2623 001a FB68     		ldr	r3, [r7, #12]
 2624 001c 93F85030 		ldrb	r3, [r3, #80]	@ zero_extendqisi2
 2625 0020 012B     		cmp	r3, #1
 2626 0022 01D1     		bne	.L133
 2627              		.loc 1 1228 3 is_stmt 0 discriminator 1
 2628 0024 0223     		movs	r3, #2
 2629 0026 8CE0     		b	.L134
 2630              	.L133:
 2631              		.loc 1 1228 3 discriminator 2
 2632 0028 FB68     		ldr	r3, [r7, #12]
 2633 002a 0122     		movs	r2, #1
 2634 002c 83F85020 		strb	r2, [r3, #80]
1229:./Libraries/STM32F4xx_HAL_Driver/Src/stm32f4xx_hal_spi.c **** 
1230:./Libraries/STM32F4xx_HAL_Driver/Src/stm32f4xx_hal_spi.c ****   tmp  = hspi->State;
 2635              		.loc 1 1230 14 is_stmt 1 discriminator 2
 2636 0030 FB68     		ldr	r3, [r7, #12]
 2637 0032 93F85130 		ldrb	r3, [r3, #81]
 2638 0036 DBB2     		uxtb	r3, r3
 2639              		.loc 1 1230 8 discriminator 2
 2640 0038 BB61     		str	r3, [r7, #24]
1231:./Libraries/STM32F4xx_HAL_Driver/Src/stm32f4xx_hal_spi.c ****   tmp1 = hspi->Init.Mode;
 2641              		.loc 1 1231 8 discriminator 2
 2642 003a FB68     		ldr	r3, [r7, #12]
 2643 003c 5B68     		ldr	r3, [r3, #4]
 2644 003e 7B61     		str	r3, [r7, #20]
1232:./Libraries/STM32F4xx_HAL_Driver/Src/stm32f4xx_hal_spi.c ****   
1233:./Libraries/STM32F4xx_HAL_Driver/Src/stm32f4xx_hal_spi.c ****   if(!((tmp == HAL_SPI_STATE_READY) || \
 2645              		.loc 1 1233 5 discriminator 2
 2646 0040 BB69     		ldr	r3, [r7, #24]
ARM GAS  /tmp/ccits0mR.s 			page 69


 2647 0042 012B     		cmp	r3, #1
 2648 0044 0DD0     		beq	.L135
 2649              		.loc 1 1233 6 discriminator 1
 2650 0046 7B69     		ldr	r3, [r7, #20]
 2651 0048 B3F5827F 		cmp	r3, #260
 2652 004c 06D1     		bne	.L136
1234:./Libraries/STM32F4xx_HAL_Driver/Src/stm32f4xx_hal_spi.c ****     ((tmp1 == SPI_MODE_MASTER) && (hspi->Init.Direction == SPI_DIRECTION_2LINES) && (tmp == HAL_SPI
 2653              		.loc 1 1234 46
 2654 004e FB68     		ldr	r3, [r7, #12]
 2655 0050 9B68     		ldr	r3, [r3, #8]
 2656              		.loc 1 1234 32
 2657 0052 002B     		cmp	r3, #0
 2658 0054 02D1     		bne	.L136
 2659              		.loc 1 1234 82 discriminator 1
 2660 0056 BB69     		ldr	r3, [r7, #24]
 2661 0058 042B     		cmp	r3, #4
 2662 005a 02D0     		beq	.L135
 2663              	.L136:
1235:./Libraries/STM32F4xx_HAL_Driver/Src/stm32f4xx_hal_spi.c ****   {
1236:./Libraries/STM32F4xx_HAL_Driver/Src/stm32f4xx_hal_spi.c ****     errorcode = HAL_BUSY;
 2664              		.loc 1 1236 15
 2665 005c 0223     		movs	r3, #2
 2666 005e FB77     		strb	r3, [r7, #31]
1237:./Libraries/STM32F4xx_HAL_Driver/Src/stm32f4xx_hal_spi.c ****     goto error;
 2667              		.loc 1 1237 5
 2668 0060 6AE0     		b	.L137
 2669              	.L135:
1238:./Libraries/STM32F4xx_HAL_Driver/Src/stm32f4xx_hal_spi.c ****   }
1239:./Libraries/STM32F4xx_HAL_Driver/Src/stm32f4xx_hal_spi.c **** 
1240:./Libraries/STM32F4xx_HAL_Driver/Src/stm32f4xx_hal_spi.c ****   if((pTxData == NULL ) || (pRxData == NULL ) || (Size == 0))
 2670              		.loc 1 1240 5
 2671 0062 BB68     		ldr	r3, [r7, #8]
 2672 0064 002B     		cmp	r3, #0
 2673 0066 05D0     		beq	.L138
 2674              		.loc 1 1240 25 discriminator 1
 2675 0068 7B68     		ldr	r3, [r7, #4]
 2676 006a 002B     		cmp	r3, #0
 2677 006c 02D0     		beq	.L138
 2678              		.loc 1 1240 47 discriminator 2
 2679 006e 7B88     		ldrh	r3, [r7, #2]
 2680 0070 002B     		cmp	r3, #0
 2681 0072 02D1     		bne	.L139
 2682              	.L138:
1241:./Libraries/STM32F4xx_HAL_Driver/Src/stm32f4xx_hal_spi.c ****   {
1242:./Libraries/STM32F4xx_HAL_Driver/Src/stm32f4xx_hal_spi.c ****     errorcode = HAL_ERROR;
 2683              		.loc 1 1242 15
 2684 0074 0123     		movs	r3, #1
 2685 0076 FB77     		strb	r3, [r7, #31]
1243:./Libraries/STM32F4xx_HAL_Driver/Src/stm32f4xx_hal_spi.c ****     goto error;
 2686              		.loc 1 1243 5
 2687 0078 5EE0     		b	.L137
 2688              	.L139:
1244:./Libraries/STM32F4xx_HAL_Driver/Src/stm32f4xx_hal_spi.c ****   }
1245:./Libraries/STM32F4xx_HAL_Driver/Src/stm32f4xx_hal_spi.c **** 
1246:./Libraries/STM32F4xx_HAL_Driver/Src/stm32f4xx_hal_spi.c ****   /* Don't overwrite in case of HAL_SPI_STATE_BUSY_RX */
1247:./Libraries/STM32F4xx_HAL_Driver/Src/stm32f4xx_hal_spi.c ****   if(hspi->State == HAL_SPI_STATE_READY)
 2689              		.loc 1 1247 10
ARM GAS  /tmp/ccits0mR.s 			page 70


 2690 007a FB68     		ldr	r3, [r7, #12]
 2691 007c 93F85130 		ldrb	r3, [r3, #81]
 2692 0080 DBB2     		uxtb	r3, r3
 2693              		.loc 1 1247 5
 2694 0082 012B     		cmp	r3, #1
 2695 0084 03D1     		bne	.L140
1248:./Libraries/STM32F4xx_HAL_Driver/Src/stm32f4xx_hal_spi.c ****   {
1249:./Libraries/STM32F4xx_HAL_Driver/Src/stm32f4xx_hal_spi.c ****     hspi->State = HAL_SPI_STATE_BUSY_TX_RX;
 2696              		.loc 1 1249 17
 2697 0086 FB68     		ldr	r3, [r7, #12]
 2698 0088 0522     		movs	r2, #5
 2699 008a 83F85120 		strb	r2, [r3, #81]
 2700              	.L140:
1250:./Libraries/STM32F4xx_HAL_Driver/Src/stm32f4xx_hal_spi.c ****   }
1251:./Libraries/STM32F4xx_HAL_Driver/Src/stm32f4xx_hal_spi.c **** 
1252:./Libraries/STM32F4xx_HAL_Driver/Src/stm32f4xx_hal_spi.c ****   /* Set the transaction information */
1253:./Libraries/STM32F4xx_HAL_Driver/Src/stm32f4xx_hal_spi.c ****   hspi->ErrorCode   = HAL_SPI_ERROR_NONE;
 2701              		.loc 1 1253 21
 2702 008e FB68     		ldr	r3, [r7, #12]
 2703 0090 0022     		movs	r2, #0
 2704 0092 5A65     		str	r2, [r3, #84]
1254:./Libraries/STM32F4xx_HAL_Driver/Src/stm32f4xx_hal_spi.c ****   hspi->pTxBuffPtr  = (uint8_t *)pTxData;
 2705              		.loc 1 1254 21
 2706 0094 FB68     		ldr	r3, [r7, #12]
 2707 0096 BA68     		ldr	r2, [r7, #8]
 2708 0098 1A63     		str	r2, [r3, #48]
1255:./Libraries/STM32F4xx_HAL_Driver/Src/stm32f4xx_hal_spi.c ****   hspi->TxXferSize  = Size;
 2709              		.loc 1 1255 21
 2710 009a FB68     		ldr	r3, [r7, #12]
 2711 009c 7A88     		ldrh	r2, [r7, #2]	@ movhi
 2712 009e 9A86     		strh	r2, [r3, #52]	@ movhi
1256:./Libraries/STM32F4xx_HAL_Driver/Src/stm32f4xx_hal_spi.c ****   hspi->TxXferCount = Size;
 2713              		.loc 1 1256 21
 2714 00a0 FB68     		ldr	r3, [r7, #12]
 2715 00a2 7A88     		ldrh	r2, [r7, #2]	@ movhi
 2716 00a4 DA86     		strh	r2, [r3, #54]	@ movhi
1257:./Libraries/STM32F4xx_HAL_Driver/Src/stm32f4xx_hal_spi.c ****   hspi->pRxBuffPtr  = (uint8_t *)pRxData;
 2717              		.loc 1 1257 21
 2718 00a6 FB68     		ldr	r3, [r7, #12]
 2719 00a8 7A68     		ldr	r2, [r7, #4]
 2720 00aa 9A63     		str	r2, [r3, #56]
1258:./Libraries/STM32F4xx_HAL_Driver/Src/stm32f4xx_hal_spi.c ****   hspi->RxXferSize  = Size;
 2721              		.loc 1 1258 21
 2722 00ac FB68     		ldr	r3, [r7, #12]
 2723 00ae 7A88     		ldrh	r2, [r7, #2]	@ movhi
 2724 00b0 9A87     		strh	r2, [r3, #60]	@ movhi
1259:./Libraries/STM32F4xx_HAL_Driver/Src/stm32f4xx_hal_spi.c ****   hspi->RxXferCount = Size;
 2725              		.loc 1 1259 21
 2726 00b2 FB68     		ldr	r3, [r7, #12]
 2727 00b4 7A88     		ldrh	r2, [r7, #2]	@ movhi
 2728 00b6 DA87     		strh	r2, [r3, #62]	@ movhi
1260:./Libraries/STM32F4xx_HAL_Driver/Src/stm32f4xx_hal_spi.c **** 
1261:./Libraries/STM32F4xx_HAL_Driver/Src/stm32f4xx_hal_spi.c ****   /* Set the function for IT treatment */
1262:./Libraries/STM32F4xx_HAL_Driver/Src/stm32f4xx_hal_spi.c ****   if(hspi->Init.DataSize > SPI_DATASIZE_8BIT )
 2729              		.loc 1 1262 16
 2730 00b8 FB68     		ldr	r3, [r7, #12]
 2731 00ba DB68     		ldr	r3, [r3, #12]
ARM GAS  /tmp/ccits0mR.s 			page 71


 2732              		.loc 1 1262 5
 2733 00bc 002B     		cmp	r3, #0
 2734 00be 06D0     		beq	.L141
1263:./Libraries/STM32F4xx_HAL_Driver/Src/stm32f4xx_hal_spi.c ****   {
1264:./Libraries/STM32F4xx_HAL_Driver/Src/stm32f4xx_hal_spi.c ****     hspi->RxISR     = SPI_2linesRxISR_16BIT;
 2735              		.loc 1 1264 21
 2736 00c0 FB68     		ldr	r3, [r7, #12]
 2737 00c2 234A     		ldr	r2, .L145
 2738 00c4 1A64     		str	r2, [r3, #64]
1265:./Libraries/STM32F4xx_HAL_Driver/Src/stm32f4xx_hal_spi.c ****     hspi->TxISR     = SPI_2linesTxISR_16BIT;
 2739              		.loc 1 1265 21
 2740 00c6 FB68     		ldr	r3, [r7, #12]
 2741 00c8 224A     		ldr	r2, .L145+4
 2742 00ca 5A64     		str	r2, [r3, #68]
 2743 00cc 05E0     		b	.L142
 2744              	.L141:
1266:./Libraries/STM32F4xx_HAL_Driver/Src/stm32f4xx_hal_spi.c ****   }
1267:./Libraries/STM32F4xx_HAL_Driver/Src/stm32f4xx_hal_spi.c ****   else
1268:./Libraries/STM32F4xx_HAL_Driver/Src/stm32f4xx_hal_spi.c ****   {
1269:./Libraries/STM32F4xx_HAL_Driver/Src/stm32f4xx_hal_spi.c ****     hspi->RxISR     = SPI_2linesRxISR_8BIT;
 2745              		.loc 1 1269 21
 2746 00ce FB68     		ldr	r3, [r7, #12]
 2747 00d0 214A     		ldr	r2, .L145+8
 2748 00d2 1A64     		str	r2, [r3, #64]
1270:./Libraries/STM32F4xx_HAL_Driver/Src/stm32f4xx_hal_spi.c ****     hspi->TxISR     = SPI_2linesTxISR_8BIT;
 2749              		.loc 1 1270 21
 2750 00d4 FB68     		ldr	r3, [r7, #12]
 2751 00d6 214A     		ldr	r2, .L145+12
 2752 00d8 5A64     		str	r2, [r3, #68]
 2753              	.L142:
1271:./Libraries/STM32F4xx_HAL_Driver/Src/stm32f4xx_hal_spi.c ****   }
1272:./Libraries/STM32F4xx_HAL_Driver/Src/stm32f4xx_hal_spi.c **** 
1273:./Libraries/STM32F4xx_HAL_Driver/Src/stm32f4xx_hal_spi.c **** #if (USE_SPI_CRC != 0U)
1274:./Libraries/STM32F4xx_HAL_Driver/Src/stm32f4xx_hal_spi.c ****   /* Reset CRC Calculation */
1275:./Libraries/STM32F4xx_HAL_Driver/Src/stm32f4xx_hal_spi.c ****   if(hspi->Init.CRCCalculation == SPI_CRCCALCULATION_ENABLE)
 2754              		.loc 1 1275 16
 2755 00da FB68     		ldr	r3, [r7, #12]
 2756 00dc 9B6A     		ldr	r3, [r3, #40]
 2757              		.loc 1 1275 5
 2758 00de B3F5005F 		cmp	r3, #8192
 2759 00e2 10D1     		bne	.L143
1276:./Libraries/STM32F4xx_HAL_Driver/Src/stm32f4xx_hal_spi.c ****   {
1277:./Libraries/STM32F4xx_HAL_Driver/Src/stm32f4xx_hal_spi.c ****     SPI_RESET_CRC(hspi);
 2760              		.loc 1 1277 5
 2761 00e4 FB68     		ldr	r3, [r7, #12]
 2762 00e6 1B68     		ldr	r3, [r3]
 2763 00e8 1968     		ldr	r1, [r3]
 2764 00ea FB68     		ldr	r3, [r7, #12]
 2765 00ec 1A68     		ldr	r2, [r3]
 2766 00ee 4DF6FF73 		movw	r3, #57343
 2767 00f2 0B40     		ands	r3, r3, r1
 2768 00f4 1360     		str	r3, [r2]
 2769 00f6 FB68     		ldr	r3, [r7, #12]
 2770 00f8 1B68     		ldr	r3, [r3]
 2771 00fa 1A68     		ldr	r2, [r3]
 2772 00fc FB68     		ldr	r3, [r7, #12]
 2773 00fe 1B68     		ldr	r3, [r3]
ARM GAS  /tmp/ccits0mR.s 			page 72


 2774 0100 42F40052 		orr	r2, r2, #8192
 2775 0104 1A60     		str	r2, [r3]
 2776              	.L143:
1278:./Libraries/STM32F4xx_HAL_Driver/Src/stm32f4xx_hal_spi.c ****   }
1279:./Libraries/STM32F4xx_HAL_Driver/Src/stm32f4xx_hal_spi.c **** #endif /* USE_SPI_CRC */
1280:./Libraries/STM32F4xx_HAL_Driver/Src/stm32f4xx_hal_spi.c **** 
1281:./Libraries/STM32F4xx_HAL_Driver/Src/stm32f4xx_hal_spi.c ****   /* Enable TXE, RXNE and ERR interrupt */
1282:./Libraries/STM32F4xx_HAL_Driver/Src/stm32f4xx_hal_spi.c ****   __HAL_SPI_ENABLE_IT(hspi, (SPI_IT_TXE | SPI_IT_RXNE | SPI_IT_ERR));
 2777              		.loc 1 1282 3
 2778 0106 FB68     		ldr	r3, [r7, #12]
 2779 0108 1B68     		ldr	r3, [r3]
 2780 010a 5A68     		ldr	r2, [r3, #4]
 2781 010c FB68     		ldr	r3, [r7, #12]
 2782 010e 1B68     		ldr	r3, [r3]
 2783 0110 42F0E002 		orr	r2, r2, #224
 2784 0114 5A60     		str	r2, [r3, #4]
1283:./Libraries/STM32F4xx_HAL_Driver/Src/stm32f4xx_hal_spi.c **** 
1284:./Libraries/STM32F4xx_HAL_Driver/Src/stm32f4xx_hal_spi.c ****   /* Check if the SPI is already enabled */
1285:./Libraries/STM32F4xx_HAL_Driver/Src/stm32f4xx_hal_spi.c ****   if((hspi->Instance->CR1 &SPI_CR1_SPE) != SPI_CR1_SPE)
 2785              		.loc 1 1285 11
 2786 0116 FB68     		ldr	r3, [r7, #12]
 2787 0118 1B68     		ldr	r3, [r3]
 2788              		.loc 1 1285 21
 2789 011a 1B68     		ldr	r3, [r3]
 2790              		.loc 1 1285 27
 2791 011c 03F04003 		and	r3, r3, #64
 2792              		.loc 1 1285 5
 2793 0120 402B     		cmp	r3, #64
 2794 0122 08D0     		beq	.L144
1286:./Libraries/STM32F4xx_HAL_Driver/Src/stm32f4xx_hal_spi.c ****   {
1287:./Libraries/STM32F4xx_HAL_Driver/Src/stm32f4xx_hal_spi.c ****     /* Enable SPI peripheral */
1288:./Libraries/STM32F4xx_HAL_Driver/Src/stm32f4xx_hal_spi.c ****     __HAL_SPI_ENABLE(hspi);
 2795              		.loc 1 1288 5
 2796 0124 FB68     		ldr	r3, [r7, #12]
 2797 0126 1B68     		ldr	r3, [r3]
 2798 0128 1A68     		ldr	r2, [r3]
 2799 012a FB68     		ldr	r3, [r7, #12]
 2800 012c 1B68     		ldr	r3, [r3]
 2801 012e 42F04002 		orr	r2, r2, #64
 2802 0132 1A60     		str	r2, [r3]
 2803 0134 00E0     		b	.L137
 2804              	.L144:
1289:./Libraries/STM32F4xx_HAL_Driver/Src/stm32f4xx_hal_spi.c ****   }
1290:./Libraries/STM32F4xx_HAL_Driver/Src/stm32f4xx_hal_spi.c **** 
1291:./Libraries/STM32F4xx_HAL_Driver/Src/stm32f4xx_hal_spi.c **** error :
 2805              		.loc 1 1291 1
 2806 0136 00BF     		nop
 2807              	.L137:
1292:./Libraries/STM32F4xx_HAL_Driver/Src/stm32f4xx_hal_spi.c ****   /* Process Unlocked */
1293:./Libraries/STM32F4xx_HAL_Driver/Src/stm32f4xx_hal_spi.c ****   __HAL_UNLOCK(hspi);
 2808              		.loc 1 1293 3
 2809 0138 FB68     		ldr	r3, [r7, #12]
 2810 013a 0022     		movs	r2, #0
 2811 013c 83F85020 		strb	r2, [r3, #80]
1294:./Libraries/STM32F4xx_HAL_Driver/Src/stm32f4xx_hal_spi.c ****   return errorcode;
 2812              		.loc 1 1294 10
 2813 0140 FB7F     		ldrb	r3, [r7, #31]	@ zero_extendqisi2
ARM GAS  /tmp/ccits0mR.s 			page 73


 2814              	.L134:
1295:./Libraries/STM32F4xx_HAL_Driver/Src/stm32f4xx_hal_spi.c **** }
 2815              		.loc 1 1295 1
 2816 0142 1846     		mov	r0, r3
 2817 0144 2437     		adds	r7, r7, #36
 2818              	.LCFI51:
 2819              		.cfi_def_cfa_offset 4
 2820 0146 BD46     		mov	sp, r7
 2821              	.LCFI52:
 2822              		.cfi_def_cfa_register 13
 2823              		@ sp needed
 2824 0148 5DF8047B 		ldr	r7, [sp], #4
 2825              	.LCFI53:
 2826              		.cfi_restore 7
 2827              		.cfi_def_cfa_offset 0
 2828 014c 7047     		bx	lr
 2829              	.L146:
 2830 014e 00BF     		.align	2
 2831              	.L145:
 2832 0150 00000000 		.word	SPI_2linesRxISR_16BIT
 2833 0154 00000000 		.word	SPI_2linesTxISR_16BIT
 2834 0158 00000000 		.word	SPI_2linesRxISR_8BIT
 2835 015c 00000000 		.word	SPI_2linesTxISR_8BIT
 2836              		.cfi_endproc
 2837              	.LFE135:
 2839              		.section	.text.HAL_SPI_Transmit_DMA,"ax",%progbits
 2840              		.align	1
 2841              		.global	HAL_SPI_Transmit_DMA
 2842              		.syntax unified
 2843              		.thumb
 2844              		.thumb_func
 2845              		.fpu fpv4-sp-d16
 2847              	HAL_SPI_Transmit_DMA:
 2848              	.LFB136:
1296:./Libraries/STM32F4xx_HAL_Driver/Src/stm32f4xx_hal_spi.c **** 
1297:./Libraries/STM32F4xx_HAL_Driver/Src/stm32f4xx_hal_spi.c **** /**
1298:./Libraries/STM32F4xx_HAL_Driver/Src/stm32f4xx_hal_spi.c ****   * @brief  Transmit an amount of data in non-blocking mode with DMA.
1299:./Libraries/STM32F4xx_HAL_Driver/Src/stm32f4xx_hal_spi.c ****   * @param  hspi pointer to a SPI_HandleTypeDef structure that contains
1300:./Libraries/STM32F4xx_HAL_Driver/Src/stm32f4xx_hal_spi.c ****   *               the configuration information for SPI module.
1301:./Libraries/STM32F4xx_HAL_Driver/Src/stm32f4xx_hal_spi.c ****   * @param  pData pointer to data buffer
1302:./Libraries/STM32F4xx_HAL_Driver/Src/stm32f4xx_hal_spi.c ****   * @param  Size amount of data to be sent
1303:./Libraries/STM32F4xx_HAL_Driver/Src/stm32f4xx_hal_spi.c ****   * @retval HAL status
1304:./Libraries/STM32F4xx_HAL_Driver/Src/stm32f4xx_hal_spi.c ****   */
1305:./Libraries/STM32F4xx_HAL_Driver/Src/stm32f4xx_hal_spi.c **** HAL_StatusTypeDef HAL_SPI_Transmit_DMA(SPI_HandleTypeDef *hspi, uint8_t *pData, uint16_t Size)
1306:./Libraries/STM32F4xx_HAL_Driver/Src/stm32f4xx_hal_spi.c **** {
 2849              		.loc 1 1306 1
 2850              		.cfi_startproc
 2851              		@ args = 0, pretend = 0, frame = 24
 2852              		@ frame_needed = 1, uses_anonymous_args = 0
 2853 0000 80B5     		push	{r7, lr}
 2854              	.LCFI54:
 2855              		.cfi_def_cfa_offset 8
 2856              		.cfi_offset 7, -8
 2857              		.cfi_offset 14, -4
 2858 0002 86B0     		sub	sp, sp, #24
 2859              	.LCFI55:
 2860              		.cfi_def_cfa_offset 32
ARM GAS  /tmp/ccits0mR.s 			page 74


 2861 0004 00AF     		add	r7, sp, #0
 2862              	.LCFI56:
 2863              		.cfi_def_cfa_register 7
 2864 0006 F860     		str	r0, [r7, #12]
 2865 0008 B960     		str	r1, [r7, #8]
 2866 000a 1346     		mov	r3, r2
 2867 000c FB80     		strh	r3, [r7, #6]	@ movhi
1307:./Libraries/STM32F4xx_HAL_Driver/Src/stm32f4xx_hal_spi.c ****   HAL_StatusTypeDef errorcode = HAL_OK;
 2868              		.loc 1 1307 21
 2869 000e 0023     		movs	r3, #0
 2870 0010 FB75     		strb	r3, [r7, #23]
1308:./Libraries/STM32F4xx_HAL_Driver/Src/stm32f4xx_hal_spi.c **** 
1309:./Libraries/STM32F4xx_HAL_Driver/Src/stm32f4xx_hal_spi.c ****   /* Check Direction parameter */
1310:./Libraries/STM32F4xx_HAL_Driver/Src/stm32f4xx_hal_spi.c ****   assert_param(IS_SPI_DIRECTION_2LINES_OR_1LINE(hspi->Init.Direction));
1311:./Libraries/STM32F4xx_HAL_Driver/Src/stm32f4xx_hal_spi.c **** 
1312:./Libraries/STM32F4xx_HAL_Driver/Src/stm32f4xx_hal_spi.c ****   /* Process Locked */
1313:./Libraries/STM32F4xx_HAL_Driver/Src/stm32f4xx_hal_spi.c ****   __HAL_LOCK(hspi);
 2871              		.loc 1 1313 3
 2872 0012 FB68     		ldr	r3, [r7, #12]
 2873 0014 93F85030 		ldrb	r3, [r3, #80]	@ zero_extendqisi2
 2874 0018 012B     		cmp	r3, #1
 2875 001a 01D1     		bne	.L148
 2876              		.loc 1 1313 3 is_stmt 0 discriminator 1
 2877 001c 0223     		movs	r3, #2
 2878 001e 99E0     		b	.L149
 2879              	.L148:
 2880              		.loc 1 1313 3 discriminator 2
 2881 0020 FB68     		ldr	r3, [r7, #12]
 2882 0022 0122     		movs	r2, #1
 2883 0024 83F85020 		strb	r2, [r3, #80]
1314:./Libraries/STM32F4xx_HAL_Driver/Src/stm32f4xx_hal_spi.c **** 
1315:./Libraries/STM32F4xx_HAL_Driver/Src/stm32f4xx_hal_spi.c ****   if(hspi->State != HAL_SPI_STATE_READY)
 2884              		.loc 1 1315 10 is_stmt 1 discriminator 2
 2885 0028 FB68     		ldr	r3, [r7, #12]
 2886 002a 93F85130 		ldrb	r3, [r3, #81]
 2887 002e DBB2     		uxtb	r3, r3
 2888              		.loc 1 1315 5 discriminator 2
 2889 0030 012B     		cmp	r3, #1
 2890 0032 02D0     		beq	.L150
1316:./Libraries/STM32F4xx_HAL_Driver/Src/stm32f4xx_hal_spi.c ****   {
1317:./Libraries/STM32F4xx_HAL_Driver/Src/stm32f4xx_hal_spi.c ****     errorcode = HAL_BUSY;
 2891              		.loc 1 1317 15
 2892 0034 0223     		movs	r3, #2
 2893 0036 FB75     		strb	r3, [r7, #23]
1318:./Libraries/STM32F4xx_HAL_Driver/Src/stm32f4xx_hal_spi.c ****     goto error;
 2894              		.loc 1 1318 5
 2895 0038 87E0     		b	.L151
 2896              	.L150:
1319:./Libraries/STM32F4xx_HAL_Driver/Src/stm32f4xx_hal_spi.c ****   }
1320:./Libraries/STM32F4xx_HAL_Driver/Src/stm32f4xx_hal_spi.c **** 
1321:./Libraries/STM32F4xx_HAL_Driver/Src/stm32f4xx_hal_spi.c ****   if((pData == NULL) || (Size == 0))
 2897              		.loc 1 1321 5
 2898 003a BB68     		ldr	r3, [r7, #8]
 2899 003c 002B     		cmp	r3, #0
 2900 003e 02D0     		beq	.L152
 2901              		.loc 1 1321 22 discriminator 1
 2902 0040 FB88     		ldrh	r3, [r7, #6]
ARM GAS  /tmp/ccits0mR.s 			page 75


 2903 0042 002B     		cmp	r3, #0
 2904 0044 02D1     		bne	.L153
 2905              	.L152:
1322:./Libraries/STM32F4xx_HAL_Driver/Src/stm32f4xx_hal_spi.c ****   {
1323:./Libraries/STM32F4xx_HAL_Driver/Src/stm32f4xx_hal_spi.c ****     errorcode = HAL_ERROR;
 2906              		.loc 1 1323 15
 2907 0046 0123     		movs	r3, #1
 2908 0048 FB75     		strb	r3, [r7, #23]
1324:./Libraries/STM32F4xx_HAL_Driver/Src/stm32f4xx_hal_spi.c ****     goto error;
 2909              		.loc 1 1324 5
 2910 004a 7EE0     		b	.L151
 2911              	.L153:
1325:./Libraries/STM32F4xx_HAL_Driver/Src/stm32f4xx_hal_spi.c ****   }
1326:./Libraries/STM32F4xx_HAL_Driver/Src/stm32f4xx_hal_spi.c **** 
1327:./Libraries/STM32F4xx_HAL_Driver/Src/stm32f4xx_hal_spi.c ****   /* Set the transaction information */
1328:./Libraries/STM32F4xx_HAL_Driver/Src/stm32f4xx_hal_spi.c ****   hspi->State       = HAL_SPI_STATE_BUSY_TX;
 2912              		.loc 1 1328 21
 2913 004c FB68     		ldr	r3, [r7, #12]
 2914 004e 0322     		movs	r2, #3
 2915 0050 83F85120 		strb	r2, [r3, #81]
1329:./Libraries/STM32F4xx_HAL_Driver/Src/stm32f4xx_hal_spi.c ****   hspi->ErrorCode   = HAL_SPI_ERROR_NONE;
 2916              		.loc 1 1329 21
 2917 0054 FB68     		ldr	r3, [r7, #12]
 2918 0056 0022     		movs	r2, #0
 2919 0058 5A65     		str	r2, [r3, #84]
1330:./Libraries/STM32F4xx_HAL_Driver/Src/stm32f4xx_hal_spi.c ****   hspi->pTxBuffPtr  = (uint8_t *)pData;
 2920              		.loc 1 1330 21
 2921 005a FB68     		ldr	r3, [r7, #12]
 2922 005c BA68     		ldr	r2, [r7, #8]
 2923 005e 1A63     		str	r2, [r3, #48]
1331:./Libraries/STM32F4xx_HAL_Driver/Src/stm32f4xx_hal_spi.c ****   hspi->TxXferSize  = Size;
 2924              		.loc 1 1331 21
 2925 0060 FB68     		ldr	r3, [r7, #12]
 2926 0062 FA88     		ldrh	r2, [r7, #6]	@ movhi
 2927 0064 9A86     		strh	r2, [r3, #52]	@ movhi
1332:./Libraries/STM32F4xx_HAL_Driver/Src/stm32f4xx_hal_spi.c ****   hspi->TxXferCount = Size;
 2928              		.loc 1 1332 21
 2929 0066 FB68     		ldr	r3, [r7, #12]
 2930 0068 FA88     		ldrh	r2, [r7, #6]	@ movhi
 2931 006a DA86     		strh	r2, [r3, #54]	@ movhi
1333:./Libraries/STM32F4xx_HAL_Driver/Src/stm32f4xx_hal_spi.c **** 
1334:./Libraries/STM32F4xx_HAL_Driver/Src/stm32f4xx_hal_spi.c ****   /* Init field not used in handle to zero */
1335:./Libraries/STM32F4xx_HAL_Driver/Src/stm32f4xx_hal_spi.c ****   hspi->pRxBuffPtr  = (uint8_t *)NULL;
 2932              		.loc 1 1335 21
 2933 006c FB68     		ldr	r3, [r7, #12]
 2934 006e 0022     		movs	r2, #0
 2935 0070 9A63     		str	r2, [r3, #56]
1336:./Libraries/STM32F4xx_HAL_Driver/Src/stm32f4xx_hal_spi.c ****   hspi->TxISR       = NULL;
 2936              		.loc 1 1336 21
 2937 0072 FB68     		ldr	r3, [r7, #12]
 2938 0074 0022     		movs	r2, #0
 2939 0076 5A64     		str	r2, [r3, #68]
1337:./Libraries/STM32F4xx_HAL_Driver/Src/stm32f4xx_hal_spi.c ****   hspi->RxISR       = NULL;
 2940              		.loc 1 1337 21
 2941 0078 FB68     		ldr	r3, [r7, #12]
 2942 007a 0022     		movs	r2, #0
 2943 007c 1A64     		str	r2, [r3, #64]
ARM GAS  /tmp/ccits0mR.s 			page 76


1338:./Libraries/STM32F4xx_HAL_Driver/Src/stm32f4xx_hal_spi.c ****   hspi->RxXferSize  = 0U;
 2944              		.loc 1 1338 21
 2945 007e FB68     		ldr	r3, [r7, #12]
 2946 0080 0022     		movs	r2, #0
 2947 0082 9A87     		strh	r2, [r3, #60]	@ movhi
1339:./Libraries/STM32F4xx_HAL_Driver/Src/stm32f4xx_hal_spi.c ****   hspi->RxXferCount = 0U;
 2948              		.loc 1 1339 21
 2949 0084 FB68     		ldr	r3, [r7, #12]
 2950 0086 0022     		movs	r2, #0
 2951 0088 DA87     		strh	r2, [r3, #62]	@ movhi
1340:./Libraries/STM32F4xx_HAL_Driver/Src/stm32f4xx_hal_spi.c **** 
1341:./Libraries/STM32F4xx_HAL_Driver/Src/stm32f4xx_hal_spi.c ****   /* Configure communication direction : 1Line */
1342:./Libraries/STM32F4xx_HAL_Driver/Src/stm32f4xx_hal_spi.c ****   if(hspi->Init.Direction == SPI_DIRECTION_1LINE)
 2952              		.loc 1 1342 16
 2953 008a FB68     		ldr	r3, [r7, #12]
 2954 008c 9B68     		ldr	r3, [r3, #8]
 2955              		.loc 1 1342 5
 2956 008e B3F5004F 		cmp	r3, #32768
 2957 0092 07D1     		bne	.L154
1343:./Libraries/STM32F4xx_HAL_Driver/Src/stm32f4xx_hal_spi.c ****   {
1344:./Libraries/STM32F4xx_HAL_Driver/Src/stm32f4xx_hal_spi.c ****     SPI_1LINE_TX(hspi);
 2958              		.loc 1 1344 5
 2959 0094 FB68     		ldr	r3, [r7, #12]
 2960 0096 1B68     		ldr	r3, [r3]
 2961 0098 1A68     		ldr	r2, [r3]
 2962 009a FB68     		ldr	r3, [r7, #12]
 2963 009c 1B68     		ldr	r3, [r3]
 2964 009e 42F48042 		orr	r2, r2, #16384
 2965 00a2 1A60     		str	r2, [r3]
 2966              	.L154:
1345:./Libraries/STM32F4xx_HAL_Driver/Src/stm32f4xx_hal_spi.c ****   }
1346:./Libraries/STM32F4xx_HAL_Driver/Src/stm32f4xx_hal_spi.c **** 
1347:./Libraries/STM32F4xx_HAL_Driver/Src/stm32f4xx_hal_spi.c **** #if (USE_SPI_CRC != 0U)
1348:./Libraries/STM32F4xx_HAL_Driver/Src/stm32f4xx_hal_spi.c ****   /* Reset CRC Calculation */
1349:./Libraries/STM32F4xx_HAL_Driver/Src/stm32f4xx_hal_spi.c ****   if(hspi->Init.CRCCalculation == SPI_CRCCALCULATION_ENABLE)
 2967              		.loc 1 1349 16
 2968 00a4 FB68     		ldr	r3, [r7, #12]
 2969 00a6 9B6A     		ldr	r3, [r3, #40]
 2970              		.loc 1 1349 5
 2971 00a8 B3F5005F 		cmp	r3, #8192
 2972 00ac 10D1     		bne	.L155
1350:./Libraries/STM32F4xx_HAL_Driver/Src/stm32f4xx_hal_spi.c ****   {
1351:./Libraries/STM32F4xx_HAL_Driver/Src/stm32f4xx_hal_spi.c ****     SPI_RESET_CRC(hspi);
 2973              		.loc 1 1351 5
 2974 00ae FB68     		ldr	r3, [r7, #12]
 2975 00b0 1B68     		ldr	r3, [r3]
 2976 00b2 1968     		ldr	r1, [r3]
 2977 00b4 FB68     		ldr	r3, [r7, #12]
 2978 00b6 1A68     		ldr	r2, [r3]
 2979 00b8 4DF6FF73 		movw	r3, #57343
 2980 00bc 0B40     		ands	r3, r3, r1
 2981 00be 1360     		str	r3, [r2]
 2982 00c0 FB68     		ldr	r3, [r7, #12]
 2983 00c2 1B68     		ldr	r3, [r3]
 2984 00c4 1A68     		ldr	r2, [r3]
 2985 00c6 FB68     		ldr	r3, [r7, #12]
 2986 00c8 1B68     		ldr	r3, [r3]
ARM GAS  /tmp/ccits0mR.s 			page 77


 2987 00ca 42F40052 		orr	r2, r2, #8192
 2988 00ce 1A60     		str	r2, [r3]
 2989              	.L155:
1352:./Libraries/STM32F4xx_HAL_Driver/Src/stm32f4xx_hal_spi.c ****   }
1353:./Libraries/STM32F4xx_HAL_Driver/Src/stm32f4xx_hal_spi.c **** #endif /* USE_SPI_CRC */
1354:./Libraries/STM32F4xx_HAL_Driver/Src/stm32f4xx_hal_spi.c **** 
1355:./Libraries/STM32F4xx_HAL_Driver/Src/stm32f4xx_hal_spi.c ****   /* Set the SPI TxDMA Half transfer complete callback */
1356:./Libraries/STM32F4xx_HAL_Driver/Src/stm32f4xx_hal_spi.c ****   hspi->hdmatx->XferHalfCpltCallback = SPI_DMAHalfTransmitCplt;
 2990              		.loc 1 1356 7
 2991 00d0 FB68     		ldr	r3, [r7, #12]
 2992 00d2 9B6C     		ldr	r3, [r3, #72]
 2993              		.loc 1 1356 38
 2994 00d4 214A     		ldr	r2, .L157
 2995 00d6 1A64     		str	r2, [r3, #64]
1357:./Libraries/STM32F4xx_HAL_Driver/Src/stm32f4xx_hal_spi.c **** 
1358:./Libraries/STM32F4xx_HAL_Driver/Src/stm32f4xx_hal_spi.c ****   /* Set the SPI TxDMA transfer complete callback */
1359:./Libraries/STM32F4xx_HAL_Driver/Src/stm32f4xx_hal_spi.c ****   hspi->hdmatx->XferCpltCallback = SPI_DMATransmitCplt;
 2996              		.loc 1 1359 7
 2997 00d8 FB68     		ldr	r3, [r7, #12]
 2998 00da 9B6C     		ldr	r3, [r3, #72]
 2999              		.loc 1 1359 34
 3000 00dc 204A     		ldr	r2, .L157+4
 3001 00de DA63     		str	r2, [r3, #60]
1360:./Libraries/STM32F4xx_HAL_Driver/Src/stm32f4xx_hal_spi.c **** 
1361:./Libraries/STM32F4xx_HAL_Driver/Src/stm32f4xx_hal_spi.c ****   /* Set the DMA error callback */
1362:./Libraries/STM32F4xx_HAL_Driver/Src/stm32f4xx_hal_spi.c ****   hspi->hdmatx->XferErrorCallback = SPI_DMAError;
 3002              		.loc 1 1362 7
 3003 00e0 FB68     		ldr	r3, [r7, #12]
 3004 00e2 9B6C     		ldr	r3, [r3, #72]
 3005              		.loc 1 1362 35
 3006 00e4 1F4A     		ldr	r2, .L157+8
 3007 00e6 DA64     		str	r2, [r3, #76]
1363:./Libraries/STM32F4xx_HAL_Driver/Src/stm32f4xx_hal_spi.c **** 
1364:./Libraries/STM32F4xx_HAL_Driver/Src/stm32f4xx_hal_spi.c ****   /* Set the DMA AbortCpltCallback */
1365:./Libraries/STM32F4xx_HAL_Driver/Src/stm32f4xx_hal_spi.c ****   hspi->hdmatx->XferAbortCallback = NULL;
 3008              		.loc 1 1365 7
 3009 00e8 FB68     		ldr	r3, [r7, #12]
 3010 00ea 9B6C     		ldr	r3, [r3, #72]
 3011              		.loc 1 1365 35
 3012 00ec 0022     		movs	r2, #0
 3013 00ee 1A65     		str	r2, [r3, #80]
1366:./Libraries/STM32F4xx_HAL_Driver/Src/stm32f4xx_hal_spi.c **** 
1367:./Libraries/STM32F4xx_HAL_Driver/Src/stm32f4xx_hal_spi.c ****   /* Enable the Tx DMA Stream */
1368:./Libraries/STM32F4xx_HAL_Driver/Src/stm32f4xx_hal_spi.c ****   HAL_DMA_Start_IT(hspi->hdmatx, (uint32_t)hspi->pTxBuffPtr, (uint32_t)&hspi->Instance->DR, hspi->T
 3014              		.loc 1 1368 3
 3015 00f0 FB68     		ldr	r3, [r7, #12]
 3016 00f2 986C     		ldr	r0, [r3, #72]
 3017              		.loc 1 1368 48
 3018 00f4 FB68     		ldr	r3, [r7, #12]
 3019 00f6 1B6B     		ldr	r3, [r3, #48]
 3020              		.loc 1 1368 3
 3021 00f8 1946     		mov	r1, r3
 3022              		.loc 1 1368 77
 3023 00fa FB68     		ldr	r3, [r7, #12]
 3024 00fc 1B68     		ldr	r3, [r3]
 3025              		.loc 1 1368 72
 3026 00fe 0C33     		adds	r3, r3, #12
ARM GAS  /tmp/ccits0mR.s 			page 78


 3027              		.loc 1 1368 3
 3028 0100 1A46     		mov	r2, r3
 3029              		.loc 1 1368 97
 3030 0102 FB68     		ldr	r3, [r7, #12]
 3031 0104 DB8E     		ldrh	r3, [r3, #54]	@ movhi
 3032 0106 9BB2     		uxth	r3, r3
 3033              		.loc 1 1368 3
 3034 0108 FFF7FEFF 		bl	HAL_DMA_Start_IT
1369:./Libraries/STM32F4xx_HAL_Driver/Src/stm32f4xx_hal_spi.c **** 
1370:./Libraries/STM32F4xx_HAL_Driver/Src/stm32f4xx_hal_spi.c ****   /* Check if the SPI is already enabled */
1371:./Libraries/STM32F4xx_HAL_Driver/Src/stm32f4xx_hal_spi.c ****   if((hspi->Instance->CR1 &SPI_CR1_SPE) != SPI_CR1_SPE)
 3035              		.loc 1 1371 11
 3036 010c FB68     		ldr	r3, [r7, #12]
 3037 010e 1B68     		ldr	r3, [r3]
 3038              		.loc 1 1371 21
 3039 0110 1B68     		ldr	r3, [r3]
 3040              		.loc 1 1371 27
 3041 0112 03F04003 		and	r3, r3, #64
 3042              		.loc 1 1371 5
 3043 0116 402B     		cmp	r3, #64
 3044 0118 07D0     		beq	.L156
1372:./Libraries/STM32F4xx_HAL_Driver/Src/stm32f4xx_hal_spi.c ****   {
1373:./Libraries/STM32F4xx_HAL_Driver/Src/stm32f4xx_hal_spi.c ****     /* Enable SPI peripheral */
1374:./Libraries/STM32F4xx_HAL_Driver/Src/stm32f4xx_hal_spi.c ****     __HAL_SPI_ENABLE(hspi);
 3045              		.loc 1 1374 5
 3046 011a FB68     		ldr	r3, [r7, #12]
 3047 011c 1B68     		ldr	r3, [r3]
 3048 011e 1A68     		ldr	r2, [r3]
 3049 0120 FB68     		ldr	r3, [r7, #12]
 3050 0122 1B68     		ldr	r3, [r3]
 3051 0124 42F04002 		orr	r2, r2, #64
 3052 0128 1A60     		str	r2, [r3]
 3053              	.L156:
1375:./Libraries/STM32F4xx_HAL_Driver/Src/stm32f4xx_hal_spi.c ****   }
1376:./Libraries/STM32F4xx_HAL_Driver/Src/stm32f4xx_hal_spi.c **** 
1377:./Libraries/STM32F4xx_HAL_Driver/Src/stm32f4xx_hal_spi.c ****   /* Enable the SPI Error Interrupt Bit */
1378:./Libraries/STM32F4xx_HAL_Driver/Src/stm32f4xx_hal_spi.c ****   SET_BIT(hspi->Instance->CR2, SPI_CR2_ERRIE);
 3054              		.loc 1 1378 3
 3055 012a FB68     		ldr	r3, [r7, #12]
 3056 012c 1B68     		ldr	r3, [r3]
 3057 012e 5A68     		ldr	r2, [r3, #4]
 3058 0130 FB68     		ldr	r3, [r7, #12]
 3059 0132 1B68     		ldr	r3, [r3]
 3060 0134 42F02002 		orr	r2, r2, #32
 3061 0138 5A60     		str	r2, [r3, #4]
1379:./Libraries/STM32F4xx_HAL_Driver/Src/stm32f4xx_hal_spi.c **** 
1380:./Libraries/STM32F4xx_HAL_Driver/Src/stm32f4xx_hal_spi.c ****   /* Enable Tx DMA Request */
1381:./Libraries/STM32F4xx_HAL_Driver/Src/stm32f4xx_hal_spi.c ****   SET_BIT(hspi->Instance->CR2, SPI_CR2_TXDMAEN);
 3062              		.loc 1 1381 3
 3063 013a FB68     		ldr	r3, [r7, #12]
 3064 013c 1B68     		ldr	r3, [r3]
 3065 013e 5A68     		ldr	r2, [r3, #4]
 3066 0140 FB68     		ldr	r3, [r7, #12]
 3067 0142 1B68     		ldr	r3, [r3]
 3068 0144 42F00202 		orr	r2, r2, #2
 3069 0148 5A60     		str	r2, [r3, #4]
 3070              	.L151:
ARM GAS  /tmp/ccits0mR.s 			page 79


1382:./Libraries/STM32F4xx_HAL_Driver/Src/stm32f4xx_hal_spi.c **** 
1383:./Libraries/STM32F4xx_HAL_Driver/Src/stm32f4xx_hal_spi.c **** error :
1384:./Libraries/STM32F4xx_HAL_Driver/Src/stm32f4xx_hal_spi.c ****   /* Process Unlocked */
1385:./Libraries/STM32F4xx_HAL_Driver/Src/stm32f4xx_hal_spi.c ****   __HAL_UNLOCK(hspi);
 3071              		.loc 1 1385 3
 3072 014a FB68     		ldr	r3, [r7, #12]
 3073 014c 0022     		movs	r2, #0
 3074 014e 83F85020 		strb	r2, [r3, #80]
1386:./Libraries/STM32F4xx_HAL_Driver/Src/stm32f4xx_hal_spi.c ****   return errorcode;
 3075              		.loc 1 1386 10
 3076 0152 FB7D     		ldrb	r3, [r7, #23]	@ zero_extendqisi2
 3077              	.L149:
1387:./Libraries/STM32F4xx_HAL_Driver/Src/stm32f4xx_hal_spi.c **** }
 3078              		.loc 1 1387 1
 3079 0154 1846     		mov	r0, r3
 3080 0156 1837     		adds	r7, r7, #24
 3081              	.LCFI57:
 3082              		.cfi_def_cfa_offset 8
 3083 0158 BD46     		mov	sp, r7
 3084              	.LCFI58:
 3085              		.cfi_def_cfa_register 13
 3086              		@ sp needed
 3087 015a 80BD     		pop	{r7, pc}
 3088              	.L158:
 3089              		.align	2
 3090              	.L157:
 3091 015c 00000000 		.word	SPI_DMAHalfTransmitCplt
 3092 0160 00000000 		.word	SPI_DMATransmitCplt
 3093 0164 00000000 		.word	SPI_DMAError
 3094              		.cfi_endproc
 3095              	.LFE136:
 3097              		.section	.text.HAL_SPI_Receive_DMA,"ax",%progbits
 3098              		.align	1
 3099              		.global	HAL_SPI_Receive_DMA
 3100              		.syntax unified
 3101              		.thumb
 3102              		.thumb_func
 3103              		.fpu fpv4-sp-d16
 3105              	HAL_SPI_Receive_DMA:
 3106              	.LFB137:
1388:./Libraries/STM32F4xx_HAL_Driver/Src/stm32f4xx_hal_spi.c **** 
1389:./Libraries/STM32F4xx_HAL_Driver/Src/stm32f4xx_hal_spi.c **** /**
1390:./Libraries/STM32F4xx_HAL_Driver/Src/stm32f4xx_hal_spi.c ****   * @brief  Receive an amount of data in non-blocking mode with DMA.
1391:./Libraries/STM32F4xx_HAL_Driver/Src/stm32f4xx_hal_spi.c ****   * @param  hspi pointer to a SPI_HandleTypeDef structure that contains
1392:./Libraries/STM32F4xx_HAL_Driver/Src/stm32f4xx_hal_spi.c ****   *               the configuration information for SPI module.
1393:./Libraries/STM32F4xx_HAL_Driver/Src/stm32f4xx_hal_spi.c ****   * @param  pData pointer to data buffer
1394:./Libraries/STM32F4xx_HAL_Driver/Src/stm32f4xx_hal_spi.c ****   * @note   When the CRC feature is enabled the pData Length must be Size + 1.
1395:./Libraries/STM32F4xx_HAL_Driver/Src/stm32f4xx_hal_spi.c ****   * @param  Size amount of data to be sent
1396:./Libraries/STM32F4xx_HAL_Driver/Src/stm32f4xx_hal_spi.c ****   * @retval HAL status
1397:./Libraries/STM32F4xx_HAL_Driver/Src/stm32f4xx_hal_spi.c ****   */
1398:./Libraries/STM32F4xx_HAL_Driver/Src/stm32f4xx_hal_spi.c **** HAL_StatusTypeDef HAL_SPI_Receive_DMA(SPI_HandleTypeDef *hspi, uint8_t *pData, uint16_t Size)
1399:./Libraries/STM32F4xx_HAL_Driver/Src/stm32f4xx_hal_spi.c **** {
 3107              		.loc 1 1399 1
 3108              		.cfi_startproc
 3109              		@ args = 0, pretend = 0, frame = 24
 3110              		@ frame_needed = 1, uses_anonymous_args = 0
 3111 0000 80B5     		push	{r7, lr}
ARM GAS  /tmp/ccits0mR.s 			page 80


 3112              	.LCFI59:
 3113              		.cfi_def_cfa_offset 8
 3114              		.cfi_offset 7, -8
 3115              		.cfi_offset 14, -4
 3116 0002 86B0     		sub	sp, sp, #24
 3117              	.LCFI60:
 3118              		.cfi_def_cfa_offset 32
 3119 0004 00AF     		add	r7, sp, #0
 3120              	.LCFI61:
 3121              		.cfi_def_cfa_register 7
 3122 0006 F860     		str	r0, [r7, #12]
 3123 0008 B960     		str	r1, [r7, #8]
 3124 000a 1346     		mov	r3, r2
 3125 000c FB80     		strh	r3, [r7, #6]	@ movhi
1400:./Libraries/STM32F4xx_HAL_Driver/Src/stm32f4xx_hal_spi.c ****   HAL_StatusTypeDef errorcode = HAL_OK;
 3126              		.loc 1 1400 21
 3127 000e 0023     		movs	r3, #0
 3128 0010 FB75     		strb	r3, [r7, #23]
1401:./Libraries/STM32F4xx_HAL_Driver/Src/stm32f4xx_hal_spi.c **** 
1402:./Libraries/STM32F4xx_HAL_Driver/Src/stm32f4xx_hal_spi.c ****   if((hspi->Init.Direction == SPI_DIRECTION_2LINES)&&(hspi->Init.Mode == SPI_MODE_MASTER))
 3129              		.loc 1 1402 17
 3130 0012 FB68     		ldr	r3, [r7, #12]
 3131 0014 9B68     		ldr	r3, [r3, #8]
 3132              		.loc 1 1402 5
 3133 0016 002B     		cmp	r3, #0
 3134 0018 10D1     		bne	.L160
 3135              		.loc 1 1402 65 discriminator 1
 3136 001a FB68     		ldr	r3, [r7, #12]
 3137 001c 5B68     		ldr	r3, [r3, #4]
 3138              		.loc 1 1402 52 discriminator 1
 3139 001e B3F5827F 		cmp	r3, #260
 3140 0022 0BD1     		bne	.L160
1403:./Libraries/STM32F4xx_HAL_Driver/Src/stm32f4xx_hal_spi.c ****   {
1404:./Libraries/STM32F4xx_HAL_Driver/Src/stm32f4xx_hal_spi.c ****      hspi->State = HAL_SPI_STATE_BUSY_RX;
 3141              		.loc 1 1404 18
 3142 0024 FB68     		ldr	r3, [r7, #12]
 3143 0026 0422     		movs	r2, #4
 3144 0028 83F85120 		strb	r2, [r3, #81]
1405:./Libraries/STM32F4xx_HAL_Driver/Src/stm32f4xx_hal_spi.c ****      /* Call transmit-receive function to send Dummy data on Tx line and generate clock on CLK line
1406:./Libraries/STM32F4xx_HAL_Driver/Src/stm32f4xx_hal_spi.c ****      return HAL_SPI_TransmitReceive_DMA(hspi, pData, pData, Size);
 3145              		.loc 1 1406 13
 3146 002c FB88     		ldrh	r3, [r7, #6]
 3147 002e BA68     		ldr	r2, [r7, #8]
 3148 0030 B968     		ldr	r1, [r7, #8]
 3149 0032 F868     		ldr	r0, [r7, #12]
 3150 0034 FFF7FEFF 		bl	HAL_SPI_TransmitReceive_DMA
 3151 0038 0346     		mov	r3, r0
 3152 003a 9DE0     		b	.L161
 3153              	.L160:
1407:./Libraries/STM32F4xx_HAL_Driver/Src/stm32f4xx_hal_spi.c ****   }
1408:./Libraries/STM32F4xx_HAL_Driver/Src/stm32f4xx_hal_spi.c **** 
1409:./Libraries/STM32F4xx_HAL_Driver/Src/stm32f4xx_hal_spi.c ****   /* Process Locked */
1410:./Libraries/STM32F4xx_HAL_Driver/Src/stm32f4xx_hal_spi.c ****   __HAL_LOCK(hspi);
 3154              		.loc 1 1410 3
 3155 003c FB68     		ldr	r3, [r7, #12]
 3156 003e 93F85030 		ldrb	r3, [r3, #80]	@ zero_extendqisi2
 3157 0042 012B     		cmp	r3, #1
ARM GAS  /tmp/ccits0mR.s 			page 81


 3158 0044 01D1     		bne	.L162
 3159              		.loc 1 1410 3 is_stmt 0 discriminator 1
 3160 0046 0223     		movs	r3, #2
 3161 0048 96E0     		b	.L161
 3162              	.L162:
 3163              		.loc 1 1410 3 discriminator 2
 3164 004a FB68     		ldr	r3, [r7, #12]
 3165 004c 0122     		movs	r2, #1
 3166 004e 83F85020 		strb	r2, [r3, #80]
1411:./Libraries/STM32F4xx_HAL_Driver/Src/stm32f4xx_hal_spi.c **** 
1412:./Libraries/STM32F4xx_HAL_Driver/Src/stm32f4xx_hal_spi.c ****   if(hspi->State != HAL_SPI_STATE_READY)
 3167              		.loc 1 1412 10 is_stmt 1 discriminator 2
 3168 0052 FB68     		ldr	r3, [r7, #12]
 3169 0054 93F85130 		ldrb	r3, [r3, #81]
 3170 0058 DBB2     		uxtb	r3, r3
 3171              		.loc 1 1412 5 discriminator 2
 3172 005a 012B     		cmp	r3, #1
 3173 005c 02D0     		beq	.L163
1413:./Libraries/STM32F4xx_HAL_Driver/Src/stm32f4xx_hal_spi.c ****   {
1414:./Libraries/STM32F4xx_HAL_Driver/Src/stm32f4xx_hal_spi.c ****     errorcode = HAL_BUSY;
 3174              		.loc 1 1414 15
 3175 005e 0223     		movs	r3, #2
 3176 0060 FB75     		strb	r3, [r7, #23]
1415:./Libraries/STM32F4xx_HAL_Driver/Src/stm32f4xx_hal_spi.c ****     goto error;
 3177              		.loc 1 1415 5
 3178 0062 84E0     		b	.L164
 3179              	.L163:
1416:./Libraries/STM32F4xx_HAL_Driver/Src/stm32f4xx_hal_spi.c ****   }
1417:./Libraries/STM32F4xx_HAL_Driver/Src/stm32f4xx_hal_spi.c **** 
1418:./Libraries/STM32F4xx_HAL_Driver/Src/stm32f4xx_hal_spi.c ****   if((pData == NULL) || (Size == 0))
 3180              		.loc 1 1418 5
 3181 0064 BB68     		ldr	r3, [r7, #8]
 3182 0066 002B     		cmp	r3, #0
 3183 0068 02D0     		beq	.L165
 3184              		.loc 1 1418 22 discriminator 1
 3185 006a FB88     		ldrh	r3, [r7, #6]
 3186 006c 002B     		cmp	r3, #0
 3187 006e 02D1     		bne	.L166
 3188              	.L165:
1419:./Libraries/STM32F4xx_HAL_Driver/Src/stm32f4xx_hal_spi.c ****   {
1420:./Libraries/STM32F4xx_HAL_Driver/Src/stm32f4xx_hal_spi.c ****     errorcode = HAL_ERROR;
 3189              		.loc 1 1420 15
 3190 0070 0123     		movs	r3, #1
 3191 0072 FB75     		strb	r3, [r7, #23]
1421:./Libraries/STM32F4xx_HAL_Driver/Src/stm32f4xx_hal_spi.c ****     goto error;
 3192              		.loc 1 1421 5
 3193 0074 7BE0     		b	.L164
 3194              	.L166:
1422:./Libraries/STM32F4xx_HAL_Driver/Src/stm32f4xx_hal_spi.c ****   }
1423:./Libraries/STM32F4xx_HAL_Driver/Src/stm32f4xx_hal_spi.c **** 
1424:./Libraries/STM32F4xx_HAL_Driver/Src/stm32f4xx_hal_spi.c ****   /* Set the transaction information */
1425:./Libraries/STM32F4xx_HAL_Driver/Src/stm32f4xx_hal_spi.c ****   hspi->State       = HAL_SPI_STATE_BUSY_RX;
 3195              		.loc 1 1425 21
 3196 0076 FB68     		ldr	r3, [r7, #12]
 3197 0078 0422     		movs	r2, #4
 3198 007a 83F85120 		strb	r2, [r3, #81]
1426:./Libraries/STM32F4xx_HAL_Driver/Src/stm32f4xx_hal_spi.c ****   hspi->ErrorCode   = HAL_SPI_ERROR_NONE;
ARM GAS  /tmp/ccits0mR.s 			page 82


 3199              		.loc 1 1426 21
 3200 007e FB68     		ldr	r3, [r7, #12]
 3201 0080 0022     		movs	r2, #0
 3202 0082 5A65     		str	r2, [r3, #84]
1427:./Libraries/STM32F4xx_HAL_Driver/Src/stm32f4xx_hal_spi.c ****   hspi->pRxBuffPtr  = (uint8_t *)pData;
 3203              		.loc 1 1427 21
 3204 0084 FB68     		ldr	r3, [r7, #12]
 3205 0086 BA68     		ldr	r2, [r7, #8]
 3206 0088 9A63     		str	r2, [r3, #56]
1428:./Libraries/STM32F4xx_HAL_Driver/Src/stm32f4xx_hal_spi.c ****   hspi->RxXferSize  = Size;
 3207              		.loc 1 1428 21
 3208 008a FB68     		ldr	r3, [r7, #12]
 3209 008c FA88     		ldrh	r2, [r7, #6]	@ movhi
 3210 008e 9A87     		strh	r2, [r3, #60]	@ movhi
1429:./Libraries/STM32F4xx_HAL_Driver/Src/stm32f4xx_hal_spi.c ****   hspi->RxXferCount = Size;
 3211              		.loc 1 1429 21
 3212 0090 FB68     		ldr	r3, [r7, #12]
 3213 0092 FA88     		ldrh	r2, [r7, #6]	@ movhi
 3214 0094 DA87     		strh	r2, [r3, #62]	@ movhi
1430:./Libraries/STM32F4xx_HAL_Driver/Src/stm32f4xx_hal_spi.c **** 
1431:./Libraries/STM32F4xx_HAL_Driver/Src/stm32f4xx_hal_spi.c ****   /*Init field not used in handle to zero */
1432:./Libraries/STM32F4xx_HAL_Driver/Src/stm32f4xx_hal_spi.c ****   hspi->RxISR       = NULL;
 3215              		.loc 1 1432 21
 3216 0096 FB68     		ldr	r3, [r7, #12]
 3217 0098 0022     		movs	r2, #0
 3218 009a 1A64     		str	r2, [r3, #64]
1433:./Libraries/STM32F4xx_HAL_Driver/Src/stm32f4xx_hal_spi.c ****   hspi->TxISR       = NULL;
 3219              		.loc 1 1433 21
 3220 009c FB68     		ldr	r3, [r7, #12]
 3221 009e 0022     		movs	r2, #0
 3222 00a0 5A64     		str	r2, [r3, #68]
1434:./Libraries/STM32F4xx_HAL_Driver/Src/stm32f4xx_hal_spi.c ****   hspi->TxXferSize  = 0U;
 3223              		.loc 1 1434 21
 3224 00a2 FB68     		ldr	r3, [r7, #12]
 3225 00a4 0022     		movs	r2, #0
 3226 00a6 9A86     		strh	r2, [r3, #52]	@ movhi
1435:./Libraries/STM32F4xx_HAL_Driver/Src/stm32f4xx_hal_spi.c ****   hspi->TxXferCount = 0U;
 3227              		.loc 1 1435 21
 3228 00a8 FB68     		ldr	r3, [r7, #12]
 3229 00aa 0022     		movs	r2, #0
 3230 00ac DA86     		strh	r2, [r3, #54]	@ movhi
1436:./Libraries/STM32F4xx_HAL_Driver/Src/stm32f4xx_hal_spi.c **** 
1437:./Libraries/STM32F4xx_HAL_Driver/Src/stm32f4xx_hal_spi.c ****   /* Configure communication direction : 1Line */
1438:./Libraries/STM32F4xx_HAL_Driver/Src/stm32f4xx_hal_spi.c ****   if(hspi->Init.Direction == SPI_DIRECTION_1LINE)
 3231              		.loc 1 1438 16
 3232 00ae FB68     		ldr	r3, [r7, #12]
 3233 00b0 9B68     		ldr	r3, [r3, #8]
 3234              		.loc 1 1438 5
 3235 00b2 B3F5004F 		cmp	r3, #32768
 3236 00b6 07D1     		bne	.L167
1439:./Libraries/STM32F4xx_HAL_Driver/Src/stm32f4xx_hal_spi.c ****   {
1440:./Libraries/STM32F4xx_HAL_Driver/Src/stm32f4xx_hal_spi.c ****     SPI_1LINE_RX(hspi);
 3237              		.loc 1 1440 5
 3238 00b8 FB68     		ldr	r3, [r7, #12]
 3239 00ba 1B68     		ldr	r3, [r3]
 3240 00bc 1A68     		ldr	r2, [r3]
 3241 00be FB68     		ldr	r3, [r7, #12]
ARM GAS  /tmp/ccits0mR.s 			page 83


 3242 00c0 1B68     		ldr	r3, [r3]
 3243 00c2 22F48042 		bic	r2, r2, #16384
 3244 00c6 1A60     		str	r2, [r3]
 3245              	.L167:
1441:./Libraries/STM32F4xx_HAL_Driver/Src/stm32f4xx_hal_spi.c ****   }
1442:./Libraries/STM32F4xx_HAL_Driver/Src/stm32f4xx_hal_spi.c **** 
1443:./Libraries/STM32F4xx_HAL_Driver/Src/stm32f4xx_hal_spi.c **** #if (USE_SPI_CRC != 0U)
1444:./Libraries/STM32F4xx_HAL_Driver/Src/stm32f4xx_hal_spi.c ****   /* Reset CRC Calculation */
1445:./Libraries/STM32F4xx_HAL_Driver/Src/stm32f4xx_hal_spi.c ****   if(hspi->Init.CRCCalculation == SPI_CRCCALCULATION_ENABLE)
 3246              		.loc 1 1445 16
 3247 00c8 FB68     		ldr	r3, [r7, #12]
 3248 00ca 9B6A     		ldr	r3, [r3, #40]
 3249              		.loc 1 1445 5
 3250 00cc B3F5005F 		cmp	r3, #8192
 3251 00d0 10D1     		bne	.L168
1446:./Libraries/STM32F4xx_HAL_Driver/Src/stm32f4xx_hal_spi.c ****   {
1447:./Libraries/STM32F4xx_HAL_Driver/Src/stm32f4xx_hal_spi.c ****     SPI_RESET_CRC(hspi);
 3252              		.loc 1 1447 5
 3253 00d2 FB68     		ldr	r3, [r7, #12]
 3254 00d4 1B68     		ldr	r3, [r3]
 3255 00d6 1968     		ldr	r1, [r3]
 3256 00d8 FB68     		ldr	r3, [r7, #12]
 3257 00da 1A68     		ldr	r2, [r3]
 3258 00dc 4DF6FF73 		movw	r3, #57343
 3259 00e0 0B40     		ands	r3, r3, r1
 3260 00e2 1360     		str	r3, [r2]
 3261 00e4 FB68     		ldr	r3, [r7, #12]
 3262 00e6 1B68     		ldr	r3, [r3]
 3263 00e8 1A68     		ldr	r2, [r3]
 3264 00ea FB68     		ldr	r3, [r7, #12]
 3265 00ec 1B68     		ldr	r3, [r3]
 3266 00ee 42F40052 		orr	r2, r2, #8192
 3267 00f2 1A60     		str	r2, [r3]
 3268              	.L168:
1448:./Libraries/STM32F4xx_HAL_Driver/Src/stm32f4xx_hal_spi.c ****   }
1449:./Libraries/STM32F4xx_HAL_Driver/Src/stm32f4xx_hal_spi.c **** #endif /* USE_SPI_CRC */
1450:./Libraries/STM32F4xx_HAL_Driver/Src/stm32f4xx_hal_spi.c **** 
1451:./Libraries/STM32F4xx_HAL_Driver/Src/stm32f4xx_hal_spi.c ****   /* Set the SPI RxDMA Half transfer complete callback */
1452:./Libraries/STM32F4xx_HAL_Driver/Src/stm32f4xx_hal_spi.c ****   hspi->hdmarx->XferHalfCpltCallback = SPI_DMAHalfReceiveCplt;
 3269              		.loc 1 1452 7
 3270 00f4 FB68     		ldr	r3, [r7, #12]
 3271 00f6 DB6C     		ldr	r3, [r3, #76]
 3272              		.loc 1 1452 38
 3273 00f8 214A     		ldr	r2, .L170
 3274 00fa 1A64     		str	r2, [r3, #64]
1453:./Libraries/STM32F4xx_HAL_Driver/Src/stm32f4xx_hal_spi.c **** 
1454:./Libraries/STM32F4xx_HAL_Driver/Src/stm32f4xx_hal_spi.c ****   /* Set the SPI Rx DMA transfer complete callback */
1455:./Libraries/STM32F4xx_HAL_Driver/Src/stm32f4xx_hal_spi.c ****   hspi->hdmarx->XferCpltCallback = SPI_DMAReceiveCplt;
 3275              		.loc 1 1455 7
 3276 00fc FB68     		ldr	r3, [r7, #12]
 3277 00fe DB6C     		ldr	r3, [r3, #76]
 3278              		.loc 1 1455 34
 3279 0100 204A     		ldr	r2, .L170+4
 3280 0102 DA63     		str	r2, [r3, #60]
1456:./Libraries/STM32F4xx_HAL_Driver/Src/stm32f4xx_hal_spi.c **** 
1457:./Libraries/STM32F4xx_HAL_Driver/Src/stm32f4xx_hal_spi.c ****   /* Set the DMA error callback */
1458:./Libraries/STM32F4xx_HAL_Driver/Src/stm32f4xx_hal_spi.c ****   hspi->hdmarx->XferErrorCallback = SPI_DMAError;
ARM GAS  /tmp/ccits0mR.s 			page 84


 3281              		.loc 1 1458 7
 3282 0104 FB68     		ldr	r3, [r7, #12]
 3283 0106 DB6C     		ldr	r3, [r3, #76]
 3284              		.loc 1 1458 35
 3285 0108 1F4A     		ldr	r2, .L170+8
 3286 010a DA64     		str	r2, [r3, #76]
1459:./Libraries/STM32F4xx_HAL_Driver/Src/stm32f4xx_hal_spi.c **** 
1460:./Libraries/STM32F4xx_HAL_Driver/Src/stm32f4xx_hal_spi.c ****  /* Set the DMA AbortCpltCallback */
1461:./Libraries/STM32F4xx_HAL_Driver/Src/stm32f4xx_hal_spi.c ****   hspi->hdmarx->XferAbortCallback = NULL;
 3287              		.loc 1 1461 7
 3288 010c FB68     		ldr	r3, [r7, #12]
 3289 010e DB6C     		ldr	r3, [r3, #76]
 3290              		.loc 1 1461 35
 3291 0110 0022     		movs	r2, #0
 3292 0112 1A65     		str	r2, [r3, #80]
1462:./Libraries/STM32F4xx_HAL_Driver/Src/stm32f4xx_hal_spi.c **** 
1463:./Libraries/STM32F4xx_HAL_Driver/Src/stm32f4xx_hal_spi.c ****   /* Enable the Rx DMA Stream */
1464:./Libraries/STM32F4xx_HAL_Driver/Src/stm32f4xx_hal_spi.c ****   HAL_DMA_Start_IT(hspi->hdmarx, (uint32_t)&hspi->Instance->DR, (uint32_t)hspi->pRxBuffPtr, hspi->R
 3293              		.loc 1 1464 3
 3294 0114 FB68     		ldr	r3, [r7, #12]
 3295 0116 D86C     		ldr	r0, [r3, #76]
 3296              		.loc 1 1464 49
 3297 0118 FB68     		ldr	r3, [r7, #12]
 3298 011a 1B68     		ldr	r3, [r3]
 3299              		.loc 1 1464 44
 3300 011c 0C33     		adds	r3, r3, #12
 3301              		.loc 1 1464 3
 3302 011e 1946     		mov	r1, r3
 3303              		.loc 1 1464 79
 3304 0120 FB68     		ldr	r3, [r7, #12]
 3305 0122 9B6B     		ldr	r3, [r3, #56]
 3306              		.loc 1 1464 3
 3307 0124 1A46     		mov	r2, r3
 3308              		.loc 1 1464 97
 3309 0126 FB68     		ldr	r3, [r7, #12]
 3310 0128 DB8F     		ldrh	r3, [r3, #62]	@ movhi
 3311 012a 9BB2     		uxth	r3, r3
 3312              		.loc 1 1464 3
 3313 012c FFF7FEFF 		bl	HAL_DMA_Start_IT
1465:./Libraries/STM32F4xx_HAL_Driver/Src/stm32f4xx_hal_spi.c **** 
1466:./Libraries/STM32F4xx_HAL_Driver/Src/stm32f4xx_hal_spi.c ****   /* Check if the SPI is already enabled */
1467:./Libraries/STM32F4xx_HAL_Driver/Src/stm32f4xx_hal_spi.c ****   if((hspi->Instance->CR1 &SPI_CR1_SPE) != SPI_CR1_SPE)
 3314              		.loc 1 1467 11
 3315 0130 FB68     		ldr	r3, [r7, #12]
 3316 0132 1B68     		ldr	r3, [r3]
 3317              		.loc 1 1467 21
 3318 0134 1B68     		ldr	r3, [r3]
 3319              		.loc 1 1467 27
 3320 0136 03F04003 		and	r3, r3, #64
 3321              		.loc 1 1467 5
 3322 013a 402B     		cmp	r3, #64
 3323 013c 07D0     		beq	.L169
1468:./Libraries/STM32F4xx_HAL_Driver/Src/stm32f4xx_hal_spi.c ****   {
1469:./Libraries/STM32F4xx_HAL_Driver/Src/stm32f4xx_hal_spi.c ****     /* Enable SPI peripheral */
1470:./Libraries/STM32F4xx_HAL_Driver/Src/stm32f4xx_hal_spi.c ****     __HAL_SPI_ENABLE(hspi);
 3324              		.loc 1 1470 5
 3325 013e FB68     		ldr	r3, [r7, #12]
ARM GAS  /tmp/ccits0mR.s 			page 85


 3326 0140 1B68     		ldr	r3, [r3]
 3327 0142 1A68     		ldr	r2, [r3]
 3328 0144 FB68     		ldr	r3, [r7, #12]
 3329 0146 1B68     		ldr	r3, [r3]
 3330 0148 42F04002 		orr	r2, r2, #64
 3331 014c 1A60     		str	r2, [r3]
 3332              	.L169:
1471:./Libraries/STM32F4xx_HAL_Driver/Src/stm32f4xx_hal_spi.c ****   }
1472:./Libraries/STM32F4xx_HAL_Driver/Src/stm32f4xx_hal_spi.c **** 
1473:./Libraries/STM32F4xx_HAL_Driver/Src/stm32f4xx_hal_spi.c ****   /* Enable the SPI Error Interrupt Bit */
1474:./Libraries/STM32F4xx_HAL_Driver/Src/stm32f4xx_hal_spi.c ****   SET_BIT(hspi->Instance->CR2, SPI_CR2_ERRIE);
 3333              		.loc 1 1474 3
 3334 014e FB68     		ldr	r3, [r7, #12]
 3335 0150 1B68     		ldr	r3, [r3]
 3336 0152 5A68     		ldr	r2, [r3, #4]
 3337 0154 FB68     		ldr	r3, [r7, #12]
 3338 0156 1B68     		ldr	r3, [r3]
 3339 0158 42F02002 		orr	r2, r2, #32
 3340 015c 5A60     		str	r2, [r3, #4]
1475:./Libraries/STM32F4xx_HAL_Driver/Src/stm32f4xx_hal_spi.c **** 
1476:./Libraries/STM32F4xx_HAL_Driver/Src/stm32f4xx_hal_spi.c ****   /* Enable Rx DMA Request */
1477:./Libraries/STM32F4xx_HAL_Driver/Src/stm32f4xx_hal_spi.c ****   SET_BIT(hspi->Instance->CR2, SPI_CR2_RXDMAEN);
 3341              		.loc 1 1477 3
 3342 015e FB68     		ldr	r3, [r7, #12]
 3343 0160 1B68     		ldr	r3, [r3]
 3344 0162 5A68     		ldr	r2, [r3, #4]
 3345 0164 FB68     		ldr	r3, [r7, #12]
 3346 0166 1B68     		ldr	r3, [r3]
 3347 0168 42F00102 		orr	r2, r2, #1
 3348 016c 5A60     		str	r2, [r3, #4]
 3349              	.L164:
1478:./Libraries/STM32F4xx_HAL_Driver/Src/stm32f4xx_hal_spi.c **** 
1479:./Libraries/STM32F4xx_HAL_Driver/Src/stm32f4xx_hal_spi.c **** error:
1480:./Libraries/STM32F4xx_HAL_Driver/Src/stm32f4xx_hal_spi.c ****   /* Process Unlocked */
1481:./Libraries/STM32F4xx_HAL_Driver/Src/stm32f4xx_hal_spi.c ****   __HAL_UNLOCK(hspi);
 3350              		.loc 1 1481 3
 3351 016e FB68     		ldr	r3, [r7, #12]
 3352 0170 0022     		movs	r2, #0
 3353 0172 83F85020 		strb	r2, [r3, #80]
1482:./Libraries/STM32F4xx_HAL_Driver/Src/stm32f4xx_hal_spi.c ****   return errorcode;
 3354              		.loc 1 1482 10
 3355 0176 FB7D     		ldrb	r3, [r7, #23]	@ zero_extendqisi2
 3356              	.L161:
1483:./Libraries/STM32F4xx_HAL_Driver/Src/stm32f4xx_hal_spi.c **** }
 3357              		.loc 1 1483 1
 3358 0178 1846     		mov	r0, r3
 3359 017a 1837     		adds	r7, r7, #24
 3360              	.LCFI62:
 3361              		.cfi_def_cfa_offset 8
 3362 017c BD46     		mov	sp, r7
 3363              	.LCFI63:
 3364              		.cfi_def_cfa_register 13
 3365              		@ sp needed
 3366 017e 80BD     		pop	{r7, pc}
 3367              	.L171:
 3368              		.align	2
 3369              	.L170:
ARM GAS  /tmp/ccits0mR.s 			page 86


 3370 0180 00000000 		.word	SPI_DMAHalfReceiveCplt
 3371 0184 00000000 		.word	SPI_DMAReceiveCplt
 3372 0188 00000000 		.word	SPI_DMAError
 3373              		.cfi_endproc
 3374              	.LFE137:
 3376              		.section	.text.HAL_SPI_TransmitReceive_DMA,"ax",%progbits
 3377              		.align	1
 3378              		.global	HAL_SPI_TransmitReceive_DMA
 3379              		.syntax unified
 3380              		.thumb
 3381              		.thumb_func
 3382              		.fpu fpv4-sp-d16
 3384              	HAL_SPI_TransmitReceive_DMA:
 3385              	.LFB138:
1484:./Libraries/STM32F4xx_HAL_Driver/Src/stm32f4xx_hal_spi.c **** 
1485:./Libraries/STM32F4xx_HAL_Driver/Src/stm32f4xx_hal_spi.c **** /**
1486:./Libraries/STM32F4xx_HAL_Driver/Src/stm32f4xx_hal_spi.c ****   * @brief  Transmit and Receive an amount of data in non-blocking mode with DMA.
1487:./Libraries/STM32F4xx_HAL_Driver/Src/stm32f4xx_hal_spi.c ****   * @param  hspi pointer to a SPI_HandleTypeDef structure that contains
1488:./Libraries/STM32F4xx_HAL_Driver/Src/stm32f4xx_hal_spi.c ****   *               the configuration information for SPI module.
1489:./Libraries/STM32F4xx_HAL_Driver/Src/stm32f4xx_hal_spi.c ****   * @param  pTxData pointer to transmission data buffer
1490:./Libraries/STM32F4xx_HAL_Driver/Src/stm32f4xx_hal_spi.c ****   * @param  pRxData pointer to reception data buffer
1491:./Libraries/STM32F4xx_HAL_Driver/Src/stm32f4xx_hal_spi.c ****   * @note   When the CRC feature is enabled the pRxData Length must be Size + 1
1492:./Libraries/STM32F4xx_HAL_Driver/Src/stm32f4xx_hal_spi.c ****   * @param  Size amount of data to be sent
1493:./Libraries/STM32F4xx_HAL_Driver/Src/stm32f4xx_hal_spi.c ****   * @retval HAL status
1494:./Libraries/STM32F4xx_HAL_Driver/Src/stm32f4xx_hal_spi.c ****   */
1495:./Libraries/STM32F4xx_HAL_Driver/Src/stm32f4xx_hal_spi.c **** HAL_StatusTypeDef HAL_SPI_TransmitReceive_DMA(SPI_HandleTypeDef *hspi, uint8_t *pTxData, uint8_t *p
1496:./Libraries/STM32F4xx_HAL_Driver/Src/stm32f4xx_hal_spi.c **** {
 3386              		.loc 1 1496 1
 3387              		.cfi_startproc
 3388              		@ args = 0, pretend = 0, frame = 32
 3389              		@ frame_needed = 1, uses_anonymous_args = 0
 3390 0000 80B5     		push	{r7, lr}
 3391              	.LCFI64:
 3392              		.cfi_def_cfa_offset 8
 3393              		.cfi_offset 7, -8
 3394              		.cfi_offset 14, -4
 3395 0002 88B0     		sub	sp, sp, #32
 3396              	.LCFI65:
 3397              		.cfi_def_cfa_offset 40
 3398 0004 00AF     		add	r7, sp, #0
 3399              	.LCFI66:
 3400              		.cfi_def_cfa_register 7
 3401 0006 F860     		str	r0, [r7, #12]
 3402 0008 B960     		str	r1, [r7, #8]
 3403 000a 7A60     		str	r2, [r7, #4]
 3404 000c 7B80     		strh	r3, [r7, #2]	@ movhi
1497:./Libraries/STM32F4xx_HAL_Driver/Src/stm32f4xx_hal_spi.c ****   uint32_t tmp = 0U, tmp1 = 0U;
 3405              		.loc 1 1497 12
 3406 000e 0023     		movs	r3, #0
 3407 0010 BB61     		str	r3, [r7, #24]
 3408              		.loc 1 1497 22
 3409 0012 0023     		movs	r3, #0
 3410 0014 7B61     		str	r3, [r7, #20]
1498:./Libraries/STM32F4xx_HAL_Driver/Src/stm32f4xx_hal_spi.c ****   HAL_StatusTypeDef errorcode = HAL_OK;
 3411              		.loc 1 1498 21
 3412 0016 0023     		movs	r3, #0
 3413 0018 FB77     		strb	r3, [r7, #31]
ARM GAS  /tmp/ccits0mR.s 			page 87


1499:./Libraries/STM32F4xx_HAL_Driver/Src/stm32f4xx_hal_spi.c **** 
1500:./Libraries/STM32F4xx_HAL_Driver/Src/stm32f4xx_hal_spi.c ****   /* Check Direction parameter */
1501:./Libraries/STM32F4xx_HAL_Driver/Src/stm32f4xx_hal_spi.c ****   assert_param(IS_SPI_DIRECTION_2LINES(hspi->Init.Direction));
1502:./Libraries/STM32F4xx_HAL_Driver/Src/stm32f4xx_hal_spi.c **** 
1503:./Libraries/STM32F4xx_HAL_Driver/Src/stm32f4xx_hal_spi.c ****   /* Process locked */
1504:./Libraries/STM32F4xx_HAL_Driver/Src/stm32f4xx_hal_spi.c ****   __HAL_LOCK(hspi);
 3414              		.loc 1 1504 3
 3415 001a FB68     		ldr	r3, [r7, #12]
 3416 001c 93F85030 		ldrb	r3, [r3, #80]	@ zero_extendqisi2
 3417 0020 012B     		cmp	r3, #1
 3418 0022 01D1     		bne	.L173
 3419              		.loc 1 1504 3 is_stmt 0 discriminator 1
 3420 0024 0223     		movs	r3, #2
 3421 0026 DAE0     		b	.L174
 3422              	.L173:
 3423              		.loc 1 1504 3 discriminator 2
 3424 0028 FB68     		ldr	r3, [r7, #12]
 3425 002a 0122     		movs	r2, #1
 3426 002c 83F85020 		strb	r2, [r3, #80]
1505:./Libraries/STM32F4xx_HAL_Driver/Src/stm32f4xx_hal_spi.c **** 
1506:./Libraries/STM32F4xx_HAL_Driver/Src/stm32f4xx_hal_spi.c ****   tmp  = hspi->State;
 3427              		.loc 1 1506 14 is_stmt 1 discriminator 2
 3428 0030 FB68     		ldr	r3, [r7, #12]
 3429 0032 93F85130 		ldrb	r3, [r3, #81]
 3430 0036 DBB2     		uxtb	r3, r3
 3431              		.loc 1 1506 8 discriminator 2
 3432 0038 BB61     		str	r3, [r7, #24]
1507:./Libraries/STM32F4xx_HAL_Driver/Src/stm32f4xx_hal_spi.c ****   tmp1 = hspi->Init.Mode;
 3433              		.loc 1 1507 8 discriminator 2
 3434 003a FB68     		ldr	r3, [r7, #12]
 3435 003c 5B68     		ldr	r3, [r3, #4]
 3436 003e 7B61     		str	r3, [r7, #20]
1508:./Libraries/STM32F4xx_HAL_Driver/Src/stm32f4xx_hal_spi.c ****   if(!((tmp == HAL_SPI_STATE_READY) ||
 3437              		.loc 1 1508 5 discriminator 2
 3438 0040 BB69     		ldr	r3, [r7, #24]
 3439 0042 012B     		cmp	r3, #1
 3440 0044 0DD0     		beq	.L175
 3441              		.loc 1 1508 6 discriminator 1
 3442 0046 7B69     		ldr	r3, [r7, #20]
 3443 0048 B3F5827F 		cmp	r3, #260
 3444 004c 06D1     		bne	.L176
1509:./Libraries/STM32F4xx_HAL_Driver/Src/stm32f4xx_hal_spi.c ****       ((tmp1 == SPI_MODE_MASTER) && (hspi->Init.Direction == SPI_DIRECTION_2LINES) && (tmp == HAL_S
 3445              		.loc 1 1509 48
 3446 004e FB68     		ldr	r3, [r7, #12]
 3447 0050 9B68     		ldr	r3, [r3, #8]
 3448              		.loc 1 1509 34
 3449 0052 002B     		cmp	r3, #0
 3450 0054 02D1     		bne	.L176
 3451              		.loc 1 1509 84 discriminator 1
 3452 0056 BB69     		ldr	r3, [r7, #24]
 3453 0058 042B     		cmp	r3, #4
 3454 005a 02D0     		beq	.L175
 3455              	.L176:
1510:./Libraries/STM32F4xx_HAL_Driver/Src/stm32f4xx_hal_spi.c ****   {
1511:./Libraries/STM32F4xx_HAL_Driver/Src/stm32f4xx_hal_spi.c ****     errorcode = HAL_BUSY;
 3456              		.loc 1 1511 15
 3457 005c 0223     		movs	r3, #2
ARM GAS  /tmp/ccits0mR.s 			page 88


 3458 005e FB77     		strb	r3, [r7, #31]
1512:./Libraries/STM32F4xx_HAL_Driver/Src/stm32f4xx_hal_spi.c ****     goto error;
 3459              		.loc 1 1512 5
 3460 0060 B8E0     		b	.L177
 3461              	.L175:
1513:./Libraries/STM32F4xx_HAL_Driver/Src/stm32f4xx_hal_spi.c ****   }
1514:./Libraries/STM32F4xx_HAL_Driver/Src/stm32f4xx_hal_spi.c **** 
1515:./Libraries/STM32F4xx_HAL_Driver/Src/stm32f4xx_hal_spi.c ****   if((pTxData == NULL ) || (pRxData == NULL ) || (Size == 0))
 3462              		.loc 1 1515 5
 3463 0062 BB68     		ldr	r3, [r7, #8]
 3464 0064 002B     		cmp	r3, #0
 3465 0066 05D0     		beq	.L178
 3466              		.loc 1 1515 25 discriminator 1
 3467 0068 7B68     		ldr	r3, [r7, #4]
 3468 006a 002B     		cmp	r3, #0
 3469 006c 02D0     		beq	.L178
 3470              		.loc 1 1515 47 discriminator 2
 3471 006e 7B88     		ldrh	r3, [r7, #2]
 3472 0070 002B     		cmp	r3, #0
 3473 0072 02D1     		bne	.L179
 3474              	.L178:
1516:./Libraries/STM32F4xx_HAL_Driver/Src/stm32f4xx_hal_spi.c ****   {
1517:./Libraries/STM32F4xx_HAL_Driver/Src/stm32f4xx_hal_spi.c ****     errorcode = HAL_ERROR;
 3475              		.loc 1 1517 15
 3476 0074 0123     		movs	r3, #1
 3477 0076 FB77     		strb	r3, [r7, #31]
1518:./Libraries/STM32F4xx_HAL_Driver/Src/stm32f4xx_hal_spi.c ****     goto error;
 3478              		.loc 1 1518 5
 3479 0078 ACE0     		b	.L177
 3480              	.L179:
1519:./Libraries/STM32F4xx_HAL_Driver/Src/stm32f4xx_hal_spi.c ****   }
1520:./Libraries/STM32F4xx_HAL_Driver/Src/stm32f4xx_hal_spi.c **** 
1521:./Libraries/STM32F4xx_HAL_Driver/Src/stm32f4xx_hal_spi.c ****   /* Don't overwrite in case of HAL_SPI_STATE_BUSY_RX */
1522:./Libraries/STM32F4xx_HAL_Driver/Src/stm32f4xx_hal_spi.c ****   if(hspi->State == HAL_SPI_STATE_READY)
 3481              		.loc 1 1522 10
 3482 007a FB68     		ldr	r3, [r7, #12]
 3483 007c 93F85130 		ldrb	r3, [r3, #81]
 3484 0080 DBB2     		uxtb	r3, r3
 3485              		.loc 1 1522 5
 3486 0082 012B     		cmp	r3, #1
 3487 0084 03D1     		bne	.L180
1523:./Libraries/STM32F4xx_HAL_Driver/Src/stm32f4xx_hal_spi.c ****   {
1524:./Libraries/STM32F4xx_HAL_Driver/Src/stm32f4xx_hal_spi.c ****     hspi->State = HAL_SPI_STATE_BUSY_TX_RX;
 3488              		.loc 1 1524 17
 3489 0086 FB68     		ldr	r3, [r7, #12]
 3490 0088 0522     		movs	r2, #5
 3491 008a 83F85120 		strb	r2, [r3, #81]
 3492              	.L180:
1525:./Libraries/STM32F4xx_HAL_Driver/Src/stm32f4xx_hal_spi.c ****   }
1526:./Libraries/STM32F4xx_HAL_Driver/Src/stm32f4xx_hal_spi.c **** 
1527:./Libraries/STM32F4xx_HAL_Driver/Src/stm32f4xx_hal_spi.c ****   /* Set the transaction information */
1528:./Libraries/STM32F4xx_HAL_Driver/Src/stm32f4xx_hal_spi.c ****   hspi->ErrorCode   = HAL_SPI_ERROR_NONE;
 3493              		.loc 1 1528 21
 3494 008e FB68     		ldr	r3, [r7, #12]
 3495 0090 0022     		movs	r2, #0
 3496 0092 5A65     		str	r2, [r3, #84]
1529:./Libraries/STM32F4xx_HAL_Driver/Src/stm32f4xx_hal_spi.c ****   hspi->pTxBuffPtr  = (uint8_t*)pTxData;
ARM GAS  /tmp/ccits0mR.s 			page 89


 3497              		.loc 1 1529 21
 3498 0094 FB68     		ldr	r3, [r7, #12]
 3499 0096 BA68     		ldr	r2, [r7, #8]
 3500 0098 1A63     		str	r2, [r3, #48]
1530:./Libraries/STM32F4xx_HAL_Driver/Src/stm32f4xx_hal_spi.c ****   hspi->TxXferSize  = Size;
 3501              		.loc 1 1530 21
 3502 009a FB68     		ldr	r3, [r7, #12]
 3503 009c 7A88     		ldrh	r2, [r7, #2]	@ movhi
 3504 009e 9A86     		strh	r2, [r3, #52]	@ movhi
1531:./Libraries/STM32F4xx_HAL_Driver/Src/stm32f4xx_hal_spi.c ****   hspi->TxXferCount = Size;
 3505              		.loc 1 1531 21
 3506 00a0 FB68     		ldr	r3, [r7, #12]
 3507 00a2 7A88     		ldrh	r2, [r7, #2]	@ movhi
 3508 00a4 DA86     		strh	r2, [r3, #54]	@ movhi
1532:./Libraries/STM32F4xx_HAL_Driver/Src/stm32f4xx_hal_spi.c ****   hspi->pRxBuffPtr  = (uint8_t*)pRxData;
 3509              		.loc 1 1532 21
 3510 00a6 FB68     		ldr	r3, [r7, #12]
 3511 00a8 7A68     		ldr	r2, [r7, #4]
 3512 00aa 9A63     		str	r2, [r3, #56]
1533:./Libraries/STM32F4xx_HAL_Driver/Src/stm32f4xx_hal_spi.c ****   hspi->RxXferSize  = Size;
 3513              		.loc 1 1533 21
 3514 00ac FB68     		ldr	r3, [r7, #12]
 3515 00ae 7A88     		ldrh	r2, [r7, #2]	@ movhi
 3516 00b0 9A87     		strh	r2, [r3, #60]	@ movhi
1534:./Libraries/STM32F4xx_HAL_Driver/Src/stm32f4xx_hal_spi.c ****   hspi->RxXferCount = Size;
 3517              		.loc 1 1534 21
 3518 00b2 FB68     		ldr	r3, [r7, #12]
 3519 00b4 7A88     		ldrh	r2, [r7, #2]	@ movhi
 3520 00b6 DA87     		strh	r2, [r3, #62]	@ movhi
1535:./Libraries/STM32F4xx_HAL_Driver/Src/stm32f4xx_hal_spi.c **** 
1536:./Libraries/STM32F4xx_HAL_Driver/Src/stm32f4xx_hal_spi.c ****   /* Init field not used in handle to zero */
1537:./Libraries/STM32F4xx_HAL_Driver/Src/stm32f4xx_hal_spi.c ****   hspi->RxISR       = NULL;
 3521              		.loc 1 1537 21
 3522 00b8 FB68     		ldr	r3, [r7, #12]
 3523 00ba 0022     		movs	r2, #0
 3524 00bc 1A64     		str	r2, [r3, #64]
1538:./Libraries/STM32F4xx_HAL_Driver/Src/stm32f4xx_hal_spi.c ****   hspi->TxISR       = NULL;
 3525              		.loc 1 1538 21
 3526 00be FB68     		ldr	r3, [r7, #12]
 3527 00c0 0022     		movs	r2, #0
 3528 00c2 5A64     		str	r2, [r3, #68]
1539:./Libraries/STM32F4xx_HAL_Driver/Src/stm32f4xx_hal_spi.c **** 
1540:./Libraries/STM32F4xx_HAL_Driver/Src/stm32f4xx_hal_spi.c **** #if (USE_SPI_CRC != 0U)
1541:./Libraries/STM32F4xx_HAL_Driver/Src/stm32f4xx_hal_spi.c ****   /* Reset CRC Calculation */
1542:./Libraries/STM32F4xx_HAL_Driver/Src/stm32f4xx_hal_spi.c ****   if(hspi->Init.CRCCalculation == SPI_CRCCALCULATION_ENABLE)
 3529              		.loc 1 1542 16
 3530 00c4 FB68     		ldr	r3, [r7, #12]
 3531 00c6 9B6A     		ldr	r3, [r3, #40]
 3532              		.loc 1 1542 5
 3533 00c8 B3F5005F 		cmp	r3, #8192
 3534 00cc 10D1     		bne	.L181
1543:./Libraries/STM32F4xx_HAL_Driver/Src/stm32f4xx_hal_spi.c ****   {
1544:./Libraries/STM32F4xx_HAL_Driver/Src/stm32f4xx_hal_spi.c ****     SPI_RESET_CRC(hspi);
 3535              		.loc 1 1544 5
 3536 00ce FB68     		ldr	r3, [r7, #12]
 3537 00d0 1B68     		ldr	r3, [r3]
 3538 00d2 1968     		ldr	r1, [r3]
ARM GAS  /tmp/ccits0mR.s 			page 90


 3539 00d4 FB68     		ldr	r3, [r7, #12]
 3540 00d6 1A68     		ldr	r2, [r3]
 3541 00d8 4DF6FF73 		movw	r3, #57343
 3542 00dc 0B40     		ands	r3, r3, r1
 3543 00de 1360     		str	r3, [r2]
 3544 00e0 FB68     		ldr	r3, [r7, #12]
 3545 00e2 1B68     		ldr	r3, [r3]
 3546 00e4 1A68     		ldr	r2, [r3]
 3547 00e6 FB68     		ldr	r3, [r7, #12]
 3548 00e8 1B68     		ldr	r3, [r3]
 3549 00ea 42F40052 		orr	r2, r2, #8192
 3550 00ee 1A60     		str	r2, [r3]
 3551              	.L181:
1545:./Libraries/STM32F4xx_HAL_Driver/Src/stm32f4xx_hal_spi.c ****   }
1546:./Libraries/STM32F4xx_HAL_Driver/Src/stm32f4xx_hal_spi.c **** #endif /* USE_SPI_CRC */
1547:./Libraries/STM32F4xx_HAL_Driver/Src/stm32f4xx_hal_spi.c **** 
1548:./Libraries/STM32F4xx_HAL_Driver/Src/stm32f4xx_hal_spi.c ****   /* Check if we are in Rx only or in Rx/Tx Mode and configure the DMA transfer complete callback *
1549:./Libraries/STM32F4xx_HAL_Driver/Src/stm32f4xx_hal_spi.c ****   if(hspi->State == HAL_SPI_STATE_BUSY_RX)
 3552              		.loc 1 1549 10
 3553 00f0 FB68     		ldr	r3, [r7, #12]
 3554 00f2 93F85130 		ldrb	r3, [r3, #81]
 3555 00f6 DBB2     		uxtb	r3, r3
 3556              		.loc 1 1549 5
 3557 00f8 042B     		cmp	r3, #4
 3558 00fa 08D1     		bne	.L182
1550:./Libraries/STM32F4xx_HAL_Driver/Src/stm32f4xx_hal_spi.c ****   {
1551:./Libraries/STM32F4xx_HAL_Driver/Src/stm32f4xx_hal_spi.c ****     /* Set the SPI Rx DMA Half transfer complete callback */
1552:./Libraries/STM32F4xx_HAL_Driver/Src/stm32f4xx_hal_spi.c ****     hspi->hdmarx->XferHalfCpltCallback = SPI_DMAHalfReceiveCplt;
 3559              		.loc 1 1552 9
 3560 00fc FB68     		ldr	r3, [r7, #12]
 3561 00fe DB6C     		ldr	r3, [r3, #76]
 3562              		.loc 1 1552 40
 3563 0100 394A     		ldr	r2, .L185
 3564 0102 1A64     		str	r2, [r3, #64]
1553:./Libraries/STM32F4xx_HAL_Driver/Src/stm32f4xx_hal_spi.c ****     hspi->hdmarx->XferCpltCallback     = SPI_DMAReceiveCplt;
 3565              		.loc 1 1553 9
 3566 0104 FB68     		ldr	r3, [r7, #12]
 3567 0106 DB6C     		ldr	r3, [r3, #76]
 3568              		.loc 1 1553 40
 3569 0108 384A     		ldr	r2, .L185+4
 3570 010a DA63     		str	r2, [r3, #60]
 3571 010c 07E0     		b	.L183
 3572              	.L182:
1554:./Libraries/STM32F4xx_HAL_Driver/Src/stm32f4xx_hal_spi.c ****   }
1555:./Libraries/STM32F4xx_HAL_Driver/Src/stm32f4xx_hal_spi.c ****   else
1556:./Libraries/STM32F4xx_HAL_Driver/Src/stm32f4xx_hal_spi.c ****   {
1557:./Libraries/STM32F4xx_HAL_Driver/Src/stm32f4xx_hal_spi.c ****     /* Set the SPI Tx/Rx DMA Half transfer complete callback */
1558:./Libraries/STM32F4xx_HAL_Driver/Src/stm32f4xx_hal_spi.c ****     hspi->hdmarx->XferHalfCpltCallback = SPI_DMAHalfTransmitReceiveCplt;
 3573              		.loc 1 1558 9
 3574 010e FB68     		ldr	r3, [r7, #12]
 3575 0110 DB6C     		ldr	r3, [r3, #76]
 3576              		.loc 1 1558 40
 3577 0112 374A     		ldr	r2, .L185+8
 3578 0114 1A64     		str	r2, [r3, #64]
1559:./Libraries/STM32F4xx_HAL_Driver/Src/stm32f4xx_hal_spi.c ****     hspi->hdmarx->XferCpltCallback     = SPI_DMATransmitReceiveCplt;
 3579              		.loc 1 1559 9
 3580 0116 FB68     		ldr	r3, [r7, #12]
ARM GAS  /tmp/ccits0mR.s 			page 91


 3581 0118 DB6C     		ldr	r3, [r3, #76]
 3582              		.loc 1 1559 40
 3583 011a 364A     		ldr	r2, .L185+12
 3584 011c DA63     		str	r2, [r3, #60]
 3585              	.L183:
1560:./Libraries/STM32F4xx_HAL_Driver/Src/stm32f4xx_hal_spi.c ****   }
1561:./Libraries/STM32F4xx_HAL_Driver/Src/stm32f4xx_hal_spi.c **** 
1562:./Libraries/STM32F4xx_HAL_Driver/Src/stm32f4xx_hal_spi.c ****   /* Set the DMA error callback */
1563:./Libraries/STM32F4xx_HAL_Driver/Src/stm32f4xx_hal_spi.c ****   hspi->hdmarx->XferErrorCallback = SPI_DMAError;
 3586              		.loc 1 1563 7
 3587 011e FB68     		ldr	r3, [r7, #12]
 3588 0120 DB6C     		ldr	r3, [r3, #76]
 3589              		.loc 1 1563 35
 3590 0122 354A     		ldr	r2, .L185+16
 3591 0124 DA64     		str	r2, [r3, #76]
1564:./Libraries/STM32F4xx_HAL_Driver/Src/stm32f4xx_hal_spi.c **** 
1565:./Libraries/STM32F4xx_HAL_Driver/Src/stm32f4xx_hal_spi.c ****   /* Set the DMA AbortCpltCallback */
1566:./Libraries/STM32F4xx_HAL_Driver/Src/stm32f4xx_hal_spi.c ****   hspi->hdmarx->XferAbortCallback = NULL;
 3592              		.loc 1 1566 7
 3593 0126 FB68     		ldr	r3, [r7, #12]
 3594 0128 DB6C     		ldr	r3, [r3, #76]
 3595              		.loc 1 1566 35
 3596 012a 0022     		movs	r2, #0
 3597 012c 1A65     		str	r2, [r3, #80]
1567:./Libraries/STM32F4xx_HAL_Driver/Src/stm32f4xx_hal_spi.c **** 
1568:./Libraries/STM32F4xx_HAL_Driver/Src/stm32f4xx_hal_spi.c ****   /* Enable the Rx DMA Stream */
1569:./Libraries/STM32F4xx_HAL_Driver/Src/stm32f4xx_hal_spi.c ****   HAL_DMA_Start_IT(hspi->hdmarx, (uint32_t)&hspi->Instance->DR, (uint32_t)hspi->pRxBuffPtr, hspi->R
 3598              		.loc 1 1569 3
 3599 012e FB68     		ldr	r3, [r7, #12]
 3600 0130 D86C     		ldr	r0, [r3, #76]
 3601              		.loc 1 1569 49
 3602 0132 FB68     		ldr	r3, [r7, #12]
 3603 0134 1B68     		ldr	r3, [r3]
 3604              		.loc 1 1569 44
 3605 0136 0C33     		adds	r3, r3, #12
 3606              		.loc 1 1569 3
 3607 0138 1946     		mov	r1, r3
 3608              		.loc 1 1569 79
 3609 013a FB68     		ldr	r3, [r7, #12]
 3610 013c 9B6B     		ldr	r3, [r3, #56]
 3611              		.loc 1 1569 3
 3612 013e 1A46     		mov	r2, r3
 3613              		.loc 1 1569 97
 3614 0140 FB68     		ldr	r3, [r7, #12]
 3615 0142 DB8F     		ldrh	r3, [r3, #62]	@ movhi
 3616 0144 9BB2     		uxth	r3, r3
 3617              		.loc 1 1569 3
 3618 0146 FFF7FEFF 		bl	HAL_DMA_Start_IT
1570:./Libraries/STM32F4xx_HAL_Driver/Src/stm32f4xx_hal_spi.c **** 
1571:./Libraries/STM32F4xx_HAL_Driver/Src/stm32f4xx_hal_spi.c ****   /* Enable Rx DMA Request */
1572:./Libraries/STM32F4xx_HAL_Driver/Src/stm32f4xx_hal_spi.c ****   SET_BIT(hspi->Instance->CR2, SPI_CR2_RXDMAEN);
 3619              		.loc 1 1572 3
 3620 014a FB68     		ldr	r3, [r7, #12]
 3621 014c 1B68     		ldr	r3, [r3]
 3622 014e 5A68     		ldr	r2, [r3, #4]
 3623 0150 FB68     		ldr	r3, [r7, #12]
 3624 0152 1B68     		ldr	r3, [r3]
ARM GAS  /tmp/ccits0mR.s 			page 92


 3625 0154 42F00102 		orr	r2, r2, #1
 3626 0158 5A60     		str	r2, [r3, #4]
1573:./Libraries/STM32F4xx_HAL_Driver/Src/stm32f4xx_hal_spi.c **** 
1574:./Libraries/STM32F4xx_HAL_Driver/Src/stm32f4xx_hal_spi.c ****   /* Set the SPI Tx DMA transfer complete callback as NULL because the communication closing
1575:./Libraries/STM32F4xx_HAL_Driver/Src/stm32f4xx_hal_spi.c ****   is performed in DMA reception complete callback  */
1576:./Libraries/STM32F4xx_HAL_Driver/Src/stm32f4xx_hal_spi.c ****   hspi->hdmatx->XferHalfCpltCallback = NULL;
 3627              		.loc 1 1576 7
 3628 015a FB68     		ldr	r3, [r7, #12]
 3629 015c 9B6C     		ldr	r3, [r3, #72]
 3630              		.loc 1 1576 38
 3631 015e 0022     		movs	r2, #0
 3632 0160 1A64     		str	r2, [r3, #64]
1577:./Libraries/STM32F4xx_HAL_Driver/Src/stm32f4xx_hal_spi.c ****   hspi->hdmatx->XferCpltCallback     = NULL;
 3633              		.loc 1 1577 7
 3634 0162 FB68     		ldr	r3, [r7, #12]
 3635 0164 9B6C     		ldr	r3, [r3, #72]
 3636              		.loc 1 1577 38
 3637 0166 0022     		movs	r2, #0
 3638 0168 DA63     		str	r2, [r3, #60]
1578:./Libraries/STM32F4xx_HAL_Driver/Src/stm32f4xx_hal_spi.c ****   hspi->hdmatx->XferErrorCallback    = NULL;
 3639              		.loc 1 1578 7
 3640 016a FB68     		ldr	r3, [r7, #12]
 3641 016c 9B6C     		ldr	r3, [r3, #72]
 3642              		.loc 1 1578 38
 3643 016e 0022     		movs	r2, #0
 3644 0170 DA64     		str	r2, [r3, #76]
1579:./Libraries/STM32F4xx_HAL_Driver/Src/stm32f4xx_hal_spi.c ****   hspi->hdmatx->XferAbortCallback    = NULL;
 3645              		.loc 1 1579 7
 3646 0172 FB68     		ldr	r3, [r7, #12]
 3647 0174 9B6C     		ldr	r3, [r3, #72]
 3648              		.loc 1 1579 38
 3649 0176 0022     		movs	r2, #0
 3650 0178 1A65     		str	r2, [r3, #80]
1580:./Libraries/STM32F4xx_HAL_Driver/Src/stm32f4xx_hal_spi.c **** 
1581:./Libraries/STM32F4xx_HAL_Driver/Src/stm32f4xx_hal_spi.c ****   /* Enable the Tx DMA Stream */
1582:./Libraries/STM32F4xx_HAL_Driver/Src/stm32f4xx_hal_spi.c ****   HAL_DMA_Start_IT(hspi->hdmatx, (uint32_t)hspi->pTxBuffPtr, (uint32_t)&hspi->Instance->DR, hspi->T
 3651              		.loc 1 1582 3
 3652 017a FB68     		ldr	r3, [r7, #12]
 3653 017c 986C     		ldr	r0, [r3, #72]
 3654              		.loc 1 1582 48
 3655 017e FB68     		ldr	r3, [r7, #12]
 3656 0180 1B6B     		ldr	r3, [r3, #48]
 3657              		.loc 1 1582 3
 3658 0182 1946     		mov	r1, r3
 3659              		.loc 1 1582 77
 3660 0184 FB68     		ldr	r3, [r7, #12]
 3661 0186 1B68     		ldr	r3, [r3]
 3662              		.loc 1 1582 72
 3663 0188 0C33     		adds	r3, r3, #12
 3664              		.loc 1 1582 3
 3665 018a 1A46     		mov	r2, r3
 3666              		.loc 1 1582 97
 3667 018c FB68     		ldr	r3, [r7, #12]
 3668 018e DB8E     		ldrh	r3, [r3, #54]	@ movhi
 3669 0190 9BB2     		uxth	r3, r3
 3670              		.loc 1 1582 3
 3671 0192 FFF7FEFF 		bl	HAL_DMA_Start_IT
ARM GAS  /tmp/ccits0mR.s 			page 93


1583:./Libraries/STM32F4xx_HAL_Driver/Src/stm32f4xx_hal_spi.c **** 
1584:./Libraries/STM32F4xx_HAL_Driver/Src/stm32f4xx_hal_spi.c ****   /* Check if the SPI is already enabled */
1585:./Libraries/STM32F4xx_HAL_Driver/Src/stm32f4xx_hal_spi.c ****   if((hspi->Instance->CR1 &SPI_CR1_SPE) != SPI_CR1_SPE)
 3672              		.loc 1 1585 11
 3673 0196 FB68     		ldr	r3, [r7, #12]
 3674 0198 1B68     		ldr	r3, [r3]
 3675              		.loc 1 1585 21
 3676 019a 1B68     		ldr	r3, [r3]
 3677              		.loc 1 1585 27
 3678 019c 03F04003 		and	r3, r3, #64
 3679              		.loc 1 1585 5
 3680 01a0 402B     		cmp	r3, #64
 3681 01a2 07D0     		beq	.L184
1586:./Libraries/STM32F4xx_HAL_Driver/Src/stm32f4xx_hal_spi.c ****   {
1587:./Libraries/STM32F4xx_HAL_Driver/Src/stm32f4xx_hal_spi.c ****     /* Enable SPI peripheral */
1588:./Libraries/STM32F4xx_HAL_Driver/Src/stm32f4xx_hal_spi.c ****     __HAL_SPI_ENABLE(hspi);
 3682              		.loc 1 1588 5
 3683 01a4 FB68     		ldr	r3, [r7, #12]
 3684 01a6 1B68     		ldr	r3, [r3]
 3685 01a8 1A68     		ldr	r2, [r3]
 3686 01aa FB68     		ldr	r3, [r7, #12]
 3687 01ac 1B68     		ldr	r3, [r3]
 3688 01ae 42F04002 		orr	r2, r2, #64
 3689 01b2 1A60     		str	r2, [r3]
 3690              	.L184:
1589:./Libraries/STM32F4xx_HAL_Driver/Src/stm32f4xx_hal_spi.c ****   }
1590:./Libraries/STM32F4xx_HAL_Driver/Src/stm32f4xx_hal_spi.c ****   /* Enable the SPI Error Interrupt Bit */
1591:./Libraries/STM32F4xx_HAL_Driver/Src/stm32f4xx_hal_spi.c ****   SET_BIT(hspi->Instance->CR2, SPI_CR2_ERRIE);
 3691              		.loc 1 1591 3
 3692 01b4 FB68     		ldr	r3, [r7, #12]
 3693 01b6 1B68     		ldr	r3, [r3]
 3694 01b8 5A68     		ldr	r2, [r3, #4]
 3695 01ba FB68     		ldr	r3, [r7, #12]
 3696 01bc 1B68     		ldr	r3, [r3]
 3697 01be 42F02002 		orr	r2, r2, #32
 3698 01c2 5A60     		str	r2, [r3, #4]
1592:./Libraries/STM32F4xx_HAL_Driver/Src/stm32f4xx_hal_spi.c **** 
1593:./Libraries/STM32F4xx_HAL_Driver/Src/stm32f4xx_hal_spi.c ****   /* Enable Tx DMA Request */
1594:./Libraries/STM32F4xx_HAL_Driver/Src/stm32f4xx_hal_spi.c ****   SET_BIT(hspi->Instance->CR2, SPI_CR2_TXDMAEN);
 3699              		.loc 1 1594 3
 3700 01c4 FB68     		ldr	r3, [r7, #12]
 3701 01c6 1B68     		ldr	r3, [r3]
 3702 01c8 5A68     		ldr	r2, [r3, #4]
 3703 01ca FB68     		ldr	r3, [r7, #12]
 3704 01cc 1B68     		ldr	r3, [r3]
 3705 01ce 42F00202 		orr	r2, r2, #2
 3706 01d2 5A60     		str	r2, [r3, #4]
 3707              	.L177:
1595:./Libraries/STM32F4xx_HAL_Driver/Src/stm32f4xx_hal_spi.c **** 
1596:./Libraries/STM32F4xx_HAL_Driver/Src/stm32f4xx_hal_spi.c **** error :
1597:./Libraries/STM32F4xx_HAL_Driver/Src/stm32f4xx_hal_spi.c ****   /* Process Unlocked */
1598:./Libraries/STM32F4xx_HAL_Driver/Src/stm32f4xx_hal_spi.c ****   __HAL_UNLOCK(hspi);
 3708              		.loc 1 1598 3
 3709 01d4 FB68     		ldr	r3, [r7, #12]
 3710 01d6 0022     		movs	r2, #0
 3711 01d8 83F85020 		strb	r2, [r3, #80]
1599:./Libraries/STM32F4xx_HAL_Driver/Src/stm32f4xx_hal_spi.c ****   return errorcode;
ARM GAS  /tmp/ccits0mR.s 			page 94


 3712              		.loc 1 1599 10
 3713 01dc FB7F     		ldrb	r3, [r7, #31]	@ zero_extendqisi2
 3714              	.L174:
1600:./Libraries/STM32F4xx_HAL_Driver/Src/stm32f4xx_hal_spi.c **** }
 3715              		.loc 1 1600 1
 3716 01de 1846     		mov	r0, r3
 3717 01e0 2037     		adds	r7, r7, #32
 3718              	.LCFI67:
 3719              		.cfi_def_cfa_offset 8
 3720 01e2 BD46     		mov	sp, r7
 3721              	.LCFI68:
 3722              		.cfi_def_cfa_register 13
 3723              		@ sp needed
 3724 01e4 80BD     		pop	{r7, pc}
 3725              	.L186:
 3726 01e6 00BF     		.align	2
 3727              	.L185:
 3728 01e8 00000000 		.word	SPI_DMAHalfReceiveCplt
 3729 01ec 00000000 		.word	SPI_DMAReceiveCplt
 3730 01f0 00000000 		.word	SPI_DMAHalfTransmitReceiveCplt
 3731 01f4 00000000 		.word	SPI_DMATransmitReceiveCplt
 3732 01f8 00000000 		.word	SPI_DMAError
 3733              		.cfi_endproc
 3734              	.LFE138:
 3736              		.section	.text.HAL_SPI_Abort,"ax",%progbits
 3737              		.align	1
 3738              		.global	HAL_SPI_Abort
 3739              		.syntax unified
 3740              		.thumb
 3741              		.thumb_func
 3742              		.fpu fpv4-sp-d16
 3744              	HAL_SPI_Abort:
 3745              	.LFB139:
1601:./Libraries/STM32F4xx_HAL_Driver/Src/stm32f4xx_hal_spi.c **** 
1602:./Libraries/STM32F4xx_HAL_Driver/Src/stm32f4xx_hal_spi.c **** /**
1603:./Libraries/STM32F4xx_HAL_Driver/Src/stm32f4xx_hal_spi.c ****   * @brief  Abort ongoing transfer (blocking mode).
1604:./Libraries/STM32F4xx_HAL_Driver/Src/stm32f4xx_hal_spi.c ****   * @param  hspi SPI handle.
1605:./Libraries/STM32F4xx_HAL_Driver/Src/stm32f4xx_hal_spi.c ****   * @note   This procedure could be used for aborting any ongoing transfer (Tx and Rx),
1606:./Libraries/STM32F4xx_HAL_Driver/Src/stm32f4xx_hal_spi.c ****   *         started in Interrupt or DMA mode.
1607:./Libraries/STM32F4xx_HAL_Driver/Src/stm32f4xx_hal_spi.c ****   *         This procedure performs following operations :
1608:./Libraries/STM32F4xx_HAL_Driver/Src/stm32f4xx_hal_spi.c ****   *           - Disable SPI Interrupts (depending of transfer direction)
1609:./Libraries/STM32F4xx_HAL_Driver/Src/stm32f4xx_hal_spi.c ****   *           - Disable the DMA transfer in the peripheral register (if enabled)
1610:./Libraries/STM32F4xx_HAL_Driver/Src/stm32f4xx_hal_spi.c ****   *           - Abort DMA transfer by calling HAL_DMA_Abort (in case of transfer in DMA mode)
1611:./Libraries/STM32F4xx_HAL_Driver/Src/stm32f4xx_hal_spi.c ****   *           - Set handle State to READY
1612:./Libraries/STM32F4xx_HAL_Driver/Src/stm32f4xx_hal_spi.c ****   * @note   This procedure is executed in blocking mode : when exiting function, Abort is considere
1613:./Libraries/STM32F4xx_HAL_Driver/Src/stm32f4xx_hal_spi.c ****   * @note   Once transfer is aborted, the __HAL_SPI_CLEAR_OVRFLAG() macro must be called in user ap
1614:./Libraries/STM32F4xx_HAL_Driver/Src/stm32f4xx_hal_spi.c ****   *         before starting new SPI receive process.
1615:./Libraries/STM32F4xx_HAL_Driver/Src/stm32f4xx_hal_spi.c ****   * @retval HAL status
1616:./Libraries/STM32F4xx_HAL_Driver/Src/stm32f4xx_hal_spi.c **** */
1617:./Libraries/STM32F4xx_HAL_Driver/Src/stm32f4xx_hal_spi.c **** HAL_StatusTypeDef HAL_SPI_Abort(SPI_HandleTypeDef *hspi)
1618:./Libraries/STM32F4xx_HAL_Driver/Src/stm32f4xx_hal_spi.c **** {
 3746              		.loc 1 1618 1
 3747              		.cfi_startproc
 3748              		@ args = 0, pretend = 0, frame = 24
 3749              		@ frame_needed = 1, uses_anonymous_args = 0
 3750 0000 80B5     		push	{r7, lr}
 3751              	.LCFI69:
ARM GAS  /tmp/ccits0mR.s 			page 95


 3752              		.cfi_def_cfa_offset 8
 3753              		.cfi_offset 7, -8
 3754              		.cfi_offset 14, -4
 3755 0002 86B0     		sub	sp, sp, #24
 3756              	.LCFI70:
 3757              		.cfi_def_cfa_offset 32
 3758 0004 00AF     		add	r7, sp, #0
 3759              	.LCFI71:
 3760              		.cfi_def_cfa_register 7
 3761 0006 7860     		str	r0, [r7, #4]
1619:./Libraries/STM32F4xx_HAL_Driver/Src/stm32f4xx_hal_spi.c ****   __IO uint32_t count = SPI_DEFAULT_TIMEOUT * (SystemCoreClock / 24U / 1000U);
 3762              		.loc 1 1619 70
 3763 0008 4E4B     		ldr	r3, .L196
 3764 000a 1B68     		ldr	r3, [r3]
 3765 000c 4E4A     		ldr	r2, .L196+4
 3766 000e A2FB0323 		umull	r2, r3, r2, r3
 3767 0012 5B0A     		lsrs	r3, r3, #9
 3768              		.loc 1 1619 45
 3769 0014 6422     		movs	r2, #100
 3770 0016 02FB03F3 		mul	r3, r2, r3
 3771              		.loc 1 1619 17
 3772 001a 7B61     		str	r3, [r7, #20]
1620:./Libraries/STM32F4xx_HAL_Driver/Src/stm32f4xx_hal_spi.c **** 
1621:./Libraries/STM32F4xx_HAL_Driver/Src/stm32f4xx_hal_spi.c ****   /* Disable TXEIE, RXNEIE and ERRIE(mode fault event, overrun error, TI frame error) interrupts */
1622:./Libraries/STM32F4xx_HAL_Driver/Src/stm32f4xx_hal_spi.c ****   if(HAL_IS_BIT_SET(hspi->Instance->CR2, SPI_CR2_TXEIE))
 3773              		.loc 1 1622 6
 3774 001c 7B68     		ldr	r3, [r7, #4]
 3775 001e 1B68     		ldr	r3, [r3]
 3776 0020 5B68     		ldr	r3, [r3, #4]
 3777 0022 03F08003 		and	r3, r3, #128
 3778              		.loc 1 1622 5
 3779 0026 002B     		cmp	r3, #0
 3780 0028 02D0     		beq	.L188
1623:./Libraries/STM32F4xx_HAL_Driver/Src/stm32f4xx_hal_spi.c ****   {
1624:./Libraries/STM32F4xx_HAL_Driver/Src/stm32f4xx_hal_spi.c ****     hspi->TxISR = SPI_AbortTx_ISR;
 3781              		.loc 1 1624 17
 3782 002a 7B68     		ldr	r3, [r7, #4]
 3783 002c 474A     		ldr	r2, .L196+8
 3784 002e 5A64     		str	r2, [r3, #68]
 3785              	.L188:
1625:./Libraries/STM32F4xx_HAL_Driver/Src/stm32f4xx_hal_spi.c ****   }
1626:./Libraries/STM32F4xx_HAL_Driver/Src/stm32f4xx_hal_spi.c **** 
1627:./Libraries/STM32F4xx_HAL_Driver/Src/stm32f4xx_hal_spi.c ****   if(HAL_IS_BIT_SET(hspi->Instance->CR2, SPI_CR2_RXNEIE))
 3786              		.loc 1 1627 6
 3787 0030 7B68     		ldr	r3, [r7, #4]
 3788 0032 1B68     		ldr	r3, [r3]
 3789 0034 5B68     		ldr	r3, [r3, #4]
 3790 0036 03F04003 		and	r3, r3, #64
 3791              		.loc 1 1627 5
 3792 003a 002B     		cmp	r3, #0
 3793 003c 02D0     		beq	.L189
1628:./Libraries/STM32F4xx_HAL_Driver/Src/stm32f4xx_hal_spi.c ****   {
1629:./Libraries/STM32F4xx_HAL_Driver/Src/stm32f4xx_hal_spi.c ****     hspi->RxISR = SPI_AbortRx_ISR;
 3794              		.loc 1 1629 17
 3795 003e 7B68     		ldr	r3, [r7, #4]
 3796 0040 434A     		ldr	r2, .L196+12
 3797 0042 1A64     		str	r2, [r3, #64]
ARM GAS  /tmp/ccits0mR.s 			page 96


 3798              	.L189:
1630:./Libraries/STM32F4xx_HAL_Driver/Src/stm32f4xx_hal_spi.c ****   }
1631:./Libraries/STM32F4xx_HAL_Driver/Src/stm32f4xx_hal_spi.c **** 
1632:./Libraries/STM32F4xx_HAL_Driver/Src/stm32f4xx_hal_spi.c ****   /* Clear ERRIE interrupts in case of DMA Mode */
1633:./Libraries/STM32F4xx_HAL_Driver/Src/stm32f4xx_hal_spi.c ****   CLEAR_BIT(hspi->Instance->CR2, SPI_CR2_ERRIE);
 3799              		.loc 1 1633 3
 3800 0044 7B68     		ldr	r3, [r7, #4]
 3801 0046 1B68     		ldr	r3, [r3]
 3802 0048 5A68     		ldr	r2, [r3, #4]
 3803 004a 7B68     		ldr	r3, [r7, #4]
 3804 004c 1B68     		ldr	r3, [r3]
 3805 004e 22F02002 		bic	r2, r2, #32
 3806 0052 5A60     		str	r2, [r3, #4]
1634:./Libraries/STM32F4xx_HAL_Driver/Src/stm32f4xx_hal_spi.c **** 
1635:./Libraries/STM32F4xx_HAL_Driver/Src/stm32f4xx_hal_spi.c ****   /* Disable the SPI DMA Tx or SPI DMA Rx request if enabled */
1636:./Libraries/STM32F4xx_HAL_Driver/Src/stm32f4xx_hal_spi.c ****   if ((HAL_IS_BIT_SET(hspi->Instance->CR2, SPI_CR2_TXDMAEN)) || (HAL_IS_BIT_SET(hspi->Instance->CR2
 3807              		.loc 1 1636 8
 3808 0054 7B68     		ldr	r3, [r7, #4]
 3809 0056 1B68     		ldr	r3, [r3]
 3810 0058 5B68     		ldr	r3, [r3, #4]
 3811 005a 03F00203 		and	r3, r3, #2
 3812              		.loc 1 1636 6
 3813 005e 002B     		cmp	r3, #0
 3814 0060 06D1     		bne	.L190
 3815              		.loc 1 1636 66 discriminator 1
 3816 0062 7B68     		ldr	r3, [r7, #4]
 3817 0064 1B68     		ldr	r3, [r3]
 3818 0066 5B68     		ldr	r3, [r3, #4]
 3819 0068 03F00103 		and	r3, r3, #1
 3820              		.loc 1 1636 62 discriminator 1
 3821 006c 002B     		cmp	r3, #0
 3822 006e 44D0     		beq	.L191
 3823              	.L190:
1637:./Libraries/STM32F4xx_HAL_Driver/Src/stm32f4xx_hal_spi.c ****   {
1638:./Libraries/STM32F4xx_HAL_Driver/Src/stm32f4xx_hal_spi.c ****     /* Abort the SPI DMA Tx channel : use blocking DMA Abort API (no callback) */  
1639:./Libraries/STM32F4xx_HAL_Driver/Src/stm32f4xx_hal_spi.c ****     if(hspi->hdmatx != NULL)
 3824              		.loc 1 1639 12
 3825 0070 7B68     		ldr	r3, [r7, #4]
 3826 0072 9B6C     		ldr	r3, [r3, #72]
 3827              		.loc 1 1639 7
 3828 0074 002B     		cmp	r3, #0
 3829 0076 23D0     		beq	.L192
1640:./Libraries/STM32F4xx_HAL_Driver/Src/stm32f4xx_hal_spi.c ****     {
1641:./Libraries/STM32F4xx_HAL_Driver/Src/stm32f4xx_hal_spi.c ****       /* Set the SPI DMA Abort callback :
1642:./Libraries/STM32F4xx_HAL_Driver/Src/stm32f4xx_hal_spi.c ****       will lead to call HAL_SPI_AbortCpltCallback() at end of DMA abort procedure */
1643:./Libraries/STM32F4xx_HAL_Driver/Src/stm32f4xx_hal_spi.c ****       hspi->hdmatx->XferAbortCallback = NULL;
 3830              		.loc 1 1643 11
 3831 0078 7B68     		ldr	r3, [r7, #4]
 3832 007a 9B6C     		ldr	r3, [r3, #72]
 3833              		.loc 1 1643 39
 3834 007c 0022     		movs	r2, #0
 3835 007e 1A65     		str	r2, [r3, #80]
1644:./Libraries/STM32F4xx_HAL_Driver/Src/stm32f4xx_hal_spi.c ****       
1645:./Libraries/STM32F4xx_HAL_Driver/Src/stm32f4xx_hal_spi.c ****       /* Abort DMA Tx Handle linked to SPI Peripheral */
1646:./Libraries/STM32F4xx_HAL_Driver/Src/stm32f4xx_hal_spi.c ****       HAL_DMA_Abort(hspi->hdmatx);
 3836              		.loc 1 1646 7
 3837 0080 7B68     		ldr	r3, [r7, #4]
ARM GAS  /tmp/ccits0mR.s 			page 97


 3838 0082 9B6C     		ldr	r3, [r3, #72]
 3839 0084 1846     		mov	r0, r3
 3840 0086 FFF7FEFF 		bl	HAL_DMA_Abort
1647:./Libraries/STM32F4xx_HAL_Driver/Src/stm32f4xx_hal_spi.c **** 
1648:./Libraries/STM32F4xx_HAL_Driver/Src/stm32f4xx_hal_spi.c ****       /* Disable Tx DMA Request */
1649:./Libraries/STM32F4xx_HAL_Driver/Src/stm32f4xx_hal_spi.c ****       CLEAR_BIT(hspi->Instance->CR2, (SPI_CR2_TXDMAEN));
 3841              		.loc 1 1649 7
 3842 008a 7B68     		ldr	r3, [r7, #4]
 3843 008c 1B68     		ldr	r3, [r3]
 3844 008e 5A68     		ldr	r2, [r3, #4]
 3845 0090 7B68     		ldr	r3, [r7, #4]
 3846 0092 1B68     		ldr	r3, [r3]
 3847 0094 22F00202 		bic	r2, r2, #2
 3848 0098 5A60     		str	r2, [r3, #4]
 3849              	.L194:
1650:./Libraries/STM32F4xx_HAL_Driver/Src/stm32f4xx_hal_spi.c **** 
1651:./Libraries/STM32F4xx_HAL_Driver/Src/stm32f4xx_hal_spi.c ****       /* Wait until TXE flag is set */
1652:./Libraries/STM32F4xx_HAL_Driver/Src/stm32f4xx_hal_spi.c ****       do
1653:./Libraries/STM32F4xx_HAL_Driver/Src/stm32f4xx_hal_spi.c ****       {
1654:./Libraries/STM32F4xx_HAL_Driver/Src/stm32f4xx_hal_spi.c ****         if(count-- == 0U)
 3850              		.loc 1 1654 17
 3851 009a 7B69     		ldr	r3, [r7, #20]
 3852 009c 5A1E     		subs	r2, r3, #1
 3853 009e 7A61     		str	r2, [r7, #20]
 3854              		.loc 1 1654 11
 3855 00a0 002B     		cmp	r3, #0
 3856 00a2 06D1     		bne	.L193
1655:./Libraries/STM32F4xx_HAL_Driver/Src/stm32f4xx_hal_spi.c ****         {
1656:./Libraries/STM32F4xx_HAL_Driver/Src/stm32f4xx_hal_spi.c ****           SET_BIT(hspi->ErrorCode, HAL_SPI_ERROR_FLAG);
 3857              		.loc 1 1656 11
 3858 00a4 7B68     		ldr	r3, [r7, #4]
 3859 00a6 5B6D     		ldr	r3, [r3, #84]
 3860 00a8 43F02002 		orr	r2, r3, #32
 3861 00ac 7B68     		ldr	r3, [r7, #4]
 3862 00ae 5A65     		str	r2, [r3, #84]
1657:./Libraries/STM32F4xx_HAL_Driver/Src/stm32f4xx_hal_spi.c ****           break;
 3863              		.loc 1 1657 11
 3864 00b0 06E0     		b	.L192
 3865              	.L193:
1658:./Libraries/STM32F4xx_HAL_Driver/Src/stm32f4xx_hal_spi.c ****         }
1659:./Libraries/STM32F4xx_HAL_Driver/Src/stm32f4xx_hal_spi.c ****       }
1660:./Libraries/STM32F4xx_HAL_Driver/Src/stm32f4xx_hal_spi.c ****       while((hspi->Instance->SR & SPI_FLAG_TXE) == RESET);       
 3866              		.loc 1 1660 18
 3867 00b2 7B68     		ldr	r3, [r7, #4]
 3868 00b4 1B68     		ldr	r3, [r3]
 3869              		.loc 1 1660 28
 3870 00b6 9B68     		ldr	r3, [r3, #8]
 3871              		.loc 1 1660 33
 3872 00b8 03F00203 		and	r3, r3, #2
 3873              		.loc 1 1660 7
 3874 00bc 002B     		cmp	r3, #0
 3875 00be ECD0     		beq	.L194
 3876              	.L192:
1661:./Libraries/STM32F4xx_HAL_Driver/Src/stm32f4xx_hal_spi.c ****     }
1662:./Libraries/STM32F4xx_HAL_Driver/Src/stm32f4xx_hal_spi.c ****     /* Abort the SPI DMA Rx channel : use blocking DMA Abort API (no callback) */
1663:./Libraries/STM32F4xx_HAL_Driver/Src/stm32f4xx_hal_spi.c ****     if(hspi->hdmarx != NULL)
 3877              		.loc 1 1663 12
ARM GAS  /tmp/ccits0mR.s 			page 98


 3878 00c0 7B68     		ldr	r3, [r7, #4]
 3879 00c2 DB6C     		ldr	r3, [r3, #76]
 3880              		.loc 1 1663 7
 3881 00c4 002B     		cmp	r3, #0
 3882 00c6 18D0     		beq	.L191
1664:./Libraries/STM32F4xx_HAL_Driver/Src/stm32f4xx_hal_spi.c ****     {
1665:./Libraries/STM32F4xx_HAL_Driver/Src/stm32f4xx_hal_spi.c ****       /* Set the SPI DMA Abort callback :
1666:./Libraries/STM32F4xx_HAL_Driver/Src/stm32f4xx_hal_spi.c ****       will lead to call HAL_SPI_AbortCpltCallback() at end of DMA abort procedure */
1667:./Libraries/STM32F4xx_HAL_Driver/Src/stm32f4xx_hal_spi.c ****       hspi->hdmarx->XferAbortCallback = NULL;
 3883              		.loc 1 1667 11
 3884 00c8 7B68     		ldr	r3, [r7, #4]
 3885 00ca DB6C     		ldr	r3, [r3, #76]
 3886              		.loc 1 1667 39
 3887 00cc 0022     		movs	r2, #0
 3888 00ce 1A65     		str	r2, [r3, #80]
1668:./Libraries/STM32F4xx_HAL_Driver/Src/stm32f4xx_hal_spi.c ****       
1669:./Libraries/STM32F4xx_HAL_Driver/Src/stm32f4xx_hal_spi.c ****       /* Abort DMA Rx Handle linked to SPI Peripheral */
1670:./Libraries/STM32F4xx_HAL_Driver/Src/stm32f4xx_hal_spi.c ****       HAL_DMA_Abort(hspi->hdmarx);
 3889              		.loc 1 1670 7
 3890 00d0 7B68     		ldr	r3, [r7, #4]
 3891 00d2 DB6C     		ldr	r3, [r3, #76]
 3892 00d4 1846     		mov	r0, r3
 3893 00d6 FFF7FEFF 		bl	HAL_DMA_Abort
1671:./Libraries/STM32F4xx_HAL_Driver/Src/stm32f4xx_hal_spi.c **** 
1672:./Libraries/STM32F4xx_HAL_Driver/Src/stm32f4xx_hal_spi.c ****       /* Disable peripheral */
1673:./Libraries/STM32F4xx_HAL_Driver/Src/stm32f4xx_hal_spi.c ****       __HAL_SPI_DISABLE(hspi); 
 3894              		.loc 1 1673 7
 3895 00da 7B68     		ldr	r3, [r7, #4]
 3896 00dc 1B68     		ldr	r3, [r3]
 3897 00de 1A68     		ldr	r2, [r3]
 3898 00e0 7B68     		ldr	r3, [r7, #4]
 3899 00e2 1B68     		ldr	r3, [r3]
 3900 00e4 22F04002 		bic	r2, r2, #64
 3901 00e8 1A60     		str	r2, [r3]
1674:./Libraries/STM32F4xx_HAL_Driver/Src/stm32f4xx_hal_spi.c **** 
1675:./Libraries/STM32F4xx_HAL_Driver/Src/stm32f4xx_hal_spi.c ****       /* Disable Rx DMA Request */
1676:./Libraries/STM32F4xx_HAL_Driver/Src/stm32f4xx_hal_spi.c ****       CLEAR_BIT(hspi->Instance->CR2, (SPI_CR2_RXDMAEN));
 3902              		.loc 1 1676 7
 3903 00ea 7B68     		ldr	r3, [r7, #4]
 3904 00ec 1B68     		ldr	r3, [r3]
 3905 00ee 5A68     		ldr	r2, [r3, #4]
 3906 00f0 7B68     		ldr	r3, [r7, #4]
 3907 00f2 1B68     		ldr	r3, [r3]
 3908 00f4 22F00102 		bic	r2, r2, #1
 3909 00f8 5A60     		str	r2, [r3, #4]
 3910              	.L191:
1677:./Libraries/STM32F4xx_HAL_Driver/Src/stm32f4xx_hal_spi.c ****       
1678:./Libraries/STM32F4xx_HAL_Driver/Src/stm32f4xx_hal_spi.c ****     }
1679:./Libraries/STM32F4xx_HAL_Driver/Src/stm32f4xx_hal_spi.c ****   }
1680:./Libraries/STM32F4xx_HAL_Driver/Src/stm32f4xx_hal_spi.c ****   /* Reset Tx and Rx transfer counters */
1681:./Libraries/STM32F4xx_HAL_Driver/Src/stm32f4xx_hal_spi.c ****   hspi->RxXferCount = 0U;
 3911              		.loc 1 1681 21
 3912 00fa 7B68     		ldr	r3, [r7, #4]
 3913 00fc 0022     		movs	r2, #0
 3914 00fe DA87     		strh	r2, [r3, #62]	@ movhi
1682:./Libraries/STM32F4xx_HAL_Driver/Src/stm32f4xx_hal_spi.c ****   hspi->TxXferCount = 0U;
 3915              		.loc 1 1682 21
ARM GAS  /tmp/ccits0mR.s 			page 99


 3916 0100 7B68     		ldr	r3, [r7, #4]
 3917 0102 0022     		movs	r2, #0
 3918 0104 DA86     		strh	r2, [r3, #54]	@ movhi
1683:./Libraries/STM32F4xx_HAL_Driver/Src/stm32f4xx_hal_spi.c **** 
1684:./Libraries/STM32F4xx_HAL_Driver/Src/stm32f4xx_hal_spi.c ****   /* Reset errorCode */
1685:./Libraries/STM32F4xx_HAL_Driver/Src/stm32f4xx_hal_spi.c ****   hspi->ErrorCode = HAL_SPI_ERROR_NONE;
 3919              		.loc 1 1685 19
 3920 0106 7B68     		ldr	r3, [r7, #4]
 3921 0108 0022     		movs	r2, #0
 3922 010a 5A65     		str	r2, [r3, #84]
 3923              	.LBB4:
1686:./Libraries/STM32F4xx_HAL_Driver/Src/stm32f4xx_hal_spi.c **** 
1687:./Libraries/STM32F4xx_HAL_Driver/Src/stm32f4xx_hal_spi.c ****   /* Clear the Error flags in the SR register */
1688:./Libraries/STM32F4xx_HAL_Driver/Src/stm32f4xx_hal_spi.c ****   __HAL_SPI_CLEAR_OVRFLAG(hspi);
 3924              		.loc 1 1688 3
 3925 010c 0023     		movs	r3, #0
 3926 010e 3B61     		str	r3, [r7, #16]
 3927 0110 7B68     		ldr	r3, [r7, #4]
 3928 0112 1B68     		ldr	r3, [r3]
 3929 0114 DB68     		ldr	r3, [r3, #12]
 3930 0116 3B61     		str	r3, [r7, #16]
 3931 0118 7B68     		ldr	r3, [r7, #4]
 3932 011a 1B68     		ldr	r3, [r3]
 3933 011c 9B68     		ldr	r3, [r3, #8]
 3934 011e 3B61     		str	r3, [r7, #16]
 3935 0120 3B69     		ldr	r3, [r7, #16]
 3936              	.LBE4:
 3937              	.LBB5:
1689:./Libraries/STM32F4xx_HAL_Driver/Src/stm32f4xx_hal_spi.c ****   __HAL_SPI_CLEAR_FREFLAG(hspi);
 3938              		.loc 1 1689 3
 3939 0122 0023     		movs	r3, #0
 3940 0124 FB60     		str	r3, [r7, #12]
 3941 0126 7B68     		ldr	r3, [r7, #4]
 3942 0128 1B68     		ldr	r3, [r3]
 3943 012a 9B68     		ldr	r3, [r3, #8]
 3944 012c FB60     		str	r3, [r7, #12]
 3945 012e FB68     		ldr	r3, [r7, #12]
 3946              	.LBE5:
1690:./Libraries/STM32F4xx_HAL_Driver/Src/stm32f4xx_hal_spi.c **** 
1691:./Libraries/STM32F4xx_HAL_Driver/Src/stm32f4xx_hal_spi.c ****   /* Restore hspi->state to ready */
1692:./Libraries/STM32F4xx_HAL_Driver/Src/stm32f4xx_hal_spi.c ****   hspi->State = HAL_SPI_STATE_READY;
 3947              		.loc 1 1692 15
 3948 0130 7B68     		ldr	r3, [r7, #4]
 3949 0132 0122     		movs	r2, #1
 3950 0134 83F85120 		strb	r2, [r3, #81]
1693:./Libraries/STM32F4xx_HAL_Driver/Src/stm32f4xx_hal_spi.c **** 
1694:./Libraries/STM32F4xx_HAL_Driver/Src/stm32f4xx_hal_spi.c ****   return HAL_OK;
 3951              		.loc 1 1694 10
 3952 0138 0023     		movs	r3, #0
1695:./Libraries/STM32F4xx_HAL_Driver/Src/stm32f4xx_hal_spi.c **** }
 3953              		.loc 1 1695 1
 3954 013a 1846     		mov	r0, r3
 3955 013c 1837     		adds	r7, r7, #24
 3956              	.LCFI72:
 3957              		.cfi_def_cfa_offset 8
 3958 013e BD46     		mov	sp, r7
 3959              	.LCFI73:
ARM GAS  /tmp/ccits0mR.s 			page 100


 3960              		.cfi_def_cfa_register 13
 3961              		@ sp needed
 3962 0140 80BD     		pop	{r7, pc}
 3963              	.L197:
 3964 0142 00BF     		.align	2
 3965              	.L196:
 3966 0144 00000000 		.word	SystemCoreClock
 3967 0148 F1197605 		.word	91625969
 3968 014c 00000000 		.word	SPI_AbortTx_ISR
 3969 0150 00000000 		.word	SPI_AbortRx_ISR
 3970              		.cfi_endproc
 3971              	.LFE139:
 3973              		.section	.text.HAL_SPI_Abort_IT,"ax",%progbits
 3974              		.align	1
 3975              		.global	HAL_SPI_Abort_IT
 3976              		.syntax unified
 3977              		.thumb
 3978              		.thumb_func
 3979              		.fpu fpv4-sp-d16
 3981              	HAL_SPI_Abort_IT:
 3982              	.LFB140:
1696:./Libraries/STM32F4xx_HAL_Driver/Src/stm32f4xx_hal_spi.c **** 
1697:./Libraries/STM32F4xx_HAL_Driver/Src/stm32f4xx_hal_spi.c **** /**
1698:./Libraries/STM32F4xx_HAL_Driver/Src/stm32f4xx_hal_spi.c ****   * @brief  Abort ongoing transfer (Interrupt mode).
1699:./Libraries/STM32F4xx_HAL_Driver/Src/stm32f4xx_hal_spi.c ****   * @param  hspi SPI handle.
1700:./Libraries/STM32F4xx_HAL_Driver/Src/stm32f4xx_hal_spi.c ****   * @note   This procedure could be used for aborting any ongoing transfer (Tx and Rx),
1701:./Libraries/STM32F4xx_HAL_Driver/Src/stm32f4xx_hal_spi.c ****   *         started in Interrupt or DMA mode.
1702:./Libraries/STM32F4xx_HAL_Driver/Src/stm32f4xx_hal_spi.c ****   *         This procedure performs following operations :
1703:./Libraries/STM32F4xx_HAL_Driver/Src/stm32f4xx_hal_spi.c ****   *           - Disable SPI Interrupts (depending of transfer direction)
1704:./Libraries/STM32F4xx_HAL_Driver/Src/stm32f4xx_hal_spi.c ****   *           - Disable the DMA transfer in the peripheral register (if enabled)
1705:./Libraries/STM32F4xx_HAL_Driver/Src/stm32f4xx_hal_spi.c ****   *           - Abort DMA transfer by calling HAL_DMA_Abort_IT (in case of transfer in DMA mode)
1706:./Libraries/STM32F4xx_HAL_Driver/Src/stm32f4xx_hal_spi.c ****   *           - Set handle State to READY
1707:./Libraries/STM32F4xx_HAL_Driver/Src/stm32f4xx_hal_spi.c ****   *           - At abort completion, call user abort complete callback
1708:./Libraries/STM32F4xx_HAL_Driver/Src/stm32f4xx_hal_spi.c ****   * @note   This procedure is executed in Interrupt mode, meaning that abort procedure could be
1709:./Libraries/STM32F4xx_HAL_Driver/Src/stm32f4xx_hal_spi.c ****   *         considered as completed only when user abort complete callback is executed (not when ex
1710:./Libraries/STM32F4xx_HAL_Driver/Src/stm32f4xx_hal_spi.c ****   * @note   Once transfer is aborted, the __HAL_SPI_CLEAR_OVRFLAG() macro must be called in user ap
1711:./Libraries/STM32F4xx_HAL_Driver/Src/stm32f4xx_hal_spi.c ****   *         before starting new SPI receive process.
1712:./Libraries/STM32F4xx_HAL_Driver/Src/stm32f4xx_hal_spi.c ****   * @retval HAL status
1713:./Libraries/STM32F4xx_HAL_Driver/Src/stm32f4xx_hal_spi.c **** */
1714:./Libraries/STM32F4xx_HAL_Driver/Src/stm32f4xx_hal_spi.c **** HAL_StatusTypeDef HAL_SPI_Abort_IT(SPI_HandleTypeDef *hspi)
1715:./Libraries/STM32F4xx_HAL_Driver/Src/stm32f4xx_hal_spi.c **** {
 3983              		.loc 1 1715 1
 3984              		.cfi_startproc
 3985              		@ args = 0, pretend = 0, frame = 24
 3986              		@ frame_needed = 1, uses_anonymous_args = 0
 3987 0000 80B5     		push	{r7, lr}
 3988              	.LCFI74:
 3989              		.cfi_def_cfa_offset 8
 3990              		.cfi_offset 7, -8
 3991              		.cfi_offset 14, -4
 3992 0002 86B0     		sub	sp, sp, #24
 3993              	.LCFI75:
 3994              		.cfi_def_cfa_offset 32
 3995 0004 00AF     		add	r7, sp, #0
 3996              	.LCFI76:
 3997              		.cfi_def_cfa_register 7
 3998 0006 7860     		str	r0, [r7, #4]
ARM GAS  /tmp/ccits0mR.s 			page 101


1716:./Libraries/STM32F4xx_HAL_Driver/Src/stm32f4xx_hal_spi.c ****   uint32_t abortcplt;
1717:./Libraries/STM32F4xx_HAL_Driver/Src/stm32f4xx_hal_spi.c **** 
1718:./Libraries/STM32F4xx_HAL_Driver/Src/stm32f4xx_hal_spi.c ****   /* Change Rx and Tx Irq Handler to Disable TXEIE, RXNEIE and ERRIE interrupts */
1719:./Libraries/STM32F4xx_HAL_Driver/Src/stm32f4xx_hal_spi.c ****   if(HAL_IS_BIT_SET(hspi->Instance->CR2, SPI_CR2_TXEIE))
 3999              		.loc 1 1719 6
 4000 0008 7B68     		ldr	r3, [r7, #4]
 4001 000a 1B68     		ldr	r3, [r3]
 4002 000c 5B68     		ldr	r3, [r3, #4]
 4003 000e 03F08003 		and	r3, r3, #128
 4004              		.loc 1 1719 5
 4005 0012 002B     		cmp	r3, #0
 4006 0014 02D0     		beq	.L199
1720:./Libraries/STM32F4xx_HAL_Driver/Src/stm32f4xx_hal_spi.c ****   {
1721:./Libraries/STM32F4xx_HAL_Driver/Src/stm32f4xx_hal_spi.c ****     hspi->TxISR = SPI_AbortTx_ISR;
 4007              		.loc 1 1721 17
 4008 0016 7B68     		ldr	r3, [r7, #4]
 4009 0018 684A     		ldr	r2, .L215
 4010 001a 5A64     		str	r2, [r3, #68]
 4011              	.L199:
1722:./Libraries/STM32F4xx_HAL_Driver/Src/stm32f4xx_hal_spi.c ****   }
1723:./Libraries/STM32F4xx_HAL_Driver/Src/stm32f4xx_hal_spi.c **** 
1724:./Libraries/STM32F4xx_HAL_Driver/Src/stm32f4xx_hal_spi.c ****   if(HAL_IS_BIT_SET(hspi->Instance->CR2, SPI_CR2_RXNEIE))
 4012              		.loc 1 1724 6
 4013 001c 7B68     		ldr	r3, [r7, #4]
 4014 001e 1B68     		ldr	r3, [r3]
 4015 0020 5B68     		ldr	r3, [r3, #4]
 4016 0022 03F04003 		and	r3, r3, #64
 4017              		.loc 1 1724 5
 4018 0026 002B     		cmp	r3, #0
 4019 0028 02D0     		beq	.L200
1725:./Libraries/STM32F4xx_HAL_Driver/Src/stm32f4xx_hal_spi.c ****   {
1726:./Libraries/STM32F4xx_HAL_Driver/Src/stm32f4xx_hal_spi.c ****     hspi->RxISR = SPI_AbortRx_ISR;
 4020              		.loc 1 1726 17
 4021 002a 7B68     		ldr	r3, [r7, #4]
 4022 002c 644A     		ldr	r2, .L215+4
 4023 002e 1A64     		str	r2, [r3, #64]
 4024              	.L200:
1727:./Libraries/STM32F4xx_HAL_Driver/Src/stm32f4xx_hal_spi.c ****   }
1728:./Libraries/STM32F4xx_HAL_Driver/Src/stm32f4xx_hal_spi.c **** 
1729:./Libraries/STM32F4xx_HAL_Driver/Src/stm32f4xx_hal_spi.c ****   /* Clear ERRIE interrupts in case of DMA Mode */
1730:./Libraries/STM32F4xx_HAL_Driver/Src/stm32f4xx_hal_spi.c ****   CLEAR_BIT(hspi->Instance->CR2, SPI_CR2_ERRIE);
 4025              		.loc 1 1730 3
 4026 0030 7B68     		ldr	r3, [r7, #4]
 4027 0032 1B68     		ldr	r3, [r3]
 4028 0034 5A68     		ldr	r2, [r3, #4]
 4029 0036 7B68     		ldr	r3, [r7, #4]
 4030 0038 1B68     		ldr	r3, [r3]
 4031 003a 22F02002 		bic	r2, r2, #32
 4032 003e 5A60     		str	r2, [r3, #4]
1731:./Libraries/STM32F4xx_HAL_Driver/Src/stm32f4xx_hal_spi.c **** 
1732:./Libraries/STM32F4xx_HAL_Driver/Src/stm32f4xx_hal_spi.c ****   abortcplt = 1U;
 4033              		.loc 1 1732 13
 4034 0040 0123     		movs	r3, #1
 4035 0042 7B61     		str	r3, [r7, #20]
1733:./Libraries/STM32F4xx_HAL_Driver/Src/stm32f4xx_hal_spi.c ****   
1734:./Libraries/STM32F4xx_HAL_Driver/Src/stm32f4xx_hal_spi.c ****   /* If DMA Tx and/or DMA Rx Handles are associated to SPI Handle, DMA Abort complete callbacks sho
1735:./Libraries/STM32F4xx_HAL_Driver/Src/stm32f4xx_hal_spi.c ****      before any call to DMA Abort functions */  
ARM GAS  /tmp/ccits0mR.s 			page 102


1736:./Libraries/STM32F4xx_HAL_Driver/Src/stm32f4xx_hal_spi.c ****   /* DMA Tx Handle is valid */
1737:./Libraries/STM32F4xx_HAL_Driver/Src/stm32f4xx_hal_spi.c ****   if(hspi->hdmatx != NULL)
 4036              		.loc 1 1737 10
 4037 0044 7B68     		ldr	r3, [r7, #4]
 4038 0046 9B6C     		ldr	r3, [r3, #72]
 4039              		.loc 1 1737 5
 4040 0048 002B     		cmp	r3, #0
 4041 004a 0FD0     		beq	.L201
1738:./Libraries/STM32F4xx_HAL_Driver/Src/stm32f4xx_hal_spi.c ****   {
1739:./Libraries/STM32F4xx_HAL_Driver/Src/stm32f4xx_hal_spi.c ****     /* Set DMA Abort Complete callback if UART DMA Tx request if enabled.
1740:./Libraries/STM32F4xx_HAL_Driver/Src/stm32f4xx_hal_spi.c ****        Otherwise, set it to NULL */
1741:./Libraries/STM32F4xx_HAL_Driver/Src/stm32f4xx_hal_spi.c ****     if(HAL_IS_BIT_SET(hspi->Instance->CR2, SPI_CR2_TXDMAEN))
 4042              		.loc 1 1741 8
 4043 004c 7B68     		ldr	r3, [r7, #4]
 4044 004e 1B68     		ldr	r3, [r3]
 4045 0050 5B68     		ldr	r3, [r3, #4]
 4046 0052 03F00203 		and	r3, r3, #2
 4047              		.loc 1 1741 7
 4048 0056 002B     		cmp	r3, #0
 4049 0058 04D0     		beq	.L202
1742:./Libraries/STM32F4xx_HAL_Driver/Src/stm32f4xx_hal_spi.c ****     {
1743:./Libraries/STM32F4xx_HAL_Driver/Src/stm32f4xx_hal_spi.c ****       hspi->hdmatx->XferAbortCallback = SPI_DMATxAbortCallback;
 4050              		.loc 1 1743 11
 4051 005a 7B68     		ldr	r3, [r7, #4]
 4052 005c 9B6C     		ldr	r3, [r3, #72]
 4053              		.loc 1 1743 39
 4054 005e 594A     		ldr	r2, .L215+8
 4055 0060 1A65     		str	r2, [r3, #80]
 4056 0062 03E0     		b	.L201
 4057              	.L202:
1744:./Libraries/STM32F4xx_HAL_Driver/Src/stm32f4xx_hal_spi.c ****     }
1745:./Libraries/STM32F4xx_HAL_Driver/Src/stm32f4xx_hal_spi.c ****     else
1746:./Libraries/STM32F4xx_HAL_Driver/Src/stm32f4xx_hal_spi.c ****     {
1747:./Libraries/STM32F4xx_HAL_Driver/Src/stm32f4xx_hal_spi.c ****       hspi->hdmatx->XferAbortCallback = NULL;
 4058              		.loc 1 1747 11
 4059 0064 7B68     		ldr	r3, [r7, #4]
 4060 0066 9B6C     		ldr	r3, [r3, #72]
 4061              		.loc 1 1747 39
 4062 0068 0022     		movs	r2, #0
 4063 006a 1A65     		str	r2, [r3, #80]
 4064              	.L201:
1748:./Libraries/STM32F4xx_HAL_Driver/Src/stm32f4xx_hal_spi.c ****     }
1749:./Libraries/STM32F4xx_HAL_Driver/Src/stm32f4xx_hal_spi.c ****   }  
1750:./Libraries/STM32F4xx_HAL_Driver/Src/stm32f4xx_hal_spi.c ****   /* DMA Rx Handle is valid */
1751:./Libraries/STM32F4xx_HAL_Driver/Src/stm32f4xx_hal_spi.c ****   if(hspi->hdmarx != NULL)
 4065              		.loc 1 1751 10
 4066 006c 7B68     		ldr	r3, [r7, #4]
 4067 006e DB6C     		ldr	r3, [r3, #76]
 4068              		.loc 1 1751 5
 4069 0070 002B     		cmp	r3, #0
 4070 0072 0FD0     		beq	.L203
1752:./Libraries/STM32F4xx_HAL_Driver/Src/stm32f4xx_hal_spi.c ****   {
1753:./Libraries/STM32F4xx_HAL_Driver/Src/stm32f4xx_hal_spi.c ****     /* Set DMA Abort Complete callback if UART DMA Rx request if enabled.
1754:./Libraries/STM32F4xx_HAL_Driver/Src/stm32f4xx_hal_spi.c ****        Otherwise, set it to NULL */
1755:./Libraries/STM32F4xx_HAL_Driver/Src/stm32f4xx_hal_spi.c ****     if(HAL_IS_BIT_SET(hspi->Instance->CR2, SPI_CR2_RXDMAEN))
 4071              		.loc 1 1755 8
 4072 0074 7B68     		ldr	r3, [r7, #4]
ARM GAS  /tmp/ccits0mR.s 			page 103


 4073 0076 1B68     		ldr	r3, [r3]
 4074 0078 5B68     		ldr	r3, [r3, #4]
 4075 007a 03F00103 		and	r3, r3, #1
 4076              		.loc 1 1755 7
 4077 007e 002B     		cmp	r3, #0
 4078 0080 04D0     		beq	.L204
1756:./Libraries/STM32F4xx_HAL_Driver/Src/stm32f4xx_hal_spi.c ****     {
1757:./Libraries/STM32F4xx_HAL_Driver/Src/stm32f4xx_hal_spi.c ****       hspi->hdmarx->XferAbortCallback = SPI_DMARxAbortCallback;
 4079              		.loc 1 1757 11
 4080 0082 7B68     		ldr	r3, [r7, #4]
 4081 0084 DB6C     		ldr	r3, [r3, #76]
 4082              		.loc 1 1757 39
 4083 0086 504A     		ldr	r2, .L215+12
 4084 0088 1A65     		str	r2, [r3, #80]
 4085 008a 03E0     		b	.L203
 4086              	.L204:
1758:./Libraries/STM32F4xx_HAL_Driver/Src/stm32f4xx_hal_spi.c ****     }
1759:./Libraries/STM32F4xx_HAL_Driver/Src/stm32f4xx_hal_spi.c ****     else
1760:./Libraries/STM32F4xx_HAL_Driver/Src/stm32f4xx_hal_spi.c ****     {
1761:./Libraries/STM32F4xx_HAL_Driver/Src/stm32f4xx_hal_spi.c ****       hspi->hdmarx->XferAbortCallback = NULL;
 4087              		.loc 1 1761 11
 4088 008c 7B68     		ldr	r3, [r7, #4]
 4089 008e DB6C     		ldr	r3, [r3, #76]
 4090              		.loc 1 1761 39
 4091 0090 0022     		movs	r2, #0
 4092 0092 1A65     		str	r2, [r3, #80]
 4093              	.L203:
1762:./Libraries/STM32F4xx_HAL_Driver/Src/stm32f4xx_hal_spi.c ****     }
1763:./Libraries/STM32F4xx_HAL_Driver/Src/stm32f4xx_hal_spi.c ****   }
1764:./Libraries/STM32F4xx_HAL_Driver/Src/stm32f4xx_hal_spi.c **** 
1765:./Libraries/STM32F4xx_HAL_Driver/Src/stm32f4xx_hal_spi.c ****   /* Disable the SPI DMA Tx or the SPI Rx request if enabled */
1766:./Libraries/STM32F4xx_HAL_Driver/Src/stm32f4xx_hal_spi.c ****   if((HAL_IS_BIT_SET(hspi->Instance->CR2, SPI_CR2_TXDMAEN)) && (HAL_IS_BIT_SET(hspi->Instance->CR2,
 4094              		.loc 1 1766 7
 4095 0094 7B68     		ldr	r3, [r7, #4]
 4096 0096 1B68     		ldr	r3, [r3]
 4097 0098 5B68     		ldr	r3, [r3, #4]
 4098 009a 03F00203 		and	r3, r3, #2
 4099              		.loc 1 1766 5
 4100 009e 002B     		cmp	r3, #0
 4101 00a0 2ED0     		beq	.L205
 4102              		.loc 1 1766 65 discriminator 1
 4103 00a2 7B68     		ldr	r3, [r7, #4]
 4104 00a4 1B68     		ldr	r3, [r3]
 4105 00a6 5B68     		ldr	r3, [r3, #4]
 4106 00a8 03F00103 		and	r3, r3, #1
 4107              		.loc 1 1766 61 discriminator 1
 4108 00ac 002B     		cmp	r3, #0
 4109 00ae 27D0     		beq	.L205
1767:./Libraries/STM32F4xx_HAL_Driver/Src/stm32f4xx_hal_spi.c ****   {
1768:./Libraries/STM32F4xx_HAL_Driver/Src/stm32f4xx_hal_spi.c ****     /* Abort the SPI DMA Tx channel */
1769:./Libraries/STM32F4xx_HAL_Driver/Src/stm32f4xx_hal_spi.c ****     if(hspi->hdmatx != NULL)
 4110              		.loc 1 1769 12
 4111 00b0 7B68     		ldr	r3, [r7, #4]
 4112 00b2 9B6C     		ldr	r3, [r3, #72]
 4113              		.loc 1 1769 7
 4114 00b4 002B     		cmp	r3, #0
 4115 00b6 0ED0     		beq	.L206
ARM GAS  /tmp/ccits0mR.s 			page 104


1770:./Libraries/STM32F4xx_HAL_Driver/Src/stm32f4xx_hal_spi.c ****     {
1771:./Libraries/STM32F4xx_HAL_Driver/Src/stm32f4xx_hal_spi.c ****       /* Abort DMA Tx Handle linked to SPI Peripheral */
1772:./Libraries/STM32F4xx_HAL_Driver/Src/stm32f4xx_hal_spi.c ****       if(HAL_DMA_Abort_IT(hspi->hdmatx) != HAL_OK)
 4116              		.loc 1 1772 10
 4117 00b8 7B68     		ldr	r3, [r7, #4]
 4118 00ba 9B6C     		ldr	r3, [r3, #72]
 4119 00bc 1846     		mov	r0, r3
 4120 00be FFF7FEFF 		bl	HAL_DMA_Abort_IT
 4121 00c2 0346     		mov	r3, r0
 4122              		.loc 1 1772 9
 4123 00c4 002B     		cmp	r3, #0
 4124 00c6 04D0     		beq	.L207
1773:./Libraries/STM32F4xx_HAL_Driver/Src/stm32f4xx_hal_spi.c ****       {
1774:./Libraries/STM32F4xx_HAL_Driver/Src/stm32f4xx_hal_spi.c ****         hspi->hdmatx->XferAbortCallback = NULL;
 4125              		.loc 1 1774 13
 4126 00c8 7B68     		ldr	r3, [r7, #4]
 4127 00ca 9B6C     		ldr	r3, [r3, #72]
 4128              		.loc 1 1774 41
 4129 00cc 0022     		movs	r2, #0
 4130 00ce 1A65     		str	r2, [r3, #80]
 4131 00d0 01E0     		b	.L206
 4132              	.L207:
1775:./Libraries/STM32F4xx_HAL_Driver/Src/stm32f4xx_hal_spi.c ****       }
1776:./Libraries/STM32F4xx_HAL_Driver/Src/stm32f4xx_hal_spi.c ****       else
1777:./Libraries/STM32F4xx_HAL_Driver/Src/stm32f4xx_hal_spi.c ****       {
1778:./Libraries/STM32F4xx_HAL_Driver/Src/stm32f4xx_hal_spi.c ****         abortcplt = 0U;
 4133              		.loc 1 1778 19
 4134 00d2 0023     		movs	r3, #0
 4135 00d4 7B61     		str	r3, [r7, #20]
 4136              	.L206:
1779:./Libraries/STM32F4xx_HAL_Driver/Src/stm32f4xx_hal_spi.c ****       }
1780:./Libraries/STM32F4xx_HAL_Driver/Src/stm32f4xx_hal_spi.c ****     }
1781:./Libraries/STM32F4xx_HAL_Driver/Src/stm32f4xx_hal_spi.c ****     /* Abort the SPI DMA Rx channel */
1782:./Libraries/STM32F4xx_HAL_Driver/Src/stm32f4xx_hal_spi.c ****     if(hspi->hdmarx != NULL)
 4137              		.loc 1 1782 12
 4138 00d6 7B68     		ldr	r3, [r7, #4]
 4139 00d8 DB6C     		ldr	r3, [r3, #76]
 4140              		.loc 1 1782 7
 4141 00da 002B     		cmp	r3, #0
 4142 00dc 10D0     		beq	.L205
1783:./Libraries/STM32F4xx_HAL_Driver/Src/stm32f4xx_hal_spi.c ****     {
1784:./Libraries/STM32F4xx_HAL_Driver/Src/stm32f4xx_hal_spi.c ****       /* Abort DMA Rx Handle linked to SPI Peripheral */
1785:./Libraries/STM32F4xx_HAL_Driver/Src/stm32f4xx_hal_spi.c ****       if(HAL_DMA_Abort_IT(hspi->hdmarx)!=  HAL_OK)
 4143              		.loc 1 1785 10
 4144 00de 7B68     		ldr	r3, [r7, #4]
 4145 00e0 DB6C     		ldr	r3, [r3, #76]
 4146 00e2 1846     		mov	r0, r3
 4147 00e4 FFF7FEFF 		bl	HAL_DMA_Abort_IT
 4148 00e8 0346     		mov	r3, r0
 4149              		.loc 1 1785 9
 4150 00ea 002B     		cmp	r3, #0
 4151 00ec 06D0     		beq	.L208
1786:./Libraries/STM32F4xx_HAL_Driver/Src/stm32f4xx_hal_spi.c ****       {
1787:./Libraries/STM32F4xx_HAL_Driver/Src/stm32f4xx_hal_spi.c ****         hspi->hdmarx->XferAbortCallback = NULL;
 4152              		.loc 1 1787 13
 4153 00ee 7B68     		ldr	r3, [r7, #4]
 4154 00f0 DB6C     		ldr	r3, [r3, #76]
ARM GAS  /tmp/ccits0mR.s 			page 105


 4155              		.loc 1 1787 41
 4156 00f2 0022     		movs	r2, #0
 4157 00f4 1A65     		str	r2, [r3, #80]
1788:./Libraries/STM32F4xx_HAL_Driver/Src/stm32f4xx_hal_spi.c ****         abortcplt = 1U;
 4158              		.loc 1 1788 19
 4159 00f6 0123     		movs	r3, #1
 4160 00f8 7B61     		str	r3, [r7, #20]
 4161 00fa 01E0     		b	.L205
 4162              	.L208:
1789:./Libraries/STM32F4xx_HAL_Driver/Src/stm32f4xx_hal_spi.c ****       }
1790:./Libraries/STM32F4xx_HAL_Driver/Src/stm32f4xx_hal_spi.c ****       else
1791:./Libraries/STM32F4xx_HAL_Driver/Src/stm32f4xx_hal_spi.c ****       {
1792:./Libraries/STM32F4xx_HAL_Driver/Src/stm32f4xx_hal_spi.c ****         abortcplt = 0U;
 4163              		.loc 1 1792 19
 4164 00fc 0023     		movs	r3, #0
 4165 00fe 7B61     		str	r3, [r7, #20]
 4166              	.L205:
1793:./Libraries/STM32F4xx_HAL_Driver/Src/stm32f4xx_hal_spi.c ****       }
1794:./Libraries/STM32F4xx_HAL_Driver/Src/stm32f4xx_hal_spi.c ****     }
1795:./Libraries/STM32F4xx_HAL_Driver/Src/stm32f4xx_hal_spi.c ****   }
1796:./Libraries/STM32F4xx_HAL_Driver/Src/stm32f4xx_hal_spi.c **** 
1797:./Libraries/STM32F4xx_HAL_Driver/Src/stm32f4xx_hal_spi.c ****   /* Disable the SPI DMA Tx or the SPI Rx request if enabled */
1798:./Libraries/STM32F4xx_HAL_Driver/Src/stm32f4xx_hal_spi.c ****   if (HAL_IS_BIT_SET(hspi->Instance->CR2, SPI_CR2_TXDMAEN))
 4167              		.loc 1 1798 7
 4168 0100 7B68     		ldr	r3, [r7, #4]
 4169 0102 1B68     		ldr	r3, [r3]
 4170 0104 5B68     		ldr	r3, [r3, #4]
 4171 0106 03F00203 		and	r3, r3, #2
 4172              		.loc 1 1798 6
 4173 010a 002B     		cmp	r3, #0
 4174 010c 12D0     		beq	.L209
1799:./Libraries/STM32F4xx_HAL_Driver/Src/stm32f4xx_hal_spi.c ****   {
1800:./Libraries/STM32F4xx_HAL_Driver/Src/stm32f4xx_hal_spi.c ****     /* Abort the SPI DMA Tx channel */
1801:./Libraries/STM32F4xx_HAL_Driver/Src/stm32f4xx_hal_spi.c ****     if(hspi->hdmatx != NULL)
 4175              		.loc 1 1801 12
 4176 010e 7B68     		ldr	r3, [r7, #4]
 4177 0110 9B6C     		ldr	r3, [r3, #72]
 4178              		.loc 1 1801 7
 4179 0112 002B     		cmp	r3, #0
 4180 0114 0ED0     		beq	.L209
1802:./Libraries/STM32F4xx_HAL_Driver/Src/stm32f4xx_hal_spi.c ****     {
1803:./Libraries/STM32F4xx_HAL_Driver/Src/stm32f4xx_hal_spi.c ****       /* Abort DMA Tx Handle linked to SPI Peripheral */
1804:./Libraries/STM32F4xx_HAL_Driver/Src/stm32f4xx_hal_spi.c ****       if(HAL_DMA_Abort_IT(hspi->hdmatx) != HAL_OK)
 4181              		.loc 1 1804 10
 4182 0116 7B68     		ldr	r3, [r7, #4]
 4183 0118 9B6C     		ldr	r3, [r3, #72]
 4184 011a 1846     		mov	r0, r3
 4185 011c FFF7FEFF 		bl	HAL_DMA_Abort_IT
 4186 0120 0346     		mov	r3, r0
 4187              		.loc 1 1804 9
 4188 0122 002B     		cmp	r3, #0
 4189 0124 04D0     		beq	.L210
1805:./Libraries/STM32F4xx_HAL_Driver/Src/stm32f4xx_hal_spi.c ****       {
1806:./Libraries/STM32F4xx_HAL_Driver/Src/stm32f4xx_hal_spi.c ****         hspi->hdmatx->XferAbortCallback = NULL;
 4190              		.loc 1 1806 13
 4191 0126 7B68     		ldr	r3, [r7, #4]
 4192 0128 9B6C     		ldr	r3, [r3, #72]
ARM GAS  /tmp/ccits0mR.s 			page 106


 4193              		.loc 1 1806 41
 4194 012a 0022     		movs	r2, #0
 4195 012c 1A65     		str	r2, [r3, #80]
 4196 012e 01E0     		b	.L209
 4197              	.L210:
1807:./Libraries/STM32F4xx_HAL_Driver/Src/stm32f4xx_hal_spi.c ****       }
1808:./Libraries/STM32F4xx_HAL_Driver/Src/stm32f4xx_hal_spi.c ****       else
1809:./Libraries/STM32F4xx_HAL_Driver/Src/stm32f4xx_hal_spi.c ****       {
1810:./Libraries/STM32F4xx_HAL_Driver/Src/stm32f4xx_hal_spi.c ****         abortcplt = 0U;
 4198              		.loc 1 1810 19
 4199 0130 0023     		movs	r3, #0
 4200 0132 7B61     		str	r3, [r7, #20]
 4201              	.L209:
1811:./Libraries/STM32F4xx_HAL_Driver/Src/stm32f4xx_hal_spi.c ****       }
1812:./Libraries/STM32F4xx_HAL_Driver/Src/stm32f4xx_hal_spi.c ****     }
1813:./Libraries/STM32F4xx_HAL_Driver/Src/stm32f4xx_hal_spi.c ****   }
1814:./Libraries/STM32F4xx_HAL_Driver/Src/stm32f4xx_hal_spi.c ****   /* Disable the SPI DMA Tx or the SPI Rx request if enabled */
1815:./Libraries/STM32F4xx_HAL_Driver/Src/stm32f4xx_hal_spi.c ****   if (HAL_IS_BIT_SET(hspi->Instance->CR2, SPI_CR2_RXDMAEN))
 4202              		.loc 1 1815 7
 4203 0134 7B68     		ldr	r3, [r7, #4]
 4204 0136 1B68     		ldr	r3, [r3]
 4205 0138 5B68     		ldr	r3, [r3, #4]
 4206 013a 03F00103 		and	r3, r3, #1
 4207              		.loc 1 1815 6
 4208 013e 002B     		cmp	r3, #0
 4209 0140 12D0     		beq	.L211
1816:./Libraries/STM32F4xx_HAL_Driver/Src/stm32f4xx_hal_spi.c ****   {
1817:./Libraries/STM32F4xx_HAL_Driver/Src/stm32f4xx_hal_spi.c ****     /* Abort the SPI DMA Rx channel */
1818:./Libraries/STM32F4xx_HAL_Driver/Src/stm32f4xx_hal_spi.c ****     if(hspi->hdmarx != NULL)
 4210              		.loc 1 1818 12
 4211 0142 7B68     		ldr	r3, [r7, #4]
 4212 0144 DB6C     		ldr	r3, [r3, #76]
 4213              		.loc 1 1818 7
 4214 0146 002B     		cmp	r3, #0
 4215 0148 0ED0     		beq	.L211
1819:./Libraries/STM32F4xx_HAL_Driver/Src/stm32f4xx_hal_spi.c ****     {
1820:./Libraries/STM32F4xx_HAL_Driver/Src/stm32f4xx_hal_spi.c ****       /* Abort DMA Rx Handle linked to SPI Peripheral */
1821:./Libraries/STM32F4xx_HAL_Driver/Src/stm32f4xx_hal_spi.c ****       if(HAL_DMA_Abort_IT(hspi->hdmarx)!=  HAL_OK)
 4216              		.loc 1 1821 10
 4217 014a 7B68     		ldr	r3, [r7, #4]
 4218 014c DB6C     		ldr	r3, [r3, #76]
 4219 014e 1846     		mov	r0, r3
 4220 0150 FFF7FEFF 		bl	HAL_DMA_Abort_IT
 4221 0154 0346     		mov	r3, r0
 4222              		.loc 1 1821 9
 4223 0156 002B     		cmp	r3, #0
 4224 0158 04D0     		beq	.L212
1822:./Libraries/STM32F4xx_HAL_Driver/Src/stm32f4xx_hal_spi.c ****       {
1823:./Libraries/STM32F4xx_HAL_Driver/Src/stm32f4xx_hal_spi.c ****         hspi->hdmarx->XferAbortCallback = NULL;
 4225              		.loc 1 1823 13
 4226 015a 7B68     		ldr	r3, [r7, #4]
 4227 015c DB6C     		ldr	r3, [r3, #76]
 4228              		.loc 1 1823 41
 4229 015e 0022     		movs	r2, #0
 4230 0160 1A65     		str	r2, [r3, #80]
 4231 0162 01E0     		b	.L211
 4232              	.L212:
ARM GAS  /tmp/ccits0mR.s 			page 107


1824:./Libraries/STM32F4xx_HAL_Driver/Src/stm32f4xx_hal_spi.c ****       }
1825:./Libraries/STM32F4xx_HAL_Driver/Src/stm32f4xx_hal_spi.c ****       else
1826:./Libraries/STM32F4xx_HAL_Driver/Src/stm32f4xx_hal_spi.c ****       {
1827:./Libraries/STM32F4xx_HAL_Driver/Src/stm32f4xx_hal_spi.c ****         abortcplt = 0U;
 4233              		.loc 1 1827 19
 4234 0164 0023     		movs	r3, #0
 4235 0166 7B61     		str	r3, [r7, #20]
 4236              	.L211:
1828:./Libraries/STM32F4xx_HAL_Driver/Src/stm32f4xx_hal_spi.c ****       }
1829:./Libraries/STM32F4xx_HAL_Driver/Src/stm32f4xx_hal_spi.c ****     }
1830:./Libraries/STM32F4xx_HAL_Driver/Src/stm32f4xx_hal_spi.c ****   }
1831:./Libraries/STM32F4xx_HAL_Driver/Src/stm32f4xx_hal_spi.c **** 
1832:./Libraries/STM32F4xx_HAL_Driver/Src/stm32f4xx_hal_spi.c ****   if(abortcplt == 1U)
 4237              		.loc 1 1832 5
 4238 0168 7B69     		ldr	r3, [r7, #20]
 4239 016a 012B     		cmp	r3, #1
 4240 016c 21D1     		bne	.L213
1833:./Libraries/STM32F4xx_HAL_Driver/Src/stm32f4xx_hal_spi.c ****   {
1834:./Libraries/STM32F4xx_HAL_Driver/Src/stm32f4xx_hal_spi.c ****     /* Reset Tx and Rx transfer counters */
1835:./Libraries/STM32F4xx_HAL_Driver/Src/stm32f4xx_hal_spi.c ****     hspi->RxXferCount = 0U;
 4241              		.loc 1 1835 23
 4242 016e 7B68     		ldr	r3, [r7, #4]
 4243 0170 0022     		movs	r2, #0
 4244 0172 DA87     		strh	r2, [r3, #62]	@ movhi
1836:./Libraries/STM32F4xx_HAL_Driver/Src/stm32f4xx_hal_spi.c ****     hspi->TxXferCount = 0U;
 4245              		.loc 1 1836 23
 4246 0174 7B68     		ldr	r3, [r7, #4]
 4247 0176 0022     		movs	r2, #0
 4248 0178 DA86     		strh	r2, [r3, #54]	@ movhi
1837:./Libraries/STM32F4xx_HAL_Driver/Src/stm32f4xx_hal_spi.c **** 
1838:./Libraries/STM32F4xx_HAL_Driver/Src/stm32f4xx_hal_spi.c ****     /* Reset errorCode */
1839:./Libraries/STM32F4xx_HAL_Driver/Src/stm32f4xx_hal_spi.c ****     hspi->ErrorCode = HAL_SPI_ERROR_NONE;
 4249              		.loc 1 1839 21
 4250 017a 7B68     		ldr	r3, [r7, #4]
 4251 017c 0022     		movs	r2, #0
 4252 017e 5A65     		str	r2, [r3, #84]
 4253              	.LBB6:
1840:./Libraries/STM32F4xx_HAL_Driver/Src/stm32f4xx_hal_spi.c **** 
1841:./Libraries/STM32F4xx_HAL_Driver/Src/stm32f4xx_hal_spi.c ****     /* Clear the Error flags in the SR register */
1842:./Libraries/STM32F4xx_HAL_Driver/Src/stm32f4xx_hal_spi.c ****     __HAL_SPI_CLEAR_OVRFLAG(hspi);
 4254              		.loc 1 1842 5
 4255 0180 0023     		movs	r3, #0
 4256 0182 3B61     		str	r3, [r7, #16]
 4257 0184 7B68     		ldr	r3, [r7, #4]
 4258 0186 1B68     		ldr	r3, [r3]
 4259 0188 DB68     		ldr	r3, [r3, #12]
 4260 018a 3B61     		str	r3, [r7, #16]
 4261 018c 7B68     		ldr	r3, [r7, #4]
 4262 018e 1B68     		ldr	r3, [r3]
 4263 0190 9B68     		ldr	r3, [r3, #8]
 4264 0192 3B61     		str	r3, [r7, #16]
 4265 0194 3B69     		ldr	r3, [r7, #16]
 4266              	.LBE6:
 4267              	.LBB7:
1843:./Libraries/STM32F4xx_HAL_Driver/Src/stm32f4xx_hal_spi.c ****     __HAL_SPI_CLEAR_FREFLAG(hspi);
 4268              		.loc 1 1843 5
 4269 0196 0023     		movs	r3, #0
ARM GAS  /tmp/ccits0mR.s 			page 108


 4270 0198 FB60     		str	r3, [r7, #12]
 4271 019a 7B68     		ldr	r3, [r7, #4]
 4272 019c 1B68     		ldr	r3, [r3]
 4273 019e 9B68     		ldr	r3, [r3, #8]
 4274 01a0 FB60     		str	r3, [r7, #12]
 4275 01a2 FB68     		ldr	r3, [r7, #12]
 4276              	.LBE7:
1844:./Libraries/STM32F4xx_HAL_Driver/Src/stm32f4xx_hal_spi.c **** 
1845:./Libraries/STM32F4xx_HAL_Driver/Src/stm32f4xx_hal_spi.c ****     /* Restore hspi->State to Ready */
1846:./Libraries/STM32F4xx_HAL_Driver/Src/stm32f4xx_hal_spi.c ****     hspi->State = HAL_SPI_STATE_READY;
 4277              		.loc 1 1846 17
 4278 01a4 7B68     		ldr	r3, [r7, #4]
 4279 01a6 0122     		movs	r2, #1
 4280 01a8 83F85120 		strb	r2, [r3, #81]
1847:./Libraries/STM32F4xx_HAL_Driver/Src/stm32f4xx_hal_spi.c **** 
1848:./Libraries/STM32F4xx_HAL_Driver/Src/stm32f4xx_hal_spi.c ****     /* As no DMA to be aborted, call directly user Abort complete callback */
1849:./Libraries/STM32F4xx_HAL_Driver/Src/stm32f4xx_hal_spi.c ****     HAL_SPI_AbortCpltCallback(hspi);
 4281              		.loc 1 1849 5
 4282 01ac 7868     		ldr	r0, [r7, #4]
 4283 01ae FFF7FEFF 		bl	HAL_SPI_AbortCpltCallback
 4284              	.L213:
1850:./Libraries/STM32F4xx_HAL_Driver/Src/stm32f4xx_hal_spi.c ****   }
1851:./Libraries/STM32F4xx_HAL_Driver/Src/stm32f4xx_hal_spi.c ****   return HAL_OK;
 4285              		.loc 1 1851 10
 4286 01b2 0023     		movs	r3, #0
1852:./Libraries/STM32F4xx_HAL_Driver/Src/stm32f4xx_hal_spi.c **** }
 4287              		.loc 1 1852 1
 4288 01b4 1846     		mov	r0, r3
 4289 01b6 1837     		adds	r7, r7, #24
 4290              	.LCFI77:
 4291              		.cfi_def_cfa_offset 8
 4292 01b8 BD46     		mov	sp, r7
 4293              	.LCFI78:
 4294              		.cfi_def_cfa_register 13
 4295              		@ sp needed
 4296 01ba 80BD     		pop	{r7, pc}
 4297              	.L216:
 4298              		.align	2
 4299              	.L215:
 4300 01bc 00000000 		.word	SPI_AbortTx_ISR
 4301 01c0 00000000 		.word	SPI_AbortRx_ISR
 4302 01c4 00000000 		.word	SPI_DMATxAbortCallback
 4303 01c8 00000000 		.word	SPI_DMARxAbortCallback
 4304              		.cfi_endproc
 4305              	.LFE140:
 4307              		.section	.text.HAL_SPI_DMAPause,"ax",%progbits
 4308              		.align	1
 4309              		.global	HAL_SPI_DMAPause
 4310              		.syntax unified
 4311              		.thumb
 4312              		.thumb_func
 4313              		.fpu fpv4-sp-d16
 4315              	HAL_SPI_DMAPause:
 4316              	.LFB141:
1853:./Libraries/STM32F4xx_HAL_Driver/Src/stm32f4xx_hal_spi.c **** 
1854:./Libraries/STM32F4xx_HAL_Driver/Src/stm32f4xx_hal_spi.c **** /**
1855:./Libraries/STM32F4xx_HAL_Driver/Src/stm32f4xx_hal_spi.c ****   * @brief  Pause the DMA Transfer.
ARM GAS  /tmp/ccits0mR.s 			page 109


1856:./Libraries/STM32F4xx_HAL_Driver/Src/stm32f4xx_hal_spi.c ****   * @param  hspi pointer to a SPI_HandleTypeDef structure that contains
1857:./Libraries/STM32F4xx_HAL_Driver/Src/stm32f4xx_hal_spi.c ****   *               the configuration information for the specified SPI module.
1858:./Libraries/STM32F4xx_HAL_Driver/Src/stm32f4xx_hal_spi.c ****   * @retval HAL status
1859:./Libraries/STM32F4xx_HAL_Driver/Src/stm32f4xx_hal_spi.c ****   */
1860:./Libraries/STM32F4xx_HAL_Driver/Src/stm32f4xx_hal_spi.c **** HAL_StatusTypeDef HAL_SPI_DMAPause(SPI_HandleTypeDef *hspi)
1861:./Libraries/STM32F4xx_HAL_Driver/Src/stm32f4xx_hal_spi.c **** {
 4317              		.loc 1 1861 1
 4318              		.cfi_startproc
 4319              		@ args = 0, pretend = 0, frame = 8
 4320              		@ frame_needed = 1, uses_anonymous_args = 0
 4321              		@ link register save eliminated.
 4322 0000 80B4     		push	{r7}
 4323              	.LCFI79:
 4324              		.cfi_def_cfa_offset 4
 4325              		.cfi_offset 7, -4
 4326 0002 83B0     		sub	sp, sp, #12
 4327              	.LCFI80:
 4328              		.cfi_def_cfa_offset 16
 4329 0004 00AF     		add	r7, sp, #0
 4330              	.LCFI81:
 4331              		.cfi_def_cfa_register 7
 4332 0006 7860     		str	r0, [r7, #4]
1862:./Libraries/STM32F4xx_HAL_Driver/Src/stm32f4xx_hal_spi.c ****   /* Process Locked */
1863:./Libraries/STM32F4xx_HAL_Driver/Src/stm32f4xx_hal_spi.c ****   __HAL_LOCK(hspi);
 4333              		.loc 1 1863 3
 4334 0008 7B68     		ldr	r3, [r7, #4]
 4335 000a 93F85030 		ldrb	r3, [r3, #80]	@ zero_extendqisi2
 4336 000e 012B     		cmp	r3, #1
 4337 0010 01D1     		bne	.L218
 4338              		.loc 1 1863 3 is_stmt 0 discriminator 1
 4339 0012 0223     		movs	r3, #2
 4340 0014 10E0     		b	.L219
 4341              	.L218:
 4342              		.loc 1 1863 3 discriminator 2
 4343 0016 7B68     		ldr	r3, [r7, #4]
 4344 0018 0122     		movs	r2, #1
 4345 001a 83F85020 		strb	r2, [r3, #80]
1864:./Libraries/STM32F4xx_HAL_Driver/Src/stm32f4xx_hal_spi.c **** 
1865:./Libraries/STM32F4xx_HAL_Driver/Src/stm32f4xx_hal_spi.c ****   /* Disable the SPI DMA Tx & Rx requests */
1866:./Libraries/STM32F4xx_HAL_Driver/Src/stm32f4xx_hal_spi.c ****   CLEAR_BIT(hspi->Instance->CR2, SPI_CR2_TXDMAEN | SPI_CR2_RXDMAEN);
 4346              		.loc 1 1866 3 is_stmt 1 discriminator 2
 4347 001e 7B68     		ldr	r3, [r7, #4]
 4348 0020 1B68     		ldr	r3, [r3]
 4349 0022 5A68     		ldr	r2, [r3, #4]
 4350 0024 7B68     		ldr	r3, [r7, #4]
 4351 0026 1B68     		ldr	r3, [r3]
 4352 0028 22F00302 		bic	r2, r2, #3
 4353 002c 5A60     		str	r2, [r3, #4]
1867:./Libraries/STM32F4xx_HAL_Driver/Src/stm32f4xx_hal_spi.c **** 
1868:./Libraries/STM32F4xx_HAL_Driver/Src/stm32f4xx_hal_spi.c ****   /* Process Unlocked */
1869:./Libraries/STM32F4xx_HAL_Driver/Src/stm32f4xx_hal_spi.c ****   __HAL_UNLOCK(hspi);
 4354              		.loc 1 1869 3 discriminator 2
 4355 002e 7B68     		ldr	r3, [r7, #4]
 4356 0030 0022     		movs	r2, #0
 4357 0032 83F85020 		strb	r2, [r3, #80]
1870:./Libraries/STM32F4xx_HAL_Driver/Src/stm32f4xx_hal_spi.c **** 
1871:./Libraries/STM32F4xx_HAL_Driver/Src/stm32f4xx_hal_spi.c ****   return HAL_OK;
ARM GAS  /tmp/ccits0mR.s 			page 110


 4358              		.loc 1 1871 10 discriminator 2
 4359 0036 0023     		movs	r3, #0
 4360              	.L219:
1872:./Libraries/STM32F4xx_HAL_Driver/Src/stm32f4xx_hal_spi.c **** }
 4361              		.loc 1 1872 1
 4362 0038 1846     		mov	r0, r3
 4363 003a 0C37     		adds	r7, r7, #12
 4364              	.LCFI82:
 4365              		.cfi_def_cfa_offset 4
 4366 003c BD46     		mov	sp, r7
 4367              	.LCFI83:
 4368              		.cfi_def_cfa_register 13
 4369              		@ sp needed
 4370 003e 5DF8047B 		ldr	r7, [sp], #4
 4371              	.LCFI84:
 4372              		.cfi_restore 7
 4373              		.cfi_def_cfa_offset 0
 4374 0042 7047     		bx	lr
 4375              		.cfi_endproc
 4376              	.LFE141:
 4378              		.section	.text.HAL_SPI_DMAResume,"ax",%progbits
 4379              		.align	1
 4380              		.global	HAL_SPI_DMAResume
 4381              		.syntax unified
 4382              		.thumb
 4383              		.thumb_func
 4384              		.fpu fpv4-sp-d16
 4386              	HAL_SPI_DMAResume:
 4387              	.LFB142:
1873:./Libraries/STM32F4xx_HAL_Driver/Src/stm32f4xx_hal_spi.c **** 
1874:./Libraries/STM32F4xx_HAL_Driver/Src/stm32f4xx_hal_spi.c **** /**
1875:./Libraries/STM32F4xx_HAL_Driver/Src/stm32f4xx_hal_spi.c ****   * @brief  Resume the DMA Transfer.
1876:./Libraries/STM32F4xx_HAL_Driver/Src/stm32f4xx_hal_spi.c ****   * @param  hspi pointer to a SPI_HandleTypeDef structure that contains
1877:./Libraries/STM32F4xx_HAL_Driver/Src/stm32f4xx_hal_spi.c ****   *               the configuration information for the specified SPI module.
1878:./Libraries/STM32F4xx_HAL_Driver/Src/stm32f4xx_hal_spi.c ****   * @retval HAL status
1879:./Libraries/STM32F4xx_HAL_Driver/Src/stm32f4xx_hal_spi.c ****   */
1880:./Libraries/STM32F4xx_HAL_Driver/Src/stm32f4xx_hal_spi.c **** HAL_StatusTypeDef HAL_SPI_DMAResume(SPI_HandleTypeDef *hspi)
1881:./Libraries/STM32F4xx_HAL_Driver/Src/stm32f4xx_hal_spi.c **** {
 4388              		.loc 1 1881 1
 4389              		.cfi_startproc
 4390              		@ args = 0, pretend = 0, frame = 8
 4391              		@ frame_needed = 1, uses_anonymous_args = 0
 4392              		@ link register save eliminated.
 4393 0000 80B4     		push	{r7}
 4394              	.LCFI85:
 4395              		.cfi_def_cfa_offset 4
 4396              		.cfi_offset 7, -4
 4397 0002 83B0     		sub	sp, sp, #12
 4398              	.LCFI86:
 4399              		.cfi_def_cfa_offset 16
 4400 0004 00AF     		add	r7, sp, #0
 4401              	.LCFI87:
 4402              		.cfi_def_cfa_register 7
 4403 0006 7860     		str	r0, [r7, #4]
1882:./Libraries/STM32F4xx_HAL_Driver/Src/stm32f4xx_hal_spi.c ****   /* Process Locked */
1883:./Libraries/STM32F4xx_HAL_Driver/Src/stm32f4xx_hal_spi.c ****   __HAL_LOCK(hspi);
 4404              		.loc 1 1883 3
ARM GAS  /tmp/ccits0mR.s 			page 111


 4405 0008 7B68     		ldr	r3, [r7, #4]
 4406 000a 93F85030 		ldrb	r3, [r3, #80]	@ zero_extendqisi2
 4407 000e 012B     		cmp	r3, #1
 4408 0010 01D1     		bne	.L221
 4409              		.loc 1 1883 3 is_stmt 0 discriminator 1
 4410 0012 0223     		movs	r3, #2
 4411 0014 10E0     		b	.L222
 4412              	.L221:
 4413              		.loc 1 1883 3 discriminator 2
 4414 0016 7B68     		ldr	r3, [r7, #4]
 4415 0018 0122     		movs	r2, #1
 4416 001a 83F85020 		strb	r2, [r3, #80]
1884:./Libraries/STM32F4xx_HAL_Driver/Src/stm32f4xx_hal_spi.c **** 
1885:./Libraries/STM32F4xx_HAL_Driver/Src/stm32f4xx_hal_spi.c ****   /* Enable the SPI DMA Tx & Rx requests */
1886:./Libraries/STM32F4xx_HAL_Driver/Src/stm32f4xx_hal_spi.c ****   SET_BIT(hspi->Instance->CR2, SPI_CR2_TXDMAEN | SPI_CR2_RXDMAEN);
 4417              		.loc 1 1886 3 is_stmt 1 discriminator 2
 4418 001e 7B68     		ldr	r3, [r7, #4]
 4419 0020 1B68     		ldr	r3, [r3]
 4420 0022 5A68     		ldr	r2, [r3, #4]
 4421 0024 7B68     		ldr	r3, [r7, #4]
 4422 0026 1B68     		ldr	r3, [r3]
 4423 0028 42F00302 		orr	r2, r2, #3
 4424 002c 5A60     		str	r2, [r3, #4]
1887:./Libraries/STM32F4xx_HAL_Driver/Src/stm32f4xx_hal_spi.c **** 
1888:./Libraries/STM32F4xx_HAL_Driver/Src/stm32f4xx_hal_spi.c ****   /* Process Unlocked */
1889:./Libraries/STM32F4xx_HAL_Driver/Src/stm32f4xx_hal_spi.c ****   __HAL_UNLOCK(hspi);
 4425              		.loc 1 1889 3 discriminator 2
 4426 002e 7B68     		ldr	r3, [r7, #4]
 4427 0030 0022     		movs	r2, #0
 4428 0032 83F85020 		strb	r2, [r3, #80]
1890:./Libraries/STM32F4xx_HAL_Driver/Src/stm32f4xx_hal_spi.c **** 
1891:./Libraries/STM32F4xx_HAL_Driver/Src/stm32f4xx_hal_spi.c ****   return HAL_OK;
 4429              		.loc 1 1891 10 discriminator 2
 4430 0036 0023     		movs	r3, #0
 4431              	.L222:
1892:./Libraries/STM32F4xx_HAL_Driver/Src/stm32f4xx_hal_spi.c **** }
 4432              		.loc 1 1892 1
 4433 0038 1846     		mov	r0, r3
 4434 003a 0C37     		adds	r7, r7, #12
 4435              	.LCFI88:
 4436              		.cfi_def_cfa_offset 4
 4437 003c BD46     		mov	sp, r7
 4438              	.LCFI89:
 4439              		.cfi_def_cfa_register 13
 4440              		@ sp needed
 4441 003e 5DF8047B 		ldr	r7, [sp], #4
 4442              	.LCFI90:
 4443              		.cfi_restore 7
 4444              		.cfi_def_cfa_offset 0
 4445 0042 7047     		bx	lr
 4446              		.cfi_endproc
 4447              	.LFE142:
 4449              		.section	.text.HAL_SPI_DMAStop,"ax",%progbits
 4450              		.align	1
 4451              		.global	HAL_SPI_DMAStop
 4452              		.syntax unified
 4453              		.thumb
ARM GAS  /tmp/ccits0mR.s 			page 112


 4454              		.thumb_func
 4455              		.fpu fpv4-sp-d16
 4457              	HAL_SPI_DMAStop:
 4458              	.LFB143:
1893:./Libraries/STM32F4xx_HAL_Driver/Src/stm32f4xx_hal_spi.c **** 
1894:./Libraries/STM32F4xx_HAL_Driver/Src/stm32f4xx_hal_spi.c **** /**
1895:./Libraries/STM32F4xx_HAL_Driver/Src/stm32f4xx_hal_spi.c ****   * @brief Stop the DMA Transfer.
1896:./Libraries/STM32F4xx_HAL_Driver/Src/stm32f4xx_hal_spi.c ****   * @param  hspi pointer to a SPI_HandleTypeDef structure that contains
1897:./Libraries/STM32F4xx_HAL_Driver/Src/stm32f4xx_hal_spi.c ****   *               the configuration information for the specified SPI module.
1898:./Libraries/STM32F4xx_HAL_Driver/Src/stm32f4xx_hal_spi.c ****   * @retval HAL status
1899:./Libraries/STM32F4xx_HAL_Driver/Src/stm32f4xx_hal_spi.c ****   */
1900:./Libraries/STM32F4xx_HAL_Driver/Src/stm32f4xx_hal_spi.c **** HAL_StatusTypeDef HAL_SPI_DMAStop(SPI_HandleTypeDef *hspi)
1901:./Libraries/STM32F4xx_HAL_Driver/Src/stm32f4xx_hal_spi.c **** {
 4459              		.loc 1 1901 1
 4460              		.cfi_startproc
 4461              		@ args = 0, pretend = 0, frame = 8
 4462              		@ frame_needed = 1, uses_anonymous_args = 0
 4463 0000 80B5     		push	{r7, lr}
 4464              	.LCFI91:
 4465              		.cfi_def_cfa_offset 8
 4466              		.cfi_offset 7, -8
 4467              		.cfi_offset 14, -4
 4468 0002 82B0     		sub	sp, sp, #8
 4469              	.LCFI92:
 4470              		.cfi_def_cfa_offset 16
 4471 0004 00AF     		add	r7, sp, #0
 4472              	.LCFI93:
 4473              		.cfi_def_cfa_register 7
 4474 0006 7860     		str	r0, [r7, #4]
1902:./Libraries/STM32F4xx_HAL_Driver/Src/stm32f4xx_hal_spi.c ****   /* The Lock is not implemented on this API to allow the user application
1903:./Libraries/STM32F4xx_HAL_Driver/Src/stm32f4xx_hal_spi.c ****      to call the HAL SPI API under callbacks HAL_SPI_TxCpltCallback() or HAL_SPI_RxCpltCallback() o
1904:./Libraries/STM32F4xx_HAL_Driver/Src/stm32f4xx_hal_spi.c ****      when calling HAL_DMA_Abort() API the DMA TX/RX Transfer complete interrupt is generated
1905:./Libraries/STM32F4xx_HAL_Driver/Src/stm32f4xx_hal_spi.c ****      and the correspond call back is executed HAL_SPI_TxCpltCallback() or HAL_SPI_RxCpltCallback() 
1906:./Libraries/STM32F4xx_HAL_Driver/Src/stm32f4xx_hal_spi.c ****      */
1907:./Libraries/STM32F4xx_HAL_Driver/Src/stm32f4xx_hal_spi.c **** 
1908:./Libraries/STM32F4xx_HAL_Driver/Src/stm32f4xx_hal_spi.c ****   /* Abort the SPI DMA tx Stream */
1909:./Libraries/STM32F4xx_HAL_Driver/Src/stm32f4xx_hal_spi.c ****   if(hspi->hdmatx != NULL)
 4475              		.loc 1 1909 10
 4476 0008 7B68     		ldr	r3, [r7, #4]
 4477 000a 9B6C     		ldr	r3, [r3, #72]
 4478              		.loc 1 1909 5
 4479 000c 002B     		cmp	r3, #0
 4480 000e 04D0     		beq	.L224
1910:./Libraries/STM32F4xx_HAL_Driver/Src/stm32f4xx_hal_spi.c ****   {
1911:./Libraries/STM32F4xx_HAL_Driver/Src/stm32f4xx_hal_spi.c ****     HAL_DMA_Abort(hspi->hdmatx);
 4481              		.loc 1 1911 5
 4482 0010 7B68     		ldr	r3, [r7, #4]
 4483 0012 9B6C     		ldr	r3, [r3, #72]
 4484 0014 1846     		mov	r0, r3
 4485 0016 FFF7FEFF 		bl	HAL_DMA_Abort
 4486              	.L224:
1912:./Libraries/STM32F4xx_HAL_Driver/Src/stm32f4xx_hal_spi.c ****   }
1913:./Libraries/STM32F4xx_HAL_Driver/Src/stm32f4xx_hal_spi.c ****   /* Abort the SPI DMA rx Stream */
1914:./Libraries/STM32F4xx_HAL_Driver/Src/stm32f4xx_hal_spi.c ****   if(hspi->hdmarx != NULL)
 4487              		.loc 1 1914 10
 4488 001a 7B68     		ldr	r3, [r7, #4]
 4489 001c DB6C     		ldr	r3, [r3, #76]
ARM GAS  /tmp/ccits0mR.s 			page 113


 4490              		.loc 1 1914 5
 4491 001e 002B     		cmp	r3, #0
 4492 0020 04D0     		beq	.L225
1915:./Libraries/STM32F4xx_HAL_Driver/Src/stm32f4xx_hal_spi.c ****   {
1916:./Libraries/STM32F4xx_HAL_Driver/Src/stm32f4xx_hal_spi.c ****     HAL_DMA_Abort(hspi->hdmarx);
 4493              		.loc 1 1916 5
 4494 0022 7B68     		ldr	r3, [r7, #4]
 4495 0024 DB6C     		ldr	r3, [r3, #76]
 4496 0026 1846     		mov	r0, r3
 4497 0028 FFF7FEFF 		bl	HAL_DMA_Abort
 4498              	.L225:
1917:./Libraries/STM32F4xx_HAL_Driver/Src/stm32f4xx_hal_spi.c ****   }
1918:./Libraries/STM32F4xx_HAL_Driver/Src/stm32f4xx_hal_spi.c **** 
1919:./Libraries/STM32F4xx_HAL_Driver/Src/stm32f4xx_hal_spi.c ****   /* Disable the SPI DMA Tx & Rx requests */
1920:./Libraries/STM32F4xx_HAL_Driver/Src/stm32f4xx_hal_spi.c ****   CLEAR_BIT(hspi->Instance->CR2, SPI_CR2_TXDMAEN | SPI_CR2_RXDMAEN);
 4499              		.loc 1 1920 3
 4500 002c 7B68     		ldr	r3, [r7, #4]
 4501 002e 1B68     		ldr	r3, [r3]
 4502 0030 5A68     		ldr	r2, [r3, #4]
 4503 0032 7B68     		ldr	r3, [r7, #4]
 4504 0034 1B68     		ldr	r3, [r3]
 4505 0036 22F00302 		bic	r2, r2, #3
 4506 003a 5A60     		str	r2, [r3, #4]
1921:./Libraries/STM32F4xx_HAL_Driver/Src/stm32f4xx_hal_spi.c ****   hspi->State = HAL_SPI_STATE_READY;
 4507              		.loc 1 1921 15
 4508 003c 7B68     		ldr	r3, [r7, #4]
 4509 003e 0122     		movs	r2, #1
 4510 0040 83F85120 		strb	r2, [r3, #81]
1922:./Libraries/STM32F4xx_HAL_Driver/Src/stm32f4xx_hal_spi.c ****   return HAL_OK;
 4511              		.loc 1 1922 10
 4512 0044 0023     		movs	r3, #0
1923:./Libraries/STM32F4xx_HAL_Driver/Src/stm32f4xx_hal_spi.c **** }
 4513              		.loc 1 1923 1
 4514 0046 1846     		mov	r0, r3
 4515 0048 0837     		adds	r7, r7, #8
 4516              	.LCFI94:
 4517              		.cfi_def_cfa_offset 8
 4518 004a BD46     		mov	sp, r7
 4519              	.LCFI95:
 4520              		.cfi_def_cfa_register 13
 4521              		@ sp needed
 4522 004c 80BD     		pop	{r7, pc}
 4523              		.cfi_endproc
 4524              	.LFE143:
 4526              		.section	.text.HAL_SPI_IRQHandler,"ax",%progbits
 4527              		.align	1
 4528              		.global	HAL_SPI_IRQHandler
 4529              		.syntax unified
 4530              		.thumb
 4531              		.thumb_func
 4532              		.fpu fpv4-sp-d16
 4534              	HAL_SPI_IRQHandler:
 4535              	.LFB144:
1924:./Libraries/STM32F4xx_HAL_Driver/Src/stm32f4xx_hal_spi.c **** 
1925:./Libraries/STM32F4xx_HAL_Driver/Src/stm32f4xx_hal_spi.c **** /**
1926:./Libraries/STM32F4xx_HAL_Driver/Src/stm32f4xx_hal_spi.c ****   * @brief  Handle SPI interrupt request.
1927:./Libraries/STM32F4xx_HAL_Driver/Src/stm32f4xx_hal_spi.c ****   * @param  hspi pointer to a SPI_HandleTypeDef structure that contains
ARM GAS  /tmp/ccits0mR.s 			page 114


1928:./Libraries/STM32F4xx_HAL_Driver/Src/stm32f4xx_hal_spi.c ****   *               the configuration information for the specified SPI module.
1929:./Libraries/STM32F4xx_HAL_Driver/Src/stm32f4xx_hal_spi.c ****   * @retval None
1930:./Libraries/STM32F4xx_HAL_Driver/Src/stm32f4xx_hal_spi.c ****   */
1931:./Libraries/STM32F4xx_HAL_Driver/Src/stm32f4xx_hal_spi.c **** void HAL_SPI_IRQHandler(SPI_HandleTypeDef *hspi)
1932:./Libraries/STM32F4xx_HAL_Driver/Src/stm32f4xx_hal_spi.c **** {
 4536              		.loc 1 1932 1
 4537              		.cfi_startproc
 4538              		@ args = 0, pretend = 0, frame = 32
 4539              		@ frame_needed = 1, uses_anonymous_args = 0
 4540 0000 80B5     		push	{r7, lr}
 4541              	.LCFI96:
 4542              		.cfi_def_cfa_offset 8
 4543              		.cfi_offset 7, -8
 4544              		.cfi_offset 14, -4
 4545 0002 88B0     		sub	sp, sp, #32
 4546              	.LCFI97:
 4547              		.cfi_def_cfa_offset 40
 4548 0004 00AF     		add	r7, sp, #0
 4549              	.LCFI98:
 4550              		.cfi_def_cfa_register 7
 4551 0006 7860     		str	r0, [r7, #4]
1933:./Libraries/STM32F4xx_HAL_Driver/Src/stm32f4xx_hal_spi.c ****   uint32_t itsource = hspi->Instance->CR2;
 4552              		.loc 1 1933 27
 4553 0008 7B68     		ldr	r3, [r7, #4]
 4554 000a 1B68     		ldr	r3, [r3]
 4555              		.loc 1 1933 12
 4556 000c 5B68     		ldr	r3, [r3, #4]
 4557 000e FB61     		str	r3, [r7, #28]
1934:./Libraries/STM32F4xx_HAL_Driver/Src/stm32f4xx_hal_spi.c ****   uint32_t itflag   = hspi->Instance->SR;
 4558              		.loc 1 1934 27
 4559 0010 7B68     		ldr	r3, [r7, #4]
 4560 0012 1B68     		ldr	r3, [r3]
 4561              		.loc 1 1934 12
 4562 0014 9B68     		ldr	r3, [r3, #8]
 4563 0016 BB61     		str	r3, [r7, #24]
1935:./Libraries/STM32F4xx_HAL_Driver/Src/stm32f4xx_hal_spi.c **** 
1936:./Libraries/STM32F4xx_HAL_Driver/Src/stm32f4xx_hal_spi.c ****   /* SPI in mode Receiver ----------------------------------------------------*/
1937:./Libraries/STM32F4xx_HAL_Driver/Src/stm32f4xx_hal_spi.c ****   if(((itflag & SPI_FLAG_OVR) == RESET) &&
 4564              		.loc 1 1937 15
 4565 0018 BB69     		ldr	r3, [r7, #24]
 4566 001a 03F04003 		and	r3, r3, #64
 4567              		.loc 1 1937 5
 4568 001e 002B     		cmp	r3, #0
 4569 0020 0ED1     		bne	.L228
1938:./Libraries/STM32F4xx_HAL_Driver/Src/stm32f4xx_hal_spi.c ****      ((itflag & SPI_FLAG_RXNE) != RESET) && ((itsource & SPI_IT_RXNE) != RESET))
 4570              		.loc 1 1938 15 discriminator 1
 4571 0022 BB69     		ldr	r3, [r7, #24]
 4572 0024 03F00103 		and	r3, r3, #1
1937:./Libraries/STM32F4xx_HAL_Driver/Src/stm32f4xx_hal_spi.c ****      ((itflag & SPI_FLAG_RXNE) != RESET) && ((itsource & SPI_IT_RXNE) != RESET))
 4573              		.loc 1 1937 41 discriminator 1
 4574 0028 002B     		cmp	r3, #0
 4575 002a 09D0     		beq	.L228
 4576              		.loc 1 1938 56
 4577 002c FB69     		ldr	r3, [r7, #28]
 4578 002e 03F04003 		and	r3, r3, #64
 4579              		.loc 1 1938 42
 4580 0032 002B     		cmp	r3, #0
ARM GAS  /tmp/ccits0mR.s 			page 115


 4581 0034 04D0     		beq	.L228
1939:./Libraries/STM32F4xx_HAL_Driver/Src/stm32f4xx_hal_spi.c ****   {
1940:./Libraries/STM32F4xx_HAL_Driver/Src/stm32f4xx_hal_spi.c ****     hspi->RxISR(hspi);
 4582              		.loc 1 1940 9
 4583 0036 7B68     		ldr	r3, [r7, #4]
 4584 0038 1B6C     		ldr	r3, [r3, #64]
 4585              		.loc 1 1940 5
 4586 003a 7868     		ldr	r0, [r7, #4]
 4587 003c 9847     		blx	r3
 4588              	.LVL0:
1941:./Libraries/STM32F4xx_HAL_Driver/Src/stm32f4xx_hal_spi.c ****     return;
 4589              		.loc 1 1941 5
 4590 003e B1E0     		b	.L227
 4591              	.L228:
1942:./Libraries/STM32F4xx_HAL_Driver/Src/stm32f4xx_hal_spi.c ****   }
1943:./Libraries/STM32F4xx_HAL_Driver/Src/stm32f4xx_hal_spi.c **** 
1944:./Libraries/STM32F4xx_HAL_Driver/Src/stm32f4xx_hal_spi.c ****   /* SPI in mode Transmitter -------------------------------------------------*/
1945:./Libraries/STM32F4xx_HAL_Driver/Src/stm32f4xx_hal_spi.c ****   if(((itflag & SPI_FLAG_TXE) != RESET) && ((itsource & SPI_IT_TXE) != RESET))
 4592              		.loc 1 1945 15
 4593 0040 BB69     		ldr	r3, [r7, #24]
 4594 0042 03F00203 		and	r3, r3, #2
 4595              		.loc 1 1945 5
 4596 0046 002B     		cmp	r3, #0
 4597 0048 09D0     		beq	.L230
 4598              		.loc 1 1945 55 discriminator 1
 4599 004a FB69     		ldr	r3, [r7, #28]
 4600 004c 03F08003 		and	r3, r3, #128
 4601              		.loc 1 1945 41 discriminator 1
 4602 0050 002B     		cmp	r3, #0
 4603 0052 04D0     		beq	.L230
1946:./Libraries/STM32F4xx_HAL_Driver/Src/stm32f4xx_hal_spi.c ****   {
1947:./Libraries/STM32F4xx_HAL_Driver/Src/stm32f4xx_hal_spi.c ****     hspi->TxISR(hspi);
 4604              		.loc 1 1947 9
 4605 0054 7B68     		ldr	r3, [r7, #4]
 4606 0056 5B6C     		ldr	r3, [r3, #68]
 4607              		.loc 1 1947 5
 4608 0058 7868     		ldr	r0, [r7, #4]
 4609 005a 9847     		blx	r3
 4610              	.LVL1:
1948:./Libraries/STM32F4xx_HAL_Driver/Src/stm32f4xx_hal_spi.c ****     return;
 4611              		.loc 1 1948 5
 4612 005c A2E0     		b	.L227
 4613              	.L230:
1949:./Libraries/STM32F4xx_HAL_Driver/Src/stm32f4xx_hal_spi.c ****   }
1950:./Libraries/STM32F4xx_HAL_Driver/Src/stm32f4xx_hal_spi.c **** 
1951:./Libraries/STM32F4xx_HAL_Driver/Src/stm32f4xx_hal_spi.c ****   /* SPI in Error Treatment --------------------------------------------------*/
1952:./Libraries/STM32F4xx_HAL_Driver/Src/stm32f4xx_hal_spi.c ****   if(((itflag & (SPI_FLAG_MODF | SPI_FLAG_OVR | SPI_FLAG_FRE)) != RESET) && ((itsource & SPI_IT_ERR
 4614              		.loc 1 1952 15
 4615 005e BB69     		ldr	r3, [r7, #24]
 4616 0060 03F4B073 		and	r3, r3, #352
 4617              		.loc 1 1952 5
 4618 0064 002B     		cmp	r3, #0
 4619 0066 00F09D80 		beq	.L227
 4620              		.loc 1 1952 88 discriminator 1
 4621 006a FB69     		ldr	r3, [r7, #28]
 4622 006c 03F02003 		and	r3, r3, #32
 4623              		.loc 1 1952 74 discriminator 1
ARM GAS  /tmp/ccits0mR.s 			page 116


 4624 0070 002B     		cmp	r3, #0
 4625 0072 00F09780 		beq	.L227
1953:./Libraries/STM32F4xx_HAL_Driver/Src/stm32f4xx_hal_spi.c ****   {
1954:./Libraries/STM32F4xx_HAL_Driver/Src/stm32f4xx_hal_spi.c ****     /* SPI Overrun error interrupt occurred ----------------------------------*/
1955:./Libraries/STM32F4xx_HAL_Driver/Src/stm32f4xx_hal_spi.c ****     if((itflag & SPI_FLAG_OVR) != RESET)
 4626              		.loc 1 1955 16
 4627 0076 BB69     		ldr	r3, [r7, #24]
 4628 0078 03F04003 		and	r3, r3, #64
 4629              		.loc 1 1955 7
 4630 007c 002B     		cmp	r3, #0
 4631 007e 23D0     		beq	.L231
1956:./Libraries/STM32F4xx_HAL_Driver/Src/stm32f4xx_hal_spi.c ****     {
1957:./Libraries/STM32F4xx_HAL_Driver/Src/stm32f4xx_hal_spi.c ****       if(hspi->State != HAL_SPI_STATE_BUSY_TX)
 4632              		.loc 1 1957 14
 4633 0080 7B68     		ldr	r3, [r7, #4]
 4634 0082 93F85130 		ldrb	r3, [r3, #81]
 4635 0086 DBB2     		uxtb	r3, r3
 4636              		.loc 1 1957 9
 4637 0088 032B     		cmp	r3, #3
 4638 008a 11D0     		beq	.L232
1958:./Libraries/STM32F4xx_HAL_Driver/Src/stm32f4xx_hal_spi.c ****       {
1959:./Libraries/STM32F4xx_HAL_Driver/Src/stm32f4xx_hal_spi.c ****         SET_BIT(hspi->ErrorCode, HAL_SPI_ERROR_OVR);
 4639              		.loc 1 1959 9
 4640 008c 7B68     		ldr	r3, [r7, #4]
 4641 008e 5B6D     		ldr	r3, [r3, #84]
 4642 0090 43F00402 		orr	r2, r3, #4
 4643 0094 7B68     		ldr	r3, [r7, #4]
 4644 0096 5A65     		str	r2, [r3, #84]
 4645              	.LBB8:
1960:./Libraries/STM32F4xx_HAL_Driver/Src/stm32f4xx_hal_spi.c ****         __HAL_SPI_CLEAR_OVRFLAG(hspi);
 4646              		.loc 1 1960 9
 4647 0098 0023     		movs	r3, #0
 4648 009a 7B61     		str	r3, [r7, #20]
 4649 009c 7B68     		ldr	r3, [r7, #4]
 4650 009e 1B68     		ldr	r3, [r3]
 4651 00a0 DB68     		ldr	r3, [r3, #12]
 4652 00a2 7B61     		str	r3, [r7, #20]
 4653 00a4 7B68     		ldr	r3, [r7, #4]
 4654 00a6 1B68     		ldr	r3, [r3]
 4655 00a8 9B68     		ldr	r3, [r3, #8]
 4656 00aa 7B61     		str	r3, [r7, #20]
 4657 00ac 7B69     		ldr	r3, [r7, #20]
 4658              	.LBE8:
 4659 00ae 0BE0     		b	.L231
 4660              	.L232:
 4661              	.LBB9:
1961:./Libraries/STM32F4xx_HAL_Driver/Src/stm32f4xx_hal_spi.c ****       }
1962:./Libraries/STM32F4xx_HAL_Driver/Src/stm32f4xx_hal_spi.c ****       else
1963:./Libraries/STM32F4xx_HAL_Driver/Src/stm32f4xx_hal_spi.c ****       {
1964:./Libraries/STM32F4xx_HAL_Driver/Src/stm32f4xx_hal_spi.c ****         __HAL_SPI_CLEAR_OVRFLAG(hspi);
 4662              		.loc 1 1964 9
 4663 00b0 0023     		movs	r3, #0
 4664 00b2 3B61     		str	r3, [r7, #16]
 4665 00b4 7B68     		ldr	r3, [r7, #4]
 4666 00b6 1B68     		ldr	r3, [r3]
 4667 00b8 DB68     		ldr	r3, [r3, #12]
 4668 00ba 3B61     		str	r3, [r7, #16]
ARM GAS  /tmp/ccits0mR.s 			page 117


 4669 00bc 7B68     		ldr	r3, [r7, #4]
 4670 00be 1B68     		ldr	r3, [r3]
 4671 00c0 9B68     		ldr	r3, [r3, #8]
 4672 00c2 3B61     		str	r3, [r7, #16]
 4673 00c4 3B69     		ldr	r3, [r7, #16]
 4674              	.LBE9:
1965:./Libraries/STM32F4xx_HAL_Driver/Src/stm32f4xx_hal_spi.c ****         return;
 4675              		.loc 1 1965 9
 4676 00c6 6DE0     		b	.L227
 4677              	.L231:
1966:./Libraries/STM32F4xx_HAL_Driver/Src/stm32f4xx_hal_spi.c ****       }
1967:./Libraries/STM32F4xx_HAL_Driver/Src/stm32f4xx_hal_spi.c ****     }
1968:./Libraries/STM32F4xx_HAL_Driver/Src/stm32f4xx_hal_spi.c **** 
1969:./Libraries/STM32F4xx_HAL_Driver/Src/stm32f4xx_hal_spi.c ****     /* SPI Mode Fault error interrupt occurred -------------------------------*/
1970:./Libraries/STM32F4xx_HAL_Driver/Src/stm32f4xx_hal_spi.c ****     if((itflag & SPI_FLAG_MODF) != RESET)
 4678              		.loc 1 1970 16
 4679 00c8 BB69     		ldr	r3, [r7, #24]
 4680 00ca 03F02003 		and	r3, r3, #32
 4681              		.loc 1 1970 7
 4682 00ce 002B     		cmp	r3, #0
 4683 00d0 14D0     		beq	.L233
1971:./Libraries/STM32F4xx_HAL_Driver/Src/stm32f4xx_hal_spi.c ****     {
1972:./Libraries/STM32F4xx_HAL_Driver/Src/stm32f4xx_hal_spi.c ****       SET_BIT(hspi->ErrorCode, HAL_SPI_ERROR_MODF);
 4684              		.loc 1 1972 7
 4685 00d2 7B68     		ldr	r3, [r7, #4]
 4686 00d4 5B6D     		ldr	r3, [r3, #84]
 4687 00d6 43F00102 		orr	r2, r3, #1
 4688 00da 7B68     		ldr	r3, [r7, #4]
 4689 00dc 5A65     		str	r2, [r3, #84]
 4690              	.LBB10:
1973:./Libraries/STM32F4xx_HAL_Driver/Src/stm32f4xx_hal_spi.c ****       __HAL_SPI_CLEAR_MODFFLAG(hspi);
 4691              		.loc 1 1973 7
 4692 00de 0023     		movs	r3, #0
 4693 00e0 FB60     		str	r3, [r7, #12]
 4694 00e2 7B68     		ldr	r3, [r7, #4]
 4695 00e4 1B68     		ldr	r3, [r3]
 4696 00e6 9B68     		ldr	r3, [r3, #8]
 4697 00e8 FB60     		str	r3, [r7, #12]
 4698 00ea 7B68     		ldr	r3, [r7, #4]
 4699 00ec 1B68     		ldr	r3, [r3]
 4700 00ee 1A68     		ldr	r2, [r3]
 4701 00f0 7B68     		ldr	r3, [r7, #4]
 4702 00f2 1B68     		ldr	r3, [r3]
 4703 00f4 22F04002 		bic	r2, r2, #64
 4704 00f8 1A60     		str	r2, [r3]
 4705 00fa FB68     		ldr	r3, [r7, #12]
 4706              	.L233:
 4707              	.LBE10:
1974:./Libraries/STM32F4xx_HAL_Driver/Src/stm32f4xx_hal_spi.c ****     }
1975:./Libraries/STM32F4xx_HAL_Driver/Src/stm32f4xx_hal_spi.c **** 
1976:./Libraries/STM32F4xx_HAL_Driver/Src/stm32f4xx_hal_spi.c ****     /* SPI Frame error interrupt occurred ------------------------------------*/
1977:./Libraries/STM32F4xx_HAL_Driver/Src/stm32f4xx_hal_spi.c ****     if((itflag & SPI_FLAG_FRE) != RESET)
 4708              		.loc 1 1977 16
 4709 00fc BB69     		ldr	r3, [r7, #24]
 4710 00fe 03F48073 		and	r3, r3, #256
 4711              		.loc 1 1977 7
 4712 0102 002B     		cmp	r3, #0
ARM GAS  /tmp/ccits0mR.s 			page 118


 4713 0104 0CD0     		beq	.L234
1978:./Libraries/STM32F4xx_HAL_Driver/Src/stm32f4xx_hal_spi.c ****     {
1979:./Libraries/STM32F4xx_HAL_Driver/Src/stm32f4xx_hal_spi.c ****       SET_BIT(hspi->ErrorCode, HAL_SPI_ERROR_FRE);
 4714              		.loc 1 1979 7
 4715 0106 7B68     		ldr	r3, [r7, #4]
 4716 0108 5B6D     		ldr	r3, [r3, #84]
 4717 010a 43F00802 		orr	r2, r3, #8
 4718 010e 7B68     		ldr	r3, [r7, #4]
 4719 0110 5A65     		str	r2, [r3, #84]
 4720              	.LBB11:
1980:./Libraries/STM32F4xx_HAL_Driver/Src/stm32f4xx_hal_spi.c ****       __HAL_SPI_CLEAR_FREFLAG(hspi);
 4721              		.loc 1 1980 7
 4722 0112 0023     		movs	r3, #0
 4723 0114 BB60     		str	r3, [r7, #8]
 4724 0116 7B68     		ldr	r3, [r7, #4]
 4725 0118 1B68     		ldr	r3, [r3]
 4726 011a 9B68     		ldr	r3, [r3, #8]
 4727 011c BB60     		str	r3, [r7, #8]
 4728 011e BB68     		ldr	r3, [r7, #8]
 4729              	.L234:
 4730              	.LBE11:
1981:./Libraries/STM32F4xx_HAL_Driver/Src/stm32f4xx_hal_spi.c ****     }
1982:./Libraries/STM32F4xx_HAL_Driver/Src/stm32f4xx_hal_spi.c **** 
1983:./Libraries/STM32F4xx_HAL_Driver/Src/stm32f4xx_hal_spi.c ****     if(hspi->ErrorCode != HAL_SPI_ERROR_NONE)
 4731              		.loc 1 1983 12
 4732 0120 7B68     		ldr	r3, [r7, #4]
 4733 0122 5B6D     		ldr	r3, [r3, #84]
 4734              		.loc 1 1983 7
 4735 0124 002B     		cmp	r3, #0
 4736 0126 3CD0     		beq	.L240
1984:./Libraries/STM32F4xx_HAL_Driver/Src/stm32f4xx_hal_spi.c ****     {
1985:./Libraries/STM32F4xx_HAL_Driver/Src/stm32f4xx_hal_spi.c ****       /* Disable all interrupts */
1986:./Libraries/STM32F4xx_HAL_Driver/Src/stm32f4xx_hal_spi.c ****       __HAL_SPI_DISABLE_IT(hspi, SPI_IT_RXNE | SPI_IT_TXE | SPI_IT_ERR);
 4737              		.loc 1 1986 7
 4738 0128 7B68     		ldr	r3, [r7, #4]
 4739 012a 1B68     		ldr	r3, [r3]
 4740 012c 5A68     		ldr	r2, [r3, #4]
 4741 012e 7B68     		ldr	r3, [r7, #4]
 4742 0130 1B68     		ldr	r3, [r3]
 4743 0132 22F0E002 		bic	r2, r2, #224
 4744 0136 5A60     		str	r2, [r3, #4]
1987:./Libraries/STM32F4xx_HAL_Driver/Src/stm32f4xx_hal_spi.c **** 
1988:./Libraries/STM32F4xx_HAL_Driver/Src/stm32f4xx_hal_spi.c ****       hspi->State = HAL_SPI_STATE_READY;
 4745              		.loc 1 1988 19
 4746 0138 7B68     		ldr	r3, [r7, #4]
 4747 013a 0122     		movs	r2, #1
 4748 013c 83F85120 		strb	r2, [r3, #81]
1989:./Libraries/STM32F4xx_HAL_Driver/Src/stm32f4xx_hal_spi.c ****       /* Disable the SPI DMA requests if enabled */
1990:./Libraries/STM32F4xx_HAL_Driver/Src/stm32f4xx_hal_spi.c ****       if ((HAL_IS_BIT_SET(itsource, SPI_CR2_TXDMAEN))||(HAL_IS_BIT_SET(itsource, SPI_CR2_RXDMAEN)))
 4749              		.loc 1 1990 12
 4750 0140 FB69     		ldr	r3, [r7, #28]
 4751 0142 03F00203 		and	r3, r3, #2
 4752              		.loc 1 1990 10
 4753 0146 002B     		cmp	r3, #0
 4754 0148 04D1     		bne	.L236
 4755              		.loc 1 1990 57 discriminator 1
 4756 014a FB69     		ldr	r3, [r7, #28]
ARM GAS  /tmp/ccits0mR.s 			page 119


 4757 014c 03F00103 		and	r3, r3, #1
 4758              		.loc 1 1990 54 discriminator 1
 4759 0150 002B     		cmp	r3, #0
 4760 0152 22D0     		beq	.L237
 4761              	.L236:
1991:./Libraries/STM32F4xx_HAL_Driver/Src/stm32f4xx_hal_spi.c ****       {
1992:./Libraries/STM32F4xx_HAL_Driver/Src/stm32f4xx_hal_spi.c ****         CLEAR_BIT(hspi->Instance->CR2, (SPI_CR2_TXDMAEN | SPI_CR2_RXDMAEN));
 4762              		.loc 1 1992 9
 4763 0154 7B68     		ldr	r3, [r7, #4]
 4764 0156 1B68     		ldr	r3, [r3]
 4765 0158 5A68     		ldr	r2, [r3, #4]
 4766 015a 7B68     		ldr	r3, [r7, #4]
 4767 015c 1B68     		ldr	r3, [r3]
 4768 015e 22F00302 		bic	r2, r2, #3
 4769 0162 5A60     		str	r2, [r3, #4]
1993:./Libraries/STM32F4xx_HAL_Driver/Src/stm32f4xx_hal_spi.c **** 
1994:./Libraries/STM32F4xx_HAL_Driver/Src/stm32f4xx_hal_spi.c ****         /* Abort the SPI DMA Rx channel */
1995:./Libraries/STM32F4xx_HAL_Driver/Src/stm32f4xx_hal_spi.c ****         if(hspi->hdmarx != NULL)
 4770              		.loc 1 1995 16
 4771 0164 7B68     		ldr	r3, [r7, #4]
 4772 0166 DB6C     		ldr	r3, [r3, #76]
 4773              		.loc 1 1995 11
 4774 0168 002B     		cmp	r3, #0
 4775 016a 08D0     		beq	.L238
1996:./Libraries/STM32F4xx_HAL_Driver/Src/stm32f4xx_hal_spi.c ****         {
1997:./Libraries/STM32F4xx_HAL_Driver/Src/stm32f4xx_hal_spi.c ****           /* Set the SPI DMA Abort callback :
1998:./Libraries/STM32F4xx_HAL_Driver/Src/stm32f4xx_hal_spi.c ****           will lead to call HAL_SPI_ErrorCallback() at end of DMA abort procedure */
1999:./Libraries/STM32F4xx_HAL_Driver/Src/stm32f4xx_hal_spi.c ****           hspi->hdmarx->XferAbortCallback = SPI_DMAAbortOnError;
 4776              		.loc 1 1999 15
 4777 016c 7B68     		ldr	r3, [r7, #4]
 4778 016e DB6C     		ldr	r3, [r3, #76]
 4779              		.loc 1 1999 43
 4780 0170 0E4A     		ldr	r2, .L241
 4781 0172 1A65     		str	r2, [r3, #80]
2000:./Libraries/STM32F4xx_HAL_Driver/Src/stm32f4xx_hal_spi.c ****           HAL_DMA_Abort_IT(hspi->hdmarx);
 4782              		.loc 1 2000 11
 4783 0174 7B68     		ldr	r3, [r7, #4]
 4784 0176 DB6C     		ldr	r3, [r3, #76]
 4785 0178 1846     		mov	r0, r3
 4786 017a FFF7FEFF 		bl	HAL_DMA_Abort_IT
 4787              	.L238:
2001:./Libraries/STM32F4xx_HAL_Driver/Src/stm32f4xx_hal_spi.c ****         }
2002:./Libraries/STM32F4xx_HAL_Driver/Src/stm32f4xx_hal_spi.c ****         /* Abort the SPI DMA Tx channel */
2003:./Libraries/STM32F4xx_HAL_Driver/Src/stm32f4xx_hal_spi.c ****         if(hspi->hdmatx != NULL)
 4788              		.loc 1 2003 16
 4789 017e 7B68     		ldr	r3, [r7, #4]
 4790 0180 9B6C     		ldr	r3, [r3, #72]
 4791              		.loc 1 2003 11
 4792 0182 002B     		cmp	r3, #0
 4793 0184 0DD0     		beq	.L235
2004:./Libraries/STM32F4xx_HAL_Driver/Src/stm32f4xx_hal_spi.c ****         {
2005:./Libraries/STM32F4xx_HAL_Driver/Src/stm32f4xx_hal_spi.c ****           /* Set the SPI DMA Abort callback :
2006:./Libraries/STM32F4xx_HAL_Driver/Src/stm32f4xx_hal_spi.c ****           will lead to call HAL_SPI_ErrorCallback() at end of DMA abort procedure */
2007:./Libraries/STM32F4xx_HAL_Driver/Src/stm32f4xx_hal_spi.c ****           hspi->hdmatx->XferAbortCallback = SPI_DMAAbortOnError;
 4794              		.loc 1 2007 15
 4795 0186 7B68     		ldr	r3, [r7, #4]
 4796 0188 9B6C     		ldr	r3, [r3, #72]
ARM GAS  /tmp/ccits0mR.s 			page 120


 4797              		.loc 1 2007 43
 4798 018a 084A     		ldr	r2, .L241
 4799 018c 1A65     		str	r2, [r3, #80]
2008:./Libraries/STM32F4xx_HAL_Driver/Src/stm32f4xx_hal_spi.c ****           HAL_DMA_Abort_IT(hspi->hdmatx);
 4800              		.loc 1 2008 11
 4801 018e 7B68     		ldr	r3, [r7, #4]
 4802 0190 9B6C     		ldr	r3, [r3, #72]
 4803 0192 1846     		mov	r0, r3
 4804 0194 FFF7FEFF 		bl	HAL_DMA_Abort_IT
2003:./Libraries/STM32F4xx_HAL_Driver/Src/stm32f4xx_hal_spi.c ****         {
 4805              		.loc 1 2003 11
 4806 0198 03E0     		b	.L235
 4807              	.L237:
2009:./Libraries/STM32F4xx_HAL_Driver/Src/stm32f4xx_hal_spi.c ****         }
2010:./Libraries/STM32F4xx_HAL_Driver/Src/stm32f4xx_hal_spi.c ****       }
2011:./Libraries/STM32F4xx_HAL_Driver/Src/stm32f4xx_hal_spi.c ****       else
2012:./Libraries/STM32F4xx_HAL_Driver/Src/stm32f4xx_hal_spi.c ****       {
2013:./Libraries/STM32F4xx_HAL_Driver/Src/stm32f4xx_hal_spi.c ****         /* Call user error callback */
2014:./Libraries/STM32F4xx_HAL_Driver/Src/stm32f4xx_hal_spi.c ****         HAL_SPI_ErrorCallback(hspi);
 4808              		.loc 1 2014 9
 4809 019a 7868     		ldr	r0, [r7, #4]
 4810 019c FFF7FEFF 		bl	HAL_SPI_ErrorCallback
2015:./Libraries/STM32F4xx_HAL_Driver/Src/stm32f4xx_hal_spi.c ****       }
2016:./Libraries/STM32F4xx_HAL_Driver/Src/stm32f4xx_hal_spi.c ****     }
2017:./Libraries/STM32F4xx_HAL_Driver/Src/stm32f4xx_hal_spi.c ****     return;
 4811              		.loc 1 2017 5
 4812 01a0 FFE7     		b	.L240
 4813              	.L235:
 4814              	.L240:
 4815 01a2 00BF     		nop
 4816              	.L227:
2018:./Libraries/STM32F4xx_HAL_Driver/Src/stm32f4xx_hal_spi.c ****   }
2019:./Libraries/STM32F4xx_HAL_Driver/Src/stm32f4xx_hal_spi.c **** }
 4817              		.loc 1 2019 1
 4818 01a4 2037     		adds	r7, r7, #32
 4819              	.LCFI99:
 4820              		.cfi_def_cfa_offset 8
 4821 01a6 BD46     		mov	sp, r7
 4822              	.LCFI100:
 4823              		.cfi_def_cfa_register 13
 4824              		@ sp needed
 4825 01a8 80BD     		pop	{r7, pc}
 4826              	.L242:
 4827 01aa 00BF     		.align	2
 4828              	.L241:
 4829 01ac 00000000 		.word	SPI_DMAAbortOnError
 4830              		.cfi_endproc
 4831              	.LFE144:
 4833              		.section	.text.HAL_SPI_TxCpltCallback,"ax",%progbits
 4834              		.align	1
 4835              		.weak	HAL_SPI_TxCpltCallback
 4836              		.syntax unified
 4837              		.thumb
 4838              		.thumb_func
 4839              		.fpu fpv4-sp-d16
 4841              	HAL_SPI_TxCpltCallback:
 4842              	.LFB145:
ARM GAS  /tmp/ccits0mR.s 			page 121


2020:./Libraries/STM32F4xx_HAL_Driver/Src/stm32f4xx_hal_spi.c **** 
2021:./Libraries/STM32F4xx_HAL_Driver/Src/stm32f4xx_hal_spi.c **** /**
2022:./Libraries/STM32F4xx_HAL_Driver/Src/stm32f4xx_hal_spi.c ****   * @brief Tx Transfer completed callback.
2023:./Libraries/STM32F4xx_HAL_Driver/Src/stm32f4xx_hal_spi.c ****   * @param  hspi pointer to a SPI_HandleTypeDef structure that contains
2024:./Libraries/STM32F4xx_HAL_Driver/Src/stm32f4xx_hal_spi.c ****   *               the configuration information for SPI module.
2025:./Libraries/STM32F4xx_HAL_Driver/Src/stm32f4xx_hal_spi.c ****   * @retval None
2026:./Libraries/STM32F4xx_HAL_Driver/Src/stm32f4xx_hal_spi.c ****   */
2027:./Libraries/STM32F4xx_HAL_Driver/Src/stm32f4xx_hal_spi.c **** __weak void HAL_SPI_TxCpltCallback(SPI_HandleTypeDef *hspi)
2028:./Libraries/STM32F4xx_HAL_Driver/Src/stm32f4xx_hal_spi.c **** {
 4843              		.loc 1 2028 1
 4844              		.cfi_startproc
 4845              		@ args = 0, pretend = 0, frame = 8
 4846              		@ frame_needed = 1, uses_anonymous_args = 0
 4847              		@ link register save eliminated.
 4848 0000 80B4     		push	{r7}
 4849              	.LCFI101:
 4850              		.cfi_def_cfa_offset 4
 4851              		.cfi_offset 7, -4
 4852 0002 83B0     		sub	sp, sp, #12
 4853              	.LCFI102:
 4854              		.cfi_def_cfa_offset 16
 4855 0004 00AF     		add	r7, sp, #0
 4856              	.LCFI103:
 4857              		.cfi_def_cfa_register 7
 4858 0006 7860     		str	r0, [r7, #4]
2029:./Libraries/STM32F4xx_HAL_Driver/Src/stm32f4xx_hal_spi.c ****   /* Prevent unused argument(s) compilation warning */
2030:./Libraries/STM32F4xx_HAL_Driver/Src/stm32f4xx_hal_spi.c ****   UNUSED(hspi);
2031:./Libraries/STM32F4xx_HAL_Driver/Src/stm32f4xx_hal_spi.c ****   /* NOTE : This function should not be modified, when the callback is needed,
2032:./Libraries/STM32F4xx_HAL_Driver/Src/stm32f4xx_hal_spi.c ****             the HAL_SPI_TxCpltCallback should be implemented in the user file
2033:./Libraries/STM32F4xx_HAL_Driver/Src/stm32f4xx_hal_spi.c ****   */
2034:./Libraries/STM32F4xx_HAL_Driver/Src/stm32f4xx_hal_spi.c **** }
 4859              		.loc 1 2034 1
 4860 0008 00BF     		nop
 4861 000a 0C37     		adds	r7, r7, #12
 4862              	.LCFI104:
 4863              		.cfi_def_cfa_offset 4
 4864 000c BD46     		mov	sp, r7
 4865              	.LCFI105:
 4866              		.cfi_def_cfa_register 13
 4867              		@ sp needed
 4868 000e 5DF8047B 		ldr	r7, [sp], #4
 4869              	.LCFI106:
 4870              		.cfi_restore 7
 4871              		.cfi_def_cfa_offset 0
 4872 0012 7047     		bx	lr
 4873              		.cfi_endproc
 4874              	.LFE145:
 4876              		.section	.text.HAL_SPI_RxCpltCallback,"ax",%progbits
 4877              		.align	1
 4878              		.weak	HAL_SPI_RxCpltCallback
 4879              		.syntax unified
 4880              		.thumb
 4881              		.thumb_func
 4882              		.fpu fpv4-sp-d16
 4884              	HAL_SPI_RxCpltCallback:
 4885              	.LFB146:
2035:./Libraries/STM32F4xx_HAL_Driver/Src/stm32f4xx_hal_spi.c **** 
ARM GAS  /tmp/ccits0mR.s 			page 122


2036:./Libraries/STM32F4xx_HAL_Driver/Src/stm32f4xx_hal_spi.c **** /**
2037:./Libraries/STM32F4xx_HAL_Driver/Src/stm32f4xx_hal_spi.c ****   * @brief Rx Transfer completed callback.
2038:./Libraries/STM32F4xx_HAL_Driver/Src/stm32f4xx_hal_spi.c ****   * @param  hspi pointer to a SPI_HandleTypeDef structure that contains
2039:./Libraries/STM32F4xx_HAL_Driver/Src/stm32f4xx_hal_spi.c ****   *               the configuration information for SPI module.
2040:./Libraries/STM32F4xx_HAL_Driver/Src/stm32f4xx_hal_spi.c ****   * @retval None
2041:./Libraries/STM32F4xx_HAL_Driver/Src/stm32f4xx_hal_spi.c ****   */
2042:./Libraries/STM32F4xx_HAL_Driver/Src/stm32f4xx_hal_spi.c **** __weak void HAL_SPI_RxCpltCallback(SPI_HandleTypeDef *hspi)
2043:./Libraries/STM32F4xx_HAL_Driver/Src/stm32f4xx_hal_spi.c **** {
 4886              		.loc 1 2043 1
 4887              		.cfi_startproc
 4888              		@ args = 0, pretend = 0, frame = 8
 4889              		@ frame_needed = 1, uses_anonymous_args = 0
 4890              		@ link register save eliminated.
 4891 0000 80B4     		push	{r7}
 4892              	.LCFI107:
 4893              		.cfi_def_cfa_offset 4
 4894              		.cfi_offset 7, -4
 4895 0002 83B0     		sub	sp, sp, #12
 4896              	.LCFI108:
 4897              		.cfi_def_cfa_offset 16
 4898 0004 00AF     		add	r7, sp, #0
 4899              	.LCFI109:
 4900              		.cfi_def_cfa_register 7
 4901 0006 7860     		str	r0, [r7, #4]
2044:./Libraries/STM32F4xx_HAL_Driver/Src/stm32f4xx_hal_spi.c ****   /* Prevent unused argument(s) compilation warning */
2045:./Libraries/STM32F4xx_HAL_Driver/Src/stm32f4xx_hal_spi.c ****   UNUSED(hspi);
2046:./Libraries/STM32F4xx_HAL_Driver/Src/stm32f4xx_hal_spi.c ****   /* NOTE : This function should not be modified, when the callback is needed,
2047:./Libraries/STM32F4xx_HAL_Driver/Src/stm32f4xx_hal_spi.c ****             the HAL_SPI_RxCpltCallback should be implemented in the user file
2048:./Libraries/STM32F4xx_HAL_Driver/Src/stm32f4xx_hal_spi.c ****   */
2049:./Libraries/STM32F4xx_HAL_Driver/Src/stm32f4xx_hal_spi.c **** }
 4902              		.loc 1 2049 1
 4903 0008 00BF     		nop
 4904 000a 0C37     		adds	r7, r7, #12
 4905              	.LCFI110:
 4906              		.cfi_def_cfa_offset 4
 4907 000c BD46     		mov	sp, r7
 4908              	.LCFI111:
 4909              		.cfi_def_cfa_register 13
 4910              		@ sp needed
 4911 000e 5DF8047B 		ldr	r7, [sp], #4
 4912              	.LCFI112:
 4913              		.cfi_restore 7
 4914              		.cfi_def_cfa_offset 0
 4915 0012 7047     		bx	lr
 4916              		.cfi_endproc
 4917              	.LFE146:
 4919              		.section	.text.HAL_SPI_TxRxCpltCallback,"ax",%progbits
 4920              		.align	1
 4921              		.weak	HAL_SPI_TxRxCpltCallback
 4922              		.syntax unified
 4923              		.thumb
 4924              		.thumb_func
 4925              		.fpu fpv4-sp-d16
 4927              	HAL_SPI_TxRxCpltCallback:
 4928              	.LFB147:
2050:./Libraries/STM32F4xx_HAL_Driver/Src/stm32f4xx_hal_spi.c **** 
2051:./Libraries/STM32F4xx_HAL_Driver/Src/stm32f4xx_hal_spi.c **** /**
ARM GAS  /tmp/ccits0mR.s 			page 123


2052:./Libraries/STM32F4xx_HAL_Driver/Src/stm32f4xx_hal_spi.c ****   * @brief Tx and Rx Transfer completed callback.
2053:./Libraries/STM32F4xx_HAL_Driver/Src/stm32f4xx_hal_spi.c ****   * @param  hspi pointer to a SPI_HandleTypeDef structure that contains
2054:./Libraries/STM32F4xx_HAL_Driver/Src/stm32f4xx_hal_spi.c ****   *               the configuration information for SPI module.
2055:./Libraries/STM32F4xx_HAL_Driver/Src/stm32f4xx_hal_spi.c ****   * @retval None
2056:./Libraries/STM32F4xx_HAL_Driver/Src/stm32f4xx_hal_spi.c ****   */
2057:./Libraries/STM32F4xx_HAL_Driver/Src/stm32f4xx_hal_spi.c **** __weak void HAL_SPI_TxRxCpltCallback(SPI_HandleTypeDef *hspi)
2058:./Libraries/STM32F4xx_HAL_Driver/Src/stm32f4xx_hal_spi.c **** {
 4929              		.loc 1 2058 1
 4930              		.cfi_startproc
 4931              		@ args = 0, pretend = 0, frame = 8
 4932              		@ frame_needed = 1, uses_anonymous_args = 0
 4933              		@ link register save eliminated.
 4934 0000 80B4     		push	{r7}
 4935              	.LCFI113:
 4936              		.cfi_def_cfa_offset 4
 4937              		.cfi_offset 7, -4
 4938 0002 83B0     		sub	sp, sp, #12
 4939              	.LCFI114:
 4940              		.cfi_def_cfa_offset 16
 4941 0004 00AF     		add	r7, sp, #0
 4942              	.LCFI115:
 4943              		.cfi_def_cfa_register 7
 4944 0006 7860     		str	r0, [r7, #4]
2059:./Libraries/STM32F4xx_HAL_Driver/Src/stm32f4xx_hal_spi.c ****   /* Prevent unused argument(s) compilation warning */
2060:./Libraries/STM32F4xx_HAL_Driver/Src/stm32f4xx_hal_spi.c ****   UNUSED(hspi);
2061:./Libraries/STM32F4xx_HAL_Driver/Src/stm32f4xx_hal_spi.c ****   /* NOTE : This function should not be modified, when the callback is needed,
2062:./Libraries/STM32F4xx_HAL_Driver/Src/stm32f4xx_hal_spi.c ****             the HAL_SPI_TxRxCpltCallback should be implemented in the user file
2063:./Libraries/STM32F4xx_HAL_Driver/Src/stm32f4xx_hal_spi.c ****   */
2064:./Libraries/STM32F4xx_HAL_Driver/Src/stm32f4xx_hal_spi.c **** }
 4945              		.loc 1 2064 1
 4946 0008 00BF     		nop
 4947 000a 0C37     		adds	r7, r7, #12
 4948              	.LCFI116:
 4949              		.cfi_def_cfa_offset 4
 4950 000c BD46     		mov	sp, r7
 4951              	.LCFI117:
 4952              		.cfi_def_cfa_register 13
 4953              		@ sp needed
 4954 000e 5DF8047B 		ldr	r7, [sp], #4
 4955              	.LCFI118:
 4956              		.cfi_restore 7
 4957              		.cfi_def_cfa_offset 0
 4958 0012 7047     		bx	lr
 4959              		.cfi_endproc
 4960              	.LFE147:
 4962              		.section	.text.HAL_SPI_TxHalfCpltCallback,"ax",%progbits
 4963              		.align	1
 4964              		.weak	HAL_SPI_TxHalfCpltCallback
 4965              		.syntax unified
 4966              		.thumb
 4967              		.thumb_func
 4968              		.fpu fpv4-sp-d16
 4970              	HAL_SPI_TxHalfCpltCallback:
 4971              	.LFB148:
2065:./Libraries/STM32F4xx_HAL_Driver/Src/stm32f4xx_hal_spi.c **** 
2066:./Libraries/STM32F4xx_HAL_Driver/Src/stm32f4xx_hal_spi.c **** /**
2067:./Libraries/STM32F4xx_HAL_Driver/Src/stm32f4xx_hal_spi.c ****   * @brief Tx Half Transfer completed callback.
ARM GAS  /tmp/ccits0mR.s 			page 124


2068:./Libraries/STM32F4xx_HAL_Driver/Src/stm32f4xx_hal_spi.c ****   * @param  hspi pointer to a SPI_HandleTypeDef structure that contains
2069:./Libraries/STM32F4xx_HAL_Driver/Src/stm32f4xx_hal_spi.c ****   *               the configuration information for SPI module.
2070:./Libraries/STM32F4xx_HAL_Driver/Src/stm32f4xx_hal_spi.c ****   * @retval None
2071:./Libraries/STM32F4xx_HAL_Driver/Src/stm32f4xx_hal_spi.c ****   */
2072:./Libraries/STM32F4xx_HAL_Driver/Src/stm32f4xx_hal_spi.c **** __weak void HAL_SPI_TxHalfCpltCallback(SPI_HandleTypeDef *hspi)
2073:./Libraries/STM32F4xx_HAL_Driver/Src/stm32f4xx_hal_spi.c **** {
 4972              		.loc 1 2073 1
 4973              		.cfi_startproc
 4974              		@ args = 0, pretend = 0, frame = 8
 4975              		@ frame_needed = 1, uses_anonymous_args = 0
 4976              		@ link register save eliminated.
 4977 0000 80B4     		push	{r7}
 4978              	.LCFI119:
 4979              		.cfi_def_cfa_offset 4
 4980              		.cfi_offset 7, -4
 4981 0002 83B0     		sub	sp, sp, #12
 4982              	.LCFI120:
 4983              		.cfi_def_cfa_offset 16
 4984 0004 00AF     		add	r7, sp, #0
 4985              	.LCFI121:
 4986              		.cfi_def_cfa_register 7
 4987 0006 7860     		str	r0, [r7, #4]
2074:./Libraries/STM32F4xx_HAL_Driver/Src/stm32f4xx_hal_spi.c ****   /* Prevent unused argument(s) compilation warning */
2075:./Libraries/STM32F4xx_HAL_Driver/Src/stm32f4xx_hal_spi.c ****   UNUSED(hspi);
2076:./Libraries/STM32F4xx_HAL_Driver/Src/stm32f4xx_hal_spi.c ****   /* NOTE : This function should not be modified, when the callback is needed,
2077:./Libraries/STM32F4xx_HAL_Driver/Src/stm32f4xx_hal_spi.c ****             the HAL_SPI_TxHalfCpltCallback should be implemented in the user file
2078:./Libraries/STM32F4xx_HAL_Driver/Src/stm32f4xx_hal_spi.c ****   */
2079:./Libraries/STM32F4xx_HAL_Driver/Src/stm32f4xx_hal_spi.c **** }
 4988              		.loc 1 2079 1
 4989 0008 00BF     		nop
 4990 000a 0C37     		adds	r7, r7, #12
 4991              	.LCFI122:
 4992              		.cfi_def_cfa_offset 4
 4993 000c BD46     		mov	sp, r7
 4994              	.LCFI123:
 4995              		.cfi_def_cfa_register 13
 4996              		@ sp needed
 4997 000e 5DF8047B 		ldr	r7, [sp], #4
 4998              	.LCFI124:
 4999              		.cfi_restore 7
 5000              		.cfi_def_cfa_offset 0
 5001 0012 7047     		bx	lr
 5002              		.cfi_endproc
 5003              	.LFE148:
 5005              		.section	.text.HAL_SPI_RxHalfCpltCallback,"ax",%progbits
 5006              		.align	1
 5007              		.weak	HAL_SPI_RxHalfCpltCallback
 5008              		.syntax unified
 5009              		.thumb
 5010              		.thumb_func
 5011              		.fpu fpv4-sp-d16
 5013              	HAL_SPI_RxHalfCpltCallback:
 5014              	.LFB149:
2080:./Libraries/STM32F4xx_HAL_Driver/Src/stm32f4xx_hal_spi.c **** 
2081:./Libraries/STM32F4xx_HAL_Driver/Src/stm32f4xx_hal_spi.c **** /**
2082:./Libraries/STM32F4xx_HAL_Driver/Src/stm32f4xx_hal_spi.c ****   * @brief Rx Half Transfer completed callback.
2083:./Libraries/STM32F4xx_HAL_Driver/Src/stm32f4xx_hal_spi.c ****   * @param  hspi pointer to a SPI_HandleTypeDef structure that contains
ARM GAS  /tmp/ccits0mR.s 			page 125


2084:./Libraries/STM32F4xx_HAL_Driver/Src/stm32f4xx_hal_spi.c ****   *               the configuration information for SPI module.
2085:./Libraries/STM32F4xx_HAL_Driver/Src/stm32f4xx_hal_spi.c ****   * @retval None
2086:./Libraries/STM32F4xx_HAL_Driver/Src/stm32f4xx_hal_spi.c ****   */
2087:./Libraries/STM32F4xx_HAL_Driver/Src/stm32f4xx_hal_spi.c **** __weak void HAL_SPI_RxHalfCpltCallback(SPI_HandleTypeDef *hspi)
2088:./Libraries/STM32F4xx_HAL_Driver/Src/stm32f4xx_hal_spi.c **** {
 5015              		.loc 1 2088 1
 5016              		.cfi_startproc
 5017              		@ args = 0, pretend = 0, frame = 8
 5018              		@ frame_needed = 1, uses_anonymous_args = 0
 5019              		@ link register save eliminated.
 5020 0000 80B4     		push	{r7}
 5021              	.LCFI125:
 5022              		.cfi_def_cfa_offset 4
 5023              		.cfi_offset 7, -4
 5024 0002 83B0     		sub	sp, sp, #12
 5025              	.LCFI126:
 5026              		.cfi_def_cfa_offset 16
 5027 0004 00AF     		add	r7, sp, #0
 5028              	.LCFI127:
 5029              		.cfi_def_cfa_register 7
 5030 0006 7860     		str	r0, [r7, #4]
2089:./Libraries/STM32F4xx_HAL_Driver/Src/stm32f4xx_hal_spi.c ****   /* Prevent unused argument(s) compilation warning */
2090:./Libraries/STM32F4xx_HAL_Driver/Src/stm32f4xx_hal_spi.c ****   UNUSED(hspi);
2091:./Libraries/STM32F4xx_HAL_Driver/Src/stm32f4xx_hal_spi.c ****   /* NOTE : This function should not be modified, when the callback is needed,
2092:./Libraries/STM32F4xx_HAL_Driver/Src/stm32f4xx_hal_spi.c ****             the HAL_SPI_RxHalfCpltCallback() should be implemented in the user file
2093:./Libraries/STM32F4xx_HAL_Driver/Src/stm32f4xx_hal_spi.c ****   */
2094:./Libraries/STM32F4xx_HAL_Driver/Src/stm32f4xx_hal_spi.c **** }
 5031              		.loc 1 2094 1
 5032 0008 00BF     		nop
 5033 000a 0C37     		adds	r7, r7, #12
 5034              	.LCFI128:
 5035              		.cfi_def_cfa_offset 4
 5036 000c BD46     		mov	sp, r7
 5037              	.LCFI129:
 5038              		.cfi_def_cfa_register 13
 5039              		@ sp needed
 5040 000e 5DF8047B 		ldr	r7, [sp], #4
 5041              	.LCFI130:
 5042              		.cfi_restore 7
 5043              		.cfi_def_cfa_offset 0
 5044 0012 7047     		bx	lr
 5045              		.cfi_endproc
 5046              	.LFE149:
 5048              		.section	.text.HAL_SPI_TxRxHalfCpltCallback,"ax",%progbits
 5049              		.align	1
 5050              		.weak	HAL_SPI_TxRxHalfCpltCallback
 5051              		.syntax unified
 5052              		.thumb
 5053              		.thumb_func
 5054              		.fpu fpv4-sp-d16
 5056              	HAL_SPI_TxRxHalfCpltCallback:
 5057              	.LFB150:
2095:./Libraries/STM32F4xx_HAL_Driver/Src/stm32f4xx_hal_spi.c **** 
2096:./Libraries/STM32F4xx_HAL_Driver/Src/stm32f4xx_hal_spi.c **** /**
2097:./Libraries/STM32F4xx_HAL_Driver/Src/stm32f4xx_hal_spi.c ****   * @brief Tx and Rx Half Transfer callback.
2098:./Libraries/STM32F4xx_HAL_Driver/Src/stm32f4xx_hal_spi.c ****   * @param  hspi pointer to a SPI_HandleTypeDef structure that contains
2099:./Libraries/STM32F4xx_HAL_Driver/Src/stm32f4xx_hal_spi.c ****   *               the configuration information for SPI module.
ARM GAS  /tmp/ccits0mR.s 			page 126


2100:./Libraries/STM32F4xx_HAL_Driver/Src/stm32f4xx_hal_spi.c ****   * @retval None
2101:./Libraries/STM32F4xx_HAL_Driver/Src/stm32f4xx_hal_spi.c ****   */
2102:./Libraries/STM32F4xx_HAL_Driver/Src/stm32f4xx_hal_spi.c **** __weak void HAL_SPI_TxRxHalfCpltCallback(SPI_HandleTypeDef *hspi)
2103:./Libraries/STM32F4xx_HAL_Driver/Src/stm32f4xx_hal_spi.c **** {
 5058              		.loc 1 2103 1
 5059              		.cfi_startproc
 5060              		@ args = 0, pretend = 0, frame = 8
 5061              		@ frame_needed = 1, uses_anonymous_args = 0
 5062              		@ link register save eliminated.
 5063 0000 80B4     		push	{r7}
 5064              	.LCFI131:
 5065              		.cfi_def_cfa_offset 4
 5066              		.cfi_offset 7, -4
 5067 0002 83B0     		sub	sp, sp, #12
 5068              	.LCFI132:
 5069              		.cfi_def_cfa_offset 16
 5070 0004 00AF     		add	r7, sp, #0
 5071              	.LCFI133:
 5072              		.cfi_def_cfa_register 7
 5073 0006 7860     		str	r0, [r7, #4]
2104:./Libraries/STM32F4xx_HAL_Driver/Src/stm32f4xx_hal_spi.c ****   /* Prevent unused argument(s) compilation warning */
2105:./Libraries/STM32F4xx_HAL_Driver/Src/stm32f4xx_hal_spi.c ****   UNUSED(hspi);
2106:./Libraries/STM32F4xx_HAL_Driver/Src/stm32f4xx_hal_spi.c ****   /* NOTE : This function should not be modified, when the callback is needed,
2107:./Libraries/STM32F4xx_HAL_Driver/Src/stm32f4xx_hal_spi.c ****             the HAL_SPI_TxRxHalfCpltCallback() should be implemented in the user file
2108:./Libraries/STM32F4xx_HAL_Driver/Src/stm32f4xx_hal_spi.c ****   */
2109:./Libraries/STM32F4xx_HAL_Driver/Src/stm32f4xx_hal_spi.c **** }
 5074              		.loc 1 2109 1
 5075 0008 00BF     		nop
 5076 000a 0C37     		adds	r7, r7, #12
 5077              	.LCFI134:
 5078              		.cfi_def_cfa_offset 4
 5079 000c BD46     		mov	sp, r7
 5080              	.LCFI135:
 5081              		.cfi_def_cfa_register 13
 5082              		@ sp needed
 5083 000e 5DF8047B 		ldr	r7, [sp], #4
 5084              	.LCFI136:
 5085              		.cfi_restore 7
 5086              		.cfi_def_cfa_offset 0
 5087 0012 7047     		bx	lr
 5088              		.cfi_endproc
 5089              	.LFE150:
 5091              		.section	.text.HAL_SPI_ErrorCallback,"ax",%progbits
 5092              		.align	1
 5093              		.weak	HAL_SPI_ErrorCallback
 5094              		.syntax unified
 5095              		.thumb
 5096              		.thumb_func
 5097              		.fpu fpv4-sp-d16
 5099              	HAL_SPI_ErrorCallback:
 5100              	.LFB151:
2110:./Libraries/STM32F4xx_HAL_Driver/Src/stm32f4xx_hal_spi.c **** 
2111:./Libraries/STM32F4xx_HAL_Driver/Src/stm32f4xx_hal_spi.c **** /**
2112:./Libraries/STM32F4xx_HAL_Driver/Src/stm32f4xx_hal_spi.c ****   * @brief SPI error callback.
2113:./Libraries/STM32F4xx_HAL_Driver/Src/stm32f4xx_hal_spi.c ****   * @param  hspi pointer to a SPI_HandleTypeDef structure that contains
2114:./Libraries/STM32F4xx_HAL_Driver/Src/stm32f4xx_hal_spi.c ****   *               the configuration information for SPI module.
2115:./Libraries/STM32F4xx_HAL_Driver/Src/stm32f4xx_hal_spi.c ****   * @retval None
ARM GAS  /tmp/ccits0mR.s 			page 127


2116:./Libraries/STM32F4xx_HAL_Driver/Src/stm32f4xx_hal_spi.c ****   */
2117:./Libraries/STM32F4xx_HAL_Driver/Src/stm32f4xx_hal_spi.c ****  __weak void HAL_SPI_ErrorCallback(SPI_HandleTypeDef *hspi)
2118:./Libraries/STM32F4xx_HAL_Driver/Src/stm32f4xx_hal_spi.c **** {
 5101              		.loc 1 2118 1
 5102              		.cfi_startproc
 5103              		@ args = 0, pretend = 0, frame = 8
 5104              		@ frame_needed = 1, uses_anonymous_args = 0
 5105              		@ link register save eliminated.
 5106 0000 80B4     		push	{r7}
 5107              	.LCFI137:
 5108              		.cfi_def_cfa_offset 4
 5109              		.cfi_offset 7, -4
 5110 0002 83B0     		sub	sp, sp, #12
 5111              	.LCFI138:
 5112              		.cfi_def_cfa_offset 16
 5113 0004 00AF     		add	r7, sp, #0
 5114              	.LCFI139:
 5115              		.cfi_def_cfa_register 7
 5116 0006 7860     		str	r0, [r7, #4]
2119:./Libraries/STM32F4xx_HAL_Driver/Src/stm32f4xx_hal_spi.c ****   /* Prevent unused argument(s) compilation warning */
2120:./Libraries/STM32F4xx_HAL_Driver/Src/stm32f4xx_hal_spi.c ****   UNUSED(hspi);
2121:./Libraries/STM32F4xx_HAL_Driver/Src/stm32f4xx_hal_spi.c ****   /* NOTE : This function should not be modified, when the callback is needed,
2122:./Libraries/STM32F4xx_HAL_Driver/Src/stm32f4xx_hal_spi.c ****             the HAL_SPI_ErrorCallback should be implemented in the user file
2123:./Libraries/STM32F4xx_HAL_Driver/Src/stm32f4xx_hal_spi.c ****    */
2124:./Libraries/STM32F4xx_HAL_Driver/Src/stm32f4xx_hal_spi.c ****   /* NOTE : The ErrorCode parameter in the hspi handle is updated by the SPI processes
2125:./Libraries/STM32F4xx_HAL_Driver/Src/stm32f4xx_hal_spi.c ****             and user can use HAL_SPI_GetError() API to check the latest error occurred
2126:./Libraries/STM32F4xx_HAL_Driver/Src/stm32f4xx_hal_spi.c ****   */
2127:./Libraries/STM32F4xx_HAL_Driver/Src/stm32f4xx_hal_spi.c **** }
 5117              		.loc 1 2127 1
 5118 0008 00BF     		nop
 5119 000a 0C37     		adds	r7, r7, #12
 5120              	.LCFI140:
 5121              		.cfi_def_cfa_offset 4
 5122 000c BD46     		mov	sp, r7
 5123              	.LCFI141:
 5124              		.cfi_def_cfa_register 13
 5125              		@ sp needed
 5126 000e 5DF8047B 		ldr	r7, [sp], #4
 5127              	.LCFI142:
 5128              		.cfi_restore 7
 5129              		.cfi_def_cfa_offset 0
 5130 0012 7047     		bx	lr
 5131              		.cfi_endproc
 5132              	.LFE151:
 5134              		.section	.text.HAL_SPI_AbortCpltCallback,"ax",%progbits
 5135              		.align	1
 5136              		.weak	HAL_SPI_AbortCpltCallback
 5137              		.syntax unified
 5138              		.thumb
 5139              		.thumb_func
 5140              		.fpu fpv4-sp-d16
 5142              	HAL_SPI_AbortCpltCallback:
 5143              	.LFB152:
2128:./Libraries/STM32F4xx_HAL_Driver/Src/stm32f4xx_hal_spi.c **** 
2129:./Libraries/STM32F4xx_HAL_Driver/Src/stm32f4xx_hal_spi.c **** /**
2130:./Libraries/STM32F4xx_HAL_Driver/Src/stm32f4xx_hal_spi.c ****   * @brief  SPI Abort Complete callback.
2131:./Libraries/STM32F4xx_HAL_Driver/Src/stm32f4xx_hal_spi.c ****   * @param  hspi SPI handle.
ARM GAS  /tmp/ccits0mR.s 			page 128


2132:./Libraries/STM32F4xx_HAL_Driver/Src/stm32f4xx_hal_spi.c ****   * @retval None
2133:./Libraries/STM32F4xx_HAL_Driver/Src/stm32f4xx_hal_spi.c ****   */
2134:./Libraries/STM32F4xx_HAL_Driver/Src/stm32f4xx_hal_spi.c **** __weak void HAL_SPI_AbortCpltCallback(SPI_HandleTypeDef *hspi)
2135:./Libraries/STM32F4xx_HAL_Driver/Src/stm32f4xx_hal_spi.c **** {
 5144              		.loc 1 2135 1
 5145              		.cfi_startproc
 5146              		@ args = 0, pretend = 0, frame = 8
 5147              		@ frame_needed = 1, uses_anonymous_args = 0
 5148              		@ link register save eliminated.
 5149 0000 80B4     		push	{r7}
 5150              	.LCFI143:
 5151              		.cfi_def_cfa_offset 4
 5152              		.cfi_offset 7, -4
 5153 0002 83B0     		sub	sp, sp, #12
 5154              	.LCFI144:
 5155              		.cfi_def_cfa_offset 16
 5156 0004 00AF     		add	r7, sp, #0
 5157              	.LCFI145:
 5158              		.cfi_def_cfa_register 7
 5159 0006 7860     		str	r0, [r7, #4]
2136:./Libraries/STM32F4xx_HAL_Driver/Src/stm32f4xx_hal_spi.c ****   /* Prevent unused argument(s) compilation warning */
2137:./Libraries/STM32F4xx_HAL_Driver/Src/stm32f4xx_hal_spi.c ****   UNUSED(hspi);
2138:./Libraries/STM32F4xx_HAL_Driver/Src/stm32f4xx_hal_spi.c **** 
2139:./Libraries/STM32F4xx_HAL_Driver/Src/stm32f4xx_hal_spi.c ****   /* NOTE : This function should not be modified, when the callback is needed,
2140:./Libraries/STM32F4xx_HAL_Driver/Src/stm32f4xx_hal_spi.c ****             the HAL_SPI_AbortCpltCallback can be implemented in the user file.
2141:./Libraries/STM32F4xx_HAL_Driver/Src/stm32f4xx_hal_spi.c ****    */
2142:./Libraries/STM32F4xx_HAL_Driver/Src/stm32f4xx_hal_spi.c **** }
 5160              		.loc 1 2142 1
 5161 0008 00BF     		nop
 5162 000a 0C37     		adds	r7, r7, #12
 5163              	.LCFI146:
 5164              		.cfi_def_cfa_offset 4
 5165 000c BD46     		mov	sp, r7
 5166              	.LCFI147:
 5167              		.cfi_def_cfa_register 13
 5168              		@ sp needed
 5169 000e 5DF8047B 		ldr	r7, [sp], #4
 5170              	.LCFI148:
 5171              		.cfi_restore 7
 5172              		.cfi_def_cfa_offset 0
 5173 0012 7047     		bx	lr
 5174              		.cfi_endproc
 5175              	.LFE152:
 5177              		.section	.text.HAL_SPI_GetState,"ax",%progbits
 5178              		.align	1
 5179              		.global	HAL_SPI_GetState
 5180              		.syntax unified
 5181              		.thumb
 5182              		.thumb_func
 5183              		.fpu fpv4-sp-d16
 5185              	HAL_SPI_GetState:
 5186              	.LFB153:
2143:./Libraries/STM32F4xx_HAL_Driver/Src/stm32f4xx_hal_spi.c **** 
2144:./Libraries/STM32F4xx_HAL_Driver/Src/stm32f4xx_hal_spi.c **** /**
2145:./Libraries/STM32F4xx_HAL_Driver/Src/stm32f4xx_hal_spi.c ****   * @}
2146:./Libraries/STM32F4xx_HAL_Driver/Src/stm32f4xx_hal_spi.c ****   */
2147:./Libraries/STM32F4xx_HAL_Driver/Src/stm32f4xx_hal_spi.c **** 
ARM GAS  /tmp/ccits0mR.s 			page 129


2148:./Libraries/STM32F4xx_HAL_Driver/Src/stm32f4xx_hal_spi.c **** /** @defgroup SPI_Exported_Functions_Group3 Peripheral State and Errors functions
2149:./Libraries/STM32F4xx_HAL_Driver/Src/stm32f4xx_hal_spi.c ****   * @brief   SPI control functions
2150:./Libraries/STM32F4xx_HAL_Driver/Src/stm32f4xx_hal_spi.c ****   *
2151:./Libraries/STM32F4xx_HAL_Driver/Src/stm32f4xx_hal_spi.c **** @verbatim
2152:./Libraries/STM32F4xx_HAL_Driver/Src/stm32f4xx_hal_spi.c ****  ===============================================================================
2153:./Libraries/STM32F4xx_HAL_Driver/Src/stm32f4xx_hal_spi.c ****                       ##### Peripheral State and Errors functions #####
2154:./Libraries/STM32F4xx_HAL_Driver/Src/stm32f4xx_hal_spi.c ****  ===============================================================================
2155:./Libraries/STM32F4xx_HAL_Driver/Src/stm32f4xx_hal_spi.c ****     [..]
2156:./Libraries/STM32F4xx_HAL_Driver/Src/stm32f4xx_hal_spi.c ****     This subsection provides a set of functions allowing to control the SPI.
2157:./Libraries/STM32F4xx_HAL_Driver/Src/stm32f4xx_hal_spi.c ****      (+) HAL_SPI_GetState() API can be helpful to check in run-time the state of the SPI peripheral
2158:./Libraries/STM32F4xx_HAL_Driver/Src/stm32f4xx_hal_spi.c ****      (+) HAL_SPI_GetError() check in run-time Errors occurring during communication
2159:./Libraries/STM32F4xx_HAL_Driver/Src/stm32f4xx_hal_spi.c **** @endverbatim
2160:./Libraries/STM32F4xx_HAL_Driver/Src/stm32f4xx_hal_spi.c ****   * @{
2161:./Libraries/STM32F4xx_HAL_Driver/Src/stm32f4xx_hal_spi.c ****   */
2162:./Libraries/STM32F4xx_HAL_Driver/Src/stm32f4xx_hal_spi.c **** 
2163:./Libraries/STM32F4xx_HAL_Driver/Src/stm32f4xx_hal_spi.c **** /**
2164:./Libraries/STM32F4xx_HAL_Driver/Src/stm32f4xx_hal_spi.c ****   * @brief  Return the SPI handle state.
2165:./Libraries/STM32F4xx_HAL_Driver/Src/stm32f4xx_hal_spi.c ****   * @param  hspi pointer to a SPI_HandleTypeDef structure that contains
2166:./Libraries/STM32F4xx_HAL_Driver/Src/stm32f4xx_hal_spi.c ****   *               the configuration information for SPI module.
2167:./Libraries/STM32F4xx_HAL_Driver/Src/stm32f4xx_hal_spi.c ****   * @retval SPI state
2168:./Libraries/STM32F4xx_HAL_Driver/Src/stm32f4xx_hal_spi.c ****   */
2169:./Libraries/STM32F4xx_HAL_Driver/Src/stm32f4xx_hal_spi.c **** HAL_SPI_StateTypeDef HAL_SPI_GetState(SPI_HandleTypeDef *hspi)
2170:./Libraries/STM32F4xx_HAL_Driver/Src/stm32f4xx_hal_spi.c **** {
 5187              		.loc 1 2170 1
 5188              		.cfi_startproc
 5189              		@ args = 0, pretend = 0, frame = 8
 5190              		@ frame_needed = 1, uses_anonymous_args = 0
 5191              		@ link register save eliminated.
 5192 0000 80B4     		push	{r7}
 5193              	.LCFI149:
 5194              		.cfi_def_cfa_offset 4
 5195              		.cfi_offset 7, -4
 5196 0002 83B0     		sub	sp, sp, #12
 5197              	.LCFI150:
 5198              		.cfi_def_cfa_offset 16
 5199 0004 00AF     		add	r7, sp, #0
 5200              	.LCFI151:
 5201              		.cfi_def_cfa_register 7
 5202 0006 7860     		str	r0, [r7, #4]
2171:./Libraries/STM32F4xx_HAL_Driver/Src/stm32f4xx_hal_spi.c ****   /* Return SPI handle state */
2172:./Libraries/STM32F4xx_HAL_Driver/Src/stm32f4xx_hal_spi.c ****   return hspi->State;
 5203              		.loc 1 2172 14
 5204 0008 7B68     		ldr	r3, [r7, #4]
 5205 000a 93F85130 		ldrb	r3, [r3, #81]
 5206 000e DBB2     		uxtb	r3, r3
2173:./Libraries/STM32F4xx_HAL_Driver/Src/stm32f4xx_hal_spi.c **** }
 5207              		.loc 1 2173 1
 5208 0010 1846     		mov	r0, r3
 5209 0012 0C37     		adds	r7, r7, #12
 5210              	.LCFI152:
 5211              		.cfi_def_cfa_offset 4
 5212 0014 BD46     		mov	sp, r7
 5213              	.LCFI153:
 5214              		.cfi_def_cfa_register 13
 5215              		@ sp needed
 5216 0016 5DF8047B 		ldr	r7, [sp], #4
 5217              	.LCFI154:
ARM GAS  /tmp/ccits0mR.s 			page 130


 5218              		.cfi_restore 7
 5219              		.cfi_def_cfa_offset 0
 5220 001a 7047     		bx	lr
 5221              		.cfi_endproc
 5222              	.LFE153:
 5224              		.section	.text.HAL_SPI_GetError,"ax",%progbits
 5225              		.align	1
 5226              		.global	HAL_SPI_GetError
 5227              		.syntax unified
 5228              		.thumb
 5229              		.thumb_func
 5230              		.fpu fpv4-sp-d16
 5232              	HAL_SPI_GetError:
 5233              	.LFB154:
2174:./Libraries/STM32F4xx_HAL_Driver/Src/stm32f4xx_hal_spi.c **** 
2175:./Libraries/STM32F4xx_HAL_Driver/Src/stm32f4xx_hal_spi.c **** /**
2176:./Libraries/STM32F4xx_HAL_Driver/Src/stm32f4xx_hal_spi.c ****   * @brief  Return the SPI error code.
2177:./Libraries/STM32F4xx_HAL_Driver/Src/stm32f4xx_hal_spi.c ****   * @param  hspi pointer to a SPI_HandleTypeDef structure that contains
2178:./Libraries/STM32F4xx_HAL_Driver/Src/stm32f4xx_hal_spi.c ****   *               the configuration information for SPI module.
2179:./Libraries/STM32F4xx_HAL_Driver/Src/stm32f4xx_hal_spi.c ****   * @retval SPI error code in bitmap format
2180:./Libraries/STM32F4xx_HAL_Driver/Src/stm32f4xx_hal_spi.c ****   */
2181:./Libraries/STM32F4xx_HAL_Driver/Src/stm32f4xx_hal_spi.c **** uint32_t HAL_SPI_GetError(SPI_HandleTypeDef *hspi)
2182:./Libraries/STM32F4xx_HAL_Driver/Src/stm32f4xx_hal_spi.c **** {
 5234              		.loc 1 2182 1
 5235              		.cfi_startproc
 5236              		@ args = 0, pretend = 0, frame = 8
 5237              		@ frame_needed = 1, uses_anonymous_args = 0
 5238              		@ link register save eliminated.
 5239 0000 80B4     		push	{r7}
 5240              	.LCFI155:
 5241              		.cfi_def_cfa_offset 4
 5242              		.cfi_offset 7, -4
 5243 0002 83B0     		sub	sp, sp, #12
 5244              	.LCFI156:
 5245              		.cfi_def_cfa_offset 16
 5246 0004 00AF     		add	r7, sp, #0
 5247              	.LCFI157:
 5248              		.cfi_def_cfa_register 7
 5249 0006 7860     		str	r0, [r7, #4]
2183:./Libraries/STM32F4xx_HAL_Driver/Src/stm32f4xx_hal_spi.c ****   /* Return SPI ErrorCode */
2184:./Libraries/STM32F4xx_HAL_Driver/Src/stm32f4xx_hal_spi.c ****   return hspi->ErrorCode;
 5250              		.loc 1 2184 14
 5251 0008 7B68     		ldr	r3, [r7, #4]
 5252 000a 5B6D     		ldr	r3, [r3, #84]
2185:./Libraries/STM32F4xx_HAL_Driver/Src/stm32f4xx_hal_spi.c **** }
 5253              		.loc 1 2185 1
 5254 000c 1846     		mov	r0, r3
 5255 000e 0C37     		adds	r7, r7, #12
 5256              	.LCFI158:
 5257              		.cfi_def_cfa_offset 4
 5258 0010 BD46     		mov	sp, r7
 5259              	.LCFI159:
 5260              		.cfi_def_cfa_register 13
 5261              		@ sp needed
 5262 0012 5DF8047B 		ldr	r7, [sp], #4
 5263              	.LCFI160:
 5264              		.cfi_restore 7
ARM GAS  /tmp/ccits0mR.s 			page 131


 5265              		.cfi_def_cfa_offset 0
 5266 0016 7047     		bx	lr
 5267              		.cfi_endproc
 5268              	.LFE154:
 5270              		.section	.text.SPI_DMATransmitCplt,"ax",%progbits
 5271              		.align	1
 5272              		.syntax unified
 5273              		.thumb
 5274              		.thumb_func
 5275              		.fpu fpv4-sp-d16
 5277              	SPI_DMATransmitCplt:
 5278              	.LFB155:
2186:./Libraries/STM32F4xx_HAL_Driver/Src/stm32f4xx_hal_spi.c **** 
2187:./Libraries/STM32F4xx_HAL_Driver/Src/stm32f4xx_hal_spi.c **** /**
2188:./Libraries/STM32F4xx_HAL_Driver/Src/stm32f4xx_hal_spi.c ****   * @}
2189:./Libraries/STM32F4xx_HAL_Driver/Src/stm32f4xx_hal_spi.c ****   */
2190:./Libraries/STM32F4xx_HAL_Driver/Src/stm32f4xx_hal_spi.c **** 
2191:./Libraries/STM32F4xx_HAL_Driver/Src/stm32f4xx_hal_spi.c **** /**
2192:./Libraries/STM32F4xx_HAL_Driver/Src/stm32f4xx_hal_spi.c ****   * @}
2193:./Libraries/STM32F4xx_HAL_Driver/Src/stm32f4xx_hal_spi.c ****   */
2194:./Libraries/STM32F4xx_HAL_Driver/Src/stm32f4xx_hal_spi.c **** 
2195:./Libraries/STM32F4xx_HAL_Driver/Src/stm32f4xx_hal_spi.c **** /** @addtogroup SPI_Private_Functions
2196:./Libraries/STM32F4xx_HAL_Driver/Src/stm32f4xx_hal_spi.c ****   * @brief   Private functions
2197:./Libraries/STM32F4xx_HAL_Driver/Src/stm32f4xx_hal_spi.c ****   * @{
2198:./Libraries/STM32F4xx_HAL_Driver/Src/stm32f4xx_hal_spi.c ****   */
2199:./Libraries/STM32F4xx_HAL_Driver/Src/stm32f4xx_hal_spi.c **** 
2200:./Libraries/STM32F4xx_HAL_Driver/Src/stm32f4xx_hal_spi.c **** /**
2201:./Libraries/STM32F4xx_HAL_Driver/Src/stm32f4xx_hal_spi.c ****   * @brief DMA SPI transmit process complete callback.
2202:./Libraries/STM32F4xx_HAL_Driver/Src/stm32f4xx_hal_spi.c ****   * @param  hdma pointer to a DMA_HandleTypeDef structure that contains
2203:./Libraries/STM32F4xx_HAL_Driver/Src/stm32f4xx_hal_spi.c ****   *               the configuration information for the specified DMA module.
2204:./Libraries/STM32F4xx_HAL_Driver/Src/stm32f4xx_hal_spi.c ****   * @retval None
2205:./Libraries/STM32F4xx_HAL_Driver/Src/stm32f4xx_hal_spi.c ****   */
2206:./Libraries/STM32F4xx_HAL_Driver/Src/stm32f4xx_hal_spi.c **** static void SPI_DMATransmitCplt(DMA_HandleTypeDef *hdma)
2207:./Libraries/STM32F4xx_HAL_Driver/Src/stm32f4xx_hal_spi.c **** {
 5279              		.loc 1 2207 1
 5280              		.cfi_startproc
 5281              		@ args = 0, pretend = 0, frame = 24
 5282              		@ frame_needed = 1, uses_anonymous_args = 0
 5283 0000 80B5     		push	{r7, lr}
 5284              	.LCFI161:
 5285              		.cfi_def_cfa_offset 8
 5286              		.cfi_offset 7, -8
 5287              		.cfi_offset 14, -4
 5288 0002 86B0     		sub	sp, sp, #24
 5289              	.LCFI162:
 5290              		.cfi_def_cfa_offset 32
 5291 0004 00AF     		add	r7, sp, #0
 5292              	.LCFI163:
 5293              		.cfi_def_cfa_register 7
 5294 0006 7860     		str	r0, [r7, #4]
2208:./Libraries/STM32F4xx_HAL_Driver/Src/stm32f4xx_hal_spi.c ****   SPI_HandleTypeDef* hspi = ( SPI_HandleTypeDef* )((DMA_HandleTypeDef* )hdma)->Parent;
 5295              		.loc 1 2208 22
 5296 0008 7B68     		ldr	r3, [r7, #4]
 5297 000a 9B6B     		ldr	r3, [r3, #56]
 5298 000c 7B61     		str	r3, [r7, #20]
2209:./Libraries/STM32F4xx_HAL_Driver/Src/stm32f4xx_hal_spi.c ****   uint32_t tickstart = 0U;
 5299              		.loc 1 2209 12
ARM GAS  /tmp/ccits0mR.s 			page 132


 5300 000e 0023     		movs	r3, #0
 5301 0010 3B61     		str	r3, [r7, #16]
2210:./Libraries/STM32F4xx_HAL_Driver/Src/stm32f4xx_hal_spi.c **** 
2211:./Libraries/STM32F4xx_HAL_Driver/Src/stm32f4xx_hal_spi.c ****   /* Init tickstart for timeout managment*/
2212:./Libraries/STM32F4xx_HAL_Driver/Src/stm32f4xx_hal_spi.c ****   tickstart = HAL_GetTick();
 5302              		.loc 1 2212 15
 5303 0012 FFF7FEFF 		bl	HAL_GetTick
 5304 0016 3861     		str	r0, [r7, #16]
2213:./Libraries/STM32F4xx_HAL_Driver/Src/stm32f4xx_hal_spi.c **** 
2214:./Libraries/STM32F4xx_HAL_Driver/Src/stm32f4xx_hal_spi.c ****   /* DMA Normal Mode */
2215:./Libraries/STM32F4xx_HAL_Driver/Src/stm32f4xx_hal_spi.c ****   if((hdma->Instance->CR & DMA_SxCR_CIRC) == 0U)
 5305              		.loc 1 2215 11
 5306 0018 7B68     		ldr	r3, [r7, #4]
 5307 001a 1B68     		ldr	r3, [r3]
 5308              		.loc 1 2215 21
 5309 001c 1B68     		ldr	r3, [r3]
 5310              		.loc 1 2215 26
 5311 001e 03F48073 		and	r3, r3, #256
 5312              		.loc 1 2215 5
 5313 0022 002B     		cmp	r3, #0
 5314 0024 33D1     		bne	.L256
2216:./Libraries/STM32F4xx_HAL_Driver/Src/stm32f4xx_hal_spi.c ****   {
2217:./Libraries/STM32F4xx_HAL_Driver/Src/stm32f4xx_hal_spi.c ****     /* Disable Tx DMA Request */
2218:./Libraries/STM32F4xx_HAL_Driver/Src/stm32f4xx_hal_spi.c ****     CLEAR_BIT(hspi->Instance->CR2, SPI_CR2_TXDMAEN);
 5315              		.loc 1 2218 5
 5316 0026 7B69     		ldr	r3, [r7, #20]
 5317 0028 1B68     		ldr	r3, [r3]
 5318 002a 5A68     		ldr	r2, [r3, #4]
 5319 002c 7B69     		ldr	r3, [r7, #20]
 5320 002e 1B68     		ldr	r3, [r3]
 5321 0030 22F00202 		bic	r2, r2, #2
 5322 0034 5A60     		str	r2, [r3, #4]
2219:./Libraries/STM32F4xx_HAL_Driver/Src/stm32f4xx_hal_spi.c **** 
2220:./Libraries/STM32F4xx_HAL_Driver/Src/stm32f4xx_hal_spi.c ****     /* Check the end of the transaction */
2221:./Libraries/STM32F4xx_HAL_Driver/Src/stm32f4xx_hal_spi.c ****     if(SPI_CheckFlag_BSY(hspi, SPI_DEFAULT_TIMEOUT, tickstart) != HAL_OK)
 5323              		.loc 1 2221 8
 5324 0036 3A69     		ldr	r2, [r7, #16]
 5325 0038 6421     		movs	r1, #100
 5326 003a 7869     		ldr	r0, [r7, #20]
 5327 003c FFF7FEFF 		bl	SPI_CheckFlag_BSY
 5328 0040 0346     		mov	r3, r0
 5329              		.loc 1 2221 7
 5330 0042 002B     		cmp	r3, #0
 5331 0044 05D0     		beq	.L257
2222:./Libraries/STM32F4xx_HAL_Driver/Src/stm32f4xx_hal_spi.c ****     {
2223:./Libraries/STM32F4xx_HAL_Driver/Src/stm32f4xx_hal_spi.c ****       SET_BIT(hspi->ErrorCode, HAL_SPI_ERROR_FLAG);
 5332              		.loc 1 2223 7
 5333 0046 7B69     		ldr	r3, [r7, #20]
 5334 0048 5B6D     		ldr	r3, [r3, #84]
 5335 004a 43F02002 		orr	r2, r3, #32
 5336 004e 7B69     		ldr	r3, [r7, #20]
 5337 0050 5A65     		str	r2, [r3, #84]
 5338              	.L257:
2224:./Libraries/STM32F4xx_HAL_Driver/Src/stm32f4xx_hal_spi.c ****     }
2225:./Libraries/STM32F4xx_HAL_Driver/Src/stm32f4xx_hal_spi.c **** 
2226:./Libraries/STM32F4xx_HAL_Driver/Src/stm32f4xx_hal_spi.c ****     /* Clear overrun flag in 2 Lines communication mode because received data is not read */
2227:./Libraries/STM32F4xx_HAL_Driver/Src/stm32f4xx_hal_spi.c ****     if(hspi->Init.Direction == SPI_DIRECTION_2LINES)
ARM GAS  /tmp/ccits0mR.s 			page 133


 5339              		.loc 1 2227 18
 5340 0052 7B69     		ldr	r3, [r7, #20]
 5341 0054 9B68     		ldr	r3, [r3, #8]
 5342              		.loc 1 2227 7
 5343 0056 002B     		cmp	r3, #0
 5344 0058 0AD1     		bne	.L258
 5345              	.LBB12:
2228:./Libraries/STM32F4xx_HAL_Driver/Src/stm32f4xx_hal_spi.c ****     {
2229:./Libraries/STM32F4xx_HAL_Driver/Src/stm32f4xx_hal_spi.c ****       __HAL_SPI_CLEAR_OVRFLAG(hspi);
 5346              		.loc 1 2229 7
 5347 005a 0023     		movs	r3, #0
 5348 005c FB60     		str	r3, [r7, #12]
 5349 005e 7B69     		ldr	r3, [r7, #20]
 5350 0060 1B68     		ldr	r3, [r3]
 5351 0062 DB68     		ldr	r3, [r3, #12]
 5352 0064 FB60     		str	r3, [r7, #12]
 5353 0066 7B69     		ldr	r3, [r7, #20]
 5354 0068 1B68     		ldr	r3, [r3]
 5355 006a 9B68     		ldr	r3, [r3, #8]
 5356 006c FB60     		str	r3, [r7, #12]
 5357 006e FB68     		ldr	r3, [r7, #12]
 5358              	.L258:
 5359              	.LBE12:
2230:./Libraries/STM32F4xx_HAL_Driver/Src/stm32f4xx_hal_spi.c ****     }
2231:./Libraries/STM32F4xx_HAL_Driver/Src/stm32f4xx_hal_spi.c **** 
2232:./Libraries/STM32F4xx_HAL_Driver/Src/stm32f4xx_hal_spi.c ****     hspi->TxXferCount = 0U;
 5360              		.loc 1 2232 23
 5361 0070 7B69     		ldr	r3, [r7, #20]
 5362 0072 0022     		movs	r2, #0
 5363 0074 DA86     		strh	r2, [r3, #54]	@ movhi
2233:./Libraries/STM32F4xx_HAL_Driver/Src/stm32f4xx_hal_spi.c ****     hspi->State = HAL_SPI_STATE_READY;
 5364              		.loc 1 2233 17
 5365 0076 7B69     		ldr	r3, [r7, #20]
 5366 0078 0122     		movs	r2, #1
 5367 007a 83F85120 		strb	r2, [r3, #81]
2234:./Libraries/STM32F4xx_HAL_Driver/Src/stm32f4xx_hal_spi.c **** 
2235:./Libraries/STM32F4xx_HAL_Driver/Src/stm32f4xx_hal_spi.c ****     if(hspi->ErrorCode != HAL_SPI_ERROR_NONE)
 5368              		.loc 1 2235 12
 5369 007e 7B69     		ldr	r3, [r7, #20]
 5370 0080 5B6D     		ldr	r3, [r3, #84]
 5371              		.loc 1 2235 7
 5372 0082 002B     		cmp	r3, #0
 5373 0084 03D0     		beq	.L256
2236:./Libraries/STM32F4xx_HAL_Driver/Src/stm32f4xx_hal_spi.c ****     {
2237:./Libraries/STM32F4xx_HAL_Driver/Src/stm32f4xx_hal_spi.c ****       HAL_SPI_ErrorCallback(hspi);
 5374              		.loc 1 2237 7
 5375 0086 7869     		ldr	r0, [r7, #20]
 5376 0088 FFF7FEFF 		bl	HAL_SPI_ErrorCallback
2238:./Libraries/STM32F4xx_HAL_Driver/Src/stm32f4xx_hal_spi.c ****       return;
 5377              		.loc 1 2238 7
 5378 008c 02E0     		b	.L255
 5379              	.L256:
2239:./Libraries/STM32F4xx_HAL_Driver/Src/stm32f4xx_hal_spi.c ****     }
2240:./Libraries/STM32F4xx_HAL_Driver/Src/stm32f4xx_hal_spi.c ****   }
2241:./Libraries/STM32F4xx_HAL_Driver/Src/stm32f4xx_hal_spi.c ****   HAL_SPI_TxCpltCallback(hspi);
 5380              		.loc 1 2241 3
 5381 008e 7869     		ldr	r0, [r7, #20]
ARM GAS  /tmp/ccits0mR.s 			page 134


 5382 0090 FFF7FEFF 		bl	HAL_SPI_TxCpltCallback
 5383              	.L255:
2242:./Libraries/STM32F4xx_HAL_Driver/Src/stm32f4xx_hal_spi.c **** }
 5384              		.loc 1 2242 1
 5385 0094 1837     		adds	r7, r7, #24
 5386              	.LCFI164:
 5387              		.cfi_def_cfa_offset 8
 5388 0096 BD46     		mov	sp, r7
 5389              	.LCFI165:
 5390              		.cfi_def_cfa_register 13
 5391              		@ sp needed
 5392 0098 80BD     		pop	{r7, pc}
 5393              		.cfi_endproc
 5394              	.LFE155:
 5396              		.section	.text.SPI_DMAReceiveCplt,"ax",%progbits
 5397              		.align	1
 5398              		.syntax unified
 5399              		.thumb
 5400              		.thumb_func
 5401              		.fpu fpv4-sp-d16
 5403              	SPI_DMAReceiveCplt:
 5404              	.LFB156:
2243:./Libraries/STM32F4xx_HAL_Driver/Src/stm32f4xx_hal_spi.c **** 
2244:./Libraries/STM32F4xx_HAL_Driver/Src/stm32f4xx_hal_spi.c **** /**
2245:./Libraries/STM32F4xx_HAL_Driver/Src/stm32f4xx_hal_spi.c ****   * @brief DMA SPI receive process complete callback.
2246:./Libraries/STM32F4xx_HAL_Driver/Src/stm32f4xx_hal_spi.c ****   * @param  hdma pointer to a DMA_HandleTypeDef structure that contains
2247:./Libraries/STM32F4xx_HAL_Driver/Src/stm32f4xx_hal_spi.c ****   *               the configuration information for the specified DMA module.
2248:./Libraries/STM32F4xx_HAL_Driver/Src/stm32f4xx_hal_spi.c ****   * @retval None
2249:./Libraries/STM32F4xx_HAL_Driver/Src/stm32f4xx_hal_spi.c ****   */
2250:./Libraries/STM32F4xx_HAL_Driver/Src/stm32f4xx_hal_spi.c **** static void SPI_DMAReceiveCplt(DMA_HandleTypeDef *hdma)
2251:./Libraries/STM32F4xx_HAL_Driver/Src/stm32f4xx_hal_spi.c **** {
 5405              		.loc 1 2251 1
 5406              		.cfi_startproc
 5407              		@ args = 0, pretend = 0, frame = 24
 5408              		@ frame_needed = 1, uses_anonymous_args = 0
 5409 0000 80B5     		push	{r7, lr}
 5410              	.LCFI166:
 5411              		.cfi_def_cfa_offset 8
 5412              		.cfi_offset 7, -8
 5413              		.cfi_offset 14, -4
 5414 0002 88B0     		sub	sp, sp, #32
 5415              	.LCFI167:
 5416              		.cfi_def_cfa_offset 40
 5417 0004 02AF     		add	r7, sp, #8
 5418              	.LCFI168:
 5419              		.cfi_def_cfa 7, 32
 5420 0006 7860     		str	r0, [r7, #4]
2252:./Libraries/STM32F4xx_HAL_Driver/Src/stm32f4xx_hal_spi.c ****   SPI_HandleTypeDef* hspi = ( SPI_HandleTypeDef* )((DMA_HandleTypeDef* )hdma)->Parent;
 5421              		.loc 1 2252 22
 5422 0008 7B68     		ldr	r3, [r7, #4]
 5423 000a 9B6B     		ldr	r3, [r3, #56]
 5424 000c 7B61     		str	r3, [r7, #20]
2253:./Libraries/STM32F4xx_HAL_Driver/Src/stm32f4xx_hal_spi.c **** #if (USE_SPI_CRC != 0U)
2254:./Libraries/STM32F4xx_HAL_Driver/Src/stm32f4xx_hal_spi.c ****   uint32_t tickstart = 0U;
 5425              		.loc 1 2254 12
 5426 000e 0023     		movs	r3, #0
 5427 0010 3B61     		str	r3, [r7, #16]
ARM GAS  /tmp/ccits0mR.s 			page 135


2255:./Libraries/STM32F4xx_HAL_Driver/Src/stm32f4xx_hal_spi.c ****   __IO uint16_t tmpreg = 0U;
 5428              		.loc 1 2255 17
 5429 0012 0023     		movs	r3, #0
 5430 0014 FB81     		strh	r3, [r7, #14]	@ movhi
2256:./Libraries/STM32F4xx_HAL_Driver/Src/stm32f4xx_hal_spi.c **** 
2257:./Libraries/STM32F4xx_HAL_Driver/Src/stm32f4xx_hal_spi.c ****   /* Init tickstart for timeout management*/
2258:./Libraries/STM32F4xx_HAL_Driver/Src/stm32f4xx_hal_spi.c ****   tickstart = HAL_GetTick();
 5431              		.loc 1 2258 15
 5432 0016 FFF7FEFF 		bl	HAL_GetTick
 5433 001a 3861     		str	r0, [r7, #16]
2259:./Libraries/STM32F4xx_HAL_Driver/Src/stm32f4xx_hal_spi.c **** #endif /* USE_SPI_CRC */
2260:./Libraries/STM32F4xx_HAL_Driver/Src/stm32f4xx_hal_spi.c ****  
2261:./Libraries/STM32F4xx_HAL_Driver/Src/stm32f4xx_hal_spi.c ****   if((hdma->Instance->CR & DMA_SxCR_CIRC) == 0U)
 5434              		.loc 1 2261 11
 5435 001c 7B68     		ldr	r3, [r7, #4]
 5436 001e 1B68     		ldr	r3, [r3]
 5437              		.loc 1 2261 21
 5438 0020 1B68     		ldr	r3, [r3]
 5439              		.loc 1 2261 26
 5440 0022 03F48073 		and	r3, r3, #256
 5441              		.loc 1 2261 5
 5442 0026 002B     		cmp	r3, #0
 5443 0028 5BD1     		bne	.L261
2262:./Libraries/STM32F4xx_HAL_Driver/Src/stm32f4xx_hal_spi.c ****   {
2263:./Libraries/STM32F4xx_HAL_Driver/Src/stm32f4xx_hal_spi.c **** #if (USE_SPI_CRC != 0U)
2264:./Libraries/STM32F4xx_HAL_Driver/Src/stm32f4xx_hal_spi.c ****     /* CRC handling */
2265:./Libraries/STM32F4xx_HAL_Driver/Src/stm32f4xx_hal_spi.c ****     if(hspi->Init.CRCCalculation == SPI_CRCCALCULATION_ENABLE)
 5444              		.loc 1 2265 18
 5445 002a 7B69     		ldr	r3, [r7, #20]
 5446 002c 9B6A     		ldr	r3, [r3, #40]
 5447              		.loc 1 2265 7
 5448 002e B3F5005F 		cmp	r3, #8192
 5449 0032 16D1     		bne	.L262
2266:./Libraries/STM32F4xx_HAL_Driver/Src/stm32f4xx_hal_spi.c ****     {
2267:./Libraries/STM32F4xx_HAL_Driver/Src/stm32f4xx_hal_spi.c ****       /* Wait until RXNE flag */
2268:./Libraries/STM32F4xx_HAL_Driver/Src/stm32f4xx_hal_spi.c ****       if(SPI_WaitFlagStateUntilTimeout(hspi, SPI_FLAG_RXNE, SPI_FLAG_RXNE, SPI_DEFAULT_TIMEOUT, tic
 5450              		.loc 1 2268 10
 5451 0034 3B69     		ldr	r3, [r7, #16]
 5452 0036 0093     		str	r3, [sp]
 5453 0038 6423     		movs	r3, #100
 5454 003a 0122     		movs	r2, #1
 5455 003c 0121     		movs	r1, #1
 5456 003e 7869     		ldr	r0, [r7, #20]
 5457 0040 FFF7FEFF 		bl	SPI_WaitFlagStateUntilTimeout
 5458 0044 0346     		mov	r3, r0
 5459              		.loc 1 2268 9
 5460 0046 002B     		cmp	r3, #0
 5461 0048 05D0     		beq	.L263
2269:./Libraries/STM32F4xx_HAL_Driver/Src/stm32f4xx_hal_spi.c ****       {
2270:./Libraries/STM32F4xx_HAL_Driver/Src/stm32f4xx_hal_spi.c ****         /* Error on the CRC reception */
2271:./Libraries/STM32F4xx_HAL_Driver/Src/stm32f4xx_hal_spi.c ****         SET_BIT(hspi->ErrorCode, HAL_SPI_ERROR_CRC);
 5462              		.loc 1 2271 9
 5463 004a 7B69     		ldr	r3, [r7, #20]
 5464 004c 5B6D     		ldr	r3, [r3, #84]
 5465 004e 43F00202 		orr	r2, r3, #2
 5466 0052 7B69     		ldr	r3, [r7, #20]
 5467 0054 5A65     		str	r2, [r3, #84]
ARM GAS  /tmp/ccits0mR.s 			page 136


 5468              	.L263:
2272:./Libraries/STM32F4xx_HAL_Driver/Src/stm32f4xx_hal_spi.c ****       }
2273:./Libraries/STM32F4xx_HAL_Driver/Src/stm32f4xx_hal_spi.c ****       /* Read CRC */
2274:./Libraries/STM32F4xx_HAL_Driver/Src/stm32f4xx_hal_spi.c ****       tmpreg = hspi->Instance->DR;
 5469              		.loc 1 2274 20
 5470 0056 7B69     		ldr	r3, [r7, #20]
 5471 0058 1B68     		ldr	r3, [r3]
 5472              		.loc 1 2274 30
 5473 005a DB68     		ldr	r3, [r3, #12]
 5474              		.loc 1 2274 14
 5475 005c 9BB2     		uxth	r3, r3
 5476 005e FB81     		strh	r3, [r7, #14]	@ movhi
2275:./Libraries/STM32F4xx_HAL_Driver/Src/stm32f4xx_hal_spi.c ****       /* To avoid GCC warning */
2276:./Libraries/STM32F4xx_HAL_Driver/Src/stm32f4xx_hal_spi.c ****       UNUSED(tmpreg);
 5477              		.loc 1 2276 7
 5478 0060 FB89     		ldrh	r3, [r7, #14]	@ movhi
 5479              	.L262:
2277:./Libraries/STM32F4xx_HAL_Driver/Src/stm32f4xx_hal_spi.c ****     }
2278:./Libraries/STM32F4xx_HAL_Driver/Src/stm32f4xx_hal_spi.c **** #endif /* USE_SPI_CRC */
2279:./Libraries/STM32F4xx_HAL_Driver/Src/stm32f4xx_hal_spi.c **** 
2280:./Libraries/STM32F4xx_HAL_Driver/Src/stm32f4xx_hal_spi.c ****     /* Disable Rx/Tx DMA Request (done by default to handle the case master rx direction 2 lines) *
2281:./Libraries/STM32F4xx_HAL_Driver/Src/stm32f4xx_hal_spi.c ****     CLEAR_BIT(hspi->Instance->CR2, SPI_CR2_TXDMAEN | SPI_CR2_RXDMAEN);
 5480              		.loc 1 2281 5
 5481 0062 7B69     		ldr	r3, [r7, #20]
 5482 0064 1B68     		ldr	r3, [r3]
 5483 0066 5A68     		ldr	r2, [r3, #4]
 5484 0068 7B69     		ldr	r3, [r7, #20]
 5485 006a 1B68     		ldr	r3, [r3]
 5486 006c 22F00302 		bic	r2, r2, #3
 5487 0070 5A60     		str	r2, [r3, #4]
2282:./Libraries/STM32F4xx_HAL_Driver/Src/stm32f4xx_hal_spi.c **** 
2283:./Libraries/STM32F4xx_HAL_Driver/Src/stm32f4xx_hal_spi.c ****     /* Check the end of the transaction */
2284:./Libraries/STM32F4xx_HAL_Driver/Src/stm32f4xx_hal_spi.c ****     if((hspi->Init.Mode == SPI_MODE_MASTER)&&((hspi->Init.Direction == SPI_DIRECTION_1LINE)||(hspi-
 5488              		.loc 1 2284 19
 5489 0072 7B69     		ldr	r3, [r7, #20]
 5490 0074 5B68     		ldr	r3, [r3, #4]
 5491              		.loc 1 2284 7
 5492 0076 B3F5827F 		cmp	r3, #260
 5493 007a 11D1     		bne	.L264
 5494              		.loc 1 2284 58 discriminator 1
 5495 007c 7B69     		ldr	r3, [r7, #20]
 5496 007e 9B68     		ldr	r3, [r3, #8]
 5497              		.loc 1 2284 44 discriminator 1
 5498 0080 B3F5004F 		cmp	r3, #32768
 5499 0084 04D0     		beq	.L265
 5500              		.loc 1 2284 105 discriminator 2
 5501 0086 7B69     		ldr	r3, [r7, #20]
 5502 0088 9B68     		ldr	r3, [r3, #8]
 5503              		.loc 1 2284 92 discriminator 2
 5504 008a B3F5806F 		cmp	r3, #1024
 5505 008e 07D1     		bne	.L264
 5506              	.L265:
2285:./Libraries/STM32F4xx_HAL_Driver/Src/stm32f4xx_hal_spi.c ****     {
2286:./Libraries/STM32F4xx_HAL_Driver/Src/stm32f4xx_hal_spi.c ****       /* Disable SPI peripheral */
2287:./Libraries/STM32F4xx_HAL_Driver/Src/stm32f4xx_hal_spi.c ****       __HAL_SPI_DISABLE(hspi);
 5507              		.loc 1 2287 7
 5508 0090 7B69     		ldr	r3, [r7, #20]
ARM GAS  /tmp/ccits0mR.s 			page 137


 5509 0092 1B68     		ldr	r3, [r3]
 5510 0094 1A68     		ldr	r2, [r3]
 5511 0096 7B69     		ldr	r3, [r7, #20]
 5512 0098 1B68     		ldr	r3, [r3]
 5513 009a 22F04002 		bic	r2, r2, #64
 5514 009e 1A60     		str	r2, [r3]
 5515              	.L264:
2288:./Libraries/STM32F4xx_HAL_Driver/Src/stm32f4xx_hal_spi.c ****     }
2289:./Libraries/STM32F4xx_HAL_Driver/Src/stm32f4xx_hal_spi.c **** 
2290:./Libraries/STM32F4xx_HAL_Driver/Src/stm32f4xx_hal_spi.c ****     hspi->RxXferCount = 0U;
 5516              		.loc 1 2290 23
 5517 00a0 7B69     		ldr	r3, [r7, #20]
 5518 00a2 0022     		movs	r2, #0
 5519 00a4 DA87     		strh	r2, [r3, #62]	@ movhi
2291:./Libraries/STM32F4xx_HAL_Driver/Src/stm32f4xx_hal_spi.c ****     hspi->State = HAL_SPI_STATE_READY;
 5520              		.loc 1 2291 17
 5521 00a6 7B69     		ldr	r3, [r7, #20]
 5522 00a8 0122     		movs	r2, #1
 5523 00aa 83F85120 		strb	r2, [r3, #81]
2292:./Libraries/STM32F4xx_HAL_Driver/Src/stm32f4xx_hal_spi.c **** 
2293:./Libraries/STM32F4xx_HAL_Driver/Src/stm32f4xx_hal_spi.c **** #if (USE_SPI_CRC != 0U)
2294:./Libraries/STM32F4xx_HAL_Driver/Src/stm32f4xx_hal_spi.c ****     /* Check if CRC error occurred */
2295:./Libraries/STM32F4xx_HAL_Driver/Src/stm32f4xx_hal_spi.c ****     if(__HAL_SPI_GET_FLAG(hspi, SPI_FLAG_CRCERR))
 5524              		.loc 1 2295 8
 5525 00ae 7B69     		ldr	r3, [r7, #20]
 5526 00b0 1B68     		ldr	r3, [r3]
 5527 00b2 9B68     		ldr	r3, [r3, #8]
 5528 00b4 03F01003 		and	r3, r3, #16
 5529              		.loc 1 2295 7
 5530 00b8 102B     		cmp	r3, #16
 5531 00ba 0AD1     		bne	.L266
2296:./Libraries/STM32F4xx_HAL_Driver/Src/stm32f4xx_hal_spi.c ****     {
2297:./Libraries/STM32F4xx_HAL_Driver/Src/stm32f4xx_hal_spi.c ****       SET_BIT(hspi->ErrorCode, HAL_SPI_ERROR_CRC);
 5532              		.loc 1 2297 7
 5533 00bc 7B69     		ldr	r3, [r7, #20]
 5534 00be 5B6D     		ldr	r3, [r3, #84]
 5535 00c0 43F00202 		orr	r2, r3, #2
 5536 00c4 7B69     		ldr	r3, [r7, #20]
 5537 00c6 5A65     		str	r2, [r3, #84]
2298:./Libraries/STM32F4xx_HAL_Driver/Src/stm32f4xx_hal_spi.c ****       __HAL_SPI_CLEAR_CRCERRFLAG(hspi);
 5538              		.loc 1 2298 7
 5539 00c8 7B69     		ldr	r3, [r7, #20]
 5540 00ca 1B68     		ldr	r3, [r3]
 5541 00cc 4FF6EF72 		movw	r2, #65519
 5542 00d0 9A60     		str	r2, [r3, #8]
 5543              	.L266:
2299:./Libraries/STM32F4xx_HAL_Driver/Src/stm32f4xx_hal_spi.c ****     }
2300:./Libraries/STM32F4xx_HAL_Driver/Src/stm32f4xx_hal_spi.c **** #endif /* USE_SPI_CRC */
2301:./Libraries/STM32F4xx_HAL_Driver/Src/stm32f4xx_hal_spi.c **** 
2302:./Libraries/STM32F4xx_HAL_Driver/Src/stm32f4xx_hal_spi.c ****     if(hspi->ErrorCode != HAL_SPI_ERROR_NONE)
 5544              		.loc 1 2302 12
 5545 00d2 7B69     		ldr	r3, [r7, #20]
 5546 00d4 5B6D     		ldr	r3, [r3, #84]
 5547              		.loc 1 2302 7
 5548 00d6 002B     		cmp	r3, #0
 5549 00d8 03D0     		beq	.L261
2303:./Libraries/STM32F4xx_HAL_Driver/Src/stm32f4xx_hal_spi.c ****     {
ARM GAS  /tmp/ccits0mR.s 			page 138


2304:./Libraries/STM32F4xx_HAL_Driver/Src/stm32f4xx_hal_spi.c ****       HAL_SPI_ErrorCallback(hspi);
 5550              		.loc 1 2304 7
 5551 00da 7869     		ldr	r0, [r7, #20]
 5552 00dc FFF7FEFF 		bl	HAL_SPI_ErrorCallback
2305:./Libraries/STM32F4xx_HAL_Driver/Src/stm32f4xx_hal_spi.c ****       return;
 5553              		.loc 1 2305 7
 5554 00e0 02E0     		b	.L260
 5555              	.L261:
2306:./Libraries/STM32F4xx_HAL_Driver/Src/stm32f4xx_hal_spi.c ****     }
2307:./Libraries/STM32F4xx_HAL_Driver/Src/stm32f4xx_hal_spi.c ****   }
2308:./Libraries/STM32F4xx_HAL_Driver/Src/stm32f4xx_hal_spi.c ****   HAL_SPI_RxCpltCallback(hspi);
 5556              		.loc 1 2308 3
 5557 00e2 7869     		ldr	r0, [r7, #20]
 5558 00e4 FFF7FEFF 		bl	HAL_SPI_RxCpltCallback
 5559              	.L260:
2309:./Libraries/STM32F4xx_HAL_Driver/Src/stm32f4xx_hal_spi.c **** }
 5560              		.loc 1 2309 1
 5561 00e8 1837     		adds	r7, r7, #24
 5562              	.LCFI169:
 5563              		.cfi_def_cfa_offset 8
 5564 00ea BD46     		mov	sp, r7
 5565              	.LCFI170:
 5566              		.cfi_def_cfa_register 13
 5567              		@ sp needed
 5568 00ec 80BD     		pop	{r7, pc}
 5569              		.cfi_endproc
 5570              	.LFE156:
 5572              		.section	.text.SPI_DMATransmitReceiveCplt,"ax",%progbits
 5573              		.align	1
 5574              		.syntax unified
 5575              		.thumb
 5576              		.thumb_func
 5577              		.fpu fpv4-sp-d16
 5579              	SPI_DMATransmitReceiveCplt:
 5580              	.LFB157:
2310:./Libraries/STM32F4xx_HAL_Driver/Src/stm32f4xx_hal_spi.c **** 
2311:./Libraries/STM32F4xx_HAL_Driver/Src/stm32f4xx_hal_spi.c **** /**
2312:./Libraries/STM32F4xx_HAL_Driver/Src/stm32f4xx_hal_spi.c ****   * @brief  DMA SPI transmit receive process complete callback.
2313:./Libraries/STM32F4xx_HAL_Driver/Src/stm32f4xx_hal_spi.c ****   * @param  hdma pointer to a DMA_HandleTypeDef structure that contains
2314:./Libraries/STM32F4xx_HAL_Driver/Src/stm32f4xx_hal_spi.c ****   *               the configuration information for the specified DMA module.
2315:./Libraries/STM32F4xx_HAL_Driver/Src/stm32f4xx_hal_spi.c ****   * @retval None
2316:./Libraries/STM32F4xx_HAL_Driver/Src/stm32f4xx_hal_spi.c ****   */
2317:./Libraries/STM32F4xx_HAL_Driver/Src/stm32f4xx_hal_spi.c **** static void SPI_DMATransmitReceiveCplt(DMA_HandleTypeDef *hdma)
2318:./Libraries/STM32F4xx_HAL_Driver/Src/stm32f4xx_hal_spi.c **** {
 5581              		.loc 1 2318 1
 5582              		.cfi_startproc
 5583              		@ args = 0, pretend = 0, frame = 24
 5584              		@ frame_needed = 1, uses_anonymous_args = 0
 5585 0000 80B5     		push	{r7, lr}
 5586              	.LCFI171:
 5587              		.cfi_def_cfa_offset 8
 5588              		.cfi_offset 7, -8
 5589              		.cfi_offset 14, -4
 5590 0002 88B0     		sub	sp, sp, #32
 5591              	.LCFI172:
 5592              		.cfi_def_cfa_offset 40
 5593 0004 02AF     		add	r7, sp, #8
ARM GAS  /tmp/ccits0mR.s 			page 139


 5594              	.LCFI173:
 5595              		.cfi_def_cfa 7, 32
 5596 0006 7860     		str	r0, [r7, #4]
2319:./Libraries/STM32F4xx_HAL_Driver/Src/stm32f4xx_hal_spi.c ****   SPI_HandleTypeDef* hspi = ( SPI_HandleTypeDef* )((DMA_HandleTypeDef* )hdma)->Parent;
 5597              		.loc 1 2319 22
 5598 0008 7B68     		ldr	r3, [r7, #4]
 5599 000a 9B6B     		ldr	r3, [r3, #56]
 5600 000c 7B61     		str	r3, [r7, #20]
2320:./Libraries/STM32F4xx_HAL_Driver/Src/stm32f4xx_hal_spi.c ****   uint32_t tickstart = 0U;
 5601              		.loc 1 2320 12
 5602 000e 0023     		movs	r3, #0
 5603 0010 3B61     		str	r3, [r7, #16]
2321:./Libraries/STM32F4xx_HAL_Driver/Src/stm32f4xx_hal_spi.c **** #if (USE_SPI_CRC != 0U)
2322:./Libraries/STM32F4xx_HAL_Driver/Src/stm32f4xx_hal_spi.c ****   __IO int16_t tmpreg = 0U;
 5604              		.loc 1 2322 16
 5605 0012 0023     		movs	r3, #0
 5606 0014 FB81     		strh	r3, [r7, #14]	@ movhi
2323:./Libraries/STM32F4xx_HAL_Driver/Src/stm32f4xx_hal_spi.c **** #endif /* USE_SPI_CRC */
2324:./Libraries/STM32F4xx_HAL_Driver/Src/stm32f4xx_hal_spi.c ****   /* Init tickstart for timeout management*/
2325:./Libraries/STM32F4xx_HAL_Driver/Src/stm32f4xx_hal_spi.c ****   tickstart = HAL_GetTick();
 5607              		.loc 1 2325 15
 5608 0016 FFF7FEFF 		bl	HAL_GetTick
 5609 001a 3861     		str	r0, [r7, #16]
2326:./Libraries/STM32F4xx_HAL_Driver/Src/stm32f4xx_hal_spi.c **** 
2327:./Libraries/STM32F4xx_HAL_Driver/Src/stm32f4xx_hal_spi.c ****   if((hdma->Instance->CR & DMA_SxCR_CIRC) == 0U)
 5610              		.loc 1 2327 11
 5611 001c 7B68     		ldr	r3, [r7, #4]
 5612 001e 1B68     		ldr	r3, [r3]
 5613              		.loc 1 2327 21
 5614 0020 1B68     		ldr	r3, [r3]
 5615              		.loc 1 2327 26
 5616 0022 03F48073 		and	r3, r3, #256
 5617              		.loc 1 2327 5
 5618 0026 002B     		cmp	r3, #0
 5619 0028 55D1     		bne	.L269
2328:./Libraries/STM32F4xx_HAL_Driver/Src/stm32f4xx_hal_spi.c ****   {
2329:./Libraries/STM32F4xx_HAL_Driver/Src/stm32f4xx_hal_spi.c **** #if (USE_SPI_CRC != 0U)
2330:./Libraries/STM32F4xx_HAL_Driver/Src/stm32f4xx_hal_spi.c ****     /* CRC handling */
2331:./Libraries/STM32F4xx_HAL_Driver/Src/stm32f4xx_hal_spi.c ****     if(hspi->Init.CRCCalculation == SPI_CRCCALCULATION_ENABLE)
 5620              		.loc 1 2331 18
 5621 002a 7B69     		ldr	r3, [r7, #20]
 5622 002c 9B6A     		ldr	r3, [r3, #40]
 5623              		.loc 1 2331 7
 5624 002e B3F5005F 		cmp	r3, #8192
 5625 0032 16D1     		bne	.L270
2332:./Libraries/STM32F4xx_HAL_Driver/Src/stm32f4xx_hal_spi.c ****     {
2333:./Libraries/STM32F4xx_HAL_Driver/Src/stm32f4xx_hal_spi.c ****       /* Wait the CRC data */
2334:./Libraries/STM32F4xx_HAL_Driver/Src/stm32f4xx_hal_spi.c ****       if(SPI_WaitFlagStateUntilTimeout(hspi, SPI_FLAG_RXNE, SET, SPI_DEFAULT_TIMEOUT, tickstart) !=
 5626              		.loc 1 2334 10
 5627 0034 3B69     		ldr	r3, [r7, #16]
 5628 0036 0093     		str	r3, [sp]
 5629 0038 6423     		movs	r3, #100
 5630 003a 0122     		movs	r2, #1
 5631 003c 0121     		movs	r1, #1
 5632 003e 7869     		ldr	r0, [r7, #20]
 5633 0040 FFF7FEFF 		bl	SPI_WaitFlagStateUntilTimeout
 5634 0044 0346     		mov	r3, r0
ARM GAS  /tmp/ccits0mR.s 			page 140


 5635              		.loc 1 2334 9
 5636 0046 002B     		cmp	r3, #0
 5637 0048 05D0     		beq	.L271
2335:./Libraries/STM32F4xx_HAL_Driver/Src/stm32f4xx_hal_spi.c ****       {
2336:./Libraries/STM32F4xx_HAL_Driver/Src/stm32f4xx_hal_spi.c ****         SET_BIT(hspi->ErrorCode, HAL_SPI_ERROR_CRC);
 5638              		.loc 1 2336 9
 5639 004a 7B69     		ldr	r3, [r7, #20]
 5640 004c 5B6D     		ldr	r3, [r3, #84]
 5641 004e 43F00202 		orr	r2, r3, #2
 5642 0052 7B69     		ldr	r3, [r7, #20]
 5643 0054 5A65     		str	r2, [r3, #84]
 5644              	.L271:
2337:./Libraries/STM32F4xx_HAL_Driver/Src/stm32f4xx_hal_spi.c ****       }
2338:./Libraries/STM32F4xx_HAL_Driver/Src/stm32f4xx_hal_spi.c ****       /* Read CRC to Flush DR and RXNE flag */
2339:./Libraries/STM32F4xx_HAL_Driver/Src/stm32f4xx_hal_spi.c ****       tmpreg = hspi->Instance->DR;
 5645              		.loc 1 2339 20
 5646 0056 7B69     		ldr	r3, [r7, #20]
 5647 0058 1B68     		ldr	r3, [r3]
 5648              		.loc 1 2339 30
 5649 005a DB68     		ldr	r3, [r3, #12]
 5650              		.loc 1 2339 14
 5651 005c 1BB2     		sxth	r3, r3
 5652 005e FB81     		strh	r3, [r7, #14]	@ movhi
2340:./Libraries/STM32F4xx_HAL_Driver/Src/stm32f4xx_hal_spi.c ****       /* To avoid GCC warning */
2341:./Libraries/STM32F4xx_HAL_Driver/Src/stm32f4xx_hal_spi.c ****       UNUSED(tmpreg);
 5653              		.loc 1 2341 7
 5654 0060 FB89     		ldrh	r3, [r7, #14]	@ movhi
 5655              	.L270:
2342:./Libraries/STM32F4xx_HAL_Driver/Src/stm32f4xx_hal_spi.c ****     }
2343:./Libraries/STM32F4xx_HAL_Driver/Src/stm32f4xx_hal_spi.c **** #endif /* USE_SPI_CRC */
2344:./Libraries/STM32F4xx_HAL_Driver/Src/stm32f4xx_hal_spi.c ****     /* Check the end of the transaction */
2345:./Libraries/STM32F4xx_HAL_Driver/Src/stm32f4xx_hal_spi.c ****     if(SPI_CheckFlag_BSY(hspi, SPI_DEFAULT_TIMEOUT, tickstart) != HAL_OK)
 5656              		.loc 1 2345 8
 5657 0062 3A69     		ldr	r2, [r7, #16]
 5658 0064 6421     		movs	r1, #100
 5659 0066 7869     		ldr	r0, [r7, #20]
 5660 0068 FFF7FEFF 		bl	SPI_CheckFlag_BSY
 5661 006c 0346     		mov	r3, r0
 5662              		.loc 1 2345 7
 5663 006e 002B     		cmp	r3, #0
 5664 0070 05D0     		beq	.L272
2346:./Libraries/STM32F4xx_HAL_Driver/Src/stm32f4xx_hal_spi.c ****     {
2347:./Libraries/STM32F4xx_HAL_Driver/Src/stm32f4xx_hal_spi.c ****       SET_BIT(hspi->ErrorCode, HAL_SPI_ERROR_FLAG);
 5665              		.loc 1 2347 7
 5666 0072 7B69     		ldr	r3, [r7, #20]
 5667 0074 5B6D     		ldr	r3, [r3, #84]
 5668 0076 43F02002 		orr	r2, r3, #32
 5669 007a 7B69     		ldr	r3, [r7, #20]
 5670 007c 5A65     		str	r2, [r3, #84]
 5671              	.L272:
2348:./Libraries/STM32F4xx_HAL_Driver/Src/stm32f4xx_hal_spi.c ****     }
2349:./Libraries/STM32F4xx_HAL_Driver/Src/stm32f4xx_hal_spi.c **** 
2350:./Libraries/STM32F4xx_HAL_Driver/Src/stm32f4xx_hal_spi.c ****     /* Disable Rx/Tx DMA Request */
2351:./Libraries/STM32F4xx_HAL_Driver/Src/stm32f4xx_hal_spi.c ****     CLEAR_BIT(hspi->Instance->CR2, SPI_CR2_TXDMAEN | SPI_CR2_RXDMAEN);
 5672              		.loc 1 2351 5
 5673 007e 7B69     		ldr	r3, [r7, #20]
 5674 0080 1B68     		ldr	r3, [r3]
ARM GAS  /tmp/ccits0mR.s 			page 141


 5675 0082 5A68     		ldr	r2, [r3, #4]
 5676 0084 7B69     		ldr	r3, [r7, #20]
 5677 0086 1B68     		ldr	r3, [r3]
 5678 0088 22F00302 		bic	r2, r2, #3
 5679 008c 5A60     		str	r2, [r3, #4]
2352:./Libraries/STM32F4xx_HAL_Driver/Src/stm32f4xx_hal_spi.c **** 
2353:./Libraries/STM32F4xx_HAL_Driver/Src/stm32f4xx_hal_spi.c ****     hspi->TxXferCount = 0U;
 5680              		.loc 1 2353 23
 5681 008e 7B69     		ldr	r3, [r7, #20]
 5682 0090 0022     		movs	r2, #0
 5683 0092 DA86     		strh	r2, [r3, #54]	@ movhi
2354:./Libraries/STM32F4xx_HAL_Driver/Src/stm32f4xx_hal_spi.c ****     hspi->RxXferCount = 0U;
 5684              		.loc 1 2354 23
 5685 0094 7B69     		ldr	r3, [r7, #20]
 5686 0096 0022     		movs	r2, #0
 5687 0098 DA87     		strh	r2, [r3, #62]	@ movhi
2355:./Libraries/STM32F4xx_HAL_Driver/Src/stm32f4xx_hal_spi.c ****     hspi->State = HAL_SPI_STATE_READY;
 5688              		.loc 1 2355 17
 5689 009a 7B69     		ldr	r3, [r7, #20]
 5690 009c 0122     		movs	r2, #1
 5691 009e 83F85120 		strb	r2, [r3, #81]
2356:./Libraries/STM32F4xx_HAL_Driver/Src/stm32f4xx_hal_spi.c **** 
2357:./Libraries/STM32F4xx_HAL_Driver/Src/stm32f4xx_hal_spi.c **** #if (USE_SPI_CRC != 0U)
2358:./Libraries/STM32F4xx_HAL_Driver/Src/stm32f4xx_hal_spi.c ****     /* Check if CRC error occurred */
2359:./Libraries/STM32F4xx_HAL_Driver/Src/stm32f4xx_hal_spi.c ****     if(__HAL_SPI_GET_FLAG(hspi, SPI_FLAG_CRCERR))
 5692              		.loc 1 2359 8
 5693 00a2 7B69     		ldr	r3, [r7, #20]
 5694 00a4 1B68     		ldr	r3, [r3]
 5695 00a6 9B68     		ldr	r3, [r3, #8]
 5696 00a8 03F01003 		and	r3, r3, #16
 5697              		.loc 1 2359 7
 5698 00ac 102B     		cmp	r3, #16
 5699 00ae 0AD1     		bne	.L273
2360:./Libraries/STM32F4xx_HAL_Driver/Src/stm32f4xx_hal_spi.c ****     {
2361:./Libraries/STM32F4xx_HAL_Driver/Src/stm32f4xx_hal_spi.c ****       SET_BIT(hspi->ErrorCode, HAL_SPI_ERROR_CRC);
 5700              		.loc 1 2361 7
 5701 00b0 7B69     		ldr	r3, [r7, #20]
 5702 00b2 5B6D     		ldr	r3, [r3, #84]
 5703 00b4 43F00202 		orr	r2, r3, #2
 5704 00b8 7B69     		ldr	r3, [r7, #20]
 5705 00ba 5A65     		str	r2, [r3, #84]
2362:./Libraries/STM32F4xx_HAL_Driver/Src/stm32f4xx_hal_spi.c ****       __HAL_SPI_CLEAR_CRCERRFLAG(hspi);
 5706              		.loc 1 2362 7
 5707 00bc 7B69     		ldr	r3, [r7, #20]
 5708 00be 1B68     		ldr	r3, [r3]
 5709 00c0 4FF6EF72 		movw	r2, #65519
 5710 00c4 9A60     		str	r2, [r3, #8]
 5711              	.L273:
2363:./Libraries/STM32F4xx_HAL_Driver/Src/stm32f4xx_hal_spi.c ****     }
2364:./Libraries/STM32F4xx_HAL_Driver/Src/stm32f4xx_hal_spi.c **** #endif /* USE_SPI_CRC */
2365:./Libraries/STM32F4xx_HAL_Driver/Src/stm32f4xx_hal_spi.c **** 
2366:./Libraries/STM32F4xx_HAL_Driver/Src/stm32f4xx_hal_spi.c ****     if(hspi->ErrorCode != HAL_SPI_ERROR_NONE)
 5712              		.loc 1 2366 12
 5713 00c6 7B69     		ldr	r3, [r7, #20]
 5714 00c8 5B6D     		ldr	r3, [r3, #84]
 5715              		.loc 1 2366 7
 5716 00ca 002B     		cmp	r3, #0
ARM GAS  /tmp/ccits0mR.s 			page 142


 5717 00cc 03D0     		beq	.L269
2367:./Libraries/STM32F4xx_HAL_Driver/Src/stm32f4xx_hal_spi.c ****     {
2368:./Libraries/STM32F4xx_HAL_Driver/Src/stm32f4xx_hal_spi.c ****       HAL_SPI_ErrorCallback(hspi);
 5718              		.loc 1 2368 7
 5719 00ce 7869     		ldr	r0, [r7, #20]
 5720 00d0 FFF7FEFF 		bl	HAL_SPI_ErrorCallback
2369:./Libraries/STM32F4xx_HAL_Driver/Src/stm32f4xx_hal_spi.c ****       return;
 5721              		.loc 1 2369 7
 5722 00d4 02E0     		b	.L268
 5723              	.L269:
2370:./Libraries/STM32F4xx_HAL_Driver/Src/stm32f4xx_hal_spi.c ****     }
2371:./Libraries/STM32F4xx_HAL_Driver/Src/stm32f4xx_hal_spi.c ****   }
2372:./Libraries/STM32F4xx_HAL_Driver/Src/stm32f4xx_hal_spi.c ****   HAL_SPI_TxRxCpltCallback(hspi);
 5724              		.loc 1 2372 3
 5725 00d6 7869     		ldr	r0, [r7, #20]
 5726 00d8 FFF7FEFF 		bl	HAL_SPI_TxRxCpltCallback
 5727              	.L268:
2373:./Libraries/STM32F4xx_HAL_Driver/Src/stm32f4xx_hal_spi.c **** }
 5728              		.loc 1 2373 1
 5729 00dc 1837     		adds	r7, r7, #24
 5730              	.LCFI174:
 5731              		.cfi_def_cfa_offset 8
 5732 00de BD46     		mov	sp, r7
 5733              	.LCFI175:
 5734              		.cfi_def_cfa_register 13
 5735              		@ sp needed
 5736 00e0 80BD     		pop	{r7, pc}
 5737              		.cfi_endproc
 5738              	.LFE157:
 5740              		.section	.text.SPI_DMAHalfTransmitCplt,"ax",%progbits
 5741              		.align	1
 5742              		.syntax unified
 5743              		.thumb
 5744              		.thumb_func
 5745              		.fpu fpv4-sp-d16
 5747              	SPI_DMAHalfTransmitCplt:
 5748              	.LFB158:
2374:./Libraries/STM32F4xx_HAL_Driver/Src/stm32f4xx_hal_spi.c **** 
2375:./Libraries/STM32F4xx_HAL_Driver/Src/stm32f4xx_hal_spi.c **** /**
2376:./Libraries/STM32F4xx_HAL_Driver/Src/stm32f4xx_hal_spi.c ****   * @brief  DMA SPI half transmit process complete callback.
2377:./Libraries/STM32F4xx_HAL_Driver/Src/stm32f4xx_hal_spi.c ****   * @param  hdma pointer to a DMA_HandleTypeDef structure that contains
2378:./Libraries/STM32F4xx_HAL_Driver/Src/stm32f4xx_hal_spi.c ****   *               the configuration information for the specified DMA module.
2379:./Libraries/STM32F4xx_HAL_Driver/Src/stm32f4xx_hal_spi.c ****   * @retval None
2380:./Libraries/STM32F4xx_HAL_Driver/Src/stm32f4xx_hal_spi.c ****   */
2381:./Libraries/STM32F4xx_HAL_Driver/Src/stm32f4xx_hal_spi.c **** static void SPI_DMAHalfTransmitCplt(DMA_HandleTypeDef *hdma)
2382:./Libraries/STM32F4xx_HAL_Driver/Src/stm32f4xx_hal_spi.c **** {
 5749              		.loc 1 2382 1
 5750              		.cfi_startproc
 5751              		@ args = 0, pretend = 0, frame = 16
 5752              		@ frame_needed = 1, uses_anonymous_args = 0
 5753 0000 80B5     		push	{r7, lr}
 5754              	.LCFI176:
 5755              		.cfi_def_cfa_offset 8
 5756              		.cfi_offset 7, -8
 5757              		.cfi_offset 14, -4
 5758 0002 84B0     		sub	sp, sp, #16
 5759              	.LCFI177:
ARM GAS  /tmp/ccits0mR.s 			page 143


 5760              		.cfi_def_cfa_offset 24
 5761 0004 00AF     		add	r7, sp, #0
 5762              	.LCFI178:
 5763              		.cfi_def_cfa_register 7
 5764 0006 7860     		str	r0, [r7, #4]
2383:./Libraries/STM32F4xx_HAL_Driver/Src/stm32f4xx_hal_spi.c ****   SPI_HandleTypeDef* hspi = ( SPI_HandleTypeDef* )((DMA_HandleTypeDef* )hdma)->Parent;
 5765              		.loc 1 2383 22
 5766 0008 7B68     		ldr	r3, [r7, #4]
 5767 000a 9B6B     		ldr	r3, [r3, #56]
 5768 000c FB60     		str	r3, [r7, #12]
2384:./Libraries/STM32F4xx_HAL_Driver/Src/stm32f4xx_hal_spi.c **** 
2385:./Libraries/STM32F4xx_HAL_Driver/Src/stm32f4xx_hal_spi.c ****   HAL_SPI_TxHalfCpltCallback(hspi);
 5769              		.loc 1 2385 3
 5770 000e F868     		ldr	r0, [r7, #12]
 5771 0010 FFF7FEFF 		bl	HAL_SPI_TxHalfCpltCallback
2386:./Libraries/STM32F4xx_HAL_Driver/Src/stm32f4xx_hal_spi.c **** }
 5772              		.loc 1 2386 1
 5773 0014 00BF     		nop
 5774 0016 1037     		adds	r7, r7, #16
 5775              	.LCFI179:
 5776              		.cfi_def_cfa_offset 8
 5777 0018 BD46     		mov	sp, r7
 5778              	.LCFI180:
 5779              		.cfi_def_cfa_register 13
 5780              		@ sp needed
 5781 001a 80BD     		pop	{r7, pc}
 5782              		.cfi_endproc
 5783              	.LFE158:
 5785              		.section	.text.SPI_DMAHalfReceiveCplt,"ax",%progbits
 5786              		.align	1
 5787              		.syntax unified
 5788              		.thumb
 5789              		.thumb_func
 5790              		.fpu fpv4-sp-d16
 5792              	SPI_DMAHalfReceiveCplt:
 5793              	.LFB159:
2387:./Libraries/STM32F4xx_HAL_Driver/Src/stm32f4xx_hal_spi.c **** 
2388:./Libraries/STM32F4xx_HAL_Driver/Src/stm32f4xx_hal_spi.c **** /**
2389:./Libraries/STM32F4xx_HAL_Driver/Src/stm32f4xx_hal_spi.c ****   * @brief  DMA SPI half receive process complete callback
2390:./Libraries/STM32F4xx_HAL_Driver/Src/stm32f4xx_hal_spi.c ****   * @param  hdma pointer to a DMA_HandleTypeDef structure that contains
2391:./Libraries/STM32F4xx_HAL_Driver/Src/stm32f4xx_hal_spi.c ****   *               the configuration information for the specified DMA module.
2392:./Libraries/STM32F4xx_HAL_Driver/Src/stm32f4xx_hal_spi.c ****   * @retval None
2393:./Libraries/STM32F4xx_HAL_Driver/Src/stm32f4xx_hal_spi.c ****   */
2394:./Libraries/STM32F4xx_HAL_Driver/Src/stm32f4xx_hal_spi.c **** static void SPI_DMAHalfReceiveCplt(DMA_HandleTypeDef *hdma)
2395:./Libraries/STM32F4xx_HAL_Driver/Src/stm32f4xx_hal_spi.c **** {
 5794              		.loc 1 2395 1
 5795              		.cfi_startproc
 5796              		@ args = 0, pretend = 0, frame = 16
 5797              		@ frame_needed = 1, uses_anonymous_args = 0
 5798 0000 80B5     		push	{r7, lr}
 5799              	.LCFI181:
 5800              		.cfi_def_cfa_offset 8
 5801              		.cfi_offset 7, -8
 5802              		.cfi_offset 14, -4
 5803 0002 84B0     		sub	sp, sp, #16
 5804              	.LCFI182:
 5805              		.cfi_def_cfa_offset 24
ARM GAS  /tmp/ccits0mR.s 			page 144


 5806 0004 00AF     		add	r7, sp, #0
 5807              	.LCFI183:
 5808              		.cfi_def_cfa_register 7
 5809 0006 7860     		str	r0, [r7, #4]
2396:./Libraries/STM32F4xx_HAL_Driver/Src/stm32f4xx_hal_spi.c ****   SPI_HandleTypeDef* hspi = ( SPI_HandleTypeDef* )((DMA_HandleTypeDef* )hdma)->Parent;
 5810              		.loc 1 2396 22
 5811 0008 7B68     		ldr	r3, [r7, #4]
 5812 000a 9B6B     		ldr	r3, [r3, #56]
 5813 000c FB60     		str	r3, [r7, #12]
2397:./Libraries/STM32F4xx_HAL_Driver/Src/stm32f4xx_hal_spi.c **** 
2398:./Libraries/STM32F4xx_HAL_Driver/Src/stm32f4xx_hal_spi.c ****   HAL_SPI_RxHalfCpltCallback(hspi);
 5814              		.loc 1 2398 3
 5815 000e F868     		ldr	r0, [r7, #12]
 5816 0010 FFF7FEFF 		bl	HAL_SPI_RxHalfCpltCallback
2399:./Libraries/STM32F4xx_HAL_Driver/Src/stm32f4xx_hal_spi.c **** }
 5817              		.loc 1 2399 1
 5818 0014 00BF     		nop
 5819 0016 1037     		adds	r7, r7, #16
 5820              	.LCFI184:
 5821              		.cfi_def_cfa_offset 8
 5822 0018 BD46     		mov	sp, r7
 5823              	.LCFI185:
 5824              		.cfi_def_cfa_register 13
 5825              		@ sp needed
 5826 001a 80BD     		pop	{r7, pc}
 5827              		.cfi_endproc
 5828              	.LFE159:
 5830              		.section	.text.SPI_DMAHalfTransmitReceiveCplt,"ax",%progbits
 5831              		.align	1
 5832              		.syntax unified
 5833              		.thumb
 5834              		.thumb_func
 5835              		.fpu fpv4-sp-d16
 5837              	SPI_DMAHalfTransmitReceiveCplt:
 5838              	.LFB160:
2400:./Libraries/STM32F4xx_HAL_Driver/Src/stm32f4xx_hal_spi.c **** 
2401:./Libraries/STM32F4xx_HAL_Driver/Src/stm32f4xx_hal_spi.c **** /**
2402:./Libraries/STM32F4xx_HAL_Driver/Src/stm32f4xx_hal_spi.c ****   * @brief  DMA SPI half transmit receive process complete callback.
2403:./Libraries/STM32F4xx_HAL_Driver/Src/stm32f4xx_hal_spi.c ****   * @param  hdma pointer to a DMA_HandleTypeDef structure that contains
2404:./Libraries/STM32F4xx_HAL_Driver/Src/stm32f4xx_hal_spi.c ****   *               the configuration information for the specified DMA module.
2405:./Libraries/STM32F4xx_HAL_Driver/Src/stm32f4xx_hal_spi.c ****   * @retval None
2406:./Libraries/STM32F4xx_HAL_Driver/Src/stm32f4xx_hal_spi.c ****   */
2407:./Libraries/STM32F4xx_HAL_Driver/Src/stm32f4xx_hal_spi.c **** static void SPI_DMAHalfTransmitReceiveCplt(DMA_HandleTypeDef *hdma)
2408:./Libraries/STM32F4xx_HAL_Driver/Src/stm32f4xx_hal_spi.c **** {
 5839              		.loc 1 2408 1
 5840              		.cfi_startproc
 5841              		@ args = 0, pretend = 0, frame = 16
 5842              		@ frame_needed = 1, uses_anonymous_args = 0
 5843 0000 80B5     		push	{r7, lr}
 5844              	.LCFI186:
 5845              		.cfi_def_cfa_offset 8
 5846              		.cfi_offset 7, -8
 5847              		.cfi_offset 14, -4
 5848 0002 84B0     		sub	sp, sp, #16
 5849              	.LCFI187:
 5850              		.cfi_def_cfa_offset 24
 5851 0004 00AF     		add	r7, sp, #0
ARM GAS  /tmp/ccits0mR.s 			page 145


 5852              	.LCFI188:
 5853              		.cfi_def_cfa_register 7
 5854 0006 7860     		str	r0, [r7, #4]
2409:./Libraries/STM32F4xx_HAL_Driver/Src/stm32f4xx_hal_spi.c ****   SPI_HandleTypeDef* hspi = ( SPI_HandleTypeDef* )((DMA_HandleTypeDef* )hdma)->Parent;
 5855              		.loc 1 2409 22
 5856 0008 7B68     		ldr	r3, [r7, #4]
 5857 000a 9B6B     		ldr	r3, [r3, #56]
 5858 000c FB60     		str	r3, [r7, #12]
2410:./Libraries/STM32F4xx_HAL_Driver/Src/stm32f4xx_hal_spi.c **** 
2411:./Libraries/STM32F4xx_HAL_Driver/Src/stm32f4xx_hal_spi.c ****   HAL_SPI_TxRxHalfCpltCallback(hspi);
 5859              		.loc 1 2411 3
 5860 000e F868     		ldr	r0, [r7, #12]
 5861 0010 FFF7FEFF 		bl	HAL_SPI_TxRxHalfCpltCallback
2412:./Libraries/STM32F4xx_HAL_Driver/Src/stm32f4xx_hal_spi.c **** }
 5862              		.loc 1 2412 1
 5863 0014 00BF     		nop
 5864 0016 1037     		adds	r7, r7, #16
 5865              	.LCFI189:
 5866              		.cfi_def_cfa_offset 8
 5867 0018 BD46     		mov	sp, r7
 5868              	.LCFI190:
 5869              		.cfi_def_cfa_register 13
 5870              		@ sp needed
 5871 001a 80BD     		pop	{r7, pc}
 5872              		.cfi_endproc
 5873              	.LFE160:
 5875              		.section	.text.SPI_DMAError,"ax",%progbits
 5876              		.align	1
 5877              		.syntax unified
 5878              		.thumb
 5879              		.thumb_func
 5880              		.fpu fpv4-sp-d16
 5882              	SPI_DMAError:
 5883              	.LFB161:
2413:./Libraries/STM32F4xx_HAL_Driver/Src/stm32f4xx_hal_spi.c **** 
2414:./Libraries/STM32F4xx_HAL_Driver/Src/stm32f4xx_hal_spi.c **** /**
2415:./Libraries/STM32F4xx_HAL_Driver/Src/stm32f4xx_hal_spi.c ****   * @brief  DMA SPI communication error callback.
2416:./Libraries/STM32F4xx_HAL_Driver/Src/stm32f4xx_hal_spi.c ****   * @param  hdma pointer to a DMA_HandleTypeDef structure that contains
2417:./Libraries/STM32F4xx_HAL_Driver/Src/stm32f4xx_hal_spi.c ****   *               the configuration information for the specified DMA module.
2418:./Libraries/STM32F4xx_HAL_Driver/Src/stm32f4xx_hal_spi.c ****   * @retval None
2419:./Libraries/STM32F4xx_HAL_Driver/Src/stm32f4xx_hal_spi.c ****   */
2420:./Libraries/STM32F4xx_HAL_Driver/Src/stm32f4xx_hal_spi.c **** static void SPI_DMAError(DMA_HandleTypeDef *hdma)
2421:./Libraries/STM32F4xx_HAL_Driver/Src/stm32f4xx_hal_spi.c **** {
 5884              		.loc 1 2421 1
 5885              		.cfi_startproc
 5886              		@ args = 0, pretend = 0, frame = 16
 5887              		@ frame_needed = 1, uses_anonymous_args = 0
 5888 0000 80B5     		push	{r7, lr}
 5889              	.LCFI191:
 5890              		.cfi_def_cfa_offset 8
 5891              		.cfi_offset 7, -8
 5892              		.cfi_offset 14, -4
 5893 0002 84B0     		sub	sp, sp, #16
 5894              	.LCFI192:
 5895              		.cfi_def_cfa_offset 24
 5896 0004 00AF     		add	r7, sp, #0
 5897              	.LCFI193:
ARM GAS  /tmp/ccits0mR.s 			page 146


 5898              		.cfi_def_cfa_register 7
 5899 0006 7860     		str	r0, [r7, #4]
2422:./Libraries/STM32F4xx_HAL_Driver/Src/stm32f4xx_hal_spi.c ****   SPI_HandleTypeDef* hspi = (SPI_HandleTypeDef* )((DMA_HandleTypeDef* )hdma)->Parent;
 5900              		.loc 1 2422 22
 5901 0008 7B68     		ldr	r3, [r7, #4]
 5902 000a 9B6B     		ldr	r3, [r3, #56]
 5903 000c FB60     		str	r3, [r7, #12]
2423:./Libraries/STM32F4xx_HAL_Driver/Src/stm32f4xx_hal_spi.c **** 
2424:./Libraries/STM32F4xx_HAL_Driver/Src/stm32f4xx_hal_spi.c **** /* Stop the disable DMA transfer on SPI side */
2425:./Libraries/STM32F4xx_HAL_Driver/Src/stm32f4xx_hal_spi.c ****   CLEAR_BIT(hspi->Instance->CR2, SPI_CR2_TXDMAEN | SPI_CR2_RXDMAEN);
 5904              		.loc 1 2425 3
 5905 000e FB68     		ldr	r3, [r7, #12]
 5906 0010 1B68     		ldr	r3, [r3]
 5907 0012 5A68     		ldr	r2, [r3, #4]
 5908 0014 FB68     		ldr	r3, [r7, #12]
 5909 0016 1B68     		ldr	r3, [r3]
 5910 0018 22F00302 		bic	r2, r2, #3
 5911 001c 5A60     		str	r2, [r3, #4]
2426:./Libraries/STM32F4xx_HAL_Driver/Src/stm32f4xx_hal_spi.c **** 
2427:./Libraries/STM32F4xx_HAL_Driver/Src/stm32f4xx_hal_spi.c ****   SET_BIT(hspi->ErrorCode, HAL_SPI_ERROR_DMA);
 5912              		.loc 1 2427 3
 5913 001e FB68     		ldr	r3, [r7, #12]
 5914 0020 5B6D     		ldr	r3, [r3, #84]
 5915 0022 43F01002 		orr	r2, r3, #16
 5916 0026 FB68     		ldr	r3, [r7, #12]
 5917 0028 5A65     		str	r2, [r3, #84]
2428:./Libraries/STM32F4xx_HAL_Driver/Src/stm32f4xx_hal_spi.c ****   hspi->State = HAL_SPI_STATE_READY;
 5918              		.loc 1 2428 15
 5919 002a FB68     		ldr	r3, [r7, #12]
 5920 002c 0122     		movs	r2, #1
 5921 002e 83F85120 		strb	r2, [r3, #81]
2429:./Libraries/STM32F4xx_HAL_Driver/Src/stm32f4xx_hal_spi.c ****   HAL_SPI_ErrorCallback(hspi);
 5922              		.loc 1 2429 3
 5923 0032 F868     		ldr	r0, [r7, #12]
 5924 0034 FFF7FEFF 		bl	HAL_SPI_ErrorCallback
2430:./Libraries/STM32F4xx_HAL_Driver/Src/stm32f4xx_hal_spi.c **** }
 5925              		.loc 1 2430 1
 5926 0038 00BF     		nop
 5927 003a 1037     		adds	r7, r7, #16
 5928              	.LCFI194:
 5929              		.cfi_def_cfa_offset 8
 5930 003c BD46     		mov	sp, r7
 5931              	.LCFI195:
 5932              		.cfi_def_cfa_register 13
 5933              		@ sp needed
 5934 003e 80BD     		pop	{r7, pc}
 5935              		.cfi_endproc
 5936              	.LFE161:
 5938              		.section	.text.SPI_DMAAbortOnError,"ax",%progbits
 5939              		.align	1
 5940              		.syntax unified
 5941              		.thumb
 5942              		.thumb_func
 5943              		.fpu fpv4-sp-d16
 5945              	SPI_DMAAbortOnError:
 5946              	.LFB162:
2431:./Libraries/STM32F4xx_HAL_Driver/Src/stm32f4xx_hal_spi.c **** 
ARM GAS  /tmp/ccits0mR.s 			page 147


2432:./Libraries/STM32F4xx_HAL_Driver/Src/stm32f4xx_hal_spi.c **** /**
2433:./Libraries/STM32F4xx_HAL_Driver/Src/stm32f4xx_hal_spi.c ****   * @brief  DMA SPI communication abort callback, when initiated by HAL services on Error
2434:./Libraries/STM32F4xx_HAL_Driver/Src/stm32f4xx_hal_spi.c ****   *         (To be called at end of DMA Abort procedure following error occurrence).
2435:./Libraries/STM32F4xx_HAL_Driver/Src/stm32f4xx_hal_spi.c ****   * @param  hdma DMA handle.
2436:./Libraries/STM32F4xx_HAL_Driver/Src/stm32f4xx_hal_spi.c ****   * @retval None
2437:./Libraries/STM32F4xx_HAL_Driver/Src/stm32f4xx_hal_spi.c ****   */
2438:./Libraries/STM32F4xx_HAL_Driver/Src/stm32f4xx_hal_spi.c **** static void SPI_DMAAbortOnError(DMA_HandleTypeDef *hdma)
2439:./Libraries/STM32F4xx_HAL_Driver/Src/stm32f4xx_hal_spi.c **** {
 5947              		.loc 1 2439 1
 5948              		.cfi_startproc
 5949              		@ args = 0, pretend = 0, frame = 16
 5950              		@ frame_needed = 1, uses_anonymous_args = 0
 5951 0000 80B5     		push	{r7, lr}
 5952              	.LCFI196:
 5953              		.cfi_def_cfa_offset 8
 5954              		.cfi_offset 7, -8
 5955              		.cfi_offset 14, -4
 5956 0002 84B0     		sub	sp, sp, #16
 5957              	.LCFI197:
 5958              		.cfi_def_cfa_offset 24
 5959 0004 00AF     		add	r7, sp, #0
 5960              	.LCFI198:
 5961              		.cfi_def_cfa_register 7
 5962 0006 7860     		str	r0, [r7, #4]
2440:./Libraries/STM32F4xx_HAL_Driver/Src/stm32f4xx_hal_spi.c ****   SPI_HandleTypeDef* hspi = ( SPI_HandleTypeDef* )((DMA_HandleTypeDef* )hdma)->Parent;
 5963              		.loc 1 2440 22
 5964 0008 7B68     		ldr	r3, [r7, #4]
 5965 000a 9B6B     		ldr	r3, [r3, #56]
 5966 000c FB60     		str	r3, [r7, #12]
2441:./Libraries/STM32F4xx_HAL_Driver/Src/stm32f4xx_hal_spi.c ****   hspi->RxXferCount = 0U;
 5967              		.loc 1 2441 21
 5968 000e FB68     		ldr	r3, [r7, #12]
 5969 0010 0022     		movs	r2, #0
 5970 0012 DA87     		strh	r2, [r3, #62]	@ movhi
2442:./Libraries/STM32F4xx_HAL_Driver/Src/stm32f4xx_hal_spi.c ****   hspi->TxXferCount = 0U;
 5971              		.loc 1 2442 21
 5972 0014 FB68     		ldr	r3, [r7, #12]
 5973 0016 0022     		movs	r2, #0
 5974 0018 DA86     		strh	r2, [r3, #54]	@ movhi
2443:./Libraries/STM32F4xx_HAL_Driver/Src/stm32f4xx_hal_spi.c **** 
2444:./Libraries/STM32F4xx_HAL_Driver/Src/stm32f4xx_hal_spi.c ****   HAL_SPI_ErrorCallback(hspi);
 5975              		.loc 1 2444 3
 5976 001a F868     		ldr	r0, [r7, #12]
 5977 001c FFF7FEFF 		bl	HAL_SPI_ErrorCallback
2445:./Libraries/STM32F4xx_HAL_Driver/Src/stm32f4xx_hal_spi.c **** }
 5978              		.loc 1 2445 1
 5979 0020 00BF     		nop
 5980 0022 1037     		adds	r7, r7, #16
 5981              	.LCFI199:
 5982              		.cfi_def_cfa_offset 8
 5983 0024 BD46     		mov	sp, r7
 5984              	.LCFI200:
 5985              		.cfi_def_cfa_register 13
 5986              		@ sp needed
 5987 0026 80BD     		pop	{r7, pc}
 5988              		.cfi_endproc
 5989              	.LFE162:
ARM GAS  /tmp/ccits0mR.s 			page 148


 5991              		.section	.text.SPI_DMATxAbortCallback,"ax",%progbits
 5992              		.align	1
 5993              		.syntax unified
 5994              		.thumb
 5995              		.thumb_func
 5996              		.fpu fpv4-sp-d16
 5998              	SPI_DMATxAbortCallback:
 5999              	.LFB163:
2446:./Libraries/STM32F4xx_HAL_Driver/Src/stm32f4xx_hal_spi.c **** 
2447:./Libraries/STM32F4xx_HAL_Driver/Src/stm32f4xx_hal_spi.c **** /**
2448:./Libraries/STM32F4xx_HAL_Driver/Src/stm32f4xx_hal_spi.c ****   * @brief  DMA SPI Tx communication abort callback, when initiated by user
2449:./Libraries/STM32F4xx_HAL_Driver/Src/stm32f4xx_hal_spi.c ****   *         (To be called at end of DMA Tx Abort procedure following user abort request).
2450:./Libraries/STM32F4xx_HAL_Driver/Src/stm32f4xx_hal_spi.c ****   * @note   When this callback is executed, User Abort complete call back is called only if no
2451:./Libraries/STM32F4xx_HAL_Driver/Src/stm32f4xx_hal_spi.c ****   *         Abort still ongoing for Rx DMA Handle.
2452:./Libraries/STM32F4xx_HAL_Driver/Src/stm32f4xx_hal_spi.c ****   * @param  hdma DMA handle.
2453:./Libraries/STM32F4xx_HAL_Driver/Src/stm32f4xx_hal_spi.c ****   * @retval None
2454:./Libraries/STM32F4xx_HAL_Driver/Src/stm32f4xx_hal_spi.c ****   */
2455:./Libraries/STM32F4xx_HAL_Driver/Src/stm32f4xx_hal_spi.c **** static void SPI_DMATxAbortCallback(DMA_HandleTypeDef *hdma)
2456:./Libraries/STM32F4xx_HAL_Driver/Src/stm32f4xx_hal_spi.c **** {
 6000              		.loc 1 2456 1
 6001              		.cfi_startproc
 6002              		@ args = 0, pretend = 0, frame = 24
 6003              		@ frame_needed = 1, uses_anonymous_args = 0
 6004 0000 80B5     		push	{r7, lr}
 6005              	.LCFI201:
 6006              		.cfi_def_cfa_offset 8
 6007              		.cfi_offset 7, -8
 6008              		.cfi_offset 14, -4
 6009 0002 86B0     		sub	sp, sp, #24
 6010              	.LCFI202:
 6011              		.cfi_def_cfa_offset 32
 6012 0004 00AF     		add	r7, sp, #0
 6013              	.LCFI203:
 6014              		.cfi_def_cfa_register 7
 6015 0006 7860     		str	r0, [r7, #4]
2457:./Libraries/STM32F4xx_HAL_Driver/Src/stm32f4xx_hal_spi.c ****   __IO uint32_t count = SPI_DEFAULT_TIMEOUT * (SystemCoreClock / 24U / 1000U);
 6016              		.loc 1 2457 70
 6017 0008 284B     		ldr	r3, .L287
 6018 000a 1B68     		ldr	r3, [r3]
 6019 000c 284A     		ldr	r2, .L287+4
 6020 000e A2FB0323 		umull	r2, r3, r2, r3
 6021 0012 5B0A     		lsrs	r3, r3, #9
 6022              		.loc 1 2457 45
 6023 0014 6422     		movs	r2, #100
 6024 0016 02FB03F3 		mul	r3, r2, r3
 6025              		.loc 1 2457 17
 6026 001a 3B61     		str	r3, [r7, #16]
2458:./Libraries/STM32F4xx_HAL_Driver/Src/stm32f4xx_hal_spi.c ****   SPI_HandleTypeDef* hspi = ( SPI_HandleTypeDef* )((DMA_HandleTypeDef* )hdma)->Parent;
 6027              		.loc 1 2458 22
 6028 001c 7B68     		ldr	r3, [r7, #4]
 6029 001e 9B6B     		ldr	r3, [r3, #56]
 6030 0020 7B61     		str	r3, [r7, #20]
2459:./Libraries/STM32F4xx_HAL_Driver/Src/stm32f4xx_hal_spi.c **** 
2460:./Libraries/STM32F4xx_HAL_Driver/Src/stm32f4xx_hal_spi.c ****   hspi->hdmatx->XferAbortCallback = NULL;
 6031              		.loc 1 2460 7
 6032 0022 7B69     		ldr	r3, [r7, #20]
 6033 0024 9B6C     		ldr	r3, [r3, #72]
ARM GAS  /tmp/ccits0mR.s 			page 149


 6034              		.loc 1 2460 35
 6035 0026 0022     		movs	r2, #0
 6036 0028 1A65     		str	r2, [r3, #80]
2461:./Libraries/STM32F4xx_HAL_Driver/Src/stm32f4xx_hal_spi.c **** 
2462:./Libraries/STM32F4xx_HAL_Driver/Src/stm32f4xx_hal_spi.c ****   /* Disable Tx DMA Request */
2463:./Libraries/STM32F4xx_HAL_Driver/Src/stm32f4xx_hal_spi.c ****   CLEAR_BIT(hspi->Instance->CR2, SPI_CR2_TXDMAEN );
 6037              		.loc 1 2463 3
 6038 002a 7B69     		ldr	r3, [r7, #20]
 6039 002c 1B68     		ldr	r3, [r3]
 6040 002e 5A68     		ldr	r2, [r3, #4]
 6041 0030 7B69     		ldr	r3, [r7, #20]
 6042 0032 1B68     		ldr	r3, [r3]
 6043 0034 22F00202 		bic	r2, r2, #2
 6044 0038 5A60     		str	r2, [r3, #4]
 6045              	.L283:
2464:./Libraries/STM32F4xx_HAL_Driver/Src/stm32f4xx_hal_spi.c **** 
2465:./Libraries/STM32F4xx_HAL_Driver/Src/stm32f4xx_hal_spi.c ****   /* Wait until TXE flag is set */
2466:./Libraries/STM32F4xx_HAL_Driver/Src/stm32f4xx_hal_spi.c ****   do
2467:./Libraries/STM32F4xx_HAL_Driver/Src/stm32f4xx_hal_spi.c ****   {
2468:./Libraries/STM32F4xx_HAL_Driver/Src/stm32f4xx_hal_spi.c ****     if(count-- == 0U)
 6046              		.loc 1 2468 13
 6047 003a 3B69     		ldr	r3, [r7, #16]
 6048 003c 5A1E     		subs	r2, r3, #1
 6049 003e 3A61     		str	r2, [r7, #16]
 6050              		.loc 1 2468 7
 6051 0040 002B     		cmp	r3, #0
 6052 0042 06D1     		bne	.L281
2469:./Libraries/STM32F4xx_HAL_Driver/Src/stm32f4xx_hal_spi.c ****     {
2470:./Libraries/STM32F4xx_HAL_Driver/Src/stm32f4xx_hal_spi.c ****       SET_BIT(hspi->ErrorCode, HAL_SPI_ERROR_FLAG);
 6053              		.loc 1 2470 7
 6054 0044 7B69     		ldr	r3, [r7, #20]
 6055 0046 5B6D     		ldr	r3, [r3, #84]
 6056 0048 43F02002 		orr	r2, r3, #32
 6057 004c 7B69     		ldr	r3, [r7, #20]
 6058 004e 5A65     		str	r2, [r3, #84]
2471:./Libraries/STM32F4xx_HAL_Driver/Src/stm32f4xx_hal_spi.c ****       break;
 6059              		.loc 1 2471 7
 6060 0050 06E0     		b	.L282
 6061              	.L281:
2472:./Libraries/STM32F4xx_HAL_Driver/Src/stm32f4xx_hal_spi.c ****     }
2473:./Libraries/STM32F4xx_HAL_Driver/Src/stm32f4xx_hal_spi.c ****   }
2474:./Libraries/STM32F4xx_HAL_Driver/Src/stm32f4xx_hal_spi.c ****   while((hspi->Instance->SR & SPI_FLAG_TXE) == RESET);
 6062              		.loc 1 2474 14
 6063 0052 7B69     		ldr	r3, [r7, #20]
 6064 0054 1B68     		ldr	r3, [r3]
 6065              		.loc 1 2474 24
 6066 0056 9B68     		ldr	r3, [r3, #8]
 6067              		.loc 1 2474 29
 6068 0058 03F00203 		and	r3, r3, #2
 6069              		.loc 1 2474 3
 6070 005c 002B     		cmp	r3, #0
 6071 005e ECD0     		beq	.L283
 6072              	.L282:
2475:./Libraries/STM32F4xx_HAL_Driver/Src/stm32f4xx_hal_spi.c **** 
2476:./Libraries/STM32F4xx_HAL_Driver/Src/stm32f4xx_hal_spi.c ****   /* Check if an Abort process is still ongoing */
2477:./Libraries/STM32F4xx_HAL_Driver/Src/stm32f4xx_hal_spi.c ****   if(hspi->hdmarx != NULL)
 6073              		.loc 1 2477 10
ARM GAS  /tmp/ccits0mR.s 			page 150


 6074 0060 7B69     		ldr	r3, [r7, #20]
 6075 0062 DB6C     		ldr	r3, [r3, #76]
 6076              		.loc 1 2477 5
 6077 0064 002B     		cmp	r3, #0
 6078 0066 04D0     		beq	.L284
2478:./Libraries/STM32F4xx_HAL_Driver/Src/stm32f4xx_hal_spi.c ****   {
2479:./Libraries/STM32F4xx_HAL_Driver/Src/stm32f4xx_hal_spi.c ****     if(hspi->hdmarx->XferAbortCallback != NULL)
 6079              		.loc 1 2479 12
 6080 0068 7B69     		ldr	r3, [r7, #20]
 6081 006a DB6C     		ldr	r3, [r3, #76]
 6082              		.loc 1 2479 20
 6083 006c 1B6D     		ldr	r3, [r3, #80]
 6084              		.loc 1 2479 7
 6085 006e 002B     		cmp	r3, #0
 6086 0070 17D1     		bne	.L286
 6087              	.L284:
2480:./Libraries/STM32F4xx_HAL_Driver/Src/stm32f4xx_hal_spi.c ****     {
2481:./Libraries/STM32F4xx_HAL_Driver/Src/stm32f4xx_hal_spi.c ****       return;
2482:./Libraries/STM32F4xx_HAL_Driver/Src/stm32f4xx_hal_spi.c ****     }
2483:./Libraries/STM32F4xx_HAL_Driver/Src/stm32f4xx_hal_spi.c ****   }
2484:./Libraries/STM32F4xx_HAL_Driver/Src/stm32f4xx_hal_spi.c ****   
2485:./Libraries/STM32F4xx_HAL_Driver/Src/stm32f4xx_hal_spi.c ****   /* No Abort process still ongoing : All DMA channels are aborted, call user Abort Complete callba
2486:./Libraries/STM32F4xx_HAL_Driver/Src/stm32f4xx_hal_spi.c ****   hspi->RxXferCount = 0U;
 6088              		.loc 1 2486 21
 6089 0072 7B69     		ldr	r3, [r7, #20]
 6090 0074 0022     		movs	r2, #0
 6091 0076 DA87     		strh	r2, [r3, #62]	@ movhi
2487:./Libraries/STM32F4xx_HAL_Driver/Src/stm32f4xx_hal_spi.c ****   hspi->TxXferCount = 0U;
 6092              		.loc 1 2487 21
 6093 0078 7B69     		ldr	r3, [r7, #20]
 6094 007a 0022     		movs	r2, #0
 6095 007c DA86     		strh	r2, [r3, #54]	@ movhi
2488:./Libraries/STM32F4xx_HAL_Driver/Src/stm32f4xx_hal_spi.c **** 
2489:./Libraries/STM32F4xx_HAL_Driver/Src/stm32f4xx_hal_spi.c ****   /* Reset errorCode */
2490:./Libraries/STM32F4xx_HAL_Driver/Src/stm32f4xx_hal_spi.c ****   hspi->ErrorCode = HAL_SPI_ERROR_NONE;
 6096              		.loc 1 2490 19
 6097 007e 7B69     		ldr	r3, [r7, #20]
 6098 0080 0022     		movs	r2, #0
 6099 0082 5A65     		str	r2, [r3, #84]
 6100              	.LBB13:
2491:./Libraries/STM32F4xx_HAL_Driver/Src/stm32f4xx_hal_spi.c **** 
2492:./Libraries/STM32F4xx_HAL_Driver/Src/stm32f4xx_hal_spi.c ****   /* Clear the Error flags in the SR register */
2493:./Libraries/STM32F4xx_HAL_Driver/Src/stm32f4xx_hal_spi.c ****   __HAL_SPI_CLEAR_FREFLAG(hspi);
 6101              		.loc 1 2493 3
 6102 0084 0023     		movs	r3, #0
 6103 0086 FB60     		str	r3, [r7, #12]
 6104 0088 7B69     		ldr	r3, [r7, #20]
 6105 008a 1B68     		ldr	r3, [r3]
 6106 008c 9B68     		ldr	r3, [r3, #8]
 6107 008e FB60     		str	r3, [r7, #12]
 6108 0090 FB68     		ldr	r3, [r7, #12]
 6109              	.LBE13:
2494:./Libraries/STM32F4xx_HAL_Driver/Src/stm32f4xx_hal_spi.c **** 
2495:./Libraries/STM32F4xx_HAL_Driver/Src/stm32f4xx_hal_spi.c ****   /* Restore hspi->State to Ready */
2496:./Libraries/STM32F4xx_HAL_Driver/Src/stm32f4xx_hal_spi.c ****   hspi->State  = HAL_SPI_STATE_READY;
 6110              		.loc 1 2496 16
 6111 0092 7B69     		ldr	r3, [r7, #20]
ARM GAS  /tmp/ccits0mR.s 			page 151


 6112 0094 0122     		movs	r2, #1
 6113 0096 83F85120 		strb	r2, [r3, #81]
2497:./Libraries/STM32F4xx_HAL_Driver/Src/stm32f4xx_hal_spi.c **** 
2498:./Libraries/STM32F4xx_HAL_Driver/Src/stm32f4xx_hal_spi.c ****   /* Call user Abort complete callback */
2499:./Libraries/STM32F4xx_HAL_Driver/Src/stm32f4xx_hal_spi.c ****   HAL_SPI_AbortCpltCallback(hspi);
 6114              		.loc 1 2499 3
 6115 009a 7869     		ldr	r0, [r7, #20]
 6116 009c FFF7FEFF 		bl	HAL_SPI_AbortCpltCallback
 6117 00a0 00E0     		b	.L280
 6118              	.L286:
2481:./Libraries/STM32F4xx_HAL_Driver/Src/stm32f4xx_hal_spi.c ****     }
 6119              		.loc 1 2481 7
 6120 00a2 00BF     		nop
 6121              	.L280:
2500:./Libraries/STM32F4xx_HAL_Driver/Src/stm32f4xx_hal_spi.c **** }
 6122              		.loc 1 2500 1
 6123 00a4 1837     		adds	r7, r7, #24
 6124              	.LCFI204:
 6125              		.cfi_def_cfa_offset 8
 6126 00a6 BD46     		mov	sp, r7
 6127              	.LCFI205:
 6128              		.cfi_def_cfa_register 13
 6129              		@ sp needed
 6130 00a8 80BD     		pop	{r7, pc}
 6131              	.L288:
 6132 00aa 00BF     		.align	2
 6133              	.L287:
 6134 00ac 00000000 		.word	SystemCoreClock
 6135 00b0 F1197605 		.word	91625969
 6136              		.cfi_endproc
 6137              	.LFE163:
 6139              		.section	.text.SPI_DMARxAbortCallback,"ax",%progbits
 6140              		.align	1
 6141              		.syntax unified
 6142              		.thumb
 6143              		.thumb_func
 6144              		.fpu fpv4-sp-d16
 6146              	SPI_DMARxAbortCallback:
 6147              	.LFB164:
2501:./Libraries/STM32F4xx_HAL_Driver/Src/stm32f4xx_hal_spi.c **** 
2502:./Libraries/STM32F4xx_HAL_Driver/Src/stm32f4xx_hal_spi.c **** /**
2503:./Libraries/STM32F4xx_HAL_Driver/Src/stm32f4xx_hal_spi.c ****   * @brief  DMA SPI Rx communication abort callback, when initiated by user
2504:./Libraries/STM32F4xx_HAL_Driver/Src/stm32f4xx_hal_spi.c ****   *         (To be called at end of DMA Rx Abort procedure following user abort request).
2505:./Libraries/STM32F4xx_HAL_Driver/Src/stm32f4xx_hal_spi.c ****   * @note   When this callback is executed, User Abort complete call back is called only if no
2506:./Libraries/STM32F4xx_HAL_Driver/Src/stm32f4xx_hal_spi.c ****   *         Abort still ongoing for Tx DMA Handle.
2507:./Libraries/STM32F4xx_HAL_Driver/Src/stm32f4xx_hal_spi.c ****   * @param  hdma DMA handle.
2508:./Libraries/STM32F4xx_HAL_Driver/Src/stm32f4xx_hal_spi.c ****   * @retval None
2509:./Libraries/STM32F4xx_HAL_Driver/Src/stm32f4xx_hal_spi.c ****   */
2510:./Libraries/STM32F4xx_HAL_Driver/Src/stm32f4xx_hal_spi.c **** static void SPI_DMARxAbortCallback(DMA_HandleTypeDef *hdma)
2511:./Libraries/STM32F4xx_HAL_Driver/Src/stm32f4xx_hal_spi.c **** {
 6148              		.loc 1 2511 1
 6149              		.cfi_startproc
 6150              		@ args = 0, pretend = 0, frame = 24
 6151              		@ frame_needed = 1, uses_anonymous_args = 0
 6152 0000 80B5     		push	{r7, lr}
 6153              	.LCFI206:
 6154              		.cfi_def_cfa_offset 8
ARM GAS  /tmp/ccits0mR.s 			page 152


 6155              		.cfi_offset 7, -8
 6156              		.cfi_offset 14, -4
 6157 0002 86B0     		sub	sp, sp, #24
 6158              	.LCFI207:
 6159              		.cfi_def_cfa_offset 32
 6160 0004 00AF     		add	r7, sp, #0
 6161              	.LCFI208:
 6162              		.cfi_def_cfa_register 7
 6163 0006 7860     		str	r0, [r7, #4]
2512:./Libraries/STM32F4xx_HAL_Driver/Src/stm32f4xx_hal_spi.c ****   SPI_HandleTypeDef* hspi = ( SPI_HandleTypeDef* )((DMA_HandleTypeDef* )hdma)->Parent;
 6164              		.loc 1 2512 22
 6165 0008 7B68     		ldr	r3, [r7, #4]
 6166 000a 9B6B     		ldr	r3, [r3, #56]
 6167 000c 7B61     		str	r3, [r7, #20]
2513:./Libraries/STM32F4xx_HAL_Driver/Src/stm32f4xx_hal_spi.c **** 
2514:./Libraries/STM32F4xx_HAL_Driver/Src/stm32f4xx_hal_spi.c ****   /* Disable SPI Peripheral */
2515:./Libraries/STM32F4xx_HAL_Driver/Src/stm32f4xx_hal_spi.c ****   __HAL_SPI_DISABLE(hspi);
 6168              		.loc 1 2515 3
 6169 000e 7B69     		ldr	r3, [r7, #20]
 6170 0010 1B68     		ldr	r3, [r3]
 6171 0012 1A68     		ldr	r2, [r3]
 6172 0014 7B69     		ldr	r3, [r7, #20]
 6173 0016 1B68     		ldr	r3, [r3]
 6174 0018 22F04002 		bic	r2, r2, #64
 6175 001c 1A60     		str	r2, [r3]
2516:./Libraries/STM32F4xx_HAL_Driver/Src/stm32f4xx_hal_spi.c **** 
2517:./Libraries/STM32F4xx_HAL_Driver/Src/stm32f4xx_hal_spi.c ****   hspi->hdmarx->XferAbortCallback = NULL;
 6176              		.loc 1 2517 7
 6177 001e 7B69     		ldr	r3, [r7, #20]
 6178 0020 DB6C     		ldr	r3, [r3, #76]
 6179              		.loc 1 2517 35
 6180 0022 0022     		movs	r2, #0
 6181 0024 1A65     		str	r2, [r3, #80]
2518:./Libraries/STM32F4xx_HAL_Driver/Src/stm32f4xx_hal_spi.c **** 
2519:./Libraries/STM32F4xx_HAL_Driver/Src/stm32f4xx_hal_spi.c ****   /* Disable Rx DMA Request */
2520:./Libraries/STM32F4xx_HAL_Driver/Src/stm32f4xx_hal_spi.c ****   CLEAR_BIT(hspi->Instance->CR2, SPI_CR2_RXDMAEN);
 6182              		.loc 1 2520 3
 6183 0026 7B69     		ldr	r3, [r7, #20]
 6184 0028 1B68     		ldr	r3, [r3]
 6185 002a 5A68     		ldr	r2, [r3, #4]
 6186 002c 7B69     		ldr	r3, [r7, #20]
 6187 002e 1B68     		ldr	r3, [r3]
 6188 0030 22F00102 		bic	r2, r2, #1
 6189 0034 5A60     		str	r2, [r3, #4]
2521:./Libraries/STM32F4xx_HAL_Driver/Src/stm32f4xx_hal_spi.c **** 
2522:./Libraries/STM32F4xx_HAL_Driver/Src/stm32f4xx_hal_spi.c ****   /* Check if an Abort process is still ongoing */
2523:./Libraries/STM32F4xx_HAL_Driver/Src/stm32f4xx_hal_spi.c ****   if(hspi->hdmatx != NULL)
 6190              		.loc 1 2523 10
 6191 0036 7B69     		ldr	r3, [r7, #20]
 6192 0038 9B6C     		ldr	r3, [r3, #72]
 6193              		.loc 1 2523 5
 6194 003a 002B     		cmp	r3, #0
 6195 003c 04D0     		beq	.L290
2524:./Libraries/STM32F4xx_HAL_Driver/Src/stm32f4xx_hal_spi.c ****   {
2525:./Libraries/STM32F4xx_HAL_Driver/Src/stm32f4xx_hal_spi.c ****     if(hspi->hdmatx->XferAbortCallback != NULL)
 6196              		.loc 1 2525 12
 6197 003e 7B69     		ldr	r3, [r7, #20]
ARM GAS  /tmp/ccits0mR.s 			page 153


 6198 0040 9B6C     		ldr	r3, [r3, #72]
 6199              		.loc 1 2525 20
 6200 0042 1B6D     		ldr	r3, [r3, #80]
 6201              		.loc 1 2525 7
 6202 0044 002B     		cmp	r3, #0
 6203 0046 22D1     		bne	.L292
 6204              	.L290:
2526:./Libraries/STM32F4xx_HAL_Driver/Src/stm32f4xx_hal_spi.c ****     {
2527:./Libraries/STM32F4xx_HAL_Driver/Src/stm32f4xx_hal_spi.c ****       return;
2528:./Libraries/STM32F4xx_HAL_Driver/Src/stm32f4xx_hal_spi.c ****     }
2529:./Libraries/STM32F4xx_HAL_Driver/Src/stm32f4xx_hal_spi.c ****   }
2530:./Libraries/STM32F4xx_HAL_Driver/Src/stm32f4xx_hal_spi.c **** 
2531:./Libraries/STM32F4xx_HAL_Driver/Src/stm32f4xx_hal_spi.c ****   /* No Abort process still ongoing : All DMA channels are aborted, call user Abort Complete callba
2532:./Libraries/STM32F4xx_HAL_Driver/Src/stm32f4xx_hal_spi.c ****   hspi->RxXferCount = 0U;
 6205              		.loc 1 2532 21
 6206 0048 7B69     		ldr	r3, [r7, #20]
 6207 004a 0022     		movs	r2, #0
 6208 004c DA87     		strh	r2, [r3, #62]	@ movhi
2533:./Libraries/STM32F4xx_HAL_Driver/Src/stm32f4xx_hal_spi.c ****   hspi->TxXferCount = 0U;
 6209              		.loc 1 2533 21
 6210 004e 7B69     		ldr	r3, [r7, #20]
 6211 0050 0022     		movs	r2, #0
 6212 0052 DA86     		strh	r2, [r3, #54]	@ movhi
2534:./Libraries/STM32F4xx_HAL_Driver/Src/stm32f4xx_hal_spi.c **** 
2535:./Libraries/STM32F4xx_HAL_Driver/Src/stm32f4xx_hal_spi.c ****   /* Reset errorCode */
2536:./Libraries/STM32F4xx_HAL_Driver/Src/stm32f4xx_hal_spi.c ****   hspi->ErrorCode = HAL_SPI_ERROR_NONE;
 6213              		.loc 1 2536 19
 6214 0054 7B69     		ldr	r3, [r7, #20]
 6215 0056 0022     		movs	r2, #0
 6216 0058 5A65     		str	r2, [r3, #84]
 6217              	.LBB14:
2537:./Libraries/STM32F4xx_HAL_Driver/Src/stm32f4xx_hal_spi.c **** 
2538:./Libraries/STM32F4xx_HAL_Driver/Src/stm32f4xx_hal_spi.c ****   /* Clear the Error flags in the SR register */
2539:./Libraries/STM32F4xx_HAL_Driver/Src/stm32f4xx_hal_spi.c ****   __HAL_SPI_CLEAR_OVRFLAG(hspi);
 6218              		.loc 1 2539 3
 6219 005a 0023     		movs	r3, #0
 6220 005c 3B61     		str	r3, [r7, #16]
 6221 005e 7B69     		ldr	r3, [r7, #20]
 6222 0060 1B68     		ldr	r3, [r3]
 6223 0062 DB68     		ldr	r3, [r3, #12]
 6224 0064 3B61     		str	r3, [r7, #16]
 6225 0066 7B69     		ldr	r3, [r7, #20]
 6226 0068 1B68     		ldr	r3, [r3]
 6227 006a 9B68     		ldr	r3, [r3, #8]
 6228 006c 3B61     		str	r3, [r7, #16]
 6229 006e 3B69     		ldr	r3, [r7, #16]
 6230              	.LBE14:
 6231              	.LBB15:
2540:./Libraries/STM32F4xx_HAL_Driver/Src/stm32f4xx_hal_spi.c ****   __HAL_SPI_CLEAR_FREFLAG(hspi);  
 6232              		.loc 1 2540 3
 6233 0070 0023     		movs	r3, #0
 6234 0072 FB60     		str	r3, [r7, #12]
 6235 0074 7B69     		ldr	r3, [r7, #20]
 6236 0076 1B68     		ldr	r3, [r3]
 6237 0078 9B68     		ldr	r3, [r3, #8]
 6238 007a FB60     		str	r3, [r7, #12]
 6239 007c FB68     		ldr	r3, [r7, #12]
ARM GAS  /tmp/ccits0mR.s 			page 154


 6240              	.LBE15:
2541:./Libraries/STM32F4xx_HAL_Driver/Src/stm32f4xx_hal_spi.c **** 
2542:./Libraries/STM32F4xx_HAL_Driver/Src/stm32f4xx_hal_spi.c ****   /* Restore hspi->State to Ready */
2543:./Libraries/STM32F4xx_HAL_Driver/Src/stm32f4xx_hal_spi.c ****   hspi->State  = HAL_SPI_STATE_READY;
 6241              		.loc 1 2543 16
 6242 007e 7B69     		ldr	r3, [r7, #20]
 6243 0080 0122     		movs	r2, #1
 6244 0082 83F85120 		strb	r2, [r3, #81]
2544:./Libraries/STM32F4xx_HAL_Driver/Src/stm32f4xx_hal_spi.c **** 
2545:./Libraries/STM32F4xx_HAL_Driver/Src/stm32f4xx_hal_spi.c ****   /* Call user Abort complete callback */
2546:./Libraries/STM32F4xx_HAL_Driver/Src/stm32f4xx_hal_spi.c ****   HAL_SPI_AbortCpltCallback(hspi);
 6245              		.loc 1 2546 3
 6246 0086 7869     		ldr	r0, [r7, #20]
 6247 0088 FFF7FEFF 		bl	HAL_SPI_AbortCpltCallback
 6248 008c 00E0     		b	.L289
 6249              	.L292:
2527:./Libraries/STM32F4xx_HAL_Driver/Src/stm32f4xx_hal_spi.c ****     }
 6250              		.loc 1 2527 7
 6251 008e 00BF     		nop
 6252              	.L289:
2547:./Libraries/STM32F4xx_HAL_Driver/Src/stm32f4xx_hal_spi.c **** }
 6253              		.loc 1 2547 1
 6254 0090 1837     		adds	r7, r7, #24
 6255              	.LCFI209:
 6256              		.cfi_def_cfa_offset 8
 6257 0092 BD46     		mov	sp, r7
 6258              	.LCFI210:
 6259              		.cfi_def_cfa_register 13
 6260              		@ sp needed
 6261 0094 80BD     		pop	{r7, pc}
 6262              		.cfi_endproc
 6263              	.LFE164:
 6265              		.section	.text.SPI_2linesRxISR_8BIT,"ax",%progbits
 6266              		.align	1
 6267              		.syntax unified
 6268              		.thumb
 6269              		.thumb_func
 6270              		.fpu fpv4-sp-d16
 6272              	SPI_2linesRxISR_8BIT:
 6273              	.LFB165:
2548:./Libraries/STM32F4xx_HAL_Driver/Src/stm32f4xx_hal_spi.c **** 
2549:./Libraries/STM32F4xx_HAL_Driver/Src/stm32f4xx_hal_spi.c **** /**
2550:./Libraries/STM32F4xx_HAL_Driver/Src/stm32f4xx_hal_spi.c ****   * @brief  Rx 8-bit handler for Transmit and Receive in Interrupt mode.
2551:./Libraries/STM32F4xx_HAL_Driver/Src/stm32f4xx_hal_spi.c ****   * @param  hspi pointer to a SPI_HandleTypeDef structure that contains
2552:./Libraries/STM32F4xx_HAL_Driver/Src/stm32f4xx_hal_spi.c ****   *               the configuration information for SPI module.
2553:./Libraries/STM32F4xx_HAL_Driver/Src/stm32f4xx_hal_spi.c ****   * @retval None
2554:./Libraries/STM32F4xx_HAL_Driver/Src/stm32f4xx_hal_spi.c ****   */
2555:./Libraries/STM32F4xx_HAL_Driver/Src/stm32f4xx_hal_spi.c **** static void SPI_2linesRxISR_8BIT(struct __SPI_HandleTypeDef *hspi)
2556:./Libraries/STM32F4xx_HAL_Driver/Src/stm32f4xx_hal_spi.c **** {
 6274              		.loc 1 2556 1
 6275              		.cfi_startproc
 6276              		@ args = 0, pretend = 0, frame = 8
 6277              		@ frame_needed = 1, uses_anonymous_args = 0
 6278 0000 80B5     		push	{r7, lr}
 6279              	.LCFI211:
 6280              		.cfi_def_cfa_offset 8
 6281              		.cfi_offset 7, -8
ARM GAS  /tmp/ccits0mR.s 			page 155


 6282              		.cfi_offset 14, -4
 6283 0002 82B0     		sub	sp, sp, #8
 6284              	.LCFI212:
 6285              		.cfi_def_cfa_offset 16
 6286 0004 00AF     		add	r7, sp, #0
 6287              	.LCFI213:
 6288              		.cfi_def_cfa_register 7
 6289 0006 7860     		str	r0, [r7, #4]
2557:./Libraries/STM32F4xx_HAL_Driver/Src/stm32f4xx_hal_spi.c ****   /* Receive data in 8bit mode */
2558:./Libraries/STM32F4xx_HAL_Driver/Src/stm32f4xx_hal_spi.c ****   *hspi->pRxBuffPtr++ = *((__IO uint8_t *)&hspi->Instance->DR);
 6290              		.loc 1 2558 48
 6291 0008 7B68     		ldr	r3, [r7, #4]
 6292 000a 1B68     		ldr	r3, [r3]
 6293              		.loc 1 2558 43
 6294 000c 03F10C02 		add	r2, r3, #12
 6295              		.loc 1 2558 8
 6296 0010 7B68     		ldr	r3, [r7, #4]
 6297 0012 9B6B     		ldr	r3, [r3, #56]
 6298              		.loc 1 2558 20
 6299 0014 581C     		adds	r0, r3, #1
 6300 0016 7968     		ldr	r1, [r7, #4]
 6301 0018 8863     		str	r0, [r1, #56]
 6302              		.loc 1 2558 25
 6303 001a 1278     		ldrb	r2, [r2]
 6304 001c D2B2     		uxtb	r2, r2
 6305              		.loc 1 2558 23
 6306 001e 1A70     		strb	r2, [r3]
2559:./Libraries/STM32F4xx_HAL_Driver/Src/stm32f4xx_hal_spi.c ****   hspi->RxXferCount--;
 6307              		.loc 1 2559 7
 6308 0020 7B68     		ldr	r3, [r7, #4]
 6309 0022 DB8F     		ldrh	r3, [r3, #62]	@ movhi
 6310 0024 9BB2     		uxth	r3, r3
 6311              		.loc 1 2559 20
 6312 0026 013B     		subs	r3, r3, #1
 6313 0028 9AB2     		uxth	r2, r3
 6314 002a 7B68     		ldr	r3, [r7, #4]
 6315 002c DA87     		strh	r2, [r3, #62]	@ movhi
2560:./Libraries/STM32F4xx_HAL_Driver/Src/stm32f4xx_hal_spi.c **** 
2561:./Libraries/STM32F4xx_HAL_Driver/Src/stm32f4xx_hal_spi.c ****   /* check end of the reception */
2562:./Libraries/STM32F4xx_HAL_Driver/Src/stm32f4xx_hal_spi.c ****   if(hspi->RxXferCount == 0U)
 6316              		.loc 1 2562 10
 6317 002e 7B68     		ldr	r3, [r7, #4]
 6318 0030 DB8F     		ldrh	r3, [r3, #62]	@ movhi
 6319 0032 9BB2     		uxth	r3, r3
 6320              		.loc 1 2562 5
 6321 0034 002B     		cmp	r3, #0
 6322 0036 18D1     		bne	.L293
2563:./Libraries/STM32F4xx_HAL_Driver/Src/stm32f4xx_hal_spi.c ****   {
2564:./Libraries/STM32F4xx_HAL_Driver/Src/stm32f4xx_hal_spi.c **** #if (USE_SPI_CRC != 0U)
2565:./Libraries/STM32F4xx_HAL_Driver/Src/stm32f4xx_hal_spi.c ****     if(hspi->Init.CRCCalculation == SPI_CRCCALCULATION_ENABLE)
 6323              		.loc 1 2565 18
 6324 0038 7B68     		ldr	r3, [r7, #4]
 6325 003a 9B6A     		ldr	r3, [r3, #40]
 6326              		.loc 1 2565 7
 6327 003c B3F5005F 		cmp	r3, #8192
 6328 0040 03D1     		bne	.L295
2566:./Libraries/STM32F4xx_HAL_Driver/Src/stm32f4xx_hal_spi.c ****     {
ARM GAS  /tmp/ccits0mR.s 			page 156


2567:./Libraries/STM32F4xx_HAL_Driver/Src/stm32f4xx_hal_spi.c ****       hspi->RxISR =  SPI_2linesRxISR_8BITCRC;
 6329              		.loc 1 2567 19
 6330 0042 7B68     		ldr	r3, [r7, #4]
 6331 0044 0A4A     		ldr	r2, .L296
 6332 0046 1A64     		str	r2, [r3, #64]
2568:./Libraries/STM32F4xx_HAL_Driver/Src/stm32f4xx_hal_spi.c ****       return;
 6333              		.loc 1 2568 7
 6334 0048 0FE0     		b	.L293
 6335              	.L295:
2569:./Libraries/STM32F4xx_HAL_Driver/Src/stm32f4xx_hal_spi.c ****     }
2570:./Libraries/STM32F4xx_HAL_Driver/Src/stm32f4xx_hal_spi.c **** #endif /* USE_SPI_CRC */
2571:./Libraries/STM32F4xx_HAL_Driver/Src/stm32f4xx_hal_spi.c **** 
2572:./Libraries/STM32F4xx_HAL_Driver/Src/stm32f4xx_hal_spi.c ****     /* Disable RXNE interrupt */
2573:./Libraries/STM32F4xx_HAL_Driver/Src/stm32f4xx_hal_spi.c ****     __HAL_SPI_DISABLE_IT(hspi, (SPI_IT_RXNE | SPI_IT_ERR));
 6336              		.loc 1 2573 5
 6337 004a 7B68     		ldr	r3, [r7, #4]
 6338 004c 1B68     		ldr	r3, [r3]
 6339 004e 5A68     		ldr	r2, [r3, #4]
 6340 0050 7B68     		ldr	r3, [r7, #4]
 6341 0052 1B68     		ldr	r3, [r3]
 6342 0054 22F06002 		bic	r2, r2, #96
 6343 0058 5A60     		str	r2, [r3, #4]
2574:./Libraries/STM32F4xx_HAL_Driver/Src/stm32f4xx_hal_spi.c **** 
2575:./Libraries/STM32F4xx_HAL_Driver/Src/stm32f4xx_hal_spi.c ****     if(hspi->TxXferCount == 0U)
 6344              		.loc 1 2575 12
 6345 005a 7B68     		ldr	r3, [r7, #4]
 6346 005c DB8E     		ldrh	r3, [r3, #54]	@ movhi
 6347 005e 9BB2     		uxth	r3, r3
 6348              		.loc 1 2575 7
 6349 0060 002B     		cmp	r3, #0
 6350 0062 02D1     		bne	.L293
2576:./Libraries/STM32F4xx_HAL_Driver/Src/stm32f4xx_hal_spi.c ****     {
2577:./Libraries/STM32F4xx_HAL_Driver/Src/stm32f4xx_hal_spi.c ****       SPI_CloseRxTx_ISR(hspi);
 6351              		.loc 1 2577 7
 6352 0064 7868     		ldr	r0, [r7, #4]
 6353 0066 FFF7FEFF 		bl	SPI_CloseRxTx_ISR
 6354              	.L293:
2578:./Libraries/STM32F4xx_HAL_Driver/Src/stm32f4xx_hal_spi.c ****     }
2579:./Libraries/STM32F4xx_HAL_Driver/Src/stm32f4xx_hal_spi.c ****   }
2580:./Libraries/STM32F4xx_HAL_Driver/Src/stm32f4xx_hal_spi.c **** }
 6355              		.loc 1 2580 1
 6356 006a 0837     		adds	r7, r7, #8
 6357              	.LCFI214:
 6358              		.cfi_def_cfa_offset 8
 6359 006c BD46     		mov	sp, r7
 6360              	.LCFI215:
 6361              		.cfi_def_cfa_register 13
 6362              		@ sp needed
 6363 006e 80BD     		pop	{r7, pc}
 6364              	.L297:
 6365              		.align	2
 6366              	.L296:
 6367 0070 00000000 		.word	SPI_2linesRxISR_8BITCRC
 6368              		.cfi_endproc
 6369              	.LFE165:
 6371              		.section	.text.SPI_2linesRxISR_8BITCRC,"ax",%progbits
 6372              		.align	1
ARM GAS  /tmp/ccits0mR.s 			page 157


 6373              		.syntax unified
 6374              		.thumb
 6375              		.thumb_func
 6376              		.fpu fpv4-sp-d16
 6378              	SPI_2linesRxISR_8BITCRC:
 6379              	.LFB166:
2581:./Libraries/STM32F4xx_HAL_Driver/Src/stm32f4xx_hal_spi.c **** 
2582:./Libraries/STM32F4xx_HAL_Driver/Src/stm32f4xx_hal_spi.c **** #if (USE_SPI_CRC != 0U)
2583:./Libraries/STM32F4xx_HAL_Driver/Src/stm32f4xx_hal_spi.c **** /**
2584:./Libraries/STM32F4xx_HAL_Driver/Src/stm32f4xx_hal_spi.c ****   * @brief  Rx 8-bit handler for Transmit and Receive in Interrupt mode.
2585:./Libraries/STM32F4xx_HAL_Driver/Src/stm32f4xx_hal_spi.c ****   * @param  hspi pointer to a SPI_HandleTypeDef structure that contains
2586:./Libraries/STM32F4xx_HAL_Driver/Src/stm32f4xx_hal_spi.c ****   *               the configuration information for SPI module.
2587:./Libraries/STM32F4xx_HAL_Driver/Src/stm32f4xx_hal_spi.c ****   * @retval None
2588:./Libraries/STM32F4xx_HAL_Driver/Src/stm32f4xx_hal_spi.c ****   */
2589:./Libraries/STM32F4xx_HAL_Driver/Src/stm32f4xx_hal_spi.c **** static void SPI_2linesRxISR_8BITCRC(struct __SPI_HandleTypeDef *hspi)
2590:./Libraries/STM32F4xx_HAL_Driver/Src/stm32f4xx_hal_spi.c **** {
 6380              		.loc 1 2590 1
 6381              		.cfi_startproc
 6382              		@ args = 0, pretend = 0, frame = 16
 6383              		@ frame_needed = 1, uses_anonymous_args = 0
 6384 0000 80B5     		push	{r7, lr}
 6385              	.LCFI216:
 6386              		.cfi_def_cfa_offset 8
 6387              		.cfi_offset 7, -8
 6388              		.cfi_offset 14, -4
 6389 0002 84B0     		sub	sp, sp, #16
 6390              	.LCFI217:
 6391              		.cfi_def_cfa_offset 24
 6392 0004 00AF     		add	r7, sp, #0
 6393              	.LCFI218:
 6394              		.cfi_def_cfa_register 7
 6395 0006 7860     		str	r0, [r7, #4]
2591:./Libraries/STM32F4xx_HAL_Driver/Src/stm32f4xx_hal_spi.c ****   __IO uint8_t tmpreg = 0U;
 6396              		.loc 1 2591 16
 6397 0008 0023     		movs	r3, #0
 6398 000a FB73     		strb	r3, [r7, #15]
2592:./Libraries/STM32F4xx_HAL_Driver/Src/stm32f4xx_hal_spi.c **** 
2593:./Libraries/STM32F4xx_HAL_Driver/Src/stm32f4xx_hal_spi.c ****   /* Read data register to flush CRC */
2594:./Libraries/STM32F4xx_HAL_Driver/Src/stm32f4xx_hal_spi.c ****   tmpreg = *((__IO uint8_t *)&hspi->Instance->DR);
 6399              		.loc 1 2594 35
 6400 000c 7B68     		ldr	r3, [r7, #4]
 6401 000e 1B68     		ldr	r3, [r3]
 6402              		.loc 1 2594 30
 6403 0010 0C33     		adds	r3, r3, #12
 6404              		.loc 1 2594 12
 6405 0012 1B78     		ldrb	r3, [r3]
 6406 0014 DBB2     		uxtb	r3, r3
 6407              		.loc 1 2594 10
 6408 0016 FB73     		strb	r3, [r7, #15]
2595:./Libraries/STM32F4xx_HAL_Driver/Src/stm32f4xx_hal_spi.c **** 
2596:./Libraries/STM32F4xx_HAL_Driver/Src/stm32f4xx_hal_spi.c ****   /* To avoid GCC warning */
2597:./Libraries/STM32F4xx_HAL_Driver/Src/stm32f4xx_hal_spi.c **** 
2598:./Libraries/STM32F4xx_HAL_Driver/Src/stm32f4xx_hal_spi.c ****   UNUSED(tmpreg);
 6409              		.loc 1 2598 3
 6410 0018 FB7B     		ldrb	r3, [r7, #15]
2599:./Libraries/STM32F4xx_HAL_Driver/Src/stm32f4xx_hal_spi.c **** 
2600:./Libraries/STM32F4xx_HAL_Driver/Src/stm32f4xx_hal_spi.c ****    /* Disable RXNE interrupt */
ARM GAS  /tmp/ccits0mR.s 			page 158


2601:./Libraries/STM32F4xx_HAL_Driver/Src/stm32f4xx_hal_spi.c ****   __HAL_SPI_DISABLE_IT(hspi, (SPI_IT_RXNE | SPI_IT_ERR));
 6411              		.loc 1 2601 3
 6412 001a 7B68     		ldr	r3, [r7, #4]
 6413 001c 1B68     		ldr	r3, [r3]
 6414 001e 5A68     		ldr	r2, [r3, #4]
 6415 0020 7B68     		ldr	r3, [r7, #4]
 6416 0022 1B68     		ldr	r3, [r3]
 6417 0024 22F06002 		bic	r2, r2, #96
 6418 0028 5A60     		str	r2, [r3, #4]
2602:./Libraries/STM32F4xx_HAL_Driver/Src/stm32f4xx_hal_spi.c **** 
2603:./Libraries/STM32F4xx_HAL_Driver/Src/stm32f4xx_hal_spi.c ****   if(hspi->TxXferCount == 0U)
 6419              		.loc 1 2603 10
 6420 002a 7B68     		ldr	r3, [r7, #4]
 6421 002c DB8E     		ldrh	r3, [r3, #54]	@ movhi
 6422 002e 9BB2     		uxth	r3, r3
 6423              		.loc 1 2603 5
 6424 0030 002B     		cmp	r3, #0
 6425 0032 02D1     		bne	.L300
2604:./Libraries/STM32F4xx_HAL_Driver/Src/stm32f4xx_hal_spi.c ****   {
2605:./Libraries/STM32F4xx_HAL_Driver/Src/stm32f4xx_hal_spi.c ****     SPI_CloseRxTx_ISR(hspi);
 6426              		.loc 1 2605 5
 6427 0034 7868     		ldr	r0, [r7, #4]
 6428 0036 FFF7FEFF 		bl	SPI_CloseRxTx_ISR
 6429              	.L300:
2606:./Libraries/STM32F4xx_HAL_Driver/Src/stm32f4xx_hal_spi.c ****   }
2607:./Libraries/STM32F4xx_HAL_Driver/Src/stm32f4xx_hal_spi.c **** }
 6430              		.loc 1 2607 1
 6431 003a 00BF     		nop
 6432 003c 1037     		adds	r7, r7, #16
 6433              	.LCFI219:
 6434              		.cfi_def_cfa_offset 8
 6435 003e BD46     		mov	sp, r7
 6436              	.LCFI220:
 6437              		.cfi_def_cfa_register 13
 6438              		@ sp needed
 6439 0040 80BD     		pop	{r7, pc}
 6440              		.cfi_endproc
 6441              	.LFE166:
 6443              		.section	.text.SPI_2linesTxISR_8BIT,"ax",%progbits
 6444              		.align	1
 6445              		.syntax unified
 6446              		.thumb
 6447              		.thumb_func
 6448              		.fpu fpv4-sp-d16
 6450              	SPI_2linesTxISR_8BIT:
 6451              	.LFB167:
2608:./Libraries/STM32F4xx_HAL_Driver/Src/stm32f4xx_hal_spi.c **** #endif /* USE_SPI_CRC */
2609:./Libraries/STM32F4xx_HAL_Driver/Src/stm32f4xx_hal_spi.c **** 
2610:./Libraries/STM32F4xx_HAL_Driver/Src/stm32f4xx_hal_spi.c **** /**
2611:./Libraries/STM32F4xx_HAL_Driver/Src/stm32f4xx_hal_spi.c ****   * @brief  Tx 8-bit handler for Transmit and Receive in Interrupt mode.
2612:./Libraries/STM32F4xx_HAL_Driver/Src/stm32f4xx_hal_spi.c ****   * @param  hspi pointer to a SPI_HandleTypeDef structure that contains
2613:./Libraries/STM32F4xx_HAL_Driver/Src/stm32f4xx_hal_spi.c ****   *               the configuration information for SPI module.
2614:./Libraries/STM32F4xx_HAL_Driver/Src/stm32f4xx_hal_spi.c ****   * @retval None
2615:./Libraries/STM32F4xx_HAL_Driver/Src/stm32f4xx_hal_spi.c ****   */
2616:./Libraries/STM32F4xx_HAL_Driver/Src/stm32f4xx_hal_spi.c **** static void SPI_2linesTxISR_8BIT(struct __SPI_HandleTypeDef *hspi)
2617:./Libraries/STM32F4xx_HAL_Driver/Src/stm32f4xx_hal_spi.c **** {
 6452              		.loc 1 2617 1
ARM GAS  /tmp/ccits0mR.s 			page 159


 6453              		.cfi_startproc
 6454              		@ args = 0, pretend = 0, frame = 8
 6455              		@ frame_needed = 1, uses_anonymous_args = 0
 6456 0000 80B5     		push	{r7, lr}
 6457              	.LCFI221:
 6458              		.cfi_def_cfa_offset 8
 6459              		.cfi_offset 7, -8
 6460              		.cfi_offset 14, -4
 6461 0002 82B0     		sub	sp, sp, #8
 6462              	.LCFI222:
 6463              		.cfi_def_cfa_offset 16
 6464 0004 00AF     		add	r7, sp, #0
 6465              	.LCFI223:
 6466              		.cfi_def_cfa_register 7
 6467 0006 7860     		str	r0, [r7, #4]
2618:./Libraries/STM32F4xx_HAL_Driver/Src/stm32f4xx_hal_spi.c ****   *(__IO uint8_t *)&hspi->Instance->DR = (*hspi->pTxBuffPtr++);
 6468              		.loc 1 2618 48
 6469 0008 7B68     		ldr	r3, [r7, #4]
 6470 000a 1B6B     		ldr	r3, [r3, #48]
 6471              		.loc 1 2618 60
 6472 000c 591C     		adds	r1, r3, #1
 6473 000e 7A68     		ldr	r2, [r7, #4]
 6474 0010 1163     		str	r1, [r2, #48]
 6475              		.loc 1 2618 25
 6476 0012 7A68     		ldr	r2, [r7, #4]
 6477 0014 1268     		ldr	r2, [r2]
 6478              		.loc 1 2618 20
 6479 0016 0C32     		adds	r2, r2, #12
 6480              		.loc 1 2618 43
 6481 0018 1B78     		ldrb	r3, [r3]	@ zero_extendqisi2
 6482              		.loc 1 2618 40
 6483 001a 1370     		strb	r3, [r2]
2619:./Libraries/STM32F4xx_HAL_Driver/Src/stm32f4xx_hal_spi.c ****   hspi->TxXferCount--;
 6484              		.loc 1 2619 7
 6485 001c 7B68     		ldr	r3, [r7, #4]
 6486 001e DB8E     		ldrh	r3, [r3, #54]	@ movhi
 6487 0020 9BB2     		uxth	r3, r3
 6488              		.loc 1 2619 20
 6489 0022 013B     		subs	r3, r3, #1
 6490 0024 9AB2     		uxth	r2, r3
 6491 0026 7B68     		ldr	r3, [r7, #4]
 6492 0028 DA86     		strh	r2, [r3, #54]	@ movhi
2620:./Libraries/STM32F4xx_HAL_Driver/Src/stm32f4xx_hal_spi.c **** 
2621:./Libraries/STM32F4xx_HAL_Driver/Src/stm32f4xx_hal_spi.c ****   /* check the end of the transmission */
2622:./Libraries/STM32F4xx_HAL_Driver/Src/stm32f4xx_hal_spi.c ****   if(hspi->TxXferCount == 0U)
 6493              		.loc 1 2622 10
 6494 002a 7B68     		ldr	r3, [r7, #4]
 6495 002c DB8E     		ldrh	r3, [r3, #54]	@ movhi
 6496 002e 9BB2     		uxth	r3, r3
 6497              		.loc 1 2622 5
 6498 0030 002B     		cmp	r3, #0
 6499 0032 25D1     		bne	.L301
2623:./Libraries/STM32F4xx_HAL_Driver/Src/stm32f4xx_hal_spi.c ****   {
2624:./Libraries/STM32F4xx_HAL_Driver/Src/stm32f4xx_hal_spi.c **** #if (USE_SPI_CRC != 0U)
2625:./Libraries/STM32F4xx_HAL_Driver/Src/stm32f4xx_hal_spi.c ****     if(hspi->Init.CRCCalculation == SPI_CRCCALCULATION_ENABLE)
 6500              		.loc 1 2625 18
 6501 0034 7B68     		ldr	r3, [r7, #4]
ARM GAS  /tmp/ccits0mR.s 			page 160


 6502 0036 9B6A     		ldr	r3, [r3, #40]
 6503              		.loc 1 2625 7
 6504 0038 B3F5005F 		cmp	r3, #8192
 6505 003c 10D1     		bne	.L303
2626:./Libraries/STM32F4xx_HAL_Driver/Src/stm32f4xx_hal_spi.c ****     {
2627:./Libraries/STM32F4xx_HAL_Driver/Src/stm32f4xx_hal_spi.c ****       SET_BIT(hspi->Instance->CR1, SPI_CR1_CRCNEXT);
 6506              		.loc 1 2627 7
 6507 003e 7B68     		ldr	r3, [r7, #4]
 6508 0040 1B68     		ldr	r3, [r3]
 6509 0042 1A68     		ldr	r2, [r3]
 6510 0044 7B68     		ldr	r3, [r7, #4]
 6511 0046 1B68     		ldr	r3, [r3]
 6512 0048 42F48052 		orr	r2, r2, #4096
 6513 004c 1A60     		str	r2, [r3]
2628:./Libraries/STM32F4xx_HAL_Driver/Src/stm32f4xx_hal_spi.c ****       __HAL_SPI_DISABLE_IT(hspi, SPI_IT_TXE);
 6514              		.loc 1 2628 7
 6515 004e 7B68     		ldr	r3, [r7, #4]
 6516 0050 1B68     		ldr	r3, [r3]
 6517 0052 5A68     		ldr	r2, [r3, #4]
 6518 0054 7B68     		ldr	r3, [r7, #4]
 6519 0056 1B68     		ldr	r3, [r3]
 6520 0058 22F08002 		bic	r2, r2, #128
 6521 005c 5A60     		str	r2, [r3, #4]
2629:./Libraries/STM32F4xx_HAL_Driver/Src/stm32f4xx_hal_spi.c ****       return;
 6522              		.loc 1 2629 7
 6523 005e 0FE0     		b	.L301
 6524              	.L303:
2630:./Libraries/STM32F4xx_HAL_Driver/Src/stm32f4xx_hal_spi.c ****     }
2631:./Libraries/STM32F4xx_HAL_Driver/Src/stm32f4xx_hal_spi.c **** #endif /* USE_SPI_CRC */
2632:./Libraries/STM32F4xx_HAL_Driver/Src/stm32f4xx_hal_spi.c **** 
2633:./Libraries/STM32F4xx_HAL_Driver/Src/stm32f4xx_hal_spi.c ****     /* Disable TXE interrupt */
2634:./Libraries/STM32F4xx_HAL_Driver/Src/stm32f4xx_hal_spi.c ****     __HAL_SPI_DISABLE_IT(hspi, SPI_IT_TXE);
 6525              		.loc 1 2634 5
 6526 0060 7B68     		ldr	r3, [r7, #4]
 6527 0062 1B68     		ldr	r3, [r3]
 6528 0064 5A68     		ldr	r2, [r3, #4]
 6529 0066 7B68     		ldr	r3, [r7, #4]
 6530 0068 1B68     		ldr	r3, [r3]
 6531 006a 22F08002 		bic	r2, r2, #128
 6532 006e 5A60     		str	r2, [r3, #4]
2635:./Libraries/STM32F4xx_HAL_Driver/Src/stm32f4xx_hal_spi.c **** 
2636:./Libraries/STM32F4xx_HAL_Driver/Src/stm32f4xx_hal_spi.c ****     if(hspi->RxXferCount == 0U)
 6533              		.loc 1 2636 12
 6534 0070 7B68     		ldr	r3, [r7, #4]
 6535 0072 DB8F     		ldrh	r3, [r3, #62]	@ movhi
 6536 0074 9BB2     		uxth	r3, r3
 6537              		.loc 1 2636 7
 6538 0076 002B     		cmp	r3, #0
 6539 0078 02D1     		bne	.L301
2637:./Libraries/STM32F4xx_HAL_Driver/Src/stm32f4xx_hal_spi.c ****     {
2638:./Libraries/STM32F4xx_HAL_Driver/Src/stm32f4xx_hal_spi.c ****       SPI_CloseRxTx_ISR(hspi);
 6540              		.loc 1 2638 7
 6541 007a 7868     		ldr	r0, [r7, #4]
 6542 007c FFF7FEFF 		bl	SPI_CloseRxTx_ISR
 6543              	.L301:
2639:./Libraries/STM32F4xx_HAL_Driver/Src/stm32f4xx_hal_spi.c ****     }
2640:./Libraries/STM32F4xx_HAL_Driver/Src/stm32f4xx_hal_spi.c ****   }
ARM GAS  /tmp/ccits0mR.s 			page 161


2641:./Libraries/STM32F4xx_HAL_Driver/Src/stm32f4xx_hal_spi.c **** }
 6544              		.loc 1 2641 1
 6545 0080 0837     		adds	r7, r7, #8
 6546              	.LCFI224:
 6547              		.cfi_def_cfa_offset 8
 6548 0082 BD46     		mov	sp, r7
 6549              	.LCFI225:
 6550              		.cfi_def_cfa_register 13
 6551              		@ sp needed
 6552 0084 80BD     		pop	{r7, pc}
 6553              		.cfi_endproc
 6554              	.LFE167:
 6556              		.section	.text.SPI_2linesRxISR_16BIT,"ax",%progbits
 6557              		.align	1
 6558              		.syntax unified
 6559              		.thumb
 6560              		.thumb_func
 6561              		.fpu fpv4-sp-d16
 6563              	SPI_2linesRxISR_16BIT:
 6564              	.LFB168:
2642:./Libraries/STM32F4xx_HAL_Driver/Src/stm32f4xx_hal_spi.c **** 
2643:./Libraries/STM32F4xx_HAL_Driver/Src/stm32f4xx_hal_spi.c **** /**
2644:./Libraries/STM32F4xx_HAL_Driver/Src/stm32f4xx_hal_spi.c ****   * @brief  Rx 16-bit handler for Transmit and Receive in Interrupt mode.
2645:./Libraries/STM32F4xx_HAL_Driver/Src/stm32f4xx_hal_spi.c ****   * @param  hspi pointer to a SPI_HandleTypeDef structure that contains
2646:./Libraries/STM32F4xx_HAL_Driver/Src/stm32f4xx_hal_spi.c ****   *               the configuration information for SPI module.
2647:./Libraries/STM32F4xx_HAL_Driver/Src/stm32f4xx_hal_spi.c ****   * @retval None
2648:./Libraries/STM32F4xx_HAL_Driver/Src/stm32f4xx_hal_spi.c ****   */
2649:./Libraries/STM32F4xx_HAL_Driver/Src/stm32f4xx_hal_spi.c **** static void SPI_2linesRxISR_16BIT(struct __SPI_HandleTypeDef *hspi)
2650:./Libraries/STM32F4xx_HAL_Driver/Src/stm32f4xx_hal_spi.c **** {
 6565              		.loc 1 2650 1
 6566              		.cfi_startproc
 6567              		@ args = 0, pretend = 0, frame = 8
 6568              		@ frame_needed = 1, uses_anonymous_args = 0
 6569 0000 80B5     		push	{r7, lr}
 6570              	.LCFI226:
 6571              		.cfi_def_cfa_offset 8
 6572              		.cfi_offset 7, -8
 6573              		.cfi_offset 14, -4
 6574 0002 82B0     		sub	sp, sp, #8
 6575              	.LCFI227:
 6576              		.cfi_def_cfa_offset 16
 6577 0004 00AF     		add	r7, sp, #0
 6578              	.LCFI228:
 6579              		.cfi_def_cfa_register 7
 6580 0006 7860     		str	r0, [r7, #4]
2651:./Libraries/STM32F4xx_HAL_Driver/Src/stm32f4xx_hal_spi.c ****   /* Receive data in 16 Bit mode */
2652:./Libraries/STM32F4xx_HAL_Driver/Src/stm32f4xx_hal_spi.c ****   *((uint16_t*)hspi->pRxBuffPtr) = hspi->Instance->DR;
 6581              		.loc 1 2652 40
 6582 0008 7B68     		ldr	r3, [r7, #4]
 6583 000a 1B68     		ldr	r3, [r3]
 6584              		.loc 1 2652 50
 6585 000c DA68     		ldr	r2, [r3, #12]
 6586              		.loc 1 2652 20
 6587 000e 7B68     		ldr	r3, [r7, #4]
 6588 0010 9B6B     		ldr	r3, [r3, #56]
 6589              		.loc 1 2652 34
 6590 0012 92B2     		uxth	r2, r2
ARM GAS  /tmp/ccits0mR.s 			page 162


 6591 0014 1A80     		strh	r2, [r3]	@ movhi
2653:./Libraries/STM32F4xx_HAL_Driver/Src/stm32f4xx_hal_spi.c ****   hspi->pRxBuffPtr += sizeof(uint16_t);
 6592              		.loc 1 2653 20
 6593 0016 7B68     		ldr	r3, [r7, #4]
 6594 0018 9B6B     		ldr	r3, [r3, #56]
 6595 001a 9A1C     		adds	r2, r3, #2
 6596 001c 7B68     		ldr	r3, [r7, #4]
 6597 001e 9A63     		str	r2, [r3, #56]
2654:./Libraries/STM32F4xx_HAL_Driver/Src/stm32f4xx_hal_spi.c ****   hspi->RxXferCount--;
 6598              		.loc 1 2654 7
 6599 0020 7B68     		ldr	r3, [r7, #4]
 6600 0022 DB8F     		ldrh	r3, [r3, #62]	@ movhi
 6601 0024 9BB2     		uxth	r3, r3
 6602              		.loc 1 2654 20
 6603 0026 013B     		subs	r3, r3, #1
 6604 0028 9AB2     		uxth	r2, r3
 6605 002a 7B68     		ldr	r3, [r7, #4]
 6606 002c DA87     		strh	r2, [r3, #62]	@ movhi
2655:./Libraries/STM32F4xx_HAL_Driver/Src/stm32f4xx_hal_spi.c **** 
2656:./Libraries/STM32F4xx_HAL_Driver/Src/stm32f4xx_hal_spi.c ****   if(hspi->RxXferCount == 0U)
 6607              		.loc 1 2656 10
 6608 002e 7B68     		ldr	r3, [r7, #4]
 6609 0030 DB8F     		ldrh	r3, [r3, #62]	@ movhi
 6610 0032 9BB2     		uxth	r3, r3
 6611              		.loc 1 2656 5
 6612 0034 002B     		cmp	r3, #0
 6613 0036 18D1     		bne	.L304
2657:./Libraries/STM32F4xx_HAL_Driver/Src/stm32f4xx_hal_spi.c ****   {
2658:./Libraries/STM32F4xx_HAL_Driver/Src/stm32f4xx_hal_spi.c **** #if (USE_SPI_CRC != 0U)
2659:./Libraries/STM32F4xx_HAL_Driver/Src/stm32f4xx_hal_spi.c ****     if(hspi->Init.CRCCalculation == SPI_CRCCALCULATION_ENABLE)
 6614              		.loc 1 2659 18
 6615 0038 7B68     		ldr	r3, [r7, #4]
 6616 003a 9B6A     		ldr	r3, [r3, #40]
 6617              		.loc 1 2659 7
 6618 003c B3F5005F 		cmp	r3, #8192
 6619 0040 03D1     		bne	.L306
2660:./Libraries/STM32F4xx_HAL_Driver/Src/stm32f4xx_hal_spi.c ****     {
2661:./Libraries/STM32F4xx_HAL_Driver/Src/stm32f4xx_hal_spi.c ****       hspi->RxISR =  SPI_2linesRxISR_16BITCRC;
 6620              		.loc 1 2661 19
 6621 0042 7B68     		ldr	r3, [r7, #4]
 6622 0044 0A4A     		ldr	r2, .L307
 6623 0046 1A64     		str	r2, [r3, #64]
2662:./Libraries/STM32F4xx_HAL_Driver/Src/stm32f4xx_hal_spi.c ****       return;
 6624              		.loc 1 2662 7
 6625 0048 0FE0     		b	.L304
 6626              	.L306:
2663:./Libraries/STM32F4xx_HAL_Driver/Src/stm32f4xx_hal_spi.c ****     }
2664:./Libraries/STM32F4xx_HAL_Driver/Src/stm32f4xx_hal_spi.c **** #endif /* USE_SPI_CRC */
2665:./Libraries/STM32F4xx_HAL_Driver/Src/stm32f4xx_hal_spi.c **** 
2666:./Libraries/STM32F4xx_HAL_Driver/Src/stm32f4xx_hal_spi.c ****     /* Disable RXNE interrupt */
2667:./Libraries/STM32F4xx_HAL_Driver/Src/stm32f4xx_hal_spi.c ****     __HAL_SPI_DISABLE_IT(hspi, SPI_IT_RXNE);
 6627              		.loc 1 2667 5
 6628 004a 7B68     		ldr	r3, [r7, #4]
 6629 004c 1B68     		ldr	r3, [r3]
 6630 004e 5A68     		ldr	r2, [r3, #4]
 6631 0050 7B68     		ldr	r3, [r7, #4]
 6632 0052 1B68     		ldr	r3, [r3]
ARM GAS  /tmp/ccits0mR.s 			page 163


 6633 0054 22F04002 		bic	r2, r2, #64
 6634 0058 5A60     		str	r2, [r3, #4]
2668:./Libraries/STM32F4xx_HAL_Driver/Src/stm32f4xx_hal_spi.c **** 
2669:./Libraries/STM32F4xx_HAL_Driver/Src/stm32f4xx_hal_spi.c ****     if(hspi->TxXferCount == 0U)
 6635              		.loc 1 2669 12
 6636 005a 7B68     		ldr	r3, [r7, #4]
 6637 005c DB8E     		ldrh	r3, [r3, #54]	@ movhi
 6638 005e 9BB2     		uxth	r3, r3
 6639              		.loc 1 2669 7
 6640 0060 002B     		cmp	r3, #0
 6641 0062 02D1     		bne	.L304
2670:./Libraries/STM32F4xx_HAL_Driver/Src/stm32f4xx_hal_spi.c ****     {
2671:./Libraries/STM32F4xx_HAL_Driver/Src/stm32f4xx_hal_spi.c ****       SPI_CloseRxTx_ISR(hspi);
 6642              		.loc 1 2671 7
 6643 0064 7868     		ldr	r0, [r7, #4]
 6644 0066 FFF7FEFF 		bl	SPI_CloseRxTx_ISR
 6645              	.L304:
2672:./Libraries/STM32F4xx_HAL_Driver/Src/stm32f4xx_hal_spi.c ****     }
2673:./Libraries/STM32F4xx_HAL_Driver/Src/stm32f4xx_hal_spi.c ****   }
2674:./Libraries/STM32F4xx_HAL_Driver/Src/stm32f4xx_hal_spi.c **** }
 6646              		.loc 1 2674 1
 6647 006a 0837     		adds	r7, r7, #8
 6648              	.LCFI229:
 6649              		.cfi_def_cfa_offset 8
 6650 006c BD46     		mov	sp, r7
 6651              	.LCFI230:
 6652              		.cfi_def_cfa_register 13
 6653              		@ sp needed
 6654 006e 80BD     		pop	{r7, pc}
 6655              	.L308:
 6656              		.align	2
 6657              	.L307:
 6658 0070 00000000 		.word	SPI_2linesRxISR_16BITCRC
 6659              		.cfi_endproc
 6660              	.LFE168:
 6662              		.section	.text.SPI_2linesRxISR_16BITCRC,"ax",%progbits
 6663              		.align	1
 6664              		.syntax unified
 6665              		.thumb
 6666              		.thumb_func
 6667              		.fpu fpv4-sp-d16
 6669              	SPI_2linesRxISR_16BITCRC:
 6670              	.LFB169:
2675:./Libraries/STM32F4xx_HAL_Driver/Src/stm32f4xx_hal_spi.c **** 
2676:./Libraries/STM32F4xx_HAL_Driver/Src/stm32f4xx_hal_spi.c **** #if (USE_SPI_CRC != 0U)
2677:./Libraries/STM32F4xx_HAL_Driver/Src/stm32f4xx_hal_spi.c **** /**
2678:./Libraries/STM32F4xx_HAL_Driver/Src/stm32f4xx_hal_spi.c ****   * @brief  Manage the CRC 16-bit receive for Transmit and Receive in Interrupt mode.
2679:./Libraries/STM32F4xx_HAL_Driver/Src/stm32f4xx_hal_spi.c ****   * @param  hspi pointer to a SPI_HandleTypeDef structure that contains
2680:./Libraries/STM32F4xx_HAL_Driver/Src/stm32f4xx_hal_spi.c ****   *               the configuration information for SPI module.
2681:./Libraries/STM32F4xx_HAL_Driver/Src/stm32f4xx_hal_spi.c ****   * @retval None
2682:./Libraries/STM32F4xx_HAL_Driver/Src/stm32f4xx_hal_spi.c ****   */
2683:./Libraries/STM32F4xx_HAL_Driver/Src/stm32f4xx_hal_spi.c **** static void SPI_2linesRxISR_16BITCRC(struct __SPI_HandleTypeDef *hspi)
2684:./Libraries/STM32F4xx_HAL_Driver/Src/stm32f4xx_hal_spi.c **** {
 6671              		.loc 1 2684 1
 6672              		.cfi_startproc
 6673              		@ args = 0, pretend = 0, frame = 16
 6674              		@ frame_needed = 1, uses_anonymous_args = 0
ARM GAS  /tmp/ccits0mR.s 			page 164


 6675 0000 80B5     		push	{r7, lr}
 6676              	.LCFI231:
 6677              		.cfi_def_cfa_offset 8
 6678              		.cfi_offset 7, -8
 6679              		.cfi_offset 14, -4
 6680 0002 84B0     		sub	sp, sp, #16
 6681              	.LCFI232:
 6682              		.cfi_def_cfa_offset 24
 6683 0004 00AF     		add	r7, sp, #0
 6684              	.LCFI233:
 6685              		.cfi_def_cfa_register 7
 6686 0006 7860     		str	r0, [r7, #4]
2685:./Libraries/STM32F4xx_HAL_Driver/Src/stm32f4xx_hal_spi.c ****   /* Receive data in 16 Bit mode */
2686:./Libraries/STM32F4xx_HAL_Driver/Src/stm32f4xx_hal_spi.c ****   __IO uint16_t tmpreg = 0U;
 6687              		.loc 1 2686 17
 6688 0008 0023     		movs	r3, #0
 6689 000a FB81     		strh	r3, [r7, #14]	@ movhi
2687:./Libraries/STM32F4xx_HAL_Driver/Src/stm32f4xx_hal_spi.c **** 
2688:./Libraries/STM32F4xx_HAL_Driver/Src/stm32f4xx_hal_spi.c ****   /* Read data register to flush CRC */
2689:./Libraries/STM32F4xx_HAL_Driver/Src/stm32f4xx_hal_spi.c ****   tmpreg = hspi->Instance->DR;
 6690              		.loc 1 2689 16
 6691 000c 7B68     		ldr	r3, [r7, #4]
 6692 000e 1B68     		ldr	r3, [r3]
 6693              		.loc 1 2689 26
 6694 0010 DB68     		ldr	r3, [r3, #12]
 6695              		.loc 1 2689 10
 6696 0012 9BB2     		uxth	r3, r3
 6697 0014 FB81     		strh	r3, [r7, #14]	@ movhi
2690:./Libraries/STM32F4xx_HAL_Driver/Src/stm32f4xx_hal_spi.c **** 
2691:./Libraries/STM32F4xx_HAL_Driver/Src/stm32f4xx_hal_spi.c ****   /* To avoid GCC warning */
2692:./Libraries/STM32F4xx_HAL_Driver/Src/stm32f4xx_hal_spi.c ****   UNUSED(tmpreg);
 6698              		.loc 1 2692 3
 6699 0016 FB89     		ldrh	r3, [r7, #14]	@ movhi
2693:./Libraries/STM32F4xx_HAL_Driver/Src/stm32f4xx_hal_spi.c **** 
2694:./Libraries/STM32F4xx_HAL_Driver/Src/stm32f4xx_hal_spi.c ****   /* Disable RXNE interrupt */
2695:./Libraries/STM32F4xx_HAL_Driver/Src/stm32f4xx_hal_spi.c ****   __HAL_SPI_DISABLE_IT(hspi, SPI_IT_RXNE);
 6700              		.loc 1 2695 3
 6701 0018 7B68     		ldr	r3, [r7, #4]
 6702 001a 1B68     		ldr	r3, [r3]
 6703 001c 5A68     		ldr	r2, [r3, #4]
 6704 001e 7B68     		ldr	r3, [r7, #4]
 6705 0020 1B68     		ldr	r3, [r3]
 6706 0022 22F04002 		bic	r2, r2, #64
 6707 0026 5A60     		str	r2, [r3, #4]
2696:./Libraries/STM32F4xx_HAL_Driver/Src/stm32f4xx_hal_spi.c **** 
2697:./Libraries/STM32F4xx_HAL_Driver/Src/stm32f4xx_hal_spi.c ****   SPI_CloseRxTx_ISR(hspi);
 6708              		.loc 1 2697 3
 6709 0028 7868     		ldr	r0, [r7, #4]
 6710 002a FFF7FEFF 		bl	SPI_CloseRxTx_ISR
2698:./Libraries/STM32F4xx_HAL_Driver/Src/stm32f4xx_hal_spi.c **** }
 6711              		.loc 1 2698 1
 6712 002e 00BF     		nop
 6713 0030 1037     		adds	r7, r7, #16
 6714              	.LCFI234:
 6715              		.cfi_def_cfa_offset 8
 6716 0032 BD46     		mov	sp, r7
 6717              	.LCFI235:
ARM GAS  /tmp/ccits0mR.s 			page 165


 6718              		.cfi_def_cfa_register 13
 6719              		@ sp needed
 6720 0034 80BD     		pop	{r7, pc}
 6721              		.cfi_endproc
 6722              	.LFE169:
 6724              		.section	.text.SPI_2linesTxISR_16BIT,"ax",%progbits
 6725              		.align	1
 6726              		.syntax unified
 6727              		.thumb
 6728              		.thumb_func
 6729              		.fpu fpv4-sp-d16
 6731              	SPI_2linesTxISR_16BIT:
 6732              	.LFB170:
2699:./Libraries/STM32F4xx_HAL_Driver/Src/stm32f4xx_hal_spi.c **** #endif /* USE_SPI_CRC */
2700:./Libraries/STM32F4xx_HAL_Driver/Src/stm32f4xx_hal_spi.c **** 
2701:./Libraries/STM32F4xx_HAL_Driver/Src/stm32f4xx_hal_spi.c **** /**
2702:./Libraries/STM32F4xx_HAL_Driver/Src/stm32f4xx_hal_spi.c ****   * @brief  Tx 16-bit handler for Transmit and Receive in Interrupt mode.
2703:./Libraries/STM32F4xx_HAL_Driver/Src/stm32f4xx_hal_spi.c ****   * @param  hspi pointer to a SPI_HandleTypeDef structure that contains
2704:./Libraries/STM32F4xx_HAL_Driver/Src/stm32f4xx_hal_spi.c ****   *               the configuration information for SPI module.
2705:./Libraries/STM32F4xx_HAL_Driver/Src/stm32f4xx_hal_spi.c ****   * @retval None
2706:./Libraries/STM32F4xx_HAL_Driver/Src/stm32f4xx_hal_spi.c ****   */
2707:./Libraries/STM32F4xx_HAL_Driver/Src/stm32f4xx_hal_spi.c **** static void SPI_2linesTxISR_16BIT(struct __SPI_HandleTypeDef *hspi)
2708:./Libraries/STM32F4xx_HAL_Driver/Src/stm32f4xx_hal_spi.c **** {
 6733              		.loc 1 2708 1
 6734              		.cfi_startproc
 6735              		@ args = 0, pretend = 0, frame = 8
 6736              		@ frame_needed = 1, uses_anonymous_args = 0
 6737 0000 80B5     		push	{r7, lr}
 6738              	.LCFI236:
 6739              		.cfi_def_cfa_offset 8
 6740              		.cfi_offset 7, -8
 6741              		.cfi_offset 14, -4
 6742 0002 82B0     		sub	sp, sp, #8
 6743              	.LCFI237:
 6744              		.cfi_def_cfa_offset 16
 6745 0004 00AF     		add	r7, sp, #0
 6746              	.LCFI238:
 6747              		.cfi_def_cfa_register 7
 6748 0006 7860     		str	r0, [r7, #4]
2709:./Libraries/STM32F4xx_HAL_Driver/Src/stm32f4xx_hal_spi.c ****   /* Transmit data in 16 Bit mode */
2710:./Libraries/STM32F4xx_HAL_Driver/Src/stm32f4xx_hal_spi.c ****   hspi->Instance->DR = *((uint16_t *)hspi->pTxBuffPtr);
 6749              		.loc 1 2710 42
 6750 0008 7B68     		ldr	r3, [r7, #4]
 6751 000a 1B6B     		ldr	r3, [r3, #48]
 6752              		.loc 1 2710 24
 6753 000c 1A88     		ldrh	r2, [r3]
 6754              		.loc 1 2710 7
 6755 000e 7B68     		ldr	r3, [r7, #4]
 6756 0010 1B68     		ldr	r3, [r3]
 6757              		.loc 1 2710 22
 6758 0012 DA60     		str	r2, [r3, #12]
2711:./Libraries/STM32F4xx_HAL_Driver/Src/stm32f4xx_hal_spi.c ****   hspi->pTxBuffPtr += sizeof(uint16_t);
 6759              		.loc 1 2711 20
 6760 0014 7B68     		ldr	r3, [r7, #4]
 6761 0016 1B6B     		ldr	r3, [r3, #48]
 6762 0018 9A1C     		adds	r2, r3, #2
 6763 001a 7B68     		ldr	r3, [r7, #4]
ARM GAS  /tmp/ccits0mR.s 			page 166


 6764 001c 1A63     		str	r2, [r3, #48]
2712:./Libraries/STM32F4xx_HAL_Driver/Src/stm32f4xx_hal_spi.c ****   hspi->TxXferCount--;
 6765              		.loc 1 2712 7
 6766 001e 7B68     		ldr	r3, [r7, #4]
 6767 0020 DB8E     		ldrh	r3, [r3, #54]	@ movhi
 6768 0022 9BB2     		uxth	r3, r3
 6769              		.loc 1 2712 20
 6770 0024 013B     		subs	r3, r3, #1
 6771 0026 9AB2     		uxth	r2, r3
 6772 0028 7B68     		ldr	r3, [r7, #4]
 6773 002a DA86     		strh	r2, [r3, #54]	@ movhi
2713:./Libraries/STM32F4xx_HAL_Driver/Src/stm32f4xx_hal_spi.c **** 
2714:./Libraries/STM32F4xx_HAL_Driver/Src/stm32f4xx_hal_spi.c ****   /* Enable CRC Transmission */
2715:./Libraries/STM32F4xx_HAL_Driver/Src/stm32f4xx_hal_spi.c ****   if(hspi->TxXferCount == 0U)
 6774              		.loc 1 2715 10
 6775 002c 7B68     		ldr	r3, [r7, #4]
 6776 002e DB8E     		ldrh	r3, [r3, #54]	@ movhi
 6777 0030 9BB2     		uxth	r3, r3
 6778              		.loc 1 2715 5
 6779 0032 002B     		cmp	r3, #0
 6780 0034 25D1     		bne	.L310
2716:./Libraries/STM32F4xx_HAL_Driver/Src/stm32f4xx_hal_spi.c ****   {
2717:./Libraries/STM32F4xx_HAL_Driver/Src/stm32f4xx_hal_spi.c **** #if (USE_SPI_CRC != 0U)
2718:./Libraries/STM32F4xx_HAL_Driver/Src/stm32f4xx_hal_spi.c ****     if(hspi->Init.CRCCalculation == SPI_CRCCALCULATION_ENABLE)
 6781              		.loc 1 2718 18
 6782 0036 7B68     		ldr	r3, [r7, #4]
 6783 0038 9B6A     		ldr	r3, [r3, #40]
 6784              		.loc 1 2718 7
 6785 003a B3F5005F 		cmp	r3, #8192
 6786 003e 10D1     		bne	.L312
2719:./Libraries/STM32F4xx_HAL_Driver/Src/stm32f4xx_hal_spi.c ****     {
2720:./Libraries/STM32F4xx_HAL_Driver/Src/stm32f4xx_hal_spi.c ****       SET_BIT(hspi->Instance->CR1, SPI_CR1_CRCNEXT);
 6787              		.loc 1 2720 7
 6788 0040 7B68     		ldr	r3, [r7, #4]
 6789 0042 1B68     		ldr	r3, [r3]
 6790 0044 1A68     		ldr	r2, [r3]
 6791 0046 7B68     		ldr	r3, [r7, #4]
 6792 0048 1B68     		ldr	r3, [r3]
 6793 004a 42F48052 		orr	r2, r2, #4096
 6794 004e 1A60     		str	r2, [r3]
2721:./Libraries/STM32F4xx_HAL_Driver/Src/stm32f4xx_hal_spi.c ****       __HAL_SPI_DISABLE_IT(hspi, SPI_IT_TXE);
 6795              		.loc 1 2721 7
 6796 0050 7B68     		ldr	r3, [r7, #4]
 6797 0052 1B68     		ldr	r3, [r3]
 6798 0054 5A68     		ldr	r2, [r3, #4]
 6799 0056 7B68     		ldr	r3, [r7, #4]
 6800 0058 1B68     		ldr	r3, [r3]
 6801 005a 22F08002 		bic	r2, r2, #128
 6802 005e 5A60     		str	r2, [r3, #4]
2722:./Libraries/STM32F4xx_HAL_Driver/Src/stm32f4xx_hal_spi.c ****       return;
 6803              		.loc 1 2722 7
 6804 0060 0FE0     		b	.L310
 6805              	.L312:
2723:./Libraries/STM32F4xx_HAL_Driver/Src/stm32f4xx_hal_spi.c ****     }
2724:./Libraries/STM32F4xx_HAL_Driver/Src/stm32f4xx_hal_spi.c **** #endif /* USE_SPI_CRC */
2725:./Libraries/STM32F4xx_HAL_Driver/Src/stm32f4xx_hal_spi.c **** 
2726:./Libraries/STM32F4xx_HAL_Driver/Src/stm32f4xx_hal_spi.c ****     /* Disable TXE interrupt */
ARM GAS  /tmp/ccits0mR.s 			page 167


2727:./Libraries/STM32F4xx_HAL_Driver/Src/stm32f4xx_hal_spi.c ****     __HAL_SPI_DISABLE_IT(hspi, SPI_IT_TXE);
 6806              		.loc 1 2727 5
 6807 0062 7B68     		ldr	r3, [r7, #4]
 6808 0064 1B68     		ldr	r3, [r3]
 6809 0066 5A68     		ldr	r2, [r3, #4]
 6810 0068 7B68     		ldr	r3, [r7, #4]
 6811 006a 1B68     		ldr	r3, [r3]
 6812 006c 22F08002 		bic	r2, r2, #128
 6813 0070 5A60     		str	r2, [r3, #4]
2728:./Libraries/STM32F4xx_HAL_Driver/Src/stm32f4xx_hal_spi.c **** 
2729:./Libraries/STM32F4xx_HAL_Driver/Src/stm32f4xx_hal_spi.c ****     if(hspi->RxXferCount == 0U)
 6814              		.loc 1 2729 12
 6815 0072 7B68     		ldr	r3, [r7, #4]
 6816 0074 DB8F     		ldrh	r3, [r3, #62]	@ movhi
 6817 0076 9BB2     		uxth	r3, r3
 6818              		.loc 1 2729 7
 6819 0078 002B     		cmp	r3, #0
 6820 007a 02D1     		bne	.L310
2730:./Libraries/STM32F4xx_HAL_Driver/Src/stm32f4xx_hal_spi.c ****     {
2731:./Libraries/STM32F4xx_HAL_Driver/Src/stm32f4xx_hal_spi.c ****       SPI_CloseRxTx_ISR(hspi);
 6821              		.loc 1 2731 7
 6822 007c 7868     		ldr	r0, [r7, #4]
 6823 007e FFF7FEFF 		bl	SPI_CloseRxTx_ISR
 6824              	.L310:
2732:./Libraries/STM32F4xx_HAL_Driver/Src/stm32f4xx_hal_spi.c ****     }
2733:./Libraries/STM32F4xx_HAL_Driver/Src/stm32f4xx_hal_spi.c ****   }
2734:./Libraries/STM32F4xx_HAL_Driver/Src/stm32f4xx_hal_spi.c **** }
 6825              		.loc 1 2734 1
 6826 0082 0837     		adds	r7, r7, #8
 6827              	.LCFI239:
 6828              		.cfi_def_cfa_offset 8
 6829 0084 BD46     		mov	sp, r7
 6830              	.LCFI240:
 6831              		.cfi_def_cfa_register 13
 6832              		@ sp needed
 6833 0086 80BD     		pop	{r7, pc}
 6834              		.cfi_endproc
 6835              	.LFE170:
 6837              		.section	.text.SPI_RxISR_8BITCRC,"ax",%progbits
 6838              		.align	1
 6839              		.syntax unified
 6840              		.thumb
 6841              		.thumb_func
 6842              		.fpu fpv4-sp-d16
 6844              	SPI_RxISR_8BITCRC:
 6845              	.LFB171:
2735:./Libraries/STM32F4xx_HAL_Driver/Src/stm32f4xx_hal_spi.c **** 
2736:./Libraries/STM32F4xx_HAL_Driver/Src/stm32f4xx_hal_spi.c **** #if (USE_SPI_CRC != 0U)
2737:./Libraries/STM32F4xx_HAL_Driver/Src/stm32f4xx_hal_spi.c **** /**
2738:./Libraries/STM32F4xx_HAL_Driver/Src/stm32f4xx_hal_spi.c ****   * @brief  Manage the CRC 8-bit receive in Interrupt context.
2739:./Libraries/STM32F4xx_HAL_Driver/Src/stm32f4xx_hal_spi.c ****   * @param  hspi pointer to a SPI_HandleTypeDef structure that contains
2740:./Libraries/STM32F4xx_HAL_Driver/Src/stm32f4xx_hal_spi.c ****   *               the configuration information for SPI module.
2741:./Libraries/STM32F4xx_HAL_Driver/Src/stm32f4xx_hal_spi.c ****   * @retval None
2742:./Libraries/STM32F4xx_HAL_Driver/Src/stm32f4xx_hal_spi.c ****   */
2743:./Libraries/STM32F4xx_HAL_Driver/Src/stm32f4xx_hal_spi.c **** static void SPI_RxISR_8BITCRC(struct __SPI_HandleTypeDef *hspi)
2744:./Libraries/STM32F4xx_HAL_Driver/Src/stm32f4xx_hal_spi.c **** {
 6846              		.loc 1 2744 1
ARM GAS  /tmp/ccits0mR.s 			page 168


 6847              		.cfi_startproc
 6848              		@ args = 0, pretend = 0, frame = 16
 6849              		@ frame_needed = 1, uses_anonymous_args = 0
 6850 0000 80B5     		push	{r7, lr}
 6851              	.LCFI241:
 6852              		.cfi_def_cfa_offset 8
 6853              		.cfi_offset 7, -8
 6854              		.cfi_offset 14, -4
 6855 0002 84B0     		sub	sp, sp, #16
 6856              	.LCFI242:
 6857              		.cfi_def_cfa_offset 24
 6858 0004 00AF     		add	r7, sp, #0
 6859              	.LCFI243:
 6860              		.cfi_def_cfa_register 7
 6861 0006 7860     		str	r0, [r7, #4]
2745:./Libraries/STM32F4xx_HAL_Driver/Src/stm32f4xx_hal_spi.c ****   __IO uint8_t tmpreg = 0U;
 6862              		.loc 1 2745 16
 6863 0008 0023     		movs	r3, #0
 6864 000a FB73     		strb	r3, [r7, #15]
2746:./Libraries/STM32F4xx_HAL_Driver/Src/stm32f4xx_hal_spi.c **** 
2747:./Libraries/STM32F4xx_HAL_Driver/Src/stm32f4xx_hal_spi.c ****   /* Read data register to flush CRC */
2748:./Libraries/STM32F4xx_HAL_Driver/Src/stm32f4xx_hal_spi.c ****   tmpreg = *((__IO uint8_t*)&hspi->Instance->DR);
 6865              		.loc 1 2748 34
 6866 000c 7B68     		ldr	r3, [r7, #4]
 6867 000e 1B68     		ldr	r3, [r3]
 6868              		.loc 1 2748 29
 6869 0010 0C33     		adds	r3, r3, #12
 6870              		.loc 1 2748 12
 6871 0012 1B78     		ldrb	r3, [r3]
 6872 0014 DBB2     		uxtb	r3, r3
 6873              		.loc 1 2748 10
 6874 0016 FB73     		strb	r3, [r7, #15]
2749:./Libraries/STM32F4xx_HAL_Driver/Src/stm32f4xx_hal_spi.c **** 
2750:./Libraries/STM32F4xx_HAL_Driver/Src/stm32f4xx_hal_spi.c ****   /* To avoid GCC warning */
2751:./Libraries/STM32F4xx_HAL_Driver/Src/stm32f4xx_hal_spi.c ****   UNUSED(tmpreg);
 6875              		.loc 1 2751 3
 6876 0018 FB7B     		ldrb	r3, [r7, #15]
2752:./Libraries/STM32F4xx_HAL_Driver/Src/stm32f4xx_hal_spi.c **** 
2753:./Libraries/STM32F4xx_HAL_Driver/Src/stm32f4xx_hal_spi.c ****   SPI_CloseRx_ISR(hspi);
 6877              		.loc 1 2753 3
 6878 001a 7868     		ldr	r0, [r7, #4]
 6879 001c FFF7FEFF 		bl	SPI_CloseRx_ISR
2754:./Libraries/STM32F4xx_HAL_Driver/Src/stm32f4xx_hal_spi.c **** }
 6880              		.loc 1 2754 1
 6881 0020 00BF     		nop
 6882 0022 1037     		adds	r7, r7, #16
 6883              	.LCFI244:
 6884              		.cfi_def_cfa_offset 8
 6885 0024 BD46     		mov	sp, r7
 6886              	.LCFI245:
 6887              		.cfi_def_cfa_register 13
 6888              		@ sp needed
 6889 0026 80BD     		pop	{r7, pc}
 6890              		.cfi_endproc
 6891              	.LFE171:
 6893              		.section	.text.SPI_RxISR_8BIT,"ax",%progbits
 6894              		.align	1
ARM GAS  /tmp/ccits0mR.s 			page 169


 6895              		.syntax unified
 6896              		.thumb
 6897              		.thumb_func
 6898              		.fpu fpv4-sp-d16
 6900              	SPI_RxISR_8BIT:
 6901              	.LFB172:
2755:./Libraries/STM32F4xx_HAL_Driver/Src/stm32f4xx_hal_spi.c **** #endif /* USE_SPI_CRC */
2756:./Libraries/STM32F4xx_HAL_Driver/Src/stm32f4xx_hal_spi.c **** 
2757:./Libraries/STM32F4xx_HAL_Driver/Src/stm32f4xx_hal_spi.c **** /**
2758:./Libraries/STM32F4xx_HAL_Driver/Src/stm32f4xx_hal_spi.c ****   * @brief  Manage the receive 8-bit in Interrupt context.
2759:./Libraries/STM32F4xx_HAL_Driver/Src/stm32f4xx_hal_spi.c ****   * @param  hspi pointer to a SPI_HandleTypeDef structure that contains
2760:./Libraries/STM32F4xx_HAL_Driver/Src/stm32f4xx_hal_spi.c ****   *               the configuration information for SPI module.
2761:./Libraries/STM32F4xx_HAL_Driver/Src/stm32f4xx_hal_spi.c ****   * @retval None
2762:./Libraries/STM32F4xx_HAL_Driver/Src/stm32f4xx_hal_spi.c ****   */
2763:./Libraries/STM32F4xx_HAL_Driver/Src/stm32f4xx_hal_spi.c **** static void SPI_RxISR_8BIT(struct __SPI_HandleTypeDef *hspi)
2764:./Libraries/STM32F4xx_HAL_Driver/Src/stm32f4xx_hal_spi.c **** {
 6902              		.loc 1 2764 1
 6903              		.cfi_startproc
 6904              		@ args = 0, pretend = 0, frame = 8
 6905              		@ frame_needed = 1, uses_anonymous_args = 0
 6906 0000 80B5     		push	{r7, lr}
 6907              	.LCFI246:
 6908              		.cfi_def_cfa_offset 8
 6909              		.cfi_offset 7, -8
 6910              		.cfi_offset 14, -4
 6911 0002 82B0     		sub	sp, sp, #8
 6912              	.LCFI247:
 6913              		.cfi_def_cfa_offset 16
 6914 0004 00AF     		add	r7, sp, #0
 6915              	.LCFI248:
 6916              		.cfi_def_cfa_register 7
 6917 0006 7860     		str	r0, [r7, #4]
2765:./Libraries/STM32F4xx_HAL_Driver/Src/stm32f4xx_hal_spi.c ****   *hspi->pRxBuffPtr++ = (*(__IO uint8_t *)&hspi->Instance->DR);
 6918              		.loc 1 2765 48
 6919 0008 7B68     		ldr	r3, [r7, #4]
 6920 000a 1B68     		ldr	r3, [r3]
 6921              		.loc 1 2765 43
 6922 000c 03F10C02 		add	r2, r3, #12
 6923              		.loc 1 2765 8
 6924 0010 7B68     		ldr	r3, [r7, #4]
 6925 0012 9B6B     		ldr	r3, [r3, #56]
 6926              		.loc 1 2765 20
 6927 0014 581C     		adds	r0, r3, #1
 6928 0016 7968     		ldr	r1, [r7, #4]
 6929 0018 8863     		str	r0, [r1, #56]
 6930              		.loc 1 2765 26
 6931 001a 1278     		ldrb	r2, [r2]
 6932 001c D2B2     		uxtb	r2, r2
 6933              		.loc 1 2765 23
 6934 001e 1A70     		strb	r2, [r3]
2766:./Libraries/STM32F4xx_HAL_Driver/Src/stm32f4xx_hal_spi.c ****   hspi->RxXferCount--;
 6935              		.loc 1 2766 7
 6936 0020 7B68     		ldr	r3, [r7, #4]
 6937 0022 DB8F     		ldrh	r3, [r3, #62]	@ movhi
 6938 0024 9BB2     		uxth	r3, r3
 6939              		.loc 1 2766 20
 6940 0026 013B     		subs	r3, r3, #1
ARM GAS  /tmp/ccits0mR.s 			page 170


 6941 0028 9AB2     		uxth	r2, r3
 6942 002a 7B68     		ldr	r3, [r7, #4]
 6943 002c DA87     		strh	r2, [r3, #62]	@ movhi
2767:./Libraries/STM32F4xx_HAL_Driver/Src/stm32f4xx_hal_spi.c **** 
2768:./Libraries/STM32F4xx_HAL_Driver/Src/stm32f4xx_hal_spi.c **** #if (USE_SPI_CRC != 0U)
2769:./Libraries/STM32F4xx_HAL_Driver/Src/stm32f4xx_hal_spi.c ****   /* Enable CRC Transmission */
2770:./Libraries/STM32F4xx_HAL_Driver/Src/stm32f4xx_hal_spi.c ****   if((hspi->RxXferCount == 1U) && (hspi->Init.CRCCalculation == SPI_CRCCALCULATION_ENABLE))
 6944              		.loc 1 2770 11
 6945 002e 7B68     		ldr	r3, [r7, #4]
 6946 0030 DB8F     		ldrh	r3, [r3, #62]	@ movhi
 6947 0032 9BB2     		uxth	r3, r3
 6948              		.loc 1 2770 5
 6949 0034 012B     		cmp	r3, #1
 6950 0036 0CD1     		bne	.L315
 6951              		.loc 1 2770 46 discriminator 1
 6952 0038 7B68     		ldr	r3, [r7, #4]
 6953 003a 9B6A     		ldr	r3, [r3, #40]
 6954              		.loc 1 2770 32 discriminator 1
 6955 003c B3F5005F 		cmp	r3, #8192
 6956 0040 07D1     		bne	.L315
2771:./Libraries/STM32F4xx_HAL_Driver/Src/stm32f4xx_hal_spi.c ****   {
2772:./Libraries/STM32F4xx_HAL_Driver/Src/stm32f4xx_hal_spi.c ****     SET_BIT(hspi->Instance->CR1, SPI_CR1_CRCNEXT);
 6957              		.loc 1 2772 5
 6958 0042 7B68     		ldr	r3, [r7, #4]
 6959 0044 1B68     		ldr	r3, [r3]
 6960 0046 1A68     		ldr	r2, [r3]
 6961 0048 7B68     		ldr	r3, [r7, #4]
 6962 004a 1B68     		ldr	r3, [r3]
 6963 004c 42F48052 		orr	r2, r2, #4096
 6964 0050 1A60     		str	r2, [r3]
 6965              	.L315:
2773:./Libraries/STM32F4xx_HAL_Driver/Src/stm32f4xx_hal_spi.c ****   }
2774:./Libraries/STM32F4xx_HAL_Driver/Src/stm32f4xx_hal_spi.c **** #endif /* USE_SPI_CRC */
2775:./Libraries/STM32F4xx_HAL_Driver/Src/stm32f4xx_hal_spi.c **** 
2776:./Libraries/STM32F4xx_HAL_Driver/Src/stm32f4xx_hal_spi.c ****   if(hspi->RxXferCount == 0U)
 6966              		.loc 1 2776 10
 6967 0052 7B68     		ldr	r3, [r7, #4]
 6968 0054 DB8F     		ldrh	r3, [r3, #62]	@ movhi
 6969 0056 9BB2     		uxth	r3, r3
 6970              		.loc 1 2776 5
 6971 0058 002B     		cmp	r3, #0
 6972 005a 0BD1     		bne	.L314
2777:./Libraries/STM32F4xx_HAL_Driver/Src/stm32f4xx_hal_spi.c ****   {
2778:./Libraries/STM32F4xx_HAL_Driver/Src/stm32f4xx_hal_spi.c **** #if (USE_SPI_CRC != 0U)
2779:./Libraries/STM32F4xx_HAL_Driver/Src/stm32f4xx_hal_spi.c ****     if(hspi->Init.CRCCalculation == SPI_CRCCALCULATION_ENABLE)
 6973              		.loc 1 2779 18
 6974 005c 7B68     		ldr	r3, [r7, #4]
 6975 005e 9B6A     		ldr	r3, [r3, #40]
 6976              		.loc 1 2779 7
 6977 0060 B3F5005F 		cmp	r3, #8192
 6978 0064 03D1     		bne	.L317
2780:./Libraries/STM32F4xx_HAL_Driver/Src/stm32f4xx_hal_spi.c ****     {
2781:./Libraries/STM32F4xx_HAL_Driver/Src/stm32f4xx_hal_spi.c ****       hspi->RxISR =  SPI_RxISR_8BITCRC;
 6979              		.loc 1 2781 19
 6980 0066 7B68     		ldr	r3, [r7, #4]
 6981 0068 044A     		ldr	r2, .L318
 6982 006a 1A64     		str	r2, [r3, #64]
ARM GAS  /tmp/ccits0mR.s 			page 171


2782:./Libraries/STM32F4xx_HAL_Driver/Src/stm32f4xx_hal_spi.c ****       return;
 6983              		.loc 1 2782 7
 6984 006c 02E0     		b	.L314
 6985              	.L317:
2783:./Libraries/STM32F4xx_HAL_Driver/Src/stm32f4xx_hal_spi.c ****     }
2784:./Libraries/STM32F4xx_HAL_Driver/Src/stm32f4xx_hal_spi.c **** #endif /* USE_SPI_CRC */
2785:./Libraries/STM32F4xx_HAL_Driver/Src/stm32f4xx_hal_spi.c ****     SPI_CloseRx_ISR(hspi);
 6986              		.loc 1 2785 5
 6987 006e 7868     		ldr	r0, [r7, #4]
 6988 0070 FFF7FEFF 		bl	SPI_CloseRx_ISR
 6989              	.L314:
2786:./Libraries/STM32F4xx_HAL_Driver/Src/stm32f4xx_hal_spi.c ****   }
2787:./Libraries/STM32F4xx_HAL_Driver/Src/stm32f4xx_hal_spi.c **** }
 6990              		.loc 1 2787 1
 6991 0074 0837     		adds	r7, r7, #8
 6992              	.LCFI249:
 6993              		.cfi_def_cfa_offset 8
 6994 0076 BD46     		mov	sp, r7
 6995              	.LCFI250:
 6996              		.cfi_def_cfa_register 13
 6997              		@ sp needed
 6998 0078 80BD     		pop	{r7, pc}
 6999              	.L319:
 7000 007a 00BF     		.align	2
 7001              	.L318:
 7002 007c 00000000 		.word	SPI_RxISR_8BITCRC
 7003              		.cfi_endproc
 7004              	.LFE172:
 7006              		.section	.text.SPI_RxISR_16BITCRC,"ax",%progbits
 7007              		.align	1
 7008              		.syntax unified
 7009              		.thumb
 7010              		.thumb_func
 7011              		.fpu fpv4-sp-d16
 7013              	SPI_RxISR_16BITCRC:
 7014              	.LFB173:
2788:./Libraries/STM32F4xx_HAL_Driver/Src/stm32f4xx_hal_spi.c **** 
2789:./Libraries/STM32F4xx_HAL_Driver/Src/stm32f4xx_hal_spi.c **** #if (USE_SPI_CRC != 0U)
2790:./Libraries/STM32F4xx_HAL_Driver/Src/stm32f4xx_hal_spi.c **** /**
2791:./Libraries/STM32F4xx_HAL_Driver/Src/stm32f4xx_hal_spi.c ****   * @brief  Manage the CRC 16-bit receive in Interrupt context.
2792:./Libraries/STM32F4xx_HAL_Driver/Src/stm32f4xx_hal_spi.c ****   * @param  hspi pointer to a SPI_HandleTypeDef structure that contains
2793:./Libraries/STM32F4xx_HAL_Driver/Src/stm32f4xx_hal_spi.c ****   *               the configuration information for SPI module.
2794:./Libraries/STM32F4xx_HAL_Driver/Src/stm32f4xx_hal_spi.c ****   * @retval None
2795:./Libraries/STM32F4xx_HAL_Driver/Src/stm32f4xx_hal_spi.c ****   */
2796:./Libraries/STM32F4xx_HAL_Driver/Src/stm32f4xx_hal_spi.c **** static void SPI_RxISR_16BITCRC(struct __SPI_HandleTypeDef *hspi)
2797:./Libraries/STM32F4xx_HAL_Driver/Src/stm32f4xx_hal_spi.c **** {
 7015              		.loc 1 2797 1
 7016              		.cfi_startproc
 7017              		@ args = 0, pretend = 0, frame = 16
 7018              		@ frame_needed = 1, uses_anonymous_args = 0
 7019 0000 80B5     		push	{r7, lr}
 7020              	.LCFI251:
 7021              		.cfi_def_cfa_offset 8
 7022              		.cfi_offset 7, -8
 7023              		.cfi_offset 14, -4
 7024 0002 84B0     		sub	sp, sp, #16
 7025              	.LCFI252:
ARM GAS  /tmp/ccits0mR.s 			page 172


 7026              		.cfi_def_cfa_offset 24
 7027 0004 00AF     		add	r7, sp, #0
 7028              	.LCFI253:
 7029              		.cfi_def_cfa_register 7
 7030 0006 7860     		str	r0, [r7, #4]
2798:./Libraries/STM32F4xx_HAL_Driver/Src/stm32f4xx_hal_spi.c ****   __IO uint16_t tmpreg = 0U;
 7031              		.loc 1 2798 17
 7032 0008 0023     		movs	r3, #0
 7033 000a FB81     		strh	r3, [r7, #14]	@ movhi
2799:./Libraries/STM32F4xx_HAL_Driver/Src/stm32f4xx_hal_spi.c **** 
2800:./Libraries/STM32F4xx_HAL_Driver/Src/stm32f4xx_hal_spi.c ****   /* Read data register to flush CRC */
2801:./Libraries/STM32F4xx_HAL_Driver/Src/stm32f4xx_hal_spi.c ****   tmpreg = hspi->Instance->DR;
 7034              		.loc 1 2801 16
 7035 000c 7B68     		ldr	r3, [r7, #4]
 7036 000e 1B68     		ldr	r3, [r3]
 7037              		.loc 1 2801 26
 7038 0010 DB68     		ldr	r3, [r3, #12]
 7039              		.loc 1 2801 10
 7040 0012 9BB2     		uxth	r3, r3
 7041 0014 FB81     		strh	r3, [r7, #14]	@ movhi
2802:./Libraries/STM32F4xx_HAL_Driver/Src/stm32f4xx_hal_spi.c **** 
2803:./Libraries/STM32F4xx_HAL_Driver/Src/stm32f4xx_hal_spi.c ****   /* To avoid GCC warning */
2804:./Libraries/STM32F4xx_HAL_Driver/Src/stm32f4xx_hal_spi.c ****   UNUSED(tmpreg);
 7042              		.loc 1 2804 3
 7043 0016 FB89     		ldrh	r3, [r7, #14]	@ movhi
2805:./Libraries/STM32F4xx_HAL_Driver/Src/stm32f4xx_hal_spi.c **** 
2806:./Libraries/STM32F4xx_HAL_Driver/Src/stm32f4xx_hal_spi.c ****   /* Disable RXNE and ERR interrupt */
2807:./Libraries/STM32F4xx_HAL_Driver/Src/stm32f4xx_hal_spi.c ****   __HAL_SPI_DISABLE_IT(hspi, (SPI_IT_RXNE | SPI_IT_ERR));
 7044              		.loc 1 2807 3
 7045 0018 7B68     		ldr	r3, [r7, #4]
 7046 001a 1B68     		ldr	r3, [r3]
 7047 001c 5A68     		ldr	r2, [r3, #4]
 7048 001e 7B68     		ldr	r3, [r7, #4]
 7049 0020 1B68     		ldr	r3, [r3]
 7050 0022 22F06002 		bic	r2, r2, #96
 7051 0026 5A60     		str	r2, [r3, #4]
2808:./Libraries/STM32F4xx_HAL_Driver/Src/stm32f4xx_hal_spi.c **** 
2809:./Libraries/STM32F4xx_HAL_Driver/Src/stm32f4xx_hal_spi.c ****   SPI_CloseRx_ISR(hspi);
 7052              		.loc 1 2809 3
 7053 0028 7868     		ldr	r0, [r7, #4]
 7054 002a FFF7FEFF 		bl	SPI_CloseRx_ISR
2810:./Libraries/STM32F4xx_HAL_Driver/Src/stm32f4xx_hal_spi.c **** }
 7055              		.loc 1 2810 1
 7056 002e 00BF     		nop
 7057 0030 1037     		adds	r7, r7, #16
 7058              	.LCFI254:
 7059              		.cfi_def_cfa_offset 8
 7060 0032 BD46     		mov	sp, r7
 7061              	.LCFI255:
 7062              		.cfi_def_cfa_register 13
 7063              		@ sp needed
 7064 0034 80BD     		pop	{r7, pc}
 7065              		.cfi_endproc
 7066              	.LFE173:
 7068              		.section	.text.SPI_RxISR_16BIT,"ax",%progbits
 7069              		.align	1
 7070              		.syntax unified
ARM GAS  /tmp/ccits0mR.s 			page 173


 7071              		.thumb
 7072              		.thumb_func
 7073              		.fpu fpv4-sp-d16
 7075              	SPI_RxISR_16BIT:
 7076              	.LFB174:
2811:./Libraries/STM32F4xx_HAL_Driver/Src/stm32f4xx_hal_spi.c **** #endif /* USE_SPI_CRC */
2812:./Libraries/STM32F4xx_HAL_Driver/Src/stm32f4xx_hal_spi.c **** 
2813:./Libraries/STM32F4xx_HAL_Driver/Src/stm32f4xx_hal_spi.c **** /**
2814:./Libraries/STM32F4xx_HAL_Driver/Src/stm32f4xx_hal_spi.c ****   * @brief  Manage the 16-bit receive in Interrupt context.
2815:./Libraries/STM32F4xx_HAL_Driver/Src/stm32f4xx_hal_spi.c ****   * @param  hspi pointer to a SPI_HandleTypeDef structure that contains
2816:./Libraries/STM32F4xx_HAL_Driver/Src/stm32f4xx_hal_spi.c ****   *               the configuration information for SPI module.
2817:./Libraries/STM32F4xx_HAL_Driver/Src/stm32f4xx_hal_spi.c ****   * @retval None
2818:./Libraries/STM32F4xx_HAL_Driver/Src/stm32f4xx_hal_spi.c ****   */
2819:./Libraries/STM32F4xx_HAL_Driver/Src/stm32f4xx_hal_spi.c **** static void SPI_RxISR_16BIT(struct __SPI_HandleTypeDef *hspi)
2820:./Libraries/STM32F4xx_HAL_Driver/Src/stm32f4xx_hal_spi.c **** {
 7077              		.loc 1 2820 1
 7078              		.cfi_startproc
 7079              		@ args = 0, pretend = 0, frame = 8
 7080              		@ frame_needed = 1, uses_anonymous_args = 0
 7081 0000 80B5     		push	{r7, lr}
 7082              	.LCFI256:
 7083              		.cfi_def_cfa_offset 8
 7084              		.cfi_offset 7, -8
 7085              		.cfi_offset 14, -4
 7086 0002 82B0     		sub	sp, sp, #8
 7087              	.LCFI257:
 7088              		.cfi_def_cfa_offset 16
 7089 0004 00AF     		add	r7, sp, #0
 7090              	.LCFI258:
 7091              		.cfi_def_cfa_register 7
 7092 0006 7860     		str	r0, [r7, #4]
2821:./Libraries/STM32F4xx_HAL_Driver/Src/stm32f4xx_hal_spi.c ****   *((uint16_t *)hspi->pRxBuffPtr) = hspi->Instance->DR;
 7093              		.loc 1 2821 41
 7094 0008 7B68     		ldr	r3, [r7, #4]
 7095 000a 1B68     		ldr	r3, [r3]
 7096              		.loc 1 2821 51
 7097 000c DA68     		ldr	r2, [r3, #12]
 7098              		.loc 1 2821 21
 7099 000e 7B68     		ldr	r3, [r7, #4]
 7100 0010 9B6B     		ldr	r3, [r3, #56]
 7101              		.loc 1 2821 35
 7102 0012 92B2     		uxth	r2, r2
 7103 0014 1A80     		strh	r2, [r3]	@ movhi
2822:./Libraries/STM32F4xx_HAL_Driver/Src/stm32f4xx_hal_spi.c ****   hspi->pRxBuffPtr += sizeof(uint16_t);
 7104              		.loc 1 2822 20
 7105 0016 7B68     		ldr	r3, [r7, #4]
 7106 0018 9B6B     		ldr	r3, [r3, #56]
 7107 001a 9A1C     		adds	r2, r3, #2
 7108 001c 7B68     		ldr	r3, [r7, #4]
 7109 001e 9A63     		str	r2, [r3, #56]
2823:./Libraries/STM32F4xx_HAL_Driver/Src/stm32f4xx_hal_spi.c ****   hspi->RxXferCount--;
 7110              		.loc 1 2823 7
 7111 0020 7B68     		ldr	r3, [r7, #4]
 7112 0022 DB8F     		ldrh	r3, [r3, #62]	@ movhi
 7113 0024 9BB2     		uxth	r3, r3
 7114              		.loc 1 2823 20
 7115 0026 013B     		subs	r3, r3, #1
ARM GAS  /tmp/ccits0mR.s 			page 174


 7116 0028 9AB2     		uxth	r2, r3
 7117 002a 7B68     		ldr	r3, [r7, #4]
 7118 002c DA87     		strh	r2, [r3, #62]	@ movhi
2824:./Libraries/STM32F4xx_HAL_Driver/Src/stm32f4xx_hal_spi.c **** 
2825:./Libraries/STM32F4xx_HAL_Driver/Src/stm32f4xx_hal_spi.c **** #if (USE_SPI_CRC != 0U)
2826:./Libraries/STM32F4xx_HAL_Driver/Src/stm32f4xx_hal_spi.c ****   /* Enable CRC Transmission */
2827:./Libraries/STM32F4xx_HAL_Driver/Src/stm32f4xx_hal_spi.c ****   if((hspi->RxXferCount == 1U) && (hspi->Init.CRCCalculation == SPI_CRCCALCULATION_ENABLE))
 7119              		.loc 1 2827 11
 7120 002e 7B68     		ldr	r3, [r7, #4]
 7121 0030 DB8F     		ldrh	r3, [r3, #62]	@ movhi
 7122 0032 9BB2     		uxth	r3, r3
 7123              		.loc 1 2827 5
 7124 0034 012B     		cmp	r3, #1
 7125 0036 0CD1     		bne	.L322
 7126              		.loc 1 2827 46 discriminator 1
 7127 0038 7B68     		ldr	r3, [r7, #4]
 7128 003a 9B6A     		ldr	r3, [r3, #40]
 7129              		.loc 1 2827 32 discriminator 1
 7130 003c B3F5005F 		cmp	r3, #8192
 7131 0040 07D1     		bne	.L322
2828:./Libraries/STM32F4xx_HAL_Driver/Src/stm32f4xx_hal_spi.c ****   {
2829:./Libraries/STM32F4xx_HAL_Driver/Src/stm32f4xx_hal_spi.c ****     SET_BIT(hspi->Instance->CR1, SPI_CR1_CRCNEXT);
 7132              		.loc 1 2829 5
 7133 0042 7B68     		ldr	r3, [r7, #4]
 7134 0044 1B68     		ldr	r3, [r3]
 7135 0046 1A68     		ldr	r2, [r3]
 7136 0048 7B68     		ldr	r3, [r7, #4]
 7137 004a 1B68     		ldr	r3, [r3]
 7138 004c 42F48052 		orr	r2, r2, #4096
 7139 0050 1A60     		str	r2, [r3]
 7140              	.L322:
2830:./Libraries/STM32F4xx_HAL_Driver/Src/stm32f4xx_hal_spi.c ****   }
2831:./Libraries/STM32F4xx_HAL_Driver/Src/stm32f4xx_hal_spi.c **** #endif /* USE_SPI_CRC */
2832:./Libraries/STM32F4xx_HAL_Driver/Src/stm32f4xx_hal_spi.c **** 
2833:./Libraries/STM32F4xx_HAL_Driver/Src/stm32f4xx_hal_spi.c ****   if(hspi->RxXferCount == 0U)
 7141              		.loc 1 2833 10
 7142 0052 7B68     		ldr	r3, [r7, #4]
 7143 0054 DB8F     		ldrh	r3, [r3, #62]	@ movhi
 7144 0056 9BB2     		uxth	r3, r3
 7145              		.loc 1 2833 5
 7146 0058 002B     		cmp	r3, #0
 7147 005a 0BD1     		bne	.L321
2834:./Libraries/STM32F4xx_HAL_Driver/Src/stm32f4xx_hal_spi.c ****   {
2835:./Libraries/STM32F4xx_HAL_Driver/Src/stm32f4xx_hal_spi.c **** #if (USE_SPI_CRC != 0U)
2836:./Libraries/STM32F4xx_HAL_Driver/Src/stm32f4xx_hal_spi.c ****     if(hspi->Init.CRCCalculation == SPI_CRCCALCULATION_ENABLE)
 7148              		.loc 1 2836 18
 7149 005c 7B68     		ldr	r3, [r7, #4]
 7150 005e 9B6A     		ldr	r3, [r3, #40]
 7151              		.loc 1 2836 7
 7152 0060 B3F5005F 		cmp	r3, #8192
 7153 0064 03D1     		bne	.L324
2837:./Libraries/STM32F4xx_HAL_Driver/Src/stm32f4xx_hal_spi.c ****     {
2838:./Libraries/STM32F4xx_HAL_Driver/Src/stm32f4xx_hal_spi.c ****       hspi->RxISR = SPI_RxISR_16BITCRC;
 7154              		.loc 1 2838 19
 7155 0066 7B68     		ldr	r3, [r7, #4]
 7156 0068 044A     		ldr	r2, .L325
 7157 006a 1A64     		str	r2, [r3, #64]
ARM GAS  /tmp/ccits0mR.s 			page 175


2839:./Libraries/STM32F4xx_HAL_Driver/Src/stm32f4xx_hal_spi.c ****       return;
 7158              		.loc 1 2839 7
 7159 006c 02E0     		b	.L321
 7160              	.L324:
2840:./Libraries/STM32F4xx_HAL_Driver/Src/stm32f4xx_hal_spi.c ****     }
2841:./Libraries/STM32F4xx_HAL_Driver/Src/stm32f4xx_hal_spi.c **** #endif /* USE_SPI_CRC */
2842:./Libraries/STM32F4xx_HAL_Driver/Src/stm32f4xx_hal_spi.c ****     SPI_CloseRx_ISR(hspi);
 7161              		.loc 1 2842 5
 7162 006e 7868     		ldr	r0, [r7, #4]
 7163 0070 FFF7FEFF 		bl	SPI_CloseRx_ISR
 7164              	.L321:
2843:./Libraries/STM32F4xx_HAL_Driver/Src/stm32f4xx_hal_spi.c ****   }
2844:./Libraries/STM32F4xx_HAL_Driver/Src/stm32f4xx_hal_spi.c **** }
 7165              		.loc 1 2844 1
 7166 0074 0837     		adds	r7, r7, #8
 7167              	.LCFI259:
 7168              		.cfi_def_cfa_offset 8
 7169 0076 BD46     		mov	sp, r7
 7170              	.LCFI260:
 7171              		.cfi_def_cfa_register 13
 7172              		@ sp needed
 7173 0078 80BD     		pop	{r7, pc}
 7174              	.L326:
 7175 007a 00BF     		.align	2
 7176              	.L325:
 7177 007c 00000000 		.word	SPI_RxISR_16BITCRC
 7178              		.cfi_endproc
 7179              	.LFE174:
 7181              		.section	.text.SPI_TxISR_8BIT,"ax",%progbits
 7182              		.align	1
 7183              		.syntax unified
 7184              		.thumb
 7185              		.thumb_func
 7186              		.fpu fpv4-sp-d16
 7188              	SPI_TxISR_8BIT:
 7189              	.LFB175:
2845:./Libraries/STM32F4xx_HAL_Driver/Src/stm32f4xx_hal_spi.c **** 
2846:./Libraries/STM32F4xx_HAL_Driver/Src/stm32f4xx_hal_spi.c **** /**
2847:./Libraries/STM32F4xx_HAL_Driver/Src/stm32f4xx_hal_spi.c ****   * @brief  Handle the data 8-bit transmit in Interrupt mode.
2848:./Libraries/STM32F4xx_HAL_Driver/Src/stm32f4xx_hal_spi.c ****   * @param  hspi pointer to a SPI_HandleTypeDef structure that contains
2849:./Libraries/STM32F4xx_HAL_Driver/Src/stm32f4xx_hal_spi.c ****   *               the configuration information for SPI module.
2850:./Libraries/STM32F4xx_HAL_Driver/Src/stm32f4xx_hal_spi.c ****   * @retval None
2851:./Libraries/STM32F4xx_HAL_Driver/Src/stm32f4xx_hal_spi.c ****   */
2852:./Libraries/STM32F4xx_HAL_Driver/Src/stm32f4xx_hal_spi.c **** static void SPI_TxISR_8BIT(struct __SPI_HandleTypeDef *hspi)
2853:./Libraries/STM32F4xx_HAL_Driver/Src/stm32f4xx_hal_spi.c **** {
 7190              		.loc 1 2853 1
 7191              		.cfi_startproc
 7192              		@ args = 0, pretend = 0, frame = 8
 7193              		@ frame_needed = 1, uses_anonymous_args = 0
 7194 0000 80B5     		push	{r7, lr}
 7195              	.LCFI261:
 7196              		.cfi_def_cfa_offset 8
 7197              		.cfi_offset 7, -8
 7198              		.cfi_offset 14, -4
 7199 0002 82B0     		sub	sp, sp, #8
 7200              	.LCFI262:
 7201              		.cfi_def_cfa_offset 16
ARM GAS  /tmp/ccits0mR.s 			page 176


 7202 0004 00AF     		add	r7, sp, #0
 7203              	.LCFI263:
 7204              		.cfi_def_cfa_register 7
 7205 0006 7860     		str	r0, [r7, #4]
2854:./Libraries/STM32F4xx_HAL_Driver/Src/stm32f4xx_hal_spi.c ****   *(__IO uint8_t *)&hspi->Instance->DR = (*hspi->pTxBuffPtr++);
 7206              		.loc 1 2854 48
 7207 0008 7B68     		ldr	r3, [r7, #4]
 7208 000a 1B6B     		ldr	r3, [r3, #48]
 7209              		.loc 1 2854 60
 7210 000c 591C     		adds	r1, r3, #1
 7211 000e 7A68     		ldr	r2, [r7, #4]
 7212 0010 1163     		str	r1, [r2, #48]
 7213              		.loc 1 2854 25
 7214 0012 7A68     		ldr	r2, [r7, #4]
 7215 0014 1268     		ldr	r2, [r2]
 7216              		.loc 1 2854 20
 7217 0016 0C32     		adds	r2, r2, #12
 7218              		.loc 1 2854 43
 7219 0018 1B78     		ldrb	r3, [r3]	@ zero_extendqisi2
 7220              		.loc 1 2854 40
 7221 001a 1370     		strb	r3, [r2]
2855:./Libraries/STM32F4xx_HAL_Driver/Src/stm32f4xx_hal_spi.c ****   hspi->TxXferCount--;
 7222              		.loc 1 2855 7
 7223 001c 7B68     		ldr	r3, [r7, #4]
 7224 001e DB8E     		ldrh	r3, [r3, #54]	@ movhi
 7225 0020 9BB2     		uxth	r3, r3
 7226              		.loc 1 2855 20
 7227 0022 013B     		subs	r3, r3, #1
 7228 0024 9AB2     		uxth	r2, r3
 7229 0026 7B68     		ldr	r3, [r7, #4]
 7230 0028 DA86     		strh	r2, [r3, #54]	@ movhi
2856:./Libraries/STM32F4xx_HAL_Driver/Src/stm32f4xx_hal_spi.c **** 
2857:./Libraries/STM32F4xx_HAL_Driver/Src/stm32f4xx_hal_spi.c ****   if(hspi->TxXferCount == 0U)
 7231              		.loc 1 2857 10
 7232 002a 7B68     		ldr	r3, [r7, #4]
 7233 002c DB8E     		ldrh	r3, [r3, #54]	@ movhi
 7234 002e 9BB2     		uxth	r3, r3
 7235              		.loc 1 2857 5
 7236 0030 002B     		cmp	r3, #0
 7237 0032 0FD1     		bne	.L330
2858:./Libraries/STM32F4xx_HAL_Driver/Src/stm32f4xx_hal_spi.c ****   {
2859:./Libraries/STM32F4xx_HAL_Driver/Src/stm32f4xx_hal_spi.c **** #if (USE_SPI_CRC != 0U)
2860:./Libraries/STM32F4xx_HAL_Driver/Src/stm32f4xx_hal_spi.c ****     if(hspi->Init.CRCCalculation == SPI_CRCCALCULATION_ENABLE)
 7238              		.loc 1 2860 18
 7239 0034 7B68     		ldr	r3, [r7, #4]
 7240 0036 9B6A     		ldr	r3, [r3, #40]
 7241              		.loc 1 2860 7
 7242 0038 B3F5005F 		cmp	r3, #8192
 7243 003c 07D1     		bne	.L329
2861:./Libraries/STM32F4xx_HAL_Driver/Src/stm32f4xx_hal_spi.c ****     {
2862:./Libraries/STM32F4xx_HAL_Driver/Src/stm32f4xx_hal_spi.c ****       /* Enable CRC Transmission */
2863:./Libraries/STM32F4xx_HAL_Driver/Src/stm32f4xx_hal_spi.c ****       SET_BIT(hspi->Instance->CR1, SPI_CR1_CRCNEXT);
 7244              		.loc 1 2863 7
 7245 003e 7B68     		ldr	r3, [r7, #4]
 7246 0040 1B68     		ldr	r3, [r3]
 7247 0042 1A68     		ldr	r2, [r3]
 7248 0044 7B68     		ldr	r3, [r7, #4]
ARM GAS  /tmp/ccits0mR.s 			page 177


 7249 0046 1B68     		ldr	r3, [r3]
 7250 0048 42F48052 		orr	r2, r2, #4096
 7251 004c 1A60     		str	r2, [r3]
 7252              	.L329:
2864:./Libraries/STM32F4xx_HAL_Driver/Src/stm32f4xx_hal_spi.c ****     }
2865:./Libraries/STM32F4xx_HAL_Driver/Src/stm32f4xx_hal_spi.c **** #endif /* USE_SPI_CRC */
2866:./Libraries/STM32F4xx_HAL_Driver/Src/stm32f4xx_hal_spi.c ****     SPI_CloseTx_ISR(hspi);
 7253              		.loc 1 2866 5
 7254 004e 7868     		ldr	r0, [r7, #4]
 7255 0050 FFF7FEFF 		bl	SPI_CloseTx_ISR
 7256              	.L330:
2867:./Libraries/STM32F4xx_HAL_Driver/Src/stm32f4xx_hal_spi.c ****   }
2868:./Libraries/STM32F4xx_HAL_Driver/Src/stm32f4xx_hal_spi.c **** }
 7257              		.loc 1 2868 1
 7258 0054 00BF     		nop
 7259 0056 0837     		adds	r7, r7, #8
 7260              	.LCFI264:
 7261              		.cfi_def_cfa_offset 8
 7262 0058 BD46     		mov	sp, r7
 7263              	.LCFI265:
 7264              		.cfi_def_cfa_register 13
 7265              		@ sp needed
 7266 005a 80BD     		pop	{r7, pc}
 7267              		.cfi_endproc
 7268              	.LFE175:
 7270              		.section	.text.SPI_TxISR_16BIT,"ax",%progbits
 7271              		.align	1
 7272              		.syntax unified
 7273              		.thumb
 7274              		.thumb_func
 7275              		.fpu fpv4-sp-d16
 7277              	SPI_TxISR_16BIT:
 7278              	.LFB176:
2869:./Libraries/STM32F4xx_HAL_Driver/Src/stm32f4xx_hal_spi.c **** 
2870:./Libraries/STM32F4xx_HAL_Driver/Src/stm32f4xx_hal_spi.c **** /**
2871:./Libraries/STM32F4xx_HAL_Driver/Src/stm32f4xx_hal_spi.c ****   * @brief  Handle the data 16-bit transmit in Interrupt mode.
2872:./Libraries/STM32F4xx_HAL_Driver/Src/stm32f4xx_hal_spi.c ****   * @param  hspi pointer to a SPI_HandleTypeDef structure that contains
2873:./Libraries/STM32F4xx_HAL_Driver/Src/stm32f4xx_hal_spi.c ****   *               the configuration information for SPI module.
2874:./Libraries/STM32F4xx_HAL_Driver/Src/stm32f4xx_hal_spi.c ****   * @retval None
2875:./Libraries/STM32F4xx_HAL_Driver/Src/stm32f4xx_hal_spi.c ****   */
2876:./Libraries/STM32F4xx_HAL_Driver/Src/stm32f4xx_hal_spi.c **** static void SPI_TxISR_16BIT(struct __SPI_HandleTypeDef *hspi)
2877:./Libraries/STM32F4xx_HAL_Driver/Src/stm32f4xx_hal_spi.c **** {
 7279              		.loc 1 2877 1
 7280              		.cfi_startproc
 7281              		@ args = 0, pretend = 0, frame = 8
 7282              		@ frame_needed = 1, uses_anonymous_args = 0
 7283 0000 80B5     		push	{r7, lr}
 7284              	.LCFI266:
 7285              		.cfi_def_cfa_offset 8
 7286              		.cfi_offset 7, -8
 7287              		.cfi_offset 14, -4
 7288 0002 82B0     		sub	sp, sp, #8
 7289              	.LCFI267:
 7290              		.cfi_def_cfa_offset 16
 7291 0004 00AF     		add	r7, sp, #0
 7292              	.LCFI268:
 7293              		.cfi_def_cfa_register 7
ARM GAS  /tmp/ccits0mR.s 			page 178


 7294 0006 7860     		str	r0, [r7, #4]
2878:./Libraries/STM32F4xx_HAL_Driver/Src/stm32f4xx_hal_spi.c ****   /* Transmit data in 16 Bit mode */
2879:./Libraries/STM32F4xx_HAL_Driver/Src/stm32f4xx_hal_spi.c ****   hspi->Instance->DR = *((uint16_t *)hspi->pTxBuffPtr);
 7295              		.loc 1 2879 42
 7296 0008 7B68     		ldr	r3, [r7, #4]
 7297 000a 1B6B     		ldr	r3, [r3, #48]
 7298              		.loc 1 2879 24
 7299 000c 1A88     		ldrh	r2, [r3]
 7300              		.loc 1 2879 7
 7301 000e 7B68     		ldr	r3, [r7, #4]
 7302 0010 1B68     		ldr	r3, [r3]
 7303              		.loc 1 2879 22
 7304 0012 DA60     		str	r2, [r3, #12]
2880:./Libraries/STM32F4xx_HAL_Driver/Src/stm32f4xx_hal_spi.c ****   hspi->pTxBuffPtr += sizeof(uint16_t);
 7305              		.loc 1 2880 20
 7306 0014 7B68     		ldr	r3, [r7, #4]
 7307 0016 1B6B     		ldr	r3, [r3, #48]
 7308 0018 9A1C     		adds	r2, r3, #2
 7309 001a 7B68     		ldr	r3, [r7, #4]
 7310 001c 1A63     		str	r2, [r3, #48]
2881:./Libraries/STM32F4xx_HAL_Driver/Src/stm32f4xx_hal_spi.c ****   hspi->TxXferCount--;
 7311              		.loc 1 2881 7
 7312 001e 7B68     		ldr	r3, [r7, #4]
 7313 0020 DB8E     		ldrh	r3, [r3, #54]	@ movhi
 7314 0022 9BB2     		uxth	r3, r3
 7315              		.loc 1 2881 20
 7316 0024 013B     		subs	r3, r3, #1
 7317 0026 9AB2     		uxth	r2, r3
 7318 0028 7B68     		ldr	r3, [r7, #4]
 7319 002a DA86     		strh	r2, [r3, #54]	@ movhi
2882:./Libraries/STM32F4xx_HAL_Driver/Src/stm32f4xx_hal_spi.c **** 
2883:./Libraries/STM32F4xx_HAL_Driver/Src/stm32f4xx_hal_spi.c ****   if(hspi->TxXferCount == 0U)
 7320              		.loc 1 2883 10
 7321 002c 7B68     		ldr	r3, [r7, #4]
 7322 002e DB8E     		ldrh	r3, [r3, #54]	@ movhi
 7323 0030 9BB2     		uxth	r3, r3
 7324              		.loc 1 2883 5
 7325 0032 002B     		cmp	r3, #0
 7326 0034 0FD1     		bne	.L334
2884:./Libraries/STM32F4xx_HAL_Driver/Src/stm32f4xx_hal_spi.c ****   {
2885:./Libraries/STM32F4xx_HAL_Driver/Src/stm32f4xx_hal_spi.c **** #if (USE_SPI_CRC != 0U)
2886:./Libraries/STM32F4xx_HAL_Driver/Src/stm32f4xx_hal_spi.c ****     if(hspi->Init.CRCCalculation == SPI_CRCCALCULATION_ENABLE)
 7327              		.loc 1 2886 18
 7328 0036 7B68     		ldr	r3, [r7, #4]
 7329 0038 9B6A     		ldr	r3, [r3, #40]
 7330              		.loc 1 2886 7
 7331 003a B3F5005F 		cmp	r3, #8192
 7332 003e 07D1     		bne	.L333
2887:./Libraries/STM32F4xx_HAL_Driver/Src/stm32f4xx_hal_spi.c ****     {
2888:./Libraries/STM32F4xx_HAL_Driver/Src/stm32f4xx_hal_spi.c ****       /* Enable CRC Transmission */
2889:./Libraries/STM32F4xx_HAL_Driver/Src/stm32f4xx_hal_spi.c ****       SET_BIT(hspi->Instance->CR1, SPI_CR1_CRCNEXT);
 7333              		.loc 1 2889 7
 7334 0040 7B68     		ldr	r3, [r7, #4]
 7335 0042 1B68     		ldr	r3, [r3]
 7336 0044 1A68     		ldr	r2, [r3]
 7337 0046 7B68     		ldr	r3, [r7, #4]
 7338 0048 1B68     		ldr	r3, [r3]
ARM GAS  /tmp/ccits0mR.s 			page 179


 7339 004a 42F48052 		orr	r2, r2, #4096
 7340 004e 1A60     		str	r2, [r3]
 7341              	.L333:
2890:./Libraries/STM32F4xx_HAL_Driver/Src/stm32f4xx_hal_spi.c ****     }
2891:./Libraries/STM32F4xx_HAL_Driver/Src/stm32f4xx_hal_spi.c **** #endif /* USE_SPI_CRC */
2892:./Libraries/STM32F4xx_HAL_Driver/Src/stm32f4xx_hal_spi.c ****     SPI_CloseTx_ISR(hspi);
 7342              		.loc 1 2892 5
 7343 0050 7868     		ldr	r0, [r7, #4]
 7344 0052 FFF7FEFF 		bl	SPI_CloseTx_ISR
 7345              	.L334:
2893:./Libraries/STM32F4xx_HAL_Driver/Src/stm32f4xx_hal_spi.c ****   }
2894:./Libraries/STM32F4xx_HAL_Driver/Src/stm32f4xx_hal_spi.c **** }
 7346              		.loc 1 2894 1
 7347 0056 00BF     		nop
 7348 0058 0837     		adds	r7, r7, #8
 7349              	.LCFI269:
 7350              		.cfi_def_cfa_offset 8
 7351 005a BD46     		mov	sp, r7
 7352              	.LCFI270:
 7353              		.cfi_def_cfa_register 13
 7354              		@ sp needed
 7355 005c 80BD     		pop	{r7, pc}
 7356              		.cfi_endproc
 7357              	.LFE176:
 7359              		.section	.text.SPI_WaitFlagStateUntilTimeout,"ax",%progbits
 7360              		.align	1
 7361              		.syntax unified
 7362              		.thumb
 7363              		.thumb_func
 7364              		.fpu fpv4-sp-d16
 7366              	SPI_WaitFlagStateUntilTimeout:
 7367              	.LFB177:
2895:./Libraries/STM32F4xx_HAL_Driver/Src/stm32f4xx_hal_spi.c **** 
2896:./Libraries/STM32F4xx_HAL_Driver/Src/stm32f4xx_hal_spi.c **** /**
2897:./Libraries/STM32F4xx_HAL_Driver/Src/stm32f4xx_hal_spi.c ****   * @brief Handle SPI Communication Timeout.
2898:./Libraries/STM32F4xx_HAL_Driver/Src/stm32f4xx_hal_spi.c ****   * @param hspi pointer to a SPI_HandleTypeDef structure that contains
2899:./Libraries/STM32F4xx_HAL_Driver/Src/stm32f4xx_hal_spi.c ****   *              the configuration information for SPI module.
2900:./Libraries/STM32F4xx_HAL_Driver/Src/stm32f4xx_hal_spi.c ****   * @param Flag SPI flag to check
2901:./Libraries/STM32F4xx_HAL_Driver/Src/stm32f4xx_hal_spi.c ****   * @param State flag state to check
2902:./Libraries/STM32F4xx_HAL_Driver/Src/stm32f4xx_hal_spi.c ****   * @param Timeout Timeout duration
2903:./Libraries/STM32F4xx_HAL_Driver/Src/stm32f4xx_hal_spi.c ****   * @param Tickstart tick start value
2904:./Libraries/STM32F4xx_HAL_Driver/Src/stm32f4xx_hal_spi.c ****   * @retval HAL status
2905:./Libraries/STM32F4xx_HAL_Driver/Src/stm32f4xx_hal_spi.c ****   */
2906:./Libraries/STM32F4xx_HAL_Driver/Src/stm32f4xx_hal_spi.c **** static HAL_StatusTypeDef SPI_WaitFlagStateUntilTimeout(SPI_HandleTypeDef *hspi, uint32_t Flag, uint
2907:./Libraries/STM32F4xx_HAL_Driver/Src/stm32f4xx_hal_spi.c **** {
 7368              		.loc 1 2907 1
 7369              		.cfi_startproc
 7370              		@ args = 4, pretend = 0, frame = 16
 7371              		@ frame_needed = 1, uses_anonymous_args = 0
 7372 0000 80B5     		push	{r7, lr}
 7373              	.LCFI271:
 7374              		.cfi_def_cfa_offset 8
 7375              		.cfi_offset 7, -8
 7376              		.cfi_offset 14, -4
 7377 0002 84B0     		sub	sp, sp, #16
 7378              	.LCFI272:
 7379              		.cfi_def_cfa_offset 24
ARM GAS  /tmp/ccits0mR.s 			page 180


 7380 0004 00AF     		add	r7, sp, #0
 7381              	.LCFI273:
 7382              		.cfi_def_cfa_register 7
 7383 0006 F860     		str	r0, [r7, #12]
 7384 0008 B960     		str	r1, [r7, #8]
 7385 000a 7A60     		str	r2, [r7, #4]
 7386 000c 3B60     		str	r3, [r7]
2908:./Libraries/STM32F4xx_HAL_Driver/Src/stm32f4xx_hal_spi.c ****   while((((hspi->Instance->SR & Flag) == (Flag)) ? SET : RESET) != State)
 7387              		.loc 1 2908 8
 7388 000e 4DE0     		b	.L336
 7389              	.L344:
2909:./Libraries/STM32F4xx_HAL_Driver/Src/stm32f4xx_hal_spi.c ****   {
2910:./Libraries/STM32F4xx_HAL_Driver/Src/stm32f4xx_hal_spi.c ****     if(Timeout != HAL_MAX_DELAY)
 7390              		.loc 1 2910 7
 7391 0010 3B68     		ldr	r3, [r7]
 7392 0012 B3F1FF3F 		cmp	r3, #-1
 7393 0016 49D0     		beq	.L336
2911:./Libraries/STM32F4xx_HAL_Driver/Src/stm32f4xx_hal_spi.c ****     {
2912:./Libraries/STM32F4xx_HAL_Driver/Src/stm32f4xx_hal_spi.c ****       if((Timeout == 0U) || ((HAL_GetTick()-Tickstart) >= Timeout))
 7394              		.loc 1 2912 9
 7395 0018 3B68     		ldr	r3, [r7]
 7396 001a 002B     		cmp	r3, #0
 7397 001c 07D0     		beq	.L337
 7398              		.loc 1 2912 31 discriminator 1
 7399 001e FFF7FEFF 		bl	HAL_GetTick
 7400 0022 0246     		mov	r2, r0
 7401              		.loc 1 2912 44 discriminator 1
 7402 0024 BB69     		ldr	r3, [r7, #24]
 7403 0026 D31A     		subs	r3, r2, r3
 7404              		.loc 1 2912 26 discriminator 1
 7405 0028 3A68     		ldr	r2, [r7]
 7406 002a 9A42     		cmp	r2, r3
 7407 002c 3ED8     		bhi	.L336
 7408              	.L337:
2913:./Libraries/STM32F4xx_HAL_Driver/Src/stm32f4xx_hal_spi.c ****       {
2914:./Libraries/STM32F4xx_HAL_Driver/Src/stm32f4xx_hal_spi.c ****         /* Disable the SPI and reset the CRC: the CRC value should be cleared
2915:./Libraries/STM32F4xx_HAL_Driver/Src/stm32f4xx_hal_spi.c ****         on both master and slave sides in order to resynchronize the master
2916:./Libraries/STM32F4xx_HAL_Driver/Src/stm32f4xx_hal_spi.c ****         and slave for their respective CRC calculation */
2917:./Libraries/STM32F4xx_HAL_Driver/Src/stm32f4xx_hal_spi.c **** 
2918:./Libraries/STM32F4xx_HAL_Driver/Src/stm32f4xx_hal_spi.c ****         /* Disable TXE, RXNE and ERR interrupts for the interrupt process */
2919:./Libraries/STM32F4xx_HAL_Driver/Src/stm32f4xx_hal_spi.c ****         __HAL_SPI_DISABLE_IT(hspi, (SPI_IT_TXE | SPI_IT_RXNE | SPI_IT_ERR));
 7409              		.loc 1 2919 9
 7410 002e FB68     		ldr	r3, [r7, #12]
 7411 0030 1B68     		ldr	r3, [r3]
 7412 0032 5A68     		ldr	r2, [r3, #4]
 7413 0034 FB68     		ldr	r3, [r7, #12]
 7414 0036 1B68     		ldr	r3, [r3]
 7415 0038 22F0E002 		bic	r2, r2, #224
 7416 003c 5A60     		str	r2, [r3, #4]
2920:./Libraries/STM32F4xx_HAL_Driver/Src/stm32f4xx_hal_spi.c **** 
2921:./Libraries/STM32F4xx_HAL_Driver/Src/stm32f4xx_hal_spi.c ****         if((hspi->Init.Mode == SPI_MODE_MASTER)&&((hspi->Init.Direction == SPI_DIRECTION_1LINE)||(h
 7417              		.loc 1 2921 23
 7418 003e FB68     		ldr	r3, [r7, #12]
 7419 0040 5B68     		ldr	r3, [r3, #4]
 7420              		.loc 1 2921 11
 7421 0042 B3F5827F 		cmp	r3, #260
 7422 0046 11D1     		bne	.L338
ARM GAS  /tmp/ccits0mR.s 			page 181


 7423              		.loc 1 2921 62 discriminator 1
 7424 0048 FB68     		ldr	r3, [r7, #12]
 7425 004a 9B68     		ldr	r3, [r3, #8]
 7426              		.loc 1 2921 48 discriminator 1
 7427 004c B3F5004F 		cmp	r3, #32768
 7428 0050 04D0     		beq	.L339
 7429              		.loc 1 2921 109 discriminator 2
 7430 0052 FB68     		ldr	r3, [r7, #12]
 7431 0054 9B68     		ldr	r3, [r3, #8]
 7432              		.loc 1 2921 96 discriminator 2
 7433 0056 B3F5806F 		cmp	r3, #1024
 7434 005a 07D1     		bne	.L338
 7435              	.L339:
2922:./Libraries/STM32F4xx_HAL_Driver/Src/stm32f4xx_hal_spi.c ****         {
2923:./Libraries/STM32F4xx_HAL_Driver/Src/stm32f4xx_hal_spi.c ****           /* Disable SPI peripheral */
2924:./Libraries/STM32F4xx_HAL_Driver/Src/stm32f4xx_hal_spi.c ****           __HAL_SPI_DISABLE(hspi);
 7436              		.loc 1 2924 11
 7437 005c FB68     		ldr	r3, [r7, #12]
 7438 005e 1B68     		ldr	r3, [r3]
 7439 0060 1A68     		ldr	r2, [r3]
 7440 0062 FB68     		ldr	r3, [r7, #12]
 7441 0064 1B68     		ldr	r3, [r3]
 7442 0066 22F04002 		bic	r2, r2, #64
 7443 006a 1A60     		str	r2, [r3]
 7444              	.L338:
2925:./Libraries/STM32F4xx_HAL_Driver/Src/stm32f4xx_hal_spi.c ****         }
2926:./Libraries/STM32F4xx_HAL_Driver/Src/stm32f4xx_hal_spi.c **** 
2927:./Libraries/STM32F4xx_HAL_Driver/Src/stm32f4xx_hal_spi.c ****         /* Reset CRC Calculation */
2928:./Libraries/STM32F4xx_HAL_Driver/Src/stm32f4xx_hal_spi.c ****         if(hspi->Init.CRCCalculation == SPI_CRCCALCULATION_ENABLE)
 7445              		.loc 1 2928 22
 7446 006c FB68     		ldr	r3, [r7, #12]
 7447 006e 9B6A     		ldr	r3, [r3, #40]
 7448              		.loc 1 2928 11
 7449 0070 B3F5005F 		cmp	r3, #8192
 7450 0074 10D1     		bne	.L340
2929:./Libraries/STM32F4xx_HAL_Driver/Src/stm32f4xx_hal_spi.c ****         {
2930:./Libraries/STM32F4xx_HAL_Driver/Src/stm32f4xx_hal_spi.c ****           SPI_RESET_CRC(hspi);
 7451              		.loc 1 2930 11
 7452 0076 FB68     		ldr	r3, [r7, #12]
 7453 0078 1B68     		ldr	r3, [r3]
 7454 007a 1968     		ldr	r1, [r3]
 7455 007c FB68     		ldr	r3, [r7, #12]
 7456 007e 1A68     		ldr	r2, [r3]
 7457 0080 4DF6FF73 		movw	r3, #57343
 7458 0084 0B40     		ands	r3, r3, r1
 7459 0086 1360     		str	r3, [r2]
 7460 0088 FB68     		ldr	r3, [r7, #12]
 7461 008a 1B68     		ldr	r3, [r3]
 7462 008c 1A68     		ldr	r2, [r3]
 7463 008e FB68     		ldr	r3, [r7, #12]
 7464 0090 1B68     		ldr	r3, [r3]
 7465 0092 42F40052 		orr	r2, r2, #8192
 7466 0096 1A60     		str	r2, [r3]
 7467              	.L340:
2931:./Libraries/STM32F4xx_HAL_Driver/Src/stm32f4xx_hal_spi.c ****         }
2932:./Libraries/STM32F4xx_HAL_Driver/Src/stm32f4xx_hal_spi.c **** 
2933:./Libraries/STM32F4xx_HAL_Driver/Src/stm32f4xx_hal_spi.c ****         hspi->State= HAL_SPI_STATE_READY;
ARM GAS  /tmp/ccits0mR.s 			page 182


 7468              		.loc 1 2933 20
 7469 0098 FB68     		ldr	r3, [r7, #12]
 7470 009a 0122     		movs	r2, #1
 7471 009c 83F85120 		strb	r2, [r3, #81]
2934:./Libraries/STM32F4xx_HAL_Driver/Src/stm32f4xx_hal_spi.c **** 
2935:./Libraries/STM32F4xx_HAL_Driver/Src/stm32f4xx_hal_spi.c ****         /* Process Unlocked */
2936:./Libraries/STM32F4xx_HAL_Driver/Src/stm32f4xx_hal_spi.c ****         __HAL_UNLOCK(hspi);
 7472              		.loc 1 2936 9
 7473 00a0 FB68     		ldr	r3, [r7, #12]
 7474 00a2 0022     		movs	r2, #0
 7475 00a4 83F85020 		strb	r2, [r3, #80]
2937:./Libraries/STM32F4xx_HAL_Driver/Src/stm32f4xx_hal_spi.c **** 
2938:./Libraries/STM32F4xx_HAL_Driver/Src/stm32f4xx_hal_spi.c ****         return HAL_TIMEOUT;
 7476              		.loc 1 2938 16
 7477 00a8 0323     		movs	r3, #3
 7478 00aa 0EE0     		b	.L341
 7479              	.L336:
2908:./Libraries/STM32F4xx_HAL_Driver/Src/stm32f4xx_hal_spi.c ****   {
 7480              		.loc 1 2908 16
 7481 00ac FB68     		ldr	r3, [r7, #12]
 7482 00ae 1B68     		ldr	r3, [r3]
2908:./Libraries/STM32F4xx_HAL_Driver/Src/stm32f4xx_hal_spi.c ****   {
 7483              		.loc 1 2908 26
 7484 00b0 9A68     		ldr	r2, [r3, #8]
2908:./Libraries/STM32F4xx_HAL_Driver/Src/stm32f4xx_hal_spi.c ****   {
 7485              		.loc 1 2908 31
 7486 00b2 BB68     		ldr	r3, [r7, #8]
 7487 00b4 1340     		ands	r3, r3, r2
2908:./Libraries/STM32F4xx_HAL_Driver/Src/stm32f4xx_hal_spi.c ****   {
 7488              		.loc 1 2908 56
 7489 00b6 BA68     		ldr	r2, [r7, #8]
 7490 00b8 9A42     		cmp	r2, r3
 7491 00ba 01D1     		bne	.L342
2908:./Libraries/STM32F4xx_HAL_Driver/Src/stm32f4xx_hal_spi.c ****   {
 7492              		.loc 1 2908 56 is_stmt 0 discriminator 1
 7493 00bc 0122     		movs	r2, #1
 7494 00be 00E0     		b	.L343
 7495              	.L342:
2908:./Libraries/STM32F4xx_HAL_Driver/Src/stm32f4xx_hal_spi.c ****   {
 7496              		.loc 1 2908 56 discriminator 2
 7497 00c0 0022     		movs	r2, #0
 7498              	.L343:
2908:./Libraries/STM32F4xx_HAL_Driver/Src/stm32f4xx_hal_spi.c ****   {
 7499              		.loc 1 2908 8 is_stmt 1 discriminator 4
 7500 00c2 7B68     		ldr	r3, [r7, #4]
 7501 00c4 9A42     		cmp	r2, r3
 7502 00c6 A3D1     		bne	.L344
2939:./Libraries/STM32F4xx_HAL_Driver/Src/stm32f4xx_hal_spi.c ****       }
2940:./Libraries/STM32F4xx_HAL_Driver/Src/stm32f4xx_hal_spi.c ****     }
2941:./Libraries/STM32F4xx_HAL_Driver/Src/stm32f4xx_hal_spi.c ****   }
2942:./Libraries/STM32F4xx_HAL_Driver/Src/stm32f4xx_hal_spi.c **** 
2943:./Libraries/STM32F4xx_HAL_Driver/Src/stm32f4xx_hal_spi.c ****   return HAL_OK;
 7503              		.loc 1 2943 10
 7504 00c8 0023     		movs	r3, #0
 7505              	.L341:
2944:./Libraries/STM32F4xx_HAL_Driver/Src/stm32f4xx_hal_spi.c **** }
 7506              		.loc 1 2944 1
ARM GAS  /tmp/ccits0mR.s 			page 183


 7507 00ca 1846     		mov	r0, r3
 7508 00cc 1037     		adds	r7, r7, #16
 7509              	.LCFI274:
 7510              		.cfi_def_cfa_offset 8
 7511 00ce BD46     		mov	sp, r7
 7512              	.LCFI275:
 7513              		.cfi_def_cfa_register 13
 7514              		@ sp needed
 7515 00d0 80BD     		pop	{r7, pc}
 7516              		.cfi_endproc
 7517              	.LFE177:
 7519              		.section	.text.SPI_CheckFlag_BSY,"ax",%progbits
 7520              		.align	1
 7521              		.syntax unified
 7522              		.thumb
 7523              		.thumb_func
 7524              		.fpu fpv4-sp-d16
 7526              	SPI_CheckFlag_BSY:
 7527              	.LFB178:
2945:./Libraries/STM32F4xx_HAL_Driver/Src/stm32f4xx_hal_spi.c **** /**
2946:./Libraries/STM32F4xx_HAL_Driver/Src/stm32f4xx_hal_spi.c ****   * @brief Handle to check BSY flag before start a new transaction.
2947:./Libraries/STM32F4xx_HAL_Driver/Src/stm32f4xx_hal_spi.c ****   * @param hspi pointer to a SPI_HandleTypeDef structure that contains
2948:./Libraries/STM32F4xx_HAL_Driver/Src/stm32f4xx_hal_spi.c ****   *              the configuration information for SPI module.
2949:./Libraries/STM32F4xx_HAL_Driver/Src/stm32f4xx_hal_spi.c ****   * @param Timeout Timeout duration
2950:./Libraries/STM32F4xx_HAL_Driver/Src/stm32f4xx_hal_spi.c ****   * @param Tickstart tick start value
2951:./Libraries/STM32F4xx_HAL_Driver/Src/stm32f4xx_hal_spi.c ****   * @retval HAL status
2952:./Libraries/STM32F4xx_HAL_Driver/Src/stm32f4xx_hal_spi.c ****   */
2953:./Libraries/STM32F4xx_HAL_Driver/Src/stm32f4xx_hal_spi.c **** static HAL_StatusTypeDef SPI_CheckFlag_BSY(SPI_HandleTypeDef *hspi, uint32_t Timeout, uint32_t Tick
2954:./Libraries/STM32F4xx_HAL_Driver/Src/stm32f4xx_hal_spi.c **** {
 7528              		.loc 1 2954 1
 7529              		.cfi_startproc
 7530              		@ args = 0, pretend = 0, frame = 16
 7531              		@ frame_needed = 1, uses_anonymous_args = 0
 7532 0000 80B5     		push	{r7, lr}
 7533              	.LCFI276:
 7534              		.cfi_def_cfa_offset 8
 7535              		.cfi_offset 7, -8
 7536              		.cfi_offset 14, -4
 7537 0002 86B0     		sub	sp, sp, #24
 7538              	.LCFI277:
 7539              		.cfi_def_cfa_offset 32
 7540 0004 02AF     		add	r7, sp, #8
 7541              	.LCFI278:
 7542              		.cfi_def_cfa 7, 24
 7543 0006 F860     		str	r0, [r7, #12]
 7544 0008 B960     		str	r1, [r7, #8]
 7545 000a 7A60     		str	r2, [r7, #4]
2955:./Libraries/STM32F4xx_HAL_Driver/Src/stm32f4xx_hal_spi.c ****   /* Control the BSY flag */
2956:./Libraries/STM32F4xx_HAL_Driver/Src/stm32f4xx_hal_spi.c ****   if(SPI_WaitFlagStateUntilTimeout(hspi, SPI_FLAG_BSY, RESET, Timeout, Tickstart) != HAL_OK)
 7546              		.loc 1 2956 6
 7547 000c 7B68     		ldr	r3, [r7, #4]
 7548 000e 0093     		str	r3, [sp]
 7549 0010 BB68     		ldr	r3, [r7, #8]
 7550 0012 0022     		movs	r2, #0
 7551 0014 8021     		movs	r1, #128
 7552 0016 F868     		ldr	r0, [r7, #12]
 7553 0018 FFF7FEFF 		bl	SPI_WaitFlagStateUntilTimeout
ARM GAS  /tmp/ccits0mR.s 			page 184


 7554 001c 0346     		mov	r3, r0
 7555              		.loc 1 2956 5
 7556 001e 002B     		cmp	r3, #0
 7557 0020 07D0     		beq	.L346
2957:./Libraries/STM32F4xx_HAL_Driver/Src/stm32f4xx_hal_spi.c ****   {
2958:./Libraries/STM32F4xx_HAL_Driver/Src/stm32f4xx_hal_spi.c ****     SET_BIT(hspi->ErrorCode, HAL_SPI_ERROR_FLAG);
 7558              		.loc 1 2958 5
 7559 0022 FB68     		ldr	r3, [r7, #12]
 7560 0024 5B6D     		ldr	r3, [r3, #84]
 7561 0026 43F02002 		orr	r2, r3, #32
 7562 002a FB68     		ldr	r3, [r7, #12]
 7563 002c 5A65     		str	r2, [r3, #84]
2959:./Libraries/STM32F4xx_HAL_Driver/Src/stm32f4xx_hal_spi.c ****     return HAL_TIMEOUT;
 7564              		.loc 1 2959 12
 7565 002e 0323     		movs	r3, #3
 7566 0030 00E0     		b	.L347
 7567              	.L346:
2960:./Libraries/STM32F4xx_HAL_Driver/Src/stm32f4xx_hal_spi.c ****   }
2961:./Libraries/STM32F4xx_HAL_Driver/Src/stm32f4xx_hal_spi.c ****   return HAL_OK;
 7568              		.loc 1 2961 10
 7569 0032 0023     		movs	r3, #0
 7570              	.L347:
2962:./Libraries/STM32F4xx_HAL_Driver/Src/stm32f4xx_hal_spi.c **** }
 7571              		.loc 1 2962 1
 7572 0034 1846     		mov	r0, r3
 7573 0036 1037     		adds	r7, r7, #16
 7574              	.LCFI279:
 7575              		.cfi_def_cfa_offset 8
 7576 0038 BD46     		mov	sp, r7
 7577              	.LCFI280:
 7578              		.cfi_def_cfa_register 13
 7579              		@ sp needed
 7580 003a 80BD     		pop	{r7, pc}
 7581              		.cfi_endproc
 7582              	.LFE178:
 7584              		.section	.text.SPI_CloseRxTx_ISR,"ax",%progbits
 7585              		.align	1
 7586              		.syntax unified
 7587              		.thumb
 7588              		.thumb_func
 7589              		.fpu fpv4-sp-d16
 7591              	SPI_CloseRxTx_ISR:
 7592              	.LFB179:
2963:./Libraries/STM32F4xx_HAL_Driver/Src/stm32f4xx_hal_spi.c **** 
2964:./Libraries/STM32F4xx_HAL_Driver/Src/stm32f4xx_hal_spi.c **** /**
2965:./Libraries/STM32F4xx_HAL_Driver/Src/stm32f4xx_hal_spi.c ****   * @brief  Handle the end of the RXTX transaction.
2966:./Libraries/STM32F4xx_HAL_Driver/Src/stm32f4xx_hal_spi.c ****   * @param  hspi pointer to a SPI_HandleTypeDef structure that contains
2967:./Libraries/STM32F4xx_HAL_Driver/Src/stm32f4xx_hal_spi.c ****   *               the configuration information for SPI module.
2968:./Libraries/STM32F4xx_HAL_Driver/Src/stm32f4xx_hal_spi.c ****   * @retval None
2969:./Libraries/STM32F4xx_HAL_Driver/Src/stm32f4xx_hal_spi.c ****   */
2970:./Libraries/STM32F4xx_HAL_Driver/Src/stm32f4xx_hal_spi.c **** static void SPI_CloseRxTx_ISR(SPI_HandleTypeDef *hspi)
2971:./Libraries/STM32F4xx_HAL_Driver/Src/stm32f4xx_hal_spi.c **** {
 7593              		.loc 1 2971 1
 7594              		.cfi_startproc
 7595              		@ args = 0, pretend = 0, frame = 24
 7596              		@ frame_needed = 1, uses_anonymous_args = 0
 7597 0000 80B5     		push	{r7, lr}
ARM GAS  /tmp/ccits0mR.s 			page 185


 7598              	.LCFI281:
 7599              		.cfi_def_cfa_offset 8
 7600              		.cfi_offset 7, -8
 7601              		.cfi_offset 14, -4
 7602 0002 86B0     		sub	sp, sp, #24
 7603              	.LCFI282:
 7604              		.cfi_def_cfa_offset 32
 7605 0004 00AF     		add	r7, sp, #0
 7606              	.LCFI283:
 7607              		.cfi_def_cfa_register 7
 7608 0006 7860     		str	r0, [r7, #4]
2972:./Libraries/STM32F4xx_HAL_Driver/Src/stm32f4xx_hal_spi.c ****   uint32_t tickstart = 0U;
 7609              		.loc 1 2972 12
 7610 0008 0023     		movs	r3, #0
 7611 000a 7B61     		str	r3, [r7, #20]
2973:./Libraries/STM32F4xx_HAL_Driver/Src/stm32f4xx_hal_spi.c ****   __IO uint32_t count = SPI_DEFAULT_TIMEOUT * (SystemCoreClock / 24U / 1000U);
 7612              		.loc 1 2973 70
 7613 000c 414B     		ldr	r3, .L359
 7614 000e 1B68     		ldr	r3, [r3]
 7615 0010 414A     		ldr	r2, .L359+4
 7616 0012 A2FB0323 		umull	r2, r3, r2, r3
 7617 0016 5B0A     		lsrs	r3, r3, #9
 7618              		.loc 1 2973 45
 7619 0018 6422     		movs	r2, #100
 7620 001a 02FB03F3 		mul	r3, r2, r3
 7621              		.loc 1 2973 17
 7622 001e 3B61     		str	r3, [r7, #16]
2974:./Libraries/STM32F4xx_HAL_Driver/Src/stm32f4xx_hal_spi.c ****   /* Init tickstart for timeout managment*/
2975:./Libraries/STM32F4xx_HAL_Driver/Src/stm32f4xx_hal_spi.c ****   tickstart = HAL_GetTick();
 7623              		.loc 1 2975 15
 7624 0020 FFF7FEFF 		bl	HAL_GetTick
 7625 0024 7861     		str	r0, [r7, #20]
2976:./Libraries/STM32F4xx_HAL_Driver/Src/stm32f4xx_hal_spi.c **** 
2977:./Libraries/STM32F4xx_HAL_Driver/Src/stm32f4xx_hal_spi.c ****   /* Disable ERR interrupt */
2978:./Libraries/STM32F4xx_HAL_Driver/Src/stm32f4xx_hal_spi.c ****   __HAL_SPI_DISABLE_IT(hspi, SPI_IT_ERR);
 7626              		.loc 1 2978 3
 7627 0026 7B68     		ldr	r3, [r7, #4]
 7628 0028 1B68     		ldr	r3, [r3]
 7629 002a 5A68     		ldr	r2, [r3, #4]
 7630 002c 7B68     		ldr	r3, [r7, #4]
 7631 002e 1B68     		ldr	r3, [r3]
 7632 0030 22F02002 		bic	r2, r2, #32
 7633 0034 5A60     		str	r2, [r3, #4]
 7634              	.L351:
2979:./Libraries/STM32F4xx_HAL_Driver/Src/stm32f4xx_hal_spi.c **** 
2980:./Libraries/STM32F4xx_HAL_Driver/Src/stm32f4xx_hal_spi.c ****   /* Wait until TXE flag is set */
2981:./Libraries/STM32F4xx_HAL_Driver/Src/stm32f4xx_hal_spi.c ****   do
2982:./Libraries/STM32F4xx_HAL_Driver/Src/stm32f4xx_hal_spi.c ****   {
2983:./Libraries/STM32F4xx_HAL_Driver/Src/stm32f4xx_hal_spi.c ****     if(count-- == 0U)
 7635              		.loc 1 2983 13
 7636 0036 3B69     		ldr	r3, [r7, #16]
 7637 0038 5A1E     		subs	r2, r3, #1
 7638 003a 3A61     		str	r2, [r7, #16]
 7639              		.loc 1 2983 7
 7640 003c 002B     		cmp	r3, #0
 7641 003e 06D1     		bne	.L349
2984:./Libraries/STM32F4xx_HAL_Driver/Src/stm32f4xx_hal_spi.c ****     {
ARM GAS  /tmp/ccits0mR.s 			page 186


2985:./Libraries/STM32F4xx_HAL_Driver/Src/stm32f4xx_hal_spi.c ****       SET_BIT(hspi->ErrorCode, HAL_SPI_ERROR_FLAG);
 7642              		.loc 1 2985 7
 7643 0040 7B68     		ldr	r3, [r7, #4]
 7644 0042 5B6D     		ldr	r3, [r3, #84]
 7645 0044 43F02002 		orr	r2, r3, #32
 7646 0048 7B68     		ldr	r3, [r7, #4]
 7647 004a 5A65     		str	r2, [r3, #84]
2986:./Libraries/STM32F4xx_HAL_Driver/Src/stm32f4xx_hal_spi.c ****       break;
 7648              		.loc 1 2986 7
 7649 004c 06E0     		b	.L350
 7650              	.L349:
2987:./Libraries/STM32F4xx_HAL_Driver/Src/stm32f4xx_hal_spi.c ****     }
2988:./Libraries/STM32F4xx_HAL_Driver/Src/stm32f4xx_hal_spi.c ****   }
2989:./Libraries/STM32F4xx_HAL_Driver/Src/stm32f4xx_hal_spi.c ****   while((hspi->Instance->SR & SPI_FLAG_TXE) == RESET);
 7651              		.loc 1 2989 14
 7652 004e 7B68     		ldr	r3, [r7, #4]
 7653 0050 1B68     		ldr	r3, [r3]
 7654              		.loc 1 2989 24
 7655 0052 9B68     		ldr	r3, [r3, #8]
 7656              		.loc 1 2989 29
 7657 0054 03F00203 		and	r3, r3, #2
 7658              		.loc 1 2989 3
 7659 0058 002B     		cmp	r3, #0
 7660 005a ECD0     		beq	.L351
 7661              	.L350:
2990:./Libraries/STM32F4xx_HAL_Driver/Src/stm32f4xx_hal_spi.c ****   
2991:./Libraries/STM32F4xx_HAL_Driver/Src/stm32f4xx_hal_spi.c ****   /* Check the end of the transaction */
2992:./Libraries/STM32F4xx_HAL_Driver/Src/stm32f4xx_hal_spi.c ****   if(SPI_CheckFlag_BSY(hspi, SPI_DEFAULT_TIMEOUT, tickstart)!=HAL_OK)
 7662              		.loc 1 2992 6
 7663 005c 7A69     		ldr	r2, [r7, #20]
 7664 005e 6421     		movs	r1, #100
 7665 0060 7868     		ldr	r0, [r7, #4]
 7666 0062 FFF7FEFF 		bl	SPI_CheckFlag_BSY
 7667 0066 0346     		mov	r3, r0
 7668              		.loc 1 2992 5
 7669 0068 002B     		cmp	r3, #0
 7670 006a 05D0     		beq	.L352
2993:./Libraries/STM32F4xx_HAL_Driver/Src/stm32f4xx_hal_spi.c ****   {
2994:./Libraries/STM32F4xx_HAL_Driver/Src/stm32f4xx_hal_spi.c ****     SET_BIT(hspi->ErrorCode, HAL_SPI_ERROR_FLAG);
 7671              		.loc 1 2994 5
 7672 006c 7B68     		ldr	r3, [r7, #4]
 7673 006e 5B6D     		ldr	r3, [r3, #84]
 7674 0070 43F02002 		orr	r2, r3, #32
 7675 0074 7B68     		ldr	r3, [r7, #4]
 7676 0076 5A65     		str	r2, [r3, #84]
 7677              	.L352:
2995:./Libraries/STM32F4xx_HAL_Driver/Src/stm32f4xx_hal_spi.c ****   }
2996:./Libraries/STM32F4xx_HAL_Driver/Src/stm32f4xx_hal_spi.c **** 
2997:./Libraries/STM32F4xx_HAL_Driver/Src/stm32f4xx_hal_spi.c ****   /* Clear overrun flag in 2 Lines communication mode because received is not read */
2998:./Libraries/STM32F4xx_HAL_Driver/Src/stm32f4xx_hal_spi.c ****   if(hspi->Init.Direction == SPI_DIRECTION_2LINES)
 7678              		.loc 1 2998 16
 7679 0078 7B68     		ldr	r3, [r7, #4]
 7680 007a 9B68     		ldr	r3, [r3, #8]
 7681              		.loc 1 2998 5
 7682 007c 002B     		cmp	r3, #0
 7683 007e 0AD1     		bne	.L353
 7684              	.LBB16:
ARM GAS  /tmp/ccits0mR.s 			page 187


2999:./Libraries/STM32F4xx_HAL_Driver/Src/stm32f4xx_hal_spi.c ****   {
3000:./Libraries/STM32F4xx_HAL_Driver/Src/stm32f4xx_hal_spi.c ****     __HAL_SPI_CLEAR_OVRFLAG(hspi);
 7685              		.loc 1 3000 5
 7686 0080 0023     		movs	r3, #0
 7687 0082 FB60     		str	r3, [r7, #12]
 7688 0084 7B68     		ldr	r3, [r7, #4]
 7689 0086 1B68     		ldr	r3, [r3]
 7690 0088 DB68     		ldr	r3, [r3, #12]
 7691 008a FB60     		str	r3, [r7, #12]
 7692 008c 7B68     		ldr	r3, [r7, #4]
 7693 008e 1B68     		ldr	r3, [r3]
 7694 0090 9B68     		ldr	r3, [r3, #8]
 7695 0092 FB60     		str	r3, [r7, #12]
 7696 0094 FB68     		ldr	r3, [r7, #12]
 7697              	.L353:
 7698              	.LBE16:
3001:./Libraries/STM32F4xx_HAL_Driver/Src/stm32f4xx_hal_spi.c ****   }
3002:./Libraries/STM32F4xx_HAL_Driver/Src/stm32f4xx_hal_spi.c **** 
3003:./Libraries/STM32F4xx_HAL_Driver/Src/stm32f4xx_hal_spi.c **** #if (USE_SPI_CRC != 0U)
3004:./Libraries/STM32F4xx_HAL_Driver/Src/stm32f4xx_hal_spi.c ****   /* Check if CRC error occurred */
3005:./Libraries/STM32F4xx_HAL_Driver/Src/stm32f4xx_hal_spi.c ****   if(__HAL_SPI_GET_FLAG(hspi, SPI_FLAG_CRCERR) != RESET)
 7699              		.loc 1 3005 6
 7700 0096 7B68     		ldr	r3, [r7, #4]
 7701 0098 1B68     		ldr	r3, [r3]
 7702 009a 9B68     		ldr	r3, [r3, #8]
 7703 009c 03F01003 		and	r3, r3, #16
 7704              		.loc 1 3005 5
 7705 00a0 102B     		cmp	r3, #16
 7706 00a2 12D1     		bne	.L354
3006:./Libraries/STM32F4xx_HAL_Driver/Src/stm32f4xx_hal_spi.c ****   {
3007:./Libraries/STM32F4xx_HAL_Driver/Src/stm32f4xx_hal_spi.c ****     hspi->State = HAL_SPI_STATE_READY;
 7707              		.loc 1 3007 17
 7708 00a4 7B68     		ldr	r3, [r7, #4]
 7709 00a6 0122     		movs	r2, #1
 7710 00a8 83F85120 		strb	r2, [r3, #81]
3008:./Libraries/STM32F4xx_HAL_Driver/Src/stm32f4xx_hal_spi.c ****     SET_BIT(hspi->ErrorCode, HAL_SPI_ERROR_CRC);
 7711              		.loc 1 3008 5
 7712 00ac 7B68     		ldr	r3, [r7, #4]
 7713 00ae 5B6D     		ldr	r3, [r3, #84]
 7714 00b0 43F00202 		orr	r2, r3, #2
 7715 00b4 7B68     		ldr	r3, [r7, #4]
 7716 00b6 5A65     		str	r2, [r3, #84]
3009:./Libraries/STM32F4xx_HAL_Driver/Src/stm32f4xx_hal_spi.c ****     __HAL_SPI_CLEAR_CRCERRFLAG(hspi);
 7717              		.loc 1 3009 5
 7718 00b8 7B68     		ldr	r3, [r7, #4]
 7719 00ba 1B68     		ldr	r3, [r3]
 7720 00bc 4FF6EF72 		movw	r2, #65519
 7721 00c0 9A60     		str	r2, [r3, #8]
3010:./Libraries/STM32F4xx_HAL_Driver/Src/stm32f4xx_hal_spi.c ****     HAL_SPI_ErrorCallback(hspi);
 7722              		.loc 1 3010 5
 7723 00c2 7868     		ldr	r0, [r7, #4]
 7724 00c4 FFF7FEFF 		bl	HAL_SPI_ErrorCallback
3011:./Libraries/STM32F4xx_HAL_Driver/Src/stm32f4xx_hal_spi.c ****   }
3012:./Libraries/STM32F4xx_HAL_Driver/Src/stm32f4xx_hal_spi.c ****   else
3013:./Libraries/STM32F4xx_HAL_Driver/Src/stm32f4xx_hal_spi.c ****   {
3014:./Libraries/STM32F4xx_HAL_Driver/Src/stm32f4xx_hal_spi.c **** #endif /* USE_SPI_CRC */
3015:./Libraries/STM32F4xx_HAL_Driver/Src/stm32f4xx_hal_spi.c ****     if(hspi->ErrorCode == HAL_SPI_ERROR_NONE)
ARM GAS  /tmp/ccits0mR.s 			page 188


3016:./Libraries/STM32F4xx_HAL_Driver/Src/stm32f4xx_hal_spi.c ****     {
3017:./Libraries/STM32F4xx_HAL_Driver/Src/stm32f4xx_hal_spi.c ****       if(hspi->State == HAL_SPI_STATE_BUSY_RX)
3018:./Libraries/STM32F4xx_HAL_Driver/Src/stm32f4xx_hal_spi.c ****       {
3019:./Libraries/STM32F4xx_HAL_Driver/Src/stm32f4xx_hal_spi.c ****       	hspi->State = HAL_SPI_STATE_READY;
3020:./Libraries/STM32F4xx_HAL_Driver/Src/stm32f4xx_hal_spi.c ****         HAL_SPI_RxCpltCallback(hspi);
3021:./Libraries/STM32F4xx_HAL_Driver/Src/stm32f4xx_hal_spi.c ****       }
3022:./Libraries/STM32F4xx_HAL_Driver/Src/stm32f4xx_hal_spi.c ****       else
3023:./Libraries/STM32F4xx_HAL_Driver/Src/stm32f4xx_hal_spi.c ****       {
3024:./Libraries/STM32F4xx_HAL_Driver/Src/stm32f4xx_hal_spi.c ****       	hspi->State = HAL_SPI_STATE_READY;
3025:./Libraries/STM32F4xx_HAL_Driver/Src/stm32f4xx_hal_spi.c ****         HAL_SPI_TxRxCpltCallback(hspi);
3026:./Libraries/STM32F4xx_HAL_Driver/Src/stm32f4xx_hal_spi.c ****       }
3027:./Libraries/STM32F4xx_HAL_Driver/Src/stm32f4xx_hal_spi.c ****     }
3028:./Libraries/STM32F4xx_HAL_Driver/Src/stm32f4xx_hal_spi.c ****     else
3029:./Libraries/STM32F4xx_HAL_Driver/Src/stm32f4xx_hal_spi.c ****     {
3030:./Libraries/STM32F4xx_HAL_Driver/Src/stm32f4xx_hal_spi.c ****       hspi->State = HAL_SPI_STATE_READY;
3031:./Libraries/STM32F4xx_HAL_Driver/Src/stm32f4xx_hal_spi.c ****       HAL_SPI_ErrorCallback(hspi);
3032:./Libraries/STM32F4xx_HAL_Driver/Src/stm32f4xx_hal_spi.c ****     }
3033:./Libraries/STM32F4xx_HAL_Driver/Src/stm32f4xx_hal_spi.c **** #if (USE_SPI_CRC != 0U)
3034:./Libraries/STM32F4xx_HAL_Driver/Src/stm32f4xx_hal_spi.c ****   }
3035:./Libraries/STM32F4xx_HAL_Driver/Src/stm32f4xx_hal_spi.c **** #endif /* USE_SPI_CRC */
3036:./Libraries/STM32F4xx_HAL_Driver/Src/stm32f4xx_hal_spi.c **** }
 7725              		.loc 1 3036 1
 7726 00c8 20E0     		b	.L358
 7727              	.L354:
3015:./Libraries/STM32F4xx_HAL_Driver/Src/stm32f4xx_hal_spi.c ****     {
 7728              		.loc 1 3015 12
 7729 00ca 7B68     		ldr	r3, [r7, #4]
 7730 00cc 5B6D     		ldr	r3, [r3, #84]
3015:./Libraries/STM32F4xx_HAL_Driver/Src/stm32f4xx_hal_spi.c ****     {
 7731              		.loc 1 3015 7
 7732 00ce 002B     		cmp	r3, #0
 7733 00d0 15D1     		bne	.L356
3017:./Libraries/STM32F4xx_HAL_Driver/Src/stm32f4xx_hal_spi.c ****       {
 7734              		.loc 1 3017 14
 7735 00d2 7B68     		ldr	r3, [r7, #4]
 7736 00d4 93F85130 		ldrb	r3, [r3, #81]
 7737 00d8 DBB2     		uxtb	r3, r3
3017:./Libraries/STM32F4xx_HAL_Driver/Src/stm32f4xx_hal_spi.c ****       {
 7738              		.loc 1 3017 9
 7739 00da 042B     		cmp	r3, #4
 7740 00dc 07D1     		bne	.L357
3019:./Libraries/STM32F4xx_HAL_Driver/Src/stm32f4xx_hal_spi.c ****         HAL_SPI_RxCpltCallback(hspi);
 7741              		.loc 1 3019 20
 7742 00de 7B68     		ldr	r3, [r7, #4]
 7743 00e0 0122     		movs	r2, #1
 7744 00e2 83F85120 		strb	r2, [r3, #81]
3020:./Libraries/STM32F4xx_HAL_Driver/Src/stm32f4xx_hal_spi.c ****       }
 7745              		.loc 1 3020 9
 7746 00e6 7868     		ldr	r0, [r7, #4]
 7747 00e8 FFF7FEFF 		bl	HAL_SPI_RxCpltCallback
 7748              		.loc 1 3036 1
 7749 00ec 0EE0     		b	.L358
 7750              	.L357:
3024:./Libraries/STM32F4xx_HAL_Driver/Src/stm32f4xx_hal_spi.c ****         HAL_SPI_TxRxCpltCallback(hspi);
 7751              		.loc 1 3024 20
 7752 00ee 7B68     		ldr	r3, [r7, #4]
 7753 00f0 0122     		movs	r2, #1
ARM GAS  /tmp/ccits0mR.s 			page 189


 7754 00f2 83F85120 		strb	r2, [r3, #81]
3025:./Libraries/STM32F4xx_HAL_Driver/Src/stm32f4xx_hal_spi.c ****       }
 7755              		.loc 1 3025 9
 7756 00f6 7868     		ldr	r0, [r7, #4]
 7757 00f8 FFF7FEFF 		bl	HAL_SPI_TxRxCpltCallback
 7758              		.loc 1 3036 1
 7759 00fc 06E0     		b	.L358
 7760              	.L356:
3030:./Libraries/STM32F4xx_HAL_Driver/Src/stm32f4xx_hal_spi.c ****       HAL_SPI_ErrorCallback(hspi);
 7761              		.loc 1 3030 19
 7762 00fe 7B68     		ldr	r3, [r7, #4]
 7763 0100 0122     		movs	r2, #1
 7764 0102 83F85120 		strb	r2, [r3, #81]
3031:./Libraries/STM32F4xx_HAL_Driver/Src/stm32f4xx_hal_spi.c ****     }
 7765              		.loc 1 3031 7
 7766 0106 7868     		ldr	r0, [r7, #4]
 7767 0108 FFF7FEFF 		bl	HAL_SPI_ErrorCallback
 7768              	.L358:
 7769              		.loc 1 3036 1
 7770 010c 00BF     		nop
 7771 010e 1837     		adds	r7, r7, #24
 7772              	.LCFI284:
 7773              		.cfi_def_cfa_offset 8
 7774 0110 BD46     		mov	sp, r7
 7775              	.LCFI285:
 7776              		.cfi_def_cfa_register 13
 7777              		@ sp needed
 7778 0112 80BD     		pop	{r7, pc}
 7779              	.L360:
 7780              		.align	2
 7781              	.L359:
 7782 0114 00000000 		.word	SystemCoreClock
 7783 0118 F1197605 		.word	91625969
 7784              		.cfi_endproc
 7785              	.LFE179:
 7787              		.section	.text.SPI_CloseRx_ISR,"ax",%progbits
 7788              		.align	1
 7789              		.syntax unified
 7790              		.thumb
 7791              		.thumb_func
 7792              		.fpu fpv4-sp-d16
 7794              	SPI_CloseRx_ISR:
 7795              	.LFB180:
3037:./Libraries/STM32F4xx_HAL_Driver/Src/stm32f4xx_hal_spi.c **** 
3038:./Libraries/STM32F4xx_HAL_Driver/Src/stm32f4xx_hal_spi.c **** /**
3039:./Libraries/STM32F4xx_HAL_Driver/Src/stm32f4xx_hal_spi.c ****   * @brief  Handle the end of the RX transaction.
3040:./Libraries/STM32F4xx_HAL_Driver/Src/stm32f4xx_hal_spi.c ****   * @param  hspi pointer to a SPI_HandleTypeDef structure that contains
3041:./Libraries/STM32F4xx_HAL_Driver/Src/stm32f4xx_hal_spi.c ****   *               the configuration information for SPI module.
3042:./Libraries/STM32F4xx_HAL_Driver/Src/stm32f4xx_hal_spi.c ****   * @retval None
3043:./Libraries/STM32F4xx_HAL_Driver/Src/stm32f4xx_hal_spi.c ****   */
3044:./Libraries/STM32F4xx_HAL_Driver/Src/stm32f4xx_hal_spi.c **** static void SPI_CloseRx_ISR(SPI_HandleTypeDef *hspi)
3045:./Libraries/STM32F4xx_HAL_Driver/Src/stm32f4xx_hal_spi.c **** {
 7796              		.loc 1 3045 1
 7797              		.cfi_startproc
 7798              		@ args = 0, pretend = 0, frame = 16
 7799              		@ frame_needed = 1, uses_anonymous_args = 0
 7800 0000 80B5     		push	{r7, lr}
ARM GAS  /tmp/ccits0mR.s 			page 190


 7801              	.LCFI286:
 7802              		.cfi_def_cfa_offset 8
 7803              		.cfi_offset 7, -8
 7804              		.cfi_offset 14, -4
 7805 0002 84B0     		sub	sp, sp, #16
 7806              	.LCFI287:
 7807              		.cfi_def_cfa_offset 24
 7808 0004 00AF     		add	r7, sp, #0
 7809              	.LCFI288:
 7810              		.cfi_def_cfa_register 7
 7811 0006 7860     		str	r0, [r7, #4]
3046:./Libraries/STM32F4xx_HAL_Driver/Src/stm32f4xx_hal_spi.c ****     /* Disable RXNE and ERR interrupt */
3047:./Libraries/STM32F4xx_HAL_Driver/Src/stm32f4xx_hal_spi.c ****     __HAL_SPI_DISABLE_IT(hspi, (SPI_IT_RXNE | SPI_IT_ERR));
 7812              		.loc 1 3047 5
 7813 0008 7B68     		ldr	r3, [r7, #4]
 7814 000a 1B68     		ldr	r3, [r3]
 7815 000c 5A68     		ldr	r2, [r3, #4]
 7816 000e 7B68     		ldr	r3, [r7, #4]
 7817 0010 1B68     		ldr	r3, [r3]
 7818 0012 22F06002 		bic	r2, r2, #96
 7819 0016 5A60     		str	r2, [r3, #4]
3048:./Libraries/STM32F4xx_HAL_Driver/Src/stm32f4xx_hal_spi.c **** 
3049:./Libraries/STM32F4xx_HAL_Driver/Src/stm32f4xx_hal_spi.c ****     /* Check the end of the transaction */
3050:./Libraries/STM32F4xx_HAL_Driver/Src/stm32f4xx_hal_spi.c ****     if((hspi->Init.Mode == SPI_MODE_MASTER)&&((hspi->Init.Direction == SPI_DIRECTION_1LINE)||(hspi-
 7820              		.loc 1 3050 19
 7821 0018 7B68     		ldr	r3, [r7, #4]
 7822 001a 5B68     		ldr	r3, [r3, #4]
 7823              		.loc 1 3050 7
 7824 001c B3F5827F 		cmp	r3, #260
 7825 0020 11D1     		bne	.L362
 7826              		.loc 1 3050 58 discriminator 1
 7827 0022 7B68     		ldr	r3, [r7, #4]
 7828 0024 9B68     		ldr	r3, [r3, #8]
 7829              		.loc 1 3050 44 discriminator 1
 7830 0026 B3F5004F 		cmp	r3, #32768
 7831 002a 04D0     		beq	.L363
 7832              		.loc 1 3050 105 discriminator 2
 7833 002c 7B68     		ldr	r3, [r7, #4]
 7834 002e 9B68     		ldr	r3, [r3, #8]
 7835              		.loc 1 3050 92 discriminator 2
 7836 0030 B3F5806F 		cmp	r3, #1024
 7837 0034 07D1     		bne	.L362
 7838              	.L363:
3051:./Libraries/STM32F4xx_HAL_Driver/Src/stm32f4xx_hal_spi.c ****     {
3052:./Libraries/STM32F4xx_HAL_Driver/Src/stm32f4xx_hal_spi.c ****       /* Disable SPI peripheral */
3053:./Libraries/STM32F4xx_HAL_Driver/Src/stm32f4xx_hal_spi.c ****       __HAL_SPI_DISABLE(hspi);
 7839              		.loc 1 3053 7
 7840 0036 7B68     		ldr	r3, [r7, #4]
 7841 0038 1B68     		ldr	r3, [r3]
 7842 003a 1A68     		ldr	r2, [r3]
 7843 003c 7B68     		ldr	r3, [r7, #4]
 7844 003e 1B68     		ldr	r3, [r3]
 7845 0040 22F04002 		bic	r2, r2, #64
 7846 0044 1A60     		str	r2, [r3]
 7847              	.L362:
3054:./Libraries/STM32F4xx_HAL_Driver/Src/stm32f4xx_hal_spi.c ****     }
3055:./Libraries/STM32F4xx_HAL_Driver/Src/stm32f4xx_hal_spi.c **** 
ARM GAS  /tmp/ccits0mR.s 			page 191


3056:./Libraries/STM32F4xx_HAL_Driver/Src/stm32f4xx_hal_spi.c ****     /* Clear overrun flag in 2 Lines communication mode because received is not read */
3057:./Libraries/STM32F4xx_HAL_Driver/Src/stm32f4xx_hal_spi.c ****     if(hspi->Init.Direction == SPI_DIRECTION_2LINES)
 7848              		.loc 1 3057 18
 7849 0046 7B68     		ldr	r3, [r7, #4]
 7850 0048 9B68     		ldr	r3, [r3, #8]
 7851              		.loc 1 3057 7
 7852 004a 002B     		cmp	r3, #0
 7853 004c 0AD1     		bne	.L364
 7854              	.LBB17:
3058:./Libraries/STM32F4xx_HAL_Driver/Src/stm32f4xx_hal_spi.c ****     {
3059:./Libraries/STM32F4xx_HAL_Driver/Src/stm32f4xx_hal_spi.c ****       __HAL_SPI_CLEAR_OVRFLAG(hspi);
 7855              		.loc 1 3059 7
 7856 004e 0023     		movs	r3, #0
 7857 0050 FB60     		str	r3, [r7, #12]
 7858 0052 7B68     		ldr	r3, [r7, #4]
 7859 0054 1B68     		ldr	r3, [r3]
 7860 0056 DB68     		ldr	r3, [r3, #12]
 7861 0058 FB60     		str	r3, [r7, #12]
 7862 005a 7B68     		ldr	r3, [r7, #4]
 7863 005c 1B68     		ldr	r3, [r3]
 7864 005e 9B68     		ldr	r3, [r3, #8]
 7865 0060 FB60     		str	r3, [r7, #12]
 7866 0062 FB68     		ldr	r3, [r7, #12]
 7867              	.L364:
 7868              	.LBE17:
3060:./Libraries/STM32F4xx_HAL_Driver/Src/stm32f4xx_hal_spi.c ****     }
3061:./Libraries/STM32F4xx_HAL_Driver/Src/stm32f4xx_hal_spi.c ****     hspi->State = HAL_SPI_STATE_READY;
 7869              		.loc 1 3061 17
 7870 0064 7B68     		ldr	r3, [r7, #4]
 7871 0066 0122     		movs	r2, #1
 7872 0068 83F85120 		strb	r2, [r3, #81]
3062:./Libraries/STM32F4xx_HAL_Driver/Src/stm32f4xx_hal_spi.c **** 
3063:./Libraries/STM32F4xx_HAL_Driver/Src/stm32f4xx_hal_spi.c **** #if (USE_SPI_CRC != 0U)
3064:./Libraries/STM32F4xx_HAL_Driver/Src/stm32f4xx_hal_spi.c ****     /* Check if CRC error occurred */
3065:./Libraries/STM32F4xx_HAL_Driver/Src/stm32f4xx_hal_spi.c ****     if(__HAL_SPI_GET_FLAG(hspi, SPI_FLAG_CRCERR) != RESET)
 7873              		.loc 1 3065 8
 7874 006c 7B68     		ldr	r3, [r7, #4]
 7875 006e 1B68     		ldr	r3, [r3]
 7876 0070 9B68     		ldr	r3, [r3, #8]
 7877 0072 03F01003 		and	r3, r3, #16
 7878              		.loc 1 3065 7
 7879 0076 102B     		cmp	r3, #16
 7880 0078 0ED1     		bne	.L365
3066:./Libraries/STM32F4xx_HAL_Driver/Src/stm32f4xx_hal_spi.c ****     {
3067:./Libraries/STM32F4xx_HAL_Driver/Src/stm32f4xx_hal_spi.c ****       SET_BIT(hspi->ErrorCode, HAL_SPI_ERROR_CRC);
 7881              		.loc 1 3067 7
 7882 007a 7B68     		ldr	r3, [r7, #4]
 7883 007c 5B6D     		ldr	r3, [r3, #84]
 7884 007e 43F00202 		orr	r2, r3, #2
 7885 0082 7B68     		ldr	r3, [r7, #4]
 7886 0084 5A65     		str	r2, [r3, #84]
3068:./Libraries/STM32F4xx_HAL_Driver/Src/stm32f4xx_hal_spi.c ****       __HAL_SPI_CLEAR_CRCERRFLAG(hspi);
 7887              		.loc 1 3068 7
 7888 0086 7B68     		ldr	r3, [r7, #4]
 7889 0088 1B68     		ldr	r3, [r3]
 7890 008a 4FF6EF72 		movw	r2, #65519
 7891 008e 9A60     		str	r2, [r3, #8]
ARM GAS  /tmp/ccits0mR.s 			page 192


3069:./Libraries/STM32F4xx_HAL_Driver/Src/stm32f4xx_hal_spi.c ****       HAL_SPI_ErrorCallback(hspi);
 7892              		.loc 1 3069 7
 7893 0090 7868     		ldr	r0, [r7, #4]
 7894 0092 FFF7FEFF 		bl	HAL_SPI_ErrorCallback
3070:./Libraries/STM32F4xx_HAL_Driver/Src/stm32f4xx_hal_spi.c ****     }
3071:./Libraries/STM32F4xx_HAL_Driver/Src/stm32f4xx_hal_spi.c ****     else
3072:./Libraries/STM32F4xx_HAL_Driver/Src/stm32f4xx_hal_spi.c ****     {
3073:./Libraries/STM32F4xx_HAL_Driver/Src/stm32f4xx_hal_spi.c **** #endif /* USE_SPI_CRC */
3074:./Libraries/STM32F4xx_HAL_Driver/Src/stm32f4xx_hal_spi.c ****       if(hspi->ErrorCode == HAL_SPI_ERROR_NONE)
3075:./Libraries/STM32F4xx_HAL_Driver/Src/stm32f4xx_hal_spi.c ****       {
3076:./Libraries/STM32F4xx_HAL_Driver/Src/stm32f4xx_hal_spi.c ****         HAL_SPI_RxCpltCallback(hspi);
3077:./Libraries/STM32F4xx_HAL_Driver/Src/stm32f4xx_hal_spi.c ****       }
3078:./Libraries/STM32F4xx_HAL_Driver/Src/stm32f4xx_hal_spi.c ****       else
3079:./Libraries/STM32F4xx_HAL_Driver/Src/stm32f4xx_hal_spi.c ****       {
3080:./Libraries/STM32F4xx_HAL_Driver/Src/stm32f4xx_hal_spi.c ****         HAL_SPI_ErrorCallback(hspi);
3081:./Libraries/STM32F4xx_HAL_Driver/Src/stm32f4xx_hal_spi.c ****       }
3082:./Libraries/STM32F4xx_HAL_Driver/Src/stm32f4xx_hal_spi.c **** #if (USE_SPI_CRC != 0U)
3083:./Libraries/STM32F4xx_HAL_Driver/Src/stm32f4xx_hal_spi.c ****     }
3084:./Libraries/STM32F4xx_HAL_Driver/Src/stm32f4xx_hal_spi.c **** #endif /* USE_SPI_CRC */
3085:./Libraries/STM32F4xx_HAL_Driver/Src/stm32f4xx_hal_spi.c **** }
 7895              		.loc 1 3085 1
 7896 0096 0AE0     		b	.L368
 7897              	.L365:
3074:./Libraries/STM32F4xx_HAL_Driver/Src/stm32f4xx_hal_spi.c ****       {
 7898              		.loc 1 3074 14
 7899 0098 7B68     		ldr	r3, [r7, #4]
 7900 009a 5B6D     		ldr	r3, [r3, #84]
3074:./Libraries/STM32F4xx_HAL_Driver/Src/stm32f4xx_hal_spi.c ****       {
 7901              		.loc 1 3074 9
 7902 009c 002B     		cmp	r3, #0
 7903 009e 03D1     		bne	.L367
3076:./Libraries/STM32F4xx_HAL_Driver/Src/stm32f4xx_hal_spi.c ****       }
 7904              		.loc 1 3076 9
 7905 00a0 7868     		ldr	r0, [r7, #4]
 7906 00a2 FFF7FEFF 		bl	HAL_SPI_RxCpltCallback
 7907              		.loc 1 3085 1
 7908 00a6 02E0     		b	.L368
 7909              	.L367:
3080:./Libraries/STM32F4xx_HAL_Driver/Src/stm32f4xx_hal_spi.c ****       }
 7910              		.loc 1 3080 9
 7911 00a8 7868     		ldr	r0, [r7, #4]
 7912 00aa FFF7FEFF 		bl	HAL_SPI_ErrorCallback
 7913              	.L368:
 7914              		.loc 1 3085 1
 7915 00ae 00BF     		nop
 7916 00b0 1037     		adds	r7, r7, #16
 7917              	.LCFI289:
 7918              		.cfi_def_cfa_offset 8
 7919 00b2 BD46     		mov	sp, r7
 7920              	.LCFI290:
 7921              		.cfi_def_cfa_register 13
 7922              		@ sp needed
 7923 00b4 80BD     		pop	{r7, pc}
 7924              		.cfi_endproc
 7925              	.LFE180:
 7927              		.section	.text.SPI_CloseTx_ISR,"ax",%progbits
 7928              		.align	1
ARM GAS  /tmp/ccits0mR.s 			page 193


 7929              		.syntax unified
 7930              		.thumb
 7931              		.thumb_func
 7932              		.fpu fpv4-sp-d16
 7934              	SPI_CloseTx_ISR:
 7935              	.LFB181:
3086:./Libraries/STM32F4xx_HAL_Driver/Src/stm32f4xx_hal_spi.c **** 
3087:./Libraries/STM32F4xx_HAL_Driver/Src/stm32f4xx_hal_spi.c **** /**
3088:./Libraries/STM32F4xx_HAL_Driver/Src/stm32f4xx_hal_spi.c ****   * @brief  Handle the end of the TX transaction.
3089:./Libraries/STM32F4xx_HAL_Driver/Src/stm32f4xx_hal_spi.c ****   * @param  hspi pointer to a SPI_HandleTypeDef structure that contains
3090:./Libraries/STM32F4xx_HAL_Driver/Src/stm32f4xx_hal_spi.c ****   *               the configuration information for SPI module.
3091:./Libraries/STM32F4xx_HAL_Driver/Src/stm32f4xx_hal_spi.c ****   * @retval None
3092:./Libraries/STM32F4xx_HAL_Driver/Src/stm32f4xx_hal_spi.c ****   */
3093:./Libraries/STM32F4xx_HAL_Driver/Src/stm32f4xx_hal_spi.c **** static void SPI_CloseTx_ISR(SPI_HandleTypeDef *hspi)
3094:./Libraries/STM32F4xx_HAL_Driver/Src/stm32f4xx_hal_spi.c **** {
 7936              		.loc 1 3094 1
 7937              		.cfi_startproc
 7938              		@ args = 0, pretend = 0, frame = 24
 7939              		@ frame_needed = 1, uses_anonymous_args = 0
 7940 0000 80B5     		push	{r7, lr}
 7941              	.LCFI291:
 7942              		.cfi_def_cfa_offset 8
 7943              		.cfi_offset 7, -8
 7944              		.cfi_offset 14, -4
 7945 0002 86B0     		sub	sp, sp, #24
 7946              	.LCFI292:
 7947              		.cfi_def_cfa_offset 32
 7948 0004 00AF     		add	r7, sp, #0
 7949              	.LCFI293:
 7950              		.cfi_def_cfa_register 7
 7951 0006 7860     		str	r0, [r7, #4]
3095:./Libraries/STM32F4xx_HAL_Driver/Src/stm32f4xx_hal_spi.c ****   uint32_t tickstart = 0U;
 7952              		.loc 1 3095 12
 7953 0008 0023     		movs	r3, #0
 7954 000a 7B61     		str	r3, [r7, #20]
3096:./Libraries/STM32F4xx_HAL_Driver/Src/stm32f4xx_hal_spi.c ****   __IO uint32_t count = SPI_DEFAULT_TIMEOUT * (SystemCoreClock / 24U / 1000U);
 7955              		.loc 1 3096 70
 7956 000c 2B4B     		ldr	r3, .L378
 7957 000e 1B68     		ldr	r3, [r3]
 7958 0010 2B4A     		ldr	r2, .L378+4
 7959 0012 A2FB0323 		umull	r2, r3, r2, r3
 7960 0016 5B0A     		lsrs	r3, r3, #9
 7961              		.loc 1 3096 45
 7962 0018 6422     		movs	r2, #100
 7963 001a 02FB03F3 		mul	r3, r2, r3
 7964              		.loc 1 3096 17
 7965 001e 3B61     		str	r3, [r7, #16]
3097:./Libraries/STM32F4xx_HAL_Driver/Src/stm32f4xx_hal_spi.c **** 
3098:./Libraries/STM32F4xx_HAL_Driver/Src/stm32f4xx_hal_spi.c ****   /* Init tickstart for timeout management*/
3099:./Libraries/STM32F4xx_HAL_Driver/Src/stm32f4xx_hal_spi.c ****   tickstart = HAL_GetTick();
 7966              		.loc 1 3099 15
 7967 0020 FFF7FEFF 		bl	HAL_GetTick
 7968 0024 7861     		str	r0, [r7, #20]
 7969              	.L372:
3100:./Libraries/STM32F4xx_HAL_Driver/Src/stm32f4xx_hal_spi.c **** 
3101:./Libraries/STM32F4xx_HAL_Driver/Src/stm32f4xx_hal_spi.c ****   /* Wait until TXE flag is set */
3102:./Libraries/STM32F4xx_HAL_Driver/Src/stm32f4xx_hal_spi.c ****   do
ARM GAS  /tmp/ccits0mR.s 			page 194


3103:./Libraries/STM32F4xx_HAL_Driver/Src/stm32f4xx_hal_spi.c ****   {
3104:./Libraries/STM32F4xx_HAL_Driver/Src/stm32f4xx_hal_spi.c ****     if(count-- == 0U)
 7970              		.loc 1 3104 13
 7971 0026 3B69     		ldr	r3, [r7, #16]
 7972 0028 5A1E     		subs	r2, r3, #1
 7973 002a 3A61     		str	r2, [r7, #16]
 7974              		.loc 1 3104 7
 7975 002c 002B     		cmp	r3, #0
 7976 002e 06D1     		bne	.L370
3105:./Libraries/STM32F4xx_HAL_Driver/Src/stm32f4xx_hal_spi.c ****     {
3106:./Libraries/STM32F4xx_HAL_Driver/Src/stm32f4xx_hal_spi.c ****       SET_BIT(hspi->ErrorCode, HAL_SPI_ERROR_FLAG);
 7977              		.loc 1 3106 7
 7978 0030 7B68     		ldr	r3, [r7, #4]
 7979 0032 5B6D     		ldr	r3, [r3, #84]
 7980 0034 43F02002 		orr	r2, r3, #32
 7981 0038 7B68     		ldr	r3, [r7, #4]
 7982 003a 5A65     		str	r2, [r3, #84]
3107:./Libraries/STM32F4xx_HAL_Driver/Src/stm32f4xx_hal_spi.c ****       break;
 7983              		.loc 1 3107 7
 7984 003c 06E0     		b	.L371
 7985              	.L370:
3108:./Libraries/STM32F4xx_HAL_Driver/Src/stm32f4xx_hal_spi.c ****     }
3109:./Libraries/STM32F4xx_HAL_Driver/Src/stm32f4xx_hal_spi.c ****   }
3110:./Libraries/STM32F4xx_HAL_Driver/Src/stm32f4xx_hal_spi.c ****   while((hspi->Instance->SR & SPI_FLAG_TXE) == RESET);
 7986              		.loc 1 3110 14
 7987 003e 7B68     		ldr	r3, [r7, #4]
 7988 0040 1B68     		ldr	r3, [r3]
 7989              		.loc 1 3110 24
 7990 0042 9B68     		ldr	r3, [r3, #8]
 7991              		.loc 1 3110 29
 7992 0044 03F00203 		and	r3, r3, #2
 7993              		.loc 1 3110 3
 7994 0048 002B     		cmp	r3, #0
 7995 004a ECD0     		beq	.L372
 7996              	.L371:
3111:./Libraries/STM32F4xx_HAL_Driver/Src/stm32f4xx_hal_spi.c **** 
3112:./Libraries/STM32F4xx_HAL_Driver/Src/stm32f4xx_hal_spi.c ****   /* Disable TXE and ERR interrupt */
3113:./Libraries/STM32F4xx_HAL_Driver/Src/stm32f4xx_hal_spi.c ****   __HAL_SPI_DISABLE_IT(hspi, (SPI_IT_TXE | SPI_IT_ERR));
 7997              		.loc 1 3113 3
 7998 004c 7B68     		ldr	r3, [r7, #4]
 7999 004e 1B68     		ldr	r3, [r3]
 8000 0050 5A68     		ldr	r2, [r3, #4]
 8001 0052 7B68     		ldr	r3, [r7, #4]
 8002 0054 1B68     		ldr	r3, [r3]
 8003 0056 22F0A002 		bic	r2, r2, #160
 8004 005a 5A60     		str	r2, [r3, #4]
3114:./Libraries/STM32F4xx_HAL_Driver/Src/stm32f4xx_hal_spi.c **** 
3115:./Libraries/STM32F4xx_HAL_Driver/Src/stm32f4xx_hal_spi.c ****   /* Check Busy flag */
3116:./Libraries/STM32F4xx_HAL_Driver/Src/stm32f4xx_hal_spi.c ****   if(SPI_CheckFlag_BSY(hspi, SPI_DEFAULT_TIMEOUT, tickstart) != HAL_OK)
 8005              		.loc 1 3116 6
 8006 005c 7A69     		ldr	r2, [r7, #20]
 8007 005e 6421     		movs	r1, #100
 8008 0060 7868     		ldr	r0, [r7, #4]
 8009 0062 FFF7FEFF 		bl	SPI_CheckFlag_BSY
 8010 0066 0346     		mov	r3, r0
 8011              		.loc 1 3116 5
 8012 0068 002B     		cmp	r3, #0
ARM GAS  /tmp/ccits0mR.s 			page 195


 8013 006a 05D0     		beq	.L373
3117:./Libraries/STM32F4xx_HAL_Driver/Src/stm32f4xx_hal_spi.c ****   {
3118:./Libraries/STM32F4xx_HAL_Driver/Src/stm32f4xx_hal_spi.c ****     SET_BIT(hspi->ErrorCode, HAL_SPI_ERROR_FLAG);
 8014              		.loc 1 3118 5
 8015 006c 7B68     		ldr	r3, [r7, #4]
 8016 006e 5B6D     		ldr	r3, [r3, #84]
 8017 0070 43F02002 		orr	r2, r3, #32
 8018 0074 7B68     		ldr	r3, [r7, #4]
 8019 0076 5A65     		str	r2, [r3, #84]
 8020              	.L373:
3119:./Libraries/STM32F4xx_HAL_Driver/Src/stm32f4xx_hal_spi.c ****   }
3120:./Libraries/STM32F4xx_HAL_Driver/Src/stm32f4xx_hal_spi.c **** 
3121:./Libraries/STM32F4xx_HAL_Driver/Src/stm32f4xx_hal_spi.c ****   /* Clear overrun flag in 2 Lines communication mode because received is not read */
3122:./Libraries/STM32F4xx_HAL_Driver/Src/stm32f4xx_hal_spi.c ****   if(hspi->Init.Direction == SPI_DIRECTION_2LINES)
 8021              		.loc 1 3122 16
 8022 0078 7B68     		ldr	r3, [r7, #4]
 8023 007a 9B68     		ldr	r3, [r3, #8]
 8024              		.loc 1 3122 5
 8025 007c 002B     		cmp	r3, #0
 8026 007e 0AD1     		bne	.L374
 8027              	.LBB18:
3123:./Libraries/STM32F4xx_HAL_Driver/Src/stm32f4xx_hal_spi.c ****   {
3124:./Libraries/STM32F4xx_HAL_Driver/Src/stm32f4xx_hal_spi.c ****     __HAL_SPI_CLEAR_OVRFLAG(hspi);
 8028              		.loc 1 3124 5
 8029 0080 0023     		movs	r3, #0
 8030 0082 FB60     		str	r3, [r7, #12]
 8031 0084 7B68     		ldr	r3, [r7, #4]
 8032 0086 1B68     		ldr	r3, [r3]
 8033 0088 DB68     		ldr	r3, [r3, #12]
 8034 008a FB60     		str	r3, [r7, #12]
 8035 008c 7B68     		ldr	r3, [r7, #4]
 8036 008e 1B68     		ldr	r3, [r3]
 8037 0090 9B68     		ldr	r3, [r3, #8]
 8038 0092 FB60     		str	r3, [r7, #12]
 8039 0094 FB68     		ldr	r3, [r7, #12]
 8040              	.L374:
 8041              	.LBE18:
3125:./Libraries/STM32F4xx_HAL_Driver/Src/stm32f4xx_hal_spi.c ****   }
3126:./Libraries/STM32F4xx_HAL_Driver/Src/stm32f4xx_hal_spi.c **** 
3127:./Libraries/STM32F4xx_HAL_Driver/Src/stm32f4xx_hal_spi.c ****   hspi->State = HAL_SPI_STATE_READY;
 8042              		.loc 1 3127 15
 8043 0096 7B68     		ldr	r3, [r7, #4]
 8044 0098 0122     		movs	r2, #1
 8045 009a 83F85120 		strb	r2, [r3, #81]
3128:./Libraries/STM32F4xx_HAL_Driver/Src/stm32f4xx_hal_spi.c ****   if(hspi->ErrorCode != HAL_SPI_ERROR_NONE)
 8046              		.loc 1 3128 10
 8047 009e 7B68     		ldr	r3, [r7, #4]
 8048 00a0 5B6D     		ldr	r3, [r3, #84]
 8049              		.loc 1 3128 5
 8050 00a2 002B     		cmp	r3, #0
 8051 00a4 03D0     		beq	.L375
3129:./Libraries/STM32F4xx_HAL_Driver/Src/stm32f4xx_hal_spi.c ****   {
3130:./Libraries/STM32F4xx_HAL_Driver/Src/stm32f4xx_hal_spi.c ****     HAL_SPI_ErrorCallback(hspi);
 8052              		.loc 1 3130 5
 8053 00a6 7868     		ldr	r0, [r7, #4]
 8054 00a8 FFF7FEFF 		bl	HAL_SPI_ErrorCallback
3131:./Libraries/STM32F4xx_HAL_Driver/Src/stm32f4xx_hal_spi.c ****   }
ARM GAS  /tmp/ccits0mR.s 			page 196


3132:./Libraries/STM32F4xx_HAL_Driver/Src/stm32f4xx_hal_spi.c ****   else
3133:./Libraries/STM32F4xx_HAL_Driver/Src/stm32f4xx_hal_spi.c ****   {
3134:./Libraries/STM32F4xx_HAL_Driver/Src/stm32f4xx_hal_spi.c ****     HAL_SPI_TxCpltCallback(hspi);
3135:./Libraries/STM32F4xx_HAL_Driver/Src/stm32f4xx_hal_spi.c ****   }
3136:./Libraries/STM32F4xx_HAL_Driver/Src/stm32f4xx_hal_spi.c **** }
 8055              		.loc 1 3136 1
 8056 00ac 02E0     		b	.L377
 8057              	.L375:
3134:./Libraries/STM32F4xx_HAL_Driver/Src/stm32f4xx_hal_spi.c ****   }
 8058              		.loc 1 3134 5
 8059 00ae 7868     		ldr	r0, [r7, #4]
 8060 00b0 FFF7FEFF 		bl	HAL_SPI_TxCpltCallback
 8061              	.L377:
 8062              		.loc 1 3136 1
 8063 00b4 00BF     		nop
 8064 00b6 1837     		adds	r7, r7, #24
 8065              	.LCFI294:
 8066              		.cfi_def_cfa_offset 8
 8067 00b8 BD46     		mov	sp, r7
 8068              	.LCFI295:
 8069              		.cfi_def_cfa_register 13
 8070              		@ sp needed
 8071 00ba 80BD     		pop	{r7, pc}
 8072              	.L379:
 8073              		.align	2
 8074              	.L378:
 8075 00bc 00000000 		.word	SystemCoreClock
 8076 00c0 F1197605 		.word	91625969
 8077              		.cfi_endproc
 8078              	.LFE181:
 8080              		.section	.text.SPI_AbortRx_ISR,"ax",%progbits
 8081              		.align	1
 8082              		.syntax unified
 8083              		.thumb
 8084              		.thumb_func
 8085              		.fpu fpv4-sp-d16
 8087              	SPI_AbortRx_ISR:
 8088              	.LFB182:
3137:./Libraries/STM32F4xx_HAL_Driver/Src/stm32f4xx_hal_spi.c **** 
3138:./Libraries/STM32F4xx_HAL_Driver/Src/stm32f4xx_hal_spi.c **** /**
3139:./Libraries/STM32F4xx_HAL_Driver/Src/stm32f4xx_hal_spi.c ****   * @}
3140:./Libraries/STM32F4xx_HAL_Driver/Src/stm32f4xx_hal_spi.c ****   */
3141:./Libraries/STM32F4xx_HAL_Driver/Src/stm32f4xx_hal_spi.c **** 
3142:./Libraries/STM32F4xx_HAL_Driver/Src/stm32f4xx_hal_spi.c **** /**
3143:./Libraries/STM32F4xx_HAL_Driver/Src/stm32f4xx_hal_spi.c ****   * @brief  Handle abort a Tx or Rx transaction.
3144:./Libraries/STM32F4xx_HAL_Driver/Src/stm32f4xx_hal_spi.c ****   * @param  hspi pointer to a SPI_HandleTypeDef structure that contains
3145:./Libraries/STM32F4xx_HAL_Driver/Src/stm32f4xx_hal_spi.c ****   *               the configuration information for SPI module.
3146:./Libraries/STM32F4xx_HAL_Driver/Src/stm32f4xx_hal_spi.c ****   * @retval None
3147:./Libraries/STM32F4xx_HAL_Driver/Src/stm32f4xx_hal_spi.c ****   */
3148:./Libraries/STM32F4xx_HAL_Driver/Src/stm32f4xx_hal_spi.c **** static void SPI_AbortRx_ISR(SPI_HandleTypeDef *hspi)
3149:./Libraries/STM32F4xx_HAL_Driver/Src/stm32f4xx_hal_spi.c **** {
 8089              		.loc 1 3149 1
 8090              		.cfi_startproc
 8091              		@ args = 0, pretend = 0, frame = 16
 8092              		@ frame_needed = 1, uses_anonymous_args = 0
 8093              		@ link register save eliminated.
 8094 0000 80B4     		push	{r7}
ARM GAS  /tmp/ccits0mR.s 			page 197


 8095              	.LCFI296:
 8096              		.cfi_def_cfa_offset 4
 8097              		.cfi_offset 7, -4
 8098 0002 85B0     		sub	sp, sp, #20
 8099              	.LCFI297:
 8100              		.cfi_def_cfa_offset 24
 8101 0004 00AF     		add	r7, sp, #0
 8102              	.LCFI298:
 8103              		.cfi_def_cfa_register 7
 8104 0006 7860     		str	r0, [r7, #4]
3150:./Libraries/STM32F4xx_HAL_Driver/Src/stm32f4xx_hal_spi.c ****   __IO uint32_t tmpreg = 0U;
 8105              		.loc 1 3150 17
 8106 0008 0023     		movs	r3, #0
 8107 000a FB60     		str	r3, [r7, #12]
3151:./Libraries/STM32F4xx_HAL_Driver/Src/stm32f4xx_hal_spi.c ****   __IO uint32_t count = SPI_DEFAULT_TIMEOUT * (SystemCoreClock / 24U / 1000U);
 8108              		.loc 1 3151 70
 8109 000c 1B4B     		ldr	r3, .L384
 8110 000e 1B68     		ldr	r3, [r3]
 8111 0010 1B4A     		ldr	r2, .L384+4
 8112 0012 A2FB0323 		umull	r2, r3, r2, r3
 8113 0016 5B0A     		lsrs	r3, r3, #9
 8114              		.loc 1 3151 45
 8115 0018 6422     		movs	r2, #100
 8116 001a 02FB03F3 		mul	r3, r2, r3
 8117              		.loc 1 3151 17
 8118 001e BB60     		str	r3, [r7, #8]
 8119              	.L383:
3152:./Libraries/STM32F4xx_HAL_Driver/Src/stm32f4xx_hal_spi.c **** 
3153:./Libraries/STM32F4xx_HAL_Driver/Src/stm32f4xx_hal_spi.c ****   /* Wait until TXE flag is set */
3154:./Libraries/STM32F4xx_HAL_Driver/Src/stm32f4xx_hal_spi.c ****   do
3155:./Libraries/STM32F4xx_HAL_Driver/Src/stm32f4xx_hal_spi.c ****   {
3156:./Libraries/STM32F4xx_HAL_Driver/Src/stm32f4xx_hal_spi.c ****     if(count-- == 0U)
 8120              		.loc 1 3156 13
 8121 0020 BB68     		ldr	r3, [r7, #8]
 8122 0022 5A1E     		subs	r2, r3, #1
 8123 0024 BA60     		str	r2, [r7, #8]
 8124              		.loc 1 3156 7
 8125 0026 002B     		cmp	r3, #0
 8126 0028 06D1     		bne	.L381
3157:./Libraries/STM32F4xx_HAL_Driver/Src/stm32f4xx_hal_spi.c ****     {
3158:./Libraries/STM32F4xx_HAL_Driver/Src/stm32f4xx_hal_spi.c ****       SET_BIT(hspi->ErrorCode, HAL_SPI_ERROR_FLAG);
 8127              		.loc 1 3158 7
 8128 002a 7B68     		ldr	r3, [r7, #4]
 8129 002c 5B6D     		ldr	r3, [r3, #84]
 8130 002e 43F02002 		orr	r2, r3, #32
 8131 0032 7B68     		ldr	r3, [r7, #4]
 8132 0034 5A65     		str	r2, [r3, #84]
3159:./Libraries/STM32F4xx_HAL_Driver/Src/stm32f4xx_hal_spi.c ****       break;
 8133              		.loc 1 3159 7
 8134 0036 06E0     		b	.L382
 8135              	.L381:
3160:./Libraries/STM32F4xx_HAL_Driver/Src/stm32f4xx_hal_spi.c ****     }
3161:./Libraries/STM32F4xx_HAL_Driver/Src/stm32f4xx_hal_spi.c ****   }
3162:./Libraries/STM32F4xx_HAL_Driver/Src/stm32f4xx_hal_spi.c ****   while((hspi->Instance->SR & SPI_FLAG_TXE) == RESET);
 8136              		.loc 1 3162 14
 8137 0038 7B68     		ldr	r3, [r7, #4]
 8138 003a 1B68     		ldr	r3, [r3]
ARM GAS  /tmp/ccits0mR.s 			page 198


 8139              		.loc 1 3162 24
 8140 003c 9B68     		ldr	r3, [r3, #8]
 8141              		.loc 1 3162 29
 8142 003e 03F00203 		and	r3, r3, #2
 8143              		.loc 1 3162 3
 8144 0042 002B     		cmp	r3, #0
 8145 0044 ECD0     		beq	.L383
 8146              	.L382:
3163:./Libraries/STM32F4xx_HAL_Driver/Src/stm32f4xx_hal_spi.c **** 
3164:./Libraries/STM32F4xx_HAL_Driver/Src/stm32f4xx_hal_spi.c ****   /* Disable SPI Peripheral */
3165:./Libraries/STM32F4xx_HAL_Driver/Src/stm32f4xx_hal_spi.c ****   __HAL_SPI_DISABLE(hspi);    
 8147              		.loc 1 3165 3
 8148 0046 7B68     		ldr	r3, [r7, #4]
 8149 0048 1B68     		ldr	r3, [r3]
 8150 004a 1A68     		ldr	r2, [r3]
 8151 004c 7B68     		ldr	r3, [r7, #4]
 8152 004e 1B68     		ldr	r3, [r3]
 8153 0050 22F04002 		bic	r2, r2, #64
 8154 0054 1A60     		str	r2, [r3]
3166:./Libraries/STM32F4xx_HAL_Driver/Src/stm32f4xx_hal_spi.c **** 
3167:./Libraries/STM32F4xx_HAL_Driver/Src/stm32f4xx_hal_spi.c ****   /* Disable TXEIE, RXNEIE and ERRIE(mode fault event, overrun error, TI frame error) interrupts */
3168:./Libraries/STM32F4xx_HAL_Driver/Src/stm32f4xx_hal_spi.c ****   CLEAR_BIT(hspi->Instance->CR2, (SPI_CR2_TXEIE | SPI_CR2_RXNEIE | SPI_CR2_ERRIE));
 8155              		.loc 1 3168 3
 8156 0056 7B68     		ldr	r3, [r7, #4]
 8157 0058 1B68     		ldr	r3, [r3]
 8158 005a 5A68     		ldr	r2, [r3, #4]
 8159 005c 7B68     		ldr	r3, [r7, #4]
 8160 005e 1B68     		ldr	r3, [r3]
 8161 0060 22F0E002 		bic	r2, r2, #224
 8162 0064 5A60     		str	r2, [r3, #4]
3169:./Libraries/STM32F4xx_HAL_Driver/Src/stm32f4xx_hal_spi.c **** 
3170:./Libraries/STM32F4xx_HAL_Driver/Src/stm32f4xx_hal_spi.c ****   /* Flush DR Register */
3171:./Libraries/STM32F4xx_HAL_Driver/Src/stm32f4xx_hal_spi.c ****   tmpreg = (*(__IO uint32_t *)&hspi->Instance->DR);
 8163              		.loc 1 3171 36
 8164 0066 7B68     		ldr	r3, [r7, #4]
 8165 0068 1B68     		ldr	r3, [r3]
 8166              		.loc 1 3171 13
 8167 006a DB68     		ldr	r3, [r3, #12]
 8168              		.loc 1 3171 10
 8169 006c FB60     		str	r3, [r7, #12]
3172:./Libraries/STM32F4xx_HAL_Driver/Src/stm32f4xx_hal_spi.c **** 
3173:./Libraries/STM32F4xx_HAL_Driver/Src/stm32f4xx_hal_spi.c ****   /* To avoid GCC warning */
3174:./Libraries/STM32F4xx_HAL_Driver/Src/stm32f4xx_hal_spi.c ****   UNUSED(tmpreg);
 8170              		.loc 1 3174 3
 8171 006e FB68     		ldr	r3, [r7, #12]
3175:./Libraries/STM32F4xx_HAL_Driver/Src/stm32f4xx_hal_spi.c **** }
 8172              		.loc 1 3175 1
 8173 0070 00BF     		nop
 8174 0072 1437     		adds	r7, r7, #20
 8175              	.LCFI299:
 8176              		.cfi_def_cfa_offset 4
 8177 0074 BD46     		mov	sp, r7
 8178              	.LCFI300:
 8179              		.cfi_def_cfa_register 13
 8180              		@ sp needed
 8181 0076 5DF8047B 		ldr	r7, [sp], #4
 8182              	.LCFI301:
ARM GAS  /tmp/ccits0mR.s 			page 199


 8183              		.cfi_restore 7
 8184              		.cfi_def_cfa_offset 0
 8185 007a 7047     		bx	lr
 8186              	.L385:
 8187              		.align	2
 8188              	.L384:
 8189 007c 00000000 		.word	SystemCoreClock
 8190 0080 F1197605 		.word	91625969
 8191              		.cfi_endproc
 8192              	.LFE182:
 8194              		.section	.text.SPI_AbortTx_ISR,"ax",%progbits
 8195              		.align	1
 8196              		.syntax unified
 8197              		.thumb
 8198              		.thumb_func
 8199              		.fpu fpv4-sp-d16
 8201              	SPI_AbortTx_ISR:
 8202              	.LFB183:
3176:./Libraries/STM32F4xx_HAL_Driver/Src/stm32f4xx_hal_spi.c **** 
3177:./Libraries/STM32F4xx_HAL_Driver/Src/stm32f4xx_hal_spi.c **** /**
3178:./Libraries/STM32F4xx_HAL_Driver/Src/stm32f4xx_hal_spi.c ****   * @brief  Handle abort a Tx or Rx transaction.
3179:./Libraries/STM32F4xx_HAL_Driver/Src/stm32f4xx_hal_spi.c ****   * @param  hspi pointer to a SPI_HandleTypeDef structure that contains
3180:./Libraries/STM32F4xx_HAL_Driver/Src/stm32f4xx_hal_spi.c ****   *               the configuration information for SPI module.
3181:./Libraries/STM32F4xx_HAL_Driver/Src/stm32f4xx_hal_spi.c ****   * @retval None
3182:./Libraries/STM32F4xx_HAL_Driver/Src/stm32f4xx_hal_spi.c ****   */
3183:./Libraries/STM32F4xx_HAL_Driver/Src/stm32f4xx_hal_spi.c **** static void SPI_AbortTx_ISR(SPI_HandleTypeDef *hspi)
3184:./Libraries/STM32F4xx_HAL_Driver/Src/stm32f4xx_hal_spi.c **** {
 8203              		.loc 1 3184 1
 8204              		.cfi_startproc
 8205              		@ args = 0, pretend = 0, frame = 8
 8206              		@ frame_needed = 1, uses_anonymous_args = 0
 8207              		@ link register save eliminated.
 8208 0000 80B4     		push	{r7}
 8209              	.LCFI302:
 8210              		.cfi_def_cfa_offset 4
 8211              		.cfi_offset 7, -4
 8212 0002 83B0     		sub	sp, sp, #12
 8213              	.LCFI303:
 8214              		.cfi_def_cfa_offset 16
 8215 0004 00AF     		add	r7, sp, #0
 8216              	.LCFI304:
 8217              		.cfi_def_cfa_register 7
 8218 0006 7860     		str	r0, [r7, #4]
3185:./Libraries/STM32F4xx_HAL_Driver/Src/stm32f4xx_hal_spi.c ****   /* Disable TXEIE, RXNEIE and ERRIE(mode fault event, overrun error, TI frame error) interrupts */
3186:./Libraries/STM32F4xx_HAL_Driver/Src/stm32f4xx_hal_spi.c ****   CLEAR_BIT(hspi->Instance->CR2, (SPI_CR2_TXEIE | SPI_CR2_RXNEIE | SPI_CR2_ERRIE));
 8219              		.loc 1 3186 3
 8220 0008 7B68     		ldr	r3, [r7, #4]
 8221 000a 1B68     		ldr	r3, [r3]
 8222 000c 5A68     		ldr	r2, [r3, #4]
 8223 000e 7B68     		ldr	r3, [r7, #4]
 8224 0010 1B68     		ldr	r3, [r3]
 8225 0012 22F0E002 		bic	r2, r2, #224
 8226 0016 5A60     		str	r2, [r3, #4]
3187:./Libraries/STM32F4xx_HAL_Driver/Src/stm32f4xx_hal_spi.c **** 
3188:./Libraries/STM32F4xx_HAL_Driver/Src/stm32f4xx_hal_spi.c ****   /* Disable SPI Peripheral */
3189:./Libraries/STM32F4xx_HAL_Driver/Src/stm32f4xx_hal_spi.c ****   __HAL_SPI_DISABLE(hspi);
 8227              		.loc 1 3189 3
ARM GAS  /tmp/ccits0mR.s 			page 200


 8228 0018 7B68     		ldr	r3, [r7, #4]
 8229 001a 1B68     		ldr	r3, [r3]
 8230 001c 1A68     		ldr	r2, [r3]
 8231 001e 7B68     		ldr	r3, [r7, #4]
 8232 0020 1B68     		ldr	r3, [r3]
 8233 0022 22F04002 		bic	r2, r2, #64
 8234 0026 1A60     		str	r2, [r3]
3190:./Libraries/STM32F4xx_HAL_Driver/Src/stm32f4xx_hal_spi.c **** }
 8235              		.loc 1 3190 1
 8236 0028 00BF     		nop
 8237 002a 0C37     		adds	r7, r7, #12
 8238              	.LCFI305:
 8239              		.cfi_def_cfa_offset 4
 8240 002c BD46     		mov	sp, r7
 8241              	.LCFI306:
 8242              		.cfi_def_cfa_register 13
 8243              		@ sp needed
 8244 002e 5DF8047B 		ldr	r7, [sp], #4
 8245              	.LCFI307:
 8246              		.cfi_restore 7
 8247              		.cfi_def_cfa_offset 0
 8248 0032 7047     		bx	lr
 8249              		.cfi_endproc
 8250              	.LFE183:
 8252              		.text
 8253              	.Letext0:
 8254              		.file 2 "/home/hao/Documents/gcc-arm-none-eabi/arm-none-eabi/include/machine/_default_types.h"
 8255              		.file 3 "/home/hao/Documents/gcc-arm-none-eabi/arm-none-eabi/include/sys/_stdint.h"
 8256              		.file 4 "./Libraries/CMSIS/Device/ST/STM32F4xx/Include/stm32f429xx.h"
 8257              		.file 5 "./Libraries/CMSIS/Device/ST/STM32F4xx/Include/stm32f4xx.h"
 8258              		.file 6 "./Libraries/STM32F4xx_HAL_Driver/Inc/stm32f4xx_hal_def.h"
 8259              		.file 7 "./Libraries/STM32F4xx_HAL_Driver/Inc/stm32f4xx_hal_dma.h"
 8260              		.file 8 "./Libraries/STM32F4xx_HAL_Driver/Inc/stm32f4xx_hal_spi.h"
 8261              		.file 9 "./Libraries/CMSIS/Device/ST/STM32F4xx/Include/system_stm32f4xx.h"
ARM GAS  /tmp/ccits0mR.s 			page 201


DEFINED SYMBOLS
                            *ABS*:0000000000000000 stm32f4xx_hal_spi.c
     /tmp/ccits0mR.s:18     .text.HAL_SPI_Init:0000000000000000 $t
     /tmp/ccits0mR.s:26     .text.HAL_SPI_Init:0000000000000000 HAL_SPI_Init
     /tmp/ccits0mR.s:252    .text.HAL_SPI_MspInit:0000000000000000 HAL_SPI_MspInit
     /tmp/ccits0mR.s:168    .text.HAL_SPI_DeInit:0000000000000000 $t
     /tmp/ccits0mR.s:175    .text.HAL_SPI_DeInit:0000000000000000 HAL_SPI_DeInit
     /tmp/ccits0mR.s:295    .text.HAL_SPI_MspDeInit:0000000000000000 HAL_SPI_MspDeInit
     /tmp/ccits0mR.s:245    .text.HAL_SPI_MspInit:0000000000000000 $t
     /tmp/ccits0mR.s:288    .text.HAL_SPI_MspDeInit:0000000000000000 $t
     /tmp/ccits0mR.s:331    .text.HAL_SPI_Transmit:0000000000000000 $t
     /tmp/ccits0mR.s:338    .text.HAL_SPI_Transmit:0000000000000000 HAL_SPI_Transmit
     /tmp/ccits0mR.s:7366   .text.SPI_WaitFlagStateUntilTimeout:0000000000000000 SPI_WaitFlagStateUntilTimeout
     /tmp/ccits0mR.s:7526   .text.SPI_CheckFlag_BSY:0000000000000000 SPI_CheckFlag_BSY
     /tmp/ccits0mR.s:834    .text.HAL_SPI_Receive:0000000000000000 $t
     /tmp/ccits0mR.s:841    .text.HAL_SPI_Receive:0000000000000000 HAL_SPI_Receive
     /tmp/ccits0mR.s:1382   .text.HAL_SPI_TransmitReceive:0000000000000000 HAL_SPI_TransmitReceive
     /tmp/ccits0mR.s:1375   .text.HAL_SPI_TransmitReceive:0000000000000000 $t
     /tmp/ccits0mR.s:2099   .text.HAL_SPI_Transmit_IT:0000000000000000 $t
     /tmp/ccits0mR.s:2106   .text.HAL_SPI_Transmit_IT:0000000000000000 HAL_SPI_Transmit_IT
     /tmp/ccits0mR.s:2334   .text.HAL_SPI_Transmit_IT:0000000000000144 $d
     /tmp/ccits0mR.s:7277   .text.SPI_TxISR_16BIT:0000000000000000 SPI_TxISR_16BIT
     /tmp/ccits0mR.s:7188   .text.SPI_TxISR_8BIT:0000000000000000 SPI_TxISR_8BIT
     /tmp/ccits0mR.s:2340   .text.HAL_SPI_Receive_IT:0000000000000000 $t
     /tmp/ccits0mR.s:2347   .text.HAL_SPI_Receive_IT:0000000000000000 HAL_SPI_Receive_IT
     /tmp/ccits0mR.s:2592   .text.HAL_SPI_TransmitReceive_IT:0000000000000000 HAL_SPI_TransmitReceive_IT
     /tmp/ccits0mR.s:2579   .text.HAL_SPI_Receive_IT:0000000000000150 $d
     /tmp/ccits0mR.s:7075   .text.SPI_RxISR_16BIT:0000000000000000 SPI_RxISR_16BIT
     /tmp/ccits0mR.s:6900   .text.SPI_RxISR_8BIT:0000000000000000 SPI_RxISR_8BIT
     /tmp/ccits0mR.s:2585   .text.HAL_SPI_TransmitReceive_IT:0000000000000000 $t
     /tmp/ccits0mR.s:2832   .text.HAL_SPI_TransmitReceive_IT:0000000000000150 $d
     /tmp/ccits0mR.s:6563   .text.SPI_2linesRxISR_16BIT:0000000000000000 SPI_2linesRxISR_16BIT
     /tmp/ccits0mR.s:6731   .text.SPI_2linesTxISR_16BIT:0000000000000000 SPI_2linesTxISR_16BIT
     /tmp/ccits0mR.s:6272   .text.SPI_2linesRxISR_8BIT:0000000000000000 SPI_2linesRxISR_8BIT
     /tmp/ccits0mR.s:6450   .text.SPI_2linesTxISR_8BIT:0000000000000000 SPI_2linesTxISR_8BIT
     /tmp/ccits0mR.s:2840   .text.HAL_SPI_Transmit_DMA:0000000000000000 $t
     /tmp/ccits0mR.s:2847   .text.HAL_SPI_Transmit_DMA:0000000000000000 HAL_SPI_Transmit_DMA
     /tmp/ccits0mR.s:3091   .text.HAL_SPI_Transmit_DMA:000000000000015c $d
     /tmp/ccits0mR.s:5747   .text.SPI_DMAHalfTransmitCplt:0000000000000000 SPI_DMAHalfTransmitCplt
     /tmp/ccits0mR.s:5277   .text.SPI_DMATransmitCplt:0000000000000000 SPI_DMATransmitCplt
     /tmp/ccits0mR.s:5882   .text.SPI_DMAError:0000000000000000 SPI_DMAError
     /tmp/ccits0mR.s:3098   .text.HAL_SPI_Receive_DMA:0000000000000000 $t
     /tmp/ccits0mR.s:3105   .text.HAL_SPI_Receive_DMA:0000000000000000 HAL_SPI_Receive_DMA
     /tmp/ccits0mR.s:3384   .text.HAL_SPI_TransmitReceive_DMA:0000000000000000 HAL_SPI_TransmitReceive_DMA
     /tmp/ccits0mR.s:3370   .text.HAL_SPI_Receive_DMA:0000000000000180 $d
     /tmp/ccits0mR.s:5792   .text.SPI_DMAHalfReceiveCplt:0000000000000000 SPI_DMAHalfReceiveCplt
     /tmp/ccits0mR.s:5403   .text.SPI_DMAReceiveCplt:0000000000000000 SPI_DMAReceiveCplt
     /tmp/ccits0mR.s:3377   .text.HAL_SPI_TransmitReceive_DMA:0000000000000000 $t
     /tmp/ccits0mR.s:3728   .text.HAL_SPI_TransmitReceive_DMA:00000000000001e8 $d
     /tmp/ccits0mR.s:5837   .text.SPI_DMAHalfTransmitReceiveCplt:0000000000000000 SPI_DMAHalfTransmitReceiveCplt
     /tmp/ccits0mR.s:5579   .text.SPI_DMATransmitReceiveCplt:0000000000000000 SPI_DMATransmitReceiveCplt
     /tmp/ccits0mR.s:3737   .text.HAL_SPI_Abort:0000000000000000 $t
     /tmp/ccits0mR.s:3744   .text.HAL_SPI_Abort:0000000000000000 HAL_SPI_Abort
     /tmp/ccits0mR.s:3966   .text.HAL_SPI_Abort:0000000000000144 $d
     /tmp/ccits0mR.s:8201   .text.SPI_AbortTx_ISR:0000000000000000 SPI_AbortTx_ISR
     /tmp/ccits0mR.s:8087   .text.SPI_AbortRx_ISR:0000000000000000 SPI_AbortRx_ISR
     /tmp/ccits0mR.s:3974   .text.HAL_SPI_Abort_IT:0000000000000000 $t
ARM GAS  /tmp/ccits0mR.s 			page 202


     /tmp/ccits0mR.s:3981   .text.HAL_SPI_Abort_IT:0000000000000000 HAL_SPI_Abort_IT
     /tmp/ccits0mR.s:5142   .text.HAL_SPI_AbortCpltCallback:0000000000000000 HAL_SPI_AbortCpltCallback
     /tmp/ccits0mR.s:4300   .text.HAL_SPI_Abort_IT:00000000000001bc $d
     /tmp/ccits0mR.s:5998   .text.SPI_DMATxAbortCallback:0000000000000000 SPI_DMATxAbortCallback
     /tmp/ccits0mR.s:6146   .text.SPI_DMARxAbortCallback:0000000000000000 SPI_DMARxAbortCallback
     /tmp/ccits0mR.s:4308   .text.HAL_SPI_DMAPause:0000000000000000 $t
     /tmp/ccits0mR.s:4315   .text.HAL_SPI_DMAPause:0000000000000000 HAL_SPI_DMAPause
     /tmp/ccits0mR.s:4379   .text.HAL_SPI_DMAResume:0000000000000000 $t
     /tmp/ccits0mR.s:4386   .text.HAL_SPI_DMAResume:0000000000000000 HAL_SPI_DMAResume
     /tmp/ccits0mR.s:4450   .text.HAL_SPI_DMAStop:0000000000000000 $t
     /tmp/ccits0mR.s:4457   .text.HAL_SPI_DMAStop:0000000000000000 HAL_SPI_DMAStop
     /tmp/ccits0mR.s:4527   .text.HAL_SPI_IRQHandler:0000000000000000 $t
     /tmp/ccits0mR.s:4534   .text.HAL_SPI_IRQHandler:0000000000000000 HAL_SPI_IRQHandler
     /tmp/ccits0mR.s:5099   .text.HAL_SPI_ErrorCallback:0000000000000000 HAL_SPI_ErrorCallback
     /tmp/ccits0mR.s:4829   .text.HAL_SPI_IRQHandler:00000000000001ac $d
     /tmp/ccits0mR.s:5945   .text.SPI_DMAAbortOnError:0000000000000000 SPI_DMAAbortOnError
     /tmp/ccits0mR.s:4834   .text.HAL_SPI_TxCpltCallback:0000000000000000 $t
     /tmp/ccits0mR.s:4841   .text.HAL_SPI_TxCpltCallback:0000000000000000 HAL_SPI_TxCpltCallback
     /tmp/ccits0mR.s:4877   .text.HAL_SPI_RxCpltCallback:0000000000000000 $t
     /tmp/ccits0mR.s:4884   .text.HAL_SPI_RxCpltCallback:0000000000000000 HAL_SPI_RxCpltCallback
     /tmp/ccits0mR.s:4920   .text.HAL_SPI_TxRxCpltCallback:0000000000000000 $t
     /tmp/ccits0mR.s:4927   .text.HAL_SPI_TxRxCpltCallback:0000000000000000 HAL_SPI_TxRxCpltCallback
     /tmp/ccits0mR.s:4963   .text.HAL_SPI_TxHalfCpltCallback:0000000000000000 $t
     /tmp/ccits0mR.s:4970   .text.HAL_SPI_TxHalfCpltCallback:0000000000000000 HAL_SPI_TxHalfCpltCallback
     /tmp/ccits0mR.s:5006   .text.HAL_SPI_RxHalfCpltCallback:0000000000000000 $t
     /tmp/ccits0mR.s:5013   .text.HAL_SPI_RxHalfCpltCallback:0000000000000000 HAL_SPI_RxHalfCpltCallback
     /tmp/ccits0mR.s:5049   .text.HAL_SPI_TxRxHalfCpltCallback:0000000000000000 $t
     /tmp/ccits0mR.s:5056   .text.HAL_SPI_TxRxHalfCpltCallback:0000000000000000 HAL_SPI_TxRxHalfCpltCallback
     /tmp/ccits0mR.s:5092   .text.HAL_SPI_ErrorCallback:0000000000000000 $t
     /tmp/ccits0mR.s:5135   .text.HAL_SPI_AbortCpltCallback:0000000000000000 $t
     /tmp/ccits0mR.s:5178   .text.HAL_SPI_GetState:0000000000000000 $t
     /tmp/ccits0mR.s:5185   .text.HAL_SPI_GetState:0000000000000000 HAL_SPI_GetState
     /tmp/ccits0mR.s:5225   .text.HAL_SPI_GetError:0000000000000000 $t
     /tmp/ccits0mR.s:5232   .text.HAL_SPI_GetError:0000000000000000 HAL_SPI_GetError
     /tmp/ccits0mR.s:5271   .text.SPI_DMATransmitCplt:0000000000000000 $t
     /tmp/ccits0mR.s:5397   .text.SPI_DMAReceiveCplt:0000000000000000 $t
     /tmp/ccits0mR.s:5573   .text.SPI_DMATransmitReceiveCplt:0000000000000000 $t
     /tmp/ccits0mR.s:5741   .text.SPI_DMAHalfTransmitCplt:0000000000000000 $t
     /tmp/ccits0mR.s:5786   .text.SPI_DMAHalfReceiveCplt:0000000000000000 $t
     /tmp/ccits0mR.s:5831   .text.SPI_DMAHalfTransmitReceiveCplt:0000000000000000 $t
     /tmp/ccits0mR.s:5876   .text.SPI_DMAError:0000000000000000 $t
     /tmp/ccits0mR.s:5939   .text.SPI_DMAAbortOnError:0000000000000000 $t
     /tmp/ccits0mR.s:5992   .text.SPI_DMATxAbortCallback:0000000000000000 $t
     /tmp/ccits0mR.s:6134   .text.SPI_DMATxAbortCallback:00000000000000ac $d
     /tmp/ccits0mR.s:6140   .text.SPI_DMARxAbortCallback:0000000000000000 $t
     /tmp/ccits0mR.s:6266   .text.SPI_2linesRxISR_8BIT:0000000000000000 $t
     /tmp/ccits0mR.s:7591   .text.SPI_CloseRxTx_ISR:0000000000000000 SPI_CloseRxTx_ISR
     /tmp/ccits0mR.s:6367   .text.SPI_2linesRxISR_8BIT:0000000000000070 $d
     /tmp/ccits0mR.s:6378   .text.SPI_2linesRxISR_8BITCRC:0000000000000000 SPI_2linesRxISR_8BITCRC
     /tmp/ccits0mR.s:6372   .text.SPI_2linesRxISR_8BITCRC:0000000000000000 $t
     /tmp/ccits0mR.s:6444   .text.SPI_2linesTxISR_8BIT:0000000000000000 $t
     /tmp/ccits0mR.s:6557   .text.SPI_2linesRxISR_16BIT:0000000000000000 $t
     /tmp/ccits0mR.s:6658   .text.SPI_2linesRxISR_16BIT:0000000000000070 $d
     /tmp/ccits0mR.s:6669   .text.SPI_2linesRxISR_16BITCRC:0000000000000000 SPI_2linesRxISR_16BITCRC
     /tmp/ccits0mR.s:6663   .text.SPI_2linesRxISR_16BITCRC:0000000000000000 $t
     /tmp/ccits0mR.s:6725   .text.SPI_2linesTxISR_16BIT:0000000000000000 $t
     /tmp/ccits0mR.s:6838   .text.SPI_RxISR_8BITCRC:0000000000000000 $t
ARM GAS  /tmp/ccits0mR.s 			page 203


     /tmp/ccits0mR.s:6844   .text.SPI_RxISR_8BITCRC:0000000000000000 SPI_RxISR_8BITCRC
     /tmp/ccits0mR.s:7794   .text.SPI_CloseRx_ISR:0000000000000000 SPI_CloseRx_ISR
     /tmp/ccits0mR.s:6894   .text.SPI_RxISR_8BIT:0000000000000000 $t
     /tmp/ccits0mR.s:7002   .text.SPI_RxISR_8BIT:000000000000007c $d
     /tmp/ccits0mR.s:7007   .text.SPI_RxISR_16BITCRC:0000000000000000 $t
     /tmp/ccits0mR.s:7013   .text.SPI_RxISR_16BITCRC:0000000000000000 SPI_RxISR_16BITCRC
     /tmp/ccits0mR.s:7069   .text.SPI_RxISR_16BIT:0000000000000000 $t
     /tmp/ccits0mR.s:7177   .text.SPI_RxISR_16BIT:000000000000007c $d
     /tmp/ccits0mR.s:7182   .text.SPI_TxISR_8BIT:0000000000000000 $t
     /tmp/ccits0mR.s:7934   .text.SPI_CloseTx_ISR:0000000000000000 SPI_CloseTx_ISR
     /tmp/ccits0mR.s:7271   .text.SPI_TxISR_16BIT:0000000000000000 $t
     /tmp/ccits0mR.s:7360   .text.SPI_WaitFlagStateUntilTimeout:0000000000000000 $t
     /tmp/ccits0mR.s:7520   .text.SPI_CheckFlag_BSY:0000000000000000 $t
     /tmp/ccits0mR.s:7585   .text.SPI_CloseRxTx_ISR:0000000000000000 $t
     /tmp/ccits0mR.s:7782   .text.SPI_CloseRxTx_ISR:0000000000000114 $d
     /tmp/ccits0mR.s:7788   .text.SPI_CloseRx_ISR:0000000000000000 $t
     /tmp/ccits0mR.s:7928   .text.SPI_CloseTx_ISR:0000000000000000 $t
     /tmp/ccits0mR.s:8075   .text.SPI_CloseTx_ISR:00000000000000bc $d
     /tmp/ccits0mR.s:8081   .text.SPI_AbortRx_ISR:0000000000000000 $t
     /tmp/ccits0mR.s:8189   .text.SPI_AbortRx_ISR:000000000000007c $d
     /tmp/ccits0mR.s:8195   .text.SPI_AbortTx_ISR:0000000000000000 $t

UNDEFINED SYMBOLS
HAL_GetTick
HAL_DMA_Start_IT
HAL_DMA_Abort
SystemCoreClock
HAL_DMA_Abort_IT
