ARM GAS  /tmp/ccMhfXg8.s 			page 1


   1              		.cpu cortex-m4
   2              		.eabi_attribute 27, 1
   3              		.eabi_attribute 28, 1
   4              		.eabi_attribute 20, 1
   5              		.eabi_attribute 21, 1
   6              		.eabi_attribute 23, 3
   7              		.eabi_attribute 24, 1
   8              		.eabi_attribute 25, 1
   9              		.eabi_attribute 26, 1
  10              		.eabi_attribute 30, 6
  11              		.eabi_attribute 34, 1
  12              		.eabi_attribute 18, 4
  13              		.file	"stm32f4xx_hal_sd.c"
  14              		.text
  15              	.Ltext0:
  16              		.cfi_sections	.debug_frame
  17              		.section	.text.HAL_SD_Init,"ax",%progbits
  18              		.align	1
  19              		.global	HAL_SD_Init
  20              		.arch armv7e-m
  21              		.syntax unified
  22              		.thumb
  23              		.thumb_func
  24              		.fpu fpv4-sp-d16
  26              	HAL_SD_Init:
  27              	.LFB126:
  28              		.file 1 "./Libraries/STM32F4xx_HAL_Driver/Src/stm32f4xx_hal_sd.c"
   1:./Libraries/STM32F4xx_HAL_Driver/Src/stm32f4xx_hal_sd.c **** /**
   2:./Libraries/STM32F4xx_HAL_Driver/Src/stm32f4xx_hal_sd.c ****   ******************************************************************************
   3:./Libraries/STM32F4xx_HAL_Driver/Src/stm32f4xx_hal_sd.c ****   * @file    stm32f4xx_hal_sd.c
   4:./Libraries/STM32F4xx_HAL_Driver/Src/stm32f4xx_hal_sd.c ****   * @author  MCD Application Team
   5:./Libraries/STM32F4xx_HAL_Driver/Src/stm32f4xx_hal_sd.c ****   * @brief   SD card HAL module driver.
   6:./Libraries/STM32F4xx_HAL_Driver/Src/stm32f4xx_hal_sd.c ****   *          This file provides firmware functions to manage the following 
   7:./Libraries/STM32F4xx_HAL_Driver/Src/stm32f4xx_hal_sd.c ****   *          functionalities of the Secure Digital (SD) peripheral:
   8:./Libraries/STM32F4xx_HAL_Driver/Src/stm32f4xx_hal_sd.c ****   *           + Initialization and de-initialization functions
   9:./Libraries/STM32F4xx_HAL_Driver/Src/stm32f4xx_hal_sd.c ****   *           + IO operation functions
  10:./Libraries/STM32F4xx_HAL_Driver/Src/stm32f4xx_hal_sd.c ****   *           + Peripheral Control functions 
  11:./Libraries/STM32F4xx_HAL_Driver/Src/stm32f4xx_hal_sd.c ****   *           + SD card Control functions
  12:./Libraries/STM32F4xx_HAL_Driver/Src/stm32f4xx_hal_sd.c ****   *         
  13:./Libraries/STM32F4xx_HAL_Driver/Src/stm32f4xx_hal_sd.c ****   @verbatim
  14:./Libraries/STM32F4xx_HAL_Driver/Src/stm32f4xx_hal_sd.c ****   ==============================================================================
  15:./Libraries/STM32F4xx_HAL_Driver/Src/stm32f4xx_hal_sd.c ****                         ##### How to use this driver #####
  16:./Libraries/STM32F4xx_HAL_Driver/Src/stm32f4xx_hal_sd.c ****   ==============================================================================
  17:./Libraries/STM32F4xx_HAL_Driver/Src/stm32f4xx_hal_sd.c ****   [..]
  18:./Libraries/STM32F4xx_HAL_Driver/Src/stm32f4xx_hal_sd.c ****     This driver implements a high level communication layer for read and write from/to 
  19:./Libraries/STM32F4xx_HAL_Driver/Src/stm32f4xx_hal_sd.c ****     this memory. The needed STM32 hardware resources (SDIO and GPIO) are performed by 
  20:./Libraries/STM32F4xx_HAL_Driver/Src/stm32f4xx_hal_sd.c ****     the user in HAL_SD_MspInit() function (MSP layer).                             
  21:./Libraries/STM32F4xx_HAL_Driver/Src/stm32f4xx_hal_sd.c ****     Basically, the MSP layer configuration should be the same as we provide in the 
  22:./Libraries/STM32F4xx_HAL_Driver/Src/stm32f4xx_hal_sd.c ****     examples.
  23:./Libraries/STM32F4xx_HAL_Driver/Src/stm32f4xx_hal_sd.c ****     You can easily tailor this configuration according to hardware resources.
  24:./Libraries/STM32F4xx_HAL_Driver/Src/stm32f4xx_hal_sd.c **** 
  25:./Libraries/STM32F4xx_HAL_Driver/Src/stm32f4xx_hal_sd.c ****   [..]
  26:./Libraries/STM32F4xx_HAL_Driver/Src/stm32f4xx_hal_sd.c ****     This driver is a generic layered driver for SDIO memories which uses the HAL 
  27:./Libraries/STM32F4xx_HAL_Driver/Src/stm32f4xx_hal_sd.c ****     SDIO driver functions to interface with SD and uSD cards devices. 
  28:./Libraries/STM32F4xx_HAL_Driver/Src/stm32f4xx_hal_sd.c ****     It is used as follows:
  29:./Libraries/STM32F4xx_HAL_Driver/Src/stm32f4xx_hal_sd.c ****  
  30:./Libraries/STM32F4xx_HAL_Driver/Src/stm32f4xx_hal_sd.c ****     (#)Initialize the SDIO low level resources by implement the HAL_SD_MspInit() API:
ARM GAS  /tmp/ccMhfXg8.s 			page 2


  31:./Libraries/STM32F4xx_HAL_Driver/Src/stm32f4xx_hal_sd.c ****         (##) Enable the SDIO interface clock using __HAL_RCC_SDIO_CLK_ENABLE(); 
  32:./Libraries/STM32F4xx_HAL_Driver/Src/stm32f4xx_hal_sd.c ****         (##) SDIO pins configuration for SD card
  33:./Libraries/STM32F4xx_HAL_Driver/Src/stm32f4xx_hal_sd.c ****             (+++) Enable the clock for the SDIO GPIOs using the functions __HAL_RCC_GPIOx_CLK_ENABL
  34:./Libraries/STM32F4xx_HAL_Driver/Src/stm32f4xx_hal_sd.c ****             (+++) Configure these SDIO pins as alternate function pull-up using HAL_GPIO_Init()
  35:./Libraries/STM32F4xx_HAL_Driver/Src/stm32f4xx_hal_sd.c ****                   and according to your pin assignment;
  36:./Libraries/STM32F4xx_HAL_Driver/Src/stm32f4xx_hal_sd.c ****         (##) DMA Configuration if you need to use DMA process (HAL_SD_ReadBlocks_DMA()
  37:./Libraries/STM32F4xx_HAL_Driver/Src/stm32f4xx_hal_sd.c ****              and HAL_SD_WriteBlocks_DMA() APIs).
  38:./Libraries/STM32F4xx_HAL_Driver/Src/stm32f4xx_hal_sd.c ****             (+++) Enable the DMAx interface clock using __HAL_RCC_DMAx_CLK_ENABLE(); 
  39:./Libraries/STM32F4xx_HAL_Driver/Src/stm32f4xx_hal_sd.c ****             (+++) Configure the DMA using the function HAL_DMA_Init() with predeclared and filled. 
  40:./Libraries/STM32F4xx_HAL_Driver/Src/stm32f4xx_hal_sd.c ****         (##) NVIC configuration if you need to use interrupt process when using DMA transfer.
  41:./Libraries/STM32F4xx_HAL_Driver/Src/stm32f4xx_hal_sd.c ****             (+++) Configure the SDIO and DMA interrupt priorities using functions
  42:./Libraries/STM32F4xx_HAL_Driver/Src/stm32f4xx_hal_sd.c ****                   HAL_NVIC_SetPriority(); DMA priority is superior to SDIO's priority
  43:./Libraries/STM32F4xx_HAL_Driver/Src/stm32f4xx_hal_sd.c ****             (+++) Enable the NVIC DMA and SDIO IRQs using function HAL_NVIC_EnableIRQ()
  44:./Libraries/STM32F4xx_HAL_Driver/Src/stm32f4xx_hal_sd.c ****             (+++) SDIO interrupts are managed using the macros __HAL_SD_ENABLE_IT() 
  45:./Libraries/STM32F4xx_HAL_Driver/Src/stm32f4xx_hal_sd.c ****                   and __HAL_SD_DISABLE_IT() inside the communication process.
  46:./Libraries/STM32F4xx_HAL_Driver/Src/stm32f4xx_hal_sd.c ****             (+++) SDIO interrupts pending bits are managed using the macros __HAL_SD_GET_IT()
  47:./Libraries/STM32F4xx_HAL_Driver/Src/stm32f4xx_hal_sd.c ****                   and __HAL_SD_CLEAR_IT()
  48:./Libraries/STM32F4xx_HAL_Driver/Src/stm32f4xx_hal_sd.c ****         (##) NVIC configuration if you need to use interrupt process (HAL_SD_ReadBlocks_IT()
  49:./Libraries/STM32F4xx_HAL_Driver/Src/stm32f4xx_hal_sd.c ****              and HAL_SD_WriteBlocks_IT() APIs).
  50:./Libraries/STM32F4xx_HAL_Driver/Src/stm32f4xx_hal_sd.c ****             (+++) Configure the SDIO interrupt priorities using function
  51:./Libraries/STM32F4xx_HAL_Driver/Src/stm32f4xx_hal_sd.c ****                   HAL_NVIC_SetPriority();
  52:./Libraries/STM32F4xx_HAL_Driver/Src/stm32f4xx_hal_sd.c ****             (+++) Enable the NVIC SDIO IRQs using function HAL_NVIC_EnableIRQ()
  53:./Libraries/STM32F4xx_HAL_Driver/Src/stm32f4xx_hal_sd.c ****             (+++) SDIO interrupts are managed using the macros __HAL_SD_ENABLE_IT() 
  54:./Libraries/STM32F4xx_HAL_Driver/Src/stm32f4xx_hal_sd.c ****                   and __HAL_SD_DISABLE_IT() inside the communication process.
  55:./Libraries/STM32F4xx_HAL_Driver/Src/stm32f4xx_hal_sd.c ****             (+++) SDIO interrupts pending bits are managed using the macros __HAL_SD_GET_IT()
  56:./Libraries/STM32F4xx_HAL_Driver/Src/stm32f4xx_hal_sd.c ****                   and __HAL_SD_CLEAR_IT()
  57:./Libraries/STM32F4xx_HAL_Driver/Src/stm32f4xx_hal_sd.c ****     (#) At this stage, you can perform SD read/write/erase operations after SD card initialization 
  58:./Libraries/STM32F4xx_HAL_Driver/Src/stm32f4xx_hal_sd.c **** 
  59:./Libraries/STM32F4xx_HAL_Driver/Src/stm32f4xx_hal_sd.c ****          
  60:./Libraries/STM32F4xx_HAL_Driver/Src/stm32f4xx_hal_sd.c ****   *** SD Card Initialization and configuration ***
  61:./Libraries/STM32F4xx_HAL_Driver/Src/stm32f4xx_hal_sd.c ****   ================================================    
  62:./Libraries/STM32F4xx_HAL_Driver/Src/stm32f4xx_hal_sd.c ****   [..]
  63:./Libraries/STM32F4xx_HAL_Driver/Src/stm32f4xx_hal_sd.c ****     To initialize the SD Card, use the HAL_SD_Init() function. It Initializes 
  64:./Libraries/STM32F4xx_HAL_Driver/Src/stm32f4xx_hal_sd.c ****     SDIO IP(STM32 side) and the SD Card, and put it into StandBy State (Ready for data transfer). 
  65:./Libraries/STM32F4xx_HAL_Driver/Src/stm32f4xx_hal_sd.c ****     This function provide the following operations:
  66:./Libraries/STM32F4xx_HAL_Driver/Src/stm32f4xx_hal_sd.c **** 
  67:./Libraries/STM32F4xx_HAL_Driver/Src/stm32f4xx_hal_sd.c ****     (#) Initialize the SDIO peripheral interface with defaullt configuration.
  68:./Libraries/STM32F4xx_HAL_Driver/Src/stm32f4xx_hal_sd.c ****         The initialization process is done at 400KHz. You can change or adapt 
  69:./Libraries/STM32F4xx_HAL_Driver/Src/stm32f4xx_hal_sd.c ****         this frequency by adjusting the "ClockDiv" field. 
  70:./Libraries/STM32F4xx_HAL_Driver/Src/stm32f4xx_hal_sd.c ****         The SD Card frequency (SDIO_CK) is computed as follows:
  71:./Libraries/STM32F4xx_HAL_Driver/Src/stm32f4xx_hal_sd.c ****   
  72:./Libraries/STM32F4xx_HAL_Driver/Src/stm32f4xx_hal_sd.c ****            SDIO_CK = SDIOCLK / (ClockDiv + 2)
  73:./Libraries/STM32F4xx_HAL_Driver/Src/stm32f4xx_hal_sd.c ****   
  74:./Libraries/STM32F4xx_HAL_Driver/Src/stm32f4xx_hal_sd.c ****         In initialization mode and according to the SD Card standard, 
  75:./Libraries/STM32F4xx_HAL_Driver/Src/stm32f4xx_hal_sd.c ****         make sure that the SDIO_CK frequency doesn't exceed 400KHz.
  76:./Libraries/STM32F4xx_HAL_Driver/Src/stm32f4xx_hal_sd.c **** 
  77:./Libraries/STM32F4xx_HAL_Driver/Src/stm32f4xx_hal_sd.c ****         This phase of initialization is done through SDIO_Init() and 
  78:./Libraries/STM32F4xx_HAL_Driver/Src/stm32f4xx_hal_sd.c ****         SDIO_PowerState_ON() SDIO low level APIs.
  79:./Libraries/STM32F4xx_HAL_Driver/Src/stm32f4xx_hal_sd.c **** 
  80:./Libraries/STM32F4xx_HAL_Driver/Src/stm32f4xx_hal_sd.c ****     (#) Initialize the SD card. The API used is HAL_SD_InitCard().
  81:./Libraries/STM32F4xx_HAL_Driver/Src/stm32f4xx_hal_sd.c ****         This phase allows the card initialization and identification 
  82:./Libraries/STM32F4xx_HAL_Driver/Src/stm32f4xx_hal_sd.c ****         and check the SD Card type (Standard Capacity or High Capacity)
  83:./Libraries/STM32F4xx_HAL_Driver/Src/stm32f4xx_hal_sd.c ****         The initialization flow is compatible with SD standard.
  84:./Libraries/STM32F4xx_HAL_Driver/Src/stm32f4xx_hal_sd.c **** 
  85:./Libraries/STM32F4xx_HAL_Driver/Src/stm32f4xx_hal_sd.c ****         This API (HAL_SD_InitCard()) could be used also to reinitialize the card in case 
  86:./Libraries/STM32F4xx_HAL_Driver/Src/stm32f4xx_hal_sd.c ****         of plug-off plug-in.
  87:./Libraries/STM32F4xx_HAL_Driver/Src/stm32f4xx_hal_sd.c ****   
ARM GAS  /tmp/ccMhfXg8.s 			page 3


  88:./Libraries/STM32F4xx_HAL_Driver/Src/stm32f4xx_hal_sd.c ****     (#) Configure the SD Card Data transfer frequency. By Default, the card transfer 
  89:./Libraries/STM32F4xx_HAL_Driver/Src/stm32f4xx_hal_sd.c ****         frequency is set to 24MHz. You can change or adapt this frequency by adjusting 
  90:./Libraries/STM32F4xx_HAL_Driver/Src/stm32f4xx_hal_sd.c ****         the "ClockDiv" field.
  91:./Libraries/STM32F4xx_HAL_Driver/Src/stm32f4xx_hal_sd.c ****         In transfer mode and according to the SD Card standard, make sure that the 
  92:./Libraries/STM32F4xx_HAL_Driver/Src/stm32f4xx_hal_sd.c ****         SDIO_CK frequency doesn't exceed 25MHz and 50MHz in High-speed mode switch.
  93:./Libraries/STM32F4xx_HAL_Driver/Src/stm32f4xx_hal_sd.c ****         To be able to use a frequency higher than 24MHz, you should use the SDIO 
  94:./Libraries/STM32F4xx_HAL_Driver/Src/stm32f4xx_hal_sd.c ****         peripheral in bypass mode. Refer to the corresponding reference manual 
  95:./Libraries/STM32F4xx_HAL_Driver/Src/stm32f4xx_hal_sd.c ****         for more details.
  96:./Libraries/STM32F4xx_HAL_Driver/Src/stm32f4xx_hal_sd.c ****   
  97:./Libraries/STM32F4xx_HAL_Driver/Src/stm32f4xx_hal_sd.c ****     (#) Select the corresponding SD Card according to the address read with the step 2.
  98:./Libraries/STM32F4xx_HAL_Driver/Src/stm32f4xx_hal_sd.c ****     
  99:./Libraries/STM32F4xx_HAL_Driver/Src/stm32f4xx_hal_sd.c ****     (#) Configure the SD Card in wide bus mode: 4-bits data.
 100:./Libraries/STM32F4xx_HAL_Driver/Src/stm32f4xx_hal_sd.c ****   
 101:./Libraries/STM32F4xx_HAL_Driver/Src/stm32f4xx_hal_sd.c ****   *** SD Card Read operation ***
 102:./Libraries/STM32F4xx_HAL_Driver/Src/stm32f4xx_hal_sd.c ****   ==============================
 103:./Libraries/STM32F4xx_HAL_Driver/Src/stm32f4xx_hal_sd.c ****   [..] 
 104:./Libraries/STM32F4xx_HAL_Driver/Src/stm32f4xx_hal_sd.c ****     (+) You can read from SD card in polling mode by using function HAL_SD_ReadBlocks(). 
 105:./Libraries/STM32F4xx_HAL_Driver/Src/stm32f4xx_hal_sd.c ****         This function allows the read of 512 bytes blocks.
 106:./Libraries/STM32F4xx_HAL_Driver/Src/stm32f4xx_hal_sd.c ****         You can choose either one block read operation or multiple block read operation 
 107:./Libraries/STM32F4xx_HAL_Driver/Src/stm32f4xx_hal_sd.c ****         by adjusting the "NumberOfBlocks" parameter.
 108:./Libraries/STM32F4xx_HAL_Driver/Src/stm32f4xx_hal_sd.c ****         After this, you have to ensure that the transfer is done correctly. The check is done
 109:./Libraries/STM32F4xx_HAL_Driver/Src/stm32f4xx_hal_sd.c ****         through HAL_SD_GetCardState() function for SD card state.
 110:./Libraries/STM32F4xx_HAL_Driver/Src/stm32f4xx_hal_sd.c **** 
 111:./Libraries/STM32F4xx_HAL_Driver/Src/stm32f4xx_hal_sd.c ****     (+) You can read from SD card in DMA mode by using function HAL_SD_ReadBlocks_DMA().
 112:./Libraries/STM32F4xx_HAL_Driver/Src/stm32f4xx_hal_sd.c ****         This function allows the read of 512 bytes blocks.
 113:./Libraries/STM32F4xx_HAL_Driver/Src/stm32f4xx_hal_sd.c ****         You can choose either one block read operation or multiple block read operation 
 114:./Libraries/STM32F4xx_HAL_Driver/Src/stm32f4xx_hal_sd.c ****         by adjusting the "NumberOfBlocks" parameter.
 115:./Libraries/STM32F4xx_HAL_Driver/Src/stm32f4xx_hal_sd.c ****         After this, you have to ensure that the transfer is done correctly. The check is done
 116:./Libraries/STM32F4xx_HAL_Driver/Src/stm32f4xx_hal_sd.c ****         through HAL_SD_GetCardState() function for SD card state.
 117:./Libraries/STM32F4xx_HAL_Driver/Src/stm32f4xx_hal_sd.c ****         You could also check the DMA transfer process through the SD Rx interrupt event.
 118:./Libraries/STM32F4xx_HAL_Driver/Src/stm32f4xx_hal_sd.c **** 
 119:./Libraries/STM32F4xx_HAL_Driver/Src/stm32f4xx_hal_sd.c ****     (+) You can read from SD card in Interrupt mode by using function HAL_SD_ReadBlocks_IT().
 120:./Libraries/STM32F4xx_HAL_Driver/Src/stm32f4xx_hal_sd.c ****         This function allows the read of 512 bytes blocks.
 121:./Libraries/STM32F4xx_HAL_Driver/Src/stm32f4xx_hal_sd.c ****         You can choose either one block read operation or multiple block read operation 
 122:./Libraries/STM32F4xx_HAL_Driver/Src/stm32f4xx_hal_sd.c ****         by adjusting the "NumberOfBlocks" parameter.
 123:./Libraries/STM32F4xx_HAL_Driver/Src/stm32f4xx_hal_sd.c ****         After this, you have to ensure that the transfer is done correctly. The check is done
 124:./Libraries/STM32F4xx_HAL_Driver/Src/stm32f4xx_hal_sd.c ****         through HAL_SD_GetCardState() function for SD card state.
 125:./Libraries/STM32F4xx_HAL_Driver/Src/stm32f4xx_hal_sd.c ****         You could also check the IT transfer process through the SD Rx interrupt event.
 126:./Libraries/STM32F4xx_HAL_Driver/Src/stm32f4xx_hal_sd.c ****   
 127:./Libraries/STM32F4xx_HAL_Driver/Src/stm32f4xx_hal_sd.c ****   *** SD Card Write operation ***
 128:./Libraries/STM32F4xx_HAL_Driver/Src/stm32f4xx_hal_sd.c ****   =============================== 
 129:./Libraries/STM32F4xx_HAL_Driver/Src/stm32f4xx_hal_sd.c ****   [..] 
 130:./Libraries/STM32F4xx_HAL_Driver/Src/stm32f4xx_hal_sd.c ****     (+) You can write to SD card in polling mode by using function HAL_SD_WriteBlocks(). 
 131:./Libraries/STM32F4xx_HAL_Driver/Src/stm32f4xx_hal_sd.c ****         This function allows the read of 512 bytes blocks.
 132:./Libraries/STM32F4xx_HAL_Driver/Src/stm32f4xx_hal_sd.c ****         You can choose either one block read operation or multiple block read operation 
 133:./Libraries/STM32F4xx_HAL_Driver/Src/stm32f4xx_hal_sd.c ****         by adjusting the "NumberOfBlocks" parameter.
 134:./Libraries/STM32F4xx_HAL_Driver/Src/stm32f4xx_hal_sd.c ****         After this, you have to ensure that the transfer is done correctly. The check is done
 135:./Libraries/STM32F4xx_HAL_Driver/Src/stm32f4xx_hal_sd.c ****         through HAL_SD_GetCardState() function for SD card state.
 136:./Libraries/STM32F4xx_HAL_Driver/Src/stm32f4xx_hal_sd.c **** 
 137:./Libraries/STM32F4xx_HAL_Driver/Src/stm32f4xx_hal_sd.c ****     (+) You can write to SD card in DMA mode by using function HAL_SD_WriteBlocks_DMA().
 138:./Libraries/STM32F4xx_HAL_Driver/Src/stm32f4xx_hal_sd.c ****         This function allows the read of 512 bytes blocks.
 139:./Libraries/STM32F4xx_HAL_Driver/Src/stm32f4xx_hal_sd.c ****         You can choose either one block read operation or multiple block read operation 
 140:./Libraries/STM32F4xx_HAL_Driver/Src/stm32f4xx_hal_sd.c ****         by adjusting the "NumberOfBlocks" parameter.
 141:./Libraries/STM32F4xx_HAL_Driver/Src/stm32f4xx_hal_sd.c ****         After this, you have to ensure that the transfer is done correctly. The check is done
 142:./Libraries/STM32F4xx_HAL_Driver/Src/stm32f4xx_hal_sd.c ****         through HAL_SD_GetCardState() function for SD card state.
 143:./Libraries/STM32F4xx_HAL_Driver/Src/stm32f4xx_hal_sd.c ****         You could also check the DMA transfer process through the SD Tx interrupt event.  
 144:./Libraries/STM32F4xx_HAL_Driver/Src/stm32f4xx_hal_sd.c **** 
ARM GAS  /tmp/ccMhfXg8.s 			page 4


 145:./Libraries/STM32F4xx_HAL_Driver/Src/stm32f4xx_hal_sd.c ****     (+) You can write to SD card in Interrupt mode by using function HAL_SD_WriteBlocks_IT().
 146:./Libraries/STM32F4xx_HAL_Driver/Src/stm32f4xx_hal_sd.c ****         This function allows the read of 512 bytes blocks.
 147:./Libraries/STM32F4xx_HAL_Driver/Src/stm32f4xx_hal_sd.c ****         You can choose either one block read operation or multiple block read operation 
 148:./Libraries/STM32F4xx_HAL_Driver/Src/stm32f4xx_hal_sd.c ****         by adjusting the "NumberOfBlocks" parameter.
 149:./Libraries/STM32F4xx_HAL_Driver/Src/stm32f4xx_hal_sd.c ****         After this, you have to ensure that the transfer is done correctly. The check is done
 150:./Libraries/STM32F4xx_HAL_Driver/Src/stm32f4xx_hal_sd.c ****         through HAL_SD_GetCardState() function for SD card state.
 151:./Libraries/STM32F4xx_HAL_Driver/Src/stm32f4xx_hal_sd.c ****         You could also check the IT transfer process through the SD Tx interrupt event.
 152:./Libraries/STM32F4xx_HAL_Driver/Src/stm32f4xx_hal_sd.c ****   
 153:./Libraries/STM32F4xx_HAL_Driver/Src/stm32f4xx_hal_sd.c ****   *** SD card status ***
 154:./Libraries/STM32F4xx_HAL_Driver/Src/stm32f4xx_hal_sd.c ****   ====================== 
 155:./Libraries/STM32F4xx_HAL_Driver/Src/stm32f4xx_hal_sd.c ****   [..]
 156:./Libraries/STM32F4xx_HAL_Driver/Src/stm32f4xx_hal_sd.c ****     (+) The SD Status contains status bits that are related to the SD Memory 
 157:./Libraries/STM32F4xx_HAL_Driver/Src/stm32f4xx_hal_sd.c ****         Card proprietary features. To get SD card status use the HAL_SD_GetCardStatus().
 158:./Libraries/STM32F4xx_HAL_Driver/Src/stm32f4xx_hal_sd.c **** 
 159:./Libraries/STM32F4xx_HAL_Driver/Src/stm32f4xx_hal_sd.c ****   *** SD card information ***
 160:./Libraries/STM32F4xx_HAL_Driver/Src/stm32f4xx_hal_sd.c ****   =========================== 
 161:./Libraries/STM32F4xx_HAL_Driver/Src/stm32f4xx_hal_sd.c ****   [..]
 162:./Libraries/STM32F4xx_HAL_Driver/Src/stm32f4xx_hal_sd.c ****     (+) To get SD card information, you can use the function HAL_SD_GetCardInfo().
 163:./Libraries/STM32F4xx_HAL_Driver/Src/stm32f4xx_hal_sd.c ****         It returns useful information about the SD card such as block size, card type,
 164:./Libraries/STM32F4xx_HAL_Driver/Src/stm32f4xx_hal_sd.c ****         block number ...
 165:./Libraries/STM32F4xx_HAL_Driver/Src/stm32f4xx_hal_sd.c **** 
 166:./Libraries/STM32F4xx_HAL_Driver/Src/stm32f4xx_hal_sd.c ****   *** SD card CSD register ***
 167:./Libraries/STM32F4xx_HAL_Driver/Src/stm32f4xx_hal_sd.c ****   ============================
 168:./Libraries/STM32F4xx_HAL_Driver/Src/stm32f4xx_hal_sd.c ****   [..]
 169:./Libraries/STM32F4xx_HAL_Driver/Src/stm32f4xx_hal_sd.c ****     (+) The HAL_SD_GetCardCSD() API allows to get the parameters of the CSD register.
 170:./Libraries/STM32F4xx_HAL_Driver/Src/stm32f4xx_hal_sd.c ****         Some of the CSD parameters are useful for card initialization and identification.
 171:./Libraries/STM32F4xx_HAL_Driver/Src/stm32f4xx_hal_sd.c **** 
 172:./Libraries/STM32F4xx_HAL_Driver/Src/stm32f4xx_hal_sd.c ****   *** SD card CID register ***
 173:./Libraries/STM32F4xx_HAL_Driver/Src/stm32f4xx_hal_sd.c ****   ============================
 174:./Libraries/STM32F4xx_HAL_Driver/Src/stm32f4xx_hal_sd.c ****   [..]
 175:./Libraries/STM32F4xx_HAL_Driver/Src/stm32f4xx_hal_sd.c ****     (+) The HAL_SD_GetCardCID() API allows to get the parameters of the CID register.
 176:./Libraries/STM32F4xx_HAL_Driver/Src/stm32f4xx_hal_sd.c ****         Some of the CSD parameters are useful for card initialization and identification.
 177:./Libraries/STM32F4xx_HAL_Driver/Src/stm32f4xx_hal_sd.c **** 
 178:./Libraries/STM32F4xx_HAL_Driver/Src/stm32f4xx_hal_sd.c ****   *** SD HAL driver macros list ***
 179:./Libraries/STM32F4xx_HAL_Driver/Src/stm32f4xx_hal_sd.c ****   ==================================
 180:./Libraries/STM32F4xx_HAL_Driver/Src/stm32f4xx_hal_sd.c ****   [..]
 181:./Libraries/STM32F4xx_HAL_Driver/Src/stm32f4xx_hal_sd.c ****     Below the list of most used macros in SD HAL driver.
 182:./Libraries/STM32F4xx_HAL_Driver/Src/stm32f4xx_hal_sd.c ****        
 183:./Libraries/STM32F4xx_HAL_Driver/Src/stm32f4xx_hal_sd.c ****     (+) __HAL_SD_ENABLE : Enable the SD device
 184:./Libraries/STM32F4xx_HAL_Driver/Src/stm32f4xx_hal_sd.c ****     (+) __HAL_SD_DISABLE : Disable the SD device
 185:./Libraries/STM32F4xx_HAL_Driver/Src/stm32f4xx_hal_sd.c ****     (+) __HAL_SD_DMA_ENABLE: Enable the SDIO DMA transfer
 186:./Libraries/STM32F4xx_HAL_Driver/Src/stm32f4xx_hal_sd.c ****     (+) __HAL_SD_DMA_DISABLE: Disable the SDIO DMA transfer
 187:./Libraries/STM32F4xx_HAL_Driver/Src/stm32f4xx_hal_sd.c ****     (+) __HAL_SD_ENABLE_IT: Enable the SD device interrupt
 188:./Libraries/STM32F4xx_HAL_Driver/Src/stm32f4xx_hal_sd.c ****     (+) __HAL_SD_DISABLE_IT: Disable the SD device interrupt
 189:./Libraries/STM32F4xx_HAL_Driver/Src/stm32f4xx_hal_sd.c ****     (+) __HAL_SD_GET_FLAG:Check whether the specified SD flag is set or not
 190:./Libraries/STM32F4xx_HAL_Driver/Src/stm32f4xx_hal_sd.c ****     (+) __HAL_SD_CLEAR_FLAG: Clear the SD's pending flags
 191:./Libraries/STM32F4xx_HAL_Driver/Src/stm32f4xx_hal_sd.c **** 
 192:./Libraries/STM32F4xx_HAL_Driver/Src/stm32f4xx_hal_sd.c ****    [..]
 193:./Libraries/STM32F4xx_HAL_Driver/Src/stm32f4xx_hal_sd.c ****     (@) You can refer to the SD HAL driver header file for more useful macros 
 194:./Libraries/STM32F4xx_HAL_Driver/Src/stm32f4xx_hal_sd.c ****       
 195:./Libraries/STM32F4xx_HAL_Driver/Src/stm32f4xx_hal_sd.c ****   @endverbatim
 196:./Libraries/STM32F4xx_HAL_Driver/Src/stm32f4xx_hal_sd.c ****   ******************************************************************************
 197:./Libraries/STM32F4xx_HAL_Driver/Src/stm32f4xx_hal_sd.c ****   * @attention
 198:./Libraries/STM32F4xx_HAL_Driver/Src/stm32f4xx_hal_sd.c ****   *
 199:./Libraries/STM32F4xx_HAL_Driver/Src/stm32f4xx_hal_sd.c ****   * <h2><center>&copy; COPYRIGHT(c) 2017 STMicroelectronics</center></h2>
 200:./Libraries/STM32F4xx_HAL_Driver/Src/stm32f4xx_hal_sd.c ****   *
 201:./Libraries/STM32F4xx_HAL_Driver/Src/stm32f4xx_hal_sd.c ****   * Redistribution and use in source and binary forms, with or without modification,
ARM GAS  /tmp/ccMhfXg8.s 			page 5


 202:./Libraries/STM32F4xx_HAL_Driver/Src/stm32f4xx_hal_sd.c ****   * are permitted provided that the following conditions are met:
 203:./Libraries/STM32F4xx_HAL_Driver/Src/stm32f4xx_hal_sd.c ****   *   1. Redistributions of source code must retain the above copyright notice,
 204:./Libraries/STM32F4xx_HAL_Driver/Src/stm32f4xx_hal_sd.c ****   *      this list of conditions and the following disclaimer.
 205:./Libraries/STM32F4xx_HAL_Driver/Src/stm32f4xx_hal_sd.c ****   *   2. Redistributions in binary form must reproduce the above copyright notice,
 206:./Libraries/STM32F4xx_HAL_Driver/Src/stm32f4xx_hal_sd.c ****   *      this list of conditions and the following disclaimer in the documentation
 207:./Libraries/STM32F4xx_HAL_Driver/Src/stm32f4xx_hal_sd.c ****   *      and/or other materials provided with the distribution.
 208:./Libraries/STM32F4xx_HAL_Driver/Src/stm32f4xx_hal_sd.c ****   *   3. Neither the name of STMicroelectronics nor the names of its contributors
 209:./Libraries/STM32F4xx_HAL_Driver/Src/stm32f4xx_hal_sd.c ****   *      may be used to endorse or promote products derived from this software
 210:./Libraries/STM32F4xx_HAL_Driver/Src/stm32f4xx_hal_sd.c ****   *      without specific prior written permission.
 211:./Libraries/STM32F4xx_HAL_Driver/Src/stm32f4xx_hal_sd.c ****   *
 212:./Libraries/STM32F4xx_HAL_Driver/Src/stm32f4xx_hal_sd.c ****   * THIS SOFTWARE IS PROVIDED BY THE COPYRIGHT HOLDERS AND CONTRIBUTORS "AS IS"
 213:./Libraries/STM32F4xx_HAL_Driver/Src/stm32f4xx_hal_sd.c ****   * AND ANY EXPRESS OR IMPLIED WARRANTIES, INCLUDING, BUT NOT LIMITED TO, THE
 214:./Libraries/STM32F4xx_HAL_Driver/Src/stm32f4xx_hal_sd.c ****   * IMPLIED WARRANTIES OF MERCHANTABILITY AND FITNESS FOR A PARTICULAR PURPOSE ARE
 215:./Libraries/STM32F4xx_HAL_Driver/Src/stm32f4xx_hal_sd.c ****   * DISCLAIMED. IN NO EVENT SHALL THE COPYRIGHT HOLDER OR CONTRIBUTORS BE LIABLE
 216:./Libraries/STM32F4xx_HAL_Driver/Src/stm32f4xx_hal_sd.c ****   * FOR ANY DIRECT, INDIRECT, INCIDENTAL, SPECIAL, EXEMPLARY, OR CONSEQUENTIAL
 217:./Libraries/STM32F4xx_HAL_Driver/Src/stm32f4xx_hal_sd.c ****   * DAMAGES (INCLUDING, BUT NOT LIMITED TO, PROCUREMENT OF SUBSTITUTE GOODS OR
 218:./Libraries/STM32F4xx_HAL_Driver/Src/stm32f4xx_hal_sd.c ****   * SERVICES; LOSS OF USE, DATA, OR PROFITS; OR BUSINESS INTERRUPTION) HOWEVER
 219:./Libraries/STM32F4xx_HAL_Driver/Src/stm32f4xx_hal_sd.c ****   * CAUSED AND ON ANY THEORY OF LIABILITY, WHETHER IN CONTRACT, STRICT LIABILITY,
 220:./Libraries/STM32F4xx_HAL_Driver/Src/stm32f4xx_hal_sd.c ****   * OR TORT (INCLUDING NEGLIGENCE OR OTHERWISE) ARISING IN ANY WAY OUT OF THE USE
 221:./Libraries/STM32F4xx_HAL_Driver/Src/stm32f4xx_hal_sd.c ****   * OF THIS SOFTWARE, EVEN IF ADVISED OF THE POSSIBILITY OF SUCH DAMAGE.
 222:./Libraries/STM32F4xx_HAL_Driver/Src/stm32f4xx_hal_sd.c ****   *
 223:./Libraries/STM32F4xx_HAL_Driver/Src/stm32f4xx_hal_sd.c ****   ******************************************************************************
 224:./Libraries/STM32F4xx_HAL_Driver/Src/stm32f4xx_hal_sd.c ****   */ 
 225:./Libraries/STM32F4xx_HAL_Driver/Src/stm32f4xx_hal_sd.c **** 
 226:./Libraries/STM32F4xx_HAL_Driver/Src/stm32f4xx_hal_sd.c **** /* Includes ------------------------------------------------------------------*/
 227:./Libraries/STM32F4xx_HAL_Driver/Src/stm32f4xx_hal_sd.c **** #include "stm32f4xx_hal.h"
 228:./Libraries/STM32F4xx_HAL_Driver/Src/stm32f4xx_hal_sd.c **** 
 229:./Libraries/STM32F4xx_HAL_Driver/Src/stm32f4xx_hal_sd.c **** /** @addtogroup STM32F4xx_HAL_Driver
 230:./Libraries/STM32F4xx_HAL_Driver/Src/stm32f4xx_hal_sd.c ****   * @{
 231:./Libraries/STM32F4xx_HAL_Driver/Src/stm32f4xx_hal_sd.c ****   */
 232:./Libraries/STM32F4xx_HAL_Driver/Src/stm32f4xx_hal_sd.c **** 
 233:./Libraries/STM32F4xx_HAL_Driver/Src/stm32f4xx_hal_sd.c **** /** @addtogroup SD 
 234:./Libraries/STM32F4xx_HAL_Driver/Src/stm32f4xx_hal_sd.c ****   * @{
 235:./Libraries/STM32F4xx_HAL_Driver/Src/stm32f4xx_hal_sd.c ****   */
 236:./Libraries/STM32F4xx_HAL_Driver/Src/stm32f4xx_hal_sd.c **** 
 237:./Libraries/STM32F4xx_HAL_Driver/Src/stm32f4xx_hal_sd.c **** #ifdef HAL_SD_MODULE_ENABLED
 238:./Libraries/STM32F4xx_HAL_Driver/Src/stm32f4xx_hal_sd.c **** 
 239:./Libraries/STM32F4xx_HAL_Driver/Src/stm32f4xx_hal_sd.c **** #if defined(STM32F405xx) || defined(STM32F415xx) || defined(STM32F407xx) || defined(STM32F417xx) ||
 240:./Libraries/STM32F4xx_HAL_Driver/Src/stm32f4xx_hal_sd.c ****     defined(STM32F427xx) || defined(STM32F437xx) || defined(STM32F429xx) || defined(STM32F439xx) ||
 241:./Libraries/STM32F4xx_HAL_Driver/Src/stm32f4xx_hal_sd.c ****     defined(STM32F401xC) || defined(STM32F401xE) || defined(STM32F411xE) || defined(STM32F446xx) ||
 242:./Libraries/STM32F4xx_HAL_Driver/Src/stm32f4xx_hal_sd.c ****     defined(STM32F469xx) || defined(STM32F479xx) || defined(STM32F412Zx) || defined(STM32F412Vx) ||
 243:./Libraries/STM32F4xx_HAL_Driver/Src/stm32f4xx_hal_sd.c ****     defined(STM32F412Rx) || defined(STM32F412Cx) || defined(STM32F413xx) || defined(STM32F423xx)
 244:./Libraries/STM32F4xx_HAL_Driver/Src/stm32f4xx_hal_sd.c **** 
 245:./Libraries/STM32F4xx_HAL_Driver/Src/stm32f4xx_hal_sd.c **** /* Private typedef -----------------------------------------------------------*/
 246:./Libraries/STM32F4xx_HAL_Driver/Src/stm32f4xx_hal_sd.c **** /* Private define ------------------------------------------------------------*/
 247:./Libraries/STM32F4xx_HAL_Driver/Src/stm32f4xx_hal_sd.c **** /** @addtogroup SD_Private_Defines
 248:./Libraries/STM32F4xx_HAL_Driver/Src/stm32f4xx_hal_sd.c ****   * @{
 249:./Libraries/STM32F4xx_HAL_Driver/Src/stm32f4xx_hal_sd.c ****   */
 250:./Libraries/STM32F4xx_HAL_Driver/Src/stm32f4xx_hal_sd.c ****     
 251:./Libraries/STM32F4xx_HAL_Driver/Src/stm32f4xx_hal_sd.c **** /**
 252:./Libraries/STM32F4xx_HAL_Driver/Src/stm32f4xx_hal_sd.c ****   * @}
 253:./Libraries/STM32F4xx_HAL_Driver/Src/stm32f4xx_hal_sd.c ****   */
 254:./Libraries/STM32F4xx_HAL_Driver/Src/stm32f4xx_hal_sd.c ****   
 255:./Libraries/STM32F4xx_HAL_Driver/Src/stm32f4xx_hal_sd.c **** /* Private macro -------------------------------------------------------------*/
 256:./Libraries/STM32F4xx_HAL_Driver/Src/stm32f4xx_hal_sd.c **** /* Private variables ---------------------------------------------------------*/
 257:./Libraries/STM32F4xx_HAL_Driver/Src/stm32f4xx_hal_sd.c **** /* Private function prototypes -----------------------------------------------*/
 258:./Libraries/STM32F4xx_HAL_Driver/Src/stm32f4xx_hal_sd.c **** /* Private functions ---------------------------------------------------------*/
ARM GAS  /tmp/ccMhfXg8.s 			page 6


 259:./Libraries/STM32F4xx_HAL_Driver/Src/stm32f4xx_hal_sd.c **** /** @defgroup SD_Private_Functions SD Private Functions
 260:./Libraries/STM32F4xx_HAL_Driver/Src/stm32f4xx_hal_sd.c ****   * @{
 261:./Libraries/STM32F4xx_HAL_Driver/Src/stm32f4xx_hal_sd.c ****   */
 262:./Libraries/STM32F4xx_HAL_Driver/Src/stm32f4xx_hal_sd.c **** static uint32_t SD_InitCard(SD_HandleTypeDef *hsd);
 263:./Libraries/STM32F4xx_HAL_Driver/Src/stm32f4xx_hal_sd.c **** static uint32_t SD_PowerON(SD_HandleTypeDef *hsd);                      
 264:./Libraries/STM32F4xx_HAL_Driver/Src/stm32f4xx_hal_sd.c **** static uint32_t SD_SendSDStatus(SD_HandleTypeDef *hsd, uint32_t *pSDstatus);
 265:./Libraries/STM32F4xx_HAL_Driver/Src/stm32f4xx_hal_sd.c **** static uint32_t SD_SendStatus(SD_HandleTypeDef *hsd, uint32_t *pCardStatus);
 266:./Libraries/STM32F4xx_HAL_Driver/Src/stm32f4xx_hal_sd.c **** static uint32_t SD_WideBus_Enable(SD_HandleTypeDef *hsd);
 267:./Libraries/STM32F4xx_HAL_Driver/Src/stm32f4xx_hal_sd.c **** static uint32_t SD_WideBus_Disable(SD_HandleTypeDef *hsd);
 268:./Libraries/STM32F4xx_HAL_Driver/Src/stm32f4xx_hal_sd.c **** static uint32_t SD_FindSCR(SD_HandleTypeDef *hsd, uint32_t *pSCR);
 269:./Libraries/STM32F4xx_HAL_Driver/Src/stm32f4xx_hal_sd.c **** static HAL_StatusTypeDef SD_PowerOFF(SD_HandleTypeDef *hsd);
 270:./Libraries/STM32F4xx_HAL_Driver/Src/stm32f4xx_hal_sd.c **** static HAL_StatusTypeDef SD_Write_IT(SD_HandleTypeDef *hsd);
 271:./Libraries/STM32F4xx_HAL_Driver/Src/stm32f4xx_hal_sd.c **** static HAL_StatusTypeDef SD_Read_IT(SD_HandleTypeDef *hsd);
 272:./Libraries/STM32F4xx_HAL_Driver/Src/stm32f4xx_hal_sd.c **** static void SD_DMATransmitCplt(DMA_HandleTypeDef *hdma);
 273:./Libraries/STM32F4xx_HAL_Driver/Src/stm32f4xx_hal_sd.c **** static void SD_DMAReceiveCplt(DMA_HandleTypeDef *hdma);
 274:./Libraries/STM32F4xx_HAL_Driver/Src/stm32f4xx_hal_sd.c **** static void SD_DMAError(DMA_HandleTypeDef *hdma);
 275:./Libraries/STM32F4xx_HAL_Driver/Src/stm32f4xx_hal_sd.c **** static void SD_DMATxAbort(DMA_HandleTypeDef *hdma);
 276:./Libraries/STM32F4xx_HAL_Driver/Src/stm32f4xx_hal_sd.c **** static void SD_DMARxAbort(DMA_HandleTypeDef *hdma);
 277:./Libraries/STM32F4xx_HAL_Driver/Src/stm32f4xx_hal_sd.c **** /**
 278:./Libraries/STM32F4xx_HAL_Driver/Src/stm32f4xx_hal_sd.c ****   * @}
 279:./Libraries/STM32F4xx_HAL_Driver/Src/stm32f4xx_hal_sd.c ****   */
 280:./Libraries/STM32F4xx_HAL_Driver/Src/stm32f4xx_hal_sd.c **** 
 281:./Libraries/STM32F4xx_HAL_Driver/Src/stm32f4xx_hal_sd.c **** /* Exported functions --------------------------------------------------------*/
 282:./Libraries/STM32F4xx_HAL_Driver/Src/stm32f4xx_hal_sd.c **** /** @addtogroup SD_Exported_Functions
 283:./Libraries/STM32F4xx_HAL_Driver/Src/stm32f4xx_hal_sd.c ****   * @{
 284:./Libraries/STM32F4xx_HAL_Driver/Src/stm32f4xx_hal_sd.c ****   */
 285:./Libraries/STM32F4xx_HAL_Driver/Src/stm32f4xx_hal_sd.c **** 
 286:./Libraries/STM32F4xx_HAL_Driver/Src/stm32f4xx_hal_sd.c **** /** @addtogroup SD_Exported_Functions_Group1
 287:./Libraries/STM32F4xx_HAL_Driver/Src/stm32f4xx_hal_sd.c ****  *  @brief   Initialization and de-initialization functions 
 288:./Libraries/STM32F4xx_HAL_Driver/Src/stm32f4xx_hal_sd.c ****  *
 289:./Libraries/STM32F4xx_HAL_Driver/Src/stm32f4xx_hal_sd.c **** @verbatim    
 290:./Libraries/STM32F4xx_HAL_Driver/Src/stm32f4xx_hal_sd.c ****   ==============================================================================
 291:./Libraries/STM32F4xx_HAL_Driver/Src/stm32f4xx_hal_sd.c ****           ##### Initialization and de-initialization functions #####
 292:./Libraries/STM32F4xx_HAL_Driver/Src/stm32f4xx_hal_sd.c ****   ==============================================================================
 293:./Libraries/STM32F4xx_HAL_Driver/Src/stm32f4xx_hal_sd.c ****   [..]  
 294:./Libraries/STM32F4xx_HAL_Driver/Src/stm32f4xx_hal_sd.c ****     This section provides functions allowing to initialize/de-initialize the SD
 295:./Libraries/STM32F4xx_HAL_Driver/Src/stm32f4xx_hal_sd.c ****     card device to be ready for use.
 296:./Libraries/STM32F4xx_HAL_Driver/Src/stm32f4xx_hal_sd.c **** 
 297:./Libraries/STM32F4xx_HAL_Driver/Src/stm32f4xx_hal_sd.c **** @endverbatim
 298:./Libraries/STM32F4xx_HAL_Driver/Src/stm32f4xx_hal_sd.c ****   * @{
 299:./Libraries/STM32F4xx_HAL_Driver/Src/stm32f4xx_hal_sd.c ****   */
 300:./Libraries/STM32F4xx_HAL_Driver/Src/stm32f4xx_hal_sd.c **** 
 301:./Libraries/STM32F4xx_HAL_Driver/Src/stm32f4xx_hal_sd.c **** /**
 302:./Libraries/STM32F4xx_HAL_Driver/Src/stm32f4xx_hal_sd.c ****   * @brief  Initializes the SD according to the specified parameters in the 
 303:./Libraries/STM32F4xx_HAL_Driver/Src/stm32f4xx_hal_sd.c ****             SD_HandleTypeDef and create the associated handle.
 304:./Libraries/STM32F4xx_HAL_Driver/Src/stm32f4xx_hal_sd.c ****   * @param  hsd Pointer to the SD handle  
 305:./Libraries/STM32F4xx_HAL_Driver/Src/stm32f4xx_hal_sd.c ****   * @retval HAL status
 306:./Libraries/STM32F4xx_HAL_Driver/Src/stm32f4xx_hal_sd.c ****   */
 307:./Libraries/STM32F4xx_HAL_Driver/Src/stm32f4xx_hal_sd.c **** HAL_StatusTypeDef HAL_SD_Init(SD_HandleTypeDef *hsd)
 308:./Libraries/STM32F4xx_HAL_Driver/Src/stm32f4xx_hal_sd.c **** {
  29              		.loc 1 308 1
  30              		.cfi_startproc
  31              		@ args = 0, pretend = 0, frame = 8
  32              		@ frame_needed = 1, uses_anonymous_args = 0
  33 0000 80B5     		push	{r7, lr}
  34              	.LCFI0:
  35              		.cfi_def_cfa_offset 8
ARM GAS  /tmp/ccMhfXg8.s 			page 7


  36              		.cfi_offset 7, -8
  37              		.cfi_offset 14, -4
  38 0002 82B0     		sub	sp, sp, #8
  39              	.LCFI1:
  40              		.cfi_def_cfa_offset 16
  41 0004 00AF     		add	r7, sp, #0
  42              	.LCFI2:
  43              		.cfi_def_cfa_register 7
  44 0006 7860     		str	r0, [r7, #4]
 309:./Libraries/STM32F4xx_HAL_Driver/Src/stm32f4xx_hal_sd.c ****   /* Check the SD handle allocation */
 310:./Libraries/STM32F4xx_HAL_Driver/Src/stm32f4xx_hal_sd.c ****   if(hsd == NULL)
  45              		.loc 1 310 5
  46 0008 7B68     		ldr	r3, [r7, #4]
  47 000a 002B     		cmp	r3, #0
  48 000c 01D1     		bne	.L2
 311:./Libraries/STM32F4xx_HAL_Driver/Src/stm32f4xx_hal_sd.c ****   {
 312:./Libraries/STM32F4xx_HAL_Driver/Src/stm32f4xx_hal_sd.c ****     return HAL_ERROR;
  49              		.loc 1 312 12
  50 000e 0123     		movs	r3, #1
  51 0010 1DE0     		b	.L3
  52              	.L2:
 313:./Libraries/STM32F4xx_HAL_Driver/Src/stm32f4xx_hal_sd.c ****   }
 314:./Libraries/STM32F4xx_HAL_Driver/Src/stm32f4xx_hal_sd.c **** 
 315:./Libraries/STM32F4xx_HAL_Driver/Src/stm32f4xx_hal_sd.c ****   /* Check the parameters */
 316:./Libraries/STM32F4xx_HAL_Driver/Src/stm32f4xx_hal_sd.c ****   assert_param(IS_SDIO_ALL_INSTANCE(hsd->Instance));
 317:./Libraries/STM32F4xx_HAL_Driver/Src/stm32f4xx_hal_sd.c ****   assert_param(IS_SDIO_CLOCK_EDGE(hsd->Init.ClockEdge));
 318:./Libraries/STM32F4xx_HAL_Driver/Src/stm32f4xx_hal_sd.c ****   assert_param(IS_SDIO_CLOCK_BYPASS(hsd->Init.ClockBypass));
 319:./Libraries/STM32F4xx_HAL_Driver/Src/stm32f4xx_hal_sd.c ****   assert_param(IS_SDIO_CLOCK_POWER_SAVE(hsd->Init.ClockPowerSave));
 320:./Libraries/STM32F4xx_HAL_Driver/Src/stm32f4xx_hal_sd.c ****   assert_param(IS_SDIO_BUS_WIDE(hsd->Init.BusWide));
 321:./Libraries/STM32F4xx_HAL_Driver/Src/stm32f4xx_hal_sd.c ****   assert_param(IS_SDIO_HARDWARE_FLOW_CONTROL(hsd->Init.HardwareFlowControl));
 322:./Libraries/STM32F4xx_HAL_Driver/Src/stm32f4xx_hal_sd.c ****   assert_param(IS_SDIO_CLKDIV(hsd->Init.ClockDiv));
 323:./Libraries/STM32F4xx_HAL_Driver/Src/stm32f4xx_hal_sd.c **** 
 324:./Libraries/STM32F4xx_HAL_Driver/Src/stm32f4xx_hal_sd.c ****   if(hsd->State == HAL_SD_STATE_RESET)
  53              		.loc 1 324 9
  54 0012 7B68     		ldr	r3, [r7, #4]
  55 0014 93F83430 		ldrb	r3, [r3, #52]
  56 0018 DBB2     		uxtb	r3, r3
  57              		.loc 1 324 5
  58 001a 002B     		cmp	r3, #0
  59 001c 05D1     		bne	.L4
 325:./Libraries/STM32F4xx_HAL_Driver/Src/stm32f4xx_hal_sd.c ****   {
 326:./Libraries/STM32F4xx_HAL_Driver/Src/stm32f4xx_hal_sd.c ****     /* Allocate lock resource and initialize it */
 327:./Libraries/STM32F4xx_HAL_Driver/Src/stm32f4xx_hal_sd.c ****     hsd->Lock = HAL_UNLOCKED;
  60              		.loc 1 327 15
  61 001e 7B68     		ldr	r3, [r7, #4]
  62 0020 0022     		movs	r2, #0
  63 0022 1A77     		strb	r2, [r3, #28]
 328:./Libraries/STM32F4xx_HAL_Driver/Src/stm32f4xx_hal_sd.c ****     /* Init the low level hardware : GPIO, CLOCK, CORTEX...etc */
 329:./Libraries/STM32F4xx_HAL_Driver/Src/stm32f4xx_hal_sd.c ****     HAL_SD_MspInit(hsd);
  64              		.loc 1 329 5
  65 0024 7868     		ldr	r0, [r7, #4]
  66 0026 FFF7FEFF 		bl	HAL_SD_MspInit
  67              	.L4:
 330:./Libraries/STM32F4xx_HAL_Driver/Src/stm32f4xx_hal_sd.c ****   }
 331:./Libraries/STM32F4xx_HAL_Driver/Src/stm32f4xx_hal_sd.c **** 
 332:./Libraries/STM32F4xx_HAL_Driver/Src/stm32f4xx_hal_sd.c ****   hsd->State = HAL_SD_STATE_BUSY;
  68              		.loc 1 332 14
ARM GAS  /tmp/ccMhfXg8.s 			page 8


  69 002a 7B68     		ldr	r3, [r7, #4]
  70 002c 0322     		movs	r2, #3
  71 002e 83F83420 		strb	r2, [r3, #52]
 333:./Libraries/STM32F4xx_HAL_Driver/Src/stm32f4xx_hal_sd.c **** 
 334:./Libraries/STM32F4xx_HAL_Driver/Src/stm32f4xx_hal_sd.c ****   /* Initialize the Card parameters */
 335:./Libraries/STM32F4xx_HAL_Driver/Src/stm32f4xx_hal_sd.c ****   HAL_SD_InitCard(hsd);
  72              		.loc 1 335 3
  73 0032 7868     		ldr	r0, [r7, #4]
  74 0034 FFF7FEFF 		bl	HAL_SD_InitCard
 336:./Libraries/STM32F4xx_HAL_Driver/Src/stm32f4xx_hal_sd.c **** 
 337:./Libraries/STM32F4xx_HAL_Driver/Src/stm32f4xx_hal_sd.c ****   /* Initialize the error code */
 338:./Libraries/STM32F4xx_HAL_Driver/Src/stm32f4xx_hal_sd.c ****   hsd->ErrorCode = HAL_DMA_ERROR_NONE;
  75              		.loc 1 338 18
  76 0038 7B68     		ldr	r3, [r7, #4]
  77 003a 0022     		movs	r2, #0
  78 003c 9A63     		str	r2, [r3, #56]
 339:./Libraries/STM32F4xx_HAL_Driver/Src/stm32f4xx_hal_sd.c ****   
 340:./Libraries/STM32F4xx_HAL_Driver/Src/stm32f4xx_hal_sd.c ****   /* Initialize the SD operation */
 341:./Libraries/STM32F4xx_HAL_Driver/Src/stm32f4xx_hal_sd.c ****   hsd->Context = SD_CONTEXT_NONE;
  79              		.loc 1 341 16
  80 003e 7B68     		ldr	r3, [r7, #4]
  81 0040 0022     		movs	r2, #0
  82 0042 1A63     		str	r2, [r3, #48]
 342:./Libraries/STM32F4xx_HAL_Driver/Src/stm32f4xx_hal_sd.c ****                                                                                      
 343:./Libraries/STM32F4xx_HAL_Driver/Src/stm32f4xx_hal_sd.c ****   /* Initialize the SD state */
 344:./Libraries/STM32F4xx_HAL_Driver/Src/stm32f4xx_hal_sd.c ****   hsd->State = HAL_SD_STATE_READY;
  83              		.loc 1 344 14
  84 0044 7B68     		ldr	r3, [r7, #4]
  85 0046 0122     		movs	r2, #1
  86 0048 83F83420 		strb	r2, [r3, #52]
 345:./Libraries/STM32F4xx_HAL_Driver/Src/stm32f4xx_hal_sd.c **** 
 346:./Libraries/STM32F4xx_HAL_Driver/Src/stm32f4xx_hal_sd.c ****   return HAL_OK;
  87              		.loc 1 346 10
  88 004c 0023     		movs	r3, #0
  89              	.L3:
 347:./Libraries/STM32F4xx_HAL_Driver/Src/stm32f4xx_hal_sd.c **** }
  90              		.loc 1 347 1
  91 004e 1846     		mov	r0, r3
  92 0050 0837     		adds	r7, r7, #8
  93              	.LCFI3:
  94              		.cfi_def_cfa_offset 8
  95 0052 BD46     		mov	sp, r7
  96              	.LCFI4:
  97              		.cfi_def_cfa_register 13
  98              		@ sp needed
  99 0054 80BD     		pop	{r7, pc}
 100              		.cfi_endproc
 101              	.LFE126:
 103              		.section	.text.HAL_SD_InitCard,"ax",%progbits
 104              		.align	1
 105              		.global	HAL_SD_InitCard
 106              		.syntax unified
 107              		.thumb
 108              		.thumb_func
 109              		.fpu fpv4-sp-d16
 111              	HAL_SD_InitCard:
 112              	.LFB127:
ARM GAS  /tmp/ccMhfXg8.s 			page 9


 348:./Libraries/STM32F4xx_HAL_Driver/Src/stm32f4xx_hal_sd.c **** 
 349:./Libraries/STM32F4xx_HAL_Driver/Src/stm32f4xx_hal_sd.c **** /**
 350:./Libraries/STM32F4xx_HAL_Driver/Src/stm32f4xx_hal_sd.c ****   * @brief  Initializes the SD Card.
 351:./Libraries/STM32F4xx_HAL_Driver/Src/stm32f4xx_hal_sd.c ****   * @param  hsd Pointer to SD handle
 352:./Libraries/STM32F4xx_HAL_Driver/Src/stm32f4xx_hal_sd.c ****   * @note   This function initializes the SD card. It could be used when a card 
 353:./Libraries/STM32F4xx_HAL_Driver/Src/stm32f4xx_hal_sd.c ****             re-initialization is needed.
 354:./Libraries/STM32F4xx_HAL_Driver/Src/stm32f4xx_hal_sd.c ****   * @retval HAL status
 355:./Libraries/STM32F4xx_HAL_Driver/Src/stm32f4xx_hal_sd.c ****   */
 356:./Libraries/STM32F4xx_HAL_Driver/Src/stm32f4xx_hal_sd.c **** HAL_StatusTypeDef HAL_SD_InitCard(SD_HandleTypeDef *hsd)
 357:./Libraries/STM32F4xx_HAL_Driver/Src/stm32f4xx_hal_sd.c **** {
 113              		.loc 1 357 1
 114              		.cfi_startproc
 115              		@ args = 0, pretend = 0, frame = 40
 116              		@ frame_needed = 1, uses_anonymous_args = 0
 117 0000 B0B5     		push	{r4, r5, r7, lr}
 118              	.LCFI5:
 119              		.cfi_def_cfa_offset 16
 120              		.cfi_offset 4, -16
 121              		.cfi_offset 5, -12
 122              		.cfi_offset 7, -8
 123              		.cfi_offset 14, -4
 124 0002 8EB0     		sub	sp, sp, #56
 125              	.LCFI6:
 126              		.cfi_def_cfa_offset 72
 127 0004 04AF     		add	r7, sp, #16
 128              	.LCFI7:
 129              		.cfi_def_cfa 7, 56
 130 0006 7860     		str	r0, [r7, #4]
 358:./Libraries/STM32F4xx_HAL_Driver/Src/stm32f4xx_hal_sd.c ****   uint32_t errorstate = HAL_SD_ERROR_NONE;
 131              		.loc 1 358 12
 132 0008 0023     		movs	r3, #0
 133 000a 7B62     		str	r3, [r7, #36]
 359:./Libraries/STM32F4xx_HAL_Driver/Src/stm32f4xx_hal_sd.c ****   SD_InitTypeDef Init;
 360:./Libraries/STM32F4xx_HAL_Driver/Src/stm32f4xx_hal_sd.c ****   
 361:./Libraries/STM32F4xx_HAL_Driver/Src/stm32f4xx_hal_sd.c ****   /* Default SDIO peripheral configuration for SD card initialization */
 362:./Libraries/STM32F4xx_HAL_Driver/Src/stm32f4xx_hal_sd.c ****   Init.ClockEdge           = SDIO_CLOCK_EDGE_RISING;
 134              		.loc 1 362 28
 135 000c 0023     		movs	r3, #0
 136 000e FB60     		str	r3, [r7, #12]
 363:./Libraries/STM32F4xx_HAL_Driver/Src/stm32f4xx_hal_sd.c ****   Init.ClockBypass         = SDIO_CLOCK_BYPASS_DISABLE;
 137              		.loc 1 363 28
 138 0010 0023     		movs	r3, #0
 139 0012 3B61     		str	r3, [r7, #16]
 364:./Libraries/STM32F4xx_HAL_Driver/Src/stm32f4xx_hal_sd.c ****   Init.ClockPowerSave      = SDIO_CLOCK_POWER_SAVE_DISABLE;
 140              		.loc 1 364 28
 141 0014 0023     		movs	r3, #0
 142 0016 7B61     		str	r3, [r7, #20]
 365:./Libraries/STM32F4xx_HAL_Driver/Src/stm32f4xx_hal_sd.c ****   Init.BusWide             = SDIO_BUS_WIDE_1B;
 143              		.loc 1 365 28
 144 0018 0023     		movs	r3, #0
 145 001a BB61     		str	r3, [r7, #24]
 366:./Libraries/STM32F4xx_HAL_Driver/Src/stm32f4xx_hal_sd.c ****   Init.HardwareFlowControl = SDIO_HARDWARE_FLOW_CONTROL_DISABLE;
 146              		.loc 1 366 28
 147 001c 0023     		movs	r3, #0
 148 001e FB61     		str	r3, [r7, #28]
 367:./Libraries/STM32F4xx_HAL_Driver/Src/stm32f4xx_hal_sd.c ****   Init.ClockDiv            = SDIO_INIT_CLK_DIV;
 149              		.loc 1 367 28
ARM GAS  /tmp/ccMhfXg8.s 			page 10


 150 0020 7623     		movs	r3, #118
 151 0022 3B62     		str	r3, [r7, #32]
 368:./Libraries/STM32F4xx_HAL_Driver/Src/stm32f4xx_hal_sd.c **** 
 369:./Libraries/STM32F4xx_HAL_Driver/Src/stm32f4xx_hal_sd.c ****   /* Initialize SDIO peripheral interface with default configuration */
 370:./Libraries/STM32F4xx_HAL_Driver/Src/stm32f4xx_hal_sd.c ****   SDIO_Init(hsd->Instance, Init);
 152              		.loc 1 370 3
 153 0024 7B68     		ldr	r3, [r7, #4]
 154 0026 1D68     		ldr	r5, [r3]
 155 0028 6C46     		mov	r4, sp
 156 002a 07F11803 		add	r3, r7, #24
 157 002e 93E80700 		ldm	r3, {r0, r1, r2}
 158 0032 84E80700 		stm	r4, {r0, r1, r2}
 159 0036 07F10C03 		add	r3, r7, #12
 160 003a 0ECB     		ldm	r3, {r1, r2, r3}
 161 003c 2846     		mov	r0, r5
 162 003e FFF7FEFF 		bl	SDIO_Init
 371:./Libraries/STM32F4xx_HAL_Driver/Src/stm32f4xx_hal_sd.c **** 
 372:./Libraries/STM32F4xx_HAL_Driver/Src/stm32f4xx_hal_sd.c ****   /* Disable SDIO Clock */
 373:./Libraries/STM32F4xx_HAL_Driver/Src/stm32f4xx_hal_sd.c ****   __HAL_SD_DISABLE(hsd); 
 163              		.loc 1 373 3
 164 0042 1C4B     		ldr	r3, .L10
 165 0044 0022     		movs	r2, #0
 166 0046 1A60     		str	r2, [r3]
 374:./Libraries/STM32F4xx_HAL_Driver/Src/stm32f4xx_hal_sd.c ****   
 375:./Libraries/STM32F4xx_HAL_Driver/Src/stm32f4xx_hal_sd.c ****   /* Set Power State to ON */
 376:./Libraries/STM32F4xx_HAL_Driver/Src/stm32f4xx_hal_sd.c ****   SDIO_PowerState_ON(hsd->Instance);
 167              		.loc 1 376 3
 168 0048 7B68     		ldr	r3, [r7, #4]
 169 004a 1B68     		ldr	r3, [r3]
 170 004c 1846     		mov	r0, r3
 171 004e FFF7FEFF 		bl	SDIO_PowerState_ON
 377:./Libraries/STM32F4xx_HAL_Driver/Src/stm32f4xx_hal_sd.c ****   
 378:./Libraries/STM32F4xx_HAL_Driver/Src/stm32f4xx_hal_sd.c ****   /* Enable SDIO Clock */
 379:./Libraries/STM32F4xx_HAL_Driver/Src/stm32f4xx_hal_sd.c ****   __HAL_SD_ENABLE(hsd);
 172              		.loc 1 379 3
 173 0052 184B     		ldr	r3, .L10
 174 0054 0122     		movs	r2, #1
 175 0056 1A60     		str	r2, [r3]
 380:./Libraries/STM32F4xx_HAL_Driver/Src/stm32f4xx_hal_sd.c ****   
 381:./Libraries/STM32F4xx_HAL_Driver/Src/stm32f4xx_hal_sd.c ****   /* Required power up waiting time before starting the SD initialization 
 382:./Libraries/STM32F4xx_HAL_Driver/Src/stm32f4xx_hal_sd.c ****   sequence */
 383:./Libraries/STM32F4xx_HAL_Driver/Src/stm32f4xx_hal_sd.c ****   HAL_Delay(2U);
 176              		.loc 1 383 3
 177 0058 0220     		movs	r0, #2
 178 005a FFF7FEFF 		bl	HAL_Delay
 384:./Libraries/STM32F4xx_HAL_Driver/Src/stm32f4xx_hal_sd.c ****   
 385:./Libraries/STM32F4xx_HAL_Driver/Src/stm32f4xx_hal_sd.c ****   /* Identify card operating voltage */
 386:./Libraries/STM32F4xx_HAL_Driver/Src/stm32f4xx_hal_sd.c ****   errorstate = SD_PowerON(hsd);
 179              		.loc 1 386 16
 180 005e 7868     		ldr	r0, [r7, #4]
 181 0060 FFF7FEFF 		bl	SD_PowerON
 182 0064 7862     		str	r0, [r7, #36]
 387:./Libraries/STM32F4xx_HAL_Driver/Src/stm32f4xx_hal_sd.c ****   if(errorstate != HAL_SD_ERROR_NONE)
 183              		.loc 1 387 5
 184 0066 7B6A     		ldr	r3, [r7, #36]
 185 0068 002B     		cmp	r3, #0
 186 006a 0BD0     		beq	.L6
ARM GAS  /tmp/ccMhfXg8.s 			page 11


 388:./Libraries/STM32F4xx_HAL_Driver/Src/stm32f4xx_hal_sd.c ****   {
 389:./Libraries/STM32F4xx_HAL_Driver/Src/stm32f4xx_hal_sd.c ****     hsd->State = HAL_SD_STATE_READY;
 187              		.loc 1 389 16
 188 006c 7B68     		ldr	r3, [r7, #4]
 189 006e 0122     		movs	r2, #1
 190 0070 83F83420 		strb	r2, [r3, #52]
 390:./Libraries/STM32F4xx_HAL_Driver/Src/stm32f4xx_hal_sd.c ****     hsd->ErrorCode |= errorstate;
 191              		.loc 1 390 20
 192 0074 7B68     		ldr	r3, [r7, #4]
 193 0076 9A6B     		ldr	r2, [r3, #56]
 194 0078 7B6A     		ldr	r3, [r7, #36]
 195 007a 1A43     		orrs	r2, r2, r3
 196 007c 7B68     		ldr	r3, [r7, #4]
 197 007e 9A63     		str	r2, [r3, #56]
 391:./Libraries/STM32F4xx_HAL_Driver/Src/stm32f4xx_hal_sd.c ****     return HAL_ERROR;
 198              		.loc 1 391 12
 199 0080 0123     		movs	r3, #1
 200 0082 13E0     		b	.L9
 201              	.L6:
 392:./Libraries/STM32F4xx_HAL_Driver/Src/stm32f4xx_hal_sd.c ****   }
 393:./Libraries/STM32F4xx_HAL_Driver/Src/stm32f4xx_hal_sd.c **** 
 394:./Libraries/STM32F4xx_HAL_Driver/Src/stm32f4xx_hal_sd.c ****   /* Card initialization */
 395:./Libraries/STM32F4xx_HAL_Driver/Src/stm32f4xx_hal_sd.c ****   errorstate = SD_InitCard(hsd);
 202              		.loc 1 395 16
 203 0084 7868     		ldr	r0, [r7, #4]
 204 0086 FFF7FEFF 		bl	SD_InitCard
 205 008a 7862     		str	r0, [r7, #36]
 396:./Libraries/STM32F4xx_HAL_Driver/Src/stm32f4xx_hal_sd.c ****   if(errorstate != HAL_SD_ERROR_NONE)
 206              		.loc 1 396 5
 207 008c 7B6A     		ldr	r3, [r7, #36]
 208 008e 002B     		cmp	r3, #0
 209 0090 0BD0     		beq	.L8
 397:./Libraries/STM32F4xx_HAL_Driver/Src/stm32f4xx_hal_sd.c ****   {
 398:./Libraries/STM32F4xx_HAL_Driver/Src/stm32f4xx_hal_sd.c ****     hsd->State = HAL_SD_STATE_READY;
 210              		.loc 1 398 16
 211 0092 7B68     		ldr	r3, [r7, #4]
 212 0094 0122     		movs	r2, #1
 213 0096 83F83420 		strb	r2, [r3, #52]
 399:./Libraries/STM32F4xx_HAL_Driver/Src/stm32f4xx_hal_sd.c ****     hsd->ErrorCode |= errorstate;
 214              		.loc 1 399 20
 215 009a 7B68     		ldr	r3, [r7, #4]
 216 009c 9A6B     		ldr	r2, [r3, #56]
 217 009e 7B6A     		ldr	r3, [r7, #36]
 218 00a0 1A43     		orrs	r2, r2, r3
 219 00a2 7B68     		ldr	r3, [r7, #4]
 220 00a4 9A63     		str	r2, [r3, #56]
 400:./Libraries/STM32F4xx_HAL_Driver/Src/stm32f4xx_hal_sd.c ****     return HAL_ERROR;
 221              		.loc 1 400 12
 222 00a6 0123     		movs	r3, #1
 223 00a8 00E0     		b	.L9
 224              	.L8:
 401:./Libraries/STM32F4xx_HAL_Driver/Src/stm32f4xx_hal_sd.c ****   }
 402:./Libraries/STM32F4xx_HAL_Driver/Src/stm32f4xx_hal_sd.c **** 
 403:./Libraries/STM32F4xx_HAL_Driver/Src/stm32f4xx_hal_sd.c ****   return HAL_OK;
 225              		.loc 1 403 10
 226 00aa 0023     		movs	r3, #0
 227              	.L9:
ARM GAS  /tmp/ccMhfXg8.s 			page 12


 404:./Libraries/STM32F4xx_HAL_Driver/Src/stm32f4xx_hal_sd.c **** }
 228              		.loc 1 404 1 discriminator 1
 229 00ac 1846     		mov	r0, r3
 230 00ae 2837     		adds	r7, r7, #40
 231              	.LCFI8:
 232              		.cfi_def_cfa_offset 16
 233 00b0 BD46     		mov	sp, r7
 234              	.LCFI9:
 235              		.cfi_def_cfa_register 13
 236              		@ sp needed
 237 00b2 B0BD     		pop	{r4, r5, r7, pc}
 238              	.L11:
 239              		.align	2
 240              	.L10:
 241 00b4 A0802542 		.word	1109754016
 242              		.cfi_endproc
 243              	.LFE127:
 245              		.section	.text.HAL_SD_DeInit,"ax",%progbits
 246              		.align	1
 247              		.global	HAL_SD_DeInit
 248              		.syntax unified
 249              		.thumb
 250              		.thumb_func
 251              		.fpu fpv4-sp-d16
 253              	HAL_SD_DeInit:
 254              	.LFB128:
 405:./Libraries/STM32F4xx_HAL_Driver/Src/stm32f4xx_hal_sd.c **** 
 406:./Libraries/STM32F4xx_HAL_Driver/Src/stm32f4xx_hal_sd.c **** /**
 407:./Libraries/STM32F4xx_HAL_Driver/Src/stm32f4xx_hal_sd.c ****   * @brief  De-Initializes the SD card.
 408:./Libraries/STM32F4xx_HAL_Driver/Src/stm32f4xx_hal_sd.c ****   * @param  hsd Pointer to SD handle
 409:./Libraries/STM32F4xx_HAL_Driver/Src/stm32f4xx_hal_sd.c ****   * @retval HAL status
 410:./Libraries/STM32F4xx_HAL_Driver/Src/stm32f4xx_hal_sd.c ****   */
 411:./Libraries/STM32F4xx_HAL_Driver/Src/stm32f4xx_hal_sd.c **** HAL_StatusTypeDef HAL_SD_DeInit(SD_HandleTypeDef *hsd)
 412:./Libraries/STM32F4xx_HAL_Driver/Src/stm32f4xx_hal_sd.c **** {
 255              		.loc 1 412 1
 256              		.cfi_startproc
 257              		@ args = 0, pretend = 0, frame = 8
 258              		@ frame_needed = 1, uses_anonymous_args = 0
 259 0000 80B5     		push	{r7, lr}
 260              	.LCFI10:
 261              		.cfi_def_cfa_offset 8
 262              		.cfi_offset 7, -8
 263              		.cfi_offset 14, -4
 264 0002 82B0     		sub	sp, sp, #8
 265              	.LCFI11:
 266              		.cfi_def_cfa_offset 16
 267 0004 00AF     		add	r7, sp, #0
 268              	.LCFI12:
 269              		.cfi_def_cfa_register 7
 270 0006 7860     		str	r0, [r7, #4]
 413:./Libraries/STM32F4xx_HAL_Driver/Src/stm32f4xx_hal_sd.c ****   /* Check the SD handle allocation */
 414:./Libraries/STM32F4xx_HAL_Driver/Src/stm32f4xx_hal_sd.c ****   if(hsd == NULL)
 271              		.loc 1 414 5
 272 0008 7B68     		ldr	r3, [r7, #4]
 273 000a 002B     		cmp	r3, #0
 274 000c 01D1     		bne	.L13
 415:./Libraries/STM32F4xx_HAL_Driver/Src/stm32f4xx_hal_sd.c ****   {
ARM GAS  /tmp/ccMhfXg8.s 			page 13


 416:./Libraries/STM32F4xx_HAL_Driver/Src/stm32f4xx_hal_sd.c ****     return HAL_ERROR;
 275              		.loc 1 416 12
 276 000e 0123     		movs	r3, #1
 277 0010 11E0     		b	.L14
 278              	.L13:
 417:./Libraries/STM32F4xx_HAL_Driver/Src/stm32f4xx_hal_sd.c ****   }
 418:./Libraries/STM32F4xx_HAL_Driver/Src/stm32f4xx_hal_sd.c ****   
 419:./Libraries/STM32F4xx_HAL_Driver/Src/stm32f4xx_hal_sd.c ****   /* Check the parameters */
 420:./Libraries/STM32F4xx_HAL_Driver/Src/stm32f4xx_hal_sd.c ****   assert_param(IS_SDIO_ALL_INSTANCE(hsd->Instance));
 421:./Libraries/STM32F4xx_HAL_Driver/Src/stm32f4xx_hal_sd.c **** 
 422:./Libraries/STM32F4xx_HAL_Driver/Src/stm32f4xx_hal_sd.c ****   hsd->State = HAL_SD_STATE_BUSY;
 279              		.loc 1 422 14
 280 0012 7B68     		ldr	r3, [r7, #4]
 281 0014 0322     		movs	r2, #3
 282 0016 83F83420 		strb	r2, [r3, #52]
 423:./Libraries/STM32F4xx_HAL_Driver/Src/stm32f4xx_hal_sd.c ****   
 424:./Libraries/STM32F4xx_HAL_Driver/Src/stm32f4xx_hal_sd.c ****   /* Set SD power state to off */ 
 425:./Libraries/STM32F4xx_HAL_Driver/Src/stm32f4xx_hal_sd.c ****   SD_PowerOFF(hsd);
 283              		.loc 1 425 3
 284 001a 7868     		ldr	r0, [r7, #4]
 285 001c FFF7FEFF 		bl	SD_PowerOFF
 426:./Libraries/STM32F4xx_HAL_Driver/Src/stm32f4xx_hal_sd.c ****   
 427:./Libraries/STM32F4xx_HAL_Driver/Src/stm32f4xx_hal_sd.c ****   /* De-Initialize the MSP layer */
 428:./Libraries/STM32F4xx_HAL_Driver/Src/stm32f4xx_hal_sd.c ****   HAL_SD_MspDeInit(hsd);
 286              		.loc 1 428 3
 287 0020 7868     		ldr	r0, [r7, #4]
 288 0022 FFF7FEFF 		bl	HAL_SD_MspDeInit
 429:./Libraries/STM32F4xx_HAL_Driver/Src/stm32f4xx_hal_sd.c ****   
 430:./Libraries/STM32F4xx_HAL_Driver/Src/stm32f4xx_hal_sd.c ****   hsd->ErrorCode = HAL_SD_ERROR_NONE;
 289              		.loc 1 430 18
 290 0026 7B68     		ldr	r3, [r7, #4]
 291 0028 0022     		movs	r2, #0
 292 002a 9A63     		str	r2, [r3, #56]
 431:./Libraries/STM32F4xx_HAL_Driver/Src/stm32f4xx_hal_sd.c ****   hsd->State = HAL_SD_STATE_RESET;
 293              		.loc 1 431 14
 294 002c 7B68     		ldr	r3, [r7, #4]
 295 002e 0022     		movs	r2, #0
 296 0030 83F83420 		strb	r2, [r3, #52]
 432:./Libraries/STM32F4xx_HAL_Driver/Src/stm32f4xx_hal_sd.c ****   
 433:./Libraries/STM32F4xx_HAL_Driver/Src/stm32f4xx_hal_sd.c ****   return HAL_OK;
 297              		.loc 1 433 10
 298 0034 0023     		movs	r3, #0
 299              	.L14:
 434:./Libraries/STM32F4xx_HAL_Driver/Src/stm32f4xx_hal_sd.c **** }
 300              		.loc 1 434 1
 301 0036 1846     		mov	r0, r3
 302 0038 0837     		adds	r7, r7, #8
 303              	.LCFI13:
 304              		.cfi_def_cfa_offset 8
 305 003a BD46     		mov	sp, r7
 306              	.LCFI14:
 307              		.cfi_def_cfa_register 13
 308              		@ sp needed
 309 003c 80BD     		pop	{r7, pc}
 310              		.cfi_endproc
 311              	.LFE128:
 313              		.section	.text.HAL_SD_MspInit,"ax",%progbits
ARM GAS  /tmp/ccMhfXg8.s 			page 14


 314              		.align	1
 315              		.weak	HAL_SD_MspInit
 316              		.syntax unified
 317              		.thumb
 318              		.thumb_func
 319              		.fpu fpv4-sp-d16
 321              	HAL_SD_MspInit:
 322              	.LFB129:
 435:./Libraries/STM32F4xx_HAL_Driver/Src/stm32f4xx_hal_sd.c **** 
 436:./Libraries/STM32F4xx_HAL_Driver/Src/stm32f4xx_hal_sd.c **** 
 437:./Libraries/STM32F4xx_HAL_Driver/Src/stm32f4xx_hal_sd.c **** /**
 438:./Libraries/STM32F4xx_HAL_Driver/Src/stm32f4xx_hal_sd.c ****   * @brief  Initializes the SD MSP.
 439:./Libraries/STM32F4xx_HAL_Driver/Src/stm32f4xx_hal_sd.c ****   * @param  hsd Pointer to SD handle
 440:./Libraries/STM32F4xx_HAL_Driver/Src/stm32f4xx_hal_sd.c ****   * @retval None
 441:./Libraries/STM32F4xx_HAL_Driver/Src/stm32f4xx_hal_sd.c ****   */
 442:./Libraries/STM32F4xx_HAL_Driver/Src/stm32f4xx_hal_sd.c **** __weak void HAL_SD_MspInit(SD_HandleTypeDef *hsd)
 443:./Libraries/STM32F4xx_HAL_Driver/Src/stm32f4xx_hal_sd.c **** {
 323              		.loc 1 443 1
 324              		.cfi_startproc
 325              		@ args = 0, pretend = 0, frame = 8
 326              		@ frame_needed = 1, uses_anonymous_args = 0
 327              		@ link register save eliminated.
 328 0000 80B4     		push	{r7}
 329              	.LCFI15:
 330              		.cfi_def_cfa_offset 4
 331              		.cfi_offset 7, -4
 332 0002 83B0     		sub	sp, sp, #12
 333              	.LCFI16:
 334              		.cfi_def_cfa_offset 16
 335 0004 00AF     		add	r7, sp, #0
 336              	.LCFI17:
 337              		.cfi_def_cfa_register 7
 338 0006 7860     		str	r0, [r7, #4]
 444:./Libraries/STM32F4xx_HAL_Driver/Src/stm32f4xx_hal_sd.c ****   /* Prevent unused argument(s) compilation warning */
 445:./Libraries/STM32F4xx_HAL_Driver/Src/stm32f4xx_hal_sd.c ****   UNUSED(hsd);
 446:./Libraries/STM32F4xx_HAL_Driver/Src/stm32f4xx_hal_sd.c ****  
 447:./Libraries/STM32F4xx_HAL_Driver/Src/stm32f4xx_hal_sd.c ****   /* NOTE : This function Should not be modified, when the callback is needed,
 448:./Libraries/STM32F4xx_HAL_Driver/Src/stm32f4xx_hal_sd.c ****             the HAL_SD_MspInit could be implemented in the user file
 449:./Libraries/STM32F4xx_HAL_Driver/Src/stm32f4xx_hal_sd.c ****    */
 450:./Libraries/STM32F4xx_HAL_Driver/Src/stm32f4xx_hal_sd.c **** }
 339              		.loc 1 450 1
 340 0008 00BF     		nop
 341 000a 0C37     		adds	r7, r7, #12
 342              	.LCFI18:
 343              		.cfi_def_cfa_offset 4
 344 000c BD46     		mov	sp, r7
 345              	.LCFI19:
 346              		.cfi_def_cfa_register 13
 347              		@ sp needed
 348 000e 5DF8047B 		ldr	r7, [sp], #4
 349              	.LCFI20:
 350              		.cfi_restore 7
 351              		.cfi_def_cfa_offset 0
 352 0012 7047     		bx	lr
 353              		.cfi_endproc
 354              	.LFE129:
 356              		.section	.text.HAL_SD_MspDeInit,"ax",%progbits
ARM GAS  /tmp/ccMhfXg8.s 			page 15


 357              		.align	1
 358              		.weak	HAL_SD_MspDeInit
 359              		.syntax unified
 360              		.thumb
 361              		.thumb_func
 362              		.fpu fpv4-sp-d16
 364              	HAL_SD_MspDeInit:
 365              	.LFB130:
 451:./Libraries/STM32F4xx_HAL_Driver/Src/stm32f4xx_hal_sd.c **** 
 452:./Libraries/STM32F4xx_HAL_Driver/Src/stm32f4xx_hal_sd.c **** /**
 453:./Libraries/STM32F4xx_HAL_Driver/Src/stm32f4xx_hal_sd.c ****   * @brief  De-Initialize SD MSP.
 454:./Libraries/STM32F4xx_HAL_Driver/Src/stm32f4xx_hal_sd.c ****   * @param  hsd Pointer to SD handle
 455:./Libraries/STM32F4xx_HAL_Driver/Src/stm32f4xx_hal_sd.c ****   * @retval None
 456:./Libraries/STM32F4xx_HAL_Driver/Src/stm32f4xx_hal_sd.c ****   */
 457:./Libraries/STM32F4xx_HAL_Driver/Src/stm32f4xx_hal_sd.c **** __weak void HAL_SD_MspDeInit(SD_HandleTypeDef *hsd)
 458:./Libraries/STM32F4xx_HAL_Driver/Src/stm32f4xx_hal_sd.c **** {
 366              		.loc 1 458 1
 367              		.cfi_startproc
 368              		@ args = 0, pretend = 0, frame = 8
 369              		@ frame_needed = 1, uses_anonymous_args = 0
 370              		@ link register save eliminated.
 371 0000 80B4     		push	{r7}
 372              	.LCFI21:
 373              		.cfi_def_cfa_offset 4
 374              		.cfi_offset 7, -4
 375 0002 83B0     		sub	sp, sp, #12
 376              	.LCFI22:
 377              		.cfi_def_cfa_offset 16
 378 0004 00AF     		add	r7, sp, #0
 379              	.LCFI23:
 380              		.cfi_def_cfa_register 7
 381 0006 7860     		str	r0, [r7, #4]
 459:./Libraries/STM32F4xx_HAL_Driver/Src/stm32f4xx_hal_sd.c ****   /* Prevent unused argument(s) compilation warning */
 460:./Libraries/STM32F4xx_HAL_Driver/Src/stm32f4xx_hal_sd.c ****   UNUSED(hsd);
 461:./Libraries/STM32F4xx_HAL_Driver/Src/stm32f4xx_hal_sd.c ****  
 462:./Libraries/STM32F4xx_HAL_Driver/Src/stm32f4xx_hal_sd.c ****   /* NOTE : This function Should not be modified, when the callback is needed,
 463:./Libraries/STM32F4xx_HAL_Driver/Src/stm32f4xx_hal_sd.c ****             the HAL_SD_MspDeInit could be implemented in the user file
 464:./Libraries/STM32F4xx_HAL_Driver/Src/stm32f4xx_hal_sd.c ****    */
 465:./Libraries/STM32F4xx_HAL_Driver/Src/stm32f4xx_hal_sd.c **** }
 382              		.loc 1 465 1
 383 0008 00BF     		nop
 384 000a 0C37     		adds	r7, r7, #12
 385              	.LCFI24:
 386              		.cfi_def_cfa_offset 4
 387 000c BD46     		mov	sp, r7
 388              	.LCFI25:
 389              		.cfi_def_cfa_register 13
 390              		@ sp needed
 391 000e 5DF8047B 		ldr	r7, [sp], #4
 392              	.LCFI26:
 393              		.cfi_restore 7
 394              		.cfi_def_cfa_offset 0
 395 0012 7047     		bx	lr
 396              		.cfi_endproc
 397              	.LFE130:
 399              		.section	.text.HAL_SD_ReadBlocks,"ax",%progbits
 400              		.align	1
ARM GAS  /tmp/ccMhfXg8.s 			page 16


 401              		.global	HAL_SD_ReadBlocks
 402              		.syntax unified
 403              		.thumb
 404              		.thumb_func
 405              		.fpu fpv4-sp-d16
 407              	HAL_SD_ReadBlocks:
 408              	.LFB131:
 466:./Libraries/STM32F4xx_HAL_Driver/Src/stm32f4xx_hal_sd.c **** 
 467:./Libraries/STM32F4xx_HAL_Driver/Src/stm32f4xx_hal_sd.c **** /**
 468:./Libraries/STM32F4xx_HAL_Driver/Src/stm32f4xx_hal_sd.c ****   * @}
 469:./Libraries/STM32F4xx_HAL_Driver/Src/stm32f4xx_hal_sd.c ****   */
 470:./Libraries/STM32F4xx_HAL_Driver/Src/stm32f4xx_hal_sd.c **** 
 471:./Libraries/STM32F4xx_HAL_Driver/Src/stm32f4xx_hal_sd.c **** /** @addtogroup SD_Exported_Functions_Group2
 472:./Libraries/STM32F4xx_HAL_Driver/Src/stm32f4xx_hal_sd.c ****  *  @brief   Data transfer functions 
 473:./Libraries/STM32F4xx_HAL_Driver/Src/stm32f4xx_hal_sd.c ****  *
 474:./Libraries/STM32F4xx_HAL_Driver/Src/stm32f4xx_hal_sd.c **** @verbatim   
 475:./Libraries/STM32F4xx_HAL_Driver/Src/stm32f4xx_hal_sd.c ****   ==============================================================================
 476:./Libraries/STM32F4xx_HAL_Driver/Src/stm32f4xx_hal_sd.c ****                         ##### IO operation functions #####
 477:./Libraries/STM32F4xx_HAL_Driver/Src/stm32f4xx_hal_sd.c ****   ==============================================================================  
 478:./Libraries/STM32F4xx_HAL_Driver/Src/stm32f4xx_hal_sd.c ****   [..]
 479:./Libraries/STM32F4xx_HAL_Driver/Src/stm32f4xx_hal_sd.c ****     This subsection provides a set of functions allowing to manage the data 
 480:./Libraries/STM32F4xx_HAL_Driver/Src/stm32f4xx_hal_sd.c ****     transfer from/to SD card.
 481:./Libraries/STM32F4xx_HAL_Driver/Src/stm32f4xx_hal_sd.c **** 
 482:./Libraries/STM32F4xx_HAL_Driver/Src/stm32f4xx_hal_sd.c **** @endverbatim
 483:./Libraries/STM32F4xx_HAL_Driver/Src/stm32f4xx_hal_sd.c ****   * @{
 484:./Libraries/STM32F4xx_HAL_Driver/Src/stm32f4xx_hal_sd.c ****   */
 485:./Libraries/STM32F4xx_HAL_Driver/Src/stm32f4xx_hal_sd.c **** 
 486:./Libraries/STM32F4xx_HAL_Driver/Src/stm32f4xx_hal_sd.c **** /**
 487:./Libraries/STM32F4xx_HAL_Driver/Src/stm32f4xx_hal_sd.c ****   * @brief  Reads block(s) from a specified address in a card. The Data transfer 
 488:./Libraries/STM32F4xx_HAL_Driver/Src/stm32f4xx_hal_sd.c ****   *         is managed by polling mode.
 489:./Libraries/STM32F4xx_HAL_Driver/Src/stm32f4xx_hal_sd.c ****   * @note   This API should be followed by a check on the card state through
 490:./Libraries/STM32F4xx_HAL_Driver/Src/stm32f4xx_hal_sd.c ****   *         HAL_SD_GetCardState().
 491:./Libraries/STM32F4xx_HAL_Driver/Src/stm32f4xx_hal_sd.c ****   * @param  hsd Pointer to SD handle
 492:./Libraries/STM32F4xx_HAL_Driver/Src/stm32f4xx_hal_sd.c ****   * @param  pData pointer to the buffer that will contain the received data
 493:./Libraries/STM32F4xx_HAL_Driver/Src/stm32f4xx_hal_sd.c ****   * @param  BlockAdd Block Address from where data is to be read 
 494:./Libraries/STM32F4xx_HAL_Driver/Src/stm32f4xx_hal_sd.c ****   * @param  NumberOfBlocks Number of SD blocks to read
 495:./Libraries/STM32F4xx_HAL_Driver/Src/stm32f4xx_hal_sd.c ****   * @param  Timeout Specify timeout value
 496:./Libraries/STM32F4xx_HAL_Driver/Src/stm32f4xx_hal_sd.c ****   * @retval HAL status
 497:./Libraries/STM32F4xx_HAL_Driver/Src/stm32f4xx_hal_sd.c ****   */
 498:./Libraries/STM32F4xx_HAL_Driver/Src/stm32f4xx_hal_sd.c **** HAL_StatusTypeDef HAL_SD_ReadBlocks(SD_HandleTypeDef *hsd, uint8_t *pData, uint32_t BlockAdd, uint3
 499:./Libraries/STM32F4xx_HAL_Driver/Src/stm32f4xx_hal_sd.c **** {
 409              		.loc 1 499 1
 410              		.cfi_startproc
 411              		@ args = 4, pretend = 0, frame = 56
 412              		@ frame_needed = 1, uses_anonymous_args = 0
 413 0000 90B5     		push	{r4, r7, lr}
 414              	.LCFI27:
 415              		.cfi_def_cfa_offset 12
 416              		.cfi_offset 4, -12
 417              		.cfi_offset 7, -8
 418              		.cfi_offset 14, -4
 419 0002 8FB0     		sub	sp, sp, #60
 420              	.LCFI28:
 421              		.cfi_def_cfa_offset 72
 422 0004 00AF     		add	r7, sp, #0
 423              	.LCFI29:
 424              		.cfi_def_cfa_register 7
ARM GAS  /tmp/ccMhfXg8.s 			page 17


 425 0006 F860     		str	r0, [r7, #12]
 426 0008 B960     		str	r1, [r7, #8]
 427 000a 7A60     		str	r2, [r7, #4]
 428 000c 3B60     		str	r3, [r7]
 500:./Libraries/STM32F4xx_HAL_Driver/Src/stm32f4xx_hal_sd.c ****   SDIO_DataInitTypeDef config;
 501:./Libraries/STM32F4xx_HAL_Driver/Src/stm32f4xx_hal_sd.c ****   uint32_t errorstate = HAL_SD_ERROR_NONE;
 429              		.loc 1 501 12
 430 000e 0023     		movs	r3, #0
 431 0010 7B63     		str	r3, [r7, #52]
 502:./Libraries/STM32F4xx_HAL_Driver/Src/stm32f4xx_hal_sd.c ****   uint32_t tickstart = HAL_GetTick();
 432              		.loc 1 502 24
 433 0012 FFF7FEFF 		bl	HAL_GetTick
 434 0016 B862     		str	r0, [r7, #40]
 503:./Libraries/STM32F4xx_HAL_Driver/Src/stm32f4xx_hal_sd.c ****   uint32_t count = 0U, *tempbuff = (uint32_t *)pData;
 435              		.loc 1 503 12
 436 0018 0023     		movs	r3, #0
 437 001a 3B63     		str	r3, [r7, #48]
 438              		.loc 1 503 25
 439 001c BB68     		ldr	r3, [r7, #8]
 440 001e FB62     		str	r3, [r7, #44]
 504:./Libraries/STM32F4xx_HAL_Driver/Src/stm32f4xx_hal_sd.c ****   
 505:./Libraries/STM32F4xx_HAL_Driver/Src/stm32f4xx_hal_sd.c ****   if(NULL == pData)
 441              		.loc 1 505 5
 442 0020 BB68     		ldr	r3, [r7, #8]
 443 0022 002B     		cmp	r3, #0
 444 0024 07D1     		bne	.L18
 506:./Libraries/STM32F4xx_HAL_Driver/Src/stm32f4xx_hal_sd.c ****   {
 507:./Libraries/STM32F4xx_HAL_Driver/Src/stm32f4xx_hal_sd.c ****     hsd->ErrorCode |= HAL_SD_ERROR_PARAM;
 445              		.loc 1 507 20
 446 0026 FB68     		ldr	r3, [r7, #12]
 447 0028 9B6B     		ldr	r3, [r3, #56]
 448 002a 43F00062 		orr	r2, r3, #134217728
 449 002e FB68     		ldr	r3, [r7, #12]
 450 0030 9A63     		str	r2, [r3, #56]
 508:./Libraries/STM32F4xx_HAL_Driver/Src/stm32f4xx_hal_sd.c ****     return HAL_ERROR;
 451              		.loc 1 508 12
 452 0032 0123     		movs	r3, #1
 453 0034 77E1     		b	.L40
 454              	.L18:
 509:./Libraries/STM32F4xx_HAL_Driver/Src/stm32f4xx_hal_sd.c ****   }
 510:./Libraries/STM32F4xx_HAL_Driver/Src/stm32f4xx_hal_sd.c ****  
 511:./Libraries/STM32F4xx_HAL_Driver/Src/stm32f4xx_hal_sd.c ****   if(hsd->State == HAL_SD_STATE_READY)
 455              		.loc 1 511 9
 456 0036 FB68     		ldr	r3, [r7, #12]
 457 0038 93F83430 		ldrb	r3, [r3, #52]
 458 003c DBB2     		uxtb	r3, r3
 459              		.loc 1 511 5
 460 003e 012B     		cmp	r3, #1
 461 0040 40F06A81 		bne	.L20
 512:./Libraries/STM32F4xx_HAL_Driver/Src/stm32f4xx_hal_sd.c ****   {
 513:./Libraries/STM32F4xx_HAL_Driver/Src/stm32f4xx_hal_sd.c ****     hsd->ErrorCode = HAL_DMA_ERROR_NONE;
 462              		.loc 1 513 20
 463 0044 FB68     		ldr	r3, [r7, #12]
 464 0046 0022     		movs	r2, #0
 465 0048 9A63     		str	r2, [r3, #56]
 514:./Libraries/STM32F4xx_HAL_Driver/Src/stm32f4xx_hal_sd.c ****     
 515:./Libraries/STM32F4xx_HAL_Driver/Src/stm32f4xx_hal_sd.c ****     if((BlockAdd + NumberOfBlocks) > (hsd->SdCard.LogBlockNbr))
ARM GAS  /tmp/ccMhfXg8.s 			page 18


 466              		.loc 1 515 18
 467 004a 7A68     		ldr	r2, [r7, #4]
 468 004c 3B68     		ldr	r3, [r7]
 469 004e 1A44     		add	r2, r2, r3
 470              		.loc 1 515 50
 471 0050 FB68     		ldr	r3, [r7, #12]
 472 0052 DB6D     		ldr	r3, [r3, #92]
 473              		.loc 1 515 7
 474 0054 9A42     		cmp	r2, r3
 475 0056 07D9     		bls	.L21
 516:./Libraries/STM32F4xx_HAL_Driver/Src/stm32f4xx_hal_sd.c ****     {
 517:./Libraries/STM32F4xx_HAL_Driver/Src/stm32f4xx_hal_sd.c ****       hsd->ErrorCode |= HAL_SD_ERROR_ADDR_OUT_OF_RANGE;
 476              		.loc 1 517 22
 477 0058 FB68     		ldr	r3, [r7, #12]
 478 005a 9B6B     		ldr	r3, [r3, #56]
 479 005c 43F00072 		orr	r2, r3, #33554432
 480 0060 FB68     		ldr	r3, [r7, #12]
 481 0062 9A63     		str	r2, [r3, #56]
 518:./Libraries/STM32F4xx_HAL_Driver/Src/stm32f4xx_hal_sd.c ****       return HAL_ERROR;
 482              		.loc 1 518 14
 483 0064 0123     		movs	r3, #1
 484 0066 5EE1     		b	.L40
 485              	.L21:
 519:./Libraries/STM32F4xx_HAL_Driver/Src/stm32f4xx_hal_sd.c ****     }
 520:./Libraries/STM32F4xx_HAL_Driver/Src/stm32f4xx_hal_sd.c ****     
 521:./Libraries/STM32F4xx_HAL_Driver/Src/stm32f4xx_hal_sd.c ****     hsd->State = HAL_SD_STATE_BUSY;
 486              		.loc 1 521 16
 487 0068 FB68     		ldr	r3, [r7, #12]
 488 006a 0322     		movs	r2, #3
 489 006c 83F83420 		strb	r2, [r3, #52]
 522:./Libraries/STM32F4xx_HAL_Driver/Src/stm32f4xx_hal_sd.c ****     
 523:./Libraries/STM32F4xx_HAL_Driver/Src/stm32f4xx_hal_sd.c ****     /* Initialize data control register */
 524:./Libraries/STM32F4xx_HAL_Driver/Src/stm32f4xx_hal_sd.c ****     hsd->Instance->DCTRL = 0U;
 490              		.loc 1 524 8
 491 0070 FB68     		ldr	r3, [r7, #12]
 492 0072 1B68     		ldr	r3, [r3]
 493              		.loc 1 524 26
 494 0074 0022     		movs	r2, #0
 495 0076 DA62     		str	r2, [r3, #44]
 525:./Libraries/STM32F4xx_HAL_Driver/Src/stm32f4xx_hal_sd.c ****     
 526:./Libraries/STM32F4xx_HAL_Driver/Src/stm32f4xx_hal_sd.c ****     if(hsd->SdCard.CardType != CARD_SDHC_SDXC)
 496              		.loc 1 526 19
 497 0078 FB68     		ldr	r3, [r7, #12]
 498 007a 5B6C     		ldr	r3, [r3, #68]
 499              		.loc 1 526 7
 500 007c 012B     		cmp	r3, #1
 501 007e 02D0     		beq	.L22
 527:./Libraries/STM32F4xx_HAL_Driver/Src/stm32f4xx_hal_sd.c ****     {
 528:./Libraries/STM32F4xx_HAL_Driver/Src/stm32f4xx_hal_sd.c ****       BlockAdd *= 512U;
 502              		.loc 1 528 16
 503 0080 7B68     		ldr	r3, [r7, #4]
 504 0082 5B02     		lsls	r3, r3, #9
 505 0084 7B60     		str	r3, [r7, #4]
 506              	.L22:
 529:./Libraries/STM32F4xx_HAL_Driver/Src/stm32f4xx_hal_sd.c ****     }
 530:./Libraries/STM32F4xx_HAL_Driver/Src/stm32f4xx_hal_sd.c ****       
 531:./Libraries/STM32F4xx_HAL_Driver/Src/stm32f4xx_hal_sd.c ****     /* Set Block Size for Card */
ARM GAS  /tmp/ccMhfXg8.s 			page 19


 532:./Libraries/STM32F4xx_HAL_Driver/Src/stm32f4xx_hal_sd.c ****     errorstate = SDMMC_CmdBlockLength(hsd->Instance, BLOCKSIZE);
 507              		.loc 1 532 18
 508 0086 FB68     		ldr	r3, [r7, #12]
 509 0088 1B68     		ldr	r3, [r3]
 510 008a 4FF40071 		mov	r1, #512
 511 008e 1846     		mov	r0, r3
 512 0090 FFF7FEFF 		bl	SDMMC_CmdBlockLength
 513 0094 7863     		str	r0, [r7, #52]
 533:./Libraries/STM32F4xx_HAL_Driver/Src/stm32f4xx_hal_sd.c ****     if(errorstate != HAL_SD_ERROR_NONE)
 514              		.loc 1 533 7
 515 0096 7B6B     		ldr	r3, [r7, #52]
 516 0098 002B     		cmp	r3, #0
 517 009a 10D0     		beq	.L23
 534:./Libraries/STM32F4xx_HAL_Driver/Src/stm32f4xx_hal_sd.c ****     {
 535:./Libraries/STM32F4xx_HAL_Driver/Src/stm32f4xx_hal_sd.c ****       /* Clear all the static flags */
 536:./Libraries/STM32F4xx_HAL_Driver/Src/stm32f4xx_hal_sd.c ****       __HAL_SD_CLEAR_FLAG(hsd, SDIO_STATIC_FLAGS);      
 518              		.loc 1 536 7
 519 009c FB68     		ldr	r3, [r7, #12]
 520 009e 1B68     		ldr	r3, [r3]
 521 00a0 40F2FF52 		movw	r2, #1535
 522 00a4 9A63     		str	r2, [r3, #56]
 537:./Libraries/STM32F4xx_HAL_Driver/Src/stm32f4xx_hal_sd.c ****       hsd->ErrorCode |= errorstate;
 523              		.loc 1 537 22
 524 00a6 FB68     		ldr	r3, [r7, #12]
 525 00a8 9A6B     		ldr	r2, [r3, #56]
 526 00aa 7B6B     		ldr	r3, [r7, #52]
 527 00ac 1A43     		orrs	r2, r2, r3
 528 00ae FB68     		ldr	r3, [r7, #12]
 529 00b0 9A63     		str	r2, [r3, #56]
 538:./Libraries/STM32F4xx_HAL_Driver/Src/stm32f4xx_hal_sd.c ****       hsd->State = HAL_SD_STATE_READY;
 530              		.loc 1 538 18
 531 00b2 FB68     		ldr	r3, [r7, #12]
 532 00b4 0122     		movs	r2, #1
 533 00b6 83F83420 		strb	r2, [r3, #52]
 539:./Libraries/STM32F4xx_HAL_Driver/Src/stm32f4xx_hal_sd.c ****       return HAL_ERROR;
 534              		.loc 1 539 14
 535 00ba 0123     		movs	r3, #1
 536 00bc 33E1     		b	.L40
 537              	.L23:
 540:./Libraries/STM32F4xx_HAL_Driver/Src/stm32f4xx_hal_sd.c ****     }
 541:./Libraries/STM32F4xx_HAL_Driver/Src/stm32f4xx_hal_sd.c ****     
 542:./Libraries/STM32F4xx_HAL_Driver/Src/stm32f4xx_hal_sd.c ****     /* Configure the SD DPSM (Data Path State Machine) */
 543:./Libraries/STM32F4xx_HAL_Driver/Src/stm32f4xx_hal_sd.c ****     config.DataTimeOut   = SDMMC_DATATIMEOUT;
 538              		.loc 1 543 26
 539 00be 4FF0FF33 		mov	r3, #-1
 540 00c2 3B61     		str	r3, [r7, #16]
 544:./Libraries/STM32F4xx_HAL_Driver/Src/stm32f4xx_hal_sd.c ****     config.DataLength    = NumberOfBlocks * BLOCKSIZE;
 541              		.loc 1 544 43
 542 00c4 3B68     		ldr	r3, [r7]
 543 00c6 5B02     		lsls	r3, r3, #9
 544              		.loc 1 544 26
 545 00c8 7B61     		str	r3, [r7, #20]
 545:./Libraries/STM32F4xx_HAL_Driver/Src/stm32f4xx_hal_sd.c ****     config.DataBlockSize = SDIO_DATABLOCK_SIZE_512B;
 546              		.loc 1 545 26
 547 00ca 9023     		movs	r3, #144
 548 00cc BB61     		str	r3, [r7, #24]
 546:./Libraries/STM32F4xx_HAL_Driver/Src/stm32f4xx_hal_sd.c ****     config.TransferDir   = SDIO_TRANSFER_DIR_TO_SDIO;
ARM GAS  /tmp/ccMhfXg8.s 			page 20


 549              		.loc 1 546 26
 550 00ce 0223     		movs	r3, #2
 551 00d0 FB61     		str	r3, [r7, #28]
 547:./Libraries/STM32F4xx_HAL_Driver/Src/stm32f4xx_hal_sd.c ****     config.TransferMode  = SDIO_TRANSFER_MODE_BLOCK;
 552              		.loc 1 547 26
 553 00d2 0023     		movs	r3, #0
 554 00d4 3B62     		str	r3, [r7, #32]
 548:./Libraries/STM32F4xx_HAL_Driver/Src/stm32f4xx_hal_sd.c ****     config.DPSM          = SDIO_DPSM_ENABLE;
 555              		.loc 1 548 26
 556 00d6 0123     		movs	r3, #1
 557 00d8 7B62     		str	r3, [r7, #36]
 549:./Libraries/STM32F4xx_HAL_Driver/Src/stm32f4xx_hal_sd.c ****     SDIO_ConfigData(hsd->Instance, &config);
 558              		.loc 1 549 5
 559 00da FB68     		ldr	r3, [r7, #12]
 560 00dc 1B68     		ldr	r3, [r3]
 561 00de 07F11002 		add	r2, r7, #16
 562 00e2 1146     		mov	r1, r2
 563 00e4 1846     		mov	r0, r3
 564 00e6 FFF7FEFF 		bl	SDIO_ConfigData
 550:./Libraries/STM32F4xx_HAL_Driver/Src/stm32f4xx_hal_sd.c ****     
 551:./Libraries/STM32F4xx_HAL_Driver/Src/stm32f4xx_hal_sd.c ****     /* Read block(s) in polling mode */
 552:./Libraries/STM32F4xx_HAL_Driver/Src/stm32f4xx_hal_sd.c ****     if(NumberOfBlocks > 1U)
 565              		.loc 1 552 7
 566 00ea 3B68     		ldr	r3, [r7]
 567 00ec 012B     		cmp	r3, #1
 568 00ee 0AD9     		bls	.L24
 553:./Libraries/STM32F4xx_HAL_Driver/Src/stm32f4xx_hal_sd.c ****     {
 554:./Libraries/STM32F4xx_HAL_Driver/Src/stm32f4xx_hal_sd.c ****       hsd->Context = SD_CONTEXT_READ_MULTIPLE_BLOCK;
 569              		.loc 1 554 20
 570 00f0 FB68     		ldr	r3, [r7, #12]
 571 00f2 0222     		movs	r2, #2
 572 00f4 1A63     		str	r2, [r3, #48]
 555:./Libraries/STM32F4xx_HAL_Driver/Src/stm32f4xx_hal_sd.c ****       
 556:./Libraries/STM32F4xx_HAL_Driver/Src/stm32f4xx_hal_sd.c ****       /* Read Multi Block command */ 
 557:./Libraries/STM32F4xx_HAL_Driver/Src/stm32f4xx_hal_sd.c ****       errorstate = SDMMC_CmdReadMultiBlock(hsd->Instance, BlockAdd);
 573              		.loc 1 557 20
 574 00f6 FB68     		ldr	r3, [r7, #12]
 575 00f8 1B68     		ldr	r3, [r3]
 576 00fa 7968     		ldr	r1, [r7, #4]
 577 00fc 1846     		mov	r0, r3
 578 00fe FFF7FEFF 		bl	SDMMC_CmdReadMultiBlock
 579 0102 7863     		str	r0, [r7, #52]
 580 0104 09E0     		b	.L25
 581              	.L24:
 558:./Libraries/STM32F4xx_HAL_Driver/Src/stm32f4xx_hal_sd.c ****     }
 559:./Libraries/STM32F4xx_HAL_Driver/Src/stm32f4xx_hal_sd.c ****     else
 560:./Libraries/STM32F4xx_HAL_Driver/Src/stm32f4xx_hal_sd.c ****     {
 561:./Libraries/STM32F4xx_HAL_Driver/Src/stm32f4xx_hal_sd.c ****       hsd->Context = SD_CONTEXT_READ_SINGLE_BLOCK;
 582              		.loc 1 561 20
 583 0106 FB68     		ldr	r3, [r7, #12]
 584 0108 0122     		movs	r2, #1
 585 010a 1A63     		str	r2, [r3, #48]
 562:./Libraries/STM32F4xx_HAL_Driver/Src/stm32f4xx_hal_sd.c ****       
 563:./Libraries/STM32F4xx_HAL_Driver/Src/stm32f4xx_hal_sd.c ****       /* Read Single Block command */
 564:./Libraries/STM32F4xx_HAL_Driver/Src/stm32f4xx_hal_sd.c ****       errorstate = SDMMC_CmdReadSingleBlock(hsd->Instance, BlockAdd);
 586              		.loc 1 564 20
 587 010c FB68     		ldr	r3, [r7, #12]
ARM GAS  /tmp/ccMhfXg8.s 			page 21


 588 010e 1B68     		ldr	r3, [r3]
 589 0110 7968     		ldr	r1, [r7, #4]
 590 0112 1846     		mov	r0, r3
 591 0114 FFF7FEFF 		bl	SDMMC_CmdReadSingleBlock
 592 0118 7863     		str	r0, [r7, #52]
 593              	.L25:
 565:./Libraries/STM32F4xx_HAL_Driver/Src/stm32f4xx_hal_sd.c ****     }
 566:./Libraries/STM32F4xx_HAL_Driver/Src/stm32f4xx_hal_sd.c ****     if(errorstate != HAL_SD_ERROR_NONE)
 594              		.loc 1 566 7
 595 011a 7B6B     		ldr	r3, [r7, #52]
 596 011c 002B     		cmp	r3, #0
 597 011e 4AD0     		beq	.L27
 567:./Libraries/STM32F4xx_HAL_Driver/Src/stm32f4xx_hal_sd.c ****     {
 568:./Libraries/STM32F4xx_HAL_Driver/Src/stm32f4xx_hal_sd.c ****       /* Clear all the static flags */
 569:./Libraries/STM32F4xx_HAL_Driver/Src/stm32f4xx_hal_sd.c ****       __HAL_SD_CLEAR_FLAG(hsd, SDIO_STATIC_FLAGS);
 598              		.loc 1 569 7
 599 0120 FB68     		ldr	r3, [r7, #12]
 600 0122 1B68     		ldr	r3, [r3]
 601 0124 40F2FF52 		movw	r2, #1535
 602 0128 9A63     		str	r2, [r3, #56]
 570:./Libraries/STM32F4xx_HAL_Driver/Src/stm32f4xx_hal_sd.c ****       hsd->ErrorCode |= errorstate;
 603              		.loc 1 570 22
 604 012a FB68     		ldr	r3, [r7, #12]
 605 012c 9A6B     		ldr	r2, [r3, #56]
 606 012e 7B6B     		ldr	r3, [r7, #52]
 607 0130 1A43     		orrs	r2, r2, r3
 608 0132 FB68     		ldr	r3, [r7, #12]
 609 0134 9A63     		str	r2, [r3, #56]
 571:./Libraries/STM32F4xx_HAL_Driver/Src/stm32f4xx_hal_sd.c ****       hsd->State = HAL_SD_STATE_READY;
 610              		.loc 1 571 18
 611 0136 FB68     		ldr	r3, [r7, #12]
 612 0138 0122     		movs	r2, #1
 613 013a 83F83420 		strb	r2, [r3, #52]
 572:./Libraries/STM32F4xx_HAL_Driver/Src/stm32f4xx_hal_sd.c ****       return HAL_ERROR;
 614              		.loc 1 572 14
 615 013e 0123     		movs	r3, #1
 616 0140 F1E0     		b	.L40
 617              	.L32:
 573:./Libraries/STM32F4xx_HAL_Driver/Src/stm32f4xx_hal_sd.c ****     }
 574:./Libraries/STM32F4xx_HAL_Driver/Src/stm32f4xx_hal_sd.c ****       
 575:./Libraries/STM32F4xx_HAL_Driver/Src/stm32f4xx_hal_sd.c ****     /* Poll on SDIO flags */
 576:./Libraries/STM32F4xx_HAL_Driver/Src/stm32f4xx_hal_sd.c **** #ifdef SDIO_STA_STBITERR
 577:./Libraries/STM32F4xx_HAL_Driver/Src/stm32f4xx_hal_sd.c ****     while(!__HAL_SD_GET_FLAG(hsd, SDIO_FLAG_RXOVERR | SDIO_FLAG_DCRCFAIL | SDIO_FLAG_DTIMEOUT | SDI
 578:./Libraries/STM32F4xx_HAL_Driver/Src/stm32f4xx_hal_sd.c **** #else /* SDIO_STA_STBITERR not defined */
 579:./Libraries/STM32F4xx_HAL_Driver/Src/stm32f4xx_hal_sd.c ****     while(!__HAL_SD_GET_FLAG(hsd, SDIO_FLAG_RXOVERR | SDIO_FLAG_DCRCFAIL | SDIO_FLAG_DTIMEOUT | SDI
 580:./Libraries/STM32F4xx_HAL_Driver/Src/stm32f4xx_hal_sd.c **** #endif /* SDIO_STA_STBITERR */
 581:./Libraries/STM32F4xx_HAL_Driver/Src/stm32f4xx_hal_sd.c ****     {
 582:./Libraries/STM32F4xx_HAL_Driver/Src/stm32f4xx_hal_sd.c ****       if(__HAL_SD_GET_FLAG(hsd, SDIO_FLAG_RXFIFOHF))
 618              		.loc 1 582 10
 619 0142 FB68     		ldr	r3, [r7, #12]
 620 0144 1B68     		ldr	r3, [r3]
 621 0146 5B6B     		ldr	r3, [r3, #52]
 622 0148 03F40043 		and	r3, r3, #32768
 623              		.loc 1 582 9
 624 014c 002B     		cmp	r3, #0
 625 014e 16D0     		beq	.L28
 583:./Libraries/STM32F4xx_HAL_Driver/Src/stm32f4xx_hal_sd.c ****       {
ARM GAS  /tmp/ccMhfXg8.s 			page 22


 584:./Libraries/STM32F4xx_HAL_Driver/Src/stm32f4xx_hal_sd.c ****         /* Read data from SDIO Rx FIFO */
 585:./Libraries/STM32F4xx_HAL_Driver/Src/stm32f4xx_hal_sd.c ****         for(count = 0U; count < 8U; count++)
 626              		.loc 1 585 19
 627 0150 0023     		movs	r3, #0
 628 0152 3B63     		str	r3, [r7, #48]
 629              		.loc 1 585 9
 630 0154 0DE0     		b	.L29
 631              	.L30:
 586:./Libraries/STM32F4xx_HAL_Driver/Src/stm32f4xx_hal_sd.c ****         {
 587:./Libraries/STM32F4xx_HAL_Driver/Src/stm32f4xx_hal_sd.c ****           *(tempbuff + count) = SDIO_ReadFIFO(hsd->Instance);
 632              		.loc 1 587 33 discriminator 3
 633 0156 FB68     		ldr	r3, [r7, #12]
 634 0158 1968     		ldr	r1, [r3]
 635              		.loc 1 587 22 discriminator 3
 636 015a 3B6B     		ldr	r3, [r7, #48]
 637 015c 9B00     		lsls	r3, r3, #2
 638 015e FA6A     		ldr	r2, [r7, #44]
 639 0160 D418     		adds	r4, r2, r3
 640              		.loc 1 587 33 discriminator 3
 641 0162 0846     		mov	r0, r1
 642 0164 FFF7FEFF 		bl	SDIO_ReadFIFO
 643 0168 0346     		mov	r3, r0
 644              		.loc 1 587 31 discriminator 3
 645 016a 2360     		str	r3, [r4]
 585:./Libraries/STM32F4xx_HAL_Driver/Src/stm32f4xx_hal_sd.c ****         {
 646              		.loc 1 585 42 discriminator 3
 647 016c 3B6B     		ldr	r3, [r7, #48]
 648 016e 0133     		adds	r3, r3, #1
 649 0170 3B63     		str	r3, [r7, #48]
 650              	.L29:
 585:./Libraries/STM32F4xx_HAL_Driver/Src/stm32f4xx_hal_sd.c ****         {
 651              		.loc 1 585 9 discriminator 1
 652 0172 3B6B     		ldr	r3, [r7, #48]
 653 0174 072B     		cmp	r3, #7
 654 0176 EED9     		bls	.L30
 588:./Libraries/STM32F4xx_HAL_Driver/Src/stm32f4xx_hal_sd.c ****         }
 589:./Libraries/STM32F4xx_HAL_Driver/Src/stm32f4xx_hal_sd.c ****         tempbuff += 8U;
 655              		.loc 1 589 18
 656 0178 FB6A     		ldr	r3, [r7, #44]
 657 017a 2033     		adds	r3, r3, #32
 658 017c FB62     		str	r3, [r7, #44]
 659              	.L28:
 590:./Libraries/STM32F4xx_HAL_Driver/Src/stm32f4xx_hal_sd.c ****       }
 591:./Libraries/STM32F4xx_HAL_Driver/Src/stm32f4xx_hal_sd.c ****       
 592:./Libraries/STM32F4xx_HAL_Driver/Src/stm32f4xx_hal_sd.c ****       if((Timeout == 0U)||((HAL_GetTick()-tickstart) >=  Timeout))
 660              		.loc 1 592 9
 661 017e BB6C     		ldr	r3, [r7, #72]
 662 0180 002B     		cmp	r3, #0
 663 0182 07D0     		beq	.L31
 664              		.loc 1 592 29 discriminator 1
 665 0184 FFF7FEFF 		bl	HAL_GetTick
 666 0188 0246     		mov	r2, r0
 667              		.loc 1 592 42 discriminator 1
 668 018a BB6A     		ldr	r3, [r7, #40]
 669 018c D31A     		subs	r3, r2, r3
 670              		.loc 1 592 25 discriminator 1
 671 018e BA6C     		ldr	r2, [r7, #72]
ARM GAS  /tmp/ccMhfXg8.s 			page 23


 672 0190 9A42     		cmp	r2, r3
 673 0192 10D8     		bhi	.L27
 674              	.L31:
 593:./Libraries/STM32F4xx_HAL_Driver/Src/stm32f4xx_hal_sd.c ****       {
 594:./Libraries/STM32F4xx_HAL_Driver/Src/stm32f4xx_hal_sd.c ****         /* Clear all the static flags */
 595:./Libraries/STM32F4xx_HAL_Driver/Src/stm32f4xx_hal_sd.c ****         __HAL_SD_CLEAR_FLAG(hsd, SDIO_STATIC_FLAGS);
 675              		.loc 1 595 9
 676 0194 FB68     		ldr	r3, [r7, #12]
 677 0196 1B68     		ldr	r3, [r3]
 678 0198 40F2FF52 		movw	r2, #1535
 679 019c 9A63     		str	r2, [r3, #56]
 596:./Libraries/STM32F4xx_HAL_Driver/Src/stm32f4xx_hal_sd.c ****         hsd->ErrorCode |= HAL_SD_ERROR_TIMEOUT;
 680              		.loc 1 596 24
 681 019e FB68     		ldr	r3, [r7, #12]
 682 01a0 9B6B     		ldr	r3, [r3, #56]
 683 01a2 43F00042 		orr	r2, r3, #-2147483648
 684 01a6 FB68     		ldr	r3, [r7, #12]
 685 01a8 9A63     		str	r2, [r3, #56]
 597:./Libraries/STM32F4xx_HAL_Driver/Src/stm32f4xx_hal_sd.c ****         hsd->State= HAL_SD_STATE_READY;
 686              		.loc 1 597 19
 687 01aa FB68     		ldr	r3, [r7, #12]
 688 01ac 0122     		movs	r2, #1
 689 01ae 83F83420 		strb	r2, [r3, #52]
 598:./Libraries/STM32F4xx_HAL_Driver/Src/stm32f4xx_hal_sd.c ****         return HAL_TIMEOUT;
 690              		.loc 1 598 16
 691 01b2 0323     		movs	r3, #3
 692 01b4 B7E0     		b	.L40
 693              	.L27:
 577:./Libraries/STM32F4xx_HAL_Driver/Src/stm32f4xx_hal_sd.c **** #else /* SDIO_STA_STBITERR not defined */
 694              		.loc 1 577 12
 695 01b6 FB68     		ldr	r3, [r7, #12]
 696 01b8 1B68     		ldr	r3, [r3]
 697 01ba 5A6B     		ldr	r2, [r3, #52]
 698 01bc 40F22A33 		movw	r3, #810
 699 01c0 1340     		ands	r3, r3, r2
 577:./Libraries/STM32F4xx_HAL_Driver/Src/stm32f4xx_hal_sd.c **** #else /* SDIO_STA_STBITERR not defined */
 700              		.loc 1 577 10
 701 01c2 002B     		cmp	r3, #0
 702 01c4 BDD0     		beq	.L32
 599:./Libraries/STM32F4xx_HAL_Driver/Src/stm32f4xx_hal_sd.c ****       }
 600:./Libraries/STM32F4xx_HAL_Driver/Src/stm32f4xx_hal_sd.c ****     }
 601:./Libraries/STM32F4xx_HAL_Driver/Src/stm32f4xx_hal_sd.c ****     
 602:./Libraries/STM32F4xx_HAL_Driver/Src/stm32f4xx_hal_sd.c ****     /* Send stop transmission command in case of multiblock read */
 603:./Libraries/STM32F4xx_HAL_Driver/Src/stm32f4xx_hal_sd.c ****     if(__HAL_SD_GET_FLAG(hsd, SDIO_FLAG_DATAEND) && (NumberOfBlocks > 1U))
 703              		.loc 1 603 8
 704 01c6 FB68     		ldr	r3, [r7, #12]
 705 01c8 1B68     		ldr	r3, [r3]
 706 01ca 5B6B     		ldr	r3, [r3, #52]
 707 01cc 03F48073 		and	r3, r3, #256
 708              		.loc 1 603 7
 709 01d0 002B     		cmp	r3, #0
 710 01d2 20D0     		beq	.L33
 711              		.loc 1 603 50 discriminator 1
 712 01d4 3B68     		ldr	r3, [r7]
 713 01d6 012B     		cmp	r3, #1
 714 01d8 1DD9     		bls	.L33
 604:./Libraries/STM32F4xx_HAL_Driver/Src/stm32f4xx_hal_sd.c ****     {    
ARM GAS  /tmp/ccMhfXg8.s 			page 24


 605:./Libraries/STM32F4xx_HAL_Driver/Src/stm32f4xx_hal_sd.c ****       if(hsd->SdCard.CardType != CARD_SECURED)
 715              		.loc 1 605 21
 716 01da FB68     		ldr	r3, [r7, #12]
 717 01dc 5B6C     		ldr	r3, [r3, #68]
 718              		.loc 1 605 9
 719 01de 032B     		cmp	r3, #3
 720 01e0 19D0     		beq	.L33
 606:./Libraries/STM32F4xx_HAL_Driver/Src/stm32f4xx_hal_sd.c ****       {
 607:./Libraries/STM32F4xx_HAL_Driver/Src/stm32f4xx_hal_sd.c ****         /* Send stop transmission command */
 608:./Libraries/STM32F4xx_HAL_Driver/Src/stm32f4xx_hal_sd.c ****         errorstate = SDMMC_CmdStopTransfer(hsd->Instance);
 721              		.loc 1 608 22
 722 01e2 FB68     		ldr	r3, [r7, #12]
 723 01e4 1B68     		ldr	r3, [r3]
 724 01e6 1846     		mov	r0, r3
 725 01e8 FFF7FEFF 		bl	SDMMC_CmdStopTransfer
 726 01ec 7863     		str	r0, [r7, #52]
 609:./Libraries/STM32F4xx_HAL_Driver/Src/stm32f4xx_hal_sd.c ****         if(errorstate != HAL_SD_ERROR_NONE)
 727              		.loc 1 609 11
 728 01ee 7B6B     		ldr	r3, [r7, #52]
 729 01f0 002B     		cmp	r3, #0
 730 01f2 10D0     		beq	.L33
 610:./Libraries/STM32F4xx_HAL_Driver/Src/stm32f4xx_hal_sd.c ****         {
 611:./Libraries/STM32F4xx_HAL_Driver/Src/stm32f4xx_hal_sd.c ****           /* Clear all the static flags */
 612:./Libraries/STM32F4xx_HAL_Driver/Src/stm32f4xx_hal_sd.c ****           __HAL_SD_CLEAR_FLAG(hsd, SDIO_STATIC_FLAGS);
 731              		.loc 1 612 11
 732 01f4 FB68     		ldr	r3, [r7, #12]
 733 01f6 1B68     		ldr	r3, [r3]
 734 01f8 40F2FF52 		movw	r2, #1535
 735 01fc 9A63     		str	r2, [r3, #56]
 613:./Libraries/STM32F4xx_HAL_Driver/Src/stm32f4xx_hal_sd.c ****           hsd->ErrorCode |= errorstate;
 736              		.loc 1 613 26
 737 01fe FB68     		ldr	r3, [r7, #12]
 738 0200 9A6B     		ldr	r2, [r3, #56]
 739 0202 7B6B     		ldr	r3, [r7, #52]
 740 0204 1A43     		orrs	r2, r2, r3
 741 0206 FB68     		ldr	r3, [r7, #12]
 742 0208 9A63     		str	r2, [r3, #56]
 614:./Libraries/STM32F4xx_HAL_Driver/Src/stm32f4xx_hal_sd.c ****           hsd->State = HAL_SD_STATE_READY;
 743              		.loc 1 614 22
 744 020a FB68     		ldr	r3, [r7, #12]
 745 020c 0122     		movs	r2, #1
 746 020e 83F83420 		strb	r2, [r3, #52]
 615:./Libraries/STM32F4xx_HAL_Driver/Src/stm32f4xx_hal_sd.c ****           return HAL_ERROR;
 747              		.loc 1 615 18
 748 0212 0123     		movs	r3, #1
 749 0214 87E0     		b	.L40
 750              	.L33:
 616:./Libraries/STM32F4xx_HAL_Driver/Src/stm32f4xx_hal_sd.c ****         }
 617:./Libraries/STM32F4xx_HAL_Driver/Src/stm32f4xx_hal_sd.c ****       }
 618:./Libraries/STM32F4xx_HAL_Driver/Src/stm32f4xx_hal_sd.c ****     }
 619:./Libraries/STM32F4xx_HAL_Driver/Src/stm32f4xx_hal_sd.c ****     
 620:./Libraries/STM32F4xx_HAL_Driver/Src/stm32f4xx_hal_sd.c ****     /* Get error state */
 621:./Libraries/STM32F4xx_HAL_Driver/Src/stm32f4xx_hal_sd.c ****     if(__HAL_SD_GET_FLAG(hsd, SDIO_FLAG_DTIMEOUT))
 751              		.loc 1 621 8
 752 0216 FB68     		ldr	r3, [r7, #12]
 753 0218 1B68     		ldr	r3, [r3]
 754 021a 5B6B     		ldr	r3, [r3, #52]
ARM GAS  /tmp/ccMhfXg8.s 			page 25


 755 021c 03F00803 		and	r3, r3, #8
 756              		.loc 1 621 7
 757 0220 002B     		cmp	r3, #0
 758 0222 10D0     		beq	.L34
 622:./Libraries/STM32F4xx_HAL_Driver/Src/stm32f4xx_hal_sd.c ****     {
 623:./Libraries/STM32F4xx_HAL_Driver/Src/stm32f4xx_hal_sd.c ****       /* Clear all the static flags */
 624:./Libraries/STM32F4xx_HAL_Driver/Src/stm32f4xx_hal_sd.c ****       __HAL_SD_CLEAR_FLAG(hsd, SDIO_STATIC_FLAGS);
 759              		.loc 1 624 7
 760 0224 FB68     		ldr	r3, [r7, #12]
 761 0226 1B68     		ldr	r3, [r3]
 762 0228 40F2FF52 		movw	r2, #1535
 763 022c 9A63     		str	r2, [r3, #56]
 625:./Libraries/STM32F4xx_HAL_Driver/Src/stm32f4xx_hal_sd.c ****       hsd->ErrorCode |= HAL_SD_ERROR_DATA_TIMEOUT;
 764              		.loc 1 625 22
 765 022e FB68     		ldr	r3, [r7, #12]
 766 0230 9B6B     		ldr	r3, [r3, #56]
 767 0232 43F00802 		orr	r2, r3, #8
 768 0236 FB68     		ldr	r3, [r7, #12]
 769 0238 9A63     		str	r2, [r3, #56]
 626:./Libraries/STM32F4xx_HAL_Driver/Src/stm32f4xx_hal_sd.c ****       hsd->State = HAL_SD_STATE_READY;
 770              		.loc 1 626 18
 771 023a FB68     		ldr	r3, [r7, #12]
 772 023c 0122     		movs	r2, #1
 773 023e 83F83420 		strb	r2, [r3, #52]
 627:./Libraries/STM32F4xx_HAL_Driver/Src/stm32f4xx_hal_sd.c ****       return HAL_ERROR;
 774              		.loc 1 627 14
 775 0242 0123     		movs	r3, #1
 776 0244 6FE0     		b	.L40
 777              	.L34:
 628:./Libraries/STM32F4xx_HAL_Driver/Src/stm32f4xx_hal_sd.c ****     }
 629:./Libraries/STM32F4xx_HAL_Driver/Src/stm32f4xx_hal_sd.c ****     else if(__HAL_SD_GET_FLAG(hsd, SDIO_FLAG_DCRCFAIL))
 778              		.loc 1 629 13
 779 0246 FB68     		ldr	r3, [r7, #12]
 780 0248 1B68     		ldr	r3, [r3]
 781 024a 5B6B     		ldr	r3, [r3, #52]
 782 024c 03F00203 		and	r3, r3, #2
 783              		.loc 1 629 12
 784 0250 002B     		cmp	r3, #0
 785 0252 10D0     		beq	.L35
 630:./Libraries/STM32F4xx_HAL_Driver/Src/stm32f4xx_hal_sd.c ****     {
 631:./Libraries/STM32F4xx_HAL_Driver/Src/stm32f4xx_hal_sd.c ****       /* Clear all the static flags */
 632:./Libraries/STM32F4xx_HAL_Driver/Src/stm32f4xx_hal_sd.c ****       __HAL_SD_CLEAR_FLAG(hsd, SDIO_STATIC_FLAGS);
 786              		.loc 1 632 7
 787 0254 FB68     		ldr	r3, [r7, #12]
 788 0256 1B68     		ldr	r3, [r3]
 789 0258 40F2FF52 		movw	r2, #1535
 790 025c 9A63     		str	r2, [r3, #56]
 633:./Libraries/STM32F4xx_HAL_Driver/Src/stm32f4xx_hal_sd.c ****       hsd->ErrorCode |= HAL_SD_ERROR_DATA_CRC_FAIL;
 791              		.loc 1 633 22
 792 025e FB68     		ldr	r3, [r7, #12]
 793 0260 9B6B     		ldr	r3, [r3, #56]
 794 0262 43F00202 		orr	r2, r3, #2
 795 0266 FB68     		ldr	r3, [r7, #12]
 796 0268 9A63     		str	r2, [r3, #56]
 634:./Libraries/STM32F4xx_HAL_Driver/Src/stm32f4xx_hal_sd.c ****       hsd->State = HAL_SD_STATE_READY;
 797              		.loc 1 634 18
 798 026a FB68     		ldr	r3, [r7, #12]
ARM GAS  /tmp/ccMhfXg8.s 			page 26


 799 026c 0122     		movs	r2, #1
 800 026e 83F83420 		strb	r2, [r3, #52]
 635:./Libraries/STM32F4xx_HAL_Driver/Src/stm32f4xx_hal_sd.c ****       return HAL_ERROR;
 801              		.loc 1 635 14
 802 0272 0123     		movs	r3, #1
 803 0274 57E0     		b	.L40
 804              	.L35:
 636:./Libraries/STM32F4xx_HAL_Driver/Src/stm32f4xx_hal_sd.c ****     }
 637:./Libraries/STM32F4xx_HAL_Driver/Src/stm32f4xx_hal_sd.c ****     else if(__HAL_SD_GET_FLAG(hsd, SDIO_FLAG_RXOVERR))
 805              		.loc 1 637 13
 806 0276 FB68     		ldr	r3, [r7, #12]
 807 0278 1B68     		ldr	r3, [r3]
 808 027a 5B6B     		ldr	r3, [r3, #52]
 809 027c 03F02003 		and	r3, r3, #32
 810              		.loc 1 637 12
 811 0280 002B     		cmp	r3, #0
 812 0282 37D0     		beq	.L37
 638:./Libraries/STM32F4xx_HAL_Driver/Src/stm32f4xx_hal_sd.c ****     {
 639:./Libraries/STM32F4xx_HAL_Driver/Src/stm32f4xx_hal_sd.c ****       /* Clear all the static flags */
 640:./Libraries/STM32F4xx_HAL_Driver/Src/stm32f4xx_hal_sd.c ****       __HAL_SD_CLEAR_FLAG(hsd, SDIO_STATIC_FLAGS);
 813              		.loc 1 640 7
 814 0284 FB68     		ldr	r3, [r7, #12]
 815 0286 1B68     		ldr	r3, [r3]
 816 0288 40F2FF52 		movw	r2, #1535
 817 028c 9A63     		str	r2, [r3, #56]
 641:./Libraries/STM32F4xx_HAL_Driver/Src/stm32f4xx_hal_sd.c ****       hsd->ErrorCode |= HAL_SD_ERROR_RX_OVERRUN;
 818              		.loc 1 641 22
 819 028e FB68     		ldr	r3, [r7, #12]
 820 0290 9B6B     		ldr	r3, [r3, #56]
 821 0292 43F02002 		orr	r2, r3, #32
 822 0296 FB68     		ldr	r3, [r7, #12]
 823 0298 9A63     		str	r2, [r3, #56]
 642:./Libraries/STM32F4xx_HAL_Driver/Src/stm32f4xx_hal_sd.c ****       hsd->State = HAL_SD_STATE_READY;
 824              		.loc 1 642 18
 825 029a FB68     		ldr	r3, [r7, #12]
 826 029c 0122     		movs	r2, #1
 827 029e 83F83420 		strb	r2, [r3, #52]
 643:./Libraries/STM32F4xx_HAL_Driver/Src/stm32f4xx_hal_sd.c ****       return HAL_ERROR;
 828              		.loc 1 643 14
 829 02a2 0123     		movs	r3, #1
 830 02a4 3FE0     		b	.L40
 831              	.L39:
 644:./Libraries/STM32F4xx_HAL_Driver/Src/stm32f4xx_hal_sd.c ****     }
 645:./Libraries/STM32F4xx_HAL_Driver/Src/stm32f4xx_hal_sd.c ****     
 646:./Libraries/STM32F4xx_HAL_Driver/Src/stm32f4xx_hal_sd.c ****     /* Empty FIFO if there is still any data */
 647:./Libraries/STM32F4xx_HAL_Driver/Src/stm32f4xx_hal_sd.c ****     while ((__HAL_SD_GET_FLAG(hsd, SDIO_FLAG_RXDAVL)))
 648:./Libraries/STM32F4xx_HAL_Driver/Src/stm32f4xx_hal_sd.c ****     {
 649:./Libraries/STM32F4xx_HAL_Driver/Src/stm32f4xx_hal_sd.c ****       *tempbuff = SDIO_ReadFIFO(hsd->Instance);
 832              		.loc 1 649 19
 833 02a6 FB68     		ldr	r3, [r7, #12]
 834 02a8 1B68     		ldr	r3, [r3]
 835 02aa 1846     		mov	r0, r3
 836 02ac FFF7FEFF 		bl	SDIO_ReadFIFO
 837 02b0 0246     		mov	r2, r0
 838              		.loc 1 649 17
 839 02b2 FB6A     		ldr	r3, [r7, #44]
 840 02b4 1A60     		str	r2, [r3]
ARM GAS  /tmp/ccMhfXg8.s 			page 27


 650:./Libraries/STM32F4xx_HAL_Driver/Src/stm32f4xx_hal_sd.c ****       tempbuff++;
 841              		.loc 1 650 15
 842 02b6 FB6A     		ldr	r3, [r7, #44]
 843 02b8 0433     		adds	r3, r3, #4
 844 02ba FB62     		str	r3, [r7, #44]
 651:./Libraries/STM32F4xx_HAL_Driver/Src/stm32f4xx_hal_sd.c ****       
 652:./Libraries/STM32F4xx_HAL_Driver/Src/stm32f4xx_hal_sd.c ****       if((Timeout == 0U)||((HAL_GetTick()-tickstart) >=  Timeout))
 845              		.loc 1 652 9
 846 02bc BB6C     		ldr	r3, [r7, #72]
 847 02be 002B     		cmp	r3, #0
 848 02c0 07D0     		beq	.L38
 849              		.loc 1 652 29 discriminator 1
 850 02c2 FFF7FEFF 		bl	HAL_GetTick
 851 02c6 0246     		mov	r2, r0
 852              		.loc 1 652 42 discriminator 1
 853 02c8 BB6A     		ldr	r3, [r7, #40]
 854 02ca D31A     		subs	r3, r2, r3
 855              		.loc 1 652 25 discriminator 1
 856 02cc BA6C     		ldr	r2, [r7, #72]
 857 02ce 9A42     		cmp	r2, r3
 858 02d0 10D8     		bhi	.L37
 859              	.L38:
 653:./Libraries/STM32F4xx_HAL_Driver/Src/stm32f4xx_hal_sd.c ****       {
 654:./Libraries/STM32F4xx_HAL_Driver/Src/stm32f4xx_hal_sd.c ****         /* Clear all the static flags */
 655:./Libraries/STM32F4xx_HAL_Driver/Src/stm32f4xx_hal_sd.c ****         __HAL_SD_CLEAR_FLAG(hsd, SDIO_STATIC_FLAGS);        
 860              		.loc 1 655 9
 861 02d2 FB68     		ldr	r3, [r7, #12]
 862 02d4 1B68     		ldr	r3, [r3]
 863 02d6 40F2FF52 		movw	r2, #1535
 864 02da 9A63     		str	r2, [r3, #56]
 656:./Libraries/STM32F4xx_HAL_Driver/Src/stm32f4xx_hal_sd.c ****         hsd->ErrorCode |= HAL_SD_ERROR_TIMEOUT;
 865              		.loc 1 656 24
 866 02dc FB68     		ldr	r3, [r7, #12]
 867 02de 9B6B     		ldr	r3, [r3, #56]
 868 02e0 43F00042 		orr	r2, r3, #-2147483648
 869 02e4 FB68     		ldr	r3, [r7, #12]
 870 02e6 9A63     		str	r2, [r3, #56]
 657:./Libraries/STM32F4xx_HAL_Driver/Src/stm32f4xx_hal_sd.c ****         hsd->State= HAL_SD_STATE_READY;
 871              		.loc 1 657 19
 872 02e8 FB68     		ldr	r3, [r7, #12]
 873 02ea 0122     		movs	r2, #1
 874 02ec 83F83420 		strb	r2, [r3, #52]
 658:./Libraries/STM32F4xx_HAL_Driver/Src/stm32f4xx_hal_sd.c ****         return HAL_ERROR;
 875              		.loc 1 658 16
 876 02f0 0123     		movs	r3, #1
 877 02f2 18E0     		b	.L40
 878              	.L37:
 647:./Libraries/STM32F4xx_HAL_Driver/Src/stm32f4xx_hal_sd.c ****     {
 879              		.loc 1 647 13
 880 02f4 FB68     		ldr	r3, [r7, #12]
 881 02f6 1B68     		ldr	r3, [r3]
 882 02f8 5B6B     		ldr	r3, [r3, #52]
 883 02fa 03F40013 		and	r3, r3, #2097152
 647:./Libraries/STM32F4xx_HAL_Driver/Src/stm32f4xx_hal_sd.c ****     {
 884              		.loc 1 647 11
 885 02fe 002B     		cmp	r3, #0
 886 0300 D1D1     		bne	.L39
ARM GAS  /tmp/ccMhfXg8.s 			page 28


 659:./Libraries/STM32F4xx_HAL_Driver/Src/stm32f4xx_hal_sd.c ****       }
 660:./Libraries/STM32F4xx_HAL_Driver/Src/stm32f4xx_hal_sd.c ****     }
 661:./Libraries/STM32F4xx_HAL_Driver/Src/stm32f4xx_hal_sd.c ****     
 662:./Libraries/STM32F4xx_HAL_Driver/Src/stm32f4xx_hal_sd.c ****     /* Clear all the static flags */
 663:./Libraries/STM32F4xx_HAL_Driver/Src/stm32f4xx_hal_sd.c ****     __HAL_SD_CLEAR_FLAG(hsd, SDIO_STATIC_FLAGS);
 887              		.loc 1 663 5
 888 0302 FB68     		ldr	r3, [r7, #12]
 889 0304 1B68     		ldr	r3, [r3]
 890 0306 40F2FF52 		movw	r2, #1535
 891 030a 9A63     		str	r2, [r3, #56]
 664:./Libraries/STM32F4xx_HAL_Driver/Src/stm32f4xx_hal_sd.c ****     
 665:./Libraries/STM32F4xx_HAL_Driver/Src/stm32f4xx_hal_sd.c ****     hsd->State = HAL_SD_STATE_READY;
 892              		.loc 1 665 16
 893 030c FB68     		ldr	r3, [r7, #12]
 894 030e 0122     		movs	r2, #1
 895 0310 83F83420 		strb	r2, [r3, #52]
 666:./Libraries/STM32F4xx_HAL_Driver/Src/stm32f4xx_hal_sd.c ****     
 667:./Libraries/STM32F4xx_HAL_Driver/Src/stm32f4xx_hal_sd.c ****     return HAL_OK;
 896              		.loc 1 667 12
 897 0314 0023     		movs	r3, #0
 898 0316 06E0     		b	.L40
 899              	.L20:
 668:./Libraries/STM32F4xx_HAL_Driver/Src/stm32f4xx_hal_sd.c ****   }
 669:./Libraries/STM32F4xx_HAL_Driver/Src/stm32f4xx_hal_sd.c ****   else
 670:./Libraries/STM32F4xx_HAL_Driver/Src/stm32f4xx_hal_sd.c ****   {
 671:./Libraries/STM32F4xx_HAL_Driver/Src/stm32f4xx_hal_sd.c ****     hsd->ErrorCode |= HAL_SD_ERROR_BUSY;
 900              		.loc 1 671 20
 901 0318 FB68     		ldr	r3, [r7, #12]
 902 031a 9B6B     		ldr	r3, [r3, #56]
 903 031c 43F00052 		orr	r2, r3, #536870912
 904 0320 FB68     		ldr	r3, [r7, #12]
 905 0322 9A63     		str	r2, [r3, #56]
 672:./Libraries/STM32F4xx_HAL_Driver/Src/stm32f4xx_hal_sd.c ****     return HAL_ERROR;
 906              		.loc 1 672 12
 907 0324 0123     		movs	r3, #1
 908              	.L40:
 673:./Libraries/STM32F4xx_HAL_Driver/Src/stm32f4xx_hal_sd.c ****   }
 674:./Libraries/STM32F4xx_HAL_Driver/Src/stm32f4xx_hal_sd.c **** }
 909              		.loc 1 674 1 discriminator 1
 910 0326 1846     		mov	r0, r3
 911 0328 3C37     		adds	r7, r7, #60
 912              	.LCFI30:
 913              		.cfi_def_cfa_offset 12
 914 032a BD46     		mov	sp, r7
 915              	.LCFI31:
 916              		.cfi_def_cfa_register 13
 917              		@ sp needed
 918 032c 90BD     		pop	{r4, r7, pc}
 919              		.cfi_endproc
 920              	.LFE131:
 922              		.section	.text.HAL_SD_WriteBlocks,"ax",%progbits
 923              		.align	1
 924              		.global	HAL_SD_WriteBlocks
 925              		.syntax unified
 926              		.thumb
 927              		.thumb_func
 928              		.fpu fpv4-sp-d16
ARM GAS  /tmp/ccMhfXg8.s 			page 29


 930              	HAL_SD_WriteBlocks:
 931              	.LFB132:
 675:./Libraries/STM32F4xx_HAL_Driver/Src/stm32f4xx_hal_sd.c **** 
 676:./Libraries/STM32F4xx_HAL_Driver/Src/stm32f4xx_hal_sd.c **** /**
 677:./Libraries/STM32F4xx_HAL_Driver/Src/stm32f4xx_hal_sd.c ****   * @brief  Allows to write block(s) to a specified address in a card. The Data
 678:./Libraries/STM32F4xx_HAL_Driver/Src/stm32f4xx_hal_sd.c ****   *         transfer is managed by polling mode.
 679:./Libraries/STM32F4xx_HAL_Driver/Src/stm32f4xx_hal_sd.c ****   * @note   This API should be followed by a check on the card state through
 680:./Libraries/STM32F4xx_HAL_Driver/Src/stm32f4xx_hal_sd.c ****   *         HAL_SD_GetCardState().
 681:./Libraries/STM32F4xx_HAL_Driver/Src/stm32f4xx_hal_sd.c ****   * @param  hsd Pointer to SD handle
 682:./Libraries/STM32F4xx_HAL_Driver/Src/stm32f4xx_hal_sd.c ****   * @param  pData pointer to the buffer that will contain the data to transmit
 683:./Libraries/STM32F4xx_HAL_Driver/Src/stm32f4xx_hal_sd.c ****   * @param  BlockAdd Block Address where data will be written  
 684:./Libraries/STM32F4xx_HAL_Driver/Src/stm32f4xx_hal_sd.c ****   * @param  NumberOfBlocks Number of SD blocks to write
 685:./Libraries/STM32F4xx_HAL_Driver/Src/stm32f4xx_hal_sd.c ****   * @param  Timeout Specify timeout value
 686:./Libraries/STM32F4xx_HAL_Driver/Src/stm32f4xx_hal_sd.c ****   * @retval HAL status
 687:./Libraries/STM32F4xx_HAL_Driver/Src/stm32f4xx_hal_sd.c ****   */
 688:./Libraries/STM32F4xx_HAL_Driver/Src/stm32f4xx_hal_sd.c **** HAL_StatusTypeDef HAL_SD_WriteBlocks(SD_HandleTypeDef *hsd, uint8_t *pData, uint32_t BlockAdd, uint
 689:./Libraries/STM32F4xx_HAL_Driver/Src/stm32f4xx_hal_sd.c **** {
 932              		.loc 1 689 1
 933              		.cfi_startproc
 934              		@ args = 4, pretend = 0, frame = 56
 935              		@ frame_needed = 1, uses_anonymous_args = 0
 936 0000 80B5     		push	{r7, lr}
 937              	.LCFI32:
 938              		.cfi_def_cfa_offset 8
 939              		.cfi_offset 7, -8
 940              		.cfi_offset 14, -4
 941 0002 8EB0     		sub	sp, sp, #56
 942              	.LCFI33:
 943              		.cfi_def_cfa_offset 64
 944 0004 00AF     		add	r7, sp, #0
 945              	.LCFI34:
 946              		.cfi_def_cfa_register 7
 947 0006 F860     		str	r0, [r7, #12]
 948 0008 B960     		str	r1, [r7, #8]
 949 000a 7A60     		str	r2, [r7, #4]
 950 000c 3B60     		str	r3, [r7]
 690:./Libraries/STM32F4xx_HAL_Driver/Src/stm32f4xx_hal_sd.c ****   SDIO_DataInitTypeDef config;
 691:./Libraries/STM32F4xx_HAL_Driver/Src/stm32f4xx_hal_sd.c ****   uint32_t errorstate = HAL_SD_ERROR_NONE;
 951              		.loc 1 691 12
 952 000e 0023     		movs	r3, #0
 953 0010 7B63     		str	r3, [r7, #52]
 692:./Libraries/STM32F4xx_HAL_Driver/Src/stm32f4xx_hal_sd.c ****   uint32_t tickstart = HAL_GetTick();
 954              		.loc 1 692 24
 955 0012 FFF7FEFF 		bl	HAL_GetTick
 956 0016 B862     		str	r0, [r7, #40]
 693:./Libraries/STM32F4xx_HAL_Driver/Src/stm32f4xx_hal_sd.c ****   uint32_t count = 0U;
 957              		.loc 1 693 12
 958 0018 0023     		movs	r3, #0
 959 001a 3B63     		str	r3, [r7, #48]
 694:./Libraries/STM32F4xx_HAL_Driver/Src/stm32f4xx_hal_sd.c ****   uint32_t *tempbuff = (uint32_t *)pData;
 960              		.loc 1 694 13
 961 001c BB68     		ldr	r3, [r7, #8]
 962 001e FB62     		str	r3, [r7, #44]
 695:./Libraries/STM32F4xx_HAL_Driver/Src/stm32f4xx_hal_sd.c ****   
 696:./Libraries/STM32F4xx_HAL_Driver/Src/stm32f4xx_hal_sd.c ****   if(NULL == pData)
 963              		.loc 1 696 5
 964 0020 BB68     		ldr	r3, [r7, #8]
ARM GAS  /tmp/ccMhfXg8.s 			page 30


 965 0022 002B     		cmp	r3, #0
 966 0024 07D1     		bne	.L42
 697:./Libraries/STM32F4xx_HAL_Driver/Src/stm32f4xx_hal_sd.c ****   {
 698:./Libraries/STM32F4xx_HAL_Driver/Src/stm32f4xx_hal_sd.c ****     hsd->ErrorCode |= HAL_SD_ERROR_PARAM;
 967              		.loc 1 698 20
 968 0026 FB68     		ldr	r3, [r7, #12]
 969 0028 9B6B     		ldr	r3, [r3, #56]
 970 002a 43F00062 		orr	r2, r3, #134217728
 971 002e FB68     		ldr	r3, [r7, #12]
 972 0030 9A63     		str	r2, [r3, #56]
 699:./Libraries/STM32F4xx_HAL_Driver/Src/stm32f4xx_hal_sd.c ****     return HAL_ERROR;
 973              		.loc 1 699 12
 974 0032 0123     		movs	r3, #1
 975 0034 48E1     		b	.L61
 976              	.L42:
 700:./Libraries/STM32F4xx_HAL_Driver/Src/stm32f4xx_hal_sd.c ****   }
 701:./Libraries/STM32F4xx_HAL_Driver/Src/stm32f4xx_hal_sd.c **** 
 702:./Libraries/STM32F4xx_HAL_Driver/Src/stm32f4xx_hal_sd.c ****   if(hsd->State == HAL_SD_STATE_READY)
 977              		.loc 1 702 9
 978 0036 FB68     		ldr	r3, [r7, #12]
 979 0038 93F83430 		ldrb	r3, [r3, #52]
 980 003c DBB2     		uxtb	r3, r3
 981              		.loc 1 702 5
 982 003e 012B     		cmp	r3, #1
 983 0040 40F03B81 		bne	.L44
 703:./Libraries/STM32F4xx_HAL_Driver/Src/stm32f4xx_hal_sd.c ****   {
 704:./Libraries/STM32F4xx_HAL_Driver/Src/stm32f4xx_hal_sd.c ****     hsd->ErrorCode = HAL_DMA_ERROR_NONE;
 984              		.loc 1 704 20
 985 0044 FB68     		ldr	r3, [r7, #12]
 986 0046 0022     		movs	r2, #0
 987 0048 9A63     		str	r2, [r3, #56]
 705:./Libraries/STM32F4xx_HAL_Driver/Src/stm32f4xx_hal_sd.c ****     
 706:./Libraries/STM32F4xx_HAL_Driver/Src/stm32f4xx_hal_sd.c ****     if((BlockAdd + NumberOfBlocks) > (hsd->SdCard.LogBlockNbr))
 988              		.loc 1 706 18
 989 004a 7A68     		ldr	r2, [r7, #4]
 990 004c 3B68     		ldr	r3, [r7]
 991 004e 1A44     		add	r2, r2, r3
 992              		.loc 1 706 50
 993 0050 FB68     		ldr	r3, [r7, #12]
 994 0052 DB6D     		ldr	r3, [r3, #92]
 995              		.loc 1 706 7
 996 0054 9A42     		cmp	r2, r3
 997 0056 07D9     		bls	.L45
 707:./Libraries/STM32F4xx_HAL_Driver/Src/stm32f4xx_hal_sd.c ****     {
 708:./Libraries/STM32F4xx_HAL_Driver/Src/stm32f4xx_hal_sd.c ****       hsd->ErrorCode |= HAL_SD_ERROR_ADDR_OUT_OF_RANGE;
 998              		.loc 1 708 22
 999 0058 FB68     		ldr	r3, [r7, #12]
 1000 005a 9B6B     		ldr	r3, [r3, #56]
 1001 005c 43F00072 		orr	r2, r3, #33554432
 1002 0060 FB68     		ldr	r3, [r7, #12]
 1003 0062 9A63     		str	r2, [r3, #56]
 709:./Libraries/STM32F4xx_HAL_Driver/Src/stm32f4xx_hal_sd.c ****       return HAL_ERROR;
 1004              		.loc 1 709 14
 1005 0064 0123     		movs	r3, #1
 1006 0066 2FE1     		b	.L61
 1007              	.L45:
 710:./Libraries/STM32F4xx_HAL_Driver/Src/stm32f4xx_hal_sd.c ****     }
ARM GAS  /tmp/ccMhfXg8.s 			page 31


 711:./Libraries/STM32F4xx_HAL_Driver/Src/stm32f4xx_hal_sd.c ****     
 712:./Libraries/STM32F4xx_HAL_Driver/Src/stm32f4xx_hal_sd.c ****     hsd->State = HAL_SD_STATE_BUSY;
 1008              		.loc 1 712 16
 1009 0068 FB68     		ldr	r3, [r7, #12]
 1010 006a 0322     		movs	r2, #3
 1011 006c 83F83420 		strb	r2, [r3, #52]
 713:./Libraries/STM32F4xx_HAL_Driver/Src/stm32f4xx_hal_sd.c ****     
 714:./Libraries/STM32F4xx_HAL_Driver/Src/stm32f4xx_hal_sd.c ****     /* Initialize data control register */
 715:./Libraries/STM32F4xx_HAL_Driver/Src/stm32f4xx_hal_sd.c ****     hsd->Instance->DCTRL = 0U;
 1012              		.loc 1 715 8
 1013 0070 FB68     		ldr	r3, [r7, #12]
 1014 0072 1B68     		ldr	r3, [r3]
 1015              		.loc 1 715 26
 1016 0074 0022     		movs	r2, #0
 1017 0076 DA62     		str	r2, [r3, #44]
 716:./Libraries/STM32F4xx_HAL_Driver/Src/stm32f4xx_hal_sd.c ****      
 717:./Libraries/STM32F4xx_HAL_Driver/Src/stm32f4xx_hal_sd.c ****     if(hsd->SdCard.CardType != CARD_SDHC_SDXC)
 1018              		.loc 1 717 19
 1019 0078 FB68     		ldr	r3, [r7, #12]
 1020 007a 5B6C     		ldr	r3, [r3, #68]
 1021              		.loc 1 717 7
 1022 007c 012B     		cmp	r3, #1
 1023 007e 02D0     		beq	.L46
 718:./Libraries/STM32F4xx_HAL_Driver/Src/stm32f4xx_hal_sd.c ****     {
 719:./Libraries/STM32F4xx_HAL_Driver/Src/stm32f4xx_hal_sd.c ****       BlockAdd *= 512U;
 1024              		.loc 1 719 16
 1025 0080 7B68     		ldr	r3, [r7, #4]
 1026 0082 5B02     		lsls	r3, r3, #9
 1027 0084 7B60     		str	r3, [r7, #4]
 1028              	.L46:
 720:./Libraries/STM32F4xx_HAL_Driver/Src/stm32f4xx_hal_sd.c ****     }
 721:./Libraries/STM32F4xx_HAL_Driver/Src/stm32f4xx_hal_sd.c ****     
 722:./Libraries/STM32F4xx_HAL_Driver/Src/stm32f4xx_hal_sd.c ****     /* Set Block Size for Card */ 
 723:./Libraries/STM32F4xx_HAL_Driver/Src/stm32f4xx_hal_sd.c ****     errorstate = SDMMC_CmdBlockLength(hsd->Instance, BLOCKSIZE);
 1029              		.loc 1 723 18
 1030 0086 FB68     		ldr	r3, [r7, #12]
 1031 0088 1B68     		ldr	r3, [r3]
 1032 008a 4FF40071 		mov	r1, #512
 1033 008e 1846     		mov	r0, r3
 1034 0090 FFF7FEFF 		bl	SDMMC_CmdBlockLength
 1035 0094 7863     		str	r0, [r7, #52]
 724:./Libraries/STM32F4xx_HAL_Driver/Src/stm32f4xx_hal_sd.c ****     if(errorstate != HAL_SD_ERROR_NONE)
 1036              		.loc 1 724 7
 1037 0096 7B6B     		ldr	r3, [r7, #52]
 1038 0098 002B     		cmp	r3, #0
 1039 009a 10D0     		beq	.L47
 725:./Libraries/STM32F4xx_HAL_Driver/Src/stm32f4xx_hal_sd.c ****     {
 726:./Libraries/STM32F4xx_HAL_Driver/Src/stm32f4xx_hal_sd.c ****       /* Clear all the static flags */
 727:./Libraries/STM32F4xx_HAL_Driver/Src/stm32f4xx_hal_sd.c ****       __HAL_SD_CLEAR_FLAG(hsd, SDIO_STATIC_FLAGS);  
 1040              		.loc 1 727 7
 1041 009c FB68     		ldr	r3, [r7, #12]
 1042 009e 1B68     		ldr	r3, [r3]
 1043 00a0 40F2FF52 		movw	r2, #1535
 1044 00a4 9A63     		str	r2, [r3, #56]
 728:./Libraries/STM32F4xx_HAL_Driver/Src/stm32f4xx_hal_sd.c ****       hsd->ErrorCode |= errorstate;
 1045              		.loc 1 728 22
 1046 00a6 FB68     		ldr	r3, [r7, #12]
ARM GAS  /tmp/ccMhfXg8.s 			page 32


 1047 00a8 9A6B     		ldr	r2, [r3, #56]
 1048 00aa 7B6B     		ldr	r3, [r7, #52]
 1049 00ac 1A43     		orrs	r2, r2, r3
 1050 00ae FB68     		ldr	r3, [r7, #12]
 1051 00b0 9A63     		str	r2, [r3, #56]
 729:./Libraries/STM32F4xx_HAL_Driver/Src/stm32f4xx_hal_sd.c ****       hsd->State = HAL_SD_STATE_READY;
 1052              		.loc 1 729 18
 1053 00b2 FB68     		ldr	r3, [r7, #12]
 1054 00b4 0122     		movs	r2, #1
 1055 00b6 83F83420 		strb	r2, [r3, #52]
 730:./Libraries/STM32F4xx_HAL_Driver/Src/stm32f4xx_hal_sd.c ****       return HAL_ERROR;
 1056              		.loc 1 730 14
 1057 00ba 0123     		movs	r3, #1
 1058 00bc 04E1     		b	.L61
 1059              	.L47:
 731:./Libraries/STM32F4xx_HAL_Driver/Src/stm32f4xx_hal_sd.c ****     }
 732:./Libraries/STM32F4xx_HAL_Driver/Src/stm32f4xx_hal_sd.c ****     
 733:./Libraries/STM32F4xx_HAL_Driver/Src/stm32f4xx_hal_sd.c ****     /* Write Blocks in Polling mode */
 734:./Libraries/STM32F4xx_HAL_Driver/Src/stm32f4xx_hal_sd.c ****     if(NumberOfBlocks > 1U)
 1060              		.loc 1 734 7
 1061 00be 3B68     		ldr	r3, [r7]
 1062 00c0 012B     		cmp	r3, #1
 1063 00c2 0AD9     		bls	.L48
 735:./Libraries/STM32F4xx_HAL_Driver/Src/stm32f4xx_hal_sd.c ****     {
 736:./Libraries/STM32F4xx_HAL_Driver/Src/stm32f4xx_hal_sd.c ****       hsd->Context = SD_CONTEXT_WRITE_MULTIPLE_BLOCK;
 1064              		.loc 1 736 20
 1065 00c4 FB68     		ldr	r3, [r7, #12]
 1066 00c6 2022     		movs	r2, #32
 1067 00c8 1A63     		str	r2, [r3, #48]
 737:./Libraries/STM32F4xx_HAL_Driver/Src/stm32f4xx_hal_sd.c ****       
 738:./Libraries/STM32F4xx_HAL_Driver/Src/stm32f4xx_hal_sd.c ****       /* Write Multi Block command */ 
 739:./Libraries/STM32F4xx_HAL_Driver/Src/stm32f4xx_hal_sd.c ****       errorstate = SDMMC_CmdWriteMultiBlock(hsd->Instance, BlockAdd);
 1068              		.loc 1 739 20
 1069 00ca FB68     		ldr	r3, [r7, #12]
 1070 00cc 1B68     		ldr	r3, [r3]
 1071 00ce 7968     		ldr	r1, [r7, #4]
 1072 00d0 1846     		mov	r0, r3
 1073 00d2 FFF7FEFF 		bl	SDMMC_CmdWriteMultiBlock
 1074 00d6 7863     		str	r0, [r7, #52]
 1075 00d8 09E0     		b	.L49
 1076              	.L48:
 740:./Libraries/STM32F4xx_HAL_Driver/Src/stm32f4xx_hal_sd.c ****     }
 741:./Libraries/STM32F4xx_HAL_Driver/Src/stm32f4xx_hal_sd.c ****     else
 742:./Libraries/STM32F4xx_HAL_Driver/Src/stm32f4xx_hal_sd.c ****     {
 743:./Libraries/STM32F4xx_HAL_Driver/Src/stm32f4xx_hal_sd.c ****       hsd->Context = SD_CONTEXT_WRITE_SINGLE_BLOCK;
 1077              		.loc 1 743 20
 1078 00da FB68     		ldr	r3, [r7, #12]
 1079 00dc 1022     		movs	r2, #16
 1080 00de 1A63     		str	r2, [r3, #48]
 744:./Libraries/STM32F4xx_HAL_Driver/Src/stm32f4xx_hal_sd.c ****       
 745:./Libraries/STM32F4xx_HAL_Driver/Src/stm32f4xx_hal_sd.c ****       /* Write Single Block command */
 746:./Libraries/STM32F4xx_HAL_Driver/Src/stm32f4xx_hal_sd.c ****       errorstate = SDMMC_CmdWriteSingleBlock(hsd->Instance, BlockAdd);
 1081              		.loc 1 746 20
 1082 00e0 FB68     		ldr	r3, [r7, #12]
 1083 00e2 1B68     		ldr	r3, [r3]
 1084 00e4 7968     		ldr	r1, [r7, #4]
 1085 00e6 1846     		mov	r0, r3
ARM GAS  /tmp/ccMhfXg8.s 			page 33


 1086 00e8 FFF7FEFF 		bl	SDMMC_CmdWriteSingleBlock
 1087 00ec 7863     		str	r0, [r7, #52]
 1088              	.L49:
 747:./Libraries/STM32F4xx_HAL_Driver/Src/stm32f4xx_hal_sd.c ****     }
 748:./Libraries/STM32F4xx_HAL_Driver/Src/stm32f4xx_hal_sd.c ****     if(errorstate != HAL_SD_ERROR_NONE)
 1089              		.loc 1 748 7
 1090 00ee 7B6B     		ldr	r3, [r7, #52]
 1091 00f0 002B     		cmp	r3, #0
 1092 00f2 10D0     		beq	.L50
 749:./Libraries/STM32F4xx_HAL_Driver/Src/stm32f4xx_hal_sd.c ****     {
 750:./Libraries/STM32F4xx_HAL_Driver/Src/stm32f4xx_hal_sd.c ****       /* Clear all the static flags */
 751:./Libraries/STM32F4xx_HAL_Driver/Src/stm32f4xx_hal_sd.c ****       __HAL_SD_CLEAR_FLAG(hsd, SDIO_STATIC_FLAGS);  
 1093              		.loc 1 751 7
 1094 00f4 FB68     		ldr	r3, [r7, #12]
 1095 00f6 1B68     		ldr	r3, [r3]
 1096 00f8 40F2FF52 		movw	r2, #1535
 1097 00fc 9A63     		str	r2, [r3, #56]
 752:./Libraries/STM32F4xx_HAL_Driver/Src/stm32f4xx_hal_sd.c ****       hsd->ErrorCode |= errorstate;
 1098              		.loc 1 752 22
 1099 00fe FB68     		ldr	r3, [r7, #12]
 1100 0100 9A6B     		ldr	r2, [r3, #56]
 1101 0102 7B6B     		ldr	r3, [r7, #52]
 1102 0104 1A43     		orrs	r2, r2, r3
 1103 0106 FB68     		ldr	r3, [r7, #12]
 1104 0108 9A63     		str	r2, [r3, #56]
 753:./Libraries/STM32F4xx_HAL_Driver/Src/stm32f4xx_hal_sd.c ****       hsd->State = HAL_SD_STATE_READY;
 1105              		.loc 1 753 18
 1106 010a FB68     		ldr	r3, [r7, #12]
 1107 010c 0122     		movs	r2, #1
 1108 010e 83F83420 		strb	r2, [r3, #52]
 754:./Libraries/STM32F4xx_HAL_Driver/Src/stm32f4xx_hal_sd.c ****       return HAL_ERROR;
 1109              		.loc 1 754 14
 1110 0112 0123     		movs	r3, #1
 1111 0114 D8E0     		b	.L61
 1112              	.L50:
 755:./Libraries/STM32F4xx_HAL_Driver/Src/stm32f4xx_hal_sd.c ****     }
 756:./Libraries/STM32F4xx_HAL_Driver/Src/stm32f4xx_hal_sd.c ****     
 757:./Libraries/STM32F4xx_HAL_Driver/Src/stm32f4xx_hal_sd.c ****     /* Configure the SD DPSM (Data Path State Machine) */ 
 758:./Libraries/STM32F4xx_HAL_Driver/Src/stm32f4xx_hal_sd.c ****     config.DataTimeOut   = SDMMC_DATATIMEOUT;
 1113              		.loc 1 758 26
 1114 0116 4FF0FF33 		mov	r3, #-1
 1115 011a 3B61     		str	r3, [r7, #16]
 759:./Libraries/STM32F4xx_HAL_Driver/Src/stm32f4xx_hal_sd.c ****     config.DataLength    = NumberOfBlocks * BLOCKSIZE;
 1116              		.loc 1 759 43
 1117 011c 3B68     		ldr	r3, [r7]
 1118 011e 5B02     		lsls	r3, r3, #9
 1119              		.loc 1 759 26
 1120 0120 7B61     		str	r3, [r7, #20]
 760:./Libraries/STM32F4xx_HAL_Driver/Src/stm32f4xx_hal_sd.c ****     config.DataBlockSize = SDIO_DATABLOCK_SIZE_512B;
 1121              		.loc 1 760 26
 1122 0122 9023     		movs	r3, #144
 1123 0124 BB61     		str	r3, [r7, #24]
 761:./Libraries/STM32F4xx_HAL_Driver/Src/stm32f4xx_hal_sd.c ****     config.TransferDir   = SDIO_TRANSFER_DIR_TO_CARD;
 1124              		.loc 1 761 26
 1125 0126 0023     		movs	r3, #0
 1126 0128 FB61     		str	r3, [r7, #28]
 762:./Libraries/STM32F4xx_HAL_Driver/Src/stm32f4xx_hal_sd.c ****     config.TransferMode  = SDIO_TRANSFER_MODE_BLOCK;
ARM GAS  /tmp/ccMhfXg8.s 			page 34


 1127              		.loc 1 762 26
 1128 012a 0023     		movs	r3, #0
 1129 012c 3B62     		str	r3, [r7, #32]
 763:./Libraries/STM32F4xx_HAL_Driver/Src/stm32f4xx_hal_sd.c ****     config.DPSM          = SDIO_DPSM_ENABLE;
 1130              		.loc 1 763 26
 1131 012e 0123     		movs	r3, #1
 1132 0130 7B62     		str	r3, [r7, #36]
 764:./Libraries/STM32F4xx_HAL_Driver/Src/stm32f4xx_hal_sd.c ****     SDIO_ConfigData(hsd->Instance, &config);
 1133              		.loc 1 764 5
 1134 0132 FB68     		ldr	r3, [r7, #12]
 1135 0134 1B68     		ldr	r3, [r3]
 1136 0136 07F11002 		add	r2, r7, #16
 1137 013a 1146     		mov	r1, r2
 1138 013c 1846     		mov	r0, r3
 1139 013e FFF7FEFF 		bl	SDIO_ConfigData
 765:./Libraries/STM32F4xx_HAL_Driver/Src/stm32f4xx_hal_sd.c ****     
 766:./Libraries/STM32F4xx_HAL_Driver/Src/stm32f4xx_hal_sd.c ****     /* Write block(s) in polling mode */
 767:./Libraries/STM32F4xx_HAL_Driver/Src/stm32f4xx_hal_sd.c **** #ifdef SDIO_STA_STBITERR
 768:./Libraries/STM32F4xx_HAL_Driver/Src/stm32f4xx_hal_sd.c ****     while(!__HAL_SD_GET_FLAG(hsd, SDIO_FLAG_TXUNDERR | SDIO_FLAG_DCRCFAIL | SDIO_FLAG_DTIMEOUT | SD
 1140              		.loc 1 768 10
 1141 0142 37E0     		b	.L51
 1142              	.L56:
 769:./Libraries/STM32F4xx_HAL_Driver/Src/stm32f4xx_hal_sd.c **** #else /* SDIO_STA_STBITERR not defined */
 770:./Libraries/STM32F4xx_HAL_Driver/Src/stm32f4xx_hal_sd.c ****     while(!__HAL_SD_GET_FLAG(hsd, SDIO_FLAG_TXUNDERR | SDIO_FLAG_DCRCFAIL | SDIO_FLAG_DTIMEOUT | SD
 771:./Libraries/STM32F4xx_HAL_Driver/Src/stm32f4xx_hal_sd.c **** #endif /* SDIO_STA_STBITERR */
 772:./Libraries/STM32F4xx_HAL_Driver/Src/stm32f4xx_hal_sd.c ****     {
 773:./Libraries/STM32F4xx_HAL_Driver/Src/stm32f4xx_hal_sd.c ****       if(__HAL_SD_GET_FLAG(hsd, SDIO_FLAG_TXFIFOHE))
 1143              		.loc 1 773 10
 1144 0144 FB68     		ldr	r3, [r7, #12]
 1145 0146 1B68     		ldr	r3, [r3]
 1146 0148 5B6B     		ldr	r3, [r3, #52]
 1147 014a 03F48043 		and	r3, r3, #16384
 1148              		.loc 1 773 9
 1149 014e 002B     		cmp	r3, #0
 1150 0150 14D0     		beq	.L52
 774:./Libraries/STM32F4xx_HAL_Driver/Src/stm32f4xx_hal_sd.c ****       {
 775:./Libraries/STM32F4xx_HAL_Driver/Src/stm32f4xx_hal_sd.c ****         /* Write data to SDIO Tx FIFO */
 776:./Libraries/STM32F4xx_HAL_Driver/Src/stm32f4xx_hal_sd.c ****         for(count = 0U; count < 8U; count++)
 1151              		.loc 1 776 19
 1152 0152 0023     		movs	r3, #0
 1153 0154 3B63     		str	r3, [r7, #48]
 1154              		.loc 1 776 9
 1155 0156 0BE0     		b	.L53
 1156              	.L54:
 777:./Libraries/STM32F4xx_HAL_Driver/Src/stm32f4xx_hal_sd.c ****         {
 778:./Libraries/STM32F4xx_HAL_Driver/Src/stm32f4xx_hal_sd.c ****           SDIO_WriteFIFO(hsd->Instance, (tempbuff + count));
 1157              		.loc 1 778 11 discriminator 3
 1158 0158 FB68     		ldr	r3, [r7, #12]
 1159 015a 1868     		ldr	r0, [r3]
 1160              		.loc 1 778 51 discriminator 3
 1161 015c 3B6B     		ldr	r3, [r7, #48]
 1162 015e 9B00     		lsls	r3, r3, #2
 1163              		.loc 1 778 11 discriminator 3
 1164 0160 FA6A     		ldr	r2, [r7, #44]
 1165 0162 1344     		add	r3, r3, r2
 1166 0164 1946     		mov	r1, r3
 1167 0166 FFF7FEFF 		bl	SDIO_WriteFIFO
ARM GAS  /tmp/ccMhfXg8.s 			page 35


 776:./Libraries/STM32F4xx_HAL_Driver/Src/stm32f4xx_hal_sd.c ****         {
 1168              		.loc 1 776 42 discriminator 3
 1169 016a 3B6B     		ldr	r3, [r7, #48]
 1170 016c 0133     		adds	r3, r3, #1
 1171 016e 3B63     		str	r3, [r7, #48]
 1172              	.L53:
 776:./Libraries/STM32F4xx_HAL_Driver/Src/stm32f4xx_hal_sd.c ****         {
 1173              		.loc 1 776 9 discriminator 1
 1174 0170 3B6B     		ldr	r3, [r7, #48]
 1175 0172 072B     		cmp	r3, #7
 1176 0174 F0D9     		bls	.L54
 779:./Libraries/STM32F4xx_HAL_Driver/Src/stm32f4xx_hal_sd.c ****         }
 780:./Libraries/STM32F4xx_HAL_Driver/Src/stm32f4xx_hal_sd.c ****         tempbuff += 8U;
 1177              		.loc 1 780 18
 1178 0176 FB6A     		ldr	r3, [r7, #44]
 1179 0178 2033     		adds	r3, r3, #32
 1180 017a FB62     		str	r3, [r7, #44]
 1181              	.L52:
 781:./Libraries/STM32F4xx_HAL_Driver/Src/stm32f4xx_hal_sd.c ****       }
 782:./Libraries/STM32F4xx_HAL_Driver/Src/stm32f4xx_hal_sd.c ****       
 783:./Libraries/STM32F4xx_HAL_Driver/Src/stm32f4xx_hal_sd.c ****       if((Timeout == 0U)||((HAL_GetTick()-tickstart) >=  Timeout))
 1182              		.loc 1 783 9
 1183 017c 3B6C     		ldr	r3, [r7, #64]
 1184 017e 002B     		cmp	r3, #0
 1185 0180 07D0     		beq	.L55
 1186              		.loc 1 783 29 discriminator 1
 1187 0182 FFF7FEFF 		bl	HAL_GetTick
 1188 0186 0246     		mov	r2, r0
 1189              		.loc 1 783 42 discriminator 1
 1190 0188 BB6A     		ldr	r3, [r7, #40]
 1191 018a D31A     		subs	r3, r2, r3
 1192              		.loc 1 783 25 discriminator 1
 1193 018c 3A6C     		ldr	r2, [r7, #64]
 1194 018e 9A42     		cmp	r2, r3
 1195 0190 10D8     		bhi	.L51
 1196              	.L55:
 784:./Libraries/STM32F4xx_HAL_Driver/Src/stm32f4xx_hal_sd.c ****       {
 785:./Libraries/STM32F4xx_HAL_Driver/Src/stm32f4xx_hal_sd.c ****         /* Clear all the static flags */
 786:./Libraries/STM32F4xx_HAL_Driver/Src/stm32f4xx_hal_sd.c ****         __HAL_SD_CLEAR_FLAG(hsd, SDIO_STATIC_FLAGS);  
 1197              		.loc 1 786 9
 1198 0192 FB68     		ldr	r3, [r7, #12]
 1199 0194 1B68     		ldr	r3, [r3]
 1200 0196 40F2FF52 		movw	r2, #1535
 1201 019a 9A63     		str	r2, [r3, #56]
 787:./Libraries/STM32F4xx_HAL_Driver/Src/stm32f4xx_hal_sd.c ****         hsd->ErrorCode |= errorstate;
 1202              		.loc 1 787 24
 1203 019c FB68     		ldr	r3, [r7, #12]
 1204 019e 9A6B     		ldr	r2, [r3, #56]
 1205 01a0 7B6B     		ldr	r3, [r7, #52]
 1206 01a2 1A43     		orrs	r2, r2, r3
 1207 01a4 FB68     		ldr	r3, [r7, #12]
 1208 01a6 9A63     		str	r2, [r3, #56]
 788:./Libraries/STM32F4xx_HAL_Driver/Src/stm32f4xx_hal_sd.c ****         hsd->State = HAL_SD_STATE_READY;
 1209              		.loc 1 788 20
 1210 01a8 FB68     		ldr	r3, [r7, #12]
 1211 01aa 0122     		movs	r2, #1
 1212 01ac 83F83420 		strb	r2, [r3, #52]
ARM GAS  /tmp/ccMhfXg8.s 			page 36


 789:./Libraries/STM32F4xx_HAL_Driver/Src/stm32f4xx_hal_sd.c ****         return HAL_TIMEOUT;
 1213              		.loc 1 789 16
 1214 01b0 0323     		movs	r3, #3
 1215 01b2 89E0     		b	.L61
 1216              	.L51:
 768:./Libraries/STM32F4xx_HAL_Driver/Src/stm32f4xx_hal_sd.c **** #else /* SDIO_STA_STBITERR not defined */
 1217              		.loc 1 768 12
 1218 01b4 FB68     		ldr	r3, [r7, #12]
 1219 01b6 1B68     		ldr	r3, [r3]
 1220 01b8 5A6B     		ldr	r2, [r3, #52]
 1221 01ba 40F21A33 		movw	r3, #794
 1222 01be 1340     		ands	r3, r3, r2
 768:./Libraries/STM32F4xx_HAL_Driver/Src/stm32f4xx_hal_sd.c **** #else /* SDIO_STA_STBITERR not defined */
 1223              		.loc 1 768 10
 1224 01c0 002B     		cmp	r3, #0
 1225 01c2 BFD0     		beq	.L56
 790:./Libraries/STM32F4xx_HAL_Driver/Src/stm32f4xx_hal_sd.c ****       }
 791:./Libraries/STM32F4xx_HAL_Driver/Src/stm32f4xx_hal_sd.c ****     }
 792:./Libraries/STM32F4xx_HAL_Driver/Src/stm32f4xx_hal_sd.c ****     
 793:./Libraries/STM32F4xx_HAL_Driver/Src/stm32f4xx_hal_sd.c ****     /* Send stop transmission command in case of multiblock write */
 794:./Libraries/STM32F4xx_HAL_Driver/Src/stm32f4xx_hal_sd.c ****     if(__HAL_SD_GET_FLAG(hsd, SDIO_FLAG_DATAEND) && (NumberOfBlocks > 1U))
 1226              		.loc 1 794 8
 1227 01c4 FB68     		ldr	r3, [r7, #12]
 1228 01c6 1B68     		ldr	r3, [r3]
 1229 01c8 5B6B     		ldr	r3, [r3, #52]
 1230 01ca 03F48073 		and	r3, r3, #256
 1231              		.loc 1 794 7
 1232 01ce 002B     		cmp	r3, #0
 1233 01d0 20D0     		beq	.L57
 1234              		.loc 1 794 50 discriminator 1
 1235 01d2 3B68     		ldr	r3, [r7]
 1236 01d4 012B     		cmp	r3, #1
 1237 01d6 1DD9     		bls	.L57
 795:./Libraries/STM32F4xx_HAL_Driver/Src/stm32f4xx_hal_sd.c ****     { 
 796:./Libraries/STM32F4xx_HAL_Driver/Src/stm32f4xx_hal_sd.c ****       if(hsd->SdCard.CardType != CARD_SECURED)
 1238              		.loc 1 796 21
 1239 01d8 FB68     		ldr	r3, [r7, #12]
 1240 01da 5B6C     		ldr	r3, [r3, #68]
 1241              		.loc 1 796 9
 1242 01dc 032B     		cmp	r3, #3
 1243 01de 19D0     		beq	.L57
 797:./Libraries/STM32F4xx_HAL_Driver/Src/stm32f4xx_hal_sd.c ****       {
 798:./Libraries/STM32F4xx_HAL_Driver/Src/stm32f4xx_hal_sd.c ****         /* Send stop transmission command */
 799:./Libraries/STM32F4xx_HAL_Driver/Src/stm32f4xx_hal_sd.c ****         errorstate = SDMMC_CmdStopTransfer(hsd->Instance);
 1244              		.loc 1 799 22
 1245 01e0 FB68     		ldr	r3, [r7, #12]
 1246 01e2 1B68     		ldr	r3, [r3]
 1247 01e4 1846     		mov	r0, r3
 1248 01e6 FFF7FEFF 		bl	SDMMC_CmdStopTransfer
 1249 01ea 7863     		str	r0, [r7, #52]
 800:./Libraries/STM32F4xx_HAL_Driver/Src/stm32f4xx_hal_sd.c ****         if(errorstate != HAL_SD_ERROR_NONE)
 1250              		.loc 1 800 11
 1251 01ec 7B6B     		ldr	r3, [r7, #52]
 1252 01ee 002B     		cmp	r3, #0
 1253 01f0 10D0     		beq	.L57
 801:./Libraries/STM32F4xx_HAL_Driver/Src/stm32f4xx_hal_sd.c ****         {
 802:./Libraries/STM32F4xx_HAL_Driver/Src/stm32f4xx_hal_sd.c ****           /* Clear all the static flags */
ARM GAS  /tmp/ccMhfXg8.s 			page 37


 803:./Libraries/STM32F4xx_HAL_Driver/Src/stm32f4xx_hal_sd.c ****           __HAL_SD_CLEAR_FLAG(hsd, SDIO_STATIC_FLAGS);  
 1254              		.loc 1 803 11
 1255 01f2 FB68     		ldr	r3, [r7, #12]
 1256 01f4 1B68     		ldr	r3, [r3]
 1257 01f6 40F2FF52 		movw	r2, #1535
 1258 01fa 9A63     		str	r2, [r3, #56]
 804:./Libraries/STM32F4xx_HAL_Driver/Src/stm32f4xx_hal_sd.c ****           hsd->ErrorCode |= errorstate;
 1259              		.loc 1 804 26
 1260 01fc FB68     		ldr	r3, [r7, #12]
 1261 01fe 9A6B     		ldr	r2, [r3, #56]
 1262 0200 7B6B     		ldr	r3, [r7, #52]
 1263 0202 1A43     		orrs	r2, r2, r3
 1264 0204 FB68     		ldr	r3, [r7, #12]
 1265 0206 9A63     		str	r2, [r3, #56]
 805:./Libraries/STM32F4xx_HAL_Driver/Src/stm32f4xx_hal_sd.c ****           hsd->State = HAL_SD_STATE_READY;
 1266              		.loc 1 805 22
 1267 0208 FB68     		ldr	r3, [r7, #12]
 1268 020a 0122     		movs	r2, #1
 1269 020c 83F83420 		strb	r2, [r3, #52]
 806:./Libraries/STM32F4xx_HAL_Driver/Src/stm32f4xx_hal_sd.c ****           return HAL_ERROR;
 1270              		.loc 1 806 18
 1271 0210 0123     		movs	r3, #1
 1272 0212 59E0     		b	.L61
 1273              	.L57:
 807:./Libraries/STM32F4xx_HAL_Driver/Src/stm32f4xx_hal_sd.c ****         }
 808:./Libraries/STM32F4xx_HAL_Driver/Src/stm32f4xx_hal_sd.c ****       }
 809:./Libraries/STM32F4xx_HAL_Driver/Src/stm32f4xx_hal_sd.c ****     }
 810:./Libraries/STM32F4xx_HAL_Driver/Src/stm32f4xx_hal_sd.c ****     
 811:./Libraries/STM32F4xx_HAL_Driver/Src/stm32f4xx_hal_sd.c ****     /* Get error state */
 812:./Libraries/STM32F4xx_HAL_Driver/Src/stm32f4xx_hal_sd.c ****     if(__HAL_SD_GET_FLAG(hsd, SDIO_FLAG_DTIMEOUT))
 1274              		.loc 1 812 8
 1275 0214 FB68     		ldr	r3, [r7, #12]
 1276 0216 1B68     		ldr	r3, [r3]
 1277 0218 5B6B     		ldr	r3, [r3, #52]
 1278 021a 03F00803 		and	r3, r3, #8
 1279              		.loc 1 812 7
 1280 021e 002B     		cmp	r3, #0
 1281 0220 10D0     		beq	.L58
 813:./Libraries/STM32F4xx_HAL_Driver/Src/stm32f4xx_hal_sd.c ****     {
 814:./Libraries/STM32F4xx_HAL_Driver/Src/stm32f4xx_hal_sd.c ****       /* Clear all the static flags */
 815:./Libraries/STM32F4xx_HAL_Driver/Src/stm32f4xx_hal_sd.c ****       __HAL_SD_CLEAR_FLAG(hsd, SDIO_STATIC_FLAGS);
 1282              		.loc 1 815 7
 1283 0222 FB68     		ldr	r3, [r7, #12]
 1284 0224 1B68     		ldr	r3, [r3]
 1285 0226 40F2FF52 		movw	r2, #1535
 1286 022a 9A63     		str	r2, [r3, #56]
 816:./Libraries/STM32F4xx_HAL_Driver/Src/stm32f4xx_hal_sd.c ****       hsd->ErrorCode |= HAL_SD_ERROR_DATA_TIMEOUT;
 1287              		.loc 1 816 22
 1288 022c FB68     		ldr	r3, [r7, #12]
 1289 022e 9B6B     		ldr	r3, [r3, #56]
 1290 0230 43F00802 		orr	r2, r3, #8
 1291 0234 FB68     		ldr	r3, [r7, #12]
 1292 0236 9A63     		str	r2, [r3, #56]
 817:./Libraries/STM32F4xx_HAL_Driver/Src/stm32f4xx_hal_sd.c ****       hsd->State = HAL_SD_STATE_READY;
 1293              		.loc 1 817 18
 1294 0238 FB68     		ldr	r3, [r7, #12]
 1295 023a 0122     		movs	r2, #1
ARM GAS  /tmp/ccMhfXg8.s 			page 38


 1296 023c 83F83420 		strb	r2, [r3, #52]
 818:./Libraries/STM32F4xx_HAL_Driver/Src/stm32f4xx_hal_sd.c ****       return HAL_ERROR;
 1297              		.loc 1 818 14
 1298 0240 0123     		movs	r3, #1
 1299 0242 41E0     		b	.L61
 1300              	.L58:
 819:./Libraries/STM32F4xx_HAL_Driver/Src/stm32f4xx_hal_sd.c ****     }
 820:./Libraries/STM32F4xx_HAL_Driver/Src/stm32f4xx_hal_sd.c ****     else if(__HAL_SD_GET_FLAG(hsd, SDIO_FLAG_DCRCFAIL))
 1301              		.loc 1 820 13
 1302 0244 FB68     		ldr	r3, [r7, #12]
 1303 0246 1B68     		ldr	r3, [r3]
 1304 0248 5B6B     		ldr	r3, [r3, #52]
 1305 024a 03F00203 		and	r3, r3, #2
 1306              		.loc 1 820 12
 1307 024e 002B     		cmp	r3, #0
 1308 0250 10D0     		beq	.L59
 821:./Libraries/STM32F4xx_HAL_Driver/Src/stm32f4xx_hal_sd.c ****     {
 822:./Libraries/STM32F4xx_HAL_Driver/Src/stm32f4xx_hal_sd.c ****       /* Clear all the static flags */
 823:./Libraries/STM32F4xx_HAL_Driver/Src/stm32f4xx_hal_sd.c ****       __HAL_SD_CLEAR_FLAG(hsd, SDIO_STATIC_FLAGS);
 1309              		.loc 1 823 7
 1310 0252 FB68     		ldr	r3, [r7, #12]
 1311 0254 1B68     		ldr	r3, [r3]
 1312 0256 40F2FF52 		movw	r2, #1535
 1313 025a 9A63     		str	r2, [r3, #56]
 824:./Libraries/STM32F4xx_HAL_Driver/Src/stm32f4xx_hal_sd.c ****       hsd->ErrorCode |= HAL_SD_ERROR_DATA_CRC_FAIL;      
 1314              		.loc 1 824 22
 1315 025c FB68     		ldr	r3, [r7, #12]
 1316 025e 9B6B     		ldr	r3, [r3, #56]
 1317 0260 43F00202 		orr	r2, r3, #2
 1318 0264 FB68     		ldr	r3, [r7, #12]
 1319 0266 9A63     		str	r2, [r3, #56]
 825:./Libraries/STM32F4xx_HAL_Driver/Src/stm32f4xx_hal_sd.c ****       hsd->State = HAL_SD_STATE_READY;
 1320              		.loc 1 825 18
 1321 0268 FB68     		ldr	r3, [r7, #12]
 1322 026a 0122     		movs	r2, #1
 1323 026c 83F83420 		strb	r2, [r3, #52]
 826:./Libraries/STM32F4xx_HAL_Driver/Src/stm32f4xx_hal_sd.c ****       return HAL_ERROR;
 1324              		.loc 1 826 14
 1325 0270 0123     		movs	r3, #1
 1326 0272 29E0     		b	.L61
 1327              	.L59:
 827:./Libraries/STM32F4xx_HAL_Driver/Src/stm32f4xx_hal_sd.c ****     }
 828:./Libraries/STM32F4xx_HAL_Driver/Src/stm32f4xx_hal_sd.c ****     else if(__HAL_SD_GET_FLAG(hsd, SDIO_FLAG_TXUNDERR))
 1328              		.loc 1 828 13
 1329 0274 FB68     		ldr	r3, [r7, #12]
 1330 0276 1B68     		ldr	r3, [r3]
 1331 0278 5B6B     		ldr	r3, [r3, #52]
 1332 027a 03F01003 		and	r3, r3, #16
 1333              		.loc 1 828 12
 1334 027e 002B     		cmp	r3, #0
 1335 0280 10D0     		beq	.L60
 829:./Libraries/STM32F4xx_HAL_Driver/Src/stm32f4xx_hal_sd.c ****     {
 830:./Libraries/STM32F4xx_HAL_Driver/Src/stm32f4xx_hal_sd.c ****       /* Clear all the static flags */
 831:./Libraries/STM32F4xx_HAL_Driver/Src/stm32f4xx_hal_sd.c ****       __HAL_SD_CLEAR_FLAG(hsd, SDIO_STATIC_FLAGS);
 1336              		.loc 1 831 7
 1337 0282 FB68     		ldr	r3, [r7, #12]
 1338 0284 1B68     		ldr	r3, [r3]
ARM GAS  /tmp/ccMhfXg8.s 			page 39


 1339 0286 40F2FF52 		movw	r2, #1535
 1340 028a 9A63     		str	r2, [r3, #56]
 832:./Libraries/STM32F4xx_HAL_Driver/Src/stm32f4xx_hal_sd.c ****       hsd->ErrorCode |= HAL_SD_ERROR_TX_UNDERRUN;
 1341              		.loc 1 832 22
 1342 028c FB68     		ldr	r3, [r7, #12]
 1343 028e 9B6B     		ldr	r3, [r3, #56]
 1344 0290 43F01002 		orr	r2, r3, #16
 1345 0294 FB68     		ldr	r3, [r7, #12]
 1346 0296 9A63     		str	r2, [r3, #56]
 833:./Libraries/STM32F4xx_HAL_Driver/Src/stm32f4xx_hal_sd.c ****       hsd->State = HAL_SD_STATE_READY;
 1347              		.loc 1 833 18
 1348 0298 FB68     		ldr	r3, [r7, #12]
 1349 029a 0122     		movs	r2, #1
 1350 029c 83F83420 		strb	r2, [r3, #52]
 834:./Libraries/STM32F4xx_HAL_Driver/Src/stm32f4xx_hal_sd.c ****       return HAL_ERROR;
 1351              		.loc 1 834 14
 1352 02a0 0123     		movs	r3, #1
 1353 02a2 11E0     		b	.L61
 1354              	.L60:
 835:./Libraries/STM32F4xx_HAL_Driver/Src/stm32f4xx_hal_sd.c ****     }
 836:./Libraries/STM32F4xx_HAL_Driver/Src/stm32f4xx_hal_sd.c ****     
 837:./Libraries/STM32F4xx_HAL_Driver/Src/stm32f4xx_hal_sd.c ****     /* Clear all the static flags */
 838:./Libraries/STM32F4xx_HAL_Driver/Src/stm32f4xx_hal_sd.c ****     __HAL_SD_CLEAR_FLAG(hsd, SDIO_STATIC_FLAGS);
 1355              		.loc 1 838 5
 1356 02a4 FB68     		ldr	r3, [r7, #12]
 1357 02a6 1B68     		ldr	r3, [r3]
 1358 02a8 40F2FF52 		movw	r2, #1535
 1359 02ac 9A63     		str	r2, [r3, #56]
 839:./Libraries/STM32F4xx_HAL_Driver/Src/stm32f4xx_hal_sd.c ****     
 840:./Libraries/STM32F4xx_HAL_Driver/Src/stm32f4xx_hal_sd.c ****     hsd->State = HAL_SD_STATE_READY;
 1360              		.loc 1 840 16
 1361 02ae FB68     		ldr	r3, [r7, #12]
 1362 02b0 0122     		movs	r2, #1
 1363 02b2 83F83420 		strb	r2, [r3, #52]
 841:./Libraries/STM32F4xx_HAL_Driver/Src/stm32f4xx_hal_sd.c ****     
 842:./Libraries/STM32F4xx_HAL_Driver/Src/stm32f4xx_hal_sd.c ****     return HAL_OK;
 1364              		.loc 1 842 12
 1365 02b6 0023     		movs	r3, #0
 1366 02b8 06E0     		b	.L61
 1367              	.L44:
 843:./Libraries/STM32F4xx_HAL_Driver/Src/stm32f4xx_hal_sd.c ****   }
 844:./Libraries/STM32F4xx_HAL_Driver/Src/stm32f4xx_hal_sd.c ****   else
 845:./Libraries/STM32F4xx_HAL_Driver/Src/stm32f4xx_hal_sd.c ****   {
 846:./Libraries/STM32F4xx_HAL_Driver/Src/stm32f4xx_hal_sd.c ****     hsd->ErrorCode |= HAL_SD_ERROR_BUSY;
 1368              		.loc 1 846 20
 1369 02ba FB68     		ldr	r3, [r7, #12]
 1370 02bc 9B6B     		ldr	r3, [r3, #56]
 1371 02be 43F00052 		orr	r2, r3, #536870912
 1372 02c2 FB68     		ldr	r3, [r7, #12]
 1373 02c4 9A63     		str	r2, [r3, #56]
 847:./Libraries/STM32F4xx_HAL_Driver/Src/stm32f4xx_hal_sd.c ****     return HAL_ERROR;
 1374              		.loc 1 847 12
 1375 02c6 0123     		movs	r3, #1
 1376              	.L61:
 848:./Libraries/STM32F4xx_HAL_Driver/Src/stm32f4xx_hal_sd.c ****   }
 849:./Libraries/STM32F4xx_HAL_Driver/Src/stm32f4xx_hal_sd.c **** }
 1377              		.loc 1 849 1 discriminator 1
ARM GAS  /tmp/ccMhfXg8.s 			page 40


 1378 02c8 1846     		mov	r0, r3
 1379 02ca 3837     		adds	r7, r7, #56
 1380              	.LCFI35:
 1381              		.cfi_def_cfa_offset 8
 1382 02cc BD46     		mov	sp, r7
 1383              	.LCFI36:
 1384              		.cfi_def_cfa_register 13
 1385              		@ sp needed
 1386 02ce 80BD     		pop	{r7, pc}
 1387              		.cfi_endproc
 1388              	.LFE132:
 1390              		.section	.text.HAL_SD_ReadBlocks_IT,"ax",%progbits
 1391              		.align	1
 1392              		.global	HAL_SD_ReadBlocks_IT
 1393              		.syntax unified
 1394              		.thumb
 1395              		.thumb_func
 1396              		.fpu fpv4-sp-d16
 1398              	HAL_SD_ReadBlocks_IT:
 1399              	.LFB133:
 850:./Libraries/STM32F4xx_HAL_Driver/Src/stm32f4xx_hal_sd.c **** 
 851:./Libraries/STM32F4xx_HAL_Driver/Src/stm32f4xx_hal_sd.c **** /**
 852:./Libraries/STM32F4xx_HAL_Driver/Src/stm32f4xx_hal_sd.c ****   * @brief  Reads block(s) from a specified address in a card. The Data transfer 
 853:./Libraries/STM32F4xx_HAL_Driver/Src/stm32f4xx_hal_sd.c ****   *         is managed in interrupt mode. 
 854:./Libraries/STM32F4xx_HAL_Driver/Src/stm32f4xx_hal_sd.c ****   * @note   This API should be followed by a check on the card state through
 855:./Libraries/STM32F4xx_HAL_Driver/Src/stm32f4xx_hal_sd.c ****   *         HAL_SD_GetCardState().
 856:./Libraries/STM32F4xx_HAL_Driver/Src/stm32f4xx_hal_sd.c ****   * @note   You could also check the IT transfer process through the SD Rx 
 857:./Libraries/STM32F4xx_HAL_Driver/Src/stm32f4xx_hal_sd.c ****   *         interrupt event.
 858:./Libraries/STM32F4xx_HAL_Driver/Src/stm32f4xx_hal_sd.c ****   * @param  hsd Pointer to SD handle                 
 859:./Libraries/STM32F4xx_HAL_Driver/Src/stm32f4xx_hal_sd.c ****   * @param  pData Pointer to the buffer that will contain the received data
 860:./Libraries/STM32F4xx_HAL_Driver/Src/stm32f4xx_hal_sd.c ****   * @param  BlockAdd Block Address from where data is to be read 
 861:./Libraries/STM32F4xx_HAL_Driver/Src/stm32f4xx_hal_sd.c ****   * @param  NumberOfBlocks Number of blocks to read.
 862:./Libraries/STM32F4xx_HAL_Driver/Src/stm32f4xx_hal_sd.c ****   * @retval HAL status
 863:./Libraries/STM32F4xx_HAL_Driver/Src/stm32f4xx_hal_sd.c ****   */
 864:./Libraries/STM32F4xx_HAL_Driver/Src/stm32f4xx_hal_sd.c **** HAL_StatusTypeDef HAL_SD_ReadBlocks_IT(SD_HandleTypeDef *hsd, uint8_t *pData, uint32_t BlockAdd, ui
 865:./Libraries/STM32F4xx_HAL_Driver/Src/stm32f4xx_hal_sd.c **** {
 1400              		.loc 1 865 1
 1401              		.cfi_startproc
 1402              		@ args = 0, pretend = 0, frame = 48
 1403              		@ frame_needed = 1, uses_anonymous_args = 0
 1404 0000 80B5     		push	{r7, lr}
 1405              	.LCFI37:
 1406              		.cfi_def_cfa_offset 8
 1407              		.cfi_offset 7, -8
 1408              		.cfi_offset 14, -4
 1409 0002 8CB0     		sub	sp, sp, #48
 1410              	.LCFI38:
 1411              		.cfi_def_cfa_offset 56
 1412 0004 00AF     		add	r7, sp, #0
 1413              	.LCFI39:
 1414              		.cfi_def_cfa_register 7
 1415 0006 F860     		str	r0, [r7, #12]
 1416 0008 B960     		str	r1, [r7, #8]
 1417 000a 7A60     		str	r2, [r7, #4]
 1418 000c 3B60     		str	r3, [r7]
 866:./Libraries/STM32F4xx_HAL_Driver/Src/stm32f4xx_hal_sd.c ****   SDIO_DataInitTypeDef config;
 867:./Libraries/STM32F4xx_HAL_Driver/Src/stm32f4xx_hal_sd.c ****   uint32_t errorstate = HAL_SD_ERROR_NONE;
ARM GAS  /tmp/ccMhfXg8.s 			page 41


 1419              		.loc 1 867 12
 1420 000e 0023     		movs	r3, #0
 1421 0010 FB62     		str	r3, [r7, #44]
 868:./Libraries/STM32F4xx_HAL_Driver/Src/stm32f4xx_hal_sd.c ****   
 869:./Libraries/STM32F4xx_HAL_Driver/Src/stm32f4xx_hal_sd.c ****   if(NULL == pData)
 1422              		.loc 1 869 5
 1423 0012 BB68     		ldr	r3, [r7, #8]
 1424 0014 002B     		cmp	r3, #0
 1425 0016 07D1     		bne	.L63
 870:./Libraries/STM32F4xx_HAL_Driver/Src/stm32f4xx_hal_sd.c ****   {
 871:./Libraries/STM32F4xx_HAL_Driver/Src/stm32f4xx_hal_sd.c ****     hsd->ErrorCode |= HAL_SD_ERROR_PARAM;
 1426              		.loc 1 871 20
 1427 0018 FB68     		ldr	r3, [r7, #12]
 1428 001a 9B6B     		ldr	r3, [r3, #56]
 1429 001c 43F00062 		orr	r2, r3, #134217728
 1430 0020 FB68     		ldr	r3, [r7, #12]
 1431 0022 9A63     		str	r2, [r3, #56]
 872:./Libraries/STM32F4xx_HAL_Driver/Src/stm32f4xx_hal_sd.c ****     return HAL_ERROR;
 1432              		.loc 1 872 12
 1433 0024 0123     		movs	r3, #1
 1434 0026 99E0     		b	.L72
 1435              	.L63:
 873:./Libraries/STM32F4xx_HAL_Driver/Src/stm32f4xx_hal_sd.c ****   }
 874:./Libraries/STM32F4xx_HAL_Driver/Src/stm32f4xx_hal_sd.c ****   
 875:./Libraries/STM32F4xx_HAL_Driver/Src/stm32f4xx_hal_sd.c ****   if(hsd->State == HAL_SD_STATE_READY)
 1436              		.loc 1 875 9
 1437 0028 FB68     		ldr	r3, [r7, #12]
 1438 002a 93F83430 		ldrb	r3, [r3, #52]
 1439 002e DBB2     		uxtb	r3, r3
 1440              		.loc 1 875 5
 1441 0030 012B     		cmp	r3, #1
 1442 0032 40F09280 		bne	.L65
 876:./Libraries/STM32F4xx_HAL_Driver/Src/stm32f4xx_hal_sd.c ****   {
 877:./Libraries/STM32F4xx_HAL_Driver/Src/stm32f4xx_hal_sd.c ****     hsd->ErrorCode = HAL_DMA_ERROR_NONE;
 1443              		.loc 1 877 20
 1444 0036 FB68     		ldr	r3, [r7, #12]
 1445 0038 0022     		movs	r2, #0
 1446 003a 9A63     		str	r2, [r3, #56]
 878:./Libraries/STM32F4xx_HAL_Driver/Src/stm32f4xx_hal_sd.c ****     
 879:./Libraries/STM32F4xx_HAL_Driver/Src/stm32f4xx_hal_sd.c ****     if((BlockAdd + NumberOfBlocks) > (hsd->SdCard.LogBlockNbr))
 1447              		.loc 1 879 18
 1448 003c 7A68     		ldr	r2, [r7, #4]
 1449 003e 3B68     		ldr	r3, [r7]
 1450 0040 1A44     		add	r2, r2, r3
 1451              		.loc 1 879 50
 1452 0042 FB68     		ldr	r3, [r7, #12]
 1453 0044 DB6D     		ldr	r3, [r3, #92]
 1454              		.loc 1 879 7
 1455 0046 9A42     		cmp	r2, r3
 1456 0048 07D9     		bls	.L66
 880:./Libraries/STM32F4xx_HAL_Driver/Src/stm32f4xx_hal_sd.c ****     {
 881:./Libraries/STM32F4xx_HAL_Driver/Src/stm32f4xx_hal_sd.c ****       hsd->ErrorCode |= HAL_SD_ERROR_ADDR_OUT_OF_RANGE;
 1457              		.loc 1 881 22
 1458 004a FB68     		ldr	r3, [r7, #12]
 1459 004c 9B6B     		ldr	r3, [r3, #56]
 1460 004e 43F00072 		orr	r2, r3, #33554432
 1461 0052 FB68     		ldr	r3, [r7, #12]
ARM GAS  /tmp/ccMhfXg8.s 			page 42


 1462 0054 9A63     		str	r2, [r3, #56]
 882:./Libraries/STM32F4xx_HAL_Driver/Src/stm32f4xx_hal_sd.c ****       return HAL_ERROR;
 1463              		.loc 1 882 14
 1464 0056 0123     		movs	r3, #1
 1465 0058 80E0     		b	.L72
 1466              	.L66:
 883:./Libraries/STM32F4xx_HAL_Driver/Src/stm32f4xx_hal_sd.c ****     }
 884:./Libraries/STM32F4xx_HAL_Driver/Src/stm32f4xx_hal_sd.c ****     
 885:./Libraries/STM32F4xx_HAL_Driver/Src/stm32f4xx_hal_sd.c ****     hsd->State = HAL_SD_STATE_BUSY;
 1467              		.loc 1 885 16
 1468 005a FB68     		ldr	r3, [r7, #12]
 1469 005c 0322     		movs	r2, #3
 1470 005e 83F83420 		strb	r2, [r3, #52]
 886:./Libraries/STM32F4xx_HAL_Driver/Src/stm32f4xx_hal_sd.c ****     
 887:./Libraries/STM32F4xx_HAL_Driver/Src/stm32f4xx_hal_sd.c ****     /* Initialize data control register */
 888:./Libraries/STM32F4xx_HAL_Driver/Src/stm32f4xx_hal_sd.c ****     hsd->Instance->DCTRL = 0U;
 1471              		.loc 1 888 8
 1472 0062 FB68     		ldr	r3, [r7, #12]
 1473 0064 1B68     		ldr	r3, [r3]
 1474              		.loc 1 888 26
 1475 0066 0022     		movs	r2, #0
 1476 0068 DA62     		str	r2, [r3, #44]
 889:./Libraries/STM32F4xx_HAL_Driver/Src/stm32f4xx_hal_sd.c ****     
 890:./Libraries/STM32F4xx_HAL_Driver/Src/stm32f4xx_hal_sd.c ****     hsd->pRxBuffPtr = (uint32_t *)pData;
 1477              		.loc 1 890 21
 1478 006a FB68     		ldr	r3, [r7, #12]
 1479 006c BA68     		ldr	r2, [r7, #8]
 1480 006e 9A62     		str	r2, [r3, #40]
 891:./Libraries/STM32F4xx_HAL_Driver/Src/stm32f4xx_hal_sd.c ****     hsd->RxXferSize = BLOCKSIZE * NumberOfBlocks;
 1481              		.loc 1 891 33
 1482 0070 3B68     		ldr	r3, [r7]
 1483 0072 5A02     		lsls	r2, r3, #9
 1484              		.loc 1 891 21
 1485 0074 FB68     		ldr	r3, [r7, #12]
 1486 0076 DA62     		str	r2, [r3, #44]
 892:./Libraries/STM32F4xx_HAL_Driver/Src/stm32f4xx_hal_sd.c ****     
 893:./Libraries/STM32F4xx_HAL_Driver/Src/stm32f4xx_hal_sd.c **** #ifdef SDIO_STA_STBITER
 894:./Libraries/STM32F4xx_HAL_Driver/Src/stm32f4xx_hal_sd.c ****     __HAL_SD_ENABLE_IT(hsd, (SDIO_IT_DCRCFAIL | SDIO_IT_DTIMEOUT | SDIO_IT_RXOVERR | SDIO_IT_DATAEN
 895:./Libraries/STM32F4xx_HAL_Driver/Src/stm32f4xx_hal_sd.c **** #else /* SDIO_STA_STBITERR not defined */
 896:./Libraries/STM32F4xx_HAL_Driver/Src/stm32f4xx_hal_sd.c ****     __HAL_SD_ENABLE_IT(hsd, (SDIO_IT_DCRCFAIL | SDIO_IT_DTIMEOUT | SDIO_IT_RXOVERR | SDIO_IT_DATAEN
 1487              		.loc 1 896 5
 1488 0078 FB68     		ldr	r3, [r7, #12]
 1489 007a 1B68     		ldr	r3, [r3]
 1490 007c DB6B     		ldr	r3, [r3, #60]
 1491 007e FA68     		ldr	r2, [r7, #12]
 1492 0080 1268     		ldr	r2, [r2]
 1493 0082 43F40143 		orr	r3, r3, #33024
 1494 0086 43F02A03 		orr	r3, r3, #42
 1495 008a D363     		str	r3, [r2, #60]
 897:./Libraries/STM32F4xx_HAL_Driver/Src/stm32f4xx_hal_sd.c **** #endif /* SDIO_STA_STBITERR */
 898:./Libraries/STM32F4xx_HAL_Driver/Src/stm32f4xx_hal_sd.c ****     
 899:./Libraries/STM32F4xx_HAL_Driver/Src/stm32f4xx_hal_sd.c ****     if(hsd->SdCard.CardType != CARD_SDHC_SDXC)
 1496              		.loc 1 899 19
 1497 008c FB68     		ldr	r3, [r7, #12]
 1498 008e 5B6C     		ldr	r3, [r3, #68]
 1499              		.loc 1 899 7
 1500 0090 012B     		cmp	r3, #1
ARM GAS  /tmp/ccMhfXg8.s 			page 43


 1501 0092 02D0     		beq	.L67
 900:./Libraries/STM32F4xx_HAL_Driver/Src/stm32f4xx_hal_sd.c ****     {
 901:./Libraries/STM32F4xx_HAL_Driver/Src/stm32f4xx_hal_sd.c ****       BlockAdd *= 512U;
 1502              		.loc 1 901 16
 1503 0094 7B68     		ldr	r3, [r7, #4]
 1504 0096 5B02     		lsls	r3, r3, #9
 1505 0098 7B60     		str	r3, [r7, #4]
 1506              	.L67:
 902:./Libraries/STM32F4xx_HAL_Driver/Src/stm32f4xx_hal_sd.c ****     }
 903:./Libraries/STM32F4xx_HAL_Driver/Src/stm32f4xx_hal_sd.c ****     
 904:./Libraries/STM32F4xx_HAL_Driver/Src/stm32f4xx_hal_sd.c ****     /* Configure the SD DPSM (Data Path State Machine) */ 
 905:./Libraries/STM32F4xx_HAL_Driver/Src/stm32f4xx_hal_sd.c ****     config.DataTimeOut   = SDMMC_DATATIMEOUT;
 1507              		.loc 1 905 26
 1508 009a 4FF0FF33 		mov	r3, #-1
 1509 009e 7B61     		str	r3, [r7, #20]
 906:./Libraries/STM32F4xx_HAL_Driver/Src/stm32f4xx_hal_sd.c ****     config.DataLength    = BLOCKSIZE * NumberOfBlocks;
 1510              		.loc 1 906 38
 1511 00a0 3B68     		ldr	r3, [r7]
 1512 00a2 5B02     		lsls	r3, r3, #9
 1513              		.loc 1 906 26
 1514 00a4 BB61     		str	r3, [r7, #24]
 907:./Libraries/STM32F4xx_HAL_Driver/Src/stm32f4xx_hal_sd.c ****     config.DataBlockSize = SDIO_DATABLOCK_SIZE_512B;
 1515              		.loc 1 907 26
 1516 00a6 9023     		movs	r3, #144
 1517 00a8 FB61     		str	r3, [r7, #28]
 908:./Libraries/STM32F4xx_HAL_Driver/Src/stm32f4xx_hal_sd.c ****     config.TransferDir   = SDIO_TRANSFER_DIR_TO_SDIO;
 1518              		.loc 1 908 26
 1519 00aa 0223     		movs	r3, #2
 1520 00ac 3B62     		str	r3, [r7, #32]
 909:./Libraries/STM32F4xx_HAL_Driver/Src/stm32f4xx_hal_sd.c ****     config.TransferMode  = SDIO_TRANSFER_MODE_BLOCK;
 1521              		.loc 1 909 26
 1522 00ae 0023     		movs	r3, #0
 1523 00b0 7B62     		str	r3, [r7, #36]
 910:./Libraries/STM32F4xx_HAL_Driver/Src/stm32f4xx_hal_sd.c ****     config.DPSM          = SDIO_DPSM_ENABLE;
 1524              		.loc 1 910 26
 1525 00b2 0123     		movs	r3, #1
 1526 00b4 BB62     		str	r3, [r7, #40]
 911:./Libraries/STM32F4xx_HAL_Driver/Src/stm32f4xx_hal_sd.c ****     SDIO_ConfigData(hsd->Instance, &config);
 1527              		.loc 1 911 5
 1528 00b6 FB68     		ldr	r3, [r7, #12]
 1529 00b8 1B68     		ldr	r3, [r3]
 1530 00ba 07F11402 		add	r2, r7, #20
 1531 00be 1146     		mov	r1, r2
 1532 00c0 1846     		mov	r0, r3
 1533 00c2 FFF7FEFF 		bl	SDIO_ConfigData
 912:./Libraries/STM32F4xx_HAL_Driver/Src/stm32f4xx_hal_sd.c ****     
 913:./Libraries/STM32F4xx_HAL_Driver/Src/stm32f4xx_hal_sd.c ****     /* Set Block Size for Card */ 
 914:./Libraries/STM32F4xx_HAL_Driver/Src/stm32f4xx_hal_sd.c ****     errorstate = SDMMC_CmdBlockLength(hsd->Instance, BLOCKSIZE);
 1534              		.loc 1 914 18
 1535 00c6 FB68     		ldr	r3, [r7, #12]
 1536 00c8 1B68     		ldr	r3, [r3]
 1537 00ca 4FF40071 		mov	r1, #512
 1538 00ce 1846     		mov	r0, r3
 1539 00d0 FFF7FEFF 		bl	SDMMC_CmdBlockLength
 1540 00d4 F862     		str	r0, [r7, #44]
 915:./Libraries/STM32F4xx_HAL_Driver/Src/stm32f4xx_hal_sd.c ****     if(errorstate != HAL_SD_ERROR_NONE)
 1541              		.loc 1 915 7
ARM GAS  /tmp/ccMhfXg8.s 			page 44


 1542 00d6 FB6A     		ldr	r3, [r7, #44]
 1543 00d8 002B     		cmp	r3, #0
 1544 00da 10D0     		beq	.L68
 916:./Libraries/STM32F4xx_HAL_Driver/Src/stm32f4xx_hal_sd.c ****     {
 917:./Libraries/STM32F4xx_HAL_Driver/Src/stm32f4xx_hal_sd.c ****       /* Clear all the static flags */
 918:./Libraries/STM32F4xx_HAL_Driver/Src/stm32f4xx_hal_sd.c ****       __HAL_SD_CLEAR_FLAG(hsd, SDIO_STATIC_FLAGS); 
 1545              		.loc 1 918 7
 1546 00dc FB68     		ldr	r3, [r7, #12]
 1547 00de 1B68     		ldr	r3, [r3]
 1548 00e0 40F2FF52 		movw	r2, #1535
 1549 00e4 9A63     		str	r2, [r3, #56]
 919:./Libraries/STM32F4xx_HAL_Driver/Src/stm32f4xx_hal_sd.c ****       hsd->ErrorCode |= errorstate;
 1550              		.loc 1 919 22
 1551 00e6 FB68     		ldr	r3, [r7, #12]
 1552 00e8 9A6B     		ldr	r2, [r3, #56]
 1553 00ea FB6A     		ldr	r3, [r7, #44]
 1554 00ec 1A43     		orrs	r2, r2, r3
 1555 00ee FB68     		ldr	r3, [r7, #12]
 1556 00f0 9A63     		str	r2, [r3, #56]
 920:./Libraries/STM32F4xx_HAL_Driver/Src/stm32f4xx_hal_sd.c ****       hsd->State = HAL_SD_STATE_READY;
 1557              		.loc 1 920 18
 1558 00f2 FB68     		ldr	r3, [r7, #12]
 1559 00f4 0122     		movs	r2, #1
 1560 00f6 83F83420 		strb	r2, [r3, #52]
 921:./Libraries/STM32F4xx_HAL_Driver/Src/stm32f4xx_hal_sd.c ****       return HAL_ERROR;
 1561              		.loc 1 921 14
 1562 00fa 0123     		movs	r3, #1
 1563 00fc 2EE0     		b	.L72
 1564              	.L68:
 922:./Libraries/STM32F4xx_HAL_Driver/Src/stm32f4xx_hal_sd.c ****     }
 923:./Libraries/STM32F4xx_HAL_Driver/Src/stm32f4xx_hal_sd.c **** 
 924:./Libraries/STM32F4xx_HAL_Driver/Src/stm32f4xx_hal_sd.c ****     /* Read Blocks in IT mode */
 925:./Libraries/STM32F4xx_HAL_Driver/Src/stm32f4xx_hal_sd.c ****     if(NumberOfBlocks > 1U)
 1565              		.loc 1 925 7
 1566 00fe 3B68     		ldr	r3, [r7]
 1567 0100 012B     		cmp	r3, #1
 1568 0102 0AD9     		bls	.L69
 926:./Libraries/STM32F4xx_HAL_Driver/Src/stm32f4xx_hal_sd.c ****     {
 927:./Libraries/STM32F4xx_HAL_Driver/Src/stm32f4xx_hal_sd.c ****       hsd->Context = (SD_CONTEXT_READ_MULTIPLE_BLOCK | SD_CONTEXT_IT);
 1569              		.loc 1 927 20
 1570 0104 FB68     		ldr	r3, [r7, #12]
 1571 0106 0A22     		movs	r2, #10
 1572 0108 1A63     		str	r2, [r3, #48]
 928:./Libraries/STM32F4xx_HAL_Driver/Src/stm32f4xx_hal_sd.c ****       
 929:./Libraries/STM32F4xx_HAL_Driver/Src/stm32f4xx_hal_sd.c ****       /* Read Multi Block command */
 930:./Libraries/STM32F4xx_HAL_Driver/Src/stm32f4xx_hal_sd.c ****       errorstate = SDMMC_CmdReadMultiBlock(hsd->Instance, BlockAdd);
 1573              		.loc 1 930 20
 1574 010a FB68     		ldr	r3, [r7, #12]
 1575 010c 1B68     		ldr	r3, [r3]
 1576 010e 7968     		ldr	r1, [r7, #4]
 1577 0110 1846     		mov	r0, r3
 1578 0112 FFF7FEFF 		bl	SDMMC_CmdReadMultiBlock
 1579 0116 F862     		str	r0, [r7, #44]
 1580 0118 09E0     		b	.L70
 1581              	.L69:
 931:./Libraries/STM32F4xx_HAL_Driver/Src/stm32f4xx_hal_sd.c ****     }
 932:./Libraries/STM32F4xx_HAL_Driver/Src/stm32f4xx_hal_sd.c ****     else
ARM GAS  /tmp/ccMhfXg8.s 			page 45


 933:./Libraries/STM32F4xx_HAL_Driver/Src/stm32f4xx_hal_sd.c ****     {
 934:./Libraries/STM32F4xx_HAL_Driver/Src/stm32f4xx_hal_sd.c ****       hsd->Context = (SD_CONTEXT_READ_SINGLE_BLOCK | SD_CONTEXT_IT);
 1582              		.loc 1 934 20
 1583 011a FB68     		ldr	r3, [r7, #12]
 1584 011c 0922     		movs	r2, #9
 1585 011e 1A63     		str	r2, [r3, #48]
 935:./Libraries/STM32F4xx_HAL_Driver/Src/stm32f4xx_hal_sd.c ****       
 936:./Libraries/STM32F4xx_HAL_Driver/Src/stm32f4xx_hal_sd.c ****       /* Read Single Block command */
 937:./Libraries/STM32F4xx_HAL_Driver/Src/stm32f4xx_hal_sd.c ****       errorstate = SDMMC_CmdReadSingleBlock(hsd->Instance, BlockAdd);
 1586              		.loc 1 937 20
 1587 0120 FB68     		ldr	r3, [r7, #12]
 1588 0122 1B68     		ldr	r3, [r3]
 1589 0124 7968     		ldr	r1, [r7, #4]
 1590 0126 1846     		mov	r0, r3
 1591 0128 FFF7FEFF 		bl	SDMMC_CmdReadSingleBlock
 1592 012c F862     		str	r0, [r7, #44]
 1593              	.L70:
 938:./Libraries/STM32F4xx_HAL_Driver/Src/stm32f4xx_hal_sd.c ****     }
 939:./Libraries/STM32F4xx_HAL_Driver/Src/stm32f4xx_hal_sd.c ****     if(errorstate != HAL_SD_ERROR_NONE)
 1594              		.loc 1 939 7
 1595 012e FB6A     		ldr	r3, [r7, #44]
 1596 0130 002B     		cmp	r3, #0
 1597 0132 10D0     		beq	.L71
 940:./Libraries/STM32F4xx_HAL_Driver/Src/stm32f4xx_hal_sd.c ****     {
 941:./Libraries/STM32F4xx_HAL_Driver/Src/stm32f4xx_hal_sd.c ****       /* Clear all the static flags */
 942:./Libraries/STM32F4xx_HAL_Driver/Src/stm32f4xx_hal_sd.c ****       __HAL_SD_CLEAR_FLAG(hsd, SDIO_STATIC_FLAGS); 
 1598              		.loc 1 942 7
 1599 0134 FB68     		ldr	r3, [r7, #12]
 1600 0136 1B68     		ldr	r3, [r3]
 1601 0138 40F2FF52 		movw	r2, #1535
 1602 013c 9A63     		str	r2, [r3, #56]
 943:./Libraries/STM32F4xx_HAL_Driver/Src/stm32f4xx_hal_sd.c ****       hsd->ErrorCode |= errorstate;
 1603              		.loc 1 943 22
 1604 013e FB68     		ldr	r3, [r7, #12]
 1605 0140 9A6B     		ldr	r2, [r3, #56]
 1606 0142 FB6A     		ldr	r3, [r7, #44]
 1607 0144 1A43     		orrs	r2, r2, r3
 1608 0146 FB68     		ldr	r3, [r7, #12]
 1609 0148 9A63     		str	r2, [r3, #56]
 944:./Libraries/STM32F4xx_HAL_Driver/Src/stm32f4xx_hal_sd.c ****       hsd->State = HAL_SD_STATE_READY;
 1610              		.loc 1 944 18
 1611 014a FB68     		ldr	r3, [r7, #12]
 1612 014c 0122     		movs	r2, #1
 1613 014e 83F83420 		strb	r2, [r3, #52]
 945:./Libraries/STM32F4xx_HAL_Driver/Src/stm32f4xx_hal_sd.c ****       return HAL_ERROR;
 1614              		.loc 1 945 14
 1615 0152 0123     		movs	r3, #1
 1616 0154 02E0     		b	.L72
 1617              	.L71:
 946:./Libraries/STM32F4xx_HAL_Driver/Src/stm32f4xx_hal_sd.c ****     }
 947:./Libraries/STM32F4xx_HAL_Driver/Src/stm32f4xx_hal_sd.c ****     
 948:./Libraries/STM32F4xx_HAL_Driver/Src/stm32f4xx_hal_sd.c ****     return HAL_OK;
 1618              		.loc 1 948 12
 1619 0156 0023     		movs	r3, #0
 1620 0158 00E0     		b	.L72
 1621              	.L65:
 949:./Libraries/STM32F4xx_HAL_Driver/Src/stm32f4xx_hal_sd.c ****   }
ARM GAS  /tmp/ccMhfXg8.s 			page 46


 950:./Libraries/STM32F4xx_HAL_Driver/Src/stm32f4xx_hal_sd.c ****   else
 951:./Libraries/STM32F4xx_HAL_Driver/Src/stm32f4xx_hal_sd.c ****   {
 952:./Libraries/STM32F4xx_HAL_Driver/Src/stm32f4xx_hal_sd.c ****     return HAL_BUSY;
 1622              		.loc 1 952 12
 1623 015a 0223     		movs	r3, #2
 1624              	.L72:
 953:./Libraries/STM32F4xx_HAL_Driver/Src/stm32f4xx_hal_sd.c ****   }
 954:./Libraries/STM32F4xx_HAL_Driver/Src/stm32f4xx_hal_sd.c **** }
 1625              		.loc 1 954 1 discriminator 1
 1626 015c 1846     		mov	r0, r3
 1627 015e 3037     		adds	r7, r7, #48
 1628              	.LCFI40:
 1629              		.cfi_def_cfa_offset 8
 1630 0160 BD46     		mov	sp, r7
 1631              	.LCFI41:
 1632              		.cfi_def_cfa_register 13
 1633              		@ sp needed
 1634 0162 80BD     		pop	{r7, pc}
 1635              		.cfi_endproc
 1636              	.LFE133:
 1638              		.section	.text.HAL_SD_WriteBlocks_IT,"ax",%progbits
 1639              		.align	1
 1640              		.global	HAL_SD_WriteBlocks_IT
 1641              		.syntax unified
 1642              		.thumb
 1643              		.thumb_func
 1644              		.fpu fpv4-sp-d16
 1646              	HAL_SD_WriteBlocks_IT:
 1647              	.LFB134:
 955:./Libraries/STM32F4xx_HAL_Driver/Src/stm32f4xx_hal_sd.c **** 
 956:./Libraries/STM32F4xx_HAL_Driver/Src/stm32f4xx_hal_sd.c **** /**
 957:./Libraries/STM32F4xx_HAL_Driver/Src/stm32f4xx_hal_sd.c ****   * @brief  Writes block(s) to a specified address in a card. The Data transfer 
 958:./Libraries/STM32F4xx_HAL_Driver/Src/stm32f4xx_hal_sd.c ****   *         is managed in interrupt mode. 
 959:./Libraries/STM32F4xx_HAL_Driver/Src/stm32f4xx_hal_sd.c ****   * @note   This API should be followed by a check on the card state through
 960:./Libraries/STM32F4xx_HAL_Driver/Src/stm32f4xx_hal_sd.c ****   *         HAL_SD_GetCardState().
 961:./Libraries/STM32F4xx_HAL_Driver/Src/stm32f4xx_hal_sd.c ****   * @note   You could also check the IT transfer process through the SD Tx 
 962:./Libraries/STM32F4xx_HAL_Driver/Src/stm32f4xx_hal_sd.c ****   *         interrupt event. 
 963:./Libraries/STM32F4xx_HAL_Driver/Src/stm32f4xx_hal_sd.c ****   * @param  hsd Pointer to SD handle
 964:./Libraries/STM32F4xx_HAL_Driver/Src/stm32f4xx_hal_sd.c ****   * @param  pData Pointer to the buffer that will contain the data to transmit
 965:./Libraries/STM32F4xx_HAL_Driver/Src/stm32f4xx_hal_sd.c ****   * @param  BlockAdd Block Address where data will be written    
 966:./Libraries/STM32F4xx_HAL_Driver/Src/stm32f4xx_hal_sd.c ****   * @param  NumberOfBlocks Number of blocks to write
 967:./Libraries/STM32F4xx_HAL_Driver/Src/stm32f4xx_hal_sd.c ****   * @retval HAL status
 968:./Libraries/STM32F4xx_HAL_Driver/Src/stm32f4xx_hal_sd.c ****   */
 969:./Libraries/STM32F4xx_HAL_Driver/Src/stm32f4xx_hal_sd.c **** HAL_StatusTypeDef HAL_SD_WriteBlocks_IT(SD_HandleTypeDef *hsd, uint8_t *pData, uint32_t BlockAdd, u
 970:./Libraries/STM32F4xx_HAL_Driver/Src/stm32f4xx_hal_sd.c **** {
 1648              		.loc 1 970 1
 1649              		.cfi_startproc
 1650              		@ args = 0, pretend = 0, frame = 48
 1651              		@ frame_needed = 1, uses_anonymous_args = 0
 1652 0000 80B5     		push	{r7, lr}
 1653              	.LCFI42:
 1654              		.cfi_def_cfa_offset 8
 1655              		.cfi_offset 7, -8
 1656              		.cfi_offset 14, -4
 1657 0002 8CB0     		sub	sp, sp, #48
 1658              	.LCFI43:
 1659              		.cfi_def_cfa_offset 56
ARM GAS  /tmp/ccMhfXg8.s 			page 47


 1660 0004 00AF     		add	r7, sp, #0
 1661              	.LCFI44:
 1662              		.cfi_def_cfa_register 7
 1663 0006 F860     		str	r0, [r7, #12]
 1664 0008 B960     		str	r1, [r7, #8]
 1665 000a 7A60     		str	r2, [r7, #4]
 1666 000c 3B60     		str	r3, [r7]
 971:./Libraries/STM32F4xx_HAL_Driver/Src/stm32f4xx_hal_sd.c ****   SDIO_DataInitTypeDef config;
 972:./Libraries/STM32F4xx_HAL_Driver/Src/stm32f4xx_hal_sd.c ****   uint32_t errorstate = HAL_SD_ERROR_NONE;
 1667              		.loc 1 972 12
 1668 000e 0023     		movs	r3, #0
 1669 0010 FB62     		str	r3, [r7, #44]
 973:./Libraries/STM32F4xx_HAL_Driver/Src/stm32f4xx_hal_sd.c ****   
 974:./Libraries/STM32F4xx_HAL_Driver/Src/stm32f4xx_hal_sd.c ****   if(NULL == pData)
 1670              		.loc 1 974 5
 1671 0012 BB68     		ldr	r3, [r7, #8]
 1672 0014 002B     		cmp	r3, #0
 1673 0016 07D1     		bne	.L74
 975:./Libraries/STM32F4xx_HAL_Driver/Src/stm32f4xx_hal_sd.c ****   {
 976:./Libraries/STM32F4xx_HAL_Driver/Src/stm32f4xx_hal_sd.c ****     hsd->ErrorCode |= HAL_SD_ERROR_PARAM;
 1674              		.loc 1 976 20
 1675 0018 FB68     		ldr	r3, [r7, #12]
 1676 001a 9B6B     		ldr	r3, [r3, #56]
 1677 001c 43F00062 		orr	r2, r3, #134217728
 1678 0020 FB68     		ldr	r3, [r7, #12]
 1679 0022 9A63     		str	r2, [r3, #56]
 977:./Libraries/STM32F4xx_HAL_Driver/Src/stm32f4xx_hal_sd.c ****     return HAL_ERROR;
 1680              		.loc 1 977 12
 1681 0024 0123     		movs	r3, #1
 1682 0026 99E0     		b	.L83
 1683              	.L74:
 978:./Libraries/STM32F4xx_HAL_Driver/Src/stm32f4xx_hal_sd.c ****   }
 979:./Libraries/STM32F4xx_HAL_Driver/Src/stm32f4xx_hal_sd.c ****   
 980:./Libraries/STM32F4xx_HAL_Driver/Src/stm32f4xx_hal_sd.c ****   if(hsd->State == HAL_SD_STATE_READY)
 1684              		.loc 1 980 9
 1685 0028 FB68     		ldr	r3, [r7, #12]
 1686 002a 93F83430 		ldrb	r3, [r3, #52]
 1687 002e DBB2     		uxtb	r3, r3
 1688              		.loc 1 980 5
 1689 0030 012B     		cmp	r3, #1
 1690 0032 40F09280 		bne	.L76
 981:./Libraries/STM32F4xx_HAL_Driver/Src/stm32f4xx_hal_sd.c ****   {
 982:./Libraries/STM32F4xx_HAL_Driver/Src/stm32f4xx_hal_sd.c ****     hsd->ErrorCode = HAL_DMA_ERROR_NONE;
 1691              		.loc 1 982 20
 1692 0036 FB68     		ldr	r3, [r7, #12]
 1693 0038 0022     		movs	r2, #0
 1694 003a 9A63     		str	r2, [r3, #56]
 983:./Libraries/STM32F4xx_HAL_Driver/Src/stm32f4xx_hal_sd.c ****     
 984:./Libraries/STM32F4xx_HAL_Driver/Src/stm32f4xx_hal_sd.c ****     if((BlockAdd + NumberOfBlocks) > (hsd->SdCard.LogBlockNbr))
 1695              		.loc 1 984 18
 1696 003c 7A68     		ldr	r2, [r7, #4]
 1697 003e 3B68     		ldr	r3, [r7]
 1698 0040 1A44     		add	r2, r2, r3
 1699              		.loc 1 984 50
 1700 0042 FB68     		ldr	r3, [r7, #12]
 1701 0044 DB6D     		ldr	r3, [r3, #92]
 1702              		.loc 1 984 7
ARM GAS  /tmp/ccMhfXg8.s 			page 48


 1703 0046 9A42     		cmp	r2, r3
 1704 0048 07D9     		bls	.L77
 985:./Libraries/STM32F4xx_HAL_Driver/Src/stm32f4xx_hal_sd.c ****     {
 986:./Libraries/STM32F4xx_HAL_Driver/Src/stm32f4xx_hal_sd.c ****       hsd->ErrorCode |= HAL_SD_ERROR_ADDR_OUT_OF_RANGE;
 1705              		.loc 1 986 22
 1706 004a FB68     		ldr	r3, [r7, #12]
 1707 004c 9B6B     		ldr	r3, [r3, #56]
 1708 004e 43F00072 		orr	r2, r3, #33554432
 1709 0052 FB68     		ldr	r3, [r7, #12]
 1710 0054 9A63     		str	r2, [r3, #56]
 987:./Libraries/STM32F4xx_HAL_Driver/Src/stm32f4xx_hal_sd.c ****       return HAL_ERROR;
 1711              		.loc 1 987 14
 1712 0056 0123     		movs	r3, #1
 1713 0058 80E0     		b	.L83
 1714              	.L77:
 988:./Libraries/STM32F4xx_HAL_Driver/Src/stm32f4xx_hal_sd.c ****     }
 989:./Libraries/STM32F4xx_HAL_Driver/Src/stm32f4xx_hal_sd.c ****     
 990:./Libraries/STM32F4xx_HAL_Driver/Src/stm32f4xx_hal_sd.c ****     hsd->State = HAL_SD_STATE_BUSY;
 1715              		.loc 1 990 16
 1716 005a FB68     		ldr	r3, [r7, #12]
 1717 005c 0322     		movs	r2, #3
 1718 005e 83F83420 		strb	r2, [r3, #52]
 991:./Libraries/STM32F4xx_HAL_Driver/Src/stm32f4xx_hal_sd.c ****     
 992:./Libraries/STM32F4xx_HAL_Driver/Src/stm32f4xx_hal_sd.c ****     /* Initialize data control register */
 993:./Libraries/STM32F4xx_HAL_Driver/Src/stm32f4xx_hal_sd.c ****     hsd->Instance->DCTRL = 0U;
 1719              		.loc 1 993 8
 1720 0062 FB68     		ldr	r3, [r7, #12]
 1721 0064 1B68     		ldr	r3, [r3]
 1722              		.loc 1 993 26
 1723 0066 0022     		movs	r2, #0
 1724 0068 DA62     		str	r2, [r3, #44]
 994:./Libraries/STM32F4xx_HAL_Driver/Src/stm32f4xx_hal_sd.c ****     
 995:./Libraries/STM32F4xx_HAL_Driver/Src/stm32f4xx_hal_sd.c ****     hsd->pTxBuffPtr = (uint32_t *)pData;
 1725              		.loc 1 995 21
 1726 006a FB68     		ldr	r3, [r7, #12]
 1727 006c BA68     		ldr	r2, [r7, #8]
 1728 006e 1A62     		str	r2, [r3, #32]
 996:./Libraries/STM32F4xx_HAL_Driver/Src/stm32f4xx_hal_sd.c ****     hsd->TxXferSize = BLOCKSIZE * NumberOfBlocks;
 1729              		.loc 1 996 33
 1730 0070 3B68     		ldr	r3, [r7]
 1731 0072 5A02     		lsls	r2, r3, #9
 1732              		.loc 1 996 21
 1733 0074 FB68     		ldr	r3, [r7, #12]
 1734 0076 5A62     		str	r2, [r3, #36]
 997:./Libraries/STM32F4xx_HAL_Driver/Src/stm32f4xx_hal_sd.c ****     
 998:./Libraries/STM32F4xx_HAL_Driver/Src/stm32f4xx_hal_sd.c ****     /* Enable transfer interrupts */
 999:./Libraries/STM32F4xx_HAL_Driver/Src/stm32f4xx_hal_sd.c **** #ifdef SDIO_STA_STBITER
1000:./Libraries/STM32F4xx_HAL_Driver/Src/stm32f4xx_hal_sd.c ****     __HAL_SD_ENABLE_IT(hsd, (SDIO_IT_DCRCFAIL | SDIO_IT_DTIMEOUT | SDIO_IT_TXUNDERR | SDIO_IT_DATAE
1001:./Libraries/STM32F4xx_HAL_Driver/Src/stm32f4xx_hal_sd.c **** #else /* SDIO_STA_STBITERR not defined */
1002:./Libraries/STM32F4xx_HAL_Driver/Src/stm32f4xx_hal_sd.c ****     __HAL_SD_ENABLE_IT(hsd, (SDIO_IT_DCRCFAIL | SDIO_IT_DTIMEOUT | SDIO_IT_TXUNDERR | SDIO_IT_DATAE
 1735              		.loc 1 1002 5
 1736 0078 FB68     		ldr	r3, [r7, #12]
 1737 007a 1B68     		ldr	r3, [r3]
 1738 007c DB6B     		ldr	r3, [r3, #60]
 1739 007e FA68     		ldr	r2, [r7, #12]
 1740 0080 1268     		ldr	r2, [r2]
 1741 0082 43F48243 		orr	r3, r3, #16640
ARM GAS  /tmp/ccMhfXg8.s 			page 49


 1742 0086 43F01A03 		orr	r3, r3, #26
 1743 008a D363     		str	r3, [r2, #60]
1003:./Libraries/STM32F4xx_HAL_Driver/Src/stm32f4xx_hal_sd.c **** #endif /* SDIO_STA_STBITERR */
1004:./Libraries/STM32F4xx_HAL_Driver/Src/stm32f4xx_hal_sd.c ****     
1005:./Libraries/STM32F4xx_HAL_Driver/Src/stm32f4xx_hal_sd.c ****     if(hsd->SdCard.CardType != CARD_SDHC_SDXC)
 1744              		.loc 1 1005 19
 1745 008c FB68     		ldr	r3, [r7, #12]
 1746 008e 5B6C     		ldr	r3, [r3, #68]
 1747              		.loc 1 1005 7
 1748 0090 012B     		cmp	r3, #1
 1749 0092 02D0     		beq	.L78
1006:./Libraries/STM32F4xx_HAL_Driver/Src/stm32f4xx_hal_sd.c ****     {
1007:./Libraries/STM32F4xx_HAL_Driver/Src/stm32f4xx_hal_sd.c ****       BlockAdd *= 512U;
 1750              		.loc 1 1007 16
 1751 0094 7B68     		ldr	r3, [r7, #4]
 1752 0096 5B02     		lsls	r3, r3, #9
 1753 0098 7B60     		str	r3, [r7, #4]
 1754              	.L78:
1008:./Libraries/STM32F4xx_HAL_Driver/Src/stm32f4xx_hal_sd.c ****     }
1009:./Libraries/STM32F4xx_HAL_Driver/Src/stm32f4xx_hal_sd.c ****     
1010:./Libraries/STM32F4xx_HAL_Driver/Src/stm32f4xx_hal_sd.c ****     /* Set Block Size for Card */ 
1011:./Libraries/STM32F4xx_HAL_Driver/Src/stm32f4xx_hal_sd.c ****     errorstate = SDMMC_CmdBlockLength(hsd->Instance, BLOCKSIZE);
 1755              		.loc 1 1011 18
 1756 009a FB68     		ldr	r3, [r7, #12]
 1757 009c 1B68     		ldr	r3, [r3]
 1758 009e 4FF40071 		mov	r1, #512
 1759 00a2 1846     		mov	r0, r3
 1760 00a4 FFF7FEFF 		bl	SDMMC_CmdBlockLength
 1761 00a8 F862     		str	r0, [r7, #44]
1012:./Libraries/STM32F4xx_HAL_Driver/Src/stm32f4xx_hal_sd.c ****     if(errorstate != HAL_SD_ERROR_NONE)
 1762              		.loc 1 1012 7
 1763 00aa FB6A     		ldr	r3, [r7, #44]
 1764 00ac 002B     		cmp	r3, #0
 1765 00ae 10D0     		beq	.L79
1013:./Libraries/STM32F4xx_HAL_Driver/Src/stm32f4xx_hal_sd.c ****     {
1014:./Libraries/STM32F4xx_HAL_Driver/Src/stm32f4xx_hal_sd.c ****       /* Clear all the static flags */
1015:./Libraries/STM32F4xx_HAL_Driver/Src/stm32f4xx_hal_sd.c ****       __HAL_SD_CLEAR_FLAG(hsd, SDIO_STATIC_FLAGS); 
 1766              		.loc 1 1015 7
 1767 00b0 FB68     		ldr	r3, [r7, #12]
 1768 00b2 1B68     		ldr	r3, [r3]
 1769 00b4 40F2FF52 		movw	r2, #1535
 1770 00b8 9A63     		str	r2, [r3, #56]
1016:./Libraries/STM32F4xx_HAL_Driver/Src/stm32f4xx_hal_sd.c ****       hsd->ErrorCode |= errorstate;
 1771              		.loc 1 1016 22
 1772 00ba FB68     		ldr	r3, [r7, #12]
 1773 00bc 9A6B     		ldr	r2, [r3, #56]
 1774 00be FB6A     		ldr	r3, [r7, #44]
 1775 00c0 1A43     		orrs	r2, r2, r3
 1776 00c2 FB68     		ldr	r3, [r7, #12]
 1777 00c4 9A63     		str	r2, [r3, #56]
1017:./Libraries/STM32F4xx_HAL_Driver/Src/stm32f4xx_hal_sd.c ****       hsd->State = HAL_SD_STATE_READY;
 1778              		.loc 1 1017 18
 1779 00c6 FB68     		ldr	r3, [r7, #12]
 1780 00c8 0122     		movs	r2, #1
 1781 00ca 83F83420 		strb	r2, [r3, #52]
1018:./Libraries/STM32F4xx_HAL_Driver/Src/stm32f4xx_hal_sd.c ****       return HAL_ERROR;
 1782              		.loc 1 1018 14
ARM GAS  /tmp/ccMhfXg8.s 			page 50


 1783 00ce 0123     		movs	r3, #1
 1784 00d0 44E0     		b	.L83
 1785              	.L79:
1019:./Libraries/STM32F4xx_HAL_Driver/Src/stm32f4xx_hal_sd.c ****     }
1020:./Libraries/STM32F4xx_HAL_Driver/Src/stm32f4xx_hal_sd.c ****     
1021:./Libraries/STM32F4xx_HAL_Driver/Src/stm32f4xx_hal_sd.c ****     /* Write Blocks in Polling mode */
1022:./Libraries/STM32F4xx_HAL_Driver/Src/stm32f4xx_hal_sd.c ****     if(NumberOfBlocks > 1U)
 1786              		.loc 1 1022 7
 1787 00d2 3B68     		ldr	r3, [r7]
 1788 00d4 012B     		cmp	r3, #1
 1789 00d6 0AD9     		bls	.L80
1023:./Libraries/STM32F4xx_HAL_Driver/Src/stm32f4xx_hal_sd.c ****     {
1024:./Libraries/STM32F4xx_HAL_Driver/Src/stm32f4xx_hal_sd.c ****       hsd->Context = (SD_CONTEXT_WRITE_MULTIPLE_BLOCK| SD_CONTEXT_IT);
 1790              		.loc 1 1024 20
 1791 00d8 FB68     		ldr	r3, [r7, #12]
 1792 00da 2822     		movs	r2, #40
 1793 00dc 1A63     		str	r2, [r3, #48]
1025:./Libraries/STM32F4xx_HAL_Driver/Src/stm32f4xx_hal_sd.c ****       
1026:./Libraries/STM32F4xx_HAL_Driver/Src/stm32f4xx_hal_sd.c ****       /* Write Multi Block command */ 
1027:./Libraries/STM32F4xx_HAL_Driver/Src/stm32f4xx_hal_sd.c ****       errorstate = SDMMC_CmdWriteMultiBlock(hsd->Instance, BlockAdd);
 1794              		.loc 1 1027 20
 1795 00de FB68     		ldr	r3, [r7, #12]
 1796 00e0 1B68     		ldr	r3, [r3]
 1797 00e2 7968     		ldr	r1, [r7, #4]
 1798 00e4 1846     		mov	r0, r3
 1799 00e6 FFF7FEFF 		bl	SDMMC_CmdWriteMultiBlock
 1800 00ea F862     		str	r0, [r7, #44]
 1801 00ec 09E0     		b	.L81
 1802              	.L80:
1028:./Libraries/STM32F4xx_HAL_Driver/Src/stm32f4xx_hal_sd.c ****     }
1029:./Libraries/STM32F4xx_HAL_Driver/Src/stm32f4xx_hal_sd.c ****     else
1030:./Libraries/STM32F4xx_HAL_Driver/Src/stm32f4xx_hal_sd.c ****     {
1031:./Libraries/STM32F4xx_HAL_Driver/Src/stm32f4xx_hal_sd.c ****       hsd->Context = (SD_CONTEXT_WRITE_SINGLE_BLOCK | SD_CONTEXT_IT);
 1803              		.loc 1 1031 20
 1804 00ee FB68     		ldr	r3, [r7, #12]
 1805 00f0 1822     		movs	r2, #24
 1806 00f2 1A63     		str	r2, [r3, #48]
1032:./Libraries/STM32F4xx_HAL_Driver/Src/stm32f4xx_hal_sd.c ****       
1033:./Libraries/STM32F4xx_HAL_Driver/Src/stm32f4xx_hal_sd.c ****       /* Write Single Block command */ 
1034:./Libraries/STM32F4xx_HAL_Driver/Src/stm32f4xx_hal_sd.c ****       errorstate = SDMMC_CmdWriteSingleBlock(hsd->Instance, BlockAdd);
 1807              		.loc 1 1034 20
 1808 00f4 FB68     		ldr	r3, [r7, #12]
 1809 00f6 1B68     		ldr	r3, [r3]
 1810 00f8 7968     		ldr	r1, [r7, #4]
 1811 00fa 1846     		mov	r0, r3
 1812 00fc FFF7FEFF 		bl	SDMMC_CmdWriteSingleBlock
 1813 0100 F862     		str	r0, [r7, #44]
 1814              	.L81:
1035:./Libraries/STM32F4xx_HAL_Driver/Src/stm32f4xx_hal_sd.c ****     }
1036:./Libraries/STM32F4xx_HAL_Driver/Src/stm32f4xx_hal_sd.c ****     if(errorstate != HAL_SD_ERROR_NONE)
 1815              		.loc 1 1036 7
 1816 0102 FB6A     		ldr	r3, [r7, #44]
 1817 0104 002B     		cmp	r3, #0
 1818 0106 10D0     		beq	.L82
1037:./Libraries/STM32F4xx_HAL_Driver/Src/stm32f4xx_hal_sd.c ****     {
1038:./Libraries/STM32F4xx_HAL_Driver/Src/stm32f4xx_hal_sd.c ****       /* Clear all the static flags */
1039:./Libraries/STM32F4xx_HAL_Driver/Src/stm32f4xx_hal_sd.c ****       __HAL_SD_CLEAR_FLAG(hsd, SDIO_STATIC_FLAGS); 
ARM GAS  /tmp/ccMhfXg8.s 			page 51


 1819              		.loc 1 1039 7
 1820 0108 FB68     		ldr	r3, [r7, #12]
 1821 010a 1B68     		ldr	r3, [r3]
 1822 010c 40F2FF52 		movw	r2, #1535
 1823 0110 9A63     		str	r2, [r3, #56]
1040:./Libraries/STM32F4xx_HAL_Driver/Src/stm32f4xx_hal_sd.c ****       hsd->ErrorCode |= errorstate;
 1824              		.loc 1 1040 22
 1825 0112 FB68     		ldr	r3, [r7, #12]
 1826 0114 9A6B     		ldr	r2, [r3, #56]
 1827 0116 FB6A     		ldr	r3, [r7, #44]
 1828 0118 1A43     		orrs	r2, r2, r3
 1829 011a FB68     		ldr	r3, [r7, #12]
 1830 011c 9A63     		str	r2, [r3, #56]
1041:./Libraries/STM32F4xx_HAL_Driver/Src/stm32f4xx_hal_sd.c ****       hsd->State = HAL_SD_STATE_READY;
 1831              		.loc 1 1041 18
 1832 011e FB68     		ldr	r3, [r7, #12]
 1833 0120 0122     		movs	r2, #1
 1834 0122 83F83420 		strb	r2, [r3, #52]
1042:./Libraries/STM32F4xx_HAL_Driver/Src/stm32f4xx_hal_sd.c ****       return HAL_ERROR;
 1835              		.loc 1 1042 14
 1836 0126 0123     		movs	r3, #1
 1837 0128 18E0     		b	.L83
 1838              	.L82:
1043:./Libraries/STM32F4xx_HAL_Driver/Src/stm32f4xx_hal_sd.c ****     }
1044:./Libraries/STM32F4xx_HAL_Driver/Src/stm32f4xx_hal_sd.c ****     
1045:./Libraries/STM32F4xx_HAL_Driver/Src/stm32f4xx_hal_sd.c ****     /* Configure the SD DPSM (Data Path State Machine) */ 
1046:./Libraries/STM32F4xx_HAL_Driver/Src/stm32f4xx_hal_sd.c ****     config.DataTimeOut   = SDMMC_DATATIMEOUT;
 1839              		.loc 1 1046 26
 1840 012a 4FF0FF33 		mov	r3, #-1
 1841 012e 7B61     		str	r3, [r7, #20]
1047:./Libraries/STM32F4xx_HAL_Driver/Src/stm32f4xx_hal_sd.c ****     config.DataLength    = BLOCKSIZE * NumberOfBlocks;
 1842              		.loc 1 1047 38
 1843 0130 3B68     		ldr	r3, [r7]
 1844 0132 5B02     		lsls	r3, r3, #9
 1845              		.loc 1 1047 26
 1846 0134 BB61     		str	r3, [r7, #24]
1048:./Libraries/STM32F4xx_HAL_Driver/Src/stm32f4xx_hal_sd.c ****     config.DataBlockSize = SDIO_DATABLOCK_SIZE_512B;
 1847              		.loc 1 1048 26
 1848 0136 9023     		movs	r3, #144
 1849 0138 FB61     		str	r3, [r7, #28]
1049:./Libraries/STM32F4xx_HAL_Driver/Src/stm32f4xx_hal_sd.c ****     config.TransferDir   = SDIO_TRANSFER_DIR_TO_CARD;
 1850              		.loc 1 1049 26
 1851 013a 0023     		movs	r3, #0
 1852 013c 3B62     		str	r3, [r7, #32]
1050:./Libraries/STM32F4xx_HAL_Driver/Src/stm32f4xx_hal_sd.c ****     config.TransferMode  = SDIO_TRANSFER_MODE_BLOCK;
 1853              		.loc 1 1050 26
 1854 013e 0023     		movs	r3, #0
 1855 0140 7B62     		str	r3, [r7, #36]
1051:./Libraries/STM32F4xx_HAL_Driver/Src/stm32f4xx_hal_sd.c ****     config.DPSM          = SDIO_DPSM_ENABLE;
 1856              		.loc 1 1051 26
 1857 0142 0123     		movs	r3, #1
 1858 0144 BB62     		str	r3, [r7, #40]
1052:./Libraries/STM32F4xx_HAL_Driver/Src/stm32f4xx_hal_sd.c ****     SDIO_ConfigData(hsd->Instance, &config);
 1859              		.loc 1 1052 5
 1860 0146 FB68     		ldr	r3, [r7, #12]
 1861 0148 1B68     		ldr	r3, [r3]
 1862 014a 07F11402 		add	r2, r7, #20
ARM GAS  /tmp/ccMhfXg8.s 			page 52


 1863 014e 1146     		mov	r1, r2
 1864 0150 1846     		mov	r0, r3
 1865 0152 FFF7FEFF 		bl	SDIO_ConfigData
1053:./Libraries/STM32F4xx_HAL_Driver/Src/stm32f4xx_hal_sd.c ****     
1054:./Libraries/STM32F4xx_HAL_Driver/Src/stm32f4xx_hal_sd.c ****     return HAL_OK;
 1866              		.loc 1 1054 12
 1867 0156 0023     		movs	r3, #0
 1868 0158 00E0     		b	.L83
 1869              	.L76:
1055:./Libraries/STM32F4xx_HAL_Driver/Src/stm32f4xx_hal_sd.c ****   }
1056:./Libraries/STM32F4xx_HAL_Driver/Src/stm32f4xx_hal_sd.c ****   else
1057:./Libraries/STM32F4xx_HAL_Driver/Src/stm32f4xx_hal_sd.c ****   {
1058:./Libraries/STM32F4xx_HAL_Driver/Src/stm32f4xx_hal_sd.c ****     return HAL_BUSY;
 1870              		.loc 1 1058 12
 1871 015a 0223     		movs	r3, #2
 1872              	.L83:
1059:./Libraries/STM32F4xx_HAL_Driver/Src/stm32f4xx_hal_sd.c ****   }
1060:./Libraries/STM32F4xx_HAL_Driver/Src/stm32f4xx_hal_sd.c **** }
 1873              		.loc 1 1060 1 discriminator 1
 1874 015c 1846     		mov	r0, r3
 1875 015e 3037     		adds	r7, r7, #48
 1876              	.LCFI45:
 1877              		.cfi_def_cfa_offset 8
 1878 0160 BD46     		mov	sp, r7
 1879              	.LCFI46:
 1880              		.cfi_def_cfa_register 13
 1881              		@ sp needed
 1882 0162 80BD     		pop	{r7, pc}
 1883              		.cfi_endproc
 1884              	.LFE134:
 1886              		.section	.text.HAL_SD_ReadBlocks_DMA,"ax",%progbits
 1887              		.align	1
 1888              		.global	HAL_SD_ReadBlocks_DMA
 1889              		.syntax unified
 1890              		.thumb
 1891              		.thumb_func
 1892              		.fpu fpv4-sp-d16
 1894              	HAL_SD_ReadBlocks_DMA:
 1895              	.LFB135:
1061:./Libraries/STM32F4xx_HAL_Driver/Src/stm32f4xx_hal_sd.c **** 
1062:./Libraries/STM32F4xx_HAL_Driver/Src/stm32f4xx_hal_sd.c **** /**
1063:./Libraries/STM32F4xx_HAL_Driver/Src/stm32f4xx_hal_sd.c ****   * @brief  Reads block(s) from a specified address in a card. The Data transfer 
1064:./Libraries/STM32F4xx_HAL_Driver/Src/stm32f4xx_hal_sd.c ****   *         is managed by DMA mode. 
1065:./Libraries/STM32F4xx_HAL_Driver/Src/stm32f4xx_hal_sd.c ****   * @note   This API should be followed by a check on the card state through
1066:./Libraries/STM32F4xx_HAL_Driver/Src/stm32f4xx_hal_sd.c ****   *         HAL_SD_GetCardState().
1067:./Libraries/STM32F4xx_HAL_Driver/Src/stm32f4xx_hal_sd.c ****   * @note   You could also check the DMA transfer process through the SD Rx 
1068:./Libraries/STM32F4xx_HAL_Driver/Src/stm32f4xx_hal_sd.c ****   *         interrupt event.
1069:./Libraries/STM32F4xx_HAL_Driver/Src/stm32f4xx_hal_sd.c ****   * @param  hsd Pointer SD handle                 
1070:./Libraries/STM32F4xx_HAL_Driver/Src/stm32f4xx_hal_sd.c ****   * @param  pData Pointer to the buffer that will contain the received data
1071:./Libraries/STM32F4xx_HAL_Driver/Src/stm32f4xx_hal_sd.c ****   * @param  BlockAdd Block Address from where data is to be read  
1072:./Libraries/STM32F4xx_HAL_Driver/Src/stm32f4xx_hal_sd.c ****   * @param  NumberOfBlocks Number of blocks to read.
1073:./Libraries/STM32F4xx_HAL_Driver/Src/stm32f4xx_hal_sd.c ****   * @retval HAL status
1074:./Libraries/STM32F4xx_HAL_Driver/Src/stm32f4xx_hal_sd.c ****   */
1075:./Libraries/STM32F4xx_HAL_Driver/Src/stm32f4xx_hal_sd.c **** HAL_StatusTypeDef HAL_SD_ReadBlocks_DMA(SD_HandleTypeDef *hsd, uint8_t *pData, uint32_t BlockAdd, u
1076:./Libraries/STM32F4xx_HAL_Driver/Src/stm32f4xx_hal_sd.c **** {
 1896              		.loc 1 1076 1
 1897              		.cfi_startproc
ARM GAS  /tmp/ccMhfXg8.s 			page 53


 1898              		@ args = 0, pretend = 0, frame = 48
 1899              		@ frame_needed = 1, uses_anonymous_args = 0
 1900 0000 80B5     		push	{r7, lr}
 1901              	.LCFI47:
 1902              		.cfi_def_cfa_offset 8
 1903              		.cfi_offset 7, -8
 1904              		.cfi_offset 14, -4
 1905 0002 8CB0     		sub	sp, sp, #48
 1906              	.LCFI48:
 1907              		.cfi_def_cfa_offset 56
 1908 0004 00AF     		add	r7, sp, #0
 1909              	.LCFI49:
 1910              		.cfi_def_cfa_register 7
 1911 0006 F860     		str	r0, [r7, #12]
 1912 0008 B960     		str	r1, [r7, #8]
 1913 000a 7A60     		str	r2, [r7, #4]
 1914 000c 3B60     		str	r3, [r7]
1077:./Libraries/STM32F4xx_HAL_Driver/Src/stm32f4xx_hal_sd.c ****   SDIO_DataInitTypeDef config;
1078:./Libraries/STM32F4xx_HAL_Driver/Src/stm32f4xx_hal_sd.c ****   uint32_t errorstate = HAL_SD_ERROR_NONE;
 1915              		.loc 1 1078 12
 1916 000e 0023     		movs	r3, #0
 1917 0010 FB62     		str	r3, [r7, #44]
1079:./Libraries/STM32F4xx_HAL_Driver/Src/stm32f4xx_hal_sd.c ****   
1080:./Libraries/STM32F4xx_HAL_Driver/Src/stm32f4xx_hal_sd.c ****   if(NULL == pData)
 1918              		.loc 1 1080 5
 1919 0012 BB68     		ldr	r3, [r7, #8]
 1920 0014 002B     		cmp	r3, #0
 1921 0016 07D1     		bne	.L85
1081:./Libraries/STM32F4xx_HAL_Driver/Src/stm32f4xx_hal_sd.c ****   {
1082:./Libraries/STM32F4xx_HAL_Driver/Src/stm32f4xx_hal_sd.c ****     hsd->ErrorCode |= HAL_SD_ERROR_PARAM;
 1922              		.loc 1 1082 20
 1923 0018 FB68     		ldr	r3, [r7, #12]
 1924 001a 9B6B     		ldr	r3, [r3, #56]
 1925 001c 43F00062 		orr	r2, r3, #134217728
 1926 0020 FB68     		ldr	r3, [r7, #12]
 1927 0022 9A63     		str	r2, [r3, #56]
1083:./Libraries/STM32F4xx_HAL_Driver/Src/stm32f4xx_hal_sd.c ****     return HAL_ERROR;
 1928              		.loc 1 1083 12
 1929 0024 0123     		movs	r3, #1
 1930 0026 ABE0     		b	.L94
 1931              	.L85:
1084:./Libraries/STM32F4xx_HAL_Driver/Src/stm32f4xx_hal_sd.c ****   }
1085:./Libraries/STM32F4xx_HAL_Driver/Src/stm32f4xx_hal_sd.c ****   
1086:./Libraries/STM32F4xx_HAL_Driver/Src/stm32f4xx_hal_sd.c ****   if(hsd->State == HAL_SD_STATE_READY)
 1932              		.loc 1 1086 9
 1933 0028 FB68     		ldr	r3, [r7, #12]
 1934 002a 93F83430 		ldrb	r3, [r3, #52]
 1935 002e DBB2     		uxtb	r3, r3
 1936              		.loc 1 1086 5
 1937 0030 012B     		cmp	r3, #1
 1938 0032 40F0A480 		bne	.L87
1087:./Libraries/STM32F4xx_HAL_Driver/Src/stm32f4xx_hal_sd.c ****   {
1088:./Libraries/STM32F4xx_HAL_Driver/Src/stm32f4xx_hal_sd.c ****     hsd->ErrorCode = HAL_DMA_ERROR_NONE;
 1939              		.loc 1 1088 20
 1940 0036 FB68     		ldr	r3, [r7, #12]
 1941 0038 0022     		movs	r2, #0
 1942 003a 9A63     		str	r2, [r3, #56]
ARM GAS  /tmp/ccMhfXg8.s 			page 54


1089:./Libraries/STM32F4xx_HAL_Driver/Src/stm32f4xx_hal_sd.c ****     
1090:./Libraries/STM32F4xx_HAL_Driver/Src/stm32f4xx_hal_sd.c ****     if((BlockAdd + NumberOfBlocks) > (hsd->SdCard.LogBlockNbr))
 1943              		.loc 1 1090 18
 1944 003c 7A68     		ldr	r2, [r7, #4]
 1945 003e 3B68     		ldr	r3, [r7]
 1946 0040 1A44     		add	r2, r2, r3
 1947              		.loc 1 1090 50
 1948 0042 FB68     		ldr	r3, [r7, #12]
 1949 0044 DB6D     		ldr	r3, [r3, #92]
 1950              		.loc 1 1090 7
 1951 0046 9A42     		cmp	r2, r3
 1952 0048 07D9     		bls	.L88
1091:./Libraries/STM32F4xx_HAL_Driver/Src/stm32f4xx_hal_sd.c ****     {
1092:./Libraries/STM32F4xx_HAL_Driver/Src/stm32f4xx_hal_sd.c ****       hsd->ErrorCode |= HAL_SD_ERROR_ADDR_OUT_OF_RANGE;
 1953              		.loc 1 1092 22
 1954 004a FB68     		ldr	r3, [r7, #12]
 1955 004c 9B6B     		ldr	r3, [r3, #56]
 1956 004e 43F00072 		orr	r2, r3, #33554432
 1957 0052 FB68     		ldr	r3, [r7, #12]
 1958 0054 9A63     		str	r2, [r3, #56]
1093:./Libraries/STM32F4xx_HAL_Driver/Src/stm32f4xx_hal_sd.c ****       return HAL_ERROR;
 1959              		.loc 1 1093 14
 1960 0056 0123     		movs	r3, #1
 1961 0058 92E0     		b	.L94
 1962              	.L88:
1094:./Libraries/STM32F4xx_HAL_Driver/Src/stm32f4xx_hal_sd.c ****     }
1095:./Libraries/STM32F4xx_HAL_Driver/Src/stm32f4xx_hal_sd.c ****     
1096:./Libraries/STM32F4xx_HAL_Driver/Src/stm32f4xx_hal_sd.c ****     hsd->State = HAL_SD_STATE_BUSY;
 1963              		.loc 1 1096 16
 1964 005a FB68     		ldr	r3, [r7, #12]
 1965 005c 0322     		movs	r2, #3
 1966 005e 83F83420 		strb	r2, [r3, #52]
1097:./Libraries/STM32F4xx_HAL_Driver/Src/stm32f4xx_hal_sd.c ****     
1098:./Libraries/STM32F4xx_HAL_Driver/Src/stm32f4xx_hal_sd.c ****     /* Initialize data control register */
1099:./Libraries/STM32F4xx_HAL_Driver/Src/stm32f4xx_hal_sd.c ****     hsd->Instance->DCTRL = 0U;
 1967              		.loc 1 1099 8
 1968 0062 FB68     		ldr	r3, [r7, #12]
 1969 0064 1B68     		ldr	r3, [r3]
 1970              		.loc 1 1099 26
 1971 0066 0022     		movs	r2, #0
 1972 0068 DA62     		str	r2, [r3, #44]
1100:./Libraries/STM32F4xx_HAL_Driver/Src/stm32f4xx_hal_sd.c ****     
1101:./Libraries/STM32F4xx_HAL_Driver/Src/stm32f4xx_hal_sd.c **** #ifdef SDIO_STA_STBITER
1102:./Libraries/STM32F4xx_HAL_Driver/Src/stm32f4xx_hal_sd.c ****     __HAL_SD_ENABLE_IT(hsd, (SDIO_IT_DCRCFAIL | SDIO_IT_DTIMEOUT | SDIO_IT_RXOVERR | SDIO_IT_DATAEN
1103:./Libraries/STM32F4xx_HAL_Driver/Src/stm32f4xx_hal_sd.c **** #else /* SDIO_STA_STBITERR not defined */
1104:./Libraries/STM32F4xx_HAL_Driver/Src/stm32f4xx_hal_sd.c ****     __HAL_SD_ENABLE_IT(hsd, (SDIO_IT_DCRCFAIL | SDIO_IT_DTIMEOUT | SDIO_IT_RXOVERR | SDIO_IT_DATAEN
 1973              		.loc 1 1104 5
 1974 006a FB68     		ldr	r3, [r7, #12]
 1975 006c 1B68     		ldr	r3, [r3]
 1976 006e DA6B     		ldr	r2, [r3, #60]
 1977 0070 FB68     		ldr	r3, [r7, #12]
 1978 0072 1B68     		ldr	r3, [r3]
 1979 0074 42F49572 		orr	r2, r2, #298
 1980 0078 DA63     		str	r2, [r3, #60]
1105:./Libraries/STM32F4xx_HAL_Driver/Src/stm32f4xx_hal_sd.c **** #endif /* SDIO_STA_STBITERR */
1106:./Libraries/STM32F4xx_HAL_Driver/Src/stm32f4xx_hal_sd.c ****     
1107:./Libraries/STM32F4xx_HAL_Driver/Src/stm32f4xx_hal_sd.c ****     /* Set the DMA transfer complete callback */
ARM GAS  /tmp/ccMhfXg8.s 			page 55


1108:./Libraries/STM32F4xx_HAL_Driver/Src/stm32f4xx_hal_sd.c ****     hsd->hdmarx->XferCpltCallback = SD_DMAReceiveCplt;
 1981              		.loc 1 1108 8
 1982 007a FB68     		ldr	r3, [r7, #12]
 1983 007c DB6B     		ldr	r3, [r3, #60]
 1984              		.loc 1 1108 35
 1985 007e 424A     		ldr	r2, .L95
 1986 0080 DA63     		str	r2, [r3, #60]
1109:./Libraries/STM32F4xx_HAL_Driver/Src/stm32f4xx_hal_sd.c ****     
1110:./Libraries/STM32F4xx_HAL_Driver/Src/stm32f4xx_hal_sd.c ****     /* Set the DMA error callback */
1111:./Libraries/STM32F4xx_HAL_Driver/Src/stm32f4xx_hal_sd.c ****     hsd->hdmarx->XferErrorCallback = SD_DMAError;
 1987              		.loc 1 1111 8
 1988 0082 FB68     		ldr	r3, [r7, #12]
 1989 0084 DB6B     		ldr	r3, [r3, #60]
 1990              		.loc 1 1111 36
 1991 0086 414A     		ldr	r2, .L95+4
 1992 0088 DA64     		str	r2, [r3, #76]
1112:./Libraries/STM32F4xx_HAL_Driver/Src/stm32f4xx_hal_sd.c ****     
1113:./Libraries/STM32F4xx_HAL_Driver/Src/stm32f4xx_hal_sd.c ****     /* Set the DMA Abort callback */
1114:./Libraries/STM32F4xx_HAL_Driver/Src/stm32f4xx_hal_sd.c ****     hsd->hdmarx->XferAbortCallback = NULL;
 1993              		.loc 1 1114 8
 1994 008a FB68     		ldr	r3, [r7, #12]
 1995 008c DB6B     		ldr	r3, [r3, #60]
 1996              		.loc 1 1114 36
 1997 008e 0022     		movs	r2, #0
 1998 0090 1A65     		str	r2, [r3, #80]
1115:./Libraries/STM32F4xx_HAL_Driver/Src/stm32f4xx_hal_sd.c ****     
1116:./Libraries/STM32F4xx_HAL_Driver/Src/stm32f4xx_hal_sd.c ****     /* Enable the DMA Channel */
1117:./Libraries/STM32F4xx_HAL_Driver/Src/stm32f4xx_hal_sd.c ****     HAL_DMA_Start_IT(hsd->hdmarx, (uint32_t)&hsd->Instance->FIFO, (uint32_t)pData, (uint32_t)(BLOCK
 1999              		.loc 1 1117 5
 2000 0092 FB68     		ldr	r3, [r7, #12]
 2001 0094 D86B     		ldr	r0, [r3, #60]
 2002              		.loc 1 1117 49
 2003 0096 FB68     		ldr	r3, [r7, #12]
 2004 0098 1B68     		ldr	r3, [r3]
 2005              		.loc 1 1117 45
 2006 009a 8033     		adds	r3, r3, #128
 2007              		.loc 1 1117 5
 2008 009c 1946     		mov	r1, r3
 2009 009e BA68     		ldr	r2, [r7, #8]
 2010              		.loc 1 1117 84
 2011 00a0 3B68     		ldr	r3, [r7]
 2012 00a2 5B02     		lsls	r3, r3, #9
 2013              		.loc 1 1117 5
 2014 00a4 9B08     		lsrs	r3, r3, #2
 2015 00a6 FFF7FEFF 		bl	HAL_DMA_Start_IT
1118:./Libraries/STM32F4xx_HAL_Driver/Src/stm32f4xx_hal_sd.c ****     
1119:./Libraries/STM32F4xx_HAL_Driver/Src/stm32f4xx_hal_sd.c ****     /* Enable SD DMA transfer */
1120:./Libraries/STM32F4xx_HAL_Driver/Src/stm32f4xx_hal_sd.c ****     __HAL_SD_DMA_ENABLE(hsd);
 2016              		.loc 1 1120 5
 2017 00aa 394B     		ldr	r3, .L95+8
 2018 00ac 0122     		movs	r2, #1
 2019 00ae 1A60     		str	r2, [r3]
1121:./Libraries/STM32F4xx_HAL_Driver/Src/stm32f4xx_hal_sd.c ****     
1122:./Libraries/STM32F4xx_HAL_Driver/Src/stm32f4xx_hal_sd.c ****     if(hsd->SdCard.CardType != CARD_SDHC_SDXC)
 2020              		.loc 1 1122 19
 2021 00b0 FB68     		ldr	r3, [r7, #12]
 2022 00b2 5B6C     		ldr	r3, [r3, #68]
ARM GAS  /tmp/ccMhfXg8.s 			page 56


 2023              		.loc 1 1122 7
 2024 00b4 012B     		cmp	r3, #1
 2025 00b6 02D0     		beq	.L89
1123:./Libraries/STM32F4xx_HAL_Driver/Src/stm32f4xx_hal_sd.c ****     {
1124:./Libraries/STM32F4xx_HAL_Driver/Src/stm32f4xx_hal_sd.c ****       BlockAdd *= 512U;
 2026              		.loc 1 1124 16
 2027 00b8 7B68     		ldr	r3, [r7, #4]
 2028 00ba 5B02     		lsls	r3, r3, #9
 2029 00bc 7B60     		str	r3, [r7, #4]
 2030              	.L89:
1125:./Libraries/STM32F4xx_HAL_Driver/Src/stm32f4xx_hal_sd.c ****     }
1126:./Libraries/STM32F4xx_HAL_Driver/Src/stm32f4xx_hal_sd.c ****     
1127:./Libraries/STM32F4xx_HAL_Driver/Src/stm32f4xx_hal_sd.c ****     /* Configure the SD DPSM (Data Path State Machine) */ 
1128:./Libraries/STM32F4xx_HAL_Driver/Src/stm32f4xx_hal_sd.c ****     config.DataTimeOut   = SDMMC_DATATIMEOUT;
 2031              		.loc 1 1128 26
 2032 00be 4FF0FF33 		mov	r3, #-1
 2033 00c2 7B61     		str	r3, [r7, #20]
1129:./Libraries/STM32F4xx_HAL_Driver/Src/stm32f4xx_hal_sd.c ****     config.DataLength    = BLOCKSIZE * NumberOfBlocks;
 2034              		.loc 1 1129 38
 2035 00c4 3B68     		ldr	r3, [r7]
 2036 00c6 5B02     		lsls	r3, r3, #9
 2037              		.loc 1 1129 26
 2038 00c8 BB61     		str	r3, [r7, #24]
1130:./Libraries/STM32F4xx_HAL_Driver/Src/stm32f4xx_hal_sd.c ****     config.DataBlockSize = SDIO_DATABLOCK_SIZE_512B;
 2039              		.loc 1 1130 26
 2040 00ca 9023     		movs	r3, #144
 2041 00cc FB61     		str	r3, [r7, #28]
1131:./Libraries/STM32F4xx_HAL_Driver/Src/stm32f4xx_hal_sd.c ****     config.TransferDir   = SDIO_TRANSFER_DIR_TO_SDIO;
 2042              		.loc 1 1131 26
 2043 00ce 0223     		movs	r3, #2
 2044 00d0 3B62     		str	r3, [r7, #32]
1132:./Libraries/STM32F4xx_HAL_Driver/Src/stm32f4xx_hal_sd.c ****     config.TransferMode  = SDIO_TRANSFER_MODE_BLOCK;
 2045              		.loc 1 1132 26
 2046 00d2 0023     		movs	r3, #0
 2047 00d4 7B62     		str	r3, [r7, #36]
1133:./Libraries/STM32F4xx_HAL_Driver/Src/stm32f4xx_hal_sd.c ****     config.DPSM          = SDIO_DPSM_ENABLE;
 2048              		.loc 1 1133 26
 2049 00d6 0123     		movs	r3, #1
 2050 00d8 BB62     		str	r3, [r7, #40]
1134:./Libraries/STM32F4xx_HAL_Driver/Src/stm32f4xx_hal_sd.c ****     SDIO_ConfigData(hsd->Instance, &config);
 2051              		.loc 1 1134 5
 2052 00da FB68     		ldr	r3, [r7, #12]
 2053 00dc 1B68     		ldr	r3, [r3]
 2054 00de 07F11402 		add	r2, r7, #20
 2055 00e2 1146     		mov	r1, r2
 2056 00e4 1846     		mov	r0, r3
 2057 00e6 FFF7FEFF 		bl	SDIO_ConfigData
1135:./Libraries/STM32F4xx_HAL_Driver/Src/stm32f4xx_hal_sd.c **** 
1136:./Libraries/STM32F4xx_HAL_Driver/Src/stm32f4xx_hal_sd.c ****     /* Set Block Size for Card */ 
1137:./Libraries/STM32F4xx_HAL_Driver/Src/stm32f4xx_hal_sd.c ****     errorstate = SDMMC_CmdBlockLength(hsd->Instance, BLOCKSIZE);
 2058              		.loc 1 1137 18
 2059 00ea FB68     		ldr	r3, [r7, #12]
 2060 00ec 1B68     		ldr	r3, [r3]
 2061 00ee 4FF40071 		mov	r1, #512
 2062 00f2 1846     		mov	r0, r3
 2063 00f4 FFF7FEFF 		bl	SDMMC_CmdBlockLength
 2064 00f8 F862     		str	r0, [r7, #44]
ARM GAS  /tmp/ccMhfXg8.s 			page 57


1138:./Libraries/STM32F4xx_HAL_Driver/Src/stm32f4xx_hal_sd.c ****     if(errorstate != HAL_SD_ERROR_NONE)
 2065              		.loc 1 1138 7
 2066 00fa FB6A     		ldr	r3, [r7, #44]
 2067 00fc 002B     		cmp	r3, #0
 2068 00fe 10D0     		beq	.L90
1139:./Libraries/STM32F4xx_HAL_Driver/Src/stm32f4xx_hal_sd.c ****     {
1140:./Libraries/STM32F4xx_HAL_Driver/Src/stm32f4xx_hal_sd.c ****       /* Clear all the static flags */
1141:./Libraries/STM32F4xx_HAL_Driver/Src/stm32f4xx_hal_sd.c ****       __HAL_SD_CLEAR_FLAG(hsd, SDIO_STATIC_FLAGS); 
 2069              		.loc 1 1141 7
 2070 0100 FB68     		ldr	r3, [r7, #12]
 2071 0102 1B68     		ldr	r3, [r3]
 2072 0104 40F2FF52 		movw	r2, #1535
 2073 0108 9A63     		str	r2, [r3, #56]
1142:./Libraries/STM32F4xx_HAL_Driver/Src/stm32f4xx_hal_sd.c ****       hsd->ErrorCode |= errorstate;
 2074              		.loc 1 1142 22
 2075 010a FB68     		ldr	r3, [r7, #12]
 2076 010c 9A6B     		ldr	r2, [r3, #56]
 2077 010e FB6A     		ldr	r3, [r7, #44]
 2078 0110 1A43     		orrs	r2, r2, r3
 2079 0112 FB68     		ldr	r3, [r7, #12]
 2080 0114 9A63     		str	r2, [r3, #56]
1143:./Libraries/STM32F4xx_HAL_Driver/Src/stm32f4xx_hal_sd.c ****       hsd->State = HAL_SD_STATE_READY;
 2081              		.loc 1 1143 18
 2082 0116 FB68     		ldr	r3, [r7, #12]
 2083 0118 0122     		movs	r2, #1
 2084 011a 83F83420 		strb	r2, [r3, #52]
1144:./Libraries/STM32F4xx_HAL_Driver/Src/stm32f4xx_hal_sd.c ****       return HAL_ERROR;
 2085              		.loc 1 1144 14
 2086 011e 0123     		movs	r3, #1
 2087 0120 2EE0     		b	.L94
 2088              	.L90:
1145:./Libraries/STM32F4xx_HAL_Driver/Src/stm32f4xx_hal_sd.c ****     }
1146:./Libraries/STM32F4xx_HAL_Driver/Src/stm32f4xx_hal_sd.c ****         
1147:./Libraries/STM32F4xx_HAL_Driver/Src/stm32f4xx_hal_sd.c ****     /* Read Blocks in DMA mode */
1148:./Libraries/STM32F4xx_HAL_Driver/Src/stm32f4xx_hal_sd.c ****     if(NumberOfBlocks > 1U)
 2089              		.loc 1 1148 7
 2090 0122 3B68     		ldr	r3, [r7]
 2091 0124 012B     		cmp	r3, #1
 2092 0126 0AD9     		bls	.L91
1149:./Libraries/STM32F4xx_HAL_Driver/Src/stm32f4xx_hal_sd.c ****     {
1150:./Libraries/STM32F4xx_HAL_Driver/Src/stm32f4xx_hal_sd.c ****       hsd->Context = (SD_CONTEXT_READ_MULTIPLE_BLOCK | SD_CONTEXT_DMA);
 2093              		.loc 1 1150 20
 2094 0128 FB68     		ldr	r3, [r7, #12]
 2095 012a 8222     		movs	r2, #130
 2096 012c 1A63     		str	r2, [r3, #48]
1151:./Libraries/STM32F4xx_HAL_Driver/Src/stm32f4xx_hal_sd.c ****       
1152:./Libraries/STM32F4xx_HAL_Driver/Src/stm32f4xx_hal_sd.c ****       /* Read Multi Block command */ 
1153:./Libraries/STM32F4xx_HAL_Driver/Src/stm32f4xx_hal_sd.c ****       errorstate = SDMMC_CmdReadMultiBlock(hsd->Instance, BlockAdd);
 2097              		.loc 1 1153 20
 2098 012e FB68     		ldr	r3, [r7, #12]
 2099 0130 1B68     		ldr	r3, [r3]
 2100 0132 7968     		ldr	r1, [r7, #4]
 2101 0134 1846     		mov	r0, r3
 2102 0136 FFF7FEFF 		bl	SDMMC_CmdReadMultiBlock
 2103 013a F862     		str	r0, [r7, #44]
 2104 013c 09E0     		b	.L92
 2105              	.L91:
ARM GAS  /tmp/ccMhfXg8.s 			page 58


1154:./Libraries/STM32F4xx_HAL_Driver/Src/stm32f4xx_hal_sd.c ****     }
1155:./Libraries/STM32F4xx_HAL_Driver/Src/stm32f4xx_hal_sd.c ****     else
1156:./Libraries/STM32F4xx_HAL_Driver/Src/stm32f4xx_hal_sd.c ****     {
1157:./Libraries/STM32F4xx_HAL_Driver/Src/stm32f4xx_hal_sd.c ****       hsd->Context = (SD_CONTEXT_READ_SINGLE_BLOCK | SD_CONTEXT_DMA);
 2106              		.loc 1 1157 20
 2107 013e FB68     		ldr	r3, [r7, #12]
 2108 0140 8122     		movs	r2, #129
 2109 0142 1A63     		str	r2, [r3, #48]
1158:./Libraries/STM32F4xx_HAL_Driver/Src/stm32f4xx_hal_sd.c ****       
1159:./Libraries/STM32F4xx_HAL_Driver/Src/stm32f4xx_hal_sd.c ****       /* Read Single Block command */ 
1160:./Libraries/STM32F4xx_HAL_Driver/Src/stm32f4xx_hal_sd.c ****       errorstate = SDMMC_CmdReadSingleBlock(hsd->Instance, BlockAdd);
 2110              		.loc 1 1160 20
 2111 0144 FB68     		ldr	r3, [r7, #12]
 2112 0146 1B68     		ldr	r3, [r3]
 2113 0148 7968     		ldr	r1, [r7, #4]
 2114 014a 1846     		mov	r0, r3
 2115 014c FFF7FEFF 		bl	SDMMC_CmdReadSingleBlock
 2116 0150 F862     		str	r0, [r7, #44]
 2117              	.L92:
1161:./Libraries/STM32F4xx_HAL_Driver/Src/stm32f4xx_hal_sd.c ****     }
1162:./Libraries/STM32F4xx_HAL_Driver/Src/stm32f4xx_hal_sd.c ****     if(errorstate != HAL_SD_ERROR_NONE)
 2118              		.loc 1 1162 7
 2119 0152 FB6A     		ldr	r3, [r7, #44]
 2120 0154 002B     		cmp	r3, #0
 2121 0156 10D0     		beq	.L93
1163:./Libraries/STM32F4xx_HAL_Driver/Src/stm32f4xx_hal_sd.c ****     {
1164:./Libraries/STM32F4xx_HAL_Driver/Src/stm32f4xx_hal_sd.c ****       /* Clear all the static flags */
1165:./Libraries/STM32F4xx_HAL_Driver/Src/stm32f4xx_hal_sd.c ****       __HAL_SD_CLEAR_FLAG(hsd, SDIO_STATIC_FLAGS); 
 2122              		.loc 1 1165 7
 2123 0158 FB68     		ldr	r3, [r7, #12]
 2124 015a 1B68     		ldr	r3, [r3]
 2125 015c 40F2FF52 		movw	r2, #1535
 2126 0160 9A63     		str	r2, [r3, #56]
1166:./Libraries/STM32F4xx_HAL_Driver/Src/stm32f4xx_hal_sd.c ****       hsd->ErrorCode |= errorstate;
 2127              		.loc 1 1166 22
 2128 0162 FB68     		ldr	r3, [r7, #12]
 2129 0164 9A6B     		ldr	r2, [r3, #56]
 2130 0166 FB6A     		ldr	r3, [r7, #44]
 2131 0168 1A43     		orrs	r2, r2, r3
 2132 016a FB68     		ldr	r3, [r7, #12]
 2133 016c 9A63     		str	r2, [r3, #56]
1167:./Libraries/STM32F4xx_HAL_Driver/Src/stm32f4xx_hal_sd.c ****       hsd->State = HAL_SD_STATE_READY;
 2134              		.loc 1 1167 18
 2135 016e FB68     		ldr	r3, [r7, #12]
 2136 0170 0122     		movs	r2, #1
 2137 0172 83F83420 		strb	r2, [r3, #52]
1168:./Libraries/STM32F4xx_HAL_Driver/Src/stm32f4xx_hal_sd.c ****       return HAL_ERROR;
 2138              		.loc 1 1168 14
 2139 0176 0123     		movs	r3, #1
 2140 0178 02E0     		b	.L94
 2141              	.L93:
1169:./Libraries/STM32F4xx_HAL_Driver/Src/stm32f4xx_hal_sd.c ****     }
1170:./Libraries/STM32F4xx_HAL_Driver/Src/stm32f4xx_hal_sd.c **** 
1171:./Libraries/STM32F4xx_HAL_Driver/Src/stm32f4xx_hal_sd.c ****     return HAL_OK;
 2142              		.loc 1 1171 12
 2143 017a 0023     		movs	r3, #0
 2144 017c 00E0     		b	.L94
ARM GAS  /tmp/ccMhfXg8.s 			page 59


 2145              	.L87:
1172:./Libraries/STM32F4xx_HAL_Driver/Src/stm32f4xx_hal_sd.c ****   }
1173:./Libraries/STM32F4xx_HAL_Driver/Src/stm32f4xx_hal_sd.c ****   else
1174:./Libraries/STM32F4xx_HAL_Driver/Src/stm32f4xx_hal_sd.c ****   {
1175:./Libraries/STM32F4xx_HAL_Driver/Src/stm32f4xx_hal_sd.c ****     return HAL_BUSY;
 2146              		.loc 1 1175 12
 2147 017e 0223     		movs	r3, #2
 2148              	.L94:
1176:./Libraries/STM32F4xx_HAL_Driver/Src/stm32f4xx_hal_sd.c ****   }
1177:./Libraries/STM32F4xx_HAL_Driver/Src/stm32f4xx_hal_sd.c **** }
 2149              		.loc 1 1177 1 discriminator 1
 2150 0180 1846     		mov	r0, r3
 2151 0182 3037     		adds	r7, r7, #48
 2152              	.LCFI50:
 2153              		.cfi_def_cfa_offset 8
 2154 0184 BD46     		mov	sp, r7
 2155              	.LCFI51:
 2156              		.cfi_def_cfa_register 13
 2157              		@ sp needed
 2158 0186 80BD     		pop	{r7, pc}
 2159              	.L96:
 2160              		.align	2
 2161              	.L95:
 2162 0188 00000000 		.word	SD_DMAReceiveCplt
 2163 018c 00000000 		.word	SD_DMAError
 2164 0190 8C852542 		.word	1109755276
 2165              		.cfi_endproc
 2166              	.LFE135:
 2168              		.section	.text.HAL_SD_WriteBlocks_DMA,"ax",%progbits
 2169              		.align	1
 2170              		.global	HAL_SD_WriteBlocks_DMA
 2171              		.syntax unified
 2172              		.thumb
 2173              		.thumb_func
 2174              		.fpu fpv4-sp-d16
 2176              	HAL_SD_WriteBlocks_DMA:
 2177              	.LFB136:
1178:./Libraries/STM32F4xx_HAL_Driver/Src/stm32f4xx_hal_sd.c **** 
1179:./Libraries/STM32F4xx_HAL_Driver/Src/stm32f4xx_hal_sd.c **** /**
1180:./Libraries/STM32F4xx_HAL_Driver/Src/stm32f4xx_hal_sd.c ****   * @brief  Writes block(s) to a specified address in a card. The Data transfer 
1181:./Libraries/STM32F4xx_HAL_Driver/Src/stm32f4xx_hal_sd.c ****   *         is managed by DMA mode. 
1182:./Libraries/STM32F4xx_HAL_Driver/Src/stm32f4xx_hal_sd.c ****   * @note   This API should be followed by a check on the card state through
1183:./Libraries/STM32F4xx_HAL_Driver/Src/stm32f4xx_hal_sd.c ****   *         HAL_SD_GetCardState().
1184:./Libraries/STM32F4xx_HAL_Driver/Src/stm32f4xx_hal_sd.c ****   * @note   You could also check the DMA transfer process through the SD Tx 
1185:./Libraries/STM32F4xx_HAL_Driver/Src/stm32f4xx_hal_sd.c ****   *         interrupt event.
1186:./Libraries/STM32F4xx_HAL_Driver/Src/stm32f4xx_hal_sd.c ****   * @param  hsd Pointer to SD handle
1187:./Libraries/STM32F4xx_HAL_Driver/Src/stm32f4xx_hal_sd.c ****   * @param  pData Pointer to the buffer that will contain the data to transmit
1188:./Libraries/STM32F4xx_HAL_Driver/Src/stm32f4xx_hal_sd.c ****   * @param  BlockAdd Block Address where data will be written  
1189:./Libraries/STM32F4xx_HAL_Driver/Src/stm32f4xx_hal_sd.c ****   * @param  NumberOfBlocks Number of blocks to write
1190:./Libraries/STM32F4xx_HAL_Driver/Src/stm32f4xx_hal_sd.c ****   * @retval HAL status
1191:./Libraries/STM32F4xx_HAL_Driver/Src/stm32f4xx_hal_sd.c ****   */
1192:./Libraries/STM32F4xx_HAL_Driver/Src/stm32f4xx_hal_sd.c **** HAL_StatusTypeDef HAL_SD_WriteBlocks_DMA(SD_HandleTypeDef *hsd, uint8_t *pData, uint32_t BlockAdd, 
1193:./Libraries/STM32F4xx_HAL_Driver/Src/stm32f4xx_hal_sd.c **** {
 2178              		.loc 1 1193 1
 2179              		.cfi_startproc
 2180              		@ args = 0, pretend = 0, frame = 48
 2181              		@ frame_needed = 1, uses_anonymous_args = 0
ARM GAS  /tmp/ccMhfXg8.s 			page 60


 2182 0000 80B5     		push	{r7, lr}
 2183              	.LCFI52:
 2184              		.cfi_def_cfa_offset 8
 2185              		.cfi_offset 7, -8
 2186              		.cfi_offset 14, -4
 2187 0002 8CB0     		sub	sp, sp, #48
 2188              	.LCFI53:
 2189              		.cfi_def_cfa_offset 56
 2190 0004 00AF     		add	r7, sp, #0
 2191              	.LCFI54:
 2192              		.cfi_def_cfa_register 7
 2193 0006 F860     		str	r0, [r7, #12]
 2194 0008 B960     		str	r1, [r7, #8]
 2195 000a 7A60     		str	r2, [r7, #4]
 2196 000c 3B60     		str	r3, [r7]
1194:./Libraries/STM32F4xx_HAL_Driver/Src/stm32f4xx_hal_sd.c ****   SDIO_DataInitTypeDef config;
1195:./Libraries/STM32F4xx_HAL_Driver/Src/stm32f4xx_hal_sd.c ****   uint32_t errorstate = HAL_SD_ERROR_NONE;
 2197              		.loc 1 1195 12
 2198 000e 0023     		movs	r3, #0
 2199 0010 FB62     		str	r3, [r7, #44]
1196:./Libraries/STM32F4xx_HAL_Driver/Src/stm32f4xx_hal_sd.c ****   
1197:./Libraries/STM32F4xx_HAL_Driver/Src/stm32f4xx_hal_sd.c ****   if(NULL == pData)
 2200              		.loc 1 1197 5
 2201 0012 BB68     		ldr	r3, [r7, #8]
 2202 0014 002B     		cmp	r3, #0
 2203 0016 07D1     		bne	.L98
1198:./Libraries/STM32F4xx_HAL_Driver/Src/stm32f4xx_hal_sd.c ****   {
1199:./Libraries/STM32F4xx_HAL_Driver/Src/stm32f4xx_hal_sd.c ****     hsd->ErrorCode |= HAL_SD_ERROR_PARAM;
 2204              		.loc 1 1199 20
 2205 0018 FB68     		ldr	r3, [r7, #12]
 2206 001a 9B6B     		ldr	r3, [r3, #56]
 2207 001c 43F00062 		orr	r2, r3, #134217728
 2208 0020 FB68     		ldr	r3, [r7, #12]
 2209 0022 9A63     		str	r2, [r3, #56]
1200:./Libraries/STM32F4xx_HAL_Driver/Src/stm32f4xx_hal_sd.c ****     return HAL_ERROR;
 2210              		.loc 1 1200 12
 2211 0024 0123     		movs	r3, #1
 2212 0026 ABE0     		b	.L107
 2213              	.L98:
1201:./Libraries/STM32F4xx_HAL_Driver/Src/stm32f4xx_hal_sd.c ****   }
1202:./Libraries/STM32F4xx_HAL_Driver/Src/stm32f4xx_hal_sd.c ****   
1203:./Libraries/STM32F4xx_HAL_Driver/Src/stm32f4xx_hal_sd.c ****   if(hsd->State == HAL_SD_STATE_READY)
 2214              		.loc 1 1203 9
 2215 0028 FB68     		ldr	r3, [r7, #12]
 2216 002a 93F83430 		ldrb	r3, [r3, #52]
 2217 002e DBB2     		uxtb	r3, r3
 2218              		.loc 1 1203 5
 2219 0030 012B     		cmp	r3, #1
 2220 0032 40F0A480 		bne	.L100
1204:./Libraries/STM32F4xx_HAL_Driver/Src/stm32f4xx_hal_sd.c ****   {
1205:./Libraries/STM32F4xx_HAL_Driver/Src/stm32f4xx_hal_sd.c ****     hsd->ErrorCode = HAL_DMA_ERROR_NONE;
 2221              		.loc 1 1205 20
 2222 0036 FB68     		ldr	r3, [r7, #12]
 2223 0038 0022     		movs	r2, #0
 2224 003a 9A63     		str	r2, [r3, #56]
1206:./Libraries/STM32F4xx_HAL_Driver/Src/stm32f4xx_hal_sd.c ****     
1207:./Libraries/STM32F4xx_HAL_Driver/Src/stm32f4xx_hal_sd.c ****     if((BlockAdd + NumberOfBlocks) > (hsd->SdCard.LogBlockNbr))
ARM GAS  /tmp/ccMhfXg8.s 			page 61


 2225              		.loc 1 1207 18
 2226 003c 7A68     		ldr	r2, [r7, #4]
 2227 003e 3B68     		ldr	r3, [r7]
 2228 0040 1A44     		add	r2, r2, r3
 2229              		.loc 1 1207 50
 2230 0042 FB68     		ldr	r3, [r7, #12]
 2231 0044 DB6D     		ldr	r3, [r3, #92]
 2232              		.loc 1 1207 7
 2233 0046 9A42     		cmp	r2, r3
 2234 0048 07D9     		bls	.L101
1208:./Libraries/STM32F4xx_HAL_Driver/Src/stm32f4xx_hal_sd.c ****     {
1209:./Libraries/STM32F4xx_HAL_Driver/Src/stm32f4xx_hal_sd.c ****       hsd->ErrorCode |= HAL_SD_ERROR_ADDR_OUT_OF_RANGE;
 2235              		.loc 1 1209 22
 2236 004a FB68     		ldr	r3, [r7, #12]
 2237 004c 9B6B     		ldr	r3, [r3, #56]
 2238 004e 43F00072 		orr	r2, r3, #33554432
 2239 0052 FB68     		ldr	r3, [r7, #12]
 2240 0054 9A63     		str	r2, [r3, #56]
1210:./Libraries/STM32F4xx_HAL_Driver/Src/stm32f4xx_hal_sd.c ****       return HAL_ERROR;
 2241              		.loc 1 1210 14
 2242 0056 0123     		movs	r3, #1
 2243 0058 92E0     		b	.L107
 2244              	.L101:
1211:./Libraries/STM32F4xx_HAL_Driver/Src/stm32f4xx_hal_sd.c ****     }
1212:./Libraries/STM32F4xx_HAL_Driver/Src/stm32f4xx_hal_sd.c ****     
1213:./Libraries/STM32F4xx_HAL_Driver/Src/stm32f4xx_hal_sd.c ****     hsd->State = HAL_SD_STATE_BUSY;
 2245              		.loc 1 1213 16
 2246 005a FB68     		ldr	r3, [r7, #12]
 2247 005c 0322     		movs	r2, #3
 2248 005e 83F83420 		strb	r2, [r3, #52]
1214:./Libraries/STM32F4xx_HAL_Driver/Src/stm32f4xx_hal_sd.c ****     
1215:./Libraries/STM32F4xx_HAL_Driver/Src/stm32f4xx_hal_sd.c ****     /* Initialize data control register */
1216:./Libraries/STM32F4xx_HAL_Driver/Src/stm32f4xx_hal_sd.c ****     hsd->Instance->DCTRL = 0U;
 2249              		.loc 1 1216 8
 2250 0062 FB68     		ldr	r3, [r7, #12]
 2251 0064 1B68     		ldr	r3, [r3]
 2252              		.loc 1 1216 26
 2253 0066 0022     		movs	r2, #0
 2254 0068 DA62     		str	r2, [r3, #44]
1217:./Libraries/STM32F4xx_HAL_Driver/Src/stm32f4xx_hal_sd.c ****     
1218:./Libraries/STM32F4xx_HAL_Driver/Src/stm32f4xx_hal_sd.c ****     /* Enable SD Error interrupts */  
1219:./Libraries/STM32F4xx_HAL_Driver/Src/stm32f4xx_hal_sd.c **** #ifdef SDIO_STA_STBITER
1220:./Libraries/STM32F4xx_HAL_Driver/Src/stm32f4xx_hal_sd.c ****     __HAL_SD_ENABLE_IT(hsd, (SDIO_IT_DCRCFAIL | SDIO_IT_DTIMEOUT | SDIO_IT_TXUNDERR | SDIO_IT_STBIT
1221:./Libraries/STM32F4xx_HAL_Driver/Src/stm32f4xx_hal_sd.c **** #else /* SDIO_STA_STBITERR not defined */
1222:./Libraries/STM32F4xx_HAL_Driver/Src/stm32f4xx_hal_sd.c ****     __HAL_SD_ENABLE_IT(hsd, (SDIO_IT_DCRCFAIL | SDIO_IT_DTIMEOUT | SDIO_IT_TXUNDERR));    
 2255              		.loc 1 1222 5
 2256 006a FB68     		ldr	r3, [r7, #12]
 2257 006c 1B68     		ldr	r3, [r3]
 2258 006e DA6B     		ldr	r2, [r3, #60]
 2259 0070 FB68     		ldr	r3, [r7, #12]
 2260 0072 1B68     		ldr	r3, [r3]
 2261 0074 42F01A02 		orr	r2, r2, #26
 2262 0078 DA63     		str	r2, [r3, #60]
1223:./Libraries/STM32F4xx_HAL_Driver/Src/stm32f4xx_hal_sd.c **** #endif /* SDIO_STA_STBITERR */
1224:./Libraries/STM32F4xx_HAL_Driver/Src/stm32f4xx_hal_sd.c ****     
1225:./Libraries/STM32F4xx_HAL_Driver/Src/stm32f4xx_hal_sd.c ****     /* Set the DMA transfer complete callback */
1226:./Libraries/STM32F4xx_HAL_Driver/Src/stm32f4xx_hal_sd.c ****     hsd->hdmatx->XferCpltCallback = SD_DMATransmitCplt;
ARM GAS  /tmp/ccMhfXg8.s 			page 62


 2263              		.loc 1 1226 8
 2264 007a FB68     		ldr	r3, [r7, #12]
 2265 007c 1B6C     		ldr	r3, [r3, #64]
 2266              		.loc 1 1226 35
 2267 007e 424A     		ldr	r2, .L108
 2268 0080 DA63     		str	r2, [r3, #60]
1227:./Libraries/STM32F4xx_HAL_Driver/Src/stm32f4xx_hal_sd.c ****     
1228:./Libraries/STM32F4xx_HAL_Driver/Src/stm32f4xx_hal_sd.c ****     /* Set the DMA error callback */
1229:./Libraries/STM32F4xx_HAL_Driver/Src/stm32f4xx_hal_sd.c ****     hsd->hdmatx->XferErrorCallback = SD_DMAError;
 2269              		.loc 1 1229 8
 2270 0082 FB68     		ldr	r3, [r7, #12]
 2271 0084 1B6C     		ldr	r3, [r3, #64]
 2272              		.loc 1 1229 36
 2273 0086 414A     		ldr	r2, .L108+4
 2274 0088 DA64     		str	r2, [r3, #76]
1230:./Libraries/STM32F4xx_HAL_Driver/Src/stm32f4xx_hal_sd.c ****     
1231:./Libraries/STM32F4xx_HAL_Driver/Src/stm32f4xx_hal_sd.c ****     /* Set the DMA Abort callback */
1232:./Libraries/STM32F4xx_HAL_Driver/Src/stm32f4xx_hal_sd.c ****     hsd->hdmatx->XferAbortCallback = NULL;
 2275              		.loc 1 1232 8
 2276 008a FB68     		ldr	r3, [r7, #12]
 2277 008c 1B6C     		ldr	r3, [r3, #64]
 2278              		.loc 1 1232 36
 2279 008e 0022     		movs	r2, #0
 2280 0090 1A65     		str	r2, [r3, #80]
1233:./Libraries/STM32F4xx_HAL_Driver/Src/stm32f4xx_hal_sd.c ****     
1234:./Libraries/STM32F4xx_HAL_Driver/Src/stm32f4xx_hal_sd.c ****     if(hsd->SdCard.CardType != CARD_SDHC_SDXC)
 2281              		.loc 1 1234 19
 2282 0092 FB68     		ldr	r3, [r7, #12]
 2283 0094 5B6C     		ldr	r3, [r3, #68]
 2284              		.loc 1 1234 7
 2285 0096 012B     		cmp	r3, #1
 2286 0098 02D0     		beq	.L102
1235:./Libraries/STM32F4xx_HAL_Driver/Src/stm32f4xx_hal_sd.c ****     {
1236:./Libraries/STM32F4xx_HAL_Driver/Src/stm32f4xx_hal_sd.c ****       BlockAdd *= 512U;
 2287              		.loc 1 1236 16
 2288 009a 7B68     		ldr	r3, [r7, #4]
 2289 009c 5B02     		lsls	r3, r3, #9
 2290 009e 7B60     		str	r3, [r7, #4]
 2291              	.L102:
1237:./Libraries/STM32F4xx_HAL_Driver/Src/stm32f4xx_hal_sd.c ****     }
1238:./Libraries/STM32F4xx_HAL_Driver/Src/stm32f4xx_hal_sd.c ****     
1239:./Libraries/STM32F4xx_HAL_Driver/Src/stm32f4xx_hal_sd.c ****     /* Set Block Size for Card */ 
1240:./Libraries/STM32F4xx_HAL_Driver/Src/stm32f4xx_hal_sd.c ****     errorstate = SDMMC_CmdBlockLength(hsd->Instance, BLOCKSIZE);
 2292              		.loc 1 1240 18
 2293 00a0 FB68     		ldr	r3, [r7, #12]
 2294 00a2 1B68     		ldr	r3, [r3]
 2295 00a4 4FF40071 		mov	r1, #512
 2296 00a8 1846     		mov	r0, r3
 2297 00aa FFF7FEFF 		bl	SDMMC_CmdBlockLength
 2298 00ae F862     		str	r0, [r7, #44]
1241:./Libraries/STM32F4xx_HAL_Driver/Src/stm32f4xx_hal_sd.c ****     if(errorstate != HAL_SD_ERROR_NONE)
 2299              		.loc 1 1241 7
 2300 00b0 FB6A     		ldr	r3, [r7, #44]
 2301 00b2 002B     		cmp	r3, #0
 2302 00b4 10D0     		beq	.L103
1242:./Libraries/STM32F4xx_HAL_Driver/Src/stm32f4xx_hal_sd.c ****     {
1243:./Libraries/STM32F4xx_HAL_Driver/Src/stm32f4xx_hal_sd.c ****       /* Clear all the static flags */
ARM GAS  /tmp/ccMhfXg8.s 			page 63


1244:./Libraries/STM32F4xx_HAL_Driver/Src/stm32f4xx_hal_sd.c ****       __HAL_SD_CLEAR_FLAG(hsd, SDIO_STATIC_FLAGS); 
 2303              		.loc 1 1244 7
 2304 00b6 FB68     		ldr	r3, [r7, #12]
 2305 00b8 1B68     		ldr	r3, [r3]
 2306 00ba 40F2FF52 		movw	r2, #1535
 2307 00be 9A63     		str	r2, [r3, #56]
1245:./Libraries/STM32F4xx_HAL_Driver/Src/stm32f4xx_hal_sd.c ****       hsd->ErrorCode |= errorstate;
 2308              		.loc 1 1245 22
 2309 00c0 FB68     		ldr	r3, [r7, #12]
 2310 00c2 9A6B     		ldr	r2, [r3, #56]
 2311 00c4 FB6A     		ldr	r3, [r7, #44]
 2312 00c6 1A43     		orrs	r2, r2, r3
 2313 00c8 FB68     		ldr	r3, [r7, #12]
 2314 00ca 9A63     		str	r2, [r3, #56]
1246:./Libraries/STM32F4xx_HAL_Driver/Src/stm32f4xx_hal_sd.c ****       hsd->State = HAL_SD_STATE_READY;
 2315              		.loc 1 1246 18
 2316 00cc FB68     		ldr	r3, [r7, #12]
 2317 00ce 0122     		movs	r2, #1
 2318 00d0 83F83420 		strb	r2, [r3, #52]
1247:./Libraries/STM32F4xx_HAL_Driver/Src/stm32f4xx_hal_sd.c ****       return HAL_ERROR;
 2319              		.loc 1 1247 14
 2320 00d4 0123     		movs	r3, #1
 2321 00d6 53E0     		b	.L107
 2322              	.L103:
1248:./Libraries/STM32F4xx_HAL_Driver/Src/stm32f4xx_hal_sd.c ****     }
1249:./Libraries/STM32F4xx_HAL_Driver/Src/stm32f4xx_hal_sd.c ****     
1250:./Libraries/STM32F4xx_HAL_Driver/Src/stm32f4xx_hal_sd.c ****     /* Write Blocks in Polling mode */
1251:./Libraries/STM32F4xx_HAL_Driver/Src/stm32f4xx_hal_sd.c ****     if(NumberOfBlocks > 1U)
 2323              		.loc 1 1251 7
 2324 00d8 3B68     		ldr	r3, [r7]
 2325 00da 012B     		cmp	r3, #1
 2326 00dc 0AD9     		bls	.L104
1252:./Libraries/STM32F4xx_HAL_Driver/Src/stm32f4xx_hal_sd.c ****     {
1253:./Libraries/STM32F4xx_HAL_Driver/Src/stm32f4xx_hal_sd.c ****       hsd->Context = (SD_CONTEXT_WRITE_MULTIPLE_BLOCK | SD_CONTEXT_DMA);
 2327              		.loc 1 1253 20
 2328 00de FB68     		ldr	r3, [r7, #12]
 2329 00e0 A022     		movs	r2, #160
 2330 00e2 1A63     		str	r2, [r3, #48]
1254:./Libraries/STM32F4xx_HAL_Driver/Src/stm32f4xx_hal_sd.c ****       
1255:./Libraries/STM32F4xx_HAL_Driver/Src/stm32f4xx_hal_sd.c ****       /* Write Multi Block command */ 
1256:./Libraries/STM32F4xx_HAL_Driver/Src/stm32f4xx_hal_sd.c ****       errorstate = SDMMC_CmdWriteMultiBlock(hsd->Instance, BlockAdd);
 2331              		.loc 1 1256 20
 2332 00e4 FB68     		ldr	r3, [r7, #12]
 2333 00e6 1B68     		ldr	r3, [r3]
 2334 00e8 7968     		ldr	r1, [r7, #4]
 2335 00ea 1846     		mov	r0, r3
 2336 00ec FFF7FEFF 		bl	SDMMC_CmdWriteMultiBlock
 2337 00f0 F862     		str	r0, [r7, #44]
 2338 00f2 09E0     		b	.L105
 2339              	.L104:
1257:./Libraries/STM32F4xx_HAL_Driver/Src/stm32f4xx_hal_sd.c ****     }
1258:./Libraries/STM32F4xx_HAL_Driver/Src/stm32f4xx_hal_sd.c ****     else
1259:./Libraries/STM32F4xx_HAL_Driver/Src/stm32f4xx_hal_sd.c ****     {
1260:./Libraries/STM32F4xx_HAL_Driver/Src/stm32f4xx_hal_sd.c ****       hsd->Context = (SD_CONTEXT_WRITE_SINGLE_BLOCK | SD_CONTEXT_DMA);
 2340              		.loc 1 1260 20
 2341 00f4 FB68     		ldr	r3, [r7, #12]
 2342 00f6 9022     		movs	r2, #144
ARM GAS  /tmp/ccMhfXg8.s 			page 64


 2343 00f8 1A63     		str	r2, [r3, #48]
1261:./Libraries/STM32F4xx_HAL_Driver/Src/stm32f4xx_hal_sd.c ****       
1262:./Libraries/STM32F4xx_HAL_Driver/Src/stm32f4xx_hal_sd.c ****       /* Write Single Block command */
1263:./Libraries/STM32F4xx_HAL_Driver/Src/stm32f4xx_hal_sd.c ****       errorstate = SDMMC_CmdWriteSingleBlock(hsd->Instance, BlockAdd);
 2344              		.loc 1 1263 20
 2345 00fa FB68     		ldr	r3, [r7, #12]
 2346 00fc 1B68     		ldr	r3, [r3]
 2347 00fe 7968     		ldr	r1, [r7, #4]
 2348 0100 1846     		mov	r0, r3
 2349 0102 FFF7FEFF 		bl	SDMMC_CmdWriteSingleBlock
 2350 0106 F862     		str	r0, [r7, #44]
 2351              	.L105:
1264:./Libraries/STM32F4xx_HAL_Driver/Src/stm32f4xx_hal_sd.c ****     }
1265:./Libraries/STM32F4xx_HAL_Driver/Src/stm32f4xx_hal_sd.c ****     if(errorstate != HAL_SD_ERROR_NONE)
 2352              		.loc 1 1265 7
 2353 0108 FB6A     		ldr	r3, [r7, #44]
 2354 010a 002B     		cmp	r3, #0
 2355 010c 10D0     		beq	.L106
1266:./Libraries/STM32F4xx_HAL_Driver/Src/stm32f4xx_hal_sd.c ****     {
1267:./Libraries/STM32F4xx_HAL_Driver/Src/stm32f4xx_hal_sd.c ****       /* Clear all the static flags */
1268:./Libraries/STM32F4xx_HAL_Driver/Src/stm32f4xx_hal_sd.c ****       __HAL_SD_CLEAR_FLAG(hsd, SDIO_STATIC_FLAGS); 
 2356              		.loc 1 1268 7
 2357 010e FB68     		ldr	r3, [r7, #12]
 2358 0110 1B68     		ldr	r3, [r3]
 2359 0112 40F2FF52 		movw	r2, #1535
 2360 0116 9A63     		str	r2, [r3, #56]
1269:./Libraries/STM32F4xx_HAL_Driver/Src/stm32f4xx_hal_sd.c ****       hsd->ErrorCode |= errorstate;
 2361              		.loc 1 1269 22
 2362 0118 FB68     		ldr	r3, [r7, #12]
 2363 011a 9A6B     		ldr	r2, [r3, #56]
 2364 011c FB6A     		ldr	r3, [r7, #44]
 2365 011e 1A43     		orrs	r2, r2, r3
 2366 0120 FB68     		ldr	r3, [r7, #12]
 2367 0122 9A63     		str	r2, [r3, #56]
1270:./Libraries/STM32F4xx_HAL_Driver/Src/stm32f4xx_hal_sd.c ****       hsd->State = HAL_SD_STATE_READY;
 2368              		.loc 1 1270 18
 2369 0124 FB68     		ldr	r3, [r7, #12]
 2370 0126 0122     		movs	r2, #1
 2371 0128 83F83420 		strb	r2, [r3, #52]
1271:./Libraries/STM32F4xx_HAL_Driver/Src/stm32f4xx_hal_sd.c ****       return HAL_ERROR;
 2372              		.loc 1 1271 14
 2373 012c 0123     		movs	r3, #1
 2374 012e 27E0     		b	.L107
 2375              	.L106:
1272:./Libraries/STM32F4xx_HAL_Driver/Src/stm32f4xx_hal_sd.c ****     }
1273:./Libraries/STM32F4xx_HAL_Driver/Src/stm32f4xx_hal_sd.c ****     
1274:./Libraries/STM32F4xx_HAL_Driver/Src/stm32f4xx_hal_sd.c ****     /* Enable SDIO DMA transfer */
1275:./Libraries/STM32F4xx_HAL_Driver/Src/stm32f4xx_hal_sd.c ****     __HAL_SD_DMA_ENABLE(hsd);
 2376              		.loc 1 1275 5
 2377 0130 174B     		ldr	r3, .L108+8
 2378 0132 0122     		movs	r2, #1
 2379 0134 1A60     		str	r2, [r3]
1276:./Libraries/STM32F4xx_HAL_Driver/Src/stm32f4xx_hal_sd.c ****     
1277:./Libraries/STM32F4xx_HAL_Driver/Src/stm32f4xx_hal_sd.c ****     /* Enable the DMA Channel */
1278:./Libraries/STM32F4xx_HAL_Driver/Src/stm32f4xx_hal_sd.c ****     HAL_DMA_Start_IT(hsd->hdmatx, (uint32_t)pData, (uint32_t)&hsd->Instance->FIFO, (uint32_t)(BLOCK
 2380              		.loc 1 1278 5
 2381 0136 FB68     		ldr	r3, [r7, #12]
ARM GAS  /tmp/ccMhfXg8.s 			page 65


 2382 0138 186C     		ldr	r0, [r3, #64]
 2383 013a B968     		ldr	r1, [r7, #8]
 2384              		.loc 1 1278 66
 2385 013c FB68     		ldr	r3, [r7, #12]
 2386 013e 1B68     		ldr	r3, [r3]
 2387              		.loc 1 1278 62
 2388 0140 8033     		adds	r3, r3, #128
 2389              		.loc 1 1278 5
 2390 0142 1A46     		mov	r2, r3
 2391              		.loc 1 1278 84
 2392 0144 3B68     		ldr	r3, [r7]
 2393 0146 5B02     		lsls	r3, r3, #9
 2394              		.loc 1 1278 5
 2395 0148 9B08     		lsrs	r3, r3, #2
 2396 014a FFF7FEFF 		bl	HAL_DMA_Start_IT
1279:./Libraries/STM32F4xx_HAL_Driver/Src/stm32f4xx_hal_sd.c ****     
1280:./Libraries/STM32F4xx_HAL_Driver/Src/stm32f4xx_hal_sd.c ****     /* Configure the SD DPSM (Data Path State Machine) */ 
1281:./Libraries/STM32F4xx_HAL_Driver/Src/stm32f4xx_hal_sd.c ****     config.DataTimeOut   = SDMMC_DATATIMEOUT;
 2397              		.loc 1 1281 26
 2398 014e 4FF0FF33 		mov	r3, #-1
 2399 0152 7B61     		str	r3, [r7, #20]
1282:./Libraries/STM32F4xx_HAL_Driver/Src/stm32f4xx_hal_sd.c ****     config.DataLength    = BLOCKSIZE * NumberOfBlocks;
 2400              		.loc 1 1282 38
 2401 0154 3B68     		ldr	r3, [r7]
 2402 0156 5B02     		lsls	r3, r3, #9
 2403              		.loc 1 1282 26
 2404 0158 BB61     		str	r3, [r7, #24]
1283:./Libraries/STM32F4xx_HAL_Driver/Src/stm32f4xx_hal_sd.c ****     config.DataBlockSize = SDIO_DATABLOCK_SIZE_512B;
 2405              		.loc 1 1283 26
 2406 015a 9023     		movs	r3, #144
 2407 015c FB61     		str	r3, [r7, #28]
1284:./Libraries/STM32F4xx_HAL_Driver/Src/stm32f4xx_hal_sd.c ****     config.TransferDir   = SDIO_TRANSFER_DIR_TO_CARD;
 2408              		.loc 1 1284 26
 2409 015e 0023     		movs	r3, #0
 2410 0160 3B62     		str	r3, [r7, #32]
1285:./Libraries/STM32F4xx_HAL_Driver/Src/stm32f4xx_hal_sd.c ****     config.TransferMode  = SDIO_TRANSFER_MODE_BLOCK;
 2411              		.loc 1 1285 26
 2412 0162 0023     		movs	r3, #0
 2413 0164 7B62     		str	r3, [r7, #36]
1286:./Libraries/STM32F4xx_HAL_Driver/Src/stm32f4xx_hal_sd.c ****     config.DPSM          = SDIO_DPSM_ENABLE;
 2414              		.loc 1 1286 26
 2415 0166 0123     		movs	r3, #1
 2416 0168 BB62     		str	r3, [r7, #40]
1287:./Libraries/STM32F4xx_HAL_Driver/Src/stm32f4xx_hal_sd.c ****     SDIO_ConfigData(hsd->Instance, &config);
 2417              		.loc 1 1287 5
 2418 016a FB68     		ldr	r3, [r7, #12]
 2419 016c 1B68     		ldr	r3, [r3]
 2420 016e 07F11402 		add	r2, r7, #20
 2421 0172 1146     		mov	r1, r2
 2422 0174 1846     		mov	r0, r3
 2423 0176 FFF7FEFF 		bl	SDIO_ConfigData
1288:./Libraries/STM32F4xx_HAL_Driver/Src/stm32f4xx_hal_sd.c ****     
1289:./Libraries/STM32F4xx_HAL_Driver/Src/stm32f4xx_hal_sd.c ****     return HAL_OK;
 2424              		.loc 1 1289 12
 2425 017a 0023     		movs	r3, #0
 2426 017c 00E0     		b	.L107
 2427              	.L100:
ARM GAS  /tmp/ccMhfXg8.s 			page 66


1290:./Libraries/STM32F4xx_HAL_Driver/Src/stm32f4xx_hal_sd.c ****   }
1291:./Libraries/STM32F4xx_HAL_Driver/Src/stm32f4xx_hal_sd.c ****   else
1292:./Libraries/STM32F4xx_HAL_Driver/Src/stm32f4xx_hal_sd.c ****   {
1293:./Libraries/STM32F4xx_HAL_Driver/Src/stm32f4xx_hal_sd.c ****     return HAL_BUSY;
 2428              		.loc 1 1293 12
 2429 017e 0223     		movs	r3, #2
 2430              	.L107:
1294:./Libraries/STM32F4xx_HAL_Driver/Src/stm32f4xx_hal_sd.c ****   }
1295:./Libraries/STM32F4xx_HAL_Driver/Src/stm32f4xx_hal_sd.c **** }
 2431              		.loc 1 1295 1 discriminator 1
 2432 0180 1846     		mov	r0, r3
 2433 0182 3037     		adds	r7, r7, #48
 2434              	.LCFI55:
 2435              		.cfi_def_cfa_offset 8
 2436 0184 BD46     		mov	sp, r7
 2437              	.LCFI56:
 2438              		.cfi_def_cfa_register 13
 2439              		@ sp needed
 2440 0186 80BD     		pop	{r7, pc}
 2441              	.L109:
 2442              		.align	2
 2443              	.L108:
 2444 0188 00000000 		.word	SD_DMATransmitCplt
 2445 018c 00000000 		.word	SD_DMAError
 2446 0190 8C852542 		.word	1109755276
 2447              		.cfi_endproc
 2448              	.LFE136:
 2450              		.section	.text.HAL_SD_Erase,"ax",%progbits
 2451              		.align	1
 2452              		.global	HAL_SD_Erase
 2453              		.syntax unified
 2454              		.thumb
 2455              		.thumb_func
 2456              		.fpu fpv4-sp-d16
 2458              	HAL_SD_Erase:
 2459              	.LFB137:
1296:./Libraries/STM32F4xx_HAL_Driver/Src/stm32f4xx_hal_sd.c **** 
1297:./Libraries/STM32F4xx_HAL_Driver/Src/stm32f4xx_hal_sd.c **** /**
1298:./Libraries/STM32F4xx_HAL_Driver/Src/stm32f4xx_hal_sd.c ****   * @brief  Erases the specified memory area of the given SD card.
1299:./Libraries/STM32F4xx_HAL_Driver/Src/stm32f4xx_hal_sd.c ****   * @note   This API should be followed by a check on the card state through
1300:./Libraries/STM32F4xx_HAL_Driver/Src/stm32f4xx_hal_sd.c ****   *         HAL_SD_GetCardState().
1301:./Libraries/STM32F4xx_HAL_Driver/Src/stm32f4xx_hal_sd.c ****   * @param  hsd Pointer to SD handle 
1302:./Libraries/STM32F4xx_HAL_Driver/Src/stm32f4xx_hal_sd.c ****   * @param  BlockStartAdd Start Block address
1303:./Libraries/STM32F4xx_HAL_Driver/Src/stm32f4xx_hal_sd.c ****   * @param  BlockEndAdd End Block address
1304:./Libraries/STM32F4xx_HAL_Driver/Src/stm32f4xx_hal_sd.c ****   * @retval HAL status
1305:./Libraries/STM32F4xx_HAL_Driver/Src/stm32f4xx_hal_sd.c ****   */
1306:./Libraries/STM32F4xx_HAL_Driver/Src/stm32f4xx_hal_sd.c **** HAL_StatusTypeDef HAL_SD_Erase(SD_HandleTypeDef *hsd, uint32_t BlockStartAdd, uint32_t BlockEndAdd)
1307:./Libraries/STM32F4xx_HAL_Driver/Src/stm32f4xx_hal_sd.c **** {
 2460              		.loc 1 1307 1
 2461              		.cfi_startproc
 2462              		@ args = 0, pretend = 0, frame = 24
 2463              		@ frame_needed = 1, uses_anonymous_args = 0
 2464 0000 80B5     		push	{r7, lr}
 2465              	.LCFI57:
 2466              		.cfi_def_cfa_offset 8
 2467              		.cfi_offset 7, -8
 2468              		.cfi_offset 14, -4
ARM GAS  /tmp/ccMhfXg8.s 			page 67


 2469 0002 86B0     		sub	sp, sp, #24
 2470              	.LCFI58:
 2471              		.cfi_def_cfa_offset 32
 2472 0004 00AF     		add	r7, sp, #0
 2473              	.LCFI59:
 2474              		.cfi_def_cfa_register 7
 2475 0006 F860     		str	r0, [r7, #12]
 2476 0008 B960     		str	r1, [r7, #8]
 2477 000a 7A60     		str	r2, [r7, #4]
1308:./Libraries/STM32F4xx_HAL_Driver/Src/stm32f4xx_hal_sd.c ****   uint32_t errorstate = HAL_SD_ERROR_NONE;
 2478              		.loc 1 1308 12
 2479 000c 0023     		movs	r3, #0
 2480 000e 7B61     		str	r3, [r7, #20]
1309:./Libraries/STM32F4xx_HAL_Driver/Src/stm32f4xx_hal_sd.c ****   
1310:./Libraries/STM32F4xx_HAL_Driver/Src/stm32f4xx_hal_sd.c ****   if(hsd->State == HAL_SD_STATE_READY)
 2481              		.loc 1 1310 9
 2482 0010 FB68     		ldr	r3, [r7, #12]
 2483 0012 93F83430 		ldrb	r3, [r3, #52]
 2484 0016 DBB2     		uxtb	r3, r3
 2485              		.loc 1 1310 5
 2486 0018 012B     		cmp	r3, #1
 2487 001a 40F0B880 		bne	.L111
1311:./Libraries/STM32F4xx_HAL_Driver/Src/stm32f4xx_hal_sd.c ****   {
1312:./Libraries/STM32F4xx_HAL_Driver/Src/stm32f4xx_hal_sd.c ****     hsd->ErrorCode = HAL_DMA_ERROR_NONE;
 2488              		.loc 1 1312 20
 2489 001e FB68     		ldr	r3, [r7, #12]
 2490 0020 0022     		movs	r2, #0
 2491 0022 9A63     		str	r2, [r3, #56]
1313:./Libraries/STM32F4xx_HAL_Driver/Src/stm32f4xx_hal_sd.c ****     
1314:./Libraries/STM32F4xx_HAL_Driver/Src/stm32f4xx_hal_sd.c ****     if(BlockEndAdd < BlockStartAdd)
 2492              		.loc 1 1314 7
 2493 0024 7A68     		ldr	r2, [r7, #4]
 2494 0026 BB68     		ldr	r3, [r7, #8]
 2495 0028 9A42     		cmp	r2, r3
 2496 002a 07D2     		bcs	.L112
1315:./Libraries/STM32F4xx_HAL_Driver/Src/stm32f4xx_hal_sd.c ****     {
1316:./Libraries/STM32F4xx_HAL_Driver/Src/stm32f4xx_hal_sd.c ****       hsd->ErrorCode |= HAL_SD_ERROR_PARAM;
 2497              		.loc 1 1316 22
 2498 002c FB68     		ldr	r3, [r7, #12]
 2499 002e 9B6B     		ldr	r3, [r3, #56]
 2500 0030 43F00062 		orr	r2, r3, #134217728
 2501 0034 FB68     		ldr	r3, [r7, #12]
 2502 0036 9A63     		str	r2, [r3, #56]
1317:./Libraries/STM32F4xx_HAL_Driver/Src/stm32f4xx_hal_sd.c ****       return HAL_ERROR;
 2503              		.loc 1 1317 14
 2504 0038 0123     		movs	r3, #1
 2505 003a A9E0     		b	.L113
 2506              	.L112:
1318:./Libraries/STM32F4xx_HAL_Driver/Src/stm32f4xx_hal_sd.c ****     }
1319:./Libraries/STM32F4xx_HAL_Driver/Src/stm32f4xx_hal_sd.c ****     
1320:./Libraries/STM32F4xx_HAL_Driver/Src/stm32f4xx_hal_sd.c ****     if(BlockEndAdd > (hsd->SdCard.LogBlockNbr))
 2507              		.loc 1 1320 34
 2508 003c FB68     		ldr	r3, [r7, #12]
 2509 003e DB6D     		ldr	r3, [r3, #92]
 2510              		.loc 1 1320 7
 2511 0040 7A68     		ldr	r2, [r7, #4]
 2512 0042 9A42     		cmp	r2, r3
ARM GAS  /tmp/ccMhfXg8.s 			page 68


 2513 0044 07D9     		bls	.L114
1321:./Libraries/STM32F4xx_HAL_Driver/Src/stm32f4xx_hal_sd.c ****     {
1322:./Libraries/STM32F4xx_HAL_Driver/Src/stm32f4xx_hal_sd.c ****       hsd->ErrorCode |= HAL_SD_ERROR_ADDR_OUT_OF_RANGE;
 2514              		.loc 1 1322 22
 2515 0046 FB68     		ldr	r3, [r7, #12]
 2516 0048 9B6B     		ldr	r3, [r3, #56]
 2517 004a 43F00072 		orr	r2, r3, #33554432
 2518 004e FB68     		ldr	r3, [r7, #12]
 2519 0050 9A63     		str	r2, [r3, #56]
1323:./Libraries/STM32F4xx_HAL_Driver/Src/stm32f4xx_hal_sd.c ****       return HAL_ERROR;
 2520              		.loc 1 1323 14
 2521 0052 0123     		movs	r3, #1
 2522 0054 9CE0     		b	.L113
 2523              	.L114:
1324:./Libraries/STM32F4xx_HAL_Driver/Src/stm32f4xx_hal_sd.c ****     }
1325:./Libraries/STM32F4xx_HAL_Driver/Src/stm32f4xx_hal_sd.c ****     
1326:./Libraries/STM32F4xx_HAL_Driver/Src/stm32f4xx_hal_sd.c ****     hsd->State = HAL_SD_STATE_BUSY;
 2524              		.loc 1 1326 16
 2525 0056 FB68     		ldr	r3, [r7, #12]
 2526 0058 0322     		movs	r2, #3
 2527 005a 83F83420 		strb	r2, [r3, #52]
1327:./Libraries/STM32F4xx_HAL_Driver/Src/stm32f4xx_hal_sd.c ****     
1328:./Libraries/STM32F4xx_HAL_Driver/Src/stm32f4xx_hal_sd.c ****     /* Check if the card command class supports erase command */
1329:./Libraries/STM32F4xx_HAL_Driver/Src/stm32f4xx_hal_sd.c ****     if(((hsd->SdCard.Class) & SDIO_CCCC_ERASE) == 0U)
 2528              		.loc 1 1329 21
 2529 005e FB68     		ldr	r3, [r7, #12]
 2530 0060 DB6C     		ldr	r3, [r3, #76]
 2531              		.loc 1 1329 29
 2532 0062 03F02003 		and	r3, r3, #32
 2533              		.loc 1 1329 7
 2534 0066 002B     		cmp	r3, #0
 2535 0068 10D1     		bne	.L115
1330:./Libraries/STM32F4xx_HAL_Driver/Src/stm32f4xx_hal_sd.c ****     {
1331:./Libraries/STM32F4xx_HAL_Driver/Src/stm32f4xx_hal_sd.c ****       /* Clear all the static flags */
1332:./Libraries/STM32F4xx_HAL_Driver/Src/stm32f4xx_hal_sd.c ****       __HAL_SD_CLEAR_FLAG(hsd, SDIO_STATIC_FLAGS);
 2536              		.loc 1 1332 7
 2537 006a FB68     		ldr	r3, [r7, #12]
 2538 006c 1B68     		ldr	r3, [r3]
 2539 006e 40F2FF52 		movw	r2, #1535
 2540 0072 9A63     		str	r2, [r3, #56]
1333:./Libraries/STM32F4xx_HAL_Driver/Src/stm32f4xx_hal_sd.c ****       hsd->ErrorCode |= HAL_SD_ERROR_REQUEST_NOT_APPLICABLE;
 2541              		.loc 1 1333 22
 2542 0074 FB68     		ldr	r3, [r7, #12]
 2543 0076 9B6B     		ldr	r3, [r3, #56]
 2544 0078 43F08062 		orr	r2, r3, #67108864
 2545 007c FB68     		ldr	r3, [r7, #12]
 2546 007e 9A63     		str	r2, [r3, #56]
1334:./Libraries/STM32F4xx_HAL_Driver/Src/stm32f4xx_hal_sd.c ****       hsd->State = HAL_SD_STATE_READY;
 2547              		.loc 1 1334 18
 2548 0080 FB68     		ldr	r3, [r7, #12]
 2549 0082 0122     		movs	r2, #1
 2550 0084 83F83420 		strb	r2, [r3, #52]
1335:./Libraries/STM32F4xx_HAL_Driver/Src/stm32f4xx_hal_sd.c ****       return HAL_ERROR;
 2551              		.loc 1 1335 14
 2552 0088 0123     		movs	r3, #1
 2553 008a 81E0     		b	.L113
 2554              	.L115:
ARM GAS  /tmp/ccMhfXg8.s 			page 69


1336:./Libraries/STM32F4xx_HAL_Driver/Src/stm32f4xx_hal_sd.c ****     }
1337:./Libraries/STM32F4xx_HAL_Driver/Src/stm32f4xx_hal_sd.c ****     
1338:./Libraries/STM32F4xx_HAL_Driver/Src/stm32f4xx_hal_sd.c ****     if((SDIO_GetResponse(hsd->Instance, SDIO_RESP1) & SDMMC_CARD_LOCKED) == SDMMC_CARD_LOCKED)
 2555              		.loc 1 1338 9
 2556 008c FB68     		ldr	r3, [r7, #12]
 2557 008e 1B68     		ldr	r3, [r3]
 2558 0090 0021     		movs	r1, #0
 2559 0092 1846     		mov	r0, r3
 2560 0094 FFF7FEFF 		bl	SDIO_GetResponse
 2561 0098 0346     		mov	r3, r0
 2562              		.loc 1 1338 53
 2563 009a 03F00073 		and	r3, r3, #33554432
 2564              		.loc 1 1338 7
 2565 009e B3F1007F 		cmp	r3, #33554432
 2566 00a2 10D1     		bne	.L116
1339:./Libraries/STM32F4xx_HAL_Driver/Src/stm32f4xx_hal_sd.c ****     {
1340:./Libraries/STM32F4xx_HAL_Driver/Src/stm32f4xx_hal_sd.c ****       /* Clear all the static flags */
1341:./Libraries/STM32F4xx_HAL_Driver/Src/stm32f4xx_hal_sd.c ****       __HAL_SD_CLEAR_FLAG(hsd, SDIO_STATIC_FLAGS);  
 2567              		.loc 1 1341 7
 2568 00a4 FB68     		ldr	r3, [r7, #12]
 2569 00a6 1B68     		ldr	r3, [r3]
 2570 00a8 40F2FF52 		movw	r2, #1535
 2571 00ac 9A63     		str	r2, [r3, #56]
1342:./Libraries/STM32F4xx_HAL_Driver/Src/stm32f4xx_hal_sd.c ****       hsd->ErrorCode |= HAL_SD_ERROR_LOCK_UNLOCK_FAILED;
 2572              		.loc 1 1342 22
 2573 00ae FB68     		ldr	r3, [r7, #12]
 2574 00b0 9B6B     		ldr	r3, [r3, #56]
 2575 00b2 43F40062 		orr	r2, r3, #2048
 2576 00b6 FB68     		ldr	r3, [r7, #12]
 2577 00b8 9A63     		str	r2, [r3, #56]
1343:./Libraries/STM32F4xx_HAL_Driver/Src/stm32f4xx_hal_sd.c ****       hsd->State = HAL_SD_STATE_READY;
 2578              		.loc 1 1343 18
 2579 00ba FB68     		ldr	r3, [r7, #12]
 2580 00bc 0122     		movs	r2, #1
 2581 00be 83F83420 		strb	r2, [r3, #52]
1344:./Libraries/STM32F4xx_HAL_Driver/Src/stm32f4xx_hal_sd.c ****       return HAL_ERROR;
 2582              		.loc 1 1344 14
 2583 00c2 0123     		movs	r3, #1
 2584 00c4 64E0     		b	.L113
 2585              	.L116:
1345:./Libraries/STM32F4xx_HAL_Driver/Src/stm32f4xx_hal_sd.c ****     }
1346:./Libraries/STM32F4xx_HAL_Driver/Src/stm32f4xx_hal_sd.c ****     
1347:./Libraries/STM32F4xx_HAL_Driver/Src/stm32f4xx_hal_sd.c ****     /* Get start and end block for high capacity cards */
1348:./Libraries/STM32F4xx_HAL_Driver/Src/stm32f4xx_hal_sd.c ****     if(hsd->SdCard.CardType != CARD_SDHC_SDXC)
 2586              		.loc 1 1348 19
 2587 00c6 FB68     		ldr	r3, [r7, #12]
 2588 00c8 5B6C     		ldr	r3, [r3, #68]
 2589              		.loc 1 1348 7
 2590 00ca 012B     		cmp	r3, #1
 2591 00cc 05D0     		beq	.L117
1349:./Libraries/STM32F4xx_HAL_Driver/Src/stm32f4xx_hal_sd.c ****     {
1350:./Libraries/STM32F4xx_HAL_Driver/Src/stm32f4xx_hal_sd.c ****       BlockStartAdd *= 512U;
 2592              		.loc 1 1350 21
 2593 00ce BB68     		ldr	r3, [r7, #8]
 2594 00d0 5B02     		lsls	r3, r3, #9
 2595 00d2 BB60     		str	r3, [r7, #8]
1351:./Libraries/STM32F4xx_HAL_Driver/Src/stm32f4xx_hal_sd.c ****       BlockEndAdd   *= 512U;
ARM GAS  /tmp/ccMhfXg8.s 			page 70


 2596              		.loc 1 1351 21
 2597 00d4 7B68     		ldr	r3, [r7, #4]
 2598 00d6 5B02     		lsls	r3, r3, #9
 2599 00d8 7B60     		str	r3, [r7, #4]
 2600              	.L117:
1352:./Libraries/STM32F4xx_HAL_Driver/Src/stm32f4xx_hal_sd.c ****     }
1353:./Libraries/STM32F4xx_HAL_Driver/Src/stm32f4xx_hal_sd.c ****     
1354:./Libraries/STM32F4xx_HAL_Driver/Src/stm32f4xx_hal_sd.c ****     /* According to sd-card spec 1.0 ERASE_GROUP_START (CMD32) and erase_group_end(CMD33) */
1355:./Libraries/STM32F4xx_HAL_Driver/Src/stm32f4xx_hal_sd.c ****     if(hsd->SdCard.CardType != CARD_SECURED)
 2601              		.loc 1 1355 19
 2602 00da FB68     		ldr	r3, [r7, #12]
 2603 00dc 5B6C     		ldr	r3, [r3, #68]
 2604              		.loc 1 1355 7
 2605 00de 032B     		cmp	r3, #3
 2606 00e0 35D0     		beq	.L118
1356:./Libraries/STM32F4xx_HAL_Driver/Src/stm32f4xx_hal_sd.c ****     {
1357:./Libraries/STM32F4xx_HAL_Driver/Src/stm32f4xx_hal_sd.c ****       /* Send CMD32 SD_ERASE_GRP_START with argument as addr  */
1358:./Libraries/STM32F4xx_HAL_Driver/Src/stm32f4xx_hal_sd.c ****       errorstate = SDMMC_CmdSDEraseStartAdd(hsd->Instance, BlockStartAdd);
 2607              		.loc 1 1358 20
 2608 00e2 FB68     		ldr	r3, [r7, #12]
 2609 00e4 1B68     		ldr	r3, [r3]
 2610 00e6 B968     		ldr	r1, [r7, #8]
 2611 00e8 1846     		mov	r0, r3
 2612 00ea FFF7FEFF 		bl	SDMMC_CmdSDEraseStartAdd
 2613 00ee 7861     		str	r0, [r7, #20]
1359:./Libraries/STM32F4xx_HAL_Driver/Src/stm32f4xx_hal_sd.c ****       if(errorstate != HAL_SD_ERROR_NONE)
 2614              		.loc 1 1359 9
 2615 00f0 7B69     		ldr	r3, [r7, #20]
 2616 00f2 002B     		cmp	r3, #0
 2617 00f4 10D0     		beq	.L119
1360:./Libraries/STM32F4xx_HAL_Driver/Src/stm32f4xx_hal_sd.c ****       {
1361:./Libraries/STM32F4xx_HAL_Driver/Src/stm32f4xx_hal_sd.c ****         /* Clear all the static flags */
1362:./Libraries/STM32F4xx_HAL_Driver/Src/stm32f4xx_hal_sd.c ****         __HAL_SD_CLEAR_FLAG(hsd, SDIO_STATIC_FLAGS); 
 2618              		.loc 1 1362 9
 2619 00f6 FB68     		ldr	r3, [r7, #12]
 2620 00f8 1B68     		ldr	r3, [r3]
 2621 00fa 40F2FF52 		movw	r2, #1535
 2622 00fe 9A63     		str	r2, [r3, #56]
1363:./Libraries/STM32F4xx_HAL_Driver/Src/stm32f4xx_hal_sd.c ****         hsd->ErrorCode |= errorstate;
 2623              		.loc 1 1363 24
 2624 0100 FB68     		ldr	r3, [r7, #12]
 2625 0102 9A6B     		ldr	r2, [r3, #56]
 2626 0104 7B69     		ldr	r3, [r7, #20]
 2627 0106 1A43     		orrs	r2, r2, r3
 2628 0108 FB68     		ldr	r3, [r7, #12]
 2629 010a 9A63     		str	r2, [r3, #56]
1364:./Libraries/STM32F4xx_HAL_Driver/Src/stm32f4xx_hal_sd.c ****         hsd->State = HAL_SD_STATE_READY;
 2630              		.loc 1 1364 20
 2631 010c FB68     		ldr	r3, [r7, #12]
 2632 010e 0122     		movs	r2, #1
 2633 0110 83F83420 		strb	r2, [r3, #52]
1365:./Libraries/STM32F4xx_HAL_Driver/Src/stm32f4xx_hal_sd.c ****         return HAL_ERROR;
 2634              		.loc 1 1365 16
 2635 0114 0123     		movs	r3, #1
 2636 0116 3BE0     		b	.L113
 2637              	.L119:
1366:./Libraries/STM32F4xx_HAL_Driver/Src/stm32f4xx_hal_sd.c ****       }
ARM GAS  /tmp/ccMhfXg8.s 			page 71


1367:./Libraries/STM32F4xx_HAL_Driver/Src/stm32f4xx_hal_sd.c ****       
1368:./Libraries/STM32F4xx_HAL_Driver/Src/stm32f4xx_hal_sd.c ****       /* Send CMD33 SD_ERASE_GRP_END with argument as addr  */
1369:./Libraries/STM32F4xx_HAL_Driver/Src/stm32f4xx_hal_sd.c ****       errorstate = SDMMC_CmdSDEraseEndAdd(hsd->Instance, BlockEndAdd);
 2638              		.loc 1 1369 20
 2639 0118 FB68     		ldr	r3, [r7, #12]
 2640 011a 1B68     		ldr	r3, [r3]
 2641 011c 7968     		ldr	r1, [r7, #4]
 2642 011e 1846     		mov	r0, r3
 2643 0120 FFF7FEFF 		bl	SDMMC_CmdSDEraseEndAdd
 2644 0124 7861     		str	r0, [r7, #20]
1370:./Libraries/STM32F4xx_HAL_Driver/Src/stm32f4xx_hal_sd.c ****       if(errorstate != HAL_SD_ERROR_NONE)
 2645              		.loc 1 1370 9
 2646 0126 7B69     		ldr	r3, [r7, #20]
 2647 0128 002B     		cmp	r3, #0
 2648 012a 10D0     		beq	.L118
1371:./Libraries/STM32F4xx_HAL_Driver/Src/stm32f4xx_hal_sd.c ****       {
1372:./Libraries/STM32F4xx_HAL_Driver/Src/stm32f4xx_hal_sd.c ****         /* Clear all the static flags */
1373:./Libraries/STM32F4xx_HAL_Driver/Src/stm32f4xx_hal_sd.c ****         __HAL_SD_CLEAR_FLAG(hsd, SDIO_STATIC_FLAGS); 
 2649              		.loc 1 1373 9
 2650 012c FB68     		ldr	r3, [r7, #12]
 2651 012e 1B68     		ldr	r3, [r3]
 2652 0130 40F2FF52 		movw	r2, #1535
 2653 0134 9A63     		str	r2, [r3, #56]
1374:./Libraries/STM32F4xx_HAL_Driver/Src/stm32f4xx_hal_sd.c ****         hsd->ErrorCode |= errorstate;
 2654              		.loc 1 1374 24
 2655 0136 FB68     		ldr	r3, [r7, #12]
 2656 0138 9A6B     		ldr	r2, [r3, #56]
 2657 013a 7B69     		ldr	r3, [r7, #20]
 2658 013c 1A43     		orrs	r2, r2, r3
 2659 013e FB68     		ldr	r3, [r7, #12]
 2660 0140 9A63     		str	r2, [r3, #56]
1375:./Libraries/STM32F4xx_HAL_Driver/Src/stm32f4xx_hal_sd.c ****         hsd->State = HAL_SD_STATE_READY;
 2661              		.loc 1 1375 20
 2662 0142 FB68     		ldr	r3, [r7, #12]
 2663 0144 0122     		movs	r2, #1
 2664 0146 83F83420 		strb	r2, [r3, #52]
1376:./Libraries/STM32F4xx_HAL_Driver/Src/stm32f4xx_hal_sd.c ****         return HAL_ERROR;
 2665              		.loc 1 1376 16
 2666 014a 0123     		movs	r3, #1
 2667 014c 20E0     		b	.L113
 2668              	.L118:
1377:./Libraries/STM32F4xx_HAL_Driver/Src/stm32f4xx_hal_sd.c ****       }
1378:./Libraries/STM32F4xx_HAL_Driver/Src/stm32f4xx_hal_sd.c ****     }
1379:./Libraries/STM32F4xx_HAL_Driver/Src/stm32f4xx_hal_sd.c ****     
1380:./Libraries/STM32F4xx_HAL_Driver/Src/stm32f4xx_hal_sd.c ****     /* Send CMD38 ERASE */
1381:./Libraries/STM32F4xx_HAL_Driver/Src/stm32f4xx_hal_sd.c ****     errorstate = SDMMC_CmdErase(hsd->Instance);
 2669              		.loc 1 1381 18
 2670 014e FB68     		ldr	r3, [r7, #12]
 2671 0150 1B68     		ldr	r3, [r3]
 2672 0152 1846     		mov	r0, r3
 2673 0154 FFF7FEFF 		bl	SDMMC_CmdErase
 2674 0158 7861     		str	r0, [r7, #20]
1382:./Libraries/STM32F4xx_HAL_Driver/Src/stm32f4xx_hal_sd.c ****     if(errorstate != HAL_SD_ERROR_NONE)
 2675              		.loc 1 1382 7
 2676 015a 7B69     		ldr	r3, [r7, #20]
 2677 015c 002B     		cmp	r3, #0
 2678 015e 10D0     		beq	.L120
ARM GAS  /tmp/ccMhfXg8.s 			page 72


1383:./Libraries/STM32F4xx_HAL_Driver/Src/stm32f4xx_hal_sd.c ****     {
1384:./Libraries/STM32F4xx_HAL_Driver/Src/stm32f4xx_hal_sd.c ****       /* Clear all the static flags */
1385:./Libraries/STM32F4xx_HAL_Driver/Src/stm32f4xx_hal_sd.c ****       __HAL_SD_CLEAR_FLAG(hsd, SDIO_STATIC_FLAGS); 
 2679              		.loc 1 1385 7
 2680 0160 FB68     		ldr	r3, [r7, #12]
 2681 0162 1B68     		ldr	r3, [r3]
 2682 0164 40F2FF52 		movw	r2, #1535
 2683 0168 9A63     		str	r2, [r3, #56]
1386:./Libraries/STM32F4xx_HAL_Driver/Src/stm32f4xx_hal_sd.c ****       hsd->ErrorCode |= errorstate;
 2684              		.loc 1 1386 22
 2685 016a FB68     		ldr	r3, [r7, #12]
 2686 016c 9A6B     		ldr	r2, [r3, #56]
 2687 016e 7B69     		ldr	r3, [r7, #20]
 2688 0170 1A43     		orrs	r2, r2, r3
 2689 0172 FB68     		ldr	r3, [r7, #12]
 2690 0174 9A63     		str	r2, [r3, #56]
1387:./Libraries/STM32F4xx_HAL_Driver/Src/stm32f4xx_hal_sd.c ****       hsd->State = HAL_SD_STATE_READY;
 2691              		.loc 1 1387 18
 2692 0176 FB68     		ldr	r3, [r7, #12]
 2693 0178 0122     		movs	r2, #1
 2694 017a 83F83420 		strb	r2, [r3, #52]
1388:./Libraries/STM32F4xx_HAL_Driver/Src/stm32f4xx_hal_sd.c ****       return HAL_ERROR;
 2695              		.loc 1 1388 14
 2696 017e 0123     		movs	r3, #1
 2697 0180 06E0     		b	.L113
 2698              	.L120:
1389:./Libraries/STM32F4xx_HAL_Driver/Src/stm32f4xx_hal_sd.c ****     }
1390:./Libraries/STM32F4xx_HAL_Driver/Src/stm32f4xx_hal_sd.c ****     
1391:./Libraries/STM32F4xx_HAL_Driver/Src/stm32f4xx_hal_sd.c ****     hsd->State = HAL_SD_STATE_READY;
 2699              		.loc 1 1391 16
 2700 0182 FB68     		ldr	r3, [r7, #12]
 2701 0184 0122     		movs	r2, #1
 2702 0186 83F83420 		strb	r2, [r3, #52]
1392:./Libraries/STM32F4xx_HAL_Driver/Src/stm32f4xx_hal_sd.c ****     
1393:./Libraries/STM32F4xx_HAL_Driver/Src/stm32f4xx_hal_sd.c ****     return HAL_OK;
 2703              		.loc 1 1393 12
 2704 018a 0023     		movs	r3, #0
 2705 018c 00E0     		b	.L113
 2706              	.L111:
1394:./Libraries/STM32F4xx_HAL_Driver/Src/stm32f4xx_hal_sd.c ****   }
1395:./Libraries/STM32F4xx_HAL_Driver/Src/stm32f4xx_hal_sd.c ****   else
1396:./Libraries/STM32F4xx_HAL_Driver/Src/stm32f4xx_hal_sd.c ****   {
1397:./Libraries/STM32F4xx_HAL_Driver/Src/stm32f4xx_hal_sd.c ****     return HAL_BUSY;
 2707              		.loc 1 1397 12
 2708 018e 0223     		movs	r3, #2
 2709              	.L113:
1398:./Libraries/STM32F4xx_HAL_Driver/Src/stm32f4xx_hal_sd.c ****   }
1399:./Libraries/STM32F4xx_HAL_Driver/Src/stm32f4xx_hal_sd.c **** }
 2710              		.loc 1 1399 1
 2711 0190 1846     		mov	r0, r3
 2712 0192 1837     		adds	r7, r7, #24
 2713              	.LCFI60:
 2714              		.cfi_def_cfa_offset 8
 2715 0194 BD46     		mov	sp, r7
 2716              	.LCFI61:
 2717              		.cfi_def_cfa_register 13
 2718              		@ sp needed
ARM GAS  /tmp/ccMhfXg8.s 			page 73


 2719 0196 80BD     		pop	{r7, pc}
 2720              		.cfi_endproc
 2721              	.LFE137:
 2723              		.section	.text.HAL_SD_IRQHandler,"ax",%progbits
 2724              		.align	1
 2725              		.global	HAL_SD_IRQHandler
 2726              		.syntax unified
 2727              		.thumb
 2728              		.thumb_func
 2729              		.fpu fpv4-sp-d16
 2731              	HAL_SD_IRQHandler:
 2732              	.LFB138:
1400:./Libraries/STM32F4xx_HAL_Driver/Src/stm32f4xx_hal_sd.c **** 
1401:./Libraries/STM32F4xx_HAL_Driver/Src/stm32f4xx_hal_sd.c **** /**
1402:./Libraries/STM32F4xx_HAL_Driver/Src/stm32f4xx_hal_sd.c ****   * @brief  This function handles SD card interrupt request.
1403:./Libraries/STM32F4xx_HAL_Driver/Src/stm32f4xx_hal_sd.c ****   * @param  hsd Pointer to SD handle
1404:./Libraries/STM32F4xx_HAL_Driver/Src/stm32f4xx_hal_sd.c ****   * @retval None
1405:./Libraries/STM32F4xx_HAL_Driver/Src/stm32f4xx_hal_sd.c ****   */
1406:./Libraries/STM32F4xx_HAL_Driver/Src/stm32f4xx_hal_sd.c **** void HAL_SD_IRQHandler(SD_HandleTypeDef *hsd)
1407:./Libraries/STM32F4xx_HAL_Driver/Src/stm32f4xx_hal_sd.c **** {
 2733              		.loc 1 1407 1
 2734              		.cfi_startproc
 2735              		@ args = 0, pretend = 0, frame = 16
 2736              		@ frame_needed = 1, uses_anonymous_args = 0
 2737 0000 80B5     		push	{r7, lr}
 2738              	.LCFI62:
 2739              		.cfi_def_cfa_offset 8
 2740              		.cfi_offset 7, -8
 2741              		.cfi_offset 14, -4
 2742 0002 84B0     		sub	sp, sp, #16
 2743              	.LCFI63:
 2744              		.cfi_def_cfa_offset 24
 2745 0004 00AF     		add	r7, sp, #0
 2746              	.LCFI64:
 2747              		.cfi_def_cfa_register 7
 2748 0006 7860     		str	r0, [r7, #4]
1408:./Libraries/STM32F4xx_HAL_Driver/Src/stm32f4xx_hal_sd.c ****   uint32_t errorstate = HAL_SD_ERROR_NONE;
 2749              		.loc 1 1408 12
 2750 0008 0023     		movs	r3, #0
 2751 000a FB60     		str	r3, [r7, #12]
1409:./Libraries/STM32F4xx_HAL_Driver/Src/stm32f4xx_hal_sd.c ****   
1410:./Libraries/STM32F4xx_HAL_Driver/Src/stm32f4xx_hal_sd.c ****   /* Check for SDIO interrupt flags */
1411:./Libraries/STM32F4xx_HAL_Driver/Src/stm32f4xx_hal_sd.c ****   if(__HAL_SD_GET_FLAG(hsd, SDIO_IT_DATAEND) != RESET)
 2752              		.loc 1 1411 6
 2753 000c 7B68     		ldr	r3, [r7, #4]
 2754 000e 1B68     		ldr	r3, [r3]
 2755 0010 5B6B     		ldr	r3, [r3, #52]
 2756 0012 03F48073 		and	r3, r3, #256
 2757              		.loc 1 1411 5
 2758 0016 002B     		cmp	r3, #0
 2759 0018 00F08D80 		beq	.L122
1412:./Libraries/STM32F4xx_HAL_Driver/Src/stm32f4xx_hal_sd.c ****   {
1413:./Libraries/STM32F4xx_HAL_Driver/Src/stm32f4xx_hal_sd.c ****     __HAL_SD_CLEAR_FLAG(hsd, SDIO_FLAG_DATAEND); 
 2760              		.loc 1 1413 5
 2761 001c 7B68     		ldr	r3, [r7, #4]
 2762 001e 1B68     		ldr	r3, [r3]
 2763 0020 4FF48072 		mov	r2, #256
ARM GAS  /tmp/ccMhfXg8.s 			page 74


 2764 0024 9A63     		str	r2, [r3, #56]
1414:./Libraries/STM32F4xx_HAL_Driver/Src/stm32f4xx_hal_sd.c ****     
1415:./Libraries/STM32F4xx_HAL_Driver/Src/stm32f4xx_hal_sd.c **** #ifdef SDIO_STA_STBITERR
1416:./Libraries/STM32F4xx_HAL_Driver/Src/stm32f4xx_hal_sd.c ****     __HAL_SD_DISABLE_IT(hsd, SDIO_IT_DATAEND | SDIO_IT_DCRCFAIL | SDIO_IT_DTIMEOUT|\
 2765              		.loc 1 1416 5
 2766 0026 7B68     		ldr	r3, [r7, #4]
 2767 0028 1B68     		ldr	r3, [r3]
 2768 002a DB6B     		ldr	r3, [r3, #60]
 2769 002c 7A68     		ldr	r2, [r7, #4]
 2770 002e 1268     		ldr	r2, [r2]
 2771 0030 23F44E73 		bic	r3, r3, #824
 2772 0034 23F00203 		bic	r3, r3, #2
 2773 0038 D363     		str	r3, [r2, #60]
1417:./Libraries/STM32F4xx_HAL_Driver/Src/stm32f4xx_hal_sd.c ****                              SDIO_IT_TXUNDERR| SDIO_IT_RXOVERR | SDIO_IT_STBITERR);
1418:./Libraries/STM32F4xx_HAL_Driver/Src/stm32f4xx_hal_sd.c **** #else /* SDIO_STA_STBITERR not defined */
1419:./Libraries/STM32F4xx_HAL_Driver/Src/stm32f4xx_hal_sd.c ****     __HAL_SD_DISABLE_IT(hsd, SDIO_IT_DATAEND | SDIO_IT_DCRCFAIL | SDIO_IT_DTIMEOUT|\
1420:./Libraries/STM32F4xx_HAL_Driver/Src/stm32f4xx_hal_sd.c ****                              SDIO_IT_TXUNDERR| SDIO_IT_RXOVERR);
1421:./Libraries/STM32F4xx_HAL_Driver/Src/stm32f4xx_hal_sd.c **** #endif
1422:./Libraries/STM32F4xx_HAL_Driver/Src/stm32f4xx_hal_sd.c ****     
1423:./Libraries/STM32F4xx_HAL_Driver/Src/stm32f4xx_hal_sd.c ****     if((hsd->Context & SD_CONTEXT_IT) != RESET)
 2774              		.loc 1 1423 12
 2775 003a 7B68     		ldr	r3, [r7, #4]
 2776 003c 1B6B     		ldr	r3, [r3, #48]
 2777              		.loc 1 1423 22
 2778 003e 03F00803 		and	r3, r3, #8
 2779              		.loc 1 1423 7
 2780 0042 002B     		cmp	r3, #0
 2781 0044 3AD0     		beq	.L123
1424:./Libraries/STM32F4xx_HAL_Driver/Src/stm32f4xx_hal_sd.c ****     {
1425:./Libraries/STM32F4xx_HAL_Driver/Src/stm32f4xx_hal_sd.c ****       if(((hsd->Context & SD_CONTEXT_READ_MULTIPLE_BLOCK) != RESET) || ((hsd->Context & SD_CONTEXT_
 2782              		.loc 1 1425 15
 2783 0046 7B68     		ldr	r3, [r7, #4]
 2784 0048 1B6B     		ldr	r3, [r3, #48]
 2785              		.loc 1 1425 25
 2786 004a 03F00203 		and	r3, r3, #2
 2787              		.loc 1 1425 9
 2788 004e 002B     		cmp	r3, #0
 2789 0050 05D1     		bne	.L124
 2790              		.loc 1 1425 77 discriminator 1
 2791 0052 7B68     		ldr	r3, [r7, #4]
 2792 0054 1B6B     		ldr	r3, [r3, #48]
 2793              		.loc 1 1425 87 discriminator 1
 2794 0056 03F02003 		and	r3, r3, #32
 2795              		.loc 1 1425 69 discriminator 1
 2796 005a 002B     		cmp	r3, #0
 2797 005c 11D0     		beq	.L125
 2798              	.L124:
1426:./Libraries/STM32F4xx_HAL_Driver/Src/stm32f4xx_hal_sd.c ****       {
1427:./Libraries/STM32F4xx_HAL_Driver/Src/stm32f4xx_hal_sd.c ****         errorstate = SDMMC_CmdStopTransfer(hsd->Instance);
 2799              		.loc 1 1427 22
 2800 005e 7B68     		ldr	r3, [r7, #4]
 2801 0060 1B68     		ldr	r3, [r3]
 2802 0062 1846     		mov	r0, r3
 2803 0064 FFF7FEFF 		bl	SDMMC_CmdStopTransfer
 2804 0068 F860     		str	r0, [r7, #12]
1428:./Libraries/STM32F4xx_HAL_Driver/Src/stm32f4xx_hal_sd.c ****         if(errorstate != HAL_SD_ERROR_NONE)
 2805              		.loc 1 1428 11
ARM GAS  /tmp/ccMhfXg8.s 			page 75


 2806 006a FB68     		ldr	r3, [r7, #12]
 2807 006c 002B     		cmp	r3, #0
 2808 006e 08D0     		beq	.L125
1429:./Libraries/STM32F4xx_HAL_Driver/Src/stm32f4xx_hal_sd.c ****         {
1430:./Libraries/STM32F4xx_HAL_Driver/Src/stm32f4xx_hal_sd.c ****           hsd->ErrorCode |= errorstate;
 2809              		.loc 1 1430 26
 2810 0070 7B68     		ldr	r3, [r7, #4]
 2811 0072 9A6B     		ldr	r2, [r3, #56]
 2812 0074 FB68     		ldr	r3, [r7, #12]
 2813 0076 1A43     		orrs	r2, r2, r3
 2814 0078 7B68     		ldr	r3, [r7, #4]
 2815 007a 9A63     		str	r2, [r3, #56]
1431:./Libraries/STM32F4xx_HAL_Driver/Src/stm32f4xx_hal_sd.c ****           HAL_SD_ErrorCallback(hsd);
 2816              		.loc 1 1431 11
 2817 007c 7868     		ldr	r0, [r7, #4]
 2818 007e FFF7FEFF 		bl	HAL_SD_ErrorCallback
 2819              	.L125:
