ARM GAS  /tmp/ccJhy18e.s 			page 1


   1              		.cpu cortex-m4
   2              		.eabi_attribute 27, 1
   3              		.eabi_attribute 28, 1
   4              		.eabi_attribute 20, 1
   5              		.eabi_attribute 21, 1
   6              		.eabi_attribute 23, 3
   7              		.eabi_attribute 24, 1
   8              		.eabi_attribute 25, 1
   9              		.eabi_attribute 26, 1
  10              		.eabi_attribute 30, 6
  11              		.eabi_attribute 34, 1
  12              		.eabi_attribute 18, 4
  13              		.file	"stm32f4xx_hal_irda.c"
  14              		.text
  15              	.Ltext0:
  16              		.cfi_sections	.debug_frame
  17              		.section	.text.HAL_IRDA_Init,"ax",%progbits
  18              		.align	1
  19              		.global	HAL_IRDA_Init
  20              		.arch armv7e-m
  21              		.syntax unified
  22              		.thumb
  23              		.thumb_func
  24              		.fpu fpv4-sp-d16
  26              	HAL_IRDA_Init:
  27              	.LFB126:
  28              		.file 1 "./Libraries/STM32F4xx_HAL_Driver/Src/stm32f4xx_hal_irda.c"
   1:./Libraries/STM32F4xx_HAL_Driver/Src/stm32f4xx_hal_irda.c **** /**
   2:./Libraries/STM32F4xx_HAL_Driver/Src/stm32f4xx_hal_irda.c ****   ******************************************************************************
   3:./Libraries/STM32F4xx_HAL_Driver/Src/stm32f4xx_hal_irda.c ****   * @file    stm32f4xx_hal_irda.c
   4:./Libraries/STM32F4xx_HAL_Driver/Src/stm32f4xx_hal_irda.c ****   * @author  MCD Application Team
   5:./Libraries/STM32F4xx_HAL_Driver/Src/stm32f4xx_hal_irda.c ****   * @brief   IRDA HAL module driver.
   6:./Libraries/STM32F4xx_HAL_Driver/Src/stm32f4xx_hal_irda.c ****   *          This file provides firmware functions to manage the following 
   7:./Libraries/STM32F4xx_HAL_Driver/Src/stm32f4xx_hal_irda.c ****   *          functionalities of the IrDA SIR ENDEC block (IrDA):
   8:./Libraries/STM32F4xx_HAL_Driver/Src/stm32f4xx_hal_irda.c ****   *           + Initialization and de-initialization methods
   9:./Libraries/STM32F4xx_HAL_Driver/Src/stm32f4xx_hal_irda.c ****   *           + IO operation methods
  10:./Libraries/STM32F4xx_HAL_Driver/Src/stm32f4xx_hal_irda.c ****   *           + Peripheral Control methods
  11:./Libraries/STM32F4xx_HAL_Driver/Src/stm32f4xx_hal_irda.c ****   *
  12:./Libraries/STM32F4xx_HAL_Driver/Src/stm32f4xx_hal_irda.c ****   @verbatim
  13:./Libraries/STM32F4xx_HAL_Driver/Src/stm32f4xx_hal_irda.c ****   ==============================================================================
  14:./Libraries/STM32F4xx_HAL_Driver/Src/stm32f4xx_hal_irda.c ****                         ##### How to use this driver #####
  15:./Libraries/STM32F4xx_HAL_Driver/Src/stm32f4xx_hal_irda.c ****   ==============================================================================
  16:./Libraries/STM32F4xx_HAL_Driver/Src/stm32f4xx_hal_irda.c ****   [..]
  17:./Libraries/STM32F4xx_HAL_Driver/Src/stm32f4xx_hal_irda.c ****     The IRDA HAL driver can be used as follows:
  18:./Libraries/STM32F4xx_HAL_Driver/Src/stm32f4xx_hal_irda.c ****     
  19:./Libraries/STM32F4xx_HAL_Driver/Src/stm32f4xx_hal_irda.c ****     (#) Declare a IRDA_HandleTypeDef handle structure.
  20:./Libraries/STM32F4xx_HAL_Driver/Src/stm32f4xx_hal_irda.c ****     (#) Initialize the IRDA low level resources by implementing the HAL_IRDA_MspInit() API:
  21:./Libraries/STM32F4xx_HAL_Driver/Src/stm32f4xx_hal_irda.c ****         (##) Enable the USARTx interface clock.
  22:./Libraries/STM32F4xx_HAL_Driver/Src/stm32f4xx_hal_irda.c ****         (##) IRDA pins configuration:
  23:./Libraries/STM32F4xx_HAL_Driver/Src/stm32f4xx_hal_irda.c ****             (+++) Enable the clock for the IRDA GPIOs.
  24:./Libraries/STM32F4xx_HAL_Driver/Src/stm32f4xx_hal_irda.c ****             (+++) Configure these IRDA pins as alternate function pull-up.
  25:./Libraries/STM32F4xx_HAL_Driver/Src/stm32f4xx_hal_irda.c ****         (##) NVIC configuration if you need to use interrupt process (HAL_IRDA_Transmit_IT()
  26:./Libraries/STM32F4xx_HAL_Driver/Src/stm32f4xx_hal_irda.c ****              and HAL_IRDA_Receive_IT() APIs):
  27:./Libraries/STM32F4xx_HAL_Driver/Src/stm32f4xx_hal_irda.c ****             (+++) Configure the USARTx interrupt priority.
  28:./Libraries/STM32F4xx_HAL_Driver/Src/stm32f4xx_hal_irda.c ****             (+++) Enable the NVIC USART IRQ handle.
  29:./Libraries/STM32F4xx_HAL_Driver/Src/stm32f4xx_hal_irda.c ****         (##) DMA Configuration if you need to use DMA process (HAL_IRDA_Transmit_DMA()
  30:./Libraries/STM32F4xx_HAL_Driver/Src/stm32f4xx_hal_irda.c ****              and HAL_IRDA_Receive_DMA() APIs):
ARM GAS  /tmp/ccJhy18e.s 			page 2


  31:./Libraries/STM32F4xx_HAL_Driver/Src/stm32f4xx_hal_irda.c ****             (+++) Declare a DMA handle structure for the Tx/Rx stream.
  32:./Libraries/STM32F4xx_HAL_Driver/Src/stm32f4xx_hal_irda.c ****             (+++) Enable the DMAx interface clock.
  33:./Libraries/STM32F4xx_HAL_Driver/Src/stm32f4xx_hal_irda.c ****             (+++) Configure the declared DMA handle structure with the required Tx/Rx parameters.  
  34:./Libraries/STM32F4xx_HAL_Driver/Src/stm32f4xx_hal_irda.c ****             (+++) Configure the DMA Tx/Rx Stream.
  35:./Libraries/STM32F4xx_HAL_Driver/Src/stm32f4xx_hal_irda.c ****             (+++) Associate the initialized DMA handle to the IRDA DMA Tx/Rx handle.
  36:./Libraries/STM32F4xx_HAL_Driver/Src/stm32f4xx_hal_irda.c ****             (+++) Configure the priority and enable the NVIC for the transfer complete interrupt on
  37:./Libraries/STM32F4xx_HAL_Driver/Src/stm32f4xx_hal_irda.c **** 
  38:./Libraries/STM32F4xx_HAL_Driver/Src/stm32f4xx_hal_irda.c ****     (#) Program the Baud Rate, Word Length, Parity, IrDA Mode, Prescaler 
  39:./Libraries/STM32F4xx_HAL_Driver/Src/stm32f4xx_hal_irda.c ****         and Mode(Receiver/Transmitter) in the hirda Init structure.
  40:./Libraries/STM32F4xx_HAL_Driver/Src/stm32f4xx_hal_irda.c **** 
  41:./Libraries/STM32F4xx_HAL_Driver/Src/stm32f4xx_hal_irda.c ****     (#) Initialize the IRDA registers by calling the HAL_IRDA_Init() API:
  42:./Libraries/STM32F4xx_HAL_Driver/Src/stm32f4xx_hal_irda.c ****         (++) This API configures also the low level Hardware GPIO, CLOCK, CORTEX...etc)
  43:./Libraries/STM32F4xx_HAL_Driver/Src/stm32f4xx_hal_irda.c ****             by calling the customized HAL_IRDA_MspInit() API.
  44:./Libraries/STM32F4xx_HAL_Driver/Src/stm32f4xx_hal_irda.c ****     -@@- The specific IRDA interrupts (Transmission complete interrupt, 
  45:./Libraries/STM32F4xx_HAL_Driver/Src/stm32f4xx_hal_irda.c ****         RXNE interrupt and Error Interrupts) will be managed using the macros
  46:./Libraries/STM32F4xx_HAL_Driver/Src/stm32f4xx_hal_irda.c ****         __HAL_IRDA_ENABLE_IT() and __HAL_IRDA_DISABLE_IT() inside the transmit and receive process.
  47:./Libraries/STM32F4xx_HAL_Driver/Src/stm32f4xx_hal_irda.c ****         
  48:./Libraries/STM32F4xx_HAL_Driver/Src/stm32f4xx_hal_irda.c ****     (#) Three operation modes are available within this driver :
  49:./Libraries/STM32F4xx_HAL_Driver/Src/stm32f4xx_hal_irda.c ****              
  50:./Libraries/STM32F4xx_HAL_Driver/Src/stm32f4xx_hal_irda.c ****     *** Polling mode IO operation ***
  51:./Libraries/STM32F4xx_HAL_Driver/Src/stm32f4xx_hal_irda.c ****     =================================
  52:./Libraries/STM32F4xx_HAL_Driver/Src/stm32f4xx_hal_irda.c ****     [..]    
  53:./Libraries/STM32F4xx_HAL_Driver/Src/stm32f4xx_hal_irda.c ****       (+) Send an amount of data in blocking mode using HAL_IRDA_Transmit() 
  54:./Libraries/STM32F4xx_HAL_Driver/Src/stm32f4xx_hal_irda.c ****       (+) Receive an amount of data in blocking mode using HAL_IRDA_Receive()
  55:./Libraries/STM32F4xx_HAL_Driver/Src/stm32f4xx_hal_irda.c ****        
  56:./Libraries/STM32F4xx_HAL_Driver/Src/stm32f4xx_hal_irda.c ****     *** Interrupt mode IO operation ***    
  57:./Libraries/STM32F4xx_HAL_Driver/Src/stm32f4xx_hal_irda.c ****     ===================================
  58:./Libraries/STM32F4xx_HAL_Driver/Src/stm32f4xx_hal_irda.c ****     [..]    
  59:./Libraries/STM32F4xx_HAL_Driver/Src/stm32f4xx_hal_irda.c ****       (+) Send an amount of data in non blocking mode using HAL_IRDA_Transmit_IT() 
  60:./Libraries/STM32F4xx_HAL_Driver/Src/stm32f4xx_hal_irda.c ****       (+) At transmission end of transfer HAL_IRDA_TxCpltCallback is executed and user can 
  61:./Libraries/STM32F4xx_HAL_Driver/Src/stm32f4xx_hal_irda.c ****            add his own code by customization of function pointer HAL_IRDA_TxCpltCallback
  62:./Libraries/STM32F4xx_HAL_Driver/Src/stm32f4xx_hal_irda.c ****       (+) Receive an amount of data in non blocking mode using HAL_IRDA_Receive_IT() 
  63:./Libraries/STM32F4xx_HAL_Driver/Src/stm32f4xx_hal_irda.c ****       (+) At reception end of transfer HAL_IRDA_RxCpltCallback is executed and user can 
  64:./Libraries/STM32F4xx_HAL_Driver/Src/stm32f4xx_hal_irda.c ****            add his own code by customization of function pointer HAL_IRDA_RxCpltCallback           
  65:./Libraries/STM32F4xx_HAL_Driver/Src/stm32f4xx_hal_irda.c ****       (+) In case of transfer Error, HAL_IRDA_ErrorCallback() function is executed and user can 
  66:./Libraries/STM32F4xx_HAL_Driver/Src/stm32f4xx_hal_irda.c ****            add his own code by customization of function pointer HAL_IRDA_ErrorCallback
  67:./Libraries/STM32F4xx_HAL_Driver/Src/stm32f4xx_hal_irda.c **** 
  68:./Libraries/STM32F4xx_HAL_Driver/Src/stm32f4xx_hal_irda.c ****     *** DMA mode IO operation ***    
  69:./Libraries/STM32F4xx_HAL_Driver/Src/stm32f4xx_hal_irda.c ****     =============================
  70:./Libraries/STM32F4xx_HAL_Driver/Src/stm32f4xx_hal_irda.c ****     [..]
  71:./Libraries/STM32F4xx_HAL_Driver/Src/stm32f4xx_hal_irda.c ****       (+) Send an amount of data in non blocking mode (DMA) using HAL_IRDA_Transmit_DMA() 
  72:./Libraries/STM32F4xx_HAL_Driver/Src/stm32f4xx_hal_irda.c ****       (+) At transmission end of transfer HAL_IRDA_TxCpltCallback is executed and user can 
  73:./Libraries/STM32F4xx_HAL_Driver/Src/stm32f4xx_hal_irda.c ****            add his own code by customization of function pointer HAL_IRDA_TxCpltCallback
  74:./Libraries/STM32F4xx_HAL_Driver/Src/stm32f4xx_hal_irda.c ****       (+) Receive an amount of data in non blocking mode (DMA) using HAL_IRDA_Receive_DMA() 
  75:./Libraries/STM32F4xx_HAL_Driver/Src/stm32f4xx_hal_irda.c ****       (+) At reception end of transfer HAL_IRDA_RxCpltCallback is executed and user can 
  76:./Libraries/STM32F4xx_HAL_Driver/Src/stm32f4xx_hal_irda.c ****            add his own code by customization of function pointer HAL_IRDA_RxCpltCallback           
  77:./Libraries/STM32F4xx_HAL_Driver/Src/stm32f4xx_hal_irda.c ****       (+) In case of transfer Error, HAL_IRDA_ErrorCallback() function is executed and user can 
  78:./Libraries/STM32F4xx_HAL_Driver/Src/stm32f4xx_hal_irda.c ****            add his own code by customization of function pointer HAL_IRDA_ErrorCallback    
  79:./Libraries/STM32F4xx_HAL_Driver/Src/stm32f4xx_hal_irda.c **** 
  80:./Libraries/STM32F4xx_HAL_Driver/Src/stm32f4xx_hal_irda.c ****     *** IRDA HAL driver macros list ***
  81:./Libraries/STM32F4xx_HAL_Driver/Src/stm32f4xx_hal_irda.c ****     ===================================
  82:./Libraries/STM32F4xx_HAL_Driver/Src/stm32f4xx_hal_irda.c ****     [..]
  83:./Libraries/STM32F4xx_HAL_Driver/Src/stm32f4xx_hal_irda.c ****       Below the list of most used macros in IRDA HAL driver.
  84:./Libraries/STM32F4xx_HAL_Driver/Src/stm32f4xx_hal_irda.c ****        
  85:./Libraries/STM32F4xx_HAL_Driver/Src/stm32f4xx_hal_irda.c ****      (+) __HAL_IRDA_ENABLE: Enable the IRDA peripheral 
  86:./Libraries/STM32F4xx_HAL_Driver/Src/stm32f4xx_hal_irda.c ****      (+) __HAL_IRDA_DISABLE: Disable the IRDA peripheral     
  87:./Libraries/STM32F4xx_HAL_Driver/Src/stm32f4xx_hal_irda.c ****      (+) __HAL_IRDA_GET_FLAG : Checks whether the specified IRDA flag is set or not
ARM GAS  /tmp/ccJhy18e.s 			page 3


  88:./Libraries/STM32F4xx_HAL_Driver/Src/stm32f4xx_hal_irda.c ****      (+) __HAL_IRDA_CLEAR_FLAG : Clears the specified IRDA pending flag
  89:./Libraries/STM32F4xx_HAL_Driver/Src/stm32f4xx_hal_irda.c ****      (+) __HAL_IRDA_ENABLE_IT: Enables the specified IRDA interrupt
  90:./Libraries/STM32F4xx_HAL_Driver/Src/stm32f4xx_hal_irda.c ****      (+) __HAL_IRDA_DISABLE_IT: Disables the specified IRDA interrupt
  91:./Libraries/STM32F4xx_HAL_Driver/Src/stm32f4xx_hal_irda.c **** 
  92:./Libraries/STM32F4xx_HAL_Driver/Src/stm32f4xx_hal_irda.c ****     [..]
  93:./Libraries/STM32F4xx_HAL_Driver/Src/stm32f4xx_hal_irda.c ****      (@) You can refer to the IRDA HAL driver header file for more useful macros
  94:./Libraries/STM32F4xx_HAL_Driver/Src/stm32f4xx_hal_irda.c **** 
  95:./Libraries/STM32F4xx_HAL_Driver/Src/stm32f4xx_hal_irda.c ****   @endverbatim
  96:./Libraries/STM32F4xx_HAL_Driver/Src/stm32f4xx_hal_irda.c ****   ******************************************************************************
  97:./Libraries/STM32F4xx_HAL_Driver/Src/stm32f4xx_hal_irda.c ****   * @attention
  98:./Libraries/STM32F4xx_HAL_Driver/Src/stm32f4xx_hal_irda.c ****   *
  99:./Libraries/STM32F4xx_HAL_Driver/Src/stm32f4xx_hal_irda.c ****   * <h2><center>&copy; COPYRIGHT(c) 2017 STMicroelectronics</center></h2>
 100:./Libraries/STM32F4xx_HAL_Driver/Src/stm32f4xx_hal_irda.c ****   *
 101:./Libraries/STM32F4xx_HAL_Driver/Src/stm32f4xx_hal_irda.c ****   * Redistribution and use in source and binary forms, with or without modification,
 102:./Libraries/STM32F4xx_HAL_Driver/Src/stm32f4xx_hal_irda.c ****   * are permitted provided that the following conditions are met:
 103:./Libraries/STM32F4xx_HAL_Driver/Src/stm32f4xx_hal_irda.c ****   *   1. Redistributions of source code must retain the above copyright notice,
 104:./Libraries/STM32F4xx_HAL_Driver/Src/stm32f4xx_hal_irda.c ****   *      this list of conditions and the following disclaimer.
 105:./Libraries/STM32F4xx_HAL_Driver/Src/stm32f4xx_hal_irda.c ****   *   2. Redistributions in binary form must reproduce the above copyright notice,
 106:./Libraries/STM32F4xx_HAL_Driver/Src/stm32f4xx_hal_irda.c ****   *      this list of conditions and the following disclaimer in the documentation
 107:./Libraries/STM32F4xx_HAL_Driver/Src/stm32f4xx_hal_irda.c ****   *      and/or other materials provided with the distribution.
 108:./Libraries/STM32F4xx_HAL_Driver/Src/stm32f4xx_hal_irda.c ****   *   3. Neither the name of STMicroelectronics nor the names of its contributors
 109:./Libraries/STM32F4xx_HAL_Driver/Src/stm32f4xx_hal_irda.c ****   *      may be used to endorse or promote products derived from this software
 110:./Libraries/STM32F4xx_HAL_Driver/Src/stm32f4xx_hal_irda.c ****   *      without specific prior written permission.
 111:./Libraries/STM32F4xx_HAL_Driver/Src/stm32f4xx_hal_irda.c ****   *
 112:./Libraries/STM32F4xx_HAL_Driver/Src/stm32f4xx_hal_irda.c ****   * THIS SOFTWARE IS PROVIDED BY THE COPYRIGHT HOLDERS AND CONTRIBUTORS "AS IS"
 113:./Libraries/STM32F4xx_HAL_Driver/Src/stm32f4xx_hal_irda.c ****   * AND ANY EXPRESS OR IMPLIED WARRANTIES, INCLUDING, BUT NOT LIMITED TO, THE
 114:./Libraries/STM32F4xx_HAL_Driver/Src/stm32f4xx_hal_irda.c ****   * IMPLIED WARRANTIES OF MERCHANTABILITY AND FITNESS FOR A PARTICULAR PURPOSE ARE
 115:./Libraries/STM32F4xx_HAL_Driver/Src/stm32f4xx_hal_irda.c ****   * DISCLAIMED. IN NO EVENT SHALL THE COPYRIGHT HOLDER OR CONTRIBUTORS BE LIABLE
 116:./Libraries/STM32F4xx_HAL_Driver/Src/stm32f4xx_hal_irda.c ****   * FOR ANY DIRECT, INDIRECT, INCIDENTAL, SPECIAL, EXEMPLARY, OR CONSEQUENTIAL
 117:./Libraries/STM32F4xx_HAL_Driver/Src/stm32f4xx_hal_irda.c ****   * DAMAGES (INCLUDING, BUT NOT LIMITED TO, PROCUREMENT OF SUBSTITUTE GOODS OR
 118:./Libraries/STM32F4xx_HAL_Driver/Src/stm32f4xx_hal_irda.c ****   * SERVICES; LOSS OF USE, DATA, OR PROFITS; OR BUSINESS INTERRUPTION) HOWEVER
 119:./Libraries/STM32F4xx_HAL_Driver/Src/stm32f4xx_hal_irda.c ****   * CAUSED AND ON ANY THEORY OF LIABILITY, WHETHER IN CONTRACT, STRICT LIABILITY,
 120:./Libraries/STM32F4xx_HAL_Driver/Src/stm32f4xx_hal_irda.c ****   * OR TORT (INCLUDING NEGLIGENCE OR OTHERWISE) ARISING IN ANY WAY OUT OF THE USE
 121:./Libraries/STM32F4xx_HAL_Driver/Src/stm32f4xx_hal_irda.c ****   * OF THIS SOFTWARE, EVEN IF ADVISED OF THE POSSIBILITY OF SUCH DAMAGE.
 122:./Libraries/STM32F4xx_HAL_Driver/Src/stm32f4xx_hal_irda.c ****   *
 123:./Libraries/STM32F4xx_HAL_Driver/Src/stm32f4xx_hal_irda.c ****   ******************************************************************************
 124:./Libraries/STM32F4xx_HAL_Driver/Src/stm32f4xx_hal_irda.c ****   */ 
 125:./Libraries/STM32F4xx_HAL_Driver/Src/stm32f4xx_hal_irda.c **** 
 126:./Libraries/STM32F4xx_HAL_Driver/Src/stm32f4xx_hal_irda.c **** /* Includes ------------------------------------------------------------------*/
 127:./Libraries/STM32F4xx_HAL_Driver/Src/stm32f4xx_hal_irda.c **** #include "stm32f4xx_hal.h"
 128:./Libraries/STM32F4xx_HAL_Driver/Src/stm32f4xx_hal_irda.c **** 
 129:./Libraries/STM32F4xx_HAL_Driver/Src/stm32f4xx_hal_irda.c **** /** @addtogroup STM32F4xx_HAL_Driver
 130:./Libraries/STM32F4xx_HAL_Driver/Src/stm32f4xx_hal_irda.c ****   * @{
 131:./Libraries/STM32F4xx_HAL_Driver/Src/stm32f4xx_hal_irda.c ****   */
 132:./Libraries/STM32F4xx_HAL_Driver/Src/stm32f4xx_hal_irda.c **** 
 133:./Libraries/STM32F4xx_HAL_Driver/Src/stm32f4xx_hal_irda.c **** /** @defgroup IRDA IRDA
 134:./Libraries/STM32F4xx_HAL_Driver/Src/stm32f4xx_hal_irda.c ****   * @brief HAL IRDA module driver
 135:./Libraries/STM32F4xx_HAL_Driver/Src/stm32f4xx_hal_irda.c ****   * @{
 136:./Libraries/STM32F4xx_HAL_Driver/Src/stm32f4xx_hal_irda.c ****   */
 137:./Libraries/STM32F4xx_HAL_Driver/Src/stm32f4xx_hal_irda.c **** 
 138:./Libraries/STM32F4xx_HAL_Driver/Src/stm32f4xx_hal_irda.c **** #ifdef HAL_IRDA_MODULE_ENABLED
 139:./Libraries/STM32F4xx_HAL_Driver/Src/stm32f4xx_hal_irda.c **** 
 140:./Libraries/STM32F4xx_HAL_Driver/Src/stm32f4xx_hal_irda.c **** /* Private typedef -----------------------------------------------------------*/
 141:./Libraries/STM32F4xx_HAL_Driver/Src/stm32f4xx_hal_irda.c **** /* Private define ------------------------------------------------------------*/
 142:./Libraries/STM32F4xx_HAL_Driver/Src/stm32f4xx_hal_irda.c **** /** @addtogroup IRDA_Private_Constants
 143:./Libraries/STM32F4xx_HAL_Driver/Src/stm32f4xx_hal_irda.c ****   * @{
 144:./Libraries/STM32F4xx_HAL_Driver/Src/stm32f4xx_hal_irda.c ****   */
ARM GAS  /tmp/ccJhy18e.s 			page 4


 145:./Libraries/STM32F4xx_HAL_Driver/Src/stm32f4xx_hal_irda.c **** /**
 146:./Libraries/STM32F4xx_HAL_Driver/Src/stm32f4xx_hal_irda.c ****   * @}
 147:./Libraries/STM32F4xx_HAL_Driver/Src/stm32f4xx_hal_irda.c ****   */
 148:./Libraries/STM32F4xx_HAL_Driver/Src/stm32f4xx_hal_irda.c **** /* Private macro -------------------------------------------------------------*/
 149:./Libraries/STM32F4xx_HAL_Driver/Src/stm32f4xx_hal_irda.c **** /* Private variables ---------------------------------------------------------*/
 150:./Libraries/STM32F4xx_HAL_Driver/Src/stm32f4xx_hal_irda.c **** /* Private function prototypes -----------------------------------------------*/
 151:./Libraries/STM32F4xx_HAL_Driver/Src/stm32f4xx_hal_irda.c **** /** @addtogroup IRDA_Private_Functions
 152:./Libraries/STM32F4xx_HAL_Driver/Src/stm32f4xx_hal_irda.c ****   * @{
 153:./Libraries/STM32F4xx_HAL_Driver/Src/stm32f4xx_hal_irda.c ****   */
 154:./Libraries/STM32F4xx_HAL_Driver/Src/stm32f4xx_hal_irda.c **** static void IRDA_SetConfig (IRDA_HandleTypeDef *hirda);
 155:./Libraries/STM32F4xx_HAL_Driver/Src/stm32f4xx_hal_irda.c **** static HAL_StatusTypeDef IRDA_Transmit_IT(IRDA_HandleTypeDef *hirda);
 156:./Libraries/STM32F4xx_HAL_Driver/Src/stm32f4xx_hal_irda.c **** static HAL_StatusTypeDef IRDA_EndTransmit_IT(IRDA_HandleTypeDef *hirda);
 157:./Libraries/STM32F4xx_HAL_Driver/Src/stm32f4xx_hal_irda.c **** static HAL_StatusTypeDef IRDA_Receive_IT(IRDA_HandleTypeDef *hirda);
 158:./Libraries/STM32F4xx_HAL_Driver/Src/stm32f4xx_hal_irda.c **** static void IRDA_DMATransmitCplt(DMA_HandleTypeDef *hdma);
 159:./Libraries/STM32F4xx_HAL_Driver/Src/stm32f4xx_hal_irda.c **** static void IRDA_DMATransmitHalfCplt(DMA_HandleTypeDef *hdma);
 160:./Libraries/STM32F4xx_HAL_Driver/Src/stm32f4xx_hal_irda.c **** static void IRDA_DMAReceiveCplt(DMA_HandleTypeDef *hdma);
 161:./Libraries/STM32F4xx_HAL_Driver/Src/stm32f4xx_hal_irda.c **** static void IRDA_DMAReceiveHalfCplt(DMA_HandleTypeDef *hdma);
 162:./Libraries/STM32F4xx_HAL_Driver/Src/stm32f4xx_hal_irda.c **** static void IRDA_DMAError(DMA_HandleTypeDef *hdma);
 163:./Libraries/STM32F4xx_HAL_Driver/Src/stm32f4xx_hal_irda.c **** static void IRDA_DMAAbortOnError(DMA_HandleTypeDef *hdma);
 164:./Libraries/STM32F4xx_HAL_Driver/Src/stm32f4xx_hal_irda.c **** static void IRDA_DMATxAbortCallback(DMA_HandleTypeDef *hdma);
 165:./Libraries/STM32F4xx_HAL_Driver/Src/stm32f4xx_hal_irda.c **** static void IRDA_DMARxAbortCallback(DMA_HandleTypeDef *hdma);
 166:./Libraries/STM32F4xx_HAL_Driver/Src/stm32f4xx_hal_irda.c **** static void IRDA_DMATxOnlyAbortCallback(DMA_HandleTypeDef *hdma);
 167:./Libraries/STM32F4xx_HAL_Driver/Src/stm32f4xx_hal_irda.c **** static void IRDA_DMARxOnlyAbortCallback(DMA_HandleTypeDef *hdma);
 168:./Libraries/STM32F4xx_HAL_Driver/Src/stm32f4xx_hal_irda.c **** static HAL_StatusTypeDef IRDA_WaitOnFlagUntilTimeout(IRDA_HandleTypeDef *hirda, uint32_t Flag, Flag
 169:./Libraries/STM32F4xx_HAL_Driver/Src/stm32f4xx_hal_irda.c **** static void IRDA_EndTxTransfer(IRDA_HandleTypeDef *hirda);
 170:./Libraries/STM32F4xx_HAL_Driver/Src/stm32f4xx_hal_irda.c **** static void IRDA_EndRxTransfer(IRDA_HandleTypeDef *hirda);
 171:./Libraries/STM32F4xx_HAL_Driver/Src/stm32f4xx_hal_irda.c **** /**
 172:./Libraries/STM32F4xx_HAL_Driver/Src/stm32f4xx_hal_irda.c ****   * @}
 173:./Libraries/STM32F4xx_HAL_Driver/Src/stm32f4xx_hal_irda.c ****   */
 174:./Libraries/STM32F4xx_HAL_Driver/Src/stm32f4xx_hal_irda.c **** /* Exported functions --------------------------------------------------------*/
 175:./Libraries/STM32F4xx_HAL_Driver/Src/stm32f4xx_hal_irda.c **** /** @defgroup IRDA_Exported_Functions IrDA Exported Functions
 176:./Libraries/STM32F4xx_HAL_Driver/Src/stm32f4xx_hal_irda.c ****   * @{
 177:./Libraries/STM32F4xx_HAL_Driver/Src/stm32f4xx_hal_irda.c ****   */
 178:./Libraries/STM32F4xx_HAL_Driver/Src/stm32f4xx_hal_irda.c **** 
 179:./Libraries/STM32F4xx_HAL_Driver/Src/stm32f4xx_hal_irda.c **** /** @defgroup IRDA_Exported_Functions_Group1 IrDA Initialization and de-initialization functions 
 180:./Libraries/STM32F4xx_HAL_Driver/Src/stm32f4xx_hal_irda.c ****   *  @brief    Initialization and Configuration functions 
 181:./Libraries/STM32F4xx_HAL_Driver/Src/stm32f4xx_hal_irda.c ****   *
 182:./Libraries/STM32F4xx_HAL_Driver/Src/stm32f4xx_hal_irda.c **** @verbatim 
 183:./Libraries/STM32F4xx_HAL_Driver/Src/stm32f4xx_hal_irda.c **** 
 184:./Libraries/STM32F4xx_HAL_Driver/Src/stm32f4xx_hal_irda.c **** ===============================================================================
 185:./Libraries/STM32F4xx_HAL_Driver/Src/stm32f4xx_hal_irda.c ****             ##### Initialization and Configuration functions #####
 186:./Libraries/STM32F4xx_HAL_Driver/Src/stm32f4xx_hal_irda.c ****  ===============================================================================  
 187:./Libraries/STM32F4xx_HAL_Driver/Src/stm32f4xx_hal_irda.c ****     [..]
 188:./Libraries/STM32F4xx_HAL_Driver/Src/stm32f4xx_hal_irda.c ****     This subsection provides a set of functions allowing to initialize the USARTx or the UARTy 
 189:./Libraries/STM32F4xx_HAL_Driver/Src/stm32f4xx_hal_irda.c ****     in IrDA mode.
 190:./Libraries/STM32F4xx_HAL_Driver/Src/stm32f4xx_hal_irda.c ****       (+) For the asynchronous mode only these parameters can be configured: 
 191:./Libraries/STM32F4xx_HAL_Driver/Src/stm32f4xx_hal_irda.c ****         (++) BaudRate
 192:./Libraries/STM32F4xx_HAL_Driver/Src/stm32f4xx_hal_irda.c ****         (++) WordLength 
 193:./Libraries/STM32F4xx_HAL_Driver/Src/stm32f4xx_hal_irda.c ****         (++) Parity: If the parity is enabled, then the MSB bit of the data written
 194:./Libraries/STM32F4xx_HAL_Driver/Src/stm32f4xx_hal_irda.c ****              in the data register is transmitted but is changed by the parity bit.
 195:./Libraries/STM32F4xx_HAL_Driver/Src/stm32f4xx_hal_irda.c ****              Depending on the frame length defined by the M bit (8-bits or 9-bits),
 196:./Libraries/STM32F4xx_HAL_Driver/Src/stm32f4xx_hal_irda.c ****              please refer to Reference manual for possible IRDA frame formats.
 197:./Libraries/STM32F4xx_HAL_Driver/Src/stm32f4xx_hal_irda.c ****         (++) Prescaler: A pulse of width less than two and greater than one PSC period(s) may or ma
 198:./Libraries/STM32F4xx_HAL_Driver/Src/stm32f4xx_hal_irda.c ****              not be rejected. The receiver set up time should be managed by software. The IrDA phys
 199:./Libraries/STM32F4xx_HAL_Driver/Src/stm32f4xx_hal_irda.c ****              specification specifies a minimum of 10 ms delay between transmission and 
 200:./Libraries/STM32F4xx_HAL_Driver/Src/stm32f4xx_hal_irda.c ****              reception (IrDA is a half duplex protocol).
 201:./Libraries/STM32F4xx_HAL_Driver/Src/stm32f4xx_hal_irda.c ****         (++) Mode: Receiver/transmitter modes
ARM GAS  /tmp/ccJhy18e.s 			page 5


 202:./Libraries/STM32F4xx_HAL_Driver/Src/stm32f4xx_hal_irda.c ****         (++) IrDAMode: the IrDA can operate in the Normal mode or in the Low power mode.
 203:./Libraries/STM32F4xx_HAL_Driver/Src/stm32f4xx_hal_irda.c ****     [..]
 204:./Libraries/STM32F4xx_HAL_Driver/Src/stm32f4xx_hal_irda.c ****     The HAL_IRDA_Init() API follows IRDA configuration procedures (details for the procedures
 205:./Libraries/STM32F4xx_HAL_Driver/Src/stm32f4xx_hal_irda.c ****     are available in reference manual).
 206:./Libraries/STM32F4xx_HAL_Driver/Src/stm32f4xx_hal_irda.c **** 
 207:./Libraries/STM32F4xx_HAL_Driver/Src/stm32f4xx_hal_irda.c **** @endverbatim
 208:./Libraries/STM32F4xx_HAL_Driver/Src/stm32f4xx_hal_irda.c ****   * @{
 209:./Libraries/STM32F4xx_HAL_Driver/Src/stm32f4xx_hal_irda.c ****   */
 210:./Libraries/STM32F4xx_HAL_Driver/Src/stm32f4xx_hal_irda.c **** 
 211:./Libraries/STM32F4xx_HAL_Driver/Src/stm32f4xx_hal_irda.c **** /**
 212:./Libraries/STM32F4xx_HAL_Driver/Src/stm32f4xx_hal_irda.c ****   * @brief  Initializes the IRDA mode according to the specified
 213:./Libraries/STM32F4xx_HAL_Driver/Src/stm32f4xx_hal_irda.c ****   *         parameters in the IRDA_InitTypeDef and create the associated handle.
 214:./Libraries/STM32F4xx_HAL_Driver/Src/stm32f4xx_hal_irda.c ****   * @param  hirda pointer to a IRDA_HandleTypeDef structure that contains
 215:./Libraries/STM32F4xx_HAL_Driver/Src/stm32f4xx_hal_irda.c ****   *                the configuration information for the specified IRDA module.
 216:./Libraries/STM32F4xx_HAL_Driver/Src/stm32f4xx_hal_irda.c ****   * @retval HAL status
 217:./Libraries/STM32F4xx_HAL_Driver/Src/stm32f4xx_hal_irda.c ****   */
 218:./Libraries/STM32F4xx_HAL_Driver/Src/stm32f4xx_hal_irda.c **** HAL_StatusTypeDef HAL_IRDA_Init(IRDA_HandleTypeDef *hirda)
 219:./Libraries/STM32F4xx_HAL_Driver/Src/stm32f4xx_hal_irda.c **** {
  29              		.loc 1 219 1
  30              		.cfi_startproc
  31              		@ args = 0, pretend = 0, frame = 8
  32              		@ frame_needed = 1, uses_anonymous_args = 0
  33 0000 80B5     		push	{r7, lr}
  34              	.LCFI0:
  35              		.cfi_def_cfa_offset 8
  36              		.cfi_offset 7, -8
  37              		.cfi_offset 14, -4
  38 0002 82B0     		sub	sp, sp, #8
  39              	.LCFI1:
  40              		.cfi_def_cfa_offset 16
  41 0004 00AF     		add	r7, sp, #0
  42              	.LCFI2:
  43              		.cfi_def_cfa_register 7
  44 0006 7860     		str	r0, [r7, #4]
 220:./Libraries/STM32F4xx_HAL_Driver/Src/stm32f4xx_hal_irda.c ****   /* Check the IRDA handle allocation */
 221:./Libraries/STM32F4xx_HAL_Driver/Src/stm32f4xx_hal_irda.c ****   if(hirda == NULL)
  45              		.loc 1 221 5
  46 0008 7B68     		ldr	r3, [r7, #4]
  47 000a 002B     		cmp	r3, #0
  48 000c 01D1     		bne	.L2
 222:./Libraries/STM32F4xx_HAL_Driver/Src/stm32f4xx_hal_irda.c ****   {
 223:./Libraries/STM32F4xx_HAL_Driver/Src/stm32f4xx_hal_irda.c ****     return HAL_ERROR;
  49              		.loc 1 223 12
  50 000e 0123     		movs	r3, #1
  51 0010 5EE0     		b	.L3
  52              	.L2:
 224:./Libraries/STM32F4xx_HAL_Driver/Src/stm32f4xx_hal_irda.c ****   }
 225:./Libraries/STM32F4xx_HAL_Driver/Src/stm32f4xx_hal_irda.c ****   
 226:./Libraries/STM32F4xx_HAL_Driver/Src/stm32f4xx_hal_irda.c ****   /* Check the IRDA instance parameters */
 227:./Libraries/STM32F4xx_HAL_Driver/Src/stm32f4xx_hal_irda.c ****   assert_param(IS_IRDA_INSTANCE(hirda->Instance));
 228:./Libraries/STM32F4xx_HAL_Driver/Src/stm32f4xx_hal_irda.c ****   /* Check the IRDA mode parameter in the IRDA handle */
 229:./Libraries/STM32F4xx_HAL_Driver/Src/stm32f4xx_hal_irda.c ****   assert_param(IS_IRDA_POWERMODE(hirda->Init.IrDAMode)); 
 230:./Libraries/STM32F4xx_HAL_Driver/Src/stm32f4xx_hal_irda.c ****   
 231:./Libraries/STM32F4xx_HAL_Driver/Src/stm32f4xx_hal_irda.c ****   if(hirda->gState == HAL_IRDA_STATE_RESET)
  53              		.loc 1 231 11
  54 0012 7B68     		ldr	r3, [r7, #4]
  55 0014 93F83530 		ldrb	r3, [r3, #53]
ARM GAS  /tmp/ccJhy18e.s 			page 6


  56 0018 DBB2     		uxtb	r3, r3
  57              		.loc 1 231 5
  58 001a 002B     		cmp	r3, #0
  59 001c 06D1     		bne	.L4
 232:./Libraries/STM32F4xx_HAL_Driver/Src/stm32f4xx_hal_irda.c ****   {
 233:./Libraries/STM32F4xx_HAL_Driver/Src/stm32f4xx_hal_irda.c ****     /* Allocate lock resource and initialize it */
 234:./Libraries/STM32F4xx_HAL_Driver/Src/stm32f4xx_hal_irda.c ****     hirda->Lock = HAL_UNLOCKED;
  60              		.loc 1 234 17
  61 001e 7B68     		ldr	r3, [r7, #4]
  62 0020 0022     		movs	r2, #0
  63 0022 83F83420 		strb	r2, [r3, #52]
 235:./Libraries/STM32F4xx_HAL_Driver/Src/stm32f4xx_hal_irda.c ****     /* Init the low level hardware : GPIO, CLOCK, CORTEX...etc */
 236:./Libraries/STM32F4xx_HAL_Driver/Src/stm32f4xx_hal_irda.c ****     HAL_IRDA_MspInit(hirda);
  64              		.loc 1 236 5
  65 0026 7868     		ldr	r0, [r7, #4]
  66 0028 FFF7FEFF 		bl	HAL_IRDA_MspInit
  67              	.L4:
 237:./Libraries/STM32F4xx_HAL_Driver/Src/stm32f4xx_hal_irda.c ****   }
 238:./Libraries/STM32F4xx_HAL_Driver/Src/stm32f4xx_hal_irda.c ****   
 239:./Libraries/STM32F4xx_HAL_Driver/Src/stm32f4xx_hal_irda.c ****   hirda->gState = HAL_IRDA_STATE_BUSY;
  68              		.loc 1 239 17
  69 002c 7B68     		ldr	r3, [r7, #4]
  70 002e 2422     		movs	r2, #36
  71 0030 83F83520 		strb	r2, [r3, #53]
 240:./Libraries/STM32F4xx_HAL_Driver/Src/stm32f4xx_hal_irda.c ****   
 241:./Libraries/STM32F4xx_HAL_Driver/Src/stm32f4xx_hal_irda.c ****   /* Disable the IRDA peripheral */
 242:./Libraries/STM32F4xx_HAL_Driver/Src/stm32f4xx_hal_irda.c ****   __HAL_IRDA_DISABLE(hirda);
  72              		.loc 1 242 3
  73 0034 7B68     		ldr	r3, [r7, #4]
  74 0036 1B68     		ldr	r3, [r3]
  75 0038 DA68     		ldr	r2, [r3, #12]
  76 003a 7B68     		ldr	r3, [r7, #4]
  77 003c 1B68     		ldr	r3, [r3]
  78 003e 22F40052 		bic	r2, r2, #8192
  79 0042 DA60     		str	r2, [r3, #12]
 243:./Libraries/STM32F4xx_HAL_Driver/Src/stm32f4xx_hal_irda.c ****   
 244:./Libraries/STM32F4xx_HAL_Driver/Src/stm32f4xx_hal_irda.c ****   /* Set the IRDA communication parameters */
 245:./Libraries/STM32F4xx_HAL_Driver/Src/stm32f4xx_hal_irda.c ****   IRDA_SetConfig(hirda);
  80              		.loc 1 245 3
  81 0044 7868     		ldr	r0, [r7, #4]
  82 0046 FFF7FEFF 		bl	IRDA_SetConfig
 246:./Libraries/STM32F4xx_HAL_Driver/Src/stm32f4xx_hal_irda.c ****   
 247:./Libraries/STM32F4xx_HAL_Driver/Src/stm32f4xx_hal_irda.c ****   /* In IrDA mode, the following bits must be kept cleared: 
 248:./Libraries/STM32F4xx_HAL_Driver/Src/stm32f4xx_hal_irda.c ****   - LINEN, STOP and CLKEN bits in the USART_CR2 register,
 249:./Libraries/STM32F4xx_HAL_Driver/Src/stm32f4xx_hal_irda.c ****   - SCEN and HDSEL bits in the USART_CR3 register.*/
 250:./Libraries/STM32F4xx_HAL_Driver/Src/stm32f4xx_hal_irda.c ****   CLEAR_BIT(hirda->Instance->CR2, USART_CR2_LINEN | USART_CR2_STOP | USART_CR2_CLKEN);
  83              		.loc 1 250 3
  84 004a 7B68     		ldr	r3, [r7, #4]
  85 004c 1B68     		ldr	r3, [r3]
  86 004e 1A69     		ldr	r2, [r3, #16]
  87 0050 7B68     		ldr	r3, [r7, #4]
  88 0052 1B68     		ldr	r3, [r3]
  89 0054 22F4F042 		bic	r2, r2, #30720
  90 0058 1A61     		str	r2, [r3, #16]
 251:./Libraries/STM32F4xx_HAL_Driver/Src/stm32f4xx_hal_irda.c ****   CLEAR_BIT(hirda->Instance->CR3, USART_CR3_SCEN | USART_CR3_HDSEL);
  91              		.loc 1 251 3
  92 005a 7B68     		ldr	r3, [r7, #4]
ARM GAS  /tmp/ccJhy18e.s 			page 7


  93 005c 1B68     		ldr	r3, [r3]
  94 005e 5A69     		ldr	r2, [r3, #20]
  95 0060 7B68     		ldr	r3, [r7, #4]
  96 0062 1B68     		ldr	r3, [r3]
  97 0064 22F02802 		bic	r2, r2, #40
  98 0068 5A61     		str	r2, [r3, #20]
 252:./Libraries/STM32F4xx_HAL_Driver/Src/stm32f4xx_hal_irda.c ****   
 253:./Libraries/STM32F4xx_HAL_Driver/Src/stm32f4xx_hal_irda.c ****   /* Enable the IRDA peripheral */
 254:./Libraries/STM32F4xx_HAL_Driver/Src/stm32f4xx_hal_irda.c ****   __HAL_IRDA_ENABLE(hirda);
  99              		.loc 1 254 3
 100 006a 7B68     		ldr	r3, [r7, #4]
 101 006c 1B68     		ldr	r3, [r3]
 102 006e DA68     		ldr	r2, [r3, #12]
 103 0070 7B68     		ldr	r3, [r7, #4]
 104 0072 1B68     		ldr	r3, [r3]
 105 0074 42F40052 		orr	r2, r2, #8192
 106 0078 DA60     		str	r2, [r3, #12]
 255:./Libraries/STM32F4xx_HAL_Driver/Src/stm32f4xx_hal_irda.c ****   
 256:./Libraries/STM32F4xx_HAL_Driver/Src/stm32f4xx_hal_irda.c ****   /* Set the prescaler */
 257:./Libraries/STM32F4xx_HAL_Driver/Src/stm32f4xx_hal_irda.c ****   MODIFY_REG(hirda->Instance->GTPR, USART_GTPR_PSC, hirda->Init.Prescaler);
 107              		.loc 1 257 3
 108 007a 7B68     		ldr	r3, [r7, #4]
 109 007c 1B68     		ldr	r3, [r3]
 110 007e 9B69     		ldr	r3, [r3, #24]
 111 0080 23F0FF02 		bic	r2, r3, #255
 112 0084 7B68     		ldr	r3, [r7, #4]
 113 0086 1B7D     		ldrb	r3, [r3, #20]	@ zero_extendqisi2
 114 0088 1946     		mov	r1, r3
 115 008a 7B68     		ldr	r3, [r7, #4]
 116 008c 1B68     		ldr	r3, [r3]
 117 008e 0A43     		orrs	r2, r2, r1
 118 0090 9A61     		str	r2, [r3, #24]
 258:./Libraries/STM32F4xx_HAL_Driver/Src/stm32f4xx_hal_irda.c ****   
 259:./Libraries/STM32F4xx_HAL_Driver/Src/stm32f4xx_hal_irda.c ****   /* Configure the IrDA mode */
 260:./Libraries/STM32F4xx_HAL_Driver/Src/stm32f4xx_hal_irda.c ****   MODIFY_REG(hirda->Instance->CR3, USART_CR3_IRLP, hirda->Init.IrDAMode);
 119              		.loc 1 260 3
 120 0092 7B68     		ldr	r3, [r7, #4]
 121 0094 1B68     		ldr	r3, [r3]
 122 0096 5B69     		ldr	r3, [r3, #20]
 123 0098 23F00401 		bic	r1, r3, #4
 124 009c 7B68     		ldr	r3, [r7, #4]
 125 009e 9A69     		ldr	r2, [r3, #24]
 126 00a0 7B68     		ldr	r3, [r7, #4]
 127 00a2 1B68     		ldr	r3, [r3]
 128 00a4 0A43     		orrs	r2, r2, r1
 129 00a6 5A61     		str	r2, [r3, #20]
 261:./Libraries/STM32F4xx_HAL_Driver/Src/stm32f4xx_hal_irda.c ****   
 262:./Libraries/STM32F4xx_HAL_Driver/Src/stm32f4xx_hal_irda.c ****   /* Enable the IrDA mode by setting the IREN bit in the CR3 register */
 263:./Libraries/STM32F4xx_HAL_Driver/Src/stm32f4xx_hal_irda.c ****   SET_BIT(hirda->Instance->CR3, USART_CR3_IREN);
 130              		.loc 1 263 3
 131 00a8 7B68     		ldr	r3, [r7, #4]
 132 00aa 1B68     		ldr	r3, [r3]
 133 00ac 5A69     		ldr	r2, [r3, #20]
 134 00ae 7B68     		ldr	r3, [r7, #4]
 135 00b0 1B68     		ldr	r3, [r3]
 136 00b2 42F00202 		orr	r2, r2, #2
 137 00b6 5A61     		str	r2, [r3, #20]
ARM GAS  /tmp/ccJhy18e.s 			page 8


 264:./Libraries/STM32F4xx_HAL_Driver/Src/stm32f4xx_hal_irda.c ****   
 265:./Libraries/STM32F4xx_HAL_Driver/Src/stm32f4xx_hal_irda.c ****   /* Initialize the IRDA state*/
 266:./Libraries/STM32F4xx_HAL_Driver/Src/stm32f4xx_hal_irda.c ****   hirda->ErrorCode = HAL_IRDA_ERROR_NONE;
 138              		.loc 1 266 20
 139 00b8 7B68     		ldr	r3, [r7, #4]
 140 00ba 0022     		movs	r2, #0
 141 00bc 9A63     		str	r2, [r3, #56]
 267:./Libraries/STM32F4xx_HAL_Driver/Src/stm32f4xx_hal_irda.c ****   hirda->gState= HAL_IRDA_STATE_READY;
 142              		.loc 1 267 16
 143 00be 7B68     		ldr	r3, [r7, #4]
 144 00c0 2022     		movs	r2, #32
 145 00c2 83F83520 		strb	r2, [r3, #53]
 268:./Libraries/STM32F4xx_HAL_Driver/Src/stm32f4xx_hal_irda.c ****   hirda->RxState= HAL_IRDA_STATE_READY;
 146              		.loc 1 268 17
 147 00c6 7B68     		ldr	r3, [r7, #4]
 148 00c8 2022     		movs	r2, #32
 149 00ca 83F83620 		strb	r2, [r3, #54]
 269:./Libraries/STM32F4xx_HAL_Driver/Src/stm32f4xx_hal_irda.c ****   
 270:./Libraries/STM32F4xx_HAL_Driver/Src/stm32f4xx_hal_irda.c ****   return HAL_OK;
 150              		.loc 1 270 10
 151 00ce 0023     		movs	r3, #0
 152              	.L3:
 271:./Libraries/STM32F4xx_HAL_Driver/Src/stm32f4xx_hal_irda.c **** }
 153              		.loc 1 271 1
 154 00d0 1846     		mov	r0, r3
 155 00d2 0837     		adds	r7, r7, #8
 156              	.LCFI3:
 157              		.cfi_def_cfa_offset 8
 158 00d4 BD46     		mov	sp, r7
 159              	.LCFI4:
 160              		.cfi_def_cfa_register 13
 161              		@ sp needed
 162 00d6 80BD     		pop	{r7, pc}
 163              		.cfi_endproc
 164              	.LFE126:
 166              		.section	.text.HAL_IRDA_DeInit,"ax",%progbits
 167              		.align	1
 168              		.global	HAL_IRDA_DeInit
 169              		.syntax unified
 170              		.thumb
 171              		.thumb_func
 172              		.fpu fpv4-sp-d16
 174              	HAL_IRDA_DeInit:
 175              	.LFB127:
 272:./Libraries/STM32F4xx_HAL_Driver/Src/stm32f4xx_hal_irda.c **** 
 273:./Libraries/STM32F4xx_HAL_Driver/Src/stm32f4xx_hal_irda.c **** /**
 274:./Libraries/STM32F4xx_HAL_Driver/Src/stm32f4xx_hal_irda.c ****   * @brief  DeInitializes the IRDA peripheral 
 275:./Libraries/STM32F4xx_HAL_Driver/Src/stm32f4xx_hal_irda.c ****   * @param  hirda pointer to a IRDA_HandleTypeDef structure that contains
 276:./Libraries/STM32F4xx_HAL_Driver/Src/stm32f4xx_hal_irda.c ****   *                the configuration information for the specified IRDA module.
 277:./Libraries/STM32F4xx_HAL_Driver/Src/stm32f4xx_hal_irda.c ****   * @retval HAL status
 278:./Libraries/STM32F4xx_HAL_Driver/Src/stm32f4xx_hal_irda.c ****   */
 279:./Libraries/STM32F4xx_HAL_Driver/Src/stm32f4xx_hal_irda.c **** HAL_StatusTypeDef HAL_IRDA_DeInit(IRDA_HandleTypeDef *hirda)
 280:./Libraries/STM32F4xx_HAL_Driver/Src/stm32f4xx_hal_irda.c **** {
 176              		.loc 1 280 1
 177              		.cfi_startproc
 178              		@ args = 0, pretend = 0, frame = 8
 179              		@ frame_needed = 1, uses_anonymous_args = 0
ARM GAS  /tmp/ccJhy18e.s 			page 9


 180 0000 80B5     		push	{r7, lr}
 181              	.LCFI5:
 182              		.cfi_def_cfa_offset 8
 183              		.cfi_offset 7, -8
 184              		.cfi_offset 14, -4
 185 0002 82B0     		sub	sp, sp, #8
 186              	.LCFI6:
 187              		.cfi_def_cfa_offset 16
 188 0004 00AF     		add	r7, sp, #0
 189              	.LCFI7:
 190              		.cfi_def_cfa_register 7
 191 0006 7860     		str	r0, [r7, #4]
 281:./Libraries/STM32F4xx_HAL_Driver/Src/stm32f4xx_hal_irda.c ****   /* Check the IRDA handle allocation */
 282:./Libraries/STM32F4xx_HAL_Driver/Src/stm32f4xx_hal_irda.c ****   if(hirda == NULL)
 192              		.loc 1 282 5
 193 0008 7B68     		ldr	r3, [r7, #4]
 194 000a 002B     		cmp	r3, #0
 195 000c 01D1     		bne	.L6
 283:./Libraries/STM32F4xx_HAL_Driver/Src/stm32f4xx_hal_irda.c ****   {
 284:./Libraries/STM32F4xx_HAL_Driver/Src/stm32f4xx_hal_irda.c ****     return HAL_ERROR;
 196              		.loc 1 284 12
 197 000e 0123     		movs	r3, #1
 198 0010 1EE0     		b	.L7
 199              	.L6:
 285:./Libraries/STM32F4xx_HAL_Driver/Src/stm32f4xx_hal_irda.c ****   }
 286:./Libraries/STM32F4xx_HAL_Driver/Src/stm32f4xx_hal_irda.c ****   
 287:./Libraries/STM32F4xx_HAL_Driver/Src/stm32f4xx_hal_irda.c ****   /* Check the parameters */
 288:./Libraries/STM32F4xx_HAL_Driver/Src/stm32f4xx_hal_irda.c ****   assert_param(IS_IRDA_INSTANCE(hirda->Instance)); 
 289:./Libraries/STM32F4xx_HAL_Driver/Src/stm32f4xx_hal_irda.c ****   
 290:./Libraries/STM32F4xx_HAL_Driver/Src/stm32f4xx_hal_irda.c ****   hirda->gState = HAL_IRDA_STATE_BUSY;
 200              		.loc 1 290 17
 201 0012 7B68     		ldr	r3, [r7, #4]
 202 0014 2422     		movs	r2, #36
 203 0016 83F83520 		strb	r2, [r3, #53]
 291:./Libraries/STM32F4xx_HAL_Driver/Src/stm32f4xx_hal_irda.c ****   
 292:./Libraries/STM32F4xx_HAL_Driver/Src/stm32f4xx_hal_irda.c ****   /* Disable the Peripheral */
 293:./Libraries/STM32F4xx_HAL_Driver/Src/stm32f4xx_hal_irda.c ****   __HAL_IRDA_DISABLE(hirda);
 204              		.loc 1 293 3
 205 001a 7B68     		ldr	r3, [r7, #4]
 206 001c 1B68     		ldr	r3, [r3]
 207 001e DA68     		ldr	r2, [r3, #12]
 208 0020 7B68     		ldr	r3, [r7, #4]
 209 0022 1B68     		ldr	r3, [r3]
 210 0024 22F40052 		bic	r2, r2, #8192
 211 0028 DA60     		str	r2, [r3, #12]
 294:./Libraries/STM32F4xx_HAL_Driver/Src/stm32f4xx_hal_irda.c ****   
 295:./Libraries/STM32F4xx_HAL_Driver/Src/stm32f4xx_hal_irda.c ****   /* DeInit the low level hardware */
 296:./Libraries/STM32F4xx_HAL_Driver/Src/stm32f4xx_hal_irda.c ****   HAL_IRDA_MspDeInit(hirda);
 212              		.loc 1 296 3
 213 002a 7868     		ldr	r0, [r7, #4]
 214 002c FFF7FEFF 		bl	HAL_IRDA_MspDeInit
 297:./Libraries/STM32F4xx_HAL_Driver/Src/stm32f4xx_hal_irda.c ****   
 298:./Libraries/STM32F4xx_HAL_Driver/Src/stm32f4xx_hal_irda.c ****   hirda->ErrorCode = HAL_IRDA_ERROR_NONE;
 215              		.loc 1 298 20
 216 0030 7B68     		ldr	r3, [r7, #4]
 217 0032 0022     		movs	r2, #0
 218 0034 9A63     		str	r2, [r3, #56]
ARM GAS  /tmp/ccJhy18e.s 			page 10


 299:./Libraries/STM32F4xx_HAL_Driver/Src/stm32f4xx_hal_irda.c ****   
 300:./Libraries/STM32F4xx_HAL_Driver/Src/stm32f4xx_hal_irda.c ****   hirda->gState = HAL_IRDA_STATE_RESET; 
 219              		.loc 1 300 17
 220 0036 7B68     		ldr	r3, [r7, #4]
 221 0038 0022     		movs	r2, #0
 222 003a 83F83520 		strb	r2, [r3, #53]
 301:./Libraries/STM32F4xx_HAL_Driver/Src/stm32f4xx_hal_irda.c ****   hirda->RxState = HAL_IRDA_STATE_RESET;
 223              		.loc 1 301 18
 224 003e 7B68     		ldr	r3, [r7, #4]
 225 0040 0022     		movs	r2, #0
 226 0042 83F83620 		strb	r2, [r3, #54]
 302:./Libraries/STM32F4xx_HAL_Driver/Src/stm32f4xx_hal_irda.c ****   
 303:./Libraries/STM32F4xx_HAL_Driver/Src/stm32f4xx_hal_irda.c ****   /* Release Lock */
 304:./Libraries/STM32F4xx_HAL_Driver/Src/stm32f4xx_hal_irda.c ****   __HAL_UNLOCK(hirda);
 227              		.loc 1 304 3
 228 0046 7B68     		ldr	r3, [r7, #4]
 229 0048 0022     		movs	r2, #0
 230 004a 83F83420 		strb	r2, [r3, #52]
 305:./Libraries/STM32F4xx_HAL_Driver/Src/stm32f4xx_hal_irda.c ****   
 306:./Libraries/STM32F4xx_HAL_Driver/Src/stm32f4xx_hal_irda.c ****   return HAL_OK;
 231              		.loc 1 306 10
 232 004e 0023     		movs	r3, #0
 233              	.L7:
 307:./Libraries/STM32F4xx_HAL_Driver/Src/stm32f4xx_hal_irda.c **** }
 234              		.loc 1 307 1
 235 0050 1846     		mov	r0, r3
 236 0052 0837     		adds	r7, r7, #8
 237              	.LCFI8:
 238              		.cfi_def_cfa_offset 8
 239 0054 BD46     		mov	sp, r7
 240              	.LCFI9:
 241              		.cfi_def_cfa_register 13
 242              		@ sp needed
 243 0056 80BD     		pop	{r7, pc}
 244              		.cfi_endproc
 245              	.LFE127:
 247              		.section	.text.HAL_IRDA_MspInit,"ax",%progbits
 248              		.align	1
 249              		.weak	HAL_IRDA_MspInit
 250              		.syntax unified
 251              		.thumb
 252              		.thumb_func
 253              		.fpu fpv4-sp-d16
 255              	HAL_IRDA_MspInit:
 256              	.LFB128:
 308:./Libraries/STM32F4xx_HAL_Driver/Src/stm32f4xx_hal_irda.c **** 
 309:./Libraries/STM32F4xx_HAL_Driver/Src/stm32f4xx_hal_irda.c **** /**
 310:./Libraries/STM32F4xx_HAL_Driver/Src/stm32f4xx_hal_irda.c ****   * @brief  IRDA MSP Init.
 311:./Libraries/STM32F4xx_HAL_Driver/Src/stm32f4xx_hal_irda.c ****   * @param  hirda pointer to a IRDA_HandleTypeDef structure that contains
 312:./Libraries/STM32F4xx_HAL_Driver/Src/stm32f4xx_hal_irda.c ****   *                the configuration information for the specified IRDA module.
 313:./Libraries/STM32F4xx_HAL_Driver/Src/stm32f4xx_hal_irda.c ****   * @retval None
 314:./Libraries/STM32F4xx_HAL_Driver/Src/stm32f4xx_hal_irda.c ****   */
 315:./Libraries/STM32F4xx_HAL_Driver/Src/stm32f4xx_hal_irda.c **** __weak void HAL_IRDA_MspInit(IRDA_HandleTypeDef *hirda)
 316:./Libraries/STM32F4xx_HAL_Driver/Src/stm32f4xx_hal_irda.c **** {
 257              		.loc 1 316 1
 258              		.cfi_startproc
 259              		@ args = 0, pretend = 0, frame = 8
ARM GAS  /tmp/ccJhy18e.s 			page 11


 260              		@ frame_needed = 1, uses_anonymous_args = 0
 261              		@ link register save eliminated.
 262 0000 80B4     		push	{r7}
 263              	.LCFI10:
 264              		.cfi_def_cfa_offset 4
 265              		.cfi_offset 7, -4
 266 0002 83B0     		sub	sp, sp, #12
 267              	.LCFI11:
 268              		.cfi_def_cfa_offset 16
 269 0004 00AF     		add	r7, sp, #0
 270              	.LCFI12:
 271              		.cfi_def_cfa_register 7
 272 0006 7860     		str	r0, [r7, #4]
 317:./Libraries/STM32F4xx_HAL_Driver/Src/stm32f4xx_hal_irda.c ****   /* Prevent unused argument(s) compilation warning */
 318:./Libraries/STM32F4xx_HAL_Driver/Src/stm32f4xx_hal_irda.c ****   UNUSED(hirda);
 319:./Libraries/STM32F4xx_HAL_Driver/Src/stm32f4xx_hal_irda.c ****   /* NOTE : This function Should not be modified, when the callback is needed,
 320:./Libraries/STM32F4xx_HAL_Driver/Src/stm32f4xx_hal_irda.c ****   the HAL_IRDA_MspInit could be implemented in the user file
 321:./Libraries/STM32F4xx_HAL_Driver/Src/stm32f4xx_hal_irda.c ****   */ 
 322:./Libraries/STM32F4xx_HAL_Driver/Src/stm32f4xx_hal_irda.c **** }
 273              		.loc 1 322 1
 274 0008 00BF     		nop
 275 000a 0C37     		adds	r7, r7, #12
 276              	.LCFI13:
 277              		.cfi_def_cfa_offset 4
 278 000c BD46     		mov	sp, r7
 279              	.LCFI14:
 280              		.cfi_def_cfa_register 13
 281              		@ sp needed
 282 000e 5DF8047B 		ldr	r7, [sp], #4
 283              	.LCFI15:
 284              		.cfi_restore 7
 285              		.cfi_def_cfa_offset 0
 286 0012 7047     		bx	lr
 287              		.cfi_endproc
 288              	.LFE128:
 290              		.section	.text.HAL_IRDA_MspDeInit,"ax",%progbits
 291              		.align	1
 292              		.weak	HAL_IRDA_MspDeInit
 293              		.syntax unified
 294              		.thumb
 295              		.thumb_func
 296              		.fpu fpv4-sp-d16
 298              	HAL_IRDA_MspDeInit:
 299              	.LFB129:
 323:./Libraries/STM32F4xx_HAL_Driver/Src/stm32f4xx_hal_irda.c **** 
 324:./Libraries/STM32F4xx_HAL_Driver/Src/stm32f4xx_hal_irda.c **** /**
 325:./Libraries/STM32F4xx_HAL_Driver/Src/stm32f4xx_hal_irda.c ****   * @brief  IRDA MSP DeInit.
 326:./Libraries/STM32F4xx_HAL_Driver/Src/stm32f4xx_hal_irda.c ****   * @param  hirda pointer to a IRDA_HandleTypeDef structure that contains
 327:./Libraries/STM32F4xx_HAL_Driver/Src/stm32f4xx_hal_irda.c ****   *                the configuration information for the specified IRDA module.
 328:./Libraries/STM32F4xx_HAL_Driver/Src/stm32f4xx_hal_irda.c ****   * @retval None
 329:./Libraries/STM32F4xx_HAL_Driver/Src/stm32f4xx_hal_irda.c ****   */
 330:./Libraries/STM32F4xx_HAL_Driver/Src/stm32f4xx_hal_irda.c **** __weak void HAL_IRDA_MspDeInit(IRDA_HandleTypeDef *hirda)
 331:./Libraries/STM32F4xx_HAL_Driver/Src/stm32f4xx_hal_irda.c **** {
 300              		.loc 1 331 1
 301              		.cfi_startproc
 302              		@ args = 0, pretend = 0, frame = 8
 303              		@ frame_needed = 1, uses_anonymous_args = 0
ARM GAS  /tmp/ccJhy18e.s 			page 12


 304              		@ link register save eliminated.
 305 0000 80B4     		push	{r7}
 306              	.LCFI16:
 307              		.cfi_def_cfa_offset 4
 308              		.cfi_offset 7, -4
 309 0002 83B0     		sub	sp, sp, #12
 310              	.LCFI17:
 311              		.cfi_def_cfa_offset 16
 312 0004 00AF     		add	r7, sp, #0
 313              	.LCFI18:
 314              		.cfi_def_cfa_register 7
 315 0006 7860     		str	r0, [r7, #4]
 332:./Libraries/STM32F4xx_HAL_Driver/Src/stm32f4xx_hal_irda.c ****   /* Prevent unused argument(s) compilation warning */
 333:./Libraries/STM32F4xx_HAL_Driver/Src/stm32f4xx_hal_irda.c ****   UNUSED(hirda);
 334:./Libraries/STM32F4xx_HAL_Driver/Src/stm32f4xx_hal_irda.c ****   /* NOTE : This function Should not be modified, when the callback is needed,
 335:./Libraries/STM32F4xx_HAL_Driver/Src/stm32f4xx_hal_irda.c ****   the HAL_IRDA_MspDeInit could be implemented in the user file
 336:./Libraries/STM32F4xx_HAL_Driver/Src/stm32f4xx_hal_irda.c ****   */ 
 337:./Libraries/STM32F4xx_HAL_Driver/Src/stm32f4xx_hal_irda.c **** }
 316              		.loc 1 337 1
 317 0008 00BF     		nop
 318 000a 0C37     		adds	r7, r7, #12
 319              	.LCFI19:
 320              		.cfi_def_cfa_offset 4
 321 000c BD46     		mov	sp, r7
 322              	.LCFI20:
 323              		.cfi_def_cfa_register 13
 324              		@ sp needed
 325 000e 5DF8047B 		ldr	r7, [sp], #4
 326              	.LCFI21:
 327              		.cfi_restore 7
 328              		.cfi_def_cfa_offset 0
 329 0012 7047     		bx	lr
 330              		.cfi_endproc
 331              	.LFE129:
 333              		.section	.text.HAL_IRDA_Transmit,"ax",%progbits
 334              		.align	1
 335              		.global	HAL_IRDA_Transmit
 336              		.syntax unified
 337              		.thumb
 338              		.thumb_func
 339              		.fpu fpv4-sp-d16
 341              	HAL_IRDA_Transmit:
 342              	.LFB130:
 338:./Libraries/STM32F4xx_HAL_Driver/Src/stm32f4xx_hal_irda.c **** 
 339:./Libraries/STM32F4xx_HAL_Driver/Src/stm32f4xx_hal_irda.c **** /**
 340:./Libraries/STM32F4xx_HAL_Driver/Src/stm32f4xx_hal_irda.c ****   * @}
 341:./Libraries/STM32F4xx_HAL_Driver/Src/stm32f4xx_hal_irda.c ****   */
 342:./Libraries/STM32F4xx_HAL_Driver/Src/stm32f4xx_hal_irda.c **** 
 343:./Libraries/STM32F4xx_HAL_Driver/Src/stm32f4xx_hal_irda.c **** /** @defgroup IRDA_Exported_Functions_Group2 IO operation functions 
 344:./Libraries/STM32F4xx_HAL_Driver/Src/stm32f4xx_hal_irda.c ****   *  @brief   IRDA Transmit/Receive functions 
 345:./Libraries/STM32F4xx_HAL_Driver/Src/stm32f4xx_hal_irda.c ****   *
 346:./Libraries/STM32F4xx_HAL_Driver/Src/stm32f4xx_hal_irda.c **** @verbatim   
 347:./Libraries/STM32F4xx_HAL_Driver/Src/stm32f4xx_hal_irda.c ****  ===============================================================================
 348:./Libraries/STM32F4xx_HAL_Driver/Src/stm32f4xx_hal_irda.c ****                       ##### IO operation functions #####
 349:./Libraries/STM32F4xx_HAL_Driver/Src/stm32f4xx_hal_irda.c ****  ===============================================================================  
 350:./Libraries/STM32F4xx_HAL_Driver/Src/stm32f4xx_hal_irda.c ****     This subsection provides a set of functions allowing to manage the IRDA data transfers.
 351:./Libraries/STM32F4xx_HAL_Driver/Src/stm32f4xx_hal_irda.c ****     [..]
ARM GAS  /tmp/ccJhy18e.s 			page 13


 352:./Libraries/STM32F4xx_HAL_Driver/Src/stm32f4xx_hal_irda.c ****     IrDA is a half duplex communication protocol. If the Transmitter is busy, any data
 353:./Libraries/STM32F4xx_HAL_Driver/Src/stm32f4xx_hal_irda.c ****     on the IrDA receive line will be ignored by the IrDA decoder and if the Receiver 
 354:./Libraries/STM32F4xx_HAL_Driver/Src/stm32f4xx_hal_irda.c ****     is busy, data on the TX from the USART to IrDA will not be encoded by IrDA.
 355:./Libraries/STM32F4xx_HAL_Driver/Src/stm32f4xx_hal_irda.c ****     While receiving data, transmission should be avoided as the data to be transmitted
 356:./Libraries/STM32F4xx_HAL_Driver/Src/stm32f4xx_hal_irda.c ****     could be corrupted.
 357:./Libraries/STM32F4xx_HAL_Driver/Src/stm32f4xx_hal_irda.c **** 
 358:./Libraries/STM32F4xx_HAL_Driver/Src/stm32f4xx_hal_irda.c ****     (#) There are two modes of transfer:
 359:./Libraries/STM32F4xx_HAL_Driver/Src/stm32f4xx_hal_irda.c ****        (++) Blocking mode: The communication is performed in polling mode. 
 360:./Libraries/STM32F4xx_HAL_Driver/Src/stm32f4xx_hal_irda.c ****             The HAL status of all data processing is returned by the same function 
 361:./Libraries/STM32F4xx_HAL_Driver/Src/stm32f4xx_hal_irda.c ****             after finishing transfer.  
 362:./Libraries/STM32F4xx_HAL_Driver/Src/stm32f4xx_hal_irda.c ****        (++) No-Blocking mode: The communication is performed using Interrupts 
 363:./Libraries/STM32F4xx_HAL_Driver/Src/stm32f4xx_hal_irda.c ****            or DMA, These APIs return the HAL status.
 364:./Libraries/STM32F4xx_HAL_Driver/Src/stm32f4xx_hal_irda.c ****            The end of the data processing will be indicated through the 
 365:./Libraries/STM32F4xx_HAL_Driver/Src/stm32f4xx_hal_irda.c ****            dedicated IRDA IRQ when using Interrupt mode or the DMA IRQ when 
 366:./Libraries/STM32F4xx_HAL_Driver/Src/stm32f4xx_hal_irda.c ****            using DMA mode.
 367:./Libraries/STM32F4xx_HAL_Driver/Src/stm32f4xx_hal_irda.c ****            The HAL_IRDA_TxCpltCallback(), HAL_IRDA_RxCpltCallback() user callbacks 
 368:./Libraries/STM32F4xx_HAL_Driver/Src/stm32f4xx_hal_irda.c ****            will be executed respectively at the end of the transmit or Receive process
 369:./Libraries/STM32F4xx_HAL_Driver/Src/stm32f4xx_hal_irda.c ****            The HAL_IRDA_ErrorCallback() user callback will be executed when a communication error i
 370:./Libraries/STM32F4xx_HAL_Driver/Src/stm32f4xx_hal_irda.c **** 
 371:./Libraries/STM32F4xx_HAL_Driver/Src/stm32f4xx_hal_irda.c ****     (#) Blocking mode API's are :
 372:./Libraries/STM32F4xx_HAL_Driver/Src/stm32f4xx_hal_irda.c ****         (++) HAL_IRDA_Transmit()
 373:./Libraries/STM32F4xx_HAL_Driver/Src/stm32f4xx_hal_irda.c ****         (++) HAL_IRDA_Receive() 
 374:./Libraries/STM32F4xx_HAL_Driver/Src/stm32f4xx_hal_irda.c ****         
 375:./Libraries/STM32F4xx_HAL_Driver/Src/stm32f4xx_hal_irda.c ****     (#) Non Blocking mode APIs with Interrupt are :
 376:./Libraries/STM32F4xx_HAL_Driver/Src/stm32f4xx_hal_irda.c ****         (++) HAL_IRDA_Transmit_IT()
 377:./Libraries/STM32F4xx_HAL_Driver/Src/stm32f4xx_hal_irda.c ****         (++) HAL_IRDA_Receive_IT()
 378:./Libraries/STM32F4xx_HAL_Driver/Src/stm32f4xx_hal_irda.c ****         (++) HAL_IRDA_IRQHandler()
 379:./Libraries/STM32F4xx_HAL_Driver/Src/stm32f4xx_hal_irda.c **** 
 380:./Libraries/STM32F4xx_HAL_Driver/Src/stm32f4xx_hal_irda.c ****     (#) Non Blocking mode functions with DMA are :
 381:./Libraries/STM32F4xx_HAL_Driver/Src/stm32f4xx_hal_irda.c ****         (++) HAL_IRDA_Transmit_DMA()
 382:./Libraries/STM32F4xx_HAL_Driver/Src/stm32f4xx_hal_irda.c ****         (++) HAL_IRDA_Receive_DMA()
 383:./Libraries/STM32F4xx_HAL_Driver/Src/stm32f4xx_hal_irda.c **** 
 384:./Libraries/STM32F4xx_HAL_Driver/Src/stm32f4xx_hal_irda.c ****     (#) A set of Transfer Complete Callbacks are provided in non Blocking mode:
 385:./Libraries/STM32F4xx_HAL_Driver/Src/stm32f4xx_hal_irda.c ****         (++) HAL_IRDA_TxCpltCallback()
 386:./Libraries/STM32F4xx_HAL_Driver/Src/stm32f4xx_hal_irda.c ****         (++) HAL_IRDA_RxCpltCallback()
 387:./Libraries/STM32F4xx_HAL_Driver/Src/stm32f4xx_hal_irda.c ****         (++) HAL_IRDA_ErrorCallback()
 388:./Libraries/STM32F4xx_HAL_Driver/Src/stm32f4xx_hal_irda.c **** 
 389:./Libraries/STM32F4xx_HAL_Driver/Src/stm32f4xx_hal_irda.c **** @endverbatim
 390:./Libraries/STM32F4xx_HAL_Driver/Src/stm32f4xx_hal_irda.c ****   * @{
 391:./Libraries/STM32F4xx_HAL_Driver/Src/stm32f4xx_hal_irda.c ****   */
 392:./Libraries/STM32F4xx_HAL_Driver/Src/stm32f4xx_hal_irda.c **** 
 393:./Libraries/STM32F4xx_HAL_Driver/Src/stm32f4xx_hal_irda.c **** /**
 394:./Libraries/STM32F4xx_HAL_Driver/Src/stm32f4xx_hal_irda.c ****   * @brief  Sends an amount of data in blocking mode.
 395:./Libraries/STM32F4xx_HAL_Driver/Src/stm32f4xx_hal_irda.c ****   * @param  hirda pointer to a IRDA_HandleTypeDef structure that contains
 396:./Libraries/STM32F4xx_HAL_Driver/Src/stm32f4xx_hal_irda.c ****   *                the configuration information for the specified IRDA module.
 397:./Libraries/STM32F4xx_HAL_Driver/Src/stm32f4xx_hal_irda.c ****   * @param  pData Pointer to data buffer
 398:./Libraries/STM32F4xx_HAL_Driver/Src/stm32f4xx_hal_irda.c ****   * @param  Size Amount of data to be sent
 399:./Libraries/STM32F4xx_HAL_Driver/Src/stm32f4xx_hal_irda.c ****   * @param  Timeout Specify timeout value  
 400:./Libraries/STM32F4xx_HAL_Driver/Src/stm32f4xx_hal_irda.c ****   * @retval HAL status
 401:./Libraries/STM32F4xx_HAL_Driver/Src/stm32f4xx_hal_irda.c ****   */
 402:./Libraries/STM32F4xx_HAL_Driver/Src/stm32f4xx_hal_irda.c **** HAL_StatusTypeDef HAL_IRDA_Transmit(IRDA_HandleTypeDef *hirda, uint8_t *pData, uint16_t Size, uint3
 403:./Libraries/STM32F4xx_HAL_Driver/Src/stm32f4xx_hal_irda.c **** {
 343              		.loc 1 403 1
 344              		.cfi_startproc
 345              		@ args = 0, pretend = 0, frame = 24
 346              		@ frame_needed = 1, uses_anonymous_args = 0
 347 0000 80B5     		push	{r7, lr}
ARM GAS  /tmp/ccJhy18e.s 			page 14


 348              	.LCFI22:
 349              		.cfi_def_cfa_offset 8
 350              		.cfi_offset 7, -8
 351              		.cfi_offset 14, -4
 352 0002 88B0     		sub	sp, sp, #32
 353              	.LCFI23:
 354              		.cfi_def_cfa_offset 40
 355 0004 02AF     		add	r7, sp, #8
 356              	.LCFI24:
 357              		.cfi_def_cfa 7, 32
 358 0006 F860     		str	r0, [r7, #12]
 359 0008 B960     		str	r1, [r7, #8]
 360 000a 3B60     		str	r3, [r7]
 361 000c 1346     		mov	r3, r2	@ movhi
 362 000e FB80     		strh	r3, [r7, #6]	@ movhi
 404:./Libraries/STM32F4xx_HAL_Driver/Src/stm32f4xx_hal_irda.c ****   uint16_t* tmp;
 405:./Libraries/STM32F4xx_HAL_Driver/Src/stm32f4xx_hal_irda.c ****   uint32_t tickstart = 0U;
 363              		.loc 1 405 12
 364 0010 0023     		movs	r3, #0
 365 0012 7B61     		str	r3, [r7, #20]
 406:./Libraries/STM32F4xx_HAL_Driver/Src/stm32f4xx_hal_irda.c ****   
 407:./Libraries/STM32F4xx_HAL_Driver/Src/stm32f4xx_hal_irda.c ****   /* Check that a Tx process is not already ongoing */
 408:./Libraries/STM32F4xx_HAL_Driver/Src/stm32f4xx_hal_irda.c ****   if(hirda->gState == HAL_IRDA_STATE_READY) 
 366              		.loc 1 408 11
 367 0014 FB68     		ldr	r3, [r7, #12]
 368 0016 93F83530 		ldrb	r3, [r3, #53]
 369 001a DBB2     		uxtb	r3, r3
 370              		.loc 1 408 5
 371 001c 202B     		cmp	r3, #32
 372 001e 40F08380 		bne	.L11
 409:./Libraries/STM32F4xx_HAL_Driver/Src/stm32f4xx_hal_irda.c ****   {
 410:./Libraries/STM32F4xx_HAL_Driver/Src/stm32f4xx_hal_irda.c ****     if((pData == NULL) || (Size == 0)) 
 373              		.loc 1 410 7
 374 0022 BB68     		ldr	r3, [r7, #8]
 375 0024 002B     		cmp	r3, #0
 376 0026 02D0     		beq	.L12
 377              		.loc 1 410 24 discriminator 1
 378 0028 FB88     		ldrh	r3, [r7, #6]
 379 002a 002B     		cmp	r3, #0
 380 002c 01D1     		bne	.L13
 381              	.L12:
 411:./Libraries/STM32F4xx_HAL_Driver/Src/stm32f4xx_hal_irda.c ****     {
 412:./Libraries/STM32F4xx_HAL_Driver/Src/stm32f4xx_hal_irda.c ****       return  HAL_ERROR;
 382              		.loc 1 412 15
 383 002e 0123     		movs	r3, #1
 384 0030 7BE0     		b	.L14
 385              	.L13:
 413:./Libraries/STM32F4xx_HAL_Driver/Src/stm32f4xx_hal_irda.c ****     }
 414:./Libraries/STM32F4xx_HAL_Driver/Src/stm32f4xx_hal_irda.c ****     
 415:./Libraries/STM32F4xx_HAL_Driver/Src/stm32f4xx_hal_irda.c ****     /* Process Locked */
 416:./Libraries/STM32F4xx_HAL_Driver/Src/stm32f4xx_hal_irda.c ****     __HAL_LOCK(hirda);
 386              		.loc 1 416 5
 387 0032 FB68     		ldr	r3, [r7, #12]
 388 0034 93F83430 		ldrb	r3, [r3, #52]	@ zero_extendqisi2
 389 0038 012B     		cmp	r3, #1
 390 003a 01D1     		bne	.L15
 391              		.loc 1 416 5 is_stmt 0 discriminator 1
ARM GAS  /tmp/ccJhy18e.s 			page 15


 392 003c 0223     		movs	r3, #2
 393 003e 74E0     		b	.L14
 394              	.L15:
 395              		.loc 1 416 5 discriminator 2
 396 0040 FB68     		ldr	r3, [r7, #12]
 397 0042 0122     		movs	r2, #1
 398 0044 83F83420 		strb	r2, [r3, #52]
 417:./Libraries/STM32F4xx_HAL_Driver/Src/stm32f4xx_hal_irda.c ****     
 418:./Libraries/STM32F4xx_HAL_Driver/Src/stm32f4xx_hal_irda.c ****     hirda->ErrorCode = HAL_IRDA_ERROR_NONE; 
 399              		.loc 1 418 22 is_stmt 1 discriminator 2
 400 0048 FB68     		ldr	r3, [r7, #12]
 401 004a 0022     		movs	r2, #0
 402 004c 9A63     		str	r2, [r3, #56]
 419:./Libraries/STM32F4xx_HAL_Driver/Src/stm32f4xx_hal_irda.c ****     hirda->gState = HAL_IRDA_STATE_BUSY_TX;
 403              		.loc 1 419 19 discriminator 2
 404 004e FB68     		ldr	r3, [r7, #12]
 405 0050 2122     		movs	r2, #33
 406 0052 83F83520 		strb	r2, [r3, #53]
 420:./Libraries/STM32F4xx_HAL_Driver/Src/stm32f4xx_hal_irda.c ****     
 421:./Libraries/STM32F4xx_HAL_Driver/Src/stm32f4xx_hal_irda.c ****     /* Init tickstart for timeout managment*/
 422:./Libraries/STM32F4xx_HAL_Driver/Src/stm32f4xx_hal_irda.c ****     tickstart = HAL_GetTick();
 407              		.loc 1 422 17 discriminator 2
 408 0056 FFF7FEFF 		bl	HAL_GetTick
 409 005a 7861     		str	r0, [r7, #20]
 423:./Libraries/STM32F4xx_HAL_Driver/Src/stm32f4xx_hal_irda.c ****     
 424:./Libraries/STM32F4xx_HAL_Driver/Src/stm32f4xx_hal_irda.c ****     hirda->TxXferSize = Size;
 410              		.loc 1 424 23 discriminator 2
 411 005c FB68     		ldr	r3, [r7, #12]
 412 005e FA88     		ldrh	r2, [r7, #6]	@ movhi
 413 0060 1A84     		strh	r2, [r3, #32]	@ movhi
 425:./Libraries/STM32F4xx_HAL_Driver/Src/stm32f4xx_hal_irda.c ****     hirda->TxXferCount = Size;
 414              		.loc 1 425 24 discriminator 2
 415 0062 FB68     		ldr	r3, [r7, #12]
 416 0064 FA88     		ldrh	r2, [r7, #6]	@ movhi
 417 0066 5A84     		strh	r2, [r3, #34]	@ movhi
 426:./Libraries/STM32F4xx_HAL_Driver/Src/stm32f4xx_hal_irda.c ****     while(hirda->TxXferCount > 0U)
 418              		.loc 1 426 10 discriminator 2
 419 0068 42E0     		b	.L16
 420              	.L21:
 427:./Libraries/STM32F4xx_HAL_Driver/Src/stm32f4xx_hal_irda.c ****     {
 428:./Libraries/STM32F4xx_HAL_Driver/Src/stm32f4xx_hal_irda.c ****       hirda->TxXferCount--;
 421              		.loc 1 428 12
 422 006a FB68     		ldr	r3, [r7, #12]
 423 006c 5B8C     		ldrh	r3, [r3, #34]	@ movhi
 424 006e 9BB2     		uxth	r3, r3
 425              		.loc 1 428 25
 426 0070 013B     		subs	r3, r3, #1
 427 0072 9AB2     		uxth	r2, r3
 428 0074 FB68     		ldr	r3, [r7, #12]
 429 0076 5A84     		strh	r2, [r3, #34]	@ movhi
 429:./Libraries/STM32F4xx_HAL_Driver/Src/stm32f4xx_hal_irda.c ****       if(hirda->Init.WordLength == IRDA_WORDLENGTH_9B)
 430              		.loc 1 429 21
 431 0078 FB68     		ldr	r3, [r7, #12]
 432 007a 9B68     		ldr	r3, [r3, #8]
 433              		.loc 1 429 9
 434 007c B3F5805F 		cmp	r3, #4096
 435 0080 22D1     		bne	.L17
ARM GAS  /tmp/ccJhy18e.s 			page 16


 430:./Libraries/STM32F4xx_HAL_Driver/Src/stm32f4xx_hal_irda.c ****       {
 431:./Libraries/STM32F4xx_HAL_Driver/Src/stm32f4xx_hal_irda.c ****         if(IRDA_WaitOnFlagUntilTimeout(hirda, IRDA_FLAG_TXE, RESET, tickstart, Timeout) != HAL_OK)
 436              		.loc 1 431 12
 437 0082 3B68     		ldr	r3, [r7]
 438 0084 0093     		str	r3, [sp]
 439 0086 7B69     		ldr	r3, [r7, #20]
 440 0088 0022     		movs	r2, #0
 441 008a 8021     		movs	r1, #128
 442 008c F868     		ldr	r0, [r7, #12]
 443 008e FFF7FEFF 		bl	IRDA_WaitOnFlagUntilTimeout
 444 0092 0346     		mov	r3, r0
 445              		.loc 1 431 11
 446 0094 002B     		cmp	r3, #0
 447 0096 01D0     		beq	.L18
 432:./Libraries/STM32F4xx_HAL_Driver/Src/stm32f4xx_hal_irda.c ****         { 
 433:./Libraries/STM32F4xx_HAL_Driver/Src/stm32f4xx_hal_irda.c ****           return HAL_TIMEOUT;
 448              		.loc 1 433 18
 449 0098 0323     		movs	r3, #3
 450 009a 46E0     		b	.L14
 451              	.L18:
 434:./Libraries/STM32F4xx_HAL_Driver/Src/stm32f4xx_hal_irda.c ****         }
 435:./Libraries/STM32F4xx_HAL_Driver/Src/stm32f4xx_hal_irda.c ****         tmp = (uint16_t*) pData;
 452              		.loc 1 435 13
 453 009c BB68     		ldr	r3, [r7, #8]
 454 009e 3B61     		str	r3, [r7, #16]
 436:./Libraries/STM32F4xx_HAL_Driver/Src/stm32f4xx_hal_irda.c ****         hirda->Instance->DR = (*tmp & (uint16_t)0x01FF);
 455              		.loc 1 436 32
 456 00a0 3B69     		ldr	r3, [r7, #16]
 457 00a2 1B88     		ldrh	r3, [r3]
 458              		.loc 1 436 37
 459 00a4 1A46     		mov	r2, r3
 460              		.loc 1 436 14
 461 00a6 FB68     		ldr	r3, [r7, #12]
 462 00a8 1B68     		ldr	r3, [r3]
 463              		.loc 1 436 37
 464 00aa C2F30802 		ubfx	r2, r2, #0, #9
 465              		.loc 1 436 29
 466 00ae 5A60     		str	r2, [r3, #4]
 437:./Libraries/STM32F4xx_HAL_Driver/Src/stm32f4xx_hal_irda.c ****         if(hirda->Init.Parity == IRDA_PARITY_NONE)
 467              		.loc 1 437 23
 468 00b0 FB68     		ldr	r3, [r7, #12]
 469 00b2 DB68     		ldr	r3, [r3, #12]
 470              		.loc 1 437 11
 471 00b4 002B     		cmp	r3, #0
 472 00b6 03D1     		bne	.L19
 438:./Libraries/STM32F4xx_HAL_Driver/Src/stm32f4xx_hal_irda.c ****         {
 439:./Libraries/STM32F4xx_HAL_Driver/Src/stm32f4xx_hal_irda.c ****           pData +=2;
 473              		.loc 1 439 17
 474 00b8 BB68     		ldr	r3, [r7, #8]
 475 00ba 0233     		adds	r3, r3, #2
 476 00bc BB60     		str	r3, [r7, #8]
 477 00be 17E0     		b	.L16
 478              	.L19:
 440:./Libraries/STM32F4xx_HAL_Driver/Src/stm32f4xx_hal_irda.c ****         }
 441:./Libraries/STM32F4xx_HAL_Driver/Src/stm32f4xx_hal_irda.c ****         else
 442:./Libraries/STM32F4xx_HAL_Driver/Src/stm32f4xx_hal_irda.c ****         {
 443:./Libraries/STM32F4xx_HAL_Driver/Src/stm32f4xx_hal_irda.c ****           pData +=1;
ARM GAS  /tmp/ccJhy18e.s 			page 17


 479              		.loc 1 443 17
 480 00c0 BB68     		ldr	r3, [r7, #8]
 481 00c2 0133     		adds	r3, r3, #1
 482 00c4 BB60     		str	r3, [r7, #8]
 483 00c6 13E0     		b	.L16
 484              	.L17:
 444:./Libraries/STM32F4xx_HAL_Driver/Src/stm32f4xx_hal_irda.c ****         }
 445:./Libraries/STM32F4xx_HAL_Driver/Src/stm32f4xx_hal_irda.c ****       } 
 446:./Libraries/STM32F4xx_HAL_Driver/Src/stm32f4xx_hal_irda.c ****       else
 447:./Libraries/STM32F4xx_HAL_Driver/Src/stm32f4xx_hal_irda.c ****       {
 448:./Libraries/STM32F4xx_HAL_Driver/Src/stm32f4xx_hal_irda.c ****         if(IRDA_WaitOnFlagUntilTimeout(hirda, IRDA_FLAG_TXE, RESET, tickstart, Timeout) != HAL_OK)
 485              		.loc 1 448 12
 486 00c8 3B68     		ldr	r3, [r7]
 487 00ca 0093     		str	r3, [sp]
 488 00cc 7B69     		ldr	r3, [r7, #20]
 489 00ce 0022     		movs	r2, #0
 490 00d0 8021     		movs	r1, #128
 491 00d2 F868     		ldr	r0, [r7, #12]
 492 00d4 FFF7FEFF 		bl	IRDA_WaitOnFlagUntilTimeout
 493 00d8 0346     		mov	r3, r0
 494              		.loc 1 448 11
 495 00da 002B     		cmp	r3, #0
 496 00dc 01D0     		beq	.L20
 449:./Libraries/STM32F4xx_HAL_Driver/Src/stm32f4xx_hal_irda.c ****         {
 450:./Libraries/STM32F4xx_HAL_Driver/Src/stm32f4xx_hal_irda.c ****           return HAL_TIMEOUT;
 497              		.loc 1 450 18
 498 00de 0323     		movs	r3, #3
 499 00e0 23E0     		b	.L14
 500              	.L20:
 451:./Libraries/STM32F4xx_HAL_Driver/Src/stm32f4xx_hal_irda.c ****         }
 452:./Libraries/STM32F4xx_HAL_Driver/Src/stm32f4xx_hal_irda.c ****         hirda->Instance->DR = (*pData++ & (uint8_t)0xFF);
 501              		.loc 1 452 38
 502 00e2 BB68     		ldr	r3, [r7, #8]
 503 00e4 5A1C     		adds	r2, r3, #1
 504 00e6 BA60     		str	r2, [r7, #8]
 505              		.loc 1 452 32
 506 00e8 1A78     		ldrb	r2, [r3]	@ zero_extendqisi2
 507              		.loc 1 452 14
 508 00ea FB68     		ldr	r3, [r7, #12]
 509 00ec 1B68     		ldr	r3, [r3]
 510              		.loc 1 452 29
 511 00ee 5A60     		str	r2, [r3, #4]
 512              	.L16:
 426:./Libraries/STM32F4xx_HAL_Driver/Src/stm32f4xx_hal_irda.c ****     {
 513              		.loc 1 426 16
 514 00f0 FB68     		ldr	r3, [r7, #12]
 515 00f2 5B8C     		ldrh	r3, [r3, #34]	@ movhi
 516 00f4 9BB2     		uxth	r3, r3
 426:./Libraries/STM32F4xx_HAL_Driver/Src/stm32f4xx_hal_irda.c ****     {
 517              		.loc 1 426 10
 518 00f6 002B     		cmp	r3, #0
 519 00f8 B7D1     		bne	.L21
 453:./Libraries/STM32F4xx_HAL_Driver/Src/stm32f4xx_hal_irda.c ****       }
 454:./Libraries/STM32F4xx_HAL_Driver/Src/stm32f4xx_hal_irda.c ****     }
 455:./Libraries/STM32F4xx_HAL_Driver/Src/stm32f4xx_hal_irda.c ****     
 456:./Libraries/STM32F4xx_HAL_Driver/Src/stm32f4xx_hal_irda.c ****     if(IRDA_WaitOnFlagUntilTimeout(hirda, IRDA_FLAG_TC, RESET, tickstart, Timeout) != HAL_OK)
 520              		.loc 1 456 8
ARM GAS  /tmp/ccJhy18e.s 			page 18


 521 00fa 3B68     		ldr	r3, [r7]
 522 00fc 0093     		str	r3, [sp]
 523 00fe 7B69     		ldr	r3, [r7, #20]
 524 0100 0022     		movs	r2, #0
 525 0102 4021     		movs	r1, #64
 526 0104 F868     		ldr	r0, [r7, #12]
 527 0106 FFF7FEFF 		bl	IRDA_WaitOnFlagUntilTimeout
 528 010a 0346     		mov	r3, r0
 529              		.loc 1 456 7
 530 010c 002B     		cmp	r3, #0
 531 010e 01D0     		beq	.L22
 457:./Libraries/STM32F4xx_HAL_Driver/Src/stm32f4xx_hal_irda.c ****     { 
 458:./Libraries/STM32F4xx_HAL_Driver/Src/stm32f4xx_hal_irda.c ****       return HAL_TIMEOUT;
 532              		.loc 1 458 14
 533 0110 0323     		movs	r3, #3
 534 0112 0AE0     		b	.L14
 535              	.L22:
 459:./Libraries/STM32F4xx_HAL_Driver/Src/stm32f4xx_hal_irda.c ****     }
 460:./Libraries/STM32F4xx_HAL_Driver/Src/stm32f4xx_hal_irda.c ****     
 461:./Libraries/STM32F4xx_HAL_Driver/Src/stm32f4xx_hal_irda.c ****     /* At end of Tx process, restore hirda->gState to Ready */
 462:./Libraries/STM32F4xx_HAL_Driver/Src/stm32f4xx_hal_irda.c ****     hirda->gState = HAL_IRDA_STATE_READY;
 536              		.loc 1 462 19
 537 0114 FB68     		ldr	r3, [r7, #12]
 538 0116 2022     		movs	r2, #32
 539 0118 83F83520 		strb	r2, [r3, #53]
 463:./Libraries/STM32F4xx_HAL_Driver/Src/stm32f4xx_hal_irda.c ****     
 464:./Libraries/STM32F4xx_HAL_Driver/Src/stm32f4xx_hal_irda.c ****     /* Process Unlocked */
 465:./Libraries/STM32F4xx_HAL_Driver/Src/stm32f4xx_hal_irda.c ****     __HAL_UNLOCK(hirda);
 540              		.loc 1 465 5
 541 011c FB68     		ldr	r3, [r7, #12]
 542 011e 0022     		movs	r2, #0
 543 0120 83F83420 		strb	r2, [r3, #52]
 466:./Libraries/STM32F4xx_HAL_Driver/Src/stm32f4xx_hal_irda.c ****     
 467:./Libraries/STM32F4xx_HAL_Driver/Src/stm32f4xx_hal_irda.c ****     return HAL_OK;
 544              		.loc 1 467 12
 545 0124 0023     		movs	r3, #0
 546 0126 00E0     		b	.L14
 547              	.L11:
 468:./Libraries/STM32F4xx_HAL_Driver/Src/stm32f4xx_hal_irda.c ****   }
 469:./Libraries/STM32F4xx_HAL_Driver/Src/stm32f4xx_hal_irda.c ****   else
 470:./Libraries/STM32F4xx_HAL_Driver/Src/stm32f4xx_hal_irda.c ****   {
 471:./Libraries/STM32F4xx_HAL_Driver/Src/stm32f4xx_hal_irda.c ****     return HAL_BUSY;
 548              		.loc 1 471 12
 549 0128 0223     		movs	r3, #2
 550              	.L14:
 472:./Libraries/STM32F4xx_HAL_Driver/Src/stm32f4xx_hal_irda.c ****   }
 473:./Libraries/STM32F4xx_HAL_Driver/Src/stm32f4xx_hal_irda.c **** }
 551              		.loc 1 473 1
 552 012a 1846     		mov	r0, r3
 553 012c 1837     		adds	r7, r7, #24
 554              	.LCFI25:
 555              		.cfi_def_cfa_offset 8
 556 012e BD46     		mov	sp, r7
 557              	.LCFI26:
 558              		.cfi_def_cfa_register 13
 559              		@ sp needed
 560 0130 80BD     		pop	{r7, pc}
ARM GAS  /tmp/ccJhy18e.s 			page 19


 561              		.cfi_endproc
 562              	.LFE130:
 564              		.section	.text.HAL_IRDA_Receive,"ax",%progbits
 565              		.align	1
 566              		.global	HAL_IRDA_Receive
 567              		.syntax unified
 568              		.thumb
 569              		.thumb_func
 570              		.fpu fpv4-sp-d16
 572              	HAL_IRDA_Receive:
 573              	.LFB131:
 474:./Libraries/STM32F4xx_HAL_Driver/Src/stm32f4xx_hal_irda.c **** 
 475:./Libraries/STM32F4xx_HAL_Driver/Src/stm32f4xx_hal_irda.c **** /**
 476:./Libraries/STM32F4xx_HAL_Driver/Src/stm32f4xx_hal_irda.c ****   * @brief  Receive an amount of data in blocking mode. 
 477:./Libraries/STM32F4xx_HAL_Driver/Src/stm32f4xx_hal_irda.c ****   * @param  hirda pointer to a IRDA_HandleTypeDef structure that contains
 478:./Libraries/STM32F4xx_HAL_Driver/Src/stm32f4xx_hal_irda.c ****   *                the configuration information for the specified IRDA module.
 479:./Libraries/STM32F4xx_HAL_Driver/Src/stm32f4xx_hal_irda.c ****   * @param  pData Pointer to data buffer
 480:./Libraries/STM32F4xx_HAL_Driver/Src/stm32f4xx_hal_irda.c ****   * @param  Size Amount of data to be received
 481:./Libraries/STM32F4xx_HAL_Driver/Src/stm32f4xx_hal_irda.c ****   * @param  Timeout Specify timeout value    
 482:./Libraries/STM32F4xx_HAL_Driver/Src/stm32f4xx_hal_irda.c ****   * @retval HAL status
 483:./Libraries/STM32F4xx_HAL_Driver/Src/stm32f4xx_hal_irda.c ****   */
 484:./Libraries/STM32F4xx_HAL_Driver/Src/stm32f4xx_hal_irda.c **** HAL_StatusTypeDef HAL_IRDA_Receive(IRDA_HandleTypeDef *hirda, uint8_t *pData, uint16_t Size, uint32
 485:./Libraries/STM32F4xx_HAL_Driver/Src/stm32f4xx_hal_irda.c **** { 
 574              		.loc 1 485 1
 575              		.cfi_startproc
 576              		@ args = 0, pretend = 0, frame = 24
 577              		@ frame_needed = 1, uses_anonymous_args = 0
 578 0000 80B5     		push	{r7, lr}
 579              	.LCFI27:
 580              		.cfi_def_cfa_offset 8
 581              		.cfi_offset 7, -8
 582              		.cfi_offset 14, -4
 583 0002 88B0     		sub	sp, sp, #32
 584              	.LCFI28:
 585              		.cfi_def_cfa_offset 40
 586 0004 02AF     		add	r7, sp, #8
 587              	.LCFI29:
 588              		.cfi_def_cfa 7, 32
 589 0006 F860     		str	r0, [r7, #12]
 590 0008 B960     		str	r1, [r7, #8]
 591 000a 3B60     		str	r3, [r7]
 592 000c 1346     		mov	r3, r2	@ movhi
 593 000e FB80     		strh	r3, [r7, #6]	@ movhi
 486:./Libraries/STM32F4xx_HAL_Driver/Src/stm32f4xx_hal_irda.c ****   uint16_t* tmp;
 487:./Libraries/STM32F4xx_HAL_Driver/Src/stm32f4xx_hal_irda.c ****   uint32_t tickstart = 0U;
 594              		.loc 1 487 12
 595 0010 0023     		movs	r3, #0
 596 0012 7B61     		str	r3, [r7, #20]
 488:./Libraries/STM32F4xx_HAL_Driver/Src/stm32f4xx_hal_irda.c ****   
 489:./Libraries/STM32F4xx_HAL_Driver/Src/stm32f4xx_hal_irda.c ****   /* Check that a Rx process is not already ongoing */
 490:./Libraries/STM32F4xx_HAL_Driver/Src/stm32f4xx_hal_irda.c ****   if(hirda->RxState == HAL_IRDA_STATE_READY) 
 597              		.loc 1 490 11
 598 0014 FB68     		ldr	r3, [r7, #12]
 599 0016 93F83630 		ldrb	r3, [r3, #54]
 600 001a DBB2     		uxtb	r3, r3
 601              		.loc 1 490 5
 602 001c 202B     		cmp	r3, #32
ARM GAS  /tmp/ccJhy18e.s 			page 20


 603 001e 40F09080 		bne	.L24
 491:./Libraries/STM32F4xx_HAL_Driver/Src/stm32f4xx_hal_irda.c ****   {
 492:./Libraries/STM32F4xx_HAL_Driver/Src/stm32f4xx_hal_irda.c ****     if((pData == NULL) || (Size == 0)) 
 604              		.loc 1 492 7
 605 0022 BB68     		ldr	r3, [r7, #8]
 606 0024 002B     		cmp	r3, #0
 607 0026 02D0     		beq	.L25
 608              		.loc 1 492 24 discriminator 1
 609 0028 FB88     		ldrh	r3, [r7, #6]
 610 002a 002B     		cmp	r3, #0
 611 002c 01D1     		bne	.L26
 612              	.L25:
 493:./Libraries/STM32F4xx_HAL_Driver/Src/stm32f4xx_hal_irda.c ****     {
 494:./Libraries/STM32F4xx_HAL_Driver/Src/stm32f4xx_hal_irda.c ****       return  HAL_ERROR;
 613              		.loc 1 494 15
 614 002e 0123     		movs	r3, #1
 615 0030 88E0     		b	.L27
 616              	.L26:
 495:./Libraries/STM32F4xx_HAL_Driver/Src/stm32f4xx_hal_irda.c ****     }
 496:./Libraries/STM32F4xx_HAL_Driver/Src/stm32f4xx_hal_irda.c ****     
 497:./Libraries/STM32F4xx_HAL_Driver/Src/stm32f4xx_hal_irda.c ****     /* Process Locked */
 498:./Libraries/STM32F4xx_HAL_Driver/Src/stm32f4xx_hal_irda.c ****     __HAL_LOCK(hirda);
 617              		.loc 1 498 5
 618 0032 FB68     		ldr	r3, [r7, #12]
 619 0034 93F83430 		ldrb	r3, [r3, #52]	@ zero_extendqisi2
 620 0038 012B     		cmp	r3, #1
 621 003a 01D1     		bne	.L28
 622              		.loc 1 498 5 is_stmt 0 discriminator 1
 623 003c 0223     		movs	r3, #2
 624 003e 81E0     		b	.L27
 625              	.L28:
 626              		.loc 1 498 5 discriminator 2
 627 0040 FB68     		ldr	r3, [r7, #12]
 628 0042 0122     		movs	r2, #1
 629 0044 83F83420 		strb	r2, [r3, #52]
 499:./Libraries/STM32F4xx_HAL_Driver/Src/stm32f4xx_hal_irda.c ****     
 500:./Libraries/STM32F4xx_HAL_Driver/Src/stm32f4xx_hal_irda.c ****     hirda->ErrorCode = HAL_IRDA_ERROR_NONE;
 630              		.loc 1 500 22 is_stmt 1 discriminator 2
 631 0048 FB68     		ldr	r3, [r7, #12]
 632 004a 0022     		movs	r2, #0
 633 004c 9A63     		str	r2, [r3, #56]
 501:./Libraries/STM32F4xx_HAL_Driver/Src/stm32f4xx_hal_irda.c ****     hirda->RxState = HAL_IRDA_STATE_BUSY_RX;
 634              		.loc 1 501 20 discriminator 2
 635 004e FB68     		ldr	r3, [r7, #12]
 636 0050 2222     		movs	r2, #34
 637 0052 83F83620 		strb	r2, [r3, #54]
 502:./Libraries/STM32F4xx_HAL_Driver/Src/stm32f4xx_hal_irda.c ****     
 503:./Libraries/STM32F4xx_HAL_Driver/Src/stm32f4xx_hal_irda.c ****     /* Init tickstart for timeout managment*/
 504:./Libraries/STM32F4xx_HAL_Driver/Src/stm32f4xx_hal_irda.c ****     tickstart = HAL_GetTick();
 638              		.loc 1 504 17 discriminator 2
 639 0056 FFF7FEFF 		bl	HAL_GetTick
 640 005a 7861     		str	r0, [r7, #20]
 505:./Libraries/STM32F4xx_HAL_Driver/Src/stm32f4xx_hal_irda.c ****     
 506:./Libraries/STM32F4xx_HAL_Driver/Src/stm32f4xx_hal_irda.c ****     hirda->RxXferSize = Size;
 641              		.loc 1 506 23 discriminator 2
 642 005c FB68     		ldr	r3, [r7, #12]
 643 005e FA88     		ldrh	r2, [r7, #6]	@ movhi
ARM GAS  /tmp/ccJhy18e.s 			page 21


 644 0060 1A85     		strh	r2, [r3, #40]	@ movhi
 507:./Libraries/STM32F4xx_HAL_Driver/Src/stm32f4xx_hal_irda.c ****     hirda->RxXferCount = Size;
 645              		.loc 1 507 24 discriminator 2
 646 0062 FB68     		ldr	r3, [r7, #12]
 647 0064 FA88     		ldrh	r2, [r7, #6]	@ movhi
 648 0066 5A85     		strh	r2, [r3, #42]	@ movhi
 508:./Libraries/STM32F4xx_HAL_Driver/Src/stm32f4xx_hal_irda.c ****     /* Check the remain data to be received */
 509:./Libraries/STM32F4xx_HAL_Driver/Src/stm32f4xx_hal_irda.c ****     while(hirda->RxXferCount > 0U)
 649              		.loc 1 509 10 discriminator 2
 650 0068 5CE0     		b	.L29
 651              	.L35:
 510:./Libraries/STM32F4xx_HAL_Driver/Src/stm32f4xx_hal_irda.c ****     {
 511:./Libraries/STM32F4xx_HAL_Driver/Src/stm32f4xx_hal_irda.c ****       hirda->RxXferCount--;
 652              		.loc 1 511 12
 653 006a FB68     		ldr	r3, [r7, #12]
 654 006c 5B8D     		ldrh	r3, [r3, #42]	@ movhi
 655 006e 9BB2     		uxth	r3, r3
 656              		.loc 1 511 25
 657 0070 013B     		subs	r3, r3, #1
 658 0072 9AB2     		uxth	r2, r3
 659 0074 FB68     		ldr	r3, [r7, #12]
 660 0076 5A85     		strh	r2, [r3, #42]	@ movhi
 512:./Libraries/STM32F4xx_HAL_Driver/Src/stm32f4xx_hal_irda.c ****       if(hirda->Init.WordLength == IRDA_WORDLENGTH_9B)
 661              		.loc 1 512 21
 662 0078 FB68     		ldr	r3, [r7, #12]
 663 007a 9B68     		ldr	r3, [r3, #8]
 664              		.loc 1 512 9
 665 007c B3F5805F 		cmp	r3, #4096
 666 0080 2BD1     		bne	.L30
 513:./Libraries/STM32F4xx_HAL_Driver/Src/stm32f4xx_hal_irda.c ****       {
 514:./Libraries/STM32F4xx_HAL_Driver/Src/stm32f4xx_hal_irda.c ****         if(IRDA_WaitOnFlagUntilTimeout(hirda, IRDA_FLAG_RXNE, RESET, tickstart, Timeout) != HAL_OK)
 667              		.loc 1 514 12
 668 0082 3B68     		ldr	r3, [r7]
 669 0084 0093     		str	r3, [sp]
 670 0086 7B69     		ldr	r3, [r7, #20]
 671 0088 0022     		movs	r2, #0
 672 008a 2021     		movs	r1, #32
 673 008c F868     		ldr	r0, [r7, #12]
 674 008e FFF7FEFF 		bl	IRDA_WaitOnFlagUntilTimeout
 675 0092 0346     		mov	r3, r0
 676              		.loc 1 514 11
 677 0094 002B     		cmp	r3, #0
 678 0096 01D0     		beq	.L31
 515:./Libraries/STM32F4xx_HAL_Driver/Src/stm32f4xx_hal_irda.c ****         { 
 516:./Libraries/STM32F4xx_HAL_Driver/Src/stm32f4xx_hal_irda.c ****           return HAL_TIMEOUT;
 679              		.loc 1 516 18
 680 0098 0323     		movs	r3, #3
 681 009a 53E0     		b	.L27
 682              	.L31:
 517:./Libraries/STM32F4xx_HAL_Driver/Src/stm32f4xx_hal_irda.c ****         }
 518:./Libraries/STM32F4xx_HAL_Driver/Src/stm32f4xx_hal_irda.c ****         tmp = (uint16_t*) pData ;
 683              		.loc 1 518 13
 684 009c BB68     		ldr	r3, [r7, #8]
 685 009e 3B61     		str	r3, [r7, #16]
 519:./Libraries/STM32F4xx_HAL_Driver/Src/stm32f4xx_hal_irda.c ****         if(hirda->Init.Parity == IRDA_PARITY_NONE)
 686              		.loc 1 519 23
 687 00a0 FB68     		ldr	r3, [r7, #12]
ARM GAS  /tmp/ccJhy18e.s 			page 22


 688 00a2 DB68     		ldr	r3, [r3, #12]
 689              		.loc 1 519 11
 690 00a4 002B     		cmp	r3, #0
 691 00a6 0CD1     		bne	.L32
 520:./Libraries/STM32F4xx_HAL_Driver/Src/stm32f4xx_hal_irda.c ****         {
 521:./Libraries/STM32F4xx_HAL_Driver/Src/stm32f4xx_hal_irda.c ****           *tmp = (uint16_t)(hirda->Instance->DR & (uint16_t)0x01FF);
 692              		.loc 1 521 34
 693 00a8 FB68     		ldr	r3, [r7, #12]
 694 00aa 1B68     		ldr	r3, [r3]
 695              		.loc 1 521 44
 696 00ac 5B68     		ldr	r3, [r3, #4]
 697              		.loc 1 521 18
 698 00ae 9BB2     		uxth	r3, r3
 699 00b0 C3F30803 		ubfx	r3, r3, #0, #9
 700 00b4 9AB2     		uxth	r2, r3
 701              		.loc 1 521 16
 702 00b6 3B69     		ldr	r3, [r7, #16]
 703 00b8 1A80     		strh	r2, [r3]	@ movhi
 522:./Libraries/STM32F4xx_HAL_Driver/Src/stm32f4xx_hal_irda.c ****           pData +=2;
 704              		.loc 1 522 17
 705 00ba BB68     		ldr	r3, [r7, #8]
 706 00bc 0233     		adds	r3, r3, #2
 707 00be BB60     		str	r3, [r7, #8]
 708 00c0 30E0     		b	.L29
 709              	.L32:
 523:./Libraries/STM32F4xx_HAL_Driver/Src/stm32f4xx_hal_irda.c ****         }
 524:./Libraries/STM32F4xx_HAL_Driver/Src/stm32f4xx_hal_irda.c ****         else
 525:./Libraries/STM32F4xx_HAL_Driver/Src/stm32f4xx_hal_irda.c ****         {
 526:./Libraries/STM32F4xx_HAL_Driver/Src/stm32f4xx_hal_irda.c ****           *tmp = (uint16_t)(hirda->Instance->DR & (uint16_t)0x00FF);
 710              		.loc 1 526 34
 711 00c2 FB68     		ldr	r3, [r7, #12]
 712 00c4 1B68     		ldr	r3, [r3]
 713              		.loc 1 526 44
 714 00c6 5B68     		ldr	r3, [r3, #4]
 715              		.loc 1 526 18
 716 00c8 9BB2     		uxth	r3, r3
 717 00ca DBB2     		uxtb	r3, r3
 718 00cc 9AB2     		uxth	r2, r3
 719              		.loc 1 526 16
 720 00ce 3B69     		ldr	r3, [r7, #16]
 721 00d0 1A80     		strh	r2, [r3]	@ movhi
 527:./Libraries/STM32F4xx_HAL_Driver/Src/stm32f4xx_hal_irda.c ****           pData +=1;
 722              		.loc 1 527 17
 723 00d2 BB68     		ldr	r3, [r7, #8]
 724 00d4 0133     		adds	r3, r3, #1
 725 00d6 BB60     		str	r3, [r7, #8]
 726 00d8 24E0     		b	.L29
 727              	.L30:
 528:./Libraries/STM32F4xx_HAL_Driver/Src/stm32f4xx_hal_irda.c ****         }
 529:./Libraries/STM32F4xx_HAL_Driver/Src/stm32f4xx_hal_irda.c ****       } 
 530:./Libraries/STM32F4xx_HAL_Driver/Src/stm32f4xx_hal_irda.c ****       else
 531:./Libraries/STM32F4xx_HAL_Driver/Src/stm32f4xx_hal_irda.c ****       {
 532:./Libraries/STM32F4xx_HAL_Driver/Src/stm32f4xx_hal_irda.c ****         if(IRDA_WaitOnFlagUntilTimeout(hirda, IRDA_FLAG_RXNE, RESET, tickstart, Timeout) != HAL_OK)
 728              		.loc 1 532 12
 729 00da 3B68     		ldr	r3, [r7]
 730 00dc 0093     		str	r3, [sp]
 731 00de 7B69     		ldr	r3, [r7, #20]
ARM GAS  /tmp/ccJhy18e.s 			page 23


 732 00e0 0022     		movs	r2, #0
 733 00e2 2021     		movs	r1, #32
 734 00e4 F868     		ldr	r0, [r7, #12]
 735 00e6 FFF7FEFF 		bl	IRDA_WaitOnFlagUntilTimeout
 736 00ea 0346     		mov	r3, r0
 737              		.loc 1 532 11
 738 00ec 002B     		cmp	r3, #0
 739 00ee 01D0     		beq	.L33
 533:./Libraries/STM32F4xx_HAL_Driver/Src/stm32f4xx_hal_irda.c ****         { 
 534:./Libraries/STM32F4xx_HAL_Driver/Src/stm32f4xx_hal_irda.c ****           return HAL_TIMEOUT;
 740              		.loc 1 534 18
 741 00f0 0323     		movs	r3, #3
 742 00f2 27E0     		b	.L27
 743              	.L33:
 535:./Libraries/STM32F4xx_HAL_Driver/Src/stm32f4xx_hal_irda.c ****         }
 536:./Libraries/STM32F4xx_HAL_Driver/Src/stm32f4xx_hal_irda.c ****         if(hirda->Init.Parity == IRDA_PARITY_NONE)
 744              		.loc 1 536 23
 745 00f4 FB68     		ldr	r3, [r7, #12]
 746 00f6 DB68     		ldr	r3, [r3, #12]
 747              		.loc 1 536 11
 748 00f8 002B     		cmp	r3, #0
 749 00fa 08D1     		bne	.L34
 537:./Libraries/STM32F4xx_HAL_Driver/Src/stm32f4xx_hal_irda.c ****         {
 538:./Libraries/STM32F4xx_HAL_Driver/Src/stm32f4xx_hal_irda.c ****           *pData++ = (uint8_t)(hirda->Instance->DR & (uint8_t)0x00FF);
 750              		.loc 1 538 37
 751 00fc FB68     		ldr	r3, [r7, #12]
 752 00fe 1B68     		ldr	r3, [r3]
 753              		.loc 1 538 47
 754 0100 5968     		ldr	r1, [r3, #4]
 755              		.loc 1 538 17
 756 0102 BB68     		ldr	r3, [r7, #8]
 757 0104 5A1C     		adds	r2, r3, #1
 758 0106 BA60     		str	r2, [r7, #8]
 759              		.loc 1 538 22
 760 0108 CAB2     		uxtb	r2, r1
 761              		.loc 1 538 20
 762 010a 1A70     		strb	r2, [r3]
 763 010c 0AE0     		b	.L29
 764              	.L34:
 539:./Libraries/STM32F4xx_HAL_Driver/Src/stm32f4xx_hal_irda.c ****         }
 540:./Libraries/STM32F4xx_HAL_Driver/Src/stm32f4xx_hal_irda.c ****         else
 541:./Libraries/STM32F4xx_HAL_Driver/Src/stm32f4xx_hal_irda.c ****         {
 542:./Libraries/STM32F4xx_HAL_Driver/Src/stm32f4xx_hal_irda.c ****           *pData++ = (uint8_t)(hirda->Instance->DR & (uint8_t)0x007F);
 765              		.loc 1 542 37
 766 010e FB68     		ldr	r3, [r7, #12]
 767 0110 1B68     		ldr	r3, [r3]
 768              		.loc 1 542 47
 769 0112 5B68     		ldr	r3, [r3, #4]
 770              		.loc 1 542 22
 771 0114 DAB2     		uxtb	r2, r3
 772              		.loc 1 542 17
 773 0116 BB68     		ldr	r3, [r7, #8]
 774 0118 591C     		adds	r1, r3, #1
 775 011a B960     		str	r1, [r7, #8]
 776              		.loc 1 542 22
 777 011c 02F07F02 		and	r2, r2, #127
 778 0120 D2B2     		uxtb	r2, r2
ARM GAS  /tmp/ccJhy18e.s 			page 24


 779              		.loc 1 542 20
 780 0122 1A70     		strb	r2, [r3]
 781              	.L29:
 509:./Libraries/STM32F4xx_HAL_Driver/Src/stm32f4xx_hal_irda.c ****     {
 782              		.loc 1 509 16
 783 0124 FB68     		ldr	r3, [r7, #12]
 784 0126 5B8D     		ldrh	r3, [r3, #42]	@ movhi
 785 0128 9BB2     		uxth	r3, r3
 509:./Libraries/STM32F4xx_HAL_Driver/Src/stm32f4xx_hal_irda.c ****     {
 786              		.loc 1 509 10
 787 012a 002B     		cmp	r3, #0
 788 012c 9DD1     		bne	.L35
 543:./Libraries/STM32F4xx_HAL_Driver/Src/stm32f4xx_hal_irda.c ****         }
 544:./Libraries/STM32F4xx_HAL_Driver/Src/stm32f4xx_hal_irda.c ****       }
 545:./Libraries/STM32F4xx_HAL_Driver/Src/stm32f4xx_hal_irda.c ****     }
 546:./Libraries/STM32F4xx_HAL_Driver/Src/stm32f4xx_hal_irda.c ****     
 547:./Libraries/STM32F4xx_HAL_Driver/Src/stm32f4xx_hal_irda.c ****     /* At end of Rx process, restore hirda->RxState to Ready */
 548:./Libraries/STM32F4xx_HAL_Driver/Src/stm32f4xx_hal_irda.c ****     hirda->RxState = HAL_IRDA_STATE_READY;
 789              		.loc 1 548 20
 790 012e FB68     		ldr	r3, [r7, #12]
 791 0130 2022     		movs	r2, #32
 792 0132 83F83620 		strb	r2, [r3, #54]
 549:./Libraries/STM32F4xx_HAL_Driver/Src/stm32f4xx_hal_irda.c ****     
 550:./Libraries/STM32F4xx_HAL_Driver/Src/stm32f4xx_hal_irda.c ****     /* Process Unlocked */
 551:./Libraries/STM32F4xx_HAL_Driver/Src/stm32f4xx_hal_irda.c ****     __HAL_UNLOCK(hirda);
 793              		.loc 1 551 5
 794 0136 FB68     		ldr	r3, [r7, #12]
 795 0138 0022     		movs	r2, #0
 796 013a 83F83420 		strb	r2, [r3, #52]
 552:./Libraries/STM32F4xx_HAL_Driver/Src/stm32f4xx_hal_irda.c ****     
 553:./Libraries/STM32F4xx_HAL_Driver/Src/stm32f4xx_hal_irda.c ****     return HAL_OK;
 797              		.loc 1 553 12
 798 013e 0023     		movs	r3, #0
 799 0140 00E0     		b	.L27
 800              	.L24:
 554:./Libraries/STM32F4xx_HAL_Driver/Src/stm32f4xx_hal_irda.c ****   }
 555:./Libraries/STM32F4xx_HAL_Driver/Src/stm32f4xx_hal_irda.c ****   else
 556:./Libraries/STM32F4xx_HAL_Driver/Src/stm32f4xx_hal_irda.c ****   {
 557:./Libraries/STM32F4xx_HAL_Driver/Src/stm32f4xx_hal_irda.c ****     return HAL_BUSY;
 801              		.loc 1 557 12
 802 0142 0223     		movs	r3, #2
 803              	.L27:
 558:./Libraries/STM32F4xx_HAL_Driver/Src/stm32f4xx_hal_irda.c ****   }
 559:./Libraries/STM32F4xx_HAL_Driver/Src/stm32f4xx_hal_irda.c **** }
 804              		.loc 1 559 1
 805 0144 1846     		mov	r0, r3
 806 0146 1837     		adds	r7, r7, #24
 807              	.LCFI30:
 808              		.cfi_def_cfa_offset 8
 809 0148 BD46     		mov	sp, r7
 810              	.LCFI31:
 811              		.cfi_def_cfa_register 13
 812              		@ sp needed
 813 014a 80BD     		pop	{r7, pc}
 814              		.cfi_endproc
 815              	.LFE131:
 817              		.section	.text.HAL_IRDA_Transmit_IT,"ax",%progbits
ARM GAS  /tmp/ccJhy18e.s 			page 25


 818              		.align	1
 819              		.global	HAL_IRDA_Transmit_IT
 820              		.syntax unified
 821              		.thumb
 822              		.thumb_func
 823              		.fpu fpv4-sp-d16
 825              	HAL_IRDA_Transmit_IT:
 826              	.LFB132:
 560:./Libraries/STM32F4xx_HAL_Driver/Src/stm32f4xx_hal_irda.c **** 
 561:./Libraries/STM32F4xx_HAL_Driver/Src/stm32f4xx_hal_irda.c **** /**
 562:./Libraries/STM32F4xx_HAL_Driver/Src/stm32f4xx_hal_irda.c ****   * @brief  Send an amount of data in non blocking mode. 
 563:./Libraries/STM32F4xx_HAL_Driver/Src/stm32f4xx_hal_irda.c ****   * @param  hirda pointer to a IRDA_HandleTypeDef structure that contains
 564:./Libraries/STM32F4xx_HAL_Driver/Src/stm32f4xx_hal_irda.c ****   *                the configuration information for the specified IRDA module.
 565:./Libraries/STM32F4xx_HAL_Driver/Src/stm32f4xx_hal_irda.c ****   * @param  pData Pointer to data buffer
 566:./Libraries/STM32F4xx_HAL_Driver/Src/stm32f4xx_hal_irda.c ****   * @param  Size Amount of data to be sent
 567:./Libraries/STM32F4xx_HAL_Driver/Src/stm32f4xx_hal_irda.c ****   * @retval HAL status
 568:./Libraries/STM32F4xx_HAL_Driver/Src/stm32f4xx_hal_irda.c ****   */
 569:./Libraries/STM32F4xx_HAL_Driver/Src/stm32f4xx_hal_irda.c **** HAL_StatusTypeDef HAL_IRDA_Transmit_IT(IRDA_HandleTypeDef *hirda, uint8_t *pData, uint16_t Size)
 570:./Libraries/STM32F4xx_HAL_Driver/Src/stm32f4xx_hal_irda.c **** {
 827              		.loc 1 570 1
 828              		.cfi_startproc
 829              		@ args = 0, pretend = 0, frame = 16
 830              		@ frame_needed = 1, uses_anonymous_args = 0
 831              		@ link register save eliminated.
 832 0000 80B4     		push	{r7}
 833              	.LCFI32:
 834              		.cfi_def_cfa_offset 4
 835              		.cfi_offset 7, -4
 836 0002 85B0     		sub	sp, sp, #20
 837              	.LCFI33:
 838              		.cfi_def_cfa_offset 24
 839 0004 00AF     		add	r7, sp, #0
 840              	.LCFI34:
 841              		.cfi_def_cfa_register 7
 842 0006 F860     		str	r0, [r7, #12]
 843 0008 B960     		str	r1, [r7, #8]
 844 000a 1346     		mov	r3, r2
 845 000c FB80     		strh	r3, [r7, #6]	@ movhi
 571:./Libraries/STM32F4xx_HAL_Driver/Src/stm32f4xx_hal_irda.c ****   /* Check that a Tx process is not already ongoing */
 572:./Libraries/STM32F4xx_HAL_Driver/Src/stm32f4xx_hal_irda.c ****   if(hirda->gState == HAL_IRDA_STATE_READY) 
 846              		.loc 1 572 11
 847 000e FB68     		ldr	r3, [r7, #12]
 848 0010 93F83530 		ldrb	r3, [r3, #53]
 849 0014 DBB2     		uxtb	r3, r3
 850              		.loc 1 572 5
 851 0016 202B     		cmp	r3, #32
 852 0018 30D1     		bne	.L37
 573:./Libraries/STM32F4xx_HAL_Driver/Src/stm32f4xx_hal_irda.c ****   {
 574:./Libraries/STM32F4xx_HAL_Driver/Src/stm32f4xx_hal_irda.c ****     if((pData == NULL) || (Size == 0)) 
 853              		.loc 1 574 7
 854 001a BB68     		ldr	r3, [r7, #8]
 855 001c 002B     		cmp	r3, #0
 856 001e 02D0     		beq	.L38
 857              		.loc 1 574 24 discriminator 1
 858 0020 FB88     		ldrh	r3, [r7, #6]
 859 0022 002B     		cmp	r3, #0
 860 0024 01D1     		bne	.L39
ARM GAS  /tmp/ccJhy18e.s 			page 26


 861              	.L38:
 575:./Libraries/STM32F4xx_HAL_Driver/Src/stm32f4xx_hal_irda.c ****     {
 576:./Libraries/STM32F4xx_HAL_Driver/Src/stm32f4xx_hal_irda.c ****       return HAL_ERROR;
 862              		.loc 1 576 14
 863 0026 0123     		movs	r3, #1
 864 0028 29E0     		b	.L40
 865              	.L39:
 577:./Libraries/STM32F4xx_HAL_Driver/Src/stm32f4xx_hal_irda.c ****     }
 578:./Libraries/STM32F4xx_HAL_Driver/Src/stm32f4xx_hal_irda.c ****     /* Process Locked */
 579:./Libraries/STM32F4xx_HAL_Driver/Src/stm32f4xx_hal_irda.c ****     __HAL_LOCK(hirda);
 866              		.loc 1 579 5
 867 002a FB68     		ldr	r3, [r7, #12]
 868 002c 93F83430 		ldrb	r3, [r3, #52]	@ zero_extendqisi2
 869 0030 012B     		cmp	r3, #1
 870 0032 01D1     		bne	.L41
 871              		.loc 1 579 5 is_stmt 0 discriminator 1
 872 0034 0223     		movs	r3, #2
 873 0036 22E0     		b	.L40
 874              	.L41:
 875              		.loc 1 579 5 discriminator 2
 876 0038 FB68     		ldr	r3, [r7, #12]
 877 003a 0122     		movs	r2, #1
 878 003c 83F83420 		strb	r2, [r3, #52]
 580:./Libraries/STM32F4xx_HAL_Driver/Src/stm32f4xx_hal_irda.c **** 
 581:./Libraries/STM32F4xx_HAL_Driver/Src/stm32f4xx_hal_irda.c ****     hirda->pTxBuffPtr = pData;
 879              		.loc 1 581 23 is_stmt 1 discriminator 2
 880 0040 FB68     		ldr	r3, [r7, #12]
 881 0042 BA68     		ldr	r2, [r7, #8]
 882 0044 DA61     		str	r2, [r3, #28]
 582:./Libraries/STM32F4xx_HAL_Driver/Src/stm32f4xx_hal_irda.c ****     hirda->TxXferSize = Size;
 883              		.loc 1 582 23 discriminator 2
 884 0046 FB68     		ldr	r3, [r7, #12]
 885 0048 FA88     		ldrh	r2, [r7, #6]	@ movhi
 886 004a 1A84     		strh	r2, [r3, #32]	@ movhi
 583:./Libraries/STM32F4xx_HAL_Driver/Src/stm32f4xx_hal_irda.c ****     hirda->TxXferCount = Size;
 887              		.loc 1 583 24 discriminator 2
 888 004c FB68     		ldr	r3, [r7, #12]
 889 004e FA88     		ldrh	r2, [r7, #6]	@ movhi
 890 0050 5A84     		strh	r2, [r3, #34]	@ movhi
 584:./Libraries/STM32F4xx_HAL_Driver/Src/stm32f4xx_hal_irda.c ****     hirda->ErrorCode = HAL_IRDA_ERROR_NONE;
 891              		.loc 1 584 22 discriminator 2
 892 0052 FB68     		ldr	r3, [r7, #12]
 893 0054 0022     		movs	r2, #0
 894 0056 9A63     		str	r2, [r3, #56]
 585:./Libraries/STM32F4xx_HAL_Driver/Src/stm32f4xx_hal_irda.c ****     hirda->gState = HAL_IRDA_STATE_BUSY_TX;
 895              		.loc 1 585 19 discriminator 2
 896 0058 FB68     		ldr	r3, [r7, #12]
 897 005a 2122     		movs	r2, #33
 898 005c 83F83520 		strb	r2, [r3, #53]
 586:./Libraries/STM32F4xx_HAL_Driver/Src/stm32f4xx_hal_irda.c **** 
 587:./Libraries/STM32F4xx_HAL_Driver/Src/stm32f4xx_hal_irda.c ****     /* Process Unlocked */
 588:./Libraries/STM32F4xx_HAL_Driver/Src/stm32f4xx_hal_irda.c ****     __HAL_UNLOCK(hirda);
 899              		.loc 1 588 5 discriminator 2
 900 0060 FB68     		ldr	r3, [r7, #12]
 901 0062 0022     		movs	r2, #0
 902 0064 83F83420 		strb	r2, [r3, #52]
 589:./Libraries/STM32F4xx_HAL_Driver/Src/stm32f4xx_hal_irda.c **** 
ARM GAS  /tmp/ccJhy18e.s 			page 27


 590:./Libraries/STM32F4xx_HAL_Driver/Src/stm32f4xx_hal_irda.c ****     /* Enable the IRDA Transmit Data Register Empty Interrupt */
 591:./Libraries/STM32F4xx_HAL_Driver/Src/stm32f4xx_hal_irda.c ****     SET_BIT(hirda->Instance->CR1, USART_CR1_TXEIE);
 903              		.loc 1 591 5 discriminator 2
 904 0068 FB68     		ldr	r3, [r7, #12]
 905 006a 1B68     		ldr	r3, [r3]
 906 006c DA68     		ldr	r2, [r3, #12]
 907 006e FB68     		ldr	r3, [r7, #12]
 908 0070 1B68     		ldr	r3, [r3]
 909 0072 42F08002 		orr	r2, r2, #128
 910 0076 DA60     		str	r2, [r3, #12]
 592:./Libraries/STM32F4xx_HAL_Driver/Src/stm32f4xx_hal_irda.c **** 
 593:./Libraries/STM32F4xx_HAL_Driver/Src/stm32f4xx_hal_irda.c ****     return HAL_OK;
 911              		.loc 1 593 12 discriminator 2
 912 0078 0023     		movs	r3, #0
 913 007a 00E0     		b	.L40
 914              	.L37:
 594:./Libraries/STM32F4xx_HAL_Driver/Src/stm32f4xx_hal_irda.c ****   }
 595:./Libraries/STM32F4xx_HAL_Driver/Src/stm32f4xx_hal_irda.c ****   else
 596:./Libraries/STM32F4xx_HAL_Driver/Src/stm32f4xx_hal_irda.c ****   {
 597:./Libraries/STM32F4xx_HAL_Driver/Src/stm32f4xx_hal_irda.c ****     return HAL_BUSY;
 915              		.loc 1 597 12
 916 007c 0223     		movs	r3, #2
 917              	.L40:
 598:./Libraries/STM32F4xx_HAL_Driver/Src/stm32f4xx_hal_irda.c ****   }
 599:./Libraries/STM32F4xx_HAL_Driver/Src/stm32f4xx_hal_irda.c **** }
 918              		.loc 1 599 1
 919 007e 1846     		mov	r0, r3
 920 0080 1437     		adds	r7, r7, #20
 921              	.LCFI35:
 922              		.cfi_def_cfa_offset 4
 923 0082 BD46     		mov	sp, r7
 924              	.LCFI36:
 925              		.cfi_def_cfa_register 13
 926              		@ sp needed
 927 0084 5DF8047B 		ldr	r7, [sp], #4
 928              	.LCFI37:
 929              		.cfi_restore 7
 930              		.cfi_def_cfa_offset 0
 931 0088 7047     		bx	lr
 932              		.cfi_endproc
 933              	.LFE132:
 935              		.section	.text.HAL_IRDA_Receive_IT,"ax",%progbits
 936              		.align	1
 937              		.global	HAL_IRDA_Receive_IT
 938              		.syntax unified
 939              		.thumb
 940              		.thumb_func
 941              		.fpu fpv4-sp-d16
 943              	HAL_IRDA_Receive_IT:
 944              	.LFB133:
 600:./Libraries/STM32F4xx_HAL_Driver/Src/stm32f4xx_hal_irda.c **** 
 601:./Libraries/STM32F4xx_HAL_Driver/Src/stm32f4xx_hal_irda.c **** /**
 602:./Libraries/STM32F4xx_HAL_Driver/Src/stm32f4xx_hal_irda.c ****   * @brief  Receives an amount of data in non blocking mode. 
 603:./Libraries/STM32F4xx_HAL_Driver/Src/stm32f4xx_hal_irda.c ****   * @param  hirda pointer to a IRDA_HandleTypeDef structure that contains
 604:./Libraries/STM32F4xx_HAL_Driver/Src/stm32f4xx_hal_irda.c ****   *                the configuration information for the specified IRDA module.
 605:./Libraries/STM32F4xx_HAL_Driver/Src/stm32f4xx_hal_irda.c ****   * @param  pData Pointer to data buffer
 606:./Libraries/STM32F4xx_HAL_Driver/Src/stm32f4xx_hal_irda.c ****   * @param  Size Amount of data to be received
ARM GAS  /tmp/ccJhy18e.s 			page 28


 607:./Libraries/STM32F4xx_HAL_Driver/Src/stm32f4xx_hal_irda.c ****   * @retval HAL status
 608:./Libraries/STM32F4xx_HAL_Driver/Src/stm32f4xx_hal_irda.c ****   */
 609:./Libraries/STM32F4xx_HAL_Driver/Src/stm32f4xx_hal_irda.c **** HAL_StatusTypeDef HAL_IRDA_Receive_IT(IRDA_HandleTypeDef *hirda, uint8_t *pData, uint16_t Size)
 610:./Libraries/STM32F4xx_HAL_Driver/Src/stm32f4xx_hal_irda.c **** {
 945              		.loc 1 610 1
 946              		.cfi_startproc
 947              		@ args = 0, pretend = 0, frame = 16
 948              		@ frame_needed = 1, uses_anonymous_args = 0
 949              		@ link register save eliminated.
 950 0000 80B4     		push	{r7}
 951              	.LCFI38:
 952              		.cfi_def_cfa_offset 4
 953              		.cfi_offset 7, -4
 954 0002 85B0     		sub	sp, sp, #20
 955              	.LCFI39:
 956              		.cfi_def_cfa_offset 24
 957 0004 00AF     		add	r7, sp, #0
 958              	.LCFI40:
 959              		.cfi_def_cfa_register 7
 960 0006 F860     		str	r0, [r7, #12]
 961 0008 B960     		str	r1, [r7, #8]
 962 000a 1346     		mov	r3, r2
 963 000c FB80     		strh	r3, [r7, #6]	@ movhi
 611:./Libraries/STM32F4xx_HAL_Driver/Src/stm32f4xx_hal_irda.c ****   /* Check that a Rx process is not already ongoing */	
 612:./Libraries/STM32F4xx_HAL_Driver/Src/stm32f4xx_hal_irda.c ****   if(hirda->RxState == HAL_IRDA_STATE_READY) 
 964              		.loc 1 612 11
 965 000e FB68     		ldr	r3, [r7, #12]
 966 0010 93F83630 		ldrb	r3, [r3, #54]
 967 0014 DBB2     		uxtb	r3, r3
 968              		.loc 1 612 5
 969 0016 202B     		cmp	r3, #32
 970 0018 38D1     		bne	.L43
 613:./Libraries/STM32F4xx_HAL_Driver/Src/stm32f4xx_hal_irda.c ****   {
 614:./Libraries/STM32F4xx_HAL_Driver/Src/stm32f4xx_hal_irda.c ****     if((pData == NULL) || (Size == 0)) 
 971              		.loc 1 614 7
 972 001a BB68     		ldr	r3, [r7, #8]
 973 001c 002B     		cmp	r3, #0
 974 001e 02D0     		beq	.L44
 975              		.loc 1 614 24 discriminator 1
 976 0020 FB88     		ldrh	r3, [r7, #6]
 977 0022 002B     		cmp	r3, #0
 978 0024 01D1     		bne	.L45
 979              	.L44:
 615:./Libraries/STM32F4xx_HAL_Driver/Src/stm32f4xx_hal_irda.c ****     {
 616:./Libraries/STM32F4xx_HAL_Driver/Src/stm32f4xx_hal_irda.c ****       return HAL_ERROR;
 980              		.loc 1 616 14
 981 0026 0123     		movs	r3, #1
 982 0028 31E0     		b	.L46
 983              	.L45:
 617:./Libraries/STM32F4xx_HAL_Driver/Src/stm32f4xx_hal_irda.c ****     }
 618:./Libraries/STM32F4xx_HAL_Driver/Src/stm32f4xx_hal_irda.c ****     
 619:./Libraries/STM32F4xx_HAL_Driver/Src/stm32f4xx_hal_irda.c ****     /* Process Locked */
 620:./Libraries/STM32F4xx_HAL_Driver/Src/stm32f4xx_hal_irda.c ****     __HAL_LOCK(hirda);
 984              		.loc 1 620 5
 985 002a FB68     		ldr	r3, [r7, #12]
 986 002c 93F83430 		ldrb	r3, [r3, #52]	@ zero_extendqisi2
 987 0030 012B     		cmp	r3, #1
ARM GAS  /tmp/ccJhy18e.s 			page 29


 988 0032 01D1     		bne	.L47
 989              		.loc 1 620 5 is_stmt 0 discriminator 1
 990 0034 0223     		movs	r3, #2
 991 0036 2AE0     		b	.L46
 992              	.L47:
 993              		.loc 1 620 5 discriminator 2
 994 0038 FB68     		ldr	r3, [r7, #12]
 995 003a 0122     		movs	r2, #1
 996 003c 83F83420 		strb	r2, [r3, #52]
 621:./Libraries/STM32F4xx_HAL_Driver/Src/stm32f4xx_hal_irda.c ****     
 622:./Libraries/STM32F4xx_HAL_Driver/Src/stm32f4xx_hal_irda.c ****     hirda->pRxBuffPtr = pData;
 997              		.loc 1 622 23 is_stmt 1 discriminator 2
 998 0040 FB68     		ldr	r3, [r7, #12]
 999 0042 BA68     		ldr	r2, [r7, #8]
 1000 0044 5A62     		str	r2, [r3, #36]
 623:./Libraries/STM32F4xx_HAL_Driver/Src/stm32f4xx_hal_irda.c ****     hirda->RxXferSize = Size;
 1001              		.loc 1 623 23 discriminator 2
 1002 0046 FB68     		ldr	r3, [r7, #12]
 1003 0048 FA88     		ldrh	r2, [r7, #6]	@ movhi
 1004 004a 1A85     		strh	r2, [r3, #40]	@ movhi
 624:./Libraries/STM32F4xx_HAL_Driver/Src/stm32f4xx_hal_irda.c ****     hirda->RxXferCount = Size;
 1005              		.loc 1 624 24 discriminator 2
 1006 004c FB68     		ldr	r3, [r7, #12]
 1007 004e FA88     		ldrh	r2, [r7, #6]	@ movhi
 1008 0050 5A85     		strh	r2, [r3, #42]	@ movhi
 625:./Libraries/STM32F4xx_HAL_Driver/Src/stm32f4xx_hal_irda.c ****     hirda->ErrorCode = HAL_IRDA_ERROR_NONE;
 1009              		.loc 1 625 22 discriminator 2
 1010 0052 FB68     		ldr	r3, [r7, #12]
 1011 0054 0022     		movs	r2, #0
 1012 0056 9A63     		str	r2, [r3, #56]
 626:./Libraries/STM32F4xx_HAL_Driver/Src/stm32f4xx_hal_irda.c ****     hirda->RxState = HAL_IRDA_STATE_BUSY_RX;
 1013              		.loc 1 626 20 discriminator 2
 1014 0058 FB68     		ldr	r3, [r7, #12]
 1015 005a 2222     		movs	r2, #34
 1016 005c 83F83620 		strb	r2, [r3, #54]
 627:./Libraries/STM32F4xx_HAL_Driver/Src/stm32f4xx_hal_irda.c ****     
 628:./Libraries/STM32F4xx_HAL_Driver/Src/stm32f4xx_hal_irda.c ****     /* Process Unlocked */
 629:./Libraries/STM32F4xx_HAL_Driver/Src/stm32f4xx_hal_irda.c ****     __HAL_UNLOCK(hirda);
 1017              		.loc 1 629 5 discriminator 2
 1018 0060 FB68     		ldr	r3, [r7, #12]
 1019 0062 0022     		movs	r2, #0
 1020 0064 83F83420 		strb	r2, [r3, #52]
 630:./Libraries/STM32F4xx_HAL_Driver/Src/stm32f4xx_hal_irda.c **** 
 631:./Libraries/STM32F4xx_HAL_Driver/Src/stm32f4xx_hal_irda.c ****     /* Enable the IRDA Parity Error and Data Register not empty Interrupts */
 632:./Libraries/STM32F4xx_HAL_Driver/Src/stm32f4xx_hal_irda.c ****     SET_BIT(hirda->Instance->CR1, USART_CR1_PEIE| USART_CR1_RXNEIE);
 1021              		.loc 1 632 5 discriminator 2
 1022 0068 FB68     		ldr	r3, [r7, #12]
 1023 006a 1B68     		ldr	r3, [r3]
 1024 006c DA68     		ldr	r2, [r3, #12]
 1025 006e FB68     		ldr	r3, [r7, #12]
 1026 0070 1B68     		ldr	r3, [r3]
 1027 0072 42F49072 		orr	r2, r2, #288
 1028 0076 DA60     		str	r2, [r3, #12]
 633:./Libraries/STM32F4xx_HAL_Driver/Src/stm32f4xx_hal_irda.c **** 
 634:./Libraries/STM32F4xx_HAL_Driver/Src/stm32f4xx_hal_irda.c ****     /* Enable the IRDA Error Interrupt: (Frame error, noise error, overrun error) */
 635:./Libraries/STM32F4xx_HAL_Driver/Src/stm32f4xx_hal_irda.c ****     SET_BIT(hirda->Instance->CR3, USART_CR3_EIE);
 1029              		.loc 1 635 5 discriminator 2
ARM GAS  /tmp/ccJhy18e.s 			page 30


 1030 0078 FB68     		ldr	r3, [r7, #12]
 1031 007a 1B68     		ldr	r3, [r3]
 1032 007c 5A69     		ldr	r2, [r3, #20]
 1033 007e FB68     		ldr	r3, [r7, #12]
 1034 0080 1B68     		ldr	r3, [r3]
 1035 0082 42F00102 		orr	r2, r2, #1
 1036 0086 5A61     		str	r2, [r3, #20]
 636:./Libraries/STM32F4xx_HAL_Driver/Src/stm32f4xx_hal_irda.c **** 
 637:./Libraries/STM32F4xx_HAL_Driver/Src/stm32f4xx_hal_irda.c ****     return HAL_OK;
 1037              		.loc 1 637 12 discriminator 2
 1038 0088 0023     		movs	r3, #0
 1039 008a 00E0     		b	.L46
 1040              	.L43:
 638:./Libraries/STM32F4xx_HAL_Driver/Src/stm32f4xx_hal_irda.c ****   }
 639:./Libraries/STM32F4xx_HAL_Driver/Src/stm32f4xx_hal_irda.c ****   else
 640:./Libraries/STM32F4xx_HAL_Driver/Src/stm32f4xx_hal_irda.c ****   {
 641:./Libraries/STM32F4xx_HAL_Driver/Src/stm32f4xx_hal_irda.c ****     return HAL_BUSY;
 1041              		.loc 1 641 12
 1042 008c 0223     		movs	r3, #2
 1043              	.L46:
 642:./Libraries/STM32F4xx_HAL_Driver/Src/stm32f4xx_hal_irda.c ****   }
 643:./Libraries/STM32F4xx_HAL_Driver/Src/stm32f4xx_hal_irda.c **** }
 1044              		.loc 1 643 1
 1045 008e 1846     		mov	r0, r3
 1046 0090 1437     		adds	r7, r7, #20
 1047              	.LCFI41:
 1048              		.cfi_def_cfa_offset 4
 1049 0092 BD46     		mov	sp, r7
 1050              	.LCFI42:
 1051              		.cfi_def_cfa_register 13
 1052              		@ sp needed
 1053 0094 5DF8047B 		ldr	r7, [sp], #4
 1054              	.LCFI43:
 1055              		.cfi_restore 7
 1056              		.cfi_def_cfa_offset 0
 1057 0098 7047     		bx	lr
 1058              		.cfi_endproc
 1059              	.LFE133:
 1061              		.section	.text.HAL_IRDA_Transmit_DMA,"ax",%progbits
 1062              		.align	1
 1063              		.global	HAL_IRDA_Transmit_DMA
 1064              		.syntax unified
 1065              		.thumb
 1066              		.thumb_func
 1067              		.fpu fpv4-sp-d16
 1069              	HAL_IRDA_Transmit_DMA:
 1070              	.LFB134:
 644:./Libraries/STM32F4xx_HAL_Driver/Src/stm32f4xx_hal_irda.c **** 
 645:./Libraries/STM32F4xx_HAL_Driver/Src/stm32f4xx_hal_irda.c **** /**
 646:./Libraries/STM32F4xx_HAL_Driver/Src/stm32f4xx_hal_irda.c ****   * @brief  Sends an amount of data in non blocking mode. 
 647:./Libraries/STM32F4xx_HAL_Driver/Src/stm32f4xx_hal_irda.c ****   * @param  hirda pointer to a IRDA_HandleTypeDef structure that contains
 648:./Libraries/STM32F4xx_HAL_Driver/Src/stm32f4xx_hal_irda.c ****   *                the configuration information for the specified IRDA module.
 649:./Libraries/STM32F4xx_HAL_Driver/Src/stm32f4xx_hal_irda.c ****   * @param  pData Pointer to data buffer
 650:./Libraries/STM32F4xx_HAL_Driver/Src/stm32f4xx_hal_irda.c ****   * @param  Size Amount of data to be sent
 651:./Libraries/STM32F4xx_HAL_Driver/Src/stm32f4xx_hal_irda.c ****   * @retval HAL status
 652:./Libraries/STM32F4xx_HAL_Driver/Src/stm32f4xx_hal_irda.c ****   */
 653:./Libraries/STM32F4xx_HAL_Driver/Src/stm32f4xx_hal_irda.c **** HAL_StatusTypeDef HAL_IRDA_Transmit_DMA(IRDA_HandleTypeDef *hirda, uint8_t *pData, uint16_t Size)
ARM GAS  /tmp/ccJhy18e.s 			page 31


 654:./Libraries/STM32F4xx_HAL_Driver/Src/stm32f4xx_hal_irda.c **** {
 1071              		.loc 1 654 1
 1072              		.cfi_startproc
 1073              		@ args = 0, pretend = 0, frame = 24
 1074              		@ frame_needed = 1, uses_anonymous_args = 0
 1075 0000 80B5     		push	{r7, lr}
 1076              	.LCFI44:
 1077              		.cfi_def_cfa_offset 8
 1078              		.cfi_offset 7, -8
 1079              		.cfi_offset 14, -4
 1080 0002 86B0     		sub	sp, sp, #24
 1081              	.LCFI45:
 1082              		.cfi_def_cfa_offset 32
 1083 0004 00AF     		add	r7, sp, #0
 1084              	.LCFI46:
 1085              		.cfi_def_cfa_register 7
 1086 0006 F860     		str	r0, [r7, #12]
 1087 0008 B960     		str	r1, [r7, #8]
 1088 000a 1346     		mov	r3, r2
 1089 000c FB80     		strh	r3, [r7, #6]	@ movhi
 655:./Libraries/STM32F4xx_HAL_Driver/Src/stm32f4xx_hal_irda.c ****   uint32_t *tmp;
 656:./Libraries/STM32F4xx_HAL_Driver/Src/stm32f4xx_hal_irda.c ****   
 657:./Libraries/STM32F4xx_HAL_Driver/Src/stm32f4xx_hal_irda.c ****   /* Check that a Tx process is not already ongoing */
 658:./Libraries/STM32F4xx_HAL_Driver/Src/stm32f4xx_hal_irda.c ****   if(hirda->gState == HAL_IRDA_STATE_READY) 
 1090              		.loc 1 658 11
 1091 000e FB68     		ldr	r3, [r7, #12]
 1092 0010 93F83530 		ldrb	r3, [r3, #53]
 1093 0014 DBB2     		uxtb	r3, r3
 1094              		.loc 1 658 5
 1095 0016 202B     		cmp	r3, #32
 1096 0018 53D1     		bne	.L49
 659:./Libraries/STM32F4xx_HAL_Driver/Src/stm32f4xx_hal_irda.c ****   {
 660:./Libraries/STM32F4xx_HAL_Driver/Src/stm32f4xx_hal_irda.c ****     if((pData == NULL) || (Size == 0)) 
 1097              		.loc 1 660 15
 1098 001a BB68     		ldr	r3, [r7, #8]
 1099              		.loc 1 660 7
 1100 001c 002B     		cmp	r3, #0
 1101 001e 02D0     		beq	.L50
 1102              		.loc 1 660 24 discriminator 1
 1103 0020 FB88     		ldrh	r3, [r7, #6]
 1104 0022 002B     		cmp	r3, #0
 1105 0024 01D1     		bne	.L51
 1106              	.L50:
 661:./Libraries/STM32F4xx_HAL_Driver/Src/stm32f4xx_hal_irda.c ****     {
 662:./Libraries/STM32F4xx_HAL_Driver/Src/stm32f4xx_hal_irda.c ****       return HAL_ERROR;
 1107              		.loc 1 662 14
 1108 0026 0123     		movs	r3, #1
 1109 0028 4CE0     		b	.L52
 1110              	.L51:
 663:./Libraries/STM32F4xx_HAL_Driver/Src/stm32f4xx_hal_irda.c ****     }
 664:./Libraries/STM32F4xx_HAL_Driver/Src/stm32f4xx_hal_irda.c ****     
 665:./Libraries/STM32F4xx_HAL_Driver/Src/stm32f4xx_hal_irda.c ****     /* Process Locked */
 666:./Libraries/STM32F4xx_HAL_Driver/Src/stm32f4xx_hal_irda.c ****     __HAL_LOCK(hirda);
 1111              		.loc 1 666 5
 1112 002a FB68     		ldr	r3, [r7, #12]
 1113 002c 93F83430 		ldrb	r3, [r3, #52]	@ zero_extendqisi2
 1114 0030 012B     		cmp	r3, #1
ARM GAS  /tmp/ccJhy18e.s 			page 32


 1115 0032 01D1     		bne	.L53
 1116              		.loc 1 666 5 is_stmt 0 discriminator 1
 1117 0034 0223     		movs	r3, #2
 1118 0036 45E0     		b	.L52
 1119              	.L53:
 1120              		.loc 1 666 5 discriminator 2
 1121 0038 FB68     		ldr	r3, [r7, #12]
 1122 003a 0122     		movs	r2, #1
 1123 003c 83F83420 		strb	r2, [r3, #52]
 667:./Libraries/STM32F4xx_HAL_Driver/Src/stm32f4xx_hal_irda.c **** 
 668:./Libraries/STM32F4xx_HAL_Driver/Src/stm32f4xx_hal_irda.c ****     hirda->pTxBuffPtr = pData;
 1124              		.loc 1 668 23 is_stmt 1 discriminator 2
 1125 0040 BA68     		ldr	r2, [r7, #8]
 1126 0042 FB68     		ldr	r3, [r7, #12]
 1127 0044 DA61     		str	r2, [r3, #28]
 669:./Libraries/STM32F4xx_HAL_Driver/Src/stm32f4xx_hal_irda.c ****     hirda->TxXferSize = Size;
 1128              		.loc 1 669 23 discriminator 2
 1129 0046 FB68     		ldr	r3, [r7, #12]
 1130 0048 FA88     		ldrh	r2, [r7, #6]	@ movhi
 1131 004a 1A84     		strh	r2, [r3, #32]	@ movhi
 670:./Libraries/STM32F4xx_HAL_Driver/Src/stm32f4xx_hal_irda.c ****     hirda->TxXferCount = Size;
 1132              		.loc 1 670 24 discriminator 2
 1133 004c FB68     		ldr	r3, [r7, #12]
 1134 004e FA88     		ldrh	r2, [r7, #6]	@ movhi
 1135 0050 5A84     		strh	r2, [r3, #34]	@ movhi
 671:./Libraries/STM32F4xx_HAL_Driver/Src/stm32f4xx_hal_irda.c ****     hirda->ErrorCode = HAL_IRDA_ERROR_NONE;
 1136              		.loc 1 671 22 discriminator 2
 1137 0052 FB68     		ldr	r3, [r7, #12]
 1138 0054 0022     		movs	r2, #0
 1139 0056 9A63     		str	r2, [r3, #56]
 672:./Libraries/STM32F4xx_HAL_Driver/Src/stm32f4xx_hal_irda.c ****     hirda->gState = HAL_IRDA_STATE_BUSY_TX;
 1140              		.loc 1 672 19 discriminator 2
 1141 0058 FB68     		ldr	r3, [r7, #12]
 1142 005a 2122     		movs	r2, #33
 1143 005c 83F83520 		strb	r2, [r3, #53]
 673:./Libraries/STM32F4xx_HAL_Driver/Src/stm32f4xx_hal_irda.c **** 
 674:./Libraries/STM32F4xx_HAL_Driver/Src/stm32f4xx_hal_irda.c ****     /* Set the IRDA DMA transfer complete callback */
 675:./Libraries/STM32F4xx_HAL_Driver/Src/stm32f4xx_hal_irda.c ****     hirda->hdmatx->XferCpltCallback = IRDA_DMATransmitCplt;
 1144              		.loc 1 675 10 discriminator 2
 1145 0060 FB68     		ldr	r3, [r7, #12]
 1146 0062 DB6A     		ldr	r3, [r3, #44]
 1147              		.loc 1 675 37 discriminator 2
 1148 0064 194A     		ldr	r2, .L54
 1149 0066 DA63     		str	r2, [r3, #60]
 676:./Libraries/STM32F4xx_HAL_Driver/Src/stm32f4xx_hal_irda.c **** 
 677:./Libraries/STM32F4xx_HAL_Driver/Src/stm32f4xx_hal_irda.c ****     /* Set the IRDA DMA half transfer complete callback */
 678:./Libraries/STM32F4xx_HAL_Driver/Src/stm32f4xx_hal_irda.c ****     hirda->hdmatx->XferHalfCpltCallback = IRDA_DMATransmitHalfCplt;
 1150              		.loc 1 678 10 discriminator 2
 1151 0068 FB68     		ldr	r3, [r7, #12]
 1152 006a DB6A     		ldr	r3, [r3, #44]
 1153              		.loc 1 678 41 discriminator 2
 1154 006c 184A     		ldr	r2, .L54+4
 1155 006e 1A64     		str	r2, [r3, #64]
 679:./Libraries/STM32F4xx_HAL_Driver/Src/stm32f4xx_hal_irda.c **** 
 680:./Libraries/STM32F4xx_HAL_Driver/Src/stm32f4xx_hal_irda.c ****     /* Set the DMA error callback */
 681:./Libraries/STM32F4xx_HAL_Driver/Src/stm32f4xx_hal_irda.c ****     hirda->hdmatx->XferErrorCallback = IRDA_DMAError;
 1156              		.loc 1 681 10 discriminator 2
ARM GAS  /tmp/ccJhy18e.s 			page 33


 1157 0070 FB68     		ldr	r3, [r7, #12]
 1158 0072 DB6A     		ldr	r3, [r3, #44]
 1159              		.loc 1 681 38 discriminator 2
 1160 0074 174A     		ldr	r2, .L54+8
 1161 0076 DA64     		str	r2, [r3, #76]
 682:./Libraries/STM32F4xx_HAL_Driver/Src/stm32f4xx_hal_irda.c **** 
 683:./Libraries/STM32F4xx_HAL_Driver/Src/stm32f4xx_hal_irda.c ****     /* Set the DMA abort callback */
 684:./Libraries/STM32F4xx_HAL_Driver/Src/stm32f4xx_hal_irda.c ****     hirda->hdmatx->XferAbortCallback = NULL;
 1162              		.loc 1 684 10 discriminator 2
 1163 0078 FB68     		ldr	r3, [r7, #12]
 1164 007a DB6A     		ldr	r3, [r3, #44]
 1165              		.loc 1 684 38 discriminator 2
 1166 007c 0022     		movs	r2, #0
 1167 007e 1A65     		str	r2, [r3, #80]
 685:./Libraries/STM32F4xx_HAL_Driver/Src/stm32f4xx_hal_irda.c **** 
 686:./Libraries/STM32F4xx_HAL_Driver/Src/stm32f4xx_hal_irda.c ****     /* Enable the IRDA transmit DMA Stream */
 687:./Libraries/STM32F4xx_HAL_Driver/Src/stm32f4xx_hal_irda.c ****     tmp = (uint32_t*)&pData;
 1168              		.loc 1 687 9 discriminator 2
 1169 0080 07F10803 		add	r3, r7, #8
 1170 0084 7B61     		str	r3, [r7, #20]
 688:./Libraries/STM32F4xx_HAL_Driver/Src/stm32f4xx_hal_irda.c ****     HAL_DMA_Start_IT(hirda->hdmatx, *(uint32_t*)tmp, (uint32_t)&hirda->Instance->DR, Size);
 1171              		.loc 1 688 5 discriminator 2
 1172 0086 FB68     		ldr	r3, [r7, #12]
 1173 0088 D86A     		ldr	r0, [r3, #44]
 1174 008a 7B69     		ldr	r3, [r7, #20]
 1175 008c 1968     		ldr	r1, [r3]
 1176              		.loc 1 688 70 discriminator 2
 1177 008e FB68     		ldr	r3, [r7, #12]
 1178 0090 1B68     		ldr	r3, [r3]
 1179              		.loc 1 688 64 discriminator 2
 1180 0092 0433     		adds	r3, r3, #4
 1181              		.loc 1 688 5 discriminator 2
 1182 0094 1A46     		mov	r2, r3
 1183 0096 FB88     		ldrh	r3, [r7, #6]
 1184 0098 FFF7FEFF 		bl	HAL_DMA_Start_IT
 689:./Libraries/STM32F4xx_HAL_Driver/Src/stm32f4xx_hal_irda.c **** 
 690:./Libraries/STM32F4xx_HAL_Driver/Src/stm32f4xx_hal_irda.c ****     /* Clear the TC flag in the SR register by writing 0 to it */
 691:./Libraries/STM32F4xx_HAL_Driver/Src/stm32f4xx_hal_irda.c ****     __HAL_IRDA_CLEAR_FLAG(hirda, IRDA_FLAG_TC);
 1185              		.loc 1 691 5 discriminator 2
 1186 009c FB68     		ldr	r3, [r7, #12]
 1187 009e 1B68     		ldr	r3, [r3]
 1188 00a0 6FF04002 		mvn	r2, #64
 1189 00a4 1A60     		str	r2, [r3]
 692:./Libraries/STM32F4xx_HAL_Driver/Src/stm32f4xx_hal_irda.c ****     
 693:./Libraries/STM32F4xx_HAL_Driver/Src/stm32f4xx_hal_irda.c ****     /* Process Unlocked */
 694:./Libraries/STM32F4xx_HAL_Driver/Src/stm32f4xx_hal_irda.c ****     __HAL_UNLOCK(hirda);
 1190              		.loc 1 694 5 discriminator 2
 1191 00a6 FB68     		ldr	r3, [r7, #12]
 1192 00a8 0022     		movs	r2, #0
 1193 00aa 83F83420 		strb	r2, [r3, #52]
 695:./Libraries/STM32F4xx_HAL_Driver/Src/stm32f4xx_hal_irda.c **** 
 696:./Libraries/STM32F4xx_HAL_Driver/Src/stm32f4xx_hal_irda.c ****     /* Enable the DMA transfer for transmit request by setting the DMAT bit
 697:./Libraries/STM32F4xx_HAL_Driver/Src/stm32f4xx_hal_irda.c ****     in the USART CR3 register */
 698:./Libraries/STM32F4xx_HAL_Driver/Src/stm32f4xx_hal_irda.c ****     SET_BIT(hirda->Instance->CR3, USART_CR3_DMAT);
 1194              		.loc 1 698 5 discriminator 2
 1195 00ae FB68     		ldr	r3, [r7, #12]
 1196 00b0 1B68     		ldr	r3, [r3]
ARM GAS  /tmp/ccJhy18e.s 			page 34


 1197 00b2 5A69     		ldr	r2, [r3, #20]
 1198 00b4 FB68     		ldr	r3, [r7, #12]
 1199 00b6 1B68     		ldr	r3, [r3]
 1200 00b8 42F08002 		orr	r2, r2, #128
 1201 00bc 5A61     		str	r2, [r3, #20]
 699:./Libraries/STM32F4xx_HAL_Driver/Src/stm32f4xx_hal_irda.c **** 
 700:./Libraries/STM32F4xx_HAL_Driver/Src/stm32f4xx_hal_irda.c ****     return HAL_OK;
 1202              		.loc 1 700 12 discriminator 2
 1203 00be 0023     		movs	r3, #0
 1204 00c0 00E0     		b	.L52
 1205              	.L49:
 701:./Libraries/STM32F4xx_HAL_Driver/Src/stm32f4xx_hal_irda.c ****   }
 702:./Libraries/STM32F4xx_HAL_Driver/Src/stm32f4xx_hal_irda.c ****   else
 703:./Libraries/STM32F4xx_HAL_Driver/Src/stm32f4xx_hal_irda.c ****   {
 704:./Libraries/STM32F4xx_HAL_Driver/Src/stm32f4xx_hal_irda.c ****     return HAL_BUSY;
 1206              		.loc 1 704 12
 1207 00c2 0223     		movs	r3, #2
 1208              	.L52:
 705:./Libraries/STM32F4xx_HAL_Driver/Src/stm32f4xx_hal_irda.c ****   }
 706:./Libraries/STM32F4xx_HAL_Driver/Src/stm32f4xx_hal_irda.c **** }
 1209              		.loc 1 706 1
 1210 00c4 1846     		mov	r0, r3
 1211 00c6 1837     		adds	r7, r7, #24
 1212              	.LCFI47:
 1213              		.cfi_def_cfa_offset 8
 1214 00c8 BD46     		mov	sp, r7
 1215              	.LCFI48:
 1216              		.cfi_def_cfa_register 13
 1217              		@ sp needed
 1218 00ca 80BD     		pop	{r7, pc}
 1219              	.L55:
 1220              		.align	2
 1221              	.L54:
 1222 00cc 00000000 		.word	IRDA_DMATransmitCplt
 1223 00d0 00000000 		.word	IRDA_DMATransmitHalfCplt
 1224 00d4 00000000 		.word	IRDA_DMAError
 1225              		.cfi_endproc
 1226              	.LFE134:
 1228              		.section	.text.HAL_IRDA_Receive_DMA,"ax",%progbits
 1229              		.align	1
 1230              		.global	HAL_IRDA_Receive_DMA
 1231              		.syntax unified
 1232              		.thumb
 1233              		.thumb_func
 1234              		.fpu fpv4-sp-d16
 1236              	HAL_IRDA_Receive_DMA:
 1237              	.LFB135:
 707:./Libraries/STM32F4xx_HAL_Driver/Src/stm32f4xx_hal_irda.c **** 
 708:./Libraries/STM32F4xx_HAL_Driver/Src/stm32f4xx_hal_irda.c **** /**
 709:./Libraries/STM32F4xx_HAL_Driver/Src/stm32f4xx_hal_irda.c ****   * @brief  Receives an amount of data in non blocking mode. 
 710:./Libraries/STM32F4xx_HAL_Driver/Src/stm32f4xx_hal_irda.c ****   * @param  hirda pointer to a IRDA_HandleTypeDef structure that contains
 711:./Libraries/STM32F4xx_HAL_Driver/Src/stm32f4xx_hal_irda.c ****   *                the configuration information for the specified IRDA module.
 712:./Libraries/STM32F4xx_HAL_Driver/Src/stm32f4xx_hal_irda.c ****   * @param  pData Pointer to data buffer
 713:./Libraries/STM32F4xx_HAL_Driver/Src/stm32f4xx_hal_irda.c ****   * @param  Size Amount of data to be received
 714:./Libraries/STM32F4xx_HAL_Driver/Src/stm32f4xx_hal_irda.c ****   * @note   When the IRDA parity is enabled (PCE = 1) the data received contain the parity bit.
 715:./Libraries/STM32F4xx_HAL_Driver/Src/stm32f4xx_hal_irda.c ****   * @retval HAL status
 716:./Libraries/STM32F4xx_HAL_Driver/Src/stm32f4xx_hal_irda.c ****   */
ARM GAS  /tmp/ccJhy18e.s 			page 35


 717:./Libraries/STM32F4xx_HAL_Driver/Src/stm32f4xx_hal_irda.c **** HAL_StatusTypeDef HAL_IRDA_Receive_DMA(IRDA_HandleTypeDef *hirda, uint8_t *pData, uint16_t Size)
 718:./Libraries/STM32F4xx_HAL_Driver/Src/stm32f4xx_hal_irda.c **** {
 1238              		.loc 1 718 1
 1239              		.cfi_startproc
 1240              		@ args = 0, pretend = 0, frame = 24
 1241              		@ frame_needed = 1, uses_anonymous_args = 0
 1242 0000 80B5     		push	{r7, lr}
 1243              	.LCFI49:
 1244              		.cfi_def_cfa_offset 8
 1245              		.cfi_offset 7, -8
 1246              		.cfi_offset 14, -4
 1247 0002 86B0     		sub	sp, sp, #24
 1248              	.LCFI50:
 1249              		.cfi_def_cfa_offset 32
 1250 0004 00AF     		add	r7, sp, #0
 1251              	.LCFI51:
 1252              		.cfi_def_cfa_register 7
 1253 0006 F860     		str	r0, [r7, #12]
 1254 0008 B960     		str	r1, [r7, #8]
 1255 000a 1346     		mov	r3, r2
 1256 000c FB80     		strh	r3, [r7, #6]	@ movhi
 719:./Libraries/STM32F4xx_HAL_Driver/Src/stm32f4xx_hal_irda.c ****   uint32_t *tmp;
 720:./Libraries/STM32F4xx_HAL_Driver/Src/stm32f4xx_hal_irda.c ****   
 721:./Libraries/STM32F4xx_HAL_Driver/Src/stm32f4xx_hal_irda.c ****   /* Check that a Rx process is not already ongoing */
 722:./Libraries/STM32F4xx_HAL_Driver/Src/stm32f4xx_hal_irda.c ****   if(hirda->RxState == HAL_IRDA_STATE_READY) 
 1257              		.loc 1 722 11
 1258 000e FB68     		ldr	r3, [r7, #12]
 1259 0010 93F83630 		ldrb	r3, [r3, #54]
 1260 0014 DBB2     		uxtb	r3, r3
 1261              		.loc 1 722 5
 1262 0016 202B     		cmp	r3, #32
 1263 0018 62D1     		bne	.L57
 723:./Libraries/STM32F4xx_HAL_Driver/Src/stm32f4xx_hal_irda.c ****   {
 724:./Libraries/STM32F4xx_HAL_Driver/Src/stm32f4xx_hal_irda.c ****     if((pData == NULL) || (Size == 0)) 
 1264              		.loc 1 724 15
 1265 001a BB68     		ldr	r3, [r7, #8]
 1266              		.loc 1 724 7
 1267 001c 002B     		cmp	r3, #0
 1268 001e 02D0     		beq	.L58
 1269              		.loc 1 724 24 discriminator 1
 1270 0020 FB88     		ldrh	r3, [r7, #6]
 1271 0022 002B     		cmp	r3, #0
 1272 0024 01D1     		bne	.L59
 1273              	.L58:
 725:./Libraries/STM32F4xx_HAL_Driver/Src/stm32f4xx_hal_irda.c ****     {
 726:./Libraries/STM32F4xx_HAL_Driver/Src/stm32f4xx_hal_irda.c ****       return HAL_ERROR;
 1274              		.loc 1 726 14
 1275 0026 0123     		movs	r3, #1
 1276 0028 5BE0     		b	.L60
 1277              	.L59:
 727:./Libraries/STM32F4xx_HAL_Driver/Src/stm32f4xx_hal_irda.c ****     }
 728:./Libraries/STM32F4xx_HAL_Driver/Src/stm32f4xx_hal_irda.c **** 
 729:./Libraries/STM32F4xx_HAL_Driver/Src/stm32f4xx_hal_irda.c ****     /* Process Locked */
 730:./Libraries/STM32F4xx_HAL_Driver/Src/stm32f4xx_hal_irda.c ****     __HAL_LOCK(hirda);
 1278              		.loc 1 730 5
 1279 002a FB68     		ldr	r3, [r7, #12]
 1280 002c 93F83430 		ldrb	r3, [r3, #52]	@ zero_extendqisi2
ARM GAS  /tmp/ccJhy18e.s 			page 36


 1281 0030 012B     		cmp	r3, #1
 1282 0032 01D1     		bne	.L61
 1283              		.loc 1 730 5 is_stmt 0 discriminator 1
 1284 0034 0223     		movs	r3, #2
 1285 0036 54E0     		b	.L60
 1286              	.L61:
 1287              		.loc 1 730 5 discriminator 2
 1288 0038 FB68     		ldr	r3, [r7, #12]
 1289 003a 0122     		movs	r2, #1
 1290 003c 83F83420 		strb	r2, [r3, #52]
 731:./Libraries/STM32F4xx_HAL_Driver/Src/stm32f4xx_hal_irda.c **** 
 732:./Libraries/STM32F4xx_HAL_Driver/Src/stm32f4xx_hal_irda.c ****     hirda->pRxBuffPtr = pData;
 1291              		.loc 1 732 23 is_stmt 1 discriminator 2
 1292 0040 BA68     		ldr	r2, [r7, #8]
 1293 0042 FB68     		ldr	r3, [r7, #12]
 1294 0044 5A62     		str	r2, [r3, #36]
 733:./Libraries/STM32F4xx_HAL_Driver/Src/stm32f4xx_hal_irda.c ****     hirda->RxXferSize = Size;   
 1295              		.loc 1 733 23 discriminator 2
 1296 0046 FB68     		ldr	r3, [r7, #12]
 1297 0048 FA88     		ldrh	r2, [r7, #6]	@ movhi
 1298 004a 1A85     		strh	r2, [r3, #40]	@ movhi
 734:./Libraries/STM32F4xx_HAL_Driver/Src/stm32f4xx_hal_irda.c ****     hirda->ErrorCode = HAL_IRDA_ERROR_NONE; 
 1299              		.loc 1 734 22 discriminator 2
 1300 004c FB68     		ldr	r3, [r7, #12]
 1301 004e 0022     		movs	r2, #0
 1302 0050 9A63     		str	r2, [r3, #56]
 735:./Libraries/STM32F4xx_HAL_Driver/Src/stm32f4xx_hal_irda.c ****     hirda->RxState = HAL_IRDA_STATE_BUSY_RX;
 1303              		.loc 1 735 20 discriminator 2
 1304 0052 FB68     		ldr	r3, [r7, #12]
 1305 0054 2222     		movs	r2, #34
 1306 0056 83F83620 		strb	r2, [r3, #54]
 736:./Libraries/STM32F4xx_HAL_Driver/Src/stm32f4xx_hal_irda.c **** 
 737:./Libraries/STM32F4xx_HAL_Driver/Src/stm32f4xx_hal_irda.c ****     /* Set the IRDA DMA transfer complete callback */
 738:./Libraries/STM32F4xx_HAL_Driver/Src/stm32f4xx_hal_irda.c ****     hirda->hdmarx->XferCpltCallback = IRDA_DMAReceiveCplt;
 1307              		.loc 1 738 10 discriminator 2
 1308 005a FB68     		ldr	r3, [r7, #12]
 1309 005c 1B6B     		ldr	r3, [r3, #48]
 1310              		.loc 1 738 37 discriminator 2
 1311 005e 234A     		ldr	r2, .L62
 1312 0060 DA63     		str	r2, [r3, #60]
 739:./Libraries/STM32F4xx_HAL_Driver/Src/stm32f4xx_hal_irda.c **** 
 740:./Libraries/STM32F4xx_HAL_Driver/Src/stm32f4xx_hal_irda.c ****     /* Set the IRDA DMA half transfer complete callback */
 741:./Libraries/STM32F4xx_HAL_Driver/Src/stm32f4xx_hal_irda.c ****     hirda->hdmarx->XferHalfCpltCallback = IRDA_DMAReceiveHalfCplt;
 1313              		.loc 1 741 10 discriminator 2
 1314 0062 FB68     		ldr	r3, [r7, #12]
 1315 0064 1B6B     		ldr	r3, [r3, #48]
 1316              		.loc 1 741 41 discriminator 2
 1317 0066 224A     		ldr	r2, .L62+4
 1318 0068 1A64     		str	r2, [r3, #64]
 742:./Libraries/STM32F4xx_HAL_Driver/Src/stm32f4xx_hal_irda.c **** 
 743:./Libraries/STM32F4xx_HAL_Driver/Src/stm32f4xx_hal_irda.c ****     /* Set the DMA error callback */
 744:./Libraries/STM32F4xx_HAL_Driver/Src/stm32f4xx_hal_irda.c ****     hirda->hdmarx->XferErrorCallback = IRDA_DMAError;
 1319              		.loc 1 744 10 discriminator 2
 1320 006a FB68     		ldr	r3, [r7, #12]
 1321 006c 1B6B     		ldr	r3, [r3, #48]
 1322              		.loc 1 744 38 discriminator 2
 1323 006e 214A     		ldr	r2, .L62+8
ARM GAS  /tmp/ccJhy18e.s 			page 37


 1324 0070 DA64     		str	r2, [r3, #76]
 745:./Libraries/STM32F4xx_HAL_Driver/Src/stm32f4xx_hal_irda.c **** 
 746:./Libraries/STM32F4xx_HAL_Driver/Src/stm32f4xx_hal_irda.c ****     /* Set the DMA abort callback */
 747:./Libraries/STM32F4xx_HAL_Driver/Src/stm32f4xx_hal_irda.c ****     hirda->hdmarx->XferAbortCallback = NULL;
 1325              		.loc 1 747 10 discriminator 2
 1326 0072 FB68     		ldr	r3, [r7, #12]
 1327 0074 1B6B     		ldr	r3, [r3, #48]
 1328              		.loc 1 747 38 discriminator 2
 1329 0076 0022     		movs	r2, #0
 1330 0078 1A65     		str	r2, [r3, #80]
 748:./Libraries/STM32F4xx_HAL_Driver/Src/stm32f4xx_hal_irda.c **** 
 749:./Libraries/STM32F4xx_HAL_Driver/Src/stm32f4xx_hal_irda.c ****     /* Enable the DMA Stream */
 750:./Libraries/STM32F4xx_HAL_Driver/Src/stm32f4xx_hal_irda.c ****     tmp = (uint32_t*)&pData;
 1331              		.loc 1 750 9 discriminator 2
 1332 007a 07F10803 		add	r3, r7, #8
 1333 007e 7B61     		str	r3, [r7, #20]
 751:./Libraries/STM32F4xx_HAL_Driver/Src/stm32f4xx_hal_irda.c ****     HAL_DMA_Start_IT(hirda->hdmarx, (uint32_t)&hirda->Instance->DR, *(uint32_t*)tmp, Size);
 1334              		.loc 1 751 5 discriminator 2
 1335 0080 FB68     		ldr	r3, [r7, #12]
 1336 0082 186B     		ldr	r0, [r3, #48]
 1337              		.loc 1 751 53 discriminator 2
 1338 0084 FB68     		ldr	r3, [r7, #12]
 1339 0086 1B68     		ldr	r3, [r3]
 1340              		.loc 1 751 47 discriminator 2
 1341 0088 0433     		adds	r3, r3, #4
 1342              		.loc 1 751 5 discriminator 2
 1343 008a 1946     		mov	r1, r3
 1344 008c 7B69     		ldr	r3, [r7, #20]
 1345 008e 1A68     		ldr	r2, [r3]
 1346 0090 FB88     		ldrh	r3, [r7, #6]
 1347 0092 FFF7FEFF 		bl	HAL_DMA_Start_IT
 1348              	.LBB2:
 752:./Libraries/STM32F4xx_HAL_Driver/Src/stm32f4xx_hal_irda.c **** 	
 753:./Libraries/STM32F4xx_HAL_Driver/Src/stm32f4xx_hal_irda.c ****     /* Clear the Overrun flag just before enabling the DMA Rx request: can be mandatory for the sec
 754:./Libraries/STM32F4xx_HAL_Driver/Src/stm32f4xx_hal_irda.c ****     __HAL_IRDA_CLEAR_OREFLAG(hirda);
 1349              		.loc 1 754 5 discriminator 2
 1350 0096 0023     		movs	r3, #0
 1351 0098 3B61     		str	r3, [r7, #16]
 1352 009a FB68     		ldr	r3, [r7, #12]
 1353 009c 1B68     		ldr	r3, [r3]
 1354 009e 1B68     		ldr	r3, [r3]
 1355 00a0 3B61     		str	r3, [r7, #16]
 1356 00a2 3B69     		ldr	r3, [r7, #16]
 1357              	.LBE2:
 755:./Libraries/STM32F4xx_HAL_Driver/Src/stm32f4xx_hal_irda.c **** 
 756:./Libraries/STM32F4xx_HAL_Driver/Src/stm32f4xx_hal_irda.c ****     /* Process Unlocked */
 757:./Libraries/STM32F4xx_HAL_Driver/Src/stm32f4xx_hal_irda.c ****     __HAL_UNLOCK(hirda);
 1358              		.loc 1 757 5 discriminator 2
 1359 00a4 FB68     		ldr	r3, [r7, #12]
 1360 00a6 0022     		movs	r2, #0
 1361 00a8 83F83420 		strb	r2, [r3, #52]
 758:./Libraries/STM32F4xx_HAL_Driver/Src/stm32f4xx_hal_irda.c **** 
 759:./Libraries/STM32F4xx_HAL_Driver/Src/stm32f4xx_hal_irda.c ****     /* Enable the IRDA Parity Error Interrupt */
 760:./Libraries/STM32F4xx_HAL_Driver/Src/stm32f4xx_hal_irda.c ****     SET_BIT(hirda->Instance->CR1, USART_CR1_PEIE);
 1362              		.loc 1 760 5 discriminator 2
 1363 00ac FB68     		ldr	r3, [r7, #12]
 1364 00ae 1B68     		ldr	r3, [r3]
ARM GAS  /tmp/ccJhy18e.s 			page 38


 1365 00b0 DA68     		ldr	r2, [r3, #12]
 1366 00b2 FB68     		ldr	r3, [r7, #12]
 1367 00b4 1B68     		ldr	r3, [r3]
 1368 00b6 42F48072 		orr	r2, r2, #256
 1369 00ba DA60     		str	r2, [r3, #12]
 761:./Libraries/STM32F4xx_HAL_Driver/Src/stm32f4xx_hal_irda.c **** 
 762:./Libraries/STM32F4xx_HAL_Driver/Src/stm32f4xx_hal_irda.c ****     /* Enable the IRDA Error Interrupt: (Frame error, noise error, overrun error) */
 763:./Libraries/STM32F4xx_HAL_Driver/Src/stm32f4xx_hal_irda.c ****     SET_BIT(hirda->Instance->CR3, USART_CR3_EIE);
 1370              		.loc 1 763 5 discriminator 2
 1371 00bc FB68     		ldr	r3, [r7, #12]
 1372 00be 1B68     		ldr	r3, [r3]
 1373 00c0 5A69     		ldr	r2, [r3, #20]
 1374 00c2 FB68     		ldr	r3, [r7, #12]
 1375 00c4 1B68     		ldr	r3, [r3]
 1376 00c6 42F00102 		orr	r2, r2, #1
 1377 00ca 5A61     		str	r2, [r3, #20]
 764:./Libraries/STM32F4xx_HAL_Driver/Src/stm32f4xx_hal_irda.c **** 
 765:./Libraries/STM32F4xx_HAL_Driver/Src/stm32f4xx_hal_irda.c ****     /* Enable the DMA transfer for the receiver request by setting the DMAR bit 
 766:./Libraries/STM32F4xx_HAL_Driver/Src/stm32f4xx_hal_irda.c ****     in the USART CR3 register */
 767:./Libraries/STM32F4xx_HAL_Driver/Src/stm32f4xx_hal_irda.c ****     SET_BIT(hirda->Instance->CR3, USART_CR3_DMAR);
 1378              		.loc 1 767 5 discriminator 2
 1379 00cc FB68     		ldr	r3, [r7, #12]
 1380 00ce 1B68     		ldr	r3, [r3]
 1381 00d0 5A69     		ldr	r2, [r3, #20]
 1382 00d2 FB68     		ldr	r3, [r7, #12]
 1383 00d4 1B68     		ldr	r3, [r3]
 1384 00d6 42F04002 		orr	r2, r2, #64
 1385 00da 5A61     		str	r2, [r3, #20]
 768:./Libraries/STM32F4xx_HAL_Driver/Src/stm32f4xx_hal_irda.c **** 
 769:./Libraries/STM32F4xx_HAL_Driver/Src/stm32f4xx_hal_irda.c ****     return HAL_OK;
 1386              		.loc 1 769 12 discriminator 2
 1387 00dc 0023     		movs	r3, #0
 1388 00de 00E0     		b	.L60
 1389              	.L57:
 770:./Libraries/STM32F4xx_HAL_Driver/Src/stm32f4xx_hal_irda.c ****   }
 771:./Libraries/STM32F4xx_HAL_Driver/Src/stm32f4xx_hal_irda.c ****   else
 772:./Libraries/STM32F4xx_HAL_Driver/Src/stm32f4xx_hal_irda.c ****   {
 773:./Libraries/STM32F4xx_HAL_Driver/Src/stm32f4xx_hal_irda.c ****     return HAL_BUSY;
 1390              		.loc 1 773 12
 1391 00e0 0223     		movs	r3, #2
 1392              	.L60:
 774:./Libraries/STM32F4xx_HAL_Driver/Src/stm32f4xx_hal_irda.c ****   }
 775:./Libraries/STM32F4xx_HAL_Driver/Src/stm32f4xx_hal_irda.c **** }
 1393              		.loc 1 775 1
 1394 00e2 1846     		mov	r0, r3
 1395 00e4 1837     		adds	r7, r7, #24
 1396              	.LCFI52:
 1397              		.cfi_def_cfa_offset 8
 1398 00e6 BD46     		mov	sp, r7
 1399              	.LCFI53:
 1400              		.cfi_def_cfa_register 13
 1401              		@ sp needed
 1402 00e8 80BD     		pop	{r7, pc}
 1403              	.L63:
 1404 00ea 00BF     		.align	2
 1405              	.L62:
 1406 00ec 00000000 		.word	IRDA_DMAReceiveCplt
ARM GAS  /tmp/ccJhy18e.s 			page 39


 1407 00f0 00000000 		.word	IRDA_DMAReceiveHalfCplt
 1408 00f4 00000000 		.word	IRDA_DMAError
 1409              		.cfi_endproc
 1410              	.LFE135:
 1412              		.section	.text.HAL_IRDA_DMAPause,"ax",%progbits
 1413              		.align	1
 1414              		.global	HAL_IRDA_DMAPause
 1415              		.syntax unified
 1416              		.thumb
 1417              		.thumb_func
 1418              		.fpu fpv4-sp-d16
 1420              	HAL_IRDA_DMAPause:
 1421              	.LFB136:
 776:./Libraries/STM32F4xx_HAL_Driver/Src/stm32f4xx_hal_irda.c ****     
 777:./Libraries/STM32F4xx_HAL_Driver/Src/stm32f4xx_hal_irda.c **** /**
 778:./Libraries/STM32F4xx_HAL_Driver/Src/stm32f4xx_hal_irda.c ****   * @brief Pauses the DMA Transfer.
 779:./Libraries/STM32F4xx_HAL_Driver/Src/stm32f4xx_hal_irda.c ****   * @param  hirda pointer to a IRDA_HandleTypeDef structure that contains
 780:./Libraries/STM32F4xx_HAL_Driver/Src/stm32f4xx_hal_irda.c ****   *                the configuration information for the specified IRDA module.
 781:./Libraries/STM32F4xx_HAL_Driver/Src/stm32f4xx_hal_irda.c ****   * @retval HAL status
 782:./Libraries/STM32F4xx_HAL_Driver/Src/stm32f4xx_hal_irda.c ****   */
 783:./Libraries/STM32F4xx_HAL_Driver/Src/stm32f4xx_hal_irda.c **** HAL_StatusTypeDef HAL_IRDA_DMAPause(IRDA_HandleTypeDef *hirda)
 784:./Libraries/STM32F4xx_HAL_Driver/Src/stm32f4xx_hal_irda.c **** {
 1422              		.loc 1 784 1
 1423              		.cfi_startproc
 1424              		@ args = 0, pretend = 0, frame = 16
 1425              		@ frame_needed = 1, uses_anonymous_args = 0
 1426              		@ link register save eliminated.
 1427 0000 80B4     		push	{r7}
 1428              	.LCFI54:
 1429              		.cfi_def_cfa_offset 4
 1430              		.cfi_offset 7, -4
 1431 0002 85B0     		sub	sp, sp, #20
 1432              	.LCFI55:
 1433              		.cfi_def_cfa_offset 24
 1434 0004 00AF     		add	r7, sp, #0
 1435              	.LCFI56:
 1436              		.cfi_def_cfa_register 7
 1437 0006 7860     		str	r0, [r7, #4]
 785:./Libraries/STM32F4xx_HAL_Driver/Src/stm32f4xx_hal_irda.c ****   uint32_t dmarequest = 0x00U;
 1438              		.loc 1 785 12
 1439 0008 0023     		movs	r3, #0
 1440 000a FB60     		str	r3, [r7, #12]
 786:./Libraries/STM32F4xx_HAL_Driver/Src/stm32f4xx_hal_irda.c **** 
 787:./Libraries/STM32F4xx_HAL_Driver/Src/stm32f4xx_hal_irda.c ****   /* Process Locked */
 788:./Libraries/STM32F4xx_HAL_Driver/Src/stm32f4xx_hal_irda.c ****   __HAL_LOCK(hirda);
 1441              		.loc 1 788 3
 1442 000c 7B68     		ldr	r3, [r7, #4]
 1443 000e 93F83430 		ldrb	r3, [r3, #52]	@ zero_extendqisi2
 1444 0012 012B     		cmp	r3, #1
 1445 0014 01D1     		bne	.L65
 1446              		.loc 1 788 3 is_stmt 0 discriminator 1
 1447 0016 0223     		movs	r3, #2
 1448 0018 50E0     		b	.L66
 1449              	.L65:
 1450              		.loc 1 788 3 discriminator 2
 1451 001a 7B68     		ldr	r3, [r7, #4]
 1452 001c 0122     		movs	r2, #1
ARM GAS  /tmp/ccJhy18e.s 			page 40


 1453 001e 83F83420 		strb	r2, [r3, #52]
 789:./Libraries/STM32F4xx_HAL_Driver/Src/stm32f4xx_hal_irda.c ****   
 790:./Libraries/STM32F4xx_HAL_Driver/Src/stm32f4xx_hal_irda.c ****   dmarequest = HAL_IS_BIT_SET(hirda->Instance->CR3, USART_CR3_DMAT);
 1454              		.loc 1 790 16 is_stmt 1 discriminator 2
 1455 0022 7B68     		ldr	r3, [r7, #4]
 1456 0024 1B68     		ldr	r3, [r3]
 1457 0026 5B69     		ldr	r3, [r3, #20]
 1458 0028 03F08003 		and	r3, r3, #128
 1459 002c 002B     		cmp	r3, #0
 1460 002e 14BF     		ite	ne
 1461 0030 0123     		movne	r3, #1
 1462 0032 0023     		moveq	r3, #0
 1463 0034 DBB2     		uxtb	r3, r3
 1464              		.loc 1 790 14 discriminator 2
 1465 0036 FB60     		str	r3, [r7, #12]
 791:./Libraries/STM32F4xx_HAL_Driver/Src/stm32f4xx_hal_irda.c ****   if((hirda->gState == HAL_IRDA_STATE_BUSY_TX) && dmarequest)
 1466              		.loc 1 791 12 discriminator 2
 1467 0038 7B68     		ldr	r3, [r7, #4]
 1468 003a 93F83530 		ldrb	r3, [r3, #53]
 1469 003e DBB2     		uxtb	r3, r3
 1470              		.loc 1 791 5 discriminator 2
 1471 0040 212B     		cmp	r3, #33
 1472 0042 0AD1     		bne	.L67
 1473              		.loc 1 791 48 discriminator 1
 1474 0044 FB68     		ldr	r3, [r7, #12]
 1475 0046 002B     		cmp	r3, #0
 1476 0048 07D0     		beq	.L67
 792:./Libraries/STM32F4xx_HAL_Driver/Src/stm32f4xx_hal_irda.c ****   {
 793:./Libraries/STM32F4xx_HAL_Driver/Src/stm32f4xx_hal_irda.c ****     /* Disable the IRDA DMA Tx request */
 794:./Libraries/STM32F4xx_HAL_Driver/Src/stm32f4xx_hal_irda.c ****     CLEAR_BIT(hirda->Instance->CR3, USART_CR3_DMAT);
 1477              		.loc 1 794 5
 1478 004a 7B68     		ldr	r3, [r7, #4]
 1479 004c 1B68     		ldr	r3, [r3]
 1480 004e 5A69     		ldr	r2, [r3, #20]
 1481 0050 7B68     		ldr	r3, [r7, #4]
 1482 0052 1B68     		ldr	r3, [r3]
 1483 0054 22F08002 		bic	r2, r2, #128
 1484 0058 5A61     		str	r2, [r3, #20]
 1485              	.L67:
 795:./Libraries/STM32F4xx_HAL_Driver/Src/stm32f4xx_hal_irda.c ****   }
 796:./Libraries/STM32F4xx_HAL_Driver/Src/stm32f4xx_hal_irda.c ****   
 797:./Libraries/STM32F4xx_HAL_Driver/Src/stm32f4xx_hal_irda.c ****   dmarequest = HAL_IS_BIT_SET(hirda->Instance->CR3, USART_CR3_DMAR);
 1486              		.loc 1 797 16
 1487 005a 7B68     		ldr	r3, [r7, #4]
 1488 005c 1B68     		ldr	r3, [r3]
 1489 005e 5B69     		ldr	r3, [r3, #20]
 1490 0060 03F04003 		and	r3, r3, #64
 1491 0064 002B     		cmp	r3, #0
 1492 0066 14BF     		ite	ne
 1493 0068 0123     		movne	r3, #1
 1494 006a 0023     		moveq	r3, #0
 1495 006c DBB2     		uxtb	r3, r3
 1496              		.loc 1 797 14
 1497 006e FB60     		str	r3, [r7, #12]
 798:./Libraries/STM32F4xx_HAL_Driver/Src/stm32f4xx_hal_irda.c ****   if((hirda->RxState == HAL_IRDA_STATE_BUSY_RX) && dmarequest)
 1498              		.loc 1 798 12
 1499 0070 7B68     		ldr	r3, [r7, #4]
ARM GAS  /tmp/ccJhy18e.s 			page 41


 1500 0072 93F83630 		ldrb	r3, [r3, #54]
 1501 0076 DBB2     		uxtb	r3, r3
 1502              		.loc 1 798 5
 1503 0078 222B     		cmp	r3, #34
 1504 007a 1AD1     		bne	.L68
 1505              		.loc 1 798 49 discriminator 1
 1506 007c FB68     		ldr	r3, [r7, #12]
 1507 007e 002B     		cmp	r3, #0
 1508 0080 17D0     		beq	.L68
 799:./Libraries/STM32F4xx_HAL_Driver/Src/stm32f4xx_hal_irda.c ****   {
 800:./Libraries/STM32F4xx_HAL_Driver/Src/stm32f4xx_hal_irda.c ****     /* Disable PE and ERR (Frame error, noise error, overrun error) interrupts */
 801:./Libraries/STM32F4xx_HAL_Driver/Src/stm32f4xx_hal_irda.c ****     CLEAR_BIT(hirda->Instance->CR1, USART_CR1_PEIE);
 1509              		.loc 1 801 5
 1510 0082 7B68     		ldr	r3, [r7, #4]
 1511 0084 1B68     		ldr	r3, [r3]
 1512 0086 DA68     		ldr	r2, [r3, #12]
 1513 0088 7B68     		ldr	r3, [r7, #4]
 1514 008a 1B68     		ldr	r3, [r3]
 1515 008c 22F48072 		bic	r2, r2, #256
 1516 0090 DA60     		str	r2, [r3, #12]
 802:./Libraries/STM32F4xx_HAL_Driver/Src/stm32f4xx_hal_irda.c ****     CLEAR_BIT(hirda->Instance->CR3, USART_CR3_EIE);
 1517              		.loc 1 802 5
 1518 0092 7B68     		ldr	r3, [r7, #4]
 1519 0094 1B68     		ldr	r3, [r3]
 1520 0096 5A69     		ldr	r2, [r3, #20]
 1521 0098 7B68     		ldr	r3, [r7, #4]
 1522 009a 1B68     		ldr	r3, [r3]
 1523 009c 22F00102 		bic	r2, r2, #1
 1524 00a0 5A61     		str	r2, [r3, #20]
 803:./Libraries/STM32F4xx_HAL_Driver/Src/stm32f4xx_hal_irda.c ****     
 804:./Libraries/STM32F4xx_HAL_Driver/Src/stm32f4xx_hal_irda.c ****     /* Disable the IRDA DMA Rx request */
 805:./Libraries/STM32F4xx_HAL_Driver/Src/stm32f4xx_hal_irda.c ****     CLEAR_BIT(hirda->Instance->CR3, USART_CR3_DMAR);
 1525              		.loc 1 805 5
 1526 00a2 7B68     		ldr	r3, [r7, #4]
 1527 00a4 1B68     		ldr	r3, [r3]
 1528 00a6 5A69     		ldr	r2, [r3, #20]
 1529 00a8 7B68     		ldr	r3, [r7, #4]
 1530 00aa 1B68     		ldr	r3, [r3]
 1531 00ac 22F04002 		bic	r2, r2, #64
 1532 00b0 5A61     		str	r2, [r3, #20]
 1533              	.L68:
 806:./Libraries/STM32F4xx_HAL_Driver/Src/stm32f4xx_hal_irda.c ****   }
 807:./Libraries/STM32F4xx_HAL_Driver/Src/stm32f4xx_hal_irda.c ****   
 808:./Libraries/STM32F4xx_HAL_Driver/Src/stm32f4xx_hal_irda.c ****   /* Process Unlocked */
 809:./Libraries/STM32F4xx_HAL_Driver/Src/stm32f4xx_hal_irda.c ****   __HAL_UNLOCK(hirda);
 1534              		.loc 1 809 3
 1535 00b2 7B68     		ldr	r3, [r7, #4]
 1536 00b4 0022     		movs	r2, #0
 1537 00b6 83F83420 		strb	r2, [r3, #52]
 810:./Libraries/STM32F4xx_HAL_Driver/Src/stm32f4xx_hal_irda.c ****   
 811:./Libraries/STM32F4xx_HAL_Driver/Src/stm32f4xx_hal_irda.c ****   return HAL_OK;
 1538              		.loc 1 811 10
 1539 00ba 0023     		movs	r3, #0
 1540              	.L66:
 812:./Libraries/STM32F4xx_HAL_Driver/Src/stm32f4xx_hal_irda.c **** }
 1541              		.loc 1 812 1
 1542 00bc 1846     		mov	r0, r3
ARM GAS  /tmp/ccJhy18e.s 			page 42


 1543 00be 1437     		adds	r7, r7, #20
 1544              	.LCFI57:
 1545              		.cfi_def_cfa_offset 4
 1546 00c0 BD46     		mov	sp, r7
 1547              	.LCFI58:
 1548              		.cfi_def_cfa_register 13
 1549              		@ sp needed
 1550 00c2 5DF8047B 		ldr	r7, [sp], #4
 1551              	.LCFI59:
 1552              		.cfi_restore 7
 1553              		.cfi_def_cfa_offset 0
 1554 00c6 7047     		bx	lr
 1555              		.cfi_endproc
 1556              	.LFE136:
 1558              		.section	.text.HAL_IRDA_DMAResume,"ax",%progbits
 1559              		.align	1
 1560              		.global	HAL_IRDA_DMAResume
 1561              		.syntax unified
 1562              		.thumb
 1563              		.thumb_func
 1564              		.fpu fpv4-sp-d16
 1566              	HAL_IRDA_DMAResume:
 1567              	.LFB137:
 813:./Libraries/STM32F4xx_HAL_Driver/Src/stm32f4xx_hal_irda.c **** 
 814:./Libraries/STM32F4xx_HAL_Driver/Src/stm32f4xx_hal_irda.c **** /**
 815:./Libraries/STM32F4xx_HAL_Driver/Src/stm32f4xx_hal_irda.c ****   * @brief Resumes the DMA Transfer.
 816:./Libraries/STM32F4xx_HAL_Driver/Src/stm32f4xx_hal_irda.c ****   * @param  hirda pointer to a IRDA_HandleTypeDef structure that contains
 817:./Libraries/STM32F4xx_HAL_Driver/Src/stm32f4xx_hal_irda.c ****   *                the configuration information for the specified IRDA module.
 818:./Libraries/STM32F4xx_HAL_Driver/Src/stm32f4xx_hal_irda.c ****   * @retval HAL status
 819:./Libraries/STM32F4xx_HAL_Driver/Src/stm32f4xx_hal_irda.c ****   */
 820:./Libraries/STM32F4xx_HAL_Driver/Src/stm32f4xx_hal_irda.c **** HAL_StatusTypeDef HAL_IRDA_DMAResume(IRDA_HandleTypeDef *hirda)
 821:./Libraries/STM32F4xx_HAL_Driver/Src/stm32f4xx_hal_irda.c **** {
 1568              		.loc 1 821 1
 1569              		.cfi_startproc
 1570              		@ args = 0, pretend = 0, frame = 16
 1571              		@ frame_needed = 1, uses_anonymous_args = 0
 1572              		@ link register save eliminated.
 1573 0000 80B4     		push	{r7}
 1574              	.LCFI60:
 1575              		.cfi_def_cfa_offset 4
 1576              		.cfi_offset 7, -4
 1577 0002 85B0     		sub	sp, sp, #20
 1578              	.LCFI61:
 1579              		.cfi_def_cfa_offset 24
 1580 0004 00AF     		add	r7, sp, #0
 1581              	.LCFI62:
 1582              		.cfi_def_cfa_register 7
 1583 0006 7860     		str	r0, [r7, #4]
 822:./Libraries/STM32F4xx_HAL_Driver/Src/stm32f4xx_hal_irda.c ****   /* Process Locked */
 823:./Libraries/STM32F4xx_HAL_Driver/Src/stm32f4xx_hal_irda.c ****   __HAL_LOCK(hirda);
 1584              		.loc 1 823 3
 1585 0008 7B68     		ldr	r3, [r7, #4]
 1586 000a 93F83430 		ldrb	r3, [r3, #52]	@ zero_extendqisi2
 1587 000e 012B     		cmp	r3, #1
 1588 0010 01D1     		bne	.L70
 1589              		.loc 1 823 3 is_stmt 0 discriminator 1
 1590 0012 0223     		movs	r3, #2
ARM GAS  /tmp/ccJhy18e.s 			page 43


 1591 0014 3BE0     		b	.L71
 1592              	.L70:
 1593              		.loc 1 823 3 discriminator 2
 1594 0016 7B68     		ldr	r3, [r7, #4]
 1595 0018 0122     		movs	r2, #1
 1596 001a 83F83420 		strb	r2, [r3, #52]
 824:./Libraries/STM32F4xx_HAL_Driver/Src/stm32f4xx_hal_irda.c ****   
 825:./Libraries/STM32F4xx_HAL_Driver/Src/stm32f4xx_hal_irda.c ****   if(hirda->gState == HAL_IRDA_STATE_BUSY_TX)
 1597              		.loc 1 825 11 is_stmt 1 discriminator 2
 1598 001e 7B68     		ldr	r3, [r7, #4]
 1599 0020 93F83530 		ldrb	r3, [r3, #53]
 1600 0024 DBB2     		uxtb	r3, r3
 1601              		.loc 1 825 5 discriminator 2
 1602 0026 212B     		cmp	r3, #33
 1603 0028 07D1     		bne	.L72
 826:./Libraries/STM32F4xx_HAL_Driver/Src/stm32f4xx_hal_irda.c ****   {
 827:./Libraries/STM32F4xx_HAL_Driver/Src/stm32f4xx_hal_irda.c ****     /* Enable the IRDA DMA Tx request */
 828:./Libraries/STM32F4xx_HAL_Driver/Src/stm32f4xx_hal_irda.c ****     SET_BIT(hirda->Instance->CR3, USART_CR3_DMAT);
 1604              		.loc 1 828 5
 1605 002a 7B68     		ldr	r3, [r7, #4]
 1606 002c 1B68     		ldr	r3, [r3]
 1607 002e 5A69     		ldr	r2, [r3, #20]
 1608 0030 7B68     		ldr	r3, [r7, #4]
 1609 0032 1B68     		ldr	r3, [r3]
 1610 0034 42F08002 		orr	r2, r2, #128
 1611 0038 5A61     		str	r2, [r3, #20]
 1612              	.L72:
 829:./Libraries/STM32F4xx_HAL_Driver/Src/stm32f4xx_hal_irda.c ****   }
 830:./Libraries/STM32F4xx_HAL_Driver/Src/stm32f4xx_hal_irda.c ****   if(hirda->RxState == HAL_IRDA_STATE_BUSY_RX)
 1613              		.loc 1 830 11
 1614 003a 7B68     		ldr	r3, [r7, #4]
 1615 003c 93F83630 		ldrb	r3, [r3, #54]
 1616 0040 DBB2     		uxtb	r3, r3
 1617              		.loc 1 830 5
 1618 0042 222B     		cmp	r3, #34
 1619 0044 1ED1     		bne	.L73
 1620              	.LBB3:
 831:./Libraries/STM32F4xx_HAL_Driver/Src/stm32f4xx_hal_irda.c ****   {
 832:./Libraries/STM32F4xx_HAL_Driver/Src/stm32f4xx_hal_irda.c ****     /* Clear the Overrun flag before resuming the Rx transfer */
 833:./Libraries/STM32F4xx_HAL_Driver/Src/stm32f4xx_hal_irda.c ****     __HAL_IRDA_CLEAR_OREFLAG(hirda);
 1621              		.loc 1 833 5
 1622 0046 0023     		movs	r3, #0
 1623 0048 FB60     		str	r3, [r7, #12]
 1624 004a 7B68     		ldr	r3, [r7, #4]
 1625 004c 1B68     		ldr	r3, [r3]
 1626 004e 1B68     		ldr	r3, [r3]
 1627 0050 FB60     		str	r3, [r7, #12]
 1628 0052 FB68     		ldr	r3, [r7, #12]
 1629              	.LBE3:
 834:./Libraries/STM32F4xx_HAL_Driver/Src/stm32f4xx_hal_irda.c ****     
 835:./Libraries/STM32F4xx_HAL_Driver/Src/stm32f4xx_hal_irda.c ****     /* Reenable PE and ERR (Frame error, noise error, overrun error) interrupts */
 836:./Libraries/STM32F4xx_HAL_Driver/Src/stm32f4xx_hal_irda.c ****     SET_BIT(hirda->Instance->CR1, USART_CR1_PEIE);
 1630              		.loc 1 836 5
 1631 0054 7B68     		ldr	r3, [r7, #4]
 1632 0056 1B68     		ldr	r3, [r3]
 1633 0058 DA68     		ldr	r2, [r3, #12]
 1634 005a 7B68     		ldr	r3, [r7, #4]
ARM GAS  /tmp/ccJhy18e.s 			page 44


 1635 005c 1B68     		ldr	r3, [r3]
 1636 005e 42F48072 		orr	r2, r2, #256
 1637 0062 DA60     		str	r2, [r3, #12]
 837:./Libraries/STM32F4xx_HAL_Driver/Src/stm32f4xx_hal_irda.c ****     SET_BIT(hirda->Instance->CR3, USART_CR3_EIE);
 1638              		.loc 1 837 5
 1639 0064 7B68     		ldr	r3, [r7, #4]
 1640 0066 1B68     		ldr	r3, [r3]
 1641 0068 5A69     		ldr	r2, [r3, #20]
 1642 006a 7B68     		ldr	r3, [r7, #4]
 1643 006c 1B68     		ldr	r3, [r3]
 1644 006e 42F00102 		orr	r2, r2, #1
 1645 0072 5A61     		str	r2, [r3, #20]
 838:./Libraries/STM32F4xx_HAL_Driver/Src/stm32f4xx_hal_irda.c ****     
 839:./Libraries/STM32F4xx_HAL_Driver/Src/stm32f4xx_hal_irda.c ****     /* Enable the IRDA DMA Rx request */
 840:./Libraries/STM32F4xx_HAL_Driver/Src/stm32f4xx_hal_irda.c ****     SET_BIT(hirda->Instance->CR3, USART_CR3_DMAR);
 1646              		.loc 1 840 5
 1647 0074 7B68     		ldr	r3, [r7, #4]
 1648 0076 1B68     		ldr	r3, [r3]
 1649 0078 5A69     		ldr	r2, [r3, #20]
 1650 007a 7B68     		ldr	r3, [r7, #4]
 1651 007c 1B68     		ldr	r3, [r3]
 1652 007e 42F04002 		orr	r2, r2, #64
 1653 0082 5A61     		str	r2, [r3, #20]
 1654              	.L73:
 841:./Libraries/STM32F4xx_HAL_Driver/Src/stm32f4xx_hal_irda.c ****   }
 842:./Libraries/STM32F4xx_HAL_Driver/Src/stm32f4xx_hal_irda.c ****   
 843:./Libraries/STM32F4xx_HAL_Driver/Src/stm32f4xx_hal_irda.c ****   /* Process Unlocked */
 844:./Libraries/STM32F4xx_HAL_Driver/Src/stm32f4xx_hal_irda.c ****   __HAL_UNLOCK(hirda);
 1655              		.loc 1 844 3
 1656 0084 7B68     		ldr	r3, [r7, #4]
 1657 0086 0022     		movs	r2, #0
 1658 0088 83F83420 		strb	r2, [r3, #52]
 845:./Libraries/STM32F4xx_HAL_Driver/Src/stm32f4xx_hal_irda.c ****   
 846:./Libraries/STM32F4xx_HAL_Driver/Src/stm32f4xx_hal_irda.c ****   return HAL_OK;
 1659              		.loc 1 846 10
 1660 008c 0023     		movs	r3, #0
 1661              	.L71:
 847:./Libraries/STM32F4xx_HAL_Driver/Src/stm32f4xx_hal_irda.c **** }
 1662              		.loc 1 847 1
 1663 008e 1846     		mov	r0, r3
 1664 0090 1437     		adds	r7, r7, #20
 1665              	.LCFI63:
 1666              		.cfi_def_cfa_offset 4
 1667 0092 BD46     		mov	sp, r7
 1668              	.LCFI64:
 1669              		.cfi_def_cfa_register 13
 1670              		@ sp needed
 1671 0094 5DF8047B 		ldr	r7, [sp], #4
 1672              	.LCFI65:
 1673              		.cfi_restore 7
 1674              		.cfi_def_cfa_offset 0
 1675 0098 7047     		bx	lr
 1676              		.cfi_endproc
 1677              	.LFE137:
 1679              		.section	.text.HAL_IRDA_DMAStop,"ax",%progbits
 1680              		.align	1
 1681              		.global	HAL_IRDA_DMAStop
ARM GAS  /tmp/ccJhy18e.s 			page 45


 1682              		.syntax unified
 1683              		.thumb
 1684              		.thumb_func
 1685              		.fpu fpv4-sp-d16
 1687              	HAL_IRDA_DMAStop:
 1688              	.LFB138:
 848:./Libraries/STM32F4xx_HAL_Driver/Src/stm32f4xx_hal_irda.c **** 
 849:./Libraries/STM32F4xx_HAL_Driver/Src/stm32f4xx_hal_irda.c **** /**
 850:./Libraries/STM32F4xx_HAL_Driver/Src/stm32f4xx_hal_irda.c ****   * @brief Stops the DMA Transfer.
 851:./Libraries/STM32F4xx_HAL_Driver/Src/stm32f4xx_hal_irda.c ****   * @param  hirda pointer to a IRDA_HandleTypeDef structure that contains
 852:./Libraries/STM32F4xx_HAL_Driver/Src/stm32f4xx_hal_irda.c ****   *                the configuration information for the specified IRDA module.
 853:./Libraries/STM32F4xx_HAL_Driver/Src/stm32f4xx_hal_irda.c ****   * @retval HAL status
 854:./Libraries/STM32F4xx_HAL_Driver/Src/stm32f4xx_hal_irda.c ****   */
 855:./Libraries/STM32F4xx_HAL_Driver/Src/stm32f4xx_hal_irda.c **** HAL_StatusTypeDef HAL_IRDA_DMAStop(IRDA_HandleTypeDef *hirda)
 856:./Libraries/STM32F4xx_HAL_Driver/Src/stm32f4xx_hal_irda.c **** {
 1689              		.loc 1 856 1
 1690              		.cfi_startproc
 1691              		@ args = 0, pretend = 0, frame = 16
 1692              		@ frame_needed = 1, uses_anonymous_args = 0
 1693 0000 80B5     		push	{r7, lr}
 1694              	.LCFI66:
 1695              		.cfi_def_cfa_offset 8
 1696              		.cfi_offset 7, -8
 1697              		.cfi_offset 14, -4
 1698 0002 84B0     		sub	sp, sp, #16
 1699              	.LCFI67:
 1700              		.cfi_def_cfa_offset 24
 1701 0004 00AF     		add	r7, sp, #0
 1702              	.LCFI68:
 1703              		.cfi_def_cfa_register 7
 1704 0006 7860     		str	r0, [r7, #4]
 857:./Libraries/STM32F4xx_HAL_Driver/Src/stm32f4xx_hal_irda.c ****   uint32_t dmarequest = 0x00U;
 1705              		.loc 1 857 12
 1706 0008 0023     		movs	r3, #0
 1707 000a FB60     		str	r3, [r7, #12]
 858:./Libraries/STM32F4xx_HAL_Driver/Src/stm32f4xx_hal_irda.c ****   /* The Lock is not implemented on this API to allow the user application
 859:./Libraries/STM32F4xx_HAL_Driver/Src/stm32f4xx_hal_irda.c ****   to call the HAL IRDA API under callbacks HAL_IRDA_TxCpltCallback() / HAL_IRDA_RxCpltCallback():
 860:./Libraries/STM32F4xx_HAL_Driver/Src/stm32f4xx_hal_irda.c ****   when calling HAL_DMA_Abort() API the DMA TX/RX Transfer complete interrupt is generated
 861:./Libraries/STM32F4xx_HAL_Driver/Src/stm32f4xx_hal_irda.c ****   and the correspond call back is executed HAL_IRDA_TxCpltCallback() / HAL_IRDA_RxCpltCallback()
 862:./Libraries/STM32F4xx_HAL_Driver/Src/stm32f4xx_hal_irda.c ****   */
 863:./Libraries/STM32F4xx_HAL_Driver/Src/stm32f4xx_hal_irda.c ****   
 864:./Libraries/STM32F4xx_HAL_Driver/Src/stm32f4xx_hal_irda.c ****   /* Stop IRDA DMA Tx request if ongoing */
 865:./Libraries/STM32F4xx_HAL_Driver/Src/stm32f4xx_hal_irda.c ****   dmarequest = HAL_IS_BIT_SET(hirda->Instance->CR3, USART_CR3_DMAT);
 1708              		.loc 1 865 16
 1709 000c 7B68     		ldr	r3, [r7, #4]
 1710 000e 1B68     		ldr	r3, [r3]
 1711 0010 5B69     		ldr	r3, [r3, #20]
 1712 0012 03F08003 		and	r3, r3, #128
 1713 0016 002B     		cmp	r3, #0
 1714 0018 14BF     		ite	ne
 1715 001a 0123     		movne	r3, #1
 1716 001c 0023     		moveq	r3, #0
 1717 001e DBB2     		uxtb	r3, r3
 1718              		.loc 1 865 14
 1719 0020 FB60     		str	r3, [r7, #12]
 866:./Libraries/STM32F4xx_HAL_Driver/Src/stm32f4xx_hal_irda.c ****   if((hirda->gState == HAL_IRDA_STATE_BUSY_TX) && dmarequest)
 1720              		.loc 1 866 12
ARM GAS  /tmp/ccJhy18e.s 			page 46


 1721 0022 7B68     		ldr	r3, [r7, #4]
 1722 0024 93F83530 		ldrb	r3, [r3, #53]
 1723 0028 DBB2     		uxtb	r3, r3
 1724              		.loc 1 866 5
 1725 002a 212B     		cmp	r3, #33
 1726 002c 16D1     		bne	.L75
 1727              		.loc 1 866 48 discriminator 1
 1728 002e FB68     		ldr	r3, [r7, #12]
 1729 0030 002B     		cmp	r3, #0
 1730 0032 13D0     		beq	.L75
 867:./Libraries/STM32F4xx_HAL_Driver/Src/stm32f4xx_hal_irda.c ****   {
 868:./Libraries/STM32F4xx_HAL_Driver/Src/stm32f4xx_hal_irda.c ****     CLEAR_BIT(hirda->Instance->CR3, USART_CR3_DMAT);
 1731              		.loc 1 868 5
 1732 0034 7B68     		ldr	r3, [r7, #4]
 1733 0036 1B68     		ldr	r3, [r3]
 1734 0038 5A69     		ldr	r2, [r3, #20]
 1735 003a 7B68     		ldr	r3, [r7, #4]
 1736 003c 1B68     		ldr	r3, [r3]
 1737 003e 22F08002 		bic	r2, r2, #128
 1738 0042 5A61     		str	r2, [r3, #20]
 869:./Libraries/STM32F4xx_HAL_Driver/Src/stm32f4xx_hal_irda.c ****     
 870:./Libraries/STM32F4xx_HAL_Driver/Src/stm32f4xx_hal_irda.c ****     /* Abort the IRDA DMA Tx channel */
 871:./Libraries/STM32F4xx_HAL_Driver/Src/stm32f4xx_hal_irda.c ****     if(hirda->hdmatx != NULL)
 1739              		.loc 1 871 13
 1740 0044 7B68     		ldr	r3, [r7, #4]
 1741 0046 DB6A     		ldr	r3, [r3, #44]
 1742              		.loc 1 871 7
 1743 0048 002B     		cmp	r3, #0
 1744 004a 04D0     		beq	.L76
 872:./Libraries/STM32F4xx_HAL_Driver/Src/stm32f4xx_hal_irda.c ****     {
 873:./Libraries/STM32F4xx_HAL_Driver/Src/stm32f4xx_hal_irda.c ****       HAL_DMA_Abort(hirda->hdmatx);
 1745              		.loc 1 873 7
 1746 004c 7B68     		ldr	r3, [r7, #4]
 1747 004e DB6A     		ldr	r3, [r3, #44]
 1748 0050 1846     		mov	r0, r3
 1749 0052 FFF7FEFF 		bl	HAL_DMA_Abort
 1750              	.L76:
 874:./Libraries/STM32F4xx_HAL_Driver/Src/stm32f4xx_hal_irda.c ****     }
 875:./Libraries/STM32F4xx_HAL_Driver/Src/stm32f4xx_hal_irda.c ****     IRDA_EndTxTransfer(hirda);
 1751              		.loc 1 875 5
 1752 0056 7868     		ldr	r0, [r7, #4]
 1753 0058 FFF7FEFF 		bl	IRDA_EndTxTransfer
 1754              	.L75:
 876:./Libraries/STM32F4xx_HAL_Driver/Src/stm32f4xx_hal_irda.c ****   }
 877:./Libraries/STM32F4xx_HAL_Driver/Src/stm32f4xx_hal_irda.c **** 
 878:./Libraries/STM32F4xx_HAL_Driver/Src/stm32f4xx_hal_irda.c ****   /* Stop IRDA DMA Rx request if ongoing */
 879:./Libraries/STM32F4xx_HAL_Driver/Src/stm32f4xx_hal_irda.c ****   dmarequest = HAL_IS_BIT_SET(hirda->Instance->CR3, USART_CR3_DMAR);
 1755              		.loc 1 879 16
 1756 005c 7B68     		ldr	r3, [r7, #4]
 1757 005e 1B68     		ldr	r3, [r3]
 1758 0060 5B69     		ldr	r3, [r3, #20]
 1759 0062 03F04003 		and	r3, r3, #64
 1760 0066 002B     		cmp	r3, #0
 1761 0068 14BF     		ite	ne
 1762 006a 0123     		movne	r3, #1
 1763 006c 0023     		moveq	r3, #0
 1764 006e DBB2     		uxtb	r3, r3
ARM GAS  /tmp/ccJhy18e.s 			page 47


 1765              		.loc 1 879 14
 1766 0070 FB60     		str	r3, [r7, #12]
 880:./Libraries/STM32F4xx_HAL_Driver/Src/stm32f4xx_hal_irda.c ****   if((hirda->RxState == HAL_IRDA_STATE_BUSY_RX) && dmarequest)
 1767              		.loc 1 880 12
 1768 0072 7B68     		ldr	r3, [r7, #4]
 1769 0074 93F83630 		ldrb	r3, [r3, #54]
 1770 0078 DBB2     		uxtb	r3, r3
 1771              		.loc 1 880 5
 1772 007a 222B     		cmp	r3, #34
 1773 007c 16D1     		bne	.L77
 1774              		.loc 1 880 49 discriminator 1
 1775 007e FB68     		ldr	r3, [r7, #12]
 1776 0080 002B     		cmp	r3, #0
 1777 0082 13D0     		beq	.L77
 881:./Libraries/STM32F4xx_HAL_Driver/Src/stm32f4xx_hal_irda.c ****   {
 882:./Libraries/STM32F4xx_HAL_Driver/Src/stm32f4xx_hal_irda.c ****     CLEAR_BIT(hirda->Instance->CR3, USART_CR3_DMAR);
 1778              		.loc 1 882 5
 1779 0084 7B68     		ldr	r3, [r7, #4]
 1780 0086 1B68     		ldr	r3, [r3]
 1781 0088 5A69     		ldr	r2, [r3, #20]
 1782 008a 7B68     		ldr	r3, [r7, #4]
 1783 008c 1B68     		ldr	r3, [r3]
 1784 008e 22F04002 		bic	r2, r2, #64
 1785 0092 5A61     		str	r2, [r3, #20]
 883:./Libraries/STM32F4xx_HAL_Driver/Src/stm32f4xx_hal_irda.c ****     
 884:./Libraries/STM32F4xx_HAL_Driver/Src/stm32f4xx_hal_irda.c ****     /* Abort the IRDA DMA Rx channel */
 885:./Libraries/STM32F4xx_HAL_Driver/Src/stm32f4xx_hal_irda.c ****     if(hirda->hdmarx != NULL)
 1786              		.loc 1 885 13
 1787 0094 7B68     		ldr	r3, [r7, #4]
 1788 0096 1B6B     		ldr	r3, [r3, #48]
 1789              		.loc 1 885 7
 1790 0098 002B     		cmp	r3, #0
 1791 009a 04D0     		beq	.L78
 886:./Libraries/STM32F4xx_HAL_Driver/Src/stm32f4xx_hal_irda.c ****     {
 887:./Libraries/STM32F4xx_HAL_Driver/Src/stm32f4xx_hal_irda.c ****       HAL_DMA_Abort(hirda->hdmarx);
 1792              		.loc 1 887 7
 1793 009c 7B68     		ldr	r3, [r7, #4]
 1794 009e 1B6B     		ldr	r3, [r3, #48]
 1795 00a0 1846     		mov	r0, r3
 1796 00a2 FFF7FEFF 		bl	HAL_DMA_Abort
 1797              	.L78:
 888:./Libraries/STM32F4xx_HAL_Driver/Src/stm32f4xx_hal_irda.c ****     }
 889:./Libraries/STM32F4xx_HAL_Driver/Src/stm32f4xx_hal_irda.c ****     IRDA_EndRxTransfer(hirda);
 1798              		.loc 1 889 5
 1799 00a6 7868     		ldr	r0, [r7, #4]
 1800 00a8 FFF7FEFF 		bl	IRDA_EndRxTransfer
 1801              	.L77:
 890:./Libraries/STM32F4xx_HAL_Driver/Src/stm32f4xx_hal_irda.c ****   }
 891:./Libraries/STM32F4xx_HAL_Driver/Src/stm32f4xx_hal_irda.c ****   return HAL_OK;
 1802              		.loc 1 891 10
 1803 00ac 0023     		movs	r3, #0
 892:./Libraries/STM32F4xx_HAL_Driver/Src/stm32f4xx_hal_irda.c **** }
 1804              		.loc 1 892 1
 1805 00ae 1846     		mov	r0, r3
 1806 00b0 1037     		adds	r7, r7, #16
 1807              	.LCFI69:
 1808              		.cfi_def_cfa_offset 8
ARM GAS  /tmp/ccJhy18e.s 			page 48


 1809 00b2 BD46     		mov	sp, r7
 1810              	.LCFI70:
 1811              		.cfi_def_cfa_register 13
 1812              		@ sp needed
 1813 00b4 80BD     		pop	{r7, pc}
 1814              		.cfi_endproc
 1815              	.LFE138:
 1817              		.section	.text.HAL_IRDA_Abort,"ax",%progbits
 1818              		.align	1
 1819              		.global	HAL_IRDA_Abort
 1820              		.syntax unified
 1821              		.thumb
 1822              		.thumb_func
 1823              		.fpu fpv4-sp-d16
 1825              	HAL_IRDA_Abort:
 1826              	.LFB139:
 893:./Libraries/STM32F4xx_HAL_Driver/Src/stm32f4xx_hal_irda.c **** 
 894:./Libraries/STM32F4xx_HAL_Driver/Src/stm32f4xx_hal_irda.c **** /**
 895:./Libraries/STM32F4xx_HAL_Driver/Src/stm32f4xx_hal_irda.c ****   * @brief  Abort ongoing transfers (blocking mode).
 896:./Libraries/STM32F4xx_HAL_Driver/Src/stm32f4xx_hal_irda.c ****   * @param  hirda IRDA handle.
 897:./Libraries/STM32F4xx_HAL_Driver/Src/stm32f4xx_hal_irda.c ****   * @note   This procedure could be used for aborting any ongoing transfer started in Interrupt or 
 898:./Libraries/STM32F4xx_HAL_Driver/Src/stm32f4xx_hal_irda.c ****   *         This procedure performs following operations :
 899:./Libraries/STM32F4xx_HAL_Driver/Src/stm32f4xx_hal_irda.c ****   *           - Disable PPP Interrupts
 900:./Libraries/STM32F4xx_HAL_Driver/Src/stm32f4xx_hal_irda.c ****   *           - Disable the DMA transfer in the peripheral register (if enabled)
 901:./Libraries/STM32F4xx_HAL_Driver/Src/stm32f4xx_hal_irda.c ****   *           - Abort DMA transfer by calling HAL_DMA_Abort (in case of transfer in DMA mode)
 902:./Libraries/STM32F4xx_HAL_Driver/Src/stm32f4xx_hal_irda.c ****   *           - Set handle State to READY
 903:./Libraries/STM32F4xx_HAL_Driver/Src/stm32f4xx_hal_irda.c ****   * @note   This procedure is executed in blocking mode : when exiting function, Abort is considere
 904:./Libraries/STM32F4xx_HAL_Driver/Src/stm32f4xx_hal_irda.c ****   * @retval HAL status
 905:./Libraries/STM32F4xx_HAL_Driver/Src/stm32f4xx_hal_irda.c **** */
 906:./Libraries/STM32F4xx_HAL_Driver/Src/stm32f4xx_hal_irda.c **** HAL_StatusTypeDef HAL_IRDA_Abort(IRDA_HandleTypeDef *hirda)
 907:./Libraries/STM32F4xx_HAL_Driver/Src/stm32f4xx_hal_irda.c **** {
 1827              		.loc 1 907 1
 1828              		.cfi_startproc
 1829              		@ args = 0, pretend = 0, frame = 8
 1830              		@ frame_needed = 1, uses_anonymous_args = 0
 1831 0000 80B5     		push	{r7, lr}
 1832              	.LCFI71:
 1833              		.cfi_def_cfa_offset 8
 1834              		.cfi_offset 7, -8
 1835              		.cfi_offset 14, -4
 1836 0002 82B0     		sub	sp, sp, #8
 1837              	.LCFI72:
 1838              		.cfi_def_cfa_offset 16
 1839 0004 00AF     		add	r7, sp, #0
 1840              	.LCFI73:
 1841              		.cfi_def_cfa_register 7
 1842 0006 7860     		str	r0, [r7, #4]
 908:./Libraries/STM32F4xx_HAL_Driver/Src/stm32f4xx_hal_irda.c ****   /* Disable TXEIE, TCIE, RXNE, PE and ERR (Frame error, noise error, overrun error) interrupts */
 909:./Libraries/STM32F4xx_HAL_Driver/Src/stm32f4xx_hal_irda.c ****   CLEAR_BIT(hirda->Instance->CR1, (USART_CR1_RXNEIE | USART_CR1_PEIE | USART_CR1_TXEIE | USART_CR1_
 1843              		.loc 1 909 3
 1844 0008 7B68     		ldr	r3, [r7, #4]
 1845 000a 1B68     		ldr	r3, [r3]
 1846 000c DA68     		ldr	r2, [r3, #12]
 1847 000e 7B68     		ldr	r3, [r7, #4]
 1848 0010 1B68     		ldr	r3, [r3]
 1849 0012 22F4F072 		bic	r2, r2, #480
 1850 0016 DA60     		str	r2, [r3, #12]
ARM GAS  /tmp/ccJhy18e.s 			page 49


 910:./Libraries/STM32F4xx_HAL_Driver/Src/stm32f4xx_hal_irda.c ****   CLEAR_BIT(hirda->Instance->CR3, USART_CR3_EIE);
 1851              		.loc 1 910 3
 1852 0018 7B68     		ldr	r3, [r7, #4]
 1853 001a 1B68     		ldr	r3, [r3]
 1854 001c 5A69     		ldr	r2, [r3, #20]
 1855 001e 7B68     		ldr	r3, [r7, #4]
 1856 0020 1B68     		ldr	r3, [r3]
 1857 0022 22F00102 		bic	r2, r2, #1
 1858 0026 5A61     		str	r2, [r3, #20]
 911:./Libraries/STM32F4xx_HAL_Driver/Src/stm32f4xx_hal_irda.c ****   
 912:./Libraries/STM32F4xx_HAL_Driver/Src/stm32f4xx_hal_irda.c ****   /* Disable the IRDA DMA Tx request if enabled */
 913:./Libraries/STM32F4xx_HAL_Driver/Src/stm32f4xx_hal_irda.c ****   if(HAL_IS_BIT_SET(hirda->Instance->CR3, USART_CR3_DMAT))
 1859              		.loc 1 913 6
 1860 0028 7B68     		ldr	r3, [r7, #4]
 1861 002a 1B68     		ldr	r3, [r3]
 1862 002c 5B69     		ldr	r3, [r3, #20]
 1863 002e 03F08003 		and	r3, r3, #128
 1864              		.loc 1 913 5
 1865 0032 002B     		cmp	r3, #0
 1866 0034 14D0     		beq	.L81
 914:./Libraries/STM32F4xx_HAL_Driver/Src/stm32f4xx_hal_irda.c ****   {
 915:./Libraries/STM32F4xx_HAL_Driver/Src/stm32f4xx_hal_irda.c ****     CLEAR_BIT(hirda->Instance->CR3, USART_CR3_DMAT);
 1867              		.loc 1 915 5
 1868 0036 7B68     		ldr	r3, [r7, #4]
 1869 0038 1B68     		ldr	r3, [r3]
 1870 003a 5A69     		ldr	r2, [r3, #20]
 1871 003c 7B68     		ldr	r3, [r7, #4]
 1872 003e 1B68     		ldr	r3, [r3]
 1873 0040 22F08002 		bic	r2, r2, #128
 1874 0044 5A61     		str	r2, [r3, #20]
 916:./Libraries/STM32F4xx_HAL_Driver/Src/stm32f4xx_hal_irda.c **** 
 917:./Libraries/STM32F4xx_HAL_Driver/Src/stm32f4xx_hal_irda.c ****     /* Abort the IRDA DMA Tx channel : use blocking DMA Abort API (no callback) */
 918:./Libraries/STM32F4xx_HAL_Driver/Src/stm32f4xx_hal_irda.c ****     if(hirda->hdmatx != NULL)
 1875              		.loc 1 918 13
 1876 0046 7B68     		ldr	r3, [r7, #4]
 1877 0048 DB6A     		ldr	r3, [r3, #44]
 1878              		.loc 1 918 7
 1879 004a 002B     		cmp	r3, #0
 1880 004c 08D0     		beq	.L81
 919:./Libraries/STM32F4xx_HAL_Driver/Src/stm32f4xx_hal_irda.c ****     {
 920:./Libraries/STM32F4xx_HAL_Driver/Src/stm32f4xx_hal_irda.c ****       /* Set the IRDA DMA Abort callback to Null. 
 921:./Libraries/STM32F4xx_HAL_Driver/Src/stm32f4xx_hal_irda.c ****          No call back execution at end of DMA abort procedure */
 922:./Libraries/STM32F4xx_HAL_Driver/Src/stm32f4xx_hal_irda.c ****       hirda->hdmatx->XferAbortCallback = NULL;
 1881              		.loc 1 922 12
 1882 004e 7B68     		ldr	r3, [r7, #4]
 1883 0050 DB6A     		ldr	r3, [r3, #44]
 1884              		.loc 1 922 40
 1885 0052 0022     		movs	r2, #0
 1886 0054 1A65     		str	r2, [r3, #80]
 923:./Libraries/STM32F4xx_HAL_Driver/Src/stm32f4xx_hal_irda.c **** 
 924:./Libraries/STM32F4xx_HAL_Driver/Src/stm32f4xx_hal_irda.c ****       HAL_DMA_Abort(hirda->hdmatx);
 1887              		.loc 1 924 7
 1888 0056 7B68     		ldr	r3, [r7, #4]
 1889 0058 DB6A     		ldr	r3, [r3, #44]
 1890 005a 1846     		mov	r0, r3
 1891 005c FFF7FEFF 		bl	HAL_DMA_Abort
 1892              	.L81:
ARM GAS  /tmp/ccJhy18e.s 			page 50


 925:./Libraries/STM32F4xx_HAL_Driver/Src/stm32f4xx_hal_irda.c ****     }
 926:./Libraries/STM32F4xx_HAL_Driver/Src/stm32f4xx_hal_irda.c ****   }
 927:./Libraries/STM32F4xx_HAL_Driver/Src/stm32f4xx_hal_irda.c **** 
 928:./Libraries/STM32F4xx_HAL_Driver/Src/stm32f4xx_hal_irda.c ****   /* Disable the IRDA DMA Rx request if enabled */
 929:./Libraries/STM32F4xx_HAL_Driver/Src/stm32f4xx_hal_irda.c ****   if(HAL_IS_BIT_SET(hirda->Instance->CR3, USART_CR3_DMAR))
 1893              		.loc 1 929 6
 1894 0060 7B68     		ldr	r3, [r7, #4]
 1895 0062 1B68     		ldr	r3, [r3]
 1896 0064 5B69     		ldr	r3, [r3, #20]
 1897 0066 03F04003 		and	r3, r3, #64
 1898              		.loc 1 929 5
 1899 006a 002B     		cmp	r3, #0
 1900 006c 14D0     		beq	.L82
 930:./Libraries/STM32F4xx_HAL_Driver/Src/stm32f4xx_hal_irda.c ****   {
 931:./Libraries/STM32F4xx_HAL_Driver/Src/stm32f4xx_hal_irda.c ****     CLEAR_BIT(hirda->Instance->CR3, USART_CR3_DMAR);
 1901              		.loc 1 931 5
 1902 006e 7B68     		ldr	r3, [r7, #4]
 1903 0070 1B68     		ldr	r3, [r3]
 1904 0072 5A69     		ldr	r2, [r3, #20]
 1905 0074 7B68     		ldr	r3, [r7, #4]
 1906 0076 1B68     		ldr	r3, [r3]
 1907 0078 22F04002 		bic	r2, r2, #64
 1908 007c 5A61     		str	r2, [r3, #20]
 932:./Libraries/STM32F4xx_HAL_Driver/Src/stm32f4xx_hal_irda.c **** 
 933:./Libraries/STM32F4xx_HAL_Driver/Src/stm32f4xx_hal_irda.c ****     /* Abort the IRDA DMA Rx channel : use blocking DMA Abort API (no callback) */
 934:./Libraries/STM32F4xx_HAL_Driver/Src/stm32f4xx_hal_irda.c ****     if(hirda->hdmarx != NULL)
 1909              		.loc 1 934 13
 1910 007e 7B68     		ldr	r3, [r7, #4]
 1911 0080 1B6B     		ldr	r3, [r3, #48]
 1912              		.loc 1 934 7
 1913 0082 002B     		cmp	r3, #0
 1914 0084 08D0     		beq	.L82
 935:./Libraries/STM32F4xx_HAL_Driver/Src/stm32f4xx_hal_irda.c ****     {
 936:./Libraries/STM32F4xx_HAL_Driver/Src/stm32f4xx_hal_irda.c ****       /* Set the IRDA DMA Abort callback to Null. 
 937:./Libraries/STM32F4xx_HAL_Driver/Src/stm32f4xx_hal_irda.c ****          No call back execution at end of DMA abort procedure */
 938:./Libraries/STM32F4xx_HAL_Driver/Src/stm32f4xx_hal_irda.c ****       hirda->hdmarx->XferAbortCallback = NULL;
 1915              		.loc 1 938 12
 1916 0086 7B68     		ldr	r3, [r7, #4]
 1917 0088 1B6B     		ldr	r3, [r3, #48]
 1918              		.loc 1 938 40
 1919 008a 0022     		movs	r2, #0
 1920 008c 1A65     		str	r2, [r3, #80]
 939:./Libraries/STM32F4xx_HAL_Driver/Src/stm32f4xx_hal_irda.c **** 
 940:./Libraries/STM32F4xx_HAL_Driver/Src/stm32f4xx_hal_irda.c ****       HAL_DMA_Abort(hirda->hdmarx);
 1921              		.loc 1 940 7
 1922 008e 7B68     		ldr	r3, [r7, #4]
 1923 0090 1B6B     		ldr	r3, [r3, #48]
 1924 0092 1846     		mov	r0, r3
 1925 0094 FFF7FEFF 		bl	HAL_DMA_Abort
 1926              	.L82:
 941:./Libraries/STM32F4xx_HAL_Driver/Src/stm32f4xx_hal_irda.c ****     }
 942:./Libraries/STM32F4xx_HAL_Driver/Src/stm32f4xx_hal_irda.c ****   }
 943:./Libraries/STM32F4xx_HAL_Driver/Src/stm32f4xx_hal_irda.c **** 
 944:./Libraries/STM32F4xx_HAL_Driver/Src/stm32f4xx_hal_irda.c ****   /* Reset Tx and Rx transfer counters */
 945:./Libraries/STM32F4xx_HAL_Driver/Src/stm32f4xx_hal_irda.c ****   hirda->TxXferCount = 0x00U;
 1927              		.loc 1 945 22
 1928 0098 7B68     		ldr	r3, [r7, #4]
ARM GAS  /tmp/ccJhy18e.s 			page 51


 1929 009a 0022     		movs	r2, #0
 1930 009c 5A84     		strh	r2, [r3, #34]	@ movhi
 946:./Libraries/STM32F4xx_HAL_Driver/Src/stm32f4xx_hal_irda.c ****   hirda->RxXferCount = 0x00U;
 1931              		.loc 1 946 22
 1932 009e 7B68     		ldr	r3, [r7, #4]
 1933 00a0 0022     		movs	r2, #0
 1934 00a2 5A85     		strh	r2, [r3, #42]	@ movhi
 947:./Libraries/STM32F4xx_HAL_Driver/Src/stm32f4xx_hal_irda.c **** 
 948:./Libraries/STM32F4xx_HAL_Driver/Src/stm32f4xx_hal_irda.c ****   /* Reset ErrorCode */
 949:./Libraries/STM32F4xx_HAL_Driver/Src/stm32f4xx_hal_irda.c ****   hirda->ErrorCode = HAL_IRDA_ERROR_NONE;
 1935              		.loc 1 949 20
 1936 00a4 7B68     		ldr	r3, [r7, #4]
 1937 00a6 0022     		movs	r2, #0
 1938 00a8 9A63     		str	r2, [r3, #56]
 950:./Libraries/STM32F4xx_HAL_Driver/Src/stm32f4xx_hal_irda.c **** 
 951:./Libraries/STM32F4xx_HAL_Driver/Src/stm32f4xx_hal_irda.c ****   /* Restore hirda->RxState and hirda->gState to Ready */
 952:./Libraries/STM32F4xx_HAL_Driver/Src/stm32f4xx_hal_irda.c ****   hirda->RxState = HAL_IRDA_STATE_READY;
 1939              		.loc 1 952 18
 1940 00aa 7B68     		ldr	r3, [r7, #4]
 1941 00ac 2022     		movs	r2, #32
 1942 00ae 83F83620 		strb	r2, [r3, #54]
 953:./Libraries/STM32F4xx_HAL_Driver/Src/stm32f4xx_hal_irda.c ****   hirda->gState = HAL_IRDA_STATE_READY;
 1943              		.loc 1 953 17
 1944 00b2 7B68     		ldr	r3, [r7, #4]
 1945 00b4 2022     		movs	r2, #32
 1946 00b6 83F83520 		strb	r2, [r3, #53]
 954:./Libraries/STM32F4xx_HAL_Driver/Src/stm32f4xx_hal_irda.c **** 
 955:./Libraries/STM32F4xx_HAL_Driver/Src/stm32f4xx_hal_irda.c ****   return HAL_OK;
 1947              		.loc 1 955 10
 1948 00ba 0023     		movs	r3, #0
 956:./Libraries/STM32F4xx_HAL_Driver/Src/stm32f4xx_hal_irda.c **** }
 1949              		.loc 1 956 1
 1950 00bc 1846     		mov	r0, r3
 1951 00be 0837     		adds	r7, r7, #8
 1952              	.LCFI74:
 1953              		.cfi_def_cfa_offset 8
 1954 00c0 BD46     		mov	sp, r7
 1955              	.LCFI75:
 1956              		.cfi_def_cfa_register 13
 1957              		@ sp needed
 1958 00c2 80BD     		pop	{r7, pc}
 1959              		.cfi_endproc
 1960              	.LFE139:
 1962              		.section	.text.HAL_IRDA_AbortTransmit,"ax",%progbits
 1963              		.align	1
 1964              		.global	HAL_IRDA_AbortTransmit
 1965              		.syntax unified
 1966              		.thumb
 1967              		.thumb_func
 1968              		.fpu fpv4-sp-d16
 1970              	HAL_IRDA_AbortTransmit:
 1971              	.LFB140:
 957:./Libraries/STM32F4xx_HAL_Driver/Src/stm32f4xx_hal_irda.c **** 
 958:./Libraries/STM32F4xx_HAL_Driver/Src/stm32f4xx_hal_irda.c **** /**
 959:./Libraries/STM32F4xx_HAL_Driver/Src/stm32f4xx_hal_irda.c ****   * @brief  Abort ongoing Transmit transfer (blocking mode).
 960:./Libraries/STM32F4xx_HAL_Driver/Src/stm32f4xx_hal_irda.c ****   * @param  hirda IRDA handle.
 961:./Libraries/STM32F4xx_HAL_Driver/Src/stm32f4xx_hal_irda.c ****   * @note   This procedure could be used for aborting any ongoing transfer started in Interrupt or 
ARM GAS  /tmp/ccJhy18e.s 			page 52


 962:./Libraries/STM32F4xx_HAL_Driver/Src/stm32f4xx_hal_irda.c ****   *         This procedure performs following operations :
 963:./Libraries/STM32F4xx_HAL_Driver/Src/stm32f4xx_hal_irda.c ****   *           - Disable PPP Interrupts
 964:./Libraries/STM32F4xx_HAL_Driver/Src/stm32f4xx_hal_irda.c ****   *           - Disable the DMA transfer in the peripheral register (if enabled)
 965:./Libraries/STM32F4xx_HAL_Driver/Src/stm32f4xx_hal_irda.c ****   *           - Abort DMA transfer by calling HAL_DMA_Abort (in case of transfer in DMA mode)
 966:./Libraries/STM32F4xx_HAL_Driver/Src/stm32f4xx_hal_irda.c ****   *           - Set handle State to READY
 967:./Libraries/STM32F4xx_HAL_Driver/Src/stm32f4xx_hal_irda.c ****   * @note   This procedure is executed in blocking mode : when exiting function, Abort is considere
 968:./Libraries/STM32F4xx_HAL_Driver/Src/stm32f4xx_hal_irda.c ****   * @retval HAL status
 969:./Libraries/STM32F4xx_HAL_Driver/Src/stm32f4xx_hal_irda.c **** */
 970:./Libraries/STM32F4xx_HAL_Driver/Src/stm32f4xx_hal_irda.c **** HAL_StatusTypeDef HAL_IRDA_AbortTransmit(IRDA_HandleTypeDef *hirda)
 971:./Libraries/STM32F4xx_HAL_Driver/Src/stm32f4xx_hal_irda.c **** {
 1972              		.loc 1 971 1
 1973              		.cfi_startproc
 1974              		@ args = 0, pretend = 0, frame = 8
 1975              		@ frame_needed = 1, uses_anonymous_args = 0
 1976 0000 80B5     		push	{r7, lr}
 1977              	.LCFI76:
 1978              		.cfi_def_cfa_offset 8
 1979              		.cfi_offset 7, -8
 1980              		.cfi_offset 14, -4
 1981 0002 82B0     		sub	sp, sp, #8
 1982              	.LCFI77:
 1983              		.cfi_def_cfa_offset 16
 1984 0004 00AF     		add	r7, sp, #0
 1985              	.LCFI78:
 1986              		.cfi_def_cfa_register 7
 1987 0006 7860     		str	r0, [r7, #4]
 972:./Libraries/STM32F4xx_HAL_Driver/Src/stm32f4xx_hal_irda.c ****   /* Disable TXEIE and TCIE interrupts */
 973:./Libraries/STM32F4xx_HAL_Driver/Src/stm32f4xx_hal_irda.c ****   CLEAR_BIT(hirda->Instance->CR1, (USART_CR1_TXEIE | USART_CR1_TCIE));
 1988              		.loc 1 973 3
 1989 0008 7B68     		ldr	r3, [r7, #4]
 1990 000a 1B68     		ldr	r3, [r3]
 1991 000c DA68     		ldr	r2, [r3, #12]
 1992 000e 7B68     		ldr	r3, [r7, #4]
 1993 0010 1B68     		ldr	r3, [r3]
 1994 0012 22F0C002 		bic	r2, r2, #192
 1995 0016 DA60     		str	r2, [r3, #12]
 974:./Libraries/STM32F4xx_HAL_Driver/Src/stm32f4xx_hal_irda.c **** 
 975:./Libraries/STM32F4xx_HAL_Driver/Src/stm32f4xx_hal_irda.c ****   /* Disable the IRDA DMA Tx request if enabled */
 976:./Libraries/STM32F4xx_HAL_Driver/Src/stm32f4xx_hal_irda.c ****   if(HAL_IS_BIT_SET(hirda->Instance->CR3, USART_CR3_DMAT))
 1996              		.loc 1 976 6
 1997 0018 7B68     		ldr	r3, [r7, #4]
 1998 001a 1B68     		ldr	r3, [r3]
 1999 001c 5B69     		ldr	r3, [r3, #20]
 2000 001e 03F08003 		and	r3, r3, #128
 2001              		.loc 1 976 5
 2002 0022 002B     		cmp	r3, #0
 2003 0024 14D0     		beq	.L85
 977:./Libraries/STM32F4xx_HAL_Driver/Src/stm32f4xx_hal_irda.c ****   {
 978:./Libraries/STM32F4xx_HAL_Driver/Src/stm32f4xx_hal_irda.c ****     CLEAR_BIT(hirda->Instance->CR3, USART_CR3_DMAT);
 2004              		.loc 1 978 5
 2005 0026 7B68     		ldr	r3, [r7, #4]
 2006 0028 1B68     		ldr	r3, [r3]
 2007 002a 5A69     		ldr	r2, [r3, #20]
 2008 002c 7B68     		ldr	r3, [r7, #4]
 2009 002e 1B68     		ldr	r3, [r3]
 2010 0030 22F08002 		bic	r2, r2, #128
 2011 0034 5A61     		str	r2, [r3, #20]
ARM GAS  /tmp/ccJhy18e.s 			page 53


 979:./Libraries/STM32F4xx_HAL_Driver/Src/stm32f4xx_hal_irda.c **** 
 980:./Libraries/STM32F4xx_HAL_Driver/Src/stm32f4xx_hal_irda.c ****     /* Abort the IRDA DMA Tx channel : use blocking DMA Abort API (no callback) */
 981:./Libraries/STM32F4xx_HAL_Driver/Src/stm32f4xx_hal_irda.c ****     if(hirda->hdmatx != NULL)
 2012              		.loc 1 981 13
 2013 0036 7B68     		ldr	r3, [r7, #4]
 2014 0038 DB6A     		ldr	r3, [r3, #44]
 2015              		.loc 1 981 7
 2016 003a 002B     		cmp	r3, #0
 2017 003c 08D0     		beq	.L85
 982:./Libraries/STM32F4xx_HAL_Driver/Src/stm32f4xx_hal_irda.c ****     {
 983:./Libraries/STM32F4xx_HAL_Driver/Src/stm32f4xx_hal_irda.c ****       /* Set the IRDA DMA Abort callback to Null. 
 984:./Libraries/STM32F4xx_HAL_Driver/Src/stm32f4xx_hal_irda.c ****          No call back execution at end of DMA abort procedure */
 985:./Libraries/STM32F4xx_HAL_Driver/Src/stm32f4xx_hal_irda.c ****       hirda->hdmatx->XferAbortCallback = NULL;
 2018              		.loc 1 985 12
 2019 003e 7B68     		ldr	r3, [r7, #4]
 2020 0040 DB6A     		ldr	r3, [r3, #44]
 2021              		.loc 1 985 40
 2022 0042 0022     		movs	r2, #0
 2023 0044 1A65     		str	r2, [r3, #80]
 986:./Libraries/STM32F4xx_HAL_Driver/Src/stm32f4xx_hal_irda.c **** 
 987:./Libraries/STM32F4xx_HAL_Driver/Src/stm32f4xx_hal_irda.c ****       HAL_DMA_Abort(hirda->hdmatx);
 2024              		.loc 1 987 7
 2025 0046 7B68     		ldr	r3, [r7, #4]
 2026 0048 DB6A     		ldr	r3, [r3, #44]
 2027 004a 1846     		mov	r0, r3
 2028 004c FFF7FEFF 		bl	HAL_DMA_Abort
 2029              	.L85:
 988:./Libraries/STM32F4xx_HAL_Driver/Src/stm32f4xx_hal_irda.c ****     }
 989:./Libraries/STM32F4xx_HAL_Driver/Src/stm32f4xx_hal_irda.c ****   }
 990:./Libraries/STM32F4xx_HAL_Driver/Src/stm32f4xx_hal_irda.c **** 
 991:./Libraries/STM32F4xx_HAL_Driver/Src/stm32f4xx_hal_irda.c ****   /* Reset Tx transfer counter */
 992:./Libraries/STM32F4xx_HAL_Driver/Src/stm32f4xx_hal_irda.c ****   hirda->TxXferCount = 0x00U;
 2030              		.loc 1 992 22
 2031 0050 7B68     		ldr	r3, [r7, #4]
 2032 0052 0022     		movs	r2, #0
 2033 0054 5A84     		strh	r2, [r3, #34]	@ movhi
 993:./Libraries/STM32F4xx_HAL_Driver/Src/stm32f4xx_hal_irda.c **** 
 994:./Libraries/STM32F4xx_HAL_Driver/Src/stm32f4xx_hal_irda.c ****   /* Restore hirda->gState to Ready */
 995:./Libraries/STM32F4xx_HAL_Driver/Src/stm32f4xx_hal_irda.c ****   hirda->gState = HAL_IRDA_STATE_READY;
 2034              		.loc 1 995 17
 2035 0056 7B68     		ldr	r3, [r7, #4]
 2036 0058 2022     		movs	r2, #32
 2037 005a 83F83520 		strb	r2, [r3, #53]
 996:./Libraries/STM32F4xx_HAL_Driver/Src/stm32f4xx_hal_irda.c **** 
 997:./Libraries/STM32F4xx_HAL_Driver/Src/stm32f4xx_hal_irda.c ****   return HAL_OK;
 2038              		.loc 1 997 10
 2039 005e 0023     		movs	r3, #0
 998:./Libraries/STM32F4xx_HAL_Driver/Src/stm32f4xx_hal_irda.c **** }
 2040              		.loc 1 998 1
 2041 0060 1846     		mov	r0, r3
 2042 0062 0837     		adds	r7, r7, #8
 2043              	.LCFI79:
 2044              		.cfi_def_cfa_offset 8
 2045 0064 BD46     		mov	sp, r7
 2046              	.LCFI80:
 2047              		.cfi_def_cfa_register 13
 2048              		@ sp needed
ARM GAS  /tmp/ccJhy18e.s 			page 54


 2049 0066 80BD     		pop	{r7, pc}
 2050              		.cfi_endproc
 2051              	.LFE140:
 2053              		.section	.text.HAL_IRDA_AbortReceive,"ax",%progbits
 2054              		.align	1
 2055              		.global	HAL_IRDA_AbortReceive
 2056              		.syntax unified
 2057              		.thumb
 2058              		.thumb_func
 2059              		.fpu fpv4-sp-d16
 2061              	HAL_IRDA_AbortReceive:
 2062              	.LFB141:
 999:./Libraries/STM32F4xx_HAL_Driver/Src/stm32f4xx_hal_irda.c **** 
1000:./Libraries/STM32F4xx_HAL_Driver/Src/stm32f4xx_hal_irda.c **** /**
1001:./Libraries/STM32F4xx_HAL_Driver/Src/stm32f4xx_hal_irda.c ****   * @brief  Abort ongoing Receive transfer (blocking mode).
1002:./Libraries/STM32F4xx_HAL_Driver/Src/stm32f4xx_hal_irda.c ****   * @param  hirda IRDA handle.
1003:./Libraries/STM32F4xx_HAL_Driver/Src/stm32f4xx_hal_irda.c ****   * @note   This procedure could be used for aborting any ongoing transfer started in Interrupt or 
1004:./Libraries/STM32F4xx_HAL_Driver/Src/stm32f4xx_hal_irda.c ****   *         This procedure performs following operations :
1005:./Libraries/STM32F4xx_HAL_Driver/Src/stm32f4xx_hal_irda.c ****   *           - Disable PPP Interrupts
1006:./Libraries/STM32F4xx_HAL_Driver/Src/stm32f4xx_hal_irda.c ****   *           - Disable the DMA transfer in the peripheral register (if enabled)
1007:./Libraries/STM32F4xx_HAL_Driver/Src/stm32f4xx_hal_irda.c ****   *           - Abort DMA transfer by calling HAL_DMA_Abort (in case of transfer in DMA mode)
1008:./Libraries/STM32F4xx_HAL_Driver/Src/stm32f4xx_hal_irda.c ****   *           - Set handle State to READY
1009:./Libraries/STM32F4xx_HAL_Driver/Src/stm32f4xx_hal_irda.c ****   * @note   This procedure is executed in blocking mode : when exiting function, Abort is considere
1010:./Libraries/STM32F4xx_HAL_Driver/Src/stm32f4xx_hal_irda.c ****   * @retval HAL status
1011:./Libraries/STM32F4xx_HAL_Driver/Src/stm32f4xx_hal_irda.c **** */
1012:./Libraries/STM32F4xx_HAL_Driver/Src/stm32f4xx_hal_irda.c **** HAL_StatusTypeDef HAL_IRDA_AbortReceive(IRDA_HandleTypeDef *hirda)
1013:./Libraries/STM32F4xx_HAL_Driver/Src/stm32f4xx_hal_irda.c **** {
 2063              		.loc 1 1013 1
 2064              		.cfi_startproc
 2065              		@ args = 0, pretend = 0, frame = 8
 2066              		@ frame_needed = 1, uses_anonymous_args = 0
 2067 0000 80B5     		push	{r7, lr}
 2068              	.LCFI81:
 2069              		.cfi_def_cfa_offset 8
 2070              		.cfi_offset 7, -8
 2071              		.cfi_offset 14, -4
 2072 0002 82B0     		sub	sp, sp, #8
 2073              	.LCFI82:
 2074              		.cfi_def_cfa_offset 16
 2075 0004 00AF     		add	r7, sp, #0
 2076              	.LCFI83:
 2077              		.cfi_def_cfa_register 7
 2078 0006 7860     		str	r0, [r7, #4]
1014:./Libraries/STM32F4xx_HAL_Driver/Src/stm32f4xx_hal_irda.c ****   /* Disable RXNE, PE and ERR (Frame error, noise error, overrun error) interrupts */
1015:./Libraries/STM32F4xx_HAL_Driver/Src/stm32f4xx_hal_irda.c ****   CLEAR_BIT(hirda->Instance->CR1, (USART_CR1_RXNEIE | USART_CR1_PEIE));
 2079              		.loc 1 1015 3
 2080 0008 7B68     		ldr	r3, [r7, #4]
 2081 000a 1B68     		ldr	r3, [r3]
 2082 000c DA68     		ldr	r2, [r3, #12]
 2083 000e 7B68     		ldr	r3, [r7, #4]
 2084 0010 1B68     		ldr	r3, [r3]
 2085 0012 22F49072 		bic	r2, r2, #288
 2086 0016 DA60     		str	r2, [r3, #12]
1016:./Libraries/STM32F4xx_HAL_Driver/Src/stm32f4xx_hal_irda.c ****   CLEAR_BIT(hirda->Instance->CR3, USART_CR3_EIE);
 2087              		.loc 1 1016 3
 2088 0018 7B68     		ldr	r3, [r7, #4]
 2089 001a 1B68     		ldr	r3, [r3]
ARM GAS  /tmp/ccJhy18e.s 			page 55


 2090 001c 5A69     		ldr	r2, [r3, #20]
 2091 001e 7B68     		ldr	r3, [r7, #4]
 2092 0020 1B68     		ldr	r3, [r3]
 2093 0022 22F00102 		bic	r2, r2, #1
 2094 0026 5A61     		str	r2, [r3, #20]
1017:./Libraries/STM32F4xx_HAL_Driver/Src/stm32f4xx_hal_irda.c **** 
1018:./Libraries/STM32F4xx_HAL_Driver/Src/stm32f4xx_hal_irda.c ****   /* Disable the IRDA DMA Rx request if enabled */
1019:./Libraries/STM32F4xx_HAL_Driver/Src/stm32f4xx_hal_irda.c ****   if(HAL_IS_BIT_SET(hirda->Instance->CR3, USART_CR3_DMAR))
 2095              		.loc 1 1019 6
 2096 0028 7B68     		ldr	r3, [r7, #4]
 2097 002a 1B68     		ldr	r3, [r3]
 2098 002c 5B69     		ldr	r3, [r3, #20]
 2099 002e 03F04003 		and	r3, r3, #64
 2100              		.loc 1 1019 5
 2101 0032 002B     		cmp	r3, #0
 2102 0034 14D0     		beq	.L88
1020:./Libraries/STM32F4xx_HAL_Driver/Src/stm32f4xx_hal_irda.c ****   {
1021:./Libraries/STM32F4xx_HAL_Driver/Src/stm32f4xx_hal_irda.c ****     CLEAR_BIT(hirda->Instance->CR3, USART_CR3_DMAR);
 2103              		.loc 1 1021 5
 2104 0036 7B68     		ldr	r3, [r7, #4]
 2105 0038 1B68     		ldr	r3, [r3]
 2106 003a 5A69     		ldr	r2, [r3, #20]
 2107 003c 7B68     		ldr	r3, [r7, #4]
 2108 003e 1B68     		ldr	r3, [r3]
 2109 0040 22F04002 		bic	r2, r2, #64
 2110 0044 5A61     		str	r2, [r3, #20]
1022:./Libraries/STM32F4xx_HAL_Driver/Src/stm32f4xx_hal_irda.c **** 
1023:./Libraries/STM32F4xx_HAL_Driver/Src/stm32f4xx_hal_irda.c ****     /* Abort the IRDA DMA Rx channel : use blocking DMA Abort API (no callback) */
1024:./Libraries/STM32F4xx_HAL_Driver/Src/stm32f4xx_hal_irda.c ****     if(hirda->hdmarx != NULL)
 2111              		.loc 1 1024 13
 2112 0046 7B68     		ldr	r3, [r7, #4]
 2113 0048 1B6B     		ldr	r3, [r3, #48]
 2114              		.loc 1 1024 7
 2115 004a 002B     		cmp	r3, #0
 2116 004c 08D0     		beq	.L88
1025:./Libraries/STM32F4xx_HAL_Driver/Src/stm32f4xx_hal_irda.c ****     {
1026:./Libraries/STM32F4xx_HAL_Driver/Src/stm32f4xx_hal_irda.c ****       /* Set the IRDA DMA Abort callback to Null. 
1027:./Libraries/STM32F4xx_HAL_Driver/Src/stm32f4xx_hal_irda.c ****          No call back execution at end of DMA abort procedure */
1028:./Libraries/STM32F4xx_HAL_Driver/Src/stm32f4xx_hal_irda.c ****       hirda->hdmarx->XferAbortCallback = NULL;
 2117              		.loc 1 1028 12
 2118 004e 7B68     		ldr	r3, [r7, #4]
 2119 0050 1B6B     		ldr	r3, [r3, #48]
 2120              		.loc 1 1028 40
 2121 0052 0022     		movs	r2, #0
 2122 0054 1A65     		str	r2, [r3, #80]
1029:./Libraries/STM32F4xx_HAL_Driver/Src/stm32f4xx_hal_irda.c **** 
1030:./Libraries/STM32F4xx_HAL_Driver/Src/stm32f4xx_hal_irda.c ****       HAL_DMA_Abort(hirda->hdmarx);
 2123              		.loc 1 1030 7
 2124 0056 7B68     		ldr	r3, [r7, #4]
 2125 0058 1B6B     		ldr	r3, [r3, #48]
 2126 005a 1846     		mov	r0, r3
 2127 005c FFF7FEFF 		bl	HAL_DMA_Abort
 2128              	.L88:
1031:./Libraries/STM32F4xx_HAL_Driver/Src/stm32f4xx_hal_irda.c ****     }
1032:./Libraries/STM32F4xx_HAL_Driver/Src/stm32f4xx_hal_irda.c ****   }
1033:./Libraries/STM32F4xx_HAL_Driver/Src/stm32f4xx_hal_irda.c **** 
1034:./Libraries/STM32F4xx_HAL_Driver/Src/stm32f4xx_hal_irda.c ****   /* Reset Rx transfer counter */
ARM GAS  /tmp/ccJhy18e.s 			page 56


1035:./Libraries/STM32F4xx_HAL_Driver/Src/stm32f4xx_hal_irda.c ****   hirda->RxXferCount = 0x00U;
 2129              		.loc 1 1035 22
 2130 0060 7B68     		ldr	r3, [r7, #4]
 2131 0062 0022     		movs	r2, #0
 2132 0064 5A85     		strh	r2, [r3, #42]	@ movhi
1036:./Libraries/STM32F4xx_HAL_Driver/Src/stm32f4xx_hal_irda.c **** 
1037:./Libraries/STM32F4xx_HAL_Driver/Src/stm32f4xx_hal_irda.c ****   /* Restore hirda->RxState to Ready */
1038:./Libraries/STM32F4xx_HAL_Driver/Src/stm32f4xx_hal_irda.c ****   hirda->RxState = HAL_IRDA_STATE_READY;
 2133              		.loc 1 1038 18
 2134 0066 7B68     		ldr	r3, [r7, #4]
 2135 0068 2022     		movs	r2, #32
 2136 006a 83F83620 		strb	r2, [r3, #54]
1039:./Libraries/STM32F4xx_HAL_Driver/Src/stm32f4xx_hal_irda.c **** 
1040:./Libraries/STM32F4xx_HAL_Driver/Src/stm32f4xx_hal_irda.c ****   return HAL_OK;
 2137              		.loc 1 1040 10
 2138 006e 0023     		movs	r3, #0
1041:./Libraries/STM32F4xx_HAL_Driver/Src/stm32f4xx_hal_irda.c **** }
 2139              		.loc 1 1041 1
 2140 0070 1846     		mov	r0, r3
 2141 0072 0837     		adds	r7, r7, #8
 2142              	.LCFI84:
 2143              		.cfi_def_cfa_offset 8
 2144 0074 BD46     		mov	sp, r7
 2145              	.LCFI85:
 2146              		.cfi_def_cfa_register 13
 2147              		@ sp needed
 2148 0076 80BD     		pop	{r7, pc}
 2149              		.cfi_endproc
 2150              	.LFE141:
 2152              		.section	.text.HAL_IRDA_Abort_IT,"ax",%progbits
 2153              		.align	1
 2154              		.global	HAL_IRDA_Abort_IT
 2155              		.syntax unified
 2156              		.thumb
 2157              		.thumb_func
 2158              		.fpu fpv4-sp-d16
 2160              	HAL_IRDA_Abort_IT:
 2161              	.LFB142:
1042:./Libraries/STM32F4xx_HAL_Driver/Src/stm32f4xx_hal_irda.c **** 
1043:./Libraries/STM32F4xx_HAL_Driver/Src/stm32f4xx_hal_irda.c **** /**
1044:./Libraries/STM32F4xx_HAL_Driver/Src/stm32f4xx_hal_irda.c ****   * @brief  Abort ongoing transfers (Interrupt mode).
1045:./Libraries/STM32F4xx_HAL_Driver/Src/stm32f4xx_hal_irda.c ****   * @param  hirda IRDA handle.
1046:./Libraries/STM32F4xx_HAL_Driver/Src/stm32f4xx_hal_irda.c ****   * @note   This procedure could be used for aborting any ongoing transfer started in Interrupt or 
1047:./Libraries/STM32F4xx_HAL_Driver/Src/stm32f4xx_hal_irda.c ****   *         This procedure performs following operations :
1048:./Libraries/STM32F4xx_HAL_Driver/Src/stm32f4xx_hal_irda.c ****   *           - Disable PPP Interrupts
1049:./Libraries/STM32F4xx_HAL_Driver/Src/stm32f4xx_hal_irda.c ****   *           - Disable the DMA transfer in the peripheral register (if enabled)
1050:./Libraries/STM32F4xx_HAL_Driver/Src/stm32f4xx_hal_irda.c ****   *           - Abort DMA transfer by calling HAL_DMA_Abort_IT (in case of transfer in DMA mode)
1051:./Libraries/STM32F4xx_HAL_Driver/Src/stm32f4xx_hal_irda.c ****   *           - Set handle State to READY
1052:./Libraries/STM32F4xx_HAL_Driver/Src/stm32f4xx_hal_irda.c ****   *           - At abort completion, call user abort complete callback
1053:./Libraries/STM32F4xx_HAL_Driver/Src/stm32f4xx_hal_irda.c ****   * @note   This procedure is executed in Interrupt mode, meaning that abort procedure could be
1054:./Libraries/STM32F4xx_HAL_Driver/Src/stm32f4xx_hal_irda.c ****   *         considered as completed only when user abort complete callback is executed (not when ex
1055:./Libraries/STM32F4xx_HAL_Driver/Src/stm32f4xx_hal_irda.c ****   * @retval HAL status
1056:./Libraries/STM32F4xx_HAL_Driver/Src/stm32f4xx_hal_irda.c **** */
1057:./Libraries/STM32F4xx_HAL_Driver/Src/stm32f4xx_hal_irda.c **** HAL_StatusTypeDef HAL_IRDA_Abort_IT(IRDA_HandleTypeDef *hirda)
1058:./Libraries/STM32F4xx_HAL_Driver/Src/stm32f4xx_hal_irda.c **** {
 2162              		.loc 1 1058 1
 2163              		.cfi_startproc
ARM GAS  /tmp/ccJhy18e.s 			page 57


 2164              		@ args = 0, pretend = 0, frame = 16
 2165              		@ frame_needed = 1, uses_anonymous_args = 0
 2166 0000 80B5     		push	{r7, lr}
 2167              	.LCFI86:
 2168              		.cfi_def_cfa_offset 8
 2169              		.cfi_offset 7, -8
 2170              		.cfi_offset 14, -4
 2171 0002 84B0     		sub	sp, sp, #16
 2172              	.LCFI87:
 2173              		.cfi_def_cfa_offset 24
 2174 0004 00AF     		add	r7, sp, #0
 2175              	.LCFI88:
 2176              		.cfi_def_cfa_register 7
 2177 0006 7860     		str	r0, [r7, #4]
1059:./Libraries/STM32F4xx_HAL_Driver/Src/stm32f4xx_hal_irda.c ****     uint32_t AbortCplt = 1U;
 2178              		.loc 1 1059 14
 2179 0008 0123     		movs	r3, #1
 2180 000a FB60     		str	r3, [r7, #12]
1060:./Libraries/STM32F4xx_HAL_Driver/Src/stm32f4xx_hal_irda.c **** 
1061:./Libraries/STM32F4xx_HAL_Driver/Src/stm32f4xx_hal_irda.c ****   /* Disable TXEIE, TCIE, RXNE, PE and ERR (Frame error, noise error, overrun error) interrupts */
1062:./Libraries/STM32F4xx_HAL_Driver/Src/stm32f4xx_hal_irda.c ****   CLEAR_BIT(hirda->Instance->CR1, (USART_CR1_RXNEIE | USART_CR1_PEIE | USART_CR1_TXEIE | USART_CR1_
 2181              		.loc 1 1062 3
 2182 000c 7B68     		ldr	r3, [r7, #4]
 2183 000e 1B68     		ldr	r3, [r3]
 2184 0010 DA68     		ldr	r2, [r3, #12]
 2185 0012 7B68     		ldr	r3, [r7, #4]
 2186 0014 1B68     		ldr	r3, [r3]
 2187 0016 22F4F072 		bic	r2, r2, #480
 2188 001a DA60     		str	r2, [r3, #12]
1063:./Libraries/STM32F4xx_HAL_Driver/Src/stm32f4xx_hal_irda.c ****   CLEAR_BIT(hirda->Instance->CR3, USART_CR3_EIE);
 2189              		.loc 1 1063 3
 2190 001c 7B68     		ldr	r3, [r7, #4]
 2191 001e 1B68     		ldr	r3, [r3]
 2192 0020 5A69     		ldr	r2, [r3, #20]
 2193 0022 7B68     		ldr	r3, [r7, #4]
 2194 0024 1B68     		ldr	r3, [r3]
 2195 0026 22F00102 		bic	r2, r2, #1
 2196 002a 5A61     		str	r2, [r3, #20]
1064:./Libraries/STM32F4xx_HAL_Driver/Src/stm32f4xx_hal_irda.c **** 
1065:./Libraries/STM32F4xx_HAL_Driver/Src/stm32f4xx_hal_irda.c ****   /* If DMA Tx and/or DMA Rx Handles are associated to IRDA Handle, DMA Abort complete callbacks sh
1066:./Libraries/STM32F4xx_HAL_Driver/Src/stm32f4xx_hal_irda.c ****      before any call to DMA Abort functions */
1067:./Libraries/STM32F4xx_HAL_Driver/Src/stm32f4xx_hal_irda.c ****   /* DMA Tx Handle is valid */
1068:./Libraries/STM32F4xx_HAL_Driver/Src/stm32f4xx_hal_irda.c ****   if(hirda->hdmatx != NULL)
 2197              		.loc 1 1068 11
 2198 002c 7B68     		ldr	r3, [r7, #4]
 2199 002e DB6A     		ldr	r3, [r3, #44]
 2200              		.loc 1 1068 5
 2201 0030 002B     		cmp	r3, #0
 2202 0032 0FD0     		beq	.L91
1069:./Libraries/STM32F4xx_HAL_Driver/Src/stm32f4xx_hal_irda.c ****   {
1070:./Libraries/STM32F4xx_HAL_Driver/Src/stm32f4xx_hal_irda.c ****     /* Set DMA Abort Complete callback if IRDA DMA Tx request if enabled.
1071:./Libraries/STM32F4xx_HAL_Driver/Src/stm32f4xx_hal_irda.c ****        Otherwise, set it to NULL */
1072:./Libraries/STM32F4xx_HAL_Driver/Src/stm32f4xx_hal_irda.c ****     if(HAL_IS_BIT_SET(hirda->Instance->CR3, USART_CR3_DMAT))
 2203              		.loc 1 1072 8
 2204 0034 7B68     		ldr	r3, [r7, #4]
 2205 0036 1B68     		ldr	r3, [r3]
 2206 0038 5B69     		ldr	r3, [r3, #20]
ARM GAS  /tmp/ccJhy18e.s 			page 58


 2207 003a 03F08003 		and	r3, r3, #128
 2208              		.loc 1 1072 7
 2209 003e 002B     		cmp	r3, #0
 2210 0040 04D0     		beq	.L92
1073:./Libraries/STM32F4xx_HAL_Driver/Src/stm32f4xx_hal_irda.c ****     {
1074:./Libraries/STM32F4xx_HAL_Driver/Src/stm32f4xx_hal_irda.c ****       hirda->hdmatx->XferAbortCallback = IRDA_DMATxAbortCallback;
 2211              		.loc 1 1074 12
 2212 0042 7B68     		ldr	r3, [r7, #4]
 2213 0044 DB6A     		ldr	r3, [r3, #44]
 2214              		.loc 1 1074 40
 2215 0046 3E4A     		ldr	r2, .L101
 2216 0048 1A65     		str	r2, [r3, #80]
 2217 004a 03E0     		b	.L91
 2218              	.L92:
1075:./Libraries/STM32F4xx_HAL_Driver/Src/stm32f4xx_hal_irda.c ****     }
1076:./Libraries/STM32F4xx_HAL_Driver/Src/stm32f4xx_hal_irda.c ****     else
1077:./Libraries/STM32F4xx_HAL_Driver/Src/stm32f4xx_hal_irda.c ****     {
1078:./Libraries/STM32F4xx_HAL_Driver/Src/stm32f4xx_hal_irda.c ****       hirda->hdmatx->XferAbortCallback = NULL;
 2219              		.loc 1 1078 12
 2220 004c 7B68     		ldr	r3, [r7, #4]
 2221 004e DB6A     		ldr	r3, [r3, #44]
 2222              		.loc 1 1078 40
 2223 0050 0022     		movs	r2, #0
 2224 0052 1A65     		str	r2, [r3, #80]
 2225              	.L91:
1079:./Libraries/STM32F4xx_HAL_Driver/Src/stm32f4xx_hal_irda.c ****     }
1080:./Libraries/STM32F4xx_HAL_Driver/Src/stm32f4xx_hal_irda.c ****   }
1081:./Libraries/STM32F4xx_HAL_Driver/Src/stm32f4xx_hal_irda.c ****   /* DMA Rx Handle is valid */
1082:./Libraries/STM32F4xx_HAL_Driver/Src/stm32f4xx_hal_irda.c ****   if(hirda->hdmarx != NULL)
 2226              		.loc 1 1082 11
 2227 0054 7B68     		ldr	r3, [r7, #4]
 2228 0056 1B6B     		ldr	r3, [r3, #48]
 2229              		.loc 1 1082 5
 2230 0058 002B     		cmp	r3, #0
 2231 005a 0FD0     		beq	.L93
1083:./Libraries/STM32F4xx_HAL_Driver/Src/stm32f4xx_hal_irda.c ****   {
1084:./Libraries/STM32F4xx_HAL_Driver/Src/stm32f4xx_hal_irda.c ****     /* Set DMA Abort Complete callback if IRDA DMA Rx request if enabled.
1085:./Libraries/STM32F4xx_HAL_Driver/Src/stm32f4xx_hal_irda.c ****        Otherwise, set it to NULL */
1086:./Libraries/STM32F4xx_HAL_Driver/Src/stm32f4xx_hal_irda.c ****     if(HAL_IS_BIT_SET(hirda->Instance->CR3, USART_CR3_DMAR))
 2232              		.loc 1 1086 8
 2233 005c 7B68     		ldr	r3, [r7, #4]
 2234 005e 1B68     		ldr	r3, [r3]
 2235 0060 5B69     		ldr	r3, [r3, #20]
 2236 0062 03F04003 		and	r3, r3, #64
 2237              		.loc 1 1086 7
 2238 0066 002B     		cmp	r3, #0
 2239 0068 04D0     		beq	.L94
1087:./Libraries/STM32F4xx_HAL_Driver/Src/stm32f4xx_hal_irda.c ****     {
1088:./Libraries/STM32F4xx_HAL_Driver/Src/stm32f4xx_hal_irda.c ****       hirda->hdmarx->XferAbortCallback = IRDA_DMARxAbortCallback;
 2240              		.loc 1 1088 12
 2241 006a 7B68     		ldr	r3, [r7, #4]
 2242 006c 1B6B     		ldr	r3, [r3, #48]
 2243              		.loc 1 1088 40
 2244 006e 354A     		ldr	r2, .L101+4
 2245 0070 1A65     		str	r2, [r3, #80]
 2246 0072 03E0     		b	.L93
 2247              	.L94:
ARM GAS  /tmp/ccJhy18e.s 			page 59


1089:./Libraries/STM32F4xx_HAL_Driver/Src/stm32f4xx_hal_irda.c ****     }
1090:./Libraries/STM32F4xx_HAL_Driver/Src/stm32f4xx_hal_irda.c ****     else
1091:./Libraries/STM32F4xx_HAL_Driver/Src/stm32f4xx_hal_irda.c ****     {
1092:./Libraries/STM32F4xx_HAL_Driver/Src/stm32f4xx_hal_irda.c ****       hirda->hdmarx->XferAbortCallback = NULL;
 2248              		.loc 1 1092 12
 2249 0074 7B68     		ldr	r3, [r7, #4]
 2250 0076 1B6B     		ldr	r3, [r3, #48]
 2251              		.loc 1 1092 40
 2252 0078 0022     		movs	r2, #0
 2253 007a 1A65     		str	r2, [r3, #80]
 2254              	.L93:
1093:./Libraries/STM32F4xx_HAL_Driver/Src/stm32f4xx_hal_irda.c ****     }
1094:./Libraries/STM32F4xx_HAL_Driver/Src/stm32f4xx_hal_irda.c ****   }
1095:./Libraries/STM32F4xx_HAL_Driver/Src/stm32f4xx_hal_irda.c **** 
1096:./Libraries/STM32F4xx_HAL_Driver/Src/stm32f4xx_hal_irda.c ****   /* Disable the IRDA DMA Tx request if enabled */
1097:./Libraries/STM32F4xx_HAL_Driver/Src/stm32f4xx_hal_irda.c ****   if(HAL_IS_BIT_SET(hirda->Instance->CR3, USART_CR3_DMAT))
 2255              		.loc 1 1097 6
 2256 007c 7B68     		ldr	r3, [r7, #4]
 2257 007e 1B68     		ldr	r3, [r3]
 2258 0080 5B69     		ldr	r3, [r3, #20]
 2259 0082 03F08003 		and	r3, r3, #128
 2260              		.loc 1 1097 5
 2261 0086 002B     		cmp	r3, #0
 2262 0088 1AD0     		beq	.L95
1098:./Libraries/STM32F4xx_HAL_Driver/Src/stm32f4xx_hal_irda.c ****   {
1099:./Libraries/STM32F4xx_HAL_Driver/Src/stm32f4xx_hal_irda.c ****     /* Disable DMA Tx at IRDA level */
1100:./Libraries/STM32F4xx_HAL_Driver/Src/stm32f4xx_hal_irda.c ****     CLEAR_BIT(hirda->Instance->CR3, USART_CR3_DMAT);
 2263              		.loc 1 1100 5
 2264 008a 7B68     		ldr	r3, [r7, #4]
 2265 008c 1B68     		ldr	r3, [r3]
 2266 008e 5A69     		ldr	r2, [r3, #20]
 2267 0090 7B68     		ldr	r3, [r7, #4]
 2268 0092 1B68     		ldr	r3, [r3]
 2269 0094 22F08002 		bic	r2, r2, #128
 2270 0098 5A61     		str	r2, [r3, #20]
1101:./Libraries/STM32F4xx_HAL_Driver/Src/stm32f4xx_hal_irda.c **** 
1102:./Libraries/STM32F4xx_HAL_Driver/Src/stm32f4xx_hal_irda.c ****     /* Abort the IRDA DMA Tx channel : use non blocking DMA Abort API (callback) */
1103:./Libraries/STM32F4xx_HAL_Driver/Src/stm32f4xx_hal_irda.c ****     if(hirda->hdmatx != NULL)
 2271              		.loc 1 1103 13
 2272 009a 7B68     		ldr	r3, [r7, #4]
 2273 009c DB6A     		ldr	r3, [r3, #44]
 2274              		.loc 1 1103 7
 2275 009e 002B     		cmp	r3, #0
 2276 00a0 0ED0     		beq	.L95
1104:./Libraries/STM32F4xx_HAL_Driver/Src/stm32f4xx_hal_irda.c ****     {
1105:./Libraries/STM32F4xx_HAL_Driver/Src/stm32f4xx_hal_irda.c ****       /* IRDA Tx DMA Abort callback has already been initialised : 
1106:./Libraries/STM32F4xx_HAL_Driver/Src/stm32f4xx_hal_irda.c ****          will lead to call HAL_IRDA_AbortCpltCallback() at end of DMA abort procedure */
1107:./Libraries/STM32F4xx_HAL_Driver/Src/stm32f4xx_hal_irda.c **** 
1108:./Libraries/STM32F4xx_HAL_Driver/Src/stm32f4xx_hal_irda.c ****       /* Abort DMA TX */
1109:./Libraries/STM32F4xx_HAL_Driver/Src/stm32f4xx_hal_irda.c ****       if(HAL_DMA_Abort_IT(hirda->hdmatx) != HAL_OK)
 2277              		.loc 1 1109 10
 2278 00a2 7B68     		ldr	r3, [r7, #4]
 2279 00a4 DB6A     		ldr	r3, [r3, #44]
 2280 00a6 1846     		mov	r0, r3
 2281 00a8 FFF7FEFF 		bl	HAL_DMA_Abort_IT
 2282 00ac 0346     		mov	r3, r0
 2283              		.loc 1 1109 9
ARM GAS  /tmp/ccJhy18e.s 			page 60


 2284 00ae 002B     		cmp	r3, #0
 2285 00b0 04D0     		beq	.L96
1110:./Libraries/STM32F4xx_HAL_Driver/Src/stm32f4xx_hal_irda.c ****       {
1111:./Libraries/STM32F4xx_HAL_Driver/Src/stm32f4xx_hal_irda.c ****         hirda->hdmatx->XferAbortCallback = NULL;
 2286              		.loc 1 1111 14
 2287 00b2 7B68     		ldr	r3, [r7, #4]
 2288 00b4 DB6A     		ldr	r3, [r3, #44]
 2289              		.loc 1 1111 42
 2290 00b6 0022     		movs	r2, #0
 2291 00b8 1A65     		str	r2, [r3, #80]
 2292 00ba 01E0     		b	.L95
 2293              	.L96:
1112:./Libraries/STM32F4xx_HAL_Driver/Src/stm32f4xx_hal_irda.c ****       }
1113:./Libraries/STM32F4xx_HAL_Driver/Src/stm32f4xx_hal_irda.c ****       else
1114:./Libraries/STM32F4xx_HAL_Driver/Src/stm32f4xx_hal_irda.c ****       {
1115:./Libraries/STM32F4xx_HAL_Driver/Src/stm32f4xx_hal_irda.c ****         AbortCplt = 0x00U;
 2294              		.loc 1 1115 19
 2295 00bc 0023     		movs	r3, #0
 2296 00be FB60     		str	r3, [r7, #12]
 2297              	.L95:
1116:./Libraries/STM32F4xx_HAL_Driver/Src/stm32f4xx_hal_irda.c ****       }
1117:./Libraries/STM32F4xx_HAL_Driver/Src/stm32f4xx_hal_irda.c ****     }
1118:./Libraries/STM32F4xx_HAL_Driver/Src/stm32f4xx_hal_irda.c ****   }
1119:./Libraries/STM32F4xx_HAL_Driver/Src/stm32f4xx_hal_irda.c **** 
1120:./Libraries/STM32F4xx_HAL_Driver/Src/stm32f4xx_hal_irda.c ****   /* Disable the IRDA DMA Rx request if enabled */
1121:./Libraries/STM32F4xx_HAL_Driver/Src/stm32f4xx_hal_irda.c ****   if(HAL_IS_BIT_SET(hirda->Instance->CR3, USART_CR3_DMAR))
 2298              		.loc 1 1121 6
 2299 00c0 7B68     		ldr	r3, [r7, #4]
 2300 00c2 1B68     		ldr	r3, [r3]
 2301 00c4 5B69     		ldr	r3, [r3, #20]
 2302 00c6 03F04003 		and	r3, r3, #64
 2303              		.loc 1 1121 5
 2304 00ca 002B     		cmp	r3, #0
 2305 00cc 1CD0     		beq	.L97
1122:./Libraries/STM32F4xx_HAL_Driver/Src/stm32f4xx_hal_irda.c ****   {
1123:./Libraries/STM32F4xx_HAL_Driver/Src/stm32f4xx_hal_irda.c ****     CLEAR_BIT(hirda->Instance->CR3, USART_CR3_DMAR);
 2306              		.loc 1 1123 5
 2307 00ce 7B68     		ldr	r3, [r7, #4]
 2308 00d0 1B68     		ldr	r3, [r3]
 2309 00d2 5A69     		ldr	r2, [r3, #20]
 2310 00d4 7B68     		ldr	r3, [r7, #4]
 2311 00d6 1B68     		ldr	r3, [r3]
 2312 00d8 22F04002 		bic	r2, r2, #64
 2313 00dc 5A61     		str	r2, [r3, #20]
1124:./Libraries/STM32F4xx_HAL_Driver/Src/stm32f4xx_hal_irda.c **** 
1125:./Libraries/STM32F4xx_HAL_Driver/Src/stm32f4xx_hal_irda.c ****     /* Abort the IRDA DMA Rx channel : use non blocking DMA Abort API (callback) */
1126:./Libraries/STM32F4xx_HAL_Driver/Src/stm32f4xx_hal_irda.c ****     if(hirda->hdmarx != NULL)
 2314              		.loc 1 1126 13
 2315 00de 7B68     		ldr	r3, [r7, #4]
 2316 00e0 1B6B     		ldr	r3, [r3, #48]
 2317              		.loc 1 1126 7
 2318 00e2 002B     		cmp	r3, #0
 2319 00e4 10D0     		beq	.L97
1127:./Libraries/STM32F4xx_HAL_Driver/Src/stm32f4xx_hal_irda.c ****     {
1128:./Libraries/STM32F4xx_HAL_Driver/Src/stm32f4xx_hal_irda.c ****       /* IRDA Rx DMA Abort callback has already been initialised : 
1129:./Libraries/STM32F4xx_HAL_Driver/Src/stm32f4xx_hal_irda.c ****          will lead to call HAL_IRDA_AbortCpltCallback() at end of DMA abort procedure */
1130:./Libraries/STM32F4xx_HAL_Driver/Src/stm32f4xx_hal_irda.c **** 
ARM GAS  /tmp/ccJhy18e.s 			page 61


1131:./Libraries/STM32F4xx_HAL_Driver/Src/stm32f4xx_hal_irda.c ****       /* Abort DMA RX */
1132:./Libraries/STM32F4xx_HAL_Driver/Src/stm32f4xx_hal_irda.c ****       if(HAL_DMA_Abort_IT(hirda->hdmarx) != HAL_OK)
 2320              		.loc 1 1132 10
 2321 00e6 7B68     		ldr	r3, [r7, #4]
 2322 00e8 1B6B     		ldr	r3, [r3, #48]
 2323 00ea 1846     		mov	r0, r3
 2324 00ec FFF7FEFF 		bl	HAL_DMA_Abort_IT
 2325 00f0 0346     		mov	r3, r0
 2326              		.loc 1 1132 9
 2327 00f2 002B     		cmp	r3, #0
 2328 00f4 06D0     		beq	.L98
1133:./Libraries/STM32F4xx_HAL_Driver/Src/stm32f4xx_hal_irda.c ****       {
1134:./Libraries/STM32F4xx_HAL_Driver/Src/stm32f4xx_hal_irda.c ****         hirda->hdmarx->XferAbortCallback = NULL;
 2329              		.loc 1 1134 14
 2330 00f6 7B68     		ldr	r3, [r7, #4]
 2331 00f8 1B6B     		ldr	r3, [r3, #48]
 2332              		.loc 1 1134 42
 2333 00fa 0022     		movs	r2, #0
 2334 00fc 1A65     		str	r2, [r3, #80]
1135:./Libraries/STM32F4xx_HAL_Driver/Src/stm32f4xx_hal_irda.c ****         AbortCplt = 0x01U;
 2335              		.loc 1 1135 19
 2336 00fe 0123     		movs	r3, #1
 2337 0100 FB60     		str	r3, [r7, #12]
 2338 0102 01E0     		b	.L97
 2339              	.L98:
1136:./Libraries/STM32F4xx_HAL_Driver/Src/stm32f4xx_hal_irda.c ****       }
1137:./Libraries/STM32F4xx_HAL_Driver/Src/stm32f4xx_hal_irda.c ****       else
1138:./Libraries/STM32F4xx_HAL_Driver/Src/stm32f4xx_hal_irda.c ****       {
1139:./Libraries/STM32F4xx_HAL_Driver/Src/stm32f4xx_hal_irda.c ****         AbortCplt = 0x00U;
 2340              		.loc 1 1139 19
 2341 0104 0023     		movs	r3, #0
 2342 0106 FB60     		str	r3, [r7, #12]
 2343              	.L97:
1140:./Libraries/STM32F4xx_HAL_Driver/Src/stm32f4xx_hal_irda.c ****       }
1141:./Libraries/STM32F4xx_HAL_Driver/Src/stm32f4xx_hal_irda.c ****     }
1142:./Libraries/STM32F4xx_HAL_Driver/Src/stm32f4xx_hal_irda.c ****   }
1143:./Libraries/STM32F4xx_HAL_Driver/Src/stm32f4xx_hal_irda.c **** 
1144:./Libraries/STM32F4xx_HAL_Driver/Src/stm32f4xx_hal_irda.c ****   /* if no DMA abort complete callback execution is required => call user Abort Complete callback *
1145:./Libraries/STM32F4xx_HAL_Driver/Src/stm32f4xx_hal_irda.c ****   if(AbortCplt == 0x01U)
 2344              		.loc 1 1145 5
 2345 0108 FB68     		ldr	r3, [r7, #12]
 2346 010a 012B     		cmp	r3, #1
 2347 010c 13D1     		bne	.L99
1146:./Libraries/STM32F4xx_HAL_Driver/Src/stm32f4xx_hal_irda.c ****   {
1147:./Libraries/STM32F4xx_HAL_Driver/Src/stm32f4xx_hal_irda.c ****     /* Reset Tx and Rx transfer counters */
1148:./Libraries/STM32F4xx_HAL_Driver/Src/stm32f4xx_hal_irda.c ****     hirda->TxXferCount = 0x00U; 
 2348              		.loc 1 1148 24
 2349 010e 7B68     		ldr	r3, [r7, #4]
 2350 0110 0022     		movs	r2, #0
 2351 0112 5A84     		strh	r2, [r3, #34]	@ movhi
1149:./Libraries/STM32F4xx_HAL_Driver/Src/stm32f4xx_hal_irda.c ****     hirda->RxXferCount = 0x00U;
 2352              		.loc 1 1149 24
 2353 0114 7B68     		ldr	r3, [r7, #4]
 2354 0116 0022     		movs	r2, #0
 2355 0118 5A85     		strh	r2, [r3, #42]	@ movhi
1150:./Libraries/STM32F4xx_HAL_Driver/Src/stm32f4xx_hal_irda.c **** 
1151:./Libraries/STM32F4xx_HAL_Driver/Src/stm32f4xx_hal_irda.c ****     /* Reset ErrorCode */
ARM GAS  /tmp/ccJhy18e.s 			page 62


1152:./Libraries/STM32F4xx_HAL_Driver/Src/stm32f4xx_hal_irda.c ****     hirda->ErrorCode = HAL_IRDA_ERROR_NONE;
 2356              		.loc 1 1152 22
 2357 011a 7B68     		ldr	r3, [r7, #4]
 2358 011c 0022     		movs	r2, #0
 2359 011e 9A63     		str	r2, [r3, #56]
1153:./Libraries/STM32F4xx_HAL_Driver/Src/stm32f4xx_hal_irda.c **** 
1154:./Libraries/STM32F4xx_HAL_Driver/Src/stm32f4xx_hal_irda.c ****     /* Restore hirda->gState and hirda->RxState to Ready */
1155:./Libraries/STM32F4xx_HAL_Driver/Src/stm32f4xx_hal_irda.c ****     hirda->gState  = HAL_IRDA_STATE_READY;
 2360              		.loc 1 1155 20
 2361 0120 7B68     		ldr	r3, [r7, #4]
 2362 0122 2022     		movs	r2, #32
 2363 0124 83F83520 		strb	r2, [r3, #53]
1156:./Libraries/STM32F4xx_HAL_Driver/Src/stm32f4xx_hal_irda.c ****     hirda->RxState = HAL_IRDA_STATE_READY;
 2364              		.loc 1 1156 20
 2365 0128 7B68     		ldr	r3, [r7, #4]
 2366 012a 2022     		movs	r2, #32
 2367 012c 83F83620 		strb	r2, [r3, #54]
1157:./Libraries/STM32F4xx_HAL_Driver/Src/stm32f4xx_hal_irda.c **** 
1158:./Libraries/STM32F4xx_HAL_Driver/Src/stm32f4xx_hal_irda.c ****     /* As no DMA to be aborted, call directly user Abort complete callback */
1159:./Libraries/STM32F4xx_HAL_Driver/Src/stm32f4xx_hal_irda.c ****     HAL_IRDA_AbortCpltCallback(hirda);
 2368              		.loc 1 1159 5
 2369 0130 7868     		ldr	r0, [r7, #4]
 2370 0132 FFF7FEFF 		bl	HAL_IRDA_AbortCpltCallback
 2371              	.L99:
1160:./Libraries/STM32F4xx_HAL_Driver/Src/stm32f4xx_hal_irda.c ****   }
1161:./Libraries/STM32F4xx_HAL_Driver/Src/stm32f4xx_hal_irda.c **** 
1162:./Libraries/STM32F4xx_HAL_Driver/Src/stm32f4xx_hal_irda.c ****   return HAL_OK;
 2372              		.loc 1 1162 10
 2373 0136 0023     		movs	r3, #0
1163:./Libraries/STM32F4xx_HAL_Driver/Src/stm32f4xx_hal_irda.c **** }
 2374              		.loc 1 1163 1
 2375 0138 1846     		mov	r0, r3
 2376 013a 1037     		adds	r7, r7, #16
 2377              	.LCFI89:
 2378              		.cfi_def_cfa_offset 8
 2379 013c BD46     		mov	sp, r7
 2380              	.LCFI90:
 2381              		.cfi_def_cfa_register 13
 2382              		@ sp needed
 2383 013e 80BD     		pop	{r7, pc}
 2384              	.L102:
 2385              		.align	2
 2386              	.L101:
 2387 0140 00000000 		.word	IRDA_DMATxAbortCallback
 2388 0144 00000000 		.word	IRDA_DMARxAbortCallback
 2389              		.cfi_endproc
 2390              	.LFE142:
 2392              		.section	.text.HAL_IRDA_AbortTransmit_IT,"ax",%progbits
 2393              		.align	1
 2394              		.global	HAL_IRDA_AbortTransmit_IT
 2395              		.syntax unified
 2396              		.thumb
 2397              		.thumb_func
 2398              		.fpu fpv4-sp-d16
 2400              	HAL_IRDA_AbortTransmit_IT:
 2401              	.LFB143:
1164:./Libraries/STM32F4xx_HAL_Driver/Src/stm32f4xx_hal_irda.c **** 
ARM GAS  /tmp/ccJhy18e.s 			page 63


1165:./Libraries/STM32F4xx_HAL_Driver/Src/stm32f4xx_hal_irda.c **** /**
1166:./Libraries/STM32F4xx_HAL_Driver/Src/stm32f4xx_hal_irda.c ****   * @brief  Abort ongoing Transmit transfer (Interrupt mode).
1167:./Libraries/STM32F4xx_HAL_Driver/Src/stm32f4xx_hal_irda.c ****   * @param  hirda IRDA handle.
1168:./Libraries/STM32F4xx_HAL_Driver/Src/stm32f4xx_hal_irda.c ****   * @note   This procedure could be used for aborting any ongoing transfer started in Interrupt or 
1169:./Libraries/STM32F4xx_HAL_Driver/Src/stm32f4xx_hal_irda.c ****   *         This procedure performs following operations :
1170:./Libraries/STM32F4xx_HAL_Driver/Src/stm32f4xx_hal_irda.c ****   *           - Disable PPP Interrupts
1171:./Libraries/STM32F4xx_HAL_Driver/Src/stm32f4xx_hal_irda.c ****   *           - Disable the DMA transfer in the peripheral register (if enabled)
1172:./Libraries/STM32F4xx_HAL_Driver/Src/stm32f4xx_hal_irda.c ****   *           - Abort DMA transfer by calling HAL_DMA_Abort_IT (in case of transfer in DMA mode)
1173:./Libraries/STM32F4xx_HAL_Driver/Src/stm32f4xx_hal_irda.c ****   *           - Set handle State to READY
1174:./Libraries/STM32F4xx_HAL_Driver/Src/stm32f4xx_hal_irda.c ****   *           - At abort completion, call user abort complete callback
1175:./Libraries/STM32F4xx_HAL_Driver/Src/stm32f4xx_hal_irda.c ****   * @note   This procedure is executed in Interrupt mode, meaning that abort procedure could be
1176:./Libraries/STM32F4xx_HAL_Driver/Src/stm32f4xx_hal_irda.c ****   *         considered as completed only when user abort complete callback is executed (not when ex
1177:./Libraries/STM32F4xx_HAL_Driver/Src/stm32f4xx_hal_irda.c ****   * @retval HAL status
1178:./Libraries/STM32F4xx_HAL_Driver/Src/stm32f4xx_hal_irda.c **** */
1179:./Libraries/STM32F4xx_HAL_Driver/Src/stm32f4xx_hal_irda.c **** HAL_StatusTypeDef HAL_IRDA_AbortTransmit_IT(IRDA_HandleTypeDef *hirda)
1180:./Libraries/STM32F4xx_HAL_Driver/Src/stm32f4xx_hal_irda.c **** {
 2402              		.loc 1 1180 1
 2403              		.cfi_startproc
 2404              		@ args = 0, pretend = 0, frame = 8
 2405              		@ frame_needed = 1, uses_anonymous_args = 0
 2406 0000 80B5     		push	{r7, lr}
 2407              	.LCFI91:
 2408              		.cfi_def_cfa_offset 8
 2409              		.cfi_offset 7, -8
 2410              		.cfi_offset 14, -4
 2411 0002 82B0     		sub	sp, sp, #8
 2412              	.LCFI92:
 2413              		.cfi_def_cfa_offset 16
 2414 0004 00AF     		add	r7, sp, #0
 2415              	.LCFI93:
 2416              		.cfi_def_cfa_register 7
 2417 0006 7860     		str	r0, [r7, #4]
1181:./Libraries/STM32F4xx_HAL_Driver/Src/stm32f4xx_hal_irda.c ****   /* Disable TXEIE and TCIE interrupts */
1182:./Libraries/STM32F4xx_HAL_Driver/Src/stm32f4xx_hal_irda.c ****   CLEAR_BIT(hirda->Instance->CR1, (USART_CR1_TXEIE | USART_CR1_TCIE));
 2418              		.loc 1 1182 3
 2419 0008 7B68     		ldr	r3, [r7, #4]
 2420 000a 1B68     		ldr	r3, [r3]
 2421 000c DA68     		ldr	r2, [r3, #12]
 2422 000e 7B68     		ldr	r3, [r7, #4]
 2423 0010 1B68     		ldr	r3, [r3]
 2424 0012 22F0C002 		bic	r2, r2, #192
 2425 0016 DA60     		str	r2, [r3, #12]
1183:./Libraries/STM32F4xx_HAL_Driver/Src/stm32f4xx_hal_irda.c **** 
1184:./Libraries/STM32F4xx_HAL_Driver/Src/stm32f4xx_hal_irda.c ****   /* Disable the IRDA DMA Tx request if enabled */
1185:./Libraries/STM32F4xx_HAL_Driver/Src/stm32f4xx_hal_irda.c ****   if(HAL_IS_BIT_SET(hirda->Instance->CR3, USART_CR3_DMAT))
 2426              		.loc 1 1185 6
 2427 0018 7B68     		ldr	r3, [r7, #4]
 2428 001a 1B68     		ldr	r3, [r3]
 2429 001c 5B69     		ldr	r3, [r3, #20]
 2430 001e 03F08003 		and	r3, r3, #128
 2431              		.loc 1 1185 5
 2432 0022 002B     		cmp	r3, #0
 2433 0024 2AD0     		beq	.L104
1186:./Libraries/STM32F4xx_HAL_Driver/Src/stm32f4xx_hal_irda.c ****   {
1187:./Libraries/STM32F4xx_HAL_Driver/Src/stm32f4xx_hal_irda.c ****     CLEAR_BIT(hirda->Instance->CR3, USART_CR3_DMAT);
 2434              		.loc 1 1187 5
 2435 0026 7B68     		ldr	r3, [r7, #4]
ARM GAS  /tmp/ccJhy18e.s 			page 64


 2436 0028 1B68     		ldr	r3, [r3]
 2437 002a 5A69     		ldr	r2, [r3, #20]
 2438 002c 7B68     		ldr	r3, [r7, #4]
 2439 002e 1B68     		ldr	r3, [r3]
 2440 0030 22F08002 		bic	r2, r2, #128
 2441 0034 5A61     		str	r2, [r3, #20]
1188:./Libraries/STM32F4xx_HAL_Driver/Src/stm32f4xx_hal_irda.c **** 
1189:./Libraries/STM32F4xx_HAL_Driver/Src/stm32f4xx_hal_irda.c ****     /* Abort the IRDA DMA Tx channel : use blocking DMA Abort API (no callback) */
1190:./Libraries/STM32F4xx_HAL_Driver/Src/stm32f4xx_hal_irda.c ****     if(hirda->hdmatx != NULL)
 2442              		.loc 1 1190 13
 2443 0036 7B68     		ldr	r3, [r7, #4]
 2444 0038 DB6A     		ldr	r3, [r3, #44]
 2445              		.loc 1 1190 7
 2446 003a 002B     		cmp	r3, #0
 2447 003c 13D0     		beq	.L105
1191:./Libraries/STM32F4xx_HAL_Driver/Src/stm32f4xx_hal_irda.c ****     {
1192:./Libraries/STM32F4xx_HAL_Driver/Src/stm32f4xx_hal_irda.c ****       /* Set the IRDA DMA Abort callback : 
1193:./Libraries/STM32F4xx_HAL_Driver/Src/stm32f4xx_hal_irda.c ****          will lead to call HAL_IRDA_AbortCpltCallback() at end of DMA abort procedure */
1194:./Libraries/STM32F4xx_HAL_Driver/Src/stm32f4xx_hal_irda.c ****       hirda->hdmatx->XferAbortCallback = IRDA_DMATxOnlyAbortCallback;
 2448              		.loc 1 1194 12
 2449 003e 7B68     		ldr	r3, [r7, #4]
 2450 0040 DB6A     		ldr	r3, [r3, #44]
 2451              		.loc 1 1194 40
 2452 0042 164A     		ldr	r2, .L108
 2453 0044 1A65     		str	r2, [r3, #80]
1195:./Libraries/STM32F4xx_HAL_Driver/Src/stm32f4xx_hal_irda.c **** 
1196:./Libraries/STM32F4xx_HAL_Driver/Src/stm32f4xx_hal_irda.c ****       /* Abort DMA TX */
1197:./Libraries/STM32F4xx_HAL_Driver/Src/stm32f4xx_hal_irda.c ****       if(HAL_DMA_Abort_IT(hirda->hdmatx) != HAL_OK)
 2454              		.loc 1 1197 10
 2455 0046 7B68     		ldr	r3, [r7, #4]
 2456 0048 DB6A     		ldr	r3, [r3, #44]
 2457 004a 1846     		mov	r0, r3
 2458 004c FFF7FEFF 		bl	HAL_DMA_Abort_IT
 2459 0050 0346     		mov	r3, r0
 2460              		.loc 1 1197 9
 2461 0052 002B     		cmp	r3, #0
 2462 0054 1CD0     		beq	.L106
1198:./Libraries/STM32F4xx_HAL_Driver/Src/stm32f4xx_hal_irda.c ****       {
1199:./Libraries/STM32F4xx_HAL_Driver/Src/stm32f4xx_hal_irda.c ****         /* Call Directly hirda->hdmatx->XferAbortCallback function in case of error */
1200:./Libraries/STM32F4xx_HAL_Driver/Src/stm32f4xx_hal_irda.c ****         hirda->hdmatx->XferAbortCallback(hirda->hdmatx);
 2463              		.loc 1 1200 14
 2464 0056 7B68     		ldr	r3, [r7, #4]
 2465 0058 DB6A     		ldr	r3, [r3, #44]
 2466              		.loc 1 1200 22
 2467 005a 1B6D     		ldr	r3, [r3, #80]
 2468              		.loc 1 1200 47
 2469 005c 7A68     		ldr	r2, [r7, #4]
 2470 005e D26A     		ldr	r2, [r2, #44]
 2471              		.loc 1 1200 9
 2472 0060 1046     		mov	r0, r2
 2473 0062 9847     		blx	r3
 2474              	.LVL0:
 2475 0064 14E0     		b	.L106
 2476              	.L105:
1201:./Libraries/STM32F4xx_HAL_Driver/Src/stm32f4xx_hal_irda.c ****       }
1202:./Libraries/STM32F4xx_HAL_Driver/Src/stm32f4xx_hal_irda.c ****     }
1203:./Libraries/STM32F4xx_HAL_Driver/Src/stm32f4xx_hal_irda.c ****     else
ARM GAS  /tmp/ccJhy18e.s 			page 65


1204:./Libraries/STM32F4xx_HAL_Driver/Src/stm32f4xx_hal_irda.c ****     {
1205:./Libraries/STM32F4xx_HAL_Driver/Src/stm32f4xx_hal_irda.c ****       /* Reset Tx transfer counter */
1206:./Libraries/STM32F4xx_HAL_Driver/Src/stm32f4xx_hal_irda.c ****       hirda->TxXferCount = 0x00U;
 2477              		.loc 1 1206 26
 2478 0066 7B68     		ldr	r3, [r7, #4]
 2479 0068 0022     		movs	r2, #0
 2480 006a 5A84     		strh	r2, [r3, #34]	@ movhi
1207:./Libraries/STM32F4xx_HAL_Driver/Src/stm32f4xx_hal_irda.c **** 
1208:./Libraries/STM32F4xx_HAL_Driver/Src/stm32f4xx_hal_irda.c ****       /* Restore hirda->gState to Ready */
1209:./Libraries/STM32F4xx_HAL_Driver/Src/stm32f4xx_hal_irda.c ****       hirda->gState = HAL_IRDA_STATE_READY;
 2481              		.loc 1 1209 21
 2482 006c 7B68     		ldr	r3, [r7, #4]
 2483 006e 2022     		movs	r2, #32
 2484 0070 83F83520 		strb	r2, [r3, #53]
1210:./Libraries/STM32F4xx_HAL_Driver/Src/stm32f4xx_hal_irda.c ****       
1211:./Libraries/STM32F4xx_HAL_Driver/Src/stm32f4xx_hal_irda.c ****       /* As no DMA to be aborted, call directly user Abort complete callback */
1212:./Libraries/STM32F4xx_HAL_Driver/Src/stm32f4xx_hal_irda.c ****       HAL_IRDA_AbortTransmitCpltCallback(hirda);
 2485              		.loc 1 1212 7
 2486 0074 7868     		ldr	r0, [r7, #4]
 2487 0076 FFF7FEFF 		bl	HAL_IRDA_AbortTransmitCpltCallback
 2488 007a 09E0     		b	.L106
 2489              	.L104:
1213:./Libraries/STM32F4xx_HAL_Driver/Src/stm32f4xx_hal_irda.c ****     }
1214:./Libraries/STM32F4xx_HAL_Driver/Src/stm32f4xx_hal_irda.c ****   }
1215:./Libraries/STM32F4xx_HAL_Driver/Src/stm32f4xx_hal_irda.c ****   else
1216:./Libraries/STM32F4xx_HAL_Driver/Src/stm32f4xx_hal_irda.c ****   {
1217:./Libraries/STM32F4xx_HAL_Driver/Src/stm32f4xx_hal_irda.c ****     /* Reset Tx transfer counter */
1218:./Libraries/STM32F4xx_HAL_Driver/Src/stm32f4xx_hal_irda.c ****     hirda->TxXferCount = 0x00U;
 2490              		.loc 1 1218 24
 2491 007c 7B68     		ldr	r3, [r7, #4]
 2492 007e 0022     		movs	r2, #0
 2493 0080 5A84     		strh	r2, [r3, #34]	@ movhi
1219:./Libraries/STM32F4xx_HAL_Driver/Src/stm32f4xx_hal_irda.c **** 
1220:./Libraries/STM32F4xx_HAL_Driver/Src/stm32f4xx_hal_irda.c ****     /* Restore hirda->gState to Ready */
1221:./Libraries/STM32F4xx_HAL_Driver/Src/stm32f4xx_hal_irda.c ****     hirda->gState = HAL_IRDA_STATE_READY;
 2494              		.loc 1 1221 19
 2495 0082 7B68     		ldr	r3, [r7, #4]
 2496 0084 2022     		movs	r2, #32
 2497 0086 83F83520 		strb	r2, [r3, #53]
1222:./Libraries/STM32F4xx_HAL_Driver/Src/stm32f4xx_hal_irda.c **** 
1223:./Libraries/STM32F4xx_HAL_Driver/Src/stm32f4xx_hal_irda.c ****     /* As no DMA to be aborted, call directly user Abort complete callback */
1224:./Libraries/STM32F4xx_HAL_Driver/Src/stm32f4xx_hal_irda.c ****     HAL_IRDA_AbortTransmitCpltCallback(hirda);
 2498              		.loc 1 1224 5
 2499 008a 7868     		ldr	r0, [r7, #4]
 2500 008c FFF7FEFF 		bl	HAL_IRDA_AbortTransmitCpltCallback
 2501              	.L106:
1225:./Libraries/STM32F4xx_HAL_Driver/Src/stm32f4xx_hal_irda.c ****   }
1226:./Libraries/STM32F4xx_HAL_Driver/Src/stm32f4xx_hal_irda.c **** 
1227:./Libraries/STM32F4xx_HAL_Driver/Src/stm32f4xx_hal_irda.c ****   return HAL_OK;
 2502              		.loc 1 1227 10
 2503 0090 0023     		movs	r3, #0
1228:./Libraries/STM32F4xx_HAL_Driver/Src/stm32f4xx_hal_irda.c **** }
 2504              		.loc 1 1228 1
 2505 0092 1846     		mov	r0, r3
 2506 0094 0837     		adds	r7, r7, #8
 2507              	.LCFI94:
 2508              		.cfi_def_cfa_offset 8
ARM GAS  /tmp/ccJhy18e.s 			page 66


 2509 0096 BD46     		mov	sp, r7
 2510              	.LCFI95:
 2511              		.cfi_def_cfa_register 13
 2512              		@ sp needed
 2513 0098 80BD     		pop	{r7, pc}
 2514              	.L109:
 2515 009a 00BF     		.align	2
 2516              	.L108:
 2517 009c 00000000 		.word	IRDA_DMATxOnlyAbortCallback
 2518              		.cfi_endproc
 2519              	.LFE143:
 2521              		.section	.text.HAL_IRDA_AbortReceive_IT,"ax",%progbits
 2522              		.align	1
 2523              		.global	HAL_IRDA_AbortReceive_IT
 2524              		.syntax unified
 2525              		.thumb
 2526              		.thumb_func
 2527              		.fpu fpv4-sp-d16
 2529              	HAL_IRDA_AbortReceive_IT:
 2530              	.LFB144:
1229:./Libraries/STM32F4xx_HAL_Driver/Src/stm32f4xx_hal_irda.c **** 
1230:./Libraries/STM32F4xx_HAL_Driver/Src/stm32f4xx_hal_irda.c **** /**
1231:./Libraries/STM32F4xx_HAL_Driver/Src/stm32f4xx_hal_irda.c ****   * @brief  Abort ongoing Receive transfer (Interrupt mode).
1232:./Libraries/STM32F4xx_HAL_Driver/Src/stm32f4xx_hal_irda.c ****   * @param  hirda IRDA handle.
1233:./Libraries/STM32F4xx_HAL_Driver/Src/stm32f4xx_hal_irda.c ****   * @note   This procedure could be used for aborting any ongoing transfer started in Interrupt or 
1234:./Libraries/STM32F4xx_HAL_Driver/Src/stm32f4xx_hal_irda.c ****   *         This procedure performs following operations :
1235:./Libraries/STM32F4xx_HAL_Driver/Src/stm32f4xx_hal_irda.c ****   *           - Disable PPP Interrupts
1236:./Libraries/STM32F4xx_HAL_Driver/Src/stm32f4xx_hal_irda.c ****   *           - Disable the DMA transfer in the peripheral register (if enabled)
1237:./Libraries/STM32F4xx_HAL_Driver/Src/stm32f4xx_hal_irda.c ****   *           - Abort DMA transfer by calling HAL_DMA_Abort_IT (in case of transfer in DMA mode)
1238:./Libraries/STM32F4xx_HAL_Driver/Src/stm32f4xx_hal_irda.c ****   *           - Set handle State to READY
1239:./Libraries/STM32F4xx_HAL_Driver/Src/stm32f4xx_hal_irda.c ****   *           - At abort completion, call user abort complete callback
1240:./Libraries/STM32F4xx_HAL_Driver/Src/stm32f4xx_hal_irda.c ****   * @note   This procedure is executed in Interrupt mode, meaning that abort procedure could be
1241:./Libraries/STM32F4xx_HAL_Driver/Src/stm32f4xx_hal_irda.c ****   *         considered as completed only when user abort complete callback is executed (not when ex
1242:./Libraries/STM32F4xx_HAL_Driver/Src/stm32f4xx_hal_irda.c ****   * @retval HAL status
1243:./Libraries/STM32F4xx_HAL_Driver/Src/stm32f4xx_hal_irda.c **** */
1244:./Libraries/STM32F4xx_HAL_Driver/Src/stm32f4xx_hal_irda.c **** HAL_StatusTypeDef HAL_IRDA_AbortReceive_IT(IRDA_HandleTypeDef *hirda)
1245:./Libraries/STM32F4xx_HAL_Driver/Src/stm32f4xx_hal_irda.c **** {
 2531              		.loc 1 1245 1
 2532              		.cfi_startproc
 2533              		@ args = 0, pretend = 0, frame = 8
 2534              		@ frame_needed = 1, uses_anonymous_args = 0
 2535 0000 80B5     		push	{r7, lr}
 2536              	.LCFI96:
 2537              		.cfi_def_cfa_offset 8
 2538              		.cfi_offset 7, -8
 2539              		.cfi_offset 14, -4
 2540 0002 82B0     		sub	sp, sp, #8
 2541              	.LCFI97:
 2542              		.cfi_def_cfa_offset 16
 2543 0004 00AF     		add	r7, sp, #0
 2544              	.LCFI98:
 2545              		.cfi_def_cfa_register 7
 2546 0006 7860     		str	r0, [r7, #4]
1246:./Libraries/STM32F4xx_HAL_Driver/Src/stm32f4xx_hal_irda.c ****   /* Disable RXNE, PE and ERR (Frame error, noise error, overrun error) interrupts */
1247:./Libraries/STM32F4xx_HAL_Driver/Src/stm32f4xx_hal_irda.c ****   CLEAR_BIT(hirda->Instance->CR1, (USART_CR1_RXNEIE | USART_CR1_PEIE));
 2547              		.loc 1 1247 3
 2548 0008 7B68     		ldr	r3, [r7, #4]
ARM GAS  /tmp/ccJhy18e.s 			page 67


 2549 000a 1B68     		ldr	r3, [r3]
 2550 000c DA68     		ldr	r2, [r3, #12]
 2551 000e 7B68     		ldr	r3, [r7, #4]
 2552 0010 1B68     		ldr	r3, [r3]
 2553 0012 22F49072 		bic	r2, r2, #288
 2554 0016 DA60     		str	r2, [r3, #12]
1248:./Libraries/STM32F4xx_HAL_Driver/Src/stm32f4xx_hal_irda.c ****   CLEAR_BIT(hirda->Instance->CR3, USART_CR3_EIE);
 2555              		.loc 1 1248 3
 2556 0018 7B68     		ldr	r3, [r7, #4]
 2557 001a 1B68     		ldr	r3, [r3]
 2558 001c 5A69     		ldr	r2, [r3, #20]
 2559 001e 7B68     		ldr	r3, [r7, #4]
 2560 0020 1B68     		ldr	r3, [r3]
 2561 0022 22F00102 		bic	r2, r2, #1
 2562 0026 5A61     		str	r2, [r3, #20]
1249:./Libraries/STM32F4xx_HAL_Driver/Src/stm32f4xx_hal_irda.c **** 
1250:./Libraries/STM32F4xx_HAL_Driver/Src/stm32f4xx_hal_irda.c ****   /* Disable the IRDA DMA Rx request if enabled */
1251:./Libraries/STM32F4xx_HAL_Driver/Src/stm32f4xx_hal_irda.c ****   if(HAL_IS_BIT_SET(hirda->Instance->CR3, USART_CR3_DMAR))
 2563              		.loc 1 1251 6
 2564 0028 7B68     		ldr	r3, [r7, #4]
 2565 002a 1B68     		ldr	r3, [r3]
 2566 002c 5B69     		ldr	r3, [r3, #20]
 2567 002e 03F04003 		and	r3, r3, #64
 2568              		.loc 1 1251 5
 2569 0032 002B     		cmp	r3, #0
 2570 0034 2AD0     		beq	.L111
1252:./Libraries/STM32F4xx_HAL_Driver/Src/stm32f4xx_hal_irda.c ****   {
1253:./Libraries/STM32F4xx_HAL_Driver/Src/stm32f4xx_hal_irda.c ****     CLEAR_BIT(hirda->Instance->CR3, USART_CR3_DMAR);
 2571              		.loc 1 1253 5
 2572 0036 7B68     		ldr	r3, [r7, #4]
 2573 0038 1B68     		ldr	r3, [r3]
 2574 003a 5A69     		ldr	r2, [r3, #20]
 2575 003c 7B68     		ldr	r3, [r7, #4]
 2576 003e 1B68     		ldr	r3, [r3]
 2577 0040 22F04002 		bic	r2, r2, #64
 2578 0044 5A61     		str	r2, [r3, #20]
1254:./Libraries/STM32F4xx_HAL_Driver/Src/stm32f4xx_hal_irda.c **** 
1255:./Libraries/STM32F4xx_HAL_Driver/Src/stm32f4xx_hal_irda.c ****     /* Abort the IRDA DMA Rx channel : use blocking DMA Abort API (no callback) */
1256:./Libraries/STM32F4xx_HAL_Driver/Src/stm32f4xx_hal_irda.c ****     if(hirda->hdmarx != NULL)
 2579              		.loc 1 1256 13
 2580 0046 7B68     		ldr	r3, [r7, #4]
 2581 0048 1B6B     		ldr	r3, [r3, #48]
 2582              		.loc 1 1256 7
 2583 004a 002B     		cmp	r3, #0
 2584 004c 13D0     		beq	.L112
1257:./Libraries/STM32F4xx_HAL_Driver/Src/stm32f4xx_hal_irda.c ****     {
1258:./Libraries/STM32F4xx_HAL_Driver/Src/stm32f4xx_hal_irda.c ****       /* Set the IRDA DMA Abort callback : 
1259:./Libraries/STM32F4xx_HAL_Driver/Src/stm32f4xx_hal_irda.c ****          will lead to call HAL_IRDA_AbortCpltCallback() at end of DMA abort procedure */
1260:./Libraries/STM32F4xx_HAL_Driver/Src/stm32f4xx_hal_irda.c ****       hirda->hdmarx->XferAbortCallback = IRDA_DMARxOnlyAbortCallback;
 2585              		.loc 1 1260 12
 2586 004e 7B68     		ldr	r3, [r7, #4]
 2587 0050 1B6B     		ldr	r3, [r3, #48]
 2588              		.loc 1 1260 40
 2589 0052 164A     		ldr	r2, .L115
 2590 0054 1A65     		str	r2, [r3, #80]
1261:./Libraries/STM32F4xx_HAL_Driver/Src/stm32f4xx_hal_irda.c **** 
1262:./Libraries/STM32F4xx_HAL_Driver/Src/stm32f4xx_hal_irda.c ****       /* Abort DMA RX */
ARM GAS  /tmp/ccJhy18e.s 			page 68


1263:./Libraries/STM32F4xx_HAL_Driver/Src/stm32f4xx_hal_irda.c ****       if(HAL_DMA_Abort_IT(hirda->hdmarx) != HAL_OK)
 2591              		.loc 1 1263 10
 2592 0056 7B68     		ldr	r3, [r7, #4]
 2593 0058 1B6B     		ldr	r3, [r3, #48]
 2594 005a 1846     		mov	r0, r3
 2595 005c FFF7FEFF 		bl	HAL_DMA_Abort_IT
 2596 0060 0346     		mov	r3, r0
 2597              		.loc 1 1263 9
 2598 0062 002B     		cmp	r3, #0
 2599 0064 1CD0     		beq	.L113
1264:./Libraries/STM32F4xx_HAL_Driver/Src/stm32f4xx_hal_irda.c ****       {
1265:./Libraries/STM32F4xx_HAL_Driver/Src/stm32f4xx_hal_irda.c ****         /* Call Directly hirda->hdmarx->XferAbortCallback function in case of error */
1266:./Libraries/STM32F4xx_HAL_Driver/Src/stm32f4xx_hal_irda.c ****         hirda->hdmarx->XferAbortCallback(hirda->hdmarx);
 2600              		.loc 1 1266 14
 2601 0066 7B68     		ldr	r3, [r7, #4]
 2602 0068 1B6B     		ldr	r3, [r3, #48]
 2603              		.loc 1 1266 22
 2604 006a 1B6D     		ldr	r3, [r3, #80]
 2605              		.loc 1 1266 47
 2606 006c 7A68     		ldr	r2, [r7, #4]
 2607 006e 126B     		ldr	r2, [r2, #48]
 2608              		.loc 1 1266 9
 2609 0070 1046     		mov	r0, r2
 2610 0072 9847     		blx	r3
 2611              	.LVL1:
 2612 0074 14E0     		b	.L113
 2613              	.L112:
1267:./Libraries/STM32F4xx_HAL_Driver/Src/stm32f4xx_hal_irda.c ****       }
1268:./Libraries/STM32F4xx_HAL_Driver/Src/stm32f4xx_hal_irda.c ****     }
1269:./Libraries/STM32F4xx_HAL_Driver/Src/stm32f4xx_hal_irda.c ****     else
1270:./Libraries/STM32F4xx_HAL_Driver/Src/stm32f4xx_hal_irda.c ****     {
1271:./Libraries/STM32F4xx_HAL_Driver/Src/stm32f4xx_hal_irda.c ****       /* Reset Rx transfer counter */
1272:./Libraries/STM32F4xx_HAL_Driver/Src/stm32f4xx_hal_irda.c ****       hirda->RxXferCount = 0x00U;
 2614              		.loc 1 1272 26
 2615 0076 7B68     		ldr	r3, [r7, #4]
 2616 0078 0022     		movs	r2, #0
 2617 007a 5A85     		strh	r2, [r3, #42]	@ movhi
1273:./Libraries/STM32F4xx_HAL_Driver/Src/stm32f4xx_hal_irda.c **** 
1274:./Libraries/STM32F4xx_HAL_Driver/Src/stm32f4xx_hal_irda.c ****       /* Restore hirda->RxState to Ready */
1275:./Libraries/STM32F4xx_HAL_Driver/Src/stm32f4xx_hal_irda.c ****       hirda->RxState = HAL_IRDA_STATE_READY;
 2618              		.loc 1 1275 22
 2619 007c 7B68     		ldr	r3, [r7, #4]
 2620 007e 2022     		movs	r2, #32
 2621 0080 83F83620 		strb	r2, [r3, #54]
1276:./Libraries/STM32F4xx_HAL_Driver/Src/stm32f4xx_hal_irda.c **** 
1277:./Libraries/STM32F4xx_HAL_Driver/Src/stm32f4xx_hal_irda.c ****       /* As no DMA to be aborted, call directly user Abort complete callback */
1278:./Libraries/STM32F4xx_HAL_Driver/Src/stm32f4xx_hal_irda.c ****       HAL_IRDA_AbortReceiveCpltCallback(hirda);
 2622              		.loc 1 1278 7
 2623 0084 7868     		ldr	r0, [r7, #4]
 2624 0086 FFF7FEFF 		bl	HAL_IRDA_AbortReceiveCpltCallback
 2625 008a 09E0     		b	.L113
 2626              	.L111:
1279:./Libraries/STM32F4xx_HAL_Driver/Src/stm32f4xx_hal_irda.c ****     }
1280:./Libraries/STM32F4xx_HAL_Driver/Src/stm32f4xx_hal_irda.c ****   }
1281:./Libraries/STM32F4xx_HAL_Driver/Src/stm32f4xx_hal_irda.c ****   else
1282:./Libraries/STM32F4xx_HAL_Driver/Src/stm32f4xx_hal_irda.c ****   {
1283:./Libraries/STM32F4xx_HAL_Driver/Src/stm32f4xx_hal_irda.c ****     /* Reset Rx transfer counter */
ARM GAS  /tmp/ccJhy18e.s 			page 69


1284:./Libraries/STM32F4xx_HAL_Driver/Src/stm32f4xx_hal_irda.c ****     hirda->RxXferCount = 0x00U;
 2627              		.loc 1 1284 24
 2628 008c 7B68     		ldr	r3, [r7, #4]
 2629 008e 0022     		movs	r2, #0
 2630 0090 5A85     		strh	r2, [r3, #42]	@ movhi
1285:./Libraries/STM32F4xx_HAL_Driver/Src/stm32f4xx_hal_irda.c **** 
1286:./Libraries/STM32F4xx_HAL_Driver/Src/stm32f4xx_hal_irda.c ****     /* Restore hirda->RxState to Ready */
1287:./Libraries/STM32F4xx_HAL_Driver/Src/stm32f4xx_hal_irda.c ****     hirda->RxState = HAL_IRDA_STATE_READY;
 2631              		.loc 1 1287 20
 2632 0092 7B68     		ldr	r3, [r7, #4]
 2633 0094 2022     		movs	r2, #32
 2634 0096 83F83620 		strb	r2, [r3, #54]
1288:./Libraries/STM32F4xx_HAL_Driver/Src/stm32f4xx_hal_irda.c **** 
1289:./Libraries/STM32F4xx_HAL_Driver/Src/stm32f4xx_hal_irda.c ****     /* As no DMA to be aborted, call directly user Abort complete callback */
1290:./Libraries/STM32F4xx_HAL_Driver/Src/stm32f4xx_hal_irda.c ****     HAL_IRDA_AbortReceiveCpltCallback(hirda);
 2635              		.loc 1 1290 5
 2636 009a 7868     		ldr	r0, [r7, #4]
 2637 009c FFF7FEFF 		bl	HAL_IRDA_AbortReceiveCpltCallback
 2638              	.L113:
1291:./Libraries/STM32F4xx_HAL_Driver/Src/stm32f4xx_hal_irda.c ****   }
1292:./Libraries/STM32F4xx_HAL_Driver/Src/stm32f4xx_hal_irda.c **** 
1293:./Libraries/STM32F4xx_HAL_Driver/Src/stm32f4xx_hal_irda.c ****   return HAL_OK;
 2639              		.loc 1 1293 10
 2640 00a0 0023     		movs	r3, #0
1294:./Libraries/STM32F4xx_HAL_Driver/Src/stm32f4xx_hal_irda.c **** }
 2641              		.loc 1 1294 1
 2642 00a2 1846     		mov	r0, r3
 2643 00a4 0837     		adds	r7, r7, #8
 2644              	.LCFI99:
 2645              		.cfi_def_cfa_offset 8
 2646 00a6 BD46     		mov	sp, r7
 2647              	.LCFI100:
 2648              		.cfi_def_cfa_register 13
 2649              		@ sp needed
 2650 00a8 80BD     		pop	{r7, pc}
 2651              	.L116:
 2652 00aa 00BF     		.align	2
 2653              	.L115:
 2654 00ac 00000000 		.word	IRDA_DMARxOnlyAbortCallback
 2655              		.cfi_endproc
 2656              	.LFE144:
 2658              		.section	.text.HAL_IRDA_IRQHandler,"ax",%progbits
 2659              		.align	1
 2660              		.global	HAL_IRDA_IRQHandler
 2661              		.syntax unified
 2662              		.thumb
 2663              		.thumb_func
 2664              		.fpu fpv4-sp-d16
 2666              	HAL_IRDA_IRQHandler:
 2667              	.LFB145:
1295:./Libraries/STM32F4xx_HAL_Driver/Src/stm32f4xx_hal_irda.c **** 
1296:./Libraries/STM32F4xx_HAL_Driver/Src/stm32f4xx_hal_irda.c **** /**
1297:./Libraries/STM32F4xx_HAL_Driver/Src/stm32f4xx_hal_irda.c ****   * @brief  This function handles IRDA interrupt request.
1298:./Libraries/STM32F4xx_HAL_Driver/Src/stm32f4xx_hal_irda.c ****   * @param  hirda pointer to a IRDA_HandleTypeDef structure that contains
1299:./Libraries/STM32F4xx_HAL_Driver/Src/stm32f4xx_hal_irda.c ****   *                the configuration information for the specified IRDA module.
1300:./Libraries/STM32F4xx_HAL_Driver/Src/stm32f4xx_hal_irda.c ****   * @retval None
1301:./Libraries/STM32F4xx_HAL_Driver/Src/stm32f4xx_hal_irda.c ****   */
ARM GAS  /tmp/ccJhy18e.s 			page 70


1302:./Libraries/STM32F4xx_HAL_Driver/Src/stm32f4xx_hal_irda.c **** void HAL_IRDA_IRQHandler(IRDA_HandleTypeDef *hirda)
1303:./Libraries/STM32F4xx_HAL_Driver/Src/stm32f4xx_hal_irda.c **** {
 2668              		.loc 1 1303 1
 2669              		.cfi_startproc
 2670              		@ args = 0, pretend = 0, frame = 32
 2671              		@ frame_needed = 1, uses_anonymous_args = 0
 2672 0000 80B5     		push	{r7, lr}
 2673              	.LCFI101:
 2674              		.cfi_def_cfa_offset 8
 2675              		.cfi_offset 7, -8
 2676              		.cfi_offset 14, -4
 2677 0002 88B0     		sub	sp, sp, #32
 2678              	.LCFI102:
 2679              		.cfi_def_cfa_offset 40
 2680 0004 00AF     		add	r7, sp, #0
 2681              	.LCFI103:
 2682              		.cfi_def_cfa_register 7
 2683 0006 7860     		str	r0, [r7, #4]
1304:./Libraries/STM32F4xx_HAL_Driver/Src/stm32f4xx_hal_irda.c ****    uint32_t isrflags   = READ_REG(hirda->Instance->SR);
 2684              		.loc 1 1304 26
 2685 0008 7B68     		ldr	r3, [r7, #4]
 2686 000a 1B68     		ldr	r3, [r3]
 2687              		.loc 1 1304 13
 2688 000c 1B68     		ldr	r3, [r3]
 2689 000e FB61     		str	r3, [r7, #28]
1305:./Libraries/STM32F4xx_HAL_Driver/Src/stm32f4xx_hal_irda.c ****    uint32_t cr1its     = READ_REG(hirda->Instance->CR1);
 2690              		.loc 1 1305 26
 2691 0010 7B68     		ldr	r3, [r7, #4]
 2692 0012 1B68     		ldr	r3, [r3]
 2693              		.loc 1 1305 13
 2694 0014 DB68     		ldr	r3, [r3, #12]
 2695 0016 BB61     		str	r3, [r7, #24]
1306:./Libraries/STM32F4xx_HAL_Driver/Src/stm32f4xx_hal_irda.c ****    uint32_t cr3its     = READ_REG(hirda->Instance->CR3);
 2696              		.loc 1 1306 26
 2697 0018 7B68     		ldr	r3, [r7, #4]
 2698 001a 1B68     		ldr	r3, [r3]
 2699              		.loc 1 1306 13
 2700 001c 5B69     		ldr	r3, [r3, #20]
 2701 001e 7B61     		str	r3, [r7, #20]
1307:./Libraries/STM32F4xx_HAL_Driver/Src/stm32f4xx_hal_irda.c ****    uint32_t errorflags = 0x00U;
 2702              		.loc 1 1307 13
 2703 0020 0023     		movs	r3, #0
 2704 0022 3B61     		str	r3, [r7, #16]
1308:./Libraries/STM32F4xx_HAL_Driver/Src/stm32f4xx_hal_irda.c ****    uint32_t dmarequest = 0x00U;
 2705              		.loc 1 1308 13
 2706 0024 0023     		movs	r3, #0
 2707 0026 FB60     		str	r3, [r7, #12]
1309:./Libraries/STM32F4xx_HAL_Driver/Src/stm32f4xx_hal_irda.c **** 
1310:./Libraries/STM32F4xx_HAL_Driver/Src/stm32f4xx_hal_irda.c ****   /* If no error occurs */
1311:./Libraries/STM32F4xx_HAL_Driver/Src/stm32f4xx_hal_irda.c ****   errorflags = (isrflags & (uint32_t)(USART_SR_PE | USART_SR_FE | USART_SR_ORE | USART_SR_NE));
 2708              		.loc 1 1311 14
 2709 0028 FB69     		ldr	r3, [r7, #28]
 2710 002a 03F00F03 		and	r3, r3, #15
 2711 002e 3B61     		str	r3, [r7, #16]
1312:./Libraries/STM32F4xx_HAL_Driver/Src/stm32f4xx_hal_irda.c ****   if(errorflags == RESET)
 2712              		.loc 1 1312 5
 2713 0030 3B69     		ldr	r3, [r7, #16]
ARM GAS  /tmp/ccJhy18e.s 			page 71


 2714 0032 002B     		cmp	r3, #0
 2715 0034 0DD1     		bne	.L118
1313:./Libraries/STM32F4xx_HAL_Driver/Src/stm32f4xx_hal_irda.c ****   {
1314:./Libraries/STM32F4xx_HAL_Driver/Src/stm32f4xx_hal_irda.c ****     /* IRDA in mode Receiver -----------------------------------------------*/
1315:./Libraries/STM32F4xx_HAL_Driver/Src/stm32f4xx_hal_irda.c ****     if(((isrflags & USART_SR_RXNE) != RESET) && ((cr1its & USART_CR1_RXNEIE) != RESET))
 2716              		.loc 1 1315 19
 2717 0036 FB69     		ldr	r3, [r7, #28]
 2718 0038 03F02003 		and	r3, r3, #32
 2719              		.loc 1 1315 7
 2720 003c 002B     		cmp	r3, #0
 2721 003e 08D0     		beq	.L118
 2722              		.loc 1 1315 58 discriminator 1
 2723 0040 BB69     		ldr	r3, [r7, #24]
 2724 0042 03F02003 		and	r3, r3, #32
 2725              		.loc 1 1315 46 discriminator 1
 2726 0046 002B     		cmp	r3, #0
 2727 0048 03D0     		beq	.L118
1316:./Libraries/STM32F4xx_HAL_Driver/Src/stm32f4xx_hal_irda.c ****     {
1317:./Libraries/STM32F4xx_HAL_Driver/Src/stm32f4xx_hal_irda.c ****       IRDA_Receive_IT(hirda);
 2728              		.loc 1 1317 7
 2729 004a 7868     		ldr	r0, [r7, #4]
 2730 004c FFF7FEFF 		bl	IRDA_Receive_IT
1318:./Libraries/STM32F4xx_HAL_Driver/Src/stm32f4xx_hal_irda.c ****       return;
 2731              		.loc 1 1318 7
 2732 0050 CBE0     		b	.L117
 2733              	.L118:
1319:./Libraries/STM32F4xx_HAL_Driver/Src/stm32f4xx_hal_irda.c ****     }
1320:./Libraries/STM32F4xx_HAL_Driver/Src/stm32f4xx_hal_irda.c ****   }  
1321:./Libraries/STM32F4xx_HAL_Driver/Src/stm32f4xx_hal_irda.c **** 
1322:./Libraries/STM32F4xx_HAL_Driver/Src/stm32f4xx_hal_irda.c ****   /* If some errors occur */
1323:./Libraries/STM32F4xx_HAL_Driver/Src/stm32f4xx_hal_irda.c ****   if((errorflags != RESET) && (((cr3its & USART_CR3_EIE) != RESET) || ((cr1its & (USART_CR1_RXNEIE 
 2734              		.loc 1 1323 5
 2735 0052 3B69     		ldr	r3, [r7, #16]
 2736 0054 002B     		cmp	r3, #0
 2737 0056 00F0AB80 		beq	.L120
 2738              		.loc 1 1323 41 discriminator 1
 2739 005a 7B69     		ldr	r3, [r7, #20]
 2740 005c 03F00103 		and	r3, r3, #1
 2741              		.loc 1 1323 28 discriminator 1
 2742 0060 002B     		cmp	r3, #0
 2743 0062 05D1     		bne	.L121
 2744              		.loc 1 1323 80 discriminator 2
 2745 0064 BB69     		ldr	r3, [r7, #24]
 2746 0066 03F49073 		and	r3, r3, #288
 2747              		.loc 1 1323 68 discriminator 2
 2748 006a 002B     		cmp	r3, #0
 2749 006c 00F0A080 		beq	.L120
 2750              	.L121:
1324:./Libraries/STM32F4xx_HAL_Driver/Src/stm32f4xx_hal_irda.c ****   {
1325:./Libraries/STM32F4xx_HAL_Driver/Src/stm32f4xx_hal_irda.c ****     /* IRDA parity error interrupt occurred -------------------------------*/
1326:./Libraries/STM32F4xx_HAL_Driver/Src/stm32f4xx_hal_irda.c ****     if(((isrflags & USART_SR_PE) != RESET) && ((cr1its & USART_CR1_PEIE) != RESET))
 2751              		.loc 1 1326 19
 2752 0070 FB69     		ldr	r3, [r7, #28]
 2753 0072 03F00103 		and	r3, r3, #1
 2754              		.loc 1 1326 7
 2755 0076 002B     		cmp	r3, #0
 2756 0078 0AD0     		beq	.L122
ARM GAS  /tmp/ccJhy18e.s 			page 72


 2757              		.loc 1 1326 56 discriminator 1
 2758 007a BB69     		ldr	r3, [r7, #24]
 2759 007c 03F48073 		and	r3, r3, #256
 2760              		.loc 1 1326 44 discriminator 1
 2761 0080 002B     		cmp	r3, #0
 2762 0082 05D0     		beq	.L122
1327:./Libraries/STM32F4xx_HAL_Driver/Src/stm32f4xx_hal_irda.c ****     {
1328:./Libraries/STM32F4xx_HAL_Driver/Src/stm32f4xx_hal_irda.c ****       hirda->ErrorCode |= HAL_IRDA_ERROR_PE;
 2763              		.loc 1 1328 24
 2764 0084 7B68     		ldr	r3, [r7, #4]
 2765 0086 9B6B     		ldr	r3, [r3, #56]
 2766 0088 43F00102 		orr	r2, r3, #1
 2767 008c 7B68     		ldr	r3, [r7, #4]
 2768 008e 9A63     		str	r2, [r3, #56]
 2769              	.L122:
1329:./Libraries/STM32F4xx_HAL_Driver/Src/stm32f4xx_hal_irda.c ****     }
1330:./Libraries/STM32F4xx_HAL_Driver/Src/stm32f4xx_hal_irda.c **** 
1331:./Libraries/STM32F4xx_HAL_Driver/Src/stm32f4xx_hal_irda.c ****     /* IRDA noise error interrupt occurred --------------------------------*/
1332:./Libraries/STM32F4xx_HAL_Driver/Src/stm32f4xx_hal_irda.c ****     if(((isrflags & USART_SR_NE) != RESET) && ((cr3its & USART_CR3_EIE) != RESET))
 2770              		.loc 1 1332 19
 2771 0090 FB69     		ldr	r3, [r7, #28]
 2772 0092 03F00403 		and	r3, r3, #4
 2773              		.loc 1 1332 7
 2774 0096 002B     		cmp	r3, #0
 2775 0098 0AD0     		beq	.L123
 2776              		.loc 1 1332 56 discriminator 1
 2777 009a 7B69     		ldr	r3, [r7, #20]
 2778 009c 03F00103 		and	r3, r3, #1
 2779              		.loc 1 1332 44 discriminator 1
 2780 00a0 002B     		cmp	r3, #0
 2781 00a2 05D0     		beq	.L123
1333:./Libraries/STM32F4xx_HAL_Driver/Src/stm32f4xx_hal_irda.c ****     {
1334:./Libraries/STM32F4xx_HAL_Driver/Src/stm32f4xx_hal_irda.c ****       hirda->ErrorCode |= HAL_IRDA_ERROR_NE;
 2782              		.loc 1 1334 24
 2783 00a4 7B68     		ldr	r3, [r7, #4]
 2784 00a6 9B6B     		ldr	r3, [r3, #56]
 2785 00a8 43F00202 		orr	r2, r3, #2
 2786 00ac 7B68     		ldr	r3, [r7, #4]
 2787 00ae 9A63     		str	r2, [r3, #56]
 2788              	.L123:
1335:./Libraries/STM32F4xx_HAL_Driver/Src/stm32f4xx_hal_irda.c ****     }
1336:./Libraries/STM32F4xx_HAL_Driver/Src/stm32f4xx_hal_irda.c **** 
1337:./Libraries/STM32F4xx_HAL_Driver/Src/stm32f4xx_hal_irda.c ****     /* IRDA frame error interrupt occurred --------------------------------*/
1338:./Libraries/STM32F4xx_HAL_Driver/Src/stm32f4xx_hal_irda.c ****     if(((isrflags & USART_SR_FE) != RESET) && ((cr3its & USART_CR3_EIE) != RESET))
 2789              		.loc 1 1338 19
 2790 00b0 FB69     		ldr	r3, [r7, #28]
 2791 00b2 03F00203 		and	r3, r3, #2
 2792              		.loc 1 1338 7
 2793 00b6 002B     		cmp	r3, #0
 2794 00b8 0AD0     		beq	.L124
 2795              		.loc 1 1338 56 discriminator 1
 2796 00ba 7B69     		ldr	r3, [r7, #20]
 2797 00bc 03F00103 		and	r3, r3, #1
 2798              		.loc 1 1338 44 discriminator 1
 2799 00c0 002B     		cmp	r3, #0
 2800 00c2 05D0     		beq	.L124
1339:./Libraries/STM32F4xx_HAL_Driver/Src/stm32f4xx_hal_irda.c ****     {
ARM GAS  /tmp/ccJhy18e.s 			page 73


1340:./Libraries/STM32F4xx_HAL_Driver/Src/stm32f4xx_hal_irda.c ****       hirda->ErrorCode |= HAL_IRDA_ERROR_FE;
 2801              		.loc 1 1340 24
 2802 00c4 7B68     		ldr	r3, [r7, #4]
 2803 00c6 9B6B     		ldr	r3, [r3, #56]
 2804 00c8 43F00402 		orr	r2, r3, #4
 2805 00cc 7B68     		ldr	r3, [r7, #4]
 2806 00ce 9A63     		str	r2, [r3, #56]
 2807              	.L124:
1341:./Libraries/STM32F4xx_HAL_Driver/Src/stm32f4xx_hal_irda.c ****     }
1342:./Libraries/STM32F4xx_HAL_Driver/Src/stm32f4xx_hal_irda.c **** 
1343:./Libraries/STM32F4xx_HAL_Driver/Src/stm32f4xx_hal_irda.c ****     /* IRDA Over-Run interrupt occurred -----------------------------------*/
1344:./Libraries/STM32F4xx_HAL_Driver/Src/stm32f4xx_hal_irda.c ****     if(((isrflags & USART_SR_ORE) != RESET) && ((cr3its & USART_CR3_EIE) != RESET))
 2808              		.loc 1 1344 19
 2809 00d0 FB69     		ldr	r3, [r7, #28]
 2810 00d2 03F00803 		and	r3, r3, #8
 2811              		.loc 1 1344 7
 2812 00d6 002B     		cmp	r3, #0
 2813 00d8 0AD0     		beq	.L125
 2814              		.loc 1 1344 57 discriminator 1
 2815 00da 7B69     		ldr	r3, [r7, #20]
 2816 00dc 03F00103 		and	r3, r3, #1
 2817              		.loc 1 1344 45 discriminator 1
 2818 00e0 002B     		cmp	r3, #0
 2819 00e2 05D0     		beq	.L125
1345:./Libraries/STM32F4xx_HAL_Driver/Src/stm32f4xx_hal_irda.c ****     { 
1346:./Libraries/STM32F4xx_HAL_Driver/Src/stm32f4xx_hal_irda.c ****       hirda->ErrorCode |= HAL_IRDA_ERROR_ORE;
 2820              		.loc 1 1346 24
 2821 00e4 7B68     		ldr	r3, [r7, #4]
 2822 00e6 9B6B     		ldr	r3, [r3, #56]
 2823 00e8 43F00802 		orr	r2, r3, #8
 2824 00ec 7B68     		ldr	r3, [r7, #4]
 2825 00ee 9A63     		str	r2, [r3, #56]
 2826              	.L125:
1347:./Libraries/STM32F4xx_HAL_Driver/Src/stm32f4xx_hal_irda.c ****     }
1348:./Libraries/STM32F4xx_HAL_Driver/Src/stm32f4xx_hal_irda.c ****     /* Call IRDA Error Call back function if need be -----------------------*/ 
1349:./Libraries/STM32F4xx_HAL_Driver/Src/stm32f4xx_hal_irda.c ****     if(hirda->ErrorCode != HAL_IRDA_ERROR_NONE)
 2827              		.loc 1 1349 13
 2828 00f0 7B68     		ldr	r3, [r7, #4]
 2829 00f2 9B6B     		ldr	r3, [r3, #56]
 2830              		.loc 1 1349 7
 2831 00f4 002B     		cmp	r3, #0
 2832 00f6 77D0     		beq	.L134
1350:./Libraries/STM32F4xx_HAL_Driver/Src/stm32f4xx_hal_irda.c ****     {
1351:./Libraries/STM32F4xx_HAL_Driver/Src/stm32f4xx_hal_irda.c ****       /* IRDA in mode Receiver ---------------------------------------------*/
1352:./Libraries/STM32F4xx_HAL_Driver/Src/stm32f4xx_hal_irda.c ****       if(((isrflags & USART_SR_RXNE) != RESET) && ((cr1its & USART_CR1_RXNEIE) != RESET))
 2833              		.loc 1 1352 21
 2834 00f8 FB69     		ldr	r3, [r7, #28]
 2835 00fa 03F02003 		and	r3, r3, #32
 2836              		.loc 1 1352 9
 2837 00fe 002B     		cmp	r3, #0
 2838 0100 07D0     		beq	.L127
 2839              		.loc 1 1352 60 discriminator 1
 2840 0102 BB69     		ldr	r3, [r7, #24]
 2841 0104 03F02003 		and	r3, r3, #32
 2842              		.loc 1 1352 48 discriminator 1
 2843 0108 002B     		cmp	r3, #0
 2844 010a 02D0     		beq	.L127
ARM GAS  /tmp/ccJhy18e.s 			page 74


1353:./Libraries/STM32F4xx_HAL_Driver/Src/stm32f4xx_hal_irda.c ****       {
1354:./Libraries/STM32F4xx_HAL_Driver/Src/stm32f4xx_hal_irda.c ****         IRDA_Receive_IT(hirda);
 2845              		.loc 1 1354 9
 2846 010c 7868     		ldr	r0, [r7, #4]
 2847 010e FFF7FEFF 		bl	IRDA_Receive_IT
 2848              	.L127:
1355:./Libraries/STM32F4xx_HAL_Driver/Src/stm32f4xx_hal_irda.c ****       }
1356:./Libraries/STM32F4xx_HAL_Driver/Src/stm32f4xx_hal_irda.c **** 
1357:./Libraries/STM32F4xx_HAL_Driver/Src/stm32f4xx_hal_irda.c ****       dmarequest = HAL_IS_BIT_SET(hirda->Instance->CR3, USART_CR3_DMAR);
 2849              		.loc 1 1357 20
 2850 0112 7B68     		ldr	r3, [r7, #4]
 2851 0114 1B68     		ldr	r3, [r3]
 2852 0116 5B69     		ldr	r3, [r3, #20]
 2853 0118 03F04003 		and	r3, r3, #64
 2854 011c 002B     		cmp	r3, #0
 2855 011e 14BF     		ite	ne
 2856 0120 0123     		movne	r3, #1
 2857 0122 0023     		moveq	r3, #0
 2858 0124 DBB2     		uxtb	r3, r3
 2859              		.loc 1 1357 18
 2860 0126 FB60     		str	r3, [r7, #12]
1358:./Libraries/STM32F4xx_HAL_Driver/Src/stm32f4xx_hal_irda.c ****       /* If Overrun error occurs, or if any error occurs in DMA mode reception,
1359:./Libraries/STM32F4xx_HAL_Driver/Src/stm32f4xx_hal_irda.c ****          consider error as blocking */
1360:./Libraries/STM32F4xx_HAL_Driver/Src/stm32f4xx_hal_irda.c ****       if(((hirda->ErrorCode & HAL_IRDA_ERROR_ORE) != RESET) || dmarequest)
 2861              		.loc 1 1360 17
 2862 0128 7B68     		ldr	r3, [r7, #4]
 2863 012a 9B6B     		ldr	r3, [r3, #56]
 2864              		.loc 1 1360 29
 2865 012c 03F00803 		and	r3, r3, #8
 2866              		.loc 1 1360 9
 2867 0130 002B     		cmp	r3, #0
 2868 0132 02D1     		bne	.L128
 2869              		.loc 1 1360 61 discriminator 1
 2870 0134 FB68     		ldr	r3, [r7, #12]
 2871 0136 002B     		cmp	r3, #0
 2872 0138 31D0     		beq	.L129
 2873              	.L128:
1361:./Libraries/STM32F4xx_HAL_Driver/Src/stm32f4xx_hal_irda.c ****       {
1362:./Libraries/STM32F4xx_HAL_Driver/Src/stm32f4xx_hal_irda.c ****         /* Blocking error : transfer is aborted
1363:./Libraries/STM32F4xx_HAL_Driver/Src/stm32f4xx_hal_irda.c ****            Set the IRDA state ready to be able to start again the process,
1364:./Libraries/STM32F4xx_HAL_Driver/Src/stm32f4xx_hal_irda.c ****            Disable Rx Interrupts, and disable Rx DMA request, if ongoing */
1365:./Libraries/STM32F4xx_HAL_Driver/Src/stm32f4xx_hal_irda.c ****         IRDA_EndRxTransfer(hirda);
 2874              		.loc 1 1365 9
 2875 013a 7868     		ldr	r0, [r7, #4]
