ARM GAS  /tmp/ccMhfXg8.s 			page 1


   1              		.cpu cortex-m4
   2              		.eabi_attribute 27, 1
   3              		.eabi_attribute 28, 1
   4              		.eabi_attribute 20, 1
   5              		.eabi_attribute 21, 1
   6              		.eabi_attribute 23, 3
   7              		.eabi_attribute 24, 1
   8              		.eabi_attribute 25, 1
   9              		.eabi_attribute 26, 1
  10              		.eabi_attribute 30, 6
  11              		.eabi_attribute 34, 1
  12              		.eabi_attribute 18, 4
  13              		.file	"stm32f4xx_hal_sd.c"
  14              		.text
  15              	.Ltext0:
  16              		.cfi_sections	.debug_frame
  17              		.section	.text.HAL_SD_Init,"ax",%progbits
  18              		.align	1
  19              		.global	HAL_SD_Init
  20              		.arch armv7e-m
  21              		.syntax unified
  22              		.thumb
  23              		.thumb_func
  24              		.fpu fpv4-sp-d16
  26              	HAL_SD_Init:
  27              	.LFB126:
  28              		.file 1 "./Libraries/STM32F4xx_HAL_Driver/Src/stm32f4xx_hal_sd.c"
   1:./Libraries/STM32F4xx_HAL_Driver/Src/stm32f4xx_hal_sd.c **** /**
   2:./Libraries/STM32F4xx_HAL_Driver/Src/stm32f4xx_hal_sd.c ****   ******************************************************************************
   3:./Libraries/STM32F4xx_HAL_Driver/Src/stm32f4xx_hal_sd.c ****   * @file    stm32f4xx_hal_sd.c
   4:./Libraries/STM32F4xx_HAL_Driver/Src/stm32f4xx_hal_sd.c ****   * @author  MCD Application Team
   5:./Libraries/STM32F4xx_HAL_Driver/Src/stm32f4xx_hal_sd.c ****   * @brief   SD card HAL module driver.
   6:./Libraries/STM32F4xx_HAL_Driver/Src/stm32f4xx_hal_sd.c ****   *          This file provides firmware functions to manage the following 
   7:./Libraries/STM32F4xx_HAL_Driver/Src/stm32f4xx_hal_sd.c ****   *          functionalities of the Secure Digital (SD) peripheral:
   8:./Libraries/STM32F4xx_HAL_Driver/Src/stm32f4xx_hal_sd.c ****   *           + Initialization and de-initialization functions
   9:./Libraries/STM32F4xx_HAL_Driver/Src/stm32f4xx_hal_sd.c ****   *           + IO operation functions
  10:./Libraries/STM32F4xx_HAL_Driver/Src/stm32f4xx_hal_sd.c ****   *           + Peripheral Control functions 
  11:./Libraries/STM32F4xx_HAL_Driver/Src/stm32f4xx_hal_sd.c ****   *           + SD card Control functions
  12:./Libraries/STM32F4xx_HAL_Driver/Src/stm32f4xx_hal_sd.c ****   *         
  13:./Libraries/STM32F4xx_HAL_Driver/Src/stm32f4xx_hal_sd.c ****   @verbatim
  14:./Libraries/STM32F4xx_HAL_Driver/Src/stm32f4xx_hal_sd.c ****   ==============================================================================
  15:./Libraries/STM32F4xx_HAL_Driver/Src/stm32f4xx_hal_sd.c ****                         ##### How to use this driver #####
  16:./Libraries/STM32F4xx_HAL_Driver/Src/stm32f4xx_hal_sd.c ****   ==============================================================================
  17:./Libraries/STM32F4xx_HAL_Driver/Src/stm32f4xx_hal_sd.c ****   [..]
  18:./Libraries/STM32F4xx_HAL_Driver/Src/stm32f4xx_hal_sd.c ****     This driver implements a high level communication layer for read and write from/to 
  19:./Libraries/STM32F4xx_HAL_Driver/Src/stm32f4xx_hal_sd.c ****     this memory. The needed STM32 hardware resources (SDIO and GPIO) are performed by 
  20:./Libraries/STM32F4xx_HAL_Driver/Src/stm32f4xx_hal_sd.c ****     the user in HAL_SD_MspInit() function (MSP layer).                             
  21:./Libraries/STM32F4xx_HAL_Driver/Src/stm32f4xx_hal_sd.c ****     Basically, the MSP layer configuration should be the same as we provide in the 
  22:./Libraries/STM32F4xx_HAL_Driver/Src/stm32f4xx_hal_sd.c ****     examples.
  23:./Libraries/STM32F4xx_HAL_Driver/Src/stm32f4xx_hal_sd.c ****     You can easily tailor this configuration according to hardware resources.
  24:./Libraries/STM32F4xx_HAL_Driver/Src/stm32f4xx_hal_sd.c **** 
  25:./Libraries/STM32F4xx_HAL_Driver/Src/stm32f4xx_hal_sd.c ****   [..]
  26:./Libraries/STM32F4xx_HAL_Driver/Src/stm32f4xx_hal_sd.c ****     This driver is a generic layered driver for SDIO memories which uses the HAL 
  27:./Libraries/STM32F4xx_HAL_Driver/Src/stm32f4xx_hal_sd.c ****     SDIO driver functions to interface with SD and uSD cards devices. 
  28:./Libraries/STM32F4xx_HAL_Driver/Src/stm32f4xx_hal_sd.c ****     It is used as follows:
  29:./Libraries/STM32F4xx_HAL_Driver/Src/stm32f4xx_hal_sd.c ****  
  30:./Libraries/STM32F4xx_HAL_Driver/Src/stm32f4xx_hal_sd.c ****     (#)Initialize the SDIO low level resources by implement the HAL_SD_MspInit() API:
ARM GAS  /tmp/ccMhfXg8.s 			page 2


  31:./Libraries/STM32F4xx_HAL_Driver/Src/stm32f4xx_hal_sd.c ****         (##) Enable the SDIO interface clock using __HAL_RCC_SDIO_CLK_ENABLE(); 
  32:./Libraries/STM32F4xx_HAL_Driver/Src/stm32f4xx_hal_sd.c ****         (##) SDIO pins configuration for SD card
  33:./Libraries/STM32F4xx_HAL_Driver/Src/stm32f4xx_hal_sd.c ****             (+++) Enable the clock for the SDIO GPIOs using the functions __HAL_RCC_GPIOx_CLK_ENABL
  34:./Libraries/STM32F4xx_HAL_Driver/Src/stm32f4xx_hal_sd.c ****             (+++) Configure these SDIO pins as alternate function pull-up using HAL_GPIO_Init()
  35:./Libraries/STM32F4xx_HAL_Driver/Src/stm32f4xx_hal_sd.c ****                   and according to your pin assignment;
  36:./Libraries/STM32F4xx_HAL_Driver/Src/stm32f4xx_hal_sd.c ****         (##) DMA Configuration if you need to use DMA process (HAL_SD_ReadBlocks_DMA()
  37:./Libraries/STM32F4xx_HAL_Driver/Src/stm32f4xx_hal_sd.c ****              and HAL_SD_WriteBlocks_DMA() APIs).
  38:./Libraries/STM32F4xx_HAL_Driver/Src/stm32f4xx_hal_sd.c ****             (+++) Enable the DMAx interface clock using __HAL_RCC_DMAx_CLK_ENABLE(); 
  39:./Libraries/STM32F4xx_HAL_Driver/Src/stm32f4xx_hal_sd.c ****             (+++) Configure the DMA using the function HAL_DMA_Init() with predeclared and filled. 
  40:./Libraries/STM32F4xx_HAL_Driver/Src/stm32f4xx_hal_sd.c ****         (##) NVIC configuration if you need to use interrupt process when using DMA transfer.
  41:./Libraries/STM32F4xx_HAL_Driver/Src/stm32f4xx_hal_sd.c ****             (+++) Configure the SDIO and DMA interrupt priorities using functions
  42:./Libraries/STM32F4xx_HAL_Driver/Src/stm32f4xx_hal_sd.c ****                   HAL_NVIC_SetPriority(); DMA priority is superior to SDIO's priority
  43:./Libraries/STM32F4xx_HAL_Driver/Src/stm32f4xx_hal_sd.c ****             (+++) Enable the NVIC DMA and SDIO IRQs using function HAL_NVIC_EnableIRQ()
  44:./Libraries/STM32F4xx_HAL_Driver/Src/stm32f4xx_hal_sd.c ****             (+++) SDIO interrupts are managed using the macros __HAL_SD_ENABLE_IT() 
  45:./Libraries/STM32F4xx_HAL_Driver/Src/stm32f4xx_hal_sd.c ****                   and __HAL_SD_DISABLE_IT() inside the communication process.
  46:./Libraries/STM32F4xx_HAL_Driver/Src/stm32f4xx_hal_sd.c ****             (+++) SDIO interrupts pending bits are managed using the macros __HAL_SD_GET_IT()
  47:./Libraries/STM32F4xx_HAL_Driver/Src/stm32f4xx_hal_sd.c ****                   and __HAL_SD_CLEAR_IT()
  48:./Libraries/STM32F4xx_HAL_Driver/Src/stm32f4xx_hal_sd.c ****         (##) NVIC configuration if you need to use interrupt process (HAL_SD_ReadBlocks_IT()
  49:./Libraries/STM32F4xx_HAL_Driver/Src/stm32f4xx_hal_sd.c ****              and HAL_SD_WriteBlocks_IT() APIs).
  50:./Libraries/STM32F4xx_HAL_Driver/Src/stm32f4xx_hal_sd.c ****             (+++) Configure the SDIO interrupt priorities using function
  51:./Libraries/STM32F4xx_HAL_Driver/Src/stm32f4xx_hal_sd.c ****                   HAL_NVIC_SetPriority();
  52:./Libraries/STM32F4xx_HAL_Driver/Src/stm32f4xx_hal_sd.c ****             (+++) Enable the NVIC SDIO IRQs using function HAL_NVIC_EnableIRQ()
  53:./Libraries/STM32F4xx_HAL_Driver/Src/stm32f4xx_hal_sd.c ****             (+++) SDIO interrupts are managed using the macros __HAL_SD_ENABLE_IT() 
  54:./Libraries/STM32F4xx_HAL_Driver/Src/stm32f4xx_hal_sd.c ****                   and __HAL_SD_DISABLE_IT() inside the communication process.
  55:./Libraries/STM32F4xx_HAL_Driver/Src/stm32f4xx_hal_sd.c ****             (+++) SDIO interrupts pending bits are managed using the macros __HAL_SD_GET_IT()
  56:./Libraries/STM32F4xx_HAL_Driver/Src/stm32f4xx_hal_sd.c ****                   and __HAL_SD_CLEAR_IT()
  57:./Libraries/STM32F4xx_HAL_Driver/Src/stm32f4xx_hal_sd.c ****     (#) At this stage, you can perform SD read/write/erase operations after SD card initialization 
  58:./Libraries/STM32F4xx_HAL_Driver/Src/stm32f4xx_hal_sd.c **** 
  59:./Libraries/STM32F4xx_HAL_Driver/Src/stm32f4xx_hal_sd.c ****          
  60:./Libraries/STM32F4xx_HAL_Driver/Src/stm32f4xx_hal_sd.c ****   *** SD Card Initialization and configuration ***
  61:./Libraries/STM32F4xx_HAL_Driver/Src/stm32f4xx_hal_sd.c ****   ================================================    
  62:./Libraries/STM32F4xx_HAL_Driver/Src/stm32f4xx_hal_sd.c ****   [..]
  63:./Libraries/STM32F4xx_HAL_Driver/Src/stm32f4xx_hal_sd.c ****     To initialize the SD Card, use the HAL_SD_Init() function. It Initializes 
  64:./Libraries/STM32F4xx_HAL_Driver/Src/stm32f4xx_hal_sd.c ****     SDIO IP(STM32 side) and the SD Card, and put it into StandBy State (Ready for data transfer). 
  65:./Libraries/STM32F4xx_HAL_Driver/Src/stm32f4xx_hal_sd.c ****     This function provide the following operations:
  66:./Libraries/STM32F4xx_HAL_Driver/Src/stm32f4xx_hal_sd.c **** 
  67:./Libraries/STM32F4xx_HAL_Driver/Src/stm32f4xx_hal_sd.c ****     (#) Initialize the SDIO peripheral interface with defaullt configuration.
  68:./Libraries/STM32F4xx_HAL_Driver/Src/stm32f4xx_hal_sd.c ****         The initialization process is done at 400KHz. You can change or adapt 
  69:./Libraries/STM32F4xx_HAL_Driver/Src/stm32f4xx_hal_sd.c ****         this frequency by adjusting the "ClockDiv" field. 
  70:./Libraries/STM32F4xx_HAL_Driver/Src/stm32f4xx_hal_sd.c ****         The SD Card frequency (SDIO_CK) is computed as follows:
  71:./Libraries/STM32F4xx_HAL_Driver/Src/stm32f4xx_hal_sd.c ****   
  72:./Libraries/STM32F4xx_HAL_Driver/Src/stm32f4xx_hal_sd.c ****            SDIO_CK = SDIOCLK / (ClockDiv + 2)
  73:./Libraries/STM32F4xx_HAL_Driver/Src/stm32f4xx_hal_sd.c ****   
  74:./Libraries/STM32F4xx_HAL_Driver/Src/stm32f4xx_hal_sd.c ****         In initialization mode and according to the SD Card standard, 
  75:./Libraries/STM32F4xx_HAL_Driver/Src/stm32f4xx_hal_sd.c ****         make sure that the SDIO_CK frequency doesn't exceed 400KHz.
  76:./Libraries/STM32F4xx_HAL_Driver/Src/stm32f4xx_hal_sd.c **** 
  77:./Libraries/STM32F4xx_HAL_Driver/Src/stm32f4xx_hal_sd.c ****         This phase of initialization is done through SDIO_Init() and 
  78:./Libraries/STM32F4xx_HAL_Driver/Src/stm32f4xx_hal_sd.c ****         SDIO_PowerState_ON() SDIO low level APIs.
  79:./Libraries/STM32F4xx_HAL_Driver/Src/stm32f4xx_hal_sd.c **** 
  80:./Libraries/STM32F4xx_HAL_Driver/Src/stm32f4xx_hal_sd.c ****     (#) Initialize the SD card. The API used is HAL_SD_InitCard().
  81:./Libraries/STM32F4xx_HAL_Driver/Src/stm32f4xx_hal_sd.c ****         This phase allows the card initialization and identification 
  82:./Libraries/STM32F4xx_HAL_Driver/Src/stm32f4xx_hal_sd.c ****         and check the SD Card type (Standard Capacity or High Capacity)
  83:./Libraries/STM32F4xx_HAL_Driver/Src/stm32f4xx_hal_sd.c ****         The initialization flow is compatible with SD standard.
  84:./Libraries/STM32F4xx_HAL_Driver/Src/stm32f4xx_hal_sd.c **** 
  85:./Libraries/STM32F4xx_HAL_Driver/Src/stm32f4xx_hal_sd.c ****         This API (HAL_SD_InitCard()) could be used also to reinitialize the card in case 
  86:./Libraries/STM32F4xx_HAL_Driver/Src/stm32f4xx_hal_sd.c ****         of plug-off plug-in.
  87:./Libraries/STM32F4xx_HAL_Driver/Src/stm32f4xx_hal_sd.c ****   
ARM GAS  /tmp/ccMhfXg8.s 			page 3


  88:./Libraries/STM32F4xx_HAL_Driver/Src/stm32f4xx_hal_sd.c ****     (#) Configure the SD Card Data transfer frequency. By Default, the card transfer 
  89:./Libraries/STM32F4xx_HAL_Driver/Src/stm32f4xx_hal_sd.c ****         frequency is set to 24MHz. You can change or adapt this frequency by adjusting 
  90:./Libraries/STM32F4xx_HAL_Driver/Src/stm32f4xx_hal_sd.c ****         the "ClockDiv" field.
  91:./Libraries/STM32F4xx_HAL_Driver/Src/stm32f4xx_hal_sd.c ****         In transfer mode and according to the SD Card standard, make sure that the 
  92:./Libraries/STM32F4xx_HAL_Driver/Src/stm32f4xx_hal_sd.c ****         SDIO_CK frequency doesn't exceed 25MHz and 50MHz in High-speed mode switch.
  93:./Libraries/STM32F4xx_HAL_Driver/Src/stm32f4xx_hal_sd.c ****         To be able to use a frequency higher than 24MHz, you should use the SDIO 
  94:./Libraries/STM32F4xx_HAL_Driver/Src/stm32f4xx_hal_sd.c ****         peripheral in bypass mode. Refer to the corresponding reference manual 
  95:./Libraries/STM32F4xx_HAL_Driver/Src/stm32f4xx_hal_sd.c ****         for more details.
  96:./Libraries/STM32F4xx_HAL_Driver/Src/stm32f4xx_hal_sd.c ****   
  97:./Libraries/STM32F4xx_HAL_Driver/Src/stm32f4xx_hal_sd.c ****     (#) Select the corresponding SD Card according to the address read with the step 2.
  98:./Libraries/STM32F4xx_HAL_Driver/Src/stm32f4xx_hal_sd.c ****     
  99:./Libraries/STM32F4xx_HAL_Driver/Src/stm32f4xx_hal_sd.c ****     (#) Configure the SD Card in wide bus mode: 4-bits data.
 100:./Libraries/STM32F4xx_HAL_Driver/Src/stm32f4xx_hal_sd.c ****   
 101:./Libraries/STM32F4xx_HAL_Driver/Src/stm32f4xx_hal_sd.c ****   *** SD Card Read operation ***
 102:./Libraries/STM32F4xx_HAL_Driver/Src/stm32f4xx_hal_sd.c ****   ==============================
 103:./Libraries/STM32F4xx_HAL_Driver/Src/stm32f4xx_hal_sd.c ****   [..] 
 104:./Libraries/STM32F4xx_HAL_Driver/Src/stm32f4xx_hal_sd.c ****     (+) You can read from SD card in polling mode by using function HAL_SD_ReadBlocks(). 
 105:./Libraries/STM32F4xx_HAL_Driver/Src/stm32f4xx_hal_sd.c ****         This function allows the read of 512 bytes blocks.
 106:./Libraries/STM32F4xx_HAL_Driver/Src/stm32f4xx_hal_sd.c ****         You can choose either one block read operation or multiple block read operation 
 107:./Libraries/STM32F4xx_HAL_Driver/Src/stm32f4xx_hal_sd.c ****         by adjusting the "NumberOfBlocks" parameter.
 108:./Libraries/STM32F4xx_HAL_Driver/Src/stm32f4xx_hal_sd.c ****         After this, you have to ensure that the transfer is done correctly. The check is done
 109:./Libraries/STM32F4xx_HAL_Driver/Src/stm32f4xx_hal_sd.c ****         through HAL_SD_GetCardState() function for SD card state.
 110:./Libraries/STM32F4xx_HAL_Driver/Src/stm32f4xx_hal_sd.c **** 
 111:./Libraries/STM32F4xx_HAL_Driver/Src/stm32f4xx_hal_sd.c ****     (+) You can read from SD card in DMA mode by using function HAL_SD_ReadBlocks_DMA().
 112:./Libraries/STM32F4xx_HAL_Driver/Src/stm32f4xx_hal_sd.c ****         This function allows the read of 512 bytes blocks.
 113:./Libraries/STM32F4xx_HAL_Driver/Src/stm32f4xx_hal_sd.c ****         You can choose either one block read operation or multiple block read operation 
 114:./Libraries/STM32F4xx_HAL_Driver/Src/stm32f4xx_hal_sd.c ****         by adjusting the "NumberOfBlocks" parameter.
 115:./Libraries/STM32F4xx_HAL_Driver/Src/stm32f4xx_hal_sd.c ****         After this, you have to ensure that the transfer is done correctly. The check is done
 116:./Libraries/STM32F4xx_HAL_Driver/Src/stm32f4xx_hal_sd.c ****         through HAL_SD_GetCardState() function for SD card state.
 117:./Libraries/STM32F4xx_HAL_Driver/Src/stm32f4xx_hal_sd.c ****         You could also check the DMA transfer process through the SD Rx interrupt event.
 118:./Libraries/STM32F4xx_HAL_Driver/Src/stm32f4xx_hal_sd.c **** 
 119:./Libraries/STM32F4xx_HAL_Driver/Src/stm32f4xx_hal_sd.c ****     (+) You can read from SD card in Interrupt mode by using function HAL_SD_ReadBlocks_IT().
 120:./Libraries/STM32F4xx_HAL_Driver/Src/stm32f4xx_hal_sd.c ****         This function allows the read of 512 bytes blocks.
 121:./Libraries/STM32F4xx_HAL_Driver/Src/stm32f4xx_hal_sd.c ****         You can choose either one block read operation or multiple block read operation 
 122:./Libraries/STM32F4xx_HAL_Driver/Src/stm32f4xx_hal_sd.c ****         by adjusting the "NumberOfBlocks" parameter.
 123:./Libraries/STM32F4xx_HAL_Driver/Src/stm32f4xx_hal_sd.c ****         After this, you have to ensure that the transfer is done correctly. The check is done
 124:./Libraries/STM32F4xx_HAL_Driver/Src/stm32f4xx_hal_sd.c ****         through HAL_SD_GetCardState() function for SD card state.
 125:./Libraries/STM32F4xx_HAL_Driver/Src/stm32f4xx_hal_sd.c ****         You could also check the IT transfer process through the SD Rx interrupt event.
 126:./Libraries/STM32F4xx_HAL_Driver/Src/stm32f4xx_hal_sd.c ****   
 127:./Libraries/STM32F4xx_HAL_Driver/Src/stm32f4xx_hal_sd.c ****   *** SD Card Write operation ***
 128:./Libraries/STM32F4xx_HAL_Driver/Src/stm32f4xx_hal_sd.c ****   =============================== 
 129:./Libraries/STM32F4xx_HAL_Driver/Src/stm32f4xx_hal_sd.c ****   [..] 
 130:./Libraries/STM32F4xx_HAL_Driver/Src/stm32f4xx_hal_sd.c ****     (+) You can write to SD card in polling mode by using function HAL_SD_WriteBlocks(). 
 131:./Libraries/STM32F4xx_HAL_Driver/Src/stm32f4xx_hal_sd.c ****         This function allows the read of 512 bytes blocks.
 132:./Libraries/STM32F4xx_HAL_Driver/Src/stm32f4xx_hal_sd.c ****         You can choose either one block read operation or multiple block read operation 
 133:./Libraries/STM32F4xx_HAL_Driver/Src/stm32f4xx_hal_sd.c ****         by adjusting the "NumberOfBlocks" parameter.
 134:./Libraries/STM32F4xx_HAL_Driver/Src/stm32f4xx_hal_sd.c ****         After this, you have to ensure that the transfer is done correctly. The check is done
 135:./Libraries/STM32F4xx_HAL_Driver/Src/stm32f4xx_hal_sd.c ****         through HAL_SD_GetCardState() function for SD card state.
 136:./Libraries/STM32F4xx_HAL_Driver/Src/stm32f4xx_hal_sd.c **** 
 137:./Libraries/STM32F4xx_HAL_Driver/Src/stm32f4xx_hal_sd.c ****     (+) You can write to SD card in DMA mode by using function HAL_SD_WriteBlocks_DMA().
 138:./Libraries/STM32F4xx_HAL_Driver/Src/stm32f4xx_hal_sd.c ****         This function allows the read of 512 bytes blocks.
 139:./Libraries/STM32F4xx_HAL_Driver/Src/stm32f4xx_hal_sd.c ****         You can choose either one block read operation or multiple block read operation 
 140:./Libraries/STM32F4xx_HAL_Driver/Src/stm32f4xx_hal_sd.c ****         by adjusting the "NumberOfBlocks" parameter.
 141:./Libraries/STM32F4xx_HAL_Driver/Src/stm32f4xx_hal_sd.c ****         After this, you have to ensure that the transfer is done correctly. The check is done
 142:./Libraries/STM32F4xx_HAL_Driver/Src/stm32f4xx_hal_sd.c ****         through HAL_SD_GetCardState() function for SD card state.
 143:./Libraries/STM32F4xx_HAL_Driver/Src/stm32f4xx_hal_sd.c ****         You could also check the DMA transfer process through the SD Tx interrupt event.  
 144:./Libraries/STM32F4xx_HAL_Driver/Src/stm32f4xx_hal_sd.c **** 
ARM GAS  /tmp/ccMhfXg8.s 			page 4


 145:./Libraries/STM32F4xx_HAL_Driver/Src/stm32f4xx_hal_sd.c ****     (+) You can write to SD card in Interrupt mode by using function HAL_SD_WriteBlocks_IT().
 146:./Libraries/STM32F4xx_HAL_Driver/Src/stm32f4xx_hal_sd.c ****         This function allows the read of 512 bytes blocks.
 147:./Libraries/STM32F4xx_HAL_Driver/Src/stm32f4xx_hal_sd.c ****         You can choose either one block read operation or multiple block read operation 
 148:./Libraries/STM32F4xx_HAL_Driver/Src/stm32f4xx_hal_sd.c ****         by adjusting the "NumberOfBlocks" parameter.
 149:./Libraries/STM32F4xx_HAL_Driver/Src/stm32f4xx_hal_sd.c ****         After this, you have to ensure that the transfer is done correctly. The check is done
 150:./Libraries/STM32F4xx_HAL_Driver/Src/stm32f4xx_hal_sd.c ****         through HAL_SD_GetCardState() function for SD card state.
 151:./Libraries/STM32F4xx_HAL_Driver/Src/stm32f4xx_hal_sd.c ****         You could also check the IT transfer process through the SD Tx interrupt event.
 152:./Libraries/STM32F4xx_HAL_Driver/Src/stm32f4xx_hal_sd.c ****   
 153:./Libraries/STM32F4xx_HAL_Driver/Src/stm32f4xx_hal_sd.c ****   *** SD card status ***
 154:./Libraries/STM32F4xx_HAL_Driver/Src/stm32f4xx_hal_sd.c ****   ====================== 
 155:./Libraries/STM32F4xx_HAL_Driver/Src/stm32f4xx_hal_sd.c ****   [..]
 156:./Libraries/STM32F4xx_HAL_Driver/Src/stm32f4xx_hal_sd.c ****     (+) The SD Status contains status bits that are related to the SD Memory 
 157:./Libraries/STM32F4xx_HAL_Driver/Src/stm32f4xx_hal_sd.c ****         Card proprietary features. To get SD card status use the HAL_SD_GetCardStatus().
 158:./Libraries/STM32F4xx_HAL_Driver/Src/stm32f4xx_hal_sd.c **** 
 159:./Libraries/STM32F4xx_HAL_Driver/Src/stm32f4xx_hal_sd.c ****   *** SD card information ***
 160:./Libraries/STM32F4xx_HAL_Driver/Src/stm32f4xx_hal_sd.c ****   =========================== 
 161:./Libraries/STM32F4xx_HAL_Driver/Src/stm32f4xx_hal_sd.c ****   [..]
 162:./Libraries/STM32F4xx_HAL_Driver/Src/stm32f4xx_hal_sd.c ****     (+) To get SD card information, you can use the function HAL_SD_GetCardInfo().
 163:./Libraries/STM32F4xx_HAL_Driver/Src/stm32f4xx_hal_sd.c ****         It returns useful information about the SD card such as block size, card type,
 164:./Libraries/STM32F4xx_HAL_Driver/Src/stm32f4xx_hal_sd.c ****         block number ...
 165:./Libraries/STM32F4xx_HAL_Driver/Src/stm32f4xx_hal_sd.c **** 
 166:./Libraries/STM32F4xx_HAL_Driver/Src/stm32f4xx_hal_sd.c ****   *** SD card CSD register ***
 167:./Libraries/STM32F4xx_HAL_Driver/Src/stm32f4xx_hal_sd.c ****   ============================
 168:./Libraries/STM32F4xx_HAL_Driver/Src/stm32f4xx_hal_sd.c ****   [..]
 169:./Libraries/STM32F4xx_HAL_Driver/Src/stm32f4xx_hal_sd.c ****     (+) The HAL_SD_GetCardCSD() API allows to get the parameters of the CSD register.
 170:./Libraries/STM32F4xx_HAL_Driver/Src/stm32f4xx_hal_sd.c ****         Some of the CSD parameters are useful for card initialization and identification.
 171:./Libraries/STM32F4xx_HAL_Driver/Src/stm32f4xx_hal_sd.c **** 
 172:./Libraries/STM32F4xx_HAL_Driver/Src/stm32f4xx_hal_sd.c ****   *** SD card CID register ***
 173:./Libraries/STM32F4xx_HAL_Driver/Src/stm32f4xx_hal_sd.c ****   ============================
 174:./Libraries/STM32F4xx_HAL_Driver/Src/stm32f4xx_hal_sd.c ****   [..]
 175:./Libraries/STM32F4xx_HAL_Driver/Src/stm32f4xx_hal_sd.c ****     (+) The HAL_SD_GetCardCID() API allows to get the parameters of the CID register.
 176:./Libraries/STM32F4xx_HAL_Driver/Src/stm32f4xx_hal_sd.c ****         Some of the CSD parameters are useful for card initialization and identification.
 177:./Libraries/STM32F4xx_HAL_Driver/Src/stm32f4xx_hal_sd.c **** 
 178:./Libraries/STM32F4xx_HAL_Driver/Src/stm32f4xx_hal_sd.c ****   *** SD HAL driver macros list ***
 179:./Libraries/STM32F4xx_HAL_Driver/Src/stm32f4xx_hal_sd.c ****   ==================================
 180:./Libraries/STM32F4xx_HAL_Driver/Src/stm32f4xx_hal_sd.c ****   [..]
 181:./Libraries/STM32F4xx_HAL_Driver/Src/stm32f4xx_hal_sd.c ****     Below the list of most used macros in SD HAL driver.
 182:./Libraries/STM32F4xx_HAL_Driver/Src/stm32f4xx_hal_sd.c ****        
 183:./Libraries/STM32F4xx_HAL_Driver/Src/stm32f4xx_hal_sd.c ****     (+) __HAL_SD_ENABLE : Enable the SD device
 184:./Libraries/STM32F4xx_HAL_Driver/Src/stm32f4xx_hal_sd.c ****     (+) __HAL_SD_DISABLE : Disable the SD device
 185:./Libraries/STM32F4xx_HAL_Driver/Src/stm32f4xx_hal_sd.c ****     (+) __HAL_SD_DMA_ENABLE: Enable the SDIO DMA transfer
 186:./Libraries/STM32F4xx_HAL_Driver/Src/stm32f4xx_hal_sd.c ****     (+) __HAL_SD_DMA_DISABLE: Disable the SDIO DMA transfer
 187:./Libraries/STM32F4xx_HAL_Driver/Src/stm32f4xx_hal_sd.c ****     (+) __HAL_SD_ENABLE_IT: Enable the SD device interrupt
 188:./Libraries/STM32F4xx_HAL_Driver/Src/stm32f4xx_hal_sd.c ****     (+) __HAL_SD_DISABLE_IT: Disable the SD device interrupt
 189:./Libraries/STM32F4xx_HAL_Driver/Src/stm32f4xx_hal_sd.c ****     (+) __HAL_SD_GET_FLAG:Check whether the specified SD flag is set or not
 190:./Libraries/STM32F4xx_HAL_Driver/Src/stm32f4xx_hal_sd.c ****     (+) __HAL_SD_CLEAR_FLAG: Clear the SD's pending flags
 191:./Libraries/STM32F4xx_HAL_Driver/Src/stm32f4xx_hal_sd.c **** 
 192:./Libraries/STM32F4xx_HAL_Driver/Src/stm32f4xx_hal_sd.c ****    [..]
 193:./Libraries/STM32F4xx_HAL_Driver/Src/stm32f4xx_hal_sd.c ****     (@) You can refer to the SD HAL driver header file for more useful macros 
 194:./Libraries/STM32F4xx_HAL_Driver/Src/stm32f4xx_hal_sd.c ****       
 195:./Libraries/STM32F4xx_HAL_Driver/Src/stm32f4xx_hal_sd.c ****   @endverbatim
 196:./Libraries/STM32F4xx_HAL_Driver/Src/stm32f4xx_hal_sd.c ****   ******************************************************************************
 197:./Libraries/STM32F4xx_HAL_Driver/Src/stm32f4xx_hal_sd.c ****   * @attention
 198:./Libraries/STM32F4xx_HAL_Driver/Src/stm32f4xx_hal_sd.c ****   *
 199:./Libraries/STM32F4xx_HAL_Driver/Src/stm32f4xx_hal_sd.c ****   * <h2><center>&copy; COPYRIGHT(c) 2017 STMicroelectronics</center></h2>
 200:./Libraries/STM32F4xx_HAL_Driver/Src/stm32f4xx_hal_sd.c ****   *
 201:./Libraries/STM32F4xx_HAL_Driver/Src/stm32f4xx_hal_sd.c ****   * Redistribution and use in source and binary forms, with or without modification,
ARM GAS  /tmp/ccMhfXg8.s 			page 5


 202:./Libraries/STM32F4xx_HAL_Driver/Src/stm32f4xx_hal_sd.c ****   * are permitted provided that the following conditions are met:
 203:./Libraries/STM32F4xx_HAL_Driver/Src/stm32f4xx_hal_sd.c ****   *   1. Redistributions of source code must retain the above copyright notice,
 204:./Libraries/STM32F4xx_HAL_Driver/Src/stm32f4xx_hal_sd.c ****   *      this list of conditions and the following disclaimer.
 205:./Libraries/STM32F4xx_HAL_Driver/Src/stm32f4xx_hal_sd.c ****   *   2. Redistributions in binary form must reproduce the above copyright notice,
 206:./Libraries/STM32F4xx_HAL_Driver/Src/stm32f4xx_hal_sd.c ****   *      this list of conditions and the following disclaimer in the documentation
 207:./Libraries/STM32F4xx_HAL_Driver/Src/stm32f4xx_hal_sd.c ****   *      and/or other materials provided with the distribution.
 208:./Libraries/STM32F4xx_HAL_Driver/Src/stm32f4xx_hal_sd.c ****   *   3. Neither the name of STMicroelectronics nor the names of its contributors
 209:./Libraries/STM32F4xx_HAL_Driver/Src/stm32f4xx_hal_sd.c ****   *      may be used to endorse or promote products derived from this software
 210:./Libraries/STM32F4xx_HAL_Driver/Src/stm32f4xx_hal_sd.c ****   *      without specific prior written permission.
 211:./Libraries/STM32F4xx_HAL_Driver/Src/stm32f4xx_hal_sd.c ****   *
 212:./Libraries/STM32F4xx_HAL_Driver/Src/stm32f4xx_hal_sd.c ****   * THIS SOFTWARE IS PROVIDED BY THE COPYRIGHT HOLDERS AND CONTRIBUTORS "AS IS"
 213:./Libraries/STM32F4xx_HAL_Driver/Src/stm32f4xx_hal_sd.c ****   * AND ANY EXPRESS OR IMPLIED WARRANTIES, INCLUDING, BUT NOT LIMITED TO, THE
 214:./Libraries/STM32F4xx_HAL_Driver/Src/stm32f4xx_hal_sd.c ****   * IMPLIED WARRANTIES OF MERCHANTABILITY AND FITNESS FOR A PARTICULAR PURPOSE ARE
 215:./Libraries/STM32F4xx_HAL_Driver/Src/stm32f4xx_hal_sd.c ****   * DISCLAIMED. IN NO EVENT SHALL THE COPYRIGHT HOLDER OR CONTRIBUTORS BE LIABLE
 216:./Libraries/STM32F4xx_HAL_Driver/Src/stm32f4xx_hal_sd.c ****   * FOR ANY DIRECT, INDIRECT, INCIDENTAL, SPECIAL, EXEMPLARY, OR CONSEQUENTIAL
 217:./Libraries/STM32F4xx_HAL_Driver/Src/stm32f4xx_hal_sd.c ****   * DAMAGES (INCLUDING, BUT NOT LIMITED TO, PROCUREMENT OF SUBSTITUTE GOODS OR
 218:./Libraries/STM32F4xx_HAL_Driver/Src/stm32f4xx_hal_sd.c ****   * SERVICES; LOSS OF USE, DATA, OR PROFITS; OR BUSINESS INTERRUPTION) HOWEVER
 219:./Libraries/STM32F4xx_HAL_Driver/Src/stm32f4xx_hal_sd.c ****   * CAUSED AND ON ANY THEORY OF LIABILITY, WHETHER IN CONTRACT, STRICT LIABILITY,
 220:./Libraries/STM32F4xx_HAL_Driver/Src/stm32f4xx_hal_sd.c ****   * OR TORT (INCLUDING NEGLIGENCE OR OTHERWISE) ARISING IN ANY WAY OUT OF THE USE
 221:./Libraries/STM32F4xx_HAL_Driver/Src/stm32f4xx_hal_sd.c ****   * OF THIS SOFTWARE, EVEN IF ADVISED OF THE POSSIBILITY OF SUCH DAMAGE.
 222:./Libraries/STM32F4xx_HAL_Driver/Src/stm32f4xx_hal_sd.c ****   *
 223:./Libraries/STM32F4xx_HAL_Driver/Src/stm32f4xx_hal_sd.c ****   ******************************************************************************
 224:./Libraries/STM32F4xx_HAL_Driver/Src/stm32f4xx_hal_sd.c ****   */ 
 225:./Libraries/STM32F4xx_HAL_Driver/Src/stm32f4xx_hal_sd.c **** 
 226:./Libraries/STM32F4xx_HAL_Driver/Src/stm32f4xx_hal_sd.c **** /* Includes ------------------------------------------------------------------*/
 227:./Libraries/STM32F4xx_HAL_Driver/Src/stm32f4xx_hal_sd.c **** #include "stm32f4xx_hal.h"
 228:./Libraries/STM32F4xx_HAL_Driver/Src/stm32f4xx_hal_sd.c **** 
 229:./Libraries/STM32F4xx_HAL_Driver/Src/stm32f4xx_hal_sd.c **** /** @addtogroup STM32F4xx_HAL_Driver
 230:./Libraries/STM32F4xx_HAL_Driver/Src/stm32f4xx_hal_sd.c ****   * @{
 231:./Libraries/STM32F4xx_HAL_Driver/Src/stm32f4xx_hal_sd.c ****   */
 232:./Libraries/STM32F4xx_HAL_Driver/Src/stm32f4xx_hal_sd.c **** 
 233:./Libraries/STM32F4xx_HAL_Driver/Src/stm32f4xx_hal_sd.c **** /** @addtogroup SD 
 234:./Libraries/STM32F4xx_HAL_Driver/Src/stm32f4xx_hal_sd.c ****   * @{
 235:./Libraries/STM32F4xx_HAL_Driver/Src/stm32f4xx_hal_sd.c ****   */
 236:./Libraries/STM32F4xx_HAL_Driver/Src/stm32f4xx_hal_sd.c **** 
 237:./Libraries/STM32F4xx_HAL_Driver/Src/stm32f4xx_hal_sd.c **** #ifdef HAL_SD_MODULE_ENABLED
 238:./Libraries/STM32F4xx_HAL_Driver/Src/stm32f4xx_hal_sd.c **** 
 239:./Libraries/STM32F4xx_HAL_Driver/Src/stm32f4xx_hal_sd.c **** #if defined(STM32F405xx) || defined(STM32F415xx) || defined(STM32F407xx) || defined(STM32F417xx) ||
 240:./Libraries/STM32F4xx_HAL_Driver/Src/stm32f4xx_hal_sd.c ****     defined(STM32F427xx) || defined(STM32F437xx) || defined(STM32F429xx) || defined(STM32F439xx) ||
 241:./Libraries/STM32F4xx_HAL_Driver/Src/stm32f4xx_hal_sd.c ****     defined(STM32F401xC) || defined(STM32F401xE) || defined(STM32F411xE) || defined(STM32F446xx) ||
 242:./Libraries/STM32F4xx_HAL_Driver/Src/stm32f4xx_hal_sd.c ****     defined(STM32F469xx) || defined(STM32F479xx) || defined(STM32F412Zx) || defined(STM32F412Vx) ||
 243:./Libraries/STM32F4xx_HAL_Driver/Src/stm32f4xx_hal_sd.c ****     defined(STM32F412Rx) || defined(STM32F412Cx) || defined(STM32F413xx) || defined(STM32F423xx)
 244:./Libraries/STM32F4xx_HAL_Driver/Src/stm32f4xx_hal_sd.c **** 
 245:./Libraries/STM32F4xx_HAL_Driver/Src/stm32f4xx_hal_sd.c **** /* Private typedef -----------------------------------------------------------*/
 246:./Libraries/STM32F4xx_HAL_Driver/Src/stm32f4xx_hal_sd.c **** /* Private define ------------------------------------------------------------*/
 247:./Libraries/STM32F4xx_HAL_Driver/Src/stm32f4xx_hal_sd.c **** /** @addtogroup SD_Private_Defines
 248:./Libraries/STM32F4xx_HAL_Driver/Src/stm32f4xx_hal_sd.c ****   * @{
 249:./Libraries/STM32F4xx_HAL_Driver/Src/stm32f4xx_hal_sd.c ****   */
 250:./Libraries/STM32F4xx_HAL_Driver/Src/stm32f4xx_hal_sd.c ****     
 251:./Libraries/STM32F4xx_HAL_Driver/Src/stm32f4xx_hal_sd.c **** /**
 252:./Libraries/STM32F4xx_HAL_Driver/Src/stm32f4xx_hal_sd.c ****   * @}
 253:./Libraries/STM32F4xx_HAL_Driver/Src/stm32f4xx_hal_sd.c ****   */
 254:./Libraries/STM32F4xx_HAL_Driver/Src/stm32f4xx_hal_sd.c ****   
 255:./Libraries/STM32F4xx_HAL_Driver/Src/stm32f4xx_hal_sd.c **** /* Private macro -------------------------------------------------------------*/
 256:./Libraries/STM32F4xx_HAL_Driver/Src/stm32f4xx_hal_sd.c **** /* Private variables ---------------------------------------------------------*/
 257:./Libraries/STM32F4xx_HAL_Driver/Src/stm32f4xx_hal_sd.c **** /* Private function prototypes -----------------------------------------------*/
 258:./Libraries/STM32F4xx_HAL_Driver/Src/stm32f4xx_hal_sd.c **** /* Private functions ---------------------------------------------------------*/
ARM GAS  /tmp/ccMhfXg8.s 			page 6


 259:./Libraries/STM32F4xx_HAL_Driver/Src/stm32f4xx_hal_sd.c **** /** @defgroup SD_Private_Functions SD Private Functions
 260:./Libraries/STM32F4xx_HAL_Driver/Src/stm32f4xx_hal_sd.c ****   * @{
 261:./Libraries/STM32F4xx_HAL_Driver/Src/stm32f4xx_hal_sd.c ****   */
 262:./Libraries/STM32F4xx_HAL_Driver/Src/stm32f4xx_hal_sd.c **** static uint32_t SD_InitCard(SD_HandleTypeDef *hsd);
 263:./Libraries/STM32F4xx_HAL_Driver/Src/stm32f4xx_hal_sd.c **** static uint32_t SD_PowerON(SD_HandleTypeDef *hsd);                      
 264:./Libraries/STM32F4xx_HAL_Driver/Src/stm32f4xx_hal_sd.c **** static uint32_t SD_SendSDStatus(SD_HandleTypeDef *hsd, uint32_t *pSDstatus);
 265:./Libraries/STM32F4xx_HAL_Driver/Src/stm32f4xx_hal_sd.c **** static uint32_t SD_SendStatus(SD_HandleTypeDef *hsd, uint32_t *pCardStatus);
 266:./Libraries/STM32F4xx_HAL_Driver/Src/stm32f4xx_hal_sd.c **** static uint32_t SD_WideBus_Enable(SD_HandleTypeDef *hsd);
 267:./Libraries/STM32F4xx_HAL_Driver/Src/stm32f4xx_hal_sd.c **** static uint32_t SD_WideBus_Disable(SD_HandleTypeDef *hsd);
 268:./Libraries/STM32F4xx_HAL_Driver/Src/stm32f4xx_hal_sd.c **** static uint32_t SD_FindSCR(SD_HandleTypeDef *hsd, uint32_t *pSCR);
 269:./Libraries/STM32F4xx_HAL_Driver/Src/stm32f4xx_hal_sd.c **** static HAL_StatusTypeDef SD_PowerOFF(SD_HandleTypeDef *hsd);
 270:./Libraries/STM32F4xx_HAL_Driver/Src/stm32f4xx_hal_sd.c **** static HAL_StatusTypeDef SD_Write_IT(SD_HandleTypeDef *hsd);
 271:./Libraries/STM32F4xx_HAL_Driver/Src/stm32f4xx_hal_sd.c **** static HAL_StatusTypeDef SD_Read_IT(SD_HandleTypeDef *hsd);
 272:./Libraries/STM32F4xx_HAL_Driver/Src/stm32f4xx_hal_sd.c **** static void SD_DMATransmitCplt(DMA_HandleTypeDef *hdma);
 273:./Libraries/STM32F4xx_HAL_Driver/Src/stm32f4xx_hal_sd.c **** static void SD_DMAReceiveCplt(DMA_HandleTypeDef *hdma);
 274:./Libraries/STM32F4xx_HAL_Driver/Src/stm32f4xx_hal_sd.c **** static void SD_DMAError(DMA_HandleTypeDef *hdma);
 275:./Libraries/STM32F4xx_HAL_Driver/Src/stm32f4xx_hal_sd.c **** static void SD_DMATxAbort(DMA_HandleTypeDef *hdma);
 276:./Libraries/STM32F4xx_HAL_Driver/Src/stm32f4xx_hal_sd.c **** static void SD_DMARxAbort(DMA_HandleTypeDef *hdma);
 277:./Libraries/STM32F4xx_HAL_Driver/Src/stm32f4xx_hal_sd.c **** /**
 278:./Libraries/STM32F4xx_HAL_Driver/Src/stm32f4xx_hal_sd.c ****   * @}
 279:./Libraries/STM32F4xx_HAL_Driver/Src/stm32f4xx_hal_sd.c ****   */
 280:./Libraries/STM32F4xx_HAL_Driver/Src/stm32f4xx_hal_sd.c **** 
 281:./Libraries/STM32F4xx_HAL_Driver/Src/stm32f4xx_hal_sd.c **** /* Exported functions --------------------------------------------------------*/
 282:./Libraries/STM32F4xx_HAL_Driver/Src/stm32f4xx_hal_sd.c **** /** @addtogroup SD_Exported_Functions
 283:./Libraries/STM32F4xx_HAL_Driver/Src/stm32f4xx_hal_sd.c ****   * @{
 284:./Libraries/STM32F4xx_HAL_Driver/Src/stm32f4xx_hal_sd.c ****   */
 285:./Libraries/STM32F4xx_HAL_Driver/Src/stm32f4xx_hal_sd.c **** 
 286:./Libraries/STM32F4xx_HAL_Driver/Src/stm32f4xx_hal_sd.c **** /** @addtogroup SD_Exported_Functions_Group1
 287:./Libraries/STM32F4xx_HAL_Driver/Src/stm32f4xx_hal_sd.c ****  *  @brief   Initialization and de-initialization functions 
 288:./Libraries/STM32F4xx_HAL_Driver/Src/stm32f4xx_hal_sd.c ****  *
 289:./Libraries/STM32F4xx_HAL_Driver/Src/stm32f4xx_hal_sd.c **** @verbatim    
 290:./Libraries/STM32F4xx_HAL_Driver/Src/stm32f4xx_hal_sd.c ****   ==============================================================================
 291:./Libraries/STM32F4xx_HAL_Driver/Src/stm32f4xx_hal_sd.c ****           ##### Initialization and de-initialization functions #####
 292:./Libraries/STM32F4xx_HAL_Driver/Src/stm32f4xx_hal_sd.c ****   ==============================================================================
 293:./Libraries/STM32F4xx_HAL_Driver/Src/stm32f4xx_hal_sd.c ****   [..]  
 294:./Libraries/STM32F4xx_HAL_Driver/Src/stm32f4xx_hal_sd.c ****     This section provides functions allowing to initialize/de-initialize the SD
 295:./Libraries/STM32F4xx_HAL_Driver/Src/stm32f4xx_hal_sd.c ****     card device to be ready for use.
 296:./Libraries/STM32F4xx_HAL_Driver/Src/stm32f4xx_hal_sd.c **** 
 297:./Libraries/STM32F4xx_HAL_Driver/Src/stm32f4xx_hal_sd.c **** @endverbatim
 298:./Libraries/STM32F4xx_HAL_Driver/Src/stm32f4xx_hal_sd.c ****   * @{
 299:./Libraries/STM32F4xx_HAL_Driver/Src/stm32f4xx_hal_sd.c ****   */
 300:./Libraries/STM32F4xx_HAL_Driver/Src/stm32f4xx_hal_sd.c **** 
 301:./Libraries/STM32F4xx_HAL_Driver/Src/stm32f4xx_hal_sd.c **** /**
 302:./Libraries/STM32F4xx_HAL_Driver/Src/stm32f4xx_hal_sd.c ****   * @brief  Initializes the SD according to the specified parameters in the 
 303:./Libraries/STM32F4xx_HAL_Driver/Src/stm32f4xx_hal_sd.c ****             SD_HandleTypeDef and create the associated handle.
 304:./Libraries/STM32F4xx_HAL_Driver/Src/stm32f4xx_hal_sd.c ****   * @param  hsd Pointer to the SD handle  
 305:./Libraries/STM32F4xx_HAL_Driver/Src/stm32f4xx_hal_sd.c ****   * @retval HAL status
 306:./Libraries/STM32F4xx_HAL_Driver/Src/stm32f4xx_hal_sd.c ****   */
 307:./Libraries/STM32F4xx_HAL_Driver/Src/stm32f4xx_hal_sd.c **** HAL_StatusTypeDef HAL_SD_Init(SD_HandleTypeDef *hsd)
 308:./Libraries/STM32F4xx_HAL_Driver/Src/stm32f4xx_hal_sd.c **** {
  29              		.loc 1 308 1
  30              		.cfi_startproc
  31              		@ args = 0, pretend = 0, frame = 8
  32              		@ frame_needed = 1, uses_anonymous_args = 0
  33 0000 80B5     		push	{r7, lr}
  34              	.LCFI0:
  35              		.cfi_def_cfa_offset 8
ARM GAS  /tmp/ccMhfXg8.s 			page 7


  36              		.cfi_offset 7, -8
  37              		.cfi_offset 14, -4
  38 0002 82B0     		sub	sp, sp, #8
  39              	.LCFI1:
  40              		.cfi_def_cfa_offset 16
  41 0004 00AF     		add	r7, sp, #0
  42              	.LCFI2:
  43              		.cfi_def_cfa_register 7
  44 0006 7860     		str	r0, [r7, #4]
 309:./Libraries/STM32F4xx_HAL_Driver/Src/stm32f4xx_hal_sd.c ****   /* Check the SD handle allocation */
 310:./Libraries/STM32F4xx_HAL_Driver/Src/stm32f4xx_hal_sd.c ****   if(hsd == NULL)
  45              		.loc 1 310 5
  46 0008 7B68     		ldr	r3, [r7, #4]
  47 000a 002B     		cmp	r3, #0
  48 000c 01D1     		bne	.L2
 311:./Libraries/STM32F4xx_HAL_Driver/Src/stm32f4xx_hal_sd.c ****   {
 312:./Libraries/STM32F4xx_HAL_Driver/Src/stm32f4xx_hal_sd.c ****     return HAL_ERROR;
  49              		.loc 1 312 12
  50 000e 0123     		movs	r3, #1
  51 0010 1DE0     		b	.L3
  52              	.L2:
 313:./Libraries/STM32F4xx_HAL_Driver/Src/stm32f4xx_hal_sd.c ****   }
 314:./Libraries/STM32F4xx_HAL_Driver/Src/stm32f4xx_hal_sd.c **** 
 315:./Libraries/STM32F4xx_HAL_Driver/Src/stm32f4xx_hal_sd.c ****   /* Check the parameters */
 316:./Libraries/STM32F4xx_HAL_Driver/Src/stm32f4xx_hal_sd.c ****   assert_param(IS_SDIO_ALL_INSTANCE(hsd->Instance));
 317:./Libraries/STM32F4xx_HAL_Driver/Src/stm32f4xx_hal_sd.c ****   assert_param(IS_SDIO_CLOCK_EDGE(hsd->Init.ClockEdge));
 318:./Libraries/STM32F4xx_HAL_Driver/Src/stm32f4xx_hal_sd.c ****   assert_param(IS_SDIO_CLOCK_BYPASS(hsd->Init.ClockBypass));
 319:./Libraries/STM32F4xx_HAL_Driver/Src/stm32f4xx_hal_sd.c ****   assert_param(IS_SDIO_CLOCK_POWER_SAVE(hsd->Init.ClockPowerSave));
 320:./Libraries/STM32F4xx_HAL_Driver/Src/stm32f4xx_hal_sd.c ****   assert_param(IS_SDIO_BUS_WIDE(hsd->Init.BusWide));
 321:./Libraries/STM32F4xx_HAL_Driver/Src/stm32f4xx_hal_sd.c ****   assert_param(IS_SDIO_HARDWARE_FLOW_CONTROL(hsd->Init.HardwareFlowControl));
 322:./Libraries/STM32F4xx_HAL_Driver/Src/stm32f4xx_hal_sd.c ****   assert_param(IS_SDIO_CLKDIV(hsd->Init.ClockDiv));
 323:./Libraries/STM32F4xx_HAL_Driver/Src/stm32f4xx_hal_sd.c **** 
 324:./Libraries/STM32F4xx_HAL_Driver/Src/stm32f4xx_hal_sd.c ****   if(hsd->State == HAL_SD_STATE_RESET)
  53              		.loc 1 324 9
  54 0012 7B68     		ldr	r3, [r7, #4]
  55 0014 93F83430 		ldrb	r3, [r3, #52]
  56 0018 DBB2     		uxtb	r3, r3
  57              		.loc 1 324 5
  58 001a 002B     		cmp	r3, #0
  59 001c 05D1     		bne	.L4
 325:./Libraries/STM32F4xx_HAL_Driver/Src/stm32f4xx_hal_sd.c ****   {
 326:./Libraries/STM32F4xx_HAL_Driver/Src/stm32f4xx_hal_sd.c ****     /* Allocate lock resource and initialize it */
 327:./Libraries/STM32F4xx_HAL_Driver/Src/stm32f4xx_hal_sd.c ****     hsd->Lock = HAL_UNLOCKED;
  60              		.loc 1 327 15
  61 001e 7B68     		ldr	r3, [r7, #4]
  62 0020 0022     		movs	r2, #0
  63 0022 1A77     		strb	r2, [r3, #28]
 328:./Libraries/STM32F4xx_HAL_Driver/Src/stm32f4xx_hal_sd.c ****     /* Init the low level hardware : GPIO, CLOCK, CORTEX...etc */
 329:./Libraries/STM32F4xx_HAL_Driver/Src/stm32f4xx_hal_sd.c ****     HAL_SD_MspInit(hsd);
  64              		.loc 1 329 5
  65 0024 7868     		ldr	r0, [r7, #4]
  66 0026 FFF7FEFF 		bl	HAL_SD_MspInit
  67              	.L4:
 330:./Libraries/STM32F4xx_HAL_Driver/Src/stm32f4xx_hal_sd.c ****   }
 331:./Libraries/STM32F4xx_HAL_Driver/Src/stm32f4xx_hal_sd.c **** 
 332:./Libraries/STM32F4xx_HAL_Driver/Src/stm32f4xx_hal_sd.c ****   hsd->State = HAL_SD_STATE_BUSY;
  68              		.loc 1 332 14
ARM GAS  /tmp/ccMhfXg8.s 			page 8


  69 002a 7B68     		ldr	r3, [r7, #4]
  70 002c 0322     		movs	r2, #3
  71 002e 83F83420 		strb	r2, [r3, #52]
 333:./Libraries/STM32F4xx_HAL_Driver/Src/stm32f4xx_hal_sd.c **** 
 334:./Libraries/STM32F4xx_HAL_Driver/Src/stm32f4xx_hal_sd.c ****   /* Initialize the Card parameters */
 335:./Libraries/STM32F4xx_HAL_Driver/Src/stm32f4xx_hal_sd.c ****   HAL_SD_InitCard(hsd);
  72              		.loc 1 335 3
  73 0032 7868     		ldr	r0, [r7, #4]
  74 0034 FFF7FEFF 		bl	HAL_SD_InitCard
 336:./Libraries/STM32F4xx_HAL_Driver/Src/stm32f4xx_hal_sd.c **** 
 337:./Libraries/STM32F4xx_HAL_Driver/Src/stm32f4xx_hal_sd.c ****   /* Initialize the error code */
 338:./Libraries/STM32F4xx_HAL_Driver/Src/stm32f4xx_hal_sd.c ****   hsd->ErrorCode = HAL_DMA_ERROR_NONE;
  75              		.loc 1 338 18
  76 0038 7B68     		ldr	r3, [r7, #4]
  77 003a 0022     		movs	r2, #0
  78 003c 9A63     		str	r2, [r3, #56]
 339:./Libraries/STM32F4xx_HAL_Driver/Src/stm32f4xx_hal_sd.c ****   
 340:./Libraries/STM32F4xx_HAL_Driver/Src/stm32f4xx_hal_sd.c ****   /* Initialize the SD operation */
 341:./Libraries/STM32F4xx_HAL_Driver/Src/stm32f4xx_hal_sd.c ****   hsd->Context = SD_CONTEXT_NONE;
  79              		.loc 1 341 16
  80 003e 7B68     		ldr	r3, [r7, #4]
  81 0040 0022     		movs	r2, #0
  82 0042 1A63     		str	r2, [r3, #48]
 342:./Libraries/STM32F4xx_HAL_Driver/Src/stm32f4xx_hal_sd.c ****                                                                                      
 343:./Libraries/STM32F4xx_HAL_Driver/Src/stm32f4xx_hal_sd.c ****   /* Initialize the SD state */
 344:./Libraries/STM32F4xx_HAL_Driver/Src/stm32f4xx_hal_sd.c ****   hsd->State = HAL_SD_STATE_READY;
  83              		.loc 1 344 14
  84 0044 7B68     		ldr	r3, [r7, #4]
  85 0046 0122     		movs	r2, #1
  86 0048 83F83420 		strb	r2, [r3, #52]
 345:./Libraries/STM32F4xx_HAL_Driver/Src/stm32f4xx_hal_sd.c **** 
 346:./Libraries/STM32F4xx_HAL_Driver/Src/stm32f4xx_hal_sd.c ****   return HAL_OK;
  87              		.loc 1 346 10
  88 004c 0023     		movs	r3, #0
  89              	.L3:
 347:./Libraries/STM32F4xx_HAL_Driver/Src/stm32f4xx_hal_sd.c **** }
  90              		.loc 1 347 1
  91 004e 1846     		mov	r0, r3
  92 0050 0837     		adds	r7, r7, #8
  93              	.LCFI3:
  94              		.cfi_def_cfa_offset 8
  95 0052 BD46     		mov	sp, r7
  96              	.LCFI4:
  97              		.cfi_def_cfa_register 13
  98              		@ sp needed
  99 0054 80BD     		pop	{r7, pc}
 100              		.cfi_endproc
 101              	.LFE126:
 103              		.section	.text.HAL_SD_InitCard,"ax",%progbits
 104              		.align	1
 105              		.global	HAL_SD_InitCard
 106              		.syntax unified
 107              		.thumb
 108              		.thumb_func
 109              		.fpu fpv4-sp-d16
 111              	HAL_SD_InitCard:
 112              	.LFB127:
ARM GAS  /tmp/ccMhfXg8.s 			page 9


 348:./Libraries/STM32F4xx_HAL_Driver/Src/stm32f4xx_hal_sd.c **** 
 349:./Libraries/STM32F4xx_HAL_Driver/Src/stm32f4xx_hal_sd.c **** /**
 350:./Libraries/STM32F4xx_HAL_Driver/Src/stm32f4xx_hal_sd.c ****   * @brief  Initializes the SD Card.
 351:./Libraries/STM32F4xx_HAL_Driver/Src/stm32f4xx_hal_sd.c ****   * @param  hsd Pointer to SD handle
 352:./Libraries/STM32F4xx_HAL_Driver/Src/stm32f4xx_hal_sd.c ****   * @note   This function initializes the SD card. It could be used when a card 
 353:./Libraries/STM32F4xx_HAL_Driver/Src/stm32f4xx_hal_sd.c ****             re-initialization is needed.
 354:./Libraries/STM32F4xx_HAL_Driver/Src/stm32f4xx_hal_sd.c ****   * @retval HAL status
 355:./Libraries/STM32F4xx_HAL_Driver/Src/stm32f4xx_hal_sd.c ****   */
 356:./Libraries/STM32F4xx_HAL_Driver/Src/stm32f4xx_hal_sd.c **** HAL_StatusTypeDef HAL_SD_InitCard(SD_HandleTypeDef *hsd)
 357:./Libraries/STM32F4xx_HAL_Driver/Src/stm32f4xx_hal_sd.c **** {
 113              		.loc 1 357 1
 114              		.cfi_startproc
 115              		@ args = 0, pretend = 0, frame = 40
 116              		@ frame_needed = 1, uses_anonymous_args = 0
 117 0000 B0B5     		push	{r4, r5, r7, lr}
 118              	.LCFI5:
 119              		.cfi_def_cfa_offset 16
 120              		.cfi_offset 4, -16
 121              		.cfi_offset 5, -12
 122              		.cfi_offset 7, -8
 123              		.cfi_offset 14, -4
 124 0002 8EB0     		sub	sp, sp, #56
 125              	.LCFI6:
 126              		.cfi_def_cfa_offset 72
 127 0004 04AF     		add	r7, sp, #16
 128              	.LCFI7:
 129              		.cfi_def_cfa 7, 56
 130 0006 7860     		str	r0, [r7, #4]
 358:./Libraries/STM32F4xx_HAL_Driver/Src/stm32f4xx_hal_sd.c ****   uint32_t errorstate = HAL_SD_ERROR_NONE;
 131              		.loc 1 358 12
 132 0008 0023     		movs	r3, #0
 133 000a 7B62     		str	r3, [r7, #36]
 359:./Libraries/STM32F4xx_HAL_Driver/Src/stm32f4xx_hal_sd.c ****   SD_InitTypeDef Init;
 360:./Libraries/STM32F4xx_HAL_Driver/Src/stm32f4xx_hal_sd.c ****   
 361:./Libraries/STM32F4xx_HAL_Driver/Src/stm32f4xx_hal_sd.c ****   /* Default SDIO peripheral configuration for SD card initialization */
 362:./Libraries/STM32F4xx_HAL_Driver/Src/stm32f4xx_hal_sd.c ****   Init.ClockEdge           = SDIO_CLOCK_EDGE_RISING;
 134              		.loc 1 362 28
 135 000c 0023     		movs	r3, #0
 136 000e FB60     		str	r3, [r7, #12]
 363:./Libraries/STM32F4xx_HAL_Driver/Src/stm32f4xx_hal_sd.c ****   Init.ClockBypass         = SDIO_CLOCK_BYPASS_DISABLE;
 137              		.loc 1 363 28
 138 0010 0023     		movs	r3, #0
 139 0012 3B61     		str	r3, [r7, #16]
 364:./Libraries/STM32F4xx_HAL_Driver/Src/stm32f4xx_hal_sd.c ****   Init.ClockPowerSave      = SDIO_CLOCK_POWER_SAVE_DISABLE;
 140              		.loc 1 364 28
 141 0014 0023     		movs	r3, #0
 142 0016 7B61     		str	r3, [r7, #20]
 365:./Libraries/STM32F4xx_HAL_Driver/Src/stm32f4xx_hal_sd.c ****   Init.BusWide             = SDIO_BUS_WIDE_1B;
 143              		.loc 1 365 28
 144 0018 0023     		movs	r3, #0
 145 001a BB61     		str	r3, [r7, #24]
 366:./Libraries/STM32F4xx_HAL_Driver/Src/stm32f4xx_hal_sd.c ****   Init.HardwareFlowControl = SDIO_HARDWARE_FLOW_CONTROL_DISABLE;
 146              		.loc 1 366 28
 147 001c 0023     		movs	r3, #0
 148 001e FB61     		str	r3, [r7, #28]
 367:./Libraries/STM32F4xx_HAL_Driver/Src/stm32f4xx_hal_sd.c ****   Init.ClockDiv            = SDIO_INIT_CLK_DIV;
 149              		.loc 1 367 28
ARM GAS  /tmp/ccMhfXg8.s 			page 10


 150 0020 7623     		movs	r3, #118
 151 0022 3B62     		str	r3, [r7, #32]
 368:./Libraries/STM32F4xx_HAL_Driver/Src/stm32f4xx_hal_sd.c **** 
 369:./Libraries/STM32F4xx_HAL_Driver/Src/stm32f4xx_hal_sd.c ****   /* Initialize SDIO peripheral interface with default configuration */
 370:./Libraries/STM32F4xx_HAL_Driver/Src/stm32f4xx_hal_sd.c ****   SDIO_Init(hsd->Instance, Init);
 152              		.loc 1 370 3
 153 0024 7B68     		ldr	r3, [r7, #4]
 154 0026 1D68     		ldr	r5, [r3]
 155 0028 6C46     		mov	r4, sp
 156 002a 07F11803 		add	r3, r7, #24
 157 002e 93E80700 		ldm	r3, {r0, r1, r2}
 158 0032 84E80700 		stm	r4, {r0, r1, r2}
 159 0036 07F10C03 		add	r3, r7, #12
 160 003a 0ECB     		ldm	r3, {r1, r2, r3}
 161 003c 2846     		mov	r0, r5
 162 003e FFF7FEFF 		bl	SDIO_Init
 371:./Libraries/STM32F4xx_HAL_Driver/Src/stm32f4xx_hal_sd.c **** 
 372:./Libraries/STM32F4xx_HAL_Driver/Src/stm32f4xx_hal_sd.c ****   /* Disable SDIO Clock */
 373:./Libraries/STM32F4xx_HAL_Driver/Src/stm32f4xx_hal_sd.c ****   __HAL_SD_DISABLE(hsd); 
 163              		.loc 1 373 3
 164 0042 1C4B     		ldr	r3, .L10
 165 0044 0022     		movs	r2, #0
 166 0046 1A60     		str	r2, [r3]
 374:./Libraries/STM32F4xx_HAL_Driver/Src/stm32f4xx_hal_sd.c ****   
 375:./Libraries/STM32F4xx_HAL_Driver/Src/stm32f4xx_hal_sd.c ****   /* Set Power State to ON */
 376:./Libraries/STM32F4xx_HAL_Driver/Src/stm32f4xx_hal_sd.c ****   SDIO_PowerState_ON(hsd->Instance);
 167              		.loc 1 376 3
 168 0048 7B68     		ldr	r3, [r7, #4]
 169 004a 1B68     		ldr	r3, [r3]
 170 004c 1846     		mov	r0, r3
 171 004e FFF7FEFF 		bl	SDIO_PowerState_ON
 377:./Libraries/STM32F4xx_HAL_Driver/Src/stm32f4xx_hal_sd.c ****   
 378:./Libraries/STM32F4xx_HAL_Driver/Src/stm32f4xx_hal_sd.c ****   /* Enable SDIO Clock */
 379:./Libraries/STM32F4xx_HAL_Driver/Src/stm32f4xx_hal_sd.c ****   __HAL_SD_ENABLE(hsd);
 172              		.loc 1 379 3
 173 0052 184B     		ldr	r3, .L10
 174 0054 0122     		movs	r2, #1
 175 0056 1A60     		str	r2, [r3]
 380:./Libraries/STM32F4xx_HAL_Driver/Src/stm32f4xx_hal_sd.c ****   
 381:./Libraries/STM32F4xx_HAL_Driver/Src/stm32f4xx_hal_sd.c ****   /* Required power up waiting time before starting the SD initialization 
 382:./Libraries/STM32F4xx_HAL_Driver/Src/stm32f4xx_hal_sd.c ****   sequence */
 383:./Libraries/STM32F4xx_HAL_Driver/Src/stm32f4xx_hal_sd.c ****   HAL_Delay(2U);
 176              		.loc 1 383 3
 177 0058 0220     		movs	r0, #2
 178 005a FFF7FEFF 		bl	HAL_Delay
 384:./Libraries/STM32F4xx_HAL_Driver/Src/stm32f4xx_hal_sd.c ****   
 385:./Libraries/STM32F4xx_HAL_Driver/Src/stm32f4xx_hal_sd.c ****   /* Identify card operating voltage */
 386:./Libraries/STM32F4xx_HAL_Driver/Src/stm32f4xx_hal_sd.c ****   errorstate = SD_PowerON(hsd);
 179              		.loc 1 386 16
 180 005e 7868     		ldr	r0, [r7, #4]
 181 0060 FFF7FEFF 		bl	SD_PowerON
 182 0064 7862     		str	r0, [r7, #36]
 387:./Libraries/STM32F4xx_HAL_Driver/Src/stm32f4xx_hal_sd.c ****   if(errorstate != HAL_SD_ERROR_NONE)
 183              		.loc 1 387 5
 184 0066 7B6A     		ldr	r3, [r7, #36]
 185 0068 002B     		cmp	r3, #0
 186 006a 0BD0     		beq	.L6
ARM GAS  /tmp/ccMhfXg8.s 			page 11


 388:./Libraries/STM32F4xx_HAL_Driver/Src/stm32f4xx_hal_sd.c ****   {
 389:./Libraries/STM32F4xx_HAL_Driver/Src/stm32f4xx_hal_sd.c ****     hsd->State = HAL_SD_STATE_READY;
 187              		.loc 1 389 16
 188 006c 7B68     		ldr	r3, [r7, #4]
 189 006e 0122     		movs	r2, #1
 190 0070 83F83420 		strb	r2, [r3, #52]
 390:./Libraries/STM32F4xx_HAL_Driver/Src/stm32f4xx_hal_sd.c ****     hsd->ErrorCode |= errorstate;
 191              		.loc 1 390 20
 192 0074 7B68     		ldr	r3, [r7, #4]
 193 0076 9A6B     		ldr	r2, [r3, #56]
 194 0078 7B6A     		ldr	r3, [r7, #36]
 195 007a 1A43     		orrs	r2, r2, r3
 196 007c 7B68     		ldr	r3, [r7, #4]
 197 007e 9A63     		str	r2, [r3, #56]
 391:./Libraries/STM32F4xx_HAL_Driver/Src/stm32f4xx_hal_sd.c ****     return HAL_ERROR;
 198              		.loc 1 391 12
 199 0080 0123     		movs	r3, #1
 200 0082 13E0     		b	.L9
 201              	.L6:
 392:./Libraries/STM32F4xx_HAL_Driver/Src/stm32f4xx_hal_sd.c ****   }
 393:./Libraries/STM32F4xx_HAL_Driver/Src/stm32f4xx_hal_sd.c **** 
 394:./Libraries/STM32F4xx_HAL_Driver/Src/stm32f4xx_hal_sd.c ****   /* Card initialization */
 395:./Libraries/STM32F4xx_HAL_Driver/Src/stm32f4xx_hal_sd.c ****   errorstate = SD_InitCard(hsd);
 202              		.loc 1 395 16
 203 0084 7868     		ldr	r0, [r7, #4]
 204 0086 FFF7FEFF 		bl	SD_InitCard
 205 008a 7862     		str	r0, [r7, #36]
 396:./Libraries/STM32F4xx_HAL_Driver/Src/stm32f4xx_hal_sd.c ****   if(errorstate != HAL_SD_ERROR_NONE)
 206              		.loc 1 396 5
 207 008c 7B6A     		ldr	r3, [r7, #36]
 208 008e 002B     		cmp	r3, #0
 209 0090 0BD0     		beq	.L8
 397:./Libraries/STM32F4xx_HAL_Driver/Src/stm32f4xx_hal_sd.c ****   {
 398:./Libraries/STM32F4xx_HAL_Driver/Src/stm32f4xx_hal_sd.c ****     hsd->State = HAL_SD_STATE_READY;
 210              		.loc 1 398 16
 211 0092 7B68     		ldr	r3, [r7, #4]
 212 0094 0122     		movs	r2, #1
 213 0096 83F83420 		strb	r2, [r3, #52]
 399:./Libraries/STM32F4xx_HAL_Driver/Src/stm32f4xx_hal_sd.c ****     hsd->ErrorCode |= errorstate;
 214              		.loc 1 399 20
 215 009a 7B68     		ldr	r3, [r7, #4]
 216 009c 9A6B     		ldr	r2, [r3, #56]
 217 009e 7B6A     		ldr	r3, [r7, #36]
 218 00a0 1A43     		orrs	r2, r2, r3
 219 00a2 7B68     		ldr	r3, [r7, #4]
 220 00a4 9A63     		str	r2, [r3, #56]
 400:./Libraries/STM32F4xx_HAL_Driver/Src/stm32f4xx_hal_sd.c ****     return HAL_ERROR;
 221              		.loc 1 400 12
 222 00a6 0123     		movs	r3, #1
 223 00a8 00E0     		b	.L9
 224              	.L8:
 401:./Libraries/STM32F4xx_HAL_Driver/Src/stm32f4xx_hal_sd.c ****   }
 402:./Libraries/STM32F4xx_HAL_Driver/Src/stm32f4xx_hal_sd.c **** 
 403:./Libraries/STM32F4xx_HAL_Driver/Src/stm32f4xx_hal_sd.c ****   return HAL_OK;
 225              		.loc 1 403 10
 226 00aa 0023     		movs	r3, #0
 227              	.L9:
ARM GAS  /tmp/ccMhfXg8.s 			page 12


 404:./Libraries/STM32F4xx_HAL_Driver/Src/stm32f4xx_hal_sd.c **** }
 228              		.loc 1 404 1 discriminator 1
 229 00ac 1846     		mov	r0, r3
 230 00ae 2837     		adds	r7, r7, #40
 231              	.LCFI8:
 232              		.cfi_def_cfa_offset 16
 233 00b0 BD46     		mov	sp, r7
 234              	.LCFI9:
 235              		.cfi_def_cfa_register 13
 236              		@ sp needed
 237 00b2 B0BD     		pop	{r4, r5, r7, pc}
 238              	.L11:
 239              		.align	2
 240              	.L10:
 241 00b4 A0802542 		.word	1109754016
 242              		.cfi_endproc
 243              	.LFE127:
 245              		.section	.text.HAL_SD_DeInit,"ax",%progbits
 246              		.align	1
 247              		.global	HAL_SD_DeInit
 248              		.syntax unified
 249              		.thumb
 250              		.thumb_func
 251              		.fpu fpv4-sp-d16
 253              	HAL_SD_DeInit:
 254              	.LFB128:
 405:./Libraries/STM32F4xx_HAL_Driver/Src/stm32f4xx_hal_sd.c **** 
 406:./Libraries/STM32F4xx_HAL_Driver/Src/stm32f4xx_hal_sd.c **** /**
 407:./Libraries/STM32F4xx_HAL_Driver/Src/stm32f4xx_hal_sd.c ****   * @brief  De-Initializes the SD card.
 408:./Libraries/STM32F4xx_HAL_Driver/Src/stm32f4xx_hal_sd.c ****   * @param  hsd Pointer to SD handle
 409:./Libraries/STM32F4xx_HAL_Driver/Src/stm32f4xx_hal_sd.c ****   * @retval HAL status
 410:./Libraries/STM32F4xx_HAL_Driver/Src/stm32f4xx_hal_sd.c ****   */
 411:./Libraries/STM32F4xx_HAL_Driver/Src/stm32f4xx_hal_sd.c **** HAL_StatusTypeDef HAL_SD_DeInit(SD_HandleTypeDef *hsd)
 412:./Libraries/STM32F4xx_HAL_Driver/Src/stm32f4xx_hal_sd.c **** {
 255              		.loc 1 412 1
 256              		.cfi_startproc
 257              		@ args = 0, pretend = 0, frame = 8
 258              		@ frame_needed = 1, uses_anonymous_args = 0
 259 0000 80B5     		push	{r7, lr}
 260              	.LCFI10:
 261              		.cfi_def_cfa_offset 8
 262              		.cfi_offset 7, -8
 263              		.cfi_offset 14, -4
 264 0002 82B0     		sub	sp, sp, #8
 265              	.LCFI11:
 266              		.cfi_def_cfa_offset 16
 267 0004 00AF     		add	r7, sp, #0
 268              	.LCFI12:
 269              		.cfi_def_cfa_register 7
 270 0006 7860     		str	r0, [r7, #4]
 413:./Libraries/STM32F4xx_HAL_Driver/Src/stm32f4xx_hal_sd.c ****   /* Check the SD handle allocation */
 414:./Libraries/STM32F4xx_HAL_Driver/Src/stm32f4xx_hal_sd.c ****   if(hsd == NULL)
 271              		.loc 1 414 5
 272 0008 7B68     		ldr	r3, [r7, #4]
 273 000a 002B     		cmp	r3, #0
 274 000c 01D1     		bne	.L13
 415:./Libraries/STM32F4xx_HAL_Driver/Src/stm32f4xx_hal_sd.c ****   {
ARM GAS  /tmp/ccMhfXg8.s 			page 13


 416:./Libraries/STM32F4xx_HAL_Driver/Src/stm32f4xx_hal_sd.c ****     return HAL_ERROR;
 275              		.loc 1 416 12
 276 000e 0123     		movs	r3, #1
 277 0010 11E0     		b	.L14
 278              	.L13:
 417:./Libraries/STM32F4xx_HAL_Driver/Src/stm32f4xx_hal_sd.c ****   }
 418:./Libraries/STM32F4xx_HAL_Driver/Src/stm32f4xx_hal_sd.c ****   
 419:./Libraries/STM32F4xx_HAL_Driver/Src/stm32f4xx_hal_sd.c ****   /* Check the parameters */
 420:./Libraries/STM32F4xx_HAL_Driver/Src/stm32f4xx_hal_sd.c ****   assert_param(IS_SDIO_ALL_INSTANCE(hsd->Instance));
 421:./Libraries/STM32F4xx_HAL_Driver/Src/stm32f4xx_hal_sd.c **** 
 422:./Libraries/STM32F4xx_HAL_Driver/Src/stm32f4xx_hal_sd.c ****   hsd->State = HAL_SD_STATE_BUSY;
 279              		.loc 1 422 14
 280 0012 7B68     		ldr	r3, [r7, #4]
 281 0014 0322     		movs	r2, #3
 282 0016 83F83420 		strb	r2, [r3, #52]
 423:./Libraries/STM32F4xx_HAL_Driver/Src/stm32f4xx_hal_sd.c ****   
 424:./Libraries/STM32F4xx_HAL_Driver/Src/stm32f4xx_hal_sd.c ****   /* Set SD power state to off */ 
 425:./Libraries/STM32F4xx_HAL_Driver/Src/stm32f4xx_hal_sd.c ****   SD_PowerOFF(hsd);
 283              		.loc 1 425 3
 284 001a 7868     		ldr	r0, [r7, #4]
 285 001c FFF7FEFF 		bl	SD_PowerOFF
 426:./Libraries/STM32F4xx_HAL_Driver/Src/stm32f4xx_hal_sd.c ****   
 427:./Libraries/STM32F4xx_HAL_Driver/Src/stm32f4xx_hal_sd.c ****   /* De-Initialize the MSP layer */
 428:./Libraries/STM32F4xx_HAL_Driver/Src/stm32f4xx_hal_sd.c ****   HAL_SD_MspDeInit(hsd);
 286              		.loc 1 428 3
 287 0020 7868     		ldr	r0, [r7, #4]
 288 0022 FFF7FEFF 		bl	HAL_SD_MspDeInit
 429:./Libraries/STM32F4xx_HAL_Driver/Src/stm32f4xx_hal_sd.c ****   
 430:./Libraries/STM32F4xx_HAL_Driver/Src/stm32f4xx_hal_sd.c ****   hsd->ErrorCode = HAL_SD_ERROR_NONE;
 289              		.loc 1 430 18
 290 0026 7B68     		ldr	r3, [r7, #4]
 291 0028 0022     		movs	r2, #0
 292 002a 9A63     		str	r2, [r3, #56]
 431:./Libraries/STM32F4xx_HAL_Driver/Src/stm32f4xx_hal_sd.c ****   hsd->State = HAL_SD_STATE_RESET;
 293              		.loc 1 431 14
 294 002c 7B68     		ldr	r3, [r7, #4]
 295 002e 0022     		movs	r2, #0
 296 0030 83F83420 		strb	r2, [r3, #52]
 432:./Libraries/STM32F4xx_HAL_Driver/Src/stm32f4xx_hal_sd.c ****   
 433:./Libraries/STM32F4xx_HAL_Driver/Src/stm32f4xx_hal_sd.c ****   return HAL_OK;
 297              		.loc 1 433 10
 298 0034 0023     		movs	r3, #0
 299              	.L14:
 434:./Libraries/STM32F4xx_HAL_Driver/Src/stm32f4xx_hal_sd.c **** }
 300              		.loc 1 434 1
 301 0036 1846     		mov	r0, r3
 302 0038 0837     		adds	r7, r7, #8
 303              	.LCFI13:
 304              		.cfi_def_cfa_offset 8
 305 003a BD46     		mov	sp, r7
 306              	.LCFI14:
 307              		.cfi_def_cfa_register 13
 308              		@ sp needed
 309 003c 80BD     		pop	{r7, pc}
 310              		.cfi_endproc
 311              	.LFE128:
 313              		.section	.text.HAL_SD_MspInit,"ax",%progbits
ARM GAS  /tmp/ccMhfXg8.s 			page 14


 314              		.align	1
 315              		.weak	HAL_SD_MspInit
 316              		.syntax unified
 317              		.thumb
 318              		.thumb_func
 319              		.fpu fpv4-sp-d16
 321              	HAL_SD_MspInit:
 322              	.LFB129:
 435:./Libraries/STM32F4xx_HAL_Driver/Src/stm32f4xx_hal_sd.c **** 
 436:./Libraries/STM32F4xx_HAL_Driver/Src/stm32f4xx_hal_sd.c **** 
 437:./Libraries/STM32F4xx_HAL_Driver/Src/stm32f4xx_hal_sd.c **** /**
 438:./Libraries/STM32F4xx_HAL_Driver/Src/stm32f4xx_hal_sd.c ****   * @brief  Initializes the SD MSP.
 439:./Libraries/STM32F4xx_HAL_Driver/Src/stm32f4xx_hal_sd.c ****   * @param  hsd Pointer to SD handle
 440:./Libraries/STM32F4xx_HAL_Driver/Src/stm32f4xx_hal_sd.c ****   * @retval None
 441:./Libraries/STM32F4xx_HAL_Driver/Src/stm32f4xx_hal_sd.c ****   */
 442:./Libraries/STM32F4xx_HAL_Driver/Src/stm32f4xx_hal_sd.c **** __weak void HAL_SD_MspInit(SD_HandleTypeDef *hsd)
 443:./Libraries/STM32F4xx_HAL_Driver/Src/stm32f4xx_hal_sd.c **** {
 323              		.loc 1 443 1
 324              		.cfi_startproc
 325              		@ args = 0, pretend = 0, frame = 8
 326              		@ frame_needed = 1, uses_anonymous_args = 0
 327              		@ link register save eliminated.
 328 0000 80B4     		push	{r7}
 329              	.LCFI15:
 330              		.cfi_def_cfa_offset 4
 331              		.cfi_offset 7, -4
 332 0002 83B0     		sub	sp, sp, #12
 333              	.LCFI16:
 334              		.cfi_def_cfa_offset 16
 335 0004 00AF     		add	r7, sp, #0
 336              	.LCFI17:
 337              		.cfi_def_cfa_register 7
 338 0006 7860     		str	r0, [r7, #4]
 444:./Libraries/STM32F4xx_HAL_Driver/Src/stm32f4xx_hal_sd.c ****   /* Prevent unused argument(s) compilation warning */
 445:./Libraries/STM32F4xx_HAL_Driver/Src/stm32f4xx_hal_sd.c ****   UNUSED(hsd);
 446:./Libraries/STM32F4xx_HAL_Driver/Src/stm32f4xx_hal_sd.c ****  
 447:./Libraries/STM32F4xx_HAL_Driver/Src/stm32f4xx_hal_sd.c ****   /* NOTE : This function Should not be modified, when the callback is needed,
 448:./Libraries/STM32F4xx_HAL_Driver/Src/stm32f4xx_hal_sd.c ****             the HAL_SD_MspInit could be implemented in the user file
 449:./Libraries/STM32F4xx_HAL_Driver/Src/stm32f4xx_hal_sd.c ****    */
 450:./Libraries/STM32F4xx_HAL_Driver/Src/stm32f4xx_hal_sd.c **** }
 339              		.loc 1 450 1
 340 0008 00BF     		nop
 341 000a 0C37     		adds	r7, r7, #12
 342              	.LCFI18:
 343              		.cfi_def_cfa_offset 4
 344 000c BD46     		mov	sp, r7
 345              	.LCFI19:
 346              		.cfi_def_cfa_register 13
 347              		@ sp needed
 348 000e 5DF8047B 		ldr	r7, [sp], #4
 349              	.LCFI20:
 350              		.cfi_restore 7
 351              		.cfi_def_cfa_offset 0
 352 0012 7047     		bx	lr
 353              		.cfi_endproc
 354              	.LFE129:
 356              		.section	.text.HAL_SD_MspDeInit,"ax",%progbits
ARM GAS  /tmp/ccMhfXg8.s 			page 15


 357              		.align	1
 358              		.weak	HAL_SD_MspDeInit
 359              		.syntax unified
 360              		.thumb
 361              		.thumb_func
 362              		.fpu fpv4-sp-d16
 364              	HAL_SD_MspDeInit:
 365              	.LFB130:
 451:./Libraries/STM32F4xx_HAL_Driver/Src/stm32f4xx_hal_sd.c **** 
 452:./Libraries/STM32F4xx_HAL_Driver/Src/stm32f4xx_hal_sd.c **** /**
 453:./Libraries/STM32F4xx_HAL_Driver/Src/stm32f4xx_hal_sd.c ****   * @brief  De-Initialize SD MSP.
 454:./Libraries/STM32F4xx_HAL_Driver/Src/stm32f4xx_hal_sd.c ****   * @param  hsd Pointer to SD handle
 455:./Libraries/STM32F4xx_HAL_Driver/Src/stm32f4xx_hal_sd.c ****   * @retval None
 456:./Libraries/STM32F4xx_HAL_Driver/Src/stm32f4xx_hal_sd.c ****   */
 457:./Libraries/STM32F4xx_HAL_Driver/Src/stm32f4xx_hal_sd.c **** __weak void HAL_SD_MspDeInit(SD_HandleTypeDef *hsd)
 458:./Libraries/STM32F4xx_HAL_Driver/Src/stm32f4xx_hal_sd.c **** {
 366              		.loc 1 458 1
 367              		.cfi_startproc
 368              		@ args = 0, pretend = 0, frame = 8
 369              		@ frame_needed = 1, uses_anonymous_args = 0
 370              		@ link register save eliminated.
 371 0000 80B4     		push	{r7}
 372              	.LCFI21:
 373              		.cfi_def_cfa_offset 4
 374              		.cfi_offset 7, -4
 375 0002 83B0     		sub	sp, sp, #12
 376              	.LCFI22:
 377              		.cfi_def_cfa_offset 16
 378 0004 00AF     		add	r7, sp, #0
 379              	.LCFI23:
 380              		.cfi_def_cfa_register 7
 381 0006 7860     		str	r0, [r7, #4]
 459:./Libraries/STM32F4xx_HAL_Driver/Src/stm32f4xx_hal_sd.c ****   /* Prevent unused argument(s) compilation warning */
 460:./Libraries/STM32F4xx_HAL_Driver/Src/stm32f4xx_hal_sd.c ****   UNUSED(hsd);
 461:./Libraries/STM32F4xx_HAL_Driver/Src/stm32f4xx_hal_sd.c ****  
 462:./Libraries/STM32F4xx_HAL_Driver/Src/stm32f4xx_hal_sd.c ****   /* NOTE : This function Should not be modified, when the callback is needed,
 463:./Libraries/STM32F4xx_HAL_Driver/Src/stm32f4xx_hal_sd.c ****             the HAL_SD_MspDeInit could be implemented in the user file
 464:./Libraries/STM32F4xx_HAL_Driver/Src/stm32f4xx_hal_sd.c ****    */
 465:./Libraries/STM32F4xx_HAL_Driver/Src/stm32f4xx_hal_sd.c **** }
 382              		.loc 1 465 1
 383 0008 00BF     		nop
 384 000a 0C37     		adds	r7, r7, #12
 385              	.LCFI24:
 386              		.cfi_def_cfa_offset 4
 387 000c BD46     		mov	sp, r7
 388              	.LCFI25:
 389              		.cfi_def_cfa_register 13
 390              		@ sp needed
 391 000e 5DF8047B 		ldr	r7, [sp], #4
 392              	.LCFI26:
 393              		.cfi_restore 7
 394              		.cfi_def_cfa_offset 0
 395 0012 7047     		bx	lr
 396              		.cfi_endproc
 397              	.LFE130:
 399              		.section	.text.HAL_SD_ReadBlocks,"ax",%progbits
 400              		.align	1
ARM GAS  /tmp/ccMhfXg8.s 			page 16


 401              		.global	HAL_SD_ReadBlocks
 402              		.syntax unified
 403              		.thumb
 404              		.thumb_func
 405              		.fpu fpv4-sp-d16
 407              	HAL_SD_ReadBlocks:
 408              	.LFB131:
 466:./Libraries/STM32F4xx_HAL_Driver/Src/stm32f4xx_hal_sd.c **** 
 467:./Libraries/STM32F4xx_HAL_Driver/Src/stm32f4xx_hal_sd.c **** /**
 468:./Libraries/STM32F4xx_HAL_Driver/Src/stm32f4xx_hal_sd.c ****   * @}
 469:./Libraries/STM32F4xx_HAL_Driver/Src/stm32f4xx_hal_sd.c ****   */
 470:./Libraries/STM32F4xx_HAL_Driver/Src/stm32f4xx_hal_sd.c **** 
 471:./Libraries/STM32F4xx_HAL_Driver/Src/stm32f4xx_hal_sd.c **** /** @addtogroup SD_Exported_Functions_Group2
 472:./Libraries/STM32F4xx_HAL_Driver/Src/stm32f4xx_hal_sd.c ****  *  @brief   Data transfer functions 
 473:./Libraries/STM32F4xx_HAL_Driver/Src/stm32f4xx_hal_sd.c ****  *
 474:./Libraries/STM32F4xx_HAL_Driver/Src/stm32f4xx_hal_sd.c **** @verbatim   
 475:./Libraries/STM32F4xx_HAL_Driver/Src/stm32f4xx_hal_sd.c ****   ==============================================================================
 476:./Libraries/STM32F4xx_HAL_Driver/Src/stm32f4xx_hal_sd.c ****                         ##### IO operation functions #####
 477:./Libraries/STM32F4xx_HAL_Driver/Src/stm32f4xx_hal_sd.c ****   ==============================================================================  
 478:./Libraries/STM32F4xx_HAL_Driver/Src/stm32f4xx_hal_sd.c ****   [..]
 479:./Libraries/STM32F4xx_HAL_Driver/Src/stm32f4xx_hal_sd.c ****     This subsection provides a set of functions allowing to manage the data 
 480:./Libraries/STM32F4xx_HAL_Driver/Src/stm32f4xx_hal_sd.c ****     transfer from/to SD card.
 481:./Libraries/STM32F4xx_HAL_Driver/Src/stm32f4xx_hal_sd.c **** 
 482:./Libraries/STM32F4xx_HAL_Driver/Src/stm32f4xx_hal_sd.c **** @endverbatim
 483:./Libraries/STM32F4xx_HAL_Driver/Src/stm32f4xx_hal_sd.c ****   * @{
 484:./Libraries/STM32F4xx_HAL_Driver/Src/stm32f4xx_hal_sd.c ****   */
 485:./Libraries/STM32F4xx_HAL_Driver/Src/stm32f4xx_hal_sd.c **** 
 486:./Libraries/STM32F4xx_HAL_Driver/Src/stm32f4xx_hal_sd.c **** /**
 487:./Libraries/STM32F4xx_HAL_Driver/Src/stm32f4xx_hal_sd.c ****   * @brief  Reads block(s) from a specified address in a card. The Data transfer 
 488:./Libraries/STM32F4xx_HAL_Driver/Src/stm32f4xx_hal_sd.c ****   *         is managed by polling mode.
 489:./Libraries/STM32F4xx_HAL_Driver/Src/stm32f4xx_hal_sd.c ****   * @note   This API should be followed by a check on the card state through
 490:./Libraries/STM32F4xx_HAL_Driver/Src/stm32f4xx_hal_sd.c ****   *         HAL_SD_GetCardState().
 491:./Libraries/STM32F4xx_HAL_Driver/Src/stm32f4xx_hal_sd.c ****   * @param  hsd Pointer to SD handle
 492:./Libraries/STM32F4xx_HAL_Driver/Src/stm32f4xx_hal_sd.c ****   * @param  pData pointer to the buffer that will contain the received data
 493:./Libraries/STM32F4xx_HAL_Driver/Src/stm32f4xx_hal_sd.c ****   * @param  BlockAdd Block Address from where data is to be read 
 494:./Libraries/STM32F4xx_HAL_Driver/Src/stm32f4xx_hal_sd.c ****   * @param  NumberOfBlocks Number of SD blocks to read
 495:./Libraries/STM32F4xx_HAL_Driver/Src/stm32f4xx_hal_sd.c ****   * @param  Timeout Specify timeout value
 496:./Libraries/STM32F4xx_HAL_Driver/Src/stm32f4xx_hal_sd.c ****   * @retval HAL status
 497:./Libraries/STM32F4xx_HAL_Driver/Src/stm32f4xx_hal_sd.c ****   */
 498:./Libraries/STM32F4xx_HAL_Driver/Src/stm32f4xx_hal_sd.c **** HAL_StatusTypeDef HAL_SD_ReadBlocks(SD_HandleTypeDef *hsd, uint8_t *pData, uint32_t BlockAdd, uint3
 499:./Libraries/STM32F4xx_HAL_Driver/Src/stm32f4xx_hal_sd.c **** {
 409              		.loc 1 499 1
 410              		.cfi_startproc
 411              		@ args = 4, pretend = 0, frame = 56
 412              		@ frame_needed = 1, uses_anonymous_args = 0
 413 0000 90B5     		push	{r4, r7, lr}
 414              	.LCFI27:
 415              		.cfi_def_cfa_offset 12
 416              		.cfi_offset 4, -12
 417              		.cfi_offset 7, -8
 418              		.cfi_offset 14, -4
 419 0002 8FB0     		sub	sp, sp, #60
 420              	.LCFI28:
 421              		.cfi_def_cfa_offset 72
 422 0004 00AF     		add	r7, sp, #0
 423              	.LCFI29:
 424              		.cfi_def_cfa_register 7
ARM GAS  /tmp/ccMhfXg8.s 			page 17


 425 0006 F860     		str	r0, [r7, #12]
 426 0008 B960     		str	r1, [r7, #8]
 427 000a 7A60     		str	r2, [r7, #4]
 428 000c 3B60     		str	r3, [r7]
 500:./Libraries/STM32F4xx_HAL_Driver/Src/stm32f4xx_hal_sd.c ****   SDIO_DataInitTypeDef config;
 501:./Libraries/STM32F4xx_HAL_Driver/Src/stm32f4xx_hal_sd.c ****   uint32_t errorstate = HAL_SD_ERROR_NONE;
 429              		.loc 1 501 12
 430 000e 0023     		movs	r3, #0
 431 0010 7B63     		str	r3, [r7, #52]
 502:./Libraries/STM32F4xx_HAL_Driver/Src/stm32f4xx_hal_sd.c ****   uint32_t tickstart = HAL_GetTick();
 432              		.loc 1 502 24
 433 0012 FFF7FEFF 		bl	HAL_GetTick
 434 0016 B862     		str	r0, [r7, #40]
 503:./Libraries/STM32F4xx_HAL_Driver/Src/stm32f4xx_hal_sd.c ****   uint32_t count = 0U, *tempbuff = (uint32_t *)pData;
 435              		.loc 1 503 12
 436 0018 0023     		movs	r3, #0
 437 001a 3B63     		str	r3, [r7, #48]
 438              		.loc 1 503 25
 439 001c BB68     		ldr	r3, [r7, #8]
 440 001e FB62     		str	r3, [r7, #44]
 504:./Libraries/STM32F4xx_HAL_Driver/Src/stm32f4xx_hal_sd.c ****   
 505:./Libraries/STM32F4xx_HAL_Driver/Src/stm32f4xx_hal_sd.c ****   if(NULL == pData)
 441              		.loc 1 505 5
 442 0020 BB68     		ldr	r3, [r7, #8]
 443 0022 002B     		cmp	r3, #0
 444 0024 07D1     		bne	.L18
 506:./Libraries/STM32F4xx_HAL_Driver/Src/stm32f4xx_hal_sd.c ****   {
 507:./Libraries/STM32F4xx_HAL_Driver/Src/stm32f4xx_hal_sd.c ****     hsd->ErrorCode |= HAL_SD_ERROR_PARAM;
 445              		.loc 1 507 20
 446 0026 FB68     		ldr	r3, [r7, #12]
 447 0028 9B6B     		ldr	r3, [r3, #56]
 448 002a 43F00062 		orr	r2, r3, #134217728
 449 002e FB68     		ldr	r3, [r7, #12]
 450 0030 9A63     		str	r2, [r3, #56]
 508:./Libraries/STM32F4xx_HAL_Driver/Src/stm32f4xx_hal_sd.c ****     return HAL_ERROR;
 451              		.loc 1 508 12
 452 0032 0123     		movs	r3, #1
 453 0034 77E1     		b	.L40
 454              	.L18:
 509:./Libraries/STM32F4xx_HAL_Driver/Src/stm32f4xx_hal_sd.c ****   }
 510:./Libraries/STM32F4xx_HAL_Driver/Src/stm32f4xx_hal_sd.c ****  
 511:./Libraries/STM32F4xx_HAL_Driver/Src/stm32f4xx_hal_sd.c ****   if(hsd->State == HAL_SD_STATE_READY)
 455              		.loc 1 511 9
 456 0036 FB68     		ldr	r3, [r7, #12]
 457 0038 93F83430 		ldrb	r3, [r3, #52]
 458 003c DBB2     		uxtb	r3, r3
 459              		.loc 1 511 5
 460 003e 012B     		cmp	r3, #1
 461 0040 40F06A81 		bne	.L20
 512:./Libraries/STM32F4xx_HAL_Driver/Src/stm32f4xx_hal_sd.c ****   {
 513:./Libraries/STM32F4xx_HAL_Driver/Src/stm32f4xx_hal_sd.c ****     hsd->ErrorCode = HAL_DMA_ERROR_NONE;
 462              		.loc 1 513 20
 463 0044 FB68     		ldr	r3, [r7, #12]
 464 0046 0022     		movs	r2, #0
 465 0048 9A63     		str	r2, [r3, #56]
 514:./Libraries/STM32F4xx_HAL_Driver/Src/stm32f4xx_hal_sd.c ****     
 515:./Libraries/STM32F4xx_HAL_Driver/Src/stm32f4xx_hal_sd.c ****     if((BlockAdd + NumberOfBlocks) > (hsd->SdCard.LogBlockNbr))
ARM GAS  /tmp/ccMhfXg8.s 			page 18


 466              		.loc 1 515 18
 467 004a 7A68     		ldr	r2, [r7, #4]
 468 004c 3B68     		ldr	r3, [r7]
 469 004e 1A44     		add	r2, r2, r3
 470              		.loc 1 515 50
 471 0050 FB68     		ldr	r3, [r7, #12]
 472 0052 DB6D     		ldr	r3, [r3, #92]
 473              		.loc 1 515 7
 474 0054 9A42     		cmp	r2, r3
 475 0056 07D9     		bls	.L21
 516:./Libraries/STM32F4xx_HAL_Driver/Src/stm32f4xx_hal_sd.c ****     {
 517:./Libraries/STM32F4xx_HAL_Driver/Src/stm32f4xx_hal_sd.c ****       hsd->ErrorCode |= HAL_SD_ERROR_ADDR_OUT_OF_RANGE;
 476              		.loc 1 517 22
 477 0058 FB68     		ldr	r3, [r7, #12]
 478 005a 9B6B     		ldr	r3, [r3, #56]
 479 005c 43F00072 		orr	r2, r3, #33554432
 480 0060 FB68     		ldr	r3, [r7, #12]
 481 0062 9A63     		str	r2, [r3, #56]
 518:./Libraries/STM32F4xx_HAL_Driver/Src/stm32f4xx_hal_sd.c ****       return HAL_ERROR;
 482              		.loc 1 518 14
 483 0064 0123     		movs	r3, #1
 484 0066 5EE1     		b	.L40
 485              	.L21:
 519:./Libraries/STM32F4xx_HAL_Driver/Src/stm32f4xx_hal_sd.c ****     }
 520:./Libraries/STM32F4xx_HAL_Driver/Src/stm32f4xx_hal_sd.c ****     
 521:./Libraries/STM32F4xx_HAL_Driver/Src/stm32f4xx_hal_sd.c ****     hsd->State = HAL_SD_STATE_BUSY;
 486              		.loc 1 521 16
 487 0068 FB68     		ldr	r3, [r7, #12]
 488 006a 0322     		movs	r2, #3
 489 006c 83F83420 		strb	r2, [r3, #52]
 522:./Libraries/STM32F4xx_HAL_Driver/Src/stm32f4xx_hal_sd.c ****     
 523:./Libraries/STM32F4xx_HAL_Driver/Src/stm32f4xx_hal_sd.c ****     /* Initialize data control register */
 524:./Libraries/STM32F4xx_HAL_Driver/Src/stm32f4xx_hal_sd.c ****     hsd->Instance->DCTRL = 0U;
 490              		.loc 1 524 8
 491 0070 FB68     		ldr	r3, [r7, #12]
 492 0072 1B68     		ldr	r3, [r3]
 493              		.loc 1 524 26
 494 0074 0022     		movs	r2, #0
 495 0076 DA62     		str	r2, [r3, #44]
 525:./Libraries/STM32F4xx_HAL_Driver/Src/stm32f4xx_hal_sd.c ****     
 526:./Libraries/STM32F4xx_HAL_Driver/Src/stm32f4xx_hal_sd.c ****     if(hsd->SdCard.CardType != CARD_SDHC_SDXC)
 496              		.loc 1 526 19
 497 0078 FB68     		ldr	r3, [r7, #12]
 498 007a 5B6C     		ldr	r3, [r3, #68]
 499              		.loc 1 526 7
 500 007c 012B     		cmp	r3, #1
 501 007e 02D0     		beq	.L22
 527:./Libraries/STM32F4xx_HAL_Driver/Src/stm32f4xx_hal_sd.c ****     {
 528:./Libraries/STM32F4xx_HAL_Driver/Src/stm32f4xx_hal_sd.c ****       BlockAdd *= 512U;
 502              		.loc 1 528 16
 503 0080 7B68     		ldr	r3, [r7, #4]
 504 0082 5B02     		lsls	r3, r3, #9
 505 0084 7B60     		str	r3, [r7, #4]
 506              	.L22:
 529:./Libraries/STM32F4xx_HAL_Driver/Src/stm32f4xx_hal_sd.c ****     }
 530:./Libraries/STM32F4xx_HAL_Driver/Src/stm32f4xx_hal_sd.c ****       
 531:./Libraries/STM32F4xx_HAL_Driver/Src/stm32f4xx_hal_sd.c ****     /* Set Block Size for Card */
ARM GAS  /tmp/ccMhfXg8.s 			page 19


 532:./Libraries/STM32F4xx_HAL_Driver/Src/stm32f4xx_hal_sd.c ****     errorstate = SDMMC_CmdBlockLength(hsd->Instance, BLOCKSIZE);
 507              		.loc 1 532 18
 508 0086 FB68     		ldr	r3, [r7, #12]
 509 0088 1B68     		ldr	r3, [r3]
 510 008a 4FF40071 		mov	r1, #512
 511 008e 1846     		mov	r0, r3
 512 0090 FFF7FEFF 		bl	SDMMC_CmdBlockLength
 513 0094 7863     		str	r0, [r7, #52]
 533:./Libraries/STM32F4xx_HAL_Driver/Src/stm32f4xx_hal_sd.c ****     if(errorstate != HAL_SD_ERROR_NONE)
 514              		.loc 1 533 7
 515 0096 7B6B     		ldr	r3, [r7, #52]
 516 0098 002B     		cmp	r3, #0
 517 009a 10D0     		beq	.L23
 534:./Libraries/STM32F4xx_HAL_Driver/Src/stm32f4xx_hal_sd.c ****     {
 535:./Libraries/STM32F4xx_HAL_Driver/Src/stm32f4xx_hal_sd.c ****       /* Clear all the static flags */
 536:./Libraries/STM32F4xx_HAL_Driver/Src/stm32f4xx_hal_sd.c ****       __HAL_SD_CLEAR_FLAG(hsd, SDIO_STATIC_FLAGS);      
 518              		.loc 1 536 7
 519 009c FB68     		ldr	r3, [r7, #12]
 520 009e 1B68     		ldr	r3, [r3]
 521 00a0 40F2FF52 		movw	r2, #1535
 522 00a4 9A63     		str	r2, [r3, #56]
 537:./Libraries/STM32F4xx_HAL_Driver/Src/stm32f4xx_hal_sd.c ****       hsd->ErrorCode |= errorstate;
 523              		.loc 1 537 22
 524 00a6 FB68     		ldr	r3, [r7, #12]
 525 00a8 9A6B     		ldr	r2, [r3, #56]
 526 00aa 7B6B     		ldr	r3, [r7, #52]
 527 00ac 1A43     		orrs	r2, r2, r3
 528 00ae FB68     		ldr	r3, [r7, #12]
 529 00b0 9A63     		str	r2, [r3, #56]
 538:./Libraries/STM32F4xx_HAL_Driver/Src/stm32f4xx_hal_sd.c ****       hsd->State = HAL_SD_STATE_READY;
 530              		.loc 1 538 18
 531 00b2 FB68     		ldr	r3, [r7, #12]
 532 00b4 0122     		movs	r2, #1
 533 00b6 83F83420 		strb	r2, [r3, #52]
 539:./Libraries/STM32F4xx_HAL_Driver/Src/stm32f4xx_hal_sd.c ****       return HAL_ERROR;
 534              		.loc 1 539 14
 535 00ba 0123     		movs	r3, #1
 536 00bc 33E1     		b	.L40
 537              	.L23:
 540:./Libraries/STM32F4xx_HAL_Driver/Src/stm32f4xx_hal_sd.c ****     }
 541:./Libraries/STM32F4xx_HAL_Driver/Src/stm32f4xx_hal_sd.c ****     
 542:./Libraries/STM32F4xx_HAL_Driver/Src/stm32f4xx_hal_sd.c ****     /* Configure the SD DPSM (Data Path State Machine) */
 543:./Libraries/STM32F4xx_HAL_Driver/Src/stm32f4xx_hal_sd.c ****     config.DataTimeOut   = SDMMC_DATATIMEOUT;
 538              		.loc 1 543 26
 539 00be 4FF0FF33 		mov	r3, #-1
 540 00c2 3B61     		str	r3, [r7, #16]
 544:./Libraries/STM32F4xx_HAL_Driver/Src/stm32f4xx_hal_sd.c ****     config.DataLength    = NumberOfBlocks * BLOCKSIZE;
 541              		.loc 1 544 43
 542 00c4 3B68     		ldr	r3, [r7]
 543 00c6 5B02     		lsls	r3, r3, #9
 544              		.loc 1 544 26
 545 00c8 7B61     		str	r3, [r7, #20]
 545:./Libraries/STM32F4xx_HAL_Driver/Src/stm32f4xx_hal_sd.c ****     config.DataBlockSize = SDIO_DATABLOCK_SIZE_512B;
 546              		.loc 1 545 26
 547 00ca 9023     		movs	r3, #144
 548 00cc BB61     		str	r3, [r7, #24]
 546:./Libraries/STM32F4xx_HAL_Driver/Src/stm32f4xx_hal_sd.c ****     config.TransferDir   = SDIO_TRANSFER_DIR_TO_SDIO;
ARM GAS  /tmp/ccMhfXg8.s 			page 20


 549              		.loc 1 546 26
 550 00ce 0223     		movs	r3, #2
 551 00d0 FB61     		str	r3, [r7, #28]
 547:./Libraries/STM32F4xx_HAL_Driver/Src/stm32f4xx_hal_sd.c ****     config.TransferMode  = SDIO_TRANSFER_MODE_BLOCK;
 552              		.loc 1 547 26
 553 00d2 0023     		movs	r3, #0
 554 00d4 3B62     		str	r3, [r7, #32]
 548:./Libraries/STM32F4xx_HAL_Driver/Src/stm32f4xx_hal_sd.c ****     config.DPSM          = SDIO_DPSM_ENABLE;
 555              		.loc 1 548 26
 556 00d6 0123     		movs	r3, #1
 557 00d8 7B62     		str	r3, [r7, #36]
 549:./Libraries/STM32F4xx_HAL_Driver/Src/stm32f4xx_hal_sd.c ****     SDIO_ConfigData(hsd->Instance, &config);
 558              		.loc 1 549 5
 559 00da FB68     		ldr	r3, [r7, #12]
 560 00dc 1B68     		ldr	r3, [r3]
 561 00de 07F11002 		add	r2, r7, #16
 562 00e2 1146     		mov	r1, r2
 563 00e4 1846     		mov	r0, r3
 564 00e6 FFF7FEFF 		bl	SDIO_ConfigData
 550:./Libraries/STM32F4xx_HAL_Driver/Src/stm32f4xx_hal_sd.c ****     
 551:./Libraries/STM32F4xx_HAL_Driver/Src/stm32f4xx_hal_sd.c ****     /* Read block(s) in polling mode */
 552:./Libraries/STM32F4xx_HAL_Driver/Src/stm32f4xx_hal_sd.c ****     if(NumberOfBlocks > 1U)
 565              		.loc 1 552 7
 566 00ea 3B68     		ldr	r3, [r7]
 567 00ec 012B     		cmp	r3, #1
 568 00ee 0AD9     		bls	.L24
 553:./Libraries/STM32F4xx_HAL_Driver/Src/stm32f4xx_hal_sd.c ****     {
 554:./Libraries/STM32F4xx_HAL_Driver/Src/stm32f4xx_hal_sd.c ****       hsd->Context = SD_CONTEXT_READ_MULTIPLE_BLOCK;
 569              		.loc 1 554 20
 570 00f0 FB68     		ldr	r3, [r7, #12]
 571 00f2 0222     		movs	r2, #2
 572 00f4 1A63     		str	r2, [r3, #48]
 555:./Libraries/STM32F4xx_HAL_Driver/Src/stm32f4xx_hal_sd.c ****       
 556:./Libraries/STM32F4xx_HAL_Driver/Src/stm32f4xx_hal_sd.c ****       /* Read Multi Block command */ 
 557:./Libraries/STM32F4xx_HAL_Driver/Src/stm32f4xx_hal_sd.c ****       errorstate = SDMMC_CmdReadMultiBlock(hsd->Instance, BlockAdd);
 573              		.loc 1 557 20
 574 00f6 FB68     		ldr	r3, [r7, #12]
 575 00f8 1B68     		ldr	r3, [r3]
 576 00fa 7968     		ldr	r1, [r7, #4]
 577 00fc 1846     		mov	r0, r3
 578 00fe FFF7FEFF 		bl	SDMMC_CmdReadMultiBlock
 579 0102 7863     		str	r0, [r7, #52]
 580 0104 09E0     		b	.L25
 581              	.L24:
 558:./Libraries/STM32F4xx_HAL_Driver/Src/stm32f4xx_hal_sd.c ****     }
 559:./Libraries/STM32F4xx_HAL_Driver/Src/stm32f4xx_hal_sd.c ****     else
 560:./Libraries/STM32F4xx_HAL_Driver/Src/stm32f4xx_hal_sd.c ****     {
 561:./Libraries/STM32F4xx_HAL_Driver/Src/stm32f4xx_hal_sd.c ****       hsd->Context = SD_CONTEXT_READ_SINGLE_BLOCK;
 582              		.loc 1 561 20
 583 0106 FB68     		ldr	r3, [r7, #12]
 584 0108 0122     		movs	r2, #1
 585 010a 1A63     		str	r2, [r3, #48]
 562:./Libraries/STM32F4xx_HAL_Driver/Src/stm32f4xx_hal_sd.c ****       
 563:./Libraries/STM32F4xx_HAL_Driver/Src/stm32f4xx_hal_sd.c ****       /* Read Single Block command */
 564:./Libraries/STM32F4xx_HAL_Driver/Src/stm32f4xx_hal_sd.c ****       errorstate = SDMMC_CmdReadSingleBlock(hsd->Instance, BlockAdd);
 586              		.loc 1 564 20
 587 010c FB68     		ldr	r3, [r7, #12]
ARM GAS  /tmp/ccMhfXg8.s 			page 21


 588 010e 1B68     		ldr	r3, [r3]
 589 0110 7968     		ldr	r1, [r7, #4]
 590 0112 1846     		mov	r0, r3
 591 0114 FFF7FEFF 		bl	SDMMC_CmdReadSingleBlock
 592 0118 7863     		str	r0, [r7, #52]
 593              	.L25:
 565:./Libraries/STM32F4xx_HAL_Driver/Src/stm32f4xx_hal_sd.c ****     }
 566:./Libraries/STM32F4xx_HAL_Driver/Src/stm32f4xx_hal_sd.c ****     if(errorstate != HAL_SD_ERROR_NONE)
 594              		.loc 1 566 7
 595 011a 7B6B     		ldr	r3, [r7, #52]
 596 011c 002B     		cmp	r3, #0
 597 011e 4AD0     		beq	.L27
 567:./Libraries/STM32F4xx_HAL_Driver/Src/stm32f4xx_hal_sd.c ****     {
 568:./Libraries/STM32F4xx_HAL_Driver/Src/stm32f4xx_hal_sd.c ****       /* Clear all the static flags */
 569:./Libraries/STM32F4xx_HAL_Driver/Src/stm32f4xx_hal_sd.c ****       __HAL_SD_CLEAR_FLAG(hsd, SDIO_STATIC_FLAGS);
 598              		.loc 1 569 7
 599 0120 FB68     		ldr	r3, [r7, #12]
 600 0122 1B68     		ldr	r3, [r3]
 601 0124 40F2FF52 		movw	r2, #1535
 602 0128 9A63     		str	r2, [r3, #56]
 570:./Libraries/STM32F4xx_HAL_Driver/Src/stm32f4xx_hal_sd.c ****       hsd->ErrorCode |= errorstate;
 603              		.loc 1 570 22
 604 012a FB68     		ldr	r3, [r7, #12]
 605 012c 9A6B     		ldr	r2, [r3, #56]
 606 012e 7B6B     		ldr	r3, [r7, #52]
 607 0130 1A43     		orrs	r2, r2, r3
 608 0132 FB68     		ldr	r3, [r7, #12]
 609 0134 9A63     		str	r2, [r3, #56]
 571:./Libraries/STM32F4xx_HAL_Driver/Src/stm32f4xx_hal_sd.c ****       hsd->State = HAL_SD_STATE_READY;
 610              		.loc 1 571 18
 611 0136 FB68     		ldr	r3, [r7, #12]
 612 0138 0122     		movs	r2, #1
 613 013a 83F83420 		strb	r2, [r3, #52]
 572:./Libraries/STM32F4xx_HAL_Driver/Src/stm32f4xx_hal_sd.c ****       return HAL_ERROR;
 614              		.loc 1 572 14
 615 013e 0123     		movs	r3, #1
 616 0140 F1E0     		b	.L40
 617              	.L32:
 573:./Libraries/STM32F4xx_HAL_Driver/Src/stm32f4xx_hal_sd.c ****     }
 574:./Libraries/STM32F4xx_HAL_Driver/Src/stm32f4xx_hal_sd.c ****       
 575:./Libraries/STM32F4xx_HAL_Driver/Src/stm32f4xx_hal_sd.c ****     /* Poll on SDIO flags */
 576:./Libraries/STM32F4xx_HAL_Driver/Src/stm32f4xx_hal_sd.c **** #ifdef SDIO_STA_STBITERR
 577:./Libraries/STM32F4xx_HAL_Driver/Src/stm32f4xx_hal_sd.c ****     while(!__HAL_SD_GET_FLAG(hsd, SDIO_FLAG_RXOVERR | SDIO_FLAG_DCRCFAIL | SDIO_FLAG_DTIMEOUT | SDI
 578:./Libraries/STM32F4xx_HAL_Driver/Src/stm32f4xx_hal_sd.c **** #else /* SDIO_STA_STBITERR not defined */
 579:./Libraries/STM32F4xx_HAL_Driver/Src/stm32f4xx_hal_sd.c ****     while(!__HAL_SD_GET_FLAG(hsd, SDIO_FLAG_RXOVERR | SDIO_FLAG_DCRCFAIL | SDIO_FLAG_DTIMEOUT | SDI
 580:./Libraries/STM32F4xx_HAL_Driver/Src/stm32f4xx_hal_sd.c **** #endif /* SDIO_STA_STBITERR */
 581:./Libraries/STM32F4xx_HAL_Driver/Src/stm32f4xx_hal_sd.c ****     {
 582:./Libraries/STM32F4xx_HAL_Driver/Src/stm32f4xx_hal_sd.c ****       if(__HAL_SD_GET_FLAG(hsd, SDIO_FLAG_RXFIFOHF))
 618              		.loc 1 582 10
 619 0142 FB68     		ldr	r3, [r7, #12]
 620 0144 1B68     		ldr	r3, [r3]
 621 0146 5B6B     		ldr	r3, [r3, #52]
 622 0148 03F40043 		and	r3, r3, #32768
 623              		.loc 1 582 9
 624 014c 002B     		cmp	r3, #0
 625 014e 16D0     		beq	.L28
 583:./Libraries/STM32F4xx_HAL_Driver/Src/stm32f4xx_hal_sd.c ****       {
ARM GAS  /tmp/ccMhfXg8.s 			page 22


 584:./Libraries/STM32F4xx_HAL_Driver/Src/stm32f4xx_hal_sd.c ****         /* Read data from SDIO Rx FIFO */
 585:./Libraries/STM32F4xx_HAL_Driver/Src/stm32f4xx_hal_sd.c ****         for(count = 0U; count < 8U; count++)
 626              		.loc 1 585 19
 627 0150 0023     		movs	r3, #0
 628 0152 3B63     		str	r3, [r7, #48]
 629              		.loc 1 585 9
 630 0154 0DE0     		b	.L29
 631              	.L30:
 586:./Libraries/STM32F4xx_HAL_Driver/Src/stm32f4xx_hal_sd.c ****         {
 587:./Libraries/STM32F4xx_HAL_Driver/Src/stm32f4xx_hal_sd.c ****           *(tempbuff + count) = SDIO_ReadFIFO(hsd->Instance);
 632              		.loc 1 587 33 discriminator 3
 633 0156 FB68     		ldr	r3, [r7, #12]
 634 0158 1968     		ldr	r1, [r3]
 635              		.loc 1 587 22 discriminator 3
 636 015a 3B6B     		ldr	r3, [r7, #48]
 637 015c 9B00     		lsls	r3, r3, #2
 638 015e FA6A     		ldr	r2, [r7, #44]
 639 0160 D418     		adds	r4, r2, r3
 640              		.loc 1 587 33 discriminator 3
 641 0162 0846     		mov	r0, r1
 642 0164 FFF7FEFF 		bl	SDIO_ReadFIFO
 643 0168 0346     		mov	r3, r0
 644              		.loc 1 587 31 discriminator 3
 645 016a 2360     		str	r3, [r4]
 585:./Libraries/STM32F4xx_HAL_Driver/Src/stm32f4xx_hal_sd.c ****         {
 646              		.loc 1 585 42 discriminator 3
 647 016c 3B6B     		ldr	r3, [r7, #48]
 648 016e 0133     		adds	r3, r3, #1
 649 0170 3B63     		str	r3, [r7, #48]
 650              	.L29:
 585:./Libraries/STM32F4xx_HAL_Driver/Src/stm32f4xx_hal_sd.c ****         {
 651              		.loc 1 585 9 discriminator 1
 652 0172 3B6B     		ldr	r3, [r7, #48]
 653 0174 072B     		cmp	r3, #7
 654 0176 EED9     		bls	.L30
 588:./Libraries/STM32F4xx_HAL_Driver/Src/stm32f4xx_hal_sd.c ****         }
 589:./Libraries/STM32F4xx_HAL_Driver/Src/stm32f4xx_hal_sd.c ****         tempbuff += 8U;
 655              		.loc 1 589 18
 656 0178 FB6A     		ldr	r3, [r7, #44]
 657 017a 2033     		adds	r3, r3, #32
 658 017c FB62     		str	r3, [r7, #44]
 659              	.L28:
 590:./Libraries/STM32F4xx_HAL_Driver/Src/stm32f4xx_hal_sd.c ****       }
 591:./Libraries/STM32F4xx_HAL_Driver/Src/stm32f4xx_hal_sd.c ****       
 592:./Libraries/STM32F4xx_HAL_Driver/Src/stm32f4xx_hal_sd.c ****       if((Timeout == 0U)||((HAL_GetTick()-tickstart) >=  Timeout))
 660              		.loc 1 592 9
 661 017e BB6C     		ldr	r3, [r7, #72]
 662 0180 002B     		cmp	r3, #0
 663 0182 07D0     		beq	.L31
 664              		.loc 1 592 29 discriminator 1
 665 0184 FFF7FEFF 		bl	HAL_GetTick
 666 0188 0246     		mov	r2, r0
 667              		.loc 1 592 42 discriminator 1
 668 018a BB6A     		ldr	r3, [r7, #40]
 669 018c D31A     		subs	r3, r2, r3
 670              		.loc 1 592 25 discriminator 1
 671 018e BA6C     		ldr	r2, [r7, #72]
ARM GAS  /tmp/ccMhfXg8.s 			page 23


 672 0190 9A42     		cmp	r2, r3
 673 0192 10D8     		bhi	.L27
 674              	.L31:
 593:./Libraries/STM32F4xx_HAL_Driver/Src/stm32f4xx_hal_sd.c ****       {
 594:./Libraries/STM32F4xx_HAL_Driver/Src/stm32f4xx_hal_sd.c ****         /* Clear all the static flags */
 595:./Libraries/STM32F4xx_HAL_Driver/Src/stm32f4xx_hal_sd.c ****         __HAL_SD_CLEAR_FLAG(hsd, SDIO_STATIC_FLAGS);
 675              		.loc 1 595 9
 676 0194 FB68     		ldr	r3, [r7, #12]
 677 0196 1B68     		ldr	r3, [r3]
 678 0198 40F2FF52 		movw	r2, #1535
 679 019c 9A63     		str	r2, [r3, #56]
 596:./Libraries/STM32F4xx_HAL_Driver/Src/stm32f4xx_hal_sd.c ****         hsd->ErrorCode |= HAL_SD_ERROR_TIMEOUT;
 680              		.loc 1 596 24
 681 019e FB68     		ldr	r3, [r7, #12]
 682 01a0 9B6B     		ldr	r3, [r3, #56]
 683 01a2 43F00042 		orr	r2, r3, #-2147483648
 684 01a6 FB68     		ldr	r3, [r7, #12]
 685 01a8 9A63     		str	r2, [r3, #56]
 597:./Libraries/STM32F4xx_HAL_Driver/Src/stm32f4xx_hal_sd.c ****         hsd->State= HAL_SD_STATE_READY;
 686              		.loc 1 597 19
 687 01aa FB68     		ldr	r3, [r7, #12]
 688 01ac 0122     		movs	r2, #1
 689 01ae 83F83420 		strb	r2, [r3, #52]
 598:./Libraries/STM32F4xx_HAL_Driver/Src/stm32f4xx_hal_sd.c ****         return HAL_TIMEOUT;
 690              		.loc 1 598 16
 691 01b2 0323     		movs	r3, #3
 692 01b4 B7E0     		b	.L40
 693              	.L27:
 577:./Libraries/STM32F4xx_HAL_Driver/Src/stm32f4xx_hal_sd.c **** #else /* SDIO_STA_STBITERR not defined */
 694              		.loc 1 577 12
 695 01b6 FB68     		ldr	r3, [r7, #12]
 696 01b8 1B68     		ldr	r3, [r3]
 697 01ba 5A6B     		ldr	r2, [r3, #52]
 698 01bc 40F22A33 		movw	r3, #810
 699 01c0 1340     		ands	r3, r3, r2
 577:./Libraries/STM32F4xx_HAL_Driver/Src/stm32f4xx_hal_sd.c **** #else /* SDIO_STA_STBITERR not defined */
 700              		.loc 1 577 10
 701 01c2 002B     		cmp	r3, #0
 702 01c4 BDD0     		beq	.L32
 599:./Libraries/STM32F4xx_HAL_Driver/Src/stm32f4xx_hal_sd.c ****       }
 600:./Libraries/STM32F4xx_HAL_Driver/Src/stm32f4xx_hal_sd.c ****     }
 601:./Libraries/STM32F4xx_HAL_Driver/Src/stm32f4xx_hal_sd.c ****     
 602:./Libraries/STM32F4xx_HAL_Driver/Src/stm32f4xx_hal_sd.c ****     /* Send stop transmission command in case of multiblock read */
 603:./Libraries/STM32F4xx_HAL_Driver/Src/stm32f4xx_hal_sd.c ****     if(__HAL_SD_GET_FLAG(hsd, SDIO_FLAG_DATAEND) && (NumberOfBlocks > 1U))
 703              		.loc 1 603 8
 704 01c6 FB68     		ldr	r3, [r7, #12]
 705 01c8 1B68     		ldr	r3, [r3]
 706 01ca 5B6B     		ldr	r3, [r3, #52]
 707 01cc 03F48073 		and	r3, r3, #256
 708              		.loc 1 603 7
 709 01d0 002B     		cmp	r3, #0
 710 01d2 20D0     		beq	.L33
 711              		.loc 1 603 50 discriminator 1
 712 01d4 3B68     		ldr	r3, [r7]
 713 01d6 012B     		cmp	r3, #1
 714 01d8 1DD9     		bls	.L33
 604:./Libraries/STM32F4xx_HAL_Driver/Src/stm32f4xx_hal_sd.c ****     {    
ARM GAS  /tmp/ccMhfXg8.s 			page 24


 605:./Libraries/STM32F4xx_HAL_Driver/Src/stm32f4xx_hal_sd.c ****       if(hsd->SdCard.CardType != CARD_SECURED)
 715              		.loc 1 605 21
 716 01da FB68     		ldr	r3, [r7, #12]
 717 01dc 5B6C     		ldr	r3, [r3, #68]
 718              		.loc 1 605 9
 719 01de 032B     		cmp	r3, #3
 720 01e0 19D0     		beq	.L33
 606:./Libraries/STM32F4xx_HAL_Driver/Src/stm32f4xx_hal_sd.c ****       {
 607:./Libraries/STM32F4xx_HAL_Driver/Src/stm32f4xx_hal_sd.c ****         /* Send stop transmission command */
 608:./Libraries/STM32F4xx_HAL_Driver/Src/stm32f4xx_hal_sd.c ****         errorstate = SDMMC_CmdStopTransfer(hsd->Instance);
 721              		.loc 1 608 22
 722 01e2 FB68     		ldr	r3, [r7, #12]
 723 01e4 1B68     		ldr	r3, [r3]
 724 01e6 1846     		mov	r0, r3
 725 01e8 FFF7FEFF 		bl	SDMMC_CmdStopTransfer
 726 01ec 7863     		str	r0, [r7, #52]
 609:./Libraries/STM32F4xx_HAL_Driver/Src/stm32f4xx_hal_sd.c ****         if(errorstate != HAL_SD_ERROR_NONE)
 727              		.loc 1 609 11
 728 01ee 7B6B     		ldr	r3, [r7, #52]
 729 01f0 002B     		cmp	r3, #0
 730 01f2 10D0     		beq	.L33
 610:./Libraries/STM32F4xx_HAL_Driver/Src/stm32f4xx_hal_sd.c ****         {
 611:./Libraries/STM32F4xx_HAL_Driver/Src/stm32f4xx_hal_sd.c ****           /* Clear all the static flags */
 612:./Libraries/STM32F4xx_HAL_Driver/Src/stm32f4xx_hal_sd.c ****           __HAL_SD_CLEAR_FLAG(hsd, SDIO_STATIC_FLAGS);
 731              		.loc 1 612 11
 732 01f4 FB68     		ldr	r3, [r7, #12]
 733 01f6 1B68     		ldr	r3, [r3]
 734 01f8 40F2FF52 		movw	r2, #1535
 735 01fc 9A63     		str	r2, [r3, #56]
 613:./Libraries/STM32F4xx_HAL_Driver/Src/stm32f4xx_hal_sd.c ****           hsd->ErrorCode |= errorstate;
 736              		.loc 1 613 26
 737 01fe FB68     		ldr	r3, [r7, #12]
 738 0200 9A6B     		ldr	r2, [r3, #56]
 739 0202 7B6B     		ldr	r3, [r7, #52]
 740 0204 1A43     		orrs	r2, r2, r3
 741 0206 FB68     		ldr	r3, [r7, #12]
 742 0208 9A63     		str	r2, [r3, #56]
 614:./Libraries/STM32F4xx_HAL_Driver/Src/stm32f4xx_hal_sd.c ****           hsd->State = HAL_SD_STATE_READY;
 743              		.loc 1 614 22
 744 020a FB68     		ldr	r3, [r7, #12]
 745 020c 0122     		movs	r2, #1
 746 020e 83F83420 		strb	r2, [r3, #52]
 615:./Libraries/STM32F4xx_HAL_Driver/Src/stm32f4xx_hal_sd.c ****           return HAL_ERROR;
 747              		.loc 1 615 18
 748 0212 0123     		movs	r3, #1
 749 0214 87E0     		b	.L40
 750              	.L33:
 616:./Libraries/STM32F4xx_HAL_Driver/Src/stm32f4xx_hal_sd.c ****         }
 617:./Libraries/STM32F4xx_HAL_Driver/Src/stm32f4xx_hal_sd.c ****       }
 618:./Libraries/STM32F4xx_HAL_Driver/Src/stm32f4xx_hal_sd.c ****     }
 619:./Libraries/STM32F4xx_HAL_Driver/Src/stm32f4xx_hal_sd.c ****     
 620:./Libraries/STM32F4xx_HAL_Driver/Src/stm32f4xx_hal_sd.c ****     /* Get error state */
 621:./Libraries/STM32F4xx_HAL_Driver/Src/stm32f4xx_hal_sd.c ****     if(__HAL_SD_GET_FLAG(hsd, SDIO_FLAG_DTIMEOUT))
 751              		.loc 1 621 8
 752 0216 FB68     		ldr	r3, [r7, #12]
 753 0218 1B68     		ldr	r3, [r3]
 754 021a 5B6B     		ldr	r3, [r3, #52]
ARM GAS  /tmp/ccMhfXg8.s 			page 25


 755 021c 03F00803 		and	r3, r3, #8
 756              		.loc 1 621 7
 757 0220 002B     		cmp	r3, #0
 758 0222 10D0     		beq	.L34
 622:./Libraries/STM32F4xx_HAL_Driver/Src/stm32f4xx_hal_sd.c ****     {
 623:./Libraries/STM32F4xx_HAL_Driver/Src/stm32f4xx_hal_sd.c ****       /* Clear all the static flags */
 624:./Libraries/STM32F4xx_HAL_Driver/Src/stm32f4xx_hal_sd.c ****       __HAL_SD_CLEAR_FLAG(hsd, SDIO_STATIC_FLAGS);
 759              		.loc 1 624 7
 760 0224 FB68     		ldr	r3, [r7, #12]
 761 0226 1B68     		ldr	r3, [r3]
 762 0228 40F2FF52 		movw	r2, #1535
 763 022c 9A63     		str	r2, [r3, #56]
 625:./Libraries/STM32F4xx_HAL_Driver/Src/stm32f4xx_hal_sd.c ****       hsd->ErrorCode |= HAL_SD_ERROR_DATA_TIMEOUT;
 764              		.loc 1 625 22
 765 022e FB68     		ldr	r3, [r7, #12]
 766 0230 9B6B     		ldr	r3, [r3, #56]
 767 0232 43F00802 		orr	r2, r3, #8
 768 0236 FB68     		ldr	r3, [r7, #12]
 769 0238 9A63     		str	r2, [r3, #56]
 626:./Libraries/STM32F4xx_HAL_Driver/Src/stm32f4xx_hal_sd.c ****       hsd->State = HAL_SD_STATE_READY;
 770              		.loc 1 626 18
 771 023a FB68     		ldr	r3, [r7, #12]
 772 023c 0122     		movs	r2, #1
 773 023e 83F83420 		strb	r2, [r3, #52]
 627:./Libraries/STM32F4xx_HAL_Driver/Src/stm32f4xx_hal_sd.c ****       return HAL_ERROR;
 774              		.loc 1 627 14
 775 0242 0123     		movs	r3, #1
 776 0244 6FE0     		b	.L40
 777              	.L34:
 628:./Libraries/STM32F4xx_HAL_Driver/Src/stm32f4xx_hal_sd.c ****     }
 629:./Libraries/STM32F4xx_HAL_Driver/Src/stm32f4xx_hal_sd.c ****     else if(__HAL_SD_GET_FLAG(hsd, SDIO_FLAG_DCRCFAIL))
 778              		.loc 1 629 13
 779 0246 FB68     		ldr	r3, [r7, #12]
 780 0248 1B68     		ldr	r3, [r3]
 781 024a 5B6B     		ldr	r3, [r3, #52]
 782 024c 03F00203 		and	r3, r3, #2
 783              		.loc 1 629 12
 784 0250 002B     		cmp	r3, #0
 785 0252 10D0     		beq	.L35
 630:./Libraries/STM32F4xx_HAL_Driver/Src/stm32f4xx_hal_sd.c ****     {
 631:./Libraries/STM32F4xx_HAL_Driver/Src/stm32f4xx_hal_sd.c ****       /* Clear all the static flags */
 632:./Libraries/STM32F4xx_HAL_Driver/Src/stm32f4xx_hal_sd.c ****       __HAL_SD_CLEAR_FLAG(hsd, SDIO_STATIC_FLAGS);
 786              		.loc 1 632 7
 787 0254 FB68     		ldr	r3, [r7, #12]
 788 0256 1B68     		ldr	r3, [r3]
 789 0258 40F2FF52 		movw	r2, #1535
 790 025c 9A63     		str	r2, [r3, #56]
 633:./Libraries/STM32F4xx_HAL_Driver/Src/stm32f4xx_hal_sd.c ****       hsd->ErrorCode |= HAL_SD_ERROR_DATA_CRC_FAIL;
 791              		.loc 1 633 22
 792 025e FB68     		ldr	r3, [r7, #12]
 793 0260 9B6B     		ldr	r3, [r3, #56]
 794 0262 43F00202 		orr	r2, r3, #2
 795 0266 FB68     		ldr	r3, [r7, #12]
 796 0268 9A63     		str	r2, [r3, #56]
 634:./Libraries/STM32F4xx_HAL_Driver/Src/stm32f4xx_hal_sd.c ****       hsd->State = HAL_SD_STATE_READY;
 797              		.loc 1 634 18
 798 026a FB68     		ldr	r3, [r7, #12]
ARM GAS  /tmp/ccMhfXg8.s 			page 26


 799 026c 0122     		movs	r2, #1
 800 026e 83F83420 		strb	r2, [r3, #52]
 635:./Libraries/STM32F4xx_HAL_Driver/Src/stm32f4xx_hal_sd.c ****       return HAL_ERROR;
 801              		.loc 1 635 14
 802 0272 0123     		movs	r3, #1
 803 0274 57E0     		b	.L40
 804              	.L35:
 636:./Libraries/STM32F4xx_HAL_Driver/Src/stm32f4xx_hal_sd.c ****     }
 637:./Libraries/STM32F4xx_HAL_Driver/Src/stm32f4xx_hal_sd.c ****     else if(__HAL_SD_GET_FLAG(hsd, SDIO_FLAG_RXOVERR))
 805              		.loc 1 637 13
 806 0276 FB68     		ldr	r3, [r7, #12]
 807 0278 1B68     		ldr	r3, [r3]
 808 027a 5B6B     		ldr	r3, [r3, #52]
 809 027c 03F02003 		and	r3, r3, #32
 810              		.loc 1 637 12
 811 0280 002B     		cmp	r3, #0
 812 0282 37D0     		beq	.L37
 638:./Libraries/STM32F4xx_HAL_Driver/Src/stm32f4xx_hal_sd.c ****     {
 639:./Libraries/STM32F4xx_HAL_Driver/Src/stm32f4xx_hal_sd.c ****       /* Clear all the static flags */
 640:./Libraries/STM32F4xx_HAL_Driver/Src/stm32f4xx_hal_sd.c ****       __HAL_SD_CLEAR_FLAG(hsd, SDIO_STATIC_FLAGS);
 813              		.loc 1 640 7
 814 0284 FB68     		ldr	r3, [r7, #12]
 815 0286 1B68     		ldr	r3, [r3]
 816 0288 40F2FF52 		movw	r2, #1535
 817 028c 9A63     		str	r2, [r3, #56]
 641:./Libraries/STM32F4xx_HAL_Driver/Src/stm32f4xx_hal_sd.c ****       hsd->ErrorCode |= HAL_SD_ERROR_RX_OVERRUN;
 818              		.loc 1 641 22
 819 028e FB68     		ldr	r3, [r7, #12]
 820 0290 9B6B     		ldr	r3, [r3, #56]
 821 0292 43F02002 		orr	r2, r3, #32
 822 0296 FB68     		ldr	r3, [r7, #12]
 823 0298 9A63     		str	r2, [r3, #56]
 642:./Libraries/STM32F4xx_HAL_Driver/Src/stm32f4xx_hal_sd.c ****       hsd->State = HAL_SD_STATE_READY;
 824              		.loc 1 642 18
 825 029a FB68     		ldr	r3, [r7, #12]
 826 029c 0122     		movs	r2, #1
 827 029e 83F83420 		strb	r2, [r3, #52]
 643:./Libraries/STM32F4xx_HAL_Driver/Src/stm32f4xx_hal_sd.c ****       return HAL_ERROR;
 828              		.loc 1 643 14
 829 02a2 0123     		movs	r3, #1
 830 02a4 3FE0     		b	.L40
 831              	.L39:
 644:./Libraries/STM32F4xx_HAL_Driver/Src/stm32f4xx_hal_sd.c ****     }
 645:./Libraries/STM32F4xx_HAL_Driver/Src/stm32f4xx_hal_sd.c ****     
 646:./Libraries/STM32F4xx_HAL_Driver/Src/stm32f4xx_hal_sd.c ****     /* Empty FIFO if there is still any data */
 647:./Libraries/STM32F4xx_HAL_Driver/Src/stm32f4xx_hal_sd.c ****     while ((__HAL_SD_GET_FLAG(hsd, SDIO_FLAG_RXDAVL)))
 648:./Libraries/STM32F4xx_HAL_Driver/Src/stm32f4xx_hal_sd.c ****     {
 649:./Libraries/STM32F4xx_HAL_Driver/Src/stm32f4xx_hal_sd.c ****       *tempbuff = SDIO_ReadFIFO(hsd->Instance);
 832              		.loc 1 649 19
 833 02a6 FB68     		ldr	r3, [r7, #12]
 834 02a8 1B68     		ldr	r3, [r3]
 835 02aa 1846     		mov	r0, r3
 836 02ac FFF7FEFF 		bl	SDIO_ReadFIFO
 837 02b0 0246     		mov	r2, r0
 838              		.loc 1 649 17
 839 02b2 FB6A     		ldr	r3, [r7, #44]
 840 02b4 1A60     		str	r2, [r3]
ARM GAS  /tmp/ccMhfXg8.s 			page 27


 650:./Libraries/STM32F4xx_HAL_Driver/Src/stm32f4xx_hal_sd.c ****       tempbuff++;
 841              		.loc 1 650 15
 842 02b6 FB6A     		ldr	r3, [r7, #44]
 843 02b8 0433     		adds	r3, r3, #4
 844 02ba FB62     		str	r3, [r7, #44]
 651:./Libraries/STM32F4xx_HAL_Driver/Src/stm32f4xx_hal_sd.c ****       
 652:./Libraries/STM32F4xx_HAL_Driver/Src/stm32f4xx_hal_sd.c ****       if((Timeout == 0U)||((HAL_GetTick()-tickstart) >=  Timeout))
 845              		.loc 1 652 9
 846 02bc BB6C     		ldr	r3, [r7, #72]
 847 02be 002B     		cmp	r3, #0
 848 02c0 07D0     		beq	.L38
 849              		.loc 1 652 29 discriminator 1
 850 02c2 FFF7FEFF 		bl	HAL_GetTick
 851 02c6 0246     		mov	r2, r0
 852              		.loc 1 652 42 discriminator 1
 853 02c8 BB6A     		ldr	r3, [r7, #40]
 854 02ca D31A     		subs	r3, r2, r3
 855              		.loc 1 652 25 discriminator 1
 856 02cc BA6C     		ldr	r2, [r7, #72]
 857 02ce 9A42     		cmp	r2, r3
 858 02d0 10D8     		bhi	.L37
 859              	.L38:
 653:./Libraries/STM32F4xx_HAL_Driver/Src/stm32f4xx_hal_sd.c ****       {
 654:./Libraries/STM32F4xx_HAL_Driver/Src/stm32f4xx_hal_sd.c ****         /* Clear all the static flags */
 655:./Libraries/STM32F4xx_HAL_Driver/Src/stm32f4xx_hal_sd.c ****         __HAL_SD_CLEAR_FLAG(hsd, SDIO_STATIC_FLAGS);        
 860              		.loc 1 655 9
 861 02d2 FB68     		ldr	r3, [r7, #12]
 862 02d4 1B68     		ldr	r3, [r3]
 863 02d6 40F2FF52 		movw	r2, #1535
 864 02da 9A63     		str	r2, [r3, #56]
 656:./Libraries/STM32F4xx_HAL_Driver/Src/stm32f4xx_hal_sd.c ****         hsd->ErrorCode |= HAL_SD_ERROR_TIMEOUT;
 865              		.loc 1 656 24
 866 02dc FB68     		ldr	r3, [r7, #12]
 867 02de 9B6B     		ldr	r3, [r3, #56]
 868 02e0 43F00042 		orr	r2, r3, #-2147483648
 869 02e4 FB68     		ldr	r3, [r7, #12]
 870 02e6 9A63     		str	r2, [r3, #56]
 657:./Libraries/STM32F4xx_HAL_Driver/Src/stm32f4xx_hal_sd.c ****         hsd->State= HAL_SD_STATE_READY;
 871              		.loc 1 657 19
 872 02e8 FB68     		ldr	r3, [r7, #12]
 873 02ea 0122     		movs	r2, #1
 874 02ec 83F83420 		strb	r2, [r3, #52]
 658:./Libraries/STM32F4xx_HAL_Driver/Src/stm32f4xx_hal_sd.c ****         return HAL_ERROR;
 875              		.loc 1 658 16
 876 02f0 0123     		movs	r3, #1
 877 02f2 18E0     		b	.L40
 878              	.L37:
 647:./Libraries/STM32F4xx_HAL_Driver/Src/stm32f4xx_hal_sd.c ****     {
 879              		.loc 1 647 13
 880 02f4 FB68     		ldr	r3, [r7, #12]
 881 02f6 1B68     		ldr	r3, [r3]
 882 02f8 5B6B     		ldr	r3, [r3, #52]
 883 02fa 03F40013 		and	r3, r3, #2097152
 647:./Libraries/STM32F4xx_HAL_Driver/Src/stm32f4xx_hal_sd.c ****     {
 884              		.loc 1 647 11
 885 02fe 002B     		cmp	r3, #0
 886 0300 D1D1     		bne	.L39
ARM GAS  /tmp/ccMhfXg8.s 			page 28


 659:./Libraries/STM32F4xx_HAL_Driver/Src/stm32f4xx_hal_sd.c ****       }
 660:./Libraries/STM32F4xx_HAL_Driver/Src/stm32f4xx_hal_sd.c ****     }
 661:./Libraries/STM32F4xx_HAL_Driver/Src/stm32f4xx_hal_sd.c ****     
 662:./Libraries/STM32F4xx_HAL_Driver/Src/stm32f4xx_hal_sd.c ****     /* Clear all the static flags */
 663:./Libraries/STM32F4xx_HAL_Driver/Src/stm32f4xx_hal_sd.c ****     __HAL_SD_CLEAR_FLAG(hsd, SDIO_STATIC_FLAGS);
 887              		.loc 1 663 5
 888 0302 FB68     		ldr	r3, [r7, #12]
 889 0304 1B68     		ldr	r3, [r3]
 890 0306 40F2FF52 		movw	r2, #1535
 891 030a 9A63     		str	r2, [r3, #56]
 664:./Libraries/STM32F4xx_HAL_Driver/Src/stm32f4xx_hal_sd.c ****     
 665:./Libraries/STM32F4xx_HAL_Driver/Src/stm32f4xx_hal_sd.c ****     hsd->State = HAL_SD_STATE_READY;
 892              		.loc 1 665 16
 893 030c FB68     		ldr	r3, [r7, #12]
 894 030e 0122     		movs	r2, #1
 895 0310 83F83420 		strb	r2, [r3, #52]
 666:./Libraries/STM32F4xx_HAL_Driver/Src/stm32f4xx_hal_sd.c ****     
 667:./Libraries/STM32F4xx_HAL_Driver/Src/stm32f4xx_hal_sd.c ****     return HAL_OK;
 896              		.loc 1 667 12
 897 0314 0023     		movs	r3, #0
 898 0316 06E0     		b	.L40
 899              	.L20:
 668:./Libraries/STM32F4xx_HAL_Driver/Src/stm32f4xx_hal_sd.c ****   }
 669:./Libraries/STM32F4xx_HAL_Driver/Src/stm32f4xx_hal_sd.c ****   else
 670:./Libraries/STM32F4xx_HAL_Driver/Src/stm32f4xx_hal_sd.c ****   {
 671:./Libraries/STM32F4xx_HAL_Driver/Src/stm32f4xx_hal_sd.c ****     hsd->ErrorCode |= HAL_SD_ERROR_BUSY;
 900              		.loc 1 671 20
 901 0318 FB68     		ldr	r3, [r7, #12]
 902 031a 9B6B     		ldr	r3, [r3, #56]
 903 031c 43F00052 		orr	r2, r3, #536870912
 904 0320 FB68     		ldr	r3, [r7, #12]
 905 0322 9A63     		str	r2, [r3, #56]
 672:./Libraries/STM32F4xx_HAL_Driver/Src/stm32f4xx_hal_sd.c ****     return HAL_ERROR;
 906              		.loc 1 672 12
 907 0324 0123     		movs	r3, #1
 908              	.L40:
 673:./Libraries/STM32F4xx_HAL_Driver/Src/stm32f4xx_hal_sd.c ****   }
 674:./Libraries/STM32F4xx_HAL_Driver/Src/stm32f4xx_hal_sd.c **** }
 909              		.loc 1 674 1 discriminator 1
 910 0326 1846     		mov	r0, r3
 911 0328 3C37     		adds	r7, r7, #60
 912              	.LCFI30:
 913              		.cfi_def_cfa_offset 12
 914 032a BD46     		mov	sp, r7
 915              	.LCFI31:
 916              		.cfi_def_cfa_register 13
 917              		@ sp needed
 918 032c 90BD     		pop	{r4, r7, pc}
 919              		.cfi_endproc
 920              	.LFE131:
 922              		.section	.text.HAL_SD_WriteBlocks,"ax",%progbits
 923              		.align	1
 924              		.global	HAL_SD_WriteBlocks
 925              		.syntax unified
 926              		.thumb
 927              		.thumb_func
 928              		.fpu fpv4-sp-d16
ARM GAS  /tmp/ccMhfXg8.s 			page 29


 930              	HAL_SD_WriteBlocks:
 931              	.LFB132:
 675:./Libraries/STM32F4xx_HAL_Driver/Src/stm32f4xx_hal_sd.c **** 
 676:./Libraries/STM32F4xx_HAL_Driver/Src/stm32f4xx_hal_sd.c **** /**
 677:./Libraries/STM32F4xx_HAL_Driver/Src/stm32f4xx_hal_sd.c ****   * @brief  Allows to write block(s) to a specified address in a card. The Data
 678:./Libraries/STM32F4xx_HAL_Driver/Src/stm32f4xx_hal_sd.c ****   *         transfer is managed by polling mode.
 679:./Libraries/STM32F4xx_HAL_Driver/Src/stm32f4xx_hal_sd.c ****   * @note   This API should be followed by a check on the card state through
 680:./Libraries/STM32F4xx_HAL_Driver/Src/stm32f4xx_hal_sd.c ****   *         HAL_SD_GetCardState().
 681:./Libraries/STM32F4xx_HAL_Driver/Src/stm32f4xx_hal_sd.c ****   * @param  hsd Pointer to SD handle
 682:./Libraries/STM32F4xx_HAL_Driver/Src/stm32f4xx_hal_sd.c ****   * @param  pData pointer to the buffer that will contain the data to transmit
 683:./Libraries/STM32F4xx_HAL_Driver/Src/stm32f4xx_hal_sd.c ****   * @param  BlockAdd Block Address where data will be written  
 684:./Libraries/STM32F4xx_HAL_Driver/Src/stm32f4xx_hal_sd.c ****   * @param  NumberOfBlocks Number of SD blocks to write
 685:./Libraries/STM32F4xx_HAL_Driver/Src/stm32f4xx_hal_sd.c ****   * @param  Timeout Specify timeout value
 686:./Libraries/STM32F4xx_HAL_Driver/Src/stm32f4xx_hal_sd.c ****   * @retval HAL status
 687:./Libraries/STM32F4xx_HAL_Driver/Src/stm32f4xx_hal_sd.c ****   */
 688:./Libraries/STM32F4xx_HAL_Driver/Src/stm32f4xx_hal_sd.c **** HAL_StatusTypeDef HAL_SD_WriteBlocks(SD_HandleTypeDef *hsd, uint8_t *pData, uint32_t BlockAdd, uint
 689:./Libraries/STM32F4xx_HAL_Driver/Src/stm32f4xx_hal_sd.c **** {
 932              		.loc 1 689 1
 933              		.cfi_startproc
 934              		@ args = 4, pretend = 0, frame = 56
 935              		@ frame_needed = 1, uses_anonymous_args = 0
 936 0000 80B5     		push	{r7, lr}
 937              	.LCFI32:
 938              		.cfi_def_cfa_offset 8
 939              		.cfi_offset 7, -8
 940              		.cfi_offset 14, -4
 941 0002 8EB0     		sub	sp, sp, #56
 942              	.LCFI33:
 943              		.cfi_def_cfa_offset 64
 944 0004 00AF     		add	r7, sp, #0
 945              	.LCFI34:
 946              		.cfi_def_cfa_register 7
 947 0006 F860     		str	r0, [r7, #12]
 948 0008 B960     		str	r1, [r7, #8]
 949 000a 7A60     		str	r2, [r7, #4]
 950 000c 3B60     		str	r3, [r7]
 690:./Libraries/STM32F4xx_HAL_Driver/Src/stm32f4xx_hal_sd.c ****   SDIO_DataInitTypeDef config;
 691:./Libraries/STM32F4xx_HAL_Driver/Src/stm32f4xx_hal_sd.c ****   uint32_t errorstate = HAL_SD_ERROR_NONE;
 951              		.loc 1 691 12
 952 000e 0023     		movs	r3, #0
 953 0010 7B63     		str	r3, [r7, #52]
 692:./Libraries/STM32F4xx_HAL_Driver/Src/stm32f4xx_hal_sd.c ****   uint32_t tickstart = HAL_GetTick();
 954              		.loc 1 692 24
 955 0012 FFF7FEFF 		bl	HAL_GetTick
 956 0016 B862     		str	r0, [r7, #40]
 693:./Libraries/STM32F4xx_HAL_Driver/Src/stm32f4xx_hal_sd.c ****   uint32_t count = 0U;
 957              		.loc 1 693 12
 958 0018 0023     		movs	r3, #0
 959 001a 3B63     		str	r3, [r7, #48]
 694:./Libraries/STM32F4xx_HAL_Driver/Src/stm32f4xx_hal_sd.c ****   uint32_t *tempbuff = (uint32_t *)pData;
 960              		.loc 1 694 13
 961 001c BB68     		ldr	r3, [r7, #8]
 962 001e FB62     		str	r3, [r7, #44]
 695:./Libraries/STM32F4xx_HAL_Driver/Src/stm32f4xx_hal_sd.c ****   
 696:./Libraries/STM32F4xx_HAL_Driver/Src/stm32f4xx_hal_sd.c ****   if(NULL == pData)
 963              		.loc 1 696 5
 964 0020 BB68     		ldr	r3, [r7, #8]
ARM GAS  /tmp/ccMhfXg8.s 			page 30


 965 0022 002B     		cmp	r3, #0
 966 0024 07D1     		bne	.L42
 697:./Libraries/STM32F4xx_HAL_Driver/Src/stm32f4xx_hal_sd.c ****   {
 698:./Libraries/STM32F4xx_HAL_Driver/Src/stm32f4xx_hal_sd.c ****     hsd->ErrorCode |= HAL_SD_ERROR_PARAM;
 967              		.loc 1 698 20
 968 0026 FB68     		ldr	r3, [r7, #12]
 969 0028 9B6B     		ldr	r3, [r3, #56]
 970 002a 43F00062 		orr	r2, r3, #134217728
 971 002e FB68     		ldr	r3, [r7, #12]
 972 0030 9A63     		str	r2, [r3, #56]
 699:./Libraries/STM32F4xx_HAL_Driver/Src/stm32f4xx_hal_sd.c ****     return HAL_ERROR;
 973              		.loc 1 699 12
 974 0032 0123     		movs	r3, #1
 975 0034 48E1     		b	.L61
 976              	.L42:
 700:./Libraries/STM32F4xx_HAL_Driver/Src/stm32f4xx_hal_sd.c ****   }
 701:./Libraries/STM32F4xx_HAL_Driver/Src/stm32f4xx_hal_sd.c **** 
 702:./Libraries/STM32F4xx_HAL_Driver/Src/stm32f4xx_hal_sd.c ****   if(hsd->State == HAL_SD_STATE_READY)
 977              		.loc 1 702 9
 978 0036 FB68     		ldr	r3, [r7, #12]
 979 0038 93F83430 		ldrb	r3, [r3, #52]
 980 003c DBB2     		uxtb	r3, r3
 981              		.loc 1 702 5
 982 003e 012B     		cmp	r3, #1
 983 0040 40F03B81 		bne	.L44
 703:./Libraries/STM32F4xx_HAL_Driver/Src/stm32f4xx_hal_sd.c ****   {
 704:./Libraries/STM32F4xx_HAL_Driver/Src/stm32f4xx_hal_sd.c ****     hsd->ErrorCode = HAL_DMA_ERROR_NONE;
 984              		.loc 1 704 20
 985 0044 FB68     		ldr	r3, [r7, #12]
 986 0046 0022     		movs	r2, #0
 987 0048 9A63     		str	r2, [r3, #56]
 705:./Libraries/STM32F4xx_HAL_Driver/Src/stm32f4xx_hal_sd.c ****     
 706:./Libraries/STM32F4xx_HAL_Driver/Src/stm32f4xx_hal_sd.c ****     if((BlockAdd + NumberOfBlocks) > (hsd->SdCard.LogBlockNbr))
 988              		.loc 1 706 18
 989 004a 7A68     		ldr	r2, [r7, #4]
 990 004c 3B68     		ldr	r3, [r7]
 991 004e 1A44     		add	r2, r2, r3
 992              		.loc 1 706 50
 993 0050 FB68     		ldr	r3, [r7, #12]
 994 0052 DB6D     		ldr	r3, [r3, #92]
 995              		.loc 1 706 7
 996 0054 9A42     		cmp	r2, r3
 997 0056 07D9     		bls	.L45
 707:./Libraries/STM32F4xx_HAL_Driver/Src/stm32f4xx_hal_sd.c ****     {
 708:./Libraries/STM32F4xx_HAL_Driver/Src/stm32f4xx_hal_sd.c ****       hsd->ErrorCode |= HAL_SD_ERROR_ADDR_OUT_OF_RANGE;
 998              		.loc 1 708 22
 999 0058 FB68     		ldr	r3, [r7, #12]
 1000 005a 9B6B     		ldr	r3, [r3, #56]
 1001 005c 43F00072 		orr	r2, r3, #33554432
 1002 0060 FB68     		ldr	r3, [r7, #12]
 1003 0062 9A63     		str	r2, [r3, #56]
 709:./Libraries/STM32F4xx_HAL_Driver/Src/stm32f4xx_hal_sd.c ****       return HAL_ERROR;
 1004              		.loc 1 709 14
 1005 0064 0123     		movs	r3, #1
 1006 0066 2FE1     		b	.L61
 1007              	.L45:
 710:./Libraries/STM32F4xx_HAL_Driver/Src/stm32f4xx_hal_sd.c ****     }
ARM GAS  /tmp/ccMhfXg8.s 			page 31


 711:./Libraries/STM32F4xx_HAL_Driver/Src/stm32f4xx_hal_sd.c ****     
 712:./Libraries/STM32F4xx_HAL_Driver/Src/stm32f4xx_hal_sd.c ****     hsd->State = HAL_SD_STATE_BUSY;
 1008              		.loc 1 712 16
 1009 0068 FB68     		ldr	r3, [r7, #12]
 1010 006a 0322     		movs	r2, #3
 1011 006c 83F83420 		strb	r2, [r3, #52]
 713:./Libraries/STM32F4xx_HAL_Driver/Src/stm32f4xx_hal_sd.c ****     
 714:./Libraries/STM32F4xx_HAL_Driver/Src/stm32f4xx_hal_sd.c ****     /* Initialize data control register */
 715:./Libraries/STM32F4xx_HAL_Driver/Src/stm32f4xx_hal_sd.c ****     hsd->Instance->DCTRL = 0U;
 1012              		.loc 1 715 8
 1013 0070 FB68     		ldr	r3, [r7, #12]
 1014 0072 1B68     		ldr	r3, [r3]
 1015              		.loc 1 715 26
 1016 0074 0022     		movs	r2, #0
 1017 0076 DA62     		str	r2, [r3, #44]
 716:./Libraries/STM32F4xx_HAL_Driver/Src/stm32f4xx_hal_sd.c ****      
 717:./Libraries/STM32F4xx_HAL_Driver/Src/stm32f4xx_hal_sd.c ****     if(hsd->SdCard.CardType != CARD_SDHC_SDXC)
 1018              		.loc 1 717 19
 1019 0078 FB68     		ldr	r3, [r7, #12]
 1020 007a 5B6C     		ldr	r3, [r3, #68]
 1021              		.loc 1 717 7
 1022 007c 012B     		cmp	r3, #1
 1023 007e 02D0     		beq	.L46
 718:./Libraries/STM32F4xx_HAL_Driver/Src/stm32f4xx_hal_sd.c ****     {
 719:./Libraries/STM32F4xx_HAL_Driver/Src/stm32f4xx_hal_sd.c ****       BlockAdd *= 512U;
 1024              		.loc 1 719 16
 1025 0080 7B68     		ldr	r3, [r7, #4]
 1026 0082 5B02     		lsls	r3, r3, #9
 1027 0084 7B60     		str	r3, [r7, #4]
 1028              	.L46:
 720:./Libraries/STM32F4xx_HAL_Driver/Src/stm32f4xx_hal_sd.c ****     }
 721:./Libraries/STM32F4xx_HAL_Driver/Src/stm32f4xx_hal_sd.c ****     
 722:./Libraries/STM32F4xx_HAL_Driver/Src/stm32f4xx_hal_sd.c ****     /* Set Block Size for Card */ 
 723:./Libraries/STM32F4xx_HAL_Driver/Src/stm32f4xx_hal_sd.c ****     errorstate = SDMMC_CmdBlockLength(hsd->Instance, BLOCKSIZE);
 1029              		.loc 1 723 18
 1030 0086 FB68     		ldr	r3, [r7, #12]
 1031 0088 1B68     		ldr	r3, [r3]
 1032 008a 4FF40071 		mov	r1, #512
 1033 008e 1846     		mov	r0, r3
 1034 0090 FFF7FEFF 		bl	SDMMC_CmdBlockLength
 1035 0094 7863     		str	r0, [r7, #52]
 724:./Libraries/STM32F4xx_HAL_Driver/Src/stm32f4xx_hal_sd.c ****     if(errorstate != HAL_SD_ERROR_NONE)
 1036              		.loc 1 724 7
 1037 0096 7B6B     		ldr	r3, [r7, #52]
 1038 0098 002B     		cmp	r3, #0
 1039 009a 10D0     		beq	.L47
 725:./Libraries/STM32F4xx_HAL_Driver/Src/stm32f4xx_hal_sd.c ****     {
 726:./Libraries/STM32F4xx_HAL_Driver/Src/stm32f4xx_hal_sd.c ****       /* Clear all the static flags */
 727:./Libraries/STM32F4xx_HAL_Driver/Src/stm32f4xx_hal_sd.c ****       __HAL_SD_CLEAR_FLAG(hsd, SDIO_STATIC_FLAGS);  
 1040              		.loc 1 727 7
 1041 009c FB68     		ldr	r3, [r7, #12]
 1042 009e 1B68     		ldr	r3, [r3]
 1043 00a0 40F2FF52 		movw	r2, #1535
 1044 00a4 9A63     		str	r2, [r3, #56]
 728:./Libraries/STM32F4xx_HAL_Driver/Src/stm32f4xx_hal_sd.c ****       hsd->ErrorCode |= errorstate;
 1045              		.loc 1 728 22
 1046 00a6 FB68     		ldr	r3, [r7, #12]
ARM GAS  /tmp/ccMhfXg8.s 			page 32


 1047 00a8 9A6B     		ldr	r2, [r3, #56]
 1048 00aa 7B6B     		ldr	r3, [r7, #52]
 1049 00ac 1A43     		orrs	r2, r2, r3
 1050 00ae FB68     		ldr	r3, [r7, #12]
 1051 00b0 9A63     		str	r2, [r3, #56]
 729:./Libraries/STM32F4xx_HAL_Driver/Src/stm32f4xx_hal_sd.c ****       hsd->State = HAL_SD_STATE_READY;
 1052              		.loc 1 729 18
 1053 00b2 FB68     		ldr	r3, [r7, #12]
 1054 00b4 0122     		movs	r2, #1
 1055 00b6 83F83420 		strb	r2, [r3, #52]
 730:./Libraries/STM32F4xx_HAL_Driver/Src/stm32f4xx_hal_sd.c ****       return HAL_ERROR;
 1056              		.loc 1 730 14
 1057 00ba 0123     		movs	r3, #1
 1058 00bc 04E1     		b	.L61
 1059              	.L47:
 731:./Libraries/STM32F4xx_HAL_Driver/Src/stm32f4xx_hal_sd.c ****     }
 732:./Libraries/STM32F4xx_HAL_Driver/Src/stm32f4xx_hal_sd.c ****     
 733:./Libraries/STM32F4xx_HAL_Driver/Src/stm32f4xx_hal_sd.c ****     /* Write Blocks in Polling mode */
 734:./Libraries/STM32F4xx_HAL_Driver/Src/stm32f4xx_hal_sd.c ****     if(NumberOfBlocks > 1U)
 1060              		.loc 1 734 7
 1061 00be 3B68     		ldr	r3, [r7]
 1062 00c0 012B     		cmp	r3, #1
 1063 00c2 0AD9     		bls	.L48
 735:./Libraries/STM32F4xx_HAL_Driver/Src/stm32f4xx_hal_sd.c ****     {
 736:./Libraries/STM32F4xx_HAL_Driver/Src/stm32f4xx_hal_sd.c ****       hsd->Context = SD_CONTEXT_WRITE_MULTIPLE_BLOCK;
 1064              		.loc 1 736 20
 1065 00c4 FB68     		ldr	r3, [r7, #12]
 1066 00c6 2022     		movs	r2, #32
 1067 00c8 1A63     		str	r2, [r3, #48]
 737:./Libraries/STM32F4xx_HAL_Driver/Src/stm32f4xx_hal_sd.c ****       
 738:./Libraries/STM32F4xx_HAL_Driver/Src/stm32f4xx_hal_sd.c ****       /* Write Multi Block command */ 
 739:./Libraries/STM32F4xx_HAL_Driver/Src/stm32f4xx_hal_sd.c ****       errorstate = SDMMC_CmdWriteMultiBlock(hsd->Instance, BlockAdd);
 1068              		.loc 1 739 20
 1069 00ca FB68     		ldr	r3, [r7, #12]
 1070 00cc 1B68     		ldr	r3, [r3]
 1071 00ce 7968     		ldr	r1, [r7, #4]
 1072 00d0 1846     		mov	r0, r3
 1073 00d2 FFF7FEFF 		bl	SDMMC_CmdWriteMultiBlock
 1074 00d6 7863     		str	r0, [r7, #52]
 1075 00d8 09E0     		b	.L49
 1076              	.L48:
 740:./Libraries/STM32F4xx_HAL_Driver/Src/stm32f4xx_hal_sd.c ****     }
 741:./Libraries/STM32F4xx_HAL_Driver/Src/stm32f4xx_hal_sd.c ****     else
 742:./Libraries/STM32F4xx_HAL_Driver/Src/stm32f4xx_hal_sd.c ****     {
 743:./Libraries/STM32F4xx_HAL_Driver/Src/stm32f4xx_hal_sd.c ****       hsd->Context = SD_CONTEXT_WRITE_SINGLE_BLOCK;
 1077              		.loc 1 743 20
 1078 00da FB68     		ldr	r3, [r7, #12]
 1079 00dc 1022     		movs	r2, #16
 1080 00de 1A63     		str	r2, [r3, #48]
 744:./Libraries/STM32F4xx_HAL_Driver/Src/stm32f4xx_hal_sd.c ****       
 745:./Libraries/STM32F4xx_HAL_Driver/Src/stm32f4xx_hal_sd.c ****       /* Write Single Block command */
 746:./Libraries/STM32F4xx_HAL_Driver/Src/stm32f4xx_hal_sd.c ****       errorstate = SDMMC_CmdWriteSingleBlock(hsd->Instance, BlockAdd);
 1081              		.loc 1 746 20
 1082 00e0 FB68     		ldr	r3, [r7, #12]
 1083 00e2 1B68     		ldr	r3, [r3]
 1084 00e4 7968     		ldr	r1, [r7, #4]
 1085 00e6 1846     		mov	r0, r3
ARM GAS  /tmp/ccMhfXg8.s 			page 33


 1086 00e8 FFF7FEFF 		bl	SDMMC_CmdWriteSingleBlock
 1087 00ec 7863     		str	r0, [r7, #52]
 1088              	.L49:
 747:./Libraries/STM32F4xx_HAL_Driver/Src/stm32f4xx_hal_sd.c ****     }
 748:./Libraries/STM32F4xx_HAL_Driver/Src/stm32f4xx_hal_sd.c ****     if(errorstate != HAL_SD_ERROR_NONE)
 1089              		.loc 1 748 7
 1090 00ee 7B6B     		ldr	r3, [r7, #52]
 1091 00f0 002B     		cmp	r3, #0
 1092 00f2 10D0     		beq	.L50
 749:./Libraries/STM32F4xx_HAL_Driver/Src/stm32f4xx_hal_sd.c ****     {
 750:./Libraries/STM32F4xx_HAL_Driver/Src/stm32f4xx_hal_sd.c ****       /* Clear all the static flags */
 751:./Libraries/STM32F4xx_HAL_Driver/Src/stm32f4xx_hal_sd.c ****       __HAL_SD_CLEAR_FLAG(hsd, SDIO_STATIC_FLAGS);  
 1093              		.loc 1 751 7
 1094 00f4 FB68     		ldr	r3, [r7, #12]
 1095 00f6 1B68     		ldr	r3, [r3]
 1096 00f8 40F2FF52 		movw	r2, #1535
 1097 00fc 9A63     		str	r2, [r3, #56]
 752:./Libraries/STM32F4xx_HAL_Driver/Src/stm32f4xx_hal_sd.c ****       hsd->ErrorCode |= errorstate;
 1098              		.loc 1 752 22
 1099 00fe FB68     		ldr	r3, [r7, #12]
 1100 0100 9A6B     		ldr	r2, [r3, #56]
 1101 0102 7B6B     		ldr	r3, [r7, #52]
 1102 0104 1A43     		orrs	r2, r2, r3
 1103 0106 FB68     		ldr	r3, [r7, #12]
 1104 0108 9A63     		str	r2, [r3, #56]
 753:./Libraries/STM32F4xx_HAL_Driver/Src/stm32f4xx_hal_sd.c ****       hsd->State = HAL_SD_STATE_READY;
 1105              		.loc 1 753 18
 1106 010a FB68     		ldr	r3, [r7, #12]
 1107 010c 0122     		movs	r2, #1
 1108 010e 83F83420 		strb	r2, [r3, #52]
 754:./Libraries/STM32F4xx_HAL_Driver/Src/stm32f4xx_hal_sd.c ****       return HAL_ERROR;
 1109              		.loc 1 754 14
 1110 0112 0123     		movs	r3, #1
 1111 0114 D8E0     		b	.L61
 1112              	.L50:
 755:./Libraries/STM32F4xx_HAL_Driver/Src/stm32f4xx_hal_sd.c ****     }
 756:./Libraries/STM32F4xx_HAL_Driver/Src/stm32f4xx_hal_sd.c ****     
 757:./Libraries/STM32F4xx_HAL_Driver/Src/stm32f4xx_hal_sd.c ****     /* Configure the SD DPSM (Data Path State Machine) */ 
 758:./Libraries/STM32F4xx_HAL_Driver/Src/stm32f4xx_hal_sd.c ****     config.DataTimeOut   = SDMMC_DATATIMEOUT;
 1113              		.loc 1 758 26
 1114 0116 4FF0FF33 		mov	r3, #-1
 1115 011a 3B61     		str	r3, [r7, #16]
 759:./Libraries/STM32F4xx_HAL_Driver/Src/stm32f4xx_hal_sd.c ****     config.DataLength    = NumberOfBlocks * BLOCKSIZE;
 1116              		.loc 1 759 43
 1117 011c 3B68     		ldr	r3, [r7]
 1118 011e 5B02     		lsls	r3, r3, #9
 1119              		.loc 1 759 26
 1120 0120 7B61     		str	r3, [r7, #20]
 760:./Libraries/STM32F4xx_HAL_Driver/Src/stm32f4xx_hal_sd.c ****     config.DataBlockSize = SDIO_DATABLOCK_SIZE_512B;
 1121              		.loc 1 760 26
 1122 0122 9023     		movs	r3, #144
 1123 0124 BB61     		str	r3, [r7, #24]
 761:./Libraries/STM32F4xx_HAL_Driver/Src/stm32f4xx_hal_sd.c ****     config.TransferDir   = SDIO_TRANSFER_DIR_TO_CARD;
 1124              		.loc 1 761 26
 1125 0126 0023     		movs	r3, #0
 1126 0128 FB61     		str	r3, [r7, #28]
 762:./Libraries/STM32F4xx_HAL_Driver/Src/stm32f4xx_hal_sd.c ****     config.TransferMode  = SDIO_TRANSFER_MODE_BLOCK;
ARM GAS  /tmp/ccMhfXg8.s 			page 34


 1127              		.loc 1 762 26
 1128 012a 0023     		movs	r3, #0
 1129 012c 3B62     		str	r3, [r7, #32]
 763:./Libraries/STM32F4xx_HAL_Driver/Src/stm32f4xx_hal_sd.c ****     config.DPSM          = SDIO_DPSM_ENABLE;
 1130              		.loc 1 763 26
 1131 012e 0123     		movs	r3, #1
 1132 0130 7B62     		str	r3, [r7, #36]
 764:./Libraries/STM32F4xx_HAL_Driver/Src/stm32f4xx_hal_sd.c ****     SDIO_ConfigData(hsd->Instance, &config);
 1133              		.loc 1 764 5
 1134 0132 FB68     		ldr	r3, [r7, #12]
 1135 0134 1B68     		ldr	r3, [r3]
 1136 0136 07F11002 		add	r2, r7, #16
 1137 013a 1146     		mov	r1, r2
 1138 013c 1846     		mov	r0, r3
 1139 013e FFF7FEFF 		bl	SDIO_ConfigData
 765:./Libraries/STM32F4xx_HAL_Driver/Src/stm32f4xx_hal_sd.c ****     
 766:./Libraries/STM32F4xx_HAL_Driver/Src/stm32f4xx_hal_sd.c ****     /* Write block(s) in polling mode */
 767:./Libraries/STM32F4xx_HAL_Driver/Src/stm32f4xx_hal_sd.c **** #ifdef SDIO_STA_STBITERR
 768:./Libraries/STM32F4xx_HAL_Driver/Src/stm32f4xx_hal_sd.c ****     while(!__HAL_SD_GET_FLAG(hsd, SDIO_FLAG_TXUNDERR | SDIO_FLAG_DCRCFAIL | SDIO_FLAG_DTIMEOUT | SD
 1140              		.loc 1 768 10
 1141 0142 37E0     		b	.L51
 1142              	.L56:
 769:./Libraries/STM32F4xx_HAL_Driver/Src/stm32f4xx_hal_sd.c **** #else /* SDIO_STA_STBITERR not defined */
 770:./Libraries/STM32F4xx_HAL_Driver/Src/stm32f4xx_hal_sd.c ****     while(!__HAL_SD_GET_FLAG(hsd, SDIO_FLAG_TXUNDERR | SDIO_FLAG_DCRCFAIL | SDIO_FLAG_DTIMEOUT | SD
 771:./Libraries/STM32F4xx_HAL_Driver/Src/stm32f4xx_hal_sd.c **** #endif /* SDIO_STA_STBITERR */
 772:./Libraries/STM32F4xx_HAL_Driver/Src/stm32f4xx_hal_sd.c ****     {
 773:./Libraries/STM32F4xx_HAL_Driver/Src/stm32f4xx_hal_sd.c ****       if(__HAL_SD_GET_FLAG(hsd, SDIO_FLAG_TXFIFOHE))
 1143              		.loc 1 773 10
 1144 0144 FB68     		ldr	r3, [r7, #12]
 1145 0146 1B68     		ldr	r3, [r3]
 1146 0148 5B6B     		ldr	r3, [r3, #52]
 1147 014a 03F48043 		and	r3, r3, #16384
 1148              		.loc 1 773 9
 1149 014e 002B     		cmp	r3, #0
 1150 0150 14D0     		beq	.L52
 774:./Libraries/STM32F4xx_HAL_Driver/Src/stm32f4xx_hal_sd.c ****       {
 775:./Libraries/STM32F4xx_HAL_Driver/Src/stm32f4xx_hal_sd.c ****         /* Write data to SDIO Tx FIFO */
 776:./Libraries/STM32F4xx_HAL_Driver/Src/stm32f4xx_hal_sd.c ****         for(count = 0U; count < 8U; count++)
 1151              		.loc 1 776 19
 1152 0152 0023     		movs	r3, #0
 1153 0154 3B63     		str	r3, [r7, #48]
 1154              		.loc 1 776 9
 1155 0156 0BE0     		b	.L53
 1156              	.L54:
 777:./Libraries/STM32F4xx_HAL_Driver/Src/stm32f4xx_hal_sd.c ****         {
 778:./Libraries/STM32F4xx_HAL_Driver/Src/stm32f4xx_hal_sd.c ****           SDIO_WriteFIFO(hsd->Instance, (tempbuff + count));
 1157              		.loc 1 778 11 discriminator 3
 1158 0158 FB68     		ldr	r3, [r7, #12]
 1159 015a 1868     		ldr	r0, [r3]
 1160              		.loc 1 778 51 discriminator 3
 1161 015c 3B6B     		ldr	r3, [r7, #48]
 1162 015e 9B00     		lsls	r3, r3, #2
 1163              		.loc 1 778 11 discriminator 3
 1164 0160 FA6A     		ldr	r2, [r7, #44]
 1165 0162 1344     		add	r3, r3, r2
 1166 0164 1946     		mov	r1, r3
 1167 0166 FFF7FEFF 		bl	SDIO_WriteFIFO
ARM GAS  /tmp/ccMhfXg8.s 			page 35


 776:./Libraries/STM32F4xx_HAL_Driver/Src/stm32f4xx_hal_sd.c ****         {
 1168              		.loc 1 776 42 discriminator 3
 1169 016a 3B6B     		ldr	r3, [r7, #48]
 1170 016c 0133     		adds	r3, r3, #1
 1171 016e 3B63     		str	r3, [r7, #48]
 1172              	.L53:
 776:./Libraries/STM32F4xx_HAL_Driver/Src/stm32f4xx_hal_sd.c ****         {
 1173              		.loc 1 776 9 discriminator 1
 1174 0170 3B6B     		ldr	r3, [r7, #48]
 1175 0172 072B     		cmp	r3, #7
 1176 0174 F0D9     		bls	.L54
 779:./Libraries/STM32F4xx_HAL_Driver/Src/stm32f4xx_hal_sd.c ****         }
 780:./Libraries/STM32F4xx_HAL_Driver/Src/stm32f4xx_hal_sd.c ****         tempbuff += 8U;
 1177              		.loc 1 780 18
 1178 0176 FB6A     		ldr	r3, [r7, #44]
 1179 0178 2033     		adds	r3, r3, #32
 1180 017a FB62     		str	r3, [r7, #44]
 1181              	.L52:
 781:./Libraries/STM32F4xx_HAL_Driver/Src/stm32f4xx_hal_sd.c ****       }
 782:./Libraries/STM32F4xx_HAL_Driver/Src/stm32f4xx_hal_sd.c ****       
 783:./Libraries/STM32F4xx_HAL_Driver/Src/stm32f4xx_hal_sd.c ****       if((Timeout == 0U)||((HAL_GetTick()-tickstart) >=  Timeout))
 1182              		.loc 1 783 9
 1183 017c 3B6C     		ldr	r3, [r7, #64]
 1184 017e 002B     		cmp	r3, #0
 1185 0180 07D0     		beq	.L55
 1186              		.loc 1 783 29 discriminator 1
 1187 0182 FFF7FEFF 		bl	HAL_GetTick
 1188 0186 0246     		mov	r2, r0
 1189              		.loc 1 783 42 discriminator 1
 1190 0188 BB6A     		ldr	r3, [r7, #40]
 1191 018a D31A     		subs	r3, r2, r3
 1192              		.loc 1 783 25 discriminator 1
 1193 018c 3A6C     		ldr	r2, [r7, #64]
 1194 018e 9A42     		cmp	r2, r3
 1195 0190 10D8     		bhi	.L51
 1196              	.L55:
 784:./Libraries/STM32F4xx_HAL_Driver/Src/stm32f4xx_hal_sd.c ****       {
 785:./Libraries/STM32F4xx_HAL_Driver/Src/stm32f4xx_hal_sd.c ****         /* Clear all the static flags */
 786:./Libraries/STM32F4xx_HAL_Driver/Src/stm32f4xx_hal_sd.c ****         __HAL_SD_CLEAR_FLAG(hsd, SDIO_STATIC_FLAGS);  
 1197              		.loc 1 786 9
 1198 0192 FB68     		ldr	r3, [r7, #12]
 1199 0194 1B68     		ldr	r3, [r3]
 1200 0196 40F2FF52 		movw	r2, #1535
 1201 019a 9A63     		str	r2, [r3, #56]
 787:./Libraries/STM32F4xx_HAL_Driver/Src/stm32f4xx_hal_sd.c ****         hsd->ErrorCode |= errorstate;
 1202              		.loc 1 787 24
 1203 019c FB68     		ldr	r3, [r7, #12]
 1204 019e 9A6B     		ldr	r2, [r3, #56]
 1205 01a0 7B6B     		ldr	r3, [r7, #52]
 1206 01a2 1A43     		orrs	r2, r2, r3
 1207 01a4 FB68     		ldr	r3, [r7, #12]
 1208 01a6 9A63     		str	r2, [r3, #56]
 788:./Libraries/STM32F4xx_HAL_Driver/Src/stm32f4xx_hal_sd.c ****         hsd->State = HAL_SD_STATE_READY;
 1209              		.loc 1 788 20
 1210 01a8 FB68     		ldr	r3, [r7, #12]
 1211 01aa 0122     		movs	r2, #1
 1212 01ac 83F83420 		strb	r2, [r3, #52]
ARM GAS  /tmp/ccMhfXg8.s 			page 36


 789:./Libraries/STM32F4xx_HAL_Driver/Src/stm32f4xx_hal_sd.c ****         return HAL_TIMEOUT;
 1213              		.loc 1 789 16
 1214 01b0 0323     		movs	r3, #3
 1215 01b2 89E0     		b	.L61
 1216              	.L51:
 768:./Libraries/STM32F4xx_HAL_Driver/Src/stm32f4xx_hal_sd.c **** #else /* SDIO_STA_STBITERR not defined */
 1217              		.loc 1 768 12
 1218 01b4 FB68     		ldr	r3, [r7, #12]
 1219 01b6 1B68     		ldr	r3, [r3]
 1220 01b8 5A6B     		ldr	r2, [r3, #52]
 1221 01ba 40F21A33 		movw	r3, #794
 1222 01be 1340     		ands	r3, r3, r2
 768:./Libraries/STM32F4xx_HAL_Driver/Src/stm32f4xx_hal_sd.c **** #else /* SDIO_STA_STBITERR not defined */
 1223              		.loc 1 768 10
 1224 01c0 002B     		cmp	r3, #0
 1225 01c2 BFD0     		beq	.L56
 790:./Libraries/STM32F4xx_HAL_Driver/Src/stm32f4xx_hal_sd.c ****       }
 791:./Libraries/STM32F4xx_HAL_Driver/Src/stm32f4xx_hal_sd.c ****     }
 792:./Libraries/STM32F4xx_HAL_Driver/Src/stm32f4xx_hal_sd.c ****     
 793:./Libraries/STM32F4xx_HAL_Driver/Src/stm32f4xx_hal_sd.c ****     /* Send stop transmission command in case of multiblock write */
 794:./Libraries/STM32F4xx_HAL_Driver/Src/stm32f4xx_hal_sd.c ****     if(__HAL_SD_GET_FLAG(hsd, SDIO_FLAG_DATAEND) && (NumberOfBlocks > 1U))
 1226              		.loc 1 794 8
 1227 01c4 FB68     		ldr	r3, [r7, #12]
 1228 01c6 1B68     		ldr	r3, [r3]
 1229 01c8 5B6B     		ldr	r3, [r3, #52]
 1230 01ca 03F48073 		and	r3, r3, #256
 1231              		.loc 1 794 7
 1232 01ce 002B     		cmp	r3, #0
 1233 01d0 20D0     		beq	.L57
 1234              		.loc 1 794 50 discriminator 1
 1235 01d2 3B68     		ldr	r3, [r7]
 1236 01d4 012B     		cmp	r3, #1
 1237 01d6 1DD9     		bls	.L57
 795:./Libraries/STM32F4xx_HAL_Driver/Src/stm32f4xx_hal_sd.c ****     { 
 796:./Libraries/STM32F4xx_HAL_Driver/Src/stm32f4xx_hal_sd.c ****       if(hsd->SdCard.CardType != CARD_SECURED)
 1238              		.loc 1 796 21
 1239 01d8 FB68     		ldr	r3, [r7, #12]
 1240 01da 5B6C     		ldr	r3, [r3, #68]
 1241              		.loc 1 796 9
 1242 01dc 032B     		cmp	r3, #3
 1243 01de 19D0     		beq	.L57
 797:./Libraries/STM32F4xx_HAL_Driver/Src/stm32f4xx_hal_sd.c ****       {
 798:./Libraries/STM32F4xx_HAL_Driver/Src/stm32f4xx_hal_sd.c ****         /* Send stop transmission command */
 799:./Libraries/STM32F4xx_HAL_Driver/Src/stm32f4xx_hal_sd.c ****         errorstate = SDMMC_CmdStopTransfer(hsd->Instance);
 1244              		.loc 1 799 22
 1245 01e0 FB68     		ldr	r3, [r7, #12]
 1246 01e2 1B68     		ldr	r3, [r3]
 1247 01e4 1846     		mov	r0, r3
 1248 01e6 FFF7FEFF 		bl	SDMMC_CmdStopTransfer
 1249 01ea 7863     		str	r0, [r7, #52]
 800:./Libraries/STM32F4xx_HAL_Driver/Src/stm32f4xx_hal_sd.c ****         if(errorstate != HAL_SD_ERROR_NONE)
 1250              		.loc 1 800 11
 1251 01ec 7B6B     		ldr	r3, [r7, #52]
 1252 01ee 002B     		cmp	r3, #0
 1253 01f0 10D0     		beq	.L57
 801:./Libraries/STM32F4xx_HAL_Driver/Src/stm32f4xx_hal_sd.c ****         {
 802:./Libraries/STM32F4xx_HAL_Driver/Src/stm32f4xx_hal_sd.c ****           /* Clear all the static flags */
ARM GAS  /tmp/ccMhfXg8.s 			page 37


 803:./Libraries/STM32F4xx_HAL_Driver/Src/stm32f4xx_hal_sd.c ****           __HAL_SD_CLEAR_FLAG(hsd, SDIO_STATIC_FLAGS);  
 1254              		.loc 1 803 11
 1255 01f2 FB68     		ldr	r3, [r7, #12]
 1256 01f4 1B68     		ldr	r3, [r3]
 1257 01f6 40F2FF52 		movw	r2, #1535
 1258 01fa 9A63     		str	r2, [r3, #56]
 804:./Libraries/STM32F4xx_HAL_Driver/Src/stm32f4xx_hal_sd.c ****           hsd->ErrorCode |= errorstate;
 1259              		.loc 1 804 26
 1260 01fc FB68     		ldr	r3, [r7, #12]
 1261 01fe 9A6B     		ldr	r2, [r3, #56]
 1262 0200 7B6B     		ldr	r3, [r7, #52]
 1263 0202 1A43     		orrs	r2, r2, r3
 1264 0204 FB68     		ldr	r3, [r7, #12]
 1265 0206 9A63     		str	r2, [r3, #56]
 805:./Libraries/STM32F4xx_HAL_Driver/Src/stm32f4xx_hal_sd.c ****           hsd->State = HAL_SD_STATE_READY;
 1266              		.loc 1 805 22
 1267 0208 FB68     		ldr	r3, [r7, #12]
 1268 020a 0122     		movs	r2, #1
 1269 020c 83F83420 		strb	r2, [r3, #52]
 806:./Libraries/STM32F4xx_HAL_Driver/Src/stm32f4xx_hal_sd.c ****           return HAL_ERROR;
 1270              		.loc 1 806 18
 1271 0210 0123     		movs	r3, #1
 1272 0212 59E0     		b	.L61
 1273              	.L57:
 807:./Libraries/STM32F4xx_HAL_Driver/Src/stm32f4xx_hal_sd.c ****         }
 808:./Libraries/STM32F4xx_HAL_Driver/Src/stm32f4xx_hal_sd.c ****       }
 809:./Libraries/STM32F4xx_HAL_Driver/Src/stm32f4xx_hal_sd.c ****     }
 810:./Libraries/STM32F4xx_HAL_Driver/Src/stm32f4xx_hal_sd.c ****     
 811:./Libraries/STM32F4xx_HAL_Driver/Src/stm32f4xx_hal_sd.c ****     /* Get error state */
 812:./Libraries/STM32F4xx_HAL_Driver/Src/stm32f4xx_hal_sd.c ****     if(__HAL_SD_GET_FLAG(hsd, SDIO_FLAG_DTIMEOUT))
 1274              		.loc 1 812 8
 1275 0214 FB68     		ldr	r3, [r7, #12]
 1276 0216 1B68     		ldr	r3, [r3]
 1277 0218 5B6B     		ldr	r3, [r3, #52]
 1278 021a 03F00803 		and	r3, r3, #8
 1279              		.loc 1 812 7
 1280 021e 002B     		cmp	r3, #0
 1281 0220 10D0     		beq	.L58
 813:./Libraries/STM32F4xx_HAL_Driver/Src/stm32f4xx_hal_sd.c ****     {
 814:./Libraries/STM32F4xx_HAL_Driver/Src/stm32f4xx_hal_sd.c ****       /* Clear all the static flags */
 815:./Libraries/STM32F4xx_HAL_Driver/Src/stm32f4xx_hal_sd.c ****       __HAL_SD_CLEAR_FLAG(hsd, SDIO_STATIC_FLAGS);
 1282              		.loc 1 815 7
 1283 0222 FB68     		ldr	r3, [r7, #12]
 1284 0224 1B68     		ldr	r3, [r3]
 1285 0226 40F2FF52 		movw	r2, #1535
 1286 022a 9A63     		str	r2, [r3, #56]
 816:./Libraries/STM32F4xx_HAL_Driver/Src/stm32f4xx_hal_sd.c ****       hsd->ErrorCode |= HAL_SD_ERROR_DATA_TIMEOUT;
 1287              		.loc 1 816 22
 1288 022c FB68     		ldr	r3, [r7, #12]
 1289 022e 9B6B     		ldr	r3, [r3, #56]
 1290 0230 43F00802 		orr	r2, r3, #8
 1291 0234 FB68     		ldr	r3, [r7, #12]
 1292 0236 9A63     		str	r2, [r3, #56]
 817:./Libraries/STM32F4xx_HAL_Driver/Src/stm32f4xx_hal_sd.c ****       hsd->State = HAL_SD_STATE_READY;
 1293              		.loc 1 817 18
 1294 0238 FB68     		ldr	r3, [r7, #12]
 1295 023a 0122     		movs	r2, #1
ARM GAS  /tmp/ccMhfXg8.s 			page 38


 1296 023c 83F83420 		strb	r2, [r3, #52]
 818:./Libraries/STM32F4xx_HAL_Driver/Src/stm32f4xx_hal_sd.c ****       return HAL_ERROR;
 1297              		.loc 1 818 14
 1298 0240 0123     		movs	r3, #1
 1299 0242 41E0     		b	.L61
 1300              	.L58:
 819:./Libraries/STM32F4xx_HAL_Driver/Src/stm32f4xx_hal_sd.c ****     }
 820:./Libraries/STM32F4xx_HAL_Driver/Src/stm32f4xx_hal_sd.c ****     else if(__HAL_SD_GET_FLAG(hsd, SDIO_FLAG_DCRCFAIL))
 1301              		.loc 1 820 13
 1302 0244 FB68     		ldr	r3, [r7, #12]
 1303 0246 1B68     		ldr	r3, [r3]
 1304 0248 5B6B     		ldr	r3, [r3, #52]
 1305 024a 03F00203 		and	r3, r3, #2
 1306              		.loc 1 820 12
 1307 024e 002B     		cmp	r3, #0
 1308 0250 10D0     		beq	.L59
 821:./Libraries/STM32F4xx_HAL_Driver/Src/stm32f4xx_hal_sd.c ****     {
 822:./Libraries/STM32F4xx_HAL_Driver/Src/stm32f4xx_hal_sd.c ****       /* Clear all the static flags */
 823:./Libraries/STM32F4xx_HAL_Driver/Src/stm32f4xx_hal_sd.c ****       __HAL_SD_CLEAR_FLAG(hsd, SDIO_STATIC_FLAGS);
 1309              		.loc 1 823 7
 1310 0252 FB68     		ldr	r3, [r7, #12]
 1311 0254 1B68     		ldr	r3, [r3]
 1312 0256 40F2FF52 		movw	r2, #1535
 1313 025a 9A63     		str	r2, [r3, #56]
 824:./Libraries/STM32F4xx_HAL_Driver/Src/stm32f4xx_hal_sd.c ****       hsd->ErrorCode |= HAL_SD_ERROR_DATA_CRC_FAIL;      
 1314              		.loc 1 824 22
 1315 025c FB68     		ldr	r3, [r7, #12]
 1316 025e 9B6B     		ldr	r3, [r3, #56]
 1317 0260 43F00202 		orr	r2, r3, #2
 1318 0264 FB68     		ldr	r3, [r7, #12]
 1319 0266 9A63     		str	r2, [r3, #56]
 825:./Libraries/STM32F4xx_HAL_Driver/Src/stm32f4xx_hal_sd.c ****       hsd->State = HAL_SD_STATE_READY;
 1320              		.loc 1 825 18
 1321 0268 FB68     		ldr	r3, [r7, #12]
 1322 026a 0122     		movs	r2, #1
 1323 026c 83F83420 		strb	r2, [r3, #52]
 826:./Libraries/STM32F4xx_HAL_Driver/Src/stm32f4xx_hal_sd.c ****       return HAL_ERROR;
 1324              		.loc 1 826 14
 1325 0270 0123     		movs	r3, #1
 1326 0272 29E0     		b	.L61
 1327              	.L59:
 827:./Libraries/STM32F4xx_HAL_Driver/Src/stm32f4xx_hal_sd.c ****     }
 828:./Libraries/STM32F4xx_HAL_Driver/Src/stm32f4xx_hal_sd.c ****     else if(__HAL_SD_GET_FLAG(hsd, SDIO_FLAG_TXUNDERR))
 1328              		.loc 1 828 13
 1329 0274 FB68     		ldr	r3, [r7, #12]
 1330 0276 1B68     		ldr	r3, [r3]
 1331 0278 5B6B     		ldr	r3, [r3, #52]
 1332 027a 03F01003 		and	r3, r3, #16
 1333              		.loc 1 828 12
 1334 027e 002B     		cmp	r3, #0
 1335 0280 10D0     		beq	.L60
 829:./Libraries/STM32F4xx_HAL_Driver/Src/stm32f4xx_hal_sd.c ****     {
 830:./Libraries/STM32F4xx_HAL_Driver/Src/stm32f4xx_hal_sd.c ****       /* Clear all the static flags */
 831:./Libraries/STM32F4xx_HAL_Driver/Src/stm32f4xx_hal_sd.c ****       __HAL_SD_CLEAR_FLAG(hsd, SDIO_STATIC_FLAGS);
 1336              		.loc 1 831 7
 1337 0282 FB68     		ldr	r3, [r7, #12]
 1338 0284 1B68     		ldr	r3, [r3]
ARM GAS  /tmp/ccMhfXg8.s 			page 39


 1339 0286 40F2FF52 		movw	r2, #1535
 1340 028a 9A63     		str	r2, [r3, #56]
 832:./Libraries/STM32F4xx_HAL_Driver/Src/stm32f4xx_hal_sd.c ****       hsd->ErrorCode |= HAL_SD_ERROR_TX_UNDERRUN;
 1341              		.loc 1 832 22
 1342 028c FB68     		ldr	r3, [r7, #12]
 1343 028e 9B6B     		ldr	r3, [r3, #56]
 1344 0290 43F01002 		orr	r2, r3, #16
 1345 0294 FB68     		ldr	r3, [r7, #12]
 1346 0296 9A63     		str	r2, [r3, #56]
 833:./Libraries/STM32F4xx_HAL_Driver/Src/stm32f4xx_hal_sd.c ****       hsd->State = HAL_SD_STATE_READY;
 1347              		.loc 1 833 18
 1348 0298 FB68     		ldr	r3, [r7, #12]
 1349 029a 0122     		movs	r2, #1
 1350 029c 83F83420 		strb	r2, [r3, #52]
 834:./Libraries/STM32F4xx_HAL_Driver/Src/stm32f4xx_hal_sd.c ****       return HAL_ERROR;
 1351              		.loc 1 834 14
 1352 02a0 0123     		movs	r3, #1
 1353 02a2 11E0     		b	.L61
 1354              	.L60:
 835:./Libraries/STM32F4xx_HAL_Driver/Src/stm32f4xx_hal_sd.c ****     }
 836:./Libraries/STM32F4xx_HAL_Driver/Src/stm32f4xx_hal_sd.c ****     
 837:./Libraries/STM32F4xx_HAL_Driver/Src/stm32f4xx_hal_sd.c ****     /* Clear all the static flags */
 838:./Libraries/STM32F4xx_HAL_Driver/Src/stm32f4xx_hal_sd.c ****     __HAL_SD_CLEAR_FLAG(hsd, SDIO_STATIC_FLAGS);
 1355              		.loc 1 838 5
 1356 02a4 FB68     		ldr	r3, [r7, #12]
 1357 02a6 1B68     		ldr	r3, [r3]
 1358 02a8 40F2FF52 		movw	r2, #1535
 1359 02ac 9A63     		str	r2, [r3, #56]
 839:./Libraries/STM32F4xx_HAL_Driver/Src/stm32f4xx_hal_sd.c ****     
 840:./Libraries/STM32F4xx_HAL_Driver/Src/stm32f4xx_hal_sd.c ****     hsd->State = HAL_SD_STATE_READY;
 1360              		.loc 1 840 16
 1361 02ae FB68     		ldr	r3, [r7, #12]
 1362 02b0 0122     		movs	r2, #1
 1363 02b2 83F83420 		strb	r2, [r3, #52]
 841:./Libraries/STM32F4xx_HAL_Driver/Src/stm32f4xx_hal_sd.c ****     
 842:./Libraries/STM32F4xx_HAL_Driver/Src/stm32f4xx_hal_sd.c ****     return HAL_OK;
 1364              		.loc 1 842 12
 1365 02b6 0023     		movs	r3, #0
 1366 02b8 06E0     		b	.L61
 1367              	.L44:
 843:./Libraries/STM32F4xx_HAL_Driver/Src/stm32f4xx_hal_sd.c ****   }
 844:./Libraries/STM32F4xx_HAL_Driver/Src/stm32f4xx_hal_sd.c ****   else
 845:./Libraries/STM32F4xx_HAL_Driver/Src/stm32f4xx_hal_sd.c ****   {
 846:./Libraries/STM32F4xx_HAL_Driver/Src/stm32f4xx_hal_sd.c ****     hsd->ErrorCode |= HAL_SD_ERROR_BUSY;
 1368              		.loc 1 846 20
 1369 02ba FB68     		ldr	r3, [r7, #12]
 1370 02bc 9B6B     		ldr	r3, [r3, #56]
 1371 02be 43F00052 		orr	r2, r3, #536870912
 1372 02c2 FB68     		ldr	r3, [r7, #12]
 1373 02c4 9A63     		str	r2, [r3, #56]
 847:./Libraries/STM32F4xx_HAL_Driver/Src/stm32f4xx_hal_sd.c ****     return HAL_ERROR;
 1374              		.loc 1 847 12
 1375 02c6 0123     		movs	r3, #1
 1376              	.L61:
 848:./Libraries/STM32F4xx_HAL_Driver/Src/stm32f4xx_hal_sd.c ****   }
 849:./Libraries/STM32F4xx_HAL_Driver/Src/stm32f4xx_hal_sd.c **** }
 1377              		.loc 1 849 1 discriminator 1
ARM GAS  /tmp/ccMhfXg8.s 			page 40


 1378 02c8 1846     		mov	r0, r3
 1379 02ca 3837     		adds	r7, r7, #56
 1380              	.LCFI35:
 1381              		.cfi_def_cfa_offset 8
 1382 02cc BD46     		mov	sp, r7
 1383              	.LCFI36:
 1384              		.cfi_def_cfa_register 13
 1385              		@ sp needed
 1386 02ce 80BD     		pop	{r7, pc}
 1387              		.cfi_endproc
 1388              	.LFE132:
 1390              		.section	.text.HAL_SD_ReadBlocks_IT,"ax",%progbits
 1391              		.align	1
 1392              		.global	HAL_SD_ReadBlocks_IT
 1393              		.syntax unified
 1394              		.thumb
 1395              		.thumb_func
 1396              		.fpu fpv4-sp-d16
 1398              	HAL_SD_ReadBlocks_IT:
 1399              	.LFB133:
 850:./Libraries/STM32F4xx_HAL_Driver/Src/stm32f4xx_hal_sd.c **** 
 851:./Libraries/STM32F4xx_HAL_Driver/Src/stm32f4xx_hal_sd.c **** /**
 852:./Libraries/STM32F4xx_HAL_Driver/Src/stm32f4xx_hal_sd.c ****   * @brief  Reads block(s) from a specified address in a card. The Data transfer 
 853:./Libraries/STM32F4xx_HAL_Driver/Src/stm32f4xx_hal_sd.c ****   *         is managed in interrupt mode. 
 854:./Libraries/STM32F4xx_HAL_Driver/Src/stm32f4xx_hal_sd.c ****   * @note   This API should be followed by a check on the card state through
 855:./Libraries/STM32F4xx_HAL_Driver/Src/stm32f4xx_hal_sd.c ****   *         HAL_SD_GetCardState().
 856:./Libraries/STM32F4xx_HAL_Driver/Src/stm32f4xx_hal_sd.c ****   * @note   You could also check the IT transfer process through the SD Rx 
 857:./Libraries/STM32F4xx_HAL_Driver/Src/stm32f4xx_hal_sd.c ****   *         interrupt event.
 858:./Libraries/STM32F4xx_HAL_Driver/Src/stm32f4xx_hal_sd.c ****   * @param  hsd Pointer to SD handle                 
 859:./Libraries/STM32F4xx_HAL_Driver/Src/stm32f4xx_hal_sd.c ****   * @param  pData Pointer to the buffer that will contain the received data
 860:./Libraries/STM32F4xx_HAL_Driver/Src/stm32f4xx_hal_sd.c ****   * @param  BlockAdd Block Address from where data is to be read 
 861:./Libraries/STM32F4xx_HAL_Driver/Src/stm32f4xx_hal_sd.c ****   * @param  NumberOfBlocks Number of blocks to read.
 862:./Libraries/STM32F4xx_HAL_Driver/Src/stm32f4xx_hal_sd.c ****   * @retval HAL status
 863:./Libraries/STM32F4xx_HAL_Driver/Src/stm32f4xx_hal_sd.c ****   */
 864:./Libraries/STM32F4xx_HAL_Driver/Src/stm32f4xx_hal_sd.c **** HAL_StatusTypeDef HAL_SD_ReadBlocks_IT(SD_HandleTypeDef *hsd, uint8_t *pData, uint32_t BlockAdd, ui
 865:./Libraries/STM32F4xx_HAL_Driver/Src/stm32f4xx_hal_sd.c **** {
 1400              		.loc 1 865 1
 1401              		.cfi_startproc
 1402              		@ args = 0, pretend = 0, frame = 48
 1403              		@ frame_needed = 1, uses_anonymous_args = 0
 1404 0000 80B5     		push	{r7, lr}
 1405              	.LCFI37:
 1406              		.cfi_def_cfa_offset 8
 1407              		.cfi_offset 7, -8
 1408              		.cfi_offset 14, -4
 1409 0002 8CB0     		sub	sp, sp, #48
 1410              	.LCFI38:
 1411              		.cfi_def_cfa_offset 56
 1412 0004 00AF     		add	r7, sp, #0
 1413              	.LCFI39:
 1414              		.cfi_def_cfa_register 7
 1415 0006 F860     		str	r0, [r7, #12]
 1416 0008 B960     		str	r1, [r7, #8]
 1417 000a 7A60     		str	r2, [r7, #4]
 1418 000c 3B60     		str	r3, [r7]
 866:./Libraries/STM32F4xx_HAL_Driver/Src/stm32f4xx_hal_sd.c ****   SDIO_DataInitTypeDef config;
 867:./Libraries/STM32F4xx_HAL_Driver/Src/stm32f4xx_hal_sd.c ****   uint32_t errorstate = HAL_SD_ERROR_NONE;
ARM GAS  /tmp/ccMhfXg8.s 			page 41


 1419              		.loc 1 867 12
 1420 000e 0023     		movs	r3, #0
 1421 0010 FB62     		str	r3, [r7, #44]
 868:./Libraries/STM32F4xx_HAL_Driver/Src/stm32f4xx_hal_sd.c ****   
 869:./Libraries/STM32F4xx_HAL_Driver/Src/stm32f4xx_hal_sd.c ****   if(NULL == pData)
 1422              		.loc 1 869 5
 1423 0012 BB68     		ldr	r3, [r7, #8]
 1424 0014 002B     		cmp	r3, #0
 1425 0016 07D1     		bne	.L63
 870:./Libraries/STM32F4xx_HAL_Driver/Src/stm32f4xx_hal_sd.c ****   {
 871:./Libraries/STM32F4xx_HAL_Driver/Src/stm32f4xx_hal_sd.c ****     hsd->ErrorCode |= HAL_SD_ERROR_PARAM;
 1426              		.loc 1 871 20
 1427 0018 FB68     		ldr	r3, [r7, #12]
 1428 001a 9B6B     		ldr	r3, [r3, #56]
 1429 001c 43F00062 		orr	r2, r3, #134217728
 1430 0020 FB68     		ldr	r3, [r7, #12]
 1431 0022 9A63     		str	r2, [r3, #56]
 872:./Libraries/STM32F4xx_HAL_Driver/Src/stm32f4xx_hal_sd.c ****     return HAL_ERROR;
 1432              		.loc 1 872 12
 1433 0024 0123     		movs	r3, #1
 1434 0026 99E0     		b	.L72
 1435              	.L63:
 873:./Libraries/STM32F4xx_HAL_Driver/Src/stm32f4xx_hal_sd.c ****   }
 874:./Libraries/STM32F4xx_HAL_Driver/Src/stm32f4xx_hal_sd.c ****   
 875:./Libraries/STM32F4xx_HAL_Driver/Src/stm32f4xx_hal_sd.c ****   if(hsd->State == HAL_SD_STATE_READY)
 1436              		.loc 1 875 9
 1437 0028 FB68     		ldr	r3, [r7, #12]
 1438 002a 93F83430 		ldrb	r3, [r3, #52]
 1439 002e DBB2     		uxtb	r3, r3
 1440              		.loc 1 875 5
 1441 0030 012B     		cmp	r3, #1
 1442 0032 40F09280 		bne	.L65
 876:./Libraries/STM32F4xx_HAL_Driver/Src/stm32f4xx_hal_sd.c ****   {
 877:./Libraries/STM32F4xx_HAL_Driver/Src/stm32f4xx_hal_sd.c ****     hsd->ErrorCode = HAL_DMA_ERROR_NONE;
 1443              		.loc 1 877 20
 1444 0036 FB68     		ldr	r3, [r7, #12]
 1445 0038 0022     		movs	r2, #0
 1446 003a 9A63     		str	r2, [r3, #56]
 878:./Libraries/STM32F4xx_HAL_Driver/Src/stm32f4xx_hal_sd.c ****     
 879:./Libraries/STM32F4xx_HAL_Driver/Src/stm32f4xx_hal_sd.c ****     if((BlockAdd + NumberOfBlocks) > (hsd->SdCard.LogBlockNbr))
 1447              		.loc 1 879 18
 1448 003c 7A68     		ldr	r2, [r7, #4]
 1449 003e 3B68     		ldr	r3, [r7]
 1450 0040 1A44     		add	r2, r2, r3
 1451              		.loc 1 879 50
 1452 0042 FB68     		ldr	r3, [r7, #12]
 1453 0044 DB6D     		ldr	r3, [r3, #92]
 1454              		.loc 1 879 7
 1455 0046 9A42     		cmp	r2, r3
 1456 0048 07D9     		bls	.L66
 880:./Libraries/STM32F4xx_HAL_Driver/Src/stm32f4xx_hal_sd.c ****     {
 881:./Libraries/STM32F4xx_HAL_Driver/Src/stm32f4xx_hal_sd.c ****       hsd->ErrorCode |= HAL_SD_ERROR_ADDR_OUT_OF_RANGE;
 1457              		.loc 1 881 22
 1458 004a FB68     		ldr	r3, [r7, #12]
 1459 004c 9B6B     		ldr	r3, [r3, #56]
 1460 004e 43F00072 		orr	r2, r3, #33554432
 1461 0052 FB68     		ldr	r3, [r7, #12]
ARM GAS  /tmp/ccMhfXg8.s 			page 42


 1462 0054 9A63     		str	r2, [r3, #56]
 882:./Libraries/STM32F4xx_HAL_Driver/Src/stm32f4xx_hal_sd.c ****       return HAL_ERROR;
 1463              		.loc 1 882 14
 1464 0056 0123     		movs	r3, #1
 1465 0058 80E0     		b	.L72
 1466              	.L66:
 883:./Libraries/STM32F4xx_HAL_Driver/Src/stm32f4xx_hal_sd.c ****     }
 884:./Libraries/STM32F4xx_HAL_Driver/Src/stm32f4xx_hal_sd.c ****     
 885:./Libraries/STM32F4xx_HAL_Driver/Src/stm32f4xx_hal_sd.c ****     hsd->State = HAL_SD_STATE_BUSY;
 1467              		.loc 1 885 16
 1468 005a FB68     		ldr	r3, [r7, #12]
 1469 005c 0322     		movs	r2, #3
 1470 005e 83F83420 		strb	r2, [r3, #52]
 886:./Libraries/STM32F4xx_HAL_Driver/Src/stm32f4xx_hal_sd.c ****     
 887:./Libraries/STM32F4xx_HAL_Driver/Src/stm32f4xx_hal_sd.c ****     /* Initialize data control register */
 888:./Libraries/STM32F4xx_HAL_Driver/Src/stm32f4xx_hal_sd.c ****     hsd->Instance->DCTRL = 0U;
 1471              		.loc 1 888 8
 1472 0062 FB68     		ldr	r3, [r7, #12]
 1473 0064 1B68     		ldr	r3, [r3]
 1474              		.loc 1 888 26
 1475 0066 0022     		movs	r2, #0
 1476 0068 DA62     		str	r2, [r3, #44]
 889:./Libraries/STM32F4xx_HAL_Driver/Src/stm32f4xx_hal_sd.c ****     
 890:./Libraries/STM32F4xx_HAL_Driver/Src/stm32f4xx_hal_sd.c ****     hsd->pRxBuffPtr = (uint32_t *)pData;
 1477              		.loc 1 890 21
 1478 006a FB68     		ldr	r3, [r7, #12]
 1479 006c BA68     		ldr	r2, [r7, #8]
 1480 006e 9A62     		str	r2, [r3, #40]
 891:./Libraries/STM32F4xx_HAL_Driver/Src/stm32f4xx_hal_sd.c ****     hsd->RxXferSize = BLOCKSIZE * NumberOfBlocks;
 1481              		.loc 1 891 33
 1482 0070 3B68     		ldr	r3, [r7]
 1483 0072 5A02     		lsls	r2, r3, #9
 1484              		.loc 1 891 21
 1485 0074 FB68     		ldr	r3, [r7, #12]
 1486 0076 DA62     		str	r2, [r3, #44]
 892:./Libraries/STM32F4xx_HAL_Driver/Src/stm32f4xx_hal_sd.c ****     
 893:./Libraries/STM32F4xx_HAL_Driver/Src/stm32f4xx_hal_sd.c **** #ifdef SDIO_STA_STBITER
 894:./Libraries/STM32F4xx_HAL_Driver/Src/stm32f4xx_hal_sd.c ****     __HAL_SD_ENABLE_IT(hsd, (SDIO_IT_DCRCFAIL | SDIO_IT_DTIMEOUT | SDIO_IT_RXOVERR | SDIO_IT_DATAEN
 895:./Libraries/STM32F4xx_HAL_Driver/Src/stm32f4xx_hal_sd.c **** #else /* SDIO_STA_STBITERR not defined */
 896:./Libraries/STM32F4xx_HAL_Driver/Src/stm32f4xx_hal_sd.c ****     __HAL_SD_ENABLE_IT(hsd, (SDIO_IT_DCRCFAIL | SDIO_IT_DTIMEOUT | SDIO_IT_RXOVERR | SDIO_IT_DATAEN
 1487              		.loc 1 896 5
 1488 0078 FB68     		ldr	r3, [r7, #12]
 1489 007a 1B68     		ldr	r3, [r3]
 1490 007c DB6B     		ldr	r3, [r3, #60]
 1491 007e FA68     		ldr	r2, [r7, #12]
 1492 0080 1268     		ldr	r2, [r2]
 1493 0082 43F40143 		orr	r3, r3, #33024
 1494 0086 43F02A03 		orr	r3, r3, #42
 1495 008a D363     		str	r3, [r2, #60]
 897:./Libraries/STM32F4xx_HAL_Driver/Src/stm32f4xx_hal_sd.c **** #endif /* SDIO_STA_STBITERR */
 898:./Libraries/STM32F4xx_HAL_Driver/Src/stm32f4xx_hal_sd.c ****     
 899:./Libraries/STM32F4xx_HAL_Driver/Src/stm32f4xx_hal_sd.c ****     if(hsd->SdCard.CardType != CARD_SDHC_SDXC)
 1496              		.loc 1 899 19
 1497 008c FB68     		ldr	r3, [r7, #12]
 1498 008e 5B6C     		ldr	r3, [r3, #68]
 1499              		.loc 1 899 7
 1500 0090 012B     		cmp	r3, #1
ARM GAS  /tmp/ccMhfXg8.s 			page 43


 1501 0092 02D0     		beq	.L67
 900:./Libraries/STM32F4xx_HAL_Driver/Src/stm32f4xx_hal_sd.c ****     {
 901:./Libraries/STM32F4xx_HAL_Driver/Src/stm32f4xx_hal_sd.c ****       BlockAdd *= 512U;
 1502              		.loc 1 901 16
 1503 0094 7B68     		ldr	r3, [r7, #4]
 1504 0096 5B02     		lsls	r3, r3, #9
 1505 0098 7B60     		str	r3, [r7, #4]
 1506              	.L67:
 902:./Libraries/STM32F4xx_HAL_Driver/Src/stm32f4xx_hal_sd.c ****     }
 903:./Libraries/STM32F4xx_HAL_Driver/Src/stm32f4xx_hal_sd.c ****     
 904:./Libraries/STM32F4xx_HAL_Driver/Src/stm32f4xx_hal_sd.c ****     /* Configure the SD DPSM (Data Path State Machine) */ 
 905:./Libraries/STM32F4xx_HAL_Driver/Src/stm32f4xx_hal_sd.c ****     config.DataTimeOut   = SDMMC_DATATIMEOUT;
 1507              		.loc 1 905 26
 1508 009a 4FF0FF33 		mov	r3, #-1
 1509 009e 7B61     		str	r3, [r7, #20]
 906:./Libraries/STM32F4xx_HAL_Driver/Src/stm32f4xx_hal_sd.c ****     config.DataLength    = BLOCKSIZE * NumberOfBlocks;
 1510              		.loc 1 906 38
 1511 00a0 3B68     		ldr	r3, [r7]
 1512 00a2 5B02     		lsls	r3, r3, #9
 1513              		.loc 1 906 26
 1514 00a4 BB61     		str	r3, [r7, #24]
 907:./Libraries/STM32F4xx_HAL_Driver/Src/stm32f4xx_hal_sd.c ****     config.DataBlockSize = SDIO_DATABLOCK_SIZE_512B;
 1515              		.loc 1 907 26
 1516 00a6 9023     		movs	r3, #144
 1517 00a8 FB61     		str	r3, [r7, #28]
 908:./Libraries/STM32F4xx_HAL_Driver/Src/stm32f4xx_hal_sd.c ****     config.TransferDir   = SDIO_TRANSFER_DIR_TO_SDIO;
 1518              		.loc 1 908 26
 1519 00aa 0223     		movs	r3, #2
 1520 00ac 3B62     		str	r3, [r7, #32]
 909:./Libraries/STM32F4xx_HAL_Driver/Src/stm32f4xx_hal_sd.c ****     config.TransferMode  = SDIO_TRANSFER_MODE_BLOCK;
 1521              		.loc 1 909 26
 1522 00ae 0023     		movs	r3, #0
 1523 00b0 7B62     		str	r3, [r7, #36]
 910:./Libraries/STM32F4xx_HAL_Driver/Src/stm32f4xx_hal_sd.c ****     config.DPSM          = SDIO_DPSM_ENABLE;
 1524              		.loc 1 910 26
 1525 00b2 0123     		movs	r3, #1
 1526 00b4 BB62     		str	r3, [r7, #40]
 911:./Libraries/STM32F4xx_HAL_Driver/Src/stm32f4xx_hal_sd.c ****     SDIO_ConfigData(hsd->Instance, &config);
 1527              		.loc 1 911 5
 1528 00b6 FB68     		ldr	r3, [r7, #12]
 1529 00b8 1B68     		ldr	r3, [r3]
 1530 00ba 07F11402 		add	r2, r7, #20
 1531 00be 1146     		mov	r1, r2
 1532 00c0 1846     		mov	r0, r3
 1533 00c2 FFF7FEFF 		bl	SDIO_ConfigData
 912:./Libraries/STM32F4xx_HAL_Driver/Src/stm32f4xx_hal_sd.c ****     
 913:./Libraries/STM32F4xx_HAL_Driver/Src/stm32f4xx_hal_sd.c ****     /* Set Block Size for Card */ 
 914:./Libraries/STM32F4xx_HAL_Driver/Src/stm32f4xx_hal_sd.c ****     errorstate = SDMMC_CmdBlockLength(hsd->Instance, BLOCKSIZE);
 1534              		.loc 1 914 18
 1535 00c6 FB68     		ldr	r3, [r7, #12]
 1536 00c8 1B68     		ldr	r3, [r3]
 1537 00ca 4FF40071 		mov	r1, #512
 1538 00ce 1846     		mov	r0, r3
 1539 00d0 FFF7FEFF 		bl	SDMMC_CmdBlockLength
 1540 00d4 F862     		str	r0, [r7, #44]
 915:./Libraries/STM32F4xx_HAL_Driver/Src/stm32f4xx_hal_sd.c ****     if(errorstate != HAL_SD_ERROR_NONE)
 1541              		.loc 1 915 7
ARM GAS  /tmp/ccMhfXg8.s 			page 44


 1542 00d6 FB6A     		ldr	r3, [r7, #44]
 1543 00d8 002B     		cmp	r3, #0
 1544 00da 10D0     		beq	.L68
 916:./Libraries/STM32F4xx_HAL_Driver/Src/stm32f4xx_hal_sd.c ****     {
 917:./Libraries/STM32F4xx_HAL_Driver/Src/stm32f4xx_hal_sd.c ****       /* Clear all the static flags */
 918:./Libraries/STM32F4xx_HAL_Driver/Src/stm32f4xx_hal_sd.c ****       __HAL_SD_CLEAR_FLAG(hsd, SDIO_STATIC_FLAGS); 
 1545              		.loc 1 918 7
 1546 00dc FB68     		ldr	r3, [r7, #12]
 1547 00de 1B68     		ldr	r3, [r3]
 1548 00e0 40F2FF52 		movw	r2, #1535
 1549 00e4 9A63     		str	r2, [r3, #56]
 919:./Libraries/STM32F4xx_HAL_Driver/Src/stm32f4xx_hal_sd.c ****       hsd->ErrorCode |= errorstate;
 1550              		.loc 1 919 22
 1551 00e6 FB68     		ldr	r3, [r7, #12]
 1552 00e8 9A6B     		ldr	r2, [r3, #56]
 1553 00ea FB6A     		ldr	r3, [r7, #44]
 1554 00ec 1A43     		orrs	r2, r2, r3
 1555 00ee FB68     		ldr	r3, [r7, #12]
 1556 00f0 9A63     		str	r2, [r3, #56]
 920:./Libraries/STM32F4xx_HAL_Driver/Src/stm32f4xx_hal_sd.c ****       hsd->State = HAL_SD_STATE_READY;
 1557              		.loc 1 920 18
 1558 00f2 FB68     		ldr	r3, [r7, #12]
 1559 00f4 0122     		movs	r2, #1
 1560 00f6 83F83420 		strb	r2, [r3, #52]
 921:./Libraries/STM32F4xx_HAL_Driver/Src/stm32f4xx_hal_sd.c ****       return HAL_ERROR;
 1561              		.loc 1 921 14
 1562 00fa 0123     		movs	r3, #1
 1563 00fc 2EE0     		b	.L72
 1564              	.L68:
 922:./Libraries/STM32F4xx_HAL_Driver/Src/stm32f4xx_hal_sd.c ****     }
 923:./Libraries/STM32F4xx_HAL_Driver/Src/stm32f4xx_hal_sd.c **** 
 924:./Libraries/STM32F4xx_HAL_Driver/Src/stm32f4xx_hal_sd.c ****     /* Read Blocks in IT mode */
 925:./Libraries/STM32F4xx_HAL_Driver/Src/stm32f4xx_hal_sd.c ****     if(NumberOfBlocks > 1U)
 1565              		.loc 1 925 7
 1566 00fe 3B68     		ldr	r3, [r7]
 1567 0100 012B     		cmp	r3, #1
 1568 0102 0AD9     		bls	.L69
 926:./Libraries/STM32F4xx_HAL_Driver/Src/stm32f4xx_hal_sd.c ****     {
 927:./Libraries/STM32F4xx_HAL_Driver/Src/stm32f4xx_hal_sd.c ****       hsd->Context = (SD_CONTEXT_READ_MULTIPLE_BLOCK | SD_CONTEXT_IT);
 1569              		.loc 1 927 20
 1570 0104 FB68     		ldr	r3, [r7, #12]
 1571 0106 0A22     		movs	r2, #10
 1572 0108 1A63     		str	r2, [r3, #48]
 928:./Libraries/STM32F4xx_HAL_Driver/Src/stm32f4xx_hal_sd.c ****       
 929:./Libraries/STM32F4xx_HAL_Driver/Src/stm32f4xx_hal_sd.c ****       /* Read Multi Block command */
 930:./Libraries/STM32F4xx_HAL_Driver/Src/stm32f4xx_hal_sd.c ****       errorstate = SDMMC_CmdReadMultiBlock(hsd->Instance, BlockAdd);
 1573              		.loc 1 930 20
 1574 010a FB68     		ldr	r3, [r7, #12]
 1575 010c 1B68     		ldr	r3, [r3]
 1576 010e 7968     		ldr	r1, [r7, #4]
 1577 0110 1846     		mov	r0, r3
 1578 0112 FFF7FEFF 		bl	SDMMC_CmdReadMultiBlock
 1579 0116 F862     		str	r0, [r7, #44]
 1580 0118 09E0     		b	.L70
 1581              	.L69:
 931:./Libraries/STM32F4xx_HAL_Driver/Src/stm32f4xx_hal_sd.c ****     }
 932:./Libraries/STM32F4xx_HAL_Driver/Src/stm32f4xx_hal_sd.c ****     else
ARM GAS  /tmp/ccMhfXg8.s 			page 45


 933:./Libraries/STM32F4xx_HAL_Driver/Src/stm32f4xx_hal_sd.c ****     {
 934:./Libraries/STM32F4xx_HAL_Driver/Src/stm32f4xx_hal_sd.c ****       hsd->Context = (SD_CONTEXT_READ_SINGLE_BLOCK | SD_CONTEXT_IT);
 1582              		.loc 1 934 20
 1583 011a FB68     		ldr	r3, [r7, #12]
 1584 011c 0922     		movs	r2, #9
 1585 011e 1A63     		str	r2, [r3, #48]
 935:./Libraries/STM32F4xx_HAL_Driver/Src/stm32f4xx_hal_sd.c ****       
 936:./Libraries/STM32F4xx_HAL_Driver/Src/stm32f4xx_hal_sd.c ****       /* Read Single Block command */
 937:./Libraries/STM32F4xx_HAL_Driver/Src/stm32f4xx_hal_sd.c ****       errorstate = SDMMC_CmdReadSingleBlock(hsd->Instance, BlockAdd);
 1586              		.loc 1 937 20
 1587 0120 FB68     		ldr	r3, [r7, #12]
 1588 0122 1B68     		ldr	r3, [r3]
 1589 0124 7968     		ldr	r1, [r7, #4]
 1590 0126 1846     		mov	r0, r3
 1591 0128 FFF7FEFF 		bl	SDMMC_CmdReadSingleBlock
 1592 012c F862     		str	r0, [r7, #44]
 1593              	.L70:
 938:./Libraries/STM32F4xx_HAL_Driver/Src/stm32f4xx_hal_sd.c ****     }
 939:./Libraries/STM32F4xx_HAL_Driver/Src/stm32f4xx_hal_sd.c ****     if(errorstate != HAL_SD_ERROR_NONE)
 1594              		.loc 1 939 7
 1595 012e FB6A     		ldr	r3, [r7, #44]
 1596 0130 002B     		cmp	r3, #0
 1597 0132 10D0     		beq	.L71
 940:./Libraries/STM32F4xx_HAL_Driver/Src/stm32f4xx_hal_sd.c ****     {
 941:./Libraries/STM32F4xx_HAL_Driver/Src/stm32f4xx_hal_sd.c ****       /* Clear all the static flags */
 942:./Libraries/STM32F4xx_HAL_Driver/Src/stm32f4xx_hal_sd.c ****       __HAL_SD_CLEAR_FLAG(hsd, SDIO_STATIC_FLAGS); 
 1598              		.loc 1 942 7
 1599 0134 FB68     		ldr	r3, [r7, #12]
 1600 0136 1B68     		ldr	r3, [r3]
 1601 0138 40F2FF52 		movw	r2, #1535
 1602 013c 9A63     		str	r2, [r3, #56]
 943:./Libraries/STM32F4xx_HAL_Driver/Src/stm32f4xx_hal_sd.c ****       hsd->ErrorCode |= errorstate;
 1603              		.loc 1 943 22
 1604 013e FB68     		ldr	r3, [r7, #12]
 1605 0140 9A6B     		ldr	r2, [r3, #56]
 1606 0142 FB6A     		ldr	r3, [r7, #44]
 1607 0144 1A43     		orrs	r2, r2, r3
 1608 0146 FB68     		ldr	r3, [r7, #12]
 1609 0148 9A63     		str	r2, [r3, #56]
 944:./Libraries/STM32F4xx_HAL_Driver/Src/stm32f4xx_hal_sd.c ****       hsd->State = HAL_SD_STATE_READY;
 1610              		.loc 1 944 18
 1611 014a FB68     		ldr	r3, [r7, #12]
 1612 014c 0122     		movs	r2, #1
 1613 014e 83F83420 		strb	r2, [r3, #52]
 945:./Libraries/STM32F4xx_HAL_Driver/Src/stm32f4xx_hal_sd.c ****       return HAL_ERROR;
 1614              		.loc 1 945 14
 1615 0152 0123     		movs	r3, #1
 1616 0154 02E0     		b	.L72
 1617              	.L71:
 946:./Libraries/STM32F4xx_HAL_Driver/Src/stm32f4xx_hal_sd.c ****     }
 947:./Libraries/STM32F4xx_HAL_Driver/Src/stm32f4xx_hal_sd.c ****     
 948:./Libraries/STM32F4xx_HAL_Driver/Src/stm32f4xx_hal_sd.c ****     return HAL_OK;
 1618              		.loc 1 948 12
 1619 0156 0023     		movs	r3, #0
 1620 0158 00E0     		b	.L72
 1621              	.L65:
 949:./Libraries/STM32F4xx_HAL_Driver/Src/stm32f4xx_hal_sd.c ****   }
ARM GAS  /tmp/ccMhfXg8.s 			page 46


 950:./Libraries/STM32F4xx_HAL_Driver/Src/stm32f4xx_hal_sd.c ****   else
 951:./Libraries/STM32F4xx_HAL_Driver/Src/stm32f4xx_hal_sd.c ****   {
 952:./Libraries/STM32F4xx_HAL_Driver/Src/stm32f4xx_hal_sd.c ****     return HAL_BUSY;
 1622              		.loc 1 952 12
 1623 015a 0223     		movs	r3, #2
 1624              	.L72:
 953:./Libraries/STM32F4xx_HAL_Driver/Src/stm32f4xx_hal_sd.c ****   }
 954:./Libraries/STM32F4xx_HAL_Driver/Src/stm32f4xx_hal_sd.c **** }
 1625              		.loc 1 954 1 discriminator 1
 1626 015c 1846     		mov	r0, r3
 1627 015e 3037     		adds	r7, r7, #48
 1628              	.LCFI40:
 1629              		.cfi_def_cfa_offset 8
 1630 0160 BD46     		mov	sp, r7
 1631              	.LCFI41:
 1632              		.cfi_def_cfa_register 13
 1633              		@ sp needed
 1634 0162 80BD     		pop	{r7, pc}
 1635              		.cfi_endproc
 1636              	.LFE133:
 1638              		.section	.text.HAL_SD_WriteBlocks_IT,"ax",%progbits
 1639              		.align	1
 1640              		.global	HAL_SD_WriteBlocks_IT
 1641              		.syntax unified
 1642              		.thumb
 1643              		.thumb_func
 1644              		.fpu fpv4-sp-d16
 1646              	HAL_SD_WriteBlocks_IT:
 1647              	.LFB134:
 955:./Libraries/STM32F4xx_HAL_Driver/Src/stm32f4xx_hal_sd.c **** 
 956:./Libraries/STM32F4xx_HAL_Driver/Src/stm32f4xx_hal_sd.c **** /**
 957:./Libraries/STM32F4xx_HAL_Driver/Src/stm32f4xx_hal_sd.c ****   * @brief  Writes block(s) to a specified address in a card. The Data transfer 
 958:./Libraries/STM32F4xx_HAL_Driver/Src/stm32f4xx_hal_sd.c ****   *         is managed in interrupt mode. 
 959:./Libraries/STM32F4xx_HAL_Driver/Src/stm32f4xx_hal_sd.c ****   * @note   This API should be followed by a check on the card state through
 960:./Libraries/STM32F4xx_HAL_Driver/Src/stm32f4xx_hal_sd.c ****   *         HAL_SD_GetCardState().
 961:./Libraries/STM32F4xx_HAL_Driver/Src/stm32f4xx_hal_sd.c ****   * @note   You could also check the IT transfer process through the SD Tx 
 962:./Libraries/STM32F4xx_HAL_Driver/Src/stm32f4xx_hal_sd.c ****   *         interrupt event. 
 963:./Libraries/STM32F4xx_HAL_Driver/Src/stm32f4xx_hal_sd.c ****   * @param  hsd Pointer to SD handle
 964:./Libraries/STM32F4xx_HAL_Driver/Src/stm32f4xx_hal_sd.c ****   * @param  pData Pointer to the buffer that will contain the data to transmit
 965:./Libraries/STM32F4xx_HAL_Driver/Src/stm32f4xx_hal_sd.c ****   * @param  BlockAdd Block Address where data will be written    
 966:./Libraries/STM32F4xx_HAL_Driver/Src/stm32f4xx_hal_sd.c ****   * @param  NumberOfBlocks Number of blocks to write
 967:./Libraries/STM32F4xx_HAL_Driver/Src/stm32f4xx_hal_sd.c ****   * @retval HAL status
 968:./Libraries/STM32F4xx_HAL_Driver/Src/stm32f4xx_hal_sd.c ****   */
 969:./Libraries/STM32F4xx_HAL_Driver/Src/stm32f4xx_hal_sd.c **** HAL_StatusTypeDef HAL_SD_WriteBlocks_IT(SD_HandleTypeDef *hsd, uint8_t *pData, uint32_t BlockAdd, u
 970:./Libraries/STM32F4xx_HAL_Driver/Src/stm32f4xx_hal_sd.c **** {
 1648              		.loc 1 970 1
 1649              		.cfi_startproc
 1650              		@ args = 0, pretend = 0, frame = 48
 1651              		@ frame_needed = 1, uses_anonymous_args = 0
 1652 0000 80B5     		push	{r7, lr}
 1653              	.LCFI42:
 1654              		.cfi_def_cfa_offset 8
 1655              		.cfi_offset 7, -8
 1656              		.cfi_offset 14, -4
 1657 0002 8CB0     		sub	sp, sp, #48
 1658              	.LCFI43:
 1659              		.cfi_def_cfa_offset 56
ARM GAS  /tmp/ccMhfXg8.s 			page 47


 1660 0004 00AF     		add	r7, sp, #0
 1661              	.LCFI44:
 1662              		.cfi_def_cfa_register 7
 1663 0006 F860     		str	r0, [r7, #12]
 1664 0008 B960     		str	r1, [r7, #8]
 1665 000a 7A60     		str	r2, [r7, #4]
 1666 000c 3B60     		str	r3, [r7]
 971:./Libraries/STM32F4xx_HAL_Driver/Src/stm32f4xx_hal_sd.c ****   SDIO_DataInitTypeDef config;
 972:./Libraries/STM32F4xx_HAL_Driver/Src/stm32f4xx_hal_sd.c ****   uint32_t errorstate = HAL_SD_ERROR_NONE;
 1667              		.loc 1 972 12
 1668 000e 0023     		movs	r3, #0
 1669 0010 FB62     		str	r3, [r7, #44]
 973:./Libraries/STM32F4xx_HAL_Driver/Src/stm32f4xx_hal_sd.c ****   
 974:./Libraries/STM32F4xx_HAL_Driver/Src/stm32f4xx_hal_sd.c ****   if(NULL == pData)
 1670              		.loc 1 974 5
 1671 0012 BB68     		ldr	r3, [r7, #8]
 1672 0014 002B     		cmp	r3, #0
 1673 0016 07D1     		bne	.L74
 975:./Libraries/STM32F4xx_HAL_Driver/Src/stm32f4xx_hal_sd.c ****   {
 976:./Libraries/STM32F4xx_HAL_Driver/Src/stm32f4xx_hal_sd.c ****     hsd->ErrorCode |= HAL_SD_ERROR_PARAM;
 1674              		.loc 1 976 20
 1675 0018 FB68     		ldr	r3, [r7, #12]
 1676 001a 9B6B     		ldr	r3, [r3, #56]
 1677 001c 43F00062 		orr	r2, r3, #134217728
 1678 0020 FB68     		ldr	r3, [r7, #12]
 1679 0022 9A63     		str	r2, [r3, #56]
 977:./Libraries/STM32F4xx_HAL_Driver/Src/stm32f4xx_hal_sd.c ****     return HAL_ERROR;
 1680              		.loc 1 977 12
 1681 0024 0123     		movs	r3, #1
 1682 0026 99E0     		b	.L83
 1683              	.L74:
 978:./Libraries/STM32F4xx_HAL_Driver/Src/stm32f4xx_hal_sd.c ****   }
 979:./Libraries/STM32F4xx_HAL_Driver/Src/stm32f4xx_hal_sd.c ****   
 980:./Libraries/STM32F4xx_HAL_Driver/Src/stm32f4xx_hal_sd.c ****   if(hsd->State == HAL_SD_STATE_READY)
 1684              		.loc 1 980 9
 1685 0028 FB68     		ldr	r3, [r7, #12]
 1686 002a 93F83430 		ldrb	r3, [r3, #52]
 1687 002e DBB2     		uxtb	r3, r3
 1688              		.loc 1 980 5
 1689 0030 012B     		cmp	r3, #1
 1690 0032 40F09280 		bne	.L76
 981:./Libraries/STM32F4xx_HAL_Driver/Src/stm32f4xx_hal_sd.c ****   {
 982:./Libraries/STM32F4xx_HAL_Driver/Src/stm32f4xx_hal_sd.c ****     hsd->ErrorCode = HAL_DMA_ERROR_NONE;
 1691              		.loc 1 982 20
 1692 0036 FB68     		ldr	r3, [r7, #12]
 1693 0038 0022     		movs	r2, #0
 1694 003a 9A63     		str	r2, [r3, #56]
 983:./Libraries/STM32F4xx_HAL_Driver/Src/stm32f4xx_hal_sd.c ****     
 984:./Libraries/STM32F4xx_HAL_Driver/Src/stm32f4xx_hal_sd.c ****     if((BlockAdd + NumberOfBlocks) > (hsd->SdCard.LogBlockNbr))
 1695              		.loc 1 984 18
 1696 003c 7A68     		ldr	r2, [r7, #4]
 1697 003e 3B68     		ldr	r3, [r7]
 1698 0040 1A44     		add	r2, r2, r3
 1699              		.loc 1 984 50
 1700 0042 FB68     		ldr	r3, [r7, #12]
 1701 0044 DB6D     		ldr	r3, [r3, #92]
 1702              		.loc 1 984 7
ARM GAS  /tmp/ccMhfXg8.s 			page 48


 1703 0046 9A42     		cmp	r2, r3
 1704 0048 07D9     		bls	.L77
 985:./Libraries/STM32F4xx_HAL_Driver/Src/stm32f4xx_hal_sd.c ****     {
 986:./Libraries/STM32F4xx_HAL_Driver/Src/stm32f4xx_hal_sd.c ****       hsd->ErrorCode |= HAL_SD_ERROR_ADDR_OUT_OF_RANGE;
 1705              		.loc 1 986 22
 1706 004a FB68     		ldr	r3, [r7, #12]
 1707 004c 9B6B     		ldr	r3, [r3, #56]
 1708 004e 43F00072 		orr	r2, r3, #33554432
 1709 0052 FB68     		ldr	r3, [r7, #12]
 1710 0054 9A63     		str	r2, [r3, #56]
 987:./Libraries/STM32F4xx_HAL_Driver/Src/stm32f4xx_hal_sd.c ****       return HAL_ERROR;
 1711              		.loc 1 987 14
 1712 0056 0123     		movs	r3, #1
 1713 0058 80E0     		b	.L83
 1714              	.L77:
 988:./Libraries/STM32F4xx_HAL_Driver/Src/stm32f4xx_hal_sd.c ****     }
 989:./Libraries/STM32F4xx_HAL_Driver/Src/stm32f4xx_hal_sd.c ****     
 990:./Libraries/STM32F4xx_HAL_Driver/Src/stm32f4xx_hal_sd.c ****     hsd->State = HAL_SD_STATE_BUSY;
 1715              		.loc 1 990 16
 1716 005a FB68     		ldr	r3, [r7, #12]
 1717 005c 0322     		movs	r2, #3
 1718 005e 83F83420 		strb	r2, [r3, #52]
 991:./Libraries/STM32F4xx_HAL_Driver/Src/stm32f4xx_hal_sd.c ****     
 992:./Libraries/STM32F4xx_HAL_Driver/Src/stm32f4xx_hal_sd.c ****     /* Initialize data control register */
 993:./Libraries/STM32F4xx_HAL_Driver/Src/stm32f4xx_hal_sd.c ****     hsd->Instance->DCTRL = 0U;
 1719              		.loc 1 993 8
 1720 0062 FB68     		ldr	r3, [r7, #12]
 1721 0064 1B68     		ldr	r3, [r3]
 1722              		.loc 1 993 26
 1723 0066 0022     		movs	r2, #0
 1724 0068 DA62     		str	r2, [r3, #44]
 994:./Libraries/STM32F4xx_HAL_Driver/Src/stm32f4xx_hal_sd.c ****     
 995:./Libraries/STM32F4xx_HAL_Driver/Src/stm32f4xx_hal_sd.c ****     hsd->pTxBuffPtr = (uint32_t *)pData;
 1725              		.loc 1 995 21
 1726 006a FB68     		ldr	r3, [r7, #12]
 1727 006c BA68     		ldr	r2, [r7, #8]
 1728 006e 1A62     		str	r2, [r3, #32]
 996:./Libraries/STM32F4xx_HAL_Driver/Src/stm32f4xx_hal_sd.c ****     hsd->TxXferSize = BLOCKSIZE * NumberOfBlocks;
 1729              		.loc 1 996 33
 1730 0070 3B68     		ldr	r3, [r7]
 1731 0072 5A02     		lsls	r2, r3, #9
 1732              		.loc 1 996 21
 1733 0074 FB68     		ldr	r3, [r7, #12]
 1734 0076 5A62     		str	r2, [r3, #36]
 997:./Libraries/STM32F4xx_HAL_Driver/Src/stm32f4xx_hal_sd.c ****     
 998:./Libraries/STM32F4xx_HAL_Driver/Src/stm32f4xx_hal_sd.c ****     /* Enable transfer interrupts */
 999:./Libraries/STM32F4xx_HAL_Driver/Src/stm32f4xx_hal_sd.c **** #ifdef SDIO_STA_STBITER
1000:./Libraries/STM32F4xx_HAL_Driver/Src/stm32f4xx_hal_sd.c ****     __HAL_SD_ENABLE_IT(hsd, (SDIO_IT_DCRCFAIL | SDIO_IT_DTIMEOUT | SDIO_IT_TXUNDERR | SDIO_IT_DATAE
1001:./Libraries/STM32F4xx_HAL_Driver/Src/stm32f4xx_hal_sd.c **** #else /* SDIO_STA_STBITERR not defined */
1002:./Libraries/STM32F4xx_HAL_Driver/Src/stm32f4xx_hal_sd.c ****     __HAL_SD_ENABLE_IT(hsd, (SDIO_IT_DCRCFAIL | SDIO_IT_DTIMEOUT | SDIO_IT_TXUNDERR | SDIO_IT_DATAE
 1735              		.loc 1 1002 5
 1736 0078 FB68     		ldr	r3, [r7, #12]
 1737 007a 1B68     		ldr	r3, [r3]
 1738 007c DB6B     		ldr	r3, [r3, #60]
 1739 007e FA68     		ldr	r2, [r7, #12]
 1740 0080 1268     		ldr	r2, [r2]
 1741 0082 43F48243 		orr	r3, r3, #16640
ARM GAS  /tmp/ccMhfXg8.s 			page 49


 1742 0086 43F01A03 		orr	r3, r3, #26
 1743 008a D363     		str	r3, [r2, #60]
1003:./Libraries/STM32F4xx_HAL_Driver/Src/stm32f4xx_hal_sd.c **** #endif /* SDIO_STA_STBITERR */
1004:./Libraries/STM32F4xx_HAL_Driver/Src/stm32f4xx_hal_sd.c ****     
1005:./Libraries/STM32F4xx_HAL_Driver/Src/stm32f4xx_hal_sd.c ****     if(hsd->SdCard.CardType != CARD_SDHC_SDXC)
 1744              		.loc 1 1005 19
 1745 008c FB68     		ldr	r3, [r7, #12]
 1746 008e 5B6C     		ldr	r3, [r3, #68]
 1747              		.loc 1 1005 7
 1748 0090 012B     		cmp	r3, #1
 1749 0092 02D0     		beq	.L78
1006:./Libraries/STM32F4xx_HAL_Driver/Src/stm32f4xx_hal_sd.c ****     {
1007:./Libraries/STM32F4xx_HAL_Driver/Src/stm32f4xx_hal_sd.c ****       BlockAdd *= 512U;
 1750              		.loc 1 1007 16
 1751 0094 7B68     		ldr	r3, [r7, #4]
 1752 0096 5B02     		lsls	r3, r3, #9
 1753 0098 7B60     		str	r3, [r7, #4]
 1754              	.L78:
1008:./Libraries/STM32F4xx_HAL_Driver/Src/stm32f4xx_hal_sd.c ****     }
1009:./Libraries/STM32F4xx_HAL_Driver/Src/stm32f4xx_hal_sd.c ****     
1010:./Libraries/STM32F4xx_HAL_Driver/Src/stm32f4xx_hal_sd.c ****     /* Set Block Size for Card */ 
1011:./Libraries/STM32F4xx_HAL_Driver/Src/stm32f4xx_hal_sd.c ****     errorstate = SDMMC_CmdBlockLength(hsd->Instance, BLOCKSIZE);
 1755              		.loc 1 1011 18
 1756 009a FB68     		ldr	r3, [r7, #12]
 1757 009c 1B68     		ldr	r3, [r3]
 1758 009e 4FF40071 		mov	r1, #512
 1759 00a2 1846     		mov	r0, r3
 1760 00a4 FFF7FEFF 		bl	SDMMC_CmdBlockLength
 1761 00a8 F862     		str	r0, [r7, #44]
1012:./Libraries/STM32F4xx_HAL_Driver/Src/stm32f4xx_hal_sd.c ****     if(errorstate != HAL_SD_ERROR_NONE)
 1762              		.loc 1 1012 7
 1763 00aa FB6A     		ldr	r3, [r7, #44]
 1764 00ac 002B     		cmp	r3, #0
 1765 00ae 10D0     		beq	.L79
1013:./Libraries/STM32F4xx_HAL_Driver/Src/stm32f4xx_hal_sd.c ****     {
1014:./Libraries/STM32F4xx_HAL_Driver/Src/stm32f4xx_hal_sd.c ****       /* Clear all the static flags */
1015:./Libraries/STM32F4xx_HAL_Driver/Src/stm32f4xx_hal_sd.c ****       __HAL_SD_CLEAR_FLAG(hsd, SDIO_STATIC_FLAGS); 
 1766              		.loc 1 1015 7
 1767 00b0 FB68     		ldr	r3, [r7, #12]
 1768 00b2 1B68     		ldr	r3, [r3]
 1769 00b4 40F2FF52 		movw	r2, #1535
 1770 00b8 9A63     		str	r2, [r3, #56]
1016:./Libraries/STM32F4xx_HAL_Driver/Src/stm32f4xx_hal_sd.c ****       hsd->ErrorCode |= errorstate;
 1771              		.loc 1 1016 22
 1772 00ba FB68     		ldr	r3, [r7, #12]
 1773 00bc 9A6B     		ldr	r2, [r3, #56]
 1774 00be FB6A     		ldr	r3, [r7, #44]
 1775 00c0 1A43     		orrs	r2, r2, r3
 1776 00c2 FB68     		ldr	r3, [r7, #12]
 1777 00c4 9A63     		str	r2, [r3, #56]
1017:./Libraries/STM32F4xx_HAL_Driver/Src/stm32f4xx_hal_sd.c ****       hsd->State = HAL_SD_STATE_READY;
 1778              		.loc 1 1017 18
 1779 00c6 FB68     		ldr	r3, [r7, #12]
 1780 00c8 0122     		movs	r2, #1
 1781 00ca 83F83420 		strb	r2, [r3, #52]
1018:./Libraries/STM32F4xx_HAL_Driver/Src/stm32f4xx_hal_sd.c ****       return HAL_ERROR;
 1782              		.loc 1 1018 14
ARM GAS  /tmp/ccMhfXg8.s 			page 50


 1783 00ce 0123     		movs	r3, #1
 1784 00d0 44E0     		b	.L83
 1785              	.L79:
1019:./Libraries/STM32F4xx_HAL_Driver/Src/stm32f4xx_hal_sd.c ****     }
1020:./Libraries/STM32F4xx_HAL_Driver/Src/stm32f4xx_hal_sd.c ****     
1021:./Libraries/STM32F4xx_HAL_Driver/Src/stm32f4xx_hal_sd.c ****     /* Write Blocks in Polling mode */
1022:./Libraries/STM32F4xx_HAL_Driver/Src/stm32f4xx_hal_sd.c ****     if(NumberOfBlocks > 1U)
 1786              		.loc 1 1022 7
 1787 00d2 3B68     		ldr	r3, [r7]
 1788 00d4 012B     		cmp	r3, #1
 1789 00d6 0AD9     		bls	.L80
1023:./Libraries/STM32F4xx_HAL_Driver/Src/stm32f4xx_hal_sd.c ****     {
1024:./Libraries/STM32F4xx_HAL_Driver/Src/stm32f4xx_hal_sd.c ****       hsd->Context = (SD_CONTEXT_WRITE_MULTIPLE_BLOCK| SD_CONTEXT_IT);
 1790              		.loc 1 1024 20
 1791 00d8 FB68     		ldr	r3, [r7, #12]
 1792 00da 2822     		movs	r2, #40
 1793 00dc 1A63     		str	r2, [r3, #48]
1025:./Libraries/STM32F4xx_HAL_Driver/Src/stm32f4xx_hal_sd.c ****       
1026:./Libraries/STM32F4xx_HAL_Driver/Src/stm32f4xx_hal_sd.c ****       /* Write Multi Block command */ 
1027:./Libraries/STM32F4xx_HAL_Driver/Src/stm32f4xx_hal_sd.c ****       errorstate = SDMMC_CmdWriteMultiBlock(hsd->Instance, BlockAdd);
 1794              		.loc 1 1027 20
 1795 00de FB68     		ldr	r3, [r7, #12]
 1796 00e0 1B68     		ldr	r3, [r3]
 1797 00e2 7968     		ldr	r1, [r7, #4]
 1798 00e4 1846     		mov	r0, r3
 1799 00e6 FFF7FEFF 		bl	SDMMC_CmdWriteMultiBlock
 1800 00ea F862     		str	r0, [r7, #44]
 1801 00ec 09E0     		b	.L81
 1802              	.L80:
1028:./Libraries/STM32F4xx_HAL_Driver/Src/stm32f4xx_hal_sd.c ****     }
1029:./Libraries/STM32F4xx_HAL_Driver/Src/stm32f4xx_hal_sd.c ****     else
1030:./Libraries/STM32F4xx_HAL_Driver/Src/stm32f4xx_hal_sd.c ****     {
1031:./Libraries/STM32F4xx_HAL_Driver/Src/stm32f4xx_hal_sd.c ****       hsd->Context = (SD_CONTEXT_WRITE_SINGLE_BLOCK | SD_CONTEXT_IT);
 1803              		.loc 1 1031 20
 1804 00ee FB68     		ldr	r3, [r7, #12]
 1805 00f0 1822     		movs	r2, #24
 1806 00f2 1A63     		str	r2, [r3, #48]
1032:./Libraries/STM32F4xx_HAL_Driver/Src/stm32f4xx_hal_sd.c ****       
1033:./Libraries/STM32F4xx_HAL_Driver/Src/stm32f4xx_hal_sd.c ****       /* Write Single Block command */ 
1034:./Libraries/STM32F4xx_HAL_Driver/Src/stm32f4xx_hal_sd.c ****       errorstate = SDMMC_CmdWriteSingleBlock(hsd->Instance, BlockAdd);
 1807              		.loc 1 1034 20
 1808 00f4 FB68     		ldr	r3, [r7, #12]
 1809 00f6 1B68     		ldr	r3, [r3]
 1810 00f8 7968     		ldr	r1, [r7, #4]
 1811 00fa 1846     		mov	r0, r3
 1812 00fc FFF7FEFF 		bl	SDMMC_CmdWriteSingleBlock
 1813 0100 F862     		str	r0, [r7, #44]
 1814              	.L81:
1035:./Libraries/STM32F4xx_HAL_Driver/Src/stm32f4xx_hal_sd.c ****     }
1036:./Libraries/STM32F4xx_HAL_Driver/Src/stm32f4xx_hal_sd.c ****     if(errorstate != HAL_SD_ERROR_NONE)
 1815              		.loc 1 1036 7
 1816 0102 FB6A     		ldr	r3, [r7, #44]
 1817 0104 002B     		cmp	r3, #0
 1818 0106 10D0     		beq	.L82
1037:./Libraries/STM32F4xx_HAL_Driver/Src/stm32f4xx_hal_sd.c ****     {
1038:./Libraries/STM32F4xx_HAL_Driver/Src/stm32f4xx_hal_sd.c ****       /* Clear all the static flags */
1039:./Libraries/STM32F4xx_HAL_Driver/Src/stm32f4xx_hal_sd.c ****       __HAL_SD_CLEAR_FLAG(hsd, SDIO_STATIC_FLAGS); 
ARM GAS  /tmp/ccMhfXg8.s 			page 51


 1819              		.loc 1 1039 7
 1820 0108 FB68     		ldr	r3, [r7, #12]
 1821 010a 1B68     		ldr	r3, [r3]
 1822 010c 40F2FF52 		movw	r2, #1535
 1823 0110 9A63     		str	r2, [r3, #56]
1040:./Libraries/STM32F4xx_HAL_Driver/Src/stm32f4xx_hal_sd.c ****       hsd->ErrorCode |= errorstate;
 1824              		.loc 1 1040 22
 1825 0112 FB68     		ldr	r3, [r7, #12]
 1826 0114 9A6B     		ldr	r2, [r3, #56]
 1827 0116 FB6A     		ldr	r3, [r7, #44]
 1828 0118 1A43     		orrs	r2, r2, r3
 1829 011a FB68     		ldr	r3, [r7, #12]
 1830 011c 9A63     		str	r2, [r3, #56]
1041:./Libraries/STM32F4xx_HAL_Driver/Src/stm32f4xx_hal_sd.c ****       hsd->State = HAL_SD_STATE_READY;
 1831              		.loc 1 1041 18
 1832 011e FB68     		ldr	r3, [r7, #12]
 1833 0120 0122     		movs	r2, #1
 1834 0122 83F83420 		strb	r2, [r3, #52]
1042:./Libraries/STM32F4xx_HAL_Driver/Src/stm32f4xx_hal_sd.c ****       return HAL_ERROR;
 1835              		.loc 1 1042 14
 1836 0126 0123     		movs	r3, #1
 1837 0128 18E0     		b	.L83
 1838              	.L82:
1043:./Libraries/STM32F4xx_HAL_Driver/Src/stm32f4xx_hal_sd.c ****     }
1044:./Libraries/STM32F4xx_HAL_Driver/Src/stm32f4xx_hal_sd.c ****     
1045:./Libraries/STM32F4xx_HAL_Driver/Src/stm32f4xx_hal_sd.c ****     /* Configure the SD DPSM (Data Path State Machine) */ 
1046:./Libraries/STM32F4xx_HAL_Driver/Src/stm32f4xx_hal_sd.c ****     config.DataTimeOut   = SDMMC_DATATIMEOUT;
 1839              		.loc 1 1046 26
 1840 012a 4FF0FF33 		mov	r3, #-1
 1841 012e 7B61     		str	r3, [r7, #20]
1047:./Libraries/STM32F4xx_HAL_Driver/Src/stm32f4xx_hal_sd.c ****     config.DataLength    = BLOCKSIZE * NumberOfBlocks;
 1842              		.loc 1 1047 38
 1843 0130 3B68     		ldr	r3, [r7]
 1844 0132 5B02     		lsls	r3, r3, #9
 1845              		.loc 1 1047 26
 1846 0134 BB61     		str	r3, [r7, #24]
1048:./Libraries/STM32F4xx_HAL_Driver/Src/stm32f4xx_hal_sd.c ****     config.DataBlockSize = SDIO_DATABLOCK_SIZE_512B;
 1847              		.loc 1 1048 26
 1848 0136 9023     		movs	r3, #144
 1849 0138 FB61     		str	r3, [r7, #28]
1049:./Libraries/STM32F4xx_HAL_Driver/Src/stm32f4xx_hal_sd.c ****     config.TransferDir   = SDIO_TRANSFER_DIR_TO_CARD;
 1850              		.loc 1 1049 26
 1851 013a 0023     		movs	r3, #0
 1852 013c 3B62     		str	r3, [r7, #32]
1050:./Libraries/STM32F4xx_HAL_Driver/Src/stm32f4xx_hal_sd.c ****     config.TransferMode  = SDIO_TRANSFER_MODE_BLOCK;
 1853              		.loc 1 1050 26
 1854 013e 0023     		movs	r3, #0
 1855 0140 7B62     		str	r3, [r7, #36]
1051:./Libraries/STM32F4xx_HAL_Driver/Src/stm32f4xx_hal_sd.c ****     config.DPSM          = SDIO_DPSM_ENABLE;
 1856              		.loc 1 1051 26
 1857 0142 0123     		movs	r3, #1
 1858 0144 BB62     		str	r3, [r7, #40]
1052:./Libraries/STM32F4xx_HAL_Driver/Src/stm32f4xx_hal_sd.c ****     SDIO_ConfigData(hsd->Instance, &config);
 1859              		.loc 1 1052 5
 1860 0146 FB68     		ldr	r3, [r7, #12]
 1861 0148 1B68     		ldr	r3, [r3]
 1862 014a 07F11402 		add	r2, r7, #20
ARM GAS  /tmp/ccMhfXg8.s 			page 52


 1863 014e 1146     		mov	r1, r2
 1864 0150 1846     		mov	r0, r3
 1865 0152 FFF7FEFF 		bl	SDIO_ConfigData
1053:./Libraries/STM32F4xx_HAL_Driver/Src/stm32f4xx_hal_sd.c ****     
1054:./Libraries/STM32F4xx_HAL_Driver/Src/stm32f4xx_hal_sd.c ****     return HAL_OK;
 1866              		.loc 1 1054 12
 1867 0156 0023     		movs	r3, #0
 1868 0158 00E0     		b	.L83
 1869              	.L76:
1055:./Libraries/STM32F4xx_HAL_Driver/Src/stm32f4xx_hal_sd.c ****   }
1056:./Libraries/STM32F4xx_HAL_Driver/Src/stm32f4xx_hal_sd.c ****   else
1057:./Libraries/STM32F4xx_HAL_Driver/Src/stm32f4xx_hal_sd.c ****   {
1058:./Libraries/STM32F4xx_HAL_Driver/Src/stm32f4xx_hal_sd.c ****     return HAL_BUSY;
 1870              		.loc 1 1058 12
 1871 015a 0223     		movs	r3, #2
 1872              	.L83:
1059:./Libraries/STM32F4xx_HAL_Driver/Src/stm32f4xx_hal_sd.c ****   }
1060:./Libraries/STM32F4xx_HAL_Driver/Src/stm32f4xx_hal_sd.c **** }
 1873              		.loc 1 1060 1 discriminator 1
 1874 015c 1846     		mov	r0, r3
 1875 015e 3037     		adds	r7, r7, #48
 1876              	.LCFI45:
 1877              		.cfi_def_cfa_offset 8
 1878 0160 BD46     		mov	sp, r7
 1879              	.LCFI46:
 1880              		.cfi_def_cfa_register 13
 1881              		@ sp needed
 1882 0162 80BD     		pop	{r7, pc}
 1883              		.cfi_endproc
 1884              	.LFE134:
 1886              		.section	.text.HAL_SD_ReadBlocks_DMA,"ax",%progbits
 1887              		.align	1
 1888              		.global	HAL_SD_ReadBlocks_DMA
 1889              		.syntax unified
 1890              		.thumb
 1891              		.thumb_func
 1892              		.fpu fpv4-sp-d16
 1894              	HAL_SD_ReadBlocks_DMA:
 1895              	.LFB135:
1061:./Libraries/STM32F4xx_HAL_Driver/Src/stm32f4xx_hal_sd.c **** 
1062:./Libraries/STM32F4xx_HAL_Driver/Src/stm32f4xx_hal_sd.c **** /**
1063:./Libraries/STM32F4xx_HAL_Driver/Src/stm32f4xx_hal_sd.c ****   * @brief  Reads block(s) from a specified address in a card. The Data transfer 
1064:./Libraries/STM32F4xx_HAL_Driver/Src/stm32f4xx_hal_sd.c ****   *         is managed by DMA mode. 
1065:./Libraries/STM32F4xx_HAL_Driver/Src/stm32f4xx_hal_sd.c ****   * @note   This API should be followed by a check on the card state through
1066:./Libraries/STM32F4xx_HAL_Driver/Src/stm32f4xx_hal_sd.c ****   *         HAL_SD_GetCardState().
1067:./Libraries/STM32F4xx_HAL_Driver/Src/stm32f4xx_hal_sd.c ****   * @note   You could also check the DMA transfer process through the SD Rx 
1068:./Libraries/STM32F4xx_HAL_Driver/Src/stm32f4xx_hal_sd.c ****   *         interrupt event.
1069:./Libraries/STM32F4xx_HAL_Driver/Src/stm32f4xx_hal_sd.c ****   * @param  hsd Pointer SD handle                 
1070:./Libraries/STM32F4xx_HAL_Driver/Src/stm32f4xx_hal_sd.c ****   * @param  pData Pointer to the buffer that will contain the received data
1071:./Libraries/STM32F4xx_HAL_Driver/Src/stm32f4xx_hal_sd.c ****   * @param  BlockAdd Block Address from where data is to be read  
1072:./Libraries/STM32F4xx_HAL_Driver/Src/stm32f4xx_hal_sd.c ****   * @param  NumberOfBlocks Number of blocks to read.
1073:./Libraries/STM32F4xx_HAL_Driver/Src/stm32f4xx_hal_sd.c ****   * @retval HAL status
1074:./Libraries/STM32F4xx_HAL_Driver/Src/stm32f4xx_hal_sd.c ****   */
1075:./Libraries/STM32F4xx_HAL_Driver/Src/stm32f4xx_hal_sd.c **** HAL_StatusTypeDef HAL_SD_ReadBlocks_DMA(SD_HandleTypeDef *hsd, uint8_t *pData, uint32_t BlockAdd, u
1076:./Libraries/STM32F4xx_HAL_Driver/Src/stm32f4xx_hal_sd.c **** {
 1896              		.loc 1 1076 1
 1897              		.cfi_startproc
ARM GAS  /tmp/ccMhfXg8.s 			page 53


 1898              		@ args = 0, pretend = 0, frame = 48
 1899              		@ frame_needed = 1, uses_anonymous_args = 0
 1900 0000 80B5     		push	{r7, lr}
 1901              	.LCFI47:
 1902              		.cfi_def_cfa_offset 8
 1903              		.cfi_offset 7, -8
 1904              		.cfi_offset 14, -4
 1905 0002 8CB0     		sub	sp, sp, #48
 1906              	.LCFI48:
 1907              		.cfi_def_cfa_offset 56
 1908 0004 00AF     		add	r7, sp, #0
 1909              	.LCFI49:
 1910              		.cfi_def_cfa_register 7
 1911 0006 F860     		str	r0, [r7, #12]
 1912 0008 B960     		str	r1, [r7, #8]
 1913 000a 7A60     		str	r2, [r7, #4]
 1914 000c 3B60     		str	r3, [r7]
1077:./Libraries/STM32F4xx_HAL_Driver/Src/stm32f4xx_hal_sd.c ****   SDIO_DataInitTypeDef config;
1078:./Libraries/STM32F4xx_HAL_Driver/Src/stm32f4xx_hal_sd.c ****   uint32_t errorstate = HAL_SD_ERROR_NONE;
 1915              		.loc 1 1078 12
 1916 000e 0023     		movs	r3, #0
 1917 0010 FB62     		str	r3, [r7, #44]
1079:./Libraries/STM32F4xx_HAL_Driver/Src/stm32f4xx_hal_sd.c ****   
1080:./Libraries/STM32F4xx_HAL_Driver/Src/stm32f4xx_hal_sd.c ****   if(NULL == pData)
 1918              		.loc 1 1080 5
 1919 0012 BB68     		ldr	r3, [r7, #8]
 1920 0014 002B     		cmp	r3, #0
 1921 0016 07D1     		bne	.L85
1081:./Libraries/STM32F4xx_HAL_Driver/Src/stm32f4xx_hal_sd.c ****   {
1082:./Libraries/STM32F4xx_HAL_Driver/Src/stm32f4xx_hal_sd.c ****     hsd->ErrorCode |= HAL_SD_ERROR_PARAM;
 1922              		.loc 1 1082 20
 1923 0018 FB68     		ldr	r3, [r7, #12]
 1924 001a 9B6B     		ldr	r3, [r3, #56]
 1925 001c 43F00062 		orr	r2, r3, #134217728
 1926 0020 FB68     		ldr	r3, [r7, #12]
 1927 0022 9A63     		str	r2, [r3, #56]
1083:./Libraries/STM32F4xx_HAL_Driver/Src/stm32f4xx_hal_sd.c ****     return HAL_ERROR;
 1928              		.loc 1 1083 12
 1929 0024 0123     		movs	r3, #1
 1930 0026 ABE0     		b	.L94
 1931              	.L85:
1084:./Libraries/STM32F4xx_HAL_Driver/Src/stm32f4xx_hal_sd.c ****   }
1085:./Libraries/STM32F4xx_HAL_Driver/Src/stm32f4xx_hal_sd.c ****   
1086:./Libraries/STM32F4xx_HAL_Driver/Src/stm32f4xx_hal_sd.c ****   if(hsd->State == HAL_SD_STATE_READY)
 1932              		.loc 1 1086 9
 1933 0028 FB68     		ldr	r3, [r7, #12]
 1934 002a 93F83430 		ldrb	r3, [r3, #52]
 1935 002e DBB2     		uxtb	r3, r3
 1936              		.loc 1 1086 5
 1937 0030 012B     		cmp	r3, #1
 1938 0032 40F0A480 		bne	.L87
1087:./Libraries/STM32F4xx_HAL_Driver/Src/stm32f4xx_hal_sd.c ****   {
1088:./Libraries/STM32F4xx_HAL_Driver/Src/stm32f4xx_hal_sd.c ****     hsd->ErrorCode = HAL_DMA_ERROR_NONE;
 1939              		.loc 1 1088 20
 1940 0036 FB68     		ldr	r3, [r7, #12]
 1941 0038 0022     		movs	r2, #0
 1942 003a 9A63     		str	r2, [r3, #56]
ARM GAS  /tmp/ccMhfXg8.s 			page 54


1089:./Libraries/STM32F4xx_HAL_Driver/Src/stm32f4xx_hal_sd.c ****     
1090:./Libraries/STM32F4xx_HAL_Driver/Src/stm32f4xx_hal_sd.c ****     if((BlockAdd + NumberOfBlocks) > (hsd->SdCard.LogBlockNbr))
 1943              		.loc 1 1090 18
 1944 003c 7A68     		ldr	r2, [r7, #4]
 1945 003e 3B68     		ldr	r3, [r7]
 1946 0040 1A44     		add	r2, r2, r3
 1947              		.loc 1 1090 50
 1948 0042 FB68     		ldr	r3, [r7, #12]
 1949 0044 DB6D     		ldr	r3, [r3, #92]
 1950              		.loc 1 1090 7
 1951 0046 9A42     		cmp	r2, r3
 1952 0048 07D9     		bls	.L88
1091:./Libraries/STM32F4xx_HAL_Driver/Src/stm32f4xx_hal_sd.c ****     {
1092:./Libraries/STM32F4xx_HAL_Driver/Src/stm32f4xx_hal_sd.c ****       hsd->ErrorCode |= HAL_SD_ERROR_ADDR_OUT_OF_RANGE;
 1953              		.loc 1 1092 22
 1954 004a FB68     		ldr	r3, [r7, #12]
 1955 004c 9B6B     		ldr	r3, [r3, #56]
 1956 004e 43F00072 		orr	r2, r3, #33554432
 1957 0052 FB68     		ldr	r3, [r7, #12]
 1958 0054 9A63     		str	r2, [r3, #56]
1093:./Libraries/STM32F4xx_HAL_Driver/Src/stm32f4xx_hal_sd.c ****       return HAL_ERROR;
 1959              		.loc 1 1093 14
 1960 0056 0123     		movs	r3, #1
 1961 0058 92E0     		b	.L94
 1962              	.L88:
1094:./Libraries/STM32F4xx_HAL_Driver/Src/stm32f4xx_hal_sd.c ****     }
1095:./Libraries/STM32F4xx_HAL_Driver/Src/stm32f4xx_hal_sd.c ****     
1096:./Libraries/STM32F4xx_HAL_Driver/Src/stm32f4xx_hal_sd.c ****     hsd->State = HAL_SD_STATE_BUSY;
 1963              		.loc 1 1096 16
 1964 005a FB68     		ldr	r3, [r7, #12]
 1965 005c 0322     		movs	r2, #3
 1966 005e 83F83420 		strb	r2, [r3, #52]
1097:./Libraries/STM32F4xx_HAL_Driver/Src/stm32f4xx_hal_sd.c ****     
1098:./Libraries/STM32F4xx_HAL_Driver/Src/stm32f4xx_hal_sd.c ****     /* Initialize data control register */
1099:./Libraries/STM32F4xx_HAL_Driver/Src/stm32f4xx_hal_sd.c ****     hsd->Instance->DCTRL = 0U;
 1967              		.loc 1 1099 8
 1968 0062 FB68     		ldr	r3, [r7, #12]
 1969 0064 1B68     		ldr	r3, [r3]
 1970              		.loc 1 1099 26
 1971 0066 0022     		movs	r2, #0
 1972 0068 DA62     		str	r2, [r3, #44]
1100:./Libraries/STM32F4xx_HAL_Driver/Src/stm32f4xx_hal_sd.c ****     
1101:./Libraries/STM32F4xx_HAL_Driver/Src/stm32f4xx_hal_sd.c **** #ifdef SDIO_STA_STBITER
1102:./Libraries/STM32F4xx_HAL_Driver/Src/stm32f4xx_hal_sd.c ****     __HAL_SD_ENABLE_IT(hsd, (SDIO_IT_DCRCFAIL | SDIO_IT_DTIMEOUT | SDIO_IT_RXOVERR | SDIO_IT_DATAEN
1103:./Libraries/STM32F4xx_HAL_Driver/Src/stm32f4xx_hal_sd.c **** #else /* SDIO_STA_STBITERR not defined */
1104:./Libraries/STM32F4xx_HAL_Driver/Src/stm32f4xx_hal_sd.c ****     __HAL_SD_ENABLE_IT(hsd, (SDIO_IT_DCRCFAIL | SDIO_IT_DTIMEOUT | SDIO_IT_RXOVERR | SDIO_IT_DATAEN
 1973              		.loc 1 1104 5
 1974 006a FB68     		ldr	r3, [r7, #12]
 1975 006c 1B68     		ldr	r3, [r3]
 1976 006e DA6B     		ldr	r2, [r3, #60]
 1977 0070 FB68     		ldr	r3, [r7, #12]
 1978 0072 1B68     		ldr	r3, [r3]
 1979 0074 42F49572 		orr	r2, r2, #298
 1980 0078 DA63     		str	r2, [r3, #60]
1105:./Libraries/STM32F4xx_HAL_Driver/Src/stm32f4xx_hal_sd.c **** #endif /* SDIO_STA_STBITERR */
1106:./Libraries/STM32F4xx_HAL_Driver/Src/stm32f4xx_hal_sd.c ****     
1107:./Libraries/STM32F4xx_HAL_Driver/Src/stm32f4xx_hal_sd.c ****     /* Set the DMA transfer complete callback */
ARM GAS  /tmp/ccMhfXg8.s 			page 55


1108:./Libraries/STM32F4xx_HAL_Driver/Src/stm32f4xx_hal_sd.c ****     hsd->hdmarx->XferCpltCallback = SD_DMAReceiveCplt;
 1981              		.loc 1 1108 8
 1982 007a FB68     		ldr	r3, [r7, #12]
 1983 007c DB6B     		ldr	r3, [r3, #60]
 1984              		.loc 1 1108 35
 1985 007e 424A     		ldr	r2, .L95
 1986 0080 DA63     		str	r2, [r3, #60]
1109:./Libraries/STM32F4xx_HAL_Driver/Src/stm32f4xx_hal_sd.c ****     
1110:./Libraries/STM32F4xx_HAL_Driver/Src/stm32f4xx_hal_sd.c ****     /* Set the DMA error callback */
1111:./Libraries/STM32F4xx_HAL_Driver/Src/stm32f4xx_hal_sd.c ****     hsd->hdmarx->XferErrorCallback = SD_DMAError;
 1987              		.loc 1 1111 8
 1988 0082 FB68     		ldr	r3, [r7, #12]
 1989 0084 DB6B     		ldr	r3, [r3, #60]
 1990              		.loc 1 1111 36
 1991 0086 414A     		ldr	r2, .L95+4
 1992 0088 DA64     		str	r2, [r3, #76]
1112:./Libraries/STM32F4xx_HAL_Driver/Src/stm32f4xx_hal_sd.c ****     
1113:./Libraries/STM32F4xx_HAL_Driver/Src/stm32f4xx_hal_sd.c ****     /* Set the DMA Abort callback */
1114:./Libraries/STM32F4xx_HAL_Driver/Src/stm32f4xx_hal_sd.c ****     hsd->hdmarx->XferAbortCallback = NULL;
 1993              		.loc 1 1114 8
 1994 008a FB68     		ldr	r3, [r7, #12]
 1995 008c DB6B     		ldr	r3, [r3, #60]
 1996              		.loc 1 1114 36
 1997 008e 0022     		movs	r2, #0
 1998 0090 1A65     		str	r2, [r3, #80]
1115:./Libraries/STM32F4xx_HAL_Driver/Src/stm32f4xx_hal_sd.c ****     
1116:./Libraries/STM32F4xx_HAL_Driver/Src/stm32f4xx_hal_sd.c ****     /* Enable the DMA Channel */
1117:./Libraries/STM32F4xx_HAL_Driver/Src/stm32f4xx_hal_sd.c ****     HAL_DMA_Start_IT(hsd->hdmarx, (uint32_t)&hsd->Instance->FIFO, (uint32_t)pData, (uint32_t)(BLOCK
 1999              		.loc 1 1117 5
 2000 0092 FB68     		ldr	r3, [r7, #12]
 2001 0094 D86B     		ldr	r0, [r3, #60]
 2002              		.loc 1 1117 49
 2003 0096 FB68     		ldr	r3, [r7, #12]
 2004 0098 1B68     		ldr	r3, [r3]
 2005              		.loc 1 1117 45
 2006 009a 8033     		adds	r3, r3, #128
 2007              		.loc 1 1117 5
 2008 009c 1946     		mov	r1, r3
 2009 009e BA68     		ldr	r2, [r7, #8]
 2010              		.loc 1 1117 84
 2011 00a0 3B68     		ldr	r3, [r7]
 2012 00a2 5B02     		lsls	r3, r3, #9
 2013              		.loc 1 1117 5
 2014 00a4 9B08     		lsrs	r3, r3, #2
 2015 00a6 FFF7FEFF 		bl	HAL_DMA_Start_IT
1118:./Libraries/STM32F4xx_HAL_Driver/Src/stm32f4xx_hal_sd.c ****     
1119:./Libraries/STM32F4xx_HAL_Driver/Src/stm32f4xx_hal_sd.c ****     /* Enable SD DMA transfer */
1120:./Libraries/STM32F4xx_HAL_Driver/Src/stm32f4xx_hal_sd.c ****     __HAL_SD_DMA_ENABLE(hsd);
 2016              		.loc 1 1120 5
 2017 00aa 394B     		ldr	r3, .L95+8
 2018 00ac 0122     		movs	r2, #1
 2019 00ae 1A60     		str	r2, [r3]
1121:./Libraries/STM32F4xx_HAL_Driver/Src/stm32f4xx_hal_sd.c ****     
1122:./Libraries/STM32F4xx_HAL_Driver/Src/stm32f4xx_hal_sd.c ****     if(hsd->SdCard.CardType != CARD_SDHC_SDXC)
 2020              		.loc 1 1122 19
 2021 00b0 FB68     		ldr	r3, [r7, #12]
 2022 00b2 5B6C     		ldr	r3, [r3, #68]
ARM GAS  /tmp/ccMhfXg8.s 			page 56


 2023              		.loc 1 1122 7
 2024 00b4 012B     		cmp	r3, #1
 2025 00b6 02D0     		beq	.L89
1123:./Libraries/STM32F4xx_HAL_Driver/Src/stm32f4xx_hal_sd.c ****     {
1124:./Libraries/STM32F4xx_HAL_Driver/Src/stm32f4xx_hal_sd.c ****       BlockAdd *= 512U;
 2026              		.loc 1 1124 16
 2027 00b8 7B68     		ldr	r3, [r7, #4]
 2028 00ba 5B02     		lsls	r3, r3, #9
 2029 00bc 7B60     		str	r3, [r7, #4]
 2030              	.L89:
1125:./Libraries/STM32F4xx_HAL_Driver/Src/stm32f4xx_hal_sd.c ****     }
1126:./Libraries/STM32F4xx_HAL_Driver/Src/stm32f4xx_hal_sd.c ****     
1127:./Libraries/STM32F4xx_HAL_Driver/Src/stm32f4xx_hal_sd.c ****     /* Configure the SD DPSM (Data Path State Machine) */ 
1128:./Libraries/STM32F4xx_HAL_Driver/Src/stm32f4xx_hal_sd.c ****     config.DataTimeOut   = SDMMC_DATATIMEOUT;
 2031              		.loc 1 1128 26
 2032 00be 4FF0FF33 		mov	r3, #-1
 2033 00c2 7B61     		str	r3, [r7, #20]
1129:./Libraries/STM32F4xx_HAL_Driver/Src/stm32f4xx_hal_sd.c ****     config.DataLength    = BLOCKSIZE * NumberOfBlocks;
 2034              		.loc 1 1129 38
 2035 00c4 3B68     		ldr	r3, [r7]
 2036 00c6 5B02     		lsls	r3, r3, #9
 2037              		.loc 1 1129 26
 2038 00c8 BB61     		str	r3, [r7, #24]
1130:./Libraries/STM32F4xx_HAL_Driver/Src/stm32f4xx_hal_sd.c ****     config.DataBlockSize = SDIO_DATABLOCK_SIZE_512B;
 2039              		.loc 1 1130 26
 2040 00ca 9023     		movs	r3, #144
 2041 00cc FB61     		str	r3, [r7, #28]
1131:./Libraries/STM32F4xx_HAL_Driver/Src/stm32f4xx_hal_sd.c ****     config.TransferDir   = SDIO_TRANSFER_DIR_TO_SDIO;
 2042              		.loc 1 1131 26
 2043 00ce 0223     		movs	r3, #2
 2044 00d0 3B62     		str	r3, [r7, #32]
1132:./Libraries/STM32F4xx_HAL_Driver/Src/stm32f4xx_hal_sd.c ****     config.TransferMode  = SDIO_TRANSFER_MODE_BLOCK;
 2045              		.loc 1 1132 26
 2046 00d2 0023     		movs	r3, #0
 2047 00d4 7B62     		str	r3, [r7, #36]
1133:./Libraries/STM32F4xx_HAL_Driver/Src/stm32f4xx_hal_sd.c ****     config.DPSM          = SDIO_DPSM_ENABLE;
 2048              		.loc 1 1133 26
 2049 00d6 0123     		movs	r3, #1
 2050 00d8 BB62     		str	r3, [r7, #40]
1134:./Libraries/STM32F4xx_HAL_Driver/Src/stm32f4xx_hal_sd.c ****     SDIO_ConfigData(hsd->Instance, &config);
 2051              		.loc 1 1134 5
 2052 00da FB68     		ldr	r3, [r7, #12]
 2053 00dc 1B68     		ldr	r3, [r3]
 2054 00de 07F11402 		add	r2, r7, #20
 2055 00e2 1146     		mov	r1, r2
 2056 00e4 1846     		mov	r0, r3
 2057 00e6 FFF7FEFF 		bl	SDIO_ConfigData
1135:./Libraries/STM32F4xx_HAL_Driver/Src/stm32f4xx_hal_sd.c **** 
1136:./Libraries/STM32F4xx_HAL_Driver/Src/stm32f4xx_hal_sd.c ****     /* Set Block Size for Card */ 
1137:./Libraries/STM32F4xx_HAL_Driver/Src/stm32f4xx_hal_sd.c ****     errorstate = SDMMC_CmdBlockLength(hsd->Instance, BLOCKSIZE);
 2058              		.loc 1 1137 18
 2059 00ea FB68     		ldr	r3, [r7, #12]
 2060 00ec 1B68     		ldr	r3, [r3]
 2061 00ee 4FF40071 		mov	r1, #512
 2062 00f2 1846     		mov	r0, r3
 2063 00f4 FFF7FEFF 		bl	SDMMC_CmdBlockLength
 2064 00f8 F862     		str	r0, [r7, #44]
ARM GAS  /tmp/ccMhfXg8.s 			page 57


1138:./Libraries/STM32F4xx_HAL_Driver/Src/stm32f4xx_hal_sd.c ****     if(errorstate != HAL_SD_ERROR_NONE)
 2065              		.loc 1 1138 7
 2066 00fa FB6A     		ldr	r3, [r7, #44]
 2067 00fc 002B     		cmp	r3, #0
 2068 00fe 10D0     		beq	.L90
1139:./Libraries/STM32F4xx_HAL_Driver/Src/stm32f4xx_hal_sd.c ****     {
1140:./Libraries/STM32F4xx_HAL_Driver/Src/stm32f4xx_hal_sd.c ****       /* Clear all the static flags */
1141:./Libraries/STM32F4xx_HAL_Driver/Src/stm32f4xx_hal_sd.c ****       __HAL_SD_CLEAR_FLAG(hsd, SDIO_STATIC_FLAGS); 
 2069              		.loc 1 1141 7
 2070 0100 FB68     		ldr	r3, [r7, #12]
 2071 0102 1B68     		ldr	r3, [r3]
 2072 0104 40F2FF52 		movw	r2, #1535
 2073 0108 9A63     		str	r2, [r3, #56]
1142:./Libraries/STM32F4xx_HAL_Driver/Src/stm32f4xx_hal_sd.c ****       hsd->ErrorCode |= errorstate;
 2074              		.loc 1 1142 22
 2075 010a FB68     		ldr	r3, [r7, #12]
 2076 010c 9A6B     		ldr	r2, [r3, #56]
 2077 010e FB6A     		ldr	r3, [r7, #44]
 2078 0110 1A43     		orrs	r2, r2, r3
 2079 0112 FB68     		ldr	r3, [r7, #12]
 2080 0114 9A63     		str	r2, [r3, #56]
1143:./Libraries/STM32F4xx_HAL_Driver/Src/stm32f4xx_hal_sd.c ****       hsd->State = HAL_SD_STATE_READY;
 2081              		.loc 1 1143 18
 2082 0116 FB68     		ldr	r3, [r7, #12]
 2083 0118 0122     		movs	r2, #1
 2084 011a 83F83420 		strb	r2, [r3, #52]
1144:./Libraries/STM32F4xx_HAL_Driver/Src/stm32f4xx_hal_sd.c ****       return HAL_ERROR;
 2085              		.loc 1 1144 14
 2086 011e 0123     		movs	r3, #1
 2087 0120 2EE0     		b	.L94
 2088              	.L90:
1145:./Libraries/STM32F4xx_HAL_Driver/Src/stm32f4xx_hal_sd.c ****     }
1146:./Libraries/STM32F4xx_HAL_Driver/Src/stm32f4xx_hal_sd.c ****         
1147:./Libraries/STM32F4xx_HAL_Driver/Src/stm32f4xx_hal_sd.c ****     /* Read Blocks in DMA mode */
1148:./Libraries/STM32F4xx_HAL_Driver/Src/stm32f4xx_hal_sd.c ****     if(NumberOfBlocks > 1U)
 2089              		.loc 1 1148 7
 2090 0122 3B68     		ldr	r3, [r7]
 2091 0124 012B     		cmp	r3, #1
 2092 0126 0AD9     		bls	.L91
1149:./Libraries/STM32F4xx_HAL_Driver/Src/stm32f4xx_hal_sd.c ****     {
1150:./Libraries/STM32F4xx_HAL_Driver/Src/stm32f4xx_hal_sd.c ****       hsd->Context = (SD_CONTEXT_READ_MULTIPLE_BLOCK | SD_CONTEXT_DMA);
 2093              		.loc 1 1150 20
 2094 0128 FB68     		ldr	r3, [r7, #12]
 2095 012a 8222     		movs	r2, #130
 2096 012c 1A63     		str	r2, [r3, #48]
1151:./Libraries/STM32F4xx_HAL_Driver/Src/stm32f4xx_hal_sd.c ****       
1152:./Libraries/STM32F4xx_HAL_Driver/Src/stm32f4xx_hal_sd.c ****       /* Read Multi Block command */ 
1153:./Libraries/STM32F4xx_HAL_Driver/Src/stm32f4xx_hal_sd.c ****       errorstate = SDMMC_CmdReadMultiBlock(hsd->Instance, BlockAdd);
 2097              		.loc 1 1153 20
 2098 012e FB68     		ldr	r3, [r7, #12]
 2099 0130 1B68     		ldr	r3, [r3]
 2100 0132 7968     		ldr	r1, [r7, #4]
 2101 0134 1846     		mov	r0, r3
 2102 0136 FFF7FEFF 		bl	SDMMC_CmdReadMultiBlock
 2103 013a F862     		str	r0, [r7, #44]
 2104 013c 09E0     		b	.L92
 2105              	.L91:
ARM GAS  /tmp/ccMhfXg8.s 			page 58


1154:./Libraries/STM32F4xx_HAL_Driver/Src/stm32f4xx_hal_sd.c ****     }
1155:./Libraries/STM32F4xx_HAL_Driver/Src/stm32f4xx_hal_sd.c ****     else
1156:./Libraries/STM32F4xx_HAL_Driver/Src/stm32f4xx_hal_sd.c ****     {
1157:./Libraries/STM32F4xx_HAL_Driver/Src/stm32f4xx_hal_sd.c ****       hsd->Context = (SD_CONTEXT_READ_SINGLE_BLOCK | SD_CONTEXT_DMA);
 2106              		.loc 1 1157 20
 2107 013e FB68     		ldr	r3, [r7, #12]
 2108 0140 8122     		movs	r2, #129
 2109 0142 1A63     		str	r2, [r3, #48]
1158:./Libraries/STM32F4xx_HAL_Driver/Src/stm32f4xx_hal_sd.c ****       
1159:./Libraries/STM32F4xx_HAL_Driver/Src/stm32f4xx_hal_sd.c ****       /* Read Single Block command */ 
1160:./Libraries/STM32F4xx_HAL_Driver/Src/stm32f4xx_hal_sd.c ****       errorstate = SDMMC_CmdReadSingleBlock(hsd->Instance, BlockAdd);
 2110              		.loc 1 1160 20
 2111 0144 FB68     		ldr	r3, [r7, #12]
 2112 0146 1B68     		ldr	r3, [r3]
 2113 0148 7968     		ldr	r1, [r7, #4]
 2114 014a 1846     		mov	r0, r3
 2115 014c FFF7FEFF 		bl	SDMMC_CmdReadSingleBlock
 2116 0150 F862     		str	r0, [r7, #44]
 2117              	.L92:
1161:./Libraries/STM32F4xx_HAL_Driver/Src/stm32f4xx_hal_sd.c ****     }
1162:./Libraries/STM32F4xx_HAL_Driver/Src/stm32f4xx_hal_sd.c ****     if(errorstate != HAL_SD_ERROR_NONE)
 2118              		.loc 1 1162 7
 2119 0152 FB6A     		ldr	r3, [r7, #44]
 2120 0154 002B     		cmp	r3, #0
 2121 0156 10D0     		beq	.L93
1163:./Libraries/STM32F4xx_HAL_Driver/Src/stm32f4xx_hal_sd.c ****     {
1164:./Libraries/STM32F4xx_HAL_Driver/Src/stm32f4xx_hal_sd.c ****       /* Clear all the static flags */
1165:./Libraries/STM32F4xx_HAL_Driver/Src/stm32f4xx_hal_sd.c ****       __HAL_SD_CLEAR_FLAG(hsd, SDIO_STATIC_FLAGS); 
 2122              		.loc 1 1165 7
 2123 0158 FB68     		ldr	r3, [r7, #12]
 2124 015a 1B68     		ldr	r3, [r3]
 2125 015c 40F2FF52 		movw	r2, #1535
 2126 0160 9A63     		str	r2, [r3, #56]
1166:./Libraries/STM32F4xx_HAL_Driver/Src/stm32f4xx_hal_sd.c ****       hsd->ErrorCode |= errorstate;
 2127              		.loc 1 1166 22
 2128 0162 FB68     		ldr	r3, [r7, #12]
 2129 0164 9A6B     		ldr	r2, [r3, #56]
 2130 0166 FB6A     		ldr	r3, [r7, #44]
 2131 0168 1A43     		orrs	r2, r2, r3
 2132 016a FB68     		ldr	r3, [r7, #12]
 2133 016c 9A63     		str	r2, [r3, #56]
1167:./Libraries/STM32F4xx_HAL_Driver/Src/stm32f4xx_hal_sd.c ****       hsd->State = HAL_SD_STATE_READY;
 2134              		.loc 1 1167 18
 2135 016e FB68     		ldr	r3, [r7, #12]
 2136 0170 0122     		movs	r2, #1
 2137 0172 83F83420 		strb	r2, [r3, #52]
1168:./Libraries/STM32F4xx_HAL_Driver/Src/stm32f4xx_hal_sd.c ****       return HAL_ERROR;
 2138              		.loc 1 1168 14
 2139 0176 0123     		movs	r3, #1
 2140 0178 02E0     		b	.L94
 2141              	.L93:
1169:./Libraries/STM32F4xx_HAL_Driver/Src/stm32f4xx_hal_sd.c ****     }
1170:./Libraries/STM32F4xx_HAL_Driver/Src/stm32f4xx_hal_sd.c **** 
1171:./Libraries/STM32F4xx_HAL_Driver/Src/stm32f4xx_hal_sd.c ****     return HAL_OK;
 2142              		.loc 1 1171 12
 2143 017a 0023     		movs	r3, #0
 2144 017c 00E0     		b	.L94
ARM GAS  /tmp/ccMhfXg8.s 			page 59


 2145              	.L87:
1172:./Libraries/STM32F4xx_HAL_Driver/Src/stm32f4xx_hal_sd.c ****   }
1173:./Libraries/STM32F4xx_HAL_Driver/Src/stm32f4xx_hal_sd.c ****   else
1174:./Libraries/STM32F4xx_HAL_Driver/Src/stm32f4xx_hal_sd.c ****   {
1175:./Libraries/STM32F4xx_HAL_Driver/Src/stm32f4xx_hal_sd.c ****     return HAL_BUSY;
 2146              		.loc 1 1175 12
 2147 017e 0223     		movs	r3, #2
 2148              	.L94:
1176:./Libraries/STM32F4xx_HAL_Driver/Src/stm32f4xx_hal_sd.c ****   }
1177:./Libraries/STM32F4xx_HAL_Driver/Src/stm32f4xx_hal_sd.c **** }
 2149              		.loc 1 1177 1 discriminator 1
 2150 0180 1846     		mov	r0, r3
 2151 0182 3037     		adds	r7, r7, #48
 2152              	.LCFI50:
 2153              		.cfi_def_cfa_offset 8
 2154 0184 BD46     		mov	sp, r7
 2155              	.LCFI51:
 2156              		.cfi_def_cfa_register 13
 2157              		@ sp needed
 2158 0186 80BD     		pop	{r7, pc}
 2159              	.L96:
 2160              		.align	2
 2161              	.L95:
 2162 0188 00000000 		.word	SD_DMAReceiveCplt
 2163 018c 00000000 		.word	SD_DMAError
 2164 0190 8C852542 		.word	1109755276
 2165              		.cfi_endproc
 2166              	.LFE135:
 2168              		.section	.text.HAL_SD_WriteBlocks_DMA,"ax",%progbits
 2169              		.align	1
 2170              		.global	HAL_SD_WriteBlocks_DMA
 2171              		.syntax unified
 2172              		.thumb
 2173              		.thumb_func
 2174              		.fpu fpv4-sp-d16
 2176              	HAL_SD_WriteBlocks_DMA:
 2177              	.LFB136:
1178:./Libraries/STM32F4xx_HAL_Driver/Src/stm32f4xx_hal_sd.c **** 
1179:./Libraries/STM32F4xx_HAL_Driver/Src/stm32f4xx_hal_sd.c **** /**
1180:./Libraries/STM32F4xx_HAL_Driver/Src/stm32f4xx_hal_sd.c ****   * @brief  Writes block(s) to a specified address in a card. The Data transfer 
1181:./Libraries/STM32F4xx_HAL_Driver/Src/stm32f4xx_hal_sd.c ****   *         is managed by DMA mode. 
1182:./Libraries/STM32F4xx_HAL_Driver/Src/stm32f4xx_hal_sd.c ****   * @note   This API should be followed by a check on the card state through
1183:./Libraries/STM32F4xx_HAL_Driver/Src/stm32f4xx_hal_sd.c ****   *         HAL_SD_GetCardState().
1184:./Libraries/STM32F4xx_HAL_Driver/Src/stm32f4xx_hal_sd.c ****   * @note   You could also check the DMA transfer process through the SD Tx 
1185:./Libraries/STM32F4xx_HAL_Driver/Src/stm32f4xx_hal_sd.c ****   *         interrupt event.
1186:./Libraries/STM32F4xx_HAL_Driver/Src/stm32f4xx_hal_sd.c ****   * @param  hsd Pointer to SD handle
1187:./Libraries/STM32F4xx_HAL_Driver/Src/stm32f4xx_hal_sd.c ****   * @param  pData Pointer to the buffer that will contain the data to transmit
1188:./Libraries/STM32F4xx_HAL_Driver/Src/stm32f4xx_hal_sd.c ****   * @param  BlockAdd Block Address where data will be written  
1189:./Libraries/STM32F4xx_HAL_Driver/Src/stm32f4xx_hal_sd.c ****   * @param  NumberOfBlocks Number of blocks to write
1190:./Libraries/STM32F4xx_HAL_Driver/Src/stm32f4xx_hal_sd.c ****   * @retval HAL status
1191:./Libraries/STM32F4xx_HAL_Driver/Src/stm32f4xx_hal_sd.c ****   */
1192:./Libraries/STM32F4xx_HAL_Driver/Src/stm32f4xx_hal_sd.c **** HAL_StatusTypeDef HAL_SD_WriteBlocks_DMA(SD_HandleTypeDef *hsd, uint8_t *pData, uint32_t BlockAdd, 
1193:./Libraries/STM32F4xx_HAL_Driver/Src/stm32f4xx_hal_sd.c **** {
 2178              		.loc 1 1193 1
 2179              		.cfi_startproc
 2180              		@ args = 0, pretend = 0, frame = 48
 2181              		@ frame_needed = 1, uses_anonymous_args = 0
ARM GAS  /tmp/ccMhfXg8.s 			page 60


 2182 0000 80B5     		push	{r7, lr}
 2183              	.LCFI52:
 2184              		.cfi_def_cfa_offset 8
 2185              		.cfi_offset 7, -8
 2186              		.cfi_offset 14, -4
 2187 0002 8CB0     		sub	sp, sp, #48
 2188              	.LCFI53:
 2189              		.cfi_def_cfa_offset 56
 2190 0004 00AF     		add	r7, sp, #0
 2191              	.LCFI54:
 2192              		.cfi_def_cfa_register 7
 2193 0006 F860     		str	r0, [r7, #12]
 2194 0008 B960     		str	r1, [r7, #8]
 2195 000a 7A60     		str	r2, [r7, #4]
 2196 000c 3B60     		str	r3, [r7]
1194:./Libraries/STM32F4xx_HAL_Driver/Src/stm32f4xx_hal_sd.c ****   SDIO_DataInitTypeDef config;
1195:./Libraries/STM32F4xx_HAL_Driver/Src/stm32f4xx_hal_sd.c ****   uint32_t errorstate = HAL_SD_ERROR_NONE;
 2197              		.loc 1 1195 12
 2198 000e 0023     		movs	r3, #0
 2199 0010 FB62     		str	r3, [r7, #44]
1196:./Libraries/STM32F4xx_HAL_Driver/Src/stm32f4xx_hal_sd.c ****   
1197:./Libraries/STM32F4xx_HAL_Driver/Src/stm32f4xx_hal_sd.c ****   if(NULL == pData)
 2200              		.loc 1 1197 5
 2201 0012 BB68     		ldr	r3, [r7, #8]
 2202 0014 002B     		cmp	r3, #0
 2203 0016 07D1     		bne	.L98
1198:./Libraries/STM32F4xx_HAL_Driver/Src/stm32f4xx_hal_sd.c ****   {
1199:./Libraries/STM32F4xx_HAL_Driver/Src/stm32f4xx_hal_sd.c ****     hsd->ErrorCode |= HAL_SD_ERROR_PARAM;
 2204              		.loc 1 1199 20
 2205 0018 FB68     		ldr	r3, [r7, #12]
 2206 001a 9B6B     		ldr	r3, [r3, #56]
 2207 001c 43F00062 		orr	r2, r3, #134217728
 2208 0020 FB68     		ldr	r3, [r7, #12]
 2209 0022 9A63     		str	r2, [r3, #56]
1200:./Libraries/STM32F4xx_HAL_Driver/Src/stm32f4xx_hal_sd.c ****     return HAL_ERROR;
 2210              		.loc 1 1200 12
 2211 0024 0123     		movs	r3, #1
 2212 0026 ABE0     		b	.L107
 2213              	.L98:
1201:./Libraries/STM32F4xx_HAL_Driver/Src/stm32f4xx_hal_sd.c ****   }
1202:./Libraries/STM32F4xx_HAL_Driver/Src/stm32f4xx_hal_sd.c ****   
1203:./Libraries/STM32F4xx_HAL_Driver/Src/stm32f4xx_hal_sd.c ****   if(hsd->State == HAL_SD_STATE_READY)
 2214              		.loc 1 1203 9
 2215 0028 FB68     		ldr	r3, [r7, #12]
 2216 002a 93F83430 		ldrb	r3, [r3, #52]
 2217 002e DBB2     		uxtb	r3, r3
 2218              		.loc 1 1203 5
 2219 0030 012B     		cmp	r3, #1
 2220 0032 40F0A480 		bne	.L100
1204:./Libraries/STM32F4xx_HAL_Driver/Src/stm32f4xx_hal_sd.c ****   {
1205:./Libraries/STM32F4xx_HAL_Driver/Src/stm32f4xx_hal_sd.c ****     hsd->ErrorCode = HAL_DMA_ERROR_NONE;
 2221              		.loc 1 1205 20
 2222 0036 FB68     		ldr	r3, [r7, #12]
 2223 0038 0022     		movs	r2, #0
 2224 003a 9A63     		str	r2, [r3, #56]
1206:./Libraries/STM32F4xx_HAL_Driver/Src/stm32f4xx_hal_sd.c ****     
1207:./Libraries/STM32F4xx_HAL_Driver/Src/stm32f4xx_hal_sd.c ****     if((BlockAdd + NumberOfBlocks) > (hsd->SdCard.LogBlockNbr))
ARM GAS  /tmp/ccMhfXg8.s 			page 61


 2225              		.loc 1 1207 18
 2226 003c 7A68     		ldr	r2, [r7, #4]
 2227 003e 3B68     		ldr	r3, [r7]
 2228 0040 1A44     		add	r2, r2, r3
 2229              		.loc 1 1207 50
 2230 0042 FB68     		ldr	r3, [r7, #12]
 2231 0044 DB6D     		ldr	r3, [r3, #92]
 2232              		.loc 1 1207 7
 2233 0046 9A42     		cmp	r2, r3
 2234 0048 07D9     		bls	.L101
1208:./Libraries/STM32F4xx_HAL_Driver/Src/stm32f4xx_hal_sd.c ****     {
1209:./Libraries/STM32F4xx_HAL_Driver/Src/stm32f4xx_hal_sd.c ****       hsd->ErrorCode |= HAL_SD_ERROR_ADDR_OUT_OF_RANGE;
 2235              		.loc 1 1209 22
 2236 004a FB68     		ldr	r3, [r7, #12]
 2237 004c 9B6B     		ldr	r3, [r3, #56]
 2238 004e 43F00072 		orr	r2, r3, #33554432
 2239 0052 FB68     		ldr	r3, [r7, #12]
 2240 0054 9A63     		str	r2, [r3, #56]
1210:./Libraries/STM32F4xx_HAL_Driver/Src/stm32f4xx_hal_sd.c ****       return HAL_ERROR;
 2241              		.loc 1 1210 14
 2242 0056 0123     		movs	r3, #1
 2243 0058 92E0     		b	.L107
 2244              	.L101:
1211:./Libraries/STM32F4xx_HAL_Driver/Src/stm32f4xx_hal_sd.c ****     }
1212:./Libraries/STM32F4xx_HAL_Driver/Src/stm32f4xx_hal_sd.c ****     
1213:./Libraries/STM32F4xx_HAL_Driver/Src/stm32f4xx_hal_sd.c ****     hsd->State = HAL_SD_STATE_BUSY;
 2245              		.loc 1 1213 16
 2246 005a FB68     		ldr	r3, [r7, #12]
 2247 005c 0322     		movs	r2, #3
 2248 005e 83F83420 		strb	r2, [r3, #52]
1214:./Libraries/STM32F4xx_HAL_Driver/Src/stm32f4xx_hal_sd.c ****     
1215:./Libraries/STM32F4xx_HAL_Driver/Src/stm32f4xx_hal_sd.c ****     /* Initialize data control register */
1216:./Libraries/STM32F4xx_HAL_Driver/Src/stm32f4xx_hal_sd.c ****     hsd->Instance->DCTRL = 0U;
 2249              		.loc 1 1216 8
 2250 0062 FB68     		ldr	r3, [r7, #12]
 2251 0064 1B68     		ldr	r3, [r3]
 2252              		.loc 1 1216 26
 2253 0066 0022     		movs	r2, #0
 2254 0068 DA62     		str	r2, [r3, #44]
1217:./Libraries/STM32F4xx_HAL_Driver/Src/stm32f4xx_hal_sd.c ****     
1218:./Libraries/STM32F4xx_HAL_Driver/Src/stm32f4xx_hal_sd.c ****     /* Enable SD Error interrupts */  
1219:./Libraries/STM32F4xx_HAL_Driver/Src/stm32f4xx_hal_sd.c **** #ifdef SDIO_STA_STBITER
1220:./Libraries/STM32F4xx_HAL_Driver/Src/stm32f4xx_hal_sd.c ****     __HAL_SD_ENABLE_IT(hsd, (SDIO_IT_DCRCFAIL | SDIO_IT_DTIMEOUT | SDIO_IT_TXUNDERR | SDIO_IT_STBIT
1221:./Libraries/STM32F4xx_HAL_Driver/Src/stm32f4xx_hal_sd.c **** #else /* SDIO_STA_STBITERR not defined */
1222:./Libraries/STM32F4xx_HAL_Driver/Src/stm32f4xx_hal_sd.c ****     __HAL_SD_ENABLE_IT(hsd, (SDIO_IT_DCRCFAIL | SDIO_IT_DTIMEOUT | SDIO_IT_TXUNDERR));    
 2255              		.loc 1 1222 5
 2256 006a FB68     		ldr	r3, [r7, #12]
 2257 006c 1B68     		ldr	r3, [r3]
 2258 006e DA6B     		ldr	r2, [r3, #60]
 2259 0070 FB68     		ldr	r3, [r7, #12]
 2260 0072 1B68     		ldr	r3, [r3]
 2261 0074 42F01A02 		orr	r2, r2, #26
 2262 0078 DA63     		str	r2, [r3, #60]
1223:./Libraries/STM32F4xx_HAL_Driver/Src/stm32f4xx_hal_sd.c **** #endif /* SDIO_STA_STBITERR */
1224:./Libraries/STM32F4xx_HAL_Driver/Src/stm32f4xx_hal_sd.c ****     
1225:./Libraries/STM32F4xx_HAL_Driver/Src/stm32f4xx_hal_sd.c ****     /* Set the DMA transfer complete callback */
1226:./Libraries/STM32F4xx_HAL_Driver/Src/stm32f4xx_hal_sd.c ****     hsd->hdmatx->XferCpltCallback = SD_DMATransmitCplt;
ARM GAS  /tmp/ccMhfXg8.s 			page 62


 2263              		.loc 1 1226 8
 2264 007a FB68     		ldr	r3, [r7, #12]
 2265 007c 1B6C     		ldr	r3, [r3, #64]
 2266              		.loc 1 1226 35
 2267 007e 424A     		ldr	r2, .L108
 2268 0080 DA63     		str	r2, [r3, #60]
1227:./Libraries/STM32F4xx_HAL_Driver/Src/stm32f4xx_hal_sd.c ****     
1228:./Libraries/STM32F4xx_HAL_Driver/Src/stm32f4xx_hal_sd.c ****     /* Set the DMA error callback */
1229:./Libraries/STM32F4xx_HAL_Driver/Src/stm32f4xx_hal_sd.c ****     hsd->hdmatx->XferErrorCallback = SD_DMAError;
 2269              		.loc 1 1229 8
 2270 0082 FB68     		ldr	r3, [r7, #12]
 2271 0084 1B6C     		ldr	r3, [r3, #64]
 2272              		.loc 1 1229 36
 2273 0086 414A     		ldr	r2, .L108+4
 2274 0088 DA64     		str	r2, [r3, #76]
1230:./Libraries/STM32F4xx_HAL_Driver/Src/stm32f4xx_hal_sd.c ****     
1231:./Libraries/STM32F4xx_HAL_Driver/Src/stm32f4xx_hal_sd.c ****     /* Set the DMA Abort callback */
1232:./Libraries/STM32F4xx_HAL_Driver/Src/stm32f4xx_hal_sd.c ****     hsd->hdmatx->XferAbortCallback = NULL;
 2275              		.loc 1 1232 8
 2276 008a FB68     		ldr	r3, [r7, #12]
 2277 008c 1B6C     		ldr	r3, [r3, #64]
 2278              		.loc 1 1232 36
 2279 008e 0022     		movs	r2, #0
 2280 0090 1A65     		str	r2, [r3, #80]
1233:./Libraries/STM32F4xx_HAL_Driver/Src/stm32f4xx_hal_sd.c ****     
1234:./Libraries/STM32F4xx_HAL_Driver/Src/stm32f4xx_hal_sd.c ****     if(hsd->SdCard.CardType != CARD_SDHC_SDXC)
 2281              		.loc 1 1234 19
 2282 0092 FB68     		ldr	r3, [r7, #12]
 2283 0094 5B6C     		ldr	r3, [r3, #68]
 2284              		.loc 1 1234 7
 2285 0096 012B     		cmp	r3, #1
 2286 0098 02D0     		beq	.L102
1235:./Libraries/STM32F4xx_HAL_Driver/Src/stm32f4xx_hal_sd.c ****     {
1236:./Libraries/STM32F4xx_HAL_Driver/Src/stm32f4xx_hal_sd.c ****       BlockAdd *= 512U;
 2287              		.loc 1 1236 16
 2288 009a 7B68     		ldr	r3, [r7, #4]
 2289 009c 5B02     		lsls	r3, r3, #9
 2290 009e 7B60     		str	r3, [r7, #4]
 2291              	.L102:
1237:./Libraries/STM32F4xx_HAL_Driver/Src/stm32f4xx_hal_sd.c ****     }
1238:./Libraries/STM32F4xx_HAL_Driver/Src/stm32f4xx_hal_sd.c ****     
1239:./Libraries/STM32F4xx_HAL_Driver/Src/stm32f4xx_hal_sd.c ****     /* Set Block Size for Card */ 
1240:./Libraries/STM32F4xx_HAL_Driver/Src/stm32f4xx_hal_sd.c ****     errorstate = SDMMC_CmdBlockLength(hsd->Instance, BLOCKSIZE);
 2292              		.loc 1 1240 18
 2293 00a0 FB68     		ldr	r3, [r7, #12]
 2294 00a2 1B68     		ldr	r3, [r3]
 2295 00a4 4FF40071 		mov	r1, #512
 2296 00a8 1846     		mov	r0, r3
 2297 00aa FFF7FEFF 		bl	SDMMC_CmdBlockLength
 2298 00ae F862     		str	r0, [r7, #44]
1241:./Libraries/STM32F4xx_HAL_Driver/Src/stm32f4xx_hal_sd.c ****     if(errorstate != HAL_SD_ERROR_NONE)
 2299              		.loc 1 1241 7
 2300 00b0 FB6A     		ldr	r3, [r7, #44]
 2301 00b2 002B     		cmp	r3, #0
 2302 00b4 10D0     		beq	.L103
1242:./Libraries/STM32F4xx_HAL_Driver/Src/stm32f4xx_hal_sd.c ****     {
1243:./Libraries/STM32F4xx_HAL_Driver/Src/stm32f4xx_hal_sd.c ****       /* Clear all the static flags */
ARM GAS  /tmp/ccMhfXg8.s 			page 63


1244:./Libraries/STM32F4xx_HAL_Driver/Src/stm32f4xx_hal_sd.c ****       __HAL_SD_CLEAR_FLAG(hsd, SDIO_STATIC_FLAGS); 
 2303              		.loc 1 1244 7
 2304 00b6 FB68     		ldr	r3, [r7, #12]
 2305 00b8 1B68     		ldr	r3, [r3]
 2306 00ba 40F2FF52 		movw	r2, #1535
 2307 00be 9A63     		str	r2, [r3, #56]
1245:./Libraries/STM32F4xx_HAL_Driver/Src/stm32f4xx_hal_sd.c ****       hsd->ErrorCode |= errorstate;
 2308              		.loc 1 1245 22
 2309 00c0 FB68     		ldr	r3, [r7, #12]
 2310 00c2 9A6B     		ldr	r2, [r3, #56]
 2311 00c4 FB6A     		ldr	r3, [r7, #44]
 2312 00c6 1A43     		orrs	r2, r2, r3
 2313 00c8 FB68     		ldr	r3, [r7, #12]
 2314 00ca 9A63     		str	r2, [r3, #56]
1246:./Libraries/STM32F4xx_HAL_Driver/Src/stm32f4xx_hal_sd.c ****       hsd->State = HAL_SD_STATE_READY;
 2315              		.loc 1 1246 18
 2316 00cc FB68     		ldr	r3, [r7, #12]
 2317 00ce 0122     		movs	r2, #1
 2318 00d0 83F83420 		strb	r2, [r3, #52]
1247:./Libraries/STM32F4xx_HAL_Driver/Src/stm32f4xx_hal_sd.c ****       return HAL_ERROR;
 2319              		.loc 1 1247 14
 2320 00d4 0123     		movs	r3, #1
 2321 00d6 53E0     		b	.L107
 2322              	.L103:
1248:./Libraries/STM32F4xx_HAL_Driver/Src/stm32f4xx_hal_sd.c ****     }
1249:./Libraries/STM32F4xx_HAL_Driver/Src/stm32f4xx_hal_sd.c ****     
1250:./Libraries/STM32F4xx_HAL_Driver/Src/stm32f4xx_hal_sd.c ****     /* Write Blocks in Polling mode */
1251:./Libraries/STM32F4xx_HAL_Driver/Src/stm32f4xx_hal_sd.c ****     if(NumberOfBlocks > 1U)
 2323              		.loc 1 1251 7
 2324 00d8 3B68     		ldr	r3, [r7]
 2325 00da 012B     		cmp	r3, #1
 2326 00dc 0AD9     		bls	.L104
1252:./Libraries/STM32F4xx_HAL_Driver/Src/stm32f4xx_hal_sd.c ****     {
1253:./Libraries/STM32F4xx_HAL_Driver/Src/stm32f4xx_hal_sd.c ****       hsd->Context = (SD_CONTEXT_WRITE_MULTIPLE_BLOCK | SD_CONTEXT_DMA);
 2327              		.loc 1 1253 20
 2328 00de FB68     		ldr	r3, [r7, #12]
 2329 00e0 A022     		movs	r2, #160
 2330 00e2 1A63     		str	r2, [r3, #48]
1254:./Libraries/STM32F4xx_HAL_Driver/Src/stm32f4xx_hal_sd.c ****       
1255:./Libraries/STM32F4xx_HAL_Driver/Src/stm32f4xx_hal_sd.c ****       /* Write Multi Block command */ 
1256:./Libraries/STM32F4xx_HAL_Driver/Src/stm32f4xx_hal_sd.c ****       errorstate = SDMMC_CmdWriteMultiBlock(hsd->Instance, BlockAdd);
 2331              		.loc 1 1256 20
 2332 00e4 FB68     		ldr	r3, [r7, #12]
 2333 00e6 1B68     		ldr	r3, [r3]
 2334 00e8 7968     		ldr	r1, [r7, #4]
 2335 00ea 1846     		mov	r0, r3
 2336 00ec FFF7FEFF 		bl	SDMMC_CmdWriteMultiBlock
 2337 00f0 F862     		str	r0, [r7, #44]
 2338 00f2 09E0     		b	.L105
 2339              	.L104:
1257:./Libraries/STM32F4xx_HAL_Driver/Src/stm32f4xx_hal_sd.c ****     }
1258:./Libraries/STM32F4xx_HAL_Driver/Src/stm32f4xx_hal_sd.c ****     else
1259:./Libraries/STM32F4xx_HAL_Driver/Src/stm32f4xx_hal_sd.c ****     {
1260:./Libraries/STM32F4xx_HAL_Driver/Src/stm32f4xx_hal_sd.c ****       hsd->Context = (SD_CONTEXT_WRITE_SINGLE_BLOCK | SD_CONTEXT_DMA);
 2340              		.loc 1 1260 20
 2341 00f4 FB68     		ldr	r3, [r7, #12]
 2342 00f6 9022     		movs	r2, #144
ARM GAS  /tmp/ccMhfXg8.s 			page 64


 2343 00f8 1A63     		str	r2, [r3, #48]
1261:./Libraries/STM32F4xx_HAL_Driver/Src/stm32f4xx_hal_sd.c ****       
1262:./Libraries/STM32F4xx_HAL_Driver/Src/stm32f4xx_hal_sd.c ****       /* Write Single Block command */
1263:./Libraries/STM32F4xx_HAL_Driver/Src/stm32f4xx_hal_sd.c ****       errorstate = SDMMC_CmdWriteSingleBlock(hsd->Instance, BlockAdd);
 2344              		.loc 1 1263 20
 2345 00fa FB68     		ldr	r3, [r7, #12]
 2346 00fc 1B68     		ldr	r3, [r3]
 2347 00fe 7968     		ldr	r1, [r7, #4]
 2348 0100 1846     		mov	r0, r3
 2349 0102 FFF7FEFF 		bl	SDMMC_CmdWriteSingleBlock
 2350 0106 F862     		str	r0, [r7, #44]
 2351              	.L105:
1264:./Libraries/STM32F4xx_HAL_Driver/Src/stm32f4xx_hal_sd.c ****     }
1265:./Libraries/STM32F4xx_HAL_Driver/Src/stm32f4xx_hal_sd.c ****     if(errorstate != HAL_SD_ERROR_NONE)
 2352              		.loc 1 1265 7
 2353 0108 FB6A     		ldr	r3, [r7, #44]
 2354 010a 002B     		cmp	r3, #0
 2355 010c 10D0     		beq	.L106
1266:./Libraries/STM32F4xx_HAL_Driver/Src/stm32f4xx_hal_sd.c ****     {
1267:./Libraries/STM32F4xx_HAL_Driver/Src/stm32f4xx_hal_sd.c ****       /* Clear all the static flags */
1268:./Libraries/STM32F4xx_HAL_Driver/Src/stm32f4xx_hal_sd.c ****       __HAL_SD_CLEAR_FLAG(hsd, SDIO_STATIC_FLAGS); 
 2356              		.loc 1 1268 7
 2357 010e FB68     		ldr	r3, [r7, #12]
 2358 0110 1B68     		ldr	r3, [r3]
 2359 0112 40F2FF52 		movw	r2, #1535
 2360 0116 9A63     		str	r2, [r3, #56]
1269:./Libraries/STM32F4xx_HAL_Driver/Src/stm32f4xx_hal_sd.c ****       hsd->ErrorCode |= errorstate;
 2361              		.loc 1 1269 22
 2362 0118 FB68     		ldr	r3, [r7, #12]
 2363 011a 9A6B     		ldr	r2, [r3, #56]
 2364 011c FB6A     		ldr	r3, [r7, #44]
 2365 011e 1A43     		orrs	r2, r2, r3
 2366 0120 FB68     		ldr	r3, [r7, #12]
 2367 0122 9A63     		str	r2, [r3, #56]
1270:./Libraries/STM32F4xx_HAL_Driver/Src/stm32f4xx_hal_sd.c ****       hsd->State = HAL_SD_STATE_READY;
 2368              		.loc 1 1270 18
 2369 0124 FB68     		ldr	r3, [r7, #12]
 2370 0126 0122     		movs	r2, #1
 2371 0128 83F83420 		strb	r2, [r3, #52]
1271:./Libraries/STM32F4xx_HAL_Driver/Src/stm32f4xx_hal_sd.c ****       return HAL_ERROR;
 2372              		.loc 1 1271 14
 2373 012c 0123     		movs	r3, #1
 2374 012e 27E0     		b	.L107
 2375              	.L106:
1272:./Libraries/STM32F4xx_HAL_Driver/Src/stm32f4xx_hal_sd.c ****     }
1273:./Libraries/STM32F4xx_HAL_Driver/Src/stm32f4xx_hal_sd.c ****     
1274:./Libraries/STM32F4xx_HAL_Driver/Src/stm32f4xx_hal_sd.c ****     /* Enable SDIO DMA transfer */
1275:./Libraries/STM32F4xx_HAL_Driver/Src/stm32f4xx_hal_sd.c ****     __HAL_SD_DMA_ENABLE(hsd);
 2376              		.loc 1 1275 5
 2377 0130 174B     		ldr	r3, .L108+8
 2378 0132 0122     		movs	r2, #1
 2379 0134 1A60     		str	r2, [r3]
1276:./Libraries/STM32F4xx_HAL_Driver/Src/stm32f4xx_hal_sd.c ****     
1277:./Libraries/STM32F4xx_HAL_Driver/Src/stm32f4xx_hal_sd.c ****     /* Enable the DMA Channel */
1278:./Libraries/STM32F4xx_HAL_Driver/Src/stm32f4xx_hal_sd.c ****     HAL_DMA_Start_IT(hsd->hdmatx, (uint32_t)pData, (uint32_t)&hsd->Instance->FIFO, (uint32_t)(BLOCK
 2380              		.loc 1 1278 5
 2381 0136 FB68     		ldr	r3, [r7, #12]
ARM GAS  /tmp/ccMhfXg8.s 			page 65


 2382 0138 186C     		ldr	r0, [r3, #64]
 2383 013a B968     		ldr	r1, [r7, #8]
 2384              		.loc 1 1278 66
 2385 013c FB68     		ldr	r3, [r7, #12]
 2386 013e 1B68     		ldr	r3, [r3]
 2387              		.loc 1 1278 62
 2388 0140 8033     		adds	r3, r3, #128
 2389              		.loc 1 1278 5
 2390 0142 1A46     		mov	r2, r3
 2391              		.loc 1 1278 84
 2392 0144 3B68     		ldr	r3, [r7]
 2393 0146 5B02     		lsls	r3, r3, #9
 2394              		.loc 1 1278 5
 2395 0148 9B08     		lsrs	r3, r3, #2
 2396 014a FFF7FEFF 		bl	HAL_DMA_Start_IT
1279:./Libraries/STM32F4xx_HAL_Driver/Src/stm32f4xx_hal_sd.c ****     
1280:./Libraries/STM32F4xx_HAL_Driver/Src/stm32f4xx_hal_sd.c ****     /* Configure the SD DPSM (Data Path State Machine) */ 
1281:./Libraries/STM32F4xx_HAL_Driver/Src/stm32f4xx_hal_sd.c ****     config.DataTimeOut   = SDMMC_DATATIMEOUT;
 2397              		.loc 1 1281 26
 2398 014e 4FF0FF33 		mov	r3, #-1
 2399 0152 7B61     		str	r3, [r7, #20]
1282:./Libraries/STM32F4xx_HAL_Driver/Src/stm32f4xx_hal_sd.c ****     config.DataLength    = BLOCKSIZE * NumberOfBlocks;
 2400              		.loc 1 1282 38
 2401 0154 3B68     		ldr	r3, [r7]
 2402 0156 5B02     		lsls	r3, r3, #9
 2403              		.loc 1 1282 26
 2404 0158 BB61     		str	r3, [r7, #24]
1283:./Libraries/STM32F4xx_HAL_Driver/Src/stm32f4xx_hal_sd.c ****     config.DataBlockSize = SDIO_DATABLOCK_SIZE_512B;
 2405              		.loc 1 1283 26
 2406 015a 9023     		movs	r3, #144
 2407 015c FB61     		str	r3, [r7, #28]
1284:./Libraries/STM32F4xx_HAL_Driver/Src/stm32f4xx_hal_sd.c ****     config.TransferDir   = SDIO_TRANSFER_DIR_TO_CARD;
 2408              		.loc 1 1284 26
 2409 015e 0023     		movs	r3, #0
 2410 0160 3B62     		str	r3, [r7, #32]
1285:./Libraries/STM32F4xx_HAL_Driver/Src/stm32f4xx_hal_sd.c ****     config.TransferMode  = SDIO_TRANSFER_MODE_BLOCK;
 2411              		.loc 1 1285 26
 2412 0162 0023     		movs	r3, #0
 2413 0164 7B62     		str	r3, [r7, #36]
1286:./Libraries/STM32F4xx_HAL_Driver/Src/stm32f4xx_hal_sd.c ****     config.DPSM          = SDIO_DPSM_ENABLE;
 2414              		.loc 1 1286 26
 2415 0166 0123     		movs	r3, #1
 2416 0168 BB62     		str	r3, [r7, #40]
1287:./Libraries/STM32F4xx_HAL_Driver/Src/stm32f4xx_hal_sd.c ****     SDIO_ConfigData(hsd->Instance, &config);
 2417              		.loc 1 1287 5
 2418 016a FB68     		ldr	r3, [r7, #12]
 2419 016c 1B68     		ldr	r3, [r3]
 2420 016e 07F11402 		add	r2, r7, #20
 2421 0172 1146     		mov	r1, r2
 2422 0174 1846     		mov	r0, r3
 2423 0176 FFF7FEFF 		bl	SDIO_ConfigData
1288:./Libraries/STM32F4xx_HAL_Driver/Src/stm32f4xx_hal_sd.c ****     
1289:./Libraries/STM32F4xx_HAL_Driver/Src/stm32f4xx_hal_sd.c ****     return HAL_OK;
 2424              		.loc 1 1289 12
 2425 017a 0023     		movs	r3, #0
 2426 017c 00E0     		b	.L107
 2427              	.L100:
ARM GAS  /tmp/ccMhfXg8.s 			page 66


1290:./Libraries/STM32F4xx_HAL_Driver/Src/stm32f4xx_hal_sd.c ****   }
1291:./Libraries/STM32F4xx_HAL_Driver/Src/stm32f4xx_hal_sd.c ****   else
1292:./Libraries/STM32F4xx_HAL_Driver/Src/stm32f4xx_hal_sd.c ****   {
1293:./Libraries/STM32F4xx_HAL_Driver/Src/stm32f4xx_hal_sd.c ****     return HAL_BUSY;
 2428              		.loc 1 1293 12
 2429 017e 0223     		movs	r3, #2
 2430              	.L107:
1294:./Libraries/STM32F4xx_HAL_Driver/Src/stm32f4xx_hal_sd.c ****   }
1295:./Libraries/STM32F4xx_HAL_Driver/Src/stm32f4xx_hal_sd.c **** }
 2431              		.loc 1 1295 1 discriminator 1
 2432 0180 1846     		mov	r0, r3
 2433 0182 3037     		adds	r7, r7, #48
 2434              	.LCFI55:
 2435              		.cfi_def_cfa_offset 8
 2436 0184 BD46     		mov	sp, r7
 2437              	.LCFI56:
 2438              		.cfi_def_cfa_register 13
 2439              		@ sp needed
 2440 0186 80BD     		pop	{r7, pc}
 2441              	.L109:
 2442              		.align	2
 2443              	.L108:
 2444 0188 00000000 		.word	SD_DMATransmitCplt
 2445 018c 00000000 		.word	SD_DMAError
 2446 0190 8C852542 		.word	1109755276
 2447              		.cfi_endproc
 2448              	.LFE136:
 2450              		.section	.text.HAL_SD_Erase,"ax",%progbits
 2451              		.align	1
 2452              		.global	HAL_SD_Erase
 2453              		.syntax unified
 2454              		.thumb
 2455              		.thumb_func
 2456              		.fpu fpv4-sp-d16
 2458              	HAL_SD_Erase:
 2459              	.LFB137:
1296:./Libraries/STM32F4xx_HAL_Driver/Src/stm32f4xx_hal_sd.c **** 
1297:./Libraries/STM32F4xx_HAL_Driver/Src/stm32f4xx_hal_sd.c **** /**
1298:./Libraries/STM32F4xx_HAL_Driver/Src/stm32f4xx_hal_sd.c ****   * @brief  Erases the specified memory area of the given SD card.
1299:./Libraries/STM32F4xx_HAL_Driver/Src/stm32f4xx_hal_sd.c ****   * @note   This API should be followed by a check on the card state through
1300:./Libraries/STM32F4xx_HAL_Driver/Src/stm32f4xx_hal_sd.c ****   *         HAL_SD_GetCardState().
1301:./Libraries/STM32F4xx_HAL_Driver/Src/stm32f4xx_hal_sd.c ****   * @param  hsd Pointer to SD handle 
1302:./Libraries/STM32F4xx_HAL_Driver/Src/stm32f4xx_hal_sd.c ****   * @param  BlockStartAdd Start Block address
1303:./Libraries/STM32F4xx_HAL_Driver/Src/stm32f4xx_hal_sd.c ****   * @param  BlockEndAdd End Block address
1304:./Libraries/STM32F4xx_HAL_Driver/Src/stm32f4xx_hal_sd.c ****   * @retval HAL status
1305:./Libraries/STM32F4xx_HAL_Driver/Src/stm32f4xx_hal_sd.c ****   */
1306:./Libraries/STM32F4xx_HAL_Driver/Src/stm32f4xx_hal_sd.c **** HAL_StatusTypeDef HAL_SD_Erase(SD_HandleTypeDef *hsd, uint32_t BlockStartAdd, uint32_t BlockEndAdd)
1307:./Libraries/STM32F4xx_HAL_Driver/Src/stm32f4xx_hal_sd.c **** {
 2460              		.loc 1 1307 1
 2461              		.cfi_startproc
 2462              		@ args = 0, pretend = 0, frame = 24
 2463              		@ frame_needed = 1, uses_anonymous_args = 0
 2464 0000 80B5     		push	{r7, lr}
 2465              	.LCFI57:
 2466              		.cfi_def_cfa_offset 8
 2467              		.cfi_offset 7, -8
 2468              		.cfi_offset 14, -4
ARM GAS  /tmp/ccMhfXg8.s 			page 67


 2469 0002 86B0     		sub	sp, sp, #24
 2470              	.LCFI58:
 2471              		.cfi_def_cfa_offset 32
 2472 0004 00AF     		add	r7, sp, #0
 2473              	.LCFI59:
 2474              		.cfi_def_cfa_register 7
 2475 0006 F860     		str	r0, [r7, #12]
 2476 0008 B960     		str	r1, [r7, #8]
 2477 000a 7A60     		str	r2, [r7, #4]
1308:./Libraries/STM32F4xx_HAL_Driver/Src/stm32f4xx_hal_sd.c ****   uint32_t errorstate = HAL_SD_ERROR_NONE;
 2478              		.loc 1 1308 12
 2479 000c 0023     		movs	r3, #0
 2480 000e 7B61     		str	r3, [r7, #20]
1309:./Libraries/STM32F4xx_HAL_Driver/Src/stm32f4xx_hal_sd.c ****   
1310:./Libraries/STM32F4xx_HAL_Driver/Src/stm32f4xx_hal_sd.c ****   if(hsd->State == HAL_SD_STATE_READY)
 2481              		.loc 1 1310 9
 2482 0010 FB68     		ldr	r3, [r7, #12]
 2483 0012 93F83430 		ldrb	r3, [r3, #52]
 2484 0016 DBB2     		uxtb	r3, r3
 2485              		.loc 1 1310 5
 2486 0018 012B     		cmp	r3, #1
 2487 001a 40F0B880 		bne	.L111
1311:./Libraries/STM32F4xx_HAL_Driver/Src/stm32f4xx_hal_sd.c ****   {
1312:./Libraries/STM32F4xx_HAL_Driver/Src/stm32f4xx_hal_sd.c ****     hsd->ErrorCode = HAL_DMA_ERROR_NONE;
 2488              		.loc 1 1312 20
 2489 001e FB68     		ldr	r3, [r7, #12]
 2490 0020 0022     		movs	r2, #0
 2491 0022 9A63     		str	r2, [r3, #56]
1313:./Libraries/STM32F4xx_HAL_Driver/Src/stm32f4xx_hal_sd.c ****     
1314:./Libraries/STM32F4xx_HAL_Driver/Src/stm32f4xx_hal_sd.c ****     if(BlockEndAdd < BlockStartAdd)
 2492              		.loc 1 1314 7
 2493 0024 7A68     		ldr	r2, [r7, #4]
 2494 0026 BB68     		ldr	r3, [r7, #8]
 2495 0028 9A42     		cmp	r2, r3
 2496 002a 07D2     		bcs	.L112
1315:./Libraries/STM32F4xx_HAL_Driver/Src/stm32f4xx_hal_sd.c ****     {
1316:./Libraries/STM32F4xx_HAL_Driver/Src/stm32f4xx_hal_sd.c ****       hsd->ErrorCode |= HAL_SD_ERROR_PARAM;
 2497              		.loc 1 1316 22
 2498 002c FB68     		ldr	r3, [r7, #12]
 2499 002e 9B6B     		ldr	r3, [r3, #56]
 2500 0030 43F00062 		orr	r2, r3, #134217728
 2501 0034 FB68     		ldr	r3, [r7, #12]
 2502 0036 9A63     		str	r2, [r3, #56]
1317:./Libraries/STM32F4xx_HAL_Driver/Src/stm32f4xx_hal_sd.c ****       return HAL_ERROR;
 2503              		.loc 1 1317 14
 2504 0038 0123     		movs	r3, #1
 2505 003a A9E0     		b	.L113
 2506              	.L112:
1318:./Libraries/STM32F4xx_HAL_Driver/Src/stm32f4xx_hal_sd.c ****     }
1319:./Libraries/STM32F4xx_HAL_Driver/Src/stm32f4xx_hal_sd.c ****     
1320:./Libraries/STM32F4xx_HAL_Driver/Src/stm32f4xx_hal_sd.c ****     if(BlockEndAdd > (hsd->SdCard.LogBlockNbr))
 2507              		.loc 1 1320 34
 2508 003c FB68     		ldr	r3, [r7, #12]
 2509 003e DB6D     		ldr	r3, [r3, #92]
 2510              		.loc 1 1320 7
 2511 0040 7A68     		ldr	r2, [r7, #4]
 2512 0042 9A42     		cmp	r2, r3
ARM GAS  /tmp/ccMhfXg8.s 			page 68


 2513 0044 07D9     		bls	.L114
1321:./Libraries/STM32F4xx_HAL_Driver/Src/stm32f4xx_hal_sd.c ****     {
1322:./Libraries/STM32F4xx_HAL_Driver/Src/stm32f4xx_hal_sd.c ****       hsd->ErrorCode |= HAL_SD_ERROR_ADDR_OUT_OF_RANGE;
 2514              		.loc 1 1322 22
 2515 0046 FB68     		ldr	r3, [r7, #12]
 2516 0048 9B6B     		ldr	r3, [r3, #56]
 2517 004a 43F00072 		orr	r2, r3, #33554432
 2518 004e FB68     		ldr	r3, [r7, #12]
 2519 0050 9A63     		str	r2, [r3, #56]
1323:./Libraries/STM32F4xx_HAL_Driver/Src/stm32f4xx_hal_sd.c ****       return HAL_ERROR;
 2520              		.loc 1 1323 14
 2521 0052 0123     		movs	r3, #1
 2522 0054 9CE0     		b	.L113
 2523              	.L114:
1324:./Libraries/STM32F4xx_HAL_Driver/Src/stm32f4xx_hal_sd.c ****     }
1325:./Libraries/STM32F4xx_HAL_Driver/Src/stm32f4xx_hal_sd.c ****     
1326:./Libraries/STM32F4xx_HAL_Driver/Src/stm32f4xx_hal_sd.c ****     hsd->State = HAL_SD_STATE_BUSY;
 2524              		.loc 1 1326 16
 2525 0056 FB68     		ldr	r3, [r7, #12]
 2526 0058 0322     		movs	r2, #3
 2527 005a 83F83420 		strb	r2, [r3, #52]
1327:./Libraries/STM32F4xx_HAL_Driver/Src/stm32f4xx_hal_sd.c ****     
1328:./Libraries/STM32F4xx_HAL_Driver/Src/stm32f4xx_hal_sd.c ****     /* Check if the card command class supports erase command */
1329:./Libraries/STM32F4xx_HAL_Driver/Src/stm32f4xx_hal_sd.c ****     if(((hsd->SdCard.Class) & SDIO_CCCC_ERASE) == 0U)
 2528              		.loc 1 1329 21
 2529 005e FB68     		ldr	r3, [r7, #12]
 2530 0060 DB6C     		ldr	r3, [r3, #76]
 2531              		.loc 1 1329 29
 2532 0062 03F02003 		and	r3, r3, #32
 2533              		.loc 1 1329 7
 2534 0066 002B     		cmp	r3, #0
 2535 0068 10D1     		bne	.L115
1330:./Libraries/STM32F4xx_HAL_Driver/Src/stm32f4xx_hal_sd.c ****     {
1331:./Libraries/STM32F4xx_HAL_Driver/Src/stm32f4xx_hal_sd.c ****       /* Clear all the static flags */
1332:./Libraries/STM32F4xx_HAL_Driver/Src/stm32f4xx_hal_sd.c ****       __HAL_SD_CLEAR_FLAG(hsd, SDIO_STATIC_FLAGS);
 2536              		.loc 1 1332 7
 2537 006a FB68     		ldr	r3, [r7, #12]
 2538 006c 1B68     		ldr	r3, [r3]
 2539 006e 40F2FF52 		movw	r2, #1535
 2540 0072 9A63     		str	r2, [r3, #56]
1333:./Libraries/STM32F4xx_HAL_Driver/Src/stm32f4xx_hal_sd.c ****       hsd->ErrorCode |= HAL_SD_ERROR_REQUEST_NOT_APPLICABLE;
 2541              		.loc 1 1333 22
 2542 0074 FB68     		ldr	r3, [r7, #12]
 2543 0076 9B6B     		ldr	r3, [r3, #56]
 2544 0078 43F08062 		orr	r2, r3, #67108864
 2545 007c FB68     		ldr	r3, [r7, #12]
 2546 007e 9A63     		str	r2, [r3, #56]
1334:./Libraries/STM32F4xx_HAL_Driver/Src/stm32f4xx_hal_sd.c ****       hsd->State = HAL_SD_STATE_READY;
 2547              		.loc 1 1334 18
 2548 0080 FB68     		ldr	r3, [r7, #12]
 2549 0082 0122     		movs	r2, #1
 2550 0084 83F83420 		strb	r2, [r3, #52]
1335:./Libraries/STM32F4xx_HAL_Driver/Src/stm32f4xx_hal_sd.c ****       return HAL_ERROR;
 2551              		.loc 1 1335 14
 2552 0088 0123     		movs	r3, #1
 2553 008a 81E0     		b	.L113
 2554              	.L115:
ARM GAS  /tmp/ccMhfXg8.s 			page 69


1336:./Libraries/STM32F4xx_HAL_Driver/Src/stm32f4xx_hal_sd.c ****     }
1337:./Libraries/STM32F4xx_HAL_Driver/Src/stm32f4xx_hal_sd.c ****     
1338:./Libraries/STM32F4xx_HAL_Driver/Src/stm32f4xx_hal_sd.c ****     if((SDIO_GetResponse(hsd->Instance, SDIO_RESP1) & SDMMC_CARD_LOCKED) == SDMMC_CARD_LOCKED)
 2555              		.loc 1 1338 9
 2556 008c FB68     		ldr	r3, [r7, #12]
 2557 008e 1B68     		ldr	r3, [r3]
 2558 0090 0021     		movs	r1, #0
 2559 0092 1846     		mov	r0, r3
 2560 0094 FFF7FEFF 		bl	SDIO_GetResponse
 2561 0098 0346     		mov	r3, r0
 2562              		.loc 1 1338 53
 2563 009a 03F00073 		and	r3, r3, #33554432
 2564              		.loc 1 1338 7
 2565 009e B3F1007F 		cmp	r3, #33554432
 2566 00a2 10D1     		bne	.L116
1339:./Libraries/STM32F4xx_HAL_Driver/Src/stm32f4xx_hal_sd.c ****     {
1340:./Libraries/STM32F4xx_HAL_Driver/Src/stm32f4xx_hal_sd.c ****       /* Clear all the static flags */
1341:./Libraries/STM32F4xx_HAL_Driver/Src/stm32f4xx_hal_sd.c ****       __HAL_SD_CLEAR_FLAG(hsd, SDIO_STATIC_FLAGS);  
 2567              		.loc 1 1341 7
 2568 00a4 FB68     		ldr	r3, [r7, #12]
 2569 00a6 1B68     		ldr	r3, [r3]
 2570 00a8 40F2FF52 		movw	r2, #1535
 2571 00ac 9A63     		str	r2, [r3, #56]
1342:./Libraries/STM32F4xx_HAL_Driver/Src/stm32f4xx_hal_sd.c ****       hsd->ErrorCode |= HAL_SD_ERROR_LOCK_UNLOCK_FAILED;
 2572              		.loc 1 1342 22
 2573 00ae FB68     		ldr	r3, [r7, #12]
 2574 00b0 9B6B     		ldr	r3, [r3, #56]
 2575 00b2 43F40062 		orr	r2, r3, #2048
 2576 00b6 FB68     		ldr	r3, [r7, #12]
 2577 00b8 9A63     		str	r2, [r3, #56]
1343:./Libraries/STM32F4xx_HAL_Driver/Src/stm32f4xx_hal_sd.c ****       hsd->State = HAL_SD_STATE_READY;
 2578              		.loc 1 1343 18
 2579 00ba FB68     		ldr	r3, [r7, #12]
 2580 00bc 0122     		movs	r2, #1
 2581 00be 83F83420 		strb	r2, [r3, #52]
1344:./Libraries/STM32F4xx_HAL_Driver/Src/stm32f4xx_hal_sd.c ****       return HAL_ERROR;
 2582              		.loc 1 1344 14
 2583 00c2 0123     		movs	r3, #1
 2584 00c4 64E0     		b	.L113
 2585              	.L116:
1345:./Libraries/STM32F4xx_HAL_Driver/Src/stm32f4xx_hal_sd.c ****     }
1346:./Libraries/STM32F4xx_HAL_Driver/Src/stm32f4xx_hal_sd.c ****     
1347:./Libraries/STM32F4xx_HAL_Driver/Src/stm32f4xx_hal_sd.c ****     /* Get start and end block for high capacity cards */
1348:./Libraries/STM32F4xx_HAL_Driver/Src/stm32f4xx_hal_sd.c ****     if(hsd->SdCard.CardType != CARD_SDHC_SDXC)
 2586              		.loc 1 1348 19
 2587 00c6 FB68     		ldr	r3, [r7, #12]
 2588 00c8 5B6C     		ldr	r3, [r3, #68]
 2589              		.loc 1 1348 7
 2590 00ca 012B     		cmp	r3, #1
 2591 00cc 05D0     		beq	.L117
1349:./Libraries/STM32F4xx_HAL_Driver/Src/stm32f4xx_hal_sd.c ****     {
1350:./Libraries/STM32F4xx_HAL_Driver/Src/stm32f4xx_hal_sd.c ****       BlockStartAdd *= 512U;
 2592              		.loc 1 1350 21
 2593 00ce BB68     		ldr	r3, [r7, #8]
 2594 00d0 5B02     		lsls	r3, r3, #9
 2595 00d2 BB60     		str	r3, [r7, #8]
1351:./Libraries/STM32F4xx_HAL_Driver/Src/stm32f4xx_hal_sd.c ****       BlockEndAdd   *= 512U;
ARM GAS  /tmp/ccMhfXg8.s 			page 70


 2596              		.loc 1 1351 21
 2597 00d4 7B68     		ldr	r3, [r7, #4]
 2598 00d6 5B02     		lsls	r3, r3, #9
 2599 00d8 7B60     		str	r3, [r7, #4]
 2600              	.L117:
1352:./Libraries/STM32F4xx_HAL_Driver/Src/stm32f4xx_hal_sd.c ****     }
1353:./Libraries/STM32F4xx_HAL_Driver/Src/stm32f4xx_hal_sd.c ****     
1354:./Libraries/STM32F4xx_HAL_Driver/Src/stm32f4xx_hal_sd.c ****     /* According to sd-card spec 1.0 ERASE_GROUP_START (CMD32) and erase_group_end(CMD33) */
1355:./Libraries/STM32F4xx_HAL_Driver/Src/stm32f4xx_hal_sd.c ****     if(hsd->SdCard.CardType != CARD_SECURED)
 2601              		.loc 1 1355 19
 2602 00da FB68     		ldr	r3, [r7, #12]
 2603 00dc 5B6C     		ldr	r3, [r3, #68]
 2604              		.loc 1 1355 7
 2605 00de 032B     		cmp	r3, #3
 2606 00e0 35D0     		beq	.L118
1356:./Libraries/STM32F4xx_HAL_Driver/Src/stm32f4xx_hal_sd.c ****     {
1357:./Libraries/STM32F4xx_HAL_Driver/Src/stm32f4xx_hal_sd.c ****       /* Send CMD32 SD_ERASE_GRP_START with argument as addr  */
1358:./Libraries/STM32F4xx_HAL_Driver/Src/stm32f4xx_hal_sd.c ****       errorstate = SDMMC_CmdSDEraseStartAdd(hsd->Instance, BlockStartAdd);
 2607              		.loc 1 1358 20
 2608 00e2 FB68     		ldr	r3, [r7, #12]
 2609 00e4 1B68     		ldr	r3, [r3]
 2610 00e6 B968     		ldr	r1, [r7, #8]
 2611 00e8 1846     		mov	r0, r3
 2612 00ea FFF7FEFF 		bl	SDMMC_CmdSDEraseStartAdd
 2613 00ee 7861     		str	r0, [r7, #20]
1359:./Libraries/STM32F4xx_HAL_Driver/Src/stm32f4xx_hal_sd.c ****       if(errorstate != HAL_SD_ERROR_NONE)
 2614              		.loc 1 1359 9
 2615 00f0 7B69     		ldr	r3, [r7, #20]
 2616 00f2 002B     		cmp	r3, #0
 2617 00f4 10D0     		beq	.L119
1360:./Libraries/STM32F4xx_HAL_Driver/Src/stm32f4xx_hal_sd.c ****       {
1361:./Libraries/STM32F4xx_HAL_Driver/Src/stm32f4xx_hal_sd.c ****         /* Clear all the static flags */
1362:./Libraries/STM32F4xx_HAL_Driver/Src/stm32f4xx_hal_sd.c ****         __HAL_SD_CLEAR_FLAG(hsd, SDIO_STATIC_FLAGS); 
 2618              		.loc 1 1362 9
 2619 00f6 FB68     		ldr	r3, [r7, #12]
 2620 00f8 1B68     		ldr	r3, [r3]
 2621 00fa 40F2FF52 		movw	r2, #1535
 2622 00fe 9A63     		str	r2, [r3, #56]
1363:./Libraries/STM32F4xx_HAL_Driver/Src/stm32f4xx_hal_sd.c ****         hsd->ErrorCode |= errorstate;
 2623              		.loc 1 1363 24
 2624 0100 FB68     		ldr	r3, [r7, #12]
 2625 0102 9A6B     		ldr	r2, [r3, #56]
 2626 0104 7B69     		ldr	r3, [r7, #20]
 2627 0106 1A43     		orrs	r2, r2, r3
 2628 0108 FB68     		ldr	r3, [r7, #12]
 2629 010a 9A63     		str	r2, [r3, #56]
1364:./Libraries/STM32F4xx_HAL_Driver/Src/stm32f4xx_hal_sd.c ****         hsd->State = HAL_SD_STATE_READY;
 2630              		.loc 1 1364 20
 2631 010c FB68     		ldr	r3, [r7, #12]
 2632 010e 0122     		movs	r2, #1
 2633 0110 83F83420 		strb	r2, [r3, #52]
1365:./Libraries/STM32F4xx_HAL_Driver/Src/stm32f4xx_hal_sd.c ****         return HAL_ERROR;
 2634              		.loc 1 1365 16
 2635 0114 0123     		movs	r3, #1
 2636 0116 3BE0     		b	.L113
 2637              	.L119:
1366:./Libraries/STM32F4xx_HAL_Driver/Src/stm32f4xx_hal_sd.c ****       }
ARM GAS  /tmp/ccMhfXg8.s 			page 71


1367:./Libraries/STM32F4xx_HAL_Driver/Src/stm32f4xx_hal_sd.c ****       
1368:./Libraries/STM32F4xx_HAL_Driver/Src/stm32f4xx_hal_sd.c ****       /* Send CMD33 SD_ERASE_GRP_END with argument as addr  */
1369:./Libraries/STM32F4xx_HAL_Driver/Src/stm32f4xx_hal_sd.c ****       errorstate = SDMMC_CmdSDEraseEndAdd(hsd->Instance, BlockEndAdd);
 2638              		.loc 1 1369 20
 2639 0118 FB68     		ldr	r3, [r7, #12]
 2640 011a 1B68     		ldr	r3, [r3]
 2641 011c 7968     		ldr	r1, [r7, #4]
 2642 011e 1846     		mov	r0, r3
 2643 0120 FFF7FEFF 		bl	SDMMC_CmdSDEraseEndAdd
 2644 0124 7861     		str	r0, [r7, #20]
1370:./Libraries/STM32F4xx_HAL_Driver/Src/stm32f4xx_hal_sd.c ****       if(errorstate != HAL_SD_ERROR_NONE)
 2645              		.loc 1 1370 9
 2646 0126 7B69     		ldr	r3, [r7, #20]
 2647 0128 002B     		cmp	r3, #0
 2648 012a 10D0     		beq	.L118
1371:./Libraries/STM32F4xx_HAL_Driver/Src/stm32f4xx_hal_sd.c ****       {
1372:./Libraries/STM32F4xx_HAL_Driver/Src/stm32f4xx_hal_sd.c ****         /* Clear all the static flags */
1373:./Libraries/STM32F4xx_HAL_Driver/Src/stm32f4xx_hal_sd.c ****         __HAL_SD_CLEAR_FLAG(hsd, SDIO_STATIC_FLAGS); 
 2649              		.loc 1 1373 9
 2650 012c FB68     		ldr	r3, [r7, #12]
 2651 012e 1B68     		ldr	r3, [r3]
 2652 0130 40F2FF52 		movw	r2, #1535
 2653 0134 9A63     		str	r2, [r3, #56]
1374:./Libraries/STM32F4xx_HAL_Driver/Src/stm32f4xx_hal_sd.c ****         hsd->ErrorCode |= errorstate;
 2654              		.loc 1 1374 24
 2655 0136 FB68     		ldr	r3, [r7, #12]
 2656 0138 9A6B     		ldr	r2, [r3, #56]
 2657 013a 7B69     		ldr	r3, [r7, #20]
 2658 013c 1A43     		orrs	r2, r2, r3
 2659 013e FB68     		ldr	r3, [r7, #12]
 2660 0140 9A63     		str	r2, [r3, #56]
1375:./Libraries/STM32F4xx_HAL_Driver/Src/stm32f4xx_hal_sd.c ****         hsd->State = HAL_SD_STATE_READY;
 2661              		.loc 1 1375 20
 2662 0142 FB68     		ldr	r3, [r7, #12]
 2663 0144 0122     		movs	r2, #1
 2664 0146 83F83420 		strb	r2, [r3, #52]
1376:./Libraries/STM32F4xx_HAL_Driver/Src/stm32f4xx_hal_sd.c ****         return HAL_ERROR;
 2665              		.loc 1 1376 16
 2666 014a 0123     		movs	r3, #1
 2667 014c 20E0     		b	.L113
 2668              	.L118:
1377:./Libraries/STM32F4xx_HAL_Driver/Src/stm32f4xx_hal_sd.c ****       }
1378:./Libraries/STM32F4xx_HAL_Driver/Src/stm32f4xx_hal_sd.c ****     }
1379:./Libraries/STM32F4xx_HAL_Driver/Src/stm32f4xx_hal_sd.c ****     
1380:./Libraries/STM32F4xx_HAL_Driver/Src/stm32f4xx_hal_sd.c ****     /* Send CMD38 ERASE */
1381:./Libraries/STM32F4xx_HAL_Driver/Src/stm32f4xx_hal_sd.c ****     errorstate = SDMMC_CmdErase(hsd->Instance);
 2669              		.loc 1 1381 18
 2670 014e FB68     		ldr	r3, [r7, #12]
 2671 0150 1B68     		ldr	r3, [r3]
 2672 0152 1846     		mov	r0, r3
 2673 0154 FFF7FEFF 		bl	SDMMC_CmdErase
 2674 0158 7861     		str	r0, [r7, #20]
1382:./Libraries/STM32F4xx_HAL_Driver/Src/stm32f4xx_hal_sd.c ****     if(errorstate != HAL_SD_ERROR_NONE)
 2675              		.loc 1 1382 7
 2676 015a 7B69     		ldr	r3, [r7, #20]
 2677 015c 002B     		cmp	r3, #0
 2678 015e 10D0     		beq	.L120
ARM GAS  /tmp/ccMhfXg8.s 			page 72


1383:./Libraries/STM32F4xx_HAL_Driver/Src/stm32f4xx_hal_sd.c ****     {
1384:./Libraries/STM32F4xx_HAL_Driver/Src/stm32f4xx_hal_sd.c ****       /* Clear all the static flags */
1385:./Libraries/STM32F4xx_HAL_Driver/Src/stm32f4xx_hal_sd.c ****       __HAL_SD_CLEAR_FLAG(hsd, SDIO_STATIC_FLAGS); 
 2679              		.loc 1 1385 7
 2680 0160 FB68     		ldr	r3, [r7, #12]
 2681 0162 1B68     		ldr	r3, [r3]
 2682 0164 40F2FF52 		movw	r2, #1535
 2683 0168 9A63     		str	r2, [r3, #56]
1386:./Libraries/STM32F4xx_HAL_Driver/Src/stm32f4xx_hal_sd.c ****       hsd->ErrorCode |= errorstate;
 2684              		.loc 1 1386 22
 2685 016a FB68     		ldr	r3, [r7, #12]
 2686 016c 9A6B     		ldr	r2, [r3, #56]
 2687 016e 7B69     		ldr	r3, [r7, #20]
 2688 0170 1A43     		orrs	r2, r2, r3
 2689 0172 FB68     		ldr	r3, [r7, #12]
 2690 0174 9A63     		str	r2, [r3, #56]
1387:./Libraries/STM32F4xx_HAL_Driver/Src/stm32f4xx_hal_sd.c ****       hsd->State = HAL_SD_STATE_READY;
 2691              		.loc 1 1387 18
 2692 0176 FB68     		ldr	r3, [r7, #12]
 2693 0178 0122     		movs	r2, #1
 2694 017a 83F83420 		strb	r2, [r3, #52]
1388:./Libraries/STM32F4xx_HAL_Driver/Src/stm32f4xx_hal_sd.c ****       return HAL_ERROR;
 2695              		.loc 1 1388 14
 2696 017e 0123     		movs	r3, #1
 2697 0180 06E0     		b	.L113
 2698              	.L120:
1389:./Libraries/STM32F4xx_HAL_Driver/Src/stm32f4xx_hal_sd.c ****     }
1390:./Libraries/STM32F4xx_HAL_Driver/Src/stm32f4xx_hal_sd.c ****     
1391:./Libraries/STM32F4xx_HAL_Driver/Src/stm32f4xx_hal_sd.c ****     hsd->State = HAL_SD_STATE_READY;
 2699              		.loc 1 1391 16
 2700 0182 FB68     		ldr	r3, [r7, #12]
 2701 0184 0122     		movs	r2, #1
 2702 0186 83F83420 		strb	r2, [r3, #52]
1392:./Libraries/STM32F4xx_HAL_Driver/Src/stm32f4xx_hal_sd.c ****     
1393:./Libraries/STM32F4xx_HAL_Driver/Src/stm32f4xx_hal_sd.c ****     return HAL_OK;
 2703              		.loc 1 1393 12
 2704 018a 0023     		movs	r3, #0
 2705 018c 00E0     		b	.L113
 2706              	.L111:
1394:./Libraries/STM32F4xx_HAL_Driver/Src/stm32f4xx_hal_sd.c ****   }
1395:./Libraries/STM32F4xx_HAL_Driver/Src/stm32f4xx_hal_sd.c ****   else
1396:./Libraries/STM32F4xx_HAL_Driver/Src/stm32f4xx_hal_sd.c ****   {
1397:./Libraries/STM32F4xx_HAL_Driver/Src/stm32f4xx_hal_sd.c ****     return HAL_BUSY;
 2707              		.loc 1 1397 12
 2708 018e 0223     		movs	r3, #2
 2709              	.L113:
1398:./Libraries/STM32F4xx_HAL_Driver/Src/stm32f4xx_hal_sd.c ****   }
1399:./Libraries/STM32F4xx_HAL_Driver/Src/stm32f4xx_hal_sd.c **** }
 2710              		.loc 1 1399 1
 2711 0190 1846     		mov	r0, r3
 2712 0192 1837     		adds	r7, r7, #24
 2713              	.LCFI60:
 2714              		.cfi_def_cfa_offset 8
 2715 0194 BD46     		mov	sp, r7
 2716              	.LCFI61:
 2717              		.cfi_def_cfa_register 13
 2718              		@ sp needed
ARM GAS  /tmp/ccMhfXg8.s 			page 73


 2719 0196 80BD     		pop	{r7, pc}
 2720              		.cfi_endproc
 2721              	.LFE137:
 2723              		.section	.text.HAL_SD_IRQHandler,"ax",%progbits
 2724              		.align	1
 2725              		.global	HAL_SD_IRQHandler
 2726              		.syntax unified
 2727              		.thumb
 2728              		.thumb_func
 2729              		.fpu fpv4-sp-d16
 2731              	HAL_SD_IRQHandler:
 2732              	.LFB138:
1400:./Libraries/STM32F4xx_HAL_Driver/Src/stm32f4xx_hal_sd.c **** 
1401:./Libraries/STM32F4xx_HAL_Driver/Src/stm32f4xx_hal_sd.c **** /**
1402:./Libraries/STM32F4xx_HAL_Driver/Src/stm32f4xx_hal_sd.c ****   * @brief  This function handles SD card interrupt request.
1403:./Libraries/STM32F4xx_HAL_Driver/Src/stm32f4xx_hal_sd.c ****   * @param  hsd Pointer to SD handle
1404:./Libraries/STM32F4xx_HAL_Driver/Src/stm32f4xx_hal_sd.c ****   * @retval None
1405:./Libraries/STM32F4xx_HAL_Driver/Src/stm32f4xx_hal_sd.c ****   */
1406:./Libraries/STM32F4xx_HAL_Driver/Src/stm32f4xx_hal_sd.c **** void HAL_SD_IRQHandler(SD_HandleTypeDef *hsd)
1407:./Libraries/STM32F4xx_HAL_Driver/Src/stm32f4xx_hal_sd.c **** {
 2733              		.loc 1 1407 1
 2734              		.cfi_startproc
 2735              		@ args = 0, pretend = 0, frame = 16
 2736              		@ frame_needed = 1, uses_anonymous_args = 0
 2737 0000 80B5     		push	{r7, lr}
 2738              	.LCFI62:
 2739              		.cfi_def_cfa_offset 8
 2740              		.cfi_offset 7, -8
 2741              		.cfi_offset 14, -4
 2742 0002 84B0     		sub	sp, sp, #16
 2743              	.LCFI63:
 2744              		.cfi_def_cfa_offset 24
 2745 0004 00AF     		add	r7, sp, #0
 2746              	.LCFI64:
 2747              		.cfi_def_cfa_register 7
 2748 0006 7860     		str	r0, [r7, #4]
1408:./Libraries/STM32F4xx_HAL_Driver/Src/stm32f4xx_hal_sd.c ****   uint32_t errorstate = HAL_SD_ERROR_NONE;
 2749              		.loc 1 1408 12
 2750 0008 0023     		movs	r3, #0
 2751 000a FB60     		str	r3, [r7, #12]
1409:./Libraries/STM32F4xx_HAL_Driver/Src/stm32f4xx_hal_sd.c ****   
1410:./Libraries/STM32F4xx_HAL_Driver/Src/stm32f4xx_hal_sd.c ****   /* Check for SDIO interrupt flags */
1411:./Libraries/STM32F4xx_HAL_Driver/Src/stm32f4xx_hal_sd.c ****   if(__HAL_SD_GET_FLAG(hsd, SDIO_IT_DATAEND) != RESET)
 2752              		.loc 1 1411 6
 2753 000c 7B68     		ldr	r3, [r7, #4]
 2754 000e 1B68     		ldr	r3, [r3]
 2755 0010 5B6B     		ldr	r3, [r3, #52]
 2756 0012 03F48073 		and	r3, r3, #256
 2757              		.loc 1 1411 5
 2758 0016 002B     		cmp	r3, #0
 2759 0018 00F08D80 		beq	.L122
1412:./Libraries/STM32F4xx_HAL_Driver/Src/stm32f4xx_hal_sd.c ****   {
1413:./Libraries/STM32F4xx_HAL_Driver/Src/stm32f4xx_hal_sd.c ****     __HAL_SD_CLEAR_FLAG(hsd, SDIO_FLAG_DATAEND); 
 2760              		.loc 1 1413 5
 2761 001c 7B68     		ldr	r3, [r7, #4]
 2762 001e 1B68     		ldr	r3, [r3]
 2763 0020 4FF48072 		mov	r2, #256
ARM GAS  /tmp/ccMhfXg8.s 			page 74


 2764 0024 9A63     		str	r2, [r3, #56]
1414:./Libraries/STM32F4xx_HAL_Driver/Src/stm32f4xx_hal_sd.c ****     
1415:./Libraries/STM32F4xx_HAL_Driver/Src/stm32f4xx_hal_sd.c **** #ifdef SDIO_STA_STBITERR
1416:./Libraries/STM32F4xx_HAL_Driver/Src/stm32f4xx_hal_sd.c ****     __HAL_SD_DISABLE_IT(hsd, SDIO_IT_DATAEND | SDIO_IT_DCRCFAIL | SDIO_IT_DTIMEOUT|\
 2765              		.loc 1 1416 5
 2766 0026 7B68     		ldr	r3, [r7, #4]
 2767 0028 1B68     		ldr	r3, [r3]
 2768 002a DB6B     		ldr	r3, [r3, #60]
 2769 002c 7A68     		ldr	r2, [r7, #4]
 2770 002e 1268     		ldr	r2, [r2]
 2771 0030 23F44E73 		bic	r3, r3, #824
 2772 0034 23F00203 		bic	r3, r3, #2
 2773 0038 D363     		str	r3, [r2, #60]
1417:./Libraries/STM32F4xx_HAL_Driver/Src/stm32f4xx_hal_sd.c ****                              SDIO_IT_TXUNDERR| SDIO_IT_RXOVERR | SDIO_IT_STBITERR);
1418:./Libraries/STM32F4xx_HAL_Driver/Src/stm32f4xx_hal_sd.c **** #else /* SDIO_STA_STBITERR not defined */
1419:./Libraries/STM32F4xx_HAL_Driver/Src/stm32f4xx_hal_sd.c ****     __HAL_SD_DISABLE_IT(hsd, SDIO_IT_DATAEND | SDIO_IT_DCRCFAIL | SDIO_IT_DTIMEOUT|\
1420:./Libraries/STM32F4xx_HAL_Driver/Src/stm32f4xx_hal_sd.c ****                              SDIO_IT_TXUNDERR| SDIO_IT_RXOVERR);
1421:./Libraries/STM32F4xx_HAL_Driver/Src/stm32f4xx_hal_sd.c **** #endif
1422:./Libraries/STM32F4xx_HAL_Driver/Src/stm32f4xx_hal_sd.c ****     
1423:./Libraries/STM32F4xx_HAL_Driver/Src/stm32f4xx_hal_sd.c ****     if((hsd->Context & SD_CONTEXT_IT) != RESET)
 2774              		.loc 1 1423 12
 2775 003a 7B68     		ldr	r3, [r7, #4]
 2776 003c 1B6B     		ldr	r3, [r3, #48]
 2777              		.loc 1 1423 22
 2778 003e 03F00803 		and	r3, r3, #8
 2779              		.loc 1 1423 7
 2780 0042 002B     		cmp	r3, #0
 2781 0044 3AD0     		beq	.L123
1424:./Libraries/STM32F4xx_HAL_Driver/Src/stm32f4xx_hal_sd.c ****     {
1425:./Libraries/STM32F4xx_HAL_Driver/Src/stm32f4xx_hal_sd.c ****       if(((hsd->Context & SD_CONTEXT_READ_MULTIPLE_BLOCK) != RESET) || ((hsd->Context & SD_CONTEXT_
 2782              		.loc 1 1425 15
 2783 0046 7B68     		ldr	r3, [r7, #4]
 2784 0048 1B6B     		ldr	r3, [r3, #48]
 2785              		.loc 1 1425 25
 2786 004a 03F00203 		and	r3, r3, #2
 2787              		.loc 1 1425 9
 2788 004e 002B     		cmp	r3, #0
 2789 0050 05D1     		bne	.L124
 2790              		.loc 1 1425 77 discriminator 1
 2791 0052 7B68     		ldr	r3, [r7, #4]
 2792 0054 1B6B     		ldr	r3, [r3, #48]
 2793              		.loc 1 1425 87 discriminator 1
 2794 0056 03F02003 		and	r3, r3, #32
 2795              		.loc 1 1425 69 discriminator 1
 2796 005a 002B     		cmp	r3, #0
 2797 005c 11D0     		beq	.L125
 2798              	.L124:
1426:./Libraries/STM32F4xx_HAL_Driver/Src/stm32f4xx_hal_sd.c ****       {
1427:./Libraries/STM32F4xx_HAL_Driver/Src/stm32f4xx_hal_sd.c ****         errorstate = SDMMC_CmdStopTransfer(hsd->Instance);
 2799              		.loc 1 1427 22
 2800 005e 7B68     		ldr	r3, [r7, #4]
 2801 0060 1B68     		ldr	r3, [r3]
 2802 0062 1846     		mov	r0, r3
 2803 0064 FFF7FEFF 		bl	SDMMC_CmdStopTransfer
 2804 0068 F860     		str	r0, [r7, #12]
1428:./Libraries/STM32F4xx_HAL_Driver/Src/stm32f4xx_hal_sd.c ****         if(errorstate != HAL_SD_ERROR_NONE)
 2805              		.loc 1 1428 11
ARM GAS  /tmp/ccMhfXg8.s 			page 75


 2806 006a FB68     		ldr	r3, [r7, #12]
 2807 006c 002B     		cmp	r3, #0
 2808 006e 08D0     		beq	.L125
1429:./Libraries/STM32F4xx_HAL_Driver/Src/stm32f4xx_hal_sd.c ****         {
1430:./Libraries/STM32F4xx_HAL_Driver/Src/stm32f4xx_hal_sd.c ****           hsd->ErrorCode |= errorstate;
 2809              		.loc 1 1430 26
 2810 0070 7B68     		ldr	r3, [r7, #4]
 2811 0072 9A6B     		ldr	r2, [r3, #56]
 2812 0074 FB68     		ldr	r3, [r7, #12]
 2813 0076 1A43     		orrs	r2, r2, r3
 2814 0078 7B68     		ldr	r3, [r7, #4]
 2815 007a 9A63     		str	r2, [r3, #56]
1431:./Libraries/STM32F4xx_HAL_Driver/Src/stm32f4xx_hal_sd.c ****           HAL_SD_ErrorCallback(hsd);
 2816              		.loc 1 1431 11
 2817 007c 7868     		ldr	r0, [r7, #4]
 2818 007e FFF7FEFF 		bl	HAL_SD_ErrorCallback
 2819              	.L125:
1432:./Libraries/STM32F4xx_HAL_Driver/Src/stm32f4xx_hal_sd.c ****         }
1433:./Libraries/STM32F4xx_HAL_Driver/Src/stm32f4xx_hal_sd.c ****       }
1434:./Libraries/STM32F4xx_HAL_Driver/Src/stm32f4xx_hal_sd.c ****       
1435:./Libraries/STM32F4xx_HAL_Driver/Src/stm32f4xx_hal_sd.c ****       /* Clear all the static flags */
1436:./Libraries/STM32F4xx_HAL_Driver/Src/stm32f4xx_hal_sd.c ****       __HAL_SD_CLEAR_FLAG(hsd, SDIO_STATIC_FLAGS);
 2820              		.loc 1 1436 7
 2821 0082 7B68     		ldr	r3, [r7, #4]
 2822 0084 1B68     		ldr	r3, [r3]
 2823 0086 40F2FF52 		movw	r2, #1535
 2824 008a 9A63     		str	r2, [r3, #56]
1437:./Libraries/STM32F4xx_HAL_Driver/Src/stm32f4xx_hal_sd.c ****       
1438:./Libraries/STM32F4xx_HAL_Driver/Src/stm32f4xx_hal_sd.c ****       hsd->State = HAL_SD_STATE_READY;
 2825              		.loc 1 1438 18
 2826 008c 7B68     		ldr	r3, [r7, #4]
 2827 008e 0122     		movs	r2, #1
 2828 0090 83F83420 		strb	r2, [r3, #52]
1439:./Libraries/STM32F4xx_HAL_Driver/Src/stm32f4xx_hal_sd.c ****       if(((hsd->Context & SD_CONTEXT_READ_SINGLE_BLOCK) != RESET) || ((hsd->Context & SD_CONTEXT_RE
 2829              		.loc 1 1439 15
 2830 0094 7B68     		ldr	r3, [r7, #4]
 2831 0096 1B6B     		ldr	r3, [r3, #48]
 2832              		.loc 1 1439 25
 2833 0098 03F00103 		and	r3, r3, #1
 2834              		.loc 1 1439 9
 2835 009c 002B     		cmp	r3, #0
 2836 009e 05D1     		bne	.L126
 2837              		.loc 1 1439 75 discriminator 1
 2838 00a0 7B68     		ldr	r3, [r7, #4]
 2839 00a2 1B6B     		ldr	r3, [r3, #48]
 2840              		.loc 1 1439 85 discriminator 1
 2841 00a4 03F00203 		and	r3, r3, #2
 2842              		.loc 1 1439 67 discriminator 1
 2843 00a8 002B     		cmp	r3, #0
 2844 00aa 03D0     		beq	.L127
 2845              	.L126:
1440:./Libraries/STM32F4xx_HAL_Driver/Src/stm32f4xx_hal_sd.c ****       {
1441:./Libraries/STM32F4xx_HAL_Driver/Src/stm32f4xx_hal_sd.c ****         HAL_SD_RxCpltCallback(hsd);
 2846              		.loc 1 1441 9
 2847 00ac 7868     		ldr	r0, [r7, #4]
 2848 00ae FFF7FEFF 		bl	HAL_SD_RxCpltCallback
1442:./Libraries/STM32F4xx_HAL_Driver/Src/stm32f4xx_hal_sd.c ****       }
ARM GAS  /tmp/ccMhfXg8.s 			page 76


1443:./Libraries/STM32F4xx_HAL_Driver/Src/stm32f4xx_hal_sd.c ****       else
1444:./Libraries/STM32F4xx_HAL_Driver/Src/stm32f4xx_hal_sd.c ****       {
1445:./Libraries/STM32F4xx_HAL_Driver/Src/stm32f4xx_hal_sd.c ****         HAL_SD_TxCpltCallback(hsd);
1446:./Libraries/STM32F4xx_HAL_Driver/Src/stm32f4xx_hal_sd.c ****       }
1447:./Libraries/STM32F4xx_HAL_Driver/Src/stm32f4xx_hal_sd.c ****     }
1448:./Libraries/STM32F4xx_HAL_Driver/Src/stm32f4xx_hal_sd.c ****     else if((hsd->Context & SD_CONTEXT_DMA) != RESET)
1449:./Libraries/STM32F4xx_HAL_Driver/Src/stm32f4xx_hal_sd.c ****     {
1450:./Libraries/STM32F4xx_HAL_Driver/Src/stm32f4xx_hal_sd.c ****       if((hsd->Context & SD_CONTEXT_WRITE_MULTIPLE_BLOCK) != RESET)
1451:./Libraries/STM32F4xx_HAL_Driver/Src/stm32f4xx_hal_sd.c ****       {
1452:./Libraries/STM32F4xx_HAL_Driver/Src/stm32f4xx_hal_sd.c ****         errorstate = SDMMC_CmdStopTransfer(hsd->Instance);
1453:./Libraries/STM32F4xx_HAL_Driver/Src/stm32f4xx_hal_sd.c ****         if(errorstate != HAL_SD_ERROR_NONE)
1454:./Libraries/STM32F4xx_HAL_Driver/Src/stm32f4xx_hal_sd.c ****         {
1455:./Libraries/STM32F4xx_HAL_Driver/Src/stm32f4xx_hal_sd.c ****           hsd->ErrorCode |= errorstate;
1456:./Libraries/STM32F4xx_HAL_Driver/Src/stm32f4xx_hal_sd.c ****           HAL_SD_ErrorCallback(hsd);
1457:./Libraries/STM32F4xx_HAL_Driver/Src/stm32f4xx_hal_sd.c ****         }
1458:./Libraries/STM32F4xx_HAL_Driver/Src/stm32f4xx_hal_sd.c ****       }
1459:./Libraries/STM32F4xx_HAL_Driver/Src/stm32f4xx_hal_sd.c ****       if(((hsd->Context & SD_CONTEXT_READ_SINGLE_BLOCK) == RESET) && ((hsd->Context & SD_CONTEXT_RE
1460:./Libraries/STM32F4xx_HAL_Driver/Src/stm32f4xx_hal_sd.c ****       {
1461:./Libraries/STM32F4xx_HAL_Driver/Src/stm32f4xx_hal_sd.c ****         /* Disable the DMA transfer for transmit request by setting the DMAEN bit
1462:./Libraries/STM32F4xx_HAL_Driver/Src/stm32f4xx_hal_sd.c ****         in the SD DCTRL register */
1463:./Libraries/STM32F4xx_HAL_Driver/Src/stm32f4xx_hal_sd.c ****         hsd->Instance->DCTRL &= (uint32_t)~((uint32_t)SDIO_DCTRL_DMAEN);
1464:./Libraries/STM32F4xx_HAL_Driver/Src/stm32f4xx_hal_sd.c ****         
1465:./Libraries/STM32F4xx_HAL_Driver/Src/stm32f4xx_hal_sd.c ****         hsd->State = HAL_SD_STATE_READY;
1466:./Libraries/STM32F4xx_HAL_Driver/Src/stm32f4xx_hal_sd.c ****         
1467:./Libraries/STM32F4xx_HAL_Driver/Src/stm32f4xx_hal_sd.c ****         HAL_SD_TxCpltCallback(hsd);
1468:./Libraries/STM32F4xx_HAL_Driver/Src/stm32f4xx_hal_sd.c ****       }
1469:./Libraries/STM32F4xx_HAL_Driver/Src/stm32f4xx_hal_sd.c ****     }
1470:./Libraries/STM32F4xx_HAL_Driver/Src/stm32f4xx_hal_sd.c ****   }
1471:./Libraries/STM32F4xx_HAL_Driver/Src/stm32f4xx_hal_sd.c ****   
1472:./Libraries/STM32F4xx_HAL_Driver/Src/stm32f4xx_hal_sd.c ****   else if(__HAL_SD_GET_FLAG(hsd, SDIO_IT_TXFIFOHE) != RESET)
1473:./Libraries/STM32F4xx_HAL_Driver/Src/stm32f4xx_hal_sd.c ****   {
1474:./Libraries/STM32F4xx_HAL_Driver/Src/stm32f4xx_hal_sd.c ****     __HAL_SD_CLEAR_FLAG(hsd, SDIO_FLAG_TXFIFOHE);
1475:./Libraries/STM32F4xx_HAL_Driver/Src/stm32f4xx_hal_sd.c ****     
1476:./Libraries/STM32F4xx_HAL_Driver/Src/stm32f4xx_hal_sd.c ****     SD_Write_IT(hsd);
1477:./Libraries/STM32F4xx_HAL_Driver/Src/stm32f4xx_hal_sd.c ****   }
1478:./Libraries/STM32F4xx_HAL_Driver/Src/stm32f4xx_hal_sd.c ****   
1479:./Libraries/STM32F4xx_HAL_Driver/Src/stm32f4xx_hal_sd.c ****   else if(__HAL_SD_GET_FLAG(hsd, SDIO_IT_RXFIFOHF) != RESET)
1480:./Libraries/STM32F4xx_HAL_Driver/Src/stm32f4xx_hal_sd.c ****   {
1481:./Libraries/STM32F4xx_HAL_Driver/Src/stm32f4xx_hal_sd.c ****     __HAL_SD_CLEAR_FLAG(hsd, SDIO_FLAG_RXFIFOHF);
1482:./Libraries/STM32F4xx_HAL_Driver/Src/stm32f4xx_hal_sd.c ****     
1483:./Libraries/STM32F4xx_HAL_Driver/Src/stm32f4xx_hal_sd.c ****     SD_Read_IT(hsd);
1484:./Libraries/STM32F4xx_HAL_Driver/Src/stm32f4xx_hal_sd.c ****   }
1485:./Libraries/STM32F4xx_HAL_Driver/Src/stm32f4xx_hal_sd.c ****   
1486:./Libraries/STM32F4xx_HAL_Driver/Src/stm32f4xx_hal_sd.c **** #ifdef SDIO_STA_STBITERR
1487:./Libraries/STM32F4xx_HAL_Driver/Src/stm32f4xx_hal_sd.c ****   else if(__HAL_SD_GET_FLAG(hsd, SDIO_IT_DCRCFAIL | SDIO_IT_DTIMEOUT | SDIO_IT_RXOVERR | SDIO_IT_TX
1488:./Libraries/STM32F4xx_HAL_Driver/Src/stm32f4xx_hal_sd.c ****   {
1489:./Libraries/STM32F4xx_HAL_Driver/Src/stm32f4xx_hal_sd.c ****     /* Set Error code */
1490:./Libraries/STM32F4xx_HAL_Driver/Src/stm32f4xx_hal_sd.c ****     if(__HAL_SD_GET_FLAG(hsd, SDIO_IT_DCRCFAIL) != RESET)
1491:./Libraries/STM32F4xx_HAL_Driver/Src/stm32f4xx_hal_sd.c ****     {
1492:./Libraries/STM32F4xx_HAL_Driver/Src/stm32f4xx_hal_sd.c ****       hsd->ErrorCode |= HAL_SD_ERROR_DATA_CRC_FAIL; 
1493:./Libraries/STM32F4xx_HAL_Driver/Src/stm32f4xx_hal_sd.c ****     }
1494:./Libraries/STM32F4xx_HAL_Driver/Src/stm32f4xx_hal_sd.c ****     if(__HAL_SD_GET_FLAG(hsd, SDIO_IT_DTIMEOUT) != RESET)
1495:./Libraries/STM32F4xx_HAL_Driver/Src/stm32f4xx_hal_sd.c ****     {
1496:./Libraries/STM32F4xx_HAL_Driver/Src/stm32f4xx_hal_sd.c ****       hsd->ErrorCode |= HAL_SD_ERROR_DATA_TIMEOUT; 
1497:./Libraries/STM32F4xx_HAL_Driver/Src/stm32f4xx_hal_sd.c ****     }
1498:./Libraries/STM32F4xx_HAL_Driver/Src/stm32f4xx_hal_sd.c ****     if(__HAL_SD_GET_FLAG(hsd, SDIO_IT_RXOVERR) != RESET)
1499:./Libraries/STM32F4xx_HAL_Driver/Src/stm32f4xx_hal_sd.c ****     {
ARM GAS  /tmp/ccMhfXg8.s 			page 77


1500:./Libraries/STM32F4xx_HAL_Driver/Src/stm32f4xx_hal_sd.c ****       hsd->ErrorCode |= HAL_SD_ERROR_RX_OVERRUN; 
1501:./Libraries/STM32F4xx_HAL_Driver/Src/stm32f4xx_hal_sd.c ****     }
1502:./Libraries/STM32F4xx_HAL_Driver/Src/stm32f4xx_hal_sd.c ****     if(__HAL_SD_GET_FLAG(hsd, SDIO_IT_TXUNDERR) != RESET)
1503:./Libraries/STM32F4xx_HAL_Driver/Src/stm32f4xx_hal_sd.c ****     {
1504:./Libraries/STM32F4xx_HAL_Driver/Src/stm32f4xx_hal_sd.c ****       hsd->ErrorCode |= HAL_SD_ERROR_TX_UNDERRUN; 
1505:./Libraries/STM32F4xx_HAL_Driver/Src/stm32f4xx_hal_sd.c ****     }
1506:./Libraries/STM32F4xx_HAL_Driver/Src/stm32f4xx_hal_sd.c ****     if(__HAL_SD_GET_FLAG(hsd, SDIO_IT_STBITERR) != RESET)
1507:./Libraries/STM32F4xx_HAL_Driver/Src/stm32f4xx_hal_sd.c ****     {
1508:./Libraries/STM32F4xx_HAL_Driver/Src/stm32f4xx_hal_sd.c ****       hsd->ErrorCode |= HAL_SD_ERROR_DATA_TIMEOUT;
1509:./Libraries/STM32F4xx_HAL_Driver/Src/stm32f4xx_hal_sd.c ****     }
1510:./Libraries/STM32F4xx_HAL_Driver/Src/stm32f4xx_hal_sd.c **** 
1511:./Libraries/STM32F4xx_HAL_Driver/Src/stm32f4xx_hal_sd.c ****     /* Clear All flags */
1512:./Libraries/STM32F4xx_HAL_Driver/Src/stm32f4xx_hal_sd.c ****     __HAL_SD_CLEAR_FLAG(hsd, SDIO_STATIC_FLAGS | SDIO_FLAG_STBITERR);
1513:./Libraries/STM32F4xx_HAL_Driver/Src/stm32f4xx_hal_sd.c ****     
1514:./Libraries/STM32F4xx_HAL_Driver/Src/stm32f4xx_hal_sd.c ****     /* Disable all interrupts */
1515:./Libraries/STM32F4xx_HAL_Driver/Src/stm32f4xx_hal_sd.c ****     __HAL_SD_DISABLE_IT(hsd, SDIO_IT_DATAEND | SDIO_IT_DCRCFAIL | SDIO_IT_DTIMEOUT|\
1516:./Libraries/STM32F4xx_HAL_Driver/Src/stm32f4xx_hal_sd.c ****                              SDIO_IT_TXUNDERR| SDIO_IT_RXOVERR |SDIO_IT_STBITERR);
1517:./Libraries/STM32F4xx_HAL_Driver/Src/stm32f4xx_hal_sd.c ****     
1518:./Libraries/STM32F4xx_HAL_Driver/Src/stm32f4xx_hal_sd.c ****     if((hsd->Context & SD_CONTEXT_DMA) != RESET)
1519:./Libraries/STM32F4xx_HAL_Driver/Src/stm32f4xx_hal_sd.c ****     {
1520:./Libraries/STM32F4xx_HAL_Driver/Src/stm32f4xx_hal_sd.c ****       /* Abort the SD DMA Streams */
1521:./Libraries/STM32F4xx_HAL_Driver/Src/stm32f4xx_hal_sd.c ****       if(hsd->hdmatx != NULL)
1522:./Libraries/STM32F4xx_HAL_Driver/Src/stm32f4xx_hal_sd.c ****       {
1523:./Libraries/STM32F4xx_HAL_Driver/Src/stm32f4xx_hal_sd.c ****         /* Set the DMA Tx abort callback */
1524:./Libraries/STM32F4xx_HAL_Driver/Src/stm32f4xx_hal_sd.c ****         hsd->hdmatx->XferAbortCallback = SD_DMATxAbort;
1525:./Libraries/STM32F4xx_HAL_Driver/Src/stm32f4xx_hal_sd.c ****         /* Abort DMA in IT mode */
1526:./Libraries/STM32F4xx_HAL_Driver/Src/stm32f4xx_hal_sd.c ****         if(HAL_DMA_Abort_IT(hsd->hdmatx) != HAL_OK)
1527:./Libraries/STM32F4xx_HAL_Driver/Src/stm32f4xx_hal_sd.c ****         {
1528:./Libraries/STM32F4xx_HAL_Driver/Src/stm32f4xx_hal_sd.c ****           SD_DMATxAbort(hsd->hdmatx);
1529:./Libraries/STM32F4xx_HAL_Driver/Src/stm32f4xx_hal_sd.c ****         }
1530:./Libraries/STM32F4xx_HAL_Driver/Src/stm32f4xx_hal_sd.c ****       }
1531:./Libraries/STM32F4xx_HAL_Driver/Src/stm32f4xx_hal_sd.c ****       else if(hsd->hdmarx != NULL)
1532:./Libraries/STM32F4xx_HAL_Driver/Src/stm32f4xx_hal_sd.c ****       {
1533:./Libraries/STM32F4xx_HAL_Driver/Src/stm32f4xx_hal_sd.c ****         /* Set the DMA Rx abort callback */
1534:./Libraries/STM32F4xx_HAL_Driver/Src/stm32f4xx_hal_sd.c ****         hsd->hdmarx->XferAbortCallback = SD_DMARxAbort;
1535:./Libraries/STM32F4xx_HAL_Driver/Src/stm32f4xx_hal_sd.c ****         /* Abort DMA in IT mode */
1536:./Libraries/STM32F4xx_HAL_Driver/Src/stm32f4xx_hal_sd.c ****         if(HAL_DMA_Abort_IT(hsd->hdmarx) != HAL_OK)
1537:./Libraries/STM32F4xx_HAL_Driver/Src/stm32f4xx_hal_sd.c ****         {
1538:./Libraries/STM32F4xx_HAL_Driver/Src/stm32f4xx_hal_sd.c ****           SD_DMARxAbort(hsd->hdmarx);
1539:./Libraries/STM32F4xx_HAL_Driver/Src/stm32f4xx_hal_sd.c ****         }
1540:./Libraries/STM32F4xx_HAL_Driver/Src/stm32f4xx_hal_sd.c ****       }
1541:./Libraries/STM32F4xx_HAL_Driver/Src/stm32f4xx_hal_sd.c ****       else
1542:./Libraries/STM32F4xx_HAL_Driver/Src/stm32f4xx_hal_sd.c ****       {
1543:./Libraries/STM32F4xx_HAL_Driver/Src/stm32f4xx_hal_sd.c ****         hsd->ErrorCode = HAL_SD_ERROR_NONE;
1544:./Libraries/STM32F4xx_HAL_Driver/Src/stm32f4xx_hal_sd.c ****         hsd->State = HAL_SD_STATE_READY;
1545:./Libraries/STM32F4xx_HAL_Driver/Src/stm32f4xx_hal_sd.c ****         HAL_SD_AbortCallback(hsd);
1546:./Libraries/STM32F4xx_HAL_Driver/Src/stm32f4xx_hal_sd.c ****       }
1547:./Libraries/STM32F4xx_HAL_Driver/Src/stm32f4xx_hal_sd.c ****     }
1548:./Libraries/STM32F4xx_HAL_Driver/Src/stm32f4xx_hal_sd.c ****     else if((hsd->Context & SD_CONTEXT_IT) != RESET)
1549:./Libraries/STM32F4xx_HAL_Driver/Src/stm32f4xx_hal_sd.c ****     {
1550:./Libraries/STM32F4xx_HAL_Driver/Src/stm32f4xx_hal_sd.c ****       /* Set the SD state to ready to be able to start again the process */
1551:./Libraries/STM32F4xx_HAL_Driver/Src/stm32f4xx_hal_sd.c ****       hsd->State = HAL_SD_STATE_READY;
1552:./Libraries/STM32F4xx_HAL_Driver/Src/stm32f4xx_hal_sd.c ****       HAL_SD_ErrorCallback(hsd);
1553:./Libraries/STM32F4xx_HAL_Driver/Src/stm32f4xx_hal_sd.c ****     }
1554:./Libraries/STM32F4xx_HAL_Driver/Src/stm32f4xx_hal_sd.c ****   }
1555:./Libraries/STM32F4xx_HAL_Driver/Src/stm32f4xx_hal_sd.c **** #else /* SDIO_STA_STBITERR not defined */
1556:./Libraries/STM32F4xx_HAL_Driver/Src/stm32f4xx_hal_sd.c ****   else if(__HAL_SD_GET_FLAG(hsd, SDIO_IT_DCRCFAIL | SDIO_IT_DTIMEOUT | SDIO_IT_RXOVERR | SDIO_IT_TX
ARM GAS  /tmp/ccMhfXg8.s 			page 78


1557:./Libraries/STM32F4xx_HAL_Driver/Src/stm32f4xx_hal_sd.c ****   {
1558:./Libraries/STM32F4xx_HAL_Driver/Src/stm32f4xx_hal_sd.c ****     /* Set Error code */
1559:./Libraries/STM32F4xx_HAL_Driver/Src/stm32f4xx_hal_sd.c ****     if(__HAL_SD_GET_FLAG(hsd, SDIO_IT_DCRCFAIL) != RESET)
1560:./Libraries/STM32F4xx_HAL_Driver/Src/stm32f4xx_hal_sd.c ****     {
1561:./Libraries/STM32F4xx_HAL_Driver/Src/stm32f4xx_hal_sd.c ****       hsd->ErrorCode |= HAL_SD_ERROR_DATA_CRC_FAIL; 
1562:./Libraries/STM32F4xx_HAL_Driver/Src/stm32f4xx_hal_sd.c ****     }
1563:./Libraries/STM32F4xx_HAL_Driver/Src/stm32f4xx_hal_sd.c ****     if(__HAL_SD_GET_FLAG(hsd, SDIO_IT_DTIMEOUT) != RESET)
1564:./Libraries/STM32F4xx_HAL_Driver/Src/stm32f4xx_hal_sd.c ****     {
1565:./Libraries/STM32F4xx_HAL_Driver/Src/stm32f4xx_hal_sd.c ****       hsd->ErrorCode |= HAL_SD_ERROR_DATA_TIMEOUT; 
1566:./Libraries/STM32F4xx_HAL_Driver/Src/stm32f4xx_hal_sd.c ****     }
1567:./Libraries/STM32F4xx_HAL_Driver/Src/stm32f4xx_hal_sd.c ****     if(__HAL_SD_GET_FLAG(hsd, SDIO_IT_RXOVERR) != RESET)
1568:./Libraries/STM32F4xx_HAL_Driver/Src/stm32f4xx_hal_sd.c ****     {
1569:./Libraries/STM32F4xx_HAL_Driver/Src/stm32f4xx_hal_sd.c ****       hsd->ErrorCode |= HAL_SD_ERROR_RX_OVERRUN; 
1570:./Libraries/STM32F4xx_HAL_Driver/Src/stm32f4xx_hal_sd.c ****     }
1571:./Libraries/STM32F4xx_HAL_Driver/Src/stm32f4xx_hal_sd.c ****     if(__HAL_SD_GET_FLAG(hsd, SDIO_IT_TXUNDERR) != RESET)
1572:./Libraries/STM32F4xx_HAL_Driver/Src/stm32f4xx_hal_sd.c ****     {
1573:./Libraries/STM32F4xx_HAL_Driver/Src/stm32f4xx_hal_sd.c ****       hsd->ErrorCode |= HAL_SD_ERROR_TX_UNDERRUN; 
1574:./Libraries/STM32F4xx_HAL_Driver/Src/stm32f4xx_hal_sd.c ****     }
1575:./Libraries/STM32F4xx_HAL_Driver/Src/stm32f4xx_hal_sd.c **** 
1576:./Libraries/STM32F4xx_HAL_Driver/Src/stm32f4xx_hal_sd.c ****     /* Clear All flags */
1577:./Libraries/STM32F4xx_HAL_Driver/Src/stm32f4xx_hal_sd.c ****     __HAL_SD_CLEAR_FLAG(hsd, SDIO_STATIC_FLAGS);
1578:./Libraries/STM32F4xx_HAL_Driver/Src/stm32f4xx_hal_sd.c ****     
1579:./Libraries/STM32F4xx_HAL_Driver/Src/stm32f4xx_hal_sd.c ****     /* Disable all interrupts */
1580:./Libraries/STM32F4xx_HAL_Driver/Src/stm32f4xx_hal_sd.c ****     __HAL_SD_DISABLE_IT(hsd, SDIO_IT_DATAEND | SDIO_IT_DCRCFAIL | SDIO_IT_DTIMEOUT|\
1581:./Libraries/STM32F4xx_HAL_Driver/Src/stm32f4xx_hal_sd.c ****                              SDIO_IT_TXUNDERR| SDIO_IT_RXOVERR);
1582:./Libraries/STM32F4xx_HAL_Driver/Src/stm32f4xx_hal_sd.c ****     
1583:./Libraries/STM32F4xx_HAL_Driver/Src/stm32f4xx_hal_sd.c ****     if((hsd->Context & SD_CONTEXT_DMA) != RESET)
1584:./Libraries/STM32F4xx_HAL_Driver/Src/stm32f4xx_hal_sd.c ****     {
1585:./Libraries/STM32F4xx_HAL_Driver/Src/stm32f4xx_hal_sd.c ****       /* Abort the SD DMA Streams */
1586:./Libraries/STM32F4xx_HAL_Driver/Src/stm32f4xx_hal_sd.c ****       if(hsd->hdmatx != NULL)
1587:./Libraries/STM32F4xx_HAL_Driver/Src/stm32f4xx_hal_sd.c ****       {
1588:./Libraries/STM32F4xx_HAL_Driver/Src/stm32f4xx_hal_sd.c ****         /* Set the DMA Tx abort callback */
1589:./Libraries/STM32F4xx_HAL_Driver/Src/stm32f4xx_hal_sd.c ****         hsd->hdmatx->XferAbortCallback = SD_DMATxAbort;
1590:./Libraries/STM32F4xx_HAL_Driver/Src/stm32f4xx_hal_sd.c ****         /* Abort DMA in IT mode */
1591:./Libraries/STM32F4xx_HAL_Driver/Src/stm32f4xx_hal_sd.c ****         if(HAL_DMA_Abort_IT(hsd->hdmatx) != HAL_OK)
1592:./Libraries/STM32F4xx_HAL_Driver/Src/stm32f4xx_hal_sd.c ****         {
1593:./Libraries/STM32F4xx_HAL_Driver/Src/stm32f4xx_hal_sd.c ****           SD_DMATxAbort(hsd->hdmatx);
1594:./Libraries/STM32F4xx_HAL_Driver/Src/stm32f4xx_hal_sd.c ****         }
1595:./Libraries/STM32F4xx_HAL_Driver/Src/stm32f4xx_hal_sd.c ****       }
1596:./Libraries/STM32F4xx_HAL_Driver/Src/stm32f4xx_hal_sd.c ****       else if(hsd->hdmarx != NULL)
1597:./Libraries/STM32F4xx_HAL_Driver/Src/stm32f4xx_hal_sd.c ****       {
1598:./Libraries/STM32F4xx_HAL_Driver/Src/stm32f4xx_hal_sd.c ****         /* Set the DMA Rx abort callback */
1599:./Libraries/STM32F4xx_HAL_Driver/Src/stm32f4xx_hal_sd.c ****         hsd->hdmarx->XferAbortCallback = SD_DMARxAbort;
1600:./Libraries/STM32F4xx_HAL_Driver/Src/stm32f4xx_hal_sd.c ****         /* Abort DMA in IT mode */
1601:./Libraries/STM32F4xx_HAL_Driver/Src/stm32f4xx_hal_sd.c ****         if(HAL_DMA_Abort_IT(hsd->hdmarx) != HAL_OK)
1602:./Libraries/STM32F4xx_HAL_Driver/Src/stm32f4xx_hal_sd.c ****         {
1603:./Libraries/STM32F4xx_HAL_Driver/Src/stm32f4xx_hal_sd.c ****           SD_DMARxAbort(hsd->hdmarx);
1604:./Libraries/STM32F4xx_HAL_Driver/Src/stm32f4xx_hal_sd.c ****         }
1605:./Libraries/STM32F4xx_HAL_Driver/Src/stm32f4xx_hal_sd.c ****       }
1606:./Libraries/STM32F4xx_HAL_Driver/Src/stm32f4xx_hal_sd.c ****       else
1607:./Libraries/STM32F4xx_HAL_Driver/Src/stm32f4xx_hal_sd.c ****       {
1608:./Libraries/STM32F4xx_HAL_Driver/Src/stm32f4xx_hal_sd.c ****         hsd->ErrorCode = HAL_SD_ERROR_NONE;
1609:./Libraries/STM32F4xx_HAL_Driver/Src/stm32f4xx_hal_sd.c ****         hsd->State = HAL_SD_STATE_READY;
1610:./Libraries/STM32F4xx_HAL_Driver/Src/stm32f4xx_hal_sd.c ****         HAL_SD_AbortCallback(hsd);
1611:./Libraries/STM32F4xx_HAL_Driver/Src/stm32f4xx_hal_sd.c ****       }
1612:./Libraries/STM32F4xx_HAL_Driver/Src/stm32f4xx_hal_sd.c ****     }
1613:./Libraries/STM32F4xx_HAL_Driver/Src/stm32f4xx_hal_sd.c ****     else if((hsd->Context & SD_CONTEXT_IT) != RESET)
ARM GAS  /tmp/ccMhfXg8.s 			page 79


1614:./Libraries/STM32F4xx_HAL_Driver/Src/stm32f4xx_hal_sd.c ****     {
1615:./Libraries/STM32F4xx_HAL_Driver/Src/stm32f4xx_hal_sd.c ****       /* Set the SD state to ready to be able to start again the process */
1616:./Libraries/STM32F4xx_HAL_Driver/Src/stm32f4xx_hal_sd.c ****       hsd->State = HAL_SD_STATE_READY;
1617:./Libraries/STM32F4xx_HAL_Driver/Src/stm32f4xx_hal_sd.c ****       HAL_SD_ErrorCallback(hsd);
1618:./Libraries/STM32F4xx_HAL_Driver/Src/stm32f4xx_hal_sd.c ****     }
1619:./Libraries/STM32F4xx_HAL_Driver/Src/stm32f4xx_hal_sd.c ****   }
1620:./Libraries/STM32F4xx_HAL_Driver/Src/stm32f4xx_hal_sd.c **** #endif
1621:./Libraries/STM32F4xx_HAL_Driver/Src/stm32f4xx_hal_sd.c **** }
 2849              		.loc 1 1621 1
 2850 00b2 03E1     		b	.L141
 2851              	.L127:
1445:./Libraries/STM32F4xx_HAL_Driver/Src/stm32f4xx_hal_sd.c ****       }
 2852              		.loc 1 1445 9
 2853 00b4 7868     		ldr	r0, [r7, #4]
 2854 00b6 FFF7FEFF 		bl	HAL_SD_TxCpltCallback
 2855              		.loc 1 1621 1
 2856 00ba FFE0     		b	.L141
 2857              	.L123:
1448:./Libraries/STM32F4xx_HAL_Driver/Src/stm32f4xx_hal_sd.c ****     {
 2858              		.loc 1 1448 17
 2859 00bc 7B68     		ldr	r3, [r7, #4]
 2860 00be 1B6B     		ldr	r3, [r3, #48]
1448:./Libraries/STM32F4xx_HAL_Driver/Src/stm32f4xx_hal_sd.c ****     {
 2861              		.loc 1 1448 27
 2862 00c0 03F08003 		and	r3, r3, #128
1448:./Libraries/STM32F4xx_HAL_Driver/Src/stm32f4xx_hal_sd.c ****     {
 2863              		.loc 1 1448 12
 2864 00c4 002B     		cmp	r3, #0
 2865 00c6 00F0F980 		beq	.L141
1450:./Libraries/STM32F4xx_HAL_Driver/Src/stm32f4xx_hal_sd.c ****       {
 2866              		.loc 1 1450 14
 2867 00ca 7B68     		ldr	r3, [r7, #4]
 2868 00cc 1B6B     		ldr	r3, [r3, #48]
1450:./Libraries/STM32F4xx_HAL_Driver/Src/stm32f4xx_hal_sd.c ****       {
 2869              		.loc 1 1450 24
 2870 00ce 03F02003 		and	r3, r3, #32
1450:./Libraries/STM32F4xx_HAL_Driver/Src/stm32f4xx_hal_sd.c ****       {
 2871              		.loc 1 1450 9
 2872 00d2 002B     		cmp	r3, #0
 2873 00d4 11D0     		beq	.L130
1452:./Libraries/STM32F4xx_HAL_Driver/Src/stm32f4xx_hal_sd.c ****         if(errorstate != HAL_SD_ERROR_NONE)
 2874              		.loc 1 1452 22
 2875 00d6 7B68     		ldr	r3, [r7, #4]
 2876 00d8 1B68     		ldr	r3, [r3]
 2877 00da 1846     		mov	r0, r3
 2878 00dc FFF7FEFF 		bl	SDMMC_CmdStopTransfer
 2879 00e0 F860     		str	r0, [r7, #12]
1453:./Libraries/STM32F4xx_HAL_Driver/Src/stm32f4xx_hal_sd.c ****         {
 2880              		.loc 1 1453 11
 2881 00e2 FB68     		ldr	r3, [r7, #12]
 2882 00e4 002B     		cmp	r3, #0
 2883 00e6 08D0     		beq	.L130
1455:./Libraries/STM32F4xx_HAL_Driver/Src/stm32f4xx_hal_sd.c ****           HAL_SD_ErrorCallback(hsd);
 2884              		.loc 1 1455 26
 2885 00e8 7B68     		ldr	r3, [r7, #4]
 2886 00ea 9A6B     		ldr	r2, [r3, #56]
 2887 00ec FB68     		ldr	r3, [r7, #12]
ARM GAS  /tmp/ccMhfXg8.s 			page 80


 2888 00ee 1A43     		orrs	r2, r2, r3
 2889 00f0 7B68     		ldr	r3, [r7, #4]
 2890 00f2 9A63     		str	r2, [r3, #56]
1456:./Libraries/STM32F4xx_HAL_Driver/Src/stm32f4xx_hal_sd.c ****         }
 2891              		.loc 1 1456 11
 2892 00f4 7868     		ldr	r0, [r7, #4]
 2893 00f6 FFF7FEFF 		bl	HAL_SD_ErrorCallback
 2894              	.L130:
1459:./Libraries/STM32F4xx_HAL_Driver/Src/stm32f4xx_hal_sd.c ****       {
 2895              		.loc 1 1459 15
 2896 00fa 7B68     		ldr	r3, [r7, #4]
 2897 00fc 1B6B     		ldr	r3, [r3, #48]
1459:./Libraries/STM32F4xx_HAL_Driver/Src/stm32f4xx_hal_sd.c ****       {
 2898              		.loc 1 1459 25
 2899 00fe 03F00103 		and	r3, r3, #1
1459:./Libraries/STM32F4xx_HAL_Driver/Src/stm32f4xx_hal_sd.c ****       {
 2900              		.loc 1 1459 9
 2901 0102 002B     		cmp	r3, #0
 2902 0104 40F0DA80 		bne	.L141
1459:./Libraries/STM32F4xx_HAL_Driver/Src/stm32f4xx_hal_sd.c ****       {
 2903              		.loc 1 1459 75 discriminator 1
 2904 0108 7B68     		ldr	r3, [r7, #4]
 2905 010a 1B6B     		ldr	r3, [r3, #48]
1459:./Libraries/STM32F4xx_HAL_Driver/Src/stm32f4xx_hal_sd.c ****       {
 2906              		.loc 1 1459 85 discriminator 1
 2907 010c 03F00203 		and	r3, r3, #2
1459:./Libraries/STM32F4xx_HAL_Driver/Src/stm32f4xx_hal_sd.c ****       {
 2908              		.loc 1 1459 67 discriminator 1
 2909 0110 002B     		cmp	r3, #0
 2910 0112 40F0D380 		bne	.L141
1463:./Libraries/STM32F4xx_HAL_Driver/Src/stm32f4xx_hal_sd.c ****         
 2911              		.loc 1 1463 12
 2912 0116 7B68     		ldr	r3, [r7, #4]
 2913 0118 1B68     		ldr	r3, [r3]
1463:./Libraries/STM32F4xx_HAL_Driver/Src/stm32f4xx_hal_sd.c ****         
 2914              		.loc 1 1463 30
 2915 011a DA6A     		ldr	r2, [r3, #44]
1463:./Libraries/STM32F4xx_HAL_Driver/Src/stm32f4xx_hal_sd.c ****         
 2916              		.loc 1 1463 12
 2917 011c 7B68     		ldr	r3, [r7, #4]
 2918 011e 1B68     		ldr	r3, [r3]
1463:./Libraries/STM32F4xx_HAL_Driver/Src/stm32f4xx_hal_sd.c ****         
 2919              		.loc 1 1463 30
 2920 0120 22F00802 		bic	r2, r2, #8
 2921 0124 DA62     		str	r2, [r3, #44]
1465:./Libraries/STM32F4xx_HAL_Driver/Src/stm32f4xx_hal_sd.c ****         
 2922              		.loc 1 1465 20
 2923 0126 7B68     		ldr	r3, [r7, #4]
 2924 0128 0122     		movs	r2, #1
 2925 012a 83F83420 		strb	r2, [r3, #52]
1467:./Libraries/STM32F4xx_HAL_Driver/Src/stm32f4xx_hal_sd.c ****       }
 2926              		.loc 1 1467 9
 2927 012e 7868     		ldr	r0, [r7, #4]
 2928 0130 FFF7FEFF 		bl	HAL_SD_TxCpltCallback
 2929              		.loc 1 1621 1
 2930 0134 C2E0     		b	.L141
 2931              	.L122:
ARM GAS  /tmp/ccMhfXg8.s 			page 81


1472:./Libraries/STM32F4xx_HAL_Driver/Src/stm32f4xx_hal_sd.c ****   {
 2932              		.loc 1 1472 11
 2933 0136 7B68     		ldr	r3, [r7, #4]
 2934 0138 1B68     		ldr	r3, [r3]
 2935 013a 5B6B     		ldr	r3, [r3, #52]
 2936 013c 03F48043 		and	r3, r3, #16384
1472:./Libraries/STM32F4xx_HAL_Driver/Src/stm32f4xx_hal_sd.c ****   {
 2937              		.loc 1 1472 10
 2938 0140 002B     		cmp	r3, #0
 2939 0142 08D0     		beq	.L131
1474:./Libraries/STM32F4xx_HAL_Driver/Src/stm32f4xx_hal_sd.c ****     
 2940              		.loc 1 1474 5
 2941 0144 7B68     		ldr	r3, [r7, #4]
 2942 0146 1B68     		ldr	r3, [r3]
 2943 0148 4FF48042 		mov	r2, #16384
 2944 014c 9A63     		str	r2, [r3, #56]
1476:./Libraries/STM32F4xx_HAL_Driver/Src/stm32f4xx_hal_sd.c ****   }
 2945              		.loc 1 1476 5
 2946 014e 7868     		ldr	r0, [r7, #4]
 2947 0150 FFF7FEFF 		bl	SD_Write_IT
 2948              		.loc 1 1621 1
 2949 0154 B2E0     		b	.L141
 2950              	.L131:
1479:./Libraries/STM32F4xx_HAL_Driver/Src/stm32f4xx_hal_sd.c ****   {
 2951              		.loc 1 1479 11
 2952 0156 7B68     		ldr	r3, [r7, #4]
 2953 0158 1B68     		ldr	r3, [r3]
 2954 015a 5B6B     		ldr	r3, [r3, #52]
 2955 015c 03F40043 		and	r3, r3, #32768
1479:./Libraries/STM32F4xx_HAL_Driver/Src/stm32f4xx_hal_sd.c ****   {
 2956              		.loc 1 1479 10
 2957 0160 002B     		cmp	r3, #0
 2958 0162 08D0     		beq	.L132
1481:./Libraries/STM32F4xx_HAL_Driver/Src/stm32f4xx_hal_sd.c ****     
 2959              		.loc 1 1481 5
 2960 0164 7B68     		ldr	r3, [r7, #4]
 2961 0166 1B68     		ldr	r3, [r3]
 2962 0168 4FF40042 		mov	r2, #32768
 2963 016c 9A63     		str	r2, [r3, #56]
1483:./Libraries/STM32F4xx_HAL_Driver/Src/stm32f4xx_hal_sd.c ****   }
 2964              		.loc 1 1483 5
 2965 016e 7868     		ldr	r0, [r7, #4]
 2966 0170 FFF7FEFF 		bl	SD_Read_IT
 2967              		.loc 1 1621 1
 2968 0174 A2E0     		b	.L141
 2969              	.L132:
1487:./Libraries/STM32F4xx_HAL_Driver/Src/stm32f4xx_hal_sd.c ****   {
 2970              		.loc 1 1487 11
 2971 0176 7B68     		ldr	r3, [r7, #4]
 2972 0178 1B68     		ldr	r3, [r3]
 2973 017a 5A6B     		ldr	r2, [r3, #52]
 2974 017c 40F23A23 		movw	r3, #570
 2975 0180 1340     		ands	r3, r3, r2
1487:./Libraries/STM32F4xx_HAL_Driver/Src/stm32f4xx_hal_sd.c ****   {
 2976              		.loc 1 1487 10
 2977 0182 002B     		cmp	r3, #0
 2978 0184 00F09A80 		beq	.L141
ARM GAS  /tmp/ccMhfXg8.s 			page 82


1490:./Libraries/STM32F4xx_HAL_Driver/Src/stm32f4xx_hal_sd.c ****     {
 2979              		.loc 1 1490 8
 2980 0188 7B68     		ldr	r3, [r7, #4]
 2981 018a 1B68     		ldr	r3, [r3]
 2982 018c 5B6B     		ldr	r3, [r3, #52]
 2983 018e 03F00203 		and	r3, r3, #2
1490:./Libraries/STM32F4xx_HAL_Driver/Src/stm32f4xx_hal_sd.c ****     {
 2984              		.loc 1 1490 7
 2985 0192 002B     		cmp	r3, #0
 2986 0194 05D0     		beq	.L133
1492:./Libraries/STM32F4xx_HAL_Driver/Src/stm32f4xx_hal_sd.c ****     }
 2987              		.loc 1 1492 22
 2988 0196 7B68     		ldr	r3, [r7, #4]
 2989 0198 9B6B     		ldr	r3, [r3, #56]
 2990 019a 43F00202 		orr	r2, r3, #2
 2991 019e 7B68     		ldr	r3, [r7, #4]
 2992 01a0 9A63     		str	r2, [r3, #56]
 2993              	.L133:
1494:./Libraries/STM32F4xx_HAL_Driver/Src/stm32f4xx_hal_sd.c ****     {
 2994              		.loc 1 1494 8
 2995 01a2 7B68     		ldr	r3, [r7, #4]
 2996 01a4 1B68     		ldr	r3, [r3]
 2997 01a6 5B6B     		ldr	r3, [r3, #52]
 2998 01a8 03F00803 		and	r3, r3, #8
1494:./Libraries/STM32F4xx_HAL_Driver/Src/stm32f4xx_hal_sd.c ****     {
 2999              		.loc 1 1494 7
 3000 01ac 002B     		cmp	r3, #0
 3001 01ae 05D0     		beq	.L134
1496:./Libraries/STM32F4xx_HAL_Driver/Src/stm32f4xx_hal_sd.c ****     }
 3002              		.loc 1 1496 22
 3003 01b0 7B68     		ldr	r3, [r7, #4]
 3004 01b2 9B6B     		ldr	r3, [r3, #56]
 3005 01b4 43F00802 		orr	r2, r3, #8
 3006 01b8 7B68     		ldr	r3, [r7, #4]
 3007 01ba 9A63     		str	r2, [r3, #56]
 3008              	.L134:
1498:./Libraries/STM32F4xx_HAL_Driver/Src/stm32f4xx_hal_sd.c ****     {
 3009              		.loc 1 1498 8
 3010 01bc 7B68     		ldr	r3, [r7, #4]
 3011 01be 1B68     		ldr	r3, [r3]
 3012 01c0 5B6B     		ldr	r3, [r3, #52]
 3013 01c2 03F02003 		and	r3, r3, #32
1498:./Libraries/STM32F4xx_HAL_Driver/Src/stm32f4xx_hal_sd.c ****     {
 3014              		.loc 1 1498 7
 3015 01c6 002B     		cmp	r3, #0
 3016 01c8 05D0     		beq	.L135
1500:./Libraries/STM32F4xx_HAL_Driver/Src/stm32f4xx_hal_sd.c ****     }
 3017              		.loc 1 1500 22
 3018 01ca 7B68     		ldr	r3, [r7, #4]
 3019 01cc 9B6B     		ldr	r3, [r3, #56]
 3020 01ce 43F02002 		orr	r2, r3, #32
 3021 01d2 7B68     		ldr	r3, [r7, #4]
 3022 01d4 9A63     		str	r2, [r3, #56]
 3023              	.L135:
1502:./Libraries/STM32F4xx_HAL_Driver/Src/stm32f4xx_hal_sd.c ****     {
 3024              		.loc 1 1502 8
 3025 01d6 7B68     		ldr	r3, [r7, #4]
ARM GAS  /tmp/ccMhfXg8.s 			page 83


 3026 01d8 1B68     		ldr	r3, [r3]
 3027 01da 5B6B     		ldr	r3, [r3, #52]
 3028 01dc 03F01003 		and	r3, r3, #16
1502:./Libraries/STM32F4xx_HAL_Driver/Src/stm32f4xx_hal_sd.c ****     {
 3029              		.loc 1 1502 7
 3030 01e0 002B     		cmp	r3, #0
 3031 01e2 05D0     		beq	.L136
1504:./Libraries/STM32F4xx_HAL_Driver/Src/stm32f4xx_hal_sd.c ****     }
 3032              		.loc 1 1504 22
 3033 01e4 7B68     		ldr	r3, [r7, #4]
 3034 01e6 9B6B     		ldr	r3, [r3, #56]
 3035 01e8 43F01002 		orr	r2, r3, #16
 3036 01ec 7B68     		ldr	r3, [r7, #4]
 3037 01ee 9A63     		str	r2, [r3, #56]
 3038              	.L136:
1506:./Libraries/STM32F4xx_HAL_Driver/Src/stm32f4xx_hal_sd.c ****     {
 3039              		.loc 1 1506 8
 3040 01f0 7B68     		ldr	r3, [r7, #4]
 3041 01f2 1B68     		ldr	r3, [r3]
 3042 01f4 5B6B     		ldr	r3, [r3, #52]
 3043 01f6 03F40073 		and	r3, r3, #512
1506:./Libraries/STM32F4xx_HAL_Driver/Src/stm32f4xx_hal_sd.c ****     {
 3044              		.loc 1 1506 7
 3045 01fa 002B     		cmp	r3, #0
 3046 01fc 05D0     		beq	.L137
1508:./Libraries/STM32F4xx_HAL_Driver/Src/stm32f4xx_hal_sd.c ****     }
 3047              		.loc 1 1508 22
 3048 01fe 7B68     		ldr	r3, [r7, #4]
 3049 0200 9B6B     		ldr	r3, [r3, #56]
 3050 0202 43F00802 		orr	r2, r3, #8
 3051 0206 7B68     		ldr	r3, [r7, #4]
 3052 0208 9A63     		str	r2, [r3, #56]
 3053              	.L137:
1512:./Libraries/STM32F4xx_HAL_Driver/Src/stm32f4xx_hal_sd.c ****     
 3054              		.loc 1 1512 5
 3055 020a 7B68     		ldr	r3, [r7, #4]
 3056 020c 1B68     		ldr	r3, [r3]
 3057 020e 40F2FF72 		movw	r2, #2047
 3058 0212 9A63     		str	r2, [r3, #56]
1515:./Libraries/STM32F4xx_HAL_Driver/Src/stm32f4xx_hal_sd.c ****                              SDIO_IT_TXUNDERR| SDIO_IT_RXOVERR |SDIO_IT_STBITERR);
 3059              		.loc 1 1515 5
 3060 0214 7B68     		ldr	r3, [r7, #4]
 3061 0216 1B68     		ldr	r3, [r3]
 3062 0218 DB6B     		ldr	r3, [r3, #60]
 3063 021a 7A68     		ldr	r2, [r7, #4]
 3064 021c 1268     		ldr	r2, [r2]
 3065 021e 23F44E73 		bic	r3, r3, #824
 3066 0222 23F00203 		bic	r3, r3, #2
 3067 0226 D363     		str	r3, [r2, #60]
1518:./Libraries/STM32F4xx_HAL_Driver/Src/stm32f4xx_hal_sd.c ****     {
 3068              		.loc 1 1518 12
 3069 0228 7B68     		ldr	r3, [r7, #4]
 3070 022a 1B6B     		ldr	r3, [r3, #48]
1518:./Libraries/STM32F4xx_HAL_Driver/Src/stm32f4xx_hal_sd.c ****     {
 3071              		.loc 1 1518 22
 3072 022c 03F08003 		and	r3, r3, #128
1518:./Libraries/STM32F4xx_HAL_Driver/Src/stm32f4xx_hal_sd.c ****     {
ARM GAS  /tmp/ccMhfXg8.s 			page 84


 3073              		.loc 1 1518 7
 3074 0230 002B     		cmp	r3, #0
 3075 0232 36D0     		beq	.L138
1521:./Libraries/STM32F4xx_HAL_Driver/Src/stm32f4xx_hal_sd.c ****       {
 3076              		.loc 1 1521 13
 3077 0234 7B68     		ldr	r3, [r7, #4]
 3078 0236 1B6C     		ldr	r3, [r3, #64]
1521:./Libraries/STM32F4xx_HAL_Driver/Src/stm32f4xx_hal_sd.c ****       {
 3079              		.loc 1 1521 9
 3080 0238 002B     		cmp	r3, #0
 3081 023a 11D0     		beq	.L139
1524:./Libraries/STM32F4xx_HAL_Driver/Src/stm32f4xx_hal_sd.c ****         /* Abort DMA in IT mode */
 3082              		.loc 1 1524 12
 3083 023c 7B68     		ldr	r3, [r7, #4]
 3084 023e 1B6C     		ldr	r3, [r3, #64]
1524:./Libraries/STM32F4xx_HAL_Driver/Src/stm32f4xx_hal_sd.c ****         /* Abort DMA in IT mode */
 3085              		.loc 1 1524 40
 3086 0240 204A     		ldr	r2, .L142
 3087 0242 1A65     		str	r2, [r3, #80]
1526:./Libraries/STM32F4xx_HAL_Driver/Src/stm32f4xx_hal_sd.c ****         {
 3088              		.loc 1 1526 12
 3089 0244 7B68     		ldr	r3, [r7, #4]
 3090 0246 1B6C     		ldr	r3, [r3, #64]
 3091 0248 1846     		mov	r0, r3
 3092 024a FFF7FEFF 		bl	HAL_DMA_Abort_IT
 3093 024e 0346     		mov	r3, r0
1526:./Libraries/STM32F4xx_HAL_Driver/Src/stm32f4xx_hal_sd.c ****         {
 3094              		.loc 1 1526 11
 3095 0250 002B     		cmp	r3, #0
 3096 0252 33D0     		beq	.L141
1528:./Libraries/STM32F4xx_HAL_Driver/Src/stm32f4xx_hal_sd.c ****         }
 3097              		.loc 1 1528 11
 3098 0254 7B68     		ldr	r3, [r7, #4]
 3099 0256 1B6C     		ldr	r3, [r3, #64]
 3100 0258 1846     		mov	r0, r3
 3101 025a FFF7FEFF 		bl	SD_DMATxAbort
 3102              		.loc 1 1621 1
 3103 025e 2DE0     		b	.L141
 3104              	.L139:
1531:./Libraries/STM32F4xx_HAL_Driver/Src/stm32f4xx_hal_sd.c ****       {
 3105              		.loc 1 1531 18
 3106 0260 7B68     		ldr	r3, [r7, #4]
 3107 0262 DB6B     		ldr	r3, [r3, #60]
1531:./Libraries/STM32F4xx_HAL_Driver/Src/stm32f4xx_hal_sd.c ****       {
 3108              		.loc 1 1531 14
 3109 0264 002B     		cmp	r3, #0
 3110 0266 11D0     		beq	.L140
1534:./Libraries/STM32F4xx_HAL_Driver/Src/stm32f4xx_hal_sd.c ****         /* Abort DMA in IT mode */
 3111              		.loc 1 1534 12
 3112 0268 7B68     		ldr	r3, [r7, #4]
 3113 026a DB6B     		ldr	r3, [r3, #60]
1534:./Libraries/STM32F4xx_HAL_Driver/Src/stm32f4xx_hal_sd.c ****         /* Abort DMA in IT mode */
 3114              		.loc 1 1534 40
 3115 026c 164A     		ldr	r2, .L142+4
 3116 026e 1A65     		str	r2, [r3, #80]
1536:./Libraries/STM32F4xx_HAL_Driver/Src/stm32f4xx_hal_sd.c ****         {
 3117              		.loc 1 1536 12
ARM GAS  /tmp/ccMhfXg8.s 			page 85


 3118 0270 7B68     		ldr	r3, [r7, #4]
 3119 0272 DB6B     		ldr	r3, [r3, #60]
 3120 0274 1846     		mov	r0, r3
 3121 0276 FFF7FEFF 		bl	HAL_DMA_Abort_IT
 3122 027a 0346     		mov	r3, r0
1536:./Libraries/STM32F4xx_HAL_Driver/Src/stm32f4xx_hal_sd.c ****         {
 3123              		.loc 1 1536 11
 3124 027c 002B     		cmp	r3, #0
 3125 027e 1DD0     		beq	.L141
1538:./Libraries/STM32F4xx_HAL_Driver/Src/stm32f4xx_hal_sd.c ****         }
 3126              		.loc 1 1538 11
 3127 0280 7B68     		ldr	r3, [r7, #4]
 3128 0282 DB6B     		ldr	r3, [r3, #60]
 3129 0284 1846     		mov	r0, r3
 3130 0286 FFF7FEFF 		bl	SD_DMARxAbort
 3131              		.loc 1 1621 1
 3132 028a 17E0     		b	.L141
 3133              	.L140:
1543:./Libraries/STM32F4xx_HAL_Driver/Src/stm32f4xx_hal_sd.c ****         hsd->State = HAL_SD_STATE_READY;
 3134              		.loc 1 1543 24
 3135 028c 7B68     		ldr	r3, [r7, #4]
 3136 028e 0022     		movs	r2, #0
 3137 0290 9A63     		str	r2, [r3, #56]
1544:./Libraries/STM32F4xx_HAL_Driver/Src/stm32f4xx_hal_sd.c ****         HAL_SD_AbortCallback(hsd);
 3138              		.loc 1 1544 20
 3139 0292 7B68     		ldr	r3, [r7, #4]
 3140 0294 0122     		movs	r2, #1
 3141 0296 83F83420 		strb	r2, [r3, #52]
1545:./Libraries/STM32F4xx_HAL_Driver/Src/stm32f4xx_hal_sd.c ****       }
 3142              		.loc 1 1545 9
 3143 029a 7868     		ldr	r0, [r7, #4]
 3144 029c FFF7FEFF 		bl	HAL_SD_AbortCallback
 3145              		.loc 1 1621 1
 3146 02a0 0CE0     		b	.L141
 3147              	.L138:
1548:./Libraries/STM32F4xx_HAL_Driver/Src/stm32f4xx_hal_sd.c ****     {
 3148              		.loc 1 1548 17
 3149 02a2 7B68     		ldr	r3, [r7, #4]
 3150 02a4 1B6B     		ldr	r3, [r3, #48]
1548:./Libraries/STM32F4xx_HAL_Driver/Src/stm32f4xx_hal_sd.c ****     {
 3151              		.loc 1 1548 27
 3152 02a6 03F00803 		and	r3, r3, #8
1548:./Libraries/STM32F4xx_HAL_Driver/Src/stm32f4xx_hal_sd.c ****     {
 3153              		.loc 1 1548 12
 3154 02aa 002B     		cmp	r3, #0
 3155 02ac 06D0     		beq	.L141
1551:./Libraries/STM32F4xx_HAL_Driver/Src/stm32f4xx_hal_sd.c ****       HAL_SD_ErrorCallback(hsd);
 3156              		.loc 1 1551 18
 3157 02ae 7B68     		ldr	r3, [r7, #4]
 3158 02b0 0122     		movs	r2, #1
 3159 02b2 83F83420 		strb	r2, [r3, #52]
1552:./Libraries/STM32F4xx_HAL_Driver/Src/stm32f4xx_hal_sd.c ****     }
 3160              		.loc 1 1552 7
 3161 02b6 7868     		ldr	r0, [r7, #4]
 3162 02b8 FFF7FEFF 		bl	HAL_SD_ErrorCallback
 3163              	.L141:
 3164              		.loc 1 1621 1
ARM GAS  /tmp/ccMhfXg8.s 			page 86


 3165 02bc 00BF     		nop
 3166 02be 1037     		adds	r7, r7, #16
 3167              	.LCFI65:
 3168              		.cfi_def_cfa_offset 8
 3169 02c0 BD46     		mov	sp, r7
 3170              	.LCFI66:
 3171              		.cfi_def_cfa_register 13
 3172              		@ sp needed
 3173 02c2 80BD     		pop	{r7, pc}
 3174              	.L143:
 3175              		.align	2
 3176              	.L142:
 3177 02c4 00000000 		.word	SD_DMATxAbort
 3178 02c8 00000000 		.word	SD_DMARxAbort
 3179              		.cfi_endproc
 3180              	.LFE138:
 3182              		.section	.text.HAL_SD_GetState,"ax",%progbits
 3183              		.align	1
 3184              		.global	HAL_SD_GetState
 3185              		.syntax unified
 3186              		.thumb
 3187              		.thumb_func
 3188              		.fpu fpv4-sp-d16
 3190              	HAL_SD_GetState:
 3191              	.LFB139:
1622:./Libraries/STM32F4xx_HAL_Driver/Src/stm32f4xx_hal_sd.c **** 
1623:./Libraries/STM32F4xx_HAL_Driver/Src/stm32f4xx_hal_sd.c **** /**
1624:./Libraries/STM32F4xx_HAL_Driver/Src/stm32f4xx_hal_sd.c ****   * @brief return the SD state
1625:./Libraries/STM32F4xx_HAL_Driver/Src/stm32f4xx_hal_sd.c ****   * @param hsd Pointer to sd handle
1626:./Libraries/STM32F4xx_HAL_Driver/Src/stm32f4xx_hal_sd.c ****   * @retval HAL state
1627:./Libraries/STM32F4xx_HAL_Driver/Src/stm32f4xx_hal_sd.c ****   */
1628:./Libraries/STM32F4xx_HAL_Driver/Src/stm32f4xx_hal_sd.c **** HAL_SD_StateTypeDef HAL_SD_GetState(SD_HandleTypeDef *hsd)
1629:./Libraries/STM32F4xx_HAL_Driver/Src/stm32f4xx_hal_sd.c **** {
 3192              		.loc 1 1629 1
 3193              		.cfi_startproc
 3194              		@ args = 0, pretend = 0, frame = 8
 3195              		@ frame_needed = 1, uses_anonymous_args = 0
 3196              		@ link register save eliminated.
 3197 0000 80B4     		push	{r7}
 3198              	.LCFI67:
 3199              		.cfi_def_cfa_offset 4
 3200              		.cfi_offset 7, -4
 3201 0002 83B0     		sub	sp, sp, #12
 3202              	.LCFI68:
 3203              		.cfi_def_cfa_offset 16
 3204 0004 00AF     		add	r7, sp, #0
 3205              	.LCFI69:
 3206              		.cfi_def_cfa_register 7
 3207 0006 7860     		str	r0, [r7, #4]
1630:./Libraries/STM32F4xx_HAL_Driver/Src/stm32f4xx_hal_sd.c ****   return hsd->State;
 3208              		.loc 1 1630 13
 3209 0008 7B68     		ldr	r3, [r7, #4]
 3210 000a 93F83430 		ldrb	r3, [r3, #52]
 3211 000e DBB2     		uxtb	r3, r3
1631:./Libraries/STM32F4xx_HAL_Driver/Src/stm32f4xx_hal_sd.c **** }
 3212              		.loc 1 1631 1
 3213 0010 1846     		mov	r0, r3
ARM GAS  /tmp/ccMhfXg8.s 			page 87


 3214 0012 0C37     		adds	r7, r7, #12
 3215              	.LCFI70:
 3216              		.cfi_def_cfa_offset 4
 3217 0014 BD46     		mov	sp, r7
 3218              	.LCFI71:
 3219              		.cfi_def_cfa_register 13
 3220              		@ sp needed
 3221 0016 5DF8047B 		ldr	r7, [sp], #4
 3222              	.LCFI72:
 3223              		.cfi_restore 7
 3224              		.cfi_def_cfa_offset 0
 3225 001a 7047     		bx	lr
 3226              		.cfi_endproc
 3227              	.LFE139:
 3229              		.section	.text.HAL_SD_GetError,"ax",%progbits
 3230              		.align	1
 3231              		.global	HAL_SD_GetError
 3232              		.syntax unified
 3233              		.thumb
 3234              		.thumb_func
 3235              		.fpu fpv4-sp-d16
 3237              	HAL_SD_GetError:
 3238              	.LFB140:
1632:./Libraries/STM32F4xx_HAL_Driver/Src/stm32f4xx_hal_sd.c **** 
1633:./Libraries/STM32F4xx_HAL_Driver/Src/stm32f4xx_hal_sd.c **** /**
1634:./Libraries/STM32F4xx_HAL_Driver/Src/stm32f4xx_hal_sd.c **** * @brief  Return the SD error code
1635:./Libraries/STM32F4xx_HAL_Driver/Src/stm32f4xx_hal_sd.c **** * @param  hsd  Pointer to a SD_HandleTypeDef structure that contains
1636:./Libraries/STM32F4xx_HAL_Driver/Src/stm32f4xx_hal_sd.c ****   *              the configuration information.
1637:./Libraries/STM32F4xx_HAL_Driver/Src/stm32f4xx_hal_sd.c **** * @retval SD Error Code
1638:./Libraries/STM32F4xx_HAL_Driver/Src/stm32f4xx_hal_sd.c **** */
1639:./Libraries/STM32F4xx_HAL_Driver/Src/stm32f4xx_hal_sd.c **** uint32_t HAL_SD_GetError(SD_HandleTypeDef *hsd)
1640:./Libraries/STM32F4xx_HAL_Driver/Src/stm32f4xx_hal_sd.c **** {
 3239              		.loc 1 1640 1
 3240              		.cfi_startproc
 3241              		@ args = 0, pretend = 0, frame = 8
 3242              		@ frame_needed = 1, uses_anonymous_args = 0
 3243              		@ link register save eliminated.
 3244 0000 80B4     		push	{r7}
 3245              	.LCFI73:
 3246              		.cfi_def_cfa_offset 4
 3247              		.cfi_offset 7, -4
 3248 0002 83B0     		sub	sp, sp, #12
 3249              	.LCFI74:
 3250              		.cfi_def_cfa_offset 16
 3251 0004 00AF     		add	r7, sp, #0
 3252              	.LCFI75:
 3253              		.cfi_def_cfa_register 7
 3254 0006 7860     		str	r0, [r7, #4]
1641:./Libraries/STM32F4xx_HAL_Driver/Src/stm32f4xx_hal_sd.c ****   return hsd->ErrorCode;
 3255              		.loc 1 1641 13
 3256 0008 7B68     		ldr	r3, [r7, #4]
 3257 000a 9B6B     		ldr	r3, [r3, #56]
1642:./Libraries/STM32F4xx_HAL_Driver/Src/stm32f4xx_hal_sd.c **** }
 3258              		.loc 1 1642 1
 3259 000c 1846     		mov	r0, r3
 3260 000e 0C37     		adds	r7, r7, #12
 3261              	.LCFI76:
ARM GAS  /tmp/ccMhfXg8.s 			page 88


 3262              		.cfi_def_cfa_offset 4
 3263 0010 BD46     		mov	sp, r7
 3264              	.LCFI77:
 3265              		.cfi_def_cfa_register 13
 3266              		@ sp needed
 3267 0012 5DF8047B 		ldr	r7, [sp], #4
 3268              	.LCFI78:
 3269              		.cfi_restore 7
 3270              		.cfi_def_cfa_offset 0
 3271 0016 7047     		bx	lr
 3272              		.cfi_endproc
 3273              	.LFE140:
 3275              		.section	.text.HAL_SD_TxCpltCallback,"ax",%progbits
 3276              		.align	1
 3277              		.weak	HAL_SD_TxCpltCallback
 3278              		.syntax unified
 3279              		.thumb
 3280              		.thumb_func
 3281              		.fpu fpv4-sp-d16
 3283              	HAL_SD_TxCpltCallback:
 3284              	.LFB141:
1643:./Libraries/STM32F4xx_HAL_Driver/Src/stm32f4xx_hal_sd.c **** 
1644:./Libraries/STM32F4xx_HAL_Driver/Src/stm32f4xx_hal_sd.c **** /**
1645:./Libraries/STM32F4xx_HAL_Driver/Src/stm32f4xx_hal_sd.c ****   * @brief Tx Transfer completed callbacks
1646:./Libraries/STM32F4xx_HAL_Driver/Src/stm32f4xx_hal_sd.c ****   * @param hsd Pointer to SD handle
1647:./Libraries/STM32F4xx_HAL_Driver/Src/stm32f4xx_hal_sd.c ****   * @retval None
1648:./Libraries/STM32F4xx_HAL_Driver/Src/stm32f4xx_hal_sd.c ****   */
1649:./Libraries/STM32F4xx_HAL_Driver/Src/stm32f4xx_hal_sd.c ****  __weak void HAL_SD_TxCpltCallback(SD_HandleTypeDef *hsd)
1650:./Libraries/STM32F4xx_HAL_Driver/Src/stm32f4xx_hal_sd.c **** {
 3285              		.loc 1 1650 1
 3286              		.cfi_startproc
 3287              		@ args = 0, pretend = 0, frame = 8
 3288              		@ frame_needed = 1, uses_anonymous_args = 0
 3289              		@ link register save eliminated.
 3290 0000 80B4     		push	{r7}
 3291              	.LCFI79:
 3292              		.cfi_def_cfa_offset 4
 3293              		.cfi_offset 7, -4
 3294 0002 83B0     		sub	sp, sp, #12
 3295              	.LCFI80:
 3296              		.cfi_def_cfa_offset 16
 3297 0004 00AF     		add	r7, sp, #0
 3298              	.LCFI81:
 3299              		.cfi_def_cfa_register 7
 3300 0006 7860     		str	r0, [r7, #4]
1651:./Libraries/STM32F4xx_HAL_Driver/Src/stm32f4xx_hal_sd.c ****   /* Prevent unused argument(s) compilation warning */
1652:./Libraries/STM32F4xx_HAL_Driver/Src/stm32f4xx_hal_sd.c ****   UNUSED(hsd);
1653:./Libraries/STM32F4xx_HAL_Driver/Src/stm32f4xx_hal_sd.c **** 
1654:./Libraries/STM32F4xx_HAL_Driver/Src/stm32f4xx_hal_sd.c ****   /* NOTE : This function should not be modified, when the callback is needed,
1655:./Libraries/STM32F4xx_HAL_Driver/Src/stm32f4xx_hal_sd.c ****             the HAL_SD_TxCpltCallback can be implemented in the user file
1656:./Libraries/STM32F4xx_HAL_Driver/Src/stm32f4xx_hal_sd.c ****    */
1657:./Libraries/STM32F4xx_HAL_Driver/Src/stm32f4xx_hal_sd.c **** }
 3301              		.loc 1 1657 1
 3302 0008 00BF     		nop
 3303 000a 0C37     		adds	r7, r7, #12
 3304              	.LCFI82:
 3305              		.cfi_def_cfa_offset 4
ARM GAS  /tmp/ccMhfXg8.s 			page 89


 3306 000c BD46     		mov	sp, r7
 3307              	.LCFI83:
 3308              		.cfi_def_cfa_register 13
 3309              		@ sp needed
 3310 000e 5DF8047B 		ldr	r7, [sp], #4
 3311              	.LCFI84:
 3312              		.cfi_restore 7
 3313              		.cfi_def_cfa_offset 0
 3314 0012 7047     		bx	lr
 3315              		.cfi_endproc
 3316              	.LFE141:
 3318              		.section	.text.HAL_SD_RxCpltCallback,"ax",%progbits
 3319              		.align	1
 3320              		.weak	HAL_SD_RxCpltCallback
 3321              		.syntax unified
 3322              		.thumb
 3323              		.thumb_func
 3324              		.fpu fpv4-sp-d16
 3326              	HAL_SD_RxCpltCallback:
 3327              	.LFB142:
1658:./Libraries/STM32F4xx_HAL_Driver/Src/stm32f4xx_hal_sd.c **** 
1659:./Libraries/STM32F4xx_HAL_Driver/Src/stm32f4xx_hal_sd.c **** /**
1660:./Libraries/STM32F4xx_HAL_Driver/Src/stm32f4xx_hal_sd.c ****   * @brief Rx Transfer completed callbacks
1661:./Libraries/STM32F4xx_HAL_Driver/Src/stm32f4xx_hal_sd.c ****   * @param hsd Pointer SD handle
1662:./Libraries/STM32F4xx_HAL_Driver/Src/stm32f4xx_hal_sd.c ****   * @retval None
1663:./Libraries/STM32F4xx_HAL_Driver/Src/stm32f4xx_hal_sd.c ****   */
1664:./Libraries/STM32F4xx_HAL_Driver/Src/stm32f4xx_hal_sd.c **** __weak void HAL_SD_RxCpltCallback(SD_HandleTypeDef *hsd)
1665:./Libraries/STM32F4xx_HAL_Driver/Src/stm32f4xx_hal_sd.c **** {
 3328              		.loc 1 1665 1
 3329              		.cfi_startproc
 3330              		@ args = 0, pretend = 0, frame = 8
 3331              		@ frame_needed = 1, uses_anonymous_args = 0
 3332              		@ link register save eliminated.
 3333 0000 80B4     		push	{r7}
 3334              	.LCFI85:
 3335              		.cfi_def_cfa_offset 4
 3336              		.cfi_offset 7, -4
 3337 0002 83B0     		sub	sp, sp, #12
 3338              	.LCFI86:
 3339              		.cfi_def_cfa_offset 16
 3340 0004 00AF     		add	r7, sp, #0
 3341              	.LCFI87:
 3342              		.cfi_def_cfa_register 7
 3343 0006 7860     		str	r0, [r7, #4]
1666:./Libraries/STM32F4xx_HAL_Driver/Src/stm32f4xx_hal_sd.c ****   /* Prevent unused argument(s) compilation warning */
1667:./Libraries/STM32F4xx_HAL_Driver/Src/stm32f4xx_hal_sd.c ****   UNUSED(hsd);
1668:./Libraries/STM32F4xx_HAL_Driver/Src/stm32f4xx_hal_sd.c ****  
1669:./Libraries/STM32F4xx_HAL_Driver/Src/stm32f4xx_hal_sd.c ****   /* NOTE : This function should not be modified, when the callback is needed,
1670:./Libraries/STM32F4xx_HAL_Driver/Src/stm32f4xx_hal_sd.c ****             the HAL_SD_RxCpltCallback can be implemented in the user file
1671:./Libraries/STM32F4xx_HAL_Driver/Src/stm32f4xx_hal_sd.c ****    */
1672:./Libraries/STM32F4xx_HAL_Driver/Src/stm32f4xx_hal_sd.c **** }
 3344              		.loc 1 1672 1
 3345 0008 00BF     		nop
 3346 000a 0C37     		adds	r7, r7, #12
 3347              	.LCFI88:
 3348              		.cfi_def_cfa_offset 4
 3349 000c BD46     		mov	sp, r7
ARM GAS  /tmp/ccMhfXg8.s 			page 90


 3350              	.LCFI89:
 3351              		.cfi_def_cfa_register 13
 3352              		@ sp needed
 3353 000e 5DF8047B 		ldr	r7, [sp], #4
 3354              	.LCFI90:
 3355              		.cfi_restore 7
 3356              		.cfi_def_cfa_offset 0
 3357 0012 7047     		bx	lr
 3358              		.cfi_endproc
 3359              	.LFE142:
 3361              		.section	.text.HAL_SD_ErrorCallback,"ax",%progbits
 3362              		.align	1
 3363              		.weak	HAL_SD_ErrorCallback
 3364              		.syntax unified
 3365              		.thumb
 3366              		.thumb_func
 3367              		.fpu fpv4-sp-d16
 3369              	HAL_SD_ErrorCallback:
 3370              	.LFB143:
1673:./Libraries/STM32F4xx_HAL_Driver/Src/stm32f4xx_hal_sd.c **** 
1674:./Libraries/STM32F4xx_HAL_Driver/Src/stm32f4xx_hal_sd.c **** /**
1675:./Libraries/STM32F4xx_HAL_Driver/Src/stm32f4xx_hal_sd.c ****   * @brief SD error callbacks
1676:./Libraries/STM32F4xx_HAL_Driver/Src/stm32f4xx_hal_sd.c ****   * @param hsd Pointer SD handle
1677:./Libraries/STM32F4xx_HAL_Driver/Src/stm32f4xx_hal_sd.c ****   * @retval None
1678:./Libraries/STM32F4xx_HAL_Driver/Src/stm32f4xx_hal_sd.c ****   */
1679:./Libraries/STM32F4xx_HAL_Driver/Src/stm32f4xx_hal_sd.c **** __weak void HAL_SD_ErrorCallback(SD_HandleTypeDef *hsd)
1680:./Libraries/STM32F4xx_HAL_Driver/Src/stm32f4xx_hal_sd.c **** {
 3371              		.loc 1 1680 1
 3372              		.cfi_startproc
 3373              		@ args = 0, pretend = 0, frame = 8
 3374              		@ frame_needed = 1, uses_anonymous_args = 0
 3375              		@ link register save eliminated.
 3376 0000 80B4     		push	{r7}
 3377              	.LCFI91:
 3378              		.cfi_def_cfa_offset 4
 3379              		.cfi_offset 7, -4
 3380 0002 83B0     		sub	sp, sp, #12
 3381              	.LCFI92:
 3382              		.cfi_def_cfa_offset 16
 3383 0004 00AF     		add	r7, sp, #0
 3384              	.LCFI93:
 3385              		.cfi_def_cfa_register 7
 3386 0006 7860     		str	r0, [r7, #4]
1681:./Libraries/STM32F4xx_HAL_Driver/Src/stm32f4xx_hal_sd.c ****   /* Prevent unused argument(s) compilation warning */
1682:./Libraries/STM32F4xx_HAL_Driver/Src/stm32f4xx_hal_sd.c ****   UNUSED(hsd);
1683:./Libraries/STM32F4xx_HAL_Driver/Src/stm32f4xx_hal_sd.c ****  
1684:./Libraries/STM32F4xx_HAL_Driver/Src/stm32f4xx_hal_sd.c ****   /* NOTE : This function should not be modified, when the callback is needed,
1685:./Libraries/STM32F4xx_HAL_Driver/Src/stm32f4xx_hal_sd.c ****             the HAL_SD_ErrorCallback can be implemented in the user file
1686:./Libraries/STM32F4xx_HAL_Driver/Src/stm32f4xx_hal_sd.c ****    */ 
1687:./Libraries/STM32F4xx_HAL_Driver/Src/stm32f4xx_hal_sd.c **** }
 3387              		.loc 1 1687 1
 3388 0008 00BF     		nop
 3389 000a 0C37     		adds	r7, r7, #12
 3390              	.LCFI94:
 3391              		.cfi_def_cfa_offset 4
 3392 000c BD46     		mov	sp, r7
 3393              	.LCFI95:
ARM GAS  /tmp/ccMhfXg8.s 			page 91


 3394              		.cfi_def_cfa_register 13
 3395              		@ sp needed
 3396 000e 5DF8047B 		ldr	r7, [sp], #4
 3397              	.LCFI96:
 3398              		.cfi_restore 7
 3399              		.cfi_def_cfa_offset 0
 3400 0012 7047     		bx	lr
 3401              		.cfi_endproc
 3402              	.LFE143:
 3404              		.section	.text.HAL_SD_AbortCallback,"ax",%progbits
 3405              		.align	1
 3406              		.weak	HAL_SD_AbortCallback
 3407              		.syntax unified
 3408              		.thumb
 3409              		.thumb_func
 3410              		.fpu fpv4-sp-d16
 3412              	HAL_SD_AbortCallback:
 3413              	.LFB144:
1688:./Libraries/STM32F4xx_HAL_Driver/Src/stm32f4xx_hal_sd.c **** 
1689:./Libraries/STM32F4xx_HAL_Driver/Src/stm32f4xx_hal_sd.c **** /**
1690:./Libraries/STM32F4xx_HAL_Driver/Src/stm32f4xx_hal_sd.c ****   * @brief SD Abort callbacks
1691:./Libraries/STM32F4xx_HAL_Driver/Src/stm32f4xx_hal_sd.c ****   * @param hsd Pointer SD handle
1692:./Libraries/STM32F4xx_HAL_Driver/Src/stm32f4xx_hal_sd.c ****   * @retval None
1693:./Libraries/STM32F4xx_HAL_Driver/Src/stm32f4xx_hal_sd.c ****   */
1694:./Libraries/STM32F4xx_HAL_Driver/Src/stm32f4xx_hal_sd.c **** __weak void HAL_SD_AbortCallback(SD_HandleTypeDef *hsd)
1695:./Libraries/STM32F4xx_HAL_Driver/Src/stm32f4xx_hal_sd.c **** {
 3414              		.loc 1 1695 1
 3415              		.cfi_startproc
 3416              		@ args = 0, pretend = 0, frame = 8
 3417              		@ frame_needed = 1, uses_anonymous_args = 0
 3418              		@ link register save eliminated.
 3419 0000 80B4     		push	{r7}
 3420              	.LCFI97:
 3421              		.cfi_def_cfa_offset 4
 3422              		.cfi_offset 7, -4
 3423 0002 83B0     		sub	sp, sp, #12
 3424              	.LCFI98:
 3425              		.cfi_def_cfa_offset 16
 3426 0004 00AF     		add	r7, sp, #0
 3427              	.LCFI99:
 3428              		.cfi_def_cfa_register 7
 3429 0006 7860     		str	r0, [r7, #4]
1696:./Libraries/STM32F4xx_HAL_Driver/Src/stm32f4xx_hal_sd.c ****   /* Prevent unused argument(s) compilation warning */
1697:./Libraries/STM32F4xx_HAL_Driver/Src/stm32f4xx_hal_sd.c ****   UNUSED(hsd);
1698:./Libraries/STM32F4xx_HAL_Driver/Src/stm32f4xx_hal_sd.c ****  
1699:./Libraries/STM32F4xx_HAL_Driver/Src/stm32f4xx_hal_sd.c ****   /* NOTE : This function should not be modified, when the callback is needed,
1700:./Libraries/STM32F4xx_HAL_Driver/Src/stm32f4xx_hal_sd.c ****             the HAL_SD_ErrorCallback can be implemented in the user file
1701:./Libraries/STM32F4xx_HAL_Driver/Src/stm32f4xx_hal_sd.c ****    */ 
1702:./Libraries/STM32F4xx_HAL_Driver/Src/stm32f4xx_hal_sd.c **** }
 3430              		.loc 1 1702 1
 3431 0008 00BF     		nop
 3432 000a 0C37     		adds	r7, r7, #12
 3433              	.LCFI100:
 3434              		.cfi_def_cfa_offset 4
 3435 000c BD46     		mov	sp, r7
 3436              	.LCFI101:
 3437              		.cfi_def_cfa_register 13
ARM GAS  /tmp/ccMhfXg8.s 			page 92


 3438              		@ sp needed
 3439 000e 5DF8047B 		ldr	r7, [sp], #4
 3440              	.LCFI102:
 3441              		.cfi_restore 7
 3442              		.cfi_def_cfa_offset 0
 3443 0012 7047     		bx	lr
 3444              		.cfi_endproc
 3445              	.LFE144:
 3447              		.section	.text.HAL_SD_GetCardCID,"ax",%progbits
 3448              		.align	1
 3449              		.global	HAL_SD_GetCardCID
 3450              		.syntax unified
 3451              		.thumb
 3452              		.thumb_func
 3453              		.fpu fpv4-sp-d16
 3455              	HAL_SD_GetCardCID:
 3456              	.LFB145:
1703:./Libraries/STM32F4xx_HAL_Driver/Src/stm32f4xx_hal_sd.c **** 
1704:./Libraries/STM32F4xx_HAL_Driver/Src/stm32f4xx_hal_sd.c **** 
1705:./Libraries/STM32F4xx_HAL_Driver/Src/stm32f4xx_hal_sd.c **** /**
1706:./Libraries/STM32F4xx_HAL_Driver/Src/stm32f4xx_hal_sd.c ****   * @}
1707:./Libraries/STM32F4xx_HAL_Driver/Src/stm32f4xx_hal_sd.c ****   */
1708:./Libraries/STM32F4xx_HAL_Driver/Src/stm32f4xx_hal_sd.c **** 
1709:./Libraries/STM32F4xx_HAL_Driver/Src/stm32f4xx_hal_sd.c **** /** @addtogroup SD_Exported_Functions_Group3
1710:./Libraries/STM32F4xx_HAL_Driver/Src/stm32f4xx_hal_sd.c ****  *  @brief   management functions 
1711:./Libraries/STM32F4xx_HAL_Driver/Src/stm32f4xx_hal_sd.c ****  *
1712:./Libraries/STM32F4xx_HAL_Driver/Src/stm32f4xx_hal_sd.c **** @verbatim   
1713:./Libraries/STM32F4xx_HAL_Driver/Src/stm32f4xx_hal_sd.c ****   ==============================================================================
1714:./Libraries/STM32F4xx_HAL_Driver/Src/stm32f4xx_hal_sd.c ****                       ##### Peripheral Control functions #####
1715:./Libraries/STM32F4xx_HAL_Driver/Src/stm32f4xx_hal_sd.c ****   ==============================================================================  
1716:./Libraries/STM32F4xx_HAL_Driver/Src/stm32f4xx_hal_sd.c ****   [..]
1717:./Libraries/STM32F4xx_HAL_Driver/Src/stm32f4xx_hal_sd.c ****     This subsection provides a set of functions allowing to control the SD card 
1718:./Libraries/STM32F4xx_HAL_Driver/Src/stm32f4xx_hal_sd.c ****     operations and get the related information
1719:./Libraries/STM32F4xx_HAL_Driver/Src/stm32f4xx_hal_sd.c **** 
1720:./Libraries/STM32F4xx_HAL_Driver/Src/stm32f4xx_hal_sd.c **** @endverbatim
1721:./Libraries/STM32F4xx_HAL_Driver/Src/stm32f4xx_hal_sd.c ****   * @{
1722:./Libraries/STM32F4xx_HAL_Driver/Src/stm32f4xx_hal_sd.c ****   */
1723:./Libraries/STM32F4xx_HAL_Driver/Src/stm32f4xx_hal_sd.c **** 
1724:./Libraries/STM32F4xx_HAL_Driver/Src/stm32f4xx_hal_sd.c **** /**
1725:./Libraries/STM32F4xx_HAL_Driver/Src/stm32f4xx_hal_sd.c ****   * @brief  Returns information the information of the card which are stored on
1726:./Libraries/STM32F4xx_HAL_Driver/Src/stm32f4xx_hal_sd.c ****   *         the CID register.
1727:./Libraries/STM32F4xx_HAL_Driver/Src/stm32f4xx_hal_sd.c ****   * @param  hsd Pointer to SD handle
1728:./Libraries/STM32F4xx_HAL_Driver/Src/stm32f4xx_hal_sd.c ****   * @param  pCID Pointer to a HAL_SD_CIDTypeDef structure that  
1729:./Libraries/STM32F4xx_HAL_Driver/Src/stm32f4xx_hal_sd.c ****   *         contains all CID register parameters 
1730:./Libraries/STM32F4xx_HAL_Driver/Src/stm32f4xx_hal_sd.c ****   * @retval HAL status
1731:./Libraries/STM32F4xx_HAL_Driver/Src/stm32f4xx_hal_sd.c ****   */
1732:./Libraries/STM32F4xx_HAL_Driver/Src/stm32f4xx_hal_sd.c **** HAL_StatusTypeDef HAL_SD_GetCardCID(SD_HandleTypeDef *hsd, HAL_SD_CardCIDTypeDef *pCID)
1733:./Libraries/STM32F4xx_HAL_Driver/Src/stm32f4xx_hal_sd.c **** {
 3457              		.loc 1 1733 1
 3458              		.cfi_startproc
 3459              		@ args = 0, pretend = 0, frame = 16
 3460              		@ frame_needed = 1, uses_anonymous_args = 0
 3461              		@ link register save eliminated.
 3462 0000 80B4     		push	{r7}
 3463              	.LCFI103:
 3464              		.cfi_def_cfa_offset 4
 3465              		.cfi_offset 7, -4
ARM GAS  /tmp/ccMhfXg8.s 			page 93


 3466 0002 85B0     		sub	sp, sp, #20
 3467              	.LCFI104:
 3468              		.cfi_def_cfa_offset 24
 3469 0004 00AF     		add	r7, sp, #0
 3470              	.LCFI105:
 3471              		.cfi_def_cfa_register 7
 3472 0006 7860     		str	r0, [r7, #4]
 3473 0008 3960     		str	r1, [r7]
1734:./Libraries/STM32F4xx_HAL_Driver/Src/stm32f4xx_hal_sd.c ****   uint32_t tmp = 0U;
 3474              		.loc 1 1734 12
 3475 000a 0023     		movs	r3, #0
 3476 000c FB60     		str	r3, [r7, #12]
1735:./Libraries/STM32F4xx_HAL_Driver/Src/stm32f4xx_hal_sd.c ****   
1736:./Libraries/STM32F4xx_HAL_Driver/Src/stm32f4xx_hal_sd.c ****   /* Byte 0 */
1737:./Libraries/STM32F4xx_HAL_Driver/Src/stm32f4xx_hal_sd.c ****   tmp = (uint8_t)((hsd->CID[0U] & 0xFF000000U) >> 24U);
 3477              		.loc 1 1737 28
 3478 000e 7B68     		ldr	r3, [r7, #4]
 3479 0010 5B6F     		ldr	r3, [r3, #116]
 3480              		.loc 1 1737 48
 3481 0012 1B0E     		lsrs	r3, r3, #24
 3482              		.loc 1 1737 9
 3483 0014 DBB2     		uxtb	r3, r3
 3484              		.loc 1 1737 7
 3485 0016 FB60     		str	r3, [r7, #12]
1738:./Libraries/STM32F4xx_HAL_Driver/Src/stm32f4xx_hal_sd.c ****   pCID->ManufacturerID = tmp;
 3486              		.loc 1 1738 24
 3487 0018 FB68     		ldr	r3, [r7, #12]
 3488 001a DAB2     		uxtb	r2, r3
 3489 001c 3B68     		ldr	r3, [r7]
 3490 001e 1A70     		strb	r2, [r3]
1739:./Libraries/STM32F4xx_HAL_Driver/Src/stm32f4xx_hal_sd.c ****   
1740:./Libraries/STM32F4xx_HAL_Driver/Src/stm32f4xx_hal_sd.c ****   /* Byte 1 */
1741:./Libraries/STM32F4xx_HAL_Driver/Src/stm32f4xx_hal_sd.c ****   tmp = (uint8_t)((hsd->CID[0U] & 0x00FF0000U) >> 16U);
 3491              		.loc 1 1741 28
 3492 0020 7B68     		ldr	r3, [r7, #4]
 3493 0022 5B6F     		ldr	r3, [r3, #116]
 3494              		.loc 1 1741 48
 3495 0024 1B0C     		lsrs	r3, r3, #16
 3496              		.loc 1 1741 9
 3497 0026 DBB2     		uxtb	r3, r3
 3498              		.loc 1 1741 7
 3499 0028 FB60     		str	r3, [r7, #12]
1742:./Libraries/STM32F4xx_HAL_Driver/Src/stm32f4xx_hal_sd.c ****   pCID->OEM_AppliID = tmp << 8U;
 3500              		.loc 1 1742 27
 3501 002a FB68     		ldr	r3, [r7, #12]
 3502 002c 9BB2     		uxth	r3, r3
 3503 002e 1B02     		lsls	r3, r3, #8
 3504 0030 9AB2     		uxth	r2, r3
 3505              		.loc 1 1742 21
 3506 0032 3B68     		ldr	r3, [r7]
 3507 0034 5A80     		strh	r2, [r3, #2]	@ movhi
1743:./Libraries/STM32F4xx_HAL_Driver/Src/stm32f4xx_hal_sd.c ****   
1744:./Libraries/STM32F4xx_HAL_Driver/Src/stm32f4xx_hal_sd.c ****   /* Byte 2 */
1745:./Libraries/STM32F4xx_HAL_Driver/Src/stm32f4xx_hal_sd.c ****   tmp = (uint8_t)((hsd->CID[0U] & 0x000000FF00U) >> 8U);
 3508              		.loc 1 1745 28
 3509 0036 7B68     		ldr	r3, [r7, #4]
 3510 0038 5B6F     		ldr	r3, [r3, #116]
ARM GAS  /tmp/ccMhfXg8.s 			page 94


 3511              		.loc 1 1745 50
 3512 003a 1B0A     		lsrs	r3, r3, #8
 3513              		.loc 1 1745 9
 3514 003c DBB2     		uxtb	r3, r3
 3515              		.loc 1 1745 7
 3516 003e FB60     		str	r3, [r7, #12]
1746:./Libraries/STM32F4xx_HAL_Driver/Src/stm32f4xx_hal_sd.c ****   pCID->OEM_AppliID |= tmp;
 3517              		.loc 1 1746 21
 3518 0040 3B68     		ldr	r3, [r7]
 3519 0042 5B88     		ldrh	r3, [r3, #2]	@ movhi
 3520 0044 9AB2     		uxth	r2, r3
 3521 0046 FB68     		ldr	r3, [r7, #12]
 3522 0048 9BB2     		uxth	r3, r3
 3523 004a 1343     		orrs	r3, r3, r2
 3524 004c 9AB2     		uxth	r2, r3
 3525 004e 3B68     		ldr	r3, [r7]
 3526 0050 5A80     		strh	r2, [r3, #2]	@ movhi
1747:./Libraries/STM32F4xx_HAL_Driver/Src/stm32f4xx_hal_sd.c ****   
1748:./Libraries/STM32F4xx_HAL_Driver/Src/stm32f4xx_hal_sd.c ****   /* Byte 3 */
1749:./Libraries/STM32F4xx_HAL_Driver/Src/stm32f4xx_hal_sd.c ****   tmp = (uint8_t)(hsd->CID[0U] & 0x000000FFU);
 3527              		.loc 1 1749 27
 3528 0052 7B68     		ldr	r3, [r7, #4]
 3529 0054 5B6F     		ldr	r3, [r3, #116]
 3530              		.loc 1 1749 9
 3531 0056 DBB2     		uxtb	r3, r3
 3532              		.loc 1 1749 7
 3533 0058 FB60     		str	r3, [r7, #12]
1750:./Libraries/STM32F4xx_HAL_Driver/Src/stm32f4xx_hal_sd.c ****   pCID->ProdName1 = tmp << 24U;
 3534              		.loc 1 1750 25
 3535 005a FB68     		ldr	r3, [r7, #12]
 3536 005c 1A06     		lsls	r2, r3, #24
 3537              		.loc 1 1750 19
 3538 005e 3B68     		ldr	r3, [r7]
 3539 0060 5A60     		str	r2, [r3, #4]
1751:./Libraries/STM32F4xx_HAL_Driver/Src/stm32f4xx_hal_sd.c ****   
1752:./Libraries/STM32F4xx_HAL_Driver/Src/stm32f4xx_hal_sd.c ****   /* Byte 4 */
1753:./Libraries/STM32F4xx_HAL_Driver/Src/stm32f4xx_hal_sd.c ****   tmp = (uint8_t)((hsd->CID[1U] & 0xFF000000U) >> 24U);
 3540              		.loc 1 1753 28
 3541 0062 7B68     		ldr	r3, [r7, #4]
 3542 0064 9B6F     		ldr	r3, [r3, #120]
 3543              		.loc 1 1753 48
 3544 0066 1B0E     		lsrs	r3, r3, #24
 3545              		.loc 1 1753 9
 3546 0068 DBB2     		uxtb	r3, r3
 3547              		.loc 1 1753 7
 3548 006a FB60     		str	r3, [r7, #12]
1754:./Libraries/STM32F4xx_HAL_Driver/Src/stm32f4xx_hal_sd.c ****   pCID->ProdName1 |= tmp << 16;
 3549              		.loc 1 1754 19
 3550 006c 3B68     		ldr	r3, [r7]
 3551 006e 5A68     		ldr	r2, [r3, #4]
 3552              		.loc 1 1754 26
 3553 0070 FB68     		ldr	r3, [r7, #12]
 3554 0072 1B04     		lsls	r3, r3, #16
 3555              		.loc 1 1754 19
 3556 0074 1A43     		orrs	r2, r2, r3
 3557 0076 3B68     		ldr	r3, [r7]
 3558 0078 5A60     		str	r2, [r3, #4]
ARM GAS  /tmp/ccMhfXg8.s 			page 95


1755:./Libraries/STM32F4xx_HAL_Driver/Src/stm32f4xx_hal_sd.c ****   
1756:./Libraries/STM32F4xx_HAL_Driver/Src/stm32f4xx_hal_sd.c ****   /* Byte 5 */
1757:./Libraries/STM32F4xx_HAL_Driver/Src/stm32f4xx_hal_sd.c ****   tmp = (uint8_t)((hsd->CID[1U] & 0x00FF0000U) >> 16U);
 3559              		.loc 1 1757 28
 3560 007a 7B68     		ldr	r3, [r7, #4]
 3561 007c 9B6F     		ldr	r3, [r3, #120]
 3562              		.loc 1 1757 48
 3563 007e 1B0C     		lsrs	r3, r3, #16
 3564              		.loc 1 1757 9
 3565 0080 DBB2     		uxtb	r3, r3
 3566              		.loc 1 1757 7
 3567 0082 FB60     		str	r3, [r7, #12]
1758:./Libraries/STM32F4xx_HAL_Driver/Src/stm32f4xx_hal_sd.c ****   pCID->ProdName1 |= tmp << 8U;
 3568              		.loc 1 1758 19
 3569 0084 3B68     		ldr	r3, [r7]
 3570 0086 5A68     		ldr	r2, [r3, #4]
 3571              		.loc 1 1758 26
 3572 0088 FB68     		ldr	r3, [r7, #12]
 3573 008a 1B02     		lsls	r3, r3, #8
 3574              		.loc 1 1758 19
 3575 008c 1A43     		orrs	r2, r2, r3
 3576 008e 3B68     		ldr	r3, [r7]
 3577 0090 5A60     		str	r2, [r3, #4]
1759:./Libraries/STM32F4xx_HAL_Driver/Src/stm32f4xx_hal_sd.c ****   
1760:./Libraries/STM32F4xx_HAL_Driver/Src/stm32f4xx_hal_sd.c ****   /* Byte 6 */
1761:./Libraries/STM32F4xx_HAL_Driver/Src/stm32f4xx_hal_sd.c ****   tmp = (uint8_t)((hsd->CID[1U] & 0x0000FF00U) >> 8U);
 3578              		.loc 1 1761 28
 3579 0092 7B68     		ldr	r3, [r7, #4]
 3580 0094 9B6F     		ldr	r3, [r3, #120]
 3581              		.loc 1 1761 48
 3582 0096 1B0A     		lsrs	r3, r3, #8
 3583              		.loc 1 1761 9
 3584 0098 DBB2     		uxtb	r3, r3
 3585              		.loc 1 1761 7
 3586 009a FB60     		str	r3, [r7, #12]
1762:./Libraries/STM32F4xx_HAL_Driver/Src/stm32f4xx_hal_sd.c ****   pCID->ProdName1 |= tmp;
 3587              		.loc 1 1762 19
 3588 009c 3B68     		ldr	r3, [r7]
 3589 009e 5A68     		ldr	r2, [r3, #4]
 3590 00a0 FB68     		ldr	r3, [r7, #12]
 3591 00a2 1A43     		orrs	r2, r2, r3
 3592 00a4 3B68     		ldr	r3, [r7]
 3593 00a6 5A60     		str	r2, [r3, #4]
1763:./Libraries/STM32F4xx_HAL_Driver/Src/stm32f4xx_hal_sd.c ****   
1764:./Libraries/STM32F4xx_HAL_Driver/Src/stm32f4xx_hal_sd.c ****   /* Byte 7 */
1765:./Libraries/STM32F4xx_HAL_Driver/Src/stm32f4xx_hal_sd.c ****   tmp = (uint8_t)(hsd->CID[1U] & 0x000000FFU);
 3594              		.loc 1 1765 27
 3595 00a8 7B68     		ldr	r3, [r7, #4]
 3596 00aa 9B6F     		ldr	r3, [r3, #120]
 3597              		.loc 1 1765 9
 3598 00ac DBB2     		uxtb	r3, r3
 3599              		.loc 1 1765 7
 3600 00ae FB60     		str	r3, [r7, #12]
1766:./Libraries/STM32F4xx_HAL_Driver/Src/stm32f4xx_hal_sd.c ****   pCID->ProdName2 = tmp;
 3601              		.loc 1 1766 19
 3602 00b0 FB68     		ldr	r3, [r7, #12]
 3603 00b2 DAB2     		uxtb	r2, r3
ARM GAS  /tmp/ccMhfXg8.s 			page 96


 3604 00b4 3B68     		ldr	r3, [r7]
 3605 00b6 1A72     		strb	r2, [r3, #8]
1767:./Libraries/STM32F4xx_HAL_Driver/Src/stm32f4xx_hal_sd.c ****   
1768:./Libraries/STM32F4xx_HAL_Driver/Src/stm32f4xx_hal_sd.c ****   /* Byte 8 */
1769:./Libraries/STM32F4xx_HAL_Driver/Src/stm32f4xx_hal_sd.c ****   tmp = (uint8_t)((hsd->CID[2U] & 0xFF000000U) >> 24U);
 3606              		.loc 1 1769 28
 3607 00b8 7B68     		ldr	r3, [r7, #4]
 3608 00ba DB6F     		ldr	r3, [r3, #124]
 3609              		.loc 1 1769 48
 3610 00bc 1B0E     		lsrs	r3, r3, #24
 3611              		.loc 1 1769 9
 3612 00be DBB2     		uxtb	r3, r3
 3613              		.loc 1 1769 7
 3614 00c0 FB60     		str	r3, [r7, #12]
1770:./Libraries/STM32F4xx_HAL_Driver/Src/stm32f4xx_hal_sd.c ****   pCID->ProdRev = tmp;
 3615              		.loc 1 1770 17
 3616 00c2 FB68     		ldr	r3, [r7, #12]
 3617 00c4 DAB2     		uxtb	r2, r3
 3618 00c6 3B68     		ldr	r3, [r7]
 3619 00c8 5A72     		strb	r2, [r3, #9]
1771:./Libraries/STM32F4xx_HAL_Driver/Src/stm32f4xx_hal_sd.c ****   
1772:./Libraries/STM32F4xx_HAL_Driver/Src/stm32f4xx_hal_sd.c ****   /* Byte 9 */
1773:./Libraries/STM32F4xx_HAL_Driver/Src/stm32f4xx_hal_sd.c ****   tmp = (uint8_t)((hsd->CID[2U] & 0x00FF0000U) >> 16U);
 3620              		.loc 1 1773 28
 3621 00ca 7B68     		ldr	r3, [r7, #4]
 3622 00cc DB6F     		ldr	r3, [r3, #124]
 3623              		.loc 1 1773 48
 3624 00ce 1B0C     		lsrs	r3, r3, #16
 3625              		.loc 1 1773 9
 3626 00d0 DBB2     		uxtb	r3, r3
 3627              		.loc 1 1773 7
 3628 00d2 FB60     		str	r3, [r7, #12]
1774:./Libraries/STM32F4xx_HAL_Driver/Src/stm32f4xx_hal_sd.c ****   pCID->ProdSN = tmp << 24U;
 3629              		.loc 1 1774 22
 3630 00d4 FB68     		ldr	r3, [r7, #12]
 3631 00d6 1A06     		lsls	r2, r3, #24
 3632              		.loc 1 1774 16
 3633 00d8 3B68     		ldr	r3, [r7]
 3634 00da DA60     		str	r2, [r3, #12]
1775:./Libraries/STM32F4xx_HAL_Driver/Src/stm32f4xx_hal_sd.c ****   
1776:./Libraries/STM32F4xx_HAL_Driver/Src/stm32f4xx_hal_sd.c ****   /* Byte 10 */
1777:./Libraries/STM32F4xx_HAL_Driver/Src/stm32f4xx_hal_sd.c ****   tmp = (uint8_t)((hsd->CID[2U] & 0x0000FF00U) >> 8U);
 3635              		.loc 1 1777 28
 3636 00dc 7B68     		ldr	r3, [r7, #4]
 3637 00de DB6F     		ldr	r3, [r3, #124]
 3638              		.loc 1 1777 48
 3639 00e0 1B0A     		lsrs	r3, r3, #8
 3640              		.loc 1 1777 9
 3641 00e2 DBB2     		uxtb	r3, r3
 3642              		.loc 1 1777 7
 3643 00e4 FB60     		str	r3, [r7, #12]
1778:./Libraries/STM32F4xx_HAL_Driver/Src/stm32f4xx_hal_sd.c ****   pCID->ProdSN |= tmp << 16U;
 3644              		.loc 1 1778 16
 3645 00e6 3B68     		ldr	r3, [r7]
 3646 00e8 DA68     		ldr	r2, [r3, #12]
 3647              		.loc 1 1778 23
 3648 00ea FB68     		ldr	r3, [r7, #12]
ARM GAS  /tmp/ccMhfXg8.s 			page 97


 3649 00ec 1B04     		lsls	r3, r3, #16
 3650              		.loc 1 1778 16
 3651 00ee 1A43     		orrs	r2, r2, r3
 3652 00f0 3B68     		ldr	r3, [r7]
 3653 00f2 DA60     		str	r2, [r3, #12]
1779:./Libraries/STM32F4xx_HAL_Driver/Src/stm32f4xx_hal_sd.c ****   
1780:./Libraries/STM32F4xx_HAL_Driver/Src/stm32f4xx_hal_sd.c ****   /* Byte 11 */
1781:./Libraries/STM32F4xx_HAL_Driver/Src/stm32f4xx_hal_sd.c ****   tmp = (uint8_t)(hsd->CID[2U] & 0x000000FFU);
 3654              		.loc 1 1781 27
 3655 00f4 7B68     		ldr	r3, [r7, #4]
 3656 00f6 DB6F     		ldr	r3, [r3, #124]
 3657              		.loc 1 1781 9
 3658 00f8 DBB2     		uxtb	r3, r3
 3659              		.loc 1 1781 7
 3660 00fa FB60     		str	r3, [r7, #12]
1782:./Libraries/STM32F4xx_HAL_Driver/Src/stm32f4xx_hal_sd.c ****   pCID->ProdSN |= tmp << 8U;
 3661              		.loc 1 1782 16
 3662 00fc 3B68     		ldr	r3, [r7]
 3663 00fe DA68     		ldr	r2, [r3, #12]
 3664              		.loc 1 1782 23
 3665 0100 FB68     		ldr	r3, [r7, #12]
 3666 0102 1B02     		lsls	r3, r3, #8
 3667              		.loc 1 1782 16
 3668 0104 1A43     		orrs	r2, r2, r3
 3669 0106 3B68     		ldr	r3, [r7]
 3670 0108 DA60     		str	r2, [r3, #12]
1783:./Libraries/STM32F4xx_HAL_Driver/Src/stm32f4xx_hal_sd.c ****   
1784:./Libraries/STM32F4xx_HAL_Driver/Src/stm32f4xx_hal_sd.c ****   /* Byte 12 */
1785:./Libraries/STM32F4xx_HAL_Driver/Src/stm32f4xx_hal_sd.c ****   tmp = (uint8_t)((hsd->CID[3U] & 0xFF000000U) >> 24U);
 3671              		.loc 1 1785 28
 3672 010a 7B68     		ldr	r3, [r7, #4]
 3673 010c D3F88030 		ldr	r3, [r3, #128]
 3674              		.loc 1 1785 48
 3675 0110 1B0E     		lsrs	r3, r3, #24
 3676              		.loc 1 1785 9
 3677 0112 DBB2     		uxtb	r3, r3
 3678              		.loc 1 1785 7
 3679 0114 FB60     		str	r3, [r7, #12]
1786:./Libraries/STM32F4xx_HAL_Driver/Src/stm32f4xx_hal_sd.c ****   pCID->ProdSN |= tmp;
 3680              		.loc 1 1786 16
 3681 0116 3B68     		ldr	r3, [r7]
 3682 0118 DA68     		ldr	r2, [r3, #12]
 3683 011a FB68     		ldr	r3, [r7, #12]
 3684 011c 1A43     		orrs	r2, r2, r3
 3685 011e 3B68     		ldr	r3, [r7]
 3686 0120 DA60     		str	r2, [r3, #12]
1787:./Libraries/STM32F4xx_HAL_Driver/Src/stm32f4xx_hal_sd.c ****   
1788:./Libraries/STM32F4xx_HAL_Driver/Src/stm32f4xx_hal_sd.c ****   /* Byte 13 */
1789:./Libraries/STM32F4xx_HAL_Driver/Src/stm32f4xx_hal_sd.c ****   tmp = (uint8_t)((hsd->CID[3U] & 0x00FF0000U) >> 16U);
 3687              		.loc 1 1789 28
 3688 0122 7B68     		ldr	r3, [r7, #4]
 3689 0124 D3F88030 		ldr	r3, [r3, #128]
 3690              		.loc 1 1789 48
 3691 0128 1B0C     		lsrs	r3, r3, #16
 3692              		.loc 1 1789 9
 3693 012a DBB2     		uxtb	r3, r3
 3694              		.loc 1 1789 7
ARM GAS  /tmp/ccMhfXg8.s 			page 98


 3695 012c FB60     		str	r3, [r7, #12]
1790:./Libraries/STM32F4xx_HAL_Driver/Src/stm32f4xx_hal_sd.c ****   pCID->Reserved1   |= (tmp & 0xF0U) >> 4U;
 3696              		.loc 1 1790 21
 3697 012e 3B68     		ldr	r3, [r7]
 3698 0130 1B7C     		ldrb	r3, [r3, #16]
 3699 0132 DAB2     		uxtb	r2, r3
 3700              		.loc 1 1790 38
 3701 0134 FB68     		ldr	r3, [r7, #12]
 3702 0136 1B09     		lsrs	r3, r3, #4
 3703 0138 DBB2     		uxtb	r3, r3
 3704 013a 03F00F03 		and	r3, r3, #15
 3705 013e DBB2     		uxtb	r3, r3
 3706              		.loc 1 1790 21
 3707 0140 1343     		orrs	r3, r3, r2
 3708 0142 DAB2     		uxtb	r2, r3
 3709 0144 3B68     		ldr	r3, [r7]
 3710 0146 1A74     		strb	r2, [r3, #16]
1791:./Libraries/STM32F4xx_HAL_Driver/Src/stm32f4xx_hal_sd.c ****   pCID->ManufactDate = (tmp & 0x0FU) << 8U;
 3711              		.loc 1 1791 38
 3712 0148 FB68     		ldr	r3, [r7, #12]
 3713 014a 9BB2     		uxth	r3, r3
 3714 014c 1B02     		lsls	r3, r3, #8
 3715 014e 9BB2     		uxth	r3, r3
 3716 0150 03F47063 		and	r3, r3, #3840
 3717 0154 9AB2     		uxth	r2, r3
 3718              		.loc 1 1791 22
 3719 0156 3B68     		ldr	r3, [r7]
 3720 0158 5A82     		strh	r2, [r3, #18]	@ movhi
1792:./Libraries/STM32F4xx_HAL_Driver/Src/stm32f4xx_hal_sd.c ****   
1793:./Libraries/STM32F4xx_HAL_Driver/Src/stm32f4xx_hal_sd.c ****   /* Byte 14 */
1794:./Libraries/STM32F4xx_HAL_Driver/Src/stm32f4xx_hal_sd.c ****   tmp = (uint8_t)((hsd->CID[3U] & 0x0000FF00U) >> 8U);
 3721              		.loc 1 1794 28
 3722 015a 7B68     		ldr	r3, [r7, #4]
 3723 015c D3F88030 		ldr	r3, [r3, #128]
 3724              		.loc 1 1794 48
 3725 0160 1B0A     		lsrs	r3, r3, #8
 3726              		.loc 1 1794 9
 3727 0162 DBB2     		uxtb	r3, r3
 3728              		.loc 1 1794 7
 3729 0164 FB60     		str	r3, [r7, #12]
1795:./Libraries/STM32F4xx_HAL_Driver/Src/stm32f4xx_hal_sd.c ****   pCID->ManufactDate |= tmp;
 3730              		.loc 1 1795 22
 3731 0166 3B68     		ldr	r3, [r7]
 3732 0168 5B8A     		ldrh	r3, [r3, #18]	@ movhi
 3733 016a 9AB2     		uxth	r2, r3
 3734 016c FB68     		ldr	r3, [r7, #12]
 3735 016e 9BB2     		uxth	r3, r3
 3736 0170 1343     		orrs	r3, r3, r2
 3737 0172 9AB2     		uxth	r2, r3
 3738 0174 3B68     		ldr	r3, [r7]
 3739 0176 5A82     		strh	r2, [r3, #18]	@ movhi
1796:./Libraries/STM32F4xx_HAL_Driver/Src/stm32f4xx_hal_sd.c ****   
1797:./Libraries/STM32F4xx_HAL_Driver/Src/stm32f4xx_hal_sd.c ****   /* Byte 15 */
1798:./Libraries/STM32F4xx_HAL_Driver/Src/stm32f4xx_hal_sd.c ****   tmp = (uint8_t)(hsd->CID[3U] & 0x000000FFU);
 3740              		.loc 1 1798 27
 3741 0178 7B68     		ldr	r3, [r7, #4]
 3742 017a D3F88030 		ldr	r3, [r3, #128]
ARM GAS  /tmp/ccMhfXg8.s 			page 99


 3743              		.loc 1 1798 9
 3744 017e DBB2     		uxtb	r3, r3
 3745              		.loc 1 1798 7
 3746 0180 FB60     		str	r3, [r7, #12]
1799:./Libraries/STM32F4xx_HAL_Driver/Src/stm32f4xx_hal_sd.c ****   pCID->CID_CRC   = (tmp & 0xFEU) >> 1U;
 3747              		.loc 1 1799 35
 3748 0182 FB68     		ldr	r3, [r7, #12]
 3749 0184 5B08     		lsrs	r3, r3, #1
 3750 0186 DBB2     		uxtb	r3, r3
 3751 0188 03F07F03 		and	r3, r3, #127
 3752 018c DAB2     		uxtb	r2, r3
 3753              		.loc 1 1799 19
 3754 018e 3B68     		ldr	r3, [r7]
 3755 0190 1A75     		strb	r2, [r3, #20]
1800:./Libraries/STM32F4xx_HAL_Driver/Src/stm32f4xx_hal_sd.c ****   pCID->Reserved2 = 1U;
 3756              		.loc 1 1800 19
 3757 0192 3B68     		ldr	r3, [r7]
 3758 0194 0122     		movs	r2, #1
 3759 0196 5A75     		strb	r2, [r3, #21]
1801:./Libraries/STM32F4xx_HAL_Driver/Src/stm32f4xx_hal_sd.c **** 
1802:./Libraries/STM32F4xx_HAL_Driver/Src/stm32f4xx_hal_sd.c ****   return HAL_OK;
 3760              		.loc 1 1802 10
 3761 0198 0023     		movs	r3, #0
1803:./Libraries/STM32F4xx_HAL_Driver/Src/stm32f4xx_hal_sd.c **** }
 3762              		.loc 1 1803 1
 3763 019a 1846     		mov	r0, r3
 3764 019c 1437     		adds	r7, r7, #20
 3765              	.LCFI106:
 3766              		.cfi_def_cfa_offset 4
 3767 019e BD46     		mov	sp, r7
 3768              	.LCFI107:
 3769              		.cfi_def_cfa_register 13
 3770              		@ sp needed
 3771 01a0 5DF8047B 		ldr	r7, [sp], #4
 3772              	.LCFI108:
 3773              		.cfi_restore 7
 3774              		.cfi_def_cfa_offset 0
 3775 01a4 7047     		bx	lr
 3776              		.cfi_endproc
 3777              	.LFE145:
 3779              		.section	.text.HAL_SD_GetCardCSD,"ax",%progbits
 3780              		.align	1
 3781              		.global	HAL_SD_GetCardCSD
 3782              		.syntax unified
 3783              		.thumb
 3784              		.thumb_func
 3785              		.fpu fpv4-sp-d16
 3787              	HAL_SD_GetCardCSD:
 3788              	.LFB146:
1804:./Libraries/STM32F4xx_HAL_Driver/Src/stm32f4xx_hal_sd.c **** 
1805:./Libraries/STM32F4xx_HAL_Driver/Src/stm32f4xx_hal_sd.c **** /**
1806:./Libraries/STM32F4xx_HAL_Driver/Src/stm32f4xx_hal_sd.c ****   * @brief  Returns information the information of the card which are stored on
1807:./Libraries/STM32F4xx_HAL_Driver/Src/stm32f4xx_hal_sd.c ****   *         the CSD register.
1808:./Libraries/STM32F4xx_HAL_Driver/Src/stm32f4xx_hal_sd.c ****   * @param  hsd Pointer to SD handle
1809:./Libraries/STM32F4xx_HAL_Driver/Src/stm32f4xx_hal_sd.c ****   * @param  pCSD Pointer to a HAL_SD_CardCSDTypeDef structure that  
1810:./Libraries/STM32F4xx_HAL_Driver/Src/stm32f4xx_hal_sd.c ****   *         contains all CSD register parameters  
1811:./Libraries/STM32F4xx_HAL_Driver/Src/stm32f4xx_hal_sd.c ****   * @retval HAL status
ARM GAS  /tmp/ccMhfXg8.s 			page 100


1812:./Libraries/STM32F4xx_HAL_Driver/Src/stm32f4xx_hal_sd.c ****   */
1813:./Libraries/STM32F4xx_HAL_Driver/Src/stm32f4xx_hal_sd.c **** HAL_StatusTypeDef HAL_SD_GetCardCSD(SD_HandleTypeDef *hsd, HAL_SD_CardCSDTypeDef *pCSD)
1814:./Libraries/STM32F4xx_HAL_Driver/Src/stm32f4xx_hal_sd.c **** {
 3789              		.loc 1 1814 1
 3790              		.cfi_startproc
 3791              		@ args = 0, pretend = 0, frame = 16
 3792              		@ frame_needed = 1, uses_anonymous_args = 0
 3793              		@ link register save eliminated.
 3794 0000 80B4     		push	{r7}
 3795              	.LCFI109:
 3796              		.cfi_def_cfa_offset 4
 3797              		.cfi_offset 7, -4
 3798 0002 85B0     		sub	sp, sp, #20
 3799              	.LCFI110:
 3800              		.cfi_def_cfa_offset 24
 3801 0004 00AF     		add	r7, sp, #0
 3802              	.LCFI111:
 3803              		.cfi_def_cfa_register 7
 3804 0006 7860     		str	r0, [r7, #4]
 3805 0008 3960     		str	r1, [r7]
1815:./Libraries/STM32F4xx_HAL_Driver/Src/stm32f4xx_hal_sd.c ****   uint32_t tmp = 0U;
 3806              		.loc 1 1815 12
 3807 000a 0023     		movs	r3, #0
 3808 000c FB60     		str	r3, [r7, #12]
1816:./Libraries/STM32F4xx_HAL_Driver/Src/stm32f4xx_hal_sd.c ****   
1817:./Libraries/STM32F4xx_HAL_Driver/Src/stm32f4xx_hal_sd.c ****   /* Byte 0 */
1818:./Libraries/STM32F4xx_HAL_Driver/Src/stm32f4xx_hal_sd.c ****   tmp = (hsd->CSD[0U] & 0xFF000000U) >> 24U;
 3809              		.loc 1 1818 18
 3810 000e 7B68     		ldr	r3, [r7, #4]
 3811 0010 5B6E     		ldr	r3, [r3, #100]
 3812              		.loc 1 1818 7
 3813 0012 1B0E     		lsrs	r3, r3, #24
 3814 0014 FB60     		str	r3, [r7, #12]
1819:./Libraries/STM32F4xx_HAL_Driver/Src/stm32f4xx_hal_sd.c ****   pCSD->CSDStruct      = (uint8_t)((tmp & 0xC0U) >> 6U);
 3815              		.loc 1 1819 50
 3816 0016 FB68     		ldr	r3, [r7, #12]
 3817 0018 9B09     		lsrs	r3, r3, #6
 3818              		.loc 1 1819 26
 3819 001a DBB2     		uxtb	r3, r3
 3820 001c 03F00303 		and	r3, r3, #3
 3821 0020 DAB2     		uxtb	r2, r3
 3822              		.loc 1 1819 24
 3823 0022 3B68     		ldr	r3, [r7]
 3824 0024 1A70     		strb	r2, [r3]
1820:./Libraries/STM32F4xx_HAL_Driver/Src/stm32f4xx_hal_sd.c ****   pCSD->SysSpecVersion = (uint8_t)((tmp & 0x3CU) >> 2U);
 3825              		.loc 1 1820 50
 3826 0026 FB68     		ldr	r3, [r7, #12]
 3827 0028 9B08     		lsrs	r3, r3, #2
 3828              		.loc 1 1820 26
 3829 002a DBB2     		uxtb	r3, r3
 3830 002c 03F00F03 		and	r3, r3, #15
 3831 0030 DAB2     		uxtb	r2, r3
 3832              		.loc 1 1820 24
 3833 0032 3B68     		ldr	r3, [r7]
 3834 0034 5A70     		strb	r2, [r3, #1]
1821:./Libraries/STM32F4xx_HAL_Driver/Src/stm32f4xx_hal_sd.c ****   pCSD->Reserved1      = tmp & 0x03U;
 3835              		.loc 1 1821 30
ARM GAS  /tmp/ccMhfXg8.s 			page 101


 3836 0036 FB68     		ldr	r3, [r7, #12]
 3837 0038 DBB2     		uxtb	r3, r3
 3838 003a 03F00303 		and	r3, r3, #3
 3839 003e DAB2     		uxtb	r2, r3
 3840              		.loc 1 1821 24
 3841 0040 3B68     		ldr	r3, [r7]
 3842 0042 9A70     		strb	r2, [r3, #2]
1822:./Libraries/STM32F4xx_HAL_Driver/Src/stm32f4xx_hal_sd.c ****   
1823:./Libraries/STM32F4xx_HAL_Driver/Src/stm32f4xx_hal_sd.c ****   /* Byte 1 */
1824:./Libraries/STM32F4xx_HAL_Driver/Src/stm32f4xx_hal_sd.c ****   tmp = (hsd->CSD[0U] & 0x00FF0000U) >> 16U;
 3843              		.loc 1 1824 18
 3844 0044 7B68     		ldr	r3, [r7, #4]
 3845 0046 5B6E     		ldr	r3, [r3, #100]
 3846              		.loc 1 1824 38
 3847 0048 1B0C     		lsrs	r3, r3, #16
 3848              		.loc 1 1824 7
 3849 004a DBB2     		uxtb	r3, r3
 3850 004c FB60     		str	r3, [r7, #12]
1825:./Libraries/STM32F4xx_HAL_Driver/Src/stm32f4xx_hal_sd.c ****   pCSD->TAAC = (uint8_t)tmp;
 3851              		.loc 1 1825 16
 3852 004e FB68     		ldr	r3, [r7, #12]
 3853 0050 DAB2     		uxtb	r2, r3
 3854              		.loc 1 1825 14
 3855 0052 3B68     		ldr	r3, [r7]
 3856 0054 DA70     		strb	r2, [r3, #3]
1826:./Libraries/STM32F4xx_HAL_Driver/Src/stm32f4xx_hal_sd.c ****   
1827:./Libraries/STM32F4xx_HAL_Driver/Src/stm32f4xx_hal_sd.c ****   /* Byte 2 */
1828:./Libraries/STM32F4xx_HAL_Driver/Src/stm32f4xx_hal_sd.c ****   tmp = (hsd->CSD[0U] & 0x0000FF00U) >> 8U;
 3857              		.loc 1 1828 18
 3858 0056 7B68     		ldr	r3, [r7, #4]
 3859 0058 5B6E     		ldr	r3, [r3, #100]
 3860              		.loc 1 1828 38
 3861 005a 1B0A     		lsrs	r3, r3, #8
 3862              		.loc 1 1828 7
 3863 005c DBB2     		uxtb	r3, r3
 3864 005e FB60     		str	r3, [r7, #12]
1829:./Libraries/STM32F4xx_HAL_Driver/Src/stm32f4xx_hal_sd.c ****   pCSD->NSAC = (uint8_t)tmp;
 3865              		.loc 1 1829 16
 3866 0060 FB68     		ldr	r3, [r7, #12]
 3867 0062 DAB2     		uxtb	r2, r3
 3868              		.loc 1 1829 14
 3869 0064 3B68     		ldr	r3, [r7]
 3870 0066 1A71     		strb	r2, [r3, #4]
1830:./Libraries/STM32F4xx_HAL_Driver/Src/stm32f4xx_hal_sd.c ****   
1831:./Libraries/STM32F4xx_HAL_Driver/Src/stm32f4xx_hal_sd.c ****   /* Byte 3 */
1832:./Libraries/STM32F4xx_HAL_Driver/Src/stm32f4xx_hal_sd.c ****   tmp = hsd->CSD[0U] & 0x000000FFU;
 3871              		.loc 1 1832 17
 3872 0068 7B68     		ldr	r3, [r7, #4]
 3873 006a 5B6E     		ldr	r3, [r3, #100]
 3874              		.loc 1 1832 7
 3875 006c DBB2     		uxtb	r3, r3
 3876 006e FB60     		str	r3, [r7, #12]
1833:./Libraries/STM32F4xx_HAL_Driver/Src/stm32f4xx_hal_sd.c ****   pCSD->MaxBusClkFrec = (uint8_t)tmp;
 3877              		.loc 1 1833 25
 3878 0070 FB68     		ldr	r3, [r7, #12]
 3879 0072 DAB2     		uxtb	r2, r3
 3880              		.loc 1 1833 23
ARM GAS  /tmp/ccMhfXg8.s 			page 102


 3881 0074 3B68     		ldr	r3, [r7]
 3882 0076 5A71     		strb	r2, [r3, #5]
1834:./Libraries/STM32F4xx_HAL_Driver/Src/stm32f4xx_hal_sd.c ****   
1835:./Libraries/STM32F4xx_HAL_Driver/Src/stm32f4xx_hal_sd.c ****   /* Byte 4 */
1836:./Libraries/STM32F4xx_HAL_Driver/Src/stm32f4xx_hal_sd.c ****   tmp = (hsd->CSD[1U] & 0xFF000000U) >> 24U;
 3883              		.loc 1 1836 18
 3884 0078 7B68     		ldr	r3, [r7, #4]
 3885 007a 9B6E     		ldr	r3, [r3, #104]
 3886              		.loc 1 1836 7
 3887 007c 1B0E     		lsrs	r3, r3, #24
 3888 007e FB60     		str	r3, [r7, #12]
1837:./Libraries/STM32F4xx_HAL_Driver/Src/stm32f4xx_hal_sd.c ****   pCSD->CardComdClasses = (uint16_t)(tmp << 4U);
 3889              		.loc 1 1837 27
 3890 0080 FB68     		ldr	r3, [r7, #12]
 3891 0082 9BB2     		uxth	r3, r3
 3892 0084 1B01     		lsls	r3, r3, #4
 3893 0086 9AB2     		uxth	r2, r3
 3894              		.loc 1 1837 25
 3895 0088 3B68     		ldr	r3, [r7]
 3896 008a DA80     		strh	r2, [r3, #6]	@ movhi
1838:./Libraries/STM32F4xx_HAL_Driver/Src/stm32f4xx_hal_sd.c ****   
1839:./Libraries/STM32F4xx_HAL_Driver/Src/stm32f4xx_hal_sd.c ****   /* Byte 5 */
1840:./Libraries/STM32F4xx_HAL_Driver/Src/stm32f4xx_hal_sd.c ****   tmp = (hsd->CSD[1U] & 0x00FF0000U) >> 16U;
 3897              		.loc 1 1840 18
 3898 008c 7B68     		ldr	r3, [r7, #4]
 3899 008e 9B6E     		ldr	r3, [r3, #104]
 3900              		.loc 1 1840 38
 3901 0090 1B0C     		lsrs	r3, r3, #16
 3902              		.loc 1 1840 7
 3903 0092 DBB2     		uxtb	r3, r3
 3904 0094 FB60     		str	r3, [r7, #12]
1841:./Libraries/STM32F4xx_HAL_Driver/Src/stm32f4xx_hal_sd.c ****   pCSD->CardComdClasses |= (uint16_t)((tmp & 0xF0U) >> 4U);
 3905              		.loc 1 1841 25
 3906 0096 3B68     		ldr	r3, [r7]
 3907 0098 DB88     		ldrh	r3, [r3, #6]	@ movhi
 3908 009a 9AB2     		uxth	r2, r3
 3909              		.loc 1 1841 53
 3910 009c FB68     		ldr	r3, [r7, #12]
 3911 009e 1B09     		lsrs	r3, r3, #4
 3912              		.loc 1 1841 28
 3913 00a0 9BB2     		uxth	r3, r3
 3914 00a2 03F00F03 		and	r3, r3, #15
 3915 00a6 9BB2     		uxth	r3, r3
 3916              		.loc 1 1841 25
 3917 00a8 1343     		orrs	r3, r3, r2
 3918 00aa 9AB2     		uxth	r2, r3
 3919 00ac 3B68     		ldr	r3, [r7]
 3920 00ae DA80     		strh	r2, [r3, #6]	@ movhi
1842:./Libraries/STM32F4xx_HAL_Driver/Src/stm32f4xx_hal_sd.c ****   pCSD->RdBlockLen       = (uint8_t)(tmp & 0x0FU);
 3921              		.loc 1 1842 28
 3922 00b0 FB68     		ldr	r3, [r7, #12]
 3923 00b2 DBB2     		uxtb	r3, r3
 3924 00b4 03F00F03 		and	r3, r3, #15
 3925 00b8 DAB2     		uxtb	r2, r3
 3926              		.loc 1 1842 26
 3927 00ba 3B68     		ldr	r3, [r7]
 3928 00bc 1A72     		strb	r2, [r3, #8]
ARM GAS  /tmp/ccMhfXg8.s 			page 103


1843:./Libraries/STM32F4xx_HAL_Driver/Src/stm32f4xx_hal_sd.c ****   
1844:./Libraries/STM32F4xx_HAL_Driver/Src/stm32f4xx_hal_sd.c ****   /* Byte 6 */
1845:./Libraries/STM32F4xx_HAL_Driver/Src/stm32f4xx_hal_sd.c ****   tmp = (hsd->CSD[1U] & 0x0000FF00U) >> 8U;
 3929              		.loc 1 1845 18
 3930 00be 7B68     		ldr	r3, [r7, #4]
 3931 00c0 9B6E     		ldr	r3, [r3, #104]
 3932              		.loc 1 1845 38
 3933 00c2 1B0A     		lsrs	r3, r3, #8
 3934              		.loc 1 1845 7
 3935 00c4 DBB2     		uxtb	r3, r3
 3936 00c6 FB60     		str	r3, [r7, #12]
1846:./Libraries/STM32F4xx_HAL_Driver/Src/stm32f4xx_hal_sd.c ****   pCSD->PartBlockRead   = (uint8_t)((tmp & 0x80U) >> 7U);
 3937              		.loc 1 1846 51
 3938 00c8 FB68     		ldr	r3, [r7, #12]
 3939 00ca DB09     		lsrs	r3, r3, #7
 3940              		.loc 1 1846 27
 3941 00cc DBB2     		uxtb	r3, r3
 3942 00ce 03F00103 		and	r3, r3, #1
 3943 00d2 DAB2     		uxtb	r2, r3
 3944              		.loc 1 1846 25
 3945 00d4 3B68     		ldr	r3, [r7]
 3946 00d6 5A72     		strb	r2, [r3, #9]
1847:./Libraries/STM32F4xx_HAL_Driver/Src/stm32f4xx_hal_sd.c ****   pCSD->WrBlockMisalign = (uint8_t)((tmp & 0x40U) >> 6U);
 3947              		.loc 1 1847 51
 3948 00d8 FB68     		ldr	r3, [r7, #12]
 3949 00da 9B09     		lsrs	r3, r3, #6
 3950              		.loc 1 1847 27
 3951 00dc DBB2     		uxtb	r3, r3
 3952 00de 03F00103 		and	r3, r3, #1
 3953 00e2 DAB2     		uxtb	r2, r3
 3954              		.loc 1 1847 25
 3955 00e4 3B68     		ldr	r3, [r7]
 3956 00e6 9A72     		strb	r2, [r3, #10]
1848:./Libraries/STM32F4xx_HAL_Driver/Src/stm32f4xx_hal_sd.c ****   pCSD->RdBlockMisalign = (uint8_t)((tmp & 0x20U) >> 5U);
 3957              		.loc 1 1848 51
 3958 00e8 FB68     		ldr	r3, [r7, #12]
 3959 00ea 5B09     		lsrs	r3, r3, #5
 3960              		.loc 1 1848 27
 3961 00ec DBB2     		uxtb	r3, r3
 3962 00ee 03F00103 		and	r3, r3, #1
 3963 00f2 DAB2     		uxtb	r2, r3
 3964              		.loc 1 1848 25
 3965 00f4 3B68     		ldr	r3, [r7]
 3966 00f6 DA72     		strb	r2, [r3, #11]
1849:./Libraries/STM32F4xx_HAL_Driver/Src/stm32f4xx_hal_sd.c ****   pCSD->DSRImpl         = (uint8_t)((tmp & 0x10U) >> 4U);
 3967              		.loc 1 1849 51
 3968 00f8 FB68     		ldr	r3, [r7, #12]
 3969 00fa 1B09     		lsrs	r3, r3, #4
 3970              		.loc 1 1849 27
 3971 00fc DBB2     		uxtb	r3, r3
 3972 00fe 03F00103 		and	r3, r3, #1
 3973 0102 DAB2     		uxtb	r2, r3
 3974              		.loc 1 1849 25
 3975 0104 3B68     		ldr	r3, [r7]
 3976 0106 1A73     		strb	r2, [r3, #12]
1850:./Libraries/STM32F4xx_HAL_Driver/Src/stm32f4xx_hal_sd.c ****   pCSD->Reserved2       = 0U; /*!< Reserved */
 3977              		.loc 1 1850 25
ARM GAS  /tmp/ccMhfXg8.s 			page 104


 3978 0108 3B68     		ldr	r3, [r7]
 3979 010a 0022     		movs	r2, #0
 3980 010c 5A73     		strb	r2, [r3, #13]
1851:./Libraries/STM32F4xx_HAL_Driver/Src/stm32f4xx_hal_sd.c ****        
1852:./Libraries/STM32F4xx_HAL_Driver/Src/stm32f4xx_hal_sd.c ****   if(hsd->SdCard.CardType == CARD_SDSC)
 3981              		.loc 1 1852 17
 3982 010e 7B68     		ldr	r3, [r7, #4]
 3983 0110 5B6C     		ldr	r3, [r3, #68]
 3984              		.loc 1 1852 5
 3985 0112 002B     		cmp	r3, #0
 3986 0114 40F08780 		bne	.L155
1853:./Libraries/STM32F4xx_HAL_Driver/Src/stm32f4xx_hal_sd.c ****   {
1854:./Libraries/STM32F4xx_HAL_Driver/Src/stm32f4xx_hal_sd.c ****     pCSD->DeviceSize = (tmp & 0x03U) << 10U;
 3987              		.loc 1 1854 38
 3988 0118 FB68     		ldr	r3, [r7, #12]
 3989 011a 9B02     		lsls	r3, r3, #10
 3990 011c 03F44062 		and	r2, r3, #3072
 3991              		.loc 1 1854 22
 3992 0120 3B68     		ldr	r3, [r7]
 3993 0122 1A61     		str	r2, [r3, #16]
1855:./Libraries/STM32F4xx_HAL_Driver/Src/stm32f4xx_hal_sd.c ****     
1856:./Libraries/STM32F4xx_HAL_Driver/Src/stm32f4xx_hal_sd.c ****     /* Byte 7 */
1857:./Libraries/STM32F4xx_HAL_Driver/Src/stm32f4xx_hal_sd.c ****     tmp = (uint8_t)(hsd->CSD[1U] & 0x000000FFU);
 3994              		.loc 1 1857 29
 3995 0124 7B68     		ldr	r3, [r7, #4]
 3996 0126 9B6E     		ldr	r3, [r3, #104]
 3997              		.loc 1 1857 11
 3998 0128 DBB2     		uxtb	r3, r3
 3999              		.loc 1 1857 9
 4000 012a FB60     		str	r3, [r7, #12]
1858:./Libraries/STM32F4xx_HAL_Driver/Src/stm32f4xx_hal_sd.c ****     pCSD->DeviceSize |= (tmp) << 2U;
 4001              		.loc 1 1858 22
 4002 012c 3B68     		ldr	r3, [r7]
 4003 012e 1A69     		ldr	r2, [r3, #16]
 4004              		.loc 1 1858 31
 4005 0130 FB68     		ldr	r3, [r7, #12]
 4006 0132 9B00     		lsls	r3, r3, #2
 4007              		.loc 1 1858 22
 4008 0134 1A43     		orrs	r2, r2, r3
 4009 0136 3B68     		ldr	r3, [r7]
 4010 0138 1A61     		str	r2, [r3, #16]
1859:./Libraries/STM32F4xx_HAL_Driver/Src/stm32f4xx_hal_sd.c ****     
1860:./Libraries/STM32F4xx_HAL_Driver/Src/stm32f4xx_hal_sd.c ****     /* Byte 8 */
1861:./Libraries/STM32F4xx_HAL_Driver/Src/stm32f4xx_hal_sd.c ****     tmp = (uint8_t)((hsd->CSD[2U] & 0xFF000000U) >> 24U);
 4011              		.loc 1 1861 30
 4012 013a 7B68     		ldr	r3, [r7, #4]
 4013 013c DB6E     		ldr	r3, [r3, #108]
 4014              		.loc 1 1861 50
 4015 013e 1B0E     		lsrs	r3, r3, #24
 4016              		.loc 1 1861 11
 4017 0140 DBB2     		uxtb	r3, r3
 4018              		.loc 1 1861 9
 4019 0142 FB60     		str	r3, [r7, #12]
1862:./Libraries/STM32F4xx_HAL_Driver/Src/stm32f4xx_hal_sd.c ****     pCSD->DeviceSize |= (tmp & 0xC0U) >> 6U;
 4020              		.loc 1 1862 22
 4021 0144 3B68     		ldr	r3, [r7]
 4022 0146 1A69     		ldr	r2, [r3, #16]
ARM GAS  /tmp/ccMhfXg8.s 			page 105


 4023              		.loc 1 1862 39
 4024 0148 FB68     		ldr	r3, [r7, #12]
 4025 014a 9B09     		lsrs	r3, r3, #6
 4026 014c 03F00303 		and	r3, r3, #3
 4027              		.loc 1 1862 22
 4028 0150 1A43     		orrs	r2, r2, r3
 4029 0152 3B68     		ldr	r3, [r7]
 4030 0154 1A61     		str	r2, [r3, #16]
1863:./Libraries/STM32F4xx_HAL_Driver/Src/stm32f4xx_hal_sd.c ****     
1864:./Libraries/STM32F4xx_HAL_Driver/Src/stm32f4xx_hal_sd.c ****     pCSD->MaxRdCurrentVDDMin = (tmp & 0x38U) >> 3U;
 4031              		.loc 1 1864 46
 4032 0156 FB68     		ldr	r3, [r7, #12]
 4033 0158 DB08     		lsrs	r3, r3, #3
 4034 015a DBB2     		uxtb	r3, r3
 4035 015c 03F00703 		and	r3, r3, #7
 4036 0160 DAB2     		uxtb	r2, r3
 4037              		.loc 1 1864 30
 4038 0162 3B68     		ldr	r3, [r7]
 4039 0164 1A75     		strb	r2, [r3, #20]
1865:./Libraries/STM32F4xx_HAL_Driver/Src/stm32f4xx_hal_sd.c ****     pCSD->MaxRdCurrentVDDMax = (tmp & 0x07U);
 4040              		.loc 1 1865 37
 4041 0166 FB68     		ldr	r3, [r7, #12]
 4042 0168 DBB2     		uxtb	r3, r3
 4043 016a 03F00703 		and	r3, r3, #7
 4044 016e DAB2     		uxtb	r2, r3
 4045              		.loc 1 1865 30
 4046 0170 3B68     		ldr	r3, [r7]
 4047 0172 5A75     		strb	r2, [r3, #21]
1866:./Libraries/STM32F4xx_HAL_Driver/Src/stm32f4xx_hal_sd.c ****     
1867:./Libraries/STM32F4xx_HAL_Driver/Src/stm32f4xx_hal_sd.c ****     /* Byte 9 */
1868:./Libraries/STM32F4xx_HAL_Driver/Src/stm32f4xx_hal_sd.c ****     tmp = (uint8_t)((hsd->CSD[2U] & 0x00FF0000U) >> 16U);
 4048              		.loc 1 1868 30
 4049 0174 7B68     		ldr	r3, [r7, #4]
 4050 0176 DB6E     		ldr	r3, [r3, #108]
 4051              		.loc 1 1868 50
 4052 0178 1B0C     		lsrs	r3, r3, #16
 4053              		.loc 1 1868 11
 4054 017a DBB2     		uxtb	r3, r3
 4055              		.loc 1 1868 9
 4056 017c FB60     		str	r3, [r7, #12]
1869:./Libraries/STM32F4xx_HAL_Driver/Src/stm32f4xx_hal_sd.c ****     pCSD->MaxWrCurrentVDDMin = (tmp & 0xE0U) >> 5U;
 4057              		.loc 1 1869 46
 4058 017e FB68     		ldr	r3, [r7, #12]
 4059 0180 5B09     		lsrs	r3, r3, #5
 4060 0182 DBB2     		uxtb	r3, r3
 4061 0184 03F00703 		and	r3, r3, #7
 4062 0188 DAB2     		uxtb	r2, r3
 4063              		.loc 1 1869 30
 4064 018a 3B68     		ldr	r3, [r7]
 4065 018c 9A75     		strb	r2, [r3, #22]
1870:./Libraries/STM32F4xx_HAL_Driver/Src/stm32f4xx_hal_sd.c ****     pCSD->MaxWrCurrentVDDMax = (tmp & 0x1CU) >> 2U;
 4066              		.loc 1 1870 46
 4067 018e FB68     		ldr	r3, [r7, #12]
 4068 0190 9B08     		lsrs	r3, r3, #2
 4069 0192 DBB2     		uxtb	r3, r3
 4070 0194 03F00703 		and	r3, r3, #7
 4071 0198 DAB2     		uxtb	r2, r3
ARM GAS  /tmp/ccMhfXg8.s 			page 106


 4072              		.loc 1 1870 30
 4073 019a 3B68     		ldr	r3, [r7]
 4074 019c DA75     		strb	r2, [r3, #23]
1871:./Libraries/STM32F4xx_HAL_Driver/Src/stm32f4xx_hal_sd.c ****     pCSD->DeviceSizeMul      = (tmp & 0x03U) << 1U;
 4075              		.loc 1 1871 46
 4076 019e FB68     		ldr	r3, [r7, #12]
 4077 01a0 DBB2     		uxtb	r3, r3
 4078 01a2 5B00     		lsls	r3, r3, #1
 4079 01a4 DBB2     		uxtb	r3, r3
 4080 01a6 03F00603 		and	r3, r3, #6
 4081 01aa DAB2     		uxtb	r2, r3
 4082              		.loc 1 1871 30
 4083 01ac 3B68     		ldr	r3, [r7]
 4084 01ae 1A76     		strb	r2, [r3, #24]
1872:./Libraries/STM32F4xx_HAL_Driver/Src/stm32f4xx_hal_sd.c ****     /* Byte 10 */
1873:./Libraries/STM32F4xx_HAL_Driver/Src/stm32f4xx_hal_sd.c ****     tmp = (uint8_t)((hsd->CSD[2U] & 0x0000FF00U) >> 8U);
 4085              		.loc 1 1873 30
 4086 01b0 7B68     		ldr	r3, [r7, #4]
 4087 01b2 DB6E     		ldr	r3, [r3, #108]
 4088              		.loc 1 1873 50
 4089 01b4 1B0A     		lsrs	r3, r3, #8
 4090              		.loc 1 1873 11
 4091 01b6 DBB2     		uxtb	r3, r3
 4092              		.loc 1 1873 9
 4093 01b8 FB60     		str	r3, [r7, #12]
1874:./Libraries/STM32F4xx_HAL_Driver/Src/stm32f4xx_hal_sd.c ****     pCSD->DeviceSizeMul |= (tmp & 0x80U) >> 7U;
 4094              		.loc 1 1874 25
 4095 01ba 3B68     		ldr	r3, [r7]
 4096 01bc 1B7E     		ldrb	r3, [r3, #24]
 4097 01be DAB2     		uxtb	r2, r3
 4098              		.loc 1 1874 42
 4099 01c0 FB68     		ldr	r3, [r7, #12]
 4100 01c2 DB09     		lsrs	r3, r3, #7
 4101 01c4 DBB2     		uxtb	r3, r3
 4102 01c6 03F00103 		and	r3, r3, #1
 4103 01ca DBB2     		uxtb	r3, r3
 4104              		.loc 1 1874 25
 4105 01cc 1343     		orrs	r3, r3, r2
 4106 01ce DAB2     		uxtb	r2, r3
 4107 01d0 3B68     		ldr	r3, [r7]
 4108 01d2 1A76     		strb	r2, [r3, #24]
1875:./Libraries/STM32F4xx_HAL_Driver/Src/stm32f4xx_hal_sd.c ****     
1876:./Libraries/STM32F4xx_HAL_Driver/Src/stm32f4xx_hal_sd.c ****     hsd->SdCard.BlockNbr  = (pCSD->DeviceSize + 1U) ;
 4109              		.loc 1 1876 34
 4110 01d4 3B68     		ldr	r3, [r7]
 4111 01d6 1B69     		ldr	r3, [r3, #16]
 4112              		.loc 1 1876 47
 4113 01d8 5A1C     		adds	r2, r3, #1
 4114              		.loc 1 1876 27
 4115 01da 7B68     		ldr	r3, [r7, #4]
 4116 01dc 5A65     		str	r2, [r3, #84]
1877:./Libraries/STM32F4xx_HAL_Driver/Src/stm32f4xx_hal_sd.c ****     hsd->SdCard.BlockNbr *= (1U << (pCSD->DeviceSizeMul + 2U));
 4117              		.loc 1 1877 41
 4118 01de 3B68     		ldr	r3, [r7]
 4119 01e0 1B7E     		ldrb	r3, [r3, #24]
 4120 01e2 DBB2     		uxtb	r3, r3
 4121              		.loc 1 1877 57
ARM GAS  /tmp/ccMhfXg8.s 			page 107


 4122 01e4 0233     		adds	r3, r3, #2
 4123              		.loc 1 1877 33
 4124 01e6 0122     		movs	r2, #1
 4125 01e8 02FA03F3 		lsl	r3, r2, r3
 4126              		.loc 1 1877 26
 4127 01ec 7A68     		ldr	r2, [r7, #4]
 4128 01ee 526D     		ldr	r2, [r2, #84]
 4129 01f0 03FB02F2 		mul	r2, r3, r2
 4130 01f4 7B68     		ldr	r3, [r7, #4]
 4131 01f6 5A65     		str	r2, [r3, #84]
1878:./Libraries/STM32F4xx_HAL_Driver/Src/stm32f4xx_hal_sd.c ****     hsd->SdCard.BlockSize = 1U << (pCSD->RdBlockLen);
 4132              		.loc 1 1878 40
 4133 01f8 3B68     		ldr	r3, [r7]
 4134 01fa 1B7A     		ldrb	r3, [r3, #8]
 4135 01fc DBB2     		uxtb	r3, r3
 4136 01fe 1A46     		mov	r2, r3
 4137              		.loc 1 1878 32
 4138 0200 0123     		movs	r3, #1
 4139 0202 03FA02F2 		lsl	r2, r3, r2
 4140              		.loc 1 1878 27
 4141 0206 7B68     		ldr	r3, [r7, #4]
 4142 0208 9A65     		str	r2, [r3, #88]
1879:./Libraries/STM32F4xx_HAL_Driver/Src/stm32f4xx_hal_sd.c **** 
1880:./Libraries/STM32F4xx_HAL_Driver/Src/stm32f4xx_hal_sd.c ****     hsd->SdCard.LogBlockNbr =  (hsd->SdCard.BlockNbr) * ((hsd->SdCard.BlockSize) / 512U); 
 4143              		.loc 1 1880 44
 4144 020a 7B68     		ldr	r3, [r7, #4]
 4145 020c 5B6D     		ldr	r3, [r3, #84]
 4146              		.loc 1 1880 70
 4147 020e 7A68     		ldr	r2, [r7, #4]
 4148 0210 926D     		ldr	r2, [r2, #88]
 4149              		.loc 1 1880 82
 4150 0212 520A     		lsrs	r2, r2, #9
 4151              		.loc 1 1880 55
 4152 0214 03FB02F2 		mul	r2, r3, r2
 4153              		.loc 1 1880 29
 4154 0218 7B68     		ldr	r3, [r7, #4]
 4155 021a DA65     		str	r2, [r3, #92]
1881:./Libraries/STM32F4xx_HAL_Driver/Src/stm32f4xx_hal_sd.c ****     hsd->SdCard.LogBlockSize = 512U;
 4156              		.loc 1 1881 30
 4157 021c 7B68     		ldr	r3, [r7, #4]
 4158 021e 4FF40072 		mov	r2, #512
 4159 0222 1A66     		str	r2, [r3, #96]
 4160 0224 4DE0     		b	.L156
 4161              	.L155:
1882:./Libraries/STM32F4xx_HAL_Driver/Src/stm32f4xx_hal_sd.c ****   }
1883:./Libraries/STM32F4xx_HAL_Driver/Src/stm32f4xx_hal_sd.c ****   else if(hsd->SdCard.CardType == CARD_SDHC_SDXC)
 4162              		.loc 1 1883 22
 4163 0226 7B68     		ldr	r3, [r7, #4]
 4164 0228 5B6C     		ldr	r3, [r3, #68]
 4165              		.loc 1 1883 10
 4166 022a 012B     		cmp	r3, #1
 4167 022c 38D1     		bne	.L157
1884:./Libraries/STM32F4xx_HAL_Driver/Src/stm32f4xx_hal_sd.c ****   {
1885:./Libraries/STM32F4xx_HAL_Driver/Src/stm32f4xx_hal_sd.c ****     /* Byte 7 */
1886:./Libraries/STM32F4xx_HAL_Driver/Src/stm32f4xx_hal_sd.c ****     tmp = (uint8_t)(hsd->CSD[1U] & 0x000000FFU);
 4168              		.loc 1 1886 29
 4169 022e 7B68     		ldr	r3, [r7, #4]
ARM GAS  /tmp/ccMhfXg8.s 			page 108


 4170 0230 9B6E     		ldr	r3, [r3, #104]
 4171              		.loc 1 1886 11
 4172 0232 DBB2     		uxtb	r3, r3
 4173              		.loc 1 1886 9
 4174 0234 FB60     		str	r3, [r7, #12]
1887:./Libraries/STM32F4xx_HAL_Driver/Src/stm32f4xx_hal_sd.c ****     pCSD->DeviceSize = (tmp & 0x3FU) << 16U;
 4175              		.loc 1 1887 38
 4176 0236 FB68     		ldr	r3, [r7, #12]
 4177 0238 1B04     		lsls	r3, r3, #16
 4178 023a 03F47C12 		and	r2, r3, #4128768
 4179              		.loc 1 1887 22
 4180 023e 3B68     		ldr	r3, [r7]
 4181 0240 1A61     		str	r2, [r3, #16]
1888:./Libraries/STM32F4xx_HAL_Driver/Src/stm32f4xx_hal_sd.c ****     
1889:./Libraries/STM32F4xx_HAL_Driver/Src/stm32f4xx_hal_sd.c ****     /* Byte 8 */
1890:./Libraries/STM32F4xx_HAL_Driver/Src/stm32f4xx_hal_sd.c ****     tmp = (uint8_t)((hsd->CSD[2U] & 0xFF000000U) >> 24U);
 4182              		.loc 1 1890 30
 4183 0242 7B68     		ldr	r3, [r7, #4]
 4184 0244 DB6E     		ldr	r3, [r3, #108]
 4185              		.loc 1 1890 50
 4186 0246 1B0E     		lsrs	r3, r3, #24
 4187              		.loc 1 1890 11
 4188 0248 DBB2     		uxtb	r3, r3
 4189              		.loc 1 1890 9
 4190 024a FB60     		str	r3, [r7, #12]
1891:./Libraries/STM32F4xx_HAL_Driver/Src/stm32f4xx_hal_sd.c ****     
1892:./Libraries/STM32F4xx_HAL_Driver/Src/stm32f4xx_hal_sd.c ****     pCSD->DeviceSize |= (tmp << 8U);
 4191              		.loc 1 1892 22
 4192 024c 3B68     		ldr	r3, [r7]
 4193 024e 1A69     		ldr	r2, [r3, #16]
 4194              		.loc 1 1892 30
 4195 0250 FB68     		ldr	r3, [r7, #12]
 4196 0252 1B02     		lsls	r3, r3, #8
 4197              		.loc 1 1892 22
 4198 0254 1A43     		orrs	r2, r2, r3
 4199 0256 3B68     		ldr	r3, [r7]
 4200 0258 1A61     		str	r2, [r3, #16]
1893:./Libraries/STM32F4xx_HAL_Driver/Src/stm32f4xx_hal_sd.c ****     
1894:./Libraries/STM32F4xx_HAL_Driver/Src/stm32f4xx_hal_sd.c ****     /* Byte 9 */
1895:./Libraries/STM32F4xx_HAL_Driver/Src/stm32f4xx_hal_sd.c ****     tmp = (uint8_t)((hsd->CSD[2U] & 0x00FF0000U) >> 16U);
 4201              		.loc 1 1895 30
 4202 025a 7B68     		ldr	r3, [r7, #4]
 4203 025c DB6E     		ldr	r3, [r3, #108]
 4204              		.loc 1 1895 50
 4205 025e 1B0C     		lsrs	r3, r3, #16
 4206              		.loc 1 1895 11
 4207 0260 DBB2     		uxtb	r3, r3
 4208              		.loc 1 1895 9
 4209 0262 FB60     		str	r3, [r7, #12]
1896:./Libraries/STM32F4xx_HAL_Driver/Src/stm32f4xx_hal_sd.c ****     
1897:./Libraries/STM32F4xx_HAL_Driver/Src/stm32f4xx_hal_sd.c ****     pCSD->DeviceSize |= (tmp);
 4210              		.loc 1 1897 22
 4211 0264 3B68     		ldr	r3, [r7]
 4212 0266 1A69     		ldr	r2, [r3, #16]
 4213 0268 FB68     		ldr	r3, [r7, #12]
 4214 026a 1A43     		orrs	r2, r2, r3
 4215 026c 3B68     		ldr	r3, [r7]
ARM GAS  /tmp/ccMhfXg8.s 			page 109


 4216 026e 1A61     		str	r2, [r3, #16]
1898:./Libraries/STM32F4xx_HAL_Driver/Src/stm32f4xx_hal_sd.c ****     
1899:./Libraries/STM32F4xx_HAL_Driver/Src/stm32f4xx_hal_sd.c ****     /* Byte 10 */
1900:./Libraries/STM32F4xx_HAL_Driver/Src/stm32f4xx_hal_sd.c ****     tmp = (uint8_t)((hsd->CSD[2U] & 0x0000FF00U) >> 8U);
 4217              		.loc 1 1900 30
 4218 0270 7B68     		ldr	r3, [r7, #4]
 4219 0272 DB6E     		ldr	r3, [r3, #108]
 4220              		.loc 1 1900 50
 4221 0274 1B0A     		lsrs	r3, r3, #8
 4222              		.loc 1 1900 11
 4223 0276 DBB2     		uxtb	r3, r3
 4224              		.loc 1 1900 9
 4225 0278 FB60     		str	r3, [r7, #12]
1901:./Libraries/STM32F4xx_HAL_Driver/Src/stm32f4xx_hal_sd.c ****     
1902:./Libraries/STM32F4xx_HAL_Driver/Src/stm32f4xx_hal_sd.c ****     hsd->SdCard.LogBlockNbr = hsd->SdCard.BlockNbr = (((uint64_t)pCSD->DeviceSize + 1U) * 1024U);
 4226              		.loc 1 1902 70
 4227 027a 3B68     		ldr	r3, [r7]
 4228 027c 1B69     		ldr	r3, [r3, #16]
 4229              		.loc 1 1902 52
 4230 027e 0133     		adds	r3, r3, #1
 4231 0280 9A02     		lsls	r2, r3, #10
 4232 0282 7B68     		ldr	r3, [r7, #4]
 4233 0284 5A65     		str	r2, [r3, #84]
 4234              		.loc 1 1902 42
 4235 0286 7B68     		ldr	r3, [r7, #4]
 4236 0288 5A6D     		ldr	r2, [r3, #84]
 4237              		.loc 1 1902 29
 4238 028a 7B68     		ldr	r3, [r7, #4]
 4239 028c DA65     		str	r2, [r3, #92]
1903:./Libraries/STM32F4xx_HAL_Driver/Src/stm32f4xx_hal_sd.c ****     hsd->SdCard.LogBlockSize = hsd->SdCard.BlockSize = 512U;
 4240              		.loc 1 1903 54
 4241 028e 7B68     		ldr	r3, [r7, #4]
 4242 0290 4FF40072 		mov	r2, #512
 4243 0294 9A65     		str	r2, [r3, #88]
 4244              		.loc 1 1903 43
 4245 0296 7B68     		ldr	r3, [r7, #4]
 4246 0298 9A6D     		ldr	r2, [r3, #88]
 4247              		.loc 1 1903 30
 4248 029a 7B68     		ldr	r3, [r7, #4]
 4249 029c 1A66     		str	r2, [r3, #96]
 4250 029e 10E0     		b	.L156
 4251              	.L157:
1904:./Libraries/STM32F4xx_HAL_Driver/Src/stm32f4xx_hal_sd.c ****   }
1905:./Libraries/STM32F4xx_HAL_Driver/Src/stm32f4xx_hal_sd.c ****   else
1906:./Libraries/STM32F4xx_HAL_Driver/Src/stm32f4xx_hal_sd.c ****   {
1907:./Libraries/STM32F4xx_HAL_Driver/Src/stm32f4xx_hal_sd.c ****     /* Clear all the static flags */
1908:./Libraries/STM32F4xx_HAL_Driver/Src/stm32f4xx_hal_sd.c ****     __HAL_SD_CLEAR_FLAG(hsd, SDIO_STATIC_FLAGS);   
 4252              		.loc 1 1908 5
 4253 02a0 7B68     		ldr	r3, [r7, #4]
 4254 02a2 1B68     		ldr	r3, [r3]
 4255 02a4 40F2FF52 		movw	r2, #1535
 4256 02a8 9A63     		str	r2, [r3, #56]
1909:./Libraries/STM32F4xx_HAL_Driver/Src/stm32f4xx_hal_sd.c ****     hsd->ErrorCode |= HAL_SD_ERROR_UNSUPPORTED_FEATURE;
 4257              		.loc 1 1909 20
 4258 02aa 7B68     		ldr	r3, [r7, #4]
 4259 02ac 9B6B     		ldr	r3, [r3, #56]
 4260 02ae 43F08052 		orr	r2, r3, #268435456
ARM GAS  /tmp/ccMhfXg8.s 			page 110


 4261 02b2 7B68     		ldr	r3, [r7, #4]
 4262 02b4 9A63     		str	r2, [r3, #56]
1910:./Libraries/STM32F4xx_HAL_Driver/Src/stm32f4xx_hal_sd.c ****     hsd->State = HAL_SD_STATE_READY;
 4263              		.loc 1 1910 16
 4264 02b6 7B68     		ldr	r3, [r7, #4]
 4265 02b8 0122     		movs	r2, #1
 4266 02ba 83F83420 		strb	r2, [r3, #52]
1911:./Libraries/STM32F4xx_HAL_Driver/Src/stm32f4xx_hal_sd.c ****     return HAL_ERROR;
 4267              		.loc 1 1911 12
 4268 02be 0123     		movs	r3, #1
 4269 02c0 C1E0     		b	.L158
 4270              	.L156:
1912:./Libraries/STM32F4xx_HAL_Driver/Src/stm32f4xx_hal_sd.c ****   }
1913:./Libraries/STM32F4xx_HAL_Driver/Src/stm32f4xx_hal_sd.c ****   
1914:./Libraries/STM32F4xx_HAL_Driver/Src/stm32f4xx_hal_sd.c ****   pCSD->EraseGrSize = (tmp & 0x40U) >> 6U;
 4271              		.loc 1 1914 37
 4272 02c2 FB68     		ldr	r3, [r7, #12]
 4273 02c4 9B09     		lsrs	r3, r3, #6
 4274 02c6 DBB2     		uxtb	r3, r3
 4275 02c8 03F00103 		and	r3, r3, #1
 4276 02cc DAB2     		uxtb	r2, r3
 4277              		.loc 1 1914 21
 4278 02ce 3B68     		ldr	r3, [r7]
 4279 02d0 5A76     		strb	r2, [r3, #25]
1915:./Libraries/STM32F4xx_HAL_Driver/Src/stm32f4xx_hal_sd.c ****   pCSD->EraseGrMul  = (tmp & 0x3FU) << 1U;
 4280              		.loc 1 1915 37
 4281 02d2 FB68     		ldr	r3, [r7, #12]
 4282 02d4 DBB2     		uxtb	r3, r3
 4283 02d6 5B00     		lsls	r3, r3, #1
 4284 02d8 DBB2     		uxtb	r3, r3
 4285 02da 03F07E03 		and	r3, r3, #126
 4286 02de DAB2     		uxtb	r2, r3
 4287              		.loc 1 1915 21
 4288 02e0 3B68     		ldr	r3, [r7]
 4289 02e2 9A76     		strb	r2, [r3, #26]
1916:./Libraries/STM32F4xx_HAL_Driver/Src/stm32f4xx_hal_sd.c ****   
1917:./Libraries/STM32F4xx_HAL_Driver/Src/stm32f4xx_hal_sd.c ****   /* Byte 11 */
1918:./Libraries/STM32F4xx_HAL_Driver/Src/stm32f4xx_hal_sd.c ****   tmp = (uint8_t)(hsd->CSD[2U] & 0x000000FFU);
 4290              		.loc 1 1918 27
 4291 02e4 7B68     		ldr	r3, [r7, #4]
 4292 02e6 DB6E     		ldr	r3, [r3, #108]
 4293              		.loc 1 1918 9
 4294 02e8 DBB2     		uxtb	r3, r3
 4295              		.loc 1 1918 7
 4296 02ea FB60     		str	r3, [r7, #12]
1919:./Libraries/STM32F4xx_HAL_Driver/Src/stm32f4xx_hal_sd.c ****   pCSD->EraseGrMul     |= (tmp & 0x80U) >> 7U;
 4297              		.loc 1 1919 24
 4298 02ec 3B68     		ldr	r3, [r7]
 4299 02ee 9B7E     		ldrb	r3, [r3, #26]
 4300 02f0 DAB2     		uxtb	r2, r3
 4301              		.loc 1 1919 41
 4302 02f2 FB68     		ldr	r3, [r7, #12]
 4303 02f4 DB09     		lsrs	r3, r3, #7
 4304 02f6 DBB2     		uxtb	r3, r3
 4305 02f8 03F00103 		and	r3, r3, #1
 4306 02fc DBB2     		uxtb	r3, r3
 4307              		.loc 1 1919 24
ARM GAS  /tmp/ccMhfXg8.s 			page 111


 4308 02fe 1343     		orrs	r3, r3, r2
 4309 0300 DAB2     		uxtb	r2, r3
 4310 0302 3B68     		ldr	r3, [r7]
 4311 0304 9A76     		strb	r2, [r3, #26]
1920:./Libraries/STM32F4xx_HAL_Driver/Src/stm32f4xx_hal_sd.c ****   pCSD->WrProtectGrSize = (tmp & 0x7FU);
 4312              		.loc 1 1920 32
 4313 0306 FB68     		ldr	r3, [r7, #12]
 4314 0308 DBB2     		uxtb	r3, r3
 4315 030a 03F07F03 		and	r3, r3, #127
 4316 030e DAB2     		uxtb	r2, r3
 4317              		.loc 1 1920 25
 4318 0310 3B68     		ldr	r3, [r7]
 4319 0312 DA76     		strb	r2, [r3, #27]
1921:./Libraries/STM32F4xx_HAL_Driver/Src/stm32f4xx_hal_sd.c ****   
1922:./Libraries/STM32F4xx_HAL_Driver/Src/stm32f4xx_hal_sd.c ****   /* Byte 12 */
1923:./Libraries/STM32F4xx_HAL_Driver/Src/stm32f4xx_hal_sd.c ****   tmp = (uint8_t)((hsd->CSD[3U] & 0xFF000000U) >> 24U);
 4320              		.loc 1 1923 28
 4321 0314 7B68     		ldr	r3, [r7, #4]
 4322 0316 1B6F     		ldr	r3, [r3, #112]
 4323              		.loc 1 1923 48
 4324 0318 1B0E     		lsrs	r3, r3, #24
 4325              		.loc 1 1923 9
 4326 031a DBB2     		uxtb	r3, r3
 4327              		.loc 1 1923 7
 4328 031c FB60     		str	r3, [r7, #12]
1924:./Libraries/STM32F4xx_HAL_Driver/Src/stm32f4xx_hal_sd.c ****   pCSD->WrProtectGrEnable = (tmp & 0x80U) >> 7U;
 4329              		.loc 1 1924 43
 4330 031e FB68     		ldr	r3, [r7, #12]
 4331 0320 DB09     		lsrs	r3, r3, #7
 4332 0322 DBB2     		uxtb	r3, r3
 4333 0324 03F00103 		and	r3, r3, #1
 4334 0328 DAB2     		uxtb	r2, r3
 4335              		.loc 1 1924 27
 4336 032a 3B68     		ldr	r3, [r7]
 4337 032c 1A77     		strb	r2, [r3, #28]
1925:./Libraries/STM32F4xx_HAL_Driver/Src/stm32f4xx_hal_sd.c ****   pCSD->ManDeflECC        = (tmp & 0x60U) >> 5U;
 4338              		.loc 1 1925 43
 4339 032e FB68     		ldr	r3, [r7, #12]
 4340 0330 5B09     		lsrs	r3, r3, #5
 4341 0332 DBB2     		uxtb	r3, r3
 4342 0334 03F00303 		and	r3, r3, #3
 4343 0338 DAB2     		uxtb	r2, r3
 4344              		.loc 1 1925 27
 4345 033a 3B68     		ldr	r3, [r7]
 4346 033c 5A77     		strb	r2, [r3, #29]
1926:./Libraries/STM32F4xx_HAL_Driver/Src/stm32f4xx_hal_sd.c ****   pCSD->WrSpeedFact       = (tmp & 0x1CU) >> 2U;
 4347              		.loc 1 1926 43
 4348 033e FB68     		ldr	r3, [r7, #12]
 4349 0340 9B08     		lsrs	r3, r3, #2
 4350 0342 DBB2     		uxtb	r3, r3
 4351 0344 03F00703 		and	r3, r3, #7
 4352 0348 DAB2     		uxtb	r2, r3
 4353              		.loc 1 1926 27
 4354 034a 3B68     		ldr	r3, [r7]
 4355 034c 9A77     		strb	r2, [r3, #30]
1927:./Libraries/STM32F4xx_HAL_Driver/Src/stm32f4xx_hal_sd.c ****   pCSD->MaxWrBlockLen     = (tmp & 0x03U) << 2U;
 4356              		.loc 1 1927 43
ARM GAS  /tmp/ccMhfXg8.s 			page 112


 4357 034e FB68     		ldr	r3, [r7, #12]
 4358 0350 DBB2     		uxtb	r3, r3
 4359 0352 9B00     		lsls	r3, r3, #2
 4360 0354 DBB2     		uxtb	r3, r3
 4361 0356 03F00C03 		and	r3, r3, #12
 4362 035a DAB2     		uxtb	r2, r3
 4363              		.loc 1 1927 27
 4364 035c 3B68     		ldr	r3, [r7]
 4365 035e DA77     		strb	r2, [r3, #31]
1928:./Libraries/STM32F4xx_HAL_Driver/Src/stm32f4xx_hal_sd.c ****   
1929:./Libraries/STM32F4xx_HAL_Driver/Src/stm32f4xx_hal_sd.c ****   /* Byte 13 */
1930:./Libraries/STM32F4xx_HAL_Driver/Src/stm32f4xx_hal_sd.c ****   tmp = (uint8_t)((hsd->CSD[3U] & 0x00FF0000U) >> 16U);
 4366              		.loc 1 1930 28
 4367 0360 7B68     		ldr	r3, [r7, #4]
 4368 0362 1B6F     		ldr	r3, [r3, #112]
 4369              		.loc 1 1930 48
 4370 0364 1B0C     		lsrs	r3, r3, #16
 4371              		.loc 1 1930 9
 4372 0366 DBB2     		uxtb	r3, r3
 4373              		.loc 1 1930 7
 4374 0368 FB60     		str	r3, [r7, #12]
1931:./Libraries/STM32F4xx_HAL_Driver/Src/stm32f4xx_hal_sd.c ****   pCSD->MaxWrBlockLen      |= (tmp & 0xC0U) >> 6U;
 4375              		.loc 1 1931 28
 4376 036a 3B68     		ldr	r3, [r7]
 4377 036c DB7F     		ldrb	r3, [r3, #31]
 4378 036e DAB2     		uxtb	r2, r3
 4379              		.loc 1 1931 45
 4380 0370 FB68     		ldr	r3, [r7, #12]
 4381 0372 9B09     		lsrs	r3, r3, #6
 4382 0374 DBB2     		uxtb	r3, r3
 4383 0376 03F00303 		and	r3, r3, #3
 4384 037a DBB2     		uxtb	r3, r3
 4385              		.loc 1 1931 28
 4386 037c 1343     		orrs	r3, r3, r2
 4387 037e DAB2     		uxtb	r2, r3
 4388 0380 3B68     		ldr	r3, [r7]
 4389 0382 DA77     		strb	r2, [r3, #31]
1932:./Libraries/STM32F4xx_HAL_Driver/Src/stm32f4xx_hal_sd.c ****   pCSD->WriteBlockPaPartial = (tmp & 0x20U) >> 5U;
 4390              		.loc 1 1932 45
 4391 0384 FB68     		ldr	r3, [r7, #12]
 4392 0386 5B09     		lsrs	r3, r3, #5
 4393 0388 DBB2     		uxtb	r3, r3
 4394 038a 03F00103 		and	r3, r3, #1
 4395 038e DAB2     		uxtb	r2, r3
 4396              		.loc 1 1932 29
 4397 0390 3B68     		ldr	r3, [r7]
 4398 0392 83F82020 		strb	r2, [r3, #32]
1933:./Libraries/STM32F4xx_HAL_Driver/Src/stm32f4xx_hal_sd.c ****   pCSD->Reserved3           = 0U;
 4399              		.loc 1 1933 29
 4400 0396 3B68     		ldr	r3, [r7]
 4401 0398 0022     		movs	r2, #0
 4402 039a 83F82120 		strb	r2, [r3, #33]
1934:./Libraries/STM32F4xx_HAL_Driver/Src/stm32f4xx_hal_sd.c ****   pCSD->ContentProtectAppli = (tmp & 0x01U);
 4403              		.loc 1 1934 36
 4404 039e FB68     		ldr	r3, [r7, #12]
 4405 03a0 DBB2     		uxtb	r3, r3
 4406 03a2 03F00103 		and	r3, r3, #1
ARM GAS  /tmp/ccMhfXg8.s 			page 113


 4407 03a6 DAB2     		uxtb	r2, r3
 4408              		.loc 1 1934 29
 4409 03a8 3B68     		ldr	r3, [r7]
 4410 03aa 83F82220 		strb	r2, [r3, #34]
1935:./Libraries/STM32F4xx_HAL_Driver/Src/stm32f4xx_hal_sd.c ****   
1936:./Libraries/STM32F4xx_HAL_Driver/Src/stm32f4xx_hal_sd.c ****   /* Byte 14 */
1937:./Libraries/STM32F4xx_HAL_Driver/Src/stm32f4xx_hal_sd.c ****   tmp = (uint8_t)((hsd->CSD[3U] & 0x0000FF00U) >> 8U);
 4411              		.loc 1 1937 28
 4412 03ae 7B68     		ldr	r3, [r7, #4]
 4413 03b0 1B6F     		ldr	r3, [r3, #112]
 4414              		.loc 1 1937 48
 4415 03b2 1B0A     		lsrs	r3, r3, #8
 4416              		.loc 1 1937 9
 4417 03b4 DBB2     		uxtb	r3, r3
 4418              		.loc 1 1937 7
 4419 03b6 FB60     		str	r3, [r7, #12]
1938:./Libraries/STM32F4xx_HAL_Driver/Src/stm32f4xx_hal_sd.c ****   pCSD->FileFormatGrouop = (tmp & 0x80U) >> 7U;
 4420              		.loc 1 1938 42
 4421 03b8 FB68     		ldr	r3, [r7, #12]
 4422 03ba DB09     		lsrs	r3, r3, #7
 4423 03bc DBB2     		uxtb	r3, r3
 4424 03be 03F00103 		and	r3, r3, #1
 4425 03c2 DAB2     		uxtb	r2, r3
 4426              		.loc 1 1938 26
 4427 03c4 3B68     		ldr	r3, [r7]
 4428 03c6 83F82320 		strb	r2, [r3, #35]
1939:./Libraries/STM32F4xx_HAL_Driver/Src/stm32f4xx_hal_sd.c ****   pCSD->CopyFlag         = (tmp & 0x40U) >> 6U;
 4429              		.loc 1 1939 42
 4430 03ca FB68     		ldr	r3, [r7, #12]
 4431 03cc 9B09     		lsrs	r3, r3, #6
 4432 03ce DBB2     		uxtb	r3, r3
 4433 03d0 03F00103 		and	r3, r3, #1
 4434 03d4 DAB2     		uxtb	r2, r3
 4435              		.loc 1 1939 26
 4436 03d6 3B68     		ldr	r3, [r7]
 4437 03d8 83F82420 		strb	r2, [r3, #36]
1940:./Libraries/STM32F4xx_HAL_Driver/Src/stm32f4xx_hal_sd.c ****   pCSD->PermWrProtect    = (tmp & 0x20U) >> 5U;
 4438              		.loc 1 1940 42
 4439 03dc FB68     		ldr	r3, [r7, #12]
 4440 03de 5B09     		lsrs	r3, r3, #5
 4441 03e0 DBB2     		uxtb	r3, r3
 4442 03e2 03F00103 		and	r3, r3, #1
 4443 03e6 DAB2     		uxtb	r2, r3
 4444              		.loc 1 1940 26
 4445 03e8 3B68     		ldr	r3, [r7]
 4446 03ea 83F82520 		strb	r2, [r3, #37]
1941:./Libraries/STM32F4xx_HAL_Driver/Src/stm32f4xx_hal_sd.c ****   pCSD->TempWrProtect    = (tmp & 0x10U) >> 4U;
 4447              		.loc 1 1941 42
 4448 03ee FB68     		ldr	r3, [r7, #12]
 4449 03f0 1B09     		lsrs	r3, r3, #4
 4450 03f2 DBB2     		uxtb	r3, r3
 4451 03f4 03F00103 		and	r3, r3, #1
 4452 03f8 DAB2     		uxtb	r2, r3
 4453              		.loc 1 1941 26
 4454 03fa 3B68     		ldr	r3, [r7]
 4455 03fc 83F82620 		strb	r2, [r3, #38]
1942:./Libraries/STM32F4xx_HAL_Driver/Src/stm32f4xx_hal_sd.c ****   pCSD->FileFormat       = (tmp & 0x0CU) >> 2U;
ARM GAS  /tmp/ccMhfXg8.s 			page 114


 4456              		.loc 1 1942 42
 4457 0400 FB68     		ldr	r3, [r7, #12]
 4458 0402 9B08     		lsrs	r3, r3, #2
 4459 0404 DBB2     		uxtb	r3, r3
 4460 0406 03F00303 		and	r3, r3, #3
 4461 040a DAB2     		uxtb	r2, r3
 4462              		.loc 1 1942 26
 4463 040c 3B68     		ldr	r3, [r7]
 4464 040e 83F82720 		strb	r2, [r3, #39]
1943:./Libraries/STM32F4xx_HAL_Driver/Src/stm32f4xx_hal_sd.c ****   pCSD->ECC              = (tmp & 0x03U);
 4465              		.loc 1 1943 33
 4466 0412 FB68     		ldr	r3, [r7, #12]
 4467 0414 DBB2     		uxtb	r3, r3
 4468 0416 03F00303 		and	r3, r3, #3
 4469 041a DAB2     		uxtb	r2, r3
 4470              		.loc 1 1943 26
 4471 041c 3B68     		ldr	r3, [r7]
 4472 041e 83F82820 		strb	r2, [r3, #40]
1944:./Libraries/STM32F4xx_HAL_Driver/Src/stm32f4xx_hal_sd.c ****   
1945:./Libraries/STM32F4xx_HAL_Driver/Src/stm32f4xx_hal_sd.c ****   /* Byte 15 */
1946:./Libraries/STM32F4xx_HAL_Driver/Src/stm32f4xx_hal_sd.c ****   tmp = (uint8_t)(hsd->CSD[3U] & 0x000000FFU);
 4473              		.loc 1 1946 27
 4474 0422 7B68     		ldr	r3, [r7, #4]
 4475 0424 1B6F     		ldr	r3, [r3, #112]
 4476              		.loc 1 1946 9
 4477 0426 DBB2     		uxtb	r3, r3
 4478              		.loc 1 1946 7
 4479 0428 FB60     		str	r3, [r7, #12]
1947:./Libraries/STM32F4xx_HAL_Driver/Src/stm32f4xx_hal_sd.c ****   pCSD->CSD_CRC   = (tmp & 0xFEU) >> 1U;
 4480              		.loc 1 1947 35
 4481 042a FB68     		ldr	r3, [r7, #12]
 4482 042c 5B08     		lsrs	r3, r3, #1
 4483 042e DBB2     		uxtb	r3, r3
 4484 0430 03F07F03 		and	r3, r3, #127
 4485 0434 DAB2     		uxtb	r2, r3
 4486              		.loc 1 1947 19
 4487 0436 3B68     		ldr	r3, [r7]
 4488 0438 83F82920 		strb	r2, [r3, #41]
1948:./Libraries/STM32F4xx_HAL_Driver/Src/stm32f4xx_hal_sd.c ****   pCSD->Reserved4 = 1U;
 4489              		.loc 1 1948 19
 4490 043c 3B68     		ldr	r3, [r7]
 4491 043e 0122     		movs	r2, #1
 4492 0440 83F82A20 		strb	r2, [r3, #42]
1949:./Libraries/STM32F4xx_HAL_Driver/Src/stm32f4xx_hal_sd.c ****   
1950:./Libraries/STM32F4xx_HAL_Driver/Src/stm32f4xx_hal_sd.c ****   return HAL_OK;
 4493              		.loc 1 1950 10
 4494 0444 0023     		movs	r3, #0
 4495              	.L158:
1951:./Libraries/STM32F4xx_HAL_Driver/Src/stm32f4xx_hal_sd.c **** }
 4496              		.loc 1 1951 1
 4497 0446 1846     		mov	r0, r3
 4498 0448 1437     		adds	r7, r7, #20
 4499              	.LCFI112:
 4500              		.cfi_def_cfa_offset 4
 4501 044a BD46     		mov	sp, r7
 4502              	.LCFI113:
 4503              		.cfi_def_cfa_register 13
ARM GAS  /tmp/ccMhfXg8.s 			page 115


 4504              		@ sp needed
 4505 044c 5DF8047B 		ldr	r7, [sp], #4
 4506              	.LCFI114:
 4507              		.cfi_restore 7
 4508              		.cfi_def_cfa_offset 0
 4509 0450 7047     		bx	lr
 4510              		.cfi_endproc
 4511              	.LFE146:
 4513              		.section	.text.HAL_SD_GetCardStatus,"ax",%progbits
 4514              		.align	1
 4515              		.global	HAL_SD_GetCardStatus
 4516              		.syntax unified
 4517              		.thumb
 4518              		.thumb_func
 4519              		.fpu fpv4-sp-d16
 4521              	HAL_SD_GetCardStatus:
 4522              	.LFB147:
1952:./Libraries/STM32F4xx_HAL_Driver/Src/stm32f4xx_hal_sd.c **** 
1953:./Libraries/STM32F4xx_HAL_Driver/Src/stm32f4xx_hal_sd.c **** /**
1954:./Libraries/STM32F4xx_HAL_Driver/Src/stm32f4xx_hal_sd.c ****   * @brief  Gets the SD status info.
1955:./Libraries/STM32F4xx_HAL_Driver/Src/stm32f4xx_hal_sd.c ****   * @param  hsd Pointer to SD handle      
1956:./Libraries/STM32F4xx_HAL_Driver/Src/stm32f4xx_hal_sd.c ****   * @param  pStatus Pointer to the HAL_SD_CardStatusTypeDef structure that 
1957:./Libraries/STM32F4xx_HAL_Driver/Src/stm32f4xx_hal_sd.c ****   *         will contain the SD card status information 
1958:./Libraries/STM32F4xx_HAL_Driver/Src/stm32f4xx_hal_sd.c ****   * @retval HAL status
1959:./Libraries/STM32F4xx_HAL_Driver/Src/stm32f4xx_hal_sd.c ****   */
1960:./Libraries/STM32F4xx_HAL_Driver/Src/stm32f4xx_hal_sd.c **** HAL_StatusTypeDef HAL_SD_GetCardStatus(SD_HandleTypeDef *hsd, HAL_SD_CardStatusTypeDef *pStatus)
1961:./Libraries/STM32F4xx_HAL_Driver/Src/stm32f4xx_hal_sd.c **** {
 4523              		.loc 1 1961 1
 4524              		.cfi_startproc
 4525              		@ args = 0, pretend = 0, frame = 80
 4526              		@ frame_needed = 1, uses_anonymous_args = 0
 4527 0000 80B5     		push	{r7, lr}
 4528              	.LCFI115:
 4529              		.cfi_def_cfa_offset 8
 4530              		.cfi_offset 7, -8
 4531              		.cfi_offset 14, -4
 4532 0002 94B0     		sub	sp, sp, #80
 4533              	.LCFI116:
 4534              		.cfi_def_cfa_offset 88
 4535 0004 00AF     		add	r7, sp, #0
 4536              	.LCFI117:
 4537              		.cfi_def_cfa_register 7
 4538 0006 7860     		str	r0, [r7, #4]
 4539 0008 3960     		str	r1, [r7]
1962:./Libraries/STM32F4xx_HAL_Driver/Src/stm32f4xx_hal_sd.c ****   uint32_t tmp = 0U;
 4540              		.loc 1 1962 12
 4541 000a 0023     		movs	r3, #0
 4542 000c FB64     		str	r3, [r7, #76]
1963:./Libraries/STM32F4xx_HAL_Driver/Src/stm32f4xx_hal_sd.c ****   uint32_t sd_status[16U];
1964:./Libraries/STM32F4xx_HAL_Driver/Src/stm32f4xx_hal_sd.c ****   uint32_t errorstate = HAL_SD_ERROR_NONE;
 4543              		.loc 1 1964 12
 4544 000e 0023     		movs	r3, #0
 4545 0010 BB64     		str	r3, [r7, #72]
1965:./Libraries/STM32F4xx_HAL_Driver/Src/stm32f4xx_hal_sd.c ****   
1966:./Libraries/STM32F4xx_HAL_Driver/Src/stm32f4xx_hal_sd.c ****   errorstate = SD_SendSDStatus(hsd, sd_status);
 4546              		.loc 1 1966 16
 4547 0012 07F10803 		add	r3, r7, #8
ARM GAS  /tmp/ccMhfXg8.s 			page 116


 4548 0016 1946     		mov	r1, r3
 4549 0018 7868     		ldr	r0, [r7, #4]
 4550 001a FFF7FEFF 		bl	SD_SendSDStatus
 4551 001e B864     		str	r0, [r7, #72]
1967:./Libraries/STM32F4xx_HAL_Driver/Src/stm32f4xx_hal_sd.c ****   if(errorstate != HAL_OK)
 4552              		.loc 1 1967 5
 4553 0020 BB6C     		ldr	r3, [r7, #72]
 4554 0022 002B     		cmp	r3, #0
 4555 0024 10D0     		beq	.L160
1968:./Libraries/STM32F4xx_HAL_Driver/Src/stm32f4xx_hal_sd.c ****   {
1969:./Libraries/STM32F4xx_HAL_Driver/Src/stm32f4xx_hal_sd.c ****     /* Clear all the static flags */
1970:./Libraries/STM32F4xx_HAL_Driver/Src/stm32f4xx_hal_sd.c ****     __HAL_SD_CLEAR_FLAG(hsd, SDIO_STATIC_FLAGS);   
 4556              		.loc 1 1970 5
 4557 0026 7B68     		ldr	r3, [r7, #4]
 4558 0028 1B68     		ldr	r3, [r3]
 4559 002a 40F2FF52 		movw	r2, #1535
 4560 002e 9A63     		str	r2, [r3, #56]
1971:./Libraries/STM32F4xx_HAL_Driver/Src/stm32f4xx_hal_sd.c ****     hsd->ErrorCode |= errorstate;
 4561              		.loc 1 1971 20
 4562 0030 7B68     		ldr	r3, [r7, #4]
 4563 0032 9A6B     		ldr	r2, [r3, #56]
 4564 0034 BB6C     		ldr	r3, [r7, #72]
 4565 0036 1A43     		orrs	r2, r2, r3
 4566 0038 7B68     		ldr	r3, [r7, #4]
 4567 003a 9A63     		str	r2, [r3, #56]
1972:./Libraries/STM32F4xx_HAL_Driver/Src/stm32f4xx_hal_sd.c ****     hsd->State = HAL_SD_STATE_READY;
 4568              		.loc 1 1972 16
 4569 003c 7B68     		ldr	r3, [r7, #4]
 4570 003e 0122     		movs	r2, #1
 4571 0040 83F83420 		strb	r2, [r3, #52]
1973:./Libraries/STM32F4xx_HAL_Driver/Src/stm32f4xx_hal_sd.c ****     return HAL_ERROR;
 4572              		.loc 1 1973 12
 4573 0044 0123     		movs	r3, #1
 4574 0046 8DE0     		b	.L162
 4575              	.L160:
1974:./Libraries/STM32F4xx_HAL_Driver/Src/stm32f4xx_hal_sd.c ****   }
1975:./Libraries/STM32F4xx_HAL_Driver/Src/stm32f4xx_hal_sd.c ****   else
1976:./Libraries/STM32F4xx_HAL_Driver/Src/stm32f4xx_hal_sd.c ****   {
1977:./Libraries/STM32F4xx_HAL_Driver/Src/stm32f4xx_hal_sd.c ****     /* Byte 0 */
1978:./Libraries/STM32F4xx_HAL_Driver/Src/stm32f4xx_hal_sd.c ****     tmp = (sd_status[0U] & 0xC0U) >> 6U;
 4576              		.loc 1 1978 21
 4577 0048 BB68     		ldr	r3, [r7, #8]
 4578              		.loc 1 1978 35
 4579 004a 9B09     		lsrs	r3, r3, #6
 4580              		.loc 1 1978 9
 4581 004c 03F00303 		and	r3, r3, #3
 4582 0050 FB64     		str	r3, [r7, #76]
1979:./Libraries/STM32F4xx_HAL_Driver/Src/stm32f4xx_hal_sd.c ****     pStatus->DataBusWidth = (uint8_t)tmp;
 4583              		.loc 1 1979 29
 4584 0052 FB6C     		ldr	r3, [r7, #76]
 4585 0054 DAB2     		uxtb	r2, r3
 4586              		.loc 1 1979 27
 4587 0056 3B68     		ldr	r3, [r7]
 4588 0058 1A70     		strb	r2, [r3]
1980:./Libraries/STM32F4xx_HAL_Driver/Src/stm32f4xx_hal_sd.c ****     
1981:./Libraries/STM32F4xx_HAL_Driver/Src/stm32f4xx_hal_sd.c ****     /* Byte 0 */
1982:./Libraries/STM32F4xx_HAL_Driver/Src/stm32f4xx_hal_sd.c ****     tmp = (sd_status[0U] & 0x20U) >> 5U;
ARM GAS  /tmp/ccMhfXg8.s 			page 117


 4589              		.loc 1 1982 21
 4590 005a BB68     		ldr	r3, [r7, #8]
 4591              		.loc 1 1982 35
 4592 005c 5B09     		lsrs	r3, r3, #5
 4593              		.loc 1 1982 9
 4594 005e 03F00103 		and	r3, r3, #1
 4595 0062 FB64     		str	r3, [r7, #76]
1983:./Libraries/STM32F4xx_HAL_Driver/Src/stm32f4xx_hal_sd.c ****     pStatus->SecuredMode = (uint8_t)tmp;
 4596              		.loc 1 1983 28
 4597 0064 FB6C     		ldr	r3, [r7, #76]
 4598 0066 DAB2     		uxtb	r2, r3
 4599              		.loc 1 1983 26
 4600 0068 3B68     		ldr	r3, [r7]
 4601 006a 5A70     		strb	r2, [r3, #1]
1984:./Libraries/STM32F4xx_HAL_Driver/Src/stm32f4xx_hal_sd.c ****     
1985:./Libraries/STM32F4xx_HAL_Driver/Src/stm32f4xx_hal_sd.c ****     /* Byte 2 */
1986:./Libraries/STM32F4xx_HAL_Driver/Src/stm32f4xx_hal_sd.c ****     tmp = (sd_status[0U] & 0x00FF0000U) >> 16U;
 4602              		.loc 1 1986 21
 4603 006c BB68     		ldr	r3, [r7, #8]
 4604              		.loc 1 1986 41
 4605 006e 1B0C     		lsrs	r3, r3, #16
 4606              		.loc 1 1986 9
 4607 0070 DBB2     		uxtb	r3, r3
 4608 0072 FB64     		str	r3, [r7, #76]
1987:./Libraries/STM32F4xx_HAL_Driver/Src/stm32f4xx_hal_sd.c ****     pStatus->CardType = (uint16_t)(tmp << 8U);
 4609              		.loc 1 1987 25
 4610 0074 FB6C     		ldr	r3, [r7, #76]
 4611 0076 9BB2     		uxth	r3, r3
 4612 0078 1B02     		lsls	r3, r3, #8
 4613 007a 9AB2     		uxth	r2, r3
 4614              		.loc 1 1987 23
 4615 007c 3B68     		ldr	r3, [r7]
 4616 007e 5A80     		strh	r2, [r3, #2]	@ movhi
1988:./Libraries/STM32F4xx_HAL_Driver/Src/stm32f4xx_hal_sd.c ****     
1989:./Libraries/STM32F4xx_HAL_Driver/Src/stm32f4xx_hal_sd.c ****     /* Byte 3 */
1990:./Libraries/STM32F4xx_HAL_Driver/Src/stm32f4xx_hal_sd.c ****     tmp = (sd_status[0U] & 0xFF000000U) >> 24U;
 4617              		.loc 1 1990 21
 4618 0080 BB68     		ldr	r3, [r7, #8]
 4619              		.loc 1 1990 9
 4620 0082 1B0E     		lsrs	r3, r3, #24
 4621 0084 FB64     		str	r3, [r7, #76]
1991:./Libraries/STM32F4xx_HAL_Driver/Src/stm32f4xx_hal_sd.c ****     pStatus->CardType |= (uint16_t)tmp;
 4622              		.loc 1 1991 23
 4623 0086 3B68     		ldr	r3, [r7]
 4624 0088 5B88     		ldrh	r3, [r3, #2]	@ movhi
 4625 008a 9AB2     		uxth	r2, r3
 4626              		.loc 1 1991 26
 4627 008c FB6C     		ldr	r3, [r7, #76]
 4628 008e 9BB2     		uxth	r3, r3
 4629              		.loc 1 1991 23
 4630 0090 1343     		orrs	r3, r3, r2
 4631 0092 9AB2     		uxth	r2, r3
 4632 0094 3B68     		ldr	r3, [r7]
 4633 0096 5A80     		strh	r2, [r3, #2]	@ movhi
1992:./Libraries/STM32F4xx_HAL_Driver/Src/stm32f4xx_hal_sd.c ****     
1993:./Libraries/STM32F4xx_HAL_Driver/Src/stm32f4xx_hal_sd.c ****     /* Byte 4 */
1994:./Libraries/STM32F4xx_HAL_Driver/Src/stm32f4xx_hal_sd.c ****     tmp = (sd_status[1U] & 0xFFU);
ARM GAS  /tmp/ccMhfXg8.s 			page 118


 4634              		.loc 1 1994 21
 4635 0098 FB68     		ldr	r3, [r7, #12]
 4636              		.loc 1 1994 9
 4637 009a DBB2     		uxtb	r3, r3
 4638 009c FB64     		str	r3, [r7, #76]
1995:./Libraries/STM32F4xx_HAL_Driver/Src/stm32f4xx_hal_sd.c ****     pStatus->ProtectedAreaSize = (uint32_t)(tmp << 24U);
 4639              		.loc 1 1995 49
 4640 009e FB6C     		ldr	r3, [r7, #76]
 4641 00a0 1A06     		lsls	r2, r3, #24
 4642              		.loc 1 1995 32
 4643 00a2 3B68     		ldr	r3, [r7]
 4644 00a4 5A60     		str	r2, [r3, #4]
1996:./Libraries/STM32F4xx_HAL_Driver/Src/stm32f4xx_hal_sd.c ****     
1997:./Libraries/STM32F4xx_HAL_Driver/Src/stm32f4xx_hal_sd.c ****     /* Byte 5 */
1998:./Libraries/STM32F4xx_HAL_Driver/Src/stm32f4xx_hal_sd.c ****     tmp = (sd_status[1U] & 0xFF00U) >> 8U;
 4645              		.loc 1 1998 21
 4646 00a6 FB68     		ldr	r3, [r7, #12]
 4647              		.loc 1 1998 37
 4648 00a8 1B0A     		lsrs	r3, r3, #8
 4649              		.loc 1 1998 9
 4650 00aa DBB2     		uxtb	r3, r3
 4651 00ac FB64     		str	r3, [r7, #76]
1999:./Libraries/STM32F4xx_HAL_Driver/Src/stm32f4xx_hal_sd.c ****     pStatus->ProtectedAreaSize |= (uint32_t)(tmp << 16U);
 4652              		.loc 1 1999 32
 4653 00ae 3B68     		ldr	r3, [r7]
 4654 00b0 5A68     		ldr	r2, [r3, #4]
 4655              		.loc 1 1999 50
 4656 00b2 FB6C     		ldr	r3, [r7, #76]
 4657 00b4 1B04     		lsls	r3, r3, #16
 4658              		.loc 1 1999 32
 4659 00b6 1A43     		orrs	r2, r2, r3
 4660 00b8 3B68     		ldr	r3, [r7]
 4661 00ba 5A60     		str	r2, [r3, #4]
2000:./Libraries/STM32F4xx_HAL_Driver/Src/stm32f4xx_hal_sd.c ****     
2001:./Libraries/STM32F4xx_HAL_Driver/Src/stm32f4xx_hal_sd.c ****     /* Byte 6 */
2002:./Libraries/STM32F4xx_HAL_Driver/Src/stm32f4xx_hal_sd.c ****     tmp = (sd_status[1U] & 0xFF0000U) >> 16U;
 4662              		.loc 1 2002 21
 4663 00bc FB68     		ldr	r3, [r7, #12]
 4664              		.loc 1 2002 39
 4665 00be 1B0C     		lsrs	r3, r3, #16
 4666              		.loc 1 2002 9
 4667 00c0 DBB2     		uxtb	r3, r3
 4668 00c2 FB64     		str	r3, [r7, #76]
2003:./Libraries/STM32F4xx_HAL_Driver/Src/stm32f4xx_hal_sd.c ****     pStatus->ProtectedAreaSize |= (uint32_t)(tmp << 8U);
 4669              		.loc 1 2003 32
 4670 00c4 3B68     		ldr	r3, [r7]
 4671 00c6 5A68     		ldr	r2, [r3, #4]
 4672              		.loc 1 2003 50
 4673 00c8 FB6C     		ldr	r3, [r7, #76]
 4674 00ca 1B02     		lsls	r3, r3, #8
 4675              		.loc 1 2003 32
 4676 00cc 1A43     		orrs	r2, r2, r3
 4677 00ce 3B68     		ldr	r3, [r7]
 4678 00d0 5A60     		str	r2, [r3, #4]
2004:./Libraries/STM32F4xx_HAL_Driver/Src/stm32f4xx_hal_sd.c ****     
2005:./Libraries/STM32F4xx_HAL_Driver/Src/stm32f4xx_hal_sd.c ****     /* Byte 7 */
2006:./Libraries/STM32F4xx_HAL_Driver/Src/stm32f4xx_hal_sd.c ****     tmp = (sd_status[1U] & 0xFF000000U) >> 24U;
ARM GAS  /tmp/ccMhfXg8.s 			page 119


 4679              		.loc 1 2006 21
 4680 00d2 FB68     		ldr	r3, [r7, #12]
 4681              		.loc 1 2006 9
 4682 00d4 1B0E     		lsrs	r3, r3, #24
 4683 00d6 FB64     		str	r3, [r7, #76]
2007:./Libraries/STM32F4xx_HAL_Driver/Src/stm32f4xx_hal_sd.c ****     pStatus->ProtectedAreaSize |= (uint32_t)tmp;
 4684              		.loc 1 2007 32
 4685 00d8 3B68     		ldr	r3, [r7]
 4686 00da 5A68     		ldr	r2, [r3, #4]
 4687 00dc FB6C     		ldr	r3, [r7, #76]
 4688 00de 1A43     		orrs	r2, r2, r3
 4689 00e0 3B68     		ldr	r3, [r7]
 4690 00e2 5A60     		str	r2, [r3, #4]
2008:./Libraries/STM32F4xx_HAL_Driver/Src/stm32f4xx_hal_sd.c ****     
2009:./Libraries/STM32F4xx_HAL_Driver/Src/stm32f4xx_hal_sd.c ****     /* Byte 8 */
2010:./Libraries/STM32F4xx_HAL_Driver/Src/stm32f4xx_hal_sd.c ****     tmp = (sd_status[2U] & 0xFFU);
 4691              		.loc 1 2010 21
 4692 00e4 3B69     		ldr	r3, [r7, #16]
 4693              		.loc 1 2010 9
 4694 00e6 DBB2     		uxtb	r3, r3
 4695 00e8 FB64     		str	r3, [r7, #76]
2011:./Libraries/STM32F4xx_HAL_Driver/Src/stm32f4xx_hal_sd.c ****     pStatus->SpeedClass = (uint8_t)tmp;
 4696              		.loc 1 2011 27
 4697 00ea FB6C     		ldr	r3, [r7, #76]
 4698 00ec DAB2     		uxtb	r2, r3
 4699              		.loc 1 2011 25
 4700 00ee 3B68     		ldr	r3, [r7]
 4701 00f0 1A72     		strb	r2, [r3, #8]
2012:./Libraries/STM32F4xx_HAL_Driver/Src/stm32f4xx_hal_sd.c ****     
2013:./Libraries/STM32F4xx_HAL_Driver/Src/stm32f4xx_hal_sd.c ****     /* Byte 9 */
2014:./Libraries/STM32F4xx_HAL_Driver/Src/stm32f4xx_hal_sd.c ****     tmp = (sd_status[2U] & 0xFF00U) >> 8U;
 4702              		.loc 1 2014 21
 4703 00f2 3B69     		ldr	r3, [r7, #16]
 4704              		.loc 1 2014 37
 4705 00f4 1B0A     		lsrs	r3, r3, #8
 4706              		.loc 1 2014 9
 4707 00f6 DBB2     		uxtb	r3, r3
 4708 00f8 FB64     		str	r3, [r7, #76]
2015:./Libraries/STM32F4xx_HAL_Driver/Src/stm32f4xx_hal_sd.c ****     pStatus->PerformanceMove = (uint8_t)tmp;
 4709              		.loc 1 2015 32
 4710 00fa FB6C     		ldr	r3, [r7, #76]
 4711 00fc DAB2     		uxtb	r2, r3
 4712              		.loc 1 2015 30
 4713 00fe 3B68     		ldr	r3, [r7]
 4714 0100 5A72     		strb	r2, [r3, #9]
2016:./Libraries/STM32F4xx_HAL_Driver/Src/stm32f4xx_hal_sd.c ****     
2017:./Libraries/STM32F4xx_HAL_Driver/Src/stm32f4xx_hal_sd.c ****     /* Byte 10 */
2018:./Libraries/STM32F4xx_HAL_Driver/Src/stm32f4xx_hal_sd.c ****     tmp = (sd_status[2U] & 0xF00000U) >> 20U;
 4715              		.loc 1 2018 21
 4716 0102 3B69     		ldr	r3, [r7, #16]
 4717              		.loc 1 2018 39
 4718 0104 1B0D     		lsrs	r3, r3, #20
 4719              		.loc 1 2018 9
 4720 0106 03F00F03 		and	r3, r3, #15
 4721 010a FB64     		str	r3, [r7, #76]
2019:./Libraries/STM32F4xx_HAL_Driver/Src/stm32f4xx_hal_sd.c ****     pStatus->AllocationUnitSize = (uint8_t)tmp;
 4722              		.loc 1 2019 35
ARM GAS  /tmp/ccMhfXg8.s 			page 120


 4723 010c FB6C     		ldr	r3, [r7, #76]
 4724 010e DAB2     		uxtb	r2, r3
 4725              		.loc 1 2019 33
 4726 0110 3B68     		ldr	r3, [r7]
 4727 0112 9A72     		strb	r2, [r3, #10]
2020:./Libraries/STM32F4xx_HAL_Driver/Src/stm32f4xx_hal_sd.c ****     
2021:./Libraries/STM32F4xx_HAL_Driver/Src/stm32f4xx_hal_sd.c ****     /* Byte 11 */
2022:./Libraries/STM32F4xx_HAL_Driver/Src/stm32f4xx_hal_sd.c ****     tmp = (sd_status[2U] & 0xFF000000U) >> 24U;
 4728              		.loc 1 2022 21
 4729 0114 3B69     		ldr	r3, [r7, #16]
 4730              		.loc 1 2022 9
 4731 0116 1B0E     		lsrs	r3, r3, #24
 4732 0118 FB64     		str	r3, [r7, #76]
2023:./Libraries/STM32F4xx_HAL_Driver/Src/stm32f4xx_hal_sd.c ****     pStatus->EraseSize = (uint16_t)(tmp << 8U);
 4733              		.loc 1 2023 26
 4734 011a FB6C     		ldr	r3, [r7, #76]
 4735 011c 9BB2     		uxth	r3, r3
 4736 011e 1B02     		lsls	r3, r3, #8
 4737 0120 9AB2     		uxth	r2, r3
 4738              		.loc 1 2023 24
 4739 0122 3B68     		ldr	r3, [r7]
 4740 0124 9A81     		strh	r2, [r3, #12]	@ movhi
2024:./Libraries/STM32F4xx_HAL_Driver/Src/stm32f4xx_hal_sd.c ****     
2025:./Libraries/STM32F4xx_HAL_Driver/Src/stm32f4xx_hal_sd.c ****     /* Byte 12 */
2026:./Libraries/STM32F4xx_HAL_Driver/Src/stm32f4xx_hal_sd.c ****     tmp = (sd_status[3U] & 0xFFU);
 4741              		.loc 1 2026 21
 4742 0126 7B69     		ldr	r3, [r7, #20]
 4743              		.loc 1 2026 9
 4744 0128 DBB2     		uxtb	r3, r3
 4745 012a FB64     		str	r3, [r7, #76]
2027:./Libraries/STM32F4xx_HAL_Driver/Src/stm32f4xx_hal_sd.c ****     pStatus->EraseSize |= (uint16_t)tmp;
 4746              		.loc 1 2027 24
 4747 012c 3B68     		ldr	r3, [r7]
 4748 012e 9B89     		ldrh	r3, [r3, #12]	@ movhi
 4749 0130 9AB2     		uxth	r2, r3
 4750              		.loc 1 2027 27
 4751 0132 FB6C     		ldr	r3, [r7, #76]
 4752 0134 9BB2     		uxth	r3, r3
 4753              		.loc 1 2027 24
 4754 0136 1343     		orrs	r3, r3, r2
 4755 0138 9AB2     		uxth	r2, r3
 4756 013a 3B68     		ldr	r3, [r7]
 4757 013c 9A81     		strh	r2, [r3, #12]	@ movhi
2028:./Libraries/STM32F4xx_HAL_Driver/Src/stm32f4xx_hal_sd.c ****     
2029:./Libraries/STM32F4xx_HAL_Driver/Src/stm32f4xx_hal_sd.c ****     /* Byte 13 */
2030:./Libraries/STM32F4xx_HAL_Driver/Src/stm32f4xx_hal_sd.c ****     tmp = (sd_status[3U] & 0xFC00U) >> 10U;
 4758              		.loc 1 2030 21
 4759 013e 7B69     		ldr	r3, [r7, #20]
 4760              		.loc 1 2030 37
 4761 0140 9B0A     		lsrs	r3, r3, #10
 4762              		.loc 1 2030 9
 4763 0142 03F03F03 		and	r3, r3, #63
 4764 0146 FB64     		str	r3, [r7, #76]
2031:./Libraries/STM32F4xx_HAL_Driver/Src/stm32f4xx_hal_sd.c ****     pStatus->EraseTimeout = (uint8_t)tmp;
 4765              		.loc 1 2031 29
 4766 0148 FB6C     		ldr	r3, [r7, #76]
 4767 014a DAB2     		uxtb	r2, r3
ARM GAS  /tmp/ccMhfXg8.s 			page 121


 4768              		.loc 1 2031 27
 4769 014c 3B68     		ldr	r3, [r7]
 4770 014e 9A73     		strb	r2, [r3, #14]
2032:./Libraries/STM32F4xx_HAL_Driver/Src/stm32f4xx_hal_sd.c ****     
2033:./Libraries/STM32F4xx_HAL_Driver/Src/stm32f4xx_hal_sd.c ****     /* Byte 13 */
2034:./Libraries/STM32F4xx_HAL_Driver/Src/stm32f4xx_hal_sd.c ****     tmp = (sd_status[3U] & 0x0300U) >> 8U;
 4771              		.loc 1 2034 21
 4772 0150 7B69     		ldr	r3, [r7, #20]
 4773              		.loc 1 2034 37
 4774 0152 1B0A     		lsrs	r3, r3, #8
 4775              		.loc 1 2034 9
 4776 0154 03F00303 		and	r3, r3, #3
 4777 0158 FB64     		str	r3, [r7, #76]
2035:./Libraries/STM32F4xx_HAL_Driver/Src/stm32f4xx_hal_sd.c ****     pStatus->EraseOffset = (uint8_t)tmp;
 4778              		.loc 1 2035 28
 4779 015a FB6C     		ldr	r3, [r7, #76]
 4780 015c DAB2     		uxtb	r2, r3
 4781              		.loc 1 2035 26
 4782 015e 3B68     		ldr	r3, [r7]
 4783 0160 DA73     		strb	r2, [r3, #15]
2036:./Libraries/STM32F4xx_HAL_Driver/Src/stm32f4xx_hal_sd.c ****   }
2037:./Libraries/STM32F4xx_HAL_Driver/Src/stm32f4xx_hal_sd.c ****   
2038:./Libraries/STM32F4xx_HAL_Driver/Src/stm32f4xx_hal_sd.c ****   return HAL_OK;
 4784              		.loc 1 2038 10
 4785 0162 0023     		movs	r3, #0
 4786              	.L162:
2039:./Libraries/STM32F4xx_HAL_Driver/Src/stm32f4xx_hal_sd.c **** }
 4787              		.loc 1 2039 1 discriminator 1
 4788 0164 1846     		mov	r0, r3
 4789 0166 5037     		adds	r7, r7, #80
 4790              	.LCFI118:
 4791              		.cfi_def_cfa_offset 8
 4792 0168 BD46     		mov	sp, r7
 4793              	.LCFI119:
 4794              		.cfi_def_cfa_register 13
 4795              		@ sp needed
 4796 016a 80BD     		pop	{r7, pc}
 4797              		.cfi_endproc
 4798              	.LFE147:
 4800              		.section	.text.HAL_SD_GetCardInfo,"ax",%progbits
 4801              		.align	1
 4802              		.global	HAL_SD_GetCardInfo
 4803              		.syntax unified
 4804              		.thumb
 4805              		.thumb_func
 4806              		.fpu fpv4-sp-d16
 4808              	HAL_SD_GetCardInfo:
 4809              	.LFB148:
2040:./Libraries/STM32F4xx_HAL_Driver/Src/stm32f4xx_hal_sd.c **** 
2041:./Libraries/STM32F4xx_HAL_Driver/Src/stm32f4xx_hal_sd.c **** /**
2042:./Libraries/STM32F4xx_HAL_Driver/Src/stm32f4xx_hal_sd.c ****   * @brief  Gets the SD card info.
2043:./Libraries/STM32F4xx_HAL_Driver/Src/stm32f4xx_hal_sd.c ****   * @param  hsd Pointer to SD handle      
2044:./Libraries/STM32F4xx_HAL_Driver/Src/stm32f4xx_hal_sd.c ****   * @param  pCardInfo Pointer to the HAL_SD_CardInfoTypeDef structure that 
2045:./Libraries/STM32F4xx_HAL_Driver/Src/stm32f4xx_hal_sd.c ****   *         will contain the SD card status information 
2046:./Libraries/STM32F4xx_HAL_Driver/Src/stm32f4xx_hal_sd.c ****   * @retval HAL status
2047:./Libraries/STM32F4xx_HAL_Driver/Src/stm32f4xx_hal_sd.c ****   */
2048:./Libraries/STM32F4xx_HAL_Driver/Src/stm32f4xx_hal_sd.c **** HAL_StatusTypeDef HAL_SD_GetCardInfo(SD_HandleTypeDef *hsd, HAL_SD_CardInfoTypeDef *pCardInfo)
ARM GAS  /tmp/ccMhfXg8.s 			page 122


2049:./Libraries/STM32F4xx_HAL_Driver/Src/stm32f4xx_hal_sd.c **** {
 4810              		.loc 1 2049 1
 4811              		.cfi_startproc
 4812              		@ args = 0, pretend = 0, frame = 8
 4813              		@ frame_needed = 1, uses_anonymous_args = 0
 4814              		@ link register save eliminated.
 4815 0000 80B4     		push	{r7}
 4816              	.LCFI120:
 4817              		.cfi_def_cfa_offset 4
 4818              		.cfi_offset 7, -4
 4819 0002 83B0     		sub	sp, sp, #12
 4820              	.LCFI121:
 4821              		.cfi_def_cfa_offset 16
 4822 0004 00AF     		add	r7, sp, #0
 4823              	.LCFI122:
 4824              		.cfi_def_cfa_register 7
 4825 0006 7860     		str	r0, [r7, #4]
 4826 0008 3960     		str	r1, [r7]
2050:./Libraries/STM32F4xx_HAL_Driver/Src/stm32f4xx_hal_sd.c ****   pCardInfo->CardType     = (uint32_t)(hsd->SdCard.CardType);
 4827              		.loc 1 2050 51
 4828 000a 7B68     		ldr	r3, [r7, #4]
 4829 000c 5A6C     		ldr	r2, [r3, #68]
 4830              		.loc 1 2050 27
 4831 000e 3B68     		ldr	r3, [r7]
 4832 0010 1A60     		str	r2, [r3]
2051:./Libraries/STM32F4xx_HAL_Driver/Src/stm32f4xx_hal_sd.c ****   pCardInfo->CardVersion  = (uint32_t)(hsd->SdCard.CardVersion);
 4833              		.loc 1 2051 51
 4834 0012 7B68     		ldr	r3, [r7, #4]
 4835 0014 9A6C     		ldr	r2, [r3, #72]
 4836              		.loc 1 2051 27
 4837 0016 3B68     		ldr	r3, [r7]
 4838 0018 5A60     		str	r2, [r3, #4]
2052:./Libraries/STM32F4xx_HAL_Driver/Src/stm32f4xx_hal_sd.c ****   pCardInfo->Class        = (uint32_t)(hsd->SdCard.Class);
 4839              		.loc 1 2052 51
 4840 001a 7B68     		ldr	r3, [r7, #4]
 4841 001c DA6C     		ldr	r2, [r3, #76]
 4842              		.loc 1 2052 27
 4843 001e 3B68     		ldr	r3, [r7]
 4844 0020 9A60     		str	r2, [r3, #8]
2053:./Libraries/STM32F4xx_HAL_Driver/Src/stm32f4xx_hal_sd.c ****   pCardInfo->RelCardAdd   = (uint32_t)(hsd->SdCard.RelCardAdd);
 4845              		.loc 1 2053 51
 4846 0022 7B68     		ldr	r3, [r7, #4]
 4847 0024 1A6D     		ldr	r2, [r3, #80]
 4848              		.loc 1 2053 27
 4849 0026 3B68     		ldr	r3, [r7]
 4850 0028 DA60     		str	r2, [r3, #12]
2054:./Libraries/STM32F4xx_HAL_Driver/Src/stm32f4xx_hal_sd.c ****   pCardInfo->BlockNbr     = (uint32_t)(hsd->SdCard.BlockNbr);
 4851              		.loc 1 2054 51
 4852 002a 7B68     		ldr	r3, [r7, #4]
 4853 002c 5A6D     		ldr	r2, [r3, #84]
 4854              		.loc 1 2054 27
 4855 002e 3B68     		ldr	r3, [r7]
 4856 0030 1A61     		str	r2, [r3, #16]
2055:./Libraries/STM32F4xx_HAL_Driver/Src/stm32f4xx_hal_sd.c ****   pCardInfo->BlockSize    = (uint32_t)(hsd->SdCard.BlockSize);
 4857              		.loc 1 2055 51
 4858 0032 7B68     		ldr	r3, [r7, #4]
 4859 0034 9A6D     		ldr	r2, [r3, #88]
ARM GAS  /tmp/ccMhfXg8.s 			page 123


 4860              		.loc 1 2055 27
 4861 0036 3B68     		ldr	r3, [r7]
 4862 0038 5A61     		str	r2, [r3, #20]
2056:./Libraries/STM32F4xx_HAL_Driver/Src/stm32f4xx_hal_sd.c ****   pCardInfo->LogBlockNbr  = (uint32_t)(hsd->SdCard.LogBlockNbr);
 4863              		.loc 1 2056 51
 4864 003a 7B68     		ldr	r3, [r7, #4]
 4865 003c DA6D     		ldr	r2, [r3, #92]
 4866              		.loc 1 2056 27
 4867 003e 3B68     		ldr	r3, [r7]
 4868 0040 9A61     		str	r2, [r3, #24]
2057:./Libraries/STM32F4xx_HAL_Driver/Src/stm32f4xx_hal_sd.c ****   pCardInfo->LogBlockSize = (uint32_t)(hsd->SdCard.LogBlockSize);
 4869              		.loc 1 2057 51
 4870 0042 7B68     		ldr	r3, [r7, #4]
 4871 0044 1A6E     		ldr	r2, [r3, #96]
 4872              		.loc 1 2057 27
 4873 0046 3B68     		ldr	r3, [r7]
 4874 0048 DA61     		str	r2, [r3, #28]
2058:./Libraries/STM32F4xx_HAL_Driver/Src/stm32f4xx_hal_sd.c ****   
2059:./Libraries/STM32F4xx_HAL_Driver/Src/stm32f4xx_hal_sd.c ****   return HAL_OK;
 4875              		.loc 1 2059 10
 4876 004a 0023     		movs	r3, #0
2060:./Libraries/STM32F4xx_HAL_Driver/Src/stm32f4xx_hal_sd.c **** }
 4877              		.loc 1 2060 1
 4878 004c 1846     		mov	r0, r3
 4879 004e 0C37     		adds	r7, r7, #12
 4880              	.LCFI123:
 4881              		.cfi_def_cfa_offset 4
 4882 0050 BD46     		mov	sp, r7
 4883              	.LCFI124:
 4884              		.cfi_def_cfa_register 13
 4885              		@ sp needed
 4886 0052 5DF8047B 		ldr	r7, [sp], #4
 4887              	.LCFI125:
 4888              		.cfi_restore 7
 4889              		.cfi_def_cfa_offset 0
 4890 0056 7047     		bx	lr
 4891              		.cfi_endproc
 4892              	.LFE148:
 4894              		.section	.text.HAL_SD_ConfigWideBusOperation,"ax",%progbits
 4895              		.align	1
 4896              		.global	HAL_SD_ConfigWideBusOperation
 4897              		.syntax unified
 4898              		.thumb
 4899              		.thumb_func
 4900              		.fpu fpv4-sp-d16
 4902              	HAL_SD_ConfigWideBusOperation:
 4903              	.LFB149:
2061:./Libraries/STM32F4xx_HAL_Driver/Src/stm32f4xx_hal_sd.c **** 
2062:./Libraries/STM32F4xx_HAL_Driver/Src/stm32f4xx_hal_sd.c **** /**
2063:./Libraries/STM32F4xx_HAL_Driver/Src/stm32f4xx_hal_sd.c ****   * @brief  Enables wide bus operation for the requested card if supported by 
2064:./Libraries/STM32F4xx_HAL_Driver/Src/stm32f4xx_hal_sd.c ****   *         card.
2065:./Libraries/STM32F4xx_HAL_Driver/Src/stm32f4xx_hal_sd.c ****   * @param  hsd Pointer to SD handle       
2066:./Libraries/STM32F4xx_HAL_Driver/Src/stm32f4xx_hal_sd.c ****   * @param  WideMode Specifies the SD card wide bus mode 
2067:./Libraries/STM32F4xx_HAL_Driver/Src/stm32f4xx_hal_sd.c ****   *          This parameter can be one of the following values:
2068:./Libraries/STM32F4xx_HAL_Driver/Src/stm32f4xx_hal_sd.c ****   *            @arg SDIO_BUS_WIDE_8B: 8-bit data transfer
2069:./Libraries/STM32F4xx_HAL_Driver/Src/stm32f4xx_hal_sd.c ****   *            @arg SDIO_BUS_WIDE_4B: 4-bit data transfer
2070:./Libraries/STM32F4xx_HAL_Driver/Src/stm32f4xx_hal_sd.c ****   *            @arg SDIO_BUS_WIDE_1B: 1-bit data transfer
ARM GAS  /tmp/ccMhfXg8.s 			page 124


2071:./Libraries/STM32F4xx_HAL_Driver/Src/stm32f4xx_hal_sd.c ****   * @retval HAL status
2072:./Libraries/STM32F4xx_HAL_Driver/Src/stm32f4xx_hal_sd.c ****   */
2073:./Libraries/STM32F4xx_HAL_Driver/Src/stm32f4xx_hal_sd.c **** HAL_StatusTypeDef HAL_SD_ConfigWideBusOperation(SD_HandleTypeDef *hsd, uint32_t WideMode)
2074:./Libraries/STM32F4xx_HAL_Driver/Src/stm32f4xx_hal_sd.c **** {
 4904              		.loc 1 2074 1
 4905              		.cfi_startproc
 4906              		@ args = 0, pretend = 0, frame = 40
 4907              		@ frame_needed = 1, uses_anonymous_args = 0
 4908 0000 B0B5     		push	{r4, r5, r7, lr}
 4909              	.LCFI126:
 4910              		.cfi_def_cfa_offset 16
 4911              		.cfi_offset 4, -16
 4912              		.cfi_offset 5, -12
 4913              		.cfi_offset 7, -8
 4914              		.cfi_offset 14, -4
 4915 0002 8EB0     		sub	sp, sp, #56
 4916              	.LCFI127:
 4917              		.cfi_def_cfa_offset 72
 4918 0004 04AF     		add	r7, sp, #16
 4919              	.LCFI128:
 4920              		.cfi_def_cfa 7, 56
 4921 0006 7860     		str	r0, [r7, #4]
 4922 0008 3960     		str	r1, [r7]
2075:./Libraries/STM32F4xx_HAL_Driver/Src/stm32f4xx_hal_sd.c ****   SDIO_InitTypeDef Init;
2076:./Libraries/STM32F4xx_HAL_Driver/Src/stm32f4xx_hal_sd.c ****   uint32_t errorstate = HAL_SD_ERROR_NONE;
 4923              		.loc 1 2076 12
 4924 000a 0023     		movs	r3, #0
 4925 000c 7B62     		str	r3, [r7, #36]
2077:./Libraries/STM32F4xx_HAL_Driver/Src/stm32f4xx_hal_sd.c ****   
2078:./Libraries/STM32F4xx_HAL_Driver/Src/stm32f4xx_hal_sd.c ****   /* Check the parameters */
2079:./Libraries/STM32F4xx_HAL_Driver/Src/stm32f4xx_hal_sd.c ****   assert_param(IS_SDIO_BUS_WIDE(WideMode));
2080:./Libraries/STM32F4xx_HAL_Driver/Src/stm32f4xx_hal_sd.c ****   
2081:./Libraries/STM32F4xx_HAL_Driver/Src/stm32f4xx_hal_sd.c ****   /* Chnage Satte */
2082:./Libraries/STM32F4xx_HAL_Driver/Src/stm32f4xx_hal_sd.c ****   hsd->State = HAL_SD_STATE_BUSY;
 4926              		.loc 1 2082 14
 4927 000e 7B68     		ldr	r3, [r7, #4]
 4928 0010 0322     		movs	r2, #3
 4929 0012 83F83420 		strb	r2, [r3, #52]
2083:./Libraries/STM32F4xx_HAL_Driver/Src/stm32f4xx_hal_sd.c ****   
2084:./Libraries/STM32F4xx_HAL_Driver/Src/stm32f4xx_hal_sd.c ****   if(hsd->SdCard.CardType != CARD_SECURED) 
 4930              		.loc 1 2084 17
 4931 0016 7B68     		ldr	r3, [r7, #4]
 4932 0018 5B6C     		ldr	r3, [r3, #68]
 4933              		.loc 1 2084 5
 4934 001a 032B     		cmp	r3, #3
 4935 001c 2ED0     		beq	.L166
2085:./Libraries/STM32F4xx_HAL_Driver/Src/stm32f4xx_hal_sd.c ****   {
2086:./Libraries/STM32F4xx_HAL_Driver/Src/stm32f4xx_hal_sd.c ****     if(WideMode == SDIO_BUS_WIDE_8B)
 4936              		.loc 1 2086 7
 4937 001e 3B68     		ldr	r3, [r7]
 4938 0020 B3F5805F 		cmp	r3, #4096
 4939 0024 06D1     		bne	.L167
2087:./Libraries/STM32F4xx_HAL_Driver/Src/stm32f4xx_hal_sd.c ****     {
2088:./Libraries/STM32F4xx_HAL_Driver/Src/stm32f4xx_hal_sd.c ****       hsd->ErrorCode |= HAL_SD_ERROR_UNSUPPORTED_FEATURE;
 4940              		.loc 1 2088 22
 4941 0026 7B68     		ldr	r3, [r7, #4]
 4942 0028 9B6B     		ldr	r3, [r3, #56]
ARM GAS  /tmp/ccMhfXg8.s 			page 125


 4943 002a 43F08052 		orr	r2, r3, #268435456
 4944 002e 7B68     		ldr	r3, [r7, #4]
 4945 0030 9A63     		str	r2, [r3, #56]
 4946 0032 29E0     		b	.L168
 4947              	.L167:
2089:./Libraries/STM32F4xx_HAL_Driver/Src/stm32f4xx_hal_sd.c ****     }
2090:./Libraries/STM32F4xx_HAL_Driver/Src/stm32f4xx_hal_sd.c ****     else if(WideMode == SDIO_BUS_WIDE_4B)
 4948              		.loc 1 2090 12
 4949 0034 3B68     		ldr	r3, [r7]
 4950 0036 B3F5006F 		cmp	r3, #2048
 4951 003a 0AD1     		bne	.L169
2091:./Libraries/STM32F4xx_HAL_Driver/Src/stm32f4xx_hal_sd.c ****     {
2092:./Libraries/STM32F4xx_HAL_Driver/Src/stm32f4xx_hal_sd.c ****       errorstate = SD_WideBus_Enable(hsd);
 4952              		.loc 1 2092 20
 4953 003c 7868     		ldr	r0, [r7, #4]
 4954 003e FFF7FEFF 		bl	SD_WideBus_Enable
 4955 0042 7862     		str	r0, [r7, #36]
2093:./Libraries/STM32F4xx_HAL_Driver/Src/stm32f4xx_hal_sd.c ****       
2094:./Libraries/STM32F4xx_HAL_Driver/Src/stm32f4xx_hal_sd.c ****       hsd->ErrorCode |= errorstate;
 4956              		.loc 1 2094 22
 4957 0044 7B68     		ldr	r3, [r7, #4]
 4958 0046 9A6B     		ldr	r2, [r3, #56]
 4959 0048 7B6A     		ldr	r3, [r7, #36]
 4960 004a 1A43     		orrs	r2, r2, r3
 4961 004c 7B68     		ldr	r3, [r7, #4]
 4962 004e 9A63     		str	r2, [r3, #56]
 4963 0050 1AE0     		b	.L168
 4964              	.L169:
2095:./Libraries/STM32F4xx_HAL_Driver/Src/stm32f4xx_hal_sd.c ****     }
2096:./Libraries/STM32F4xx_HAL_Driver/Src/stm32f4xx_hal_sd.c ****     else if(WideMode == SDIO_BUS_WIDE_1B)
 4965              		.loc 1 2096 12
 4966 0052 3B68     		ldr	r3, [r7]
 4967 0054 002B     		cmp	r3, #0
 4968 0056 0AD1     		bne	.L170
2097:./Libraries/STM32F4xx_HAL_Driver/Src/stm32f4xx_hal_sd.c ****     {
2098:./Libraries/STM32F4xx_HAL_Driver/Src/stm32f4xx_hal_sd.c ****       errorstate = SD_WideBus_Disable(hsd);
 4969              		.loc 1 2098 20
 4970 0058 7868     		ldr	r0, [r7, #4]
 4971 005a FFF7FEFF 		bl	SD_WideBus_Disable
 4972 005e 7862     		str	r0, [r7, #36]
2099:./Libraries/STM32F4xx_HAL_Driver/Src/stm32f4xx_hal_sd.c ****       
2100:./Libraries/STM32F4xx_HAL_Driver/Src/stm32f4xx_hal_sd.c ****       hsd->ErrorCode |= errorstate;
 4973              		.loc 1 2100 22
 4974 0060 7B68     		ldr	r3, [r7, #4]
 4975 0062 9A6B     		ldr	r2, [r3, #56]
 4976 0064 7B6A     		ldr	r3, [r7, #36]
 4977 0066 1A43     		orrs	r2, r2, r3
 4978 0068 7B68     		ldr	r3, [r7, #4]
 4979 006a 9A63     		str	r2, [r3, #56]
 4980 006c 0CE0     		b	.L168
 4981              	.L170:
2101:./Libraries/STM32F4xx_HAL_Driver/Src/stm32f4xx_hal_sd.c ****     }
2102:./Libraries/STM32F4xx_HAL_Driver/Src/stm32f4xx_hal_sd.c ****     else
2103:./Libraries/STM32F4xx_HAL_Driver/Src/stm32f4xx_hal_sd.c ****     {
2104:./Libraries/STM32F4xx_HAL_Driver/Src/stm32f4xx_hal_sd.c ****       /* WideMode is not a valid argument*/
2105:./Libraries/STM32F4xx_HAL_Driver/Src/stm32f4xx_hal_sd.c ****       hsd->ErrorCode |= HAL_SD_ERROR_PARAM;
 4982              		.loc 1 2105 22
ARM GAS  /tmp/ccMhfXg8.s 			page 126


 4983 006e 7B68     		ldr	r3, [r7, #4]
 4984 0070 9B6B     		ldr	r3, [r3, #56]
 4985 0072 43F00062 		orr	r2, r3, #134217728
 4986 0076 7B68     		ldr	r3, [r7, #4]
 4987 0078 9A63     		str	r2, [r3, #56]
 4988 007a 05E0     		b	.L168
 4989              	.L166:
2106:./Libraries/STM32F4xx_HAL_Driver/Src/stm32f4xx_hal_sd.c ****     }
2107:./Libraries/STM32F4xx_HAL_Driver/Src/stm32f4xx_hal_sd.c ****   }  
2108:./Libraries/STM32F4xx_HAL_Driver/Src/stm32f4xx_hal_sd.c ****   else
2109:./Libraries/STM32F4xx_HAL_Driver/Src/stm32f4xx_hal_sd.c ****   {
2110:./Libraries/STM32F4xx_HAL_Driver/Src/stm32f4xx_hal_sd.c ****     /* MMC Card does not support this feature */
2111:./Libraries/STM32F4xx_HAL_Driver/Src/stm32f4xx_hal_sd.c ****     hsd->ErrorCode |= HAL_SD_ERROR_UNSUPPORTED_FEATURE;
 4990              		.loc 1 2111 20
 4991 007c 7B68     		ldr	r3, [r7, #4]
 4992 007e 9B6B     		ldr	r3, [r3, #56]
 4993 0080 43F08052 		orr	r2, r3, #268435456
 4994 0084 7B68     		ldr	r3, [r7, #4]
 4995 0086 9A63     		str	r2, [r3, #56]
 4996              	.L168:
2112:./Libraries/STM32F4xx_HAL_Driver/Src/stm32f4xx_hal_sd.c ****   }
2113:./Libraries/STM32F4xx_HAL_Driver/Src/stm32f4xx_hal_sd.c ****   
2114:./Libraries/STM32F4xx_HAL_Driver/Src/stm32f4xx_hal_sd.c ****   if(hsd->ErrorCode != HAL_SD_ERROR_NONE)
 4997              		.loc 1 2114 9
 4998 0088 7B68     		ldr	r3, [r7, #4]
 4999 008a 9B6B     		ldr	r3, [r3, #56]
 5000              		.loc 1 2114 5
 5001 008c 002B     		cmp	r3, #0
 5002 008e 0AD0     		beq	.L171
2115:./Libraries/STM32F4xx_HAL_Driver/Src/stm32f4xx_hal_sd.c ****   {
2116:./Libraries/STM32F4xx_HAL_Driver/Src/stm32f4xx_hal_sd.c ****     /* Clear all the static flags */
2117:./Libraries/STM32F4xx_HAL_Driver/Src/stm32f4xx_hal_sd.c ****     __HAL_SD_CLEAR_FLAG(hsd, SDIO_STATIC_FLAGS);
 5003              		.loc 1 2117 5
 5004 0090 7B68     		ldr	r3, [r7, #4]
 5005 0092 1B68     		ldr	r3, [r3]
 5006 0094 40F2FF52 		movw	r2, #1535
 5007 0098 9A63     		str	r2, [r3, #56]
2118:./Libraries/STM32F4xx_HAL_Driver/Src/stm32f4xx_hal_sd.c ****     hsd->State = HAL_SD_STATE_READY;
 5008              		.loc 1 2118 16
 5009 009a 7B68     		ldr	r3, [r7, #4]
 5010 009c 0122     		movs	r2, #1
 5011 009e 83F83420 		strb	r2, [r3, #52]
2119:./Libraries/STM32F4xx_HAL_Driver/Src/stm32f4xx_hal_sd.c ****     return HAL_ERROR;
 5012              		.loc 1 2119 12
 5013 00a2 0123     		movs	r3, #1
 5014 00a4 24E0     		b	.L173
 5015              	.L171:
2120:./Libraries/STM32F4xx_HAL_Driver/Src/stm32f4xx_hal_sd.c ****   }
2121:./Libraries/STM32F4xx_HAL_Driver/Src/stm32f4xx_hal_sd.c ****   else
2122:./Libraries/STM32F4xx_HAL_Driver/Src/stm32f4xx_hal_sd.c ****   {
2123:./Libraries/STM32F4xx_HAL_Driver/Src/stm32f4xx_hal_sd.c ****     /* Configure the SDIO peripheral */
2124:./Libraries/STM32F4xx_HAL_Driver/Src/stm32f4xx_hal_sd.c ****     Init.ClockEdge           = hsd->Init.ClockEdge;
 5016              		.loc 1 2124 41
 5017 00a6 7B68     		ldr	r3, [r7, #4]
 5018 00a8 5B68     		ldr	r3, [r3, #4]
 5019              		.loc 1 2124 30
 5020 00aa FB60     		str	r3, [r7, #12]
ARM GAS  /tmp/ccMhfXg8.s 			page 127


2125:./Libraries/STM32F4xx_HAL_Driver/Src/stm32f4xx_hal_sd.c ****     Init.ClockBypass         = hsd->Init.ClockBypass;
 5021              		.loc 1 2125 41
 5022 00ac 7B68     		ldr	r3, [r7, #4]
 5023 00ae 9B68     		ldr	r3, [r3, #8]
 5024              		.loc 1 2125 30
 5025 00b0 3B61     		str	r3, [r7, #16]
2126:./Libraries/STM32F4xx_HAL_Driver/Src/stm32f4xx_hal_sd.c ****     Init.ClockPowerSave      = hsd->Init.ClockPowerSave;
 5026              		.loc 1 2126 41
 5027 00b2 7B68     		ldr	r3, [r7, #4]
 5028 00b4 DB68     		ldr	r3, [r3, #12]
 5029              		.loc 1 2126 30
 5030 00b6 7B61     		str	r3, [r7, #20]
2127:./Libraries/STM32F4xx_HAL_Driver/Src/stm32f4xx_hal_sd.c ****     Init.BusWide             = WideMode;
 5031              		.loc 1 2127 30
 5032 00b8 3B68     		ldr	r3, [r7]
 5033 00ba BB61     		str	r3, [r7, #24]
2128:./Libraries/STM32F4xx_HAL_Driver/Src/stm32f4xx_hal_sd.c ****     Init.HardwareFlowControl = hsd->Init.HardwareFlowControl;
 5034              		.loc 1 2128 41
 5035 00bc 7B68     		ldr	r3, [r7, #4]
 5036 00be 5B69     		ldr	r3, [r3, #20]
 5037              		.loc 1 2128 30
 5038 00c0 FB61     		str	r3, [r7, #28]
2129:./Libraries/STM32F4xx_HAL_Driver/Src/stm32f4xx_hal_sd.c ****     Init.ClockDiv            = hsd->Init.ClockDiv;
 5039              		.loc 1 2129 41
 5040 00c2 7B68     		ldr	r3, [r7, #4]
 5041 00c4 9B69     		ldr	r3, [r3, #24]
 5042              		.loc 1 2129 30
 5043 00c6 3B62     		str	r3, [r7, #32]
2130:./Libraries/STM32F4xx_HAL_Driver/Src/stm32f4xx_hal_sd.c ****     SDIO_Init(hsd->Instance, Init);
 5044              		.loc 1 2130 5
 5045 00c8 7B68     		ldr	r3, [r7, #4]
 5046 00ca 1D68     		ldr	r5, [r3]
 5047 00cc 6C46     		mov	r4, sp
 5048 00ce 07F11803 		add	r3, r7, #24
 5049 00d2 93E80700 		ldm	r3, {r0, r1, r2}
 5050 00d6 84E80700 		stm	r4, {r0, r1, r2}
 5051 00da 07F10C03 		add	r3, r7, #12
 5052 00de 0ECB     		ldm	r3, {r1, r2, r3}
 5053 00e0 2846     		mov	r0, r5
 5054 00e2 FFF7FEFF 		bl	SDIO_Init
2131:./Libraries/STM32F4xx_HAL_Driver/Src/stm32f4xx_hal_sd.c ****   }
2132:./Libraries/STM32F4xx_HAL_Driver/Src/stm32f4xx_hal_sd.c **** 
2133:./Libraries/STM32F4xx_HAL_Driver/Src/stm32f4xx_hal_sd.c ****   /* Change State */
2134:./Libraries/STM32F4xx_HAL_Driver/Src/stm32f4xx_hal_sd.c ****   hsd->State = HAL_SD_STATE_READY;
 5055              		.loc 1 2134 14
 5056 00e6 7B68     		ldr	r3, [r7, #4]
 5057 00e8 0122     		movs	r2, #1
 5058 00ea 83F83420 		strb	r2, [r3, #52]
2135:./Libraries/STM32F4xx_HAL_Driver/Src/stm32f4xx_hal_sd.c ****   
2136:./Libraries/STM32F4xx_HAL_Driver/Src/stm32f4xx_hal_sd.c ****   return HAL_OK;
 5059              		.loc 1 2136 10
 5060 00ee 0023     		movs	r3, #0
 5061              	.L173:
2137:./Libraries/STM32F4xx_HAL_Driver/Src/stm32f4xx_hal_sd.c **** }
 5062              		.loc 1 2137 1 discriminator 1
 5063 00f0 1846     		mov	r0, r3
 5064 00f2 2837     		adds	r7, r7, #40
ARM GAS  /tmp/ccMhfXg8.s 			page 128


 5065              	.LCFI129:
 5066              		.cfi_def_cfa_offset 16
 5067 00f4 BD46     		mov	sp, r7
 5068              	.LCFI130:
 5069              		.cfi_def_cfa_register 13
 5070              		@ sp needed
 5071 00f6 B0BD     		pop	{r4, r5, r7, pc}
 5072              		.cfi_endproc
 5073              	.LFE149:
 5075              		.section	.text.HAL_SD_GetCardState,"ax",%progbits
 5076              		.align	1
 5077              		.global	HAL_SD_GetCardState
 5078              		.syntax unified
 5079              		.thumb
 5080              		.thumb_func
 5081              		.fpu fpv4-sp-d16
 5083              	HAL_SD_GetCardState:
 5084              	.LFB150:
2138:./Libraries/STM32F4xx_HAL_Driver/Src/stm32f4xx_hal_sd.c **** 
2139:./Libraries/STM32F4xx_HAL_Driver/Src/stm32f4xx_hal_sd.c **** 
2140:./Libraries/STM32F4xx_HAL_Driver/Src/stm32f4xx_hal_sd.c **** /**
2141:./Libraries/STM32F4xx_HAL_Driver/Src/stm32f4xx_hal_sd.c ****   * @brief  Gets the current sd card data state.
2142:./Libraries/STM32F4xx_HAL_Driver/Src/stm32f4xx_hal_sd.c ****   * @param  hsd pointer to SD handle
2143:./Libraries/STM32F4xx_HAL_Driver/Src/stm32f4xx_hal_sd.c ****   * @retval Card state
2144:./Libraries/STM32F4xx_HAL_Driver/Src/stm32f4xx_hal_sd.c ****   */
2145:./Libraries/STM32F4xx_HAL_Driver/Src/stm32f4xx_hal_sd.c **** HAL_SD_CardStateTypeDef HAL_SD_GetCardState(SD_HandleTypeDef *hsd)
2146:./Libraries/STM32F4xx_HAL_Driver/Src/stm32f4xx_hal_sd.c **** {
 5085              		.loc 1 2146 1
 5086              		.cfi_startproc
 5087              		@ args = 0, pretend = 0, frame = 24
 5088              		@ frame_needed = 1, uses_anonymous_args = 0
 5089 0000 80B5     		push	{r7, lr}
 5090              	.LCFI131:
 5091              		.cfi_def_cfa_offset 8
 5092              		.cfi_offset 7, -8
 5093              		.cfi_offset 14, -4
 5094 0002 86B0     		sub	sp, sp, #24
 5095              	.LCFI132:
 5096              		.cfi_def_cfa_offset 32
 5097 0004 00AF     		add	r7, sp, #0
 5098              	.LCFI133:
 5099              		.cfi_def_cfa_register 7
 5100 0006 7860     		str	r0, [r7, #4]
2147:./Libraries/STM32F4xx_HAL_Driver/Src/stm32f4xx_hal_sd.c ****   HAL_SD_CardStateTypeDef cardstate =  HAL_SD_CARD_TRANSFER;
 5101              		.loc 1 2147 27
 5102 0008 0423     		movs	r3, #4
 5103 000a FB75     		strb	r3, [r7, #23]
2148:./Libraries/STM32F4xx_HAL_Driver/Src/stm32f4xx_hal_sd.c ****   uint32_t errorstate = HAL_SD_ERROR_NONE;
 5104              		.loc 1 2148 12
 5105 000c 0023     		movs	r3, #0
 5106 000e 3B61     		str	r3, [r7, #16]
2149:./Libraries/STM32F4xx_HAL_Driver/Src/stm32f4xx_hal_sd.c ****   uint32_t resp1 = 0;
 5107              		.loc 1 2149 12
 5108 0010 0023     		movs	r3, #0
 5109 0012 FB60     		str	r3, [r7, #12]
2150:./Libraries/STM32F4xx_HAL_Driver/Src/stm32f4xx_hal_sd.c ****   
2151:./Libraries/STM32F4xx_HAL_Driver/Src/stm32f4xx_hal_sd.c ****   errorstate = SD_SendStatus(hsd, &resp1);
ARM GAS  /tmp/ccMhfXg8.s 			page 129


 5110              		.loc 1 2151 16
 5111 0014 07F10C03 		add	r3, r7, #12
 5112 0018 1946     		mov	r1, r3
 5113 001a 7868     		ldr	r0, [r7, #4]
 5114 001c FFF7FEFF 		bl	SD_SendStatus
 5115 0020 3861     		str	r0, [r7, #16]
2152:./Libraries/STM32F4xx_HAL_Driver/Src/stm32f4xx_hal_sd.c ****   if(errorstate != HAL_OK)
 5116              		.loc 1 2152 5
 5117 0022 3B69     		ldr	r3, [r7, #16]
 5118 0024 002B     		cmp	r3, #0
 5119 0026 05D0     		beq	.L175
2153:./Libraries/STM32F4xx_HAL_Driver/Src/stm32f4xx_hal_sd.c ****   {
2154:./Libraries/STM32F4xx_HAL_Driver/Src/stm32f4xx_hal_sd.c ****     hsd->ErrorCode |= errorstate;
 5120              		.loc 1 2154 20
 5121 0028 7B68     		ldr	r3, [r7, #4]
 5122 002a 9A6B     		ldr	r2, [r3, #56]
 5123 002c 3B69     		ldr	r3, [r7, #16]
 5124 002e 1A43     		orrs	r2, r2, r3
 5125 0030 7B68     		ldr	r3, [r7, #4]
 5126 0032 9A63     		str	r2, [r3, #56]
 5127              	.L175:
2155:./Libraries/STM32F4xx_HAL_Driver/Src/stm32f4xx_hal_sd.c ****   }
2156:./Libraries/STM32F4xx_HAL_Driver/Src/stm32f4xx_hal_sd.c **** 
2157:./Libraries/STM32F4xx_HAL_Driver/Src/stm32f4xx_hal_sd.c ****   cardstate = (HAL_SD_CardStateTypeDef)((resp1 >> 9U) & 0x0FU);
 5128              		.loc 1 2157 48
 5129 0034 FB68     		ldr	r3, [r7, #12]
 5130 0036 5B0A     		lsrs	r3, r3, #9
 5131              		.loc 1 2157 15
 5132 0038 DBB2     		uxtb	r3, r3
 5133              		.loc 1 2157 13
 5134 003a 03F00F03 		and	r3, r3, #15
 5135 003e FB75     		strb	r3, [r7, #23]
2158:./Libraries/STM32F4xx_HAL_Driver/Src/stm32f4xx_hal_sd.c ****   
2159:./Libraries/STM32F4xx_HAL_Driver/Src/stm32f4xx_hal_sd.c ****   return cardstate;
 5136              		.loc 1 2159 10
 5137 0040 FB7D     		ldrb	r3, [r7, #23]	@ zero_extendqisi2
2160:./Libraries/STM32F4xx_HAL_Driver/Src/stm32f4xx_hal_sd.c **** }
 5138              		.loc 1 2160 1
 5139 0042 1846     		mov	r0, r3
 5140 0044 1837     		adds	r7, r7, #24
 5141              	.LCFI134:
 5142              		.cfi_def_cfa_offset 8
 5143 0046 BD46     		mov	sp, r7
 5144              	.LCFI135:
 5145              		.cfi_def_cfa_register 13
 5146              		@ sp needed
 5147 0048 80BD     		pop	{r7, pc}
 5148              		.cfi_endproc
 5149              	.LFE150:
 5151              		.section	.text.HAL_SD_Abort,"ax",%progbits
 5152              		.align	1
 5153              		.global	HAL_SD_Abort
 5154              		.syntax unified
 5155              		.thumb
 5156              		.thumb_func
 5157              		.fpu fpv4-sp-d16
 5159              	HAL_SD_Abort:
ARM GAS  /tmp/ccMhfXg8.s 			page 130


 5160              	.LFB151:
2161:./Libraries/STM32F4xx_HAL_Driver/Src/stm32f4xx_hal_sd.c **** 
2162:./Libraries/STM32F4xx_HAL_Driver/Src/stm32f4xx_hal_sd.c **** /**
2163:./Libraries/STM32F4xx_HAL_Driver/Src/stm32f4xx_hal_sd.c ****   * @brief  Abort the current transfer and disable the SD.
2164:./Libraries/STM32F4xx_HAL_Driver/Src/stm32f4xx_hal_sd.c ****   * @param  hsd pointer to a SD_HandleTypeDef structure that contains
2165:./Libraries/STM32F4xx_HAL_Driver/Src/stm32f4xx_hal_sd.c ****   *                the configuration information for SD module.
2166:./Libraries/STM32F4xx_HAL_Driver/Src/stm32f4xx_hal_sd.c ****   * @retval HAL status
2167:./Libraries/STM32F4xx_HAL_Driver/Src/stm32f4xx_hal_sd.c ****   */
2168:./Libraries/STM32F4xx_HAL_Driver/Src/stm32f4xx_hal_sd.c **** HAL_StatusTypeDef HAL_SD_Abort(SD_HandleTypeDef *hsd)
2169:./Libraries/STM32F4xx_HAL_Driver/Src/stm32f4xx_hal_sd.c **** {
 5161              		.loc 1 2169 1
 5162              		.cfi_startproc
 5163              		@ args = 0, pretend = 0, frame = 16
 5164              		@ frame_needed = 1, uses_anonymous_args = 0
 5165 0000 80B5     		push	{r7, lr}
 5166              	.LCFI136:
 5167              		.cfi_def_cfa_offset 8
 5168              		.cfi_offset 7, -8
 5169              		.cfi_offset 14, -4
 5170 0002 84B0     		sub	sp, sp, #16
 5171              	.LCFI137:
 5172              		.cfi_def_cfa_offset 24
 5173 0004 00AF     		add	r7, sp, #0
 5174              	.LCFI138:
 5175              		.cfi_def_cfa_register 7
 5176 0006 7860     		str	r0, [r7, #4]
2170:./Libraries/STM32F4xx_HAL_Driver/Src/stm32f4xx_hal_sd.c ****   HAL_SD_CardStateTypeDef CardState;
2171:./Libraries/STM32F4xx_HAL_Driver/Src/stm32f4xx_hal_sd.c ****   
2172:./Libraries/STM32F4xx_HAL_Driver/Src/stm32f4xx_hal_sd.c ****   /* DIsable All interrupts */
2173:./Libraries/STM32F4xx_HAL_Driver/Src/stm32f4xx_hal_sd.c ****   __HAL_SD_DISABLE_IT(hsd, SDIO_IT_DATAEND | SDIO_IT_DCRCFAIL | SDIO_IT_DTIMEOUT|\
 5177              		.loc 1 2173 3
 5178 0008 7B68     		ldr	r3, [r7, #4]
 5179 000a 1B68     		ldr	r3, [r3]
 5180 000c DA6B     		ldr	r2, [r3, #60]
 5181 000e 7B68     		ldr	r3, [r7, #4]
 5182 0010 1B68     		ldr	r3, [r3]
 5183 0012 22F49D72 		bic	r2, r2, #314
 5184 0016 DA63     		str	r2, [r3, #60]
2174:./Libraries/STM32F4xx_HAL_Driver/Src/stm32f4xx_hal_sd.c ****                            SDIO_IT_TXUNDERR| SDIO_IT_RXOVERR);
2175:./Libraries/STM32F4xx_HAL_Driver/Src/stm32f4xx_hal_sd.c ****   
2176:./Libraries/STM32F4xx_HAL_Driver/Src/stm32f4xx_hal_sd.c ****   /* Clear All flags */
2177:./Libraries/STM32F4xx_HAL_Driver/Src/stm32f4xx_hal_sd.c ****   __HAL_SD_CLEAR_FLAG(hsd, SDIO_STATIC_FLAGS);
 5185              		.loc 1 2177 3
 5186 0018 7B68     		ldr	r3, [r7, #4]
 5187 001a 1B68     		ldr	r3, [r3]
 5188 001c 40F2FF52 		movw	r2, #1535
 5189 0020 9A63     		str	r2, [r3, #56]
2178:./Libraries/STM32F4xx_HAL_Driver/Src/stm32f4xx_hal_sd.c ****   
2179:./Libraries/STM32F4xx_HAL_Driver/Src/stm32f4xx_hal_sd.c ****   if((hsd->hdmatx != NULL) || (hsd->hdmarx != NULL))
 5190              		.loc 1 2179 10
 5191 0022 7B68     		ldr	r3, [r7, #4]
 5192 0024 1B6C     		ldr	r3, [r3, #64]
 5193              		.loc 1 2179 5
 5194 0026 002B     		cmp	r3, #0
 5195 0028 03D1     		bne	.L178
 5196              		.loc 1 2179 35 discriminator 1
 5197 002a 7B68     		ldr	r3, [r7, #4]
ARM GAS  /tmp/ccMhfXg8.s 			page 131


 5198 002c DB6B     		ldr	r3, [r3, #60]
 5199              		.loc 1 2179 28 discriminator 1
 5200 002e 002B     		cmp	r3, #0
 5201 0030 19D0     		beq	.L179
 5202              	.L178:
2180:./Libraries/STM32F4xx_HAL_Driver/Src/stm32f4xx_hal_sd.c ****   {
2181:./Libraries/STM32F4xx_HAL_Driver/Src/stm32f4xx_hal_sd.c ****     /* Disable the SD DMA request */
2182:./Libraries/STM32F4xx_HAL_Driver/Src/stm32f4xx_hal_sd.c ****     hsd->Instance->DCTRL &= (uint32_t)~((uint32_t)SDIO_DCTRL_DMAEN);
 5203              		.loc 1 2182 8
 5204 0032 7B68     		ldr	r3, [r7, #4]
 5205 0034 1B68     		ldr	r3, [r3]
 5206              		.loc 1 2182 26
 5207 0036 DA6A     		ldr	r2, [r3, #44]
 5208              		.loc 1 2182 8
 5209 0038 7B68     		ldr	r3, [r7, #4]
 5210 003a 1B68     		ldr	r3, [r3]
 5211              		.loc 1 2182 26
 5212 003c 22F00802 		bic	r2, r2, #8
 5213 0040 DA62     		str	r2, [r3, #44]
2183:./Libraries/STM32F4xx_HAL_Driver/Src/stm32f4xx_hal_sd.c ****     
2184:./Libraries/STM32F4xx_HAL_Driver/Src/stm32f4xx_hal_sd.c ****     /* Abort the SD DMA Tx Stream */
2185:./Libraries/STM32F4xx_HAL_Driver/Src/stm32f4xx_hal_sd.c ****     if(hsd->hdmatx != NULL)
 5214              		.loc 1 2185 11
 5215 0042 7B68     		ldr	r3, [r7, #4]
 5216 0044 1B6C     		ldr	r3, [r3, #64]
 5217              		.loc 1 2185 7
 5218 0046 002B     		cmp	r3, #0
 5219 0048 04D0     		beq	.L180
2186:./Libraries/STM32F4xx_HAL_Driver/Src/stm32f4xx_hal_sd.c ****     {
2187:./Libraries/STM32F4xx_HAL_Driver/Src/stm32f4xx_hal_sd.c ****       HAL_DMA_Abort(hsd->hdmatx);
 5220              		.loc 1 2187 7
 5221 004a 7B68     		ldr	r3, [r7, #4]
 5222 004c 1B6C     		ldr	r3, [r3, #64]
 5223 004e 1846     		mov	r0, r3
 5224 0050 FFF7FEFF 		bl	HAL_DMA_Abort
 5225              	.L180:
2188:./Libraries/STM32F4xx_HAL_Driver/Src/stm32f4xx_hal_sd.c ****     }
2189:./Libraries/STM32F4xx_HAL_Driver/Src/stm32f4xx_hal_sd.c ****     /* Abort the SD DMA Rx Stream */
2190:./Libraries/STM32F4xx_HAL_Driver/Src/stm32f4xx_hal_sd.c ****     if(hsd->hdmarx != NULL)
 5226              		.loc 1 2190 11
 5227 0054 7B68     		ldr	r3, [r7, #4]
 5228 0056 DB6B     		ldr	r3, [r3, #60]
 5229              		.loc 1 2190 7
 5230 0058 002B     		cmp	r3, #0
 5231 005a 04D0     		beq	.L179
2191:./Libraries/STM32F4xx_HAL_Driver/Src/stm32f4xx_hal_sd.c ****     {
2192:./Libraries/STM32F4xx_HAL_Driver/Src/stm32f4xx_hal_sd.c ****       HAL_DMA_Abort(hsd->hdmarx);
 5232              		.loc 1 2192 7
 5233 005c 7B68     		ldr	r3, [r7, #4]
 5234 005e DB6B     		ldr	r3, [r3, #60]
 5235 0060 1846     		mov	r0, r3
 5236 0062 FFF7FEFF 		bl	HAL_DMA_Abort
 5237              	.L179:
2193:./Libraries/STM32F4xx_HAL_Driver/Src/stm32f4xx_hal_sd.c ****     }
2194:./Libraries/STM32F4xx_HAL_Driver/Src/stm32f4xx_hal_sd.c ****   }
2195:./Libraries/STM32F4xx_HAL_Driver/Src/stm32f4xx_hal_sd.c ****   
2196:./Libraries/STM32F4xx_HAL_Driver/Src/stm32f4xx_hal_sd.c ****   hsd->State = HAL_SD_STATE_READY;
ARM GAS  /tmp/ccMhfXg8.s 			page 132


 5238              		.loc 1 2196 14
 5239 0066 7B68     		ldr	r3, [r7, #4]
 5240 0068 0122     		movs	r2, #1
 5241 006a 83F83420 		strb	r2, [r3, #52]
2197:./Libraries/STM32F4xx_HAL_Driver/Src/stm32f4xx_hal_sd.c ****   CardState = HAL_SD_GetCardState(hsd);
 5242              		.loc 1 2197 15
 5243 006e 7868     		ldr	r0, [r7, #4]
 5244 0070 FFF7FEFF 		bl	HAL_SD_GetCardState
 5245 0074 0346     		mov	r3, r0
 5246 0076 FB73     		strb	r3, [r7, #15]
2198:./Libraries/STM32F4xx_HAL_Driver/Src/stm32f4xx_hal_sd.c ****   if((CardState == HAL_SD_CARD_RECEIVING) || (CardState == HAL_SD_CARD_SENDING))
 5247              		.loc 1 2198 5
 5248 0078 FB7B     		ldrb	r3, [r7, #15]	@ zero_extendqisi2
 5249 007a 062B     		cmp	r3, #6
 5250 007c 02D0     		beq	.L181
 5251              		.loc 1 2198 43 discriminator 1
 5252 007e FB7B     		ldrb	r3, [r7, #15]	@ zero_extendqisi2
 5253 0080 052B     		cmp	r3, #5
 5254 0082 07D1     		bne	.L182
 5255              	.L181:
2199:./Libraries/STM32F4xx_HAL_Driver/Src/stm32f4xx_hal_sd.c ****   {
2200:./Libraries/STM32F4xx_HAL_Driver/Src/stm32f4xx_hal_sd.c ****     hsd->ErrorCode = SDMMC_CmdStopTransfer(hsd->Instance);
 5256              		.loc 1 2200 22
 5257 0084 7B68     		ldr	r3, [r7, #4]
 5258 0086 1B68     		ldr	r3, [r3]
 5259 0088 1846     		mov	r0, r3
 5260 008a FFF7FEFF 		bl	SDMMC_CmdStopTransfer
 5261 008e 0246     		mov	r2, r0
 5262              		.loc 1 2200 20
 5263 0090 7B68     		ldr	r3, [r7, #4]
 5264 0092 9A63     		str	r2, [r3, #56]
 5265              	.L182:
2201:./Libraries/STM32F4xx_HAL_Driver/Src/stm32f4xx_hal_sd.c ****   }
2202:./Libraries/STM32F4xx_HAL_Driver/Src/stm32f4xx_hal_sd.c ****   if(hsd->ErrorCode != HAL_SD_ERROR_NONE)
 5266              		.loc 1 2202 9
 5267 0094 7B68     		ldr	r3, [r7, #4]
 5268 0096 9B6B     		ldr	r3, [r3, #56]
 5269              		.loc 1 2202 5
 5270 0098 002B     		cmp	r3, #0
 5271 009a 01D0     		beq	.L183
2203:./Libraries/STM32F4xx_HAL_Driver/Src/stm32f4xx_hal_sd.c ****   {
2204:./Libraries/STM32F4xx_HAL_Driver/Src/stm32f4xx_hal_sd.c ****     return HAL_ERROR;
 5272              		.loc 1 2204 12
 5273 009c 0123     		movs	r3, #1
 5274 009e 00E0     		b	.L184
 5275              	.L183:
2205:./Libraries/STM32F4xx_HAL_Driver/Src/stm32f4xx_hal_sd.c ****   }
2206:./Libraries/STM32F4xx_HAL_Driver/Src/stm32f4xx_hal_sd.c ****   return HAL_OK;
 5276              		.loc 1 2206 10
 5277 00a0 0023     		movs	r3, #0
 5278              	.L184:
2207:./Libraries/STM32F4xx_HAL_Driver/Src/stm32f4xx_hal_sd.c **** }
 5279              		.loc 1 2207 1
 5280 00a2 1846     		mov	r0, r3
 5281 00a4 1037     		adds	r7, r7, #16
 5282              	.LCFI139:
 5283              		.cfi_def_cfa_offset 8
ARM GAS  /tmp/ccMhfXg8.s 			page 133


 5284 00a6 BD46     		mov	sp, r7
 5285              	.LCFI140:
 5286              		.cfi_def_cfa_register 13
 5287              		@ sp needed
 5288 00a8 80BD     		pop	{r7, pc}
 5289              		.cfi_endproc
 5290              	.LFE151:
 5292              		.section	.text.HAL_SD_Abort_IT,"ax",%progbits
 5293              		.align	1
 5294              		.global	HAL_SD_Abort_IT
 5295              		.syntax unified
 5296              		.thumb
 5297              		.thumb_func
 5298              		.fpu fpv4-sp-d16
 5300              	HAL_SD_Abort_IT:
 5301              	.LFB152:
2208:./Libraries/STM32F4xx_HAL_Driver/Src/stm32f4xx_hal_sd.c **** 
2209:./Libraries/STM32F4xx_HAL_Driver/Src/stm32f4xx_hal_sd.c **** /**
2210:./Libraries/STM32F4xx_HAL_Driver/Src/stm32f4xx_hal_sd.c ****   * @brief  Abort the current transfer and disable the SD (IT mode).
2211:./Libraries/STM32F4xx_HAL_Driver/Src/stm32f4xx_hal_sd.c ****   * @param  hsd pointer to a SD_HandleTypeDef structure that contains
2212:./Libraries/STM32F4xx_HAL_Driver/Src/stm32f4xx_hal_sd.c ****   *                the configuration information for SD module.
2213:./Libraries/STM32F4xx_HAL_Driver/Src/stm32f4xx_hal_sd.c ****   * @retval HAL status
2214:./Libraries/STM32F4xx_HAL_Driver/Src/stm32f4xx_hal_sd.c ****   */
2215:./Libraries/STM32F4xx_HAL_Driver/Src/stm32f4xx_hal_sd.c **** HAL_StatusTypeDef HAL_SD_Abort_IT(SD_HandleTypeDef *hsd)
2216:./Libraries/STM32F4xx_HAL_Driver/Src/stm32f4xx_hal_sd.c **** {
 5302              		.loc 1 2216 1
 5303              		.cfi_startproc
 5304              		@ args = 0, pretend = 0, frame = 16
 5305              		@ frame_needed = 1, uses_anonymous_args = 0
 5306 0000 80B5     		push	{r7, lr}
 5307              	.LCFI141:
 5308              		.cfi_def_cfa_offset 8
 5309              		.cfi_offset 7, -8
 5310              		.cfi_offset 14, -4
 5311 0002 84B0     		sub	sp, sp, #16
 5312              	.LCFI142:
 5313              		.cfi_def_cfa_offset 24
 5314 0004 00AF     		add	r7, sp, #0
 5315              	.LCFI143:
 5316              		.cfi_def_cfa_register 7
 5317 0006 7860     		str	r0, [r7, #4]
2217:./Libraries/STM32F4xx_HAL_Driver/Src/stm32f4xx_hal_sd.c ****   HAL_SD_CardStateTypeDef CardState;
2218:./Libraries/STM32F4xx_HAL_Driver/Src/stm32f4xx_hal_sd.c ****     
2219:./Libraries/STM32F4xx_HAL_Driver/Src/stm32f4xx_hal_sd.c ****   /* DIsable All interrupts */
2220:./Libraries/STM32F4xx_HAL_Driver/Src/stm32f4xx_hal_sd.c ****   __HAL_SD_DISABLE_IT(hsd, SDIO_IT_DATAEND | SDIO_IT_DCRCFAIL | SDIO_IT_DTIMEOUT|\
 5318              		.loc 1 2220 3
 5319 0008 7B68     		ldr	r3, [r7, #4]
 5320 000a 1B68     		ldr	r3, [r3]
 5321 000c DA6B     		ldr	r2, [r3, #60]
 5322 000e 7B68     		ldr	r3, [r7, #4]
 5323 0010 1B68     		ldr	r3, [r3]
 5324 0012 22F49D72 		bic	r2, r2, #314
 5325 0016 DA63     		str	r2, [r3, #60]
2221:./Libraries/STM32F4xx_HAL_Driver/Src/stm32f4xx_hal_sd.c ****                            SDIO_IT_TXUNDERR| SDIO_IT_RXOVERR);
2222:./Libraries/STM32F4xx_HAL_Driver/Src/stm32f4xx_hal_sd.c ****   
2223:./Libraries/STM32F4xx_HAL_Driver/Src/stm32f4xx_hal_sd.c ****   /* Clear All flags */
2224:./Libraries/STM32F4xx_HAL_Driver/Src/stm32f4xx_hal_sd.c ****   __HAL_SD_CLEAR_FLAG(hsd, SDIO_STATIC_FLAGS);
ARM GAS  /tmp/ccMhfXg8.s 			page 134


 5326              		.loc 1 2224 3
 5327 0018 7B68     		ldr	r3, [r7, #4]
 5328 001a 1B68     		ldr	r3, [r3]
 5329 001c 40F2FF52 		movw	r2, #1535
 5330 0020 9A63     		str	r2, [r3, #56]
2225:./Libraries/STM32F4xx_HAL_Driver/Src/stm32f4xx_hal_sd.c ****   
2226:./Libraries/STM32F4xx_HAL_Driver/Src/stm32f4xx_hal_sd.c ****   if((hsd->hdmatx != NULL) || (hsd->hdmarx != NULL))
 5331              		.loc 1 2226 10
 5332 0022 7B68     		ldr	r3, [r7, #4]
 5333 0024 1B6C     		ldr	r3, [r3, #64]
 5334              		.loc 1 2226 5
 5335 0026 002B     		cmp	r3, #0
 5336 0028 03D1     		bne	.L186
 5337              		.loc 1 2226 35 discriminator 1
 5338 002a 7B68     		ldr	r3, [r7, #4]
 5339 002c DB6B     		ldr	r3, [r3, #60]
 5340              		.loc 1 2226 28 discriminator 1
 5341 002e 002B     		cmp	r3, #0
 5342 0030 2DD0     		beq	.L187
 5343              	.L186:
2227:./Libraries/STM32F4xx_HAL_Driver/Src/stm32f4xx_hal_sd.c ****   {
2228:./Libraries/STM32F4xx_HAL_Driver/Src/stm32f4xx_hal_sd.c ****     /* Disable the SD DMA request */
2229:./Libraries/STM32F4xx_HAL_Driver/Src/stm32f4xx_hal_sd.c ****     hsd->Instance->DCTRL &= (uint32_t)~((uint32_t)SDIO_DCTRL_DMAEN);
 5344              		.loc 1 2229 8
 5345 0032 7B68     		ldr	r3, [r7, #4]
 5346 0034 1B68     		ldr	r3, [r3]
 5347              		.loc 1 2229 26
 5348 0036 DA6A     		ldr	r2, [r3, #44]
 5349              		.loc 1 2229 8
 5350 0038 7B68     		ldr	r3, [r7, #4]
 5351 003a 1B68     		ldr	r3, [r3]
 5352              		.loc 1 2229 26
 5353 003c 22F00802 		bic	r2, r2, #8
 5354 0040 DA62     		str	r2, [r3, #44]
2230:./Libraries/STM32F4xx_HAL_Driver/Src/stm32f4xx_hal_sd.c ****     
2231:./Libraries/STM32F4xx_HAL_Driver/Src/stm32f4xx_hal_sd.c ****     /* Abort the SD DMA Tx Stream */
2232:./Libraries/STM32F4xx_HAL_Driver/Src/stm32f4xx_hal_sd.c ****     if(hsd->hdmatx != NULL)
 5355              		.loc 1 2232 11
 5356 0042 7B68     		ldr	r3, [r7, #4]
 5357 0044 1B6C     		ldr	r3, [r3, #64]
 5358              		.loc 1 2232 7
 5359 0046 002B     		cmp	r3, #0
 5360 0048 0ED0     		beq	.L188
2233:./Libraries/STM32F4xx_HAL_Driver/Src/stm32f4xx_hal_sd.c ****     {
2234:./Libraries/STM32F4xx_HAL_Driver/Src/stm32f4xx_hal_sd.c ****       hsd->hdmatx->XferAbortCallback =  SD_DMATxAbort;
 5361              		.loc 1 2234 10
 5362 004a 7B68     		ldr	r3, [r7, #4]
 5363 004c 1B6C     		ldr	r3, [r3, #64]
 5364              		.loc 1 2234 38
 5365 004e 264A     		ldr	r2, .L194
 5366 0050 1A65     		str	r2, [r3, #80]
2235:./Libraries/STM32F4xx_HAL_Driver/Src/stm32f4xx_hal_sd.c ****       if(HAL_DMA_Abort_IT(hsd->hdmatx) != HAL_OK)
 5367              		.loc 1 2235 10
 5368 0052 7B68     		ldr	r3, [r7, #4]
 5369 0054 1B6C     		ldr	r3, [r3, #64]
 5370 0056 1846     		mov	r0, r3
 5371 0058 FFF7FEFF 		bl	HAL_DMA_Abort_IT
ARM GAS  /tmp/ccMhfXg8.s 			page 135


 5372 005c 0346     		mov	r3, r0
 5373              		.loc 1 2235 9
 5374 005e 002B     		cmp	r3, #0
 5375 0060 02D0     		beq	.L188
2236:./Libraries/STM32F4xx_HAL_Driver/Src/stm32f4xx_hal_sd.c ****       {
2237:./Libraries/STM32F4xx_HAL_Driver/Src/stm32f4xx_hal_sd.c ****         hsd->hdmatx = NULL;
 5376              		.loc 1 2237 21
 5377 0062 7B68     		ldr	r3, [r7, #4]
 5378 0064 0022     		movs	r2, #0
 5379 0066 1A64     		str	r2, [r3, #64]
 5380              	.L188:
2238:./Libraries/STM32F4xx_HAL_Driver/Src/stm32f4xx_hal_sd.c ****       }
2239:./Libraries/STM32F4xx_HAL_Driver/Src/stm32f4xx_hal_sd.c ****     }
2240:./Libraries/STM32F4xx_HAL_Driver/Src/stm32f4xx_hal_sd.c ****     /* Abort the SD DMA Rx Stream */
2241:./Libraries/STM32F4xx_HAL_Driver/Src/stm32f4xx_hal_sd.c ****     if(hsd->hdmarx != NULL)
 5381              		.loc 1 2241 11
 5382 0068 7B68     		ldr	r3, [r7, #4]
 5383 006a DB6B     		ldr	r3, [r3, #60]
 5384              		.loc 1 2241 7
 5385 006c 002B     		cmp	r3, #0
 5386 006e 0ED0     		beq	.L187
2242:./Libraries/STM32F4xx_HAL_Driver/Src/stm32f4xx_hal_sd.c ****     {
2243:./Libraries/STM32F4xx_HAL_Driver/Src/stm32f4xx_hal_sd.c ****       hsd->hdmarx->XferAbortCallback =  SD_DMARxAbort;
 5387              		.loc 1 2243 10
 5388 0070 7B68     		ldr	r3, [r7, #4]
 5389 0072 DB6B     		ldr	r3, [r3, #60]
 5390              		.loc 1 2243 38
 5391 0074 1D4A     		ldr	r2, .L194+4
 5392 0076 1A65     		str	r2, [r3, #80]
2244:./Libraries/STM32F4xx_HAL_Driver/Src/stm32f4xx_hal_sd.c ****       if(HAL_DMA_Abort_IT(hsd->hdmarx) != HAL_OK)
 5393              		.loc 1 2244 10
 5394 0078 7B68     		ldr	r3, [r7, #4]
 5395 007a DB6B     		ldr	r3, [r3, #60]
 5396 007c 1846     		mov	r0, r3
 5397 007e FFF7FEFF 		bl	HAL_DMA_Abort_IT
 5398 0082 0346     		mov	r3, r0
 5399              		.loc 1 2244 9
 5400 0084 002B     		cmp	r3, #0
 5401 0086 02D0     		beq	.L187
2245:./Libraries/STM32F4xx_HAL_Driver/Src/stm32f4xx_hal_sd.c ****       {
2246:./Libraries/STM32F4xx_HAL_Driver/Src/stm32f4xx_hal_sd.c ****         hsd->hdmarx = NULL;
 5402              		.loc 1 2246 21
 5403 0088 7B68     		ldr	r3, [r7, #4]
 5404 008a 0022     		movs	r2, #0
 5405 008c DA63     		str	r2, [r3, #60]
 5406              	.L187:
2247:./Libraries/STM32F4xx_HAL_Driver/Src/stm32f4xx_hal_sd.c ****       }
2248:./Libraries/STM32F4xx_HAL_Driver/Src/stm32f4xx_hal_sd.c ****     }
2249:./Libraries/STM32F4xx_HAL_Driver/Src/stm32f4xx_hal_sd.c ****   }
2250:./Libraries/STM32F4xx_HAL_Driver/Src/stm32f4xx_hal_sd.c ****   
2251:./Libraries/STM32F4xx_HAL_Driver/Src/stm32f4xx_hal_sd.c ****   /* No transfer ongoing on both DMA channels*/
2252:./Libraries/STM32F4xx_HAL_Driver/Src/stm32f4xx_hal_sd.c ****   if((hsd->hdmatx == NULL) && (hsd->hdmarx == NULL))
 5407              		.loc 1 2252 10
 5408 008e 7B68     		ldr	r3, [r7, #4]
 5409 0090 1B6C     		ldr	r3, [r3, #64]
 5410              		.loc 1 2252 5
 5411 0092 002B     		cmp	r3, #0
ARM GAS  /tmp/ccMhfXg8.s 			page 136


 5412 0094 23D1     		bne	.L189
 5413              		.loc 1 2252 35 discriminator 1
 5414 0096 7B68     		ldr	r3, [r7, #4]
 5415 0098 DB6B     		ldr	r3, [r3, #60]
 5416              		.loc 1 2252 28 discriminator 1
 5417 009a 002B     		cmp	r3, #0
 5418 009c 1FD1     		bne	.L189
2253:./Libraries/STM32F4xx_HAL_Driver/Src/stm32f4xx_hal_sd.c ****   {
2254:./Libraries/STM32F4xx_HAL_Driver/Src/stm32f4xx_hal_sd.c ****     CardState = HAL_SD_GetCardState(hsd);
 5419              		.loc 1 2254 17
 5420 009e 7868     		ldr	r0, [r7, #4]
 5421 00a0 FFF7FEFF 		bl	HAL_SD_GetCardState
 5422 00a4 0346     		mov	r3, r0
 5423 00a6 FB73     		strb	r3, [r7, #15]
2255:./Libraries/STM32F4xx_HAL_Driver/Src/stm32f4xx_hal_sd.c ****     hsd->State = HAL_SD_STATE_READY;
 5424              		.loc 1 2255 16
 5425 00a8 7B68     		ldr	r3, [r7, #4]
 5426 00aa 0122     		movs	r2, #1
 5427 00ac 83F83420 		strb	r2, [r3, #52]
2256:./Libraries/STM32F4xx_HAL_Driver/Src/stm32f4xx_hal_sd.c ****     if((CardState == HAL_SD_CARD_RECEIVING) || (CardState == HAL_SD_CARD_SENDING))
 5428              		.loc 1 2256 7
 5429 00b0 FB7B     		ldrb	r3, [r7, #15]	@ zero_extendqisi2
 5430 00b2 062B     		cmp	r3, #6
 5431 00b4 02D0     		beq	.L190
 5432              		.loc 1 2256 45 discriminator 1
 5433 00b6 FB7B     		ldrb	r3, [r7, #15]	@ zero_extendqisi2
 5434 00b8 052B     		cmp	r3, #5
 5435 00ba 07D1     		bne	.L191
 5436              	.L190:
2257:./Libraries/STM32F4xx_HAL_Driver/Src/stm32f4xx_hal_sd.c ****     {
2258:./Libraries/STM32F4xx_HAL_Driver/Src/stm32f4xx_hal_sd.c ****       hsd->ErrorCode = SDMMC_CmdStopTransfer(hsd->Instance);
 5437              		.loc 1 2258 24
 5438 00bc 7B68     		ldr	r3, [r7, #4]
 5439 00be 1B68     		ldr	r3, [r3]
 5440 00c0 1846     		mov	r0, r3
 5441 00c2 FFF7FEFF 		bl	SDMMC_CmdStopTransfer
 5442 00c6 0246     		mov	r2, r0
 5443              		.loc 1 2258 22
 5444 00c8 7B68     		ldr	r3, [r7, #4]
 5445 00ca 9A63     		str	r2, [r3, #56]
 5446              	.L191:
2259:./Libraries/STM32F4xx_HAL_Driver/Src/stm32f4xx_hal_sd.c ****     }
2260:./Libraries/STM32F4xx_HAL_Driver/Src/stm32f4xx_hal_sd.c ****     if(hsd->ErrorCode != HAL_SD_ERROR_NONE)
 5447              		.loc 1 2260 11
 5448 00cc 7B68     		ldr	r3, [r7, #4]
 5449 00ce 9B6B     		ldr	r3, [r3, #56]
 5450              		.loc 1 2260 7
 5451 00d0 002B     		cmp	r3, #0
 5452 00d2 01D0     		beq	.L192
2261:./Libraries/STM32F4xx_HAL_Driver/Src/stm32f4xx_hal_sd.c ****     {
2262:./Libraries/STM32F4xx_HAL_Driver/Src/stm32f4xx_hal_sd.c ****       return HAL_ERROR;
 5453              		.loc 1 2262 14
 5454 00d4 0123     		movs	r3, #1
 5455 00d6 03E0     		b	.L193
 5456              	.L192:
2263:./Libraries/STM32F4xx_HAL_Driver/Src/stm32f4xx_hal_sd.c ****     }
2264:./Libraries/STM32F4xx_HAL_Driver/Src/stm32f4xx_hal_sd.c ****     else
ARM GAS  /tmp/ccMhfXg8.s 			page 137


2265:./Libraries/STM32F4xx_HAL_Driver/Src/stm32f4xx_hal_sd.c ****     {
2266:./Libraries/STM32F4xx_HAL_Driver/Src/stm32f4xx_hal_sd.c ****       HAL_SD_AbortCallback(hsd);
 5457              		.loc 1 2266 7
 5458 00d8 7868     		ldr	r0, [r7, #4]
 5459 00da FFF7FEFF 		bl	HAL_SD_AbortCallback
 5460              	.L189:
2267:./Libraries/STM32F4xx_HAL_Driver/Src/stm32f4xx_hal_sd.c ****     }
2268:./Libraries/STM32F4xx_HAL_Driver/Src/stm32f4xx_hal_sd.c ****   }
2269:./Libraries/STM32F4xx_HAL_Driver/Src/stm32f4xx_hal_sd.c ****   
2270:./Libraries/STM32F4xx_HAL_Driver/Src/stm32f4xx_hal_sd.c ****   return HAL_OK;
 5461              		.loc 1 2270 10
 5462 00de 0023     		movs	r3, #0
 5463              	.L193:
2271:./Libraries/STM32F4xx_HAL_Driver/Src/stm32f4xx_hal_sd.c **** }
 5464              		.loc 1 2271 1
 5465 00e0 1846     		mov	r0, r3
 5466 00e2 1037     		adds	r7, r7, #16
 5467              	.LCFI144:
 5468              		.cfi_def_cfa_offset 8
 5469 00e4 BD46     		mov	sp, r7
 5470              	.LCFI145:
 5471              		.cfi_def_cfa_register 13
 5472              		@ sp needed
 5473 00e6 80BD     		pop	{r7, pc}
 5474              	.L195:
 5475              		.align	2
 5476              	.L194:
 5477 00e8 00000000 		.word	SD_DMATxAbort
 5478 00ec 00000000 		.word	SD_DMARxAbort
 5479              		.cfi_endproc
 5480              	.LFE152:
 5482              		.section	.text.SD_DMATransmitCplt,"ax",%progbits
 5483              		.align	1
 5484              		.syntax unified
 5485              		.thumb
 5486              		.thumb_func
 5487              		.fpu fpv4-sp-d16
 5489              	SD_DMATransmitCplt:
 5490              	.LFB153:
2272:./Libraries/STM32F4xx_HAL_Driver/Src/stm32f4xx_hal_sd.c **** 
2273:./Libraries/STM32F4xx_HAL_Driver/Src/stm32f4xx_hal_sd.c **** /**
2274:./Libraries/STM32F4xx_HAL_Driver/Src/stm32f4xx_hal_sd.c ****   * @}
2275:./Libraries/STM32F4xx_HAL_Driver/Src/stm32f4xx_hal_sd.c ****   */
2276:./Libraries/STM32F4xx_HAL_Driver/Src/stm32f4xx_hal_sd.c ****   
2277:./Libraries/STM32F4xx_HAL_Driver/Src/stm32f4xx_hal_sd.c **** /**
2278:./Libraries/STM32F4xx_HAL_Driver/Src/stm32f4xx_hal_sd.c ****   * @}
2279:./Libraries/STM32F4xx_HAL_Driver/Src/stm32f4xx_hal_sd.c ****   */
2280:./Libraries/STM32F4xx_HAL_Driver/Src/stm32f4xx_hal_sd.c ****   
2281:./Libraries/STM32F4xx_HAL_Driver/Src/stm32f4xx_hal_sd.c **** /* Private function ----------------------------------------------------------*/  
2282:./Libraries/STM32F4xx_HAL_Driver/Src/stm32f4xx_hal_sd.c **** /** @addtogroup SD_Private_Functions
2283:./Libraries/STM32F4xx_HAL_Driver/Src/stm32f4xx_hal_sd.c ****   * @{
2284:./Libraries/STM32F4xx_HAL_Driver/Src/stm32f4xx_hal_sd.c ****   */
2285:./Libraries/STM32F4xx_HAL_Driver/Src/stm32f4xx_hal_sd.c **** 
2286:./Libraries/STM32F4xx_HAL_Driver/Src/stm32f4xx_hal_sd.c **** /**
2287:./Libraries/STM32F4xx_HAL_Driver/Src/stm32f4xx_hal_sd.c ****   * @brief  DMA SD transmit process complete callback 
2288:./Libraries/STM32F4xx_HAL_Driver/Src/stm32f4xx_hal_sd.c ****   * @param  hdma DMA handle
2289:./Libraries/STM32F4xx_HAL_Driver/Src/stm32f4xx_hal_sd.c ****   * @retval None
ARM GAS  /tmp/ccMhfXg8.s 			page 138


2290:./Libraries/STM32F4xx_HAL_Driver/Src/stm32f4xx_hal_sd.c ****   */
2291:./Libraries/STM32F4xx_HAL_Driver/Src/stm32f4xx_hal_sd.c **** static void SD_DMATransmitCplt(DMA_HandleTypeDef *hdma)     
2292:./Libraries/STM32F4xx_HAL_Driver/Src/stm32f4xx_hal_sd.c **** {
 5491              		.loc 1 2292 1
 5492              		.cfi_startproc
 5493              		@ args = 0, pretend = 0, frame = 16
 5494              		@ frame_needed = 1, uses_anonymous_args = 0
 5495              		@ link register save eliminated.
 5496 0000 80B4     		push	{r7}
 5497              	.LCFI146:
 5498              		.cfi_def_cfa_offset 4
 5499              		.cfi_offset 7, -4
 5500 0002 85B0     		sub	sp, sp, #20
 5501              	.LCFI147:
 5502              		.cfi_def_cfa_offset 24
 5503 0004 00AF     		add	r7, sp, #0
 5504              	.LCFI148:
 5505              		.cfi_def_cfa_register 7
 5506 0006 7860     		str	r0, [r7, #4]
2293:./Libraries/STM32F4xx_HAL_Driver/Src/stm32f4xx_hal_sd.c ****   SD_HandleTypeDef* hsd = (SD_HandleTypeDef* )(hdma->Parent);
 5507              		.loc 1 2293 21
 5508 0008 7B68     		ldr	r3, [r7, #4]
 5509 000a 9B6B     		ldr	r3, [r3, #56]
 5510 000c FB60     		str	r3, [r7, #12]
2294:./Libraries/STM32F4xx_HAL_Driver/Src/stm32f4xx_hal_sd.c ****   
2295:./Libraries/STM32F4xx_HAL_Driver/Src/stm32f4xx_hal_sd.c ****   /* Enable DATAEND Interrupt */
2296:./Libraries/STM32F4xx_HAL_Driver/Src/stm32f4xx_hal_sd.c ****   __HAL_SD_ENABLE_IT(hsd, (SDIO_IT_DATAEND));
 5511              		.loc 1 2296 3
 5512 000e FB68     		ldr	r3, [r7, #12]
 5513 0010 1B68     		ldr	r3, [r3]
 5514 0012 DA6B     		ldr	r2, [r3, #60]
 5515 0014 FB68     		ldr	r3, [r7, #12]
 5516 0016 1B68     		ldr	r3, [r3]
 5517 0018 42F48072 		orr	r2, r2, #256
 5518 001c DA63     		str	r2, [r3, #60]
2297:./Libraries/STM32F4xx_HAL_Driver/Src/stm32f4xx_hal_sd.c **** }
 5519              		.loc 1 2297 1
 5520 001e 00BF     		nop
 5521 0020 1437     		adds	r7, r7, #20
 5522              	.LCFI149:
 5523              		.cfi_def_cfa_offset 4
 5524 0022 BD46     		mov	sp, r7
 5525              	.LCFI150:
 5526              		.cfi_def_cfa_register 13
 5527              		@ sp needed
 5528 0024 5DF8047B 		ldr	r7, [sp], #4
 5529              	.LCFI151:
 5530              		.cfi_restore 7
 5531              		.cfi_def_cfa_offset 0
 5532 0028 7047     		bx	lr
 5533              		.cfi_endproc
 5534              	.LFE153:
 5536              		.section	.text.SD_DMAReceiveCplt,"ax",%progbits
 5537              		.align	1
 5538              		.syntax unified
 5539              		.thumb
 5540              		.thumb_func
ARM GAS  /tmp/ccMhfXg8.s 			page 139


 5541              		.fpu fpv4-sp-d16
 5543              	SD_DMAReceiveCplt:
 5544              	.LFB154:
2298:./Libraries/STM32F4xx_HAL_Driver/Src/stm32f4xx_hal_sd.c **** 
2299:./Libraries/STM32F4xx_HAL_Driver/Src/stm32f4xx_hal_sd.c **** /**
2300:./Libraries/STM32F4xx_HAL_Driver/Src/stm32f4xx_hal_sd.c ****   * @brief  DMA SD receive process complete callback 
2301:./Libraries/STM32F4xx_HAL_Driver/Src/stm32f4xx_hal_sd.c ****   * @param  hdma DMA handle
2302:./Libraries/STM32F4xx_HAL_Driver/Src/stm32f4xx_hal_sd.c ****   * @retval None
2303:./Libraries/STM32F4xx_HAL_Driver/Src/stm32f4xx_hal_sd.c ****   */
2304:./Libraries/STM32F4xx_HAL_Driver/Src/stm32f4xx_hal_sd.c **** static void SD_DMAReceiveCplt(DMA_HandleTypeDef *hdma)  
2305:./Libraries/STM32F4xx_HAL_Driver/Src/stm32f4xx_hal_sd.c **** {
 5545              		.loc 1 2305 1
 5546              		.cfi_startproc
 5547              		@ args = 0, pretend = 0, frame = 16
 5548              		@ frame_needed = 1, uses_anonymous_args = 0
 5549 0000 80B5     		push	{r7, lr}
 5550              	.LCFI152:
 5551              		.cfi_def_cfa_offset 8
 5552              		.cfi_offset 7, -8
 5553              		.cfi_offset 14, -4
 5554 0002 84B0     		sub	sp, sp, #16
 5555              	.LCFI153:
 5556              		.cfi_def_cfa_offset 24
 5557 0004 00AF     		add	r7, sp, #0
 5558              	.LCFI154:
 5559              		.cfi_def_cfa_register 7
 5560 0006 7860     		str	r0, [r7, #4]
2306:./Libraries/STM32F4xx_HAL_Driver/Src/stm32f4xx_hal_sd.c ****   SD_HandleTypeDef* hsd = (SD_HandleTypeDef* )(hdma->Parent);
 5561              		.loc 1 2306 21
 5562 0008 7B68     		ldr	r3, [r7, #4]
 5563 000a 9B6B     		ldr	r3, [r3, #56]
 5564 000c FB60     		str	r3, [r7, #12]
2307:./Libraries/STM32F4xx_HAL_Driver/Src/stm32f4xx_hal_sd.c ****   uint32_t errorstate = HAL_SD_ERROR_NONE;
 5565              		.loc 1 2307 12
 5566 000e 0023     		movs	r3, #0
 5567 0010 BB60     		str	r3, [r7, #8]
2308:./Libraries/STM32F4xx_HAL_Driver/Src/stm32f4xx_hal_sd.c ****   
2309:./Libraries/STM32F4xx_HAL_Driver/Src/stm32f4xx_hal_sd.c ****   /* Send stop command in multiblock write */
2310:./Libraries/STM32F4xx_HAL_Driver/Src/stm32f4xx_hal_sd.c ****   if(hsd->Context == (SD_CONTEXT_READ_MULTIPLE_BLOCK | SD_CONTEXT_DMA))
 5568              		.loc 1 2310 9
 5569 0012 FB68     		ldr	r3, [r7, #12]
 5570 0014 1B6B     		ldr	r3, [r3, #48]
 5571              		.loc 1 2310 5
 5572 0016 822B     		cmp	r3, #130
 5573 0018 11D1     		bne	.L198
2311:./Libraries/STM32F4xx_HAL_Driver/Src/stm32f4xx_hal_sd.c ****   {
2312:./Libraries/STM32F4xx_HAL_Driver/Src/stm32f4xx_hal_sd.c ****     errorstate = SDMMC_CmdStopTransfer(hsd->Instance);
 5574              		.loc 1 2312 18
 5575 001a FB68     		ldr	r3, [r7, #12]
 5576 001c 1B68     		ldr	r3, [r3]
 5577 001e 1846     		mov	r0, r3
 5578 0020 FFF7FEFF 		bl	SDMMC_CmdStopTransfer
 5579 0024 B860     		str	r0, [r7, #8]
2313:./Libraries/STM32F4xx_HAL_Driver/Src/stm32f4xx_hal_sd.c ****     if(errorstate != HAL_SD_ERROR_NONE)
 5580              		.loc 1 2313 7
 5581 0026 BB68     		ldr	r3, [r7, #8]
 5582 0028 002B     		cmp	r3, #0
ARM GAS  /tmp/ccMhfXg8.s 			page 140


 5583 002a 08D0     		beq	.L198
2314:./Libraries/STM32F4xx_HAL_Driver/Src/stm32f4xx_hal_sd.c ****     {
2315:./Libraries/STM32F4xx_HAL_Driver/Src/stm32f4xx_hal_sd.c ****       hsd->ErrorCode |= errorstate;
 5584              		.loc 1 2315 22
 5585 002c FB68     		ldr	r3, [r7, #12]
 5586 002e 9A6B     		ldr	r2, [r3, #56]
 5587 0030 BB68     		ldr	r3, [r7, #8]
 5588 0032 1A43     		orrs	r2, r2, r3
 5589 0034 FB68     		ldr	r3, [r7, #12]
 5590 0036 9A63     		str	r2, [r3, #56]
2316:./Libraries/STM32F4xx_HAL_Driver/Src/stm32f4xx_hal_sd.c ****       HAL_SD_ErrorCallback(hsd);
 5591              		.loc 1 2316 7
 5592 0038 F868     		ldr	r0, [r7, #12]
 5593 003a FFF7FEFF 		bl	HAL_SD_ErrorCallback
 5594              	.L198:
2317:./Libraries/STM32F4xx_HAL_Driver/Src/stm32f4xx_hal_sd.c ****     }
2318:./Libraries/STM32F4xx_HAL_Driver/Src/stm32f4xx_hal_sd.c ****   }
2319:./Libraries/STM32F4xx_HAL_Driver/Src/stm32f4xx_hal_sd.c ****   
2320:./Libraries/STM32F4xx_HAL_Driver/Src/stm32f4xx_hal_sd.c ****   /* Disable the DMA transfer for transmit request by setting the DMAEN bit
2321:./Libraries/STM32F4xx_HAL_Driver/Src/stm32f4xx_hal_sd.c ****   in the SD DCTRL register */
2322:./Libraries/STM32F4xx_HAL_Driver/Src/stm32f4xx_hal_sd.c ****   hsd->Instance->DCTRL &= (uint32_t)~((uint32_t)SDIO_DCTRL_DMAEN);
 5595              		.loc 1 2322 6
 5596 003e FB68     		ldr	r3, [r7, #12]
 5597 0040 1B68     		ldr	r3, [r3]
 5598              		.loc 1 2322 24
 5599 0042 DA6A     		ldr	r2, [r3, #44]
 5600              		.loc 1 2322 6
 5601 0044 FB68     		ldr	r3, [r7, #12]
 5602 0046 1B68     		ldr	r3, [r3]
 5603              		.loc 1 2322 24
 5604 0048 22F00802 		bic	r2, r2, #8
 5605 004c DA62     		str	r2, [r3, #44]
2323:./Libraries/STM32F4xx_HAL_Driver/Src/stm32f4xx_hal_sd.c ****   
2324:./Libraries/STM32F4xx_HAL_Driver/Src/stm32f4xx_hal_sd.c ****   /* Clear all the static flags */
2325:./Libraries/STM32F4xx_HAL_Driver/Src/stm32f4xx_hal_sd.c ****   __HAL_SD_CLEAR_FLAG(hsd, SDIO_STATIC_FLAGS);
 5606              		.loc 1 2325 3
 5607 004e FB68     		ldr	r3, [r7, #12]
 5608 0050 1B68     		ldr	r3, [r3]
 5609 0052 40F2FF52 		movw	r2, #1535
 5610 0056 9A63     		str	r2, [r3, #56]
2326:./Libraries/STM32F4xx_HAL_Driver/Src/stm32f4xx_hal_sd.c ****   
2327:./Libraries/STM32F4xx_HAL_Driver/Src/stm32f4xx_hal_sd.c ****   hsd->State = HAL_SD_STATE_READY;
 5611              		.loc 1 2327 14
 5612 0058 FB68     		ldr	r3, [r7, #12]
 5613 005a 0122     		movs	r2, #1
 5614 005c 83F83420 		strb	r2, [r3, #52]
2328:./Libraries/STM32F4xx_HAL_Driver/Src/stm32f4xx_hal_sd.c **** 
2329:./Libraries/STM32F4xx_HAL_Driver/Src/stm32f4xx_hal_sd.c ****   HAL_SD_RxCpltCallback(hsd);
 5615              		.loc 1 2329 3
 5616 0060 F868     		ldr	r0, [r7, #12]
 5617 0062 FFF7FEFF 		bl	HAL_SD_RxCpltCallback
2330:./Libraries/STM32F4xx_HAL_Driver/Src/stm32f4xx_hal_sd.c **** }
 5618              		.loc 1 2330 1
 5619 0066 00BF     		nop
 5620 0068 1037     		adds	r7, r7, #16
 5621              	.LCFI155:
 5622              		.cfi_def_cfa_offset 8
ARM GAS  /tmp/ccMhfXg8.s 			page 141


 5623 006a BD46     		mov	sp, r7
 5624              	.LCFI156:
 5625              		.cfi_def_cfa_register 13
 5626              		@ sp needed
 5627 006c 80BD     		pop	{r7, pc}
 5628              		.cfi_endproc
 5629              	.LFE154:
 5631              		.section	.text.SD_DMAError,"ax",%progbits
 5632              		.align	1
 5633              		.syntax unified
 5634              		.thumb
 5635              		.thumb_func
 5636              		.fpu fpv4-sp-d16
 5638              	SD_DMAError:
 5639              	.LFB155:
2331:./Libraries/STM32F4xx_HAL_Driver/Src/stm32f4xx_hal_sd.c **** 
2332:./Libraries/STM32F4xx_HAL_Driver/Src/stm32f4xx_hal_sd.c **** /**
2333:./Libraries/STM32F4xx_HAL_Driver/Src/stm32f4xx_hal_sd.c ****   * @brief  DMA SD communication error callback 
2334:./Libraries/STM32F4xx_HAL_Driver/Src/stm32f4xx_hal_sd.c ****   * @param  hdma DMA handle
2335:./Libraries/STM32F4xx_HAL_Driver/Src/stm32f4xx_hal_sd.c ****   * @retval None
2336:./Libraries/STM32F4xx_HAL_Driver/Src/stm32f4xx_hal_sd.c ****   */
2337:./Libraries/STM32F4xx_HAL_Driver/Src/stm32f4xx_hal_sd.c **** static void SD_DMAError(DMA_HandleTypeDef *hdma)   
2338:./Libraries/STM32F4xx_HAL_Driver/Src/stm32f4xx_hal_sd.c **** {
 5640              		.loc 1 2338 1
 5641              		.cfi_startproc
 5642              		@ args = 0, pretend = 0, frame = 16
 5643              		@ frame_needed = 1, uses_anonymous_args = 0
 5644 0000 80B5     		push	{r7, lr}
 5645              	.LCFI157:
 5646              		.cfi_def_cfa_offset 8
 5647              		.cfi_offset 7, -8
 5648              		.cfi_offset 14, -4
 5649 0002 84B0     		sub	sp, sp, #16
 5650              	.LCFI158:
 5651              		.cfi_def_cfa_offset 24
 5652 0004 00AF     		add	r7, sp, #0
 5653              	.LCFI159:
 5654              		.cfi_def_cfa_register 7
 5655 0006 7860     		str	r0, [r7, #4]
2339:./Libraries/STM32F4xx_HAL_Driver/Src/stm32f4xx_hal_sd.c ****   SD_HandleTypeDef* hsd = (SD_HandleTypeDef* )(hdma->Parent);
 5656              		.loc 1 2339 21
 5657 0008 7B68     		ldr	r3, [r7, #4]
 5658 000a 9B6B     		ldr	r3, [r3, #56]
 5659 000c FB60     		str	r3, [r7, #12]
2340:./Libraries/STM32F4xx_HAL_Driver/Src/stm32f4xx_hal_sd.c ****   HAL_SD_CardStateTypeDef CardState;
2341:./Libraries/STM32F4xx_HAL_Driver/Src/stm32f4xx_hal_sd.c ****   
2342:./Libraries/STM32F4xx_HAL_Driver/Src/stm32f4xx_hal_sd.c ****   if((hsd->hdmarx->ErrorCode == HAL_DMA_ERROR_TE) || (hsd->hdmatx->ErrorCode == HAL_DMA_ERROR_TE))
 5660              		.loc 1 2342 10
 5661 000e FB68     		ldr	r3, [r7, #12]
 5662 0010 DB6B     		ldr	r3, [r3, #60]
 5663              		.loc 1 2342 18
 5664 0012 5B6D     		ldr	r3, [r3, #84]
 5665              		.loc 1 2342 5
 5666 0014 012B     		cmp	r3, #1
 5667 0016 04D0     		beq	.L200
 5668              		.loc 1 2342 58 discriminator 1
 5669 0018 FB68     		ldr	r3, [r7, #12]
ARM GAS  /tmp/ccMhfXg8.s 			page 142


 5670 001a 1B6C     		ldr	r3, [r3, #64]
 5671              		.loc 1 2342 66 discriminator 1
 5672 001c 5B6D     		ldr	r3, [r3, #84]
 5673              		.loc 1 2342 51 discriminator 1
 5674 001e 012B     		cmp	r3, #1
 5675 0020 2CD1     		bne	.L201
 5676              	.L200:
2343:./Libraries/STM32F4xx_HAL_Driver/Src/stm32f4xx_hal_sd.c ****   {
2344:./Libraries/STM32F4xx_HAL_Driver/Src/stm32f4xx_hal_sd.c ****     /* Clear All flags */
2345:./Libraries/STM32F4xx_HAL_Driver/Src/stm32f4xx_hal_sd.c ****     __HAL_SD_CLEAR_FLAG(hsd, SDIO_STATIC_FLAGS);
 5677              		.loc 1 2345 5
 5678 0022 FB68     		ldr	r3, [r7, #12]
 5679 0024 1B68     		ldr	r3, [r3]
 5680 0026 40F2FF52 		movw	r2, #1535
 5681 002a 9A63     		str	r2, [r3, #56]
2346:./Libraries/STM32F4xx_HAL_Driver/Src/stm32f4xx_hal_sd.c ****     
2347:./Libraries/STM32F4xx_HAL_Driver/Src/stm32f4xx_hal_sd.c ****     /* Disable All interrupts */
2348:./Libraries/STM32F4xx_HAL_Driver/Src/stm32f4xx_hal_sd.c ****     __HAL_SD_DISABLE_IT(hsd, SDIO_IT_DATAEND | SDIO_IT_DCRCFAIL | SDIO_IT_DTIMEOUT|\
 5682              		.loc 1 2348 5
 5683 002c FB68     		ldr	r3, [r7, #12]
 5684 002e 1B68     		ldr	r3, [r3]
 5685 0030 DA6B     		ldr	r2, [r3, #60]
 5686 0032 FB68     		ldr	r3, [r7, #12]
 5687 0034 1B68     		ldr	r3, [r3]
 5688 0036 22F49D72 		bic	r2, r2, #314
 5689 003a DA63     		str	r2, [r3, #60]
2349:./Libraries/STM32F4xx_HAL_Driver/Src/stm32f4xx_hal_sd.c ****       SDIO_IT_TXUNDERR| SDIO_IT_RXOVERR);
2350:./Libraries/STM32F4xx_HAL_Driver/Src/stm32f4xx_hal_sd.c ****     
2351:./Libraries/STM32F4xx_HAL_Driver/Src/stm32f4xx_hal_sd.c ****     hsd->ErrorCode |= HAL_SD_ERROR_DMA;
 5690              		.loc 1 2351 20
 5691 003c FB68     		ldr	r3, [r7, #12]
 5692 003e 9B6B     		ldr	r3, [r3, #56]
 5693 0040 43F08042 		orr	r2, r3, #1073741824
 5694 0044 FB68     		ldr	r3, [r7, #12]
 5695 0046 9A63     		str	r2, [r3, #56]
2352:./Libraries/STM32F4xx_HAL_Driver/Src/stm32f4xx_hal_sd.c ****     CardState = HAL_SD_GetCardState(hsd);
 5696              		.loc 1 2352 17
 5697 0048 F868     		ldr	r0, [r7, #12]
 5698 004a FFF7FEFF 		bl	HAL_SD_GetCardState
 5699 004e 0346     		mov	r3, r0
 5700 0050 FB72     		strb	r3, [r7, #11]
2353:./Libraries/STM32F4xx_HAL_Driver/Src/stm32f4xx_hal_sd.c ****     if((CardState == HAL_SD_CARD_RECEIVING) || (CardState == HAL_SD_CARD_SENDING))
 5701              		.loc 1 2353 7
 5702 0052 FB7A     		ldrb	r3, [r7, #11]	@ zero_extendqisi2
 5703 0054 062B     		cmp	r3, #6
 5704 0056 02D0     		beq	.L202
 5705              		.loc 1 2353 45 discriminator 1
 5706 0058 FB7A     		ldrb	r3, [r7, #11]	@ zero_extendqisi2
 5707 005a 052B     		cmp	r3, #5
 5708 005c 0AD1     		bne	.L203
 5709              	.L202:
2354:./Libraries/STM32F4xx_HAL_Driver/Src/stm32f4xx_hal_sd.c ****     {
2355:./Libraries/STM32F4xx_HAL_Driver/Src/stm32f4xx_hal_sd.c ****       hsd->ErrorCode |= SDMMC_CmdStopTransfer(hsd->Instance);
 5710              		.loc 1 2355 25
 5711 005e FB68     		ldr	r3, [r7, #12]
 5712 0060 1B68     		ldr	r3, [r3]
 5713 0062 1846     		mov	r0, r3
ARM GAS  /tmp/ccMhfXg8.s 			page 143


 5714 0064 FFF7FEFF 		bl	SDMMC_CmdStopTransfer
 5715 0068 0246     		mov	r2, r0
 5716              		.loc 1 2355 22
 5717 006a FB68     		ldr	r3, [r7, #12]
 5718 006c 9B6B     		ldr	r3, [r3, #56]
 5719 006e 1A43     		orrs	r2, r2, r3
 5720 0070 FB68     		ldr	r3, [r7, #12]
 5721 0072 9A63     		str	r2, [r3, #56]
 5722              	.L203:
2356:./Libraries/STM32F4xx_HAL_Driver/Src/stm32f4xx_hal_sd.c ****     }
2357:./Libraries/STM32F4xx_HAL_Driver/Src/stm32f4xx_hal_sd.c ****     
2358:./Libraries/STM32F4xx_HAL_Driver/Src/stm32f4xx_hal_sd.c ****     hsd->State= HAL_SD_STATE_READY;
 5723              		.loc 1 2358 15
 5724 0074 FB68     		ldr	r3, [r7, #12]
 5725 0076 0122     		movs	r2, #1
 5726 0078 83F83420 		strb	r2, [r3, #52]
 5727              	.L201:
2359:./Libraries/STM32F4xx_HAL_Driver/Src/stm32f4xx_hal_sd.c ****   }
2360:./Libraries/STM32F4xx_HAL_Driver/Src/stm32f4xx_hal_sd.c **** 
2361:./Libraries/STM32F4xx_HAL_Driver/Src/stm32f4xx_hal_sd.c ****   HAL_SD_ErrorCallback(hsd);
 5728              		.loc 1 2361 3
 5729 007c F868     		ldr	r0, [r7, #12]
 5730 007e FFF7FEFF 		bl	HAL_SD_ErrorCallback
2362:./Libraries/STM32F4xx_HAL_Driver/Src/stm32f4xx_hal_sd.c **** }
 5731              		.loc 1 2362 1
 5732 0082 00BF     		nop
 5733 0084 1037     		adds	r7, r7, #16
 5734              	.LCFI160:
 5735              		.cfi_def_cfa_offset 8
 5736 0086 BD46     		mov	sp, r7
 5737              	.LCFI161:
 5738              		.cfi_def_cfa_register 13
 5739              		@ sp needed
 5740 0088 80BD     		pop	{r7, pc}
 5741              		.cfi_endproc
 5742              	.LFE155:
 5744              		.section	.text.SD_DMATxAbort,"ax",%progbits
 5745              		.align	1
 5746              		.syntax unified
 5747              		.thumb
 5748              		.thumb_func
 5749              		.fpu fpv4-sp-d16
 5751              	SD_DMATxAbort:
 5752              	.LFB156:
2363:./Libraries/STM32F4xx_HAL_Driver/Src/stm32f4xx_hal_sd.c **** 
2364:./Libraries/STM32F4xx_HAL_Driver/Src/stm32f4xx_hal_sd.c **** /**
2365:./Libraries/STM32F4xx_HAL_Driver/Src/stm32f4xx_hal_sd.c ****   * @brief  DMA SD Tx Abort callback 
2366:./Libraries/STM32F4xx_HAL_Driver/Src/stm32f4xx_hal_sd.c ****   * @param  hdma DMA handle
2367:./Libraries/STM32F4xx_HAL_Driver/Src/stm32f4xx_hal_sd.c ****   * @retval None
2368:./Libraries/STM32F4xx_HAL_Driver/Src/stm32f4xx_hal_sd.c ****   */
2369:./Libraries/STM32F4xx_HAL_Driver/Src/stm32f4xx_hal_sd.c **** static void SD_DMATxAbort(DMA_HandleTypeDef *hdma)   
2370:./Libraries/STM32F4xx_HAL_Driver/Src/stm32f4xx_hal_sd.c **** {
 5753              		.loc 1 2370 1
 5754              		.cfi_startproc
 5755              		@ args = 0, pretend = 0, frame = 16
 5756              		@ frame_needed = 1, uses_anonymous_args = 0
 5757 0000 80B5     		push	{r7, lr}
ARM GAS  /tmp/ccMhfXg8.s 			page 144


 5758              	.LCFI162:
 5759              		.cfi_def_cfa_offset 8
 5760              		.cfi_offset 7, -8
 5761              		.cfi_offset 14, -4
 5762 0002 84B0     		sub	sp, sp, #16
 5763              	.LCFI163:
 5764              		.cfi_def_cfa_offset 24
 5765 0004 00AF     		add	r7, sp, #0
 5766              	.LCFI164:
 5767              		.cfi_def_cfa_register 7
 5768 0006 7860     		str	r0, [r7, #4]
2371:./Libraries/STM32F4xx_HAL_Driver/Src/stm32f4xx_hal_sd.c ****   SD_HandleTypeDef* hsd = (SD_HandleTypeDef* )(hdma->Parent);
 5769              		.loc 1 2371 21
 5770 0008 7B68     		ldr	r3, [r7, #4]
 5771 000a 9B6B     		ldr	r3, [r3, #56]
 5772 000c FB60     		str	r3, [r7, #12]
2372:./Libraries/STM32F4xx_HAL_Driver/Src/stm32f4xx_hal_sd.c ****   HAL_SD_CardStateTypeDef CardState;
2373:./Libraries/STM32F4xx_HAL_Driver/Src/stm32f4xx_hal_sd.c ****   
2374:./Libraries/STM32F4xx_HAL_Driver/Src/stm32f4xx_hal_sd.c ****   if(hsd->hdmatx != NULL)
 5773              		.loc 1 2374 9
 5774 000e FB68     		ldr	r3, [r7, #12]
 5775 0010 1B6C     		ldr	r3, [r3, #64]
 5776              		.loc 1 2374 5
 5777 0012 002B     		cmp	r3, #0
 5778 0014 02D0     		beq	.L205
2375:./Libraries/STM32F4xx_HAL_Driver/Src/stm32f4xx_hal_sd.c ****   {
2376:./Libraries/STM32F4xx_HAL_Driver/Src/stm32f4xx_hal_sd.c ****     hsd->hdmatx = NULL;
 5779              		.loc 1 2376 17
 5780 0016 FB68     		ldr	r3, [r7, #12]
 5781 0018 0022     		movs	r2, #0
 5782 001a 1A64     		str	r2, [r3, #64]
 5783              	.L205:
2377:./Libraries/STM32F4xx_HAL_Driver/Src/stm32f4xx_hal_sd.c ****   }
2378:./Libraries/STM32F4xx_HAL_Driver/Src/stm32f4xx_hal_sd.c ****   
2379:./Libraries/STM32F4xx_HAL_Driver/Src/stm32f4xx_hal_sd.c ****   /* All DMA channels are aborted */
2380:./Libraries/STM32F4xx_HAL_Driver/Src/stm32f4xx_hal_sd.c ****   if(hsd->hdmarx == NULL)
 5784              		.loc 1 2380 9
 5785 001c FB68     		ldr	r3, [r7, #12]
 5786 001e DB6B     		ldr	r3, [r3, #60]
 5787              		.loc 1 2380 5
 5788 0020 002B     		cmp	r3, #0
 5789 0022 27D1     		bne	.L209
2381:./Libraries/STM32F4xx_HAL_Driver/Src/stm32f4xx_hal_sd.c ****   {
2382:./Libraries/STM32F4xx_HAL_Driver/Src/stm32f4xx_hal_sd.c ****     CardState = HAL_SD_GetCardState(hsd);
 5790              		.loc 1 2382 17
 5791 0024 F868     		ldr	r0, [r7, #12]
 5792 0026 FFF7FEFF 		bl	HAL_SD_GetCardState
 5793 002a 0346     		mov	r3, r0
 5794 002c FB72     		strb	r3, [r7, #11]
2383:./Libraries/STM32F4xx_HAL_Driver/Src/stm32f4xx_hal_sd.c ****     hsd->ErrorCode = HAL_SD_ERROR_NONE;
 5795              		.loc 1 2383 20
 5796 002e FB68     		ldr	r3, [r7, #12]
 5797 0030 0022     		movs	r2, #0
 5798 0032 9A63     		str	r2, [r3, #56]
2384:./Libraries/STM32F4xx_HAL_Driver/Src/stm32f4xx_hal_sd.c ****     hsd->State = HAL_SD_STATE_READY;
 5799              		.loc 1 2384 16
 5800 0034 FB68     		ldr	r3, [r7, #12]
ARM GAS  /tmp/ccMhfXg8.s 			page 145


 5801 0036 0122     		movs	r2, #1
 5802 0038 83F83420 		strb	r2, [r3, #52]
2385:./Libraries/STM32F4xx_HAL_Driver/Src/stm32f4xx_hal_sd.c ****     if((CardState == HAL_SD_CARD_RECEIVING) || (CardState == HAL_SD_CARD_SENDING))
 5803              		.loc 1 2385 7
 5804 003c FB7A     		ldrb	r3, [r7, #11]	@ zero_extendqisi2
 5805 003e 062B     		cmp	r3, #6
 5806 0040 02D0     		beq	.L207
 5807              		.loc 1 2385 45 discriminator 1
 5808 0042 FB7A     		ldrb	r3, [r7, #11]	@ zero_extendqisi2
 5809 0044 052B     		cmp	r3, #5
 5810 0046 15D1     		bne	.L209
 5811              	.L207:
2386:./Libraries/STM32F4xx_HAL_Driver/Src/stm32f4xx_hal_sd.c ****     {
2387:./Libraries/STM32F4xx_HAL_Driver/Src/stm32f4xx_hal_sd.c ****       hsd->ErrorCode |= SDMMC_CmdStopTransfer(hsd->Instance);
 5812              		.loc 1 2387 25
 5813 0048 FB68     		ldr	r3, [r7, #12]
 5814 004a 1B68     		ldr	r3, [r3]
 5815 004c 1846     		mov	r0, r3
 5816 004e FFF7FEFF 		bl	SDMMC_CmdStopTransfer
 5817 0052 0246     		mov	r2, r0
 5818              		.loc 1 2387 22
 5819 0054 FB68     		ldr	r3, [r7, #12]
 5820 0056 9B6B     		ldr	r3, [r3, #56]
 5821 0058 1A43     		orrs	r2, r2, r3
 5822 005a FB68     		ldr	r3, [r7, #12]
 5823 005c 9A63     		str	r2, [r3, #56]
2388:./Libraries/STM32F4xx_HAL_Driver/Src/stm32f4xx_hal_sd.c ****       
2389:./Libraries/STM32F4xx_HAL_Driver/Src/stm32f4xx_hal_sd.c ****       if(hsd->ErrorCode != HAL_SD_ERROR_NONE)
 5824              		.loc 1 2389 13
 5825 005e FB68     		ldr	r3, [r7, #12]
 5826 0060 9B6B     		ldr	r3, [r3, #56]
 5827              		.loc 1 2389 9
 5828 0062 002B     		cmp	r3, #0
 5829 0064 03D0     		beq	.L208
2390:./Libraries/STM32F4xx_HAL_Driver/Src/stm32f4xx_hal_sd.c ****       {
2391:./Libraries/STM32F4xx_HAL_Driver/Src/stm32f4xx_hal_sd.c ****         HAL_SD_AbortCallback(hsd);
 5830              		.loc 1 2391 9
 5831 0066 F868     		ldr	r0, [r7, #12]
 5832 0068 FFF7FEFF 		bl	HAL_SD_AbortCallback
2392:./Libraries/STM32F4xx_HAL_Driver/Src/stm32f4xx_hal_sd.c ****       }
2393:./Libraries/STM32F4xx_HAL_Driver/Src/stm32f4xx_hal_sd.c ****       else
2394:./Libraries/STM32F4xx_HAL_Driver/Src/stm32f4xx_hal_sd.c ****       {
2395:./Libraries/STM32F4xx_HAL_Driver/Src/stm32f4xx_hal_sd.c ****         HAL_SD_ErrorCallback(hsd);
2396:./Libraries/STM32F4xx_HAL_Driver/Src/stm32f4xx_hal_sd.c ****       }
2397:./Libraries/STM32F4xx_HAL_Driver/Src/stm32f4xx_hal_sd.c ****     }
2398:./Libraries/STM32F4xx_HAL_Driver/Src/stm32f4xx_hal_sd.c ****   }
2399:./Libraries/STM32F4xx_HAL_Driver/Src/stm32f4xx_hal_sd.c **** }
 5833              		.loc 1 2399 1
 5834 006c 02E0     		b	.L209
 5835              	.L208:
2395:./Libraries/STM32F4xx_HAL_Driver/Src/stm32f4xx_hal_sd.c ****       }
 5836              		.loc 1 2395 9
 5837 006e F868     		ldr	r0, [r7, #12]
 5838 0070 FFF7FEFF 		bl	HAL_SD_ErrorCallback
 5839              	.L209:
 5840              		.loc 1 2399 1
 5841 0074 00BF     		nop
ARM GAS  /tmp/ccMhfXg8.s 			page 146


 5842 0076 1037     		adds	r7, r7, #16
 5843              	.LCFI165:
 5844              		.cfi_def_cfa_offset 8
 5845 0078 BD46     		mov	sp, r7
 5846              	.LCFI166:
 5847              		.cfi_def_cfa_register 13
 5848              		@ sp needed
 5849 007a 80BD     		pop	{r7, pc}
 5850              		.cfi_endproc
 5851              	.LFE156:
 5853              		.section	.text.SD_DMARxAbort,"ax",%progbits
 5854              		.align	1
 5855              		.syntax unified
 5856              		.thumb
 5857              		.thumb_func
 5858              		.fpu fpv4-sp-d16
 5860              	SD_DMARxAbort:
 5861              	.LFB157:
2400:./Libraries/STM32F4xx_HAL_Driver/Src/stm32f4xx_hal_sd.c **** 
2401:./Libraries/STM32F4xx_HAL_Driver/Src/stm32f4xx_hal_sd.c **** /**
2402:./Libraries/STM32F4xx_HAL_Driver/Src/stm32f4xx_hal_sd.c ****   * @brief  DMA SD Rx Abort callback 
2403:./Libraries/STM32F4xx_HAL_Driver/Src/stm32f4xx_hal_sd.c ****   * @param  hdma DMA handle
2404:./Libraries/STM32F4xx_HAL_Driver/Src/stm32f4xx_hal_sd.c ****   * @retval None
2405:./Libraries/STM32F4xx_HAL_Driver/Src/stm32f4xx_hal_sd.c ****   */
2406:./Libraries/STM32F4xx_HAL_Driver/Src/stm32f4xx_hal_sd.c **** static void SD_DMARxAbort(DMA_HandleTypeDef *hdma)   
2407:./Libraries/STM32F4xx_HAL_Driver/Src/stm32f4xx_hal_sd.c **** {
 5862              		.loc 1 2407 1
 5863              		.cfi_startproc
 5864              		@ args = 0, pretend = 0, frame = 16
 5865              		@ frame_needed = 1, uses_anonymous_args = 0
 5866 0000 80B5     		push	{r7, lr}
 5867              	.LCFI167:
 5868              		.cfi_def_cfa_offset 8
 5869              		.cfi_offset 7, -8
 5870              		.cfi_offset 14, -4
 5871 0002 84B0     		sub	sp, sp, #16
 5872              	.LCFI168:
 5873              		.cfi_def_cfa_offset 24
 5874 0004 00AF     		add	r7, sp, #0
 5875              	.LCFI169:
 5876              		.cfi_def_cfa_register 7
 5877 0006 7860     		str	r0, [r7, #4]
2408:./Libraries/STM32F4xx_HAL_Driver/Src/stm32f4xx_hal_sd.c ****   SD_HandleTypeDef* hsd = (SD_HandleTypeDef* )(hdma->Parent);
 5878              		.loc 1 2408 21
 5879 0008 7B68     		ldr	r3, [r7, #4]
 5880 000a 9B6B     		ldr	r3, [r3, #56]
 5881 000c FB60     		str	r3, [r7, #12]
2409:./Libraries/STM32F4xx_HAL_Driver/Src/stm32f4xx_hal_sd.c ****   HAL_SD_CardStateTypeDef CardState;
2410:./Libraries/STM32F4xx_HAL_Driver/Src/stm32f4xx_hal_sd.c ****   
2411:./Libraries/STM32F4xx_HAL_Driver/Src/stm32f4xx_hal_sd.c ****   if(hsd->hdmarx != NULL)
 5882              		.loc 1 2411 9
 5883 000e FB68     		ldr	r3, [r7, #12]
 5884 0010 DB6B     		ldr	r3, [r3, #60]
 5885              		.loc 1 2411 5
 5886 0012 002B     		cmp	r3, #0
 5887 0014 02D0     		beq	.L211
2412:./Libraries/STM32F4xx_HAL_Driver/Src/stm32f4xx_hal_sd.c ****   {
ARM GAS  /tmp/ccMhfXg8.s 			page 147


2413:./Libraries/STM32F4xx_HAL_Driver/Src/stm32f4xx_hal_sd.c ****     hsd->hdmarx = NULL;
 5888              		.loc 1 2413 17
 5889 0016 FB68     		ldr	r3, [r7, #12]
 5890 0018 0022     		movs	r2, #0
 5891 001a DA63     		str	r2, [r3, #60]
 5892              	.L211:
2414:./Libraries/STM32F4xx_HAL_Driver/Src/stm32f4xx_hal_sd.c ****   }
2415:./Libraries/STM32F4xx_HAL_Driver/Src/stm32f4xx_hal_sd.c ****   
2416:./Libraries/STM32F4xx_HAL_Driver/Src/stm32f4xx_hal_sd.c ****   /* All DMA channels are aborted */
2417:./Libraries/STM32F4xx_HAL_Driver/Src/stm32f4xx_hal_sd.c ****   if(hsd->hdmatx == NULL)
 5893              		.loc 1 2417 9
 5894 001c FB68     		ldr	r3, [r7, #12]
 5895 001e 1B6C     		ldr	r3, [r3, #64]
 5896              		.loc 1 2417 5
 5897 0020 002B     		cmp	r3, #0
 5898 0022 27D1     		bne	.L215
2418:./Libraries/STM32F4xx_HAL_Driver/Src/stm32f4xx_hal_sd.c ****   {
2419:./Libraries/STM32F4xx_HAL_Driver/Src/stm32f4xx_hal_sd.c ****     CardState = HAL_SD_GetCardState(hsd);
 5899              		.loc 1 2419 17
 5900 0024 F868     		ldr	r0, [r7, #12]
 5901 0026 FFF7FEFF 		bl	HAL_SD_GetCardState
 5902 002a 0346     		mov	r3, r0
 5903 002c FB72     		strb	r3, [r7, #11]
2420:./Libraries/STM32F4xx_HAL_Driver/Src/stm32f4xx_hal_sd.c ****     hsd->ErrorCode = HAL_SD_ERROR_NONE;
 5904              		.loc 1 2420 20
 5905 002e FB68     		ldr	r3, [r7, #12]
 5906 0030 0022     		movs	r2, #0
 5907 0032 9A63     		str	r2, [r3, #56]
2421:./Libraries/STM32F4xx_HAL_Driver/Src/stm32f4xx_hal_sd.c ****     hsd->State = HAL_SD_STATE_READY;
 5908              		.loc 1 2421 16
 5909 0034 FB68     		ldr	r3, [r7, #12]
 5910 0036 0122     		movs	r2, #1
 5911 0038 83F83420 		strb	r2, [r3, #52]
2422:./Libraries/STM32F4xx_HAL_Driver/Src/stm32f4xx_hal_sd.c ****     if((CardState == HAL_SD_CARD_RECEIVING) || (CardState == HAL_SD_CARD_SENDING))
 5912              		.loc 1 2422 7
 5913 003c FB7A     		ldrb	r3, [r7, #11]	@ zero_extendqisi2
 5914 003e 062B     		cmp	r3, #6
 5915 0040 02D0     		beq	.L213
 5916              		.loc 1 2422 45 discriminator 1
 5917 0042 FB7A     		ldrb	r3, [r7, #11]	@ zero_extendqisi2
 5918 0044 052B     		cmp	r3, #5
 5919 0046 15D1     		bne	.L215
 5920              	.L213:
2423:./Libraries/STM32F4xx_HAL_Driver/Src/stm32f4xx_hal_sd.c ****     {
2424:./Libraries/STM32F4xx_HAL_Driver/Src/stm32f4xx_hal_sd.c ****       hsd->ErrorCode |= SDMMC_CmdStopTransfer(hsd->Instance);
 5921              		.loc 1 2424 25
 5922 0048 FB68     		ldr	r3, [r7, #12]
 5923 004a 1B68     		ldr	r3, [r3]
 5924 004c 1846     		mov	r0, r3
 5925 004e FFF7FEFF 		bl	SDMMC_CmdStopTransfer
 5926 0052 0246     		mov	r2, r0
 5927              		.loc 1 2424 22
 5928 0054 FB68     		ldr	r3, [r7, #12]
 5929 0056 9B6B     		ldr	r3, [r3, #56]
 5930 0058 1A43     		orrs	r2, r2, r3
 5931 005a FB68     		ldr	r3, [r7, #12]
 5932 005c 9A63     		str	r2, [r3, #56]
ARM GAS  /tmp/ccMhfXg8.s 			page 148


2425:./Libraries/STM32F4xx_HAL_Driver/Src/stm32f4xx_hal_sd.c ****       
2426:./Libraries/STM32F4xx_HAL_Driver/Src/stm32f4xx_hal_sd.c ****       if(hsd->ErrorCode != HAL_SD_ERROR_NONE)
 5933              		.loc 1 2426 13
 5934 005e FB68     		ldr	r3, [r7, #12]
 5935 0060 9B6B     		ldr	r3, [r3, #56]
 5936              		.loc 1 2426 9
 5937 0062 002B     		cmp	r3, #0
 5938 0064 03D0     		beq	.L214
2427:./Libraries/STM32F4xx_HAL_Driver/Src/stm32f4xx_hal_sd.c ****       {
2428:./Libraries/STM32F4xx_HAL_Driver/Src/stm32f4xx_hal_sd.c ****         HAL_SD_AbortCallback(hsd);
 5939              		.loc 1 2428 9
 5940 0066 F868     		ldr	r0, [r7, #12]
 5941 0068 FFF7FEFF 		bl	HAL_SD_AbortCallback
2429:./Libraries/STM32F4xx_HAL_Driver/Src/stm32f4xx_hal_sd.c ****       }
2430:./Libraries/STM32F4xx_HAL_Driver/Src/stm32f4xx_hal_sd.c ****       else
2431:./Libraries/STM32F4xx_HAL_Driver/Src/stm32f4xx_hal_sd.c ****       {
2432:./Libraries/STM32F4xx_HAL_Driver/Src/stm32f4xx_hal_sd.c ****         HAL_SD_ErrorCallback(hsd);
2433:./Libraries/STM32F4xx_HAL_Driver/Src/stm32f4xx_hal_sd.c ****       }
2434:./Libraries/STM32F4xx_HAL_Driver/Src/stm32f4xx_hal_sd.c ****     }
2435:./Libraries/STM32F4xx_HAL_Driver/Src/stm32f4xx_hal_sd.c ****   }
2436:./Libraries/STM32F4xx_HAL_Driver/Src/stm32f4xx_hal_sd.c **** }
 5942              		.loc 1 2436 1
 5943 006c 02E0     		b	.L215
 5944              	.L214:
2432:./Libraries/STM32F4xx_HAL_Driver/Src/stm32f4xx_hal_sd.c ****       }
 5945              		.loc 1 2432 9
 5946 006e F868     		ldr	r0, [r7, #12]
 5947 0070 FFF7FEFF 		bl	HAL_SD_ErrorCallback
 5948              	.L215:
 5949              		.loc 1 2436 1
 5950 0074 00BF     		nop
 5951 0076 1037     		adds	r7, r7, #16
 5952              	.LCFI170:
 5953              		.cfi_def_cfa_offset 8
 5954 0078 BD46     		mov	sp, r7
 5955              	.LCFI171:
 5956              		.cfi_def_cfa_register 13
 5957              		@ sp needed
 5958 007a 80BD     		pop	{r7, pc}
 5959              		.cfi_endproc
 5960              	.LFE157:
 5962              		.section	.text.SD_InitCard,"ax",%progbits
 5963              		.align	1
 5964              		.syntax unified
 5965              		.thumb
 5966              		.thumb_func
 5967              		.fpu fpv4-sp-d16
 5969              	SD_InitCard:
 5970              	.LFB158:
2437:./Libraries/STM32F4xx_HAL_Driver/Src/stm32f4xx_hal_sd.c **** 
2438:./Libraries/STM32F4xx_HAL_Driver/Src/stm32f4xx_hal_sd.c **** 
2439:./Libraries/STM32F4xx_HAL_Driver/Src/stm32f4xx_hal_sd.c **** /**
2440:./Libraries/STM32F4xx_HAL_Driver/Src/stm32f4xx_hal_sd.c ****   * @brief  Initializes the sd card.
2441:./Libraries/STM32F4xx_HAL_Driver/Src/stm32f4xx_hal_sd.c ****   * @param  hsd Pointer to SD handle
2442:./Libraries/STM32F4xx_HAL_Driver/Src/stm32f4xx_hal_sd.c ****   * @retval SD Card error state
2443:./Libraries/STM32F4xx_HAL_Driver/Src/stm32f4xx_hal_sd.c ****   */
2444:./Libraries/STM32F4xx_HAL_Driver/Src/stm32f4xx_hal_sd.c **** static uint32_t SD_InitCard(SD_HandleTypeDef *hsd)
ARM GAS  /tmp/ccMhfXg8.s 			page 149


2445:./Libraries/STM32F4xx_HAL_Driver/Src/stm32f4xx_hal_sd.c **** {
 5971              		.loc 1 2445 1
 5972              		.cfi_startproc
 5973              		@ args = 0, pretend = 0, frame = 64
 5974              		@ frame_needed = 1, uses_anonymous_args = 0
 5975 0000 B0B5     		push	{r4, r5, r7, lr}
 5976              	.LCFI172:
 5977              		.cfi_def_cfa_offset 16
 5978              		.cfi_offset 4, -16
 5979              		.cfi_offset 5, -12
 5980              		.cfi_offset 7, -8
 5981              		.cfi_offset 14, -4
 5982 0002 94B0     		sub	sp, sp, #80
 5983              	.LCFI173:
 5984              		.cfi_def_cfa_offset 96
 5985 0004 04AF     		add	r7, sp, #16
 5986              	.LCFI174:
 5987              		.cfi_def_cfa 7, 80
 5988 0006 7860     		str	r0, [r7, #4]
2446:./Libraries/STM32F4xx_HAL_Driver/Src/stm32f4xx_hal_sd.c ****   HAL_SD_CardCSDTypeDef CSD;
2447:./Libraries/STM32F4xx_HAL_Driver/Src/stm32f4xx_hal_sd.c ****   uint32_t errorstate = HAL_SD_ERROR_NONE;
 5989              		.loc 1 2447 12
 5990 0008 0023     		movs	r3, #0
 5991 000a FB63     		str	r3, [r7, #60]
2448:./Libraries/STM32F4xx_HAL_Driver/Src/stm32f4xx_hal_sd.c ****   uint16_t sd_rca = 1U;
 5992              		.loc 1 2448 12
 5993 000c 0123     		movs	r3, #1
 5994 000e FB81     		strh	r3, [r7, #14]	@ movhi
2449:./Libraries/STM32F4xx_HAL_Driver/Src/stm32f4xx_hal_sd.c ****   
2450:./Libraries/STM32F4xx_HAL_Driver/Src/stm32f4xx_hal_sd.c ****   /* Check the power State */
2451:./Libraries/STM32F4xx_HAL_Driver/Src/stm32f4xx_hal_sd.c ****   if(SDIO_GetPowerState(hsd->Instance) == 0U) 
 5995              		.loc 1 2451 6
 5996 0010 7B68     		ldr	r3, [r7, #4]
 5997 0012 1B68     		ldr	r3, [r3]
 5998 0014 1846     		mov	r0, r3
 5999 0016 FFF7FEFF 		bl	SDIO_GetPowerState
 6000 001a 0346     		mov	r3, r0
 6001              		.loc 1 2451 5
 6002 001c 002B     		cmp	r3, #0
 6003 001e 02D1     		bne	.L217
2452:./Libraries/STM32F4xx_HAL_Driver/Src/stm32f4xx_hal_sd.c ****   {
2453:./Libraries/STM32F4xx_HAL_Driver/Src/stm32f4xx_hal_sd.c ****     /* Power off */
2454:./Libraries/STM32F4xx_HAL_Driver/Src/stm32f4xx_hal_sd.c ****     return HAL_SD_ERROR_REQUEST_NOT_APPLICABLE;
 6004              		.loc 1 2454 12
 6005 0020 4FF08063 		mov	r3, #67108864
 6006 0024 B2E0     		b	.L225
 6007              	.L217:
2455:./Libraries/STM32F4xx_HAL_Driver/Src/stm32f4xx_hal_sd.c ****   }
2456:./Libraries/STM32F4xx_HAL_Driver/Src/stm32f4xx_hal_sd.c ****   
2457:./Libraries/STM32F4xx_HAL_Driver/Src/stm32f4xx_hal_sd.c ****   if(hsd->SdCard.CardType != CARD_SECURED) 
 6008              		.loc 1 2457 17
 6009 0026 7B68     		ldr	r3, [r7, #4]
 6010 0028 5B6C     		ldr	r3, [r3, #68]
 6011              		.loc 1 2457 5
 6012 002a 032B     		cmp	r3, #3
 6013 002c 2FD0     		beq	.L219
2458:./Libraries/STM32F4xx_HAL_Driver/Src/stm32f4xx_hal_sd.c ****   {
ARM GAS  /tmp/ccMhfXg8.s 			page 150


2459:./Libraries/STM32F4xx_HAL_Driver/Src/stm32f4xx_hal_sd.c ****     /* Send CMD2 ALL_SEND_CID */
2460:./Libraries/STM32F4xx_HAL_Driver/Src/stm32f4xx_hal_sd.c ****     errorstate = SDMMC_CmdSendCID(hsd->Instance);
 6014              		.loc 1 2460 18
 6015 002e 7B68     		ldr	r3, [r7, #4]
 6016 0030 1B68     		ldr	r3, [r3]
 6017 0032 1846     		mov	r0, r3
 6018 0034 FFF7FEFF 		bl	SDMMC_CmdSendCID
 6019 0038 F863     		str	r0, [r7, #60]
2461:./Libraries/STM32F4xx_HAL_Driver/Src/stm32f4xx_hal_sd.c ****     if(errorstate != HAL_SD_ERROR_NONE)
 6020              		.loc 1 2461 7
 6021 003a FB6B     		ldr	r3, [r7, #60]
 6022 003c 002B     		cmp	r3, #0
 6023 003e 01D0     		beq	.L220
2462:./Libraries/STM32F4xx_HAL_Driver/Src/stm32f4xx_hal_sd.c ****     {
2463:./Libraries/STM32F4xx_HAL_Driver/Src/stm32f4xx_hal_sd.c ****       return errorstate;
 6024              		.loc 1 2463 14
 6025 0040 FB6B     		ldr	r3, [r7, #60]
 6026 0042 A3E0     		b	.L225
 6027              	.L220:
2464:./Libraries/STM32F4xx_HAL_Driver/Src/stm32f4xx_hal_sd.c ****     }
2465:./Libraries/STM32F4xx_HAL_Driver/Src/stm32f4xx_hal_sd.c ****     else
2466:./Libraries/STM32F4xx_HAL_Driver/Src/stm32f4xx_hal_sd.c ****     {
2467:./Libraries/STM32F4xx_HAL_Driver/Src/stm32f4xx_hal_sd.c ****       /* Get Card identification number data */
2468:./Libraries/STM32F4xx_HAL_Driver/Src/stm32f4xx_hal_sd.c ****       hsd->CID[0U] = SDIO_GetResponse(hsd->Instance, SDIO_RESP1);
 6028              		.loc 1 2468 22
 6029 0044 7B68     		ldr	r3, [r7, #4]
 6030 0046 1B68     		ldr	r3, [r3]
 6031 0048 0021     		movs	r1, #0
 6032 004a 1846     		mov	r0, r3
 6033 004c FFF7FEFF 		bl	SDIO_GetResponse
 6034 0050 0246     		mov	r2, r0
 6035              		.loc 1 2468 20
 6036 0052 7B68     		ldr	r3, [r7, #4]
 6037 0054 5A67     		str	r2, [r3, #116]
2469:./Libraries/STM32F4xx_HAL_Driver/Src/stm32f4xx_hal_sd.c ****       hsd->CID[1U] = SDIO_GetResponse(hsd->Instance, SDIO_RESP2);
 6038              		.loc 1 2469 22
 6039 0056 7B68     		ldr	r3, [r7, #4]
 6040 0058 1B68     		ldr	r3, [r3]
 6041 005a 0421     		movs	r1, #4
 6042 005c 1846     		mov	r0, r3
 6043 005e FFF7FEFF 		bl	SDIO_GetResponse
 6044 0062 0246     		mov	r2, r0
 6045              		.loc 1 2469 20
 6046 0064 7B68     		ldr	r3, [r7, #4]
 6047 0066 9A67     		str	r2, [r3, #120]
2470:./Libraries/STM32F4xx_HAL_Driver/Src/stm32f4xx_hal_sd.c ****       hsd->CID[2U] = SDIO_GetResponse(hsd->Instance, SDIO_RESP3);
 6048              		.loc 1 2470 22
 6049 0068 7B68     		ldr	r3, [r7, #4]
 6050 006a 1B68     		ldr	r3, [r3]
 6051 006c 0821     		movs	r1, #8
 6052 006e 1846     		mov	r0, r3
 6053 0070 FFF7FEFF 		bl	SDIO_GetResponse
 6054 0074 0246     		mov	r2, r0
 6055              		.loc 1 2470 20
 6056 0076 7B68     		ldr	r3, [r7, #4]
 6057 0078 DA67     		str	r2, [r3, #124]
2471:./Libraries/STM32F4xx_HAL_Driver/Src/stm32f4xx_hal_sd.c ****       hsd->CID[3U] = SDIO_GetResponse(hsd->Instance, SDIO_RESP4);
ARM GAS  /tmp/ccMhfXg8.s 			page 151


 6058              		.loc 1 2471 22
 6059 007a 7B68     		ldr	r3, [r7, #4]
 6060 007c 1B68     		ldr	r3, [r3]
 6061 007e 0C21     		movs	r1, #12
 6062 0080 1846     		mov	r0, r3
 6063 0082 FFF7FEFF 		bl	SDIO_GetResponse
 6064 0086 0246     		mov	r2, r0
 6065              		.loc 1 2471 20
 6066 0088 7B68     		ldr	r3, [r7, #4]
 6067 008a C3F88020 		str	r2, [r3, #128]
 6068              	.L219:
2472:./Libraries/STM32F4xx_HAL_Driver/Src/stm32f4xx_hal_sd.c ****     }
2473:./Libraries/STM32F4xx_HAL_Driver/Src/stm32f4xx_hal_sd.c ****   }
2474:./Libraries/STM32F4xx_HAL_Driver/Src/stm32f4xx_hal_sd.c ****   
2475:./Libraries/STM32F4xx_HAL_Driver/Src/stm32f4xx_hal_sd.c ****   if(hsd->SdCard.CardType != CARD_SECURED) 
 6069              		.loc 1 2475 17
 6070 008e 7B68     		ldr	r3, [r7, #4]
 6071 0090 5B6C     		ldr	r3, [r3, #68]
 6072              		.loc 1 2475 5
 6073 0092 032B     		cmp	r3, #3
 6074 0094 0DD0     		beq	.L221
2476:./Libraries/STM32F4xx_HAL_Driver/Src/stm32f4xx_hal_sd.c ****   {
2477:./Libraries/STM32F4xx_HAL_Driver/Src/stm32f4xx_hal_sd.c ****     /* Send CMD3 SET_REL_ADDR with argument 0 */
2478:./Libraries/STM32F4xx_HAL_Driver/Src/stm32f4xx_hal_sd.c ****     /* SD Card publishes its RCA. */
2479:./Libraries/STM32F4xx_HAL_Driver/Src/stm32f4xx_hal_sd.c ****     errorstate = SDMMC_CmdSetRelAdd(hsd->Instance, &sd_rca);
 6075              		.loc 1 2479 18
 6076 0096 7B68     		ldr	r3, [r7, #4]
 6077 0098 1B68     		ldr	r3, [r3]
 6078 009a 07F10E02 		add	r2, r7, #14
 6079 009e 1146     		mov	r1, r2
 6080 00a0 1846     		mov	r0, r3
 6081 00a2 FFF7FEFF 		bl	SDMMC_CmdSetRelAdd
 6082 00a6 F863     		str	r0, [r7, #60]
2480:./Libraries/STM32F4xx_HAL_Driver/Src/stm32f4xx_hal_sd.c ****     if(errorstate != HAL_SD_ERROR_NONE)
 6083              		.loc 1 2480 7
 6084 00a8 FB6B     		ldr	r3, [r7, #60]
 6085 00aa 002B     		cmp	r3, #0
 6086 00ac 01D0     		beq	.L221
2481:./Libraries/STM32F4xx_HAL_Driver/Src/stm32f4xx_hal_sd.c ****     {
2482:./Libraries/STM32F4xx_HAL_Driver/Src/stm32f4xx_hal_sd.c ****       return errorstate;
 6087              		.loc 1 2482 14
 6088 00ae FB6B     		ldr	r3, [r7, #60]
 6089 00b0 6CE0     		b	.L225
 6090              	.L221:
2483:./Libraries/STM32F4xx_HAL_Driver/Src/stm32f4xx_hal_sd.c ****     }
2484:./Libraries/STM32F4xx_HAL_Driver/Src/stm32f4xx_hal_sd.c ****   }
2485:./Libraries/STM32F4xx_HAL_Driver/Src/stm32f4xx_hal_sd.c ****   if(hsd->SdCard.CardType != CARD_SECURED) 
 6091              		.loc 1 2485 17
 6092 00b2 7B68     		ldr	r3, [r7, #4]
 6093 00b4 5B6C     		ldr	r3, [r3, #68]
 6094              		.loc 1 2485 5
 6095 00b6 032B     		cmp	r3, #3
 6096 00b8 36D0     		beq	.L222
2486:./Libraries/STM32F4xx_HAL_Driver/Src/stm32f4xx_hal_sd.c ****   {
2487:./Libraries/STM32F4xx_HAL_Driver/Src/stm32f4xx_hal_sd.c ****     /* Get the SD card RCA */
2488:./Libraries/STM32F4xx_HAL_Driver/Src/stm32f4xx_hal_sd.c ****     hsd->SdCard.RelCardAdd = sd_rca;
 6097              		.loc 1 2488 28
ARM GAS  /tmp/ccMhfXg8.s 			page 152


 6098 00ba FB89     		ldrh	r3, [r7, #14]
 6099 00bc 1A46     		mov	r2, r3
 6100 00be 7B68     		ldr	r3, [r7, #4]
 6101 00c0 1A65     		str	r2, [r3, #80]
2489:./Libraries/STM32F4xx_HAL_Driver/Src/stm32f4xx_hal_sd.c ****     
2490:./Libraries/STM32F4xx_HAL_Driver/Src/stm32f4xx_hal_sd.c ****     /* Send CMD9 SEND_CSD with argument as card's RCA */
2491:./Libraries/STM32F4xx_HAL_Driver/Src/stm32f4xx_hal_sd.c ****     errorstate = SDMMC_CmdSendCSD(hsd->Instance, (uint32_t)(hsd->SdCard.RelCardAdd << 16U));
 6102              		.loc 1 2491 18
 6103 00c2 7B68     		ldr	r3, [r7, #4]
 6104 00c4 1A68     		ldr	r2, [r3]
 6105              		.loc 1 2491 72
 6106 00c6 7B68     		ldr	r3, [r7, #4]
 6107 00c8 1B6D     		ldr	r3, [r3, #80]
 6108              		.loc 1 2491 84
 6109 00ca 1B04     		lsls	r3, r3, #16
 6110              		.loc 1 2491 18
 6111 00cc 1946     		mov	r1, r3
 6112 00ce 1046     		mov	r0, r2
 6113 00d0 FFF7FEFF 		bl	SDMMC_CmdSendCSD
 6114 00d4 F863     		str	r0, [r7, #60]
2492:./Libraries/STM32F4xx_HAL_Driver/Src/stm32f4xx_hal_sd.c ****     if(errorstate != HAL_SD_ERROR_NONE)
 6115              		.loc 1 2492 7
 6116 00d6 FB6B     		ldr	r3, [r7, #60]
 6117 00d8 002B     		cmp	r3, #0
 6118 00da 01D0     		beq	.L223
2493:./Libraries/STM32F4xx_HAL_Driver/Src/stm32f4xx_hal_sd.c ****     {
2494:./Libraries/STM32F4xx_HAL_Driver/Src/stm32f4xx_hal_sd.c ****       return errorstate;
 6119              		.loc 1 2494 14
 6120 00dc FB6B     		ldr	r3, [r7, #60]
 6121 00de 55E0     		b	.L225
 6122              	.L223:
2495:./Libraries/STM32F4xx_HAL_Driver/Src/stm32f4xx_hal_sd.c ****     }
2496:./Libraries/STM32F4xx_HAL_Driver/Src/stm32f4xx_hal_sd.c ****     else
2497:./Libraries/STM32F4xx_HAL_Driver/Src/stm32f4xx_hal_sd.c ****     {
2498:./Libraries/STM32F4xx_HAL_Driver/Src/stm32f4xx_hal_sd.c ****       /* Get Card Specific Data */
2499:./Libraries/STM32F4xx_HAL_Driver/Src/stm32f4xx_hal_sd.c ****       hsd->CSD[0U] = SDIO_GetResponse(hsd->Instance, SDIO_RESP1);
 6123              		.loc 1 2499 22
 6124 00e0 7B68     		ldr	r3, [r7, #4]
 6125 00e2 1B68     		ldr	r3, [r3]
 6126 00e4 0021     		movs	r1, #0
 6127 00e6 1846     		mov	r0, r3
 6128 00e8 FFF7FEFF 		bl	SDIO_GetResponse
 6129 00ec 0246     		mov	r2, r0
 6130              		.loc 1 2499 20
 6131 00ee 7B68     		ldr	r3, [r7, #4]
 6132 00f0 5A66     		str	r2, [r3, #100]
2500:./Libraries/STM32F4xx_HAL_Driver/Src/stm32f4xx_hal_sd.c ****       hsd->CSD[1U] = SDIO_GetResponse(hsd->Instance, SDIO_RESP2);
 6133              		.loc 1 2500 22
 6134 00f2 7B68     		ldr	r3, [r7, #4]
 6135 00f4 1B68     		ldr	r3, [r3]
 6136 00f6 0421     		movs	r1, #4
 6137 00f8 1846     		mov	r0, r3
 6138 00fa FFF7FEFF 		bl	SDIO_GetResponse
 6139 00fe 0246     		mov	r2, r0
 6140              		.loc 1 2500 20
 6141 0100 7B68     		ldr	r3, [r7, #4]
 6142 0102 9A66     		str	r2, [r3, #104]
ARM GAS  /tmp/ccMhfXg8.s 			page 153


2501:./Libraries/STM32F4xx_HAL_Driver/Src/stm32f4xx_hal_sd.c ****       hsd->CSD[2U] = SDIO_GetResponse(hsd->Instance, SDIO_RESP3);
 6143              		.loc 1 2501 22
 6144 0104 7B68     		ldr	r3, [r7, #4]
 6145 0106 1B68     		ldr	r3, [r3]
 6146 0108 0821     		movs	r1, #8
 6147 010a 1846     		mov	r0, r3
 6148 010c FFF7FEFF 		bl	SDIO_GetResponse
 6149 0110 0246     		mov	r2, r0
 6150              		.loc 1 2501 20
 6151 0112 7B68     		ldr	r3, [r7, #4]
 6152 0114 DA66     		str	r2, [r3, #108]
2502:./Libraries/STM32F4xx_HAL_Driver/Src/stm32f4xx_hal_sd.c ****       hsd->CSD[3U] = SDIO_GetResponse(hsd->Instance, SDIO_RESP4);
 6153              		.loc 1 2502 22
 6154 0116 7B68     		ldr	r3, [r7, #4]
 6155 0118 1B68     		ldr	r3, [r3]
 6156 011a 0C21     		movs	r1, #12
 6157 011c 1846     		mov	r0, r3
 6158 011e FFF7FEFF 		bl	SDIO_GetResponse
 6159 0122 0246     		mov	r2, r0
 6160              		.loc 1 2502 20
 6161 0124 7B68     		ldr	r3, [r7, #4]
 6162 0126 1A67     		str	r2, [r3, #112]
 6163              	.L222:
2503:./Libraries/STM32F4xx_HAL_Driver/Src/stm32f4xx_hal_sd.c ****     }
2504:./Libraries/STM32F4xx_HAL_Driver/Src/stm32f4xx_hal_sd.c ****   }
2505:./Libraries/STM32F4xx_HAL_Driver/Src/stm32f4xx_hal_sd.c ****   
2506:./Libraries/STM32F4xx_HAL_Driver/Src/stm32f4xx_hal_sd.c ****   /* Get the Card Class */
2507:./Libraries/STM32F4xx_HAL_Driver/Src/stm32f4xx_hal_sd.c ****   hsd->SdCard.Class = (SDIO_GetResponse(hsd->Instance, SDIO_RESP2) >> 20U);
 6164              		.loc 1 2507 24
 6165 0128 7B68     		ldr	r3, [r7, #4]
 6166 012a 1B68     		ldr	r3, [r3]
 6167 012c 0421     		movs	r1, #4
 6168 012e 1846     		mov	r0, r3
 6169 0130 FFF7FEFF 		bl	SDIO_GetResponse
 6170 0134 0346     		mov	r3, r0
 6171              		.loc 1 2507 68
 6172 0136 1A0D     		lsrs	r2, r3, #20
 6173              		.loc 1 2507 21
 6174 0138 7B68     		ldr	r3, [r7, #4]
 6175 013a DA64     		str	r2, [r3, #76]
2508:./Libraries/STM32F4xx_HAL_Driver/Src/stm32f4xx_hal_sd.c ****   
2509:./Libraries/STM32F4xx_HAL_Driver/Src/stm32f4xx_hal_sd.c ****   /* Get CSD parameters */
2510:./Libraries/STM32F4xx_HAL_Driver/Src/stm32f4xx_hal_sd.c ****   HAL_SD_GetCardCSD(hsd, &CSD);
 6176              		.loc 1 2510 3
 6177 013c 07F11003 		add	r3, r7, #16
 6178 0140 1946     		mov	r1, r3
 6179 0142 7868     		ldr	r0, [r7, #4]
 6180 0144 FFF7FEFF 		bl	HAL_SD_GetCardCSD
2511:./Libraries/STM32F4xx_HAL_Driver/Src/stm32f4xx_hal_sd.c **** 
2512:./Libraries/STM32F4xx_HAL_Driver/Src/stm32f4xx_hal_sd.c ****   /* Select the Card */
2513:./Libraries/STM32F4xx_HAL_Driver/Src/stm32f4xx_hal_sd.c ****   errorstate = SDMMC_CmdSelDesel(hsd->Instance, (uint32_t)(((uint32_t)hsd->SdCard.RelCardAdd) << 16
 6181              		.loc 1 2513 16
 6182 0148 7B68     		ldr	r3, [r7, #4]
 6183 014a 1968     		ldr	r1, [r3]
 6184              		.loc 1 2513 82
 6185 014c 7B68     		ldr	r3, [r7, #4]
 6186 014e 1B6D     		ldr	r3, [r3, #80]
ARM GAS  /tmp/ccMhfXg8.s 			page 154


 6187              		.loc 1 2513 49
 6188 0150 1B04     		lsls	r3, r3, #16
 6189              		.loc 1 2513 16
 6190 0152 0022     		movs	r2, #0
 6191 0154 1C46     		mov	r4, r3
 6192 0156 1546     		mov	r5, r2
 6193 0158 2246     		mov	r2, r4
 6194 015a 2B46     		mov	r3, r5
 6195 015c 0846     		mov	r0, r1
 6196 015e FFF7FEFF 		bl	SDMMC_CmdSelDesel
 6197 0162 F863     		str	r0, [r7, #60]
2514:./Libraries/STM32F4xx_HAL_Driver/Src/stm32f4xx_hal_sd.c ****   if(errorstate != HAL_SD_ERROR_NONE)
 6198              		.loc 1 2514 5
 6199 0164 FB6B     		ldr	r3, [r7, #60]
 6200 0166 002B     		cmp	r3, #0
 6201 0168 01D0     		beq	.L224
2515:./Libraries/STM32F4xx_HAL_Driver/Src/stm32f4xx_hal_sd.c ****   {
2516:./Libraries/STM32F4xx_HAL_Driver/Src/stm32f4xx_hal_sd.c ****     return errorstate;
 6202              		.loc 1 2516 12
 6203 016a FB6B     		ldr	r3, [r7, #60]
 6204 016c 0EE0     		b	.L225
 6205              	.L224:
2517:./Libraries/STM32F4xx_HAL_Driver/Src/stm32f4xx_hal_sd.c ****   }
2518:./Libraries/STM32F4xx_HAL_Driver/Src/stm32f4xx_hal_sd.c **** 
2519:./Libraries/STM32F4xx_HAL_Driver/Src/stm32f4xx_hal_sd.c ****   /* Configure SDIO peripheral interface */     
2520:./Libraries/STM32F4xx_HAL_Driver/Src/stm32f4xx_hal_sd.c ****   SDIO_Init(hsd->Instance, hsd->Init);
 6206              		.loc 1 2520 3
 6207 016e 7B68     		ldr	r3, [r7, #4]
 6208 0170 1D68     		ldr	r5, [r3]
 6209 0172 7B68     		ldr	r3, [r7, #4]
 6210 0174 6C46     		mov	r4, sp
 6211 0176 03F11002 		add	r2, r3, #16
 6212 017a 07CA     		ldm	r2, {r0, r1, r2}
 6213 017c 84E80700 		stm	r4, {r0, r1, r2}
 6214 0180 0433     		adds	r3, r3, #4
 6215 0182 0ECB     		ldm	r3, {r1, r2, r3}
 6216 0184 2846     		mov	r0, r5
 6217 0186 FFF7FEFF 		bl	SDIO_Init
2521:./Libraries/STM32F4xx_HAL_Driver/Src/stm32f4xx_hal_sd.c **** 
2522:./Libraries/STM32F4xx_HAL_Driver/Src/stm32f4xx_hal_sd.c ****   /* All cards are initialized */
2523:./Libraries/STM32F4xx_HAL_Driver/Src/stm32f4xx_hal_sd.c ****   return HAL_SD_ERROR_NONE;
 6218              		.loc 1 2523 10
 6219 018a 0023     		movs	r3, #0
 6220              	.L225:
2524:./Libraries/STM32F4xx_HAL_Driver/Src/stm32f4xx_hal_sd.c **** }
 6221              		.loc 1 2524 1 discriminator 1
 6222 018c 1846     		mov	r0, r3
 6223 018e 4037     		adds	r7, r7, #64
 6224              	.LCFI175:
 6225              		.cfi_def_cfa_offset 16
 6226 0190 BD46     		mov	sp, r7
 6227              	.LCFI176:
 6228              		.cfi_def_cfa_register 13
 6229              		@ sp needed
 6230 0192 B0BD     		pop	{r4, r5, r7, pc}
 6231              		.cfi_endproc
 6232              	.LFE158:
ARM GAS  /tmp/ccMhfXg8.s 			page 155


 6234              		.section	.text.SD_PowerON,"ax",%progbits
 6235              		.align	1
 6236              		.syntax unified
 6237              		.thumb
 6238              		.thumb_func
 6239              		.fpu fpv4-sp-d16
 6241              	SD_PowerON:
 6242              	.LFB159:
2525:./Libraries/STM32F4xx_HAL_Driver/Src/stm32f4xx_hal_sd.c **** 
2526:./Libraries/STM32F4xx_HAL_Driver/Src/stm32f4xx_hal_sd.c **** /**
2527:./Libraries/STM32F4xx_HAL_Driver/Src/stm32f4xx_hal_sd.c ****   * @brief  Enquires cards about their operating voltage and configures clock
2528:./Libraries/STM32F4xx_HAL_Driver/Src/stm32f4xx_hal_sd.c ****   *         controls and stores SD information that will be needed in future
2529:./Libraries/STM32F4xx_HAL_Driver/Src/stm32f4xx_hal_sd.c ****   *         in the SD handle.
2530:./Libraries/STM32F4xx_HAL_Driver/Src/stm32f4xx_hal_sd.c ****   * @param  hsd Pointer to SD handle
2531:./Libraries/STM32F4xx_HAL_Driver/Src/stm32f4xx_hal_sd.c ****   * @retval error state
2532:./Libraries/STM32F4xx_HAL_Driver/Src/stm32f4xx_hal_sd.c ****   */
2533:./Libraries/STM32F4xx_HAL_Driver/Src/stm32f4xx_hal_sd.c **** static uint32_t SD_PowerON(SD_HandleTypeDef *hsd)
2534:./Libraries/STM32F4xx_HAL_Driver/Src/stm32f4xx_hal_sd.c **** {
 6243              		.loc 1 2534 1
 6244              		.cfi_startproc
 6245              		@ args = 0, pretend = 0, frame = 24
 6246              		@ frame_needed = 1, uses_anonymous_args = 0
 6247 0000 80B5     		push	{r7, lr}
 6248              	.LCFI177:
 6249              		.cfi_def_cfa_offset 8
 6250              		.cfi_offset 7, -8
 6251              		.cfi_offset 14, -4
 6252 0002 86B0     		sub	sp, sp, #24
 6253              	.LCFI178:
 6254              		.cfi_def_cfa_offset 32
 6255 0004 00AF     		add	r7, sp, #0
 6256              	.LCFI179:
 6257              		.cfi_def_cfa_register 7
 6258 0006 7860     		str	r0, [r7, #4]
2535:./Libraries/STM32F4xx_HAL_Driver/Src/stm32f4xx_hal_sd.c ****   __IO uint32_t count = 0U;
 6259              		.loc 1 2535 17
 6260 0008 0023     		movs	r3, #0
 6261 000a BB60     		str	r3, [r7, #8]
2536:./Libraries/STM32F4xx_HAL_Driver/Src/stm32f4xx_hal_sd.c ****   uint32_t response = 0U, validvoltage = 0U;
 6262              		.loc 1 2536 12
 6263 000c 0023     		movs	r3, #0
 6264 000e 7B61     		str	r3, [r7, #20]
 6265              		.loc 1 2536 27
 6266 0010 0023     		movs	r3, #0
 6267 0012 3B61     		str	r3, [r7, #16]
2537:./Libraries/STM32F4xx_HAL_Driver/Src/stm32f4xx_hal_sd.c ****   uint32_t errorstate = HAL_SD_ERROR_NONE;
 6268              		.loc 1 2537 12
 6269 0014 0023     		movs	r3, #0
 6270 0016 FB60     		str	r3, [r7, #12]
2538:./Libraries/STM32F4xx_HAL_Driver/Src/stm32f4xx_hal_sd.c ****   
2539:./Libraries/STM32F4xx_HAL_Driver/Src/stm32f4xx_hal_sd.c ****   /* CMD0: GO_IDLE_STATE */
2540:./Libraries/STM32F4xx_HAL_Driver/Src/stm32f4xx_hal_sd.c ****   errorstate = SDMMC_CmdGoIdleState(hsd->Instance);
 6271              		.loc 1 2540 16
 6272 0018 7B68     		ldr	r3, [r7, #4]
 6273 001a 1B68     		ldr	r3, [r3]
 6274 001c 1846     		mov	r0, r3
 6275 001e FFF7FEFF 		bl	SDMMC_CmdGoIdleState
ARM GAS  /tmp/ccMhfXg8.s 			page 156


 6276 0022 F860     		str	r0, [r7, #12]
2541:./Libraries/STM32F4xx_HAL_Driver/Src/stm32f4xx_hal_sd.c ****   if(errorstate != HAL_SD_ERROR_NONE)
 6277              		.loc 1 2541 5
 6278 0024 FB68     		ldr	r3, [r7, #12]
 6279 0026 002B     		cmp	r3, #0
 6280 0028 01D0     		beq	.L227
2542:./Libraries/STM32F4xx_HAL_Driver/Src/stm32f4xx_hal_sd.c ****   {
2543:./Libraries/STM32F4xx_HAL_Driver/Src/stm32f4xx_hal_sd.c ****     return errorstate;
 6281              		.loc 1 2543 12
 6282 002a FB68     		ldr	r3, [r7, #12]
 6283 002c 8CE0     		b	.L228
 6284              	.L227:
2544:./Libraries/STM32F4xx_HAL_Driver/Src/stm32f4xx_hal_sd.c ****   }
2545:./Libraries/STM32F4xx_HAL_Driver/Src/stm32f4xx_hal_sd.c ****   
2546:./Libraries/STM32F4xx_HAL_Driver/Src/stm32f4xx_hal_sd.c ****   /* CMD8: SEND_IF_COND: Command available only on V2.0 cards */
2547:./Libraries/STM32F4xx_HAL_Driver/Src/stm32f4xx_hal_sd.c ****   errorstate = SDMMC_CmdOperCond(hsd->Instance);
 6285              		.loc 1 2547 16
 6286 002e 7B68     		ldr	r3, [r7, #4]
 6287 0030 1B68     		ldr	r3, [r3]
 6288 0032 1846     		mov	r0, r3
 6289 0034 FFF7FEFF 		bl	SDMMC_CmdOperCond
 6290 0038 F860     		str	r0, [r7, #12]
2548:./Libraries/STM32F4xx_HAL_Driver/Src/stm32f4xx_hal_sd.c ****   if(errorstate != HAL_SD_ERROR_NONE)
 6291              		.loc 1 2548 5
 6292 003a FB68     		ldr	r3, [r7, #12]
 6293 003c 002B     		cmp	r3, #0
 6294 003e 3DD0     		beq	.L229
2549:./Libraries/STM32F4xx_HAL_Driver/Src/stm32f4xx_hal_sd.c ****   {
2550:./Libraries/STM32F4xx_HAL_Driver/Src/stm32f4xx_hal_sd.c ****     hsd->SdCard.CardVersion = CARD_V1_X;
 6295              		.loc 1 2550 29
 6296 0040 7B68     		ldr	r3, [r7, #4]
 6297 0042 0022     		movs	r2, #0
 6298 0044 9A64     		str	r2, [r3, #72]
2551:./Libraries/STM32F4xx_HAL_Driver/Src/stm32f4xx_hal_sd.c ****       
2552:./Libraries/STM32F4xx_HAL_Driver/Src/stm32f4xx_hal_sd.c ****     /* Send ACMD41 SD_APP_OP_COND with Argument 0x80100000 */
2553:./Libraries/STM32F4xx_HAL_Driver/Src/stm32f4xx_hal_sd.c ****     while(validvoltage == 0U)
 6299              		.loc 1 2553 10
 6300 0046 32E0     		b	.L230
 6301              	.L236:
2554:./Libraries/STM32F4xx_HAL_Driver/Src/stm32f4xx_hal_sd.c ****     {
2555:./Libraries/STM32F4xx_HAL_Driver/Src/stm32f4xx_hal_sd.c ****       if(count++ == SDMMC_MAX_VOLT_TRIAL)
 6302              		.loc 1 2555 15
 6303 0048 BB68     		ldr	r3, [r7, #8]
 6304 004a 5A1C     		adds	r2, r3, #1
 6305 004c BA60     		str	r2, [r7, #8]
 6306              		.loc 1 2555 9
 6307 004e 4FF6FF72 		movw	r2, #65535
 6308 0052 9342     		cmp	r3, r2
 6309 0054 02D1     		bne	.L231
2556:./Libraries/STM32F4xx_HAL_Driver/Src/stm32f4xx_hal_sd.c ****       {
2557:./Libraries/STM32F4xx_HAL_Driver/Src/stm32f4xx_hal_sd.c ****         return HAL_SD_ERROR_INVALID_VOLTRANGE;
 6310              		.loc 1 2557 16
 6311 0056 4FF08073 		mov	r3, #16777216
 6312 005a 75E0     		b	.L228
 6313              	.L231:
2558:./Libraries/STM32F4xx_HAL_Driver/Src/stm32f4xx_hal_sd.c ****       }
2559:./Libraries/STM32F4xx_HAL_Driver/Src/stm32f4xx_hal_sd.c ****       
ARM GAS  /tmp/ccMhfXg8.s 			page 157


2560:./Libraries/STM32F4xx_HAL_Driver/Src/stm32f4xx_hal_sd.c ****       /* SEND CMD55 APP_CMD with RCA as 0 */
2561:./Libraries/STM32F4xx_HAL_Driver/Src/stm32f4xx_hal_sd.c ****       errorstate = SDMMC_CmdAppCommand(hsd->Instance, 0U);
 6314              		.loc 1 2561 20
 6315 005c 7B68     		ldr	r3, [r7, #4]
 6316 005e 1B68     		ldr	r3, [r3]
 6317 0060 0021     		movs	r1, #0
 6318 0062 1846     		mov	r0, r3
 6319 0064 FFF7FEFF 		bl	SDMMC_CmdAppCommand
 6320 0068 F860     		str	r0, [r7, #12]
2562:./Libraries/STM32F4xx_HAL_Driver/Src/stm32f4xx_hal_sd.c ****       if(errorstate != HAL_SD_ERROR_NONE)
 6321              		.loc 1 2562 9
 6322 006a FB68     		ldr	r3, [r7, #12]
 6323 006c 002B     		cmp	r3, #0
 6324 006e 02D0     		beq	.L232
2563:./Libraries/STM32F4xx_HAL_Driver/Src/stm32f4xx_hal_sd.c ****       {
2564:./Libraries/STM32F4xx_HAL_Driver/Src/stm32f4xx_hal_sd.c ****         return HAL_SD_ERROR_UNSUPPORTED_FEATURE;
 6325              		.loc 1 2564 16
 6326 0070 4FF08053 		mov	r3, #268435456
 6327 0074 68E0     		b	.L228
 6328              	.L232:
2565:./Libraries/STM32F4xx_HAL_Driver/Src/stm32f4xx_hal_sd.c ****       }
2566:./Libraries/STM32F4xx_HAL_Driver/Src/stm32f4xx_hal_sd.c ****       
2567:./Libraries/STM32F4xx_HAL_Driver/Src/stm32f4xx_hal_sd.c ****       /* Send CMD41 */
2568:./Libraries/STM32F4xx_HAL_Driver/Src/stm32f4xx_hal_sd.c ****       errorstate = SDMMC_CmdAppOperCommand(hsd->Instance, SDMMC_STD_CAPACITY);
 6329              		.loc 1 2568 20
 6330 0076 7B68     		ldr	r3, [r7, #4]
 6331 0078 1B68     		ldr	r3, [r3]
 6332 007a 0021     		movs	r1, #0
 6333 007c 1846     		mov	r0, r3
 6334 007e FFF7FEFF 		bl	SDMMC_CmdAppOperCommand
 6335 0082 F860     		str	r0, [r7, #12]
2569:./Libraries/STM32F4xx_HAL_Driver/Src/stm32f4xx_hal_sd.c ****       if(errorstate != HAL_SD_ERROR_NONE)
 6336              		.loc 1 2569 9
 6337 0084 FB68     		ldr	r3, [r7, #12]
 6338 0086 002B     		cmp	r3, #0
 6339 0088 02D0     		beq	.L233
2570:./Libraries/STM32F4xx_HAL_Driver/Src/stm32f4xx_hal_sd.c ****       {
2571:./Libraries/STM32F4xx_HAL_Driver/Src/stm32f4xx_hal_sd.c ****         return HAL_SD_ERROR_UNSUPPORTED_FEATURE;
 6340              		.loc 1 2571 16
 6341 008a 4FF08053 		mov	r3, #268435456
 6342 008e 5BE0     		b	.L228
 6343              	.L233:
2572:./Libraries/STM32F4xx_HAL_Driver/Src/stm32f4xx_hal_sd.c ****       }
2573:./Libraries/STM32F4xx_HAL_Driver/Src/stm32f4xx_hal_sd.c ****       
2574:./Libraries/STM32F4xx_HAL_Driver/Src/stm32f4xx_hal_sd.c ****       /* Get command response */
2575:./Libraries/STM32F4xx_HAL_Driver/Src/stm32f4xx_hal_sd.c ****       response = SDIO_GetResponse(hsd->Instance, SDIO_RESP1);
 6344              		.loc 1 2575 18
 6345 0090 7B68     		ldr	r3, [r7, #4]
 6346 0092 1B68     		ldr	r3, [r3]
 6347 0094 0021     		movs	r1, #0
 6348 0096 1846     		mov	r0, r3
 6349 0098 FFF7FEFF 		bl	SDIO_GetResponse
 6350 009c 7861     		str	r0, [r7, #20]
2576:./Libraries/STM32F4xx_HAL_Driver/Src/stm32f4xx_hal_sd.c ****       
2577:./Libraries/STM32F4xx_HAL_Driver/Src/stm32f4xx_hal_sd.c ****       /* Get operating voltage*/
2578:./Libraries/STM32F4xx_HAL_Driver/Src/stm32f4xx_hal_sd.c ****       validvoltage = (((response >> 31U) == 1U) ? 1U : 0U);
 6351              		.loc 1 2578 34
ARM GAS  /tmp/ccMhfXg8.s 			page 158


 6352 009e 7B69     		ldr	r3, [r7, #20]
 6353 00a0 DB0F     		lsrs	r3, r3, #31
 6354              		.loc 1 2578 54
 6355 00a2 012B     		cmp	r3, #1
 6356 00a4 01D1     		bne	.L234
 6357              		.loc 1 2578 54 is_stmt 0 discriminator 1
 6358 00a6 0123     		movs	r3, #1
 6359 00a8 00E0     		b	.L235
 6360              	.L234:
 6361              		.loc 1 2578 54 discriminator 2
 6362 00aa 0023     		movs	r3, #0
 6363              	.L235:
 6364              		.loc 1 2578 20 is_stmt 1 discriminator 4
 6365 00ac 3B61     		str	r3, [r7, #16]
 6366              	.L230:
2553:./Libraries/STM32F4xx_HAL_Driver/Src/stm32f4xx_hal_sd.c ****     {
 6367              		.loc 1 2553 10
 6368 00ae 3B69     		ldr	r3, [r7, #16]
 6369 00b0 002B     		cmp	r3, #0
 6370 00b2 C9D0     		beq	.L236
2579:./Libraries/STM32F4xx_HAL_Driver/Src/stm32f4xx_hal_sd.c ****     }
2580:./Libraries/STM32F4xx_HAL_Driver/Src/stm32f4xx_hal_sd.c ****     /* Card type is SDSC */
2581:./Libraries/STM32F4xx_HAL_Driver/Src/stm32f4xx_hal_sd.c ****     hsd->SdCard.CardType = CARD_SDSC;
 6371              		.loc 1 2581 26
 6372 00b4 7B68     		ldr	r3, [r7, #4]
 6373 00b6 0022     		movs	r2, #0
 6374 00b8 5A64     		str	r2, [r3, #68]
 6375 00ba 44E0     		b	.L237
 6376              	.L229:
2582:./Libraries/STM32F4xx_HAL_Driver/Src/stm32f4xx_hal_sd.c ****   }
2583:./Libraries/STM32F4xx_HAL_Driver/Src/stm32f4xx_hal_sd.c ****   else
2584:./Libraries/STM32F4xx_HAL_Driver/Src/stm32f4xx_hal_sd.c ****   {
2585:./Libraries/STM32F4xx_HAL_Driver/Src/stm32f4xx_hal_sd.c ****     hsd->SdCard.CardVersion = CARD_V2_X;
 6377              		.loc 1 2585 29
 6378 00bc 7B68     		ldr	r3, [r7, #4]
 6379 00be 0122     		movs	r2, #1
 6380 00c0 9A64     		str	r2, [r3, #72]
2586:./Libraries/STM32F4xx_HAL_Driver/Src/stm32f4xx_hal_sd.c ****         
2587:./Libraries/STM32F4xx_HAL_Driver/Src/stm32f4xx_hal_sd.c ****     /* Send ACMD41 SD_APP_OP_COND with Argument 0x80100000 */
2588:./Libraries/STM32F4xx_HAL_Driver/Src/stm32f4xx_hal_sd.c ****     while(validvoltage == 0U)
 6381              		.loc 1 2588 10
 6382 00c2 31E0     		b	.L238
 6383              	.L244:
2589:./Libraries/STM32F4xx_HAL_Driver/Src/stm32f4xx_hal_sd.c ****     {
2590:./Libraries/STM32F4xx_HAL_Driver/Src/stm32f4xx_hal_sd.c ****       if(count++ == SDMMC_MAX_VOLT_TRIAL)
 6384              		.loc 1 2590 15
 6385 00c4 BB68     		ldr	r3, [r7, #8]
 6386 00c6 5A1C     		adds	r2, r3, #1
 6387 00c8 BA60     		str	r2, [r7, #8]
 6388              		.loc 1 2590 9
 6389 00ca 4FF6FF72 		movw	r2, #65535
 6390 00ce 9342     		cmp	r3, r2
 6391 00d0 02D1     		bne	.L239
2591:./Libraries/STM32F4xx_HAL_Driver/Src/stm32f4xx_hal_sd.c ****       {
2592:./Libraries/STM32F4xx_HAL_Driver/Src/stm32f4xx_hal_sd.c ****         return HAL_SD_ERROR_INVALID_VOLTRANGE;
 6392              		.loc 1 2592 16
 6393 00d2 4FF08073 		mov	r3, #16777216
ARM GAS  /tmp/ccMhfXg8.s 			page 159


 6394 00d6 37E0     		b	.L228
 6395              	.L239:
2593:./Libraries/STM32F4xx_HAL_Driver/Src/stm32f4xx_hal_sd.c ****       }
2594:./Libraries/STM32F4xx_HAL_Driver/Src/stm32f4xx_hal_sd.c ****       
2595:./Libraries/STM32F4xx_HAL_Driver/Src/stm32f4xx_hal_sd.c ****       /* SEND CMD55 APP_CMD with RCA as 0 */
2596:./Libraries/STM32F4xx_HAL_Driver/Src/stm32f4xx_hal_sd.c ****       errorstate = SDMMC_CmdAppCommand(hsd->Instance, 0U);
 6396              		.loc 1 2596 20
 6397 00d8 7B68     		ldr	r3, [r7, #4]
 6398 00da 1B68     		ldr	r3, [r3]
 6399 00dc 0021     		movs	r1, #0
 6400 00de 1846     		mov	r0, r3
 6401 00e0 FFF7FEFF 		bl	SDMMC_CmdAppCommand
 6402 00e4 F860     		str	r0, [r7, #12]
2597:./Libraries/STM32F4xx_HAL_Driver/Src/stm32f4xx_hal_sd.c ****       if(errorstate != HAL_SD_ERROR_NONE)
 6403              		.loc 1 2597 9
 6404 00e6 FB68     		ldr	r3, [r7, #12]
 6405 00e8 002B     		cmp	r3, #0
 6406 00ea 01D0     		beq	.L240
2598:./Libraries/STM32F4xx_HAL_Driver/Src/stm32f4xx_hal_sd.c ****       {
2599:./Libraries/STM32F4xx_HAL_Driver/Src/stm32f4xx_hal_sd.c ****         return errorstate;
 6407              		.loc 1 2599 16
 6408 00ec FB68     		ldr	r3, [r7, #12]
 6409 00ee 2BE0     		b	.L228
 6410              	.L240:
2600:./Libraries/STM32F4xx_HAL_Driver/Src/stm32f4xx_hal_sd.c ****       }
2601:./Libraries/STM32F4xx_HAL_Driver/Src/stm32f4xx_hal_sd.c ****       
2602:./Libraries/STM32F4xx_HAL_Driver/Src/stm32f4xx_hal_sd.c ****       /* Send CMD41 */
2603:./Libraries/STM32F4xx_HAL_Driver/Src/stm32f4xx_hal_sd.c ****       errorstate = SDMMC_CmdAppOperCommand(hsd->Instance, SDMMC_HIGH_CAPACITY);
 6411              		.loc 1 2603 20
 6412 00f0 7B68     		ldr	r3, [r7, #4]
 6413 00f2 1B68     		ldr	r3, [r3]
 6414 00f4 4FF08041 		mov	r1, #1073741824
 6415 00f8 1846     		mov	r0, r3
 6416 00fa FFF7FEFF 		bl	SDMMC_CmdAppOperCommand
 6417 00fe F860     		str	r0, [r7, #12]
2604:./Libraries/STM32F4xx_HAL_Driver/Src/stm32f4xx_hal_sd.c ****       if(errorstate != HAL_SD_ERROR_NONE)
 6418              		.loc 1 2604 9
 6419 0100 FB68     		ldr	r3, [r7, #12]
 6420 0102 002B     		cmp	r3, #0
 6421 0104 01D0     		beq	.L241
2605:./Libraries/STM32F4xx_HAL_Driver/Src/stm32f4xx_hal_sd.c ****       {
2606:./Libraries/STM32F4xx_HAL_Driver/Src/stm32f4xx_hal_sd.c ****         return errorstate;
 6422              		.loc 1 2606 16
 6423 0106 FB68     		ldr	r3, [r7, #12]
 6424 0108 1EE0     		b	.L228
 6425              	.L241:
2607:./Libraries/STM32F4xx_HAL_Driver/Src/stm32f4xx_hal_sd.c ****       }
2608:./Libraries/STM32F4xx_HAL_Driver/Src/stm32f4xx_hal_sd.c ****       
2609:./Libraries/STM32F4xx_HAL_Driver/Src/stm32f4xx_hal_sd.c ****       /* Get command response */
2610:./Libraries/STM32F4xx_HAL_Driver/Src/stm32f4xx_hal_sd.c ****       response = SDIO_GetResponse(hsd->Instance, SDIO_RESP1);
 6426              		.loc 1 2610 18
 6427 010a 7B68     		ldr	r3, [r7, #4]
 6428 010c 1B68     		ldr	r3, [r3]
 6429 010e 0021     		movs	r1, #0
 6430 0110 1846     		mov	r0, r3
 6431 0112 FFF7FEFF 		bl	SDIO_GetResponse
 6432 0116 7861     		str	r0, [r7, #20]
ARM GAS  /tmp/ccMhfXg8.s 			page 160


2611:./Libraries/STM32F4xx_HAL_Driver/Src/stm32f4xx_hal_sd.c ****       
2612:./Libraries/STM32F4xx_HAL_Driver/Src/stm32f4xx_hal_sd.c ****       /* Get operating voltage*/
2613:./Libraries/STM32F4xx_HAL_Driver/Src/stm32f4xx_hal_sd.c ****       validvoltage = (((response >> 31U) == 1U) ? 1U : 0U);
 6433              		.loc 1 2613 34
 6434 0118 7B69     		ldr	r3, [r7, #20]
 6435 011a DB0F     		lsrs	r3, r3, #31
 6436              		.loc 1 2613 54
 6437 011c 012B     		cmp	r3, #1
 6438 011e 01D1     		bne	.L242
 6439              		.loc 1 2613 54 is_stmt 0 discriminator 1
 6440 0120 0123     		movs	r3, #1
 6441 0122 00E0     		b	.L243
 6442              	.L242:
 6443              		.loc 1 2613 54 discriminator 2
 6444 0124 0023     		movs	r3, #0
 6445              	.L243:
 6446              		.loc 1 2613 20 is_stmt 1 discriminator 4
 6447 0126 3B61     		str	r3, [r7, #16]
 6448              	.L238:
2588:./Libraries/STM32F4xx_HAL_Driver/Src/stm32f4xx_hal_sd.c ****     {
 6449              		.loc 1 2588 10
 6450 0128 3B69     		ldr	r3, [r7, #16]
 6451 012a 002B     		cmp	r3, #0
 6452 012c CAD0     		beq	.L244
2614:./Libraries/STM32F4xx_HAL_Driver/Src/stm32f4xx_hal_sd.c ****     }
2615:./Libraries/STM32F4xx_HAL_Driver/Src/stm32f4xx_hal_sd.c ****     
2616:./Libraries/STM32F4xx_HAL_Driver/Src/stm32f4xx_hal_sd.c ****     if((response & SDMMC_HIGH_CAPACITY) == SDMMC_HIGH_CAPACITY) /* (response &= SD_HIGH_CAPACITY) *
 6453              		.loc 1 2616 18
 6454 012e 7B69     		ldr	r3, [r7, #20]
 6455 0130 03F08043 		and	r3, r3, #1073741824
 6456              		.loc 1 2616 7
 6457 0134 002B     		cmp	r3, #0
 6458 0136 03D0     		beq	.L245
2617:./Libraries/STM32F4xx_HAL_Driver/Src/stm32f4xx_hal_sd.c ****     {
2618:./Libraries/STM32F4xx_HAL_Driver/Src/stm32f4xx_hal_sd.c ****       hsd->SdCard.CardType = CARD_SDHC_SDXC;
 6459              		.loc 1 2618 28
 6460 0138 7B68     		ldr	r3, [r7, #4]
 6461 013a 0122     		movs	r2, #1
 6462 013c 5A64     		str	r2, [r3, #68]
 6463 013e 02E0     		b	.L237
 6464              	.L245:
2619:./Libraries/STM32F4xx_HAL_Driver/Src/stm32f4xx_hal_sd.c ****     }
2620:./Libraries/STM32F4xx_HAL_Driver/Src/stm32f4xx_hal_sd.c ****     else
2621:./Libraries/STM32F4xx_HAL_Driver/Src/stm32f4xx_hal_sd.c ****     {
2622:./Libraries/STM32F4xx_HAL_Driver/Src/stm32f4xx_hal_sd.c ****       hsd->SdCard.CardType = CARD_SDSC;
 6465              		.loc 1 2622 28
 6466 0140 7B68     		ldr	r3, [r7, #4]
 6467 0142 0022     		movs	r2, #0
 6468 0144 5A64     		str	r2, [r3, #68]
 6469              	.L237:
2623:./Libraries/STM32F4xx_HAL_Driver/Src/stm32f4xx_hal_sd.c ****     }
2624:./Libraries/STM32F4xx_HAL_Driver/Src/stm32f4xx_hal_sd.c ****   }
2625:./Libraries/STM32F4xx_HAL_Driver/Src/stm32f4xx_hal_sd.c ****   
2626:./Libraries/STM32F4xx_HAL_Driver/Src/stm32f4xx_hal_sd.c ****   return HAL_SD_ERROR_NONE;
 6470              		.loc 1 2626 10
 6471 0146 0023     		movs	r3, #0
 6472              	.L228:
ARM GAS  /tmp/ccMhfXg8.s 			page 161


2627:./Libraries/STM32F4xx_HAL_Driver/Src/stm32f4xx_hal_sd.c **** }
 6473              		.loc 1 2627 1
 6474 0148 1846     		mov	r0, r3
 6475 014a 1837     		adds	r7, r7, #24
 6476              	.LCFI180:
 6477              		.cfi_def_cfa_offset 8
 6478 014c BD46     		mov	sp, r7
 6479              	.LCFI181:
 6480              		.cfi_def_cfa_register 13
 6481              		@ sp needed
 6482 014e 80BD     		pop	{r7, pc}
 6483              		.cfi_endproc
 6484              	.LFE159:
 6486              		.section	.text.SD_PowerOFF,"ax",%progbits
 6487              		.align	1
 6488              		.syntax unified
 6489              		.thumb
 6490              		.thumb_func
 6491              		.fpu fpv4-sp-d16
 6493              	SD_PowerOFF:
 6494              	.LFB160:
2628:./Libraries/STM32F4xx_HAL_Driver/Src/stm32f4xx_hal_sd.c **** 
2629:./Libraries/STM32F4xx_HAL_Driver/Src/stm32f4xx_hal_sd.c **** /**
2630:./Libraries/STM32F4xx_HAL_Driver/Src/stm32f4xx_hal_sd.c ****   * @brief  Turns the SDIO output signals off.
2631:./Libraries/STM32F4xx_HAL_Driver/Src/stm32f4xx_hal_sd.c ****   * @param  hsd Pointer to SD handle
2632:./Libraries/STM32F4xx_HAL_Driver/Src/stm32f4xx_hal_sd.c ****   * @retval HAL status
2633:./Libraries/STM32F4xx_HAL_Driver/Src/stm32f4xx_hal_sd.c ****   */
2634:./Libraries/STM32F4xx_HAL_Driver/Src/stm32f4xx_hal_sd.c **** static HAL_StatusTypeDef SD_PowerOFF(SD_HandleTypeDef *hsd)
2635:./Libraries/STM32F4xx_HAL_Driver/Src/stm32f4xx_hal_sd.c **** {
 6495              		.loc 1 2635 1
 6496              		.cfi_startproc
 6497              		@ args = 0, pretend = 0, frame = 8
 6498              		@ frame_needed = 1, uses_anonymous_args = 0
 6499 0000 80B5     		push	{r7, lr}
 6500              	.LCFI182:
 6501              		.cfi_def_cfa_offset 8
 6502              		.cfi_offset 7, -8
 6503              		.cfi_offset 14, -4
 6504 0002 82B0     		sub	sp, sp, #8
 6505              	.LCFI183:
 6506              		.cfi_def_cfa_offset 16
 6507 0004 00AF     		add	r7, sp, #0
 6508              	.LCFI184:
 6509              		.cfi_def_cfa_register 7
 6510 0006 7860     		str	r0, [r7, #4]
2636:./Libraries/STM32F4xx_HAL_Driver/Src/stm32f4xx_hal_sd.c ****   /* Set Power State to OFF */
2637:./Libraries/STM32F4xx_HAL_Driver/Src/stm32f4xx_hal_sd.c ****   SDIO_PowerState_OFF(hsd->Instance);
 6511              		.loc 1 2637 3
 6512 0008 7B68     		ldr	r3, [r7, #4]
 6513 000a 1B68     		ldr	r3, [r3]
 6514 000c 1846     		mov	r0, r3
 6515 000e FFF7FEFF 		bl	SDIO_PowerState_OFF
2638:./Libraries/STM32F4xx_HAL_Driver/Src/stm32f4xx_hal_sd.c ****   
2639:./Libraries/STM32F4xx_HAL_Driver/Src/stm32f4xx_hal_sd.c ****   return HAL_OK;
 6516              		.loc 1 2639 10
 6517 0012 0023     		movs	r3, #0
2640:./Libraries/STM32F4xx_HAL_Driver/Src/stm32f4xx_hal_sd.c **** }
ARM GAS  /tmp/ccMhfXg8.s 			page 162


 6518              		.loc 1 2640 1
 6519 0014 1846     		mov	r0, r3
 6520 0016 0837     		adds	r7, r7, #8
 6521              	.LCFI185:
 6522              		.cfi_def_cfa_offset 8
 6523 0018 BD46     		mov	sp, r7
 6524              	.LCFI186:
 6525              		.cfi_def_cfa_register 13
 6526              		@ sp needed
 6527 001a 80BD     		pop	{r7, pc}
 6528              		.cfi_endproc
 6529              	.LFE160:
 6531              		.section	.text.SD_SendSDStatus,"ax",%progbits
 6532              		.align	1
 6533              		.syntax unified
 6534              		.thumb
 6535              		.thumb_func
 6536              		.fpu fpv4-sp-d16
 6538              	SD_SendSDStatus:
 6539              	.LFB161:
2641:./Libraries/STM32F4xx_HAL_Driver/Src/stm32f4xx_hal_sd.c **** 
2642:./Libraries/STM32F4xx_HAL_Driver/Src/stm32f4xx_hal_sd.c **** /**
2643:./Libraries/STM32F4xx_HAL_Driver/Src/stm32f4xx_hal_sd.c ****   * @brief  Send Status info command.
2644:./Libraries/STM32F4xx_HAL_Driver/Src/stm32f4xx_hal_sd.c ****   * @param  hsd pointer to SD handle
2645:./Libraries/STM32F4xx_HAL_Driver/Src/stm32f4xx_hal_sd.c ****   * @param  pSDstatus Pointer to the buffer that will contain the SD card status 
2646:./Libraries/STM32F4xx_HAL_Driver/Src/stm32f4xx_hal_sd.c ****   *         SD Status register)
2647:./Libraries/STM32F4xx_HAL_Driver/Src/stm32f4xx_hal_sd.c ****   * @retval error state
2648:./Libraries/STM32F4xx_HAL_Driver/Src/stm32f4xx_hal_sd.c ****   */
2649:./Libraries/STM32F4xx_HAL_Driver/Src/stm32f4xx_hal_sd.c **** static uint32_t SD_SendSDStatus(SD_HandleTypeDef *hsd, uint32_t *pSDstatus)
2650:./Libraries/STM32F4xx_HAL_Driver/Src/stm32f4xx_hal_sd.c **** {
 6540              		.loc 1 2650 1
 6541              		.cfi_startproc
 6542              		@ args = 0, pretend = 0, frame = 48
 6543              		@ frame_needed = 1, uses_anonymous_args = 0
 6544 0000 90B5     		push	{r4, r7, lr}
 6545              	.LCFI187:
 6546              		.cfi_def_cfa_offset 12
 6547              		.cfi_offset 4, -12
 6548              		.cfi_offset 7, -8
 6549              		.cfi_offset 14, -4
 6550 0002 8DB0     		sub	sp, sp, #52
 6551              	.LCFI188:
 6552              		.cfi_def_cfa_offset 64
 6553 0004 00AF     		add	r7, sp, #0
 6554              	.LCFI189:
 6555              		.cfi_def_cfa_register 7
 6556 0006 7860     		str	r0, [r7, #4]
 6557 0008 3960     		str	r1, [r7]
2651:./Libraries/STM32F4xx_HAL_Driver/Src/stm32f4xx_hal_sd.c ****   SDIO_DataInitTypeDef config;
2652:./Libraries/STM32F4xx_HAL_Driver/Src/stm32f4xx_hal_sd.c ****   uint32_t errorstate = HAL_SD_ERROR_NONE;
 6558              		.loc 1 2652 12
 6559 000a 0023     		movs	r3, #0
 6560 000c BB62     		str	r3, [r7, #40]
2653:./Libraries/STM32F4xx_HAL_Driver/Src/stm32f4xx_hal_sd.c ****   uint32_t tickstart = HAL_GetTick();
 6561              		.loc 1 2653 24
 6562 000e FFF7FEFF 		bl	HAL_GetTick
 6563 0012 7862     		str	r0, [r7, #36]
ARM GAS  /tmp/ccMhfXg8.s 			page 163


2654:./Libraries/STM32F4xx_HAL_Driver/Src/stm32f4xx_hal_sd.c ****   uint32_t count = 0U;
 6564              		.loc 1 2654 12
 6565 0014 0023     		movs	r3, #0
 6566 0016 FB62     		str	r3, [r7, #44]
2655:./Libraries/STM32F4xx_HAL_Driver/Src/stm32f4xx_hal_sd.c ****   
2656:./Libraries/STM32F4xx_HAL_Driver/Src/stm32f4xx_hal_sd.c ****   /* Check SD response */
2657:./Libraries/STM32F4xx_HAL_Driver/Src/stm32f4xx_hal_sd.c ****   if((SDIO_GetResponse(hsd->Instance, SDIO_RESP1) & SDMMC_CARD_LOCKED) == SDMMC_CARD_LOCKED)
 6567              		.loc 1 2657 7
 6568 0018 7B68     		ldr	r3, [r7, #4]
 6569 001a 1B68     		ldr	r3, [r3]
 6570 001c 0021     		movs	r1, #0
 6571 001e 1846     		mov	r0, r3
 6572 0020 FFF7FEFF 		bl	SDIO_GetResponse
 6573 0024 0346     		mov	r3, r0
 6574              		.loc 1 2657 51
 6575 0026 03F00073 		and	r3, r3, #33554432
 6576              		.loc 1 2657 5
 6577 002a B3F1007F 		cmp	r3, #33554432
 6578 002e 02D1     		bne	.L249
2658:./Libraries/STM32F4xx_HAL_Driver/Src/stm32f4xx_hal_sd.c ****   {
2659:./Libraries/STM32F4xx_HAL_Driver/Src/stm32f4xx_hal_sd.c ****     return HAL_SD_ERROR_LOCK_UNLOCK_FAILED;
 6579              		.loc 1 2659 12
 6580 0030 4FF40063 		mov	r3, #2048
 6581 0034 B5E0     		b	.L264
 6582              	.L249:
2660:./Libraries/STM32F4xx_HAL_Driver/Src/stm32f4xx_hal_sd.c ****   }
2661:./Libraries/STM32F4xx_HAL_Driver/Src/stm32f4xx_hal_sd.c ****   
2662:./Libraries/STM32F4xx_HAL_Driver/Src/stm32f4xx_hal_sd.c ****   /* Set block size for card if it is not equal to current block size for card */
2663:./Libraries/STM32F4xx_HAL_Driver/Src/stm32f4xx_hal_sd.c ****   errorstate = SDMMC_CmdBlockLength(hsd->Instance, 64U);
 6583              		.loc 1 2663 16
 6584 0036 7B68     		ldr	r3, [r7, #4]
 6585 0038 1B68     		ldr	r3, [r3]
 6586 003a 4021     		movs	r1, #64
 6587 003c 1846     		mov	r0, r3
 6588 003e FFF7FEFF 		bl	SDMMC_CmdBlockLength
 6589 0042 B862     		str	r0, [r7, #40]
2664:./Libraries/STM32F4xx_HAL_Driver/Src/stm32f4xx_hal_sd.c ****   if(errorstate != HAL_SD_ERROR_NONE)
 6590              		.loc 1 2664 5
 6591 0044 BB6A     		ldr	r3, [r7, #40]
 6592 0046 002B     		cmp	r3, #0
 6593 0048 05D0     		beq	.L251
2665:./Libraries/STM32F4xx_HAL_Driver/Src/stm32f4xx_hal_sd.c ****   {
2666:./Libraries/STM32F4xx_HAL_Driver/Src/stm32f4xx_hal_sd.c ****     hsd->ErrorCode |= HAL_SD_ERROR_NONE;
 6594              		.loc 1 2666 20
 6595 004a 7B68     		ldr	r3, [r7, #4]
 6596 004c 9A6B     		ldr	r2, [r3, #56]
 6597 004e 7B68     		ldr	r3, [r7, #4]
 6598 0050 9A63     		str	r2, [r3, #56]
2667:./Libraries/STM32F4xx_HAL_Driver/Src/stm32f4xx_hal_sd.c ****     return errorstate;
 6599              		.loc 1 2667 12
 6600 0052 BB6A     		ldr	r3, [r7, #40]
 6601 0054 A5E0     		b	.L264
 6602              	.L251:
2668:./Libraries/STM32F4xx_HAL_Driver/Src/stm32f4xx_hal_sd.c ****   }
2669:./Libraries/STM32F4xx_HAL_Driver/Src/stm32f4xx_hal_sd.c ****   
2670:./Libraries/STM32F4xx_HAL_Driver/Src/stm32f4xx_hal_sd.c ****   /* Send CMD55 */
2671:./Libraries/STM32F4xx_HAL_Driver/Src/stm32f4xx_hal_sd.c ****   errorstate = SDMMC_CmdAppCommand(hsd->Instance, (uint32_t)(hsd->SdCard.RelCardAdd << 16U));
ARM GAS  /tmp/ccMhfXg8.s 			page 164


 6603              		.loc 1 2671 16
 6604 0056 7B68     		ldr	r3, [r7, #4]
 6605 0058 1A68     		ldr	r2, [r3]
 6606              		.loc 1 2671 73
 6607 005a 7B68     		ldr	r3, [r7, #4]
 6608 005c 1B6D     		ldr	r3, [r3, #80]
 6609              		.loc 1 2671 85
 6610 005e 1B04     		lsls	r3, r3, #16
 6611              		.loc 1 2671 16
 6612 0060 1946     		mov	r1, r3
 6613 0062 1046     		mov	r0, r2
 6614 0064 FFF7FEFF 		bl	SDMMC_CmdAppCommand
 6615 0068 B862     		str	r0, [r7, #40]
2672:./Libraries/STM32F4xx_HAL_Driver/Src/stm32f4xx_hal_sd.c ****   if(errorstate != HAL_SD_ERROR_NONE)
 6616              		.loc 1 2672 5
 6617 006a BB6A     		ldr	r3, [r7, #40]
 6618 006c 002B     		cmp	r3, #0
 6619 006e 05D0     		beq	.L252
2673:./Libraries/STM32F4xx_HAL_Driver/Src/stm32f4xx_hal_sd.c ****   {
2674:./Libraries/STM32F4xx_HAL_Driver/Src/stm32f4xx_hal_sd.c ****     hsd->ErrorCode |= HAL_SD_ERROR_NONE;
 6620              		.loc 1 2674 20
 6621 0070 7B68     		ldr	r3, [r7, #4]
 6622 0072 9A6B     		ldr	r2, [r3, #56]
 6623 0074 7B68     		ldr	r3, [r7, #4]
 6624 0076 9A63     		str	r2, [r3, #56]
2675:./Libraries/STM32F4xx_HAL_Driver/Src/stm32f4xx_hal_sd.c ****     return errorstate;
 6625              		.loc 1 2675 12
 6626 0078 BB6A     		ldr	r3, [r7, #40]
 6627 007a 92E0     		b	.L264
 6628              	.L252:
2676:./Libraries/STM32F4xx_HAL_Driver/Src/stm32f4xx_hal_sd.c ****   }
2677:./Libraries/STM32F4xx_HAL_Driver/Src/stm32f4xx_hal_sd.c ****   
2678:./Libraries/STM32F4xx_HAL_Driver/Src/stm32f4xx_hal_sd.c ****   /* Configure the SD DPSM (Data Path State Machine) */ 
2679:./Libraries/STM32F4xx_HAL_Driver/Src/stm32f4xx_hal_sd.c ****   config.DataTimeOut   = SDMMC_DATATIMEOUT;
 6629              		.loc 1 2679 24
 6630 007c 4FF0FF33 		mov	r3, #-1
 6631 0080 FB60     		str	r3, [r7, #12]
2680:./Libraries/STM32F4xx_HAL_Driver/Src/stm32f4xx_hal_sd.c ****   config.DataLength    = 64U;
 6632              		.loc 1 2680 24
 6633 0082 4023     		movs	r3, #64
 6634 0084 3B61     		str	r3, [r7, #16]
2681:./Libraries/STM32F4xx_HAL_Driver/Src/stm32f4xx_hal_sd.c ****   config.DataBlockSize = SDIO_DATABLOCK_SIZE_64B;
 6635              		.loc 1 2681 24
 6636 0086 6023     		movs	r3, #96
 6637 0088 7B61     		str	r3, [r7, #20]
2682:./Libraries/STM32F4xx_HAL_Driver/Src/stm32f4xx_hal_sd.c ****   config.TransferDir   = SDIO_TRANSFER_DIR_TO_SDIO;
 6638              		.loc 1 2682 24
 6639 008a 0223     		movs	r3, #2
 6640 008c BB61     		str	r3, [r7, #24]
2683:./Libraries/STM32F4xx_HAL_Driver/Src/stm32f4xx_hal_sd.c ****   config.TransferMode  = SDIO_TRANSFER_MODE_BLOCK;
 6641              		.loc 1 2683 24
 6642 008e 0023     		movs	r3, #0
 6643 0090 FB61     		str	r3, [r7, #28]
2684:./Libraries/STM32F4xx_HAL_Driver/Src/stm32f4xx_hal_sd.c ****   config.DPSM          = SDIO_DPSM_ENABLE;
 6644              		.loc 1 2684 24
 6645 0092 0123     		movs	r3, #1
 6646 0094 3B62     		str	r3, [r7, #32]
ARM GAS  /tmp/ccMhfXg8.s 			page 165


2685:./Libraries/STM32F4xx_HAL_Driver/Src/stm32f4xx_hal_sd.c ****   SDIO_ConfigData(hsd->Instance, &config);
 6647              		.loc 1 2685 3
 6648 0096 7B68     		ldr	r3, [r7, #4]
 6649 0098 1B68     		ldr	r3, [r3]
 6650 009a 07F10C02 		add	r2, r7, #12
 6651 009e 1146     		mov	r1, r2
 6652 00a0 1846     		mov	r0, r3
 6653 00a2 FFF7FEFF 		bl	SDIO_ConfigData
2686:./Libraries/STM32F4xx_HAL_Driver/Src/stm32f4xx_hal_sd.c ****   
2687:./Libraries/STM32F4xx_HAL_Driver/Src/stm32f4xx_hal_sd.c ****   /* Send ACMD13 (SD_APP_STAUS)  with argument as card's RCA */
2688:./Libraries/STM32F4xx_HAL_Driver/Src/stm32f4xx_hal_sd.c ****   errorstate = SDMMC_CmdStatusRegister(hsd->Instance);
 6654              		.loc 1 2688 16
 6655 00a6 7B68     		ldr	r3, [r7, #4]
 6656 00a8 1B68     		ldr	r3, [r3]
 6657 00aa 1846     		mov	r0, r3
 6658 00ac FFF7FEFF 		bl	SDMMC_CmdStatusRegister
 6659 00b0 B862     		str	r0, [r7, #40]
2689:./Libraries/STM32F4xx_HAL_Driver/Src/stm32f4xx_hal_sd.c ****   if(errorstate != HAL_SD_ERROR_NONE)
 6660              		.loc 1 2689 5
 6661 00b2 BB6A     		ldr	r3, [r7, #40]
 6662 00b4 002B     		cmp	r3, #0
 6663 00b6 2ED0     		beq	.L254
2690:./Libraries/STM32F4xx_HAL_Driver/Src/stm32f4xx_hal_sd.c ****   {
2691:./Libraries/STM32F4xx_HAL_Driver/Src/stm32f4xx_hal_sd.c ****     hsd->ErrorCode |= HAL_SD_ERROR_NONE;
 6664              		.loc 1 2691 20
 6665 00b8 7B68     		ldr	r3, [r7, #4]
 6666 00ba 9A6B     		ldr	r2, [r3, #56]
 6667 00bc 7B68     		ldr	r3, [r7, #4]
 6668 00be 9A63     		str	r2, [r3, #56]
2692:./Libraries/STM32F4xx_HAL_Driver/Src/stm32f4xx_hal_sd.c ****     return errorstate;
 6669              		.loc 1 2692 12
 6670 00c0 BB6A     		ldr	r3, [r7, #40]
 6671 00c2 6EE0     		b	.L264
 6672              	.L258:
2693:./Libraries/STM32F4xx_HAL_Driver/Src/stm32f4xx_hal_sd.c ****   }
2694:./Libraries/STM32F4xx_HAL_Driver/Src/stm32f4xx_hal_sd.c ****   
2695:./Libraries/STM32F4xx_HAL_Driver/Src/stm32f4xx_hal_sd.c ****   /* Get status data */
2696:./Libraries/STM32F4xx_HAL_Driver/Src/stm32f4xx_hal_sd.c ****   while(!__HAL_SD_GET_FLAG(hsd, SDIO_FLAG_RXOVERR | SDIO_FLAG_DCRCFAIL | SDIO_FLAG_DTIMEOUT | SDIO_
2697:./Libraries/STM32F4xx_HAL_Driver/Src/stm32f4xx_hal_sd.c ****   {
2698:./Libraries/STM32F4xx_HAL_Driver/Src/stm32f4xx_hal_sd.c ****     if(__HAL_SD_GET_FLAG(hsd, SDIO_FLAG_RXFIFOHF))
 6673              		.loc 1 2698 8
 6674 00c4 7B68     		ldr	r3, [r7, #4]
 6675 00c6 1B68     		ldr	r3, [r3]
 6676 00c8 5B6B     		ldr	r3, [r3, #52]
 6677 00ca 03F40043 		and	r3, r3, #32768
 6678              		.loc 1 2698 7
 6679 00ce 002B     		cmp	r3, #0
 6680 00d0 16D0     		beq	.L255
2699:./Libraries/STM32F4xx_HAL_Driver/Src/stm32f4xx_hal_sd.c ****     {
2700:./Libraries/STM32F4xx_HAL_Driver/Src/stm32f4xx_hal_sd.c ****       for(count = 0U; count < 8U; count++)
 6681              		.loc 1 2700 17
 6682 00d2 0023     		movs	r3, #0
 6683 00d4 FB62     		str	r3, [r7, #44]
 6684              		.loc 1 2700 7
 6685 00d6 0DE0     		b	.L256
 6686              	.L257:
2701:./Libraries/STM32F4xx_HAL_Driver/Src/stm32f4xx_hal_sd.c ****       {
ARM GAS  /tmp/ccMhfXg8.s 			page 166


2702:./Libraries/STM32F4xx_HAL_Driver/Src/stm32f4xx_hal_sd.c ****         *(pSDstatus + count) = SDIO_ReadFIFO(hsd->Instance);
 6687              		.loc 1 2702 32 discriminator 3
 6688 00d8 7B68     		ldr	r3, [r7, #4]
 6689 00da 1968     		ldr	r1, [r3]
 6690              		.loc 1 2702 21 discriminator 3
 6691 00dc FB6A     		ldr	r3, [r7, #44]
 6692 00de 9B00     		lsls	r3, r3, #2
 6693 00e0 3A68     		ldr	r2, [r7]
 6694 00e2 D418     		adds	r4, r2, r3
 6695              		.loc 1 2702 32 discriminator 3
 6696 00e4 0846     		mov	r0, r1
 6697 00e6 FFF7FEFF 		bl	SDIO_ReadFIFO
 6698 00ea 0346     		mov	r3, r0
 6699              		.loc 1 2702 30 discriminator 3
 6700 00ec 2360     		str	r3, [r4]
2700:./Libraries/STM32F4xx_HAL_Driver/Src/stm32f4xx_hal_sd.c ****       {
 6701              		.loc 1 2700 40 discriminator 3
 6702 00ee FB6A     		ldr	r3, [r7, #44]
 6703 00f0 0133     		adds	r3, r3, #1
 6704 00f2 FB62     		str	r3, [r7, #44]
 6705              	.L256:
2700:./Libraries/STM32F4xx_HAL_Driver/Src/stm32f4xx_hal_sd.c ****       {
 6706              		.loc 1 2700 7 discriminator 1
 6707 00f4 FB6A     		ldr	r3, [r7, #44]
 6708 00f6 072B     		cmp	r3, #7
 6709 00f8 EED9     		bls	.L257
2703:./Libraries/STM32F4xx_HAL_Driver/Src/stm32f4xx_hal_sd.c ****       }
2704:./Libraries/STM32F4xx_HAL_Driver/Src/stm32f4xx_hal_sd.c ****       
2705:./Libraries/STM32F4xx_HAL_Driver/Src/stm32f4xx_hal_sd.c ****       pSDstatus += 8U;
 6710              		.loc 1 2705 17
 6711 00fa 3B68     		ldr	r3, [r7]
 6712 00fc 2033     		adds	r3, r3, #32
 6713 00fe 3B60     		str	r3, [r7]
 6714              	.L255:
2706:./Libraries/STM32F4xx_HAL_Driver/Src/stm32f4xx_hal_sd.c ****     }
2707:./Libraries/STM32F4xx_HAL_Driver/Src/stm32f4xx_hal_sd.c ****     
2708:./Libraries/STM32F4xx_HAL_Driver/Src/stm32f4xx_hal_sd.c ****     if((HAL_GetTick() - tickstart) >=  SDMMC_DATATIMEOUT)
 6715              		.loc 1 2708 9
 6716 0100 FFF7FEFF 		bl	HAL_GetTick
 6717 0104 0246     		mov	r2, r0
 6718              		.loc 1 2708 23
 6719 0106 7B6A     		ldr	r3, [r7, #36]
 6720 0108 D31A     		subs	r3, r2, r3
 6721              		.loc 1 2708 7
 6722 010a B3F1FF3F 		cmp	r3, #-1
 6723 010e 02D1     		bne	.L254
2709:./Libraries/STM32F4xx_HAL_Driver/Src/stm32f4xx_hal_sd.c ****     {
2710:./Libraries/STM32F4xx_HAL_Driver/Src/stm32f4xx_hal_sd.c ****       return HAL_SD_ERROR_TIMEOUT;
 6724              		.loc 1 2710 14
 6725 0110 4FF00043 		mov	r3, #-2147483648
 6726 0114 45E0     		b	.L264
 6727              	.L254:
2696:./Libraries/STM32F4xx_HAL_Driver/Src/stm32f4xx_hal_sd.c ****   {
 6728              		.loc 1 2696 10
 6729 0116 7B68     		ldr	r3, [r7, #4]
 6730 0118 1B68     		ldr	r3, [r3]
 6731 011a 5A6B     		ldr	r2, [r3, #52]
ARM GAS  /tmp/ccMhfXg8.s 			page 167


 6732 011c 40F22A43 		movw	r3, #1066
 6733 0120 1340     		ands	r3, r3, r2
2696:./Libraries/STM32F4xx_HAL_Driver/Src/stm32f4xx_hal_sd.c ****   {
 6734              		.loc 1 2696 8
 6735 0122 002B     		cmp	r3, #0
 6736 0124 CED0     		beq	.L258
2711:./Libraries/STM32F4xx_HAL_Driver/Src/stm32f4xx_hal_sd.c ****     }
2712:./Libraries/STM32F4xx_HAL_Driver/Src/stm32f4xx_hal_sd.c ****   }
2713:./Libraries/STM32F4xx_HAL_Driver/Src/stm32f4xx_hal_sd.c ****   
2714:./Libraries/STM32F4xx_HAL_Driver/Src/stm32f4xx_hal_sd.c ****   if(__HAL_SD_GET_FLAG(hsd, SDIO_FLAG_DTIMEOUT))
 6737              		.loc 1 2714 6
 6738 0126 7B68     		ldr	r3, [r7, #4]
 6739 0128 1B68     		ldr	r3, [r3]
 6740 012a 5B6B     		ldr	r3, [r3, #52]
 6741 012c 03F00803 		and	r3, r3, #8
 6742              		.loc 1 2714 5
 6743 0130 002B     		cmp	r3, #0
 6744 0132 01D0     		beq	.L259
2715:./Libraries/STM32F4xx_HAL_Driver/Src/stm32f4xx_hal_sd.c ****   {
2716:./Libraries/STM32F4xx_HAL_Driver/Src/stm32f4xx_hal_sd.c ****     return HAL_SD_ERROR_DATA_TIMEOUT;
 6745              		.loc 1 2716 12
 6746 0134 0823     		movs	r3, #8
 6747 0136 34E0     		b	.L264
 6748              	.L259:
2717:./Libraries/STM32F4xx_HAL_Driver/Src/stm32f4xx_hal_sd.c ****   }
2718:./Libraries/STM32F4xx_HAL_Driver/Src/stm32f4xx_hal_sd.c ****   else if(__HAL_SD_GET_FLAG(hsd, SDIO_FLAG_DCRCFAIL))
 6749              		.loc 1 2718 11
 6750 0138 7B68     		ldr	r3, [r7, #4]
 6751 013a 1B68     		ldr	r3, [r3]
 6752 013c 5B6B     		ldr	r3, [r3, #52]
 6753 013e 03F00203 		and	r3, r3, #2
 6754              		.loc 1 2718 10
 6755 0142 002B     		cmp	r3, #0
 6756 0144 01D0     		beq	.L260
2719:./Libraries/STM32F4xx_HAL_Driver/Src/stm32f4xx_hal_sd.c ****   {
2720:./Libraries/STM32F4xx_HAL_Driver/Src/stm32f4xx_hal_sd.c ****     return HAL_SD_ERROR_DATA_CRC_FAIL;
 6757              		.loc 1 2720 12
 6758 0146 0223     		movs	r3, #2
 6759 0148 2BE0     		b	.L264
 6760              	.L260:
2721:./Libraries/STM32F4xx_HAL_Driver/Src/stm32f4xx_hal_sd.c ****   }
2722:./Libraries/STM32F4xx_HAL_Driver/Src/stm32f4xx_hal_sd.c ****   else if(__HAL_SD_GET_FLAG(hsd, SDIO_FLAG_RXOVERR))
 6761              		.loc 1 2722 11
 6762 014a 7B68     		ldr	r3, [r7, #4]
 6763 014c 1B68     		ldr	r3, [r3]
 6764 014e 5B6B     		ldr	r3, [r3, #52]
 6765 0150 03F02003 		and	r3, r3, #32
 6766              		.loc 1 2722 10
 6767 0154 002B     		cmp	r3, #0
 6768 0156 17D0     		beq	.L262
2723:./Libraries/STM32F4xx_HAL_Driver/Src/stm32f4xx_hal_sd.c ****   {
2724:./Libraries/STM32F4xx_HAL_Driver/Src/stm32f4xx_hal_sd.c ****     return HAL_SD_ERROR_RX_OVERRUN;
 6769              		.loc 1 2724 12
 6770 0158 2023     		movs	r3, #32
 6771 015a 22E0     		b	.L264
 6772              	.L263:
2725:./Libraries/STM32F4xx_HAL_Driver/Src/stm32f4xx_hal_sd.c ****   }
ARM GAS  /tmp/ccMhfXg8.s 			page 168


2726:./Libraries/STM32F4xx_HAL_Driver/Src/stm32f4xx_hal_sd.c **** 
2727:./Libraries/STM32F4xx_HAL_Driver/Src/stm32f4xx_hal_sd.c ****   while ((__HAL_SD_GET_FLAG(hsd, SDIO_FLAG_RXDAVL)))
2728:./Libraries/STM32F4xx_HAL_Driver/Src/stm32f4xx_hal_sd.c ****   {
2729:./Libraries/STM32F4xx_HAL_Driver/Src/stm32f4xx_hal_sd.c ****     *pSDstatus = SDIO_ReadFIFO(hsd->Instance);
 6773              		.loc 1 2729 18
 6774 015c 7B68     		ldr	r3, [r7, #4]
 6775 015e 1B68     		ldr	r3, [r3]
 6776 0160 1846     		mov	r0, r3
 6777 0162 FFF7FEFF 		bl	SDIO_ReadFIFO
 6778 0166 0246     		mov	r2, r0
 6779              		.loc 1 2729 16
 6780 0168 3B68     		ldr	r3, [r7]
 6781 016a 1A60     		str	r2, [r3]
2730:./Libraries/STM32F4xx_HAL_Driver/Src/stm32f4xx_hal_sd.c ****     pSDstatus++;
 6782              		.loc 1 2730 14
 6783 016c 3B68     		ldr	r3, [r7]
 6784 016e 0433     		adds	r3, r3, #4
 6785 0170 3B60     		str	r3, [r7]
2731:./Libraries/STM32F4xx_HAL_Driver/Src/stm32f4xx_hal_sd.c ****     
2732:./Libraries/STM32F4xx_HAL_Driver/Src/stm32f4xx_hal_sd.c ****     if((HAL_GetTick() - tickstart) >=  SDMMC_DATATIMEOUT)
 6786              		.loc 1 2732 9
 6787 0172 FFF7FEFF 		bl	HAL_GetTick
 6788 0176 0246     		mov	r2, r0
 6789              		.loc 1 2732 23
 6790 0178 7B6A     		ldr	r3, [r7, #36]
 6791 017a D31A     		subs	r3, r2, r3
 6792              		.loc 1 2732 7
 6793 017c B3F1FF3F 		cmp	r3, #-1
 6794 0180 02D1     		bne	.L262
2733:./Libraries/STM32F4xx_HAL_Driver/Src/stm32f4xx_hal_sd.c ****     {
2734:./Libraries/STM32F4xx_HAL_Driver/Src/stm32f4xx_hal_sd.c ****       return HAL_SD_ERROR_TIMEOUT;
 6795              		.loc 1 2734 14
 6796 0182 4FF00043 		mov	r3, #-2147483648
 6797 0186 0CE0     		b	.L264
 6798              	.L262:
2727:./Libraries/STM32F4xx_HAL_Driver/Src/stm32f4xx_hal_sd.c ****   {
 6799              		.loc 1 2727 11
 6800 0188 7B68     		ldr	r3, [r7, #4]
 6801 018a 1B68     		ldr	r3, [r3]
 6802 018c 5B6B     		ldr	r3, [r3, #52]
 6803 018e 03F40013 		and	r3, r3, #2097152
2727:./Libraries/STM32F4xx_HAL_Driver/Src/stm32f4xx_hal_sd.c ****   {
 6804              		.loc 1 2727 9
 6805 0192 002B     		cmp	r3, #0
 6806 0194 E2D1     		bne	.L263
2735:./Libraries/STM32F4xx_HAL_Driver/Src/stm32f4xx_hal_sd.c ****     }
2736:./Libraries/STM32F4xx_HAL_Driver/Src/stm32f4xx_hal_sd.c ****   }
2737:./Libraries/STM32F4xx_HAL_Driver/Src/stm32f4xx_hal_sd.c ****   
2738:./Libraries/STM32F4xx_HAL_Driver/Src/stm32f4xx_hal_sd.c ****   /* Clear all the static status flags*/
2739:./Libraries/STM32F4xx_HAL_Driver/Src/stm32f4xx_hal_sd.c ****   __HAL_SD_CLEAR_FLAG(hsd, SDIO_STATIC_FLAGS);
 6807              		.loc 1 2739 3
 6808 0196 7B68     		ldr	r3, [r7, #4]
 6809 0198 1B68     		ldr	r3, [r3]
 6810 019a 40F2FF52 		movw	r2, #1535
 6811 019e 9A63     		str	r2, [r3, #56]
2740:./Libraries/STM32F4xx_HAL_Driver/Src/stm32f4xx_hal_sd.c ****   
2741:./Libraries/STM32F4xx_HAL_Driver/Src/stm32f4xx_hal_sd.c ****   return HAL_SD_ERROR_NONE;
ARM GAS  /tmp/ccMhfXg8.s 			page 169


 6812              		.loc 1 2741 10
 6813 01a0 0023     		movs	r3, #0
 6814              	.L264:
2742:./Libraries/STM32F4xx_HAL_Driver/Src/stm32f4xx_hal_sd.c **** }
 6815              		.loc 1 2742 1 discriminator 1
 6816 01a2 1846     		mov	r0, r3
 6817 01a4 3437     		adds	r7, r7, #52
 6818              	.LCFI190:
 6819              		.cfi_def_cfa_offset 12
 6820 01a6 BD46     		mov	sp, r7
 6821              	.LCFI191:
 6822              		.cfi_def_cfa_register 13
 6823              		@ sp needed
 6824 01a8 90BD     		pop	{r4, r7, pc}
 6825              		.cfi_endproc
 6826              	.LFE161:
 6828              		.section	.text.SD_SendStatus,"ax",%progbits
 6829              		.align	1
 6830              		.syntax unified
 6831              		.thumb
 6832              		.thumb_func
 6833              		.fpu fpv4-sp-d16
 6835              	SD_SendStatus:
 6836              	.LFB162:
2743:./Libraries/STM32F4xx_HAL_Driver/Src/stm32f4xx_hal_sd.c **** 
2744:./Libraries/STM32F4xx_HAL_Driver/Src/stm32f4xx_hal_sd.c **** /**
2745:./Libraries/STM32F4xx_HAL_Driver/Src/stm32f4xx_hal_sd.c ****   * @brief  Returns the current card's status.
2746:./Libraries/STM32F4xx_HAL_Driver/Src/stm32f4xx_hal_sd.c ****   * @param  hsd Pointer to SD handle
2747:./Libraries/STM32F4xx_HAL_Driver/Src/stm32f4xx_hal_sd.c ****   * @param  pCardStatus pointer to the buffer that will contain the SD card 
2748:./Libraries/STM32F4xx_HAL_Driver/Src/stm32f4xx_hal_sd.c ****   *         status (Card Status register)  
2749:./Libraries/STM32F4xx_HAL_Driver/Src/stm32f4xx_hal_sd.c ****   * @retval error state
2750:./Libraries/STM32F4xx_HAL_Driver/Src/stm32f4xx_hal_sd.c ****   */
2751:./Libraries/STM32F4xx_HAL_Driver/Src/stm32f4xx_hal_sd.c **** static uint32_t SD_SendStatus(SD_HandleTypeDef *hsd, uint32_t *pCardStatus)
2752:./Libraries/STM32F4xx_HAL_Driver/Src/stm32f4xx_hal_sd.c **** {
 6837              		.loc 1 2752 1
 6838              		.cfi_startproc
 6839              		@ args = 0, pretend = 0, frame = 16
 6840              		@ frame_needed = 1, uses_anonymous_args = 0
 6841 0000 80B5     		push	{r7, lr}
 6842              	.LCFI192:
 6843              		.cfi_def_cfa_offset 8
 6844              		.cfi_offset 7, -8
 6845              		.cfi_offset 14, -4
 6846 0002 84B0     		sub	sp, sp, #16
 6847              	.LCFI193:
 6848              		.cfi_def_cfa_offset 24
 6849 0004 00AF     		add	r7, sp, #0
 6850              	.LCFI194:
 6851              		.cfi_def_cfa_register 7
 6852 0006 7860     		str	r0, [r7, #4]
 6853 0008 3960     		str	r1, [r7]
2753:./Libraries/STM32F4xx_HAL_Driver/Src/stm32f4xx_hal_sd.c ****   uint32_t errorstate = HAL_SD_ERROR_NONE;
 6854              		.loc 1 2753 12
 6855 000a 0023     		movs	r3, #0
 6856 000c FB60     		str	r3, [r7, #12]
2754:./Libraries/STM32F4xx_HAL_Driver/Src/stm32f4xx_hal_sd.c ****   
2755:./Libraries/STM32F4xx_HAL_Driver/Src/stm32f4xx_hal_sd.c ****   if(pCardStatus == NULL)
ARM GAS  /tmp/ccMhfXg8.s 			page 170


 6857              		.loc 1 2755 5
 6858 000e 3B68     		ldr	r3, [r7]
 6859 0010 002B     		cmp	r3, #0
 6860 0012 02D1     		bne	.L266
2756:./Libraries/STM32F4xx_HAL_Driver/Src/stm32f4xx_hal_sd.c ****   {
2757:./Libraries/STM32F4xx_HAL_Driver/Src/stm32f4xx_hal_sd.c ****     return HAL_SD_ERROR_PARAM;
 6861              		.loc 1 2757 12
 6862 0014 4FF00063 		mov	r3, #134217728
 6863 0018 18E0     		b	.L267
 6864              	.L266:
2758:./Libraries/STM32F4xx_HAL_Driver/Src/stm32f4xx_hal_sd.c ****   }
2759:./Libraries/STM32F4xx_HAL_Driver/Src/stm32f4xx_hal_sd.c ****   
2760:./Libraries/STM32F4xx_HAL_Driver/Src/stm32f4xx_hal_sd.c ****   /* Send Status command */
2761:./Libraries/STM32F4xx_HAL_Driver/Src/stm32f4xx_hal_sd.c ****   errorstate = SDMMC_CmdSendStatus(hsd->Instance, (uint32_t)(hsd->SdCard.RelCardAdd << 16U));
 6865              		.loc 1 2761 16
 6866 001a 7B68     		ldr	r3, [r7, #4]
 6867 001c 1A68     		ldr	r2, [r3]
 6868              		.loc 1 2761 73
 6869 001e 7B68     		ldr	r3, [r7, #4]
 6870 0020 1B6D     		ldr	r3, [r3, #80]
 6871              		.loc 1 2761 85
 6872 0022 1B04     		lsls	r3, r3, #16
 6873              		.loc 1 2761 16
 6874 0024 1946     		mov	r1, r3
 6875 0026 1046     		mov	r0, r2
 6876 0028 FFF7FEFF 		bl	SDMMC_CmdSendStatus
 6877 002c F860     		str	r0, [r7, #12]
2762:./Libraries/STM32F4xx_HAL_Driver/Src/stm32f4xx_hal_sd.c ****   if(errorstate != HAL_OK)
 6878              		.loc 1 2762 5
 6879 002e FB68     		ldr	r3, [r7, #12]
 6880 0030 002B     		cmp	r3, #0
 6881 0032 01D0     		beq	.L268
2763:./Libraries/STM32F4xx_HAL_Driver/Src/stm32f4xx_hal_sd.c ****   {
2764:./Libraries/STM32F4xx_HAL_Driver/Src/stm32f4xx_hal_sd.c ****     return errorstate;
 6882              		.loc 1 2764 12
 6883 0034 FB68     		ldr	r3, [r7, #12]
 6884 0036 09E0     		b	.L267
 6885              	.L268:
2765:./Libraries/STM32F4xx_HAL_Driver/Src/stm32f4xx_hal_sd.c ****   }
2766:./Libraries/STM32F4xx_HAL_Driver/Src/stm32f4xx_hal_sd.c ****   
2767:./Libraries/STM32F4xx_HAL_Driver/Src/stm32f4xx_hal_sd.c ****   /* Get SD card status */
2768:./Libraries/STM32F4xx_HAL_Driver/Src/stm32f4xx_hal_sd.c ****   *pCardStatus = SDIO_GetResponse(hsd->Instance, SDIO_RESP1);
 6886              		.loc 1 2768 18
 6887 0038 7B68     		ldr	r3, [r7, #4]
 6888 003a 1B68     		ldr	r3, [r3]
 6889 003c 0021     		movs	r1, #0
 6890 003e 1846     		mov	r0, r3
 6891 0040 FFF7FEFF 		bl	SDIO_GetResponse
 6892 0044 0246     		mov	r2, r0
 6893              		.loc 1 2768 16
 6894 0046 3B68     		ldr	r3, [r7]
 6895 0048 1A60     		str	r2, [r3]
2769:./Libraries/STM32F4xx_HAL_Driver/Src/stm32f4xx_hal_sd.c ****   
2770:./Libraries/STM32F4xx_HAL_Driver/Src/stm32f4xx_hal_sd.c ****   return HAL_SD_ERROR_NONE;
 6896              		.loc 1 2770 10
 6897 004a 0023     		movs	r3, #0
 6898              	.L267:
ARM GAS  /tmp/ccMhfXg8.s 			page 171


2771:./Libraries/STM32F4xx_HAL_Driver/Src/stm32f4xx_hal_sd.c **** }
 6899              		.loc 1 2771 1
 6900 004c 1846     		mov	r0, r3
 6901 004e 1037     		adds	r7, r7, #16
 6902              	.LCFI195:
 6903              		.cfi_def_cfa_offset 8
 6904 0050 BD46     		mov	sp, r7
 6905              	.LCFI196:
 6906              		.cfi_def_cfa_register 13
 6907              		@ sp needed
 6908 0052 80BD     		pop	{r7, pc}
 6909              		.cfi_endproc
 6910              	.LFE162:
 6912              		.section	.text.SD_WideBus_Enable,"ax",%progbits
 6913              		.align	1
 6914              		.syntax unified
 6915              		.thumb
 6916              		.thumb_func
 6917              		.fpu fpv4-sp-d16
 6919              	SD_WideBus_Enable:
 6920              	.LFB163:
2772:./Libraries/STM32F4xx_HAL_Driver/Src/stm32f4xx_hal_sd.c **** 
2773:./Libraries/STM32F4xx_HAL_Driver/Src/stm32f4xx_hal_sd.c **** /**
2774:./Libraries/STM32F4xx_HAL_Driver/Src/stm32f4xx_hal_sd.c ****   * @brief  Enables the SDIO wide bus mode.
2775:./Libraries/STM32F4xx_HAL_Driver/Src/stm32f4xx_hal_sd.c ****   * @param  hsd pointer to SD handle
2776:./Libraries/STM32F4xx_HAL_Driver/Src/stm32f4xx_hal_sd.c ****   * @retval error state
2777:./Libraries/STM32F4xx_HAL_Driver/Src/stm32f4xx_hal_sd.c ****   */
2778:./Libraries/STM32F4xx_HAL_Driver/Src/stm32f4xx_hal_sd.c **** static uint32_t SD_WideBus_Enable(SD_HandleTypeDef *hsd)
2779:./Libraries/STM32F4xx_HAL_Driver/Src/stm32f4xx_hal_sd.c **** {
 6921              		.loc 1 2779 1
 6922              		.cfi_startproc
 6923              		@ args = 0, pretend = 0, frame = 24
 6924              		@ frame_needed = 1, uses_anonymous_args = 0
 6925 0000 80B5     		push	{r7, lr}
 6926              	.LCFI197:
 6927              		.cfi_def_cfa_offset 8
 6928              		.cfi_offset 7, -8
 6929              		.cfi_offset 14, -4
 6930 0002 86B0     		sub	sp, sp, #24
 6931              	.LCFI198:
 6932              		.cfi_def_cfa_offset 32
 6933 0004 00AF     		add	r7, sp, #0
 6934              	.LCFI199:
 6935              		.cfi_def_cfa_register 7
 6936 0006 7860     		str	r0, [r7, #4]
2780:./Libraries/STM32F4xx_HAL_Driver/Src/stm32f4xx_hal_sd.c ****   uint32_t scr[2U] = {0U, 0U};
 6937              		.loc 1 2780 12
 6938 0008 0023     		movs	r3, #0
 6939 000a FB60     		str	r3, [r7, #12]
 6940 000c 0023     		movs	r3, #0
 6941 000e 3B61     		str	r3, [r7, #16]
2781:./Libraries/STM32F4xx_HAL_Driver/Src/stm32f4xx_hal_sd.c ****   uint32_t errorstate = HAL_SD_ERROR_NONE;
 6942              		.loc 1 2781 12
 6943 0010 0023     		movs	r3, #0
 6944 0012 7B61     		str	r3, [r7, #20]
2782:./Libraries/STM32F4xx_HAL_Driver/Src/stm32f4xx_hal_sd.c ****   
2783:./Libraries/STM32F4xx_HAL_Driver/Src/stm32f4xx_hal_sd.c ****   if((SDIO_GetResponse(hsd->Instance, SDIO_RESP1) & SDMMC_CARD_LOCKED) == SDMMC_CARD_LOCKED)
ARM GAS  /tmp/ccMhfXg8.s 			page 172


 6945              		.loc 1 2783 7
 6946 0014 7B68     		ldr	r3, [r7, #4]
 6947 0016 1B68     		ldr	r3, [r3]
 6948 0018 0021     		movs	r1, #0
 6949 001a 1846     		mov	r0, r3
 6950 001c FFF7FEFF 		bl	SDIO_GetResponse
 6951 0020 0346     		mov	r3, r0
 6952              		.loc 1 2783 51
 6953 0022 03F00073 		and	r3, r3, #33554432
 6954              		.loc 1 2783 5
 6955 0026 B3F1007F 		cmp	r3, #33554432
 6956 002a 02D1     		bne	.L270
2784:./Libraries/STM32F4xx_HAL_Driver/Src/stm32f4xx_hal_sd.c ****   {
2785:./Libraries/STM32F4xx_HAL_Driver/Src/stm32f4xx_hal_sd.c ****     return HAL_SD_ERROR_LOCK_UNLOCK_FAILED;
 6957              		.loc 1 2785 12
 6958 002c 4FF40063 		mov	r3, #2048
 6959 0030 2FE0     		b	.L276
 6960              	.L270:
2786:./Libraries/STM32F4xx_HAL_Driver/Src/stm32f4xx_hal_sd.c ****   }
2787:./Libraries/STM32F4xx_HAL_Driver/Src/stm32f4xx_hal_sd.c ****   
2788:./Libraries/STM32F4xx_HAL_Driver/Src/stm32f4xx_hal_sd.c ****   /* Get SCR Register */
2789:./Libraries/STM32F4xx_HAL_Driver/Src/stm32f4xx_hal_sd.c ****   errorstate = SD_FindSCR(hsd, scr);
 6961              		.loc 1 2789 16
 6962 0032 07F10C03 		add	r3, r7, #12
 6963 0036 1946     		mov	r1, r3
 6964 0038 7868     		ldr	r0, [r7, #4]
 6965 003a FFF7FEFF 		bl	SD_FindSCR
 6966 003e 7861     		str	r0, [r7, #20]
2790:./Libraries/STM32F4xx_HAL_Driver/Src/stm32f4xx_hal_sd.c ****   if(errorstate != HAL_OK)
 6967              		.loc 1 2790 5
 6968 0040 7B69     		ldr	r3, [r7, #20]
 6969 0042 002B     		cmp	r3, #0
 6970 0044 01D0     		beq	.L272
2791:./Libraries/STM32F4xx_HAL_Driver/Src/stm32f4xx_hal_sd.c ****   {
2792:./Libraries/STM32F4xx_HAL_Driver/Src/stm32f4xx_hal_sd.c ****     return errorstate;
 6971              		.loc 1 2792 12
 6972 0046 7B69     		ldr	r3, [r7, #20]
 6973 0048 23E0     		b	.L276
 6974              	.L272:
2793:./Libraries/STM32F4xx_HAL_Driver/Src/stm32f4xx_hal_sd.c ****   }
2794:./Libraries/STM32F4xx_HAL_Driver/Src/stm32f4xx_hal_sd.c ****   
2795:./Libraries/STM32F4xx_HAL_Driver/Src/stm32f4xx_hal_sd.c ****   /* If requested card supports wide bus operation */
2796:./Libraries/STM32F4xx_HAL_Driver/Src/stm32f4xx_hal_sd.c ****   if((scr[1U] & SDMMC_WIDE_BUS_SUPPORT) != SDMMC_ALLZERO)
 6975              		.loc 1 2796 10
 6976 004a 3B69     		ldr	r3, [r7, #16]
 6977              		.loc 1 2796 15
 6978 004c 03F48023 		and	r3, r3, #262144
 6979              		.loc 1 2796 5
 6980 0050 002B     		cmp	r3, #0
 6981 0052 1CD0     		beq	.L273
2797:./Libraries/STM32F4xx_HAL_Driver/Src/stm32f4xx_hal_sd.c ****   {
2798:./Libraries/STM32F4xx_HAL_Driver/Src/stm32f4xx_hal_sd.c ****     /* Send CMD55 APP_CMD with argument as card's RCA.*/
2799:./Libraries/STM32F4xx_HAL_Driver/Src/stm32f4xx_hal_sd.c ****     errorstate = SDMMC_CmdAppCommand(hsd->Instance, (uint32_t)(hsd->SdCard.RelCardAdd << 16U));
 6982              		.loc 1 2799 18
 6983 0054 7B68     		ldr	r3, [r7, #4]
 6984 0056 1A68     		ldr	r2, [r3]
 6985              		.loc 1 2799 75
ARM GAS  /tmp/ccMhfXg8.s 			page 173


 6986 0058 7B68     		ldr	r3, [r7, #4]
 6987 005a 1B6D     		ldr	r3, [r3, #80]
 6988              		.loc 1 2799 87
 6989 005c 1B04     		lsls	r3, r3, #16
 6990              		.loc 1 2799 18
 6991 005e 1946     		mov	r1, r3
 6992 0060 1046     		mov	r0, r2
 6993 0062 FFF7FEFF 		bl	SDMMC_CmdAppCommand
 6994 0066 7861     		str	r0, [r7, #20]
2800:./Libraries/STM32F4xx_HAL_Driver/Src/stm32f4xx_hal_sd.c ****     if(errorstate != HAL_OK)
 6995              		.loc 1 2800 7
 6996 0068 7B69     		ldr	r3, [r7, #20]
 6997 006a 002B     		cmp	r3, #0
 6998 006c 01D0     		beq	.L274
2801:./Libraries/STM32F4xx_HAL_Driver/Src/stm32f4xx_hal_sd.c ****     {
2802:./Libraries/STM32F4xx_HAL_Driver/Src/stm32f4xx_hal_sd.c ****       return errorstate;
 6999              		.loc 1 2802 14
 7000 006e 7B69     		ldr	r3, [r7, #20]
 7001 0070 0FE0     		b	.L276
 7002              	.L274:
2803:./Libraries/STM32F4xx_HAL_Driver/Src/stm32f4xx_hal_sd.c ****     }
2804:./Libraries/STM32F4xx_HAL_Driver/Src/stm32f4xx_hal_sd.c ****     
2805:./Libraries/STM32F4xx_HAL_Driver/Src/stm32f4xx_hal_sd.c ****     /* Send ACMD6 APP_CMD with argument as 2 for wide bus mode */
2806:./Libraries/STM32F4xx_HAL_Driver/Src/stm32f4xx_hal_sd.c ****     errorstate = SDMMC_CmdBusWidth(hsd->Instance, 2U);
 7003              		.loc 1 2806 18
 7004 0072 7B68     		ldr	r3, [r7, #4]
 7005 0074 1B68     		ldr	r3, [r3]
 7006 0076 0221     		movs	r1, #2
 7007 0078 1846     		mov	r0, r3
 7008 007a FFF7FEFF 		bl	SDMMC_CmdBusWidth
 7009 007e 7861     		str	r0, [r7, #20]
2807:./Libraries/STM32F4xx_HAL_Driver/Src/stm32f4xx_hal_sd.c ****     if(errorstate != HAL_OK)
 7010              		.loc 1 2807 7
 7011 0080 7B69     		ldr	r3, [r7, #20]
 7012 0082 002B     		cmp	r3, #0
 7013 0084 01D0     		beq	.L275
2808:./Libraries/STM32F4xx_HAL_Driver/Src/stm32f4xx_hal_sd.c ****     {
2809:./Libraries/STM32F4xx_HAL_Driver/Src/stm32f4xx_hal_sd.c ****       return errorstate;
 7014              		.loc 1 2809 14
 7015 0086 7B69     		ldr	r3, [r7, #20]
 7016 0088 03E0     		b	.L276
 7017              	.L275:
2810:./Libraries/STM32F4xx_HAL_Driver/Src/stm32f4xx_hal_sd.c ****     }
2811:./Libraries/STM32F4xx_HAL_Driver/Src/stm32f4xx_hal_sd.c **** 
2812:./Libraries/STM32F4xx_HAL_Driver/Src/stm32f4xx_hal_sd.c ****     return HAL_SD_ERROR_NONE;
 7018              		.loc 1 2812 12
 7019 008a 0023     		movs	r3, #0
 7020 008c 01E0     		b	.L276
 7021              	.L273:
2813:./Libraries/STM32F4xx_HAL_Driver/Src/stm32f4xx_hal_sd.c ****   }
2814:./Libraries/STM32F4xx_HAL_Driver/Src/stm32f4xx_hal_sd.c ****   else
2815:./Libraries/STM32F4xx_HAL_Driver/Src/stm32f4xx_hal_sd.c ****   {
2816:./Libraries/STM32F4xx_HAL_Driver/Src/stm32f4xx_hal_sd.c ****     return HAL_SD_ERROR_REQUEST_NOT_APPLICABLE;
 7022              		.loc 1 2816 12
 7023 008e 4FF08063 		mov	r3, #67108864
 7024              	.L276:
2817:./Libraries/STM32F4xx_HAL_Driver/Src/stm32f4xx_hal_sd.c ****   }
ARM GAS  /tmp/ccMhfXg8.s 			page 174


2818:./Libraries/STM32F4xx_HAL_Driver/Src/stm32f4xx_hal_sd.c **** }
 7025              		.loc 1 2818 1 discriminator 1
 7026 0092 1846     		mov	r0, r3
 7027 0094 1837     		adds	r7, r7, #24
 7028              	.LCFI200:
 7029              		.cfi_def_cfa_offset 8
 7030 0096 BD46     		mov	sp, r7
 7031              	.LCFI201:
 7032              		.cfi_def_cfa_register 13
 7033              		@ sp needed
 7034 0098 80BD     		pop	{r7, pc}
 7035              		.cfi_endproc
 7036              	.LFE163:
 7038              		.section	.text.SD_WideBus_Disable,"ax",%progbits
 7039              		.align	1
 7040              		.syntax unified
 7041              		.thumb
 7042              		.thumb_func
 7043              		.fpu fpv4-sp-d16
 7045              	SD_WideBus_Disable:
 7046              	.LFB164:
2819:./Libraries/STM32F4xx_HAL_Driver/Src/stm32f4xx_hal_sd.c **** 
2820:./Libraries/STM32F4xx_HAL_Driver/Src/stm32f4xx_hal_sd.c **** /**
2821:./Libraries/STM32F4xx_HAL_Driver/Src/stm32f4xx_hal_sd.c ****   * @brief  Disables the SDIO wide bus mode.
2822:./Libraries/STM32F4xx_HAL_Driver/Src/stm32f4xx_hal_sd.c ****   * @param  hsd Pointer to SD handle
2823:./Libraries/STM32F4xx_HAL_Driver/Src/stm32f4xx_hal_sd.c ****   * @retval error state
2824:./Libraries/STM32F4xx_HAL_Driver/Src/stm32f4xx_hal_sd.c ****   */
2825:./Libraries/STM32F4xx_HAL_Driver/Src/stm32f4xx_hal_sd.c **** static uint32_t SD_WideBus_Disable(SD_HandleTypeDef *hsd)
2826:./Libraries/STM32F4xx_HAL_Driver/Src/stm32f4xx_hal_sd.c **** {
 7047              		.loc 1 2826 1
 7048              		.cfi_startproc
 7049              		@ args = 0, pretend = 0, frame = 24
 7050              		@ frame_needed = 1, uses_anonymous_args = 0
 7051 0000 80B5     		push	{r7, lr}
 7052              	.LCFI202:
 7053              		.cfi_def_cfa_offset 8
 7054              		.cfi_offset 7, -8
 7055              		.cfi_offset 14, -4
 7056 0002 86B0     		sub	sp, sp, #24
 7057              	.LCFI203:
 7058              		.cfi_def_cfa_offset 32
 7059 0004 00AF     		add	r7, sp, #0
 7060              	.LCFI204:
 7061              		.cfi_def_cfa_register 7
 7062 0006 7860     		str	r0, [r7, #4]
2827:./Libraries/STM32F4xx_HAL_Driver/Src/stm32f4xx_hal_sd.c ****   uint32_t scr[2U] = {0U, 0U};
 7063              		.loc 1 2827 12
 7064 0008 0023     		movs	r3, #0
 7065 000a FB60     		str	r3, [r7, #12]
 7066 000c 0023     		movs	r3, #0
 7067 000e 3B61     		str	r3, [r7, #16]
2828:./Libraries/STM32F4xx_HAL_Driver/Src/stm32f4xx_hal_sd.c ****   uint32_t errorstate = HAL_SD_ERROR_NONE;
 7068              		.loc 1 2828 12
 7069 0010 0023     		movs	r3, #0
 7070 0012 7B61     		str	r3, [r7, #20]
2829:./Libraries/STM32F4xx_HAL_Driver/Src/stm32f4xx_hal_sd.c ****   
2830:./Libraries/STM32F4xx_HAL_Driver/Src/stm32f4xx_hal_sd.c ****   if((SDIO_GetResponse(hsd->Instance, SDIO_RESP1) & SDMMC_CARD_LOCKED) == SDMMC_CARD_LOCKED)
ARM GAS  /tmp/ccMhfXg8.s 			page 175


 7071              		.loc 1 2830 7
 7072 0014 7B68     		ldr	r3, [r7, #4]
 7073 0016 1B68     		ldr	r3, [r3]
 7074 0018 0021     		movs	r1, #0
 7075 001a 1846     		mov	r0, r3
 7076 001c FFF7FEFF 		bl	SDIO_GetResponse
 7077 0020 0346     		mov	r3, r0
 7078              		.loc 1 2830 51
 7079 0022 03F00073 		and	r3, r3, #33554432
 7080              		.loc 1 2830 5
 7081 0026 B3F1007F 		cmp	r3, #33554432
 7082 002a 02D1     		bne	.L278
2831:./Libraries/STM32F4xx_HAL_Driver/Src/stm32f4xx_hal_sd.c ****   {
2832:./Libraries/STM32F4xx_HAL_Driver/Src/stm32f4xx_hal_sd.c ****     return HAL_SD_ERROR_LOCK_UNLOCK_FAILED;
 7083              		.loc 1 2832 12
 7084 002c 4FF40063 		mov	r3, #2048
 7085 0030 2FE0     		b	.L284
 7086              	.L278:
2833:./Libraries/STM32F4xx_HAL_Driver/Src/stm32f4xx_hal_sd.c ****   }
2834:./Libraries/STM32F4xx_HAL_Driver/Src/stm32f4xx_hal_sd.c ****   
2835:./Libraries/STM32F4xx_HAL_Driver/Src/stm32f4xx_hal_sd.c ****   /* Get SCR Register */
2836:./Libraries/STM32F4xx_HAL_Driver/Src/stm32f4xx_hal_sd.c ****   errorstate = SD_FindSCR(hsd, scr);
 7087              		.loc 1 2836 16
 7088 0032 07F10C03 		add	r3, r7, #12
 7089 0036 1946     		mov	r1, r3
 7090 0038 7868     		ldr	r0, [r7, #4]
 7091 003a FFF7FEFF 		bl	SD_FindSCR
 7092 003e 7861     		str	r0, [r7, #20]
2837:./Libraries/STM32F4xx_HAL_Driver/Src/stm32f4xx_hal_sd.c ****   if(errorstate != HAL_OK)
 7093              		.loc 1 2837 5
 7094 0040 7B69     		ldr	r3, [r7, #20]
 7095 0042 002B     		cmp	r3, #0
 7096 0044 01D0     		beq	.L280
2838:./Libraries/STM32F4xx_HAL_Driver/Src/stm32f4xx_hal_sd.c ****   {
2839:./Libraries/STM32F4xx_HAL_Driver/Src/stm32f4xx_hal_sd.c ****     return errorstate;
 7097              		.loc 1 2839 12
 7098 0046 7B69     		ldr	r3, [r7, #20]
 7099 0048 23E0     		b	.L284
 7100              	.L280:
2840:./Libraries/STM32F4xx_HAL_Driver/Src/stm32f4xx_hal_sd.c ****   }
2841:./Libraries/STM32F4xx_HAL_Driver/Src/stm32f4xx_hal_sd.c ****   
2842:./Libraries/STM32F4xx_HAL_Driver/Src/stm32f4xx_hal_sd.c ****   /* If requested card supports 1 bit mode operation */
2843:./Libraries/STM32F4xx_HAL_Driver/Src/stm32f4xx_hal_sd.c ****   if((scr[1U] & SDMMC_SINGLE_BUS_SUPPORT) != SDMMC_ALLZERO)
 7101              		.loc 1 2843 10
 7102 004a 3B69     		ldr	r3, [r7, #16]
 7103              		.loc 1 2843 15
 7104 004c 03F48033 		and	r3, r3, #65536
 7105              		.loc 1 2843 5
 7106 0050 002B     		cmp	r3, #0
 7107 0052 1CD0     		beq	.L281
2844:./Libraries/STM32F4xx_HAL_Driver/Src/stm32f4xx_hal_sd.c ****   {
2845:./Libraries/STM32F4xx_HAL_Driver/Src/stm32f4xx_hal_sd.c ****     /* Send CMD55 APP_CMD with argument as card's RCA */
2846:./Libraries/STM32F4xx_HAL_Driver/Src/stm32f4xx_hal_sd.c ****     errorstate = SDMMC_CmdAppCommand(hsd->Instance, (uint32_t)(hsd->SdCard.RelCardAdd << 16U));
 7108              		.loc 1 2846 18
 7109 0054 7B68     		ldr	r3, [r7, #4]
 7110 0056 1A68     		ldr	r2, [r3]
 7111              		.loc 1 2846 75
ARM GAS  /tmp/ccMhfXg8.s 			page 176


 7112 0058 7B68     		ldr	r3, [r7, #4]
 7113 005a 1B6D     		ldr	r3, [r3, #80]
 7114              		.loc 1 2846 87
 7115 005c 1B04     		lsls	r3, r3, #16
 7116              		.loc 1 2846 18
 7117 005e 1946     		mov	r1, r3
 7118 0060 1046     		mov	r0, r2
 7119 0062 FFF7FEFF 		bl	SDMMC_CmdAppCommand
 7120 0066 7861     		str	r0, [r7, #20]
2847:./Libraries/STM32F4xx_HAL_Driver/Src/stm32f4xx_hal_sd.c ****     if(errorstate != HAL_OK)
 7121              		.loc 1 2847 7
 7122 0068 7B69     		ldr	r3, [r7, #20]
 7123 006a 002B     		cmp	r3, #0
 7124 006c 01D0     		beq	.L282
2848:./Libraries/STM32F4xx_HAL_Driver/Src/stm32f4xx_hal_sd.c ****     {
2849:./Libraries/STM32F4xx_HAL_Driver/Src/stm32f4xx_hal_sd.c ****       return errorstate;
 7125              		.loc 1 2849 14
 7126 006e 7B69     		ldr	r3, [r7, #20]
 7127 0070 0FE0     		b	.L284
 7128              	.L282:
2850:./Libraries/STM32F4xx_HAL_Driver/Src/stm32f4xx_hal_sd.c ****     }
2851:./Libraries/STM32F4xx_HAL_Driver/Src/stm32f4xx_hal_sd.c ****     
2852:./Libraries/STM32F4xx_HAL_Driver/Src/stm32f4xx_hal_sd.c ****     /* Send ACMD6 APP_CMD with argument as 0 for single bus mode */
2853:./Libraries/STM32F4xx_HAL_Driver/Src/stm32f4xx_hal_sd.c ****     errorstate = SDMMC_CmdBusWidth(hsd->Instance, 0U);
 7129              		.loc 1 2853 18
 7130 0072 7B68     		ldr	r3, [r7, #4]
 7131 0074 1B68     		ldr	r3, [r3]
 7132 0076 0021     		movs	r1, #0
 7133 0078 1846     		mov	r0, r3
 7134 007a FFF7FEFF 		bl	SDMMC_CmdBusWidth
 7135 007e 7861     		str	r0, [r7, #20]
2854:./Libraries/STM32F4xx_HAL_Driver/Src/stm32f4xx_hal_sd.c ****     if(errorstate != HAL_OK)
 7136              		.loc 1 2854 7
 7137 0080 7B69     		ldr	r3, [r7, #20]
 7138 0082 002B     		cmp	r3, #0
 7139 0084 01D0     		beq	.L283
2855:./Libraries/STM32F4xx_HAL_Driver/Src/stm32f4xx_hal_sd.c ****     {
2856:./Libraries/STM32F4xx_HAL_Driver/Src/stm32f4xx_hal_sd.c ****       return errorstate;
 7140              		.loc 1 2856 14
 7141 0086 7B69     		ldr	r3, [r7, #20]
 7142 0088 03E0     		b	.L284
 7143              	.L283:
2857:./Libraries/STM32F4xx_HAL_Driver/Src/stm32f4xx_hal_sd.c ****     }
2858:./Libraries/STM32F4xx_HAL_Driver/Src/stm32f4xx_hal_sd.c ****     
2859:./Libraries/STM32F4xx_HAL_Driver/Src/stm32f4xx_hal_sd.c ****     return HAL_SD_ERROR_NONE;
 7144              		.loc 1 2859 12
 7145 008a 0023     		movs	r3, #0
 7146 008c 01E0     		b	.L284
 7147              	.L281:
2860:./Libraries/STM32F4xx_HAL_Driver/Src/stm32f4xx_hal_sd.c ****   }
2861:./Libraries/STM32F4xx_HAL_Driver/Src/stm32f4xx_hal_sd.c ****   else
2862:./Libraries/STM32F4xx_HAL_Driver/Src/stm32f4xx_hal_sd.c ****   {
2863:./Libraries/STM32F4xx_HAL_Driver/Src/stm32f4xx_hal_sd.c ****     return HAL_SD_ERROR_REQUEST_NOT_APPLICABLE;
 7148              		.loc 1 2863 12
 7149 008e 4FF08063 		mov	r3, #67108864
 7150              	.L284:
2864:./Libraries/STM32F4xx_HAL_Driver/Src/stm32f4xx_hal_sd.c ****   }
ARM GAS  /tmp/ccMhfXg8.s 			page 177


2865:./Libraries/STM32F4xx_HAL_Driver/Src/stm32f4xx_hal_sd.c **** }
 7151              		.loc 1 2865 1 discriminator 1
 7152 0092 1846     		mov	r0, r3
 7153 0094 1837     		adds	r7, r7, #24
 7154              	.LCFI205:
 7155              		.cfi_def_cfa_offset 8
 7156 0096 BD46     		mov	sp, r7
 7157              	.LCFI206:
 7158              		.cfi_def_cfa_register 13
 7159              		@ sp needed
 7160 0098 80BD     		pop	{r7, pc}
 7161              		.cfi_endproc
 7162              	.LFE164:
 7164              		.section	.text.SD_FindSCR,"ax",%progbits
 7165              		.align	1
 7166              		.syntax unified
 7167              		.thumb
 7168              		.thumb_func
 7169              		.fpu fpv4-sp-d16
 7171              	SD_FindSCR:
 7172              	.LFB165:
2866:./Libraries/STM32F4xx_HAL_Driver/Src/stm32f4xx_hal_sd.c ****   
2867:./Libraries/STM32F4xx_HAL_Driver/Src/stm32f4xx_hal_sd.c ****   
2868:./Libraries/STM32F4xx_HAL_Driver/Src/stm32f4xx_hal_sd.c **** /**
2869:./Libraries/STM32F4xx_HAL_Driver/Src/stm32f4xx_hal_sd.c ****   * @brief  Finds the SD card SCR register value.
2870:./Libraries/STM32F4xx_HAL_Driver/Src/stm32f4xx_hal_sd.c ****   * @param  hsd Pointer to SD handle
2871:./Libraries/STM32F4xx_HAL_Driver/Src/stm32f4xx_hal_sd.c ****   * @param  pSCR pointer to the buffer that will contain the SCR value  
2872:./Libraries/STM32F4xx_HAL_Driver/Src/stm32f4xx_hal_sd.c ****   * @retval error state
2873:./Libraries/STM32F4xx_HAL_Driver/Src/stm32f4xx_hal_sd.c ****   */
2874:./Libraries/STM32F4xx_HAL_Driver/Src/stm32f4xx_hal_sd.c **** static uint32_t SD_FindSCR(SD_HandleTypeDef *hsd, uint32_t *pSCR)
2875:./Libraries/STM32F4xx_HAL_Driver/Src/stm32f4xx_hal_sd.c **** {
 7173              		.loc 1 2875 1
 7174              		.cfi_startproc
 7175              		@ args = 0, pretend = 0, frame = 56
 7176              		@ frame_needed = 1, uses_anonymous_args = 0
 7177 0000 90B5     		push	{r4, r7, lr}
 7178              	.LCFI207:
 7179              		.cfi_def_cfa_offset 12
 7180              		.cfi_offset 4, -12
 7181              		.cfi_offset 7, -8
 7182              		.cfi_offset 14, -4
 7183 0002 8FB0     		sub	sp, sp, #60
 7184              	.LCFI208:
 7185              		.cfi_def_cfa_offset 72
 7186 0004 00AF     		add	r7, sp, #0
 7187              	.LCFI209:
 7188              		.cfi_def_cfa_register 7
 7189 0006 7860     		str	r0, [r7, #4]
 7190 0008 3960     		str	r1, [r7]
2876:./Libraries/STM32F4xx_HAL_Driver/Src/stm32f4xx_hal_sd.c ****   SDIO_DataInitTypeDef config;
2877:./Libraries/STM32F4xx_HAL_Driver/Src/stm32f4xx_hal_sd.c ****   uint32_t errorstate = HAL_SD_ERROR_NONE;
 7191              		.loc 1 2877 12
 7192 000a 0023     		movs	r3, #0
 7193 000c 3B63     		str	r3, [r7, #48]
2878:./Libraries/STM32F4xx_HAL_Driver/Src/stm32f4xx_hal_sd.c ****   uint32_t tickstart = HAL_GetTick();
 7194              		.loc 1 2878 24
 7195 000e FFF7FEFF 		bl	HAL_GetTick
ARM GAS  /tmp/ccMhfXg8.s 			page 178


 7196 0012 F862     		str	r0, [r7, #44]
2879:./Libraries/STM32F4xx_HAL_Driver/Src/stm32f4xx_hal_sd.c ****   uint32_t index = 0U;
 7197              		.loc 1 2879 12
 7198 0014 0023     		movs	r3, #0
 7199 0016 7B63     		str	r3, [r7, #52]
2880:./Libraries/STM32F4xx_HAL_Driver/Src/stm32f4xx_hal_sd.c ****   uint32_t tempscr[2U] = {0U, 0U};
 7200              		.loc 1 2880 12
 7201 0018 0023     		movs	r3, #0
 7202 001a FB60     		str	r3, [r7, #12]
 7203 001c 0023     		movs	r3, #0
 7204 001e 3B61     		str	r3, [r7, #16]
2881:./Libraries/STM32F4xx_HAL_Driver/Src/stm32f4xx_hal_sd.c ****   
2882:./Libraries/STM32F4xx_HAL_Driver/Src/stm32f4xx_hal_sd.c ****   /* Set Block Size To 8 Bytes */
2883:./Libraries/STM32F4xx_HAL_Driver/Src/stm32f4xx_hal_sd.c ****   errorstate = SDMMC_CmdBlockLength(hsd->Instance, 8U);
 7205              		.loc 1 2883 16
 7206 0020 7B68     		ldr	r3, [r7, #4]
 7207 0022 1B68     		ldr	r3, [r3]
 7208 0024 0821     		movs	r1, #8
 7209 0026 1846     		mov	r0, r3
 7210 0028 FFF7FEFF 		bl	SDMMC_CmdBlockLength
 7211 002c 3863     		str	r0, [r7, #48]
2884:./Libraries/STM32F4xx_HAL_Driver/Src/stm32f4xx_hal_sd.c ****   if(errorstate != HAL_OK)
 7212              		.loc 1 2884 5
 7213 002e 3B6B     		ldr	r3, [r7, #48]
 7214 0030 002B     		cmp	r3, #0
 7215 0032 01D0     		beq	.L286
2885:./Libraries/STM32F4xx_HAL_Driver/Src/stm32f4xx_hal_sd.c ****   {
2886:./Libraries/STM32F4xx_HAL_Driver/Src/stm32f4xx_hal_sd.c ****     return errorstate;
 7216              		.loc 1 2886 12
 7217 0034 3B6B     		ldr	r3, [r7, #48]
 7218 0036 A8E0     		b	.L296
 7219              	.L286:
2887:./Libraries/STM32F4xx_HAL_Driver/Src/stm32f4xx_hal_sd.c ****   }
2888:./Libraries/STM32F4xx_HAL_Driver/Src/stm32f4xx_hal_sd.c **** 
2889:./Libraries/STM32F4xx_HAL_Driver/Src/stm32f4xx_hal_sd.c ****   /* Send CMD55 APP_CMD with argument as card's RCA */
2890:./Libraries/STM32F4xx_HAL_Driver/Src/stm32f4xx_hal_sd.c ****   errorstate = SDMMC_CmdAppCommand(hsd->Instance, (uint32_t)((hsd->SdCard.RelCardAdd) << 16U));
 7220              		.loc 1 2890 16
 7221 0038 7B68     		ldr	r3, [r7, #4]
 7222 003a 1A68     		ldr	r2, [r3]
 7223              		.loc 1 2890 74
 7224 003c 7B68     		ldr	r3, [r7, #4]
 7225 003e 1B6D     		ldr	r3, [r3, #80]
 7226              		.loc 1 2890 87
 7227 0040 1B04     		lsls	r3, r3, #16
 7228              		.loc 1 2890 16
 7229 0042 1946     		mov	r1, r3
 7230 0044 1046     		mov	r0, r2
 7231 0046 FFF7FEFF 		bl	SDMMC_CmdAppCommand
 7232 004a 3863     		str	r0, [r7, #48]
2891:./Libraries/STM32F4xx_HAL_Driver/Src/stm32f4xx_hal_sd.c ****   if(errorstate != HAL_OK)
 7233              		.loc 1 2891 5
 7234 004c 3B6B     		ldr	r3, [r7, #48]
 7235 004e 002B     		cmp	r3, #0
 7236 0050 01D0     		beq	.L288
2892:./Libraries/STM32F4xx_HAL_Driver/Src/stm32f4xx_hal_sd.c ****   {
2893:./Libraries/STM32F4xx_HAL_Driver/Src/stm32f4xx_hal_sd.c ****     return errorstate;
 7237              		.loc 1 2893 12
ARM GAS  /tmp/ccMhfXg8.s 			page 179


 7238 0052 3B6B     		ldr	r3, [r7, #48]
 7239 0054 99E0     		b	.L296
 7240              	.L288:
2894:./Libraries/STM32F4xx_HAL_Driver/Src/stm32f4xx_hal_sd.c ****   }
2895:./Libraries/STM32F4xx_HAL_Driver/Src/stm32f4xx_hal_sd.c **** 
2896:./Libraries/STM32F4xx_HAL_Driver/Src/stm32f4xx_hal_sd.c ****   config.DataTimeOut   = SDMMC_DATATIMEOUT;
 7241              		.loc 1 2896 24
 7242 0056 4FF0FF33 		mov	r3, #-1
 7243 005a 7B61     		str	r3, [r7, #20]
2897:./Libraries/STM32F4xx_HAL_Driver/Src/stm32f4xx_hal_sd.c ****   config.DataLength    = 8U;
 7244              		.loc 1 2897 24
 7245 005c 0823     		movs	r3, #8
 7246 005e BB61     		str	r3, [r7, #24]
2898:./Libraries/STM32F4xx_HAL_Driver/Src/stm32f4xx_hal_sd.c ****   config.DataBlockSize = SDIO_DATABLOCK_SIZE_8B;
 7247              		.loc 1 2898 24
 7248 0060 3023     		movs	r3, #48
 7249 0062 FB61     		str	r3, [r7, #28]
2899:./Libraries/STM32F4xx_HAL_Driver/Src/stm32f4xx_hal_sd.c ****   config.TransferDir   = SDIO_TRANSFER_DIR_TO_SDIO;
 7250              		.loc 1 2899 24
 7251 0064 0223     		movs	r3, #2
 7252 0066 3B62     		str	r3, [r7, #32]
2900:./Libraries/STM32F4xx_HAL_Driver/Src/stm32f4xx_hal_sd.c ****   config.TransferMode  = SDIO_TRANSFER_MODE_BLOCK;
 7253              		.loc 1 2900 24
 7254 0068 0023     		movs	r3, #0
 7255 006a 7B62     		str	r3, [r7, #36]
2901:./Libraries/STM32F4xx_HAL_Driver/Src/stm32f4xx_hal_sd.c ****   config.DPSM          = SDIO_DPSM_ENABLE;
 7256              		.loc 1 2901 24
 7257 006c 0123     		movs	r3, #1
 7258 006e BB62     		str	r3, [r7, #40]
2902:./Libraries/STM32F4xx_HAL_Driver/Src/stm32f4xx_hal_sd.c ****   SDIO_ConfigData(hsd->Instance, &config);
 7259              		.loc 1 2902 3
 7260 0070 7B68     		ldr	r3, [r7, #4]
 7261 0072 1B68     		ldr	r3, [r3]
 7262 0074 07F11402 		add	r2, r7, #20
 7263 0078 1146     		mov	r1, r2
 7264 007a 1846     		mov	r0, r3
 7265 007c FFF7FEFF 		bl	SDIO_ConfigData
2903:./Libraries/STM32F4xx_HAL_Driver/Src/stm32f4xx_hal_sd.c ****   
2904:./Libraries/STM32F4xx_HAL_Driver/Src/stm32f4xx_hal_sd.c ****   /* Send ACMD51 SD_APP_SEND_SCR with argument as 0 */
2905:./Libraries/STM32F4xx_HAL_Driver/Src/stm32f4xx_hal_sd.c ****   errorstate = SDMMC_CmdSendSCR(hsd->Instance);
 7266              		.loc 1 2905 16
 7267 0080 7B68     		ldr	r3, [r7, #4]
 7268 0082 1B68     		ldr	r3, [r3]
 7269 0084 1846     		mov	r0, r3
 7270 0086 FFF7FEFF 		bl	SDMMC_CmdSendSCR
 7271 008a 3863     		str	r0, [r7, #48]
2906:./Libraries/STM32F4xx_HAL_Driver/Src/stm32f4xx_hal_sd.c ****   if(errorstate != HAL_OK)
 7272              		.loc 1 2906 5
 7273 008c 3B6B     		ldr	r3, [r7, #48]
 7274 008e 002B     		cmp	r3, #0
 7275 0090 22D0     		beq	.L290
2907:./Libraries/STM32F4xx_HAL_Driver/Src/stm32f4xx_hal_sd.c ****   {
2908:./Libraries/STM32F4xx_HAL_Driver/Src/stm32f4xx_hal_sd.c ****     return errorstate;
 7276              		.loc 1 2908 12
 7277 0092 3B6B     		ldr	r3, [r7, #48]
 7278 0094 79E0     		b	.L296
 7279              	.L292:
ARM GAS  /tmp/ccMhfXg8.s 			page 180


2909:./Libraries/STM32F4xx_HAL_Driver/Src/stm32f4xx_hal_sd.c ****   }
2910:./Libraries/STM32F4xx_HAL_Driver/Src/stm32f4xx_hal_sd.c ****   
2911:./Libraries/STM32F4xx_HAL_Driver/Src/stm32f4xx_hal_sd.c ****   while(!__HAL_SD_GET_FLAG(hsd, SDIO_FLAG_RXOVERR | SDIO_FLAG_DCRCFAIL | SDIO_FLAG_DTIMEOUT | SDIO_
2912:./Libraries/STM32F4xx_HAL_Driver/Src/stm32f4xx_hal_sd.c ****   {
2913:./Libraries/STM32F4xx_HAL_Driver/Src/stm32f4xx_hal_sd.c ****     if(__HAL_SD_GET_FLAG(hsd, SDIO_FLAG_RXDAVL))
 7280              		.loc 1 2913 8
 7281 0096 7B68     		ldr	r3, [r7, #4]
 7282 0098 1B68     		ldr	r3, [r3]
 7283 009a 5B6B     		ldr	r3, [r3, #52]
 7284 009c 03F40013 		and	r3, r3, #2097152
 7285              		.loc 1 2913 7
 7286 00a0 002B     		cmp	r3, #0
 7287 00a2 0ED0     		beq	.L291
2914:./Libraries/STM32F4xx_HAL_Driver/Src/stm32f4xx_hal_sd.c ****     {
2915:./Libraries/STM32F4xx_HAL_Driver/Src/stm32f4xx_hal_sd.c ****       *(tempscr + index) = SDIO_ReadFIFO(hsd->Instance);
 7288              		.loc 1 2915 28
 7289 00a4 7B68     		ldr	r3, [r7, #4]
 7290 00a6 1968     		ldr	r1, [r3]
 7291              		.loc 1 2915 17
 7292 00a8 7B6B     		ldr	r3, [r7, #52]
 7293 00aa 9B00     		lsls	r3, r3, #2
 7294 00ac 07F10C02 		add	r2, r7, #12
 7295 00b0 D418     		adds	r4, r2, r3
 7296              		.loc 1 2915 28
 7297 00b2 0846     		mov	r0, r1
 7298 00b4 FFF7FEFF 		bl	SDIO_ReadFIFO
 7299 00b8 0346     		mov	r3, r0
 7300              		.loc 1 2915 26
 7301 00ba 2360     		str	r3, [r4]
2916:./Libraries/STM32F4xx_HAL_Driver/Src/stm32f4xx_hal_sd.c ****       index++;
 7302              		.loc 1 2916 12
 7303 00bc 7B6B     		ldr	r3, [r7, #52]
 7304 00be 0133     		adds	r3, r3, #1
 7305 00c0 7B63     		str	r3, [r7, #52]
 7306              	.L291:
2917:./Libraries/STM32F4xx_HAL_Driver/Src/stm32f4xx_hal_sd.c ****     }
2918:./Libraries/STM32F4xx_HAL_Driver/Src/stm32f4xx_hal_sd.c ****     
2919:./Libraries/STM32F4xx_HAL_Driver/Src/stm32f4xx_hal_sd.c ****     if((HAL_GetTick() - tickstart) >=  SDMMC_DATATIMEOUT)
 7307              		.loc 1 2919 9
 7308 00c2 FFF7FEFF 		bl	HAL_GetTick
 7309 00c6 0246     		mov	r2, r0
 7310              		.loc 1 2919 23
 7311 00c8 FB6A     		ldr	r3, [r7, #44]
 7312 00ca D31A     		subs	r3, r2, r3
 7313              		.loc 1 2919 7
 7314 00cc B3F1FF3F 		cmp	r3, #-1
 7315 00d0 02D1     		bne	.L290
2920:./Libraries/STM32F4xx_HAL_Driver/Src/stm32f4xx_hal_sd.c ****     {
2921:./Libraries/STM32F4xx_HAL_Driver/Src/stm32f4xx_hal_sd.c ****       return HAL_SD_ERROR_TIMEOUT;
 7316              		.loc 1 2921 14
 7317 00d2 4FF00043 		mov	r3, #-2147483648
 7318 00d6 58E0     		b	.L296
 7319              	.L290:
2911:./Libraries/STM32F4xx_HAL_Driver/Src/stm32f4xx_hal_sd.c ****   {
 7320              		.loc 1 2911 10
 7321 00d8 7B68     		ldr	r3, [r7, #4]
 7322 00da 1B68     		ldr	r3, [r3]
ARM GAS  /tmp/ccMhfXg8.s 			page 181


 7323 00dc 5A6B     		ldr	r2, [r3, #52]
 7324 00de 40F22A43 		movw	r3, #1066
 7325 00e2 1340     		ands	r3, r3, r2
2911:./Libraries/STM32F4xx_HAL_Driver/Src/stm32f4xx_hal_sd.c ****   {
 7326              		.loc 1 2911 8
 7327 00e4 002B     		cmp	r3, #0
 7328 00e6 D6D0     		beq	.L292
2922:./Libraries/STM32F4xx_HAL_Driver/Src/stm32f4xx_hal_sd.c ****     }
2923:./Libraries/STM32F4xx_HAL_Driver/Src/stm32f4xx_hal_sd.c ****   }
2924:./Libraries/STM32F4xx_HAL_Driver/Src/stm32f4xx_hal_sd.c ****   
2925:./Libraries/STM32F4xx_HAL_Driver/Src/stm32f4xx_hal_sd.c ****   if(__HAL_SD_GET_FLAG(hsd, SDIO_FLAG_DTIMEOUT))
 7329              		.loc 1 2925 6
 7330 00e8 7B68     		ldr	r3, [r7, #4]
 7331 00ea 1B68     		ldr	r3, [r3]
 7332 00ec 5B6B     		ldr	r3, [r3, #52]
 7333 00ee 03F00803 		and	r3, r3, #8
 7334              		.loc 1 2925 5
 7335 00f2 002B     		cmp	r3, #0
 7336 00f4 05D0     		beq	.L293
2926:./Libraries/STM32F4xx_HAL_Driver/Src/stm32f4xx_hal_sd.c ****   {
2927:./Libraries/STM32F4xx_HAL_Driver/Src/stm32f4xx_hal_sd.c ****     __HAL_SD_CLEAR_FLAG(hsd, SDIO_FLAG_DTIMEOUT);
 7337              		.loc 1 2927 5
 7338 00f6 7B68     		ldr	r3, [r7, #4]
 7339 00f8 1B68     		ldr	r3, [r3]
 7340 00fa 0822     		movs	r2, #8
 7341 00fc 9A63     		str	r2, [r3, #56]
2928:./Libraries/STM32F4xx_HAL_Driver/Src/stm32f4xx_hal_sd.c ****     
2929:./Libraries/STM32F4xx_HAL_Driver/Src/stm32f4xx_hal_sd.c ****     return HAL_SD_ERROR_DATA_TIMEOUT;
 7342              		.loc 1 2929 12
 7343 00fe 0823     		movs	r3, #8
 7344 0100 43E0     		b	.L296
 7345              	.L293:
2930:./Libraries/STM32F4xx_HAL_Driver/Src/stm32f4xx_hal_sd.c ****   }
2931:./Libraries/STM32F4xx_HAL_Driver/Src/stm32f4xx_hal_sd.c ****   else if(__HAL_SD_GET_FLAG(hsd, SDIO_FLAG_DCRCFAIL))
 7346              		.loc 1 2931 11
 7347 0102 7B68     		ldr	r3, [r7, #4]
 7348 0104 1B68     		ldr	r3, [r3]
 7349 0106 5B6B     		ldr	r3, [r3, #52]
 7350 0108 03F00203 		and	r3, r3, #2
 7351              		.loc 1 2931 10
 7352 010c 002B     		cmp	r3, #0
 7353 010e 05D0     		beq	.L294
2932:./Libraries/STM32F4xx_HAL_Driver/Src/stm32f4xx_hal_sd.c ****   {
2933:./Libraries/STM32F4xx_HAL_Driver/Src/stm32f4xx_hal_sd.c ****     __HAL_SD_CLEAR_FLAG(hsd, SDIO_FLAG_DCRCFAIL);
 7354              		.loc 1 2933 5
 7355 0110 7B68     		ldr	r3, [r7, #4]
 7356 0112 1B68     		ldr	r3, [r3]
 7357 0114 0222     		movs	r2, #2
 7358 0116 9A63     		str	r2, [r3, #56]
2934:./Libraries/STM32F4xx_HAL_Driver/Src/stm32f4xx_hal_sd.c ****     
2935:./Libraries/STM32F4xx_HAL_Driver/Src/stm32f4xx_hal_sd.c ****     return HAL_SD_ERROR_DATA_CRC_FAIL;
 7359              		.loc 1 2935 12
 7360 0118 0223     		movs	r3, #2
 7361 011a 36E0     		b	.L296
 7362              	.L294:
2936:./Libraries/STM32F4xx_HAL_Driver/Src/stm32f4xx_hal_sd.c ****   }
2937:./Libraries/STM32F4xx_HAL_Driver/Src/stm32f4xx_hal_sd.c ****   else if(__HAL_SD_GET_FLAG(hsd, SDIO_FLAG_RXOVERR))
ARM GAS  /tmp/ccMhfXg8.s 			page 182


 7363              		.loc 1 2937 11
 7364 011c 7B68     		ldr	r3, [r7, #4]
 7365 011e 1B68     		ldr	r3, [r3]
 7366 0120 5B6B     		ldr	r3, [r3, #52]
 7367 0122 03F02003 		and	r3, r3, #32
 7368              		.loc 1 2937 10
 7369 0126 002B     		cmp	r3, #0
 7370 0128 05D0     		beq	.L295
2938:./Libraries/STM32F4xx_HAL_Driver/Src/stm32f4xx_hal_sd.c ****   {
2939:./Libraries/STM32F4xx_HAL_Driver/Src/stm32f4xx_hal_sd.c ****     __HAL_SD_CLEAR_FLAG(hsd, SDIO_FLAG_RXOVERR);
 7371              		.loc 1 2939 5
 7372 012a 7B68     		ldr	r3, [r7, #4]
 7373 012c 1B68     		ldr	r3, [r3]
 7374 012e 2022     		movs	r2, #32
 7375 0130 9A63     		str	r2, [r3, #56]
2940:./Libraries/STM32F4xx_HAL_Driver/Src/stm32f4xx_hal_sd.c ****     
2941:./Libraries/STM32F4xx_HAL_Driver/Src/stm32f4xx_hal_sd.c ****     return HAL_SD_ERROR_RX_OVERRUN;
 7376              		.loc 1 2941 12
 7377 0132 2023     		movs	r3, #32
 7378 0134 29E0     		b	.L296
 7379              	.L295:
2942:./Libraries/STM32F4xx_HAL_Driver/Src/stm32f4xx_hal_sd.c ****   }
2943:./Libraries/STM32F4xx_HAL_Driver/Src/stm32f4xx_hal_sd.c ****   else
2944:./Libraries/STM32F4xx_HAL_Driver/Src/stm32f4xx_hal_sd.c ****   {
2945:./Libraries/STM32F4xx_HAL_Driver/Src/stm32f4xx_hal_sd.c ****     /* No error flag set */
2946:./Libraries/STM32F4xx_HAL_Driver/Src/stm32f4xx_hal_sd.c ****     /* Clear all the static flags */
2947:./Libraries/STM32F4xx_HAL_Driver/Src/stm32f4xx_hal_sd.c ****     __HAL_SD_CLEAR_FLAG(hsd, SDIO_STATIC_FLAGS);
 7380              		.loc 1 2947 5
 7381 0136 7B68     		ldr	r3, [r7, #4]
 7382 0138 1B68     		ldr	r3, [r3]
 7383 013a 40F2FF52 		movw	r2, #1535
 7384 013e 9A63     		str	r2, [r3, #56]
2948:./Libraries/STM32F4xx_HAL_Driver/Src/stm32f4xx_hal_sd.c ****     
2949:./Libraries/STM32F4xx_HAL_Driver/Src/stm32f4xx_hal_sd.c ****     *(pSCR + 1U) = ((tempscr[0U] & SDMMC_0TO7BITS) << 24U)  | ((tempscr[0U] & SDMMC_8TO15BITS) << 8
 7385              		.loc 1 2949 29
 7386 0140 FB68     		ldr	r3, [r7, #12]
 7387              		.loc 1 2949 52
 7388 0142 1A06     		lsls	r2, r3, #24
 7389              		.loc 1 2949 72
 7390 0144 FB68     		ldr	r3, [r7, #12]
 7391              		.loc 1 2949 96
 7392 0146 1B02     		lsls	r3, r3, #8
 7393 0148 03F47F03 		and	r3, r3, #16711680
 7394              		.loc 1 2949 61
 7395 014c 1A43     		orrs	r2, r2, r3
2950:./Libraries/STM32F4xx_HAL_Driver/Src/stm32f4xx_hal_sd.c ****       ((tempscr[0U] & SDMMC_16TO23BITS) >> 8U) | ((tempscr[0U] & SDMMC_24TO31BITS) >> 24U);
 7396              		.loc 1 2950 16
 7397 014e FB68     		ldr	r3, [r7, #12]
 7398              		.loc 1 2950 41
 7399 0150 1B0A     		lsrs	r3, r3, #8
 7400 0152 03F47F43 		and	r3, r3, #65280
2949:./Libraries/STM32F4xx_HAL_Driver/Src/stm32f4xx_hal_sd.c ****       ((tempscr[0U] & SDMMC_16TO23BITS) >> 8U) | ((tempscr[0U] & SDMMC_24TO31BITS) >> 24U);
 7401              		.loc 1 2949 103
 7402 0156 42EA0301 		orr	r1, r2, r3
 7403              		.loc 1 2950 59
 7404 015a FB68     		ldr	r3, [r7, #12]
 7405              		.loc 1 2950 84
ARM GAS  /tmp/ccMhfXg8.s 			page 183


 7406 015c 1A0E     		lsrs	r2, r3, #24
2949:./Libraries/STM32F4xx_HAL_Driver/Src/stm32f4xx_hal_sd.c ****       ((tempscr[0U] & SDMMC_16TO23BITS) >> 8U) | ((tempscr[0U] & SDMMC_24TO31BITS) >> 24U);
 7407              		.loc 1 2949 12
 7408 015e 3B68     		ldr	r3, [r7]
 7409 0160 0433     		adds	r3, r3, #4
 7410              		.loc 1 2950 48
 7411 0162 0A43     		orrs	r2, r2, r1
2949:./Libraries/STM32F4xx_HAL_Driver/Src/stm32f4xx_hal_sd.c ****       ((tempscr[0U] & SDMMC_16TO23BITS) >> 8U) | ((tempscr[0U] & SDMMC_24TO31BITS) >> 24U);
 7412              		.loc 1 2949 18
 7413 0164 1A60     		str	r2, [r3]
2951:./Libraries/STM32F4xx_HAL_Driver/Src/stm32f4xx_hal_sd.c ****     
2952:./Libraries/STM32F4xx_HAL_Driver/Src/stm32f4xx_hal_sd.c ****     *(pSCR) = ((tempscr[1U] & SDMMC_0TO7BITS) << 24U)  | ((tempscr[1U] & SDMMC_8TO15BITS) << 8U) |\
 7414              		.loc 1 2952 24
 7415 0166 3B69     		ldr	r3, [r7, #16]
 7416              		.loc 1 2952 47
 7417 0168 1A06     		lsls	r2, r3, #24
 7418              		.loc 1 2952 67
 7419 016a 3B69     		ldr	r3, [r7, #16]
 7420              		.loc 1 2952 91
 7421 016c 1B02     		lsls	r3, r3, #8
 7422 016e 03F47F03 		and	r3, r3, #16711680
 7423              		.loc 1 2952 56
 7424 0172 1A43     		orrs	r2, r2, r3
2953:./Libraries/STM32F4xx_HAL_Driver/Src/stm32f4xx_hal_sd.c ****       ((tempscr[1U] & SDMMC_16TO23BITS) >> 8U) | ((tempscr[1U] & SDMMC_24TO31BITS) >> 24U);
 7425              		.loc 1 2953 16
 7426 0174 3B69     		ldr	r3, [r7, #16]
 7427              		.loc 1 2953 41
 7428 0176 1B0A     		lsrs	r3, r3, #8
 7429 0178 03F47F43 		and	r3, r3, #65280
2952:./Libraries/STM32F4xx_HAL_Driver/Src/stm32f4xx_hal_sd.c ****       ((tempscr[1U] & SDMMC_16TO23BITS) >> 8U) | ((tempscr[1U] & SDMMC_24TO31BITS) >> 24U);
 7430              		.loc 1 2952 98
 7431 017c 1A43     		orrs	r2, r2, r3
 7432              		.loc 1 2953 59
 7433 017e 3B69     		ldr	r3, [r7, #16]
 7434              		.loc 1 2953 84
 7435 0180 1B0E     		lsrs	r3, r3, #24
 7436              		.loc 1 2953 48
 7437 0182 1A43     		orrs	r2, r2, r3
2952:./Libraries/STM32F4xx_HAL_Driver/Src/stm32f4xx_hal_sd.c ****       ((tempscr[1U] & SDMMC_16TO23BITS) >> 8U) | ((tempscr[1U] & SDMMC_24TO31BITS) >> 24U);
 7438              		.loc 1 2952 13
 7439 0184 3B68     		ldr	r3, [r7]
 7440 0186 1A60     		str	r2, [r3]
2954:./Libraries/STM32F4xx_HAL_Driver/Src/stm32f4xx_hal_sd.c ****   }
2955:./Libraries/STM32F4xx_HAL_Driver/Src/stm32f4xx_hal_sd.c **** 
2956:./Libraries/STM32F4xx_HAL_Driver/Src/stm32f4xx_hal_sd.c ****   return HAL_SD_ERROR_NONE;
 7441              		.loc 1 2956 10
 7442 0188 0023     		movs	r3, #0
 7443              	.L296:
2957:./Libraries/STM32F4xx_HAL_Driver/Src/stm32f4xx_hal_sd.c **** }
 7444              		.loc 1 2957 1 discriminator 1
 7445 018a 1846     		mov	r0, r3
 7446 018c 3C37     		adds	r7, r7, #60
 7447              	.LCFI210:
 7448              		.cfi_def_cfa_offset 12
 7449 018e BD46     		mov	sp, r7
 7450              	.LCFI211:
 7451              		.cfi_def_cfa_register 13
ARM GAS  /tmp/ccMhfXg8.s 			page 184


 7452              		@ sp needed
 7453 0190 90BD     		pop	{r4, r7, pc}
 7454              		.cfi_endproc
 7455              	.LFE165:
 7457              		.section	.text.SD_Read_IT,"ax",%progbits
 7458              		.align	1
 7459              		.syntax unified
 7460              		.thumb
 7461              		.thumb_func
 7462              		.fpu fpv4-sp-d16
 7464              	SD_Read_IT:
 7465              	.LFB166:
2958:./Libraries/STM32F4xx_HAL_Driver/Src/stm32f4xx_hal_sd.c **** 
2959:./Libraries/STM32F4xx_HAL_Driver/Src/stm32f4xx_hal_sd.c **** /**
2960:./Libraries/STM32F4xx_HAL_Driver/Src/stm32f4xx_hal_sd.c ****   * @brief  Wrap up reading in non-blocking mode.
2961:./Libraries/STM32F4xx_HAL_Driver/Src/stm32f4xx_hal_sd.c ****   * @param  hsd pointer to a SD_HandleTypeDef structure that contains
2962:./Libraries/STM32F4xx_HAL_Driver/Src/stm32f4xx_hal_sd.c ****   *              the configuration information.
2963:./Libraries/STM32F4xx_HAL_Driver/Src/stm32f4xx_hal_sd.c ****   * @retval HAL status
2964:./Libraries/STM32F4xx_HAL_Driver/Src/stm32f4xx_hal_sd.c ****   */
2965:./Libraries/STM32F4xx_HAL_Driver/Src/stm32f4xx_hal_sd.c **** static HAL_StatusTypeDef SD_Read_IT(SD_HandleTypeDef *hsd)
2966:./Libraries/STM32F4xx_HAL_Driver/Src/stm32f4xx_hal_sd.c **** {
 7466              		.loc 1 2966 1
 7467              		.cfi_startproc
 7468              		@ args = 0, pretend = 0, frame = 16
 7469              		@ frame_needed = 1, uses_anonymous_args = 0
 7470 0000 90B5     		push	{r4, r7, lr}
 7471              	.LCFI212:
 7472              		.cfi_def_cfa_offset 12
 7473              		.cfi_offset 4, -12
 7474              		.cfi_offset 7, -8
 7475              		.cfi_offset 14, -4
 7476 0002 85B0     		sub	sp, sp, #20
 7477              	.LCFI213:
 7478              		.cfi_def_cfa_offset 32
 7479 0004 00AF     		add	r7, sp, #0
 7480              	.LCFI214:
 7481              		.cfi_def_cfa_register 7
 7482 0006 7860     		str	r0, [r7, #4]
2967:./Libraries/STM32F4xx_HAL_Driver/Src/stm32f4xx_hal_sd.c ****   uint32_t count = 0U;
 7483              		.loc 1 2967 12
 7484 0008 0023     		movs	r3, #0
 7485 000a FB60     		str	r3, [r7, #12]
2968:./Libraries/STM32F4xx_HAL_Driver/Src/stm32f4xx_hal_sd.c ****   uint32_t* tmp;
2969:./Libraries/STM32F4xx_HAL_Driver/Src/stm32f4xx_hal_sd.c **** 
2970:./Libraries/STM32F4xx_HAL_Driver/Src/stm32f4xx_hal_sd.c ****   tmp = (uint32_t*)hsd->pRxBuffPtr;
 7486              		.loc 1 2970 7
 7487 000c 7B68     		ldr	r3, [r7, #4]
 7488 000e 9B6A     		ldr	r3, [r3, #40]
 7489 0010 BB60     		str	r3, [r7, #8]
2971:./Libraries/STM32F4xx_HAL_Driver/Src/stm32f4xx_hal_sd.c ****   
2972:./Libraries/STM32F4xx_HAL_Driver/Src/stm32f4xx_hal_sd.c ****   /* Read data from SDIO Rx FIFO */
2973:./Libraries/STM32F4xx_HAL_Driver/Src/stm32f4xx_hal_sd.c ****   for(count = 0U; count < 8U; count++)
 7490              		.loc 1 2973 13
 7491 0012 0023     		movs	r3, #0
 7492 0014 FB60     		str	r3, [r7, #12]
 7493              		.loc 1 2973 3
 7494 0016 0DE0     		b	.L298
ARM GAS  /tmp/ccMhfXg8.s 			page 185


 7495              	.L299:
2974:./Libraries/STM32F4xx_HAL_Driver/Src/stm32f4xx_hal_sd.c ****   {
2975:./Libraries/STM32F4xx_HAL_Driver/Src/stm32f4xx_hal_sd.c ****     *(tmp + count) = SDIO_ReadFIFO(hsd->Instance);
 7496              		.loc 1 2975 22 discriminator 3
 7497 0018 7B68     		ldr	r3, [r7, #4]
 7498 001a 1968     		ldr	r1, [r3]
 7499              		.loc 1 2975 11 discriminator 3
 7500 001c FB68     		ldr	r3, [r7, #12]
 7501 001e 9B00     		lsls	r3, r3, #2
 7502 0020 BA68     		ldr	r2, [r7, #8]
 7503 0022 D418     		adds	r4, r2, r3
 7504              		.loc 1 2975 22 discriminator 3
 7505 0024 0846     		mov	r0, r1
 7506 0026 FFF7FEFF 		bl	SDIO_ReadFIFO
 7507 002a 0346     		mov	r3, r0
 7508              		.loc 1 2975 20 discriminator 3
 7509 002c 2360     		str	r3, [r4]
2973:./Libraries/STM32F4xx_HAL_Driver/Src/stm32f4xx_hal_sd.c ****   {
 7510              		.loc 1 2973 36 discriminator 3
 7511 002e FB68     		ldr	r3, [r7, #12]
 7512 0030 0133     		adds	r3, r3, #1
 7513 0032 FB60     		str	r3, [r7, #12]
 7514              	.L298:
2973:./Libraries/STM32F4xx_HAL_Driver/Src/stm32f4xx_hal_sd.c ****   {
 7515              		.loc 1 2973 3 discriminator 1
 7516 0034 FB68     		ldr	r3, [r7, #12]
 7517 0036 072B     		cmp	r3, #7
 7518 0038 EED9     		bls	.L299
2976:./Libraries/STM32F4xx_HAL_Driver/Src/stm32f4xx_hal_sd.c ****   }
2977:./Libraries/STM32F4xx_HAL_Driver/Src/stm32f4xx_hal_sd.c ****   
2978:./Libraries/STM32F4xx_HAL_Driver/Src/stm32f4xx_hal_sd.c ****   hsd->pRxBuffPtr += 8U;
 7519              		.loc 1 2978 19
 7520 003a 7B68     		ldr	r3, [r7, #4]
 7521 003c 9B6A     		ldr	r3, [r3, #40]
 7522 003e 03F12002 		add	r2, r3, #32
 7523 0042 7B68     		ldr	r3, [r7, #4]
 7524 0044 9A62     		str	r2, [r3, #40]
2979:./Libraries/STM32F4xx_HAL_Driver/Src/stm32f4xx_hal_sd.c ****   
2980:./Libraries/STM32F4xx_HAL_Driver/Src/stm32f4xx_hal_sd.c ****   return HAL_OK;
 7525              		.loc 1 2980 10
 7526 0046 0023     		movs	r3, #0
2981:./Libraries/STM32F4xx_HAL_Driver/Src/stm32f4xx_hal_sd.c **** }
 7527              		.loc 1 2981 1
 7528 0048 1846     		mov	r0, r3
 7529 004a 1437     		adds	r7, r7, #20
 7530              	.LCFI215:
 7531              		.cfi_def_cfa_offset 12
 7532 004c BD46     		mov	sp, r7
 7533              	.LCFI216:
 7534              		.cfi_def_cfa_register 13
 7535              		@ sp needed
 7536 004e 90BD     		pop	{r4, r7, pc}
 7537              		.cfi_endproc
 7538              	.LFE166:
 7540              		.section	.text.SD_Write_IT,"ax",%progbits
 7541              		.align	1
 7542              		.syntax unified
ARM GAS  /tmp/ccMhfXg8.s 			page 186


 7543              		.thumb
 7544              		.thumb_func
 7545              		.fpu fpv4-sp-d16
 7547              	SD_Write_IT:
 7548              	.LFB167:
2982:./Libraries/STM32F4xx_HAL_Driver/Src/stm32f4xx_hal_sd.c **** 
2983:./Libraries/STM32F4xx_HAL_Driver/Src/stm32f4xx_hal_sd.c **** /**
2984:./Libraries/STM32F4xx_HAL_Driver/Src/stm32f4xx_hal_sd.c ****   * @brief  Wrap up writing in non-blocking mode.
2985:./Libraries/STM32F4xx_HAL_Driver/Src/stm32f4xx_hal_sd.c ****   * @param  hsd pointer to a SD_HandleTypeDef structure that contains
2986:./Libraries/STM32F4xx_HAL_Driver/Src/stm32f4xx_hal_sd.c ****   *              the configuration information.
2987:./Libraries/STM32F4xx_HAL_Driver/Src/stm32f4xx_hal_sd.c ****   * @retval HAL status
2988:./Libraries/STM32F4xx_HAL_Driver/Src/stm32f4xx_hal_sd.c ****   */
2989:./Libraries/STM32F4xx_HAL_Driver/Src/stm32f4xx_hal_sd.c **** static HAL_StatusTypeDef SD_Write_IT(SD_HandleTypeDef *hsd)
2990:./Libraries/STM32F4xx_HAL_Driver/Src/stm32f4xx_hal_sd.c **** {
 7549              		.loc 1 2990 1
 7550              		.cfi_startproc
 7551              		@ args = 0, pretend = 0, frame = 16
 7552              		@ frame_needed = 1, uses_anonymous_args = 0
 7553 0000 80B5     		push	{r7, lr}
 7554              	.LCFI217:
 7555              		.cfi_def_cfa_offset 8
 7556              		.cfi_offset 7, -8
 7557              		.cfi_offset 14, -4
 7558 0002 84B0     		sub	sp, sp, #16
 7559              	.LCFI218:
 7560              		.cfi_def_cfa_offset 24
 7561 0004 00AF     		add	r7, sp, #0
 7562              	.LCFI219:
 7563              		.cfi_def_cfa_register 7
 7564 0006 7860     		str	r0, [r7, #4]
2991:./Libraries/STM32F4xx_HAL_Driver/Src/stm32f4xx_hal_sd.c ****   uint32_t count = 0U;
 7565              		.loc 1 2991 12
 7566 0008 0023     		movs	r3, #0
 7567 000a FB60     		str	r3, [r7, #12]
2992:./Libraries/STM32F4xx_HAL_Driver/Src/stm32f4xx_hal_sd.c ****   uint32_t* tmp;
2993:./Libraries/STM32F4xx_HAL_Driver/Src/stm32f4xx_hal_sd.c ****   
2994:./Libraries/STM32F4xx_HAL_Driver/Src/stm32f4xx_hal_sd.c ****   tmp = (uint32_t*)hsd->pTxBuffPtr;
 7568              		.loc 1 2994 7
 7569 000c 7B68     		ldr	r3, [r7, #4]
 7570 000e 1B6A     		ldr	r3, [r3, #32]
 7571 0010 BB60     		str	r3, [r7, #8]
2995:./Libraries/STM32F4xx_HAL_Driver/Src/stm32f4xx_hal_sd.c ****   
2996:./Libraries/STM32F4xx_HAL_Driver/Src/stm32f4xx_hal_sd.c ****   /* Write data to SDIO Tx FIFO */
2997:./Libraries/STM32F4xx_HAL_Driver/Src/stm32f4xx_hal_sd.c ****   for(count = 0U; count < 8U; count++)
 7572              		.loc 1 2997 13
 7573 0012 0023     		movs	r3, #0
 7574 0014 FB60     		str	r3, [r7, #12]
 7575              		.loc 1 2997 3
 7576 0016 0BE0     		b	.L302
 7577              	.L303:
2998:./Libraries/STM32F4xx_HAL_Driver/Src/stm32f4xx_hal_sd.c ****   {
2999:./Libraries/STM32F4xx_HAL_Driver/Src/stm32f4xx_hal_sd.c ****     SDIO_WriteFIFO(hsd->Instance, (tmp + count));
 7578              		.loc 1 2999 5 discriminator 3
 7579 0018 7B68     		ldr	r3, [r7, #4]
 7580 001a 1868     		ldr	r0, [r3]
 7581              		.loc 1 2999 40 discriminator 3
 7582 001c FB68     		ldr	r3, [r7, #12]
ARM GAS  /tmp/ccMhfXg8.s 			page 187


 7583 001e 9B00     		lsls	r3, r3, #2
 7584              		.loc 1 2999 5 discriminator 3
 7585 0020 BA68     		ldr	r2, [r7, #8]
 7586 0022 1344     		add	r3, r3, r2
 7587 0024 1946     		mov	r1, r3
 7588 0026 FFF7FEFF 		bl	SDIO_WriteFIFO
2997:./Libraries/STM32F4xx_HAL_Driver/Src/stm32f4xx_hal_sd.c ****   {
 7589              		.loc 1 2997 36 discriminator 3
 7590 002a FB68     		ldr	r3, [r7, #12]
 7591 002c 0133     		adds	r3, r3, #1
 7592 002e FB60     		str	r3, [r7, #12]
 7593              	.L302:
2997:./Libraries/STM32F4xx_HAL_Driver/Src/stm32f4xx_hal_sd.c ****   {
 7594              		.loc 1 2997 3 discriminator 1
 7595 0030 FB68     		ldr	r3, [r7, #12]
 7596 0032 072B     		cmp	r3, #7
 7597 0034 F0D9     		bls	.L303
3000:./Libraries/STM32F4xx_HAL_Driver/Src/stm32f4xx_hal_sd.c ****   }
3001:./Libraries/STM32F4xx_HAL_Driver/Src/stm32f4xx_hal_sd.c ****   
3002:./Libraries/STM32F4xx_HAL_Driver/Src/stm32f4xx_hal_sd.c ****   hsd->pTxBuffPtr += 8U;
 7598              		.loc 1 3002 19
 7599 0036 7B68     		ldr	r3, [r7, #4]
 7600 0038 1B6A     		ldr	r3, [r3, #32]
 7601 003a 03F12002 		add	r2, r3, #32
 7602 003e 7B68     		ldr	r3, [r7, #4]
 7603 0040 1A62     		str	r2, [r3, #32]
3003:./Libraries/STM32F4xx_HAL_Driver/Src/stm32f4xx_hal_sd.c ****   
3004:./Libraries/STM32F4xx_HAL_Driver/Src/stm32f4xx_hal_sd.c ****   return HAL_OK;
 7604              		.loc 1 3004 10
 7605 0042 0023     		movs	r3, #0
3005:./Libraries/STM32F4xx_HAL_Driver/Src/stm32f4xx_hal_sd.c **** }
 7606              		.loc 1 3005 1
 7607 0044 1846     		mov	r0, r3
 7608 0046 1037     		adds	r7, r7, #16
 7609              	.LCFI220:
 7610              		.cfi_def_cfa_offset 8
 7611 0048 BD46     		mov	sp, r7
 7612              	.LCFI221:
 7613              		.cfi_def_cfa_register 13
 7614              		@ sp needed
 7615 004a 80BD     		pop	{r7, pc}
 7616              		.cfi_endproc
 7617              	.LFE167:
 7619              		.text
 7620              	.Letext0:
 7621              		.file 2 "/home/hao/Documents/gcc-arm-none-eabi/arm-none-eabi/include/machine/_default_types.h"
 7622              		.file 3 "/home/hao/Documents/gcc-arm-none-eabi/arm-none-eabi/include/sys/_stdint.h"
 7623              		.file 4 "./Libraries/CMSIS/Device/ST/STM32F4xx/Include/stm32f429xx.h"
 7624              		.file 5 "./Libraries/CMSIS/Device/ST/STM32F4xx/Include/stm32f4xx.h"
 7625              		.file 6 "./Libraries/STM32F4xx_HAL_Driver/Inc/stm32f4xx_hal_def.h"
 7626              		.file 7 "./Libraries/STM32F4xx_HAL_Driver/Inc/stm32f4xx_hal_dma.h"
 7627              		.file 8 "./Libraries/STM32F4xx_HAL_Driver/Inc/stm32f4xx_ll_sdmmc.h"
 7628              		.file 9 "./Libraries/STM32F4xx_HAL_Driver/Inc/stm32f4xx_hal_sd.h"
ARM GAS  /tmp/ccMhfXg8.s 			page 188


DEFINED SYMBOLS
                            *ABS*:0000000000000000 stm32f4xx_hal_sd.c
     /tmp/ccMhfXg8.s:18     .text.HAL_SD_Init:0000000000000000 $t
     /tmp/ccMhfXg8.s:26     .text.HAL_SD_Init:0000000000000000 HAL_SD_Init
     /tmp/ccMhfXg8.s:321    .text.HAL_SD_MspInit:0000000000000000 HAL_SD_MspInit
     /tmp/ccMhfXg8.s:111    .text.HAL_SD_InitCard:0000000000000000 HAL_SD_InitCard
     /tmp/ccMhfXg8.s:104    .text.HAL_SD_InitCard:0000000000000000 $t
     /tmp/ccMhfXg8.s:6241   .text.SD_PowerON:0000000000000000 SD_PowerON
     /tmp/ccMhfXg8.s:5969   .text.SD_InitCard:0000000000000000 SD_InitCard
     /tmp/ccMhfXg8.s:241    .text.HAL_SD_InitCard:00000000000000b4 $d
     /tmp/ccMhfXg8.s:246    .text.HAL_SD_DeInit:0000000000000000 $t
     /tmp/ccMhfXg8.s:253    .text.HAL_SD_DeInit:0000000000000000 HAL_SD_DeInit
     /tmp/ccMhfXg8.s:6493   .text.SD_PowerOFF:0000000000000000 SD_PowerOFF
     /tmp/ccMhfXg8.s:364    .text.HAL_SD_MspDeInit:0000000000000000 HAL_SD_MspDeInit
     /tmp/ccMhfXg8.s:314    .text.HAL_SD_MspInit:0000000000000000 $t
     /tmp/ccMhfXg8.s:357    .text.HAL_SD_MspDeInit:0000000000000000 $t
     /tmp/ccMhfXg8.s:400    .text.HAL_SD_ReadBlocks:0000000000000000 $t
     /tmp/ccMhfXg8.s:407    .text.HAL_SD_ReadBlocks:0000000000000000 HAL_SD_ReadBlocks
     /tmp/ccMhfXg8.s:923    .text.HAL_SD_WriteBlocks:0000000000000000 $t
     /tmp/ccMhfXg8.s:930    .text.HAL_SD_WriteBlocks:0000000000000000 HAL_SD_WriteBlocks
     /tmp/ccMhfXg8.s:1391   .text.HAL_SD_ReadBlocks_IT:0000000000000000 $t
     /tmp/ccMhfXg8.s:1398   .text.HAL_SD_ReadBlocks_IT:0000000000000000 HAL_SD_ReadBlocks_IT
     /tmp/ccMhfXg8.s:1639   .text.HAL_SD_WriteBlocks_IT:0000000000000000 $t
     /tmp/ccMhfXg8.s:1646   .text.HAL_SD_WriteBlocks_IT:0000000000000000 HAL_SD_WriteBlocks_IT
     /tmp/ccMhfXg8.s:1887   .text.HAL_SD_ReadBlocks_DMA:0000000000000000 $t
     /tmp/ccMhfXg8.s:1894   .text.HAL_SD_ReadBlocks_DMA:0000000000000000 HAL_SD_ReadBlocks_DMA
     /tmp/ccMhfXg8.s:2162   .text.HAL_SD_ReadBlocks_DMA:0000000000000188 $d
     /tmp/ccMhfXg8.s:5543   .text.SD_DMAReceiveCplt:0000000000000000 SD_DMAReceiveCplt
     /tmp/ccMhfXg8.s:5638   .text.SD_DMAError:0000000000000000 SD_DMAError
     /tmp/ccMhfXg8.s:2169   .text.HAL_SD_WriteBlocks_DMA:0000000000000000 $t
     /tmp/ccMhfXg8.s:2176   .text.HAL_SD_WriteBlocks_DMA:0000000000000000 HAL_SD_WriteBlocks_DMA
     /tmp/ccMhfXg8.s:2444   .text.HAL_SD_WriteBlocks_DMA:0000000000000188 $d
     /tmp/ccMhfXg8.s:5489   .text.SD_DMATransmitCplt:0000000000000000 SD_DMATransmitCplt
     /tmp/ccMhfXg8.s:2451   .text.HAL_SD_Erase:0000000000000000 $t
     /tmp/ccMhfXg8.s:2458   .text.HAL_SD_Erase:0000000000000000 HAL_SD_Erase
     /tmp/ccMhfXg8.s:2724   .text.HAL_SD_IRQHandler:0000000000000000 $t
     /tmp/ccMhfXg8.s:2731   .text.HAL_SD_IRQHandler:0000000000000000 HAL_SD_IRQHandler
     /tmp/ccMhfXg8.s:3369   .text.HAL_SD_ErrorCallback:0000000000000000 HAL_SD_ErrorCallback
     /tmp/ccMhfXg8.s:3326   .text.HAL_SD_RxCpltCallback:0000000000000000 HAL_SD_RxCpltCallback
     /tmp/ccMhfXg8.s:3283   .text.HAL_SD_TxCpltCallback:0000000000000000 HAL_SD_TxCpltCallback
     /tmp/ccMhfXg8.s:7547   .text.SD_Write_IT:0000000000000000 SD_Write_IT
     /tmp/ccMhfXg8.s:7464   .text.SD_Read_IT:0000000000000000 SD_Read_IT
     /tmp/ccMhfXg8.s:5751   .text.SD_DMATxAbort:0000000000000000 SD_DMATxAbort
     /tmp/ccMhfXg8.s:5860   .text.SD_DMARxAbort:0000000000000000 SD_DMARxAbort
     /tmp/ccMhfXg8.s:3412   .text.HAL_SD_AbortCallback:0000000000000000 HAL_SD_AbortCallback
     /tmp/ccMhfXg8.s:3177   .text.HAL_SD_IRQHandler:00000000000002c4 $d
     /tmp/ccMhfXg8.s:3183   .text.HAL_SD_GetState:0000000000000000 $t
     /tmp/ccMhfXg8.s:3190   .text.HAL_SD_GetState:0000000000000000 HAL_SD_GetState
     /tmp/ccMhfXg8.s:3230   .text.HAL_SD_GetError:0000000000000000 $t
     /tmp/ccMhfXg8.s:3237   .text.HAL_SD_GetError:0000000000000000 HAL_SD_GetError
     /tmp/ccMhfXg8.s:3276   .text.HAL_SD_TxCpltCallback:0000000000000000 $t
     /tmp/ccMhfXg8.s:3319   .text.HAL_SD_RxCpltCallback:0000000000000000 $t
     /tmp/ccMhfXg8.s:3362   .text.HAL_SD_ErrorCallback:0000000000000000 $t
     /tmp/ccMhfXg8.s:3405   .text.HAL_SD_AbortCallback:0000000000000000 $t
     /tmp/ccMhfXg8.s:3448   .text.HAL_SD_GetCardCID:0000000000000000 $t
     /tmp/ccMhfXg8.s:3455   .text.HAL_SD_GetCardCID:0000000000000000 HAL_SD_GetCardCID
     /tmp/ccMhfXg8.s:3780   .text.HAL_SD_GetCardCSD:0000000000000000 $t
ARM GAS  /tmp/ccMhfXg8.s 			page 189


     /tmp/ccMhfXg8.s:3787   .text.HAL_SD_GetCardCSD:0000000000000000 HAL_SD_GetCardCSD
     /tmp/ccMhfXg8.s:4514   .text.HAL_SD_GetCardStatus:0000000000000000 $t
     /tmp/ccMhfXg8.s:4521   .text.HAL_SD_GetCardStatus:0000000000000000 HAL_SD_GetCardStatus
     /tmp/ccMhfXg8.s:6538   .text.SD_SendSDStatus:0000000000000000 SD_SendSDStatus
     /tmp/ccMhfXg8.s:4801   .text.HAL_SD_GetCardInfo:0000000000000000 $t
     /tmp/ccMhfXg8.s:4808   .text.HAL_SD_GetCardInfo:0000000000000000 HAL_SD_GetCardInfo
     /tmp/ccMhfXg8.s:4895   .text.HAL_SD_ConfigWideBusOperation:0000000000000000 $t
     /tmp/ccMhfXg8.s:4902   .text.HAL_SD_ConfigWideBusOperation:0000000000000000 HAL_SD_ConfigWideBusOperation
     /tmp/ccMhfXg8.s:6919   .text.SD_WideBus_Enable:0000000000000000 SD_WideBus_Enable
     /tmp/ccMhfXg8.s:7045   .text.SD_WideBus_Disable:0000000000000000 SD_WideBus_Disable
     /tmp/ccMhfXg8.s:5076   .text.HAL_SD_GetCardState:0000000000000000 $t
     /tmp/ccMhfXg8.s:5083   .text.HAL_SD_GetCardState:0000000000000000 HAL_SD_GetCardState
     /tmp/ccMhfXg8.s:6835   .text.SD_SendStatus:0000000000000000 SD_SendStatus
     /tmp/ccMhfXg8.s:5152   .text.HAL_SD_Abort:0000000000000000 $t
     /tmp/ccMhfXg8.s:5159   .text.HAL_SD_Abort:0000000000000000 HAL_SD_Abort
     /tmp/ccMhfXg8.s:5293   .text.HAL_SD_Abort_IT:0000000000000000 $t
     /tmp/ccMhfXg8.s:5300   .text.HAL_SD_Abort_IT:0000000000000000 HAL_SD_Abort_IT
     /tmp/ccMhfXg8.s:5477   .text.HAL_SD_Abort_IT:00000000000000e8 $d
     /tmp/ccMhfXg8.s:5483   .text.SD_DMATransmitCplt:0000000000000000 $t
     /tmp/ccMhfXg8.s:5537   .text.SD_DMAReceiveCplt:0000000000000000 $t
     /tmp/ccMhfXg8.s:5632   .text.SD_DMAError:0000000000000000 $t
     /tmp/ccMhfXg8.s:5745   .text.SD_DMATxAbort:0000000000000000 $t
     /tmp/ccMhfXg8.s:5854   .text.SD_DMARxAbort:0000000000000000 $t
     /tmp/ccMhfXg8.s:5963   .text.SD_InitCard:0000000000000000 $t
     /tmp/ccMhfXg8.s:6235   .text.SD_PowerON:0000000000000000 $t
     /tmp/ccMhfXg8.s:6487   .text.SD_PowerOFF:0000000000000000 $t
     /tmp/ccMhfXg8.s:6532   .text.SD_SendSDStatus:0000000000000000 $t
     /tmp/ccMhfXg8.s:6829   .text.SD_SendStatus:0000000000000000 $t
     /tmp/ccMhfXg8.s:6913   .text.SD_WideBus_Enable:0000000000000000 $t
     /tmp/ccMhfXg8.s:7171   .text.SD_FindSCR:0000000000000000 SD_FindSCR
     /tmp/ccMhfXg8.s:7039   .text.SD_WideBus_Disable:0000000000000000 $t
     /tmp/ccMhfXg8.s:7165   .text.SD_FindSCR:0000000000000000 $t
     /tmp/ccMhfXg8.s:7458   .text.SD_Read_IT:0000000000000000 $t
     /tmp/ccMhfXg8.s:7541   .text.SD_Write_IT:0000000000000000 $t

UNDEFINED SYMBOLS
SDIO_Init
SDIO_PowerState_ON
HAL_Delay
HAL_GetTick
SDMMC_CmdBlockLength
SDIO_ConfigData
SDMMC_CmdReadMultiBlock
SDMMC_CmdReadSingleBlock
SDIO_ReadFIFO
SDMMC_CmdStopTransfer
SDMMC_CmdWriteMultiBlock
SDMMC_CmdWriteSingleBlock
SDIO_WriteFIFO
HAL_DMA_Start_IT
SDIO_GetResponse
SDMMC_CmdSDEraseStartAdd
SDMMC_CmdSDEraseEndAdd
SDMMC_CmdErase
HAL_DMA_Abort_IT
HAL_DMA_Abort
SDIO_GetPowerState
ARM GAS  /tmp/ccMhfXg8.s 			page 190


SDMMC_CmdSendCID
SDMMC_CmdSetRelAdd
SDMMC_CmdSendCSD
SDMMC_CmdSelDesel
SDMMC_CmdGoIdleState
SDMMC_CmdOperCond
SDMMC_CmdAppCommand
SDMMC_CmdAppOperCommand
SDIO_PowerState_OFF
SDMMC_CmdStatusRegister
SDMMC_CmdSendStatus
SDMMC_CmdBusWidth
SDMMC_CmdSendSCR
