ARM GAS  /tmp/cckIUkG9.s 			page 1


   1              		.cpu cortex-m4
   2              		.eabi_attribute 27, 1
   3              		.eabi_attribute 28, 1
   4              		.eabi_attribute 20, 1
   5              		.eabi_attribute 21, 1
   6              		.eabi_attribute 23, 3
   7              		.eabi_attribute 24, 1
   8              		.eabi_attribute 25, 1
   9              		.eabi_attribute 26, 1
  10              		.eabi_attribute 30, 6
  11              		.eabi_attribute 34, 1
  12              		.eabi_attribute 18, 4
  13              		.file	"stm32f4xx_hal_rtc_ex.c"
  14              		.text
  15              	.Ltext0:
  16              		.cfi_sections	.debug_frame
  17              		.section	.text.HAL_RTCEx_SetTimeStamp,"ax",%progbits
  18              		.align	1
  19              		.global	HAL_RTCEx_SetTimeStamp
  20              		.arch armv7e-m
  21              		.syntax unified
  22              		.thumb
  23              		.thumb_func
  24              		.fpu fpv4-sp-d16
  26              	HAL_RTCEx_SetTimeStamp:
  27              	.LFB126:
  28              		.file 1 "./Libraries/STM32F4xx_HAL_Driver/Src/stm32f4xx_hal_rtc_ex.c"
   1:./Libraries/STM32F4xx_HAL_Driver/Src/stm32f4xx_hal_rtc_ex.c **** /**
   2:./Libraries/STM32F4xx_HAL_Driver/Src/stm32f4xx_hal_rtc_ex.c ****   ******************************************************************************
   3:./Libraries/STM32F4xx_HAL_Driver/Src/stm32f4xx_hal_rtc_ex.c ****   * @file    stm32f4xx_hal_rtc_ex.c
   4:./Libraries/STM32F4xx_HAL_Driver/Src/stm32f4xx_hal_rtc_ex.c ****   * @author  MCD Application Team
   5:./Libraries/STM32F4xx_HAL_Driver/Src/stm32f4xx_hal_rtc_ex.c ****   * @brief   RTC HAL module driver.
   6:./Libraries/STM32F4xx_HAL_Driver/Src/stm32f4xx_hal_rtc_ex.c ****   *          This file provides firmware functions to manage the following 
   7:./Libraries/STM32F4xx_HAL_Driver/Src/stm32f4xx_hal_rtc_ex.c ****   *          functionalities of the Real Time Clock (RTC) Extension peripheral:
   8:./Libraries/STM32F4xx_HAL_Driver/Src/stm32f4xx_hal_rtc_ex.c ****   *           + RTC Time Stamp functions
   9:./Libraries/STM32F4xx_HAL_Driver/Src/stm32f4xx_hal_rtc_ex.c ****   *           + RTC Tamper functions 
  10:./Libraries/STM32F4xx_HAL_Driver/Src/stm32f4xx_hal_rtc_ex.c ****   *           + RTC Wake-up functions
  11:./Libraries/STM32F4xx_HAL_Driver/Src/stm32f4xx_hal_rtc_ex.c ****   *           + Extension Control functions
  12:./Libraries/STM32F4xx_HAL_Driver/Src/stm32f4xx_hal_rtc_ex.c ****   *           + Extension RTC features functions    
  13:./Libraries/STM32F4xx_HAL_Driver/Src/stm32f4xx_hal_rtc_ex.c ****   *         
  14:./Libraries/STM32F4xx_HAL_Driver/Src/stm32f4xx_hal_rtc_ex.c ****   @verbatim
  15:./Libraries/STM32F4xx_HAL_Driver/Src/stm32f4xx_hal_rtc_ex.c ****   ==============================================================================
  16:./Libraries/STM32F4xx_HAL_Driver/Src/stm32f4xx_hal_rtc_ex.c ****                   ##### How to use this driver #####
  17:./Libraries/STM32F4xx_HAL_Driver/Src/stm32f4xx_hal_rtc_ex.c ****   ==============================================================================
  18:./Libraries/STM32F4xx_HAL_Driver/Src/stm32f4xx_hal_rtc_ex.c ****   [..] 
  19:./Libraries/STM32F4xx_HAL_Driver/Src/stm32f4xx_hal_rtc_ex.c ****     (+) Enable the RTC domain access.
  20:./Libraries/STM32F4xx_HAL_Driver/Src/stm32f4xx_hal_rtc_ex.c ****     (+) Configure the RTC Prescaler (Asynchronous and Synchronous) and RTC hour 
  21:./Libraries/STM32F4xx_HAL_Driver/Src/stm32f4xx_hal_rtc_ex.c ****         format using the HAL_RTC_Init() function.
  22:./Libraries/STM32F4xx_HAL_Driver/Src/stm32f4xx_hal_rtc_ex.c ****   
  23:./Libraries/STM32F4xx_HAL_Driver/Src/stm32f4xx_hal_rtc_ex.c ****   *** RTC Wake-up configuration ***
  24:./Libraries/STM32F4xx_HAL_Driver/Src/stm32f4xx_hal_rtc_ex.c ****   ================================
  25:./Libraries/STM32F4xx_HAL_Driver/Src/stm32f4xx_hal_rtc_ex.c ****   [..] 
  26:./Libraries/STM32F4xx_HAL_Driver/Src/stm32f4xx_hal_rtc_ex.c ****     (+) To configure the RTC Wake-up Clock source and Counter use the HAL_RTC_SetWakeUpTimer()
  27:./Libraries/STM32F4xx_HAL_Driver/Src/stm32f4xx_hal_rtc_ex.c ****         function. You can also configure the RTC Wake-up timer in interrupt mode 
  28:./Libraries/STM32F4xx_HAL_Driver/Src/stm32f4xx_hal_rtc_ex.c ****         using the HAL_RTC_SetWakeUpTimer_IT() function.
  29:./Libraries/STM32F4xx_HAL_Driver/Src/stm32f4xx_hal_rtc_ex.c ****     (+) To read the RTC Wake-up Counter register, use the HAL_RTC_GetWakeUpTimer() 
  30:./Libraries/STM32F4xx_HAL_Driver/Src/stm32f4xx_hal_rtc_ex.c ****         function.
ARM GAS  /tmp/cckIUkG9.s 			page 2


  31:./Libraries/STM32F4xx_HAL_Driver/Src/stm32f4xx_hal_rtc_ex.c ****   
  32:./Libraries/STM32F4xx_HAL_Driver/Src/stm32f4xx_hal_rtc_ex.c ****   *** TimeStamp configuration ***
  33:./Libraries/STM32F4xx_HAL_Driver/Src/stm32f4xx_hal_rtc_ex.c ****   ===============================
  34:./Libraries/STM32F4xx_HAL_Driver/Src/stm32f4xx_hal_rtc_ex.c ****   [..]
  35:./Libraries/STM32F4xx_HAL_Driver/Src/stm32f4xx_hal_rtc_ex.c ****     (+) Configure the RTC_AFx trigger and enable the RTC TimeStamp using the 
  36:./Libraries/STM32F4xx_HAL_Driver/Src/stm32f4xx_hal_rtc_ex.c ****         HAL_RTC_SetTimeStamp() function. You can also configure the RTC TimeStamp with 
  37:./Libraries/STM32F4xx_HAL_Driver/Src/stm32f4xx_hal_rtc_ex.c ****         interrupt mode using the HAL_RTC_SetTimeStamp_IT() function.
  38:./Libraries/STM32F4xx_HAL_Driver/Src/stm32f4xx_hal_rtc_ex.c ****     (+) To read the RTC TimeStamp Time and Date register, use the HAL_RTC_GetTimeStamp()
  39:./Libraries/STM32F4xx_HAL_Driver/Src/stm32f4xx_hal_rtc_ex.c ****         function.
  40:./Libraries/STM32F4xx_HAL_Driver/Src/stm32f4xx_hal_rtc_ex.c ****     (+) The TIMESTAMP alternate function can be mapped either to RTC_AF1 (PC13)
  41:./Libraries/STM32F4xx_HAL_Driver/Src/stm32f4xx_hal_rtc_ex.c ****         or RTC_AF2 (PI8 or PA0 only for STM32F446xx devices) depending on the value of TSINSEL bit 
  42:./Libraries/STM32F4xx_HAL_Driver/Src/stm32f4xx_hal_rtc_ex.c ****         RTC_TAFCR register. The corresponding pin is also selected by HAL_RTC_SetTimeStamp()
  43:./Libraries/STM32F4xx_HAL_Driver/Src/stm32f4xx_hal_rtc_ex.c ****         or HAL_RTC_SetTimeStamp_IT() function.
  44:./Libraries/STM32F4xx_HAL_Driver/Src/stm32f4xx_hal_rtc_ex.c ****   
  45:./Libraries/STM32F4xx_HAL_Driver/Src/stm32f4xx_hal_rtc_ex.c ****   *** Tamper configuration ***
  46:./Libraries/STM32F4xx_HAL_Driver/Src/stm32f4xx_hal_rtc_ex.c ****   ============================
  47:./Libraries/STM32F4xx_HAL_Driver/Src/stm32f4xx_hal_rtc_ex.c ****   [..]
  48:./Libraries/STM32F4xx_HAL_Driver/Src/stm32f4xx_hal_rtc_ex.c ****     (+) Enable the RTC Tamper and configure the Tamper filter count, trigger Edge 
  49:./Libraries/STM32F4xx_HAL_Driver/Src/stm32f4xx_hal_rtc_ex.c ****         or Level according to the Tamper filter (if equal to 0 Edge else Level) 
  50:./Libraries/STM32F4xx_HAL_Driver/Src/stm32f4xx_hal_rtc_ex.c ****         value, sampling frequency, precharge or discharge and Pull-UP using the 
  51:./Libraries/STM32F4xx_HAL_Driver/Src/stm32f4xx_hal_rtc_ex.c ****         HAL_RTC_SetTamper() function. You can configure RTC Tamper in interrupt 
  52:./Libraries/STM32F4xx_HAL_Driver/Src/stm32f4xx_hal_rtc_ex.c ****         mode using HAL_RTC_SetTamper_IT() function.
  53:./Libraries/STM32F4xx_HAL_Driver/Src/stm32f4xx_hal_rtc_ex.c ****     (+) The TAMPER1 alternate function can be mapped either to RTC_AF1 (PC13)
  54:./Libraries/STM32F4xx_HAL_Driver/Src/stm32f4xx_hal_rtc_ex.c ****         or RTC_AF2 (PI8 or PA0 only for STM32F446xx devices) depending on the value of TAMP1INSEL b
  55:./Libraries/STM32F4xx_HAL_Driver/Src/stm32f4xx_hal_rtc_ex.c ****         RTC_TAFCR register. The corresponding pin is also selected by HAL_RTC_SetTamper()
  56:./Libraries/STM32F4xx_HAL_Driver/Src/stm32f4xx_hal_rtc_ex.c ****         or HAL_RTC_SetTamper_IT() function.
  57:./Libraries/STM32F4xx_HAL_Driver/Src/stm32f4xx_hal_rtc_ex.c ****   
  58:./Libraries/STM32F4xx_HAL_Driver/Src/stm32f4xx_hal_rtc_ex.c ****   *** Backup Data Registers configuration ***
  59:./Libraries/STM32F4xx_HAL_Driver/Src/stm32f4xx_hal_rtc_ex.c ****   ===========================================
  60:./Libraries/STM32F4xx_HAL_Driver/Src/stm32f4xx_hal_rtc_ex.c ****   [..]
  61:./Libraries/STM32F4xx_HAL_Driver/Src/stm32f4xx_hal_rtc_ex.c ****     (+) To write to the RTC Backup Data registers, use the HAL_RTC_BKUPWrite()
  62:./Libraries/STM32F4xx_HAL_Driver/Src/stm32f4xx_hal_rtc_ex.c ****         function.  
  63:./Libraries/STM32F4xx_HAL_Driver/Src/stm32f4xx_hal_rtc_ex.c ****     (+) To read the RTC Backup Data registers, use the HAL_RTC_BKUPRead()
  64:./Libraries/STM32F4xx_HAL_Driver/Src/stm32f4xx_hal_rtc_ex.c ****         function.
  65:./Libraries/STM32F4xx_HAL_Driver/Src/stm32f4xx_hal_rtc_ex.c ****      
  66:./Libraries/STM32F4xx_HAL_Driver/Src/stm32f4xx_hal_rtc_ex.c ****    @endverbatim
  67:./Libraries/STM32F4xx_HAL_Driver/Src/stm32f4xx_hal_rtc_ex.c ****   ******************************************************************************
  68:./Libraries/STM32F4xx_HAL_Driver/Src/stm32f4xx_hal_rtc_ex.c ****   * @attention
  69:./Libraries/STM32F4xx_HAL_Driver/Src/stm32f4xx_hal_rtc_ex.c ****   *
  70:./Libraries/STM32F4xx_HAL_Driver/Src/stm32f4xx_hal_rtc_ex.c ****   * <h2><center>&copy; COPYRIGHT(c) 2017 STMicroelectronics</center></h2>
  71:./Libraries/STM32F4xx_HAL_Driver/Src/stm32f4xx_hal_rtc_ex.c ****   *
  72:./Libraries/STM32F4xx_HAL_Driver/Src/stm32f4xx_hal_rtc_ex.c ****   * Redistribution and use in source and binary forms, with or without modification,
  73:./Libraries/STM32F4xx_HAL_Driver/Src/stm32f4xx_hal_rtc_ex.c ****   * are permitted provided that the following conditions are met:
  74:./Libraries/STM32F4xx_HAL_Driver/Src/stm32f4xx_hal_rtc_ex.c ****   *   1. Redistributions of source code must retain the above copyright notice,
  75:./Libraries/STM32F4xx_HAL_Driver/Src/stm32f4xx_hal_rtc_ex.c ****   *      this list of conditions and the following disclaimer.
  76:./Libraries/STM32F4xx_HAL_Driver/Src/stm32f4xx_hal_rtc_ex.c ****   *   2. Redistributions in binary form must reproduce the above copyright notice,
  77:./Libraries/STM32F4xx_HAL_Driver/Src/stm32f4xx_hal_rtc_ex.c ****   *      this list of conditions and the following disclaimer in the documentation
  78:./Libraries/STM32F4xx_HAL_Driver/Src/stm32f4xx_hal_rtc_ex.c ****   *      and/or other materials provided with the distribution.
  79:./Libraries/STM32F4xx_HAL_Driver/Src/stm32f4xx_hal_rtc_ex.c ****   *   3. Neither the name of STMicroelectronics nor the names of its contributors
  80:./Libraries/STM32F4xx_HAL_Driver/Src/stm32f4xx_hal_rtc_ex.c ****   *      may be used to endorse or promote products derived from this software
  81:./Libraries/STM32F4xx_HAL_Driver/Src/stm32f4xx_hal_rtc_ex.c ****   *      without specific prior written permission.
  82:./Libraries/STM32F4xx_HAL_Driver/Src/stm32f4xx_hal_rtc_ex.c ****   *
  83:./Libraries/STM32F4xx_HAL_Driver/Src/stm32f4xx_hal_rtc_ex.c ****   * THIS SOFTWARE IS PROVIDED BY THE COPYRIGHT HOLDERS AND CONTRIBUTORS "AS IS"
  84:./Libraries/STM32F4xx_HAL_Driver/Src/stm32f4xx_hal_rtc_ex.c ****   * AND ANY EXPRESS OR IMPLIED WARRANTIES, INCLUDING, BUT NOT LIMITED TO, THE
  85:./Libraries/STM32F4xx_HAL_Driver/Src/stm32f4xx_hal_rtc_ex.c ****   * IMPLIED WARRANTIES OF MERCHANTABILITY AND FITNESS FOR A PARTICULAR PURPOSE ARE
  86:./Libraries/STM32F4xx_HAL_Driver/Src/stm32f4xx_hal_rtc_ex.c ****   * DISCLAIMED. IN NO EVENT SHALL THE COPYRIGHT HOLDER OR CONTRIBUTORS BE LIABLE
  87:./Libraries/STM32F4xx_HAL_Driver/Src/stm32f4xx_hal_rtc_ex.c ****   * FOR ANY DIRECT, INDIRECT, INCIDENTAL, SPECIAL, EXEMPLARY, OR CONSEQUENTIAL
ARM GAS  /tmp/cckIUkG9.s 			page 3


  88:./Libraries/STM32F4xx_HAL_Driver/Src/stm32f4xx_hal_rtc_ex.c ****   * DAMAGES (INCLUDING, BUT NOT LIMITED TO, PROCUREMENT OF SUBSTITUTE GOODS OR
  89:./Libraries/STM32F4xx_HAL_Driver/Src/stm32f4xx_hal_rtc_ex.c ****   * SERVICES; LOSS OF USE, DATA, OR PROFITS; OR BUSINESS INTERRUPTION) HOWEVER
  90:./Libraries/STM32F4xx_HAL_Driver/Src/stm32f4xx_hal_rtc_ex.c ****   * CAUSED AND ON ANY THEORY OF LIABILITY, WHETHER IN CONTRACT, STRICT LIABILITY,
  91:./Libraries/STM32F4xx_HAL_Driver/Src/stm32f4xx_hal_rtc_ex.c ****   * OR TORT (INCLUDING NEGLIGENCE OR OTHERWISE) ARISING IN ANY WAY OUT OF THE USE
  92:./Libraries/STM32F4xx_HAL_Driver/Src/stm32f4xx_hal_rtc_ex.c ****   * OF THIS SOFTWARE, EVEN IF ADVISED OF THE POSSIBILITY OF SUCH DAMAGE.
  93:./Libraries/STM32F4xx_HAL_Driver/Src/stm32f4xx_hal_rtc_ex.c ****   *
  94:./Libraries/STM32F4xx_HAL_Driver/Src/stm32f4xx_hal_rtc_ex.c ****   ******************************************************************************
  95:./Libraries/STM32F4xx_HAL_Driver/Src/stm32f4xx_hal_rtc_ex.c ****   */ 
  96:./Libraries/STM32F4xx_HAL_Driver/Src/stm32f4xx_hal_rtc_ex.c **** 
  97:./Libraries/STM32F4xx_HAL_Driver/Src/stm32f4xx_hal_rtc_ex.c **** /* Includes ------------------------------------------------------------------*/
  98:./Libraries/STM32F4xx_HAL_Driver/Src/stm32f4xx_hal_rtc_ex.c **** #include "stm32f4xx_hal.h"
  99:./Libraries/STM32F4xx_HAL_Driver/Src/stm32f4xx_hal_rtc_ex.c **** 
 100:./Libraries/STM32F4xx_HAL_Driver/Src/stm32f4xx_hal_rtc_ex.c **** /** @addtogroup STM32F4xx_HAL_Driver
 101:./Libraries/STM32F4xx_HAL_Driver/Src/stm32f4xx_hal_rtc_ex.c ****   * @{
 102:./Libraries/STM32F4xx_HAL_Driver/Src/stm32f4xx_hal_rtc_ex.c ****   */
 103:./Libraries/STM32F4xx_HAL_Driver/Src/stm32f4xx_hal_rtc_ex.c **** 
 104:./Libraries/STM32F4xx_HAL_Driver/Src/stm32f4xx_hal_rtc_ex.c **** /** @defgroup RTCEx RTCEx
 105:./Libraries/STM32F4xx_HAL_Driver/Src/stm32f4xx_hal_rtc_ex.c ****   * @brief RTC HAL module driver
 106:./Libraries/STM32F4xx_HAL_Driver/Src/stm32f4xx_hal_rtc_ex.c ****   * @{
 107:./Libraries/STM32F4xx_HAL_Driver/Src/stm32f4xx_hal_rtc_ex.c ****   */
 108:./Libraries/STM32F4xx_HAL_Driver/Src/stm32f4xx_hal_rtc_ex.c **** 
 109:./Libraries/STM32F4xx_HAL_Driver/Src/stm32f4xx_hal_rtc_ex.c **** #ifdef HAL_RTC_MODULE_ENABLED
 110:./Libraries/STM32F4xx_HAL_Driver/Src/stm32f4xx_hal_rtc_ex.c **** 
 111:./Libraries/STM32F4xx_HAL_Driver/Src/stm32f4xx_hal_rtc_ex.c **** /* Private typedef -----------------------------------------------------------*/
 112:./Libraries/STM32F4xx_HAL_Driver/Src/stm32f4xx_hal_rtc_ex.c **** /* Private define ------------------------------------------------------------*/
 113:./Libraries/STM32F4xx_HAL_Driver/Src/stm32f4xx_hal_rtc_ex.c **** /* Private macro -------------------------------------------------------------*/
 114:./Libraries/STM32F4xx_HAL_Driver/Src/stm32f4xx_hal_rtc_ex.c **** /* Private variables ---------------------------------------------------------*/
 115:./Libraries/STM32F4xx_HAL_Driver/Src/stm32f4xx_hal_rtc_ex.c **** /* Private function prototypes -----------------------------------------------*/
 116:./Libraries/STM32F4xx_HAL_Driver/Src/stm32f4xx_hal_rtc_ex.c **** /* Private functions ---------------------------------------------------------*/
 117:./Libraries/STM32F4xx_HAL_Driver/Src/stm32f4xx_hal_rtc_ex.c **** 
 118:./Libraries/STM32F4xx_HAL_Driver/Src/stm32f4xx_hal_rtc_ex.c **** /** @defgroup RTCEx_Exported_Functions RTCEx Exported Functions
 119:./Libraries/STM32F4xx_HAL_Driver/Src/stm32f4xx_hal_rtc_ex.c ****   * @{
 120:./Libraries/STM32F4xx_HAL_Driver/Src/stm32f4xx_hal_rtc_ex.c ****   */  
 121:./Libraries/STM32F4xx_HAL_Driver/Src/stm32f4xx_hal_rtc_ex.c **** 
 122:./Libraries/STM32F4xx_HAL_Driver/Src/stm32f4xx_hal_rtc_ex.c **** /** @defgroup RTCEx_Exported_Functions_Group1 RTC TimeStamp and Tamper functions
 123:./Libraries/STM32F4xx_HAL_Driver/Src/stm32f4xx_hal_rtc_ex.c ****  *  @brief   RTC TimeStamp and Tamper functions
 124:./Libraries/STM32F4xx_HAL_Driver/Src/stm32f4xx_hal_rtc_ex.c ****  *
 125:./Libraries/STM32F4xx_HAL_Driver/Src/stm32f4xx_hal_rtc_ex.c **** @verbatim   
 126:./Libraries/STM32F4xx_HAL_Driver/Src/stm32f4xx_hal_rtc_ex.c ****  ===============================================================================
 127:./Libraries/STM32F4xx_HAL_Driver/Src/stm32f4xx_hal_rtc_ex.c ****                  ##### RTC TimeStamp and Tamper functions #####
 128:./Libraries/STM32F4xx_HAL_Driver/Src/stm32f4xx_hal_rtc_ex.c ****  ===============================================================================  
 129:./Libraries/STM32F4xx_HAL_Driver/Src/stm32f4xx_hal_rtc_ex.c ****  
 130:./Libraries/STM32F4xx_HAL_Driver/Src/stm32f4xx_hal_rtc_ex.c ****  [..] This section provides functions allowing to configure TimeStamp feature
 131:./Libraries/STM32F4xx_HAL_Driver/Src/stm32f4xx_hal_rtc_ex.c **** 
 132:./Libraries/STM32F4xx_HAL_Driver/Src/stm32f4xx_hal_rtc_ex.c **** @endverbatim
 133:./Libraries/STM32F4xx_HAL_Driver/Src/stm32f4xx_hal_rtc_ex.c ****   * @{
 134:./Libraries/STM32F4xx_HAL_Driver/Src/stm32f4xx_hal_rtc_ex.c ****   */
 135:./Libraries/STM32F4xx_HAL_Driver/Src/stm32f4xx_hal_rtc_ex.c **** 
 136:./Libraries/STM32F4xx_HAL_Driver/Src/stm32f4xx_hal_rtc_ex.c **** /**
 137:./Libraries/STM32F4xx_HAL_Driver/Src/stm32f4xx_hal_rtc_ex.c ****   * @brief  Sets TimeStamp.
 138:./Libraries/STM32F4xx_HAL_Driver/Src/stm32f4xx_hal_rtc_ex.c ****   * @note   This API must be called before enabling the TimeStamp feature. 
 139:./Libraries/STM32F4xx_HAL_Driver/Src/stm32f4xx_hal_rtc_ex.c ****   * @param  hrtc pointer to a RTC_HandleTypeDef structure that contains
 140:./Libraries/STM32F4xx_HAL_Driver/Src/stm32f4xx_hal_rtc_ex.c ****   *                the configuration information for RTC.
 141:./Libraries/STM32F4xx_HAL_Driver/Src/stm32f4xx_hal_rtc_ex.c ****   * @param  TimeStampEdge Specifies the pin edge on which the TimeStamp is 
 142:./Libraries/STM32F4xx_HAL_Driver/Src/stm32f4xx_hal_rtc_ex.c ****   *         activated.
 143:./Libraries/STM32F4xx_HAL_Driver/Src/stm32f4xx_hal_rtc_ex.c ****   *          This parameter can be one of the following values:
 144:./Libraries/STM32F4xx_HAL_Driver/Src/stm32f4xx_hal_rtc_ex.c ****   *             @arg RTC_TIMESTAMPEDGE_RISING: the Time stamp event occurs on the  
ARM GAS  /tmp/cckIUkG9.s 			page 4


 145:./Libraries/STM32F4xx_HAL_Driver/Src/stm32f4xx_hal_rtc_ex.c ****   *                                        rising edge of the related pin.
 146:./Libraries/STM32F4xx_HAL_Driver/Src/stm32f4xx_hal_rtc_ex.c ****   *             @arg RTC_TIMESTAMPEDGE_FALLING: the Time stamp event occurs on the 
 147:./Libraries/STM32F4xx_HAL_Driver/Src/stm32f4xx_hal_rtc_ex.c ****   *                                         falling edge of the related pin.
 148:./Libraries/STM32F4xx_HAL_Driver/Src/stm32f4xx_hal_rtc_ex.c ****   * @param  RTC_TimeStampPin specifies the RTC TimeStamp Pin.
 149:./Libraries/STM32F4xx_HAL_Driver/Src/stm32f4xx_hal_rtc_ex.c ****   *          This parameter can be one of the following values:
 150:./Libraries/STM32F4xx_HAL_Driver/Src/stm32f4xx_hal_rtc_ex.c ****   *             @arg RTC_TIMESTAMPPIN_DEFAULT: PC13 is selected as RTC TimeStamp Pin.
 151:./Libraries/STM32F4xx_HAL_Driver/Src/stm32f4xx_hal_rtc_ex.c ****   *             @arg RTC_TIMESTAMPPIN_POS1: PI8/PA0 is selected as RTC TimeStamp Pin. 
 152:./Libraries/STM32F4xx_HAL_Driver/Src/stm32f4xx_hal_rtc_ex.c ****   *             (not applicable in the case of STM32F412xx, STM32F413xx and STM32F423xx devices) 
 153:./Libraries/STM32F4xx_HAL_Driver/Src/stm32f4xx_hal_rtc_ex.c ****   *             (PI8 for all STM32 devices except for STM32F446xx devices the PA0 is used) 
 154:./Libraries/STM32F4xx_HAL_Driver/Src/stm32f4xx_hal_rtc_ex.c ****   *             @arg RTC_TIMESTAMPPIN_PA0: PA0 is selected as RTC TimeStamp Pin only for STM32F446x
 155:./Libraries/STM32F4xx_HAL_Driver/Src/stm32f4xx_hal_rtc_ex.c ****   * @retval HAL status
 156:./Libraries/STM32F4xx_HAL_Driver/Src/stm32f4xx_hal_rtc_ex.c ****   */
 157:./Libraries/STM32F4xx_HAL_Driver/Src/stm32f4xx_hal_rtc_ex.c **** HAL_StatusTypeDef HAL_RTCEx_SetTimeStamp(RTC_HandleTypeDef *hrtc, uint32_t TimeStampEdge, uint32_t 
 158:./Libraries/STM32F4xx_HAL_Driver/Src/stm32f4xx_hal_rtc_ex.c **** {
  29              		.loc 1 158 1
  30              		.cfi_startproc
  31              		@ args = 0, pretend = 0, frame = 24
  32              		@ frame_needed = 1, uses_anonymous_args = 0
  33              		@ link register save eliminated.
  34 0000 80B4     		push	{r7}
  35              	.LCFI0:
  36              		.cfi_def_cfa_offset 4
  37              		.cfi_offset 7, -4
  38 0002 87B0     		sub	sp, sp, #28
  39              	.LCFI1:
  40              		.cfi_def_cfa_offset 32
  41 0004 00AF     		add	r7, sp, #0
  42              	.LCFI2:
  43              		.cfi_def_cfa_register 7
  44 0006 F860     		str	r0, [r7, #12]
  45 0008 B960     		str	r1, [r7, #8]
  46 000a 7A60     		str	r2, [r7, #4]
 159:./Libraries/STM32F4xx_HAL_Driver/Src/stm32f4xx_hal_rtc_ex.c ****   uint32_t tmpreg = 0U;
  47              		.loc 1 159 12
  48 000c 0023     		movs	r3, #0
  49 000e 7B61     		str	r3, [r7, #20]
 160:./Libraries/STM32F4xx_HAL_Driver/Src/stm32f4xx_hal_rtc_ex.c ****   
 161:./Libraries/STM32F4xx_HAL_Driver/Src/stm32f4xx_hal_rtc_ex.c ****   /* Check the parameters */
 162:./Libraries/STM32F4xx_HAL_Driver/Src/stm32f4xx_hal_rtc_ex.c ****   assert_param(IS_TIMESTAMP_EDGE(TimeStampEdge));
 163:./Libraries/STM32F4xx_HAL_Driver/Src/stm32f4xx_hal_rtc_ex.c ****   assert_param(IS_RTC_TIMESTAMP_PIN(RTC_TimeStampPin));
 164:./Libraries/STM32F4xx_HAL_Driver/Src/stm32f4xx_hal_rtc_ex.c ****   
 165:./Libraries/STM32F4xx_HAL_Driver/Src/stm32f4xx_hal_rtc_ex.c ****   /* Process Locked */ 
 166:./Libraries/STM32F4xx_HAL_Driver/Src/stm32f4xx_hal_rtc_ex.c ****   __HAL_LOCK(hrtc);
  50              		.loc 1 166 3
  51 0010 FB68     		ldr	r3, [r7, #12]
  52 0012 1B7F     		ldrb	r3, [r3, #28]	@ zero_extendqisi2
  53 0014 012B     		cmp	r3, #1
  54 0016 01D1     		bne	.L2
  55              		.loc 1 166 3 is_stmt 0 discriminator 1
  56 0018 0223     		movs	r3, #2
  57 001a 40E0     		b	.L3
  58              	.L2:
  59              		.loc 1 166 3 discriminator 2
  60 001c FB68     		ldr	r3, [r7, #12]
  61 001e 0122     		movs	r2, #1
  62 0020 1A77     		strb	r2, [r3, #28]
 167:./Libraries/STM32F4xx_HAL_Driver/Src/stm32f4xx_hal_rtc_ex.c ****   
ARM GAS  /tmp/cckIUkG9.s 			page 5


 168:./Libraries/STM32F4xx_HAL_Driver/Src/stm32f4xx_hal_rtc_ex.c ****   hrtc->State = HAL_RTC_STATE_BUSY;
  63              		.loc 1 168 15 is_stmt 1 discriminator 2
  64 0022 FB68     		ldr	r3, [r7, #12]
  65 0024 0222     		movs	r2, #2
  66 0026 5A77     		strb	r2, [r3, #29]
 169:./Libraries/STM32F4xx_HAL_Driver/Src/stm32f4xx_hal_rtc_ex.c ****   
 170:./Libraries/STM32F4xx_HAL_Driver/Src/stm32f4xx_hal_rtc_ex.c ****   /* Get the RTC_CR register and clear the bits to be configured */
 171:./Libraries/STM32F4xx_HAL_Driver/Src/stm32f4xx_hal_rtc_ex.c ****   tmpreg = (uint32_t)(hrtc->Instance->CR & (uint32_t)~(RTC_CR_TSEDGE | RTC_CR_TSE));
  67              		.loc 1 171 27 discriminator 2
  68 0028 FB68     		ldr	r3, [r7, #12]
  69 002a 1B68     		ldr	r3, [r3]
  70              		.loc 1 171 37 discriminator 2
  71 002c 9B68     		ldr	r3, [r3, #8]
  72              		.loc 1 171 10 discriminator 2
  73 002e 23F40063 		bic	r3, r3, #2048
  74 0032 23F00803 		bic	r3, r3, #8
  75 0036 7B61     		str	r3, [r7, #20]
 172:./Libraries/STM32F4xx_HAL_Driver/Src/stm32f4xx_hal_rtc_ex.c ****     
 173:./Libraries/STM32F4xx_HAL_Driver/Src/stm32f4xx_hal_rtc_ex.c ****   tmpreg|= TimeStampEdge;
  76              		.loc 1 173 9 discriminator 2
  77 0038 7A69     		ldr	r2, [r7, #20]
  78 003a BB68     		ldr	r3, [r7, #8]
  79 003c 1343     		orrs	r3, r3, r2
  80 003e 7B61     		str	r3, [r7, #20]
 174:./Libraries/STM32F4xx_HAL_Driver/Src/stm32f4xx_hal_rtc_ex.c ****   
 175:./Libraries/STM32F4xx_HAL_Driver/Src/stm32f4xx_hal_rtc_ex.c ****   /* Disable the write protection for RTC registers */
 176:./Libraries/STM32F4xx_HAL_Driver/Src/stm32f4xx_hal_rtc_ex.c ****   __HAL_RTC_WRITEPROTECTION_DISABLE(hrtc);
  81              		.loc 1 176 3 discriminator 2
  82 0040 FB68     		ldr	r3, [r7, #12]
  83 0042 1B68     		ldr	r3, [r3]
  84 0044 CA22     		movs	r2, #202
  85 0046 5A62     		str	r2, [r3, #36]
  86 0048 FB68     		ldr	r3, [r7, #12]
  87 004a 1B68     		ldr	r3, [r3]
  88 004c 5322     		movs	r2, #83
  89 004e 5A62     		str	r2, [r3, #36]
 177:./Libraries/STM32F4xx_HAL_Driver/Src/stm32f4xx_hal_rtc_ex.c ****   
 178:./Libraries/STM32F4xx_HAL_Driver/Src/stm32f4xx_hal_rtc_ex.c ****   hrtc->Instance->TAFCR &= (uint32_t)~RTC_TAFCR_TSINSEL;
  90              		.loc 1 178 7 discriminator 2
  91 0050 FB68     		ldr	r3, [r7, #12]
  92 0052 1B68     		ldr	r3, [r3]
  93              		.loc 1 178 25 discriminator 2
  94 0054 1A6C     		ldr	r2, [r3, #64]
  95              		.loc 1 178 7 discriminator 2
  96 0056 FB68     		ldr	r3, [r7, #12]
  97 0058 1B68     		ldr	r3, [r3]
  98              		.loc 1 178 25 discriminator 2
  99 005a 22F40032 		bic	r2, r2, #131072
 100 005e 1A64     		str	r2, [r3, #64]
 179:./Libraries/STM32F4xx_HAL_Driver/Src/stm32f4xx_hal_rtc_ex.c ****   hrtc->Instance->TAFCR |= (uint32_t)(RTC_TimeStampPin); 
 101              		.loc 1 179 7 discriminator 2
 102 0060 FB68     		ldr	r3, [r7, #12]
 103 0062 1B68     		ldr	r3, [r3]
 104              		.loc 1 179 25 discriminator 2
 105 0064 196C     		ldr	r1, [r3, #64]
 106              		.loc 1 179 7 discriminator 2
 107 0066 FB68     		ldr	r3, [r7, #12]
ARM GAS  /tmp/cckIUkG9.s 			page 6


 108 0068 1B68     		ldr	r3, [r3]
 109              		.loc 1 179 25 discriminator 2
 110 006a 7A68     		ldr	r2, [r7, #4]
 111 006c 0A43     		orrs	r2, r2, r1
 112 006e 1A64     		str	r2, [r3, #64]
 180:./Libraries/STM32F4xx_HAL_Driver/Src/stm32f4xx_hal_rtc_ex.c ****   
 181:./Libraries/STM32F4xx_HAL_Driver/Src/stm32f4xx_hal_rtc_ex.c ****   /* Configure the Time Stamp TSEDGE and Enable bits */
 182:./Libraries/STM32F4xx_HAL_Driver/Src/stm32f4xx_hal_rtc_ex.c ****   hrtc->Instance->CR = (uint32_t)tmpreg;
 113              		.loc 1 182 7 discriminator 2
 114 0070 FB68     		ldr	r3, [r7, #12]
 115 0072 1B68     		ldr	r3, [r3]
 116              		.loc 1 182 22 discriminator 2
 117 0074 7A69     		ldr	r2, [r7, #20]
 118 0076 9A60     		str	r2, [r3, #8]
 183:./Libraries/STM32F4xx_HAL_Driver/Src/stm32f4xx_hal_rtc_ex.c ****   
 184:./Libraries/STM32F4xx_HAL_Driver/Src/stm32f4xx_hal_rtc_ex.c ****   __HAL_RTC_TIMESTAMP_ENABLE(hrtc);
 119              		.loc 1 184 3 discriminator 2
 120 0078 FB68     		ldr	r3, [r7, #12]
 121 007a 1B68     		ldr	r3, [r3]
 122 007c 9A68     		ldr	r2, [r3, #8]
 123 007e FB68     		ldr	r3, [r7, #12]
 124 0080 1B68     		ldr	r3, [r3]
 125 0082 42F40062 		orr	r2, r2, #2048
 126 0086 9A60     		str	r2, [r3, #8]
 185:./Libraries/STM32F4xx_HAL_Driver/Src/stm32f4xx_hal_rtc_ex.c ****   
 186:./Libraries/STM32F4xx_HAL_Driver/Src/stm32f4xx_hal_rtc_ex.c ****   /* Enable the write protection for RTC registers */
 187:./Libraries/STM32F4xx_HAL_Driver/Src/stm32f4xx_hal_rtc_ex.c ****   __HAL_RTC_WRITEPROTECTION_ENABLE(hrtc);    
 127              		.loc 1 187 3 discriminator 2
 128 0088 FB68     		ldr	r3, [r7, #12]
 129 008a 1B68     		ldr	r3, [r3]
 130 008c FF22     		movs	r2, #255
 131 008e 5A62     		str	r2, [r3, #36]
 188:./Libraries/STM32F4xx_HAL_Driver/Src/stm32f4xx_hal_rtc_ex.c ****   
 189:./Libraries/STM32F4xx_HAL_Driver/Src/stm32f4xx_hal_rtc_ex.c ****   /* Change RTC state */
 190:./Libraries/STM32F4xx_HAL_Driver/Src/stm32f4xx_hal_rtc_ex.c ****   hrtc->State = HAL_RTC_STATE_READY; 
 132              		.loc 1 190 15 discriminator 2
 133 0090 FB68     		ldr	r3, [r7, #12]
 134 0092 0122     		movs	r2, #1
 135 0094 5A77     		strb	r2, [r3, #29]
 191:./Libraries/STM32F4xx_HAL_Driver/Src/stm32f4xx_hal_rtc_ex.c ****   
 192:./Libraries/STM32F4xx_HAL_Driver/Src/stm32f4xx_hal_rtc_ex.c ****   /* Process Unlocked */ 
 193:./Libraries/STM32F4xx_HAL_Driver/Src/stm32f4xx_hal_rtc_ex.c ****   __HAL_UNLOCK(hrtc);
 136              		.loc 1 193 3 discriminator 2
 137 0096 FB68     		ldr	r3, [r7, #12]
 138 0098 0022     		movs	r2, #0
 139 009a 1A77     		strb	r2, [r3, #28]
 194:./Libraries/STM32F4xx_HAL_Driver/Src/stm32f4xx_hal_rtc_ex.c ****   
 195:./Libraries/STM32F4xx_HAL_Driver/Src/stm32f4xx_hal_rtc_ex.c ****   return HAL_OK;
 140              		.loc 1 195 10 discriminator 2
 141 009c 0023     		movs	r3, #0
 142              	.L3:
 196:./Libraries/STM32F4xx_HAL_Driver/Src/stm32f4xx_hal_rtc_ex.c **** }
 143              		.loc 1 196 1
 144 009e 1846     		mov	r0, r3
 145 00a0 1C37     		adds	r7, r7, #28
 146              	.LCFI3:
 147              		.cfi_def_cfa_offset 4
ARM GAS  /tmp/cckIUkG9.s 			page 7


 148 00a2 BD46     		mov	sp, r7
 149              	.LCFI4:
 150              		.cfi_def_cfa_register 13
 151              		@ sp needed
 152 00a4 5DF8047B 		ldr	r7, [sp], #4
 153              	.LCFI5:
 154              		.cfi_restore 7
 155              		.cfi_def_cfa_offset 0
 156 00a8 7047     		bx	lr
 157              		.cfi_endproc
 158              	.LFE126:
 160              		.section	.text.HAL_RTCEx_SetTimeStamp_IT,"ax",%progbits
 161              		.align	1
 162              		.global	HAL_RTCEx_SetTimeStamp_IT
 163              		.syntax unified
 164              		.thumb
 165              		.thumb_func
 166              		.fpu fpv4-sp-d16
 168              	HAL_RTCEx_SetTimeStamp_IT:
 169              	.LFB127:
 197:./Libraries/STM32F4xx_HAL_Driver/Src/stm32f4xx_hal_rtc_ex.c **** 
 198:./Libraries/STM32F4xx_HAL_Driver/Src/stm32f4xx_hal_rtc_ex.c **** /**
 199:./Libraries/STM32F4xx_HAL_Driver/Src/stm32f4xx_hal_rtc_ex.c ****   * @brief  Sets TimeStamp with Interrupt. 
 200:./Libraries/STM32F4xx_HAL_Driver/Src/stm32f4xx_hal_rtc_ex.c ****   * @param  hrtc pointer to a RTC_HandleTypeDef structure that contains
 201:./Libraries/STM32F4xx_HAL_Driver/Src/stm32f4xx_hal_rtc_ex.c ****   *                the configuration information for RTC.
 202:./Libraries/STM32F4xx_HAL_Driver/Src/stm32f4xx_hal_rtc_ex.c ****   * @note   This API must be called before enabling the TimeStamp feature.
 203:./Libraries/STM32F4xx_HAL_Driver/Src/stm32f4xx_hal_rtc_ex.c ****   * @param  TimeStampEdge Specifies the pin edge on which the TimeStamp is 
 204:./Libraries/STM32F4xx_HAL_Driver/Src/stm32f4xx_hal_rtc_ex.c ****   *         activated.
 205:./Libraries/STM32F4xx_HAL_Driver/Src/stm32f4xx_hal_rtc_ex.c ****   *          This parameter can be one of the following values:
 206:./Libraries/STM32F4xx_HAL_Driver/Src/stm32f4xx_hal_rtc_ex.c ****   *             @arg RTC_TIMESTAMPEDGE_RISING: the Time stamp event occurs on the  
 207:./Libraries/STM32F4xx_HAL_Driver/Src/stm32f4xx_hal_rtc_ex.c ****   *                                        rising edge of the related pin.
 208:./Libraries/STM32F4xx_HAL_Driver/Src/stm32f4xx_hal_rtc_ex.c ****   *             @arg RTC_TIMESTAMPEDGE_FALLING: the Time stamp event occurs on the 
 209:./Libraries/STM32F4xx_HAL_Driver/Src/stm32f4xx_hal_rtc_ex.c ****   *                                         falling edge of the related pin.
 210:./Libraries/STM32F4xx_HAL_Driver/Src/stm32f4xx_hal_rtc_ex.c ****   * @param  RTC_TimeStampPin Specifies the RTC TimeStamp Pin.
 211:./Libraries/STM32F4xx_HAL_Driver/Src/stm32f4xx_hal_rtc_ex.c ****   *          This parameter can be one of the following values:
 212:./Libraries/STM32F4xx_HAL_Driver/Src/stm32f4xx_hal_rtc_ex.c ****   *             @arg RTC_TIMESTAMPPIN_DEFAULT: PC13 is selected as RTC TimeStamp Pin.
 213:./Libraries/STM32F4xx_HAL_Driver/Src/stm32f4xx_hal_rtc_ex.c ****   *             @arg RTC_TIMESTAMPPIN_PI8: PI8 is selected as RTC TimeStamp Pin. (not applicable in
 214:./Libraries/STM32F4xx_HAL_Driver/Src/stm32f4xx_hal_rtc_ex.c ****   *             @arg RTC_TIMESTAMPPIN_PA0: PA0 is selected as RTC TimeStamp Pin only for STM32F446x
 215:./Libraries/STM32F4xx_HAL_Driver/Src/stm32f4xx_hal_rtc_ex.c ****   * @retval HAL status
 216:./Libraries/STM32F4xx_HAL_Driver/Src/stm32f4xx_hal_rtc_ex.c ****   */
 217:./Libraries/STM32F4xx_HAL_Driver/Src/stm32f4xx_hal_rtc_ex.c **** HAL_StatusTypeDef HAL_RTCEx_SetTimeStamp_IT(RTC_HandleTypeDef *hrtc, uint32_t TimeStampEdge, uint32
 218:./Libraries/STM32F4xx_HAL_Driver/Src/stm32f4xx_hal_rtc_ex.c **** {
 170              		.loc 1 218 1
 171              		.cfi_startproc
 172              		@ args = 0, pretend = 0, frame = 24
 173              		@ frame_needed = 1, uses_anonymous_args = 0
 174              		@ link register save eliminated.
 175 0000 80B4     		push	{r7}
 176              	.LCFI6:
 177              		.cfi_def_cfa_offset 4
 178              		.cfi_offset 7, -4
 179 0002 87B0     		sub	sp, sp, #28
 180              	.LCFI7:
 181              		.cfi_def_cfa_offset 32
 182 0004 00AF     		add	r7, sp, #0
 183              	.LCFI8:
 184              		.cfi_def_cfa_register 7
ARM GAS  /tmp/cckIUkG9.s 			page 8


 185 0006 F860     		str	r0, [r7, #12]
 186 0008 B960     		str	r1, [r7, #8]
 187 000a 7A60     		str	r2, [r7, #4]
 219:./Libraries/STM32F4xx_HAL_Driver/Src/stm32f4xx_hal_rtc_ex.c ****   uint32_t tmpreg = 0U;
 188              		.loc 1 219 12
 189 000c 0023     		movs	r3, #0
 190 000e 7B61     		str	r3, [r7, #20]
 220:./Libraries/STM32F4xx_HAL_Driver/Src/stm32f4xx_hal_rtc_ex.c ****   
 221:./Libraries/STM32F4xx_HAL_Driver/Src/stm32f4xx_hal_rtc_ex.c ****   /* Check the parameters */
 222:./Libraries/STM32F4xx_HAL_Driver/Src/stm32f4xx_hal_rtc_ex.c ****   assert_param(IS_TIMESTAMP_EDGE(TimeStampEdge));
 223:./Libraries/STM32F4xx_HAL_Driver/Src/stm32f4xx_hal_rtc_ex.c ****   assert_param(IS_RTC_TIMESTAMP_PIN(RTC_TimeStampPin));
 224:./Libraries/STM32F4xx_HAL_Driver/Src/stm32f4xx_hal_rtc_ex.c ****   
 225:./Libraries/STM32F4xx_HAL_Driver/Src/stm32f4xx_hal_rtc_ex.c ****   /* Process Locked */ 
 226:./Libraries/STM32F4xx_HAL_Driver/Src/stm32f4xx_hal_rtc_ex.c ****   __HAL_LOCK(hrtc);
 191              		.loc 1 226 3
 192 0010 FB68     		ldr	r3, [r7, #12]
 193 0012 1B7F     		ldrb	r3, [r3, #28]	@ zero_extendqisi2
 194 0014 012B     		cmp	r3, #1
 195 0016 01D1     		bne	.L5
 196              		.loc 1 226 3 is_stmt 0 discriminator 1
 197 0018 0223     		movs	r3, #2
 198 001a 5DE0     		b	.L6
 199              	.L5:
 200              		.loc 1 226 3 discriminator 2
 201 001c FB68     		ldr	r3, [r7, #12]
 202 001e 0122     		movs	r2, #1
 203 0020 1A77     		strb	r2, [r3, #28]
 227:./Libraries/STM32F4xx_HAL_Driver/Src/stm32f4xx_hal_rtc_ex.c ****   
 228:./Libraries/STM32F4xx_HAL_Driver/Src/stm32f4xx_hal_rtc_ex.c ****   hrtc->State = HAL_RTC_STATE_BUSY;
 204              		.loc 1 228 15 is_stmt 1 discriminator 2
 205 0022 FB68     		ldr	r3, [r7, #12]
 206 0024 0222     		movs	r2, #2
 207 0026 5A77     		strb	r2, [r3, #29]
 229:./Libraries/STM32F4xx_HAL_Driver/Src/stm32f4xx_hal_rtc_ex.c ****   
 230:./Libraries/STM32F4xx_HAL_Driver/Src/stm32f4xx_hal_rtc_ex.c ****   /* Get the RTC_CR register and clear the bits to be configured */
 231:./Libraries/STM32F4xx_HAL_Driver/Src/stm32f4xx_hal_rtc_ex.c ****   tmpreg = (uint32_t)(hrtc->Instance->CR & (uint32_t)~(RTC_CR_TSEDGE | RTC_CR_TSE));
 208              		.loc 1 231 27 discriminator 2
 209 0028 FB68     		ldr	r3, [r7, #12]
 210 002a 1B68     		ldr	r3, [r3]
 211              		.loc 1 231 37 discriminator 2
 212 002c 9B68     		ldr	r3, [r3, #8]
 213              		.loc 1 231 10 discriminator 2
 214 002e 23F40063 		bic	r3, r3, #2048
 215 0032 23F00803 		bic	r3, r3, #8
 216 0036 7B61     		str	r3, [r7, #20]
 232:./Libraries/STM32F4xx_HAL_Driver/Src/stm32f4xx_hal_rtc_ex.c ****   
 233:./Libraries/STM32F4xx_HAL_Driver/Src/stm32f4xx_hal_rtc_ex.c ****   tmpreg |= TimeStampEdge;
 217              		.loc 1 233 10 discriminator 2
 218 0038 7A69     		ldr	r2, [r7, #20]
 219 003a BB68     		ldr	r3, [r7, #8]
 220 003c 1343     		orrs	r3, r3, r2
 221 003e 7B61     		str	r3, [r7, #20]
 234:./Libraries/STM32F4xx_HAL_Driver/Src/stm32f4xx_hal_rtc_ex.c ****   
 235:./Libraries/STM32F4xx_HAL_Driver/Src/stm32f4xx_hal_rtc_ex.c ****   /* Disable the write protection for RTC registers */
 236:./Libraries/STM32F4xx_HAL_Driver/Src/stm32f4xx_hal_rtc_ex.c ****   __HAL_RTC_WRITEPROTECTION_DISABLE(hrtc);
 222              		.loc 1 236 3 discriminator 2
 223 0040 FB68     		ldr	r3, [r7, #12]
ARM GAS  /tmp/cckIUkG9.s 			page 9


 224 0042 1B68     		ldr	r3, [r3]
 225 0044 CA22     		movs	r2, #202
 226 0046 5A62     		str	r2, [r3, #36]
 227 0048 FB68     		ldr	r3, [r7, #12]
 228 004a 1B68     		ldr	r3, [r3]
 229 004c 5322     		movs	r2, #83
 230 004e 5A62     		str	r2, [r3, #36]
 237:./Libraries/STM32F4xx_HAL_Driver/Src/stm32f4xx_hal_rtc_ex.c ****   
 238:./Libraries/STM32F4xx_HAL_Driver/Src/stm32f4xx_hal_rtc_ex.c ****   /* Configure the Time Stamp TSEDGE and Enable bits */
 239:./Libraries/STM32F4xx_HAL_Driver/Src/stm32f4xx_hal_rtc_ex.c ****   hrtc->Instance->CR = (uint32_t)tmpreg;
 231              		.loc 1 239 7 discriminator 2
 232 0050 FB68     		ldr	r3, [r7, #12]
 233 0052 1B68     		ldr	r3, [r3]
 234              		.loc 1 239 22 discriminator 2
 235 0054 7A69     		ldr	r2, [r7, #20]
 236 0056 9A60     		str	r2, [r3, #8]
 240:./Libraries/STM32F4xx_HAL_Driver/Src/stm32f4xx_hal_rtc_ex.c ****   
 241:./Libraries/STM32F4xx_HAL_Driver/Src/stm32f4xx_hal_rtc_ex.c ****   hrtc->Instance->TAFCR &= (uint32_t)~RTC_TAFCR_TSINSEL;
 237              		.loc 1 241 7 discriminator 2
 238 0058 FB68     		ldr	r3, [r7, #12]
 239 005a 1B68     		ldr	r3, [r3]
 240              		.loc 1 241 25 discriminator 2
 241 005c 1A6C     		ldr	r2, [r3, #64]
 242              		.loc 1 241 7 discriminator 2
 243 005e FB68     		ldr	r3, [r7, #12]
 244 0060 1B68     		ldr	r3, [r3]
 245              		.loc 1 241 25 discriminator 2
 246 0062 22F40032 		bic	r2, r2, #131072
 247 0066 1A64     		str	r2, [r3, #64]
 242:./Libraries/STM32F4xx_HAL_Driver/Src/stm32f4xx_hal_rtc_ex.c ****   hrtc->Instance->TAFCR |= (uint32_t)(RTC_TimeStampPin); 
 248              		.loc 1 242 7 discriminator 2
 249 0068 FB68     		ldr	r3, [r7, #12]
 250 006a 1B68     		ldr	r3, [r3]
 251              		.loc 1 242 25 discriminator 2
 252 006c 196C     		ldr	r1, [r3, #64]
 253              		.loc 1 242 7 discriminator 2
 254 006e FB68     		ldr	r3, [r7, #12]
 255 0070 1B68     		ldr	r3, [r3]
 256              		.loc 1 242 25 discriminator 2
 257 0072 7A68     		ldr	r2, [r7, #4]
 258 0074 0A43     		orrs	r2, r2, r1
 259 0076 1A64     		str	r2, [r3, #64]
 243:./Libraries/STM32F4xx_HAL_Driver/Src/stm32f4xx_hal_rtc_ex.c **** 
 244:./Libraries/STM32F4xx_HAL_Driver/Src/stm32f4xx_hal_rtc_ex.c ****   /* Clear RTC Timestamp flag */
 245:./Libraries/STM32F4xx_HAL_Driver/Src/stm32f4xx_hal_rtc_ex.c ****   __HAL_RTC_TIMESTAMP_CLEAR_FLAG(hrtc, RTC_FLAG_TSF);
 260              		.loc 1 245 3 discriminator 2
 261 0078 FB68     		ldr	r3, [r7, #12]
 262 007a 1B68     		ldr	r3, [r3]
 263 007c DB68     		ldr	r3, [r3, #12]
 264 007e DAB2     		uxtb	r2, r3
 265 0080 FB68     		ldr	r3, [r7, #12]
 266 0082 1B68     		ldr	r3, [r3]
 267 0084 62F40862 		orn	r2, r2, #2176
 268 0088 DA60     		str	r2, [r3, #12]
 246:./Libraries/STM32F4xx_HAL_Driver/Src/stm32f4xx_hal_rtc_ex.c **** 
 247:./Libraries/STM32F4xx_HAL_Driver/Src/stm32f4xx_hal_rtc_ex.c ****   __HAL_RTC_TIMESTAMP_ENABLE(hrtc);
 269              		.loc 1 247 3 discriminator 2
ARM GAS  /tmp/cckIUkG9.s 			page 10


 270 008a FB68     		ldr	r3, [r7, #12]
 271 008c 1B68     		ldr	r3, [r3]
 272 008e 9A68     		ldr	r2, [r3, #8]
 273 0090 FB68     		ldr	r3, [r7, #12]
 274 0092 1B68     		ldr	r3, [r3]
 275 0094 42F40062 		orr	r2, r2, #2048
 276 0098 9A60     		str	r2, [r3, #8]
 248:./Libraries/STM32F4xx_HAL_Driver/Src/stm32f4xx_hal_rtc_ex.c ****   
 249:./Libraries/STM32F4xx_HAL_Driver/Src/stm32f4xx_hal_rtc_ex.c ****   /* Enable IT timestamp */ 
 250:./Libraries/STM32F4xx_HAL_Driver/Src/stm32f4xx_hal_rtc_ex.c ****   __HAL_RTC_TIMESTAMP_ENABLE_IT(hrtc,RTC_IT_TS);
 277              		.loc 1 250 3 discriminator 2
 278 009a FB68     		ldr	r3, [r7, #12]
 279 009c 1B68     		ldr	r3, [r3]
 280 009e 9A68     		ldr	r2, [r3, #8]
 281 00a0 FB68     		ldr	r3, [r7, #12]
 282 00a2 1B68     		ldr	r3, [r3]
 283 00a4 42F40042 		orr	r2, r2, #32768
 284 00a8 9A60     		str	r2, [r3, #8]
 251:./Libraries/STM32F4xx_HAL_Driver/Src/stm32f4xx_hal_rtc_ex.c ****   
 252:./Libraries/STM32F4xx_HAL_Driver/Src/stm32f4xx_hal_rtc_ex.c ****   /* RTC timestamp Interrupt Configuration: EXTI configuration */
 253:./Libraries/STM32F4xx_HAL_Driver/Src/stm32f4xx_hal_rtc_ex.c ****   __HAL_RTC_TAMPER_TIMESTAMP_EXTI_ENABLE_IT();
 285              		.loc 1 253 3 discriminator 2
 286 00aa 0E4B     		ldr	r3, .L7
 287 00ac 1B68     		ldr	r3, [r3]
 288 00ae 0D4A     		ldr	r2, .L7
 289 00b0 43F40013 		orr	r3, r3, #2097152
 290 00b4 1360     		str	r3, [r2]
 254:./Libraries/STM32F4xx_HAL_Driver/Src/stm32f4xx_hal_rtc_ex.c ****   
 255:./Libraries/STM32F4xx_HAL_Driver/Src/stm32f4xx_hal_rtc_ex.c ****   EXTI->RTSR |= RTC_EXTI_LINE_TAMPER_TIMESTAMP_EVENT;
 291              		.loc 1 255 14 discriminator 2
 292 00b6 0B4B     		ldr	r3, .L7
 293 00b8 9B68     		ldr	r3, [r3, #8]
 294 00ba 0A4A     		ldr	r2, .L7
 295 00bc 43F40013 		orr	r3, r3, #2097152
 296 00c0 9360     		str	r3, [r2, #8]
 256:./Libraries/STM32F4xx_HAL_Driver/Src/stm32f4xx_hal_rtc_ex.c ****   
 257:./Libraries/STM32F4xx_HAL_Driver/Src/stm32f4xx_hal_rtc_ex.c ****   /* Enable the write protection for RTC registers */
 258:./Libraries/STM32F4xx_HAL_Driver/Src/stm32f4xx_hal_rtc_ex.c ****   __HAL_RTC_WRITEPROTECTION_ENABLE(hrtc);  
 297              		.loc 1 258 3 discriminator 2
 298 00c2 FB68     		ldr	r3, [r7, #12]
 299 00c4 1B68     		ldr	r3, [r3]
 300 00c6 FF22     		movs	r2, #255
 301 00c8 5A62     		str	r2, [r3, #36]
 259:./Libraries/STM32F4xx_HAL_Driver/Src/stm32f4xx_hal_rtc_ex.c ****   
 260:./Libraries/STM32F4xx_HAL_Driver/Src/stm32f4xx_hal_rtc_ex.c ****   hrtc->State = HAL_RTC_STATE_READY;  
 302              		.loc 1 260 15 discriminator 2
 303 00ca FB68     		ldr	r3, [r7, #12]
 304 00cc 0122     		movs	r2, #1
 305 00ce 5A77     		strb	r2, [r3, #29]
 261:./Libraries/STM32F4xx_HAL_Driver/Src/stm32f4xx_hal_rtc_ex.c ****   
 262:./Libraries/STM32F4xx_HAL_Driver/Src/stm32f4xx_hal_rtc_ex.c ****   /* Process Unlocked */ 
 263:./Libraries/STM32F4xx_HAL_Driver/Src/stm32f4xx_hal_rtc_ex.c ****   __HAL_UNLOCK(hrtc);
 306              		.loc 1 263 3 discriminator 2
 307 00d0 FB68     		ldr	r3, [r7, #12]
 308 00d2 0022     		movs	r2, #0
 309 00d4 1A77     		strb	r2, [r3, #28]
 264:./Libraries/STM32F4xx_HAL_Driver/Src/stm32f4xx_hal_rtc_ex.c ****   
ARM GAS  /tmp/cckIUkG9.s 			page 11


 265:./Libraries/STM32F4xx_HAL_Driver/Src/stm32f4xx_hal_rtc_ex.c ****   return HAL_OK;
 310              		.loc 1 265 10 discriminator 2
 311 00d6 0023     		movs	r3, #0
 312              	.L6:
 266:./Libraries/STM32F4xx_HAL_Driver/Src/stm32f4xx_hal_rtc_ex.c **** }
 313              		.loc 1 266 1
 314 00d8 1846     		mov	r0, r3
 315 00da 1C37     		adds	r7, r7, #28
 316              	.LCFI9:
 317              		.cfi_def_cfa_offset 4
 318 00dc BD46     		mov	sp, r7
 319              	.LCFI10:
 320              		.cfi_def_cfa_register 13
 321              		@ sp needed
 322 00de 5DF8047B 		ldr	r7, [sp], #4
 323              	.LCFI11:
 324              		.cfi_restore 7
 325              		.cfi_def_cfa_offset 0
 326 00e2 7047     		bx	lr
 327              	.L8:
 328              		.align	2
 329              	.L7:
 330 00e4 003C0140 		.word	1073822720
 331              		.cfi_endproc
 332              	.LFE127:
 334              		.section	.text.HAL_RTCEx_DeactivateTimeStamp,"ax",%progbits
 335              		.align	1
 336              		.global	HAL_RTCEx_DeactivateTimeStamp
 337              		.syntax unified
 338              		.thumb
 339              		.thumb_func
 340              		.fpu fpv4-sp-d16
 342              	HAL_RTCEx_DeactivateTimeStamp:
 343              	.LFB128:
 267:./Libraries/STM32F4xx_HAL_Driver/Src/stm32f4xx_hal_rtc_ex.c **** 
 268:./Libraries/STM32F4xx_HAL_Driver/Src/stm32f4xx_hal_rtc_ex.c **** /**
 269:./Libraries/STM32F4xx_HAL_Driver/Src/stm32f4xx_hal_rtc_ex.c ****   * @brief  Deactivates TimeStamp. 
 270:./Libraries/STM32F4xx_HAL_Driver/Src/stm32f4xx_hal_rtc_ex.c ****   * @param  hrtc pointer to a RTC_HandleTypeDef structure that contains
 271:./Libraries/STM32F4xx_HAL_Driver/Src/stm32f4xx_hal_rtc_ex.c ****   *                the configuration information for RTC.
 272:./Libraries/STM32F4xx_HAL_Driver/Src/stm32f4xx_hal_rtc_ex.c ****   * @retval HAL status
 273:./Libraries/STM32F4xx_HAL_Driver/Src/stm32f4xx_hal_rtc_ex.c ****   */
 274:./Libraries/STM32F4xx_HAL_Driver/Src/stm32f4xx_hal_rtc_ex.c **** HAL_StatusTypeDef HAL_RTCEx_DeactivateTimeStamp(RTC_HandleTypeDef *hrtc)
 275:./Libraries/STM32F4xx_HAL_Driver/Src/stm32f4xx_hal_rtc_ex.c **** {
 344              		.loc 1 275 1
 345              		.cfi_startproc
 346              		@ args = 0, pretend = 0, frame = 16
 347              		@ frame_needed = 1, uses_anonymous_args = 0
 348              		@ link register save eliminated.
 349 0000 80B4     		push	{r7}
 350              	.LCFI12:
 351              		.cfi_def_cfa_offset 4
 352              		.cfi_offset 7, -4
 353 0002 85B0     		sub	sp, sp, #20
 354              	.LCFI13:
 355              		.cfi_def_cfa_offset 24
 356 0004 00AF     		add	r7, sp, #0
 357              	.LCFI14:
ARM GAS  /tmp/cckIUkG9.s 			page 12


 358              		.cfi_def_cfa_register 7
 359 0006 7860     		str	r0, [r7, #4]
 276:./Libraries/STM32F4xx_HAL_Driver/Src/stm32f4xx_hal_rtc_ex.c ****   uint32_t tmpreg = 0U;
 360              		.loc 1 276 12
 361 0008 0023     		movs	r3, #0
 362 000a FB60     		str	r3, [r7, #12]
 277:./Libraries/STM32F4xx_HAL_Driver/Src/stm32f4xx_hal_rtc_ex.c ****   
 278:./Libraries/STM32F4xx_HAL_Driver/Src/stm32f4xx_hal_rtc_ex.c ****   /* Process Locked */ 
 279:./Libraries/STM32F4xx_HAL_Driver/Src/stm32f4xx_hal_rtc_ex.c ****   __HAL_LOCK(hrtc);
 363              		.loc 1 279 3
 364 000c 7B68     		ldr	r3, [r7, #4]
 365 000e 1B7F     		ldrb	r3, [r3, #28]	@ zero_extendqisi2
 366 0010 012B     		cmp	r3, #1
 367 0012 01D1     		bne	.L10
 368              		.loc 1 279 3 is_stmt 0 discriminator 1
 369 0014 0223     		movs	r3, #2
 370 0016 2CE0     		b	.L11
 371              	.L10:
 372              		.loc 1 279 3 discriminator 2
 373 0018 7B68     		ldr	r3, [r7, #4]
 374 001a 0122     		movs	r2, #1
 375 001c 1A77     		strb	r2, [r3, #28]
 280:./Libraries/STM32F4xx_HAL_Driver/Src/stm32f4xx_hal_rtc_ex.c ****   
 281:./Libraries/STM32F4xx_HAL_Driver/Src/stm32f4xx_hal_rtc_ex.c ****   hrtc->State = HAL_RTC_STATE_BUSY;
 376              		.loc 1 281 15 is_stmt 1 discriminator 2
 377 001e 7B68     		ldr	r3, [r7, #4]
 378 0020 0222     		movs	r2, #2
 379 0022 5A77     		strb	r2, [r3, #29]
 282:./Libraries/STM32F4xx_HAL_Driver/Src/stm32f4xx_hal_rtc_ex.c ****   
 283:./Libraries/STM32F4xx_HAL_Driver/Src/stm32f4xx_hal_rtc_ex.c ****   /* Disable the write protection for RTC registers */
 284:./Libraries/STM32F4xx_HAL_Driver/Src/stm32f4xx_hal_rtc_ex.c ****   __HAL_RTC_WRITEPROTECTION_DISABLE(hrtc);
 380              		.loc 1 284 3 discriminator 2
 381 0024 7B68     		ldr	r3, [r7, #4]
 382 0026 1B68     		ldr	r3, [r3]
 383 0028 CA22     		movs	r2, #202
 384 002a 5A62     		str	r2, [r3, #36]
 385 002c 7B68     		ldr	r3, [r7, #4]
 386 002e 1B68     		ldr	r3, [r3]
 387 0030 5322     		movs	r2, #83
 388 0032 5A62     		str	r2, [r3, #36]
 285:./Libraries/STM32F4xx_HAL_Driver/Src/stm32f4xx_hal_rtc_ex.c ****   
 286:./Libraries/STM32F4xx_HAL_Driver/Src/stm32f4xx_hal_rtc_ex.c ****   /* In case of interrupt mode is used, the interrupt source must disabled */ 
 287:./Libraries/STM32F4xx_HAL_Driver/Src/stm32f4xx_hal_rtc_ex.c ****   __HAL_RTC_TIMESTAMP_DISABLE_IT(hrtc, RTC_IT_TS);
 389              		.loc 1 287 3 discriminator 2
 390 0034 7B68     		ldr	r3, [r7, #4]
 391 0036 1B68     		ldr	r3, [r3]
 392 0038 9A68     		ldr	r2, [r3, #8]
 393 003a 7B68     		ldr	r3, [r7, #4]
 394 003c 1B68     		ldr	r3, [r3]
 395 003e 22F40042 		bic	r2, r2, #32768
 396 0042 9A60     		str	r2, [r3, #8]
 288:./Libraries/STM32F4xx_HAL_Driver/Src/stm32f4xx_hal_rtc_ex.c ****   
 289:./Libraries/STM32F4xx_HAL_Driver/Src/stm32f4xx_hal_rtc_ex.c ****   /* Get the RTC_CR register and clear the bits to be configured */
 290:./Libraries/STM32F4xx_HAL_Driver/Src/stm32f4xx_hal_rtc_ex.c ****   tmpreg = (uint32_t)(hrtc->Instance->CR & (uint32_t)~(RTC_CR_TSEDGE | RTC_CR_TSE));
 397              		.loc 1 290 27 discriminator 2
 398 0044 7B68     		ldr	r3, [r7, #4]
 399 0046 1B68     		ldr	r3, [r3]
ARM GAS  /tmp/cckIUkG9.s 			page 13


 400              		.loc 1 290 37 discriminator 2
 401 0048 9B68     		ldr	r3, [r3, #8]
 402              		.loc 1 290 10 discriminator 2
 403 004a 23F40063 		bic	r3, r3, #2048
 404 004e 23F00803 		bic	r3, r3, #8
 405 0052 FB60     		str	r3, [r7, #12]
 291:./Libraries/STM32F4xx_HAL_Driver/Src/stm32f4xx_hal_rtc_ex.c ****   
 292:./Libraries/STM32F4xx_HAL_Driver/Src/stm32f4xx_hal_rtc_ex.c ****   /* Configure the Time Stamp TSEDGE and Enable bits */
 293:./Libraries/STM32F4xx_HAL_Driver/Src/stm32f4xx_hal_rtc_ex.c ****   hrtc->Instance->CR = (uint32_t)tmpreg;
 406              		.loc 1 293 7 discriminator 2
 407 0054 7B68     		ldr	r3, [r7, #4]
 408 0056 1B68     		ldr	r3, [r3]
 409              		.loc 1 293 22 discriminator 2
 410 0058 FA68     		ldr	r2, [r7, #12]
 411 005a 9A60     		str	r2, [r3, #8]
 294:./Libraries/STM32F4xx_HAL_Driver/Src/stm32f4xx_hal_rtc_ex.c ****   
 295:./Libraries/STM32F4xx_HAL_Driver/Src/stm32f4xx_hal_rtc_ex.c ****   /* Enable the write protection for RTC registers */
 296:./Libraries/STM32F4xx_HAL_Driver/Src/stm32f4xx_hal_rtc_ex.c ****   __HAL_RTC_WRITEPROTECTION_ENABLE(hrtc);
 412              		.loc 1 296 3 discriminator 2
 413 005c 7B68     		ldr	r3, [r7, #4]
 414 005e 1B68     		ldr	r3, [r3]
 415 0060 FF22     		movs	r2, #255
 416 0062 5A62     		str	r2, [r3, #36]
 297:./Libraries/STM32F4xx_HAL_Driver/Src/stm32f4xx_hal_rtc_ex.c ****  
 298:./Libraries/STM32F4xx_HAL_Driver/Src/stm32f4xx_hal_rtc_ex.c ****   hrtc->State = HAL_RTC_STATE_READY;  
 417              		.loc 1 298 15 discriminator 2
 418 0064 7B68     		ldr	r3, [r7, #4]
 419 0066 0122     		movs	r2, #1
 420 0068 5A77     		strb	r2, [r3, #29]
 299:./Libraries/STM32F4xx_HAL_Driver/Src/stm32f4xx_hal_rtc_ex.c ****   
 300:./Libraries/STM32F4xx_HAL_Driver/Src/stm32f4xx_hal_rtc_ex.c ****   /* Process Unlocked */ 
 301:./Libraries/STM32F4xx_HAL_Driver/Src/stm32f4xx_hal_rtc_ex.c ****   __HAL_UNLOCK(hrtc);
 421              		.loc 1 301 3 discriminator 2
 422 006a 7B68     		ldr	r3, [r7, #4]
 423 006c 0022     		movs	r2, #0
 424 006e 1A77     		strb	r2, [r3, #28]
 302:./Libraries/STM32F4xx_HAL_Driver/Src/stm32f4xx_hal_rtc_ex.c ****   
 303:./Libraries/STM32F4xx_HAL_Driver/Src/stm32f4xx_hal_rtc_ex.c ****   return HAL_OK;
 425              		.loc 1 303 10 discriminator 2
 426 0070 0023     		movs	r3, #0
 427              	.L11:
 304:./Libraries/STM32F4xx_HAL_Driver/Src/stm32f4xx_hal_rtc_ex.c **** }
 428              		.loc 1 304 1
 429 0072 1846     		mov	r0, r3
 430 0074 1437     		adds	r7, r7, #20
 431              	.LCFI15:
 432              		.cfi_def_cfa_offset 4
 433 0076 BD46     		mov	sp, r7
 434              	.LCFI16:
 435              		.cfi_def_cfa_register 13
 436              		@ sp needed
 437 0078 5DF8047B 		ldr	r7, [sp], #4
 438              	.LCFI17:
 439              		.cfi_restore 7
 440              		.cfi_def_cfa_offset 0
 441 007c 7047     		bx	lr
 442              		.cfi_endproc
ARM GAS  /tmp/cckIUkG9.s 			page 14


 443              	.LFE128:
 445              		.section	.text.HAL_RTCEx_GetTimeStamp,"ax",%progbits
 446              		.align	1
 447              		.global	HAL_RTCEx_GetTimeStamp
 448              		.syntax unified
 449              		.thumb
 450              		.thumb_func
 451              		.fpu fpv4-sp-d16
 453              	HAL_RTCEx_GetTimeStamp:
 454              	.LFB129:
 305:./Libraries/STM32F4xx_HAL_Driver/Src/stm32f4xx_hal_rtc_ex.c **** 
 306:./Libraries/STM32F4xx_HAL_Driver/Src/stm32f4xx_hal_rtc_ex.c **** /**
 307:./Libraries/STM32F4xx_HAL_Driver/Src/stm32f4xx_hal_rtc_ex.c ****   * @brief  Gets the RTC TimeStamp value.
 308:./Libraries/STM32F4xx_HAL_Driver/Src/stm32f4xx_hal_rtc_ex.c ****   * @param  hrtc pointer to a RTC_HandleTypeDef structure that contains
 309:./Libraries/STM32F4xx_HAL_Driver/Src/stm32f4xx_hal_rtc_ex.c ****   *                the configuration information for RTC.
 310:./Libraries/STM32F4xx_HAL_Driver/Src/stm32f4xx_hal_rtc_ex.c ****   * @param  sTimeStamp Pointer to Time structure
 311:./Libraries/STM32F4xx_HAL_Driver/Src/stm32f4xx_hal_rtc_ex.c ****   * @param  sTimeStampDate Pointer to Date structure  
 312:./Libraries/STM32F4xx_HAL_Driver/Src/stm32f4xx_hal_rtc_ex.c ****   * @param  Format specifies the format of the entered parameters.
 313:./Libraries/STM32F4xx_HAL_Driver/Src/stm32f4xx_hal_rtc_ex.c ****   *          This parameter can be one of the following values:
 314:./Libraries/STM32F4xx_HAL_Driver/Src/stm32f4xx_hal_rtc_ex.c ****   *             RTC_FORMAT_BIN: Binary data format 
 315:./Libraries/STM32F4xx_HAL_Driver/Src/stm32f4xx_hal_rtc_ex.c ****   *             RTC_FORMAT_BCD: BCD data format
 316:./Libraries/STM32F4xx_HAL_Driver/Src/stm32f4xx_hal_rtc_ex.c ****   * @retval HAL status
 317:./Libraries/STM32F4xx_HAL_Driver/Src/stm32f4xx_hal_rtc_ex.c ****   */
 318:./Libraries/STM32F4xx_HAL_Driver/Src/stm32f4xx_hal_rtc_ex.c **** HAL_StatusTypeDef HAL_RTCEx_GetTimeStamp(RTC_HandleTypeDef *hrtc, RTC_TimeTypeDef* sTimeStamp, RTC_
 319:./Libraries/STM32F4xx_HAL_Driver/Src/stm32f4xx_hal_rtc_ex.c **** {
 455              		.loc 1 319 1
 456              		.cfi_startproc
 457              		@ args = 0, pretend = 0, frame = 24
 458              		@ frame_needed = 1, uses_anonymous_args = 0
 459 0000 80B5     		push	{r7, lr}
 460              	.LCFI18:
 461              		.cfi_def_cfa_offset 8
 462              		.cfi_offset 7, -8
 463              		.cfi_offset 14, -4
 464 0002 86B0     		sub	sp, sp, #24
 465              	.LCFI19:
 466              		.cfi_def_cfa_offset 32
 467 0004 00AF     		add	r7, sp, #0
 468              	.LCFI20:
 469              		.cfi_def_cfa_register 7
 470 0006 F860     		str	r0, [r7, #12]
 471 0008 B960     		str	r1, [r7, #8]
 472 000a 7A60     		str	r2, [r7, #4]
 473 000c 3B60     		str	r3, [r7]
 320:./Libraries/STM32F4xx_HAL_Driver/Src/stm32f4xx_hal_rtc_ex.c ****   uint32_t tmptime = 0U, tmpdate = 0U;
 474              		.loc 1 320 12
 475 000e 0023     		movs	r3, #0
 476 0010 7B61     		str	r3, [r7, #20]
 477              		.loc 1 320 26
 478 0012 0023     		movs	r3, #0
 479 0014 3B61     		str	r3, [r7, #16]
 321:./Libraries/STM32F4xx_HAL_Driver/Src/stm32f4xx_hal_rtc_ex.c **** 
 322:./Libraries/STM32F4xx_HAL_Driver/Src/stm32f4xx_hal_rtc_ex.c ****   /* Check the parameters */
 323:./Libraries/STM32F4xx_HAL_Driver/Src/stm32f4xx_hal_rtc_ex.c ****   assert_param(IS_RTC_FORMAT(Format));
 324:./Libraries/STM32F4xx_HAL_Driver/Src/stm32f4xx_hal_rtc_ex.c **** 
 325:./Libraries/STM32F4xx_HAL_Driver/Src/stm32f4xx_hal_rtc_ex.c ****   /* Get the TimeStamp time and date registers values */
 326:./Libraries/STM32F4xx_HAL_Driver/Src/stm32f4xx_hal_rtc_ex.c ****   tmptime = (uint32_t)(hrtc->Instance->TSTR & RTC_TR_RESERVED_MASK);
ARM GAS  /tmp/cckIUkG9.s 			page 15


 480              		.loc 1 326 28
 481 0016 FB68     		ldr	r3, [r7, #12]
 482 0018 1B68     		ldr	r3, [r3]
 483              		.loc 1 326 38
 484 001a 1B6B     		ldr	r3, [r3, #48]
 485              		.loc 1 326 11
 486 001c 03F07F33 		and	r3, r3, #2139062143
 487 0020 23F0FE43 		bic	r3, r3, #2130706432
 488 0024 7B61     		str	r3, [r7, #20]
 327:./Libraries/STM32F4xx_HAL_Driver/Src/stm32f4xx_hal_rtc_ex.c ****   tmpdate = (uint32_t)(hrtc->Instance->TSDR & RTC_DR_RESERVED_MASK);
 489              		.loc 1 327 28
 490 0026 FB68     		ldr	r3, [r7, #12]
 491 0028 1B68     		ldr	r3, [r3]
 492              		.loc 1 327 38
 493 002a 5B6B     		ldr	r3, [r3, #52]
 494              		.loc 1 327 11
 495 002c 23F07F43 		bic	r3, r3, #-16777216
 496 0030 23F0C003 		bic	r3, r3, #192
 497 0034 3B61     		str	r3, [r7, #16]
 328:./Libraries/STM32F4xx_HAL_Driver/Src/stm32f4xx_hal_rtc_ex.c **** 
 329:./Libraries/STM32F4xx_HAL_Driver/Src/stm32f4xx_hal_rtc_ex.c ****   /* Fill the Time structure fields with the read parameters */
 330:./Libraries/STM32F4xx_HAL_Driver/Src/stm32f4xx_hal_rtc_ex.c ****   sTimeStamp->Hours = (uint8_t)((tmptime & (RTC_TR_HT | RTC_TR_HU)) >> 16U);
 498              		.loc 1 330 69
 499 0036 7B69     		ldr	r3, [r7, #20]
 500 0038 1B0C     		lsrs	r3, r3, #16
 501              		.loc 1 330 23
 502 003a DBB2     		uxtb	r3, r3
 503 003c 03F03F03 		and	r3, r3, #63
 504 0040 DAB2     		uxtb	r2, r3
 505              		.loc 1 330 21
 506 0042 BB68     		ldr	r3, [r7, #8]
 507 0044 1A70     		strb	r2, [r3]
 331:./Libraries/STM32F4xx_HAL_Driver/Src/stm32f4xx_hal_rtc_ex.c ****   sTimeStamp->Minutes = (uint8_t)((tmptime & (RTC_TR_MNT | RTC_TR_MNU)) >> 8U);
 508              		.loc 1 331 73
 509 0046 7B69     		ldr	r3, [r7, #20]
 510 0048 1B0A     		lsrs	r3, r3, #8
 511              		.loc 1 331 25
 512 004a DBB2     		uxtb	r3, r3
 513 004c 03F07F03 		and	r3, r3, #127
 514 0050 DAB2     		uxtb	r2, r3
 515              		.loc 1 331 23
 516 0052 BB68     		ldr	r3, [r7, #8]
 517 0054 5A70     		strb	r2, [r3, #1]
 332:./Libraries/STM32F4xx_HAL_Driver/Src/stm32f4xx_hal_rtc_ex.c ****   sTimeStamp->Seconds = (uint8_t)(tmptime & (RTC_TR_ST | RTC_TR_SU));
 518              		.loc 1 332 25
 519 0056 7B69     		ldr	r3, [r7, #20]
 520 0058 DBB2     		uxtb	r3, r3
 521 005a 03F07F03 		and	r3, r3, #127
 522 005e DAB2     		uxtb	r2, r3
 523              		.loc 1 332 23
 524 0060 BB68     		ldr	r3, [r7, #8]
 525 0062 9A70     		strb	r2, [r3, #2]
 333:./Libraries/STM32F4xx_HAL_Driver/Src/stm32f4xx_hal_rtc_ex.c ****   sTimeStamp->TimeFormat = (uint8_t)((tmptime & (RTC_TR_PM)) >> 16U);  
 526              		.loc 1 333 62
 527 0064 7B69     		ldr	r3, [r7, #20]
 528 0066 1B0C     		lsrs	r3, r3, #16
 529              		.loc 1 333 28
ARM GAS  /tmp/cckIUkG9.s 			page 16


 530 0068 DBB2     		uxtb	r3, r3
 531 006a 03F04003 		and	r3, r3, #64
 532 006e DAB2     		uxtb	r2, r3
 533              		.loc 1 333 26
 534 0070 BB68     		ldr	r3, [r7, #8]
 535 0072 DA70     		strb	r2, [r3, #3]
 334:./Libraries/STM32F4xx_HAL_Driver/Src/stm32f4xx_hal_rtc_ex.c ****   sTimeStamp->SubSeconds = (uint32_t) hrtc->Instance->TSSSR;
 536              		.loc 1 334 43
 537 0074 FB68     		ldr	r3, [r7, #12]
 538 0076 1B68     		ldr	r3, [r3]
 539              		.loc 1 334 53
 540 0078 9A6B     		ldr	r2, [r3, #56]
 541              		.loc 1 334 26
 542 007a BB68     		ldr	r3, [r7, #8]
 543 007c 5A60     		str	r2, [r3, #4]
 335:./Libraries/STM32F4xx_HAL_Driver/Src/stm32f4xx_hal_rtc_ex.c ****   
 336:./Libraries/STM32F4xx_HAL_Driver/Src/stm32f4xx_hal_rtc_ex.c ****   /* Fill the Date structure fields with the read parameters */
 337:./Libraries/STM32F4xx_HAL_Driver/Src/stm32f4xx_hal_rtc_ex.c ****   sTimeStampDate->Year = 0U;
 544              		.loc 1 337 24
 545 007e 7B68     		ldr	r3, [r7, #4]
 546 0080 0022     		movs	r2, #0
 547 0082 DA70     		strb	r2, [r3, #3]
 338:./Libraries/STM32F4xx_HAL_Driver/Src/stm32f4xx_hal_rtc_ex.c ****   sTimeStampDate->Month = (uint8_t)((tmpdate & (RTC_DR_MT | RTC_DR_MU)) >> 8U);
 548              		.loc 1 338 73
 549 0084 3B69     		ldr	r3, [r7, #16]
 550 0086 1B0A     		lsrs	r3, r3, #8
 551              		.loc 1 338 27
 552 0088 DBB2     		uxtb	r3, r3
 553 008a 03F01F03 		and	r3, r3, #31
 554 008e DAB2     		uxtb	r2, r3
 555              		.loc 1 338 25
 556 0090 7B68     		ldr	r3, [r7, #4]
 557 0092 5A70     		strb	r2, [r3, #1]
 339:./Libraries/STM32F4xx_HAL_Driver/Src/stm32f4xx_hal_rtc_ex.c ****   sTimeStampDate->Date = (uint8_t)(tmpdate & (RTC_DR_DT | RTC_DR_DU));
 558              		.loc 1 339 26
 559 0094 3B69     		ldr	r3, [r7, #16]
 560 0096 DBB2     		uxtb	r3, r3
 561 0098 03F03F03 		and	r3, r3, #63
 562 009c DAB2     		uxtb	r2, r3
 563              		.loc 1 339 24
 564 009e 7B68     		ldr	r3, [r7, #4]
 565 00a0 9A70     		strb	r2, [r3, #2]
 340:./Libraries/STM32F4xx_HAL_Driver/Src/stm32f4xx_hal_rtc_ex.c ****   sTimeStampDate->WeekDay = (uint8_t)((tmpdate & (RTC_DR_WDU)) >> 13U);
 566              		.loc 1 340 64
 567 00a2 3B69     		ldr	r3, [r7, #16]
 568 00a4 5B0B     		lsrs	r3, r3, #13
 569              		.loc 1 340 29
 570 00a6 DBB2     		uxtb	r3, r3
 571 00a8 03F00703 		and	r3, r3, #7
 572 00ac DAB2     		uxtb	r2, r3
 573              		.loc 1 340 27
 574 00ae 7B68     		ldr	r3, [r7, #4]
 575 00b0 1A70     		strb	r2, [r3]
 341:./Libraries/STM32F4xx_HAL_Driver/Src/stm32f4xx_hal_rtc_ex.c **** 
 342:./Libraries/STM32F4xx_HAL_Driver/Src/stm32f4xx_hal_rtc_ex.c ****   /* Check the input parameters format */
 343:./Libraries/STM32F4xx_HAL_Driver/Src/stm32f4xx_hal_rtc_ex.c ****   if(Format == RTC_FORMAT_BIN)
 576              		.loc 1 343 5
ARM GAS  /tmp/cckIUkG9.s 			page 17


 577 00b2 3B68     		ldr	r3, [r7]
 578 00b4 002B     		cmp	r3, #0
 579 00b6 35D1     		bne	.L13
 344:./Libraries/STM32F4xx_HAL_Driver/Src/stm32f4xx_hal_rtc_ex.c ****   {
 345:./Libraries/STM32F4xx_HAL_Driver/Src/stm32f4xx_hal_rtc_ex.c ****     /* Convert the TimeStamp structure parameters to Binary format */
 346:./Libraries/STM32F4xx_HAL_Driver/Src/stm32f4xx_hal_rtc_ex.c ****     sTimeStamp->Hours = (uint8_t)RTC_Bcd2ToByte(sTimeStamp->Hours);
 580              		.loc 1 346 34
 581 00b8 BB68     		ldr	r3, [r7, #8]
 582 00ba 1B78     		ldrb	r3, [r3]	@ zero_extendqisi2
 583 00bc 1846     		mov	r0, r3
 584 00be FFF7FEFF 		bl	RTC_Bcd2ToByte
 585 00c2 0346     		mov	r3, r0
 586 00c4 1A46     		mov	r2, r3
 587              		.loc 1 346 23
 588 00c6 BB68     		ldr	r3, [r7, #8]
 589 00c8 1A70     		strb	r2, [r3]
 347:./Libraries/STM32F4xx_HAL_Driver/Src/stm32f4xx_hal_rtc_ex.c ****     sTimeStamp->Minutes = (uint8_t)RTC_Bcd2ToByte(sTimeStamp->Minutes);
 590              		.loc 1 347 36
 591 00ca BB68     		ldr	r3, [r7, #8]
 592 00cc 5B78     		ldrb	r3, [r3, #1]	@ zero_extendqisi2
 593 00ce 1846     		mov	r0, r3
 594 00d0 FFF7FEFF 		bl	RTC_Bcd2ToByte
 595 00d4 0346     		mov	r3, r0
 596 00d6 1A46     		mov	r2, r3
 597              		.loc 1 347 25
 598 00d8 BB68     		ldr	r3, [r7, #8]
 599 00da 5A70     		strb	r2, [r3, #1]
 348:./Libraries/STM32F4xx_HAL_Driver/Src/stm32f4xx_hal_rtc_ex.c ****     sTimeStamp->Seconds = (uint8_t)RTC_Bcd2ToByte(sTimeStamp->Seconds);
 600              		.loc 1 348 36
 601 00dc BB68     		ldr	r3, [r7, #8]
 602 00de 9B78     		ldrb	r3, [r3, #2]	@ zero_extendqisi2
 603 00e0 1846     		mov	r0, r3
 604 00e2 FFF7FEFF 		bl	RTC_Bcd2ToByte
 605 00e6 0346     		mov	r3, r0
 606 00e8 1A46     		mov	r2, r3
 607              		.loc 1 348 25
 608 00ea BB68     		ldr	r3, [r7, #8]
 609 00ec 9A70     		strb	r2, [r3, #2]
 349:./Libraries/STM32F4xx_HAL_Driver/Src/stm32f4xx_hal_rtc_ex.c ****     
 350:./Libraries/STM32F4xx_HAL_Driver/Src/stm32f4xx_hal_rtc_ex.c ****     /* Convert the DateTimeStamp structure parameters to Binary format */
 351:./Libraries/STM32F4xx_HAL_Driver/Src/stm32f4xx_hal_rtc_ex.c ****     sTimeStampDate->Month = (uint8_t)RTC_Bcd2ToByte(sTimeStampDate->Month);
 610              		.loc 1 351 38
 611 00ee 7B68     		ldr	r3, [r7, #4]
 612 00f0 5B78     		ldrb	r3, [r3, #1]	@ zero_extendqisi2
 613 00f2 1846     		mov	r0, r3
 614 00f4 FFF7FEFF 		bl	RTC_Bcd2ToByte
 615 00f8 0346     		mov	r3, r0
 616 00fa 1A46     		mov	r2, r3
 617              		.loc 1 351 27
 618 00fc 7B68     		ldr	r3, [r7, #4]
 619 00fe 5A70     		strb	r2, [r3, #1]
 352:./Libraries/STM32F4xx_HAL_Driver/Src/stm32f4xx_hal_rtc_ex.c ****     sTimeStampDate->Date = (uint8_t)RTC_Bcd2ToByte(sTimeStampDate->Date);
 620              		.loc 1 352 37
 621 0100 7B68     		ldr	r3, [r7, #4]
 622 0102 9B78     		ldrb	r3, [r3, #2]	@ zero_extendqisi2
 623 0104 1846     		mov	r0, r3
 624 0106 FFF7FEFF 		bl	RTC_Bcd2ToByte
ARM GAS  /tmp/cckIUkG9.s 			page 18


 625 010a 0346     		mov	r3, r0
 626 010c 1A46     		mov	r2, r3
 627              		.loc 1 352 26
 628 010e 7B68     		ldr	r3, [r7, #4]
 629 0110 9A70     		strb	r2, [r3, #2]
 353:./Libraries/STM32F4xx_HAL_Driver/Src/stm32f4xx_hal_rtc_ex.c ****     sTimeStampDate->WeekDay = (uint8_t)RTC_Bcd2ToByte(sTimeStampDate->WeekDay);
 630              		.loc 1 353 40
 631 0112 7B68     		ldr	r3, [r7, #4]
 632 0114 1B78     		ldrb	r3, [r3]	@ zero_extendqisi2
 633 0116 1846     		mov	r0, r3
 634 0118 FFF7FEFF 		bl	RTC_Bcd2ToByte
 635 011c 0346     		mov	r3, r0
 636 011e 1A46     		mov	r2, r3
 637              		.loc 1 353 29
 638 0120 7B68     		ldr	r3, [r7, #4]
 639 0122 1A70     		strb	r2, [r3]
 640              	.L13:
 354:./Libraries/STM32F4xx_HAL_Driver/Src/stm32f4xx_hal_rtc_ex.c ****   }
 355:./Libraries/STM32F4xx_HAL_Driver/Src/stm32f4xx_hal_rtc_ex.c ****   
 356:./Libraries/STM32F4xx_HAL_Driver/Src/stm32f4xx_hal_rtc_ex.c ****   /* Clear the TIMESTAMP Flag */
 357:./Libraries/STM32F4xx_HAL_Driver/Src/stm32f4xx_hal_rtc_ex.c ****   __HAL_RTC_TIMESTAMP_CLEAR_FLAG(hrtc, RTC_FLAG_TSF);
 641              		.loc 1 357 3
 642 0124 FB68     		ldr	r3, [r7, #12]
 643 0126 1B68     		ldr	r3, [r3]
 644 0128 DB68     		ldr	r3, [r3, #12]
 645 012a DAB2     		uxtb	r2, r3
 646 012c FB68     		ldr	r3, [r7, #12]
 647 012e 1B68     		ldr	r3, [r3]
 648 0130 62F40862 		orn	r2, r2, #2176
 649 0134 DA60     		str	r2, [r3, #12]
 358:./Libraries/STM32F4xx_HAL_Driver/Src/stm32f4xx_hal_rtc_ex.c ****     
 359:./Libraries/STM32F4xx_HAL_Driver/Src/stm32f4xx_hal_rtc_ex.c ****   return HAL_OK;
 650              		.loc 1 359 10
 651 0136 0023     		movs	r3, #0
 360:./Libraries/STM32F4xx_HAL_Driver/Src/stm32f4xx_hal_rtc_ex.c **** }
 652              		.loc 1 360 1
 653 0138 1846     		mov	r0, r3
 654 013a 1837     		adds	r7, r7, #24
 655              	.LCFI21:
 656              		.cfi_def_cfa_offset 8
 657 013c BD46     		mov	sp, r7
 658              	.LCFI22:
 659              		.cfi_def_cfa_register 13
 660              		@ sp needed
 661 013e 80BD     		pop	{r7, pc}
 662              		.cfi_endproc
 663              	.LFE129:
 665              		.section	.text.HAL_RTCEx_SetTamper,"ax",%progbits
 666              		.align	1
 667              		.global	HAL_RTCEx_SetTamper
 668              		.syntax unified
 669              		.thumb
 670              		.thumb_func
 671              		.fpu fpv4-sp-d16
 673              	HAL_RTCEx_SetTamper:
 674              	.LFB130:
 361:./Libraries/STM32F4xx_HAL_Driver/Src/stm32f4xx_hal_rtc_ex.c **** 
ARM GAS  /tmp/cckIUkG9.s 			page 19


 362:./Libraries/STM32F4xx_HAL_Driver/Src/stm32f4xx_hal_rtc_ex.c **** /**
 363:./Libraries/STM32F4xx_HAL_Driver/Src/stm32f4xx_hal_rtc_ex.c ****   * @brief  Sets Tamper
 364:./Libraries/STM32F4xx_HAL_Driver/Src/stm32f4xx_hal_rtc_ex.c ****   * @note   By calling this API we disable the tamper interrupt for all tampers. 
 365:./Libraries/STM32F4xx_HAL_Driver/Src/stm32f4xx_hal_rtc_ex.c ****   * @param  hrtc pointer to a RTC_HandleTypeDef structure that contains
 366:./Libraries/STM32F4xx_HAL_Driver/Src/stm32f4xx_hal_rtc_ex.c ****   *                the configuration information for RTC.
 367:./Libraries/STM32F4xx_HAL_Driver/Src/stm32f4xx_hal_rtc_ex.c ****   * @param  sTamper Pointer to Tamper Structure.
 368:./Libraries/STM32F4xx_HAL_Driver/Src/stm32f4xx_hal_rtc_ex.c ****   * @retval HAL status
 369:./Libraries/STM32F4xx_HAL_Driver/Src/stm32f4xx_hal_rtc_ex.c ****   */
 370:./Libraries/STM32F4xx_HAL_Driver/Src/stm32f4xx_hal_rtc_ex.c **** HAL_StatusTypeDef HAL_RTCEx_SetTamper(RTC_HandleTypeDef *hrtc, RTC_TamperTypeDef* sTamper)
 371:./Libraries/STM32F4xx_HAL_Driver/Src/stm32f4xx_hal_rtc_ex.c **** {
 675              		.loc 1 371 1
 676              		.cfi_startproc
 677              		@ args = 0, pretend = 0, frame = 16
 678              		@ frame_needed = 1, uses_anonymous_args = 0
 679              		@ link register save eliminated.
 680 0000 80B4     		push	{r7}
 681              	.LCFI23:
 682              		.cfi_def_cfa_offset 4
 683              		.cfi_offset 7, -4
 684 0002 85B0     		sub	sp, sp, #20
 685              	.LCFI24:
 686              		.cfi_def_cfa_offset 24
 687 0004 00AF     		add	r7, sp, #0
 688              	.LCFI25:
 689              		.cfi_def_cfa_register 7
 690 0006 7860     		str	r0, [r7, #4]
 691 0008 3960     		str	r1, [r7]
 372:./Libraries/STM32F4xx_HAL_Driver/Src/stm32f4xx_hal_rtc_ex.c ****   uint32_t tmpreg = 0U;
 692              		.loc 1 372 12
 693 000a 0023     		movs	r3, #0
 694 000c FB60     		str	r3, [r7, #12]
 373:./Libraries/STM32F4xx_HAL_Driver/Src/stm32f4xx_hal_rtc_ex.c ****   
 374:./Libraries/STM32F4xx_HAL_Driver/Src/stm32f4xx_hal_rtc_ex.c ****   /* Check the parameters */
 375:./Libraries/STM32F4xx_HAL_Driver/Src/stm32f4xx_hal_rtc_ex.c ****   assert_param(IS_RTC_TAMPER(sTamper->Tamper)); 
 376:./Libraries/STM32F4xx_HAL_Driver/Src/stm32f4xx_hal_rtc_ex.c ****   assert_param(IS_RTC_TAMPER_PIN(sTamper->PinSelection));
 377:./Libraries/STM32F4xx_HAL_Driver/Src/stm32f4xx_hal_rtc_ex.c ****   assert_param(IS_RTC_TAMPER_TRIGGER(sTamper->Trigger));
 378:./Libraries/STM32F4xx_HAL_Driver/Src/stm32f4xx_hal_rtc_ex.c ****   assert_param(IS_RTC_TAMPER_FILTER(sTamper->Filter));
 379:./Libraries/STM32F4xx_HAL_Driver/Src/stm32f4xx_hal_rtc_ex.c ****   assert_param(IS_RTC_TAMPER_SAMPLING_FREQ(sTamper->SamplingFrequency));         
 380:./Libraries/STM32F4xx_HAL_Driver/Src/stm32f4xx_hal_rtc_ex.c ****   assert_param(IS_RTC_TAMPER_PRECHARGE_DURATION(sTamper->PrechargeDuration));
 381:./Libraries/STM32F4xx_HAL_Driver/Src/stm32f4xx_hal_rtc_ex.c ****   assert_param(IS_RTC_TAMPER_PULLUP_STATE(sTamper->TamperPullUp));
 382:./Libraries/STM32F4xx_HAL_Driver/Src/stm32f4xx_hal_rtc_ex.c ****   assert_param(IS_RTC_TAMPER_TIMESTAMPONTAMPER_DETECTION(sTamper->TimeStampOnTamperDetection));
 383:./Libraries/STM32F4xx_HAL_Driver/Src/stm32f4xx_hal_rtc_ex.c ****  
 384:./Libraries/STM32F4xx_HAL_Driver/Src/stm32f4xx_hal_rtc_ex.c ****   /* Process Locked */ 
 385:./Libraries/STM32F4xx_HAL_Driver/Src/stm32f4xx_hal_rtc_ex.c ****   __HAL_LOCK(hrtc);
 695              		.loc 1 385 3
 696 000e 7B68     		ldr	r3, [r7, #4]
 697 0010 1B7F     		ldrb	r3, [r3, #28]	@ zero_extendqisi2
 698 0012 012B     		cmp	r3, #1
 699 0014 01D1     		bne	.L16
 700              		.loc 1 385 3 is_stmt 0 discriminator 1
 701 0016 0223     		movs	r3, #2
 702 0018 47E0     		b	.L17
 703              	.L16:
 704              		.loc 1 385 3 discriminator 2
 705 001a 7B68     		ldr	r3, [r7, #4]
 706 001c 0122     		movs	r2, #1
 707 001e 1A77     		strb	r2, [r3, #28]
ARM GAS  /tmp/cckIUkG9.s 			page 20


 386:./Libraries/STM32F4xx_HAL_Driver/Src/stm32f4xx_hal_rtc_ex.c ****     
 387:./Libraries/STM32F4xx_HAL_Driver/Src/stm32f4xx_hal_rtc_ex.c ****   hrtc->State = HAL_RTC_STATE_BUSY;
 708              		.loc 1 387 15 is_stmt 1 discriminator 2
 709 0020 7B68     		ldr	r3, [r7, #4]
 710 0022 0222     		movs	r2, #2
 711 0024 5A77     		strb	r2, [r3, #29]
 388:./Libraries/STM32F4xx_HAL_Driver/Src/stm32f4xx_hal_rtc_ex.c **** 
 389:./Libraries/STM32F4xx_HAL_Driver/Src/stm32f4xx_hal_rtc_ex.c ****   if(sTamper->Trigger != RTC_TAMPERTRIGGER_RISINGEDGE)
 712              		.loc 1 389 13 discriminator 2
 713 0026 3B68     		ldr	r3, [r7]
 714 0028 9B68     		ldr	r3, [r3, #8]
 715              		.loc 1 389 5 discriminator 2
 716 002a 002B     		cmp	r3, #0
 717 002c 04D0     		beq	.L18
 390:./Libraries/STM32F4xx_HAL_Driver/Src/stm32f4xx_hal_rtc_ex.c ****   { 
 391:./Libraries/STM32F4xx_HAL_Driver/Src/stm32f4xx_hal_rtc_ex.c ****     sTamper->Trigger = (uint32_t)(sTamper->Tamper << 1U); 
 718              		.loc 1 391 42
 719 002e 3B68     		ldr	r3, [r7]
 720 0030 1B68     		ldr	r3, [r3]
 721              		.loc 1 391 51
 722 0032 5A00     		lsls	r2, r3, #1
 723              		.loc 1 391 22
 724 0034 3B68     		ldr	r3, [r7]
 725 0036 9A60     		str	r2, [r3, #8]
 726              	.L18:
 392:./Libraries/STM32F4xx_HAL_Driver/Src/stm32f4xx_hal_rtc_ex.c ****   } 
 393:./Libraries/STM32F4xx_HAL_Driver/Src/stm32f4xx_hal_rtc_ex.c ****         
 394:./Libraries/STM32F4xx_HAL_Driver/Src/stm32f4xx_hal_rtc_ex.c ****   tmpreg = ((uint32_t)sTamper->Tamper | (uint32_t)sTamper->PinSelection | (uint32_t)sTamper->Trigge
 727              		.loc 1 394 30
 728 0038 3B68     		ldr	r3, [r7]
 729 003a 1A68     		ldr	r2, [r3]
 730              		.loc 1 394 58
 731 003c 3B68     		ldr	r3, [r7]
 732 003e 5B68     		ldr	r3, [r3, #4]
 733              		.loc 1 394 39
 734 0040 1A43     		orrs	r2, r2, r3
 735              		.loc 1 394 92
 736 0042 3B68     		ldr	r3, [r7]
 737 0044 9B68     		ldr	r3, [r3, #8]
 738              		.loc 1 394 73
 739 0046 1A43     		orrs	r2, r2, r3
 395:./Libraries/STM32F4xx_HAL_Driver/Src/stm32f4xx_hal_rtc_ex.c ****             (uint32_t)sTamper->Filter | (uint32_t)sTamper->SamplingFrequency | (uint32_t)sTamper->P
 740              		.loc 1 395 30
 741 0048 3B68     		ldr	r3, [r7]
 742 004a DB68     		ldr	r3, [r3, #12]
 394:./Libraries/STM32F4xx_HAL_Driver/Src/stm32f4xx_hal_rtc_ex.c ****             (uint32_t)sTamper->Filter | (uint32_t)sTamper->SamplingFrequency | (uint32_t)sTamper->P
 743              		.loc 1 394 103
 744 004c 1A43     		orrs	r2, r2, r3
 745              		.loc 1 395 58
 746 004e 3B68     		ldr	r3, [r7]
 747 0050 1B69     		ldr	r3, [r3, #16]
 748              		.loc 1 395 39
 749 0052 1A43     		orrs	r2, r2, r3
 750              		.loc 1 395 97
 751 0054 3B68     		ldr	r3, [r7]
 752 0056 5B69     		ldr	r3, [r3, #20]
 753              		.loc 1 395 78
ARM GAS  /tmp/cckIUkG9.s 			page 21


 754 0058 1A43     		orrs	r2, r2, r3
 396:./Libraries/STM32F4xx_HAL_Driver/Src/stm32f4xx_hal_rtc_ex.c ****             (uint32_t)sTamper->TamperPullUp | sTamper->TimeStampOnTamperDetection);
 755              		.loc 1 396 30
 756 005a 3B68     		ldr	r3, [r7]
 757 005c 9B69     		ldr	r3, [r3, #24]
 395:./Libraries/STM32F4xx_HAL_Driver/Src/stm32f4xx_hal_rtc_ex.c ****             (uint32_t)sTamper->Filter | (uint32_t)sTamper->SamplingFrequency | (uint32_t)sTamper->P
 758              		.loc 1 395 117
 759 005e 1A43     		orrs	r2, r2, r3
 760              		.loc 1 396 54
 761 0060 3B68     		ldr	r3, [r7]
 762 0062 DB69     		ldr	r3, [r3, #28]
 394:./Libraries/STM32F4xx_HAL_Driver/Src/stm32f4xx_hal_rtc_ex.c ****             (uint32_t)sTamper->Filter | (uint32_t)sTamper->SamplingFrequency | (uint32_t)sTamper->P
 763              		.loc 1 394 10
 764 0064 1343     		orrs	r3, r3, r2
 765 0066 FB60     		str	r3, [r7, #12]
 397:./Libraries/STM32F4xx_HAL_Driver/Src/stm32f4xx_hal_rtc_ex.c ****   
 398:./Libraries/STM32F4xx_HAL_Driver/Src/stm32f4xx_hal_rtc_ex.c ****   hrtc->Instance->TAFCR &= (uint32_t)~((uint32_t)sTamper->Tamper | (uint32_t)(sTamper->Tamper << 1U
 766              		.loc 1 398 7
 767 0068 7B68     		ldr	r3, [r7, #4]
 768 006a 1B68     		ldr	r3, [r3]
 769              		.loc 1 398 25
 770 006c 196C     		ldr	r1, [r3, #64]
 771              		.loc 1 398 57
 772 006e 3B68     		ldr	r3, [r7]
 773 0070 1A68     		ldr	r2, [r3]
 774              		.loc 1 398 86
 775 0072 3B68     		ldr	r3, [r7]
 776 0074 1B68     		ldr	r3, [r3]
 777              		.loc 1 398 95
 778 0076 5B00     		lsls	r3, r3, #1
 779              		.loc 1 398 66
 780 0078 1343     		orrs	r3, r3, r2
 399:./Libraries/STM32F4xx_HAL_Driver/Src/stm32f4xx_hal_rtc_ex.c ****                                        (uint32_t)RTC_TAFCR_TAMPFREQ | (uint32_t)RTC_TAFCR_TAMPFLT |
 400:./Libraries/STM32F4xx_HAL_Driver/Src/stm32f4xx_hal_rtc_ex.c ****                                        (uint32_t)RTC_TAFCR_TAMPPUDIS | (uint32_t)RTC_TAFCR_TAMPINSE
 781              		.loc 1 400 102
 782 007a 43F4FF33 		orr	r3, r3, #130560
 783 007e 43F4C273 		orr	r3, r3, #388
 398:./Libraries/STM32F4xx_HAL_Driver/Src/stm32f4xx_hal_rtc_ex.c ****                                        (uint32_t)RTC_TAFCR_TAMPFREQ | (uint32_t)RTC_TAFCR_TAMPFLT |
 784              		.loc 1 398 28
 785 0082 DA43     		mvns	r2, r3
 398:./Libraries/STM32F4xx_HAL_Driver/Src/stm32f4xx_hal_rtc_ex.c ****                                        (uint32_t)RTC_TAFCR_TAMPFREQ | (uint32_t)RTC_TAFCR_TAMPFLT |
 786              		.loc 1 398 7
 787 0084 7B68     		ldr	r3, [r7, #4]
 788 0086 1B68     		ldr	r3, [r3]
 398:./Libraries/STM32F4xx_HAL_Driver/Src/stm32f4xx_hal_rtc_ex.c ****                                        (uint32_t)RTC_TAFCR_TAMPFREQ | (uint32_t)RTC_TAFCR_TAMPFLT |
 789              		.loc 1 398 25
 790 0088 0A40     		ands	r2, r2, r1
 791 008a 1A64     		str	r2, [r3, #64]
 401:./Libraries/STM32F4xx_HAL_Driver/Src/stm32f4xx_hal_rtc_ex.c **** 
 402:./Libraries/STM32F4xx_HAL_Driver/Src/stm32f4xx_hal_rtc_ex.c ****   hrtc->Instance->TAFCR |= tmpreg;
 792              		.loc 1 402 7
 793 008c 7B68     		ldr	r3, [r7, #4]
 794 008e 1B68     		ldr	r3, [r3]
 795              		.loc 1 402 25
 796 0090 196C     		ldr	r1, [r3, #64]
 797              		.loc 1 402 7
 798 0092 7B68     		ldr	r3, [r7, #4]
ARM GAS  /tmp/cckIUkG9.s 			page 22


 799 0094 1B68     		ldr	r3, [r3]
 800              		.loc 1 402 25
 801 0096 FA68     		ldr	r2, [r7, #12]
 802 0098 0A43     		orrs	r2, r2, r1
 803 009a 1A64     		str	r2, [r3, #64]
 403:./Libraries/STM32F4xx_HAL_Driver/Src/stm32f4xx_hal_rtc_ex.c ****   
 404:./Libraries/STM32F4xx_HAL_Driver/Src/stm32f4xx_hal_rtc_ex.c ****   hrtc->State = HAL_RTC_STATE_READY; 
 804              		.loc 1 404 15
 805 009c 7B68     		ldr	r3, [r7, #4]
 806 009e 0122     		movs	r2, #1
 807 00a0 5A77     		strb	r2, [r3, #29]
 405:./Libraries/STM32F4xx_HAL_Driver/Src/stm32f4xx_hal_rtc_ex.c **** 
 406:./Libraries/STM32F4xx_HAL_Driver/Src/stm32f4xx_hal_rtc_ex.c ****   /* Process Unlocked */ 
 407:./Libraries/STM32F4xx_HAL_Driver/Src/stm32f4xx_hal_rtc_ex.c ****   __HAL_UNLOCK(hrtc);
 808              		.loc 1 407 3
 809 00a2 7B68     		ldr	r3, [r7, #4]
 810 00a4 0022     		movs	r2, #0
 811 00a6 1A77     		strb	r2, [r3, #28]
 408:./Libraries/STM32F4xx_HAL_Driver/Src/stm32f4xx_hal_rtc_ex.c ****     
 409:./Libraries/STM32F4xx_HAL_Driver/Src/stm32f4xx_hal_rtc_ex.c ****   return HAL_OK;
 812              		.loc 1 409 10
 813 00a8 0023     		movs	r3, #0
 814              	.L17:
 410:./Libraries/STM32F4xx_HAL_Driver/Src/stm32f4xx_hal_rtc_ex.c **** }
 815              		.loc 1 410 1
 816 00aa 1846     		mov	r0, r3
 817 00ac 1437     		adds	r7, r7, #20
 818              	.LCFI26:
 819              		.cfi_def_cfa_offset 4
 820 00ae BD46     		mov	sp, r7
 821              	.LCFI27:
 822              		.cfi_def_cfa_register 13
 823              		@ sp needed
 824 00b0 5DF8047B 		ldr	r7, [sp], #4
 825              	.LCFI28:
 826              		.cfi_restore 7
 827              		.cfi_def_cfa_offset 0
 828 00b4 7047     		bx	lr
 829              		.cfi_endproc
 830              	.LFE130:
 832              		.section	.text.HAL_RTCEx_SetTamper_IT,"ax",%progbits
 833              		.align	1
 834              		.global	HAL_RTCEx_SetTamper_IT
 835              		.syntax unified
 836              		.thumb
 837              		.thumb_func
 838              		.fpu fpv4-sp-d16
 840              	HAL_RTCEx_SetTamper_IT:
 841              	.LFB131:
 411:./Libraries/STM32F4xx_HAL_Driver/Src/stm32f4xx_hal_rtc_ex.c **** 
 412:./Libraries/STM32F4xx_HAL_Driver/Src/stm32f4xx_hal_rtc_ex.c **** /**
 413:./Libraries/STM32F4xx_HAL_Driver/Src/stm32f4xx_hal_rtc_ex.c ****   * @brief  Sets Tamper with interrupt.
 414:./Libraries/STM32F4xx_HAL_Driver/Src/stm32f4xx_hal_rtc_ex.c ****   * @note   By calling this API we force the tamper interrupt for all tampers.
 415:./Libraries/STM32F4xx_HAL_Driver/Src/stm32f4xx_hal_rtc_ex.c ****   * @param  hrtc pointer to a RTC_HandleTypeDef structure that contains
 416:./Libraries/STM32F4xx_HAL_Driver/Src/stm32f4xx_hal_rtc_ex.c ****   *                the configuration information for RTC.
 417:./Libraries/STM32F4xx_HAL_Driver/Src/stm32f4xx_hal_rtc_ex.c ****   * @param  sTamper Pointer to RTC Tamper.
 418:./Libraries/STM32F4xx_HAL_Driver/Src/stm32f4xx_hal_rtc_ex.c ****   * @retval HAL status
ARM GAS  /tmp/cckIUkG9.s 			page 23


 419:./Libraries/STM32F4xx_HAL_Driver/Src/stm32f4xx_hal_rtc_ex.c ****   */
 420:./Libraries/STM32F4xx_HAL_Driver/Src/stm32f4xx_hal_rtc_ex.c **** HAL_StatusTypeDef HAL_RTCEx_SetTamper_IT(RTC_HandleTypeDef *hrtc, RTC_TamperTypeDef* sTamper)
 421:./Libraries/STM32F4xx_HAL_Driver/Src/stm32f4xx_hal_rtc_ex.c **** {
 842              		.loc 1 421 1
 843              		.cfi_startproc
 844              		@ args = 0, pretend = 0, frame = 16
 845              		@ frame_needed = 1, uses_anonymous_args = 0
 846              		@ link register save eliminated.
 847 0000 80B4     		push	{r7}
 848              	.LCFI29:
 849              		.cfi_def_cfa_offset 4
 850              		.cfi_offset 7, -4
 851 0002 85B0     		sub	sp, sp, #20
 852              	.LCFI30:
 853              		.cfi_def_cfa_offset 24
 854 0004 00AF     		add	r7, sp, #0
 855              	.LCFI31:
 856              		.cfi_def_cfa_register 7
 857 0006 7860     		str	r0, [r7, #4]
 858 0008 3960     		str	r1, [r7]
 422:./Libraries/STM32F4xx_HAL_Driver/Src/stm32f4xx_hal_rtc_ex.c ****   uint32_t tmpreg = 0U;
 859              		.loc 1 422 12
 860 000a 0023     		movs	r3, #0
 861 000c FB60     		str	r3, [r7, #12]
 423:./Libraries/STM32F4xx_HAL_Driver/Src/stm32f4xx_hal_rtc_ex.c ****   
 424:./Libraries/STM32F4xx_HAL_Driver/Src/stm32f4xx_hal_rtc_ex.c ****   /* Check the parameters */
 425:./Libraries/STM32F4xx_HAL_Driver/Src/stm32f4xx_hal_rtc_ex.c ****   assert_param(IS_RTC_TAMPER(sTamper->Tamper)); 
 426:./Libraries/STM32F4xx_HAL_Driver/Src/stm32f4xx_hal_rtc_ex.c ****   assert_param(IS_RTC_TAMPER_PIN(sTamper->PinSelection));
 427:./Libraries/STM32F4xx_HAL_Driver/Src/stm32f4xx_hal_rtc_ex.c ****   assert_param(IS_RTC_TAMPER_TRIGGER(sTamper->Trigger));
 428:./Libraries/STM32F4xx_HAL_Driver/Src/stm32f4xx_hal_rtc_ex.c ****   assert_param(IS_RTC_TAMPER_FILTER(sTamper->Filter));
 429:./Libraries/STM32F4xx_HAL_Driver/Src/stm32f4xx_hal_rtc_ex.c ****   assert_param(IS_RTC_TAMPER_SAMPLING_FREQ(sTamper->SamplingFrequency));         
 430:./Libraries/STM32F4xx_HAL_Driver/Src/stm32f4xx_hal_rtc_ex.c ****   assert_param(IS_RTC_TAMPER_PRECHARGE_DURATION(sTamper->PrechargeDuration));
 431:./Libraries/STM32F4xx_HAL_Driver/Src/stm32f4xx_hal_rtc_ex.c ****   assert_param(IS_RTC_TAMPER_PULLUP_STATE(sTamper->TamperPullUp));
 432:./Libraries/STM32F4xx_HAL_Driver/Src/stm32f4xx_hal_rtc_ex.c ****   assert_param(IS_RTC_TAMPER_TIMESTAMPONTAMPER_DETECTION(sTamper->TimeStampOnTamperDetection));
 433:./Libraries/STM32F4xx_HAL_Driver/Src/stm32f4xx_hal_rtc_ex.c ****  
 434:./Libraries/STM32F4xx_HAL_Driver/Src/stm32f4xx_hal_rtc_ex.c ****   /* Process Locked */ 
 435:./Libraries/STM32F4xx_HAL_Driver/Src/stm32f4xx_hal_rtc_ex.c ****   __HAL_LOCK(hrtc);
 862              		.loc 1 435 3
 863 000e 7B68     		ldr	r3, [r7, #4]
 864 0010 1B7F     		ldrb	r3, [r3, #28]	@ zero_extendqisi2
 865 0012 012B     		cmp	r3, #1
 866 0014 01D1     		bne	.L20
 867              		.loc 1 435 3 is_stmt 0 discriminator 1
 868 0016 0223     		movs	r3, #2
 869 0018 72E0     		b	.L21
 870              	.L20:
 871              		.loc 1 435 3 discriminator 2
 872 001a 7B68     		ldr	r3, [r7, #4]
 873 001c 0122     		movs	r2, #1
 874 001e 1A77     		strb	r2, [r3, #28]
 436:./Libraries/STM32F4xx_HAL_Driver/Src/stm32f4xx_hal_rtc_ex.c ****       
 437:./Libraries/STM32F4xx_HAL_Driver/Src/stm32f4xx_hal_rtc_ex.c ****   hrtc->State = HAL_RTC_STATE_BUSY;
 875              		.loc 1 437 15 is_stmt 1 discriminator 2
 876 0020 7B68     		ldr	r3, [r7, #4]
 877 0022 0222     		movs	r2, #2
 878 0024 5A77     		strb	r2, [r3, #29]
 438:./Libraries/STM32F4xx_HAL_Driver/Src/stm32f4xx_hal_rtc_ex.c ****   
ARM GAS  /tmp/cckIUkG9.s 			page 24


 439:./Libraries/STM32F4xx_HAL_Driver/Src/stm32f4xx_hal_rtc_ex.c ****   /* Configure the tamper trigger */
 440:./Libraries/STM32F4xx_HAL_Driver/Src/stm32f4xx_hal_rtc_ex.c ****   if(sTamper->Trigger != RTC_TAMPERTRIGGER_RISINGEDGE)
 879              		.loc 1 440 13 discriminator 2
 880 0026 3B68     		ldr	r3, [r7]
 881 0028 9B68     		ldr	r3, [r3, #8]
 882              		.loc 1 440 5 discriminator 2
 883 002a 002B     		cmp	r3, #0
 884 002c 04D0     		beq	.L22
 441:./Libraries/STM32F4xx_HAL_Driver/Src/stm32f4xx_hal_rtc_ex.c ****   { 
 442:./Libraries/STM32F4xx_HAL_Driver/Src/stm32f4xx_hal_rtc_ex.c ****     sTamper->Trigger = (uint32_t)(sTamper->Tamper << 1U); 
 885              		.loc 1 442 42
 886 002e 3B68     		ldr	r3, [r7]
 887 0030 1B68     		ldr	r3, [r3]
 888              		.loc 1 442 51
 889 0032 5A00     		lsls	r2, r3, #1
 890              		.loc 1 442 22
 891 0034 3B68     		ldr	r3, [r7]
 892 0036 9A60     		str	r2, [r3, #8]
 893              	.L22:
 443:./Libraries/STM32F4xx_HAL_Driver/Src/stm32f4xx_hal_rtc_ex.c ****   } 
 444:./Libraries/STM32F4xx_HAL_Driver/Src/stm32f4xx_hal_rtc_ex.c ****        
 445:./Libraries/STM32F4xx_HAL_Driver/Src/stm32f4xx_hal_rtc_ex.c ****   tmpreg = ((uint32_t)sTamper->Tamper | (uint32_t)sTamper->PinSelection | (uint32_t)sTamper->Trigge
 894              		.loc 1 445 30
 895 0038 3B68     		ldr	r3, [r7]
 896 003a 1A68     		ldr	r2, [r3]
 897              		.loc 1 445 58
 898 003c 3B68     		ldr	r3, [r7]
 899 003e 5B68     		ldr	r3, [r3, #4]
 900              		.loc 1 445 39
 901 0040 1A43     		orrs	r2, r2, r3
 902              		.loc 1 445 92
 903 0042 3B68     		ldr	r3, [r7]
 904 0044 9B68     		ldr	r3, [r3, #8]
 905              		.loc 1 445 73
 906 0046 1A43     		orrs	r2, r2, r3
 446:./Libraries/STM32F4xx_HAL_Driver/Src/stm32f4xx_hal_rtc_ex.c ****             (uint32_t)sTamper->Filter | (uint32_t)sTamper->SamplingFrequency | (uint32_t)sTamper->P
 907              		.loc 1 446 30
 908 0048 3B68     		ldr	r3, [r7]
 909 004a DB68     		ldr	r3, [r3, #12]
 445:./Libraries/STM32F4xx_HAL_Driver/Src/stm32f4xx_hal_rtc_ex.c ****             (uint32_t)sTamper->Filter | (uint32_t)sTamper->SamplingFrequency | (uint32_t)sTamper->P
 910              		.loc 1 445 103
 911 004c 1A43     		orrs	r2, r2, r3
 912              		.loc 1 446 58
 913 004e 3B68     		ldr	r3, [r7]
 914 0050 1B69     		ldr	r3, [r3, #16]
 915              		.loc 1 446 39
 916 0052 1A43     		orrs	r2, r2, r3
 917              		.loc 1 446 97
 918 0054 3B68     		ldr	r3, [r7]
 919 0056 5B69     		ldr	r3, [r3, #20]
 920              		.loc 1 446 78
 921 0058 1A43     		orrs	r2, r2, r3
 447:./Libraries/STM32F4xx_HAL_Driver/Src/stm32f4xx_hal_rtc_ex.c ****             (uint32_t)sTamper->TamperPullUp | sTamper->TimeStampOnTamperDetection);
 922              		.loc 1 447 30
 923 005a 3B68     		ldr	r3, [r7]
 924 005c 9B69     		ldr	r3, [r3, #24]
 446:./Libraries/STM32F4xx_HAL_Driver/Src/stm32f4xx_hal_rtc_ex.c ****             (uint32_t)sTamper->Filter | (uint32_t)sTamper->SamplingFrequency | (uint32_t)sTamper->P
ARM GAS  /tmp/cckIUkG9.s 			page 25


 925              		.loc 1 446 117
 926 005e 1A43     		orrs	r2, r2, r3
 927              		.loc 1 447 54
 928 0060 3B68     		ldr	r3, [r7]
 929 0062 DB69     		ldr	r3, [r3, #28]
 445:./Libraries/STM32F4xx_HAL_Driver/Src/stm32f4xx_hal_rtc_ex.c ****             (uint32_t)sTamper->Filter | (uint32_t)sTamper->SamplingFrequency | (uint32_t)sTamper->P
 930              		.loc 1 445 10
 931 0064 1343     		orrs	r3, r3, r2
 932 0066 FB60     		str	r3, [r7, #12]
 448:./Libraries/STM32F4xx_HAL_Driver/Src/stm32f4xx_hal_rtc_ex.c ****   
 449:./Libraries/STM32F4xx_HAL_Driver/Src/stm32f4xx_hal_rtc_ex.c ****   hrtc->Instance->TAFCR &= (uint32_t)~((uint32_t)sTamper->Tamper | (uint32_t)(sTamper->Tamper << 1U
 933              		.loc 1 449 7
 934 0068 7B68     		ldr	r3, [r7, #4]
 935 006a 1B68     		ldr	r3, [r3]
 936              		.loc 1 449 25
 937 006c 196C     		ldr	r1, [r3, #64]
 938              		.loc 1 449 57
 939 006e 3B68     		ldr	r3, [r7]
 940 0070 1A68     		ldr	r2, [r3]
 941              		.loc 1 449 86
 942 0072 3B68     		ldr	r3, [r7]
 943 0074 1B68     		ldr	r3, [r3]
 944              		.loc 1 449 95
 945 0076 5B00     		lsls	r3, r3, #1
 946              		.loc 1 449 66
 947 0078 1343     		orrs	r3, r3, r2
 450:./Libraries/STM32F4xx_HAL_Driver/Src/stm32f4xx_hal_rtc_ex.c ****                                        (uint32_t)RTC_TAFCR_TAMPFREQ | (uint32_t)RTC_TAFCR_TAMPFLT |
 451:./Libraries/STM32F4xx_HAL_Driver/Src/stm32f4xx_hal_rtc_ex.c ****                                        (uint32_t)RTC_TAFCR_TAMPPUDIS | (uint32_t)RTC_TAFCR_TAMPINSE
 948              		.loc 1 451 70
 949 007a 43F4FF33 		orr	r3, r3, #130560
 950 007e 43F4C073 		orr	r3, r3, #384
 449:./Libraries/STM32F4xx_HAL_Driver/Src/stm32f4xx_hal_rtc_ex.c ****                                        (uint32_t)RTC_TAFCR_TAMPFREQ | (uint32_t)RTC_TAFCR_TAMPFLT |
 951              		.loc 1 449 28
 952 0082 DA43     		mvns	r2, r3
 449:./Libraries/STM32F4xx_HAL_Driver/Src/stm32f4xx_hal_rtc_ex.c ****                                        (uint32_t)RTC_TAFCR_TAMPFREQ | (uint32_t)RTC_TAFCR_TAMPFLT |
 953              		.loc 1 449 7
 954 0084 7B68     		ldr	r3, [r7, #4]
 955 0086 1B68     		ldr	r3, [r3]
 449:./Libraries/STM32F4xx_HAL_Driver/Src/stm32f4xx_hal_rtc_ex.c ****                                        (uint32_t)RTC_TAFCR_TAMPFREQ | (uint32_t)RTC_TAFCR_TAMPFLT |
 956              		.loc 1 449 25
 957 0088 0A40     		ands	r2, r2, r1
 958 008a 1A64     		str	r2, [r3, #64]
 452:./Libraries/STM32F4xx_HAL_Driver/Src/stm32f4xx_hal_rtc_ex.c ****     
 453:./Libraries/STM32F4xx_HAL_Driver/Src/stm32f4xx_hal_rtc_ex.c ****   hrtc->Instance->TAFCR |= tmpreg;
 959              		.loc 1 453 7
 960 008c 7B68     		ldr	r3, [r7, #4]
 961 008e 1B68     		ldr	r3, [r3]
 962              		.loc 1 453 25
 963 0090 196C     		ldr	r1, [r3, #64]
 964              		.loc 1 453 7
 965 0092 7B68     		ldr	r3, [r7, #4]
 966 0094 1B68     		ldr	r3, [r3]
 967              		.loc 1 453 25
 968 0096 FA68     		ldr	r2, [r7, #12]
 969 0098 0A43     		orrs	r2, r2, r1
 970 009a 1A64     		str	r2, [r3, #64]
 454:./Libraries/STM32F4xx_HAL_Driver/Src/stm32f4xx_hal_rtc_ex.c ****   
ARM GAS  /tmp/cckIUkG9.s 			page 26


 455:./Libraries/STM32F4xx_HAL_Driver/Src/stm32f4xx_hal_rtc_ex.c ****   /* Configure the Tamper Interrupt in the RTC_TAFCR */
 456:./Libraries/STM32F4xx_HAL_Driver/Src/stm32f4xx_hal_rtc_ex.c ****   hrtc->Instance->TAFCR |= (uint32_t)RTC_TAFCR_TAMPIE;
 971              		.loc 1 456 7
 972 009c 7B68     		ldr	r3, [r7, #4]
 973 009e 1B68     		ldr	r3, [r3]
 974              		.loc 1 456 25
 975 00a0 1A6C     		ldr	r2, [r3, #64]
 976              		.loc 1 456 7
 977 00a2 7B68     		ldr	r3, [r7, #4]
 978 00a4 1B68     		ldr	r3, [r3]
 979              		.loc 1 456 25
 980 00a6 42F00402 		orr	r2, r2, #4
 981 00aa 1A64     		str	r2, [r3, #64]
 457:./Libraries/STM32F4xx_HAL_Driver/Src/stm32f4xx_hal_rtc_ex.c **** 
 458:./Libraries/STM32F4xx_HAL_Driver/Src/stm32f4xx_hal_rtc_ex.c ****   if(sTamper->Tamper == RTC_TAMPER_1)
 982              		.loc 1 458 13
 983 00ac 3B68     		ldr	r3, [r7]
 984 00ae 1B68     		ldr	r3, [r3]
 985              		.loc 1 458 5
 986 00b0 012B     		cmp	r3, #1
 987 00b2 09D1     		bne	.L23
 459:./Libraries/STM32F4xx_HAL_Driver/Src/stm32f4xx_hal_rtc_ex.c ****   {
 460:./Libraries/STM32F4xx_HAL_Driver/Src/stm32f4xx_hal_rtc_ex.c ****     /* Clear RTC Tamper 1 flag */
 461:./Libraries/STM32F4xx_HAL_Driver/Src/stm32f4xx_hal_rtc_ex.c ****     __HAL_RTC_TAMPER_CLEAR_FLAG(hrtc, RTC_FLAG_TAMP1F);
 988              		.loc 1 461 5
 989 00b4 7B68     		ldr	r3, [r7, #4]
 990 00b6 1B68     		ldr	r3, [r3]
 991 00b8 DB68     		ldr	r3, [r3, #12]
 992 00ba DAB2     		uxtb	r2, r3
 993 00bc 7B68     		ldr	r3, [r7, #4]
 994 00be 1B68     		ldr	r3, [r3]
 995 00c0 62F40252 		orn	r2, r2, #8320
 996 00c4 DA60     		str	r2, [r3, #12]
 997 00c6 08E0     		b	.L24
 998              	.L23:
 462:./Libraries/STM32F4xx_HAL_Driver/Src/stm32f4xx_hal_rtc_ex.c ****   }
 463:./Libraries/STM32F4xx_HAL_Driver/Src/stm32f4xx_hal_rtc_ex.c ****   else
 464:./Libraries/STM32F4xx_HAL_Driver/Src/stm32f4xx_hal_rtc_ex.c ****   {
 465:./Libraries/STM32F4xx_HAL_Driver/Src/stm32f4xx_hal_rtc_ex.c ****     /* Clear RTC Tamper 2 flag */
 466:./Libraries/STM32F4xx_HAL_Driver/Src/stm32f4xx_hal_rtc_ex.c ****     __HAL_RTC_TAMPER_CLEAR_FLAG(hrtc, RTC_FLAG_TAMP2F);    
 999              		.loc 1 466 5
 1000 00c8 7B68     		ldr	r3, [r7, #4]
 1001 00ca 1B68     		ldr	r3, [r3]
 1002 00cc DB68     		ldr	r3, [r3, #12]
 1003 00ce DAB2     		uxtb	r2, r3
 1004 00d0 7B68     		ldr	r3, [r7, #4]
 1005 00d2 1B68     		ldr	r3, [r3]
 1006 00d4 62F48142 		orn	r2, r2, #16512
 1007 00d8 DA60     		str	r2, [r3, #12]
 1008              	.L24:
 467:./Libraries/STM32F4xx_HAL_Driver/Src/stm32f4xx_hal_rtc_ex.c ****   }
 468:./Libraries/STM32F4xx_HAL_Driver/Src/stm32f4xx_hal_rtc_ex.c **** 
 469:./Libraries/STM32F4xx_HAL_Driver/Src/stm32f4xx_hal_rtc_ex.c ****   /* RTC Tamper Interrupt Configuration: EXTI configuration */
 470:./Libraries/STM32F4xx_HAL_Driver/Src/stm32f4xx_hal_rtc_ex.c ****   __HAL_RTC_TAMPER_TIMESTAMP_EXTI_ENABLE_IT();
 1009              		.loc 1 470 3
 1010 00da 0C4B     		ldr	r3, .L25
 1011 00dc 1B68     		ldr	r3, [r3]
ARM GAS  /tmp/cckIUkG9.s 			page 27


 1012 00de 0B4A     		ldr	r2, .L25
 1013 00e0 43F40013 		orr	r3, r3, #2097152
 1014 00e4 1360     		str	r3, [r2]
 471:./Libraries/STM32F4xx_HAL_Driver/Src/stm32f4xx_hal_rtc_ex.c ****   
 472:./Libraries/STM32F4xx_HAL_Driver/Src/stm32f4xx_hal_rtc_ex.c ****   EXTI->RTSR |= RTC_EXTI_LINE_TAMPER_TIMESTAMP_EVENT;
 1015              		.loc 1 472 14
 1016 00e6 094B     		ldr	r3, .L25
 1017 00e8 9B68     		ldr	r3, [r3, #8]
 1018 00ea 084A     		ldr	r2, .L25
 1019 00ec 43F40013 		orr	r3, r3, #2097152
 1020 00f0 9360     		str	r3, [r2, #8]
 473:./Libraries/STM32F4xx_HAL_Driver/Src/stm32f4xx_hal_rtc_ex.c ****   
 474:./Libraries/STM32F4xx_HAL_Driver/Src/stm32f4xx_hal_rtc_ex.c ****   hrtc->State = HAL_RTC_STATE_READY;   
 1021              		.loc 1 474 15
 1022 00f2 7B68     		ldr	r3, [r7, #4]
 1023 00f4 0122     		movs	r2, #1
 1024 00f6 5A77     		strb	r2, [r3, #29]
 475:./Libraries/STM32F4xx_HAL_Driver/Src/stm32f4xx_hal_rtc_ex.c ****   
 476:./Libraries/STM32F4xx_HAL_Driver/Src/stm32f4xx_hal_rtc_ex.c ****   /* Process Unlocked */ 
 477:./Libraries/STM32F4xx_HAL_Driver/Src/stm32f4xx_hal_rtc_ex.c ****   __HAL_UNLOCK(hrtc);
 1025              		.loc 1 477 3
 1026 00f8 7B68     		ldr	r3, [r7, #4]
 1027 00fa 0022     		movs	r2, #0
 1028 00fc 1A77     		strb	r2, [r3, #28]
 478:./Libraries/STM32F4xx_HAL_Driver/Src/stm32f4xx_hal_rtc_ex.c ****   
 479:./Libraries/STM32F4xx_HAL_Driver/Src/stm32f4xx_hal_rtc_ex.c ****   return HAL_OK;
 1029              		.loc 1 479 10
 1030 00fe 0023     		movs	r3, #0
 1031              	.L21:
 480:./Libraries/STM32F4xx_HAL_Driver/Src/stm32f4xx_hal_rtc_ex.c **** }
 1032              		.loc 1 480 1
 1033 0100 1846     		mov	r0, r3
 1034 0102 1437     		adds	r7, r7, #20
 1035              	.LCFI32:
 1036              		.cfi_def_cfa_offset 4
 1037 0104 BD46     		mov	sp, r7
 1038              	.LCFI33:
 1039              		.cfi_def_cfa_register 13
 1040              		@ sp needed
 1041 0106 5DF8047B 		ldr	r7, [sp], #4
 1042              	.LCFI34:
 1043              		.cfi_restore 7
 1044              		.cfi_def_cfa_offset 0
 1045 010a 7047     		bx	lr
 1046              	.L26:
 1047              		.align	2
 1048              	.L25:
 1049 010c 003C0140 		.word	1073822720
 1050              		.cfi_endproc
 1051              	.LFE131:
 1053              		.section	.text.HAL_RTCEx_DeactivateTamper,"ax",%progbits
 1054              		.align	1
 1055              		.global	HAL_RTCEx_DeactivateTamper
 1056              		.syntax unified
 1057              		.thumb
 1058              		.thumb_func
 1059              		.fpu fpv4-sp-d16
ARM GAS  /tmp/cckIUkG9.s 			page 28


 1061              	HAL_RTCEx_DeactivateTamper:
 1062              	.LFB132:
 481:./Libraries/STM32F4xx_HAL_Driver/Src/stm32f4xx_hal_rtc_ex.c **** 
 482:./Libraries/STM32F4xx_HAL_Driver/Src/stm32f4xx_hal_rtc_ex.c **** /**
 483:./Libraries/STM32F4xx_HAL_Driver/Src/stm32f4xx_hal_rtc_ex.c ****   * @brief  Deactivates Tamper.
 484:./Libraries/STM32F4xx_HAL_Driver/Src/stm32f4xx_hal_rtc_ex.c ****   * @param  hrtc pointer to a RTC_HandleTypeDef structure that contains
 485:./Libraries/STM32F4xx_HAL_Driver/Src/stm32f4xx_hal_rtc_ex.c ****   *                the configuration information for RTC.
 486:./Libraries/STM32F4xx_HAL_Driver/Src/stm32f4xx_hal_rtc_ex.c ****   * @param  Tamper Selected tamper pin.
 487:./Libraries/STM32F4xx_HAL_Driver/Src/stm32f4xx_hal_rtc_ex.c ****   *          This parameter can be RTC_Tamper_1 and/or RTC_TAMPER_2.
 488:./Libraries/STM32F4xx_HAL_Driver/Src/stm32f4xx_hal_rtc_ex.c ****   * @retval HAL status
 489:./Libraries/STM32F4xx_HAL_Driver/Src/stm32f4xx_hal_rtc_ex.c ****   */
 490:./Libraries/STM32F4xx_HAL_Driver/Src/stm32f4xx_hal_rtc_ex.c **** HAL_StatusTypeDef HAL_RTCEx_DeactivateTamper(RTC_HandleTypeDef *hrtc, uint32_t Tamper)
 491:./Libraries/STM32F4xx_HAL_Driver/Src/stm32f4xx_hal_rtc_ex.c **** {
 1063              		.loc 1 491 1
 1064              		.cfi_startproc
 1065              		@ args = 0, pretend = 0, frame = 8
 1066              		@ frame_needed = 1, uses_anonymous_args = 0
 1067              		@ link register save eliminated.
 1068 0000 80B4     		push	{r7}
 1069              	.LCFI35:
 1070              		.cfi_def_cfa_offset 4
 1071              		.cfi_offset 7, -4
 1072 0002 83B0     		sub	sp, sp, #12
 1073              	.LCFI36:
 1074              		.cfi_def_cfa_offset 16
 1075 0004 00AF     		add	r7, sp, #0
 1076              	.LCFI37:
 1077              		.cfi_def_cfa_register 7
 1078 0006 7860     		str	r0, [r7, #4]
 1079 0008 3960     		str	r1, [r7]
 492:./Libraries/STM32F4xx_HAL_Driver/Src/stm32f4xx_hal_rtc_ex.c ****   assert_param(IS_RTC_TAMPER(Tamper)); 
 493:./Libraries/STM32F4xx_HAL_Driver/Src/stm32f4xx_hal_rtc_ex.c ****   
 494:./Libraries/STM32F4xx_HAL_Driver/Src/stm32f4xx_hal_rtc_ex.c ****   /* Process Locked */ 
 495:./Libraries/STM32F4xx_HAL_Driver/Src/stm32f4xx_hal_rtc_ex.c ****   __HAL_LOCK(hrtc);
 1080              		.loc 1 495 3
 1081 000a 7B68     		ldr	r3, [r7, #4]
 1082 000c 1B7F     		ldrb	r3, [r3, #28]	@ zero_extendqisi2
 1083 000e 012B     		cmp	r3, #1
 1084 0010 01D1     		bne	.L28
 1085              		.loc 1 495 3 is_stmt 0 discriminator 1
 1086 0012 0223     		movs	r3, #2
 1087 0014 15E0     		b	.L29
 1088              	.L28:
 1089              		.loc 1 495 3 discriminator 2
 1090 0016 7B68     		ldr	r3, [r7, #4]
 1091 0018 0122     		movs	r2, #1
 1092 001a 1A77     		strb	r2, [r3, #28]
 496:./Libraries/STM32F4xx_HAL_Driver/Src/stm32f4xx_hal_rtc_ex.c ****       
 497:./Libraries/STM32F4xx_HAL_Driver/Src/stm32f4xx_hal_rtc_ex.c ****   hrtc->State = HAL_RTC_STATE_BUSY;
 1093              		.loc 1 497 15 is_stmt 1 discriminator 2
 1094 001c 7B68     		ldr	r3, [r7, #4]
 1095 001e 0222     		movs	r2, #2
 1096 0020 5A77     		strb	r2, [r3, #29]
 498:./Libraries/STM32F4xx_HAL_Driver/Src/stm32f4xx_hal_rtc_ex.c ****   
 499:./Libraries/STM32F4xx_HAL_Driver/Src/stm32f4xx_hal_rtc_ex.c ****   /* Disable the selected Tamper pin */
 500:./Libraries/STM32F4xx_HAL_Driver/Src/stm32f4xx_hal_rtc_ex.c ****   hrtc->Instance->TAFCR &= (uint32_t)~Tamper;  
 1097              		.loc 1 500 7 discriminator 2
ARM GAS  /tmp/cckIUkG9.s 			page 29


 1098 0022 7B68     		ldr	r3, [r7, #4]
 1099 0024 1B68     		ldr	r3, [r3]
 1100              		.loc 1 500 25 discriminator 2
 1101 0026 196C     		ldr	r1, [r3, #64]
 1102              		.loc 1 500 38 discriminator 2
 1103 0028 3B68     		ldr	r3, [r7]
 1104 002a DA43     		mvns	r2, r3
 1105              		.loc 1 500 7 discriminator 2
 1106 002c 7B68     		ldr	r3, [r7, #4]
 1107 002e 1B68     		ldr	r3, [r3]
 1108              		.loc 1 500 25 discriminator 2
 1109 0030 0A40     		ands	r2, r2, r1
 1110 0032 1A64     		str	r2, [r3, #64]
 501:./Libraries/STM32F4xx_HAL_Driver/Src/stm32f4xx_hal_rtc_ex.c ****   
 502:./Libraries/STM32F4xx_HAL_Driver/Src/stm32f4xx_hal_rtc_ex.c ****   hrtc->State = HAL_RTC_STATE_READY;   
 1111              		.loc 1 502 15 discriminator 2
 1112 0034 7B68     		ldr	r3, [r7, #4]
 1113 0036 0122     		movs	r2, #1
 1114 0038 5A77     		strb	r2, [r3, #29]
 503:./Libraries/STM32F4xx_HAL_Driver/Src/stm32f4xx_hal_rtc_ex.c ****   
 504:./Libraries/STM32F4xx_HAL_Driver/Src/stm32f4xx_hal_rtc_ex.c ****   /* Process Unlocked */  
 505:./Libraries/STM32F4xx_HAL_Driver/Src/stm32f4xx_hal_rtc_ex.c ****   __HAL_UNLOCK(hrtc);
 1115              		.loc 1 505 3 discriminator 2
 1116 003a 7B68     		ldr	r3, [r7, #4]
 1117 003c 0022     		movs	r2, #0
 1118 003e 1A77     		strb	r2, [r3, #28]
 506:./Libraries/STM32F4xx_HAL_Driver/Src/stm32f4xx_hal_rtc_ex.c ****   
 507:./Libraries/STM32F4xx_HAL_Driver/Src/stm32f4xx_hal_rtc_ex.c ****   return HAL_OK; 
 1119              		.loc 1 507 10 discriminator 2
 1120 0040 0023     		movs	r3, #0
 1121              	.L29:
 508:./Libraries/STM32F4xx_HAL_Driver/Src/stm32f4xx_hal_rtc_ex.c **** }
 1122              		.loc 1 508 1
 1123 0042 1846     		mov	r0, r3
 1124 0044 0C37     		adds	r7, r7, #12
 1125              	.LCFI38:
 1126              		.cfi_def_cfa_offset 4
 1127 0046 BD46     		mov	sp, r7
 1128              	.LCFI39:
 1129              		.cfi_def_cfa_register 13
 1130              		@ sp needed
 1131 0048 5DF8047B 		ldr	r7, [sp], #4
 1132              	.LCFI40:
 1133              		.cfi_restore 7
 1134              		.cfi_def_cfa_offset 0
 1135 004c 7047     		bx	lr
 1136              		.cfi_endproc
 1137              	.LFE132:
 1139              		.section	.text.HAL_RTCEx_TamperTimeStampIRQHandler,"ax",%progbits
 1140              		.align	1
 1141              		.global	HAL_RTCEx_TamperTimeStampIRQHandler
 1142              		.syntax unified
 1143              		.thumb
 1144              		.thumb_func
 1145              		.fpu fpv4-sp-d16
 1147              	HAL_RTCEx_TamperTimeStampIRQHandler:
 1148              	.LFB133:
ARM GAS  /tmp/cckIUkG9.s 			page 30


 509:./Libraries/STM32F4xx_HAL_Driver/Src/stm32f4xx_hal_rtc_ex.c **** 
 510:./Libraries/STM32F4xx_HAL_Driver/Src/stm32f4xx_hal_rtc_ex.c **** /**
 511:./Libraries/STM32F4xx_HAL_Driver/Src/stm32f4xx_hal_rtc_ex.c ****   * @brief  This function handles TimeStamp interrupt request.
 512:./Libraries/STM32F4xx_HAL_Driver/Src/stm32f4xx_hal_rtc_ex.c ****   * @param  hrtc pointer to a RTC_HandleTypeDef structure that contains
 513:./Libraries/STM32F4xx_HAL_Driver/Src/stm32f4xx_hal_rtc_ex.c ****   *                the configuration information for RTC.
 514:./Libraries/STM32F4xx_HAL_Driver/Src/stm32f4xx_hal_rtc_ex.c ****   * @retval None
 515:./Libraries/STM32F4xx_HAL_Driver/Src/stm32f4xx_hal_rtc_ex.c ****   */
 516:./Libraries/STM32F4xx_HAL_Driver/Src/stm32f4xx_hal_rtc_ex.c **** void HAL_RTCEx_TamperTimeStampIRQHandler(RTC_HandleTypeDef *hrtc)
 517:./Libraries/STM32F4xx_HAL_Driver/Src/stm32f4xx_hal_rtc_ex.c **** {  
 1149              		.loc 1 517 1
 1150              		.cfi_startproc
 1151              		@ args = 0, pretend = 0, frame = 8
 1152              		@ frame_needed = 1, uses_anonymous_args = 0
 1153 0000 80B5     		push	{r7, lr}
 1154              	.LCFI41:
 1155              		.cfi_def_cfa_offset 8
 1156              		.cfi_offset 7, -8
 1157              		.cfi_offset 14, -4
 1158 0002 82B0     		sub	sp, sp, #8
 1159              	.LCFI42:
 1160              		.cfi_def_cfa_offset 16
 1161 0004 00AF     		add	r7, sp, #0
 1162              	.LCFI43:
 1163              		.cfi_def_cfa_register 7
 1164 0006 7860     		str	r0, [r7, #4]
 518:./Libraries/STM32F4xx_HAL_Driver/Src/stm32f4xx_hal_rtc_ex.c ****   if(__HAL_RTC_TIMESTAMP_GET_IT(hrtc, RTC_IT_TS))
 1165              		.loc 1 518 6
 1166 0008 7B68     		ldr	r3, [r7, #4]
 1167 000a 1B68     		ldr	r3, [r3]
 1168 000c DB68     		ldr	r3, [r3, #12]
 1169 000e 03F40063 		and	r3, r3, #2048
 1170              		.loc 1 518 5
 1171 0012 002B     		cmp	r3, #0
 1172 0014 12D0     		beq	.L31
 519:./Libraries/STM32F4xx_HAL_Driver/Src/stm32f4xx_hal_rtc_ex.c ****   {
 520:./Libraries/STM32F4xx_HAL_Driver/Src/stm32f4xx_hal_rtc_ex.c ****     /* Get the status of the Interrupt */
 521:./Libraries/STM32F4xx_HAL_Driver/Src/stm32f4xx_hal_rtc_ex.c ****     if((uint32_t)(hrtc->Instance->CR & RTC_IT_TS) != (uint32_t)RESET)
 1173              		.loc 1 521 23
 1174 0016 7B68     		ldr	r3, [r7, #4]
 1175 0018 1B68     		ldr	r3, [r3]
 1176              		.loc 1 521 33
 1177 001a 9B68     		ldr	r3, [r3, #8]
 1178              		.loc 1 521 8
 1179 001c 03F40043 		and	r3, r3, #32768
 1180              		.loc 1 521 7
 1181 0020 002B     		cmp	r3, #0
 1182 0022 0BD0     		beq	.L31
 522:./Libraries/STM32F4xx_HAL_Driver/Src/stm32f4xx_hal_rtc_ex.c ****     {
 523:./Libraries/STM32F4xx_HAL_Driver/Src/stm32f4xx_hal_rtc_ex.c ****       /* TIMESTAMP callback */ 
 524:./Libraries/STM32F4xx_HAL_Driver/Src/stm32f4xx_hal_rtc_ex.c ****       HAL_RTCEx_TimeStampEventCallback(hrtc);
 1183              		.loc 1 524 7
 1184 0024 7868     		ldr	r0, [r7, #4]
 1185 0026 FFF7FEFF 		bl	HAL_RTCEx_TimeStampEventCallback
 525:./Libraries/STM32F4xx_HAL_Driver/Src/stm32f4xx_hal_rtc_ex.c ****   
 526:./Libraries/STM32F4xx_HAL_Driver/Src/stm32f4xx_hal_rtc_ex.c ****       /* Clear the TIMESTAMP interrupt pending bit */
 527:./Libraries/STM32F4xx_HAL_Driver/Src/stm32f4xx_hal_rtc_ex.c ****       __HAL_RTC_TIMESTAMP_CLEAR_FLAG(hrtc,RTC_FLAG_TSF);
 1186              		.loc 1 527 7
ARM GAS  /tmp/cckIUkG9.s 			page 31


 1187 002a 7B68     		ldr	r3, [r7, #4]
 1188 002c 1B68     		ldr	r3, [r3]
 1189 002e DB68     		ldr	r3, [r3, #12]
 1190 0030 DAB2     		uxtb	r2, r3
 1191 0032 7B68     		ldr	r3, [r7, #4]
 1192 0034 1B68     		ldr	r3, [r3]
 1193 0036 62F40862 		orn	r2, r2, #2176
 1194 003a DA60     		str	r2, [r3, #12]
 1195              	.L31:
 528:./Libraries/STM32F4xx_HAL_Driver/Src/stm32f4xx_hal_rtc_ex.c ****     }
 529:./Libraries/STM32F4xx_HAL_Driver/Src/stm32f4xx_hal_rtc_ex.c ****   }
 530:./Libraries/STM32F4xx_HAL_Driver/Src/stm32f4xx_hal_rtc_ex.c ****   
 531:./Libraries/STM32F4xx_HAL_Driver/Src/stm32f4xx_hal_rtc_ex.c ****   /* Get the status of the Interrupt */
 532:./Libraries/STM32F4xx_HAL_Driver/Src/stm32f4xx_hal_rtc_ex.c ****   if(__HAL_RTC_TAMPER_GET_IT(hrtc,RTC_IT_TAMP1))
 1196              		.loc 1 532 6
 1197 003c 7B68     		ldr	r3, [r7, #4]
 1198 003e 1B68     		ldr	r3, [r3]
 1199 0040 DB68     		ldr	r3, [r3, #12]
 1200 0042 03F40053 		and	r3, r3, #8192
 1201              		.loc 1 532 5
 1202 0046 002B     		cmp	r3, #0
 1203 0048 12D0     		beq	.L32
 533:./Libraries/STM32F4xx_HAL_Driver/Src/stm32f4xx_hal_rtc_ex.c ****   {
 534:./Libraries/STM32F4xx_HAL_Driver/Src/stm32f4xx_hal_rtc_ex.c ****     /* Get the TAMPER Interrupt enable bit and pending bit */
 535:./Libraries/STM32F4xx_HAL_Driver/Src/stm32f4xx_hal_rtc_ex.c ****     if(((hrtc->Instance->TAFCR & (RTC_TAFCR_TAMPIE))) != (uint32_t)RESET) 
 1204              		.loc 1 535 14
 1205 004a 7B68     		ldr	r3, [r7, #4]
 1206 004c 1B68     		ldr	r3, [r3]
 1207              		.loc 1 535 24
 1208 004e 1B6C     		ldr	r3, [r3, #64]
 1209              		.loc 1 535 32
 1210 0050 03F00403 		and	r3, r3, #4
 1211              		.loc 1 535 7
 1212 0054 002B     		cmp	r3, #0
 1213 0056 0BD0     		beq	.L32
 536:./Libraries/STM32F4xx_HAL_Driver/Src/stm32f4xx_hal_rtc_ex.c ****     {
 537:./Libraries/STM32F4xx_HAL_Driver/Src/stm32f4xx_hal_rtc_ex.c ****       /* Tamper callback */ 
 538:./Libraries/STM32F4xx_HAL_Driver/Src/stm32f4xx_hal_rtc_ex.c ****       HAL_RTCEx_Tamper1EventCallback(hrtc);
 1214              		.loc 1 538 7
 1215 0058 7868     		ldr	r0, [r7, #4]
 1216 005a FFF7FEFF 		bl	HAL_RTCEx_Tamper1EventCallback
 539:./Libraries/STM32F4xx_HAL_Driver/Src/stm32f4xx_hal_rtc_ex.c ****   
 540:./Libraries/STM32F4xx_HAL_Driver/Src/stm32f4xx_hal_rtc_ex.c ****       /* Clear the Tamper interrupt pending bit */
 541:./Libraries/STM32F4xx_HAL_Driver/Src/stm32f4xx_hal_rtc_ex.c ****       __HAL_RTC_TAMPER_CLEAR_FLAG(hrtc,RTC_FLAG_TAMP1F);
 1217              		.loc 1 541 7
 1218 005e 7B68     		ldr	r3, [r7, #4]
 1219 0060 1B68     		ldr	r3, [r3]
 1220 0062 DB68     		ldr	r3, [r3, #12]
 1221 0064 DAB2     		uxtb	r2, r3
 1222 0066 7B68     		ldr	r3, [r7, #4]
 1223 0068 1B68     		ldr	r3, [r3]
 1224 006a 62F40252 		orn	r2, r2, #8320
 1225 006e DA60     		str	r2, [r3, #12]
 1226              	.L32:
 542:./Libraries/STM32F4xx_HAL_Driver/Src/stm32f4xx_hal_rtc_ex.c ****     }
 543:./Libraries/STM32F4xx_HAL_Driver/Src/stm32f4xx_hal_rtc_ex.c ****   }
 544:./Libraries/STM32F4xx_HAL_Driver/Src/stm32f4xx_hal_rtc_ex.c ****   
ARM GAS  /tmp/cckIUkG9.s 			page 32


 545:./Libraries/STM32F4xx_HAL_Driver/Src/stm32f4xx_hal_rtc_ex.c ****   /* Get the status of the Interrupt */
 546:./Libraries/STM32F4xx_HAL_Driver/Src/stm32f4xx_hal_rtc_ex.c ****   if(__HAL_RTC_TAMPER_GET_IT(hrtc, RTC_IT_TAMP2))
 1227              		.loc 1 546 6
 1228 0070 7B68     		ldr	r3, [r7, #4]
 1229 0072 1B68     		ldr	r3, [r3]
 1230 0074 DB68     		ldr	r3, [r3, #12]
 1231 0076 03F48043 		and	r3, r3, #16384
 1232              		.loc 1 546 5
 1233 007a 002B     		cmp	r3, #0
 1234 007c 12D0     		beq	.L33
 547:./Libraries/STM32F4xx_HAL_Driver/Src/stm32f4xx_hal_rtc_ex.c ****   {
 548:./Libraries/STM32F4xx_HAL_Driver/Src/stm32f4xx_hal_rtc_ex.c ****     /* Get the TAMPER Interrupt enable bit and pending bit */
 549:./Libraries/STM32F4xx_HAL_Driver/Src/stm32f4xx_hal_rtc_ex.c ****     if(((hrtc->Instance->TAFCR & RTC_TAFCR_TAMPIE)) != (uint32_t)RESET) 
 1235              		.loc 1 549 14
 1236 007e 7B68     		ldr	r3, [r7, #4]
 1237 0080 1B68     		ldr	r3, [r3]
 1238              		.loc 1 549 24
 1239 0082 1B6C     		ldr	r3, [r3, #64]
 1240              		.loc 1 549 32
 1241 0084 03F00403 		and	r3, r3, #4
 1242              		.loc 1 549 7
 1243 0088 002B     		cmp	r3, #0
 1244 008a 0BD0     		beq	.L33
 550:./Libraries/STM32F4xx_HAL_Driver/Src/stm32f4xx_hal_rtc_ex.c ****     {
 551:./Libraries/STM32F4xx_HAL_Driver/Src/stm32f4xx_hal_rtc_ex.c ****       /* Tamper callback */ 
 552:./Libraries/STM32F4xx_HAL_Driver/Src/stm32f4xx_hal_rtc_ex.c ****       HAL_RTCEx_Tamper2EventCallback(hrtc);
 1245              		.loc 1 552 7
 1246 008c 7868     		ldr	r0, [r7, #4]
 1247 008e FFF7FEFF 		bl	HAL_RTCEx_Tamper2EventCallback
 553:./Libraries/STM32F4xx_HAL_Driver/Src/stm32f4xx_hal_rtc_ex.c ****   
 554:./Libraries/STM32F4xx_HAL_Driver/Src/stm32f4xx_hal_rtc_ex.c ****       /* Clear the Tamper interrupt pending bit */
 555:./Libraries/STM32F4xx_HAL_Driver/Src/stm32f4xx_hal_rtc_ex.c ****       __HAL_RTC_TAMPER_CLEAR_FLAG(hrtc, RTC_FLAG_TAMP2F);
 1248              		.loc 1 555 7
 1249 0092 7B68     		ldr	r3, [r7, #4]
 1250 0094 1B68     		ldr	r3, [r3]
 1251 0096 DB68     		ldr	r3, [r3, #12]
 1252 0098 DAB2     		uxtb	r2, r3
 1253 009a 7B68     		ldr	r3, [r7, #4]
 1254 009c 1B68     		ldr	r3, [r3]
 1255 009e 62F48142 		orn	r2, r2, #16512
 1256 00a2 DA60     		str	r2, [r3, #12]
 1257              	.L33:
 556:./Libraries/STM32F4xx_HAL_Driver/Src/stm32f4xx_hal_rtc_ex.c ****     }
 557:./Libraries/STM32F4xx_HAL_Driver/Src/stm32f4xx_hal_rtc_ex.c ****   }
 558:./Libraries/STM32F4xx_HAL_Driver/Src/stm32f4xx_hal_rtc_ex.c ****   /* Clear the EXTI's Flag for RTC TimeStamp and Tamper */
 559:./Libraries/STM32F4xx_HAL_Driver/Src/stm32f4xx_hal_rtc_ex.c ****   __HAL_RTC_TAMPER_TIMESTAMP_EXTI_CLEAR_FLAG();
 1258              		.loc 1 559 3
 1259 00a4 054B     		ldr	r3, .L34
 1260 00a6 4FF40012 		mov	r2, #2097152
 1261 00aa 5A61     		str	r2, [r3, #20]
 560:./Libraries/STM32F4xx_HAL_Driver/Src/stm32f4xx_hal_rtc_ex.c ****   
 561:./Libraries/STM32F4xx_HAL_Driver/Src/stm32f4xx_hal_rtc_ex.c ****   /* Change RTC state */
 562:./Libraries/STM32F4xx_HAL_Driver/Src/stm32f4xx_hal_rtc_ex.c ****   hrtc->State = HAL_RTC_STATE_READY; 
 1262              		.loc 1 562 15
 1263 00ac 7B68     		ldr	r3, [r7, #4]
 1264 00ae 0122     		movs	r2, #1
 1265 00b0 5A77     		strb	r2, [r3, #29]
ARM GAS  /tmp/cckIUkG9.s 			page 33


 563:./Libraries/STM32F4xx_HAL_Driver/Src/stm32f4xx_hal_rtc_ex.c **** }
 1266              		.loc 1 563 1
 1267 00b2 00BF     		nop
 1268 00b4 0837     		adds	r7, r7, #8
 1269              	.LCFI44:
 1270              		.cfi_def_cfa_offset 8
 1271 00b6 BD46     		mov	sp, r7
 1272              	.LCFI45:
 1273              		.cfi_def_cfa_register 13
 1274              		@ sp needed
 1275 00b8 80BD     		pop	{r7, pc}
 1276              	.L35:
 1277 00ba 00BF     		.align	2
 1278              	.L34:
 1279 00bc 003C0140 		.word	1073822720
 1280              		.cfi_endproc
 1281              	.LFE133:
 1283              		.section	.text.HAL_RTCEx_TimeStampEventCallback,"ax",%progbits
 1284              		.align	1
 1285              		.weak	HAL_RTCEx_TimeStampEventCallback
 1286              		.syntax unified
 1287              		.thumb
 1288              		.thumb_func
 1289              		.fpu fpv4-sp-d16
 1291              	HAL_RTCEx_TimeStampEventCallback:
 1292              	.LFB134:
 564:./Libraries/STM32F4xx_HAL_Driver/Src/stm32f4xx_hal_rtc_ex.c **** 
 565:./Libraries/STM32F4xx_HAL_Driver/Src/stm32f4xx_hal_rtc_ex.c **** /**
 566:./Libraries/STM32F4xx_HAL_Driver/Src/stm32f4xx_hal_rtc_ex.c ****   * @brief  TimeStamp callback. 
 567:./Libraries/STM32F4xx_HAL_Driver/Src/stm32f4xx_hal_rtc_ex.c ****   * @param  hrtc pointer to a RTC_HandleTypeDef structure that contains
 568:./Libraries/STM32F4xx_HAL_Driver/Src/stm32f4xx_hal_rtc_ex.c ****   *                the configuration information for RTC.
 569:./Libraries/STM32F4xx_HAL_Driver/Src/stm32f4xx_hal_rtc_ex.c ****   * @retval None
 570:./Libraries/STM32F4xx_HAL_Driver/Src/stm32f4xx_hal_rtc_ex.c ****   */
 571:./Libraries/STM32F4xx_HAL_Driver/Src/stm32f4xx_hal_rtc_ex.c **** __weak void HAL_RTCEx_TimeStampEventCallback(RTC_HandleTypeDef *hrtc)
 572:./Libraries/STM32F4xx_HAL_Driver/Src/stm32f4xx_hal_rtc_ex.c **** {
 1293              		.loc 1 572 1
 1294              		.cfi_startproc
 1295              		@ args = 0, pretend = 0, frame = 8
 1296              		@ frame_needed = 1, uses_anonymous_args = 0
 1297              		@ link register save eliminated.
 1298 0000 80B4     		push	{r7}
 1299              	.LCFI46:
 1300              		.cfi_def_cfa_offset 4
 1301              		.cfi_offset 7, -4
 1302 0002 83B0     		sub	sp, sp, #12
 1303              	.LCFI47:
 1304              		.cfi_def_cfa_offset 16
 1305 0004 00AF     		add	r7, sp, #0
 1306              	.LCFI48:
 1307              		.cfi_def_cfa_register 7
 1308 0006 7860     		str	r0, [r7, #4]
 573:./Libraries/STM32F4xx_HAL_Driver/Src/stm32f4xx_hal_rtc_ex.c ****   /* Prevent unused argument(s) compilation warning */
 574:./Libraries/STM32F4xx_HAL_Driver/Src/stm32f4xx_hal_rtc_ex.c ****   UNUSED(hrtc);
 575:./Libraries/STM32F4xx_HAL_Driver/Src/stm32f4xx_hal_rtc_ex.c ****   /* NOTE : This function Should not be modified, when the callback is needed,
 576:./Libraries/STM32F4xx_HAL_Driver/Src/stm32f4xx_hal_rtc_ex.c ****             the HAL_RTC_TimeStampEventCallback could be implemented in the user file
 577:./Libraries/STM32F4xx_HAL_Driver/Src/stm32f4xx_hal_rtc_ex.c ****   */
 578:./Libraries/STM32F4xx_HAL_Driver/Src/stm32f4xx_hal_rtc_ex.c **** }
ARM GAS  /tmp/cckIUkG9.s 			page 34


 1309              		.loc 1 578 1
 1310 0008 00BF     		nop
 1311 000a 0C37     		adds	r7, r7, #12
 1312              	.LCFI49:
 1313              		.cfi_def_cfa_offset 4
 1314 000c BD46     		mov	sp, r7
 1315              	.LCFI50:
 1316              		.cfi_def_cfa_register 13
 1317              		@ sp needed
 1318 000e 5DF8047B 		ldr	r7, [sp], #4
 1319              	.LCFI51:
 1320              		.cfi_restore 7
 1321              		.cfi_def_cfa_offset 0
 1322 0012 7047     		bx	lr
 1323              		.cfi_endproc
 1324              	.LFE134:
 1326              		.section	.text.HAL_RTCEx_Tamper1EventCallback,"ax",%progbits
 1327              		.align	1
 1328              		.weak	HAL_RTCEx_Tamper1EventCallback
 1329              		.syntax unified
 1330              		.thumb
 1331              		.thumb_func
 1332              		.fpu fpv4-sp-d16
 1334              	HAL_RTCEx_Tamper1EventCallback:
 1335              	.LFB135:
 579:./Libraries/STM32F4xx_HAL_Driver/Src/stm32f4xx_hal_rtc_ex.c **** 
 580:./Libraries/STM32F4xx_HAL_Driver/Src/stm32f4xx_hal_rtc_ex.c **** /**
 581:./Libraries/STM32F4xx_HAL_Driver/Src/stm32f4xx_hal_rtc_ex.c ****   * @brief  Tamper 1 callback. 
 582:./Libraries/STM32F4xx_HAL_Driver/Src/stm32f4xx_hal_rtc_ex.c ****   * @param  hrtc pointer to a RTC_HandleTypeDef structure that contains
 583:./Libraries/STM32F4xx_HAL_Driver/Src/stm32f4xx_hal_rtc_ex.c ****   *                the configuration information for RTC.
 584:./Libraries/STM32F4xx_HAL_Driver/Src/stm32f4xx_hal_rtc_ex.c ****   * @retval None
 585:./Libraries/STM32F4xx_HAL_Driver/Src/stm32f4xx_hal_rtc_ex.c ****   */
 586:./Libraries/STM32F4xx_HAL_Driver/Src/stm32f4xx_hal_rtc_ex.c **** __weak void HAL_RTCEx_Tamper1EventCallback(RTC_HandleTypeDef *hrtc)
 587:./Libraries/STM32F4xx_HAL_Driver/Src/stm32f4xx_hal_rtc_ex.c **** {
 1336              		.loc 1 587 1
 1337              		.cfi_startproc
 1338              		@ args = 0, pretend = 0, frame = 8
 1339              		@ frame_needed = 1, uses_anonymous_args = 0
 1340              		@ link register save eliminated.
 1341 0000 80B4     		push	{r7}
 1342              	.LCFI52:
 1343              		.cfi_def_cfa_offset 4
 1344              		.cfi_offset 7, -4
 1345 0002 83B0     		sub	sp, sp, #12
 1346              	.LCFI53:
 1347              		.cfi_def_cfa_offset 16
 1348 0004 00AF     		add	r7, sp, #0
 1349              	.LCFI54:
 1350              		.cfi_def_cfa_register 7
 1351 0006 7860     		str	r0, [r7, #4]
 588:./Libraries/STM32F4xx_HAL_Driver/Src/stm32f4xx_hal_rtc_ex.c ****   /* Prevent unused argument(s) compilation warning */
 589:./Libraries/STM32F4xx_HAL_Driver/Src/stm32f4xx_hal_rtc_ex.c ****   UNUSED(hrtc);
 590:./Libraries/STM32F4xx_HAL_Driver/Src/stm32f4xx_hal_rtc_ex.c ****   /* NOTE : This function Should not be modified, when the callback is needed,
 591:./Libraries/STM32F4xx_HAL_Driver/Src/stm32f4xx_hal_rtc_ex.c ****             the HAL_RTC_Tamper1EventCallback could be implemented in the user file
 592:./Libraries/STM32F4xx_HAL_Driver/Src/stm32f4xx_hal_rtc_ex.c ****    */
 593:./Libraries/STM32F4xx_HAL_Driver/Src/stm32f4xx_hal_rtc_ex.c **** }
 1352              		.loc 1 593 1
ARM GAS  /tmp/cckIUkG9.s 			page 35


 1353 0008 00BF     		nop
 1354 000a 0C37     		adds	r7, r7, #12
 1355              	.LCFI55:
 1356              		.cfi_def_cfa_offset 4
 1357 000c BD46     		mov	sp, r7
 1358              	.LCFI56:
 1359              		.cfi_def_cfa_register 13
 1360              		@ sp needed
 1361 000e 5DF8047B 		ldr	r7, [sp], #4
 1362              	.LCFI57:
 1363              		.cfi_restore 7
 1364              		.cfi_def_cfa_offset 0
 1365 0012 7047     		bx	lr
 1366              		.cfi_endproc
 1367              	.LFE135:
 1369              		.section	.text.HAL_RTCEx_Tamper2EventCallback,"ax",%progbits
 1370              		.align	1
 1371              		.weak	HAL_RTCEx_Tamper2EventCallback
 1372              		.syntax unified
 1373              		.thumb
 1374              		.thumb_func
 1375              		.fpu fpv4-sp-d16
 1377              	HAL_RTCEx_Tamper2EventCallback:
 1378              	.LFB136:
 594:./Libraries/STM32F4xx_HAL_Driver/Src/stm32f4xx_hal_rtc_ex.c **** 
 595:./Libraries/STM32F4xx_HAL_Driver/Src/stm32f4xx_hal_rtc_ex.c **** /**
 596:./Libraries/STM32F4xx_HAL_Driver/Src/stm32f4xx_hal_rtc_ex.c ****   * @brief  Tamper 2 callback. 
 597:./Libraries/STM32F4xx_HAL_Driver/Src/stm32f4xx_hal_rtc_ex.c ****   * @param  hrtc pointer to a RTC_HandleTypeDef structure that contains
 598:./Libraries/STM32F4xx_HAL_Driver/Src/stm32f4xx_hal_rtc_ex.c ****   *                the configuration information for RTC.
 599:./Libraries/STM32F4xx_HAL_Driver/Src/stm32f4xx_hal_rtc_ex.c ****   * @retval None
 600:./Libraries/STM32F4xx_HAL_Driver/Src/stm32f4xx_hal_rtc_ex.c ****   */
 601:./Libraries/STM32F4xx_HAL_Driver/Src/stm32f4xx_hal_rtc_ex.c **** __weak void HAL_RTCEx_Tamper2EventCallback(RTC_HandleTypeDef *hrtc)
 602:./Libraries/STM32F4xx_HAL_Driver/Src/stm32f4xx_hal_rtc_ex.c **** {
 1379              		.loc 1 602 1
 1380              		.cfi_startproc
 1381              		@ args = 0, pretend = 0, frame = 8
 1382              		@ frame_needed = 1, uses_anonymous_args = 0
 1383              		@ link register save eliminated.
 1384 0000 80B4     		push	{r7}
 1385              	.LCFI58:
 1386              		.cfi_def_cfa_offset 4
 1387              		.cfi_offset 7, -4
 1388 0002 83B0     		sub	sp, sp, #12
 1389              	.LCFI59:
 1390              		.cfi_def_cfa_offset 16
 1391 0004 00AF     		add	r7, sp, #0
 1392              	.LCFI60:
 1393              		.cfi_def_cfa_register 7
 1394 0006 7860     		str	r0, [r7, #4]
 603:./Libraries/STM32F4xx_HAL_Driver/Src/stm32f4xx_hal_rtc_ex.c ****   /* Prevent unused argument(s) compilation warning */
 604:./Libraries/STM32F4xx_HAL_Driver/Src/stm32f4xx_hal_rtc_ex.c ****   UNUSED(hrtc);
 605:./Libraries/STM32F4xx_HAL_Driver/Src/stm32f4xx_hal_rtc_ex.c ****   /* NOTE : This function Should not be modified, when the callback is needed,
 606:./Libraries/STM32F4xx_HAL_Driver/Src/stm32f4xx_hal_rtc_ex.c ****             the HAL_RTC_Tamper2EventCallback could be implemented in the user file
 607:./Libraries/STM32F4xx_HAL_Driver/Src/stm32f4xx_hal_rtc_ex.c ****    */
 608:./Libraries/STM32F4xx_HAL_Driver/Src/stm32f4xx_hal_rtc_ex.c **** }
 1395              		.loc 1 608 1
 1396 0008 00BF     		nop
ARM GAS  /tmp/cckIUkG9.s 			page 36


 1397 000a 0C37     		adds	r7, r7, #12
 1398              	.LCFI61:
 1399              		.cfi_def_cfa_offset 4
 1400 000c BD46     		mov	sp, r7
 1401              	.LCFI62:
 1402              		.cfi_def_cfa_register 13
 1403              		@ sp needed
 1404 000e 5DF8047B 		ldr	r7, [sp], #4
 1405              	.LCFI63:
 1406              		.cfi_restore 7
 1407              		.cfi_def_cfa_offset 0
 1408 0012 7047     		bx	lr
 1409              		.cfi_endproc
 1410              	.LFE136:
 1412              		.section	.text.HAL_RTCEx_PollForTimeStampEvent,"ax",%progbits
 1413              		.align	1
 1414              		.global	HAL_RTCEx_PollForTimeStampEvent
 1415              		.syntax unified
 1416              		.thumb
 1417              		.thumb_func
 1418              		.fpu fpv4-sp-d16
 1420              	HAL_RTCEx_PollForTimeStampEvent:
 1421              	.LFB137:
 609:./Libraries/STM32F4xx_HAL_Driver/Src/stm32f4xx_hal_rtc_ex.c **** 
 610:./Libraries/STM32F4xx_HAL_Driver/Src/stm32f4xx_hal_rtc_ex.c **** /**
 611:./Libraries/STM32F4xx_HAL_Driver/Src/stm32f4xx_hal_rtc_ex.c ****   * @brief  This function handles TimeStamp polling request.
 612:./Libraries/STM32F4xx_HAL_Driver/Src/stm32f4xx_hal_rtc_ex.c ****   * @param  hrtc pointer to a RTC_HandleTypeDef structure that contains
 613:./Libraries/STM32F4xx_HAL_Driver/Src/stm32f4xx_hal_rtc_ex.c ****   *                the configuration information for RTC.
 614:./Libraries/STM32F4xx_HAL_Driver/Src/stm32f4xx_hal_rtc_ex.c ****   * @param  Timeout Timeout duration
 615:./Libraries/STM32F4xx_HAL_Driver/Src/stm32f4xx_hal_rtc_ex.c ****   * @retval HAL status
 616:./Libraries/STM32F4xx_HAL_Driver/Src/stm32f4xx_hal_rtc_ex.c ****   */
 617:./Libraries/STM32F4xx_HAL_Driver/Src/stm32f4xx_hal_rtc_ex.c **** HAL_StatusTypeDef HAL_RTCEx_PollForTimeStampEvent(RTC_HandleTypeDef *hrtc, uint32_t Timeout)
 618:./Libraries/STM32F4xx_HAL_Driver/Src/stm32f4xx_hal_rtc_ex.c **** { 
 1422              		.loc 1 618 1
 1423              		.cfi_startproc
 1424              		@ args = 0, pretend = 0, frame = 16
 1425              		@ frame_needed = 1, uses_anonymous_args = 0
 1426 0000 80B5     		push	{r7, lr}
 1427              	.LCFI64:
 1428              		.cfi_def_cfa_offset 8
 1429              		.cfi_offset 7, -8
 1430              		.cfi_offset 14, -4
 1431 0002 84B0     		sub	sp, sp, #16
 1432              	.LCFI65:
 1433              		.cfi_def_cfa_offset 24
 1434 0004 00AF     		add	r7, sp, #0
 1435              	.LCFI66:
 1436              		.cfi_def_cfa_register 7
 1437 0006 7860     		str	r0, [r7, #4]
 1438 0008 3960     		str	r1, [r7]
 619:./Libraries/STM32F4xx_HAL_Driver/Src/stm32f4xx_hal_rtc_ex.c ****   uint32_t tickstart = 0U; 
 1439              		.loc 1 619 12
 1440 000a 0023     		movs	r3, #0
 1441 000c FB60     		str	r3, [r7, #12]
 620:./Libraries/STM32F4xx_HAL_Driver/Src/stm32f4xx_hal_rtc_ex.c **** 
 621:./Libraries/STM32F4xx_HAL_Driver/Src/stm32f4xx_hal_rtc_ex.c ****   /* Get tick */
 622:./Libraries/STM32F4xx_HAL_Driver/Src/stm32f4xx_hal_rtc_ex.c ****   tickstart = HAL_GetTick();
ARM GAS  /tmp/cckIUkG9.s 			page 37


 1442              		.loc 1 622 15
 1443 000e FFF7FEFF 		bl	HAL_GetTick
 1444 0012 F860     		str	r0, [r7, #12]
 623:./Libraries/STM32F4xx_HAL_Driver/Src/stm32f4xx_hal_rtc_ex.c **** 
 624:./Libraries/STM32F4xx_HAL_Driver/Src/stm32f4xx_hal_rtc_ex.c ****   while(__HAL_RTC_TIMESTAMP_GET_FLAG(hrtc, RTC_FLAG_TSF) == RESET)
 1445              		.loc 1 624 8
 1446 0014 28E0     		b	.L40
 1447              	.L44:
 625:./Libraries/STM32F4xx_HAL_Driver/Src/stm32f4xx_hal_rtc_ex.c ****   {
 626:./Libraries/STM32F4xx_HAL_Driver/Src/stm32f4xx_hal_rtc_ex.c ****     if(__HAL_RTC_TIMESTAMP_GET_FLAG(hrtc, RTC_FLAG_TSOVF) != RESET)
 1448              		.loc 1 626 8
 1449 0016 7B68     		ldr	r3, [r7, #4]
 1450 0018 1B68     		ldr	r3, [r3]
 1451 001a DB68     		ldr	r3, [r3, #12]
 1452 001c 03F48053 		and	r3, r3, #4096
 1453              		.loc 1 626 7
 1454 0020 002B     		cmp	r3, #0
 1455 0022 0DD0     		beq	.L41
 627:./Libraries/STM32F4xx_HAL_Driver/Src/stm32f4xx_hal_rtc_ex.c ****     {
 628:./Libraries/STM32F4xx_HAL_Driver/Src/stm32f4xx_hal_rtc_ex.c ****       /* Clear the TIMESTAMP Overrun Flag */
 629:./Libraries/STM32F4xx_HAL_Driver/Src/stm32f4xx_hal_rtc_ex.c ****       __HAL_RTC_TIMESTAMP_CLEAR_FLAG(hrtc, RTC_FLAG_TSOVF);
 1456              		.loc 1 629 7
 1457 0024 7B68     		ldr	r3, [r7, #4]
 1458 0026 1B68     		ldr	r3, [r3]
 1459 0028 DB68     		ldr	r3, [r3, #12]
 1460 002a DAB2     		uxtb	r2, r3
 1461 002c 7B68     		ldr	r3, [r7, #4]
 1462 002e 1B68     		ldr	r3, [r3]
 1463 0030 62F48452 		orn	r2, r2, #4224
 1464 0034 DA60     		str	r2, [r3, #12]
 630:./Libraries/STM32F4xx_HAL_Driver/Src/stm32f4xx_hal_rtc_ex.c ****       
 631:./Libraries/STM32F4xx_HAL_Driver/Src/stm32f4xx_hal_rtc_ex.c ****       /* Change TIMESTAMP state */
 632:./Libraries/STM32F4xx_HAL_Driver/Src/stm32f4xx_hal_rtc_ex.c ****       hrtc->State = HAL_RTC_STATE_ERROR; 
 1465              		.loc 1 632 19
 1466 0036 7B68     		ldr	r3, [r7, #4]
 1467 0038 0422     		movs	r2, #4
 1468 003a 5A77     		strb	r2, [r3, #29]
 633:./Libraries/STM32F4xx_HAL_Driver/Src/stm32f4xx_hal_rtc_ex.c ****       
 634:./Libraries/STM32F4xx_HAL_Driver/Src/stm32f4xx_hal_rtc_ex.c ****       return HAL_ERROR; 
 1469              		.loc 1 634 14
 1470 003c 0123     		movs	r3, #1
 1471 003e 1EE0     		b	.L42
 1472              	.L41:
 635:./Libraries/STM32F4xx_HAL_Driver/Src/stm32f4xx_hal_rtc_ex.c ****     }
 636:./Libraries/STM32F4xx_HAL_Driver/Src/stm32f4xx_hal_rtc_ex.c ****     
 637:./Libraries/STM32F4xx_HAL_Driver/Src/stm32f4xx_hal_rtc_ex.c ****     if(Timeout != HAL_MAX_DELAY)
 1473              		.loc 1 637 7
 1474 0040 3B68     		ldr	r3, [r7]
 1475 0042 B3F1FF3F 		cmp	r3, #-1
 1476 0046 0FD0     		beq	.L40
 638:./Libraries/STM32F4xx_HAL_Driver/Src/stm32f4xx_hal_rtc_ex.c ****     {
 639:./Libraries/STM32F4xx_HAL_Driver/Src/stm32f4xx_hal_rtc_ex.c ****       if((Timeout == 0U)||((HAL_GetTick() - tickstart ) > Timeout))
 1477              		.loc 1 639 9
 1478 0048 3B68     		ldr	r3, [r7]
 1479 004a 002B     		cmp	r3, #0
 1480 004c 07D0     		beq	.L43
 1481              		.loc 1 639 29 discriminator 1
ARM GAS  /tmp/cckIUkG9.s 			page 38


 1482 004e FFF7FEFF 		bl	HAL_GetTick
 1483 0052 0246     		mov	r2, r0
 1484              		.loc 1 639 43 discriminator 1
 1485 0054 FB68     		ldr	r3, [r7, #12]
 1486 0056 D31A     		subs	r3, r2, r3
 1487              		.loc 1 639 25 discriminator 1
 1488 0058 3A68     		ldr	r2, [r7]
 1489 005a 9A42     		cmp	r2, r3
 1490 005c 04D2     		bcs	.L40
 1491              	.L43:
 640:./Libraries/STM32F4xx_HAL_Driver/Src/stm32f4xx_hal_rtc_ex.c ****       {
 641:./Libraries/STM32F4xx_HAL_Driver/Src/stm32f4xx_hal_rtc_ex.c ****         hrtc->State = HAL_RTC_STATE_TIMEOUT;
 1492              		.loc 1 641 21
 1493 005e 7B68     		ldr	r3, [r7, #4]
 1494 0060 0322     		movs	r2, #3
 1495 0062 5A77     		strb	r2, [r3, #29]
 642:./Libraries/STM32F4xx_HAL_Driver/Src/stm32f4xx_hal_rtc_ex.c ****         return HAL_TIMEOUT;
 1496              		.loc 1 642 16
 1497 0064 0323     		movs	r3, #3
 1498 0066 0AE0     		b	.L42
 1499              	.L40:
 624:./Libraries/STM32F4xx_HAL_Driver/Src/stm32f4xx_hal_rtc_ex.c ****   {
 1500              		.loc 1 624 9
 1501 0068 7B68     		ldr	r3, [r7, #4]
 1502 006a 1B68     		ldr	r3, [r3]
 1503 006c DB68     		ldr	r3, [r3, #12]
 1504 006e 03F40063 		and	r3, r3, #2048
 624:./Libraries/STM32F4xx_HAL_Driver/Src/stm32f4xx_hal_rtc_ex.c ****   {
 1505              		.loc 1 624 8
 1506 0072 002B     		cmp	r3, #0
 1507 0074 CFD0     		beq	.L44
 643:./Libraries/STM32F4xx_HAL_Driver/Src/stm32f4xx_hal_rtc_ex.c ****       }
 644:./Libraries/STM32F4xx_HAL_Driver/Src/stm32f4xx_hal_rtc_ex.c ****     }
 645:./Libraries/STM32F4xx_HAL_Driver/Src/stm32f4xx_hal_rtc_ex.c ****   }
 646:./Libraries/STM32F4xx_HAL_Driver/Src/stm32f4xx_hal_rtc_ex.c ****   
 647:./Libraries/STM32F4xx_HAL_Driver/Src/stm32f4xx_hal_rtc_ex.c ****   /* Change RTC state */
 648:./Libraries/STM32F4xx_HAL_Driver/Src/stm32f4xx_hal_rtc_ex.c ****   hrtc->State = HAL_RTC_STATE_READY; 
 1508              		.loc 1 648 15
 1509 0076 7B68     		ldr	r3, [r7, #4]
 1510 0078 0122     		movs	r2, #1
 1511 007a 5A77     		strb	r2, [r3, #29]
 649:./Libraries/STM32F4xx_HAL_Driver/Src/stm32f4xx_hal_rtc_ex.c ****   
 650:./Libraries/STM32F4xx_HAL_Driver/Src/stm32f4xx_hal_rtc_ex.c ****   return HAL_OK; 
 1512              		.loc 1 650 10
 1513 007c 0023     		movs	r3, #0
 1514              	.L42:
 651:./Libraries/STM32F4xx_HAL_Driver/Src/stm32f4xx_hal_rtc_ex.c **** }
 1515              		.loc 1 651 1
 1516 007e 1846     		mov	r0, r3
 1517 0080 1037     		adds	r7, r7, #16
 1518              	.LCFI67:
 1519              		.cfi_def_cfa_offset 8
 1520 0082 BD46     		mov	sp, r7
 1521              	.LCFI68:
 1522              		.cfi_def_cfa_register 13
 1523              		@ sp needed
 1524 0084 80BD     		pop	{r7, pc}
ARM GAS  /tmp/cckIUkG9.s 			page 39


 1525              		.cfi_endproc
 1526              	.LFE137:
 1528              		.section	.text.HAL_RTCEx_PollForTamper1Event,"ax",%progbits
 1529              		.align	1
 1530              		.global	HAL_RTCEx_PollForTamper1Event
 1531              		.syntax unified
 1532              		.thumb
 1533              		.thumb_func
 1534              		.fpu fpv4-sp-d16
 1536              	HAL_RTCEx_PollForTamper1Event:
 1537              	.LFB138:
 652:./Libraries/STM32F4xx_HAL_Driver/Src/stm32f4xx_hal_rtc_ex.c ****   
 653:./Libraries/STM32F4xx_HAL_Driver/Src/stm32f4xx_hal_rtc_ex.c **** /**
 654:./Libraries/STM32F4xx_HAL_Driver/Src/stm32f4xx_hal_rtc_ex.c ****   * @brief  This function handles Tamper1 Polling.
 655:./Libraries/STM32F4xx_HAL_Driver/Src/stm32f4xx_hal_rtc_ex.c ****   * @param  hrtc pointer to a RTC_HandleTypeDef structure that contains
 656:./Libraries/STM32F4xx_HAL_Driver/Src/stm32f4xx_hal_rtc_ex.c ****   *                the configuration information for RTC.
 657:./Libraries/STM32F4xx_HAL_Driver/Src/stm32f4xx_hal_rtc_ex.c ****   * @param  Timeout Timeout duration
 658:./Libraries/STM32F4xx_HAL_Driver/Src/stm32f4xx_hal_rtc_ex.c ****   * @retval HAL status
 659:./Libraries/STM32F4xx_HAL_Driver/Src/stm32f4xx_hal_rtc_ex.c ****   */
 660:./Libraries/STM32F4xx_HAL_Driver/Src/stm32f4xx_hal_rtc_ex.c **** HAL_StatusTypeDef HAL_RTCEx_PollForTamper1Event(RTC_HandleTypeDef *hrtc, uint32_t Timeout)
 661:./Libraries/STM32F4xx_HAL_Driver/Src/stm32f4xx_hal_rtc_ex.c **** {  
 1538              		.loc 1 661 1
 1539              		.cfi_startproc
 1540              		@ args = 0, pretend = 0, frame = 16
 1541              		@ frame_needed = 1, uses_anonymous_args = 0
 1542 0000 80B5     		push	{r7, lr}
 1543              	.LCFI69:
 1544              		.cfi_def_cfa_offset 8
 1545              		.cfi_offset 7, -8
 1546              		.cfi_offset 14, -4
 1547 0002 84B0     		sub	sp, sp, #16
 1548              	.LCFI70:
 1549              		.cfi_def_cfa_offset 24
 1550 0004 00AF     		add	r7, sp, #0
 1551              	.LCFI71:
 1552              		.cfi_def_cfa_register 7
 1553 0006 7860     		str	r0, [r7, #4]
 1554 0008 3960     		str	r1, [r7]
 662:./Libraries/STM32F4xx_HAL_Driver/Src/stm32f4xx_hal_rtc_ex.c ****   uint32_t tickstart = 0U; 
 1555              		.loc 1 662 12
 1556 000a 0023     		movs	r3, #0
 1557 000c FB60     		str	r3, [r7, #12]
 663:./Libraries/STM32F4xx_HAL_Driver/Src/stm32f4xx_hal_rtc_ex.c **** 
 664:./Libraries/STM32F4xx_HAL_Driver/Src/stm32f4xx_hal_rtc_ex.c ****   /* Get tick */
 665:./Libraries/STM32F4xx_HAL_Driver/Src/stm32f4xx_hal_rtc_ex.c ****   tickstart = HAL_GetTick();
 1558              		.loc 1 665 15
 1559 000e FFF7FEFF 		bl	HAL_GetTick
 1560 0012 F860     		str	r0, [r7, #12]
 666:./Libraries/STM32F4xx_HAL_Driver/Src/stm32f4xx_hal_rtc_ex.c ****   
 667:./Libraries/STM32F4xx_HAL_Driver/Src/stm32f4xx_hal_rtc_ex.c ****   /* Get the status of the Interrupt */
 668:./Libraries/STM32F4xx_HAL_Driver/Src/stm32f4xx_hal_rtc_ex.c ****   while(__HAL_RTC_TAMPER_GET_FLAG(hrtc, RTC_FLAG_TAMP1F)== RESET)
 1561              		.loc 1 668 8
 1562 0014 13E0     		b	.L46
 1563              	.L49:
 669:./Libraries/STM32F4xx_HAL_Driver/Src/stm32f4xx_hal_rtc_ex.c ****   {
 670:./Libraries/STM32F4xx_HAL_Driver/Src/stm32f4xx_hal_rtc_ex.c ****     if(Timeout != HAL_MAX_DELAY)
 1564              		.loc 1 670 7
ARM GAS  /tmp/cckIUkG9.s 			page 40


 1565 0016 3B68     		ldr	r3, [r7]
 1566 0018 B3F1FF3F 		cmp	r3, #-1
 1567 001c 0FD0     		beq	.L46
 671:./Libraries/STM32F4xx_HAL_Driver/Src/stm32f4xx_hal_rtc_ex.c ****     {
 672:./Libraries/STM32F4xx_HAL_Driver/Src/stm32f4xx_hal_rtc_ex.c ****       if((Timeout == 0U)||((HAL_GetTick() - tickstart ) > Timeout))
 1568              		.loc 1 672 9
 1569 001e 3B68     		ldr	r3, [r7]
 1570 0020 002B     		cmp	r3, #0
 1571 0022 07D0     		beq	.L47
 1572              		.loc 1 672 29 discriminator 1
 1573 0024 FFF7FEFF 		bl	HAL_GetTick
 1574 0028 0246     		mov	r2, r0
 1575              		.loc 1 672 43 discriminator 1
 1576 002a FB68     		ldr	r3, [r7, #12]
 1577 002c D31A     		subs	r3, r2, r3
 1578              		.loc 1 672 25 discriminator 1
 1579 002e 3A68     		ldr	r2, [r7]
 1580 0030 9A42     		cmp	r2, r3
 1581 0032 04D2     		bcs	.L46
 1582              	.L47:
 673:./Libraries/STM32F4xx_HAL_Driver/Src/stm32f4xx_hal_rtc_ex.c ****       {
 674:./Libraries/STM32F4xx_HAL_Driver/Src/stm32f4xx_hal_rtc_ex.c ****         hrtc->State = HAL_RTC_STATE_TIMEOUT;
 1583              		.loc 1 674 21
 1584 0034 7B68     		ldr	r3, [r7, #4]
 1585 0036 0322     		movs	r2, #3
 1586 0038 5A77     		strb	r2, [r3, #29]
 675:./Libraries/STM32F4xx_HAL_Driver/Src/stm32f4xx_hal_rtc_ex.c ****         return HAL_TIMEOUT;
 1587              		.loc 1 675 16
 1588 003a 0323     		movs	r3, #3
 1589 003c 13E0     		b	.L48
 1590              	.L46:
 668:./Libraries/STM32F4xx_HAL_Driver/Src/stm32f4xx_hal_rtc_ex.c ****   {
 1591              		.loc 1 668 9
 1592 003e 7B68     		ldr	r3, [r7, #4]
 1593 0040 1B68     		ldr	r3, [r3]
 1594 0042 DB68     		ldr	r3, [r3, #12]
 1595 0044 03F40053 		and	r3, r3, #8192
 668:./Libraries/STM32F4xx_HAL_Driver/Src/stm32f4xx_hal_rtc_ex.c ****   {
 1596              		.loc 1 668 8
 1597 0048 002B     		cmp	r3, #0
 1598 004a E4D0     		beq	.L49
 676:./Libraries/STM32F4xx_HAL_Driver/Src/stm32f4xx_hal_rtc_ex.c ****       }
 677:./Libraries/STM32F4xx_HAL_Driver/Src/stm32f4xx_hal_rtc_ex.c ****     }
 678:./Libraries/STM32F4xx_HAL_Driver/Src/stm32f4xx_hal_rtc_ex.c ****   }
 679:./Libraries/STM32F4xx_HAL_Driver/Src/stm32f4xx_hal_rtc_ex.c ****   
 680:./Libraries/STM32F4xx_HAL_Driver/Src/stm32f4xx_hal_rtc_ex.c ****   /* Clear the Tamper Flag */
 681:./Libraries/STM32F4xx_HAL_Driver/Src/stm32f4xx_hal_rtc_ex.c ****   __HAL_RTC_TAMPER_CLEAR_FLAG(hrtc,RTC_FLAG_TAMP1F);
 1599              		.loc 1 681 3
 1600 004c 7B68     		ldr	r3, [r7, #4]
 1601 004e 1B68     		ldr	r3, [r3]
 1602 0050 DB68     		ldr	r3, [r3, #12]
 1603 0052 DAB2     		uxtb	r2, r3
 1604 0054 7B68     		ldr	r3, [r7, #4]
 1605 0056 1B68     		ldr	r3, [r3]
 1606 0058 62F40252 		orn	r2, r2, #8320
 1607 005c DA60     		str	r2, [r3, #12]
 682:./Libraries/STM32F4xx_HAL_Driver/Src/stm32f4xx_hal_rtc_ex.c ****   
ARM GAS  /tmp/cckIUkG9.s 			page 41


 683:./Libraries/STM32F4xx_HAL_Driver/Src/stm32f4xx_hal_rtc_ex.c ****   /* Change RTC state */
 684:./Libraries/STM32F4xx_HAL_Driver/Src/stm32f4xx_hal_rtc_ex.c ****   hrtc->State = HAL_RTC_STATE_READY;
 1608              		.loc 1 684 15
 1609 005e 7B68     		ldr	r3, [r7, #4]
 1610 0060 0122     		movs	r2, #1
 1611 0062 5A77     		strb	r2, [r3, #29]
 685:./Libraries/STM32F4xx_HAL_Driver/Src/stm32f4xx_hal_rtc_ex.c ****   
 686:./Libraries/STM32F4xx_HAL_Driver/Src/stm32f4xx_hal_rtc_ex.c ****   return HAL_OK; 
 1612              		.loc 1 686 10
 1613 0064 0023     		movs	r3, #0
 1614              	.L48:
 687:./Libraries/STM32F4xx_HAL_Driver/Src/stm32f4xx_hal_rtc_ex.c **** }
 1615              		.loc 1 687 1
 1616 0066 1846     		mov	r0, r3
 1617 0068 1037     		adds	r7, r7, #16
 1618              	.LCFI72:
 1619              		.cfi_def_cfa_offset 8
 1620 006a BD46     		mov	sp, r7
 1621              	.LCFI73:
 1622              		.cfi_def_cfa_register 13
 1623              		@ sp needed
 1624 006c 80BD     		pop	{r7, pc}
 1625              		.cfi_endproc
 1626              	.LFE138:
 1628              		.section	.text.HAL_RTCEx_PollForTamper2Event,"ax",%progbits
 1629              		.align	1
 1630              		.global	HAL_RTCEx_PollForTamper2Event
 1631              		.syntax unified
 1632              		.thumb
 1633              		.thumb_func
 1634              		.fpu fpv4-sp-d16
 1636              	HAL_RTCEx_PollForTamper2Event:
 1637              	.LFB139:
 688:./Libraries/STM32F4xx_HAL_Driver/Src/stm32f4xx_hal_rtc_ex.c **** 
 689:./Libraries/STM32F4xx_HAL_Driver/Src/stm32f4xx_hal_rtc_ex.c **** /**
 690:./Libraries/STM32F4xx_HAL_Driver/Src/stm32f4xx_hal_rtc_ex.c ****   * @brief  This function handles Tamper2 Polling.
 691:./Libraries/STM32F4xx_HAL_Driver/Src/stm32f4xx_hal_rtc_ex.c ****   * @param  hrtc pointer to a RTC_HandleTypeDef structure that contains
 692:./Libraries/STM32F4xx_HAL_Driver/Src/stm32f4xx_hal_rtc_ex.c ****   *                the configuration information for RTC.
 693:./Libraries/STM32F4xx_HAL_Driver/Src/stm32f4xx_hal_rtc_ex.c ****   * @param  Timeout Timeout duration
 694:./Libraries/STM32F4xx_HAL_Driver/Src/stm32f4xx_hal_rtc_ex.c ****   * @retval HAL status
 695:./Libraries/STM32F4xx_HAL_Driver/Src/stm32f4xx_hal_rtc_ex.c ****   */
 696:./Libraries/STM32F4xx_HAL_Driver/Src/stm32f4xx_hal_rtc_ex.c **** HAL_StatusTypeDef HAL_RTCEx_PollForTamper2Event(RTC_HandleTypeDef *hrtc, uint32_t Timeout)
 697:./Libraries/STM32F4xx_HAL_Driver/Src/stm32f4xx_hal_rtc_ex.c **** {  
 1638              		.loc 1 697 1
 1639              		.cfi_startproc
 1640              		@ args = 0, pretend = 0, frame = 16
 1641              		@ frame_needed = 1, uses_anonymous_args = 0
 1642 0000 80B5     		push	{r7, lr}
 1643              	.LCFI74:
 1644              		.cfi_def_cfa_offset 8
 1645              		.cfi_offset 7, -8
 1646              		.cfi_offset 14, -4
 1647 0002 84B0     		sub	sp, sp, #16
 1648              	.LCFI75:
 1649              		.cfi_def_cfa_offset 24
 1650 0004 00AF     		add	r7, sp, #0
 1651              	.LCFI76:
ARM GAS  /tmp/cckIUkG9.s 			page 42


 1652              		.cfi_def_cfa_register 7
 1653 0006 7860     		str	r0, [r7, #4]
 1654 0008 3960     		str	r1, [r7]
 698:./Libraries/STM32F4xx_HAL_Driver/Src/stm32f4xx_hal_rtc_ex.c ****   uint32_t tickstart = 0U; 
 1655              		.loc 1 698 12
 1656 000a 0023     		movs	r3, #0
 1657 000c FB60     		str	r3, [r7, #12]
 699:./Libraries/STM32F4xx_HAL_Driver/Src/stm32f4xx_hal_rtc_ex.c **** 
 700:./Libraries/STM32F4xx_HAL_Driver/Src/stm32f4xx_hal_rtc_ex.c ****   /* Get tick */
 701:./Libraries/STM32F4xx_HAL_Driver/Src/stm32f4xx_hal_rtc_ex.c ****   tickstart = HAL_GetTick();
 1658              		.loc 1 701 15
 1659 000e FFF7FEFF 		bl	HAL_GetTick
 1660 0012 F860     		str	r0, [r7, #12]
 702:./Libraries/STM32F4xx_HAL_Driver/Src/stm32f4xx_hal_rtc_ex.c ****   
 703:./Libraries/STM32F4xx_HAL_Driver/Src/stm32f4xx_hal_rtc_ex.c ****   /* Get the status of the Interrupt */
 704:./Libraries/STM32F4xx_HAL_Driver/Src/stm32f4xx_hal_rtc_ex.c ****   while(__HAL_RTC_TAMPER_GET_FLAG(hrtc, RTC_FLAG_TAMP2F) == RESET)
 1661              		.loc 1 704 8
 1662 0014 13E0     		b	.L51
 1663              	.L54:
 705:./Libraries/STM32F4xx_HAL_Driver/Src/stm32f4xx_hal_rtc_ex.c ****   {
 706:./Libraries/STM32F4xx_HAL_Driver/Src/stm32f4xx_hal_rtc_ex.c ****     if(Timeout != HAL_MAX_DELAY)
 1664              		.loc 1 706 7
 1665 0016 3B68     		ldr	r3, [r7]
 1666 0018 B3F1FF3F 		cmp	r3, #-1
 1667 001c 0FD0     		beq	.L51
 707:./Libraries/STM32F4xx_HAL_Driver/Src/stm32f4xx_hal_rtc_ex.c ****     {
 708:./Libraries/STM32F4xx_HAL_Driver/Src/stm32f4xx_hal_rtc_ex.c ****       if((Timeout == 0U)||((HAL_GetTick() - tickstart ) > Timeout))
 1668              		.loc 1 708 9
 1669 001e 3B68     		ldr	r3, [r7]
 1670 0020 002B     		cmp	r3, #0
 1671 0022 07D0     		beq	.L52
 1672              		.loc 1 708 29 discriminator 1
 1673 0024 FFF7FEFF 		bl	HAL_GetTick
 1674 0028 0246     		mov	r2, r0
 1675              		.loc 1 708 43 discriminator 1
 1676 002a FB68     		ldr	r3, [r7, #12]
 1677 002c D31A     		subs	r3, r2, r3
 1678              		.loc 1 708 25 discriminator 1
 1679 002e 3A68     		ldr	r2, [r7]
 1680 0030 9A42     		cmp	r2, r3
 1681 0032 04D2     		bcs	.L51
 1682              	.L52:
 709:./Libraries/STM32F4xx_HAL_Driver/Src/stm32f4xx_hal_rtc_ex.c ****       {
 710:./Libraries/STM32F4xx_HAL_Driver/Src/stm32f4xx_hal_rtc_ex.c ****         hrtc->State = HAL_RTC_STATE_TIMEOUT;
 1683              		.loc 1 710 21
 1684 0034 7B68     		ldr	r3, [r7, #4]
 1685 0036 0322     		movs	r2, #3
 1686 0038 5A77     		strb	r2, [r3, #29]
 711:./Libraries/STM32F4xx_HAL_Driver/Src/stm32f4xx_hal_rtc_ex.c ****         return HAL_TIMEOUT;
 1687              		.loc 1 711 16
 1688 003a 0323     		movs	r3, #3
 1689 003c 13E0     		b	.L53
 1690              	.L51:
 704:./Libraries/STM32F4xx_HAL_Driver/Src/stm32f4xx_hal_rtc_ex.c ****   {
 1691              		.loc 1 704 9
 1692 003e 7B68     		ldr	r3, [r7, #4]
 1693 0040 1B68     		ldr	r3, [r3]
ARM GAS  /tmp/cckIUkG9.s 			page 43


 1694 0042 DB68     		ldr	r3, [r3, #12]
 1695 0044 03F48043 		and	r3, r3, #16384
 704:./Libraries/STM32F4xx_HAL_Driver/Src/stm32f4xx_hal_rtc_ex.c ****   {
 1696              		.loc 1 704 8
 1697 0048 002B     		cmp	r3, #0
 1698 004a E4D0     		beq	.L54
 712:./Libraries/STM32F4xx_HAL_Driver/Src/stm32f4xx_hal_rtc_ex.c ****       }
 713:./Libraries/STM32F4xx_HAL_Driver/Src/stm32f4xx_hal_rtc_ex.c ****     }
 714:./Libraries/STM32F4xx_HAL_Driver/Src/stm32f4xx_hal_rtc_ex.c ****   }
 715:./Libraries/STM32F4xx_HAL_Driver/Src/stm32f4xx_hal_rtc_ex.c ****   
 716:./Libraries/STM32F4xx_HAL_Driver/Src/stm32f4xx_hal_rtc_ex.c ****   /* Clear the Tamper Flag */
 717:./Libraries/STM32F4xx_HAL_Driver/Src/stm32f4xx_hal_rtc_ex.c ****   __HAL_RTC_TAMPER_CLEAR_FLAG(hrtc,RTC_FLAG_TAMP2F);
 1699              		.loc 1 717 3
 1700 004c 7B68     		ldr	r3, [r7, #4]
 1701 004e 1B68     		ldr	r3, [r3]
 1702 0050 DB68     		ldr	r3, [r3, #12]
 1703 0052 DAB2     		uxtb	r2, r3
 1704 0054 7B68     		ldr	r3, [r7, #4]
 1705 0056 1B68     		ldr	r3, [r3]
 1706 0058 62F48142 		orn	r2, r2, #16512
 1707 005c DA60     		str	r2, [r3, #12]
 718:./Libraries/STM32F4xx_HAL_Driver/Src/stm32f4xx_hal_rtc_ex.c ****   
 719:./Libraries/STM32F4xx_HAL_Driver/Src/stm32f4xx_hal_rtc_ex.c ****   /* Change RTC state */
 720:./Libraries/STM32F4xx_HAL_Driver/Src/stm32f4xx_hal_rtc_ex.c ****   hrtc->State = HAL_RTC_STATE_READY;
 1708              		.loc 1 720 15
 1709 005e 7B68     		ldr	r3, [r7, #4]
 1710 0060 0122     		movs	r2, #1
 1711 0062 5A77     		strb	r2, [r3, #29]
 721:./Libraries/STM32F4xx_HAL_Driver/Src/stm32f4xx_hal_rtc_ex.c ****   
 722:./Libraries/STM32F4xx_HAL_Driver/Src/stm32f4xx_hal_rtc_ex.c ****   return HAL_OK;
 1712              		.loc 1 722 10
 1713 0064 0023     		movs	r3, #0
 1714              	.L53:
 723:./Libraries/STM32F4xx_HAL_Driver/Src/stm32f4xx_hal_rtc_ex.c **** }
 1715              		.loc 1 723 1
 1716 0066 1846     		mov	r0, r3
 1717 0068 1037     		adds	r7, r7, #16
 1718              	.LCFI77:
 1719              		.cfi_def_cfa_offset 8
 1720 006a BD46     		mov	sp, r7
 1721              	.LCFI78:
 1722              		.cfi_def_cfa_register 13
 1723              		@ sp needed
 1724 006c 80BD     		pop	{r7, pc}
 1725              		.cfi_endproc
 1726              	.LFE139:
 1728              		.section	.text.HAL_RTCEx_SetWakeUpTimer,"ax",%progbits
 1729              		.align	1
 1730              		.global	HAL_RTCEx_SetWakeUpTimer
 1731              		.syntax unified
 1732              		.thumb
 1733              		.thumb_func
 1734              		.fpu fpv4-sp-d16
 1736              	HAL_RTCEx_SetWakeUpTimer:
 1737              	.LFB140:
 724:./Libraries/STM32F4xx_HAL_Driver/Src/stm32f4xx_hal_rtc_ex.c **** 
 725:./Libraries/STM32F4xx_HAL_Driver/Src/stm32f4xx_hal_rtc_ex.c **** /**
ARM GAS  /tmp/cckIUkG9.s 			page 44


 726:./Libraries/STM32F4xx_HAL_Driver/Src/stm32f4xx_hal_rtc_ex.c ****   * @}
 727:./Libraries/STM32F4xx_HAL_Driver/Src/stm32f4xx_hal_rtc_ex.c ****   */
 728:./Libraries/STM32F4xx_HAL_Driver/Src/stm32f4xx_hal_rtc_ex.c ****   
 729:./Libraries/STM32F4xx_HAL_Driver/Src/stm32f4xx_hal_rtc_ex.c **** /** @defgroup RTCEx_Exported_Functions_Group2 RTC Wake-up functions
 730:./Libraries/STM32F4xx_HAL_Driver/Src/stm32f4xx_hal_rtc_ex.c ****  *  @brief   RTC Wake-up functions
 731:./Libraries/STM32F4xx_HAL_Driver/Src/stm32f4xx_hal_rtc_ex.c ****  *
 732:./Libraries/STM32F4xx_HAL_Driver/Src/stm32f4xx_hal_rtc_ex.c **** @verbatim   
 733:./Libraries/STM32F4xx_HAL_Driver/Src/stm32f4xx_hal_rtc_ex.c ****  ===============================================================================
 734:./Libraries/STM32F4xx_HAL_Driver/Src/stm32f4xx_hal_rtc_ex.c ****                         ##### RTC Wake-up functions #####
 735:./Libraries/STM32F4xx_HAL_Driver/Src/stm32f4xx_hal_rtc_ex.c ****  ===============================================================================  
 736:./Libraries/STM32F4xx_HAL_Driver/Src/stm32f4xx_hal_rtc_ex.c ****  
 737:./Libraries/STM32F4xx_HAL_Driver/Src/stm32f4xx_hal_rtc_ex.c ****  [..] This section provides functions allowing to configure Wake-up feature
 738:./Libraries/STM32F4xx_HAL_Driver/Src/stm32f4xx_hal_rtc_ex.c **** 
 739:./Libraries/STM32F4xx_HAL_Driver/Src/stm32f4xx_hal_rtc_ex.c **** @endverbatim
 740:./Libraries/STM32F4xx_HAL_Driver/Src/stm32f4xx_hal_rtc_ex.c ****   * @{
 741:./Libraries/STM32F4xx_HAL_Driver/Src/stm32f4xx_hal_rtc_ex.c ****   */
 742:./Libraries/STM32F4xx_HAL_Driver/Src/stm32f4xx_hal_rtc_ex.c **** 
 743:./Libraries/STM32F4xx_HAL_Driver/Src/stm32f4xx_hal_rtc_ex.c **** /**
 744:./Libraries/STM32F4xx_HAL_Driver/Src/stm32f4xx_hal_rtc_ex.c ****   * @brief  Sets wake up timer. 
 745:./Libraries/STM32F4xx_HAL_Driver/Src/stm32f4xx_hal_rtc_ex.c ****   * @param  hrtc pointer to a RTC_HandleTypeDef structure that contains
 746:./Libraries/STM32F4xx_HAL_Driver/Src/stm32f4xx_hal_rtc_ex.c ****   *                the configuration information for RTC.
 747:./Libraries/STM32F4xx_HAL_Driver/Src/stm32f4xx_hal_rtc_ex.c ****   * @param  WakeUpCounter Wake up counter
 748:./Libraries/STM32F4xx_HAL_Driver/Src/stm32f4xx_hal_rtc_ex.c ****   * @param  WakeUpClock Wake up clock  
 749:./Libraries/STM32F4xx_HAL_Driver/Src/stm32f4xx_hal_rtc_ex.c ****   * @retval HAL status
 750:./Libraries/STM32F4xx_HAL_Driver/Src/stm32f4xx_hal_rtc_ex.c ****   */
 751:./Libraries/STM32F4xx_HAL_Driver/Src/stm32f4xx_hal_rtc_ex.c **** HAL_StatusTypeDef HAL_RTCEx_SetWakeUpTimer(RTC_HandleTypeDef *hrtc, uint32_t WakeUpCounter, uint32_
 752:./Libraries/STM32F4xx_HAL_Driver/Src/stm32f4xx_hal_rtc_ex.c **** {
 1738              		.loc 1 752 1
 1739              		.cfi_startproc
 1740              		@ args = 0, pretend = 0, frame = 24
 1741              		@ frame_needed = 1, uses_anonymous_args = 0
 1742 0000 80B5     		push	{r7, lr}
 1743              	.LCFI79:
 1744              		.cfi_def_cfa_offset 8
 1745              		.cfi_offset 7, -8
 1746              		.cfi_offset 14, -4
 1747 0002 86B0     		sub	sp, sp, #24
 1748              	.LCFI80:
 1749              		.cfi_def_cfa_offset 32
 1750 0004 00AF     		add	r7, sp, #0
 1751              	.LCFI81:
 1752              		.cfi_def_cfa_register 7
 1753 0006 F860     		str	r0, [r7, #12]
 1754 0008 B960     		str	r1, [r7, #8]
 1755 000a 7A60     		str	r2, [r7, #4]
 753:./Libraries/STM32F4xx_HAL_Driver/Src/stm32f4xx_hal_rtc_ex.c ****   uint32_t tickstart = 0U;
 1756              		.loc 1 753 12
 1757 000c 0023     		movs	r3, #0
 1758 000e 7B61     		str	r3, [r7, #20]
 754:./Libraries/STM32F4xx_HAL_Driver/Src/stm32f4xx_hal_rtc_ex.c **** 
 755:./Libraries/STM32F4xx_HAL_Driver/Src/stm32f4xx_hal_rtc_ex.c ****   /* Check the parameters */
 756:./Libraries/STM32F4xx_HAL_Driver/Src/stm32f4xx_hal_rtc_ex.c ****   assert_param(IS_RTC_WAKEUP_CLOCK(WakeUpClock));
 757:./Libraries/STM32F4xx_HAL_Driver/Src/stm32f4xx_hal_rtc_ex.c ****   assert_param(IS_RTC_WAKEUP_COUNTER(WakeUpCounter));
 758:./Libraries/STM32F4xx_HAL_Driver/Src/stm32f4xx_hal_rtc_ex.c ****  
 759:./Libraries/STM32F4xx_HAL_Driver/Src/stm32f4xx_hal_rtc_ex.c ****   /* Process Locked */ 
 760:./Libraries/STM32F4xx_HAL_Driver/Src/stm32f4xx_hal_rtc_ex.c ****   __HAL_LOCK(hrtc);
 1759              		.loc 1 760 3
ARM GAS  /tmp/cckIUkG9.s 			page 45


 1760 0010 FB68     		ldr	r3, [r7, #12]
 1761 0012 1B7F     		ldrb	r3, [r3, #28]	@ zero_extendqisi2
 1762 0014 012B     		cmp	r3, #1
 1763 0016 01D1     		bne	.L56
 1764              		.loc 1 760 3 is_stmt 0 discriminator 1
 1765 0018 0223     		movs	r3, #2
 1766 001a 81E0     		b	.L57
 1767              	.L56:
 1768              		.loc 1 760 3 discriminator 2
 1769 001c FB68     		ldr	r3, [r7, #12]
 1770 001e 0122     		movs	r2, #1
 1771 0020 1A77     		strb	r2, [r3, #28]
 761:./Libraries/STM32F4xx_HAL_Driver/Src/stm32f4xx_hal_rtc_ex.c ****     
 762:./Libraries/STM32F4xx_HAL_Driver/Src/stm32f4xx_hal_rtc_ex.c ****   hrtc->State = HAL_RTC_STATE_BUSY;
 1772              		.loc 1 762 15 is_stmt 1 discriminator 2
 1773 0022 FB68     		ldr	r3, [r7, #12]
 1774 0024 0222     		movs	r2, #2
 1775 0026 5A77     		strb	r2, [r3, #29]
 763:./Libraries/STM32F4xx_HAL_Driver/Src/stm32f4xx_hal_rtc_ex.c ****   
 764:./Libraries/STM32F4xx_HAL_Driver/Src/stm32f4xx_hal_rtc_ex.c ****   /* Disable the write protection for RTC registers */
 765:./Libraries/STM32F4xx_HAL_Driver/Src/stm32f4xx_hal_rtc_ex.c ****   __HAL_RTC_WRITEPROTECTION_DISABLE(hrtc);
 1776              		.loc 1 765 3 discriminator 2
 1777 0028 FB68     		ldr	r3, [r7, #12]
 1778 002a 1B68     		ldr	r3, [r3]
 1779 002c CA22     		movs	r2, #202
 1780 002e 5A62     		str	r2, [r3, #36]
 1781 0030 FB68     		ldr	r3, [r7, #12]
 1782 0032 1B68     		ldr	r3, [r3]
 1783 0034 5322     		movs	r2, #83
 1784 0036 5A62     		str	r2, [r3, #36]
 766:./Libraries/STM32F4xx_HAL_Driver/Src/stm32f4xx_hal_rtc_ex.c **** 
 767:./Libraries/STM32F4xx_HAL_Driver/Src/stm32f4xx_hal_rtc_ex.c ****   /*Check RTC WUTWF flag is reset only when wake up timer enabled*/
 768:./Libraries/STM32F4xx_HAL_Driver/Src/stm32f4xx_hal_rtc_ex.c ****   if((hrtc->Instance->CR & RTC_CR_WUTE) != RESET)
 1785              		.loc 1 768 11 discriminator 2
 1786 0038 FB68     		ldr	r3, [r7, #12]
 1787 003a 1B68     		ldr	r3, [r3]
 1788              		.loc 1 768 21 discriminator 2
 1789 003c 9B68     		ldr	r3, [r3, #8]
 1790              		.loc 1 768 26 discriminator 2
 1791 003e 03F48063 		and	r3, r3, #1024
 1792              		.loc 1 768 5 discriminator 2
 1793 0042 002B     		cmp	r3, #0
 1794 0044 1ED0     		beq	.L58
 769:./Libraries/STM32F4xx_HAL_Driver/Src/stm32f4xx_hal_rtc_ex.c ****   {
 770:./Libraries/STM32F4xx_HAL_Driver/Src/stm32f4xx_hal_rtc_ex.c ****     tickstart = HAL_GetTick();
 1795              		.loc 1 770 17
 1796 0046 FFF7FEFF 		bl	HAL_GetTick
 1797 004a 7861     		str	r0, [r7, #20]
 771:./Libraries/STM32F4xx_HAL_Driver/Src/stm32f4xx_hal_rtc_ex.c **** 
 772:./Libraries/STM32F4xx_HAL_Driver/Src/stm32f4xx_hal_rtc_ex.c ****     /* Wait till RTC WUTWF flag is reset and if Time out is reached exit */
 773:./Libraries/STM32F4xx_HAL_Driver/Src/stm32f4xx_hal_rtc_ex.c ****     while(__HAL_RTC_WAKEUPTIMER_GET_FLAG(hrtc, RTC_FLAG_WUTWF) == SET)
 1798              		.loc 1 773 10
 1799 004c 13E0     		b	.L59
 1800              	.L60:
 774:./Libraries/STM32F4xx_HAL_Driver/Src/stm32f4xx_hal_rtc_ex.c ****     {
 775:./Libraries/STM32F4xx_HAL_Driver/Src/stm32f4xx_hal_rtc_ex.c ****       if((HAL_GetTick() - tickstart ) > RTC_TIMEOUT_VALUE)
 1801              		.loc 1 775 11
ARM GAS  /tmp/cckIUkG9.s 			page 46


 1802 004e FFF7FEFF 		bl	HAL_GetTick
 1803 0052 0246     		mov	r2, r0
 1804              		.loc 1 775 25
 1805 0054 7B69     		ldr	r3, [r7, #20]
 1806 0056 D31A     		subs	r3, r2, r3
 1807              		.loc 1 775 9
 1808 0058 B3F57A7F 		cmp	r3, #1000
 1809 005c 0BD9     		bls	.L59
 776:./Libraries/STM32F4xx_HAL_Driver/Src/stm32f4xx_hal_rtc_ex.c ****       {
 777:./Libraries/STM32F4xx_HAL_Driver/Src/stm32f4xx_hal_rtc_ex.c ****         /* Enable the write protection for RTC registers */
 778:./Libraries/STM32F4xx_HAL_Driver/Src/stm32f4xx_hal_rtc_ex.c ****         __HAL_RTC_WRITEPROTECTION_ENABLE(hrtc);
 1810              		.loc 1 778 9
 1811 005e FB68     		ldr	r3, [r7, #12]
 1812 0060 1B68     		ldr	r3, [r3]
 1813 0062 FF22     		movs	r2, #255
 1814 0064 5A62     		str	r2, [r3, #36]
 779:./Libraries/STM32F4xx_HAL_Driver/Src/stm32f4xx_hal_rtc_ex.c ****         
 780:./Libraries/STM32F4xx_HAL_Driver/Src/stm32f4xx_hal_rtc_ex.c ****         hrtc->State = HAL_RTC_STATE_TIMEOUT;
 1815              		.loc 1 780 21
 1816 0066 FB68     		ldr	r3, [r7, #12]
 1817 0068 0322     		movs	r2, #3
 1818 006a 5A77     		strb	r2, [r3, #29]
 781:./Libraries/STM32F4xx_HAL_Driver/Src/stm32f4xx_hal_rtc_ex.c **** 
 782:./Libraries/STM32F4xx_HAL_Driver/Src/stm32f4xx_hal_rtc_ex.c ****         /* Process Unlocked */ 
 783:./Libraries/STM32F4xx_HAL_Driver/Src/stm32f4xx_hal_rtc_ex.c ****         __HAL_UNLOCK(hrtc);
 1819              		.loc 1 783 9
 1820 006c FB68     		ldr	r3, [r7, #12]
 1821 006e 0022     		movs	r2, #0
 1822 0070 1A77     		strb	r2, [r3, #28]
 784:./Libraries/STM32F4xx_HAL_Driver/Src/stm32f4xx_hal_rtc_ex.c **** 
 785:./Libraries/STM32F4xx_HAL_Driver/Src/stm32f4xx_hal_rtc_ex.c ****         return HAL_TIMEOUT;
 1823              		.loc 1 785 16
 1824 0072 0323     		movs	r3, #3
 1825 0074 54E0     		b	.L57
 1826              	.L59:
 773:./Libraries/STM32F4xx_HAL_Driver/Src/stm32f4xx_hal_rtc_ex.c ****     {
 1827              		.loc 1 773 11
 1828 0076 FB68     		ldr	r3, [r7, #12]
 1829 0078 1B68     		ldr	r3, [r3]
 1830 007a DB68     		ldr	r3, [r3, #12]
 1831 007c 03F00403 		and	r3, r3, #4
 773:./Libraries/STM32F4xx_HAL_Driver/Src/stm32f4xx_hal_rtc_ex.c ****     {
 1832              		.loc 1 773 10
 1833 0080 002B     		cmp	r3, #0
 1834 0082 E4D1     		bne	.L60
 1835              	.L58:
 786:./Libraries/STM32F4xx_HAL_Driver/Src/stm32f4xx_hal_rtc_ex.c ****       }
 787:./Libraries/STM32F4xx_HAL_Driver/Src/stm32f4xx_hal_rtc_ex.c ****     }
 788:./Libraries/STM32F4xx_HAL_Driver/Src/stm32f4xx_hal_rtc_ex.c ****   }
 789:./Libraries/STM32F4xx_HAL_Driver/Src/stm32f4xx_hal_rtc_ex.c **** 
 790:./Libraries/STM32F4xx_HAL_Driver/Src/stm32f4xx_hal_rtc_ex.c ****   __HAL_RTC_WAKEUPTIMER_DISABLE(hrtc);
 1836              		.loc 1 790 3
 1837 0084 FB68     		ldr	r3, [r7, #12]
 1838 0086 1B68     		ldr	r3, [r3]
 1839 0088 9A68     		ldr	r2, [r3, #8]
 1840 008a FB68     		ldr	r3, [r7, #12]
 1841 008c 1B68     		ldr	r3, [r3]
ARM GAS  /tmp/cckIUkG9.s 			page 47


 1842 008e 22F48062 		bic	r2, r2, #1024
 1843 0092 9A60     		str	r2, [r3, #8]
 791:./Libraries/STM32F4xx_HAL_Driver/Src/stm32f4xx_hal_rtc_ex.c **** 
 792:./Libraries/STM32F4xx_HAL_Driver/Src/stm32f4xx_hal_rtc_ex.c ****   tickstart = HAL_GetTick();
 1844              		.loc 1 792 15
 1845 0094 FFF7FEFF 		bl	HAL_GetTick
 1846 0098 7861     		str	r0, [r7, #20]
 793:./Libraries/STM32F4xx_HAL_Driver/Src/stm32f4xx_hal_rtc_ex.c **** 
 794:./Libraries/STM32F4xx_HAL_Driver/Src/stm32f4xx_hal_rtc_ex.c ****   /* Wait till RTC WUTWF flag is set and if Time out is reached exit */
 795:./Libraries/STM32F4xx_HAL_Driver/Src/stm32f4xx_hal_rtc_ex.c ****   while(__HAL_RTC_WAKEUPTIMER_GET_FLAG(hrtc, RTC_FLAG_WUTWF) == RESET)
 1847              		.loc 1 795 8
 1848 009a 13E0     		b	.L61
 1849              	.L62:
 796:./Libraries/STM32F4xx_HAL_Driver/Src/stm32f4xx_hal_rtc_ex.c ****   {
 797:./Libraries/STM32F4xx_HAL_Driver/Src/stm32f4xx_hal_rtc_ex.c ****     if((HAL_GetTick() - tickstart ) > RTC_TIMEOUT_VALUE)
 1850              		.loc 1 797 9
 1851 009c FFF7FEFF 		bl	HAL_GetTick
 1852 00a0 0246     		mov	r2, r0
 1853              		.loc 1 797 23
 1854 00a2 7B69     		ldr	r3, [r7, #20]
 1855 00a4 D31A     		subs	r3, r2, r3
 1856              		.loc 1 797 7
 1857 00a6 B3F57A7F 		cmp	r3, #1000
 1858 00aa 0BD9     		bls	.L61
 798:./Libraries/STM32F4xx_HAL_Driver/Src/stm32f4xx_hal_rtc_ex.c ****     {
 799:./Libraries/STM32F4xx_HAL_Driver/Src/stm32f4xx_hal_rtc_ex.c ****       /* Enable the write protection for RTC registers */
 800:./Libraries/STM32F4xx_HAL_Driver/Src/stm32f4xx_hal_rtc_ex.c ****       __HAL_RTC_WRITEPROTECTION_ENABLE(hrtc);
 1859              		.loc 1 800 7
 1860 00ac FB68     		ldr	r3, [r7, #12]
 1861 00ae 1B68     		ldr	r3, [r3]
 1862 00b0 FF22     		movs	r2, #255
 1863 00b2 5A62     		str	r2, [r3, #36]
 801:./Libraries/STM32F4xx_HAL_Driver/Src/stm32f4xx_hal_rtc_ex.c **** 
 802:./Libraries/STM32F4xx_HAL_Driver/Src/stm32f4xx_hal_rtc_ex.c ****       hrtc->State = HAL_RTC_STATE_TIMEOUT;
 1864              		.loc 1 802 19
 1865 00b4 FB68     		ldr	r3, [r7, #12]
 1866 00b6 0322     		movs	r2, #3
 1867 00b8 5A77     		strb	r2, [r3, #29]
 803:./Libraries/STM32F4xx_HAL_Driver/Src/stm32f4xx_hal_rtc_ex.c **** 
 804:./Libraries/STM32F4xx_HAL_Driver/Src/stm32f4xx_hal_rtc_ex.c ****       /* Process Unlocked */ 
 805:./Libraries/STM32F4xx_HAL_Driver/Src/stm32f4xx_hal_rtc_ex.c ****       __HAL_UNLOCK(hrtc);
 1868              		.loc 1 805 7
 1869 00ba FB68     		ldr	r3, [r7, #12]
 1870 00bc 0022     		movs	r2, #0
 1871 00be 1A77     		strb	r2, [r3, #28]
 806:./Libraries/STM32F4xx_HAL_Driver/Src/stm32f4xx_hal_rtc_ex.c **** 
 807:./Libraries/STM32F4xx_HAL_Driver/Src/stm32f4xx_hal_rtc_ex.c ****       return HAL_TIMEOUT;
 1872              		.loc 1 807 14
 1873 00c0 0323     		movs	r3, #3
 1874 00c2 2DE0     		b	.L57
 1875              	.L61:
 795:./Libraries/STM32F4xx_HAL_Driver/Src/stm32f4xx_hal_rtc_ex.c ****   {
 1876              		.loc 1 795 9
 1877 00c4 FB68     		ldr	r3, [r7, #12]
 1878 00c6 1B68     		ldr	r3, [r3]
 1879 00c8 DB68     		ldr	r3, [r3, #12]
 1880 00ca 03F00403 		and	r3, r3, #4
ARM GAS  /tmp/cckIUkG9.s 			page 48


 795:./Libraries/STM32F4xx_HAL_Driver/Src/stm32f4xx_hal_rtc_ex.c ****   {
 1881              		.loc 1 795 8
 1882 00ce 002B     		cmp	r3, #0
 1883 00d0 E4D0     		beq	.L62
 808:./Libraries/STM32F4xx_HAL_Driver/Src/stm32f4xx_hal_rtc_ex.c ****     }
 809:./Libraries/STM32F4xx_HAL_Driver/Src/stm32f4xx_hal_rtc_ex.c ****   }
 810:./Libraries/STM32F4xx_HAL_Driver/Src/stm32f4xx_hal_rtc_ex.c ****   
 811:./Libraries/STM32F4xx_HAL_Driver/Src/stm32f4xx_hal_rtc_ex.c ****   /* Clear the Wake-up Timer clock source bits in CR register */
 812:./Libraries/STM32F4xx_HAL_Driver/Src/stm32f4xx_hal_rtc_ex.c ****   hrtc->Instance->CR &= (uint32_t)~RTC_CR_WUCKSEL;
 1884              		.loc 1 812 7
 1885 00d2 FB68     		ldr	r3, [r7, #12]
 1886 00d4 1B68     		ldr	r3, [r3]
 1887              		.loc 1 812 22
 1888 00d6 9A68     		ldr	r2, [r3, #8]
 1889              		.loc 1 812 7
 1890 00d8 FB68     		ldr	r3, [r7, #12]
 1891 00da 1B68     		ldr	r3, [r3]
 1892              		.loc 1 812 22
 1893 00dc 22F00702 		bic	r2, r2, #7
 1894 00e0 9A60     		str	r2, [r3, #8]
 813:./Libraries/STM32F4xx_HAL_Driver/Src/stm32f4xx_hal_rtc_ex.c ****   
 814:./Libraries/STM32F4xx_HAL_Driver/Src/stm32f4xx_hal_rtc_ex.c ****   /* Configure the clock source */
 815:./Libraries/STM32F4xx_HAL_Driver/Src/stm32f4xx_hal_rtc_ex.c ****   hrtc->Instance->CR |= (uint32_t)WakeUpClock;
 1895              		.loc 1 815 7
 1896 00e2 FB68     		ldr	r3, [r7, #12]
 1897 00e4 1B68     		ldr	r3, [r3]
 1898              		.loc 1 815 22
 1899 00e6 9968     		ldr	r1, [r3, #8]
 1900              		.loc 1 815 7
 1901 00e8 FB68     		ldr	r3, [r7, #12]
 1902 00ea 1B68     		ldr	r3, [r3]
 1903              		.loc 1 815 22
 1904 00ec 7A68     		ldr	r2, [r7, #4]
 1905 00ee 0A43     		orrs	r2, r2, r1
 1906 00f0 9A60     		str	r2, [r3, #8]
 816:./Libraries/STM32F4xx_HAL_Driver/Src/stm32f4xx_hal_rtc_ex.c ****   
 817:./Libraries/STM32F4xx_HAL_Driver/Src/stm32f4xx_hal_rtc_ex.c ****   /* Configure the Wake-up Timer counter */
 818:./Libraries/STM32F4xx_HAL_Driver/Src/stm32f4xx_hal_rtc_ex.c ****   hrtc->Instance->WUTR = (uint32_t)WakeUpCounter;
 1907              		.loc 1 818 7
 1908 00f2 FB68     		ldr	r3, [r7, #12]
 1909 00f4 1B68     		ldr	r3, [r3]
 1910              		.loc 1 818 24
 1911 00f6 BA68     		ldr	r2, [r7, #8]
 1912 00f8 5A61     		str	r2, [r3, #20]
 819:./Libraries/STM32F4xx_HAL_Driver/Src/stm32f4xx_hal_rtc_ex.c ****   
 820:./Libraries/STM32F4xx_HAL_Driver/Src/stm32f4xx_hal_rtc_ex.c ****    /* Enable the Wake-up Timer */
 821:./Libraries/STM32F4xx_HAL_Driver/Src/stm32f4xx_hal_rtc_ex.c ****   __HAL_RTC_WAKEUPTIMER_ENABLE(hrtc);   
 1913              		.loc 1 821 3
 1914 00fa FB68     		ldr	r3, [r7, #12]
 1915 00fc 1B68     		ldr	r3, [r3]
 1916 00fe 9A68     		ldr	r2, [r3, #8]
 1917 0100 FB68     		ldr	r3, [r7, #12]
 1918 0102 1B68     		ldr	r3, [r3]
 1919 0104 42F48062 		orr	r2, r2, #1024
 1920 0108 9A60     		str	r2, [r3, #8]
 822:./Libraries/STM32F4xx_HAL_Driver/Src/stm32f4xx_hal_rtc_ex.c ****   
 823:./Libraries/STM32F4xx_HAL_Driver/Src/stm32f4xx_hal_rtc_ex.c ****   /* Enable the write protection for RTC registers */
ARM GAS  /tmp/cckIUkG9.s 			page 49


 824:./Libraries/STM32F4xx_HAL_Driver/Src/stm32f4xx_hal_rtc_ex.c ****   __HAL_RTC_WRITEPROTECTION_ENABLE(hrtc); 
 1921              		.loc 1 824 3
 1922 010a FB68     		ldr	r3, [r7, #12]
 1923 010c 1B68     		ldr	r3, [r3]
 1924 010e FF22     		movs	r2, #255
 1925 0110 5A62     		str	r2, [r3, #36]
 825:./Libraries/STM32F4xx_HAL_Driver/Src/stm32f4xx_hal_rtc_ex.c ****   
 826:./Libraries/STM32F4xx_HAL_Driver/Src/stm32f4xx_hal_rtc_ex.c ****   hrtc->State = HAL_RTC_STATE_READY;   
 1926              		.loc 1 826 15
 1927 0112 FB68     		ldr	r3, [r7, #12]
 1928 0114 0122     		movs	r2, #1
 1929 0116 5A77     		strb	r2, [r3, #29]
 827:./Libraries/STM32F4xx_HAL_Driver/Src/stm32f4xx_hal_rtc_ex.c ****   
 828:./Libraries/STM32F4xx_HAL_Driver/Src/stm32f4xx_hal_rtc_ex.c ****   /* Process Unlocked */ 
 829:./Libraries/STM32F4xx_HAL_Driver/Src/stm32f4xx_hal_rtc_ex.c ****   __HAL_UNLOCK(hrtc);
 1930              		.loc 1 829 3
 1931 0118 FB68     		ldr	r3, [r7, #12]
 1932 011a 0022     		movs	r2, #0
 1933 011c 1A77     		strb	r2, [r3, #28]
 830:./Libraries/STM32F4xx_HAL_Driver/Src/stm32f4xx_hal_rtc_ex.c ****   
 831:./Libraries/STM32F4xx_HAL_Driver/Src/stm32f4xx_hal_rtc_ex.c ****   return HAL_OK;
 1934              		.loc 1 831 10
 1935 011e 0023     		movs	r3, #0
 1936              	.L57:
 832:./Libraries/STM32F4xx_HAL_Driver/Src/stm32f4xx_hal_rtc_ex.c **** }
 1937              		.loc 1 832 1
 1938 0120 1846     		mov	r0, r3
 1939 0122 1837     		adds	r7, r7, #24
 1940              	.LCFI82:
 1941              		.cfi_def_cfa_offset 8
 1942 0124 BD46     		mov	sp, r7
 1943              	.LCFI83:
 1944              		.cfi_def_cfa_register 13
 1945              		@ sp needed
 1946 0126 80BD     		pop	{r7, pc}
 1947              		.cfi_endproc
 1948              	.LFE140:
 1950              		.section	.text.HAL_RTCEx_SetWakeUpTimer_IT,"ax",%progbits
 1951              		.align	1
 1952              		.global	HAL_RTCEx_SetWakeUpTimer_IT
 1953              		.syntax unified
 1954              		.thumb
 1955              		.thumb_func
 1956              		.fpu fpv4-sp-d16
 1958              	HAL_RTCEx_SetWakeUpTimer_IT:
 1959              	.LFB141:
 833:./Libraries/STM32F4xx_HAL_Driver/Src/stm32f4xx_hal_rtc_ex.c **** 
 834:./Libraries/STM32F4xx_HAL_Driver/Src/stm32f4xx_hal_rtc_ex.c **** /**
 835:./Libraries/STM32F4xx_HAL_Driver/Src/stm32f4xx_hal_rtc_ex.c ****   * @brief  Sets wake up timer with interrupt
 836:./Libraries/STM32F4xx_HAL_Driver/Src/stm32f4xx_hal_rtc_ex.c ****   * @param  hrtc pointer to a RTC_HandleTypeDef structure that contains
 837:./Libraries/STM32F4xx_HAL_Driver/Src/stm32f4xx_hal_rtc_ex.c ****   *                the configuration information for RTC.
 838:./Libraries/STM32F4xx_HAL_Driver/Src/stm32f4xx_hal_rtc_ex.c ****   * @param  WakeUpCounter Wake up counter
 839:./Libraries/STM32F4xx_HAL_Driver/Src/stm32f4xx_hal_rtc_ex.c ****   * @param  WakeUpClock Wake up clock  
 840:./Libraries/STM32F4xx_HAL_Driver/Src/stm32f4xx_hal_rtc_ex.c ****   * @retval HAL status
 841:./Libraries/STM32F4xx_HAL_Driver/Src/stm32f4xx_hal_rtc_ex.c ****   */
 842:./Libraries/STM32F4xx_HAL_Driver/Src/stm32f4xx_hal_rtc_ex.c **** HAL_StatusTypeDef HAL_RTCEx_SetWakeUpTimer_IT(RTC_HandleTypeDef *hrtc, uint32_t WakeUpCounter, uint
 843:./Libraries/STM32F4xx_HAL_Driver/Src/stm32f4xx_hal_rtc_ex.c **** {
ARM GAS  /tmp/cckIUkG9.s 			page 50


 1960              		.loc 1 843 1
 1961              		.cfi_startproc
 1962              		@ args = 0, pretend = 0, frame = 24
 1963              		@ frame_needed = 1, uses_anonymous_args = 0
 1964              		@ link register save eliminated.
 1965 0000 80B4     		push	{r7}
 1966              	.LCFI84:
 1967              		.cfi_def_cfa_offset 4
 1968              		.cfi_offset 7, -4
 1969 0002 87B0     		sub	sp, sp, #28
 1970              	.LCFI85:
 1971              		.cfi_def_cfa_offset 32
 1972 0004 00AF     		add	r7, sp, #0
 1973              	.LCFI86:
 1974              		.cfi_def_cfa_register 7
 1975 0006 F860     		str	r0, [r7, #12]
 1976 0008 B960     		str	r1, [r7, #8]
 1977 000a 7A60     		str	r2, [r7, #4]
 844:./Libraries/STM32F4xx_HAL_Driver/Src/stm32f4xx_hal_rtc_ex.c ****   __IO uint32_t count;
 845:./Libraries/STM32F4xx_HAL_Driver/Src/stm32f4xx_hal_rtc_ex.c **** 
 846:./Libraries/STM32F4xx_HAL_Driver/Src/stm32f4xx_hal_rtc_ex.c ****   /* Check the parameters */
 847:./Libraries/STM32F4xx_HAL_Driver/Src/stm32f4xx_hal_rtc_ex.c ****   assert_param(IS_RTC_WAKEUP_CLOCK(WakeUpClock));
 848:./Libraries/STM32F4xx_HAL_Driver/Src/stm32f4xx_hal_rtc_ex.c ****   assert_param(IS_RTC_WAKEUP_COUNTER(WakeUpCounter));
 849:./Libraries/STM32F4xx_HAL_Driver/Src/stm32f4xx_hal_rtc_ex.c **** 
 850:./Libraries/STM32F4xx_HAL_Driver/Src/stm32f4xx_hal_rtc_ex.c ****   /* Process Locked */ 
 851:./Libraries/STM32F4xx_HAL_Driver/Src/stm32f4xx_hal_rtc_ex.c ****   __HAL_LOCK(hrtc);
 1978              		.loc 1 851 3
 1979 000c FB68     		ldr	r3, [r7, #12]
 1980 000e 1B7F     		ldrb	r3, [r3, #28]	@ zero_extendqisi2
 1981 0010 012B     		cmp	r3, #1
 1982 0012 01D1     		bne	.L64
 1983              		.loc 1 851 3 is_stmt 0 discriminator 1
 1984 0014 0223     		movs	r3, #2
 1985 0016 A6E0     		b	.L65
 1986              	.L64:
 1987              		.loc 1 851 3 discriminator 2
 1988 0018 FB68     		ldr	r3, [r7, #12]
 1989 001a 0122     		movs	r2, #1
 1990 001c 1A77     		strb	r2, [r3, #28]
 852:./Libraries/STM32F4xx_HAL_Driver/Src/stm32f4xx_hal_rtc_ex.c **** 
 853:./Libraries/STM32F4xx_HAL_Driver/Src/stm32f4xx_hal_rtc_ex.c ****   hrtc->State = HAL_RTC_STATE_BUSY;
 1991              		.loc 1 853 15 is_stmt 1 discriminator 2
 1992 001e FB68     		ldr	r3, [r7, #12]
 1993 0020 0222     		movs	r2, #2
 1994 0022 5A77     		strb	r2, [r3, #29]
 854:./Libraries/STM32F4xx_HAL_Driver/Src/stm32f4xx_hal_rtc_ex.c **** 
 855:./Libraries/STM32F4xx_HAL_Driver/Src/stm32f4xx_hal_rtc_ex.c ****   /* Disable the write protection for RTC registers */
 856:./Libraries/STM32F4xx_HAL_Driver/Src/stm32f4xx_hal_rtc_ex.c ****   __HAL_RTC_WRITEPROTECTION_DISABLE(hrtc);
 1995              		.loc 1 856 3 discriminator 2
 1996 0024 FB68     		ldr	r3, [r7, #12]
 1997 0026 1B68     		ldr	r3, [r3]
 1998 0028 CA22     		movs	r2, #202
 1999 002a 5A62     		str	r2, [r3, #36]
 2000 002c FB68     		ldr	r3, [r7, #12]
 2001 002e 1B68     		ldr	r3, [r3]
 2002 0030 5322     		movs	r2, #83
 2003 0032 5A62     		str	r2, [r3, #36]
ARM GAS  /tmp/cckIUkG9.s 			page 51


 857:./Libraries/STM32F4xx_HAL_Driver/Src/stm32f4xx_hal_rtc_ex.c **** 
 858:./Libraries/STM32F4xx_HAL_Driver/Src/stm32f4xx_hal_rtc_ex.c ****   /* Check RTC WUTWF flag is reset only when wake up timer enabled */
 859:./Libraries/STM32F4xx_HAL_Driver/Src/stm32f4xx_hal_rtc_ex.c ****   if((hrtc->Instance->CR & RTC_CR_WUTE) != RESET)
 2004              		.loc 1 859 11 discriminator 2
 2005 0034 FB68     		ldr	r3, [r7, #12]
 2006 0036 1B68     		ldr	r3, [r3]
 2007              		.loc 1 859 21 discriminator 2
 2008 0038 9B68     		ldr	r3, [r3, #8]
 2009              		.loc 1 859 26 discriminator 2
 2010 003a 03F48063 		and	r3, r3, #1024
 2011              		.loc 1 859 5 discriminator 2
 2012 003e 002B     		cmp	r3, #0
 2013 0040 22D0     		beq	.L66
 860:./Libraries/STM32F4xx_HAL_Driver/Src/stm32f4xx_hal_rtc_ex.c ****   {
 861:./Libraries/STM32F4xx_HAL_Driver/Src/stm32f4xx_hal_rtc_ex.c ****     /* Wait till RTC WUTWF flag is reset and if Time out is reached exit */
 862:./Libraries/STM32F4xx_HAL_Driver/Src/stm32f4xx_hal_rtc_ex.c ****     count = RTC_TIMEOUT_VALUE  * (SystemCoreClock / 32U / 1000U);
 2014              		.loc 1 862 57
 2015 0042 4C4B     		ldr	r3, .L71
 2016 0044 1B68     		ldr	r3, [r3]
 2017 0046 4C4A     		ldr	r2, .L71+4
 2018 0048 A2FB0323 		umull	r2, r3, r2, r3
 2019 004c DB0A     		lsrs	r3, r3, #11
 2020              		.loc 1 862 32
 2021 004e 4FF47A72 		mov	r2, #1000
 2022 0052 02FB03F3 		mul	r3, r2, r3
 2023              		.loc 1 862 11
 2024 0056 7B61     		str	r3, [r7, #20]
 2025              	.L68:
 863:./Libraries/STM32F4xx_HAL_Driver/Src/stm32f4xx_hal_rtc_ex.c ****     do
 864:./Libraries/STM32F4xx_HAL_Driver/Src/stm32f4xx_hal_rtc_ex.c ****     {
 865:./Libraries/STM32F4xx_HAL_Driver/Src/stm32f4xx_hal_rtc_ex.c ****       if(count-- == 0U)
 2026              		.loc 1 865 15
 2027 0058 7B69     		ldr	r3, [r7, #20]
 2028 005a 5A1E     		subs	r2, r3, #1
 2029 005c 7A61     		str	r2, [r7, #20]
 2030              		.loc 1 865 9
 2031 005e 002B     		cmp	r3, #0
 2032 0060 0BD1     		bne	.L67
 866:./Libraries/STM32F4xx_HAL_Driver/Src/stm32f4xx_hal_rtc_ex.c ****       {
 867:./Libraries/STM32F4xx_HAL_Driver/Src/stm32f4xx_hal_rtc_ex.c ****         /* Enable the write protection for RTC registers */
 868:./Libraries/STM32F4xx_HAL_Driver/Src/stm32f4xx_hal_rtc_ex.c ****         __HAL_RTC_WRITEPROTECTION_ENABLE(hrtc);
 2033              		.loc 1 868 9
 2034 0062 FB68     		ldr	r3, [r7, #12]
 2035 0064 1B68     		ldr	r3, [r3]
 2036 0066 FF22     		movs	r2, #255
 2037 0068 5A62     		str	r2, [r3, #36]
 869:./Libraries/STM32F4xx_HAL_Driver/Src/stm32f4xx_hal_rtc_ex.c **** 
 870:./Libraries/STM32F4xx_HAL_Driver/Src/stm32f4xx_hal_rtc_ex.c ****         hrtc->State = HAL_RTC_STATE_TIMEOUT;
 2038              		.loc 1 870 21
 2039 006a FB68     		ldr	r3, [r7, #12]
 2040 006c 0322     		movs	r2, #3
 2041 006e 5A77     		strb	r2, [r3, #29]
 871:./Libraries/STM32F4xx_HAL_Driver/Src/stm32f4xx_hal_rtc_ex.c **** 
 872:./Libraries/STM32F4xx_HAL_Driver/Src/stm32f4xx_hal_rtc_ex.c ****         /* Process Unlocked */
 873:./Libraries/STM32F4xx_HAL_Driver/Src/stm32f4xx_hal_rtc_ex.c ****         __HAL_UNLOCK(hrtc);
 2042              		.loc 1 873 9
 2043 0070 FB68     		ldr	r3, [r7, #12]
ARM GAS  /tmp/cckIUkG9.s 			page 52


 2044 0072 0022     		movs	r2, #0
 2045 0074 1A77     		strb	r2, [r3, #28]
 874:./Libraries/STM32F4xx_HAL_Driver/Src/stm32f4xx_hal_rtc_ex.c **** 
 875:./Libraries/STM32F4xx_HAL_Driver/Src/stm32f4xx_hal_rtc_ex.c ****         return HAL_TIMEOUT;
 2046              		.loc 1 875 16
 2047 0076 0323     		movs	r3, #3
 2048 0078 75E0     		b	.L65
 2049              	.L67:
 876:./Libraries/STM32F4xx_HAL_Driver/Src/stm32f4xx_hal_rtc_ex.c ****       }
 877:./Libraries/STM32F4xx_HAL_Driver/Src/stm32f4xx_hal_rtc_ex.c ****     }
 878:./Libraries/STM32F4xx_HAL_Driver/Src/stm32f4xx_hal_rtc_ex.c ****     while(__HAL_RTC_WAKEUPTIMER_GET_FLAG(hrtc, RTC_FLAG_WUTWF) == SET);
 2050              		.loc 1 878 11
 2051 007a FB68     		ldr	r3, [r7, #12]
 2052 007c 1B68     		ldr	r3, [r3]
 2053 007e DB68     		ldr	r3, [r3, #12]
 2054 0080 03F00403 		and	r3, r3, #4
 2055              		.loc 1 878 5
 2056 0084 002B     		cmp	r3, #0
 2057 0086 E7D1     		bne	.L68
 2058              	.L66:
 879:./Libraries/STM32F4xx_HAL_Driver/Src/stm32f4xx_hal_rtc_ex.c ****   }
 880:./Libraries/STM32F4xx_HAL_Driver/Src/stm32f4xx_hal_rtc_ex.c **** 
 881:./Libraries/STM32F4xx_HAL_Driver/Src/stm32f4xx_hal_rtc_ex.c ****   __HAL_RTC_WAKEUPTIMER_DISABLE(hrtc);
 2059              		.loc 1 881 3
 2060 0088 FB68     		ldr	r3, [r7, #12]
 2061 008a 1B68     		ldr	r3, [r3]
 2062 008c 9A68     		ldr	r2, [r3, #8]
 2063 008e FB68     		ldr	r3, [r7, #12]
 2064 0090 1B68     		ldr	r3, [r3]
 2065 0092 22F48062 		bic	r2, r2, #1024
 2066 0096 9A60     		str	r2, [r3, #8]
 882:./Libraries/STM32F4xx_HAL_Driver/Src/stm32f4xx_hal_rtc_ex.c **** 
 883:./Libraries/STM32F4xx_HAL_Driver/Src/stm32f4xx_hal_rtc_ex.c ****   /* Wait till RTC WUTWF flag is set and if Time out is reached exit */
 884:./Libraries/STM32F4xx_HAL_Driver/Src/stm32f4xx_hal_rtc_ex.c ****   count = RTC_TIMEOUT_VALUE  * (SystemCoreClock / 32U / 1000U);
 2067              		.loc 1 884 55
 2068 0098 364B     		ldr	r3, .L71
 2069 009a 1B68     		ldr	r3, [r3]
 2070 009c 364A     		ldr	r2, .L71+4
 2071 009e A2FB0323 		umull	r2, r3, r2, r3
 2072 00a2 DB0A     		lsrs	r3, r3, #11
 2073              		.loc 1 884 30
 2074 00a4 4FF47A72 		mov	r2, #1000
 2075 00a8 02FB03F3 		mul	r3, r2, r3
 2076              		.loc 1 884 9
 2077 00ac 7B61     		str	r3, [r7, #20]
 2078              	.L70:
 885:./Libraries/STM32F4xx_HAL_Driver/Src/stm32f4xx_hal_rtc_ex.c ****   do
 886:./Libraries/STM32F4xx_HAL_Driver/Src/stm32f4xx_hal_rtc_ex.c ****   {
 887:./Libraries/STM32F4xx_HAL_Driver/Src/stm32f4xx_hal_rtc_ex.c ****     if(count-- == 0U)
 2079              		.loc 1 887 13
 2080 00ae 7B69     		ldr	r3, [r7, #20]
 2081 00b0 5A1E     		subs	r2, r3, #1
 2082 00b2 7A61     		str	r2, [r7, #20]
 2083              		.loc 1 887 7
 2084 00b4 002B     		cmp	r3, #0
 2085 00b6 0BD1     		bne	.L69
 888:./Libraries/STM32F4xx_HAL_Driver/Src/stm32f4xx_hal_rtc_ex.c ****     {
ARM GAS  /tmp/cckIUkG9.s 			page 53


 889:./Libraries/STM32F4xx_HAL_Driver/Src/stm32f4xx_hal_rtc_ex.c ****       /* Enable the write protection for RTC registers */
 890:./Libraries/STM32F4xx_HAL_Driver/Src/stm32f4xx_hal_rtc_ex.c ****       __HAL_RTC_WRITEPROTECTION_ENABLE(hrtc);
 2086              		.loc 1 890 7
 2087 00b8 FB68     		ldr	r3, [r7, #12]
 2088 00ba 1B68     		ldr	r3, [r3]
 2089 00bc FF22     		movs	r2, #255
 2090 00be 5A62     		str	r2, [r3, #36]
 891:./Libraries/STM32F4xx_HAL_Driver/Src/stm32f4xx_hal_rtc_ex.c **** 
 892:./Libraries/STM32F4xx_HAL_Driver/Src/stm32f4xx_hal_rtc_ex.c ****       hrtc->State = HAL_RTC_STATE_TIMEOUT;
 2091              		.loc 1 892 19
 2092 00c0 FB68     		ldr	r3, [r7, #12]
 2093 00c2 0322     		movs	r2, #3
 2094 00c4 5A77     		strb	r2, [r3, #29]
 893:./Libraries/STM32F4xx_HAL_Driver/Src/stm32f4xx_hal_rtc_ex.c **** 
 894:./Libraries/STM32F4xx_HAL_Driver/Src/stm32f4xx_hal_rtc_ex.c ****       /* Process Unlocked */
 895:./Libraries/STM32F4xx_HAL_Driver/Src/stm32f4xx_hal_rtc_ex.c ****       __HAL_UNLOCK(hrtc);
 2095              		.loc 1 895 7
 2096 00c6 FB68     		ldr	r3, [r7, #12]
 2097 00c8 0022     		movs	r2, #0
 2098 00ca 1A77     		strb	r2, [r3, #28]
 896:./Libraries/STM32F4xx_HAL_Driver/Src/stm32f4xx_hal_rtc_ex.c **** 
 897:./Libraries/STM32F4xx_HAL_Driver/Src/stm32f4xx_hal_rtc_ex.c ****       return HAL_TIMEOUT;
 2099              		.loc 1 897 14
 2100 00cc 0323     		movs	r3, #3
 2101 00ce 4AE0     		b	.L65
 2102              	.L69:
 898:./Libraries/STM32F4xx_HAL_Driver/Src/stm32f4xx_hal_rtc_ex.c ****     }
 899:./Libraries/STM32F4xx_HAL_Driver/Src/stm32f4xx_hal_rtc_ex.c ****   }
 900:./Libraries/STM32F4xx_HAL_Driver/Src/stm32f4xx_hal_rtc_ex.c ****   while(__HAL_RTC_WAKEUPTIMER_GET_FLAG(hrtc, RTC_FLAG_WUTWF) == RESET);
 2103              		.loc 1 900 9
 2104 00d0 FB68     		ldr	r3, [r7, #12]
 2105 00d2 1B68     		ldr	r3, [r3]
 2106 00d4 DB68     		ldr	r3, [r3, #12]
 2107 00d6 03F00403 		and	r3, r3, #4
 2108              		.loc 1 900 3
 2109 00da 002B     		cmp	r3, #0
 2110 00dc E7D0     		beq	.L70
 901:./Libraries/STM32F4xx_HAL_Driver/Src/stm32f4xx_hal_rtc_ex.c ****         
 902:./Libraries/STM32F4xx_HAL_Driver/Src/stm32f4xx_hal_rtc_ex.c ****   /* Configure the Wake-up Timer counter */
 903:./Libraries/STM32F4xx_HAL_Driver/Src/stm32f4xx_hal_rtc_ex.c ****   hrtc->Instance->WUTR = (uint32_t)WakeUpCounter;
 2111              		.loc 1 903 7
 2112 00de FB68     		ldr	r3, [r7, #12]
 2113 00e0 1B68     		ldr	r3, [r3]
 2114              		.loc 1 903 24
 2115 00e2 BA68     		ldr	r2, [r7, #8]
 2116 00e4 5A61     		str	r2, [r3, #20]
 904:./Libraries/STM32F4xx_HAL_Driver/Src/stm32f4xx_hal_rtc_ex.c **** 
 905:./Libraries/STM32F4xx_HAL_Driver/Src/stm32f4xx_hal_rtc_ex.c ****   /* Clear the Wake-up Timer clock source bits in CR register */
 906:./Libraries/STM32F4xx_HAL_Driver/Src/stm32f4xx_hal_rtc_ex.c ****   hrtc->Instance->CR &= (uint32_t)~RTC_CR_WUCKSEL;
 2117              		.loc 1 906 7
 2118 00e6 FB68     		ldr	r3, [r7, #12]
 2119 00e8 1B68     		ldr	r3, [r3]
 2120              		.loc 1 906 22
 2121 00ea 9A68     		ldr	r2, [r3, #8]
 2122              		.loc 1 906 7
 2123 00ec FB68     		ldr	r3, [r7, #12]
 2124 00ee 1B68     		ldr	r3, [r3]
ARM GAS  /tmp/cckIUkG9.s 			page 54


 2125              		.loc 1 906 22
 2126 00f0 22F00702 		bic	r2, r2, #7
 2127 00f4 9A60     		str	r2, [r3, #8]
 907:./Libraries/STM32F4xx_HAL_Driver/Src/stm32f4xx_hal_rtc_ex.c **** 
 908:./Libraries/STM32F4xx_HAL_Driver/Src/stm32f4xx_hal_rtc_ex.c ****   /* Configure the clock source */
 909:./Libraries/STM32F4xx_HAL_Driver/Src/stm32f4xx_hal_rtc_ex.c ****   hrtc->Instance->CR |= (uint32_t)WakeUpClock;
 2128              		.loc 1 909 7
 2129 00f6 FB68     		ldr	r3, [r7, #12]
 2130 00f8 1B68     		ldr	r3, [r3]
 2131              		.loc 1 909 22
 2132 00fa 9968     		ldr	r1, [r3, #8]
 2133              		.loc 1 909 7
 2134 00fc FB68     		ldr	r3, [r7, #12]
 2135 00fe 1B68     		ldr	r3, [r3]
 2136              		.loc 1 909 22
 2137 0100 7A68     		ldr	r2, [r7, #4]
 2138 0102 0A43     		orrs	r2, r2, r1
 2139 0104 9A60     		str	r2, [r3, #8]
 910:./Libraries/STM32F4xx_HAL_Driver/Src/stm32f4xx_hal_rtc_ex.c **** 
 911:./Libraries/STM32F4xx_HAL_Driver/Src/stm32f4xx_hal_rtc_ex.c ****   /* RTC WakeUpTimer Interrupt Configuration: EXTI configuration */
 912:./Libraries/STM32F4xx_HAL_Driver/Src/stm32f4xx_hal_rtc_ex.c ****   __HAL_RTC_WAKEUPTIMER_EXTI_ENABLE_IT();
 2140              		.loc 1 912 3
 2141 0106 1D4B     		ldr	r3, .L71+8
 2142 0108 1B68     		ldr	r3, [r3]
 2143 010a 1C4A     		ldr	r2, .L71+8
 2144 010c 43F48003 		orr	r3, r3, #4194304
 2145 0110 1360     		str	r3, [r2]
 913:./Libraries/STM32F4xx_HAL_Driver/Src/stm32f4xx_hal_rtc_ex.c **** 
 914:./Libraries/STM32F4xx_HAL_Driver/Src/stm32f4xx_hal_rtc_ex.c ****   EXTI->RTSR |= RTC_EXTI_LINE_WAKEUPTIMER_EVENT;
 2146              		.loc 1 914 14
 2147 0112 1A4B     		ldr	r3, .L71+8
 2148 0114 9B68     		ldr	r3, [r3, #8]
 2149 0116 194A     		ldr	r2, .L71+8
 2150 0118 43F48003 		orr	r3, r3, #4194304
 2151 011c 9360     		str	r3, [r2, #8]
 915:./Libraries/STM32F4xx_HAL_Driver/Src/stm32f4xx_hal_rtc_ex.c ****   
 916:./Libraries/STM32F4xx_HAL_Driver/Src/stm32f4xx_hal_rtc_ex.c ****   /* Clear RTC Wake Up timer Flag */
 917:./Libraries/STM32F4xx_HAL_Driver/Src/stm32f4xx_hal_rtc_ex.c ****   __HAL_RTC_WAKEUPTIMER_CLEAR_FLAG(hrtc, RTC_FLAG_WUTF);
 2152              		.loc 1 917 3
 2153 011e FB68     		ldr	r3, [r7, #12]
 2154 0120 1B68     		ldr	r3, [r3]
 2155 0122 DB68     		ldr	r3, [r3, #12]
 2156 0124 DAB2     		uxtb	r2, r3
 2157 0126 FB68     		ldr	r3, [r7, #12]
 2158 0128 1B68     		ldr	r3, [r3]
 2159 012a 62F49062 		orn	r2, r2, #1152
 2160 012e DA60     		str	r2, [r3, #12]
 918:./Libraries/STM32F4xx_HAL_Driver/Src/stm32f4xx_hal_rtc_ex.c ****   
 919:./Libraries/STM32F4xx_HAL_Driver/Src/stm32f4xx_hal_rtc_ex.c ****   /* Configure the Interrupt in the RTC_CR register */
 920:./Libraries/STM32F4xx_HAL_Driver/Src/stm32f4xx_hal_rtc_ex.c ****   __HAL_RTC_WAKEUPTIMER_ENABLE_IT(hrtc,RTC_IT_WUT);
 2161              		.loc 1 920 3
 2162 0130 FB68     		ldr	r3, [r7, #12]
 2163 0132 1B68     		ldr	r3, [r3]
 2164 0134 9A68     		ldr	r2, [r3, #8]
 2165 0136 FB68     		ldr	r3, [r7, #12]
 2166 0138 1B68     		ldr	r3, [r3]
 2167 013a 42F48042 		orr	r2, r2, #16384
ARM GAS  /tmp/cckIUkG9.s 			page 55


 2168 013e 9A60     		str	r2, [r3, #8]
 921:./Libraries/STM32F4xx_HAL_Driver/Src/stm32f4xx_hal_rtc_ex.c **** 
 922:./Libraries/STM32F4xx_HAL_Driver/Src/stm32f4xx_hal_rtc_ex.c ****   /* Enable the Wake-up Timer */
 923:./Libraries/STM32F4xx_HAL_Driver/Src/stm32f4xx_hal_rtc_ex.c ****   __HAL_RTC_WAKEUPTIMER_ENABLE(hrtc);
 2169              		.loc 1 923 3
 2170 0140 FB68     		ldr	r3, [r7, #12]
 2171 0142 1B68     		ldr	r3, [r3]
 2172 0144 9A68     		ldr	r2, [r3, #8]
 2173 0146 FB68     		ldr	r3, [r7, #12]
 2174 0148 1B68     		ldr	r3, [r3]
 2175 014a 42F48062 		orr	r2, r2, #1024
 2176 014e 9A60     		str	r2, [r3, #8]
 924:./Libraries/STM32F4xx_HAL_Driver/Src/stm32f4xx_hal_rtc_ex.c **** 
 925:./Libraries/STM32F4xx_HAL_Driver/Src/stm32f4xx_hal_rtc_ex.c ****   /* Enable the write protection for RTC registers */
 926:./Libraries/STM32F4xx_HAL_Driver/Src/stm32f4xx_hal_rtc_ex.c ****   __HAL_RTC_WRITEPROTECTION_ENABLE(hrtc);
 2177              		.loc 1 926 3
 2178 0150 FB68     		ldr	r3, [r7, #12]
 2179 0152 1B68     		ldr	r3, [r3]
 2180 0154 FF22     		movs	r2, #255
 2181 0156 5A62     		str	r2, [r3, #36]
 927:./Libraries/STM32F4xx_HAL_Driver/Src/stm32f4xx_hal_rtc_ex.c **** 
 928:./Libraries/STM32F4xx_HAL_Driver/Src/stm32f4xx_hal_rtc_ex.c ****   hrtc->State = HAL_RTC_STATE_READY;
 2182              		.loc 1 928 15
 2183 0158 FB68     		ldr	r3, [r7, #12]
 2184 015a 0122     		movs	r2, #1
 2185 015c 5A77     		strb	r2, [r3, #29]
 929:./Libraries/STM32F4xx_HAL_Driver/Src/stm32f4xx_hal_rtc_ex.c **** 
 930:./Libraries/STM32F4xx_HAL_Driver/Src/stm32f4xx_hal_rtc_ex.c ****   /* Process Unlocked */ 
 931:./Libraries/STM32F4xx_HAL_Driver/Src/stm32f4xx_hal_rtc_ex.c ****   __HAL_UNLOCK(hrtc);
 2186              		.loc 1 931 3
 2187 015e FB68     		ldr	r3, [r7, #12]
 2188 0160 0022     		movs	r2, #0
 2189 0162 1A77     		strb	r2, [r3, #28]
 932:./Libraries/STM32F4xx_HAL_Driver/Src/stm32f4xx_hal_rtc_ex.c **** 
 933:./Libraries/STM32F4xx_HAL_Driver/Src/stm32f4xx_hal_rtc_ex.c ****   return HAL_OK;
 2190              		.loc 1 933 10
 2191 0164 0023     		movs	r3, #0
 2192              	.L65:
 934:./Libraries/STM32F4xx_HAL_Driver/Src/stm32f4xx_hal_rtc_ex.c **** }
 2193              		.loc 1 934 1
 2194 0166 1846     		mov	r0, r3
 2195 0168 1C37     		adds	r7, r7, #28
 2196              	.LCFI87:
 2197              		.cfi_def_cfa_offset 4
 2198 016a BD46     		mov	sp, r7
 2199              	.LCFI88:
 2200              		.cfi_def_cfa_register 13
 2201              		@ sp needed
 2202 016c 5DF8047B 		ldr	r7, [sp], #4
 2203              	.LCFI89:
 2204              		.cfi_restore 7
 2205              		.cfi_def_cfa_offset 0
 2206 0170 7047     		bx	lr
 2207              	.L72:
 2208 0172 00BF     		.align	2
 2209              	.L71:
 2210 0174 00000000 		.word	SystemCoreClock
ARM GAS  /tmp/cckIUkG9.s 			page 56


 2211 0178 D34D6210 		.word	274877907
 2212 017c 003C0140 		.word	1073822720
 2213              		.cfi_endproc
 2214              	.LFE141:
 2216              		.section	.text.HAL_RTCEx_DeactivateWakeUpTimer,"ax",%progbits
 2217              		.align	1
 2218              		.global	HAL_RTCEx_DeactivateWakeUpTimer
 2219              		.syntax unified
 2220              		.thumb
 2221              		.thumb_func
 2222              		.fpu fpv4-sp-d16
 2224              	HAL_RTCEx_DeactivateWakeUpTimer:
 2225              	.LFB142:
 935:./Libraries/STM32F4xx_HAL_Driver/Src/stm32f4xx_hal_rtc_ex.c **** 
 936:./Libraries/STM32F4xx_HAL_Driver/Src/stm32f4xx_hal_rtc_ex.c **** /**
 937:./Libraries/STM32F4xx_HAL_Driver/Src/stm32f4xx_hal_rtc_ex.c ****   * @brief  Deactivates wake up timer counter.
 938:./Libraries/STM32F4xx_HAL_Driver/Src/stm32f4xx_hal_rtc_ex.c ****   * @param  hrtc pointer to a RTC_HandleTypeDef structure that contains
 939:./Libraries/STM32F4xx_HAL_Driver/Src/stm32f4xx_hal_rtc_ex.c ****   *                the configuration information for RTC. 
 940:./Libraries/STM32F4xx_HAL_Driver/Src/stm32f4xx_hal_rtc_ex.c ****   * @retval HAL status
 941:./Libraries/STM32F4xx_HAL_Driver/Src/stm32f4xx_hal_rtc_ex.c ****   */
 942:./Libraries/STM32F4xx_HAL_Driver/Src/stm32f4xx_hal_rtc_ex.c **** uint32_t HAL_RTCEx_DeactivateWakeUpTimer(RTC_HandleTypeDef *hrtc)
 943:./Libraries/STM32F4xx_HAL_Driver/Src/stm32f4xx_hal_rtc_ex.c **** {
 2226              		.loc 1 943 1
 2227              		.cfi_startproc
 2228              		@ args = 0, pretend = 0, frame = 16
 2229              		@ frame_needed = 1, uses_anonymous_args = 0
 2230 0000 80B5     		push	{r7, lr}
 2231              	.LCFI90:
 2232              		.cfi_def_cfa_offset 8
 2233              		.cfi_offset 7, -8
 2234              		.cfi_offset 14, -4
 2235 0002 84B0     		sub	sp, sp, #16
 2236              	.LCFI91:
 2237              		.cfi_def_cfa_offset 24
 2238 0004 00AF     		add	r7, sp, #0
 2239              	.LCFI92:
 2240              		.cfi_def_cfa_register 7
 2241 0006 7860     		str	r0, [r7, #4]
 944:./Libraries/STM32F4xx_HAL_Driver/Src/stm32f4xx_hal_rtc_ex.c ****   uint32_t tickstart = 0U;
 2242              		.loc 1 944 12
 2243 0008 0023     		movs	r3, #0
 2244 000a FB60     		str	r3, [r7, #12]
 945:./Libraries/STM32F4xx_HAL_Driver/Src/stm32f4xx_hal_rtc_ex.c ****   
 946:./Libraries/STM32F4xx_HAL_Driver/Src/stm32f4xx_hal_rtc_ex.c ****   /* Process Locked */ 
 947:./Libraries/STM32F4xx_HAL_Driver/Src/stm32f4xx_hal_rtc_ex.c ****   __HAL_LOCK(hrtc);
 2245              		.loc 1 947 3
 2246 000c 7B68     		ldr	r3, [r7, #4]
 2247 000e 1B7F     		ldrb	r3, [r3, #28]	@ zero_extendqisi2
 2248 0010 012B     		cmp	r3, #1
 2249 0012 01D1     		bne	.L74
 2250              		.loc 1 947 3 is_stmt 0 discriminator 1
 2251 0014 0223     		movs	r3, #2
 2252 0016 47E0     		b	.L75
 2253              	.L74:
 2254              		.loc 1 947 3 discriminator 2
 2255 0018 7B68     		ldr	r3, [r7, #4]
 2256 001a 0122     		movs	r2, #1
ARM GAS  /tmp/cckIUkG9.s 			page 57


 2257 001c 1A77     		strb	r2, [r3, #28]
 948:./Libraries/STM32F4xx_HAL_Driver/Src/stm32f4xx_hal_rtc_ex.c ****   
 949:./Libraries/STM32F4xx_HAL_Driver/Src/stm32f4xx_hal_rtc_ex.c ****   hrtc->State = HAL_RTC_STATE_BUSY;
 2258              		.loc 1 949 15 is_stmt 1 discriminator 2
 2259 001e 7B68     		ldr	r3, [r7, #4]
 2260 0020 0222     		movs	r2, #2
 2261 0022 5A77     		strb	r2, [r3, #29]
 950:./Libraries/STM32F4xx_HAL_Driver/Src/stm32f4xx_hal_rtc_ex.c ****   
 951:./Libraries/STM32F4xx_HAL_Driver/Src/stm32f4xx_hal_rtc_ex.c ****   /* Disable the write protection for RTC registers */
 952:./Libraries/STM32F4xx_HAL_Driver/Src/stm32f4xx_hal_rtc_ex.c ****   __HAL_RTC_WRITEPROTECTION_DISABLE(hrtc);
 2262              		.loc 1 952 3 discriminator 2
 2263 0024 7B68     		ldr	r3, [r7, #4]
 2264 0026 1B68     		ldr	r3, [r3]
 2265 0028 CA22     		movs	r2, #202
 2266 002a 5A62     		str	r2, [r3, #36]
 2267 002c 7B68     		ldr	r3, [r7, #4]
 2268 002e 1B68     		ldr	r3, [r3]
 2269 0030 5322     		movs	r2, #83
 2270 0032 5A62     		str	r2, [r3, #36]
 953:./Libraries/STM32F4xx_HAL_Driver/Src/stm32f4xx_hal_rtc_ex.c ****   
 954:./Libraries/STM32F4xx_HAL_Driver/Src/stm32f4xx_hal_rtc_ex.c ****   /* Disable the Wake-up Timer */
 955:./Libraries/STM32F4xx_HAL_Driver/Src/stm32f4xx_hal_rtc_ex.c ****   __HAL_RTC_WAKEUPTIMER_DISABLE(hrtc);
 2271              		.loc 1 955 3 discriminator 2
 2272 0034 7B68     		ldr	r3, [r7, #4]
 2273 0036 1B68     		ldr	r3, [r3]
 2274 0038 9A68     		ldr	r2, [r3, #8]
 2275 003a 7B68     		ldr	r3, [r7, #4]
 2276 003c 1B68     		ldr	r3, [r3]
 2277 003e 22F48062 		bic	r2, r2, #1024
 2278 0042 9A60     		str	r2, [r3, #8]
 956:./Libraries/STM32F4xx_HAL_Driver/Src/stm32f4xx_hal_rtc_ex.c ****   
 957:./Libraries/STM32F4xx_HAL_Driver/Src/stm32f4xx_hal_rtc_ex.c ****   /* In case of interrupt mode is used, the interrupt source must disabled */ 
 958:./Libraries/STM32F4xx_HAL_Driver/Src/stm32f4xx_hal_rtc_ex.c ****   __HAL_RTC_WAKEUPTIMER_DISABLE_IT(hrtc,RTC_IT_WUT);
 2279              		.loc 1 958 3 discriminator 2
 2280 0044 7B68     		ldr	r3, [r7, #4]
 2281 0046 1B68     		ldr	r3, [r3]
 2282 0048 9A68     		ldr	r2, [r3, #8]
 2283 004a 7B68     		ldr	r3, [r7, #4]
 2284 004c 1B68     		ldr	r3, [r3]
 2285 004e 22F48042 		bic	r2, r2, #16384
 2286 0052 9A60     		str	r2, [r3, #8]
 959:./Libraries/STM32F4xx_HAL_Driver/Src/stm32f4xx_hal_rtc_ex.c **** 
 960:./Libraries/STM32F4xx_HAL_Driver/Src/stm32f4xx_hal_rtc_ex.c ****   /* Get tick */
 961:./Libraries/STM32F4xx_HAL_Driver/Src/stm32f4xx_hal_rtc_ex.c ****   tickstart = HAL_GetTick();
 2287              		.loc 1 961 15 discriminator 2
 2288 0054 FFF7FEFF 		bl	HAL_GetTick
 2289 0058 F860     		str	r0, [r7, #12]
 962:./Libraries/STM32F4xx_HAL_Driver/Src/stm32f4xx_hal_rtc_ex.c **** 
 963:./Libraries/STM32F4xx_HAL_Driver/Src/stm32f4xx_hal_rtc_ex.c ****   /* Wait till RTC WUTWF flag is set and if Time out is reached exit */
 964:./Libraries/STM32F4xx_HAL_Driver/Src/stm32f4xx_hal_rtc_ex.c ****   while(__HAL_RTC_WAKEUPTIMER_GET_FLAG(hrtc, RTC_FLAG_WUTWF) == RESET)
 2290              		.loc 1 964 8 discriminator 2
 2291 005a 13E0     		b	.L76
 2292              	.L77:
 965:./Libraries/STM32F4xx_HAL_Driver/Src/stm32f4xx_hal_rtc_ex.c ****   {
 966:./Libraries/STM32F4xx_HAL_Driver/Src/stm32f4xx_hal_rtc_ex.c ****     if((HAL_GetTick() - tickstart ) > RTC_TIMEOUT_VALUE)
 2293              		.loc 1 966 9
 2294 005c FFF7FEFF 		bl	HAL_GetTick
ARM GAS  /tmp/cckIUkG9.s 			page 58


 2295 0060 0246     		mov	r2, r0
 2296              		.loc 1 966 23
 2297 0062 FB68     		ldr	r3, [r7, #12]
 2298 0064 D31A     		subs	r3, r2, r3
 2299              		.loc 1 966 7
 2300 0066 B3F57A7F 		cmp	r3, #1000
 2301 006a 0BD9     		bls	.L76
 967:./Libraries/STM32F4xx_HAL_Driver/Src/stm32f4xx_hal_rtc_ex.c ****     {
 968:./Libraries/STM32F4xx_HAL_Driver/Src/stm32f4xx_hal_rtc_ex.c ****       /* Enable the write protection for RTC registers */
 969:./Libraries/STM32F4xx_HAL_Driver/Src/stm32f4xx_hal_rtc_ex.c ****       __HAL_RTC_WRITEPROTECTION_ENABLE(hrtc);
 2302              		.loc 1 969 7
 2303 006c 7B68     		ldr	r3, [r7, #4]
 2304 006e 1B68     		ldr	r3, [r3]
 2305 0070 FF22     		movs	r2, #255
 2306 0072 5A62     		str	r2, [r3, #36]
 970:./Libraries/STM32F4xx_HAL_Driver/Src/stm32f4xx_hal_rtc_ex.c ****       
 971:./Libraries/STM32F4xx_HAL_Driver/Src/stm32f4xx_hal_rtc_ex.c ****       hrtc->State = HAL_RTC_STATE_TIMEOUT; 
 2307              		.loc 1 971 19
 2308 0074 7B68     		ldr	r3, [r7, #4]
 2309 0076 0322     		movs	r2, #3
 2310 0078 5A77     		strb	r2, [r3, #29]
 972:./Libraries/STM32F4xx_HAL_Driver/Src/stm32f4xx_hal_rtc_ex.c ****       
 973:./Libraries/STM32F4xx_HAL_Driver/Src/stm32f4xx_hal_rtc_ex.c ****       /* Process Unlocked */ 
 974:./Libraries/STM32F4xx_HAL_Driver/Src/stm32f4xx_hal_rtc_ex.c ****       __HAL_UNLOCK(hrtc);
 2311              		.loc 1 974 7
 2312 007a 7B68     		ldr	r3, [r7, #4]
 2313 007c 0022     		movs	r2, #0
 2314 007e 1A77     		strb	r2, [r3, #28]
 975:./Libraries/STM32F4xx_HAL_Driver/Src/stm32f4xx_hal_rtc_ex.c ****       
 976:./Libraries/STM32F4xx_HAL_Driver/Src/stm32f4xx_hal_rtc_ex.c ****       return HAL_TIMEOUT;
 2315              		.loc 1 976 14
 2316 0080 0323     		movs	r3, #3
 2317 0082 11E0     		b	.L75
 2318              	.L76:
 964:./Libraries/STM32F4xx_HAL_Driver/Src/stm32f4xx_hal_rtc_ex.c ****   {
 2319              		.loc 1 964 9
 2320 0084 7B68     		ldr	r3, [r7, #4]
 2321 0086 1B68     		ldr	r3, [r3]
 2322 0088 DB68     		ldr	r3, [r3, #12]
 2323 008a 03F00403 		and	r3, r3, #4
 964:./Libraries/STM32F4xx_HAL_Driver/Src/stm32f4xx_hal_rtc_ex.c ****   {
 2324              		.loc 1 964 8
 2325 008e 002B     		cmp	r3, #0
 2326 0090 E4D0     		beq	.L77
 977:./Libraries/STM32F4xx_HAL_Driver/Src/stm32f4xx_hal_rtc_ex.c ****     }   
 978:./Libraries/STM32F4xx_HAL_Driver/Src/stm32f4xx_hal_rtc_ex.c ****   }
 979:./Libraries/STM32F4xx_HAL_Driver/Src/stm32f4xx_hal_rtc_ex.c ****   
 980:./Libraries/STM32F4xx_HAL_Driver/Src/stm32f4xx_hal_rtc_ex.c ****   /* Enable the write protection for RTC registers */
 981:./Libraries/STM32F4xx_HAL_Driver/Src/stm32f4xx_hal_rtc_ex.c ****   __HAL_RTC_WRITEPROTECTION_ENABLE(hrtc);
 2327              		.loc 1 981 3
 2328 0092 7B68     		ldr	r3, [r7, #4]
 2329 0094 1B68     		ldr	r3, [r3]
 2330 0096 FF22     		movs	r2, #255
 2331 0098 5A62     		str	r2, [r3, #36]
 982:./Libraries/STM32F4xx_HAL_Driver/Src/stm32f4xx_hal_rtc_ex.c ****   
 983:./Libraries/STM32F4xx_HAL_Driver/Src/stm32f4xx_hal_rtc_ex.c ****   hrtc->State = HAL_RTC_STATE_READY;   
 2332              		.loc 1 983 15
ARM GAS  /tmp/cckIUkG9.s 			page 59


 2333 009a 7B68     		ldr	r3, [r7, #4]
 2334 009c 0122     		movs	r2, #1
 2335 009e 5A77     		strb	r2, [r3, #29]
 984:./Libraries/STM32F4xx_HAL_Driver/Src/stm32f4xx_hal_rtc_ex.c ****   
 985:./Libraries/STM32F4xx_HAL_Driver/Src/stm32f4xx_hal_rtc_ex.c ****   /* Process Unlocked */ 
 986:./Libraries/STM32F4xx_HAL_Driver/Src/stm32f4xx_hal_rtc_ex.c ****   __HAL_UNLOCK(hrtc);
 2336              		.loc 1 986 3
 2337 00a0 7B68     		ldr	r3, [r7, #4]
 2338 00a2 0022     		movs	r2, #0
 2339 00a4 1A77     		strb	r2, [r3, #28]
 987:./Libraries/STM32F4xx_HAL_Driver/Src/stm32f4xx_hal_rtc_ex.c ****   
 988:./Libraries/STM32F4xx_HAL_Driver/Src/stm32f4xx_hal_rtc_ex.c ****   return HAL_OK;
 2340              		.loc 1 988 10
 2341 00a6 0023     		movs	r3, #0
 2342              	.L75:
 989:./Libraries/STM32F4xx_HAL_Driver/Src/stm32f4xx_hal_rtc_ex.c **** }
 2343              		.loc 1 989 1
 2344 00a8 1846     		mov	r0, r3
 2345 00aa 1037     		adds	r7, r7, #16
 2346              	.LCFI93:
 2347              		.cfi_def_cfa_offset 8
 2348 00ac BD46     		mov	sp, r7
 2349              	.LCFI94:
 2350              		.cfi_def_cfa_register 13
 2351              		@ sp needed
 2352 00ae 80BD     		pop	{r7, pc}
 2353              		.cfi_endproc
 2354              	.LFE142:
 2356              		.section	.text.HAL_RTCEx_GetWakeUpTimer,"ax",%progbits
 2357              		.align	1
 2358              		.global	HAL_RTCEx_GetWakeUpTimer
 2359              		.syntax unified
 2360              		.thumb
 2361              		.thumb_func
 2362              		.fpu fpv4-sp-d16
 2364              	HAL_RTCEx_GetWakeUpTimer:
 2365              	.LFB143:
 990:./Libraries/STM32F4xx_HAL_Driver/Src/stm32f4xx_hal_rtc_ex.c **** 
 991:./Libraries/STM32F4xx_HAL_Driver/Src/stm32f4xx_hal_rtc_ex.c **** /**
 992:./Libraries/STM32F4xx_HAL_Driver/Src/stm32f4xx_hal_rtc_ex.c ****   * @brief  Gets wake up timer counter.
 993:./Libraries/STM32F4xx_HAL_Driver/Src/stm32f4xx_hal_rtc_ex.c ****   * @param  hrtc pointer to a RTC_HandleTypeDef structure that contains
 994:./Libraries/STM32F4xx_HAL_Driver/Src/stm32f4xx_hal_rtc_ex.c ****   *                the configuration information for RTC. 
 995:./Libraries/STM32F4xx_HAL_Driver/Src/stm32f4xx_hal_rtc_ex.c ****   * @retval Counter value
 996:./Libraries/STM32F4xx_HAL_Driver/Src/stm32f4xx_hal_rtc_ex.c ****   */
 997:./Libraries/STM32F4xx_HAL_Driver/Src/stm32f4xx_hal_rtc_ex.c **** uint32_t HAL_RTCEx_GetWakeUpTimer(RTC_HandleTypeDef *hrtc)
 998:./Libraries/STM32F4xx_HAL_Driver/Src/stm32f4xx_hal_rtc_ex.c **** {
 2366              		.loc 1 998 1
 2367              		.cfi_startproc
 2368              		@ args = 0, pretend = 0, frame = 8
 2369              		@ frame_needed = 1, uses_anonymous_args = 0
 2370              		@ link register save eliminated.
 2371 0000 80B4     		push	{r7}
 2372              	.LCFI95:
 2373              		.cfi_def_cfa_offset 4
 2374              		.cfi_offset 7, -4
 2375 0002 83B0     		sub	sp, sp, #12
 2376              	.LCFI96:
ARM GAS  /tmp/cckIUkG9.s 			page 60


 2377              		.cfi_def_cfa_offset 16
 2378 0004 00AF     		add	r7, sp, #0
 2379              	.LCFI97:
 2380              		.cfi_def_cfa_register 7
 2381 0006 7860     		str	r0, [r7, #4]
 999:./Libraries/STM32F4xx_HAL_Driver/Src/stm32f4xx_hal_rtc_ex.c ****   /* Get the counter value */
1000:./Libraries/STM32F4xx_HAL_Driver/Src/stm32f4xx_hal_rtc_ex.c ****   return ((uint32_t)(hrtc->Instance->WUTR & RTC_WUTR_WUT)); 
 2382              		.loc 1 1000 26
 2383 0008 7B68     		ldr	r3, [r7, #4]
 2384 000a 1B68     		ldr	r3, [r3]
 2385              		.loc 1 1000 36
 2386 000c 5B69     		ldr	r3, [r3, #20]
 2387              		.loc 1 1000 11
 2388 000e 9BB2     		uxth	r3, r3
1001:./Libraries/STM32F4xx_HAL_Driver/Src/stm32f4xx_hal_rtc_ex.c **** }
 2389              		.loc 1 1001 1
 2390 0010 1846     		mov	r0, r3
 2391 0012 0C37     		adds	r7, r7, #12
 2392              	.LCFI98:
 2393              		.cfi_def_cfa_offset 4
 2394 0014 BD46     		mov	sp, r7
 2395              	.LCFI99:
 2396              		.cfi_def_cfa_register 13
 2397              		@ sp needed
 2398 0016 5DF8047B 		ldr	r7, [sp], #4
 2399              	.LCFI100:
 2400              		.cfi_restore 7
 2401              		.cfi_def_cfa_offset 0
 2402 001a 7047     		bx	lr
 2403              		.cfi_endproc
 2404              	.LFE143:
 2406              		.section	.text.HAL_RTCEx_WakeUpTimerIRQHandler,"ax",%progbits
 2407              		.align	1
 2408              		.global	HAL_RTCEx_WakeUpTimerIRQHandler
 2409              		.syntax unified
 2410              		.thumb
 2411              		.thumb_func
 2412              		.fpu fpv4-sp-d16
 2414              	HAL_RTCEx_WakeUpTimerIRQHandler:
 2415              	.LFB144:
1002:./Libraries/STM32F4xx_HAL_Driver/Src/stm32f4xx_hal_rtc_ex.c **** 
1003:./Libraries/STM32F4xx_HAL_Driver/Src/stm32f4xx_hal_rtc_ex.c **** /**
1004:./Libraries/STM32F4xx_HAL_Driver/Src/stm32f4xx_hal_rtc_ex.c ****   * @brief  This function handles Wake Up Timer interrupt request.
1005:./Libraries/STM32F4xx_HAL_Driver/Src/stm32f4xx_hal_rtc_ex.c ****   * @param  hrtc pointer to a RTC_HandleTypeDef structure that contains
1006:./Libraries/STM32F4xx_HAL_Driver/Src/stm32f4xx_hal_rtc_ex.c ****   *                the configuration information for RTC.
1007:./Libraries/STM32F4xx_HAL_Driver/Src/stm32f4xx_hal_rtc_ex.c ****   * @retval None
1008:./Libraries/STM32F4xx_HAL_Driver/Src/stm32f4xx_hal_rtc_ex.c ****   */
1009:./Libraries/STM32F4xx_HAL_Driver/Src/stm32f4xx_hal_rtc_ex.c **** void HAL_RTCEx_WakeUpTimerIRQHandler(RTC_HandleTypeDef *hrtc)
1010:./Libraries/STM32F4xx_HAL_Driver/Src/stm32f4xx_hal_rtc_ex.c **** {  
 2416              		.loc 1 1010 1
 2417              		.cfi_startproc
 2418              		@ args = 0, pretend = 0, frame = 8
 2419              		@ frame_needed = 1, uses_anonymous_args = 0
 2420 0000 80B5     		push	{r7, lr}
 2421              	.LCFI101:
 2422              		.cfi_def_cfa_offset 8
 2423              		.cfi_offset 7, -8
ARM GAS  /tmp/cckIUkG9.s 			page 61


 2424              		.cfi_offset 14, -4
 2425 0002 82B0     		sub	sp, sp, #8
 2426              	.LCFI102:
 2427              		.cfi_def_cfa_offset 16
 2428 0004 00AF     		add	r7, sp, #0
 2429              	.LCFI103:
 2430              		.cfi_def_cfa_register 7
 2431 0006 7860     		str	r0, [r7, #4]
1011:./Libraries/STM32F4xx_HAL_Driver/Src/stm32f4xx_hal_rtc_ex.c ****   if(__HAL_RTC_WAKEUPTIMER_GET_IT(hrtc, RTC_IT_WUT))
 2432              		.loc 1 1011 6
 2433 0008 7B68     		ldr	r3, [r7, #4]
 2434 000a 1B68     		ldr	r3, [r3]
 2435 000c DB68     		ldr	r3, [r3, #12]
 2436 000e 03F48063 		and	r3, r3, #1024
 2437              		.loc 1 1011 5
 2438 0012 002B     		cmp	r3, #0
 2439 0014 12D0     		beq	.L81
1012:./Libraries/STM32F4xx_HAL_Driver/Src/stm32f4xx_hal_rtc_ex.c ****   {
1013:./Libraries/STM32F4xx_HAL_Driver/Src/stm32f4xx_hal_rtc_ex.c ****     /* Get the status of the Interrupt */
1014:./Libraries/STM32F4xx_HAL_Driver/Src/stm32f4xx_hal_rtc_ex.c ****     if((uint32_t)(hrtc->Instance->CR & RTC_IT_WUT) != (uint32_t)RESET)
 2440              		.loc 1 1014 23
 2441 0016 7B68     		ldr	r3, [r7, #4]
 2442 0018 1B68     		ldr	r3, [r3]
 2443              		.loc 1 1014 33
 2444 001a 9B68     		ldr	r3, [r3, #8]
 2445              		.loc 1 1014 8
 2446 001c 03F48043 		and	r3, r3, #16384
 2447              		.loc 1 1014 7
 2448 0020 002B     		cmp	r3, #0
 2449 0022 0BD0     		beq	.L81
1015:./Libraries/STM32F4xx_HAL_Driver/Src/stm32f4xx_hal_rtc_ex.c ****     {
1016:./Libraries/STM32F4xx_HAL_Driver/Src/stm32f4xx_hal_rtc_ex.c ****       /* WAKEUPTIMER callback */ 
1017:./Libraries/STM32F4xx_HAL_Driver/Src/stm32f4xx_hal_rtc_ex.c ****       HAL_RTCEx_WakeUpTimerEventCallback(hrtc);
 2450              		.loc 1 1017 7
 2451 0024 7868     		ldr	r0, [r7, #4]
 2452 0026 FFF7FEFF 		bl	HAL_RTCEx_WakeUpTimerEventCallback
1018:./Libraries/STM32F4xx_HAL_Driver/Src/stm32f4xx_hal_rtc_ex.c ****       
1019:./Libraries/STM32F4xx_HAL_Driver/Src/stm32f4xx_hal_rtc_ex.c ****       /* Clear the WAKEUPTIMER interrupt pending bit */
1020:./Libraries/STM32F4xx_HAL_Driver/Src/stm32f4xx_hal_rtc_ex.c ****       __HAL_RTC_WAKEUPTIMER_CLEAR_FLAG(hrtc, RTC_FLAG_WUTF);
 2453              		.loc 1 1020 7
 2454 002a 7B68     		ldr	r3, [r7, #4]
 2455 002c 1B68     		ldr	r3, [r3]
 2456 002e DB68     		ldr	r3, [r3, #12]
 2457 0030 DAB2     		uxtb	r2, r3
 2458 0032 7B68     		ldr	r3, [r7, #4]
 2459 0034 1B68     		ldr	r3, [r3]
 2460 0036 62F49062 		orn	r2, r2, #1152
 2461 003a DA60     		str	r2, [r3, #12]
 2462              	.L81:
1021:./Libraries/STM32F4xx_HAL_Driver/Src/stm32f4xx_hal_rtc_ex.c ****     }
1022:./Libraries/STM32F4xx_HAL_Driver/Src/stm32f4xx_hal_rtc_ex.c ****   }
1023:./Libraries/STM32F4xx_HAL_Driver/Src/stm32f4xx_hal_rtc_ex.c ****   
1024:./Libraries/STM32F4xx_HAL_Driver/Src/stm32f4xx_hal_rtc_ex.c ****   /* Clear the EXTI's line Flag for RTC WakeUpTimer */
1025:./Libraries/STM32F4xx_HAL_Driver/Src/stm32f4xx_hal_rtc_ex.c ****   __HAL_RTC_WAKEUPTIMER_EXTI_CLEAR_FLAG();
 2463              		.loc 1 1025 3
 2464 003c 054B     		ldr	r3, .L82
 2465 003e 4FF48002 		mov	r2, #4194304
ARM GAS  /tmp/cckIUkG9.s 			page 62


 2466 0042 5A61     		str	r2, [r3, #20]
1026:./Libraries/STM32F4xx_HAL_Driver/Src/stm32f4xx_hal_rtc_ex.c **** 
1027:./Libraries/STM32F4xx_HAL_Driver/Src/stm32f4xx_hal_rtc_ex.c ****   /* Change RTC state */
1028:./Libraries/STM32F4xx_HAL_Driver/Src/stm32f4xx_hal_rtc_ex.c ****   hrtc->State = HAL_RTC_STATE_READY; 
 2467              		.loc 1 1028 15
 2468 0044 7B68     		ldr	r3, [r7, #4]
 2469 0046 0122     		movs	r2, #1
 2470 0048 5A77     		strb	r2, [r3, #29]
1029:./Libraries/STM32F4xx_HAL_Driver/Src/stm32f4xx_hal_rtc_ex.c **** }
 2471              		.loc 1 1029 1
 2472 004a 00BF     		nop
 2473 004c 0837     		adds	r7, r7, #8
 2474              	.LCFI104:
 2475              		.cfi_def_cfa_offset 8
 2476 004e BD46     		mov	sp, r7
 2477              	.LCFI105:
 2478              		.cfi_def_cfa_register 13
 2479              		@ sp needed
 2480 0050 80BD     		pop	{r7, pc}
 2481              	.L83:
 2482 0052 00BF     		.align	2
 2483              	.L82:
 2484 0054 003C0140 		.word	1073822720
 2485              		.cfi_endproc
 2486              	.LFE144:
 2488              		.section	.text.HAL_RTCEx_WakeUpTimerEventCallback,"ax",%progbits
 2489              		.align	1
 2490              		.weak	HAL_RTCEx_WakeUpTimerEventCallback
 2491              		.syntax unified
 2492              		.thumb
 2493              		.thumb_func
 2494              		.fpu fpv4-sp-d16
 2496              	HAL_RTCEx_WakeUpTimerEventCallback:
 2497              	.LFB145:
1030:./Libraries/STM32F4xx_HAL_Driver/Src/stm32f4xx_hal_rtc_ex.c **** 
1031:./Libraries/STM32F4xx_HAL_Driver/Src/stm32f4xx_hal_rtc_ex.c **** /**
1032:./Libraries/STM32F4xx_HAL_Driver/Src/stm32f4xx_hal_rtc_ex.c ****   * @brief  Wake Up Timer callback.
1033:./Libraries/STM32F4xx_HAL_Driver/Src/stm32f4xx_hal_rtc_ex.c ****   * @param  hrtc pointer to a RTC_HandleTypeDef structure that contains
1034:./Libraries/STM32F4xx_HAL_Driver/Src/stm32f4xx_hal_rtc_ex.c ****   *                the configuration information for RTC.
1035:./Libraries/STM32F4xx_HAL_Driver/Src/stm32f4xx_hal_rtc_ex.c ****   * @retval None
1036:./Libraries/STM32F4xx_HAL_Driver/Src/stm32f4xx_hal_rtc_ex.c ****   */
1037:./Libraries/STM32F4xx_HAL_Driver/Src/stm32f4xx_hal_rtc_ex.c **** __weak void HAL_RTCEx_WakeUpTimerEventCallback(RTC_HandleTypeDef *hrtc)
1038:./Libraries/STM32F4xx_HAL_Driver/Src/stm32f4xx_hal_rtc_ex.c **** {
 2498              		.loc 1 1038 1
 2499              		.cfi_startproc
 2500              		@ args = 0, pretend = 0, frame = 8
 2501              		@ frame_needed = 1, uses_anonymous_args = 0
 2502              		@ link register save eliminated.
 2503 0000 80B4     		push	{r7}
 2504              	.LCFI106:
 2505              		.cfi_def_cfa_offset 4
 2506              		.cfi_offset 7, -4
 2507 0002 83B0     		sub	sp, sp, #12
 2508              	.LCFI107:
 2509              		.cfi_def_cfa_offset 16
 2510 0004 00AF     		add	r7, sp, #0
 2511              	.LCFI108:
ARM GAS  /tmp/cckIUkG9.s 			page 63


 2512              		.cfi_def_cfa_register 7
 2513 0006 7860     		str	r0, [r7, #4]
1039:./Libraries/STM32F4xx_HAL_Driver/Src/stm32f4xx_hal_rtc_ex.c ****   /* Prevent unused argument(s) compilation warning */
1040:./Libraries/STM32F4xx_HAL_Driver/Src/stm32f4xx_hal_rtc_ex.c ****   UNUSED(hrtc);
1041:./Libraries/STM32F4xx_HAL_Driver/Src/stm32f4xx_hal_rtc_ex.c ****   /* NOTE : This function Should not be modified, when the callback is needed,
1042:./Libraries/STM32F4xx_HAL_Driver/Src/stm32f4xx_hal_rtc_ex.c ****             the HAL_RTC_WakeUpTimerEventCallback could be implemented in the user file
1043:./Libraries/STM32F4xx_HAL_Driver/Src/stm32f4xx_hal_rtc_ex.c ****    */
1044:./Libraries/STM32F4xx_HAL_Driver/Src/stm32f4xx_hal_rtc_ex.c **** }
 2514              		.loc 1 1044 1
 2515 0008 00BF     		nop
 2516 000a 0C37     		adds	r7, r7, #12
 2517              	.LCFI109:
 2518              		.cfi_def_cfa_offset 4
 2519 000c BD46     		mov	sp, r7
 2520              	.LCFI110:
 2521              		.cfi_def_cfa_register 13
 2522              		@ sp needed
 2523 000e 5DF8047B 		ldr	r7, [sp], #4
 2524              	.LCFI111:
 2525              		.cfi_restore 7
 2526              		.cfi_def_cfa_offset 0
 2527 0012 7047     		bx	lr
 2528              		.cfi_endproc
 2529              	.LFE145:
 2531              		.section	.text.HAL_RTCEx_PollForWakeUpTimerEvent,"ax",%progbits
 2532              		.align	1
 2533              		.global	HAL_RTCEx_PollForWakeUpTimerEvent
 2534              		.syntax unified
 2535              		.thumb
 2536              		.thumb_func
 2537              		.fpu fpv4-sp-d16
 2539              	HAL_RTCEx_PollForWakeUpTimerEvent:
 2540              	.LFB146:
1045:./Libraries/STM32F4xx_HAL_Driver/Src/stm32f4xx_hal_rtc_ex.c **** 
1046:./Libraries/STM32F4xx_HAL_Driver/Src/stm32f4xx_hal_rtc_ex.c **** /**
1047:./Libraries/STM32F4xx_HAL_Driver/Src/stm32f4xx_hal_rtc_ex.c ****   * @brief  This function handles Wake Up Timer Polling.
1048:./Libraries/STM32F4xx_HAL_Driver/Src/stm32f4xx_hal_rtc_ex.c ****   * @param  hrtc pointer to a RTC_HandleTypeDef structure that contains
1049:./Libraries/STM32F4xx_HAL_Driver/Src/stm32f4xx_hal_rtc_ex.c ****   *                the configuration information for RTC.
1050:./Libraries/STM32F4xx_HAL_Driver/Src/stm32f4xx_hal_rtc_ex.c ****   * @param  Timeout Timeout duration
1051:./Libraries/STM32F4xx_HAL_Driver/Src/stm32f4xx_hal_rtc_ex.c ****   * @retval HAL status
1052:./Libraries/STM32F4xx_HAL_Driver/Src/stm32f4xx_hal_rtc_ex.c ****   */
1053:./Libraries/STM32F4xx_HAL_Driver/Src/stm32f4xx_hal_rtc_ex.c **** HAL_StatusTypeDef HAL_RTCEx_PollForWakeUpTimerEvent(RTC_HandleTypeDef *hrtc, uint32_t Timeout)
1054:./Libraries/STM32F4xx_HAL_Driver/Src/stm32f4xx_hal_rtc_ex.c **** {  
 2541              		.loc 1 1054 1
 2542              		.cfi_startproc
 2543              		@ args = 0, pretend = 0, frame = 16
 2544              		@ frame_needed = 1, uses_anonymous_args = 0
 2545 0000 80B5     		push	{r7, lr}
 2546              	.LCFI112:
 2547              		.cfi_def_cfa_offset 8
 2548              		.cfi_offset 7, -8
 2549              		.cfi_offset 14, -4
 2550 0002 84B0     		sub	sp, sp, #16
 2551              	.LCFI113:
 2552              		.cfi_def_cfa_offset 24
 2553 0004 00AF     		add	r7, sp, #0
 2554              	.LCFI114:
ARM GAS  /tmp/cckIUkG9.s 			page 64


 2555              		.cfi_def_cfa_register 7
 2556 0006 7860     		str	r0, [r7, #4]
 2557 0008 3960     		str	r1, [r7]
1055:./Libraries/STM32F4xx_HAL_Driver/Src/stm32f4xx_hal_rtc_ex.c ****   uint32_t tickstart = 0U; 
 2558              		.loc 1 1055 12
 2559 000a 0023     		movs	r3, #0
 2560 000c FB60     		str	r3, [r7, #12]
1056:./Libraries/STM32F4xx_HAL_Driver/Src/stm32f4xx_hal_rtc_ex.c **** 
1057:./Libraries/STM32F4xx_HAL_Driver/Src/stm32f4xx_hal_rtc_ex.c ****   /* Get tick */
1058:./Libraries/STM32F4xx_HAL_Driver/Src/stm32f4xx_hal_rtc_ex.c ****   tickstart = HAL_GetTick();
 2561              		.loc 1 1058 15
 2562 000e FFF7FEFF 		bl	HAL_GetTick
 2563 0012 F860     		str	r0, [r7, #12]
1059:./Libraries/STM32F4xx_HAL_Driver/Src/stm32f4xx_hal_rtc_ex.c **** 
1060:./Libraries/STM32F4xx_HAL_Driver/Src/stm32f4xx_hal_rtc_ex.c ****   while(__HAL_RTC_WAKEUPTIMER_GET_FLAG(hrtc, RTC_FLAG_WUTF) == RESET)
 2564              		.loc 1 1060 8
 2565 0014 13E0     		b	.L86
 2566              	.L89:
1061:./Libraries/STM32F4xx_HAL_Driver/Src/stm32f4xx_hal_rtc_ex.c ****   {
1062:./Libraries/STM32F4xx_HAL_Driver/Src/stm32f4xx_hal_rtc_ex.c ****     if(Timeout != HAL_MAX_DELAY)
 2567              		.loc 1 1062 7
 2568 0016 3B68     		ldr	r3, [r7]
 2569 0018 B3F1FF3F 		cmp	r3, #-1
 2570 001c 0FD0     		beq	.L86
1063:./Libraries/STM32F4xx_HAL_Driver/Src/stm32f4xx_hal_rtc_ex.c ****     {
1064:./Libraries/STM32F4xx_HAL_Driver/Src/stm32f4xx_hal_rtc_ex.c ****       if((Timeout == 0U)||((HAL_GetTick() - tickstart ) > Timeout))
 2571              		.loc 1 1064 9
 2572 001e 3B68     		ldr	r3, [r7]
 2573 0020 002B     		cmp	r3, #0
 2574 0022 07D0     		beq	.L87
 2575              		.loc 1 1064 29 discriminator 1
 2576 0024 FFF7FEFF 		bl	HAL_GetTick
 2577 0028 0246     		mov	r2, r0
 2578              		.loc 1 1064 43 discriminator 1
 2579 002a FB68     		ldr	r3, [r7, #12]
 2580 002c D31A     		subs	r3, r2, r3
 2581              		.loc 1 1064 25 discriminator 1
 2582 002e 3A68     		ldr	r2, [r7]
 2583 0030 9A42     		cmp	r2, r3
 2584 0032 04D2     		bcs	.L86
 2585              	.L87:
1065:./Libraries/STM32F4xx_HAL_Driver/Src/stm32f4xx_hal_rtc_ex.c ****       {
1066:./Libraries/STM32F4xx_HAL_Driver/Src/stm32f4xx_hal_rtc_ex.c ****         hrtc->State = HAL_RTC_STATE_TIMEOUT;
 2586              		.loc 1 1066 21
 2587 0034 7B68     		ldr	r3, [r7, #4]
 2588 0036 0322     		movs	r2, #3
 2589 0038 5A77     		strb	r2, [r3, #29]
1067:./Libraries/STM32F4xx_HAL_Driver/Src/stm32f4xx_hal_rtc_ex.c ****       
1068:./Libraries/STM32F4xx_HAL_Driver/Src/stm32f4xx_hal_rtc_ex.c ****         return HAL_TIMEOUT;
 2590              		.loc 1 1068 16
 2591 003a 0323     		movs	r3, #3
 2592 003c 13E0     		b	.L88
 2593              	.L86:
1060:./Libraries/STM32F4xx_HAL_Driver/Src/stm32f4xx_hal_rtc_ex.c ****   {
 2594              		.loc 1 1060 9
 2595 003e 7B68     		ldr	r3, [r7, #4]
 2596 0040 1B68     		ldr	r3, [r3]
ARM GAS  /tmp/cckIUkG9.s 			page 65


 2597 0042 DB68     		ldr	r3, [r3, #12]
 2598 0044 03F48063 		and	r3, r3, #1024
1060:./Libraries/STM32F4xx_HAL_Driver/Src/stm32f4xx_hal_rtc_ex.c ****   {
 2599              		.loc 1 1060 8
 2600 0048 002B     		cmp	r3, #0
 2601 004a E4D0     		beq	.L89
1069:./Libraries/STM32F4xx_HAL_Driver/Src/stm32f4xx_hal_rtc_ex.c ****       }
1070:./Libraries/STM32F4xx_HAL_Driver/Src/stm32f4xx_hal_rtc_ex.c ****     }
1071:./Libraries/STM32F4xx_HAL_Driver/Src/stm32f4xx_hal_rtc_ex.c ****   }
1072:./Libraries/STM32F4xx_HAL_Driver/Src/stm32f4xx_hal_rtc_ex.c ****   
1073:./Libraries/STM32F4xx_HAL_Driver/Src/stm32f4xx_hal_rtc_ex.c ****   /* Clear the WAKEUPTIMER Flag */
1074:./Libraries/STM32F4xx_HAL_Driver/Src/stm32f4xx_hal_rtc_ex.c ****   __HAL_RTC_WAKEUPTIMER_CLEAR_FLAG(hrtc, RTC_FLAG_WUTF);
 2602              		.loc 1 1074 3
 2603 004c 7B68     		ldr	r3, [r7, #4]
 2604 004e 1B68     		ldr	r3, [r3]
 2605 0050 DB68     		ldr	r3, [r3, #12]
 2606 0052 DAB2     		uxtb	r2, r3
 2607 0054 7B68     		ldr	r3, [r7, #4]
 2608 0056 1B68     		ldr	r3, [r3]
 2609 0058 62F49062 		orn	r2, r2, #1152
 2610 005c DA60     		str	r2, [r3, #12]
1075:./Libraries/STM32F4xx_HAL_Driver/Src/stm32f4xx_hal_rtc_ex.c ****   
1076:./Libraries/STM32F4xx_HAL_Driver/Src/stm32f4xx_hal_rtc_ex.c ****   /* Change RTC state */
1077:./Libraries/STM32F4xx_HAL_Driver/Src/stm32f4xx_hal_rtc_ex.c ****   hrtc->State = HAL_RTC_STATE_READY;
 2611              		.loc 1 1077 15
 2612 005e 7B68     		ldr	r3, [r7, #4]
 2613 0060 0122     		movs	r2, #1
 2614 0062 5A77     		strb	r2, [r3, #29]
1078:./Libraries/STM32F4xx_HAL_Driver/Src/stm32f4xx_hal_rtc_ex.c ****   
1079:./Libraries/STM32F4xx_HAL_Driver/Src/stm32f4xx_hal_rtc_ex.c ****   return HAL_OK; 
 2615              		.loc 1 1079 10
 2616 0064 0023     		movs	r3, #0
 2617              	.L88:
1080:./Libraries/STM32F4xx_HAL_Driver/Src/stm32f4xx_hal_rtc_ex.c **** }
 2618              		.loc 1 1080 1
 2619 0066 1846     		mov	r0, r3
 2620 0068 1037     		adds	r7, r7, #16
 2621              	.LCFI115:
 2622              		.cfi_def_cfa_offset 8
 2623 006a BD46     		mov	sp, r7
 2624              	.LCFI116:
 2625              		.cfi_def_cfa_register 13
 2626              		@ sp needed
 2627 006c 80BD     		pop	{r7, pc}
 2628              		.cfi_endproc
 2629              	.LFE146:
 2631              		.section	.text.HAL_RTCEx_BKUPWrite,"ax",%progbits
 2632              		.align	1
 2633              		.global	HAL_RTCEx_BKUPWrite
 2634              		.syntax unified
 2635              		.thumb
 2636              		.thumb_func
 2637              		.fpu fpv4-sp-d16
 2639              	HAL_RTCEx_BKUPWrite:
 2640              	.LFB147:
1081:./Libraries/STM32F4xx_HAL_Driver/Src/stm32f4xx_hal_rtc_ex.c **** 
1082:./Libraries/STM32F4xx_HAL_Driver/Src/stm32f4xx_hal_rtc_ex.c **** /**
ARM GAS  /tmp/cckIUkG9.s 			page 66


1083:./Libraries/STM32F4xx_HAL_Driver/Src/stm32f4xx_hal_rtc_ex.c ****   * @}
1084:./Libraries/STM32F4xx_HAL_Driver/Src/stm32f4xx_hal_rtc_ex.c ****   */
1085:./Libraries/STM32F4xx_HAL_Driver/Src/stm32f4xx_hal_rtc_ex.c **** 
1086:./Libraries/STM32F4xx_HAL_Driver/Src/stm32f4xx_hal_rtc_ex.c **** 
1087:./Libraries/STM32F4xx_HAL_Driver/Src/stm32f4xx_hal_rtc_ex.c **** /** @defgroup RTCEx_Exported_Functions_Group3 Extension Peripheral Control functions 
1088:./Libraries/STM32F4xx_HAL_Driver/Src/stm32f4xx_hal_rtc_ex.c ****  *  @brief   Extension Peripheral Control functions 
1089:./Libraries/STM32F4xx_HAL_Driver/Src/stm32f4xx_hal_rtc_ex.c ****  *
1090:./Libraries/STM32F4xx_HAL_Driver/Src/stm32f4xx_hal_rtc_ex.c **** @verbatim   
1091:./Libraries/STM32F4xx_HAL_Driver/Src/stm32f4xx_hal_rtc_ex.c ****  ===============================================================================
1092:./Libraries/STM32F4xx_HAL_Driver/Src/stm32f4xx_hal_rtc_ex.c ****               ##### Extension Peripheral Control functions #####
1093:./Libraries/STM32F4xx_HAL_Driver/Src/stm32f4xx_hal_rtc_ex.c ****  ===============================================================================  
1094:./Libraries/STM32F4xx_HAL_Driver/Src/stm32f4xx_hal_rtc_ex.c ****     [..]
1095:./Libraries/STM32F4xx_HAL_Driver/Src/stm32f4xx_hal_rtc_ex.c ****     This subsection provides functions allowing to
1096:./Libraries/STM32F4xx_HAL_Driver/Src/stm32f4xx_hal_rtc_ex.c ****       (+) Write a data in a specified RTC Backup data register
1097:./Libraries/STM32F4xx_HAL_Driver/Src/stm32f4xx_hal_rtc_ex.c ****       (+) Read a data in a specified RTC Backup data register
1098:./Libraries/STM32F4xx_HAL_Driver/Src/stm32f4xx_hal_rtc_ex.c ****       (+) Set the Coarse calibration parameters.
1099:./Libraries/STM32F4xx_HAL_Driver/Src/stm32f4xx_hal_rtc_ex.c ****       (+) Deactivate the Coarse calibration parameters
1100:./Libraries/STM32F4xx_HAL_Driver/Src/stm32f4xx_hal_rtc_ex.c ****       (+) Set the Smooth calibration parameters.
1101:./Libraries/STM32F4xx_HAL_Driver/Src/stm32f4xx_hal_rtc_ex.c ****       (+) Configure the Synchronization Shift Control Settings.
1102:./Libraries/STM32F4xx_HAL_Driver/Src/stm32f4xx_hal_rtc_ex.c ****       (+) Configure the Calibration Pinout (RTC_CALIB) Selection (1Hz or 512Hz).
1103:./Libraries/STM32F4xx_HAL_Driver/Src/stm32f4xx_hal_rtc_ex.c ****       (+) Deactivate the Calibration Pinout (RTC_CALIB) Selection (1Hz or 512Hz).
1104:./Libraries/STM32F4xx_HAL_Driver/Src/stm32f4xx_hal_rtc_ex.c ****       (+) Enable the RTC reference clock detection.
1105:./Libraries/STM32F4xx_HAL_Driver/Src/stm32f4xx_hal_rtc_ex.c ****       (+) Disable the RTC reference clock detection.
1106:./Libraries/STM32F4xx_HAL_Driver/Src/stm32f4xx_hal_rtc_ex.c ****       (+) Enable the Bypass Shadow feature.
1107:./Libraries/STM32F4xx_HAL_Driver/Src/stm32f4xx_hal_rtc_ex.c ****       (+) Disable the Bypass Shadow feature.
1108:./Libraries/STM32F4xx_HAL_Driver/Src/stm32f4xx_hal_rtc_ex.c **** 
1109:./Libraries/STM32F4xx_HAL_Driver/Src/stm32f4xx_hal_rtc_ex.c **** @endverbatim
1110:./Libraries/STM32F4xx_HAL_Driver/Src/stm32f4xx_hal_rtc_ex.c ****   * @{
1111:./Libraries/STM32F4xx_HAL_Driver/Src/stm32f4xx_hal_rtc_ex.c ****   */
1112:./Libraries/STM32F4xx_HAL_Driver/Src/stm32f4xx_hal_rtc_ex.c **** 
1113:./Libraries/STM32F4xx_HAL_Driver/Src/stm32f4xx_hal_rtc_ex.c **** /**
1114:./Libraries/STM32F4xx_HAL_Driver/Src/stm32f4xx_hal_rtc_ex.c ****   * @brief  Writes a data in a specified RTC Backup data register.
1115:./Libraries/STM32F4xx_HAL_Driver/Src/stm32f4xx_hal_rtc_ex.c ****   * @param  hrtc pointer to a RTC_HandleTypeDef structure that contains
1116:./Libraries/STM32F4xx_HAL_Driver/Src/stm32f4xx_hal_rtc_ex.c ****   *                the configuration information for RTC. 
1117:./Libraries/STM32F4xx_HAL_Driver/Src/stm32f4xx_hal_rtc_ex.c ****   * @param  BackupRegister RTC Backup data Register number.
1118:./Libraries/STM32F4xx_HAL_Driver/Src/stm32f4xx_hal_rtc_ex.c ****   *          This parameter can be: RTC_BKP_DRx where x can be from 0 to 19 to 
1119:./Libraries/STM32F4xx_HAL_Driver/Src/stm32f4xx_hal_rtc_ex.c ****   *                                 specify the register.
1120:./Libraries/STM32F4xx_HAL_Driver/Src/stm32f4xx_hal_rtc_ex.c ****   * @param  Data Data to be written in the specified RTC Backup data register.                     
1121:./Libraries/STM32F4xx_HAL_Driver/Src/stm32f4xx_hal_rtc_ex.c ****   * @retval None
1122:./Libraries/STM32F4xx_HAL_Driver/Src/stm32f4xx_hal_rtc_ex.c ****   */
1123:./Libraries/STM32F4xx_HAL_Driver/Src/stm32f4xx_hal_rtc_ex.c **** void HAL_RTCEx_BKUPWrite(RTC_HandleTypeDef *hrtc, uint32_t BackupRegister, uint32_t Data)
1124:./Libraries/STM32F4xx_HAL_Driver/Src/stm32f4xx_hal_rtc_ex.c **** {
 2641              		.loc 1 1124 1
 2642              		.cfi_startproc
 2643              		@ args = 0, pretend = 0, frame = 24
 2644              		@ frame_needed = 1, uses_anonymous_args = 0
 2645              		@ link register save eliminated.
 2646 0000 80B4     		push	{r7}
 2647              	.LCFI117:
 2648              		.cfi_def_cfa_offset 4
 2649              		.cfi_offset 7, -4
 2650 0002 87B0     		sub	sp, sp, #28
 2651              	.LCFI118:
 2652              		.cfi_def_cfa_offset 32
 2653 0004 00AF     		add	r7, sp, #0
 2654              	.LCFI119:
 2655              		.cfi_def_cfa_register 7
ARM GAS  /tmp/cckIUkG9.s 			page 67


 2656 0006 F860     		str	r0, [r7, #12]
 2657 0008 B960     		str	r1, [r7, #8]
 2658 000a 7A60     		str	r2, [r7, #4]
1125:./Libraries/STM32F4xx_HAL_Driver/Src/stm32f4xx_hal_rtc_ex.c ****   uint32_t tmp = 0U;
 2659              		.loc 1 1125 12
 2660 000c 0023     		movs	r3, #0
 2661 000e 7B61     		str	r3, [r7, #20]
1126:./Libraries/STM32F4xx_HAL_Driver/Src/stm32f4xx_hal_rtc_ex.c ****   
1127:./Libraries/STM32F4xx_HAL_Driver/Src/stm32f4xx_hal_rtc_ex.c ****   /* Check the parameters */
1128:./Libraries/STM32F4xx_HAL_Driver/Src/stm32f4xx_hal_rtc_ex.c ****   assert_param(IS_RTC_BKP(BackupRegister));
1129:./Libraries/STM32F4xx_HAL_Driver/Src/stm32f4xx_hal_rtc_ex.c ****   
1130:./Libraries/STM32F4xx_HAL_Driver/Src/stm32f4xx_hal_rtc_ex.c ****   tmp = (uint32_t)&(hrtc->Instance->BKP0R);
 2662              		.loc 1 1130 25
 2663 0010 FB68     		ldr	r3, [r7, #12]
 2664 0012 1B68     		ldr	r3, [r3]
 2665              		.loc 1 1130 19
 2666 0014 5033     		adds	r3, r3, #80
 2667              		.loc 1 1130 7
 2668 0016 7B61     		str	r3, [r7, #20]
1131:./Libraries/STM32F4xx_HAL_Driver/Src/stm32f4xx_hal_rtc_ex.c ****   tmp += (BackupRegister * 4U);
 2669              		.loc 1 1131 26
 2670 0018 BB68     		ldr	r3, [r7, #8]
 2671 001a 9B00     		lsls	r3, r3, #2
 2672              		.loc 1 1131 7
 2673 001c 7A69     		ldr	r2, [r7, #20]
 2674 001e 1344     		add	r3, r3, r2
 2675 0020 7B61     		str	r3, [r7, #20]
1132:./Libraries/STM32F4xx_HAL_Driver/Src/stm32f4xx_hal_rtc_ex.c ****   
1133:./Libraries/STM32F4xx_HAL_Driver/Src/stm32f4xx_hal_rtc_ex.c ****   /* Write the specified register */
1134:./Libraries/STM32F4xx_HAL_Driver/Src/stm32f4xx_hal_rtc_ex.c ****   *(__IO uint32_t *)tmp = (uint32_t)Data;
 2676              		.loc 1 1134 4
 2677 0022 7B69     		ldr	r3, [r7, #20]
 2678              		.loc 1 1134 25
 2679 0024 7A68     		ldr	r2, [r7, #4]
 2680 0026 1A60     		str	r2, [r3]
1135:./Libraries/STM32F4xx_HAL_Driver/Src/stm32f4xx_hal_rtc_ex.c **** }
 2681              		.loc 1 1135 1
 2682 0028 00BF     		nop
 2683 002a 1C37     		adds	r7, r7, #28
 2684              	.LCFI120:
 2685              		.cfi_def_cfa_offset 4
 2686 002c BD46     		mov	sp, r7
 2687              	.LCFI121:
 2688              		.cfi_def_cfa_register 13
 2689              		@ sp needed
 2690 002e 5DF8047B 		ldr	r7, [sp], #4
 2691              	.LCFI122:
 2692              		.cfi_restore 7
 2693              		.cfi_def_cfa_offset 0
 2694 0032 7047     		bx	lr
 2695              		.cfi_endproc
 2696              	.LFE147:
 2698              		.section	.text.HAL_RTCEx_BKUPRead,"ax",%progbits
 2699              		.align	1
 2700              		.global	HAL_RTCEx_BKUPRead
 2701              		.syntax unified
 2702              		.thumb
ARM GAS  /tmp/cckIUkG9.s 			page 68


 2703              		.thumb_func
 2704              		.fpu fpv4-sp-d16
 2706              	HAL_RTCEx_BKUPRead:
 2707              	.LFB148:
1136:./Libraries/STM32F4xx_HAL_Driver/Src/stm32f4xx_hal_rtc_ex.c **** 
1137:./Libraries/STM32F4xx_HAL_Driver/Src/stm32f4xx_hal_rtc_ex.c **** /**
1138:./Libraries/STM32F4xx_HAL_Driver/Src/stm32f4xx_hal_rtc_ex.c ****   * @brief  Reads data from the specified RTC Backup data Register.
1139:./Libraries/STM32F4xx_HAL_Driver/Src/stm32f4xx_hal_rtc_ex.c ****   * @param  hrtc pointer to a RTC_HandleTypeDef structure that contains
1140:./Libraries/STM32F4xx_HAL_Driver/Src/stm32f4xx_hal_rtc_ex.c ****   *                the configuration information for RTC. 
1141:./Libraries/STM32F4xx_HAL_Driver/Src/stm32f4xx_hal_rtc_ex.c ****   * @param  BackupRegister RTC Backup data Register number.
1142:./Libraries/STM32F4xx_HAL_Driver/Src/stm32f4xx_hal_rtc_ex.c ****   *          This parameter can be: RTC_BKP_DRx where x can be from 0 to 19 to 
1143:./Libraries/STM32F4xx_HAL_Driver/Src/stm32f4xx_hal_rtc_ex.c ****   *                                 specify the register.                   
1144:./Libraries/STM32F4xx_HAL_Driver/Src/stm32f4xx_hal_rtc_ex.c ****   * @retval Read value
1145:./Libraries/STM32F4xx_HAL_Driver/Src/stm32f4xx_hal_rtc_ex.c ****   */
1146:./Libraries/STM32F4xx_HAL_Driver/Src/stm32f4xx_hal_rtc_ex.c **** uint32_t HAL_RTCEx_BKUPRead(RTC_HandleTypeDef *hrtc, uint32_t BackupRegister)
1147:./Libraries/STM32F4xx_HAL_Driver/Src/stm32f4xx_hal_rtc_ex.c **** {
 2708              		.loc 1 1147 1
 2709              		.cfi_startproc
 2710              		@ args = 0, pretend = 0, frame = 16
 2711              		@ frame_needed = 1, uses_anonymous_args = 0
 2712              		@ link register save eliminated.
 2713 0000 80B4     		push	{r7}
 2714              	.LCFI123:
 2715              		.cfi_def_cfa_offset 4
 2716              		.cfi_offset 7, -4
 2717 0002 85B0     		sub	sp, sp, #20
 2718              	.LCFI124:
 2719              		.cfi_def_cfa_offset 24
 2720 0004 00AF     		add	r7, sp, #0
 2721              	.LCFI125:
 2722              		.cfi_def_cfa_register 7
 2723 0006 7860     		str	r0, [r7, #4]
 2724 0008 3960     		str	r1, [r7]
1148:./Libraries/STM32F4xx_HAL_Driver/Src/stm32f4xx_hal_rtc_ex.c ****   uint32_t tmp = 0U;
 2725              		.loc 1 1148 12
 2726 000a 0023     		movs	r3, #0
 2727 000c FB60     		str	r3, [r7, #12]
1149:./Libraries/STM32F4xx_HAL_Driver/Src/stm32f4xx_hal_rtc_ex.c ****   
1150:./Libraries/STM32F4xx_HAL_Driver/Src/stm32f4xx_hal_rtc_ex.c ****   /* Check the parameters */
1151:./Libraries/STM32F4xx_HAL_Driver/Src/stm32f4xx_hal_rtc_ex.c ****   assert_param(IS_RTC_BKP(BackupRegister));
1152:./Libraries/STM32F4xx_HAL_Driver/Src/stm32f4xx_hal_rtc_ex.c **** 
1153:./Libraries/STM32F4xx_HAL_Driver/Src/stm32f4xx_hal_rtc_ex.c ****   tmp = (uint32_t)&(hrtc->Instance->BKP0R);
 2728              		.loc 1 1153 25
 2729 000e 7B68     		ldr	r3, [r7, #4]
 2730 0010 1B68     		ldr	r3, [r3]
 2731              		.loc 1 1153 19
 2732 0012 5033     		adds	r3, r3, #80
 2733              		.loc 1 1153 7
 2734 0014 FB60     		str	r3, [r7, #12]
1154:./Libraries/STM32F4xx_HAL_Driver/Src/stm32f4xx_hal_rtc_ex.c ****   tmp += (BackupRegister * 4U);
 2735              		.loc 1 1154 26
 2736 0016 3B68     		ldr	r3, [r7]
 2737 0018 9B00     		lsls	r3, r3, #2
 2738              		.loc 1 1154 7
 2739 001a FA68     		ldr	r2, [r7, #12]
 2740 001c 1344     		add	r3, r3, r2
 2741 001e FB60     		str	r3, [r7, #12]
ARM GAS  /tmp/cckIUkG9.s 			page 69


1155:./Libraries/STM32F4xx_HAL_Driver/Src/stm32f4xx_hal_rtc_ex.c ****   
1156:./Libraries/STM32F4xx_HAL_Driver/Src/stm32f4xx_hal_rtc_ex.c ****   /* Read the specified register */
1157:./Libraries/STM32F4xx_HAL_Driver/Src/stm32f4xx_hal_rtc_ex.c ****   return (*(__IO uint32_t *)tmp);
 2742              		.loc 1 1157 12
 2743 0020 FB68     		ldr	r3, [r7, #12]
 2744              		.loc 1 1157 11
 2745 0022 1B68     		ldr	r3, [r3]
1158:./Libraries/STM32F4xx_HAL_Driver/Src/stm32f4xx_hal_rtc_ex.c **** }
 2746              		.loc 1 1158 1
 2747 0024 1846     		mov	r0, r3
 2748 0026 1437     		adds	r7, r7, #20
 2749              	.LCFI126:
 2750              		.cfi_def_cfa_offset 4
 2751 0028 BD46     		mov	sp, r7
 2752              	.LCFI127:
 2753              		.cfi_def_cfa_register 13
 2754              		@ sp needed
 2755 002a 5DF8047B 		ldr	r7, [sp], #4
 2756              	.LCFI128:
 2757              		.cfi_restore 7
 2758              		.cfi_def_cfa_offset 0
 2759 002e 7047     		bx	lr
 2760              		.cfi_endproc
 2761              	.LFE148:
 2763              		.section	.text.HAL_RTCEx_SetCoarseCalib,"ax",%progbits
 2764              		.align	1
 2765              		.global	HAL_RTCEx_SetCoarseCalib
 2766              		.syntax unified
 2767              		.thumb
 2768              		.thumb_func
 2769              		.fpu fpv4-sp-d16
 2771              	HAL_RTCEx_SetCoarseCalib:
 2772              	.LFB149:
1159:./Libraries/STM32F4xx_HAL_Driver/Src/stm32f4xx_hal_rtc_ex.c ****       
1160:./Libraries/STM32F4xx_HAL_Driver/Src/stm32f4xx_hal_rtc_ex.c **** /**
1161:./Libraries/STM32F4xx_HAL_Driver/Src/stm32f4xx_hal_rtc_ex.c ****   * @brief  Sets the Coarse calibration parameters.
1162:./Libraries/STM32F4xx_HAL_Driver/Src/stm32f4xx_hal_rtc_ex.c ****   * @param  hrtc pointer to a RTC_HandleTypeDef structure that contains
1163:./Libraries/STM32F4xx_HAL_Driver/Src/stm32f4xx_hal_rtc_ex.c ****   *                the configuration information for RTC.  
1164:./Libraries/STM32F4xx_HAL_Driver/Src/stm32f4xx_hal_rtc_ex.c ****   * @param  CalibSign Specifies the sign of the coarse calibration value.
1165:./Libraries/STM32F4xx_HAL_Driver/Src/stm32f4xx_hal_rtc_ex.c ****   *          This parameter can be  one of the following values :
1166:./Libraries/STM32F4xx_HAL_Driver/Src/stm32f4xx_hal_rtc_ex.c ****   *             @arg RTC_CALIBSIGN_POSITIVE: The value sign is positive 
1167:./Libraries/STM32F4xx_HAL_Driver/Src/stm32f4xx_hal_rtc_ex.c ****   *             @arg RTC_CALIBSIGN_NEGATIVE: The value sign is negative
1168:./Libraries/STM32F4xx_HAL_Driver/Src/stm32f4xx_hal_rtc_ex.c ****   * @param  Value value of coarse calibration expressed in ppm (coded on 5 bits).
1169:./Libraries/STM32F4xx_HAL_Driver/Src/stm32f4xx_hal_rtc_ex.c ****   *    
1170:./Libraries/STM32F4xx_HAL_Driver/Src/stm32f4xx_hal_rtc_ex.c ****   * @note   This Calibration value should be between 0 and 63 when using negative
1171:./Libraries/STM32F4xx_HAL_Driver/Src/stm32f4xx_hal_rtc_ex.c ****   *         sign with a 2-ppm step.
1172:./Libraries/STM32F4xx_HAL_Driver/Src/stm32f4xx_hal_rtc_ex.c ****   *           
1173:./Libraries/STM32F4xx_HAL_Driver/Src/stm32f4xx_hal_rtc_ex.c ****   * @note   This Calibration value should be between 0 and 126 when using positive
1174:./Libraries/STM32F4xx_HAL_Driver/Src/stm32f4xx_hal_rtc_ex.c ****   *         sign with a 4-ppm step.
1175:./Libraries/STM32F4xx_HAL_Driver/Src/stm32f4xx_hal_rtc_ex.c ****   * @retval HAL status
1176:./Libraries/STM32F4xx_HAL_Driver/Src/stm32f4xx_hal_rtc_ex.c ****   */
1177:./Libraries/STM32F4xx_HAL_Driver/Src/stm32f4xx_hal_rtc_ex.c **** HAL_StatusTypeDef HAL_RTCEx_SetCoarseCalib(RTC_HandleTypeDef* hrtc, uint32_t CalibSign, uint32_t Va
1178:./Libraries/STM32F4xx_HAL_Driver/Src/stm32f4xx_hal_rtc_ex.c **** {
 2773              		.loc 1 1178 1
 2774              		.cfi_startproc
 2775              		@ args = 0, pretend = 0, frame = 16
 2776              		@ frame_needed = 1, uses_anonymous_args = 0
ARM GAS  /tmp/cckIUkG9.s 			page 70


 2777 0000 80B5     		push	{r7, lr}
 2778              	.LCFI129:
 2779              		.cfi_def_cfa_offset 8
 2780              		.cfi_offset 7, -8
 2781              		.cfi_offset 14, -4
 2782 0002 84B0     		sub	sp, sp, #16
 2783              	.LCFI130:
 2784              		.cfi_def_cfa_offset 24
 2785 0004 00AF     		add	r7, sp, #0
 2786              	.LCFI131:
 2787              		.cfi_def_cfa_register 7
 2788 0006 F860     		str	r0, [r7, #12]
 2789 0008 B960     		str	r1, [r7, #8]
 2790 000a 7A60     		str	r2, [r7, #4]
1179:./Libraries/STM32F4xx_HAL_Driver/Src/stm32f4xx_hal_rtc_ex.c ****   /* Check the parameters */
1180:./Libraries/STM32F4xx_HAL_Driver/Src/stm32f4xx_hal_rtc_ex.c ****   assert_param(IS_RTC_CALIB_SIGN(CalibSign));
1181:./Libraries/STM32F4xx_HAL_Driver/Src/stm32f4xx_hal_rtc_ex.c ****   assert_param(IS_RTC_CALIB_VALUE(Value)); 
1182:./Libraries/STM32F4xx_HAL_Driver/Src/stm32f4xx_hal_rtc_ex.c ****   
1183:./Libraries/STM32F4xx_HAL_Driver/Src/stm32f4xx_hal_rtc_ex.c ****   /* Process Locked */ 
1184:./Libraries/STM32F4xx_HAL_Driver/Src/stm32f4xx_hal_rtc_ex.c ****   __HAL_LOCK(hrtc);
 2791              		.loc 1 1184 3
 2792 000c FB68     		ldr	r3, [r7, #12]
 2793 000e 1B7F     		ldrb	r3, [r3, #28]	@ zero_extendqisi2
 2794 0010 012B     		cmp	r3, #1
 2795 0012 01D1     		bne	.L94
 2796              		.loc 1 1184 3 is_stmt 0 discriminator 1
 2797 0014 0223     		movs	r3, #2
 2798 0016 40E0     		b	.L95
 2799              	.L94:
 2800              		.loc 1 1184 3 discriminator 2
 2801 0018 FB68     		ldr	r3, [r7, #12]
 2802 001a 0122     		movs	r2, #1
 2803 001c 1A77     		strb	r2, [r3, #28]
1185:./Libraries/STM32F4xx_HAL_Driver/Src/stm32f4xx_hal_rtc_ex.c ****   
1186:./Libraries/STM32F4xx_HAL_Driver/Src/stm32f4xx_hal_rtc_ex.c ****   hrtc->State = HAL_RTC_STATE_BUSY;
 2804              		.loc 1 1186 15 is_stmt 1 discriminator 2
 2805 001e FB68     		ldr	r3, [r7, #12]
 2806 0020 0222     		movs	r2, #2
 2807 0022 5A77     		strb	r2, [r3, #29]
1187:./Libraries/STM32F4xx_HAL_Driver/Src/stm32f4xx_hal_rtc_ex.c **** 
1188:./Libraries/STM32F4xx_HAL_Driver/Src/stm32f4xx_hal_rtc_ex.c ****   /* Disable the write protection for RTC registers */
1189:./Libraries/STM32F4xx_HAL_Driver/Src/stm32f4xx_hal_rtc_ex.c ****   __HAL_RTC_WRITEPROTECTION_DISABLE(hrtc);
 2808              		.loc 1 1189 3 discriminator 2
 2809 0024 FB68     		ldr	r3, [r7, #12]
 2810 0026 1B68     		ldr	r3, [r3]
 2811 0028 CA22     		movs	r2, #202
 2812 002a 5A62     		str	r2, [r3, #36]
 2813 002c FB68     		ldr	r3, [r7, #12]
 2814 002e 1B68     		ldr	r3, [r3]
 2815 0030 5322     		movs	r2, #83
 2816 0032 5A62     		str	r2, [r3, #36]
1190:./Libraries/STM32F4xx_HAL_Driver/Src/stm32f4xx_hal_rtc_ex.c **** 
1191:./Libraries/STM32F4xx_HAL_Driver/Src/stm32f4xx_hal_rtc_ex.c ****   /* Set Initialization mode */
1192:./Libraries/STM32F4xx_HAL_Driver/Src/stm32f4xx_hal_rtc_ex.c ****   if(RTC_EnterInitMode(hrtc) != HAL_OK)
 2817              		.loc 1 1192 6 discriminator 2
 2818 0034 F868     		ldr	r0, [r7, #12]
 2819 0036 FFF7FEFF 		bl	RTC_EnterInitMode
ARM GAS  /tmp/cckIUkG9.s 			page 71


 2820 003a 0346     		mov	r3, r0
 2821              		.loc 1 1192 5 discriminator 2
 2822 003c 002B     		cmp	r3, #0
 2823 003e 0BD0     		beq	.L96
1193:./Libraries/STM32F4xx_HAL_Driver/Src/stm32f4xx_hal_rtc_ex.c ****   {
1194:./Libraries/STM32F4xx_HAL_Driver/Src/stm32f4xx_hal_rtc_ex.c ****     /* Enable the write protection for RTC registers */
1195:./Libraries/STM32F4xx_HAL_Driver/Src/stm32f4xx_hal_rtc_ex.c ****     __HAL_RTC_WRITEPROTECTION_ENABLE(hrtc); 
 2824              		.loc 1 1195 5
 2825 0040 FB68     		ldr	r3, [r7, #12]
 2826 0042 1B68     		ldr	r3, [r3]
 2827 0044 FF22     		movs	r2, #255
 2828 0046 5A62     		str	r2, [r3, #36]
1196:./Libraries/STM32F4xx_HAL_Driver/Src/stm32f4xx_hal_rtc_ex.c ****     
1197:./Libraries/STM32F4xx_HAL_Driver/Src/stm32f4xx_hal_rtc_ex.c ****     /* Set RTC state*/
1198:./Libraries/STM32F4xx_HAL_Driver/Src/stm32f4xx_hal_rtc_ex.c ****     hrtc->State = HAL_RTC_STATE_ERROR;
 2829              		.loc 1 1198 17
 2830 0048 FB68     		ldr	r3, [r7, #12]
 2831 004a 0422     		movs	r2, #4
 2832 004c 5A77     		strb	r2, [r3, #29]
1199:./Libraries/STM32F4xx_HAL_Driver/Src/stm32f4xx_hal_rtc_ex.c ****     
1200:./Libraries/STM32F4xx_HAL_Driver/Src/stm32f4xx_hal_rtc_ex.c ****     /* Process Unlocked */ 
1201:./Libraries/STM32F4xx_HAL_Driver/Src/stm32f4xx_hal_rtc_ex.c ****     __HAL_UNLOCK(hrtc);
 2833              		.loc 1 1201 5
 2834 004e FB68     		ldr	r3, [r7, #12]
 2835 0050 0022     		movs	r2, #0
 2836 0052 1A77     		strb	r2, [r3, #28]
1202:./Libraries/STM32F4xx_HAL_Driver/Src/stm32f4xx_hal_rtc_ex.c ****     
1203:./Libraries/STM32F4xx_HAL_Driver/Src/stm32f4xx_hal_rtc_ex.c ****     return HAL_ERROR;
 2837              		.loc 1 1203 12
 2838 0054 0123     		movs	r3, #1
 2839 0056 20E0     		b	.L95
 2840              	.L96:
1204:./Libraries/STM32F4xx_HAL_Driver/Src/stm32f4xx_hal_rtc_ex.c ****   } 
1205:./Libraries/STM32F4xx_HAL_Driver/Src/stm32f4xx_hal_rtc_ex.c ****   else
1206:./Libraries/STM32F4xx_HAL_Driver/Src/stm32f4xx_hal_rtc_ex.c ****   { 
1207:./Libraries/STM32F4xx_HAL_Driver/Src/stm32f4xx_hal_rtc_ex.c ****     /* Enable the Coarse Calibration */
1208:./Libraries/STM32F4xx_HAL_Driver/Src/stm32f4xx_hal_rtc_ex.c ****     __HAL_RTC_COARSE_CALIB_ENABLE(hrtc);
 2841              		.loc 1 1208 5
 2842 0058 FB68     		ldr	r3, [r7, #12]
 2843 005a 1B68     		ldr	r3, [r3]
 2844 005c 9A68     		ldr	r2, [r3, #8]
 2845 005e FB68     		ldr	r3, [r7, #12]
 2846 0060 1B68     		ldr	r3, [r3]
 2847 0062 42F08002 		orr	r2, r2, #128
 2848 0066 9A60     		str	r2, [r3, #8]
1209:./Libraries/STM32F4xx_HAL_Driver/Src/stm32f4xx_hal_rtc_ex.c ****     
1210:./Libraries/STM32F4xx_HAL_Driver/Src/stm32f4xx_hal_rtc_ex.c ****     /* Set the coarse calibration value */
1211:./Libraries/STM32F4xx_HAL_Driver/Src/stm32f4xx_hal_rtc_ex.c ****     hrtc->Instance->CALIBR = (uint32_t)(CalibSign|Value);
 2849              		.loc 1 1211 9
 2850 0068 FB68     		ldr	r3, [r7, #12]
 2851 006a 1B68     		ldr	r3, [r3]
 2852              		.loc 1 1211 50
 2853 006c B968     		ldr	r1, [r7, #8]
 2854 006e 7A68     		ldr	r2, [r7, #4]
 2855 0070 0A43     		orrs	r2, r2, r1
 2856              		.loc 1 1211 28
 2857 0072 9A61     		str	r2, [r3, #24]
ARM GAS  /tmp/cckIUkG9.s 			page 72


1212:./Libraries/STM32F4xx_HAL_Driver/Src/stm32f4xx_hal_rtc_ex.c ****     
1213:./Libraries/STM32F4xx_HAL_Driver/Src/stm32f4xx_hal_rtc_ex.c ****     /* Exit Initialization mode */
1214:./Libraries/STM32F4xx_HAL_Driver/Src/stm32f4xx_hal_rtc_ex.c ****     hrtc->Instance->ISR &= (uint32_t)~RTC_ISR_INIT; 
 2858              		.loc 1 1214 9
 2859 0074 FB68     		ldr	r3, [r7, #12]
 2860 0076 1B68     		ldr	r3, [r3]
 2861              		.loc 1 1214 25
 2862 0078 DA68     		ldr	r2, [r3, #12]
 2863              		.loc 1 1214 9
 2864 007a FB68     		ldr	r3, [r7, #12]
 2865 007c 1B68     		ldr	r3, [r3]
 2866              		.loc 1 1214 25
 2867 007e 22F08002 		bic	r2, r2, #128
 2868 0082 DA60     		str	r2, [r3, #12]
1215:./Libraries/STM32F4xx_HAL_Driver/Src/stm32f4xx_hal_rtc_ex.c ****   } 
1216:./Libraries/STM32F4xx_HAL_Driver/Src/stm32f4xx_hal_rtc_ex.c **** 
1217:./Libraries/STM32F4xx_HAL_Driver/Src/stm32f4xx_hal_rtc_ex.c ****   /* Enable the write protection for RTC registers */
1218:./Libraries/STM32F4xx_HAL_Driver/Src/stm32f4xx_hal_rtc_ex.c ****   __HAL_RTC_WRITEPROTECTION_ENABLE(hrtc);
 2869              		.loc 1 1218 3
 2870 0084 FB68     		ldr	r3, [r7, #12]
 2871 0086 1B68     		ldr	r3, [r3]
 2872 0088 FF22     		movs	r2, #255
 2873 008a 5A62     		str	r2, [r3, #36]
1219:./Libraries/STM32F4xx_HAL_Driver/Src/stm32f4xx_hal_rtc_ex.c ****   
1220:./Libraries/STM32F4xx_HAL_Driver/Src/stm32f4xx_hal_rtc_ex.c ****   /* Change state */
1221:./Libraries/STM32F4xx_HAL_Driver/Src/stm32f4xx_hal_rtc_ex.c ****   hrtc->State = HAL_RTC_STATE_READY; 
 2874              		.loc 1 1221 15
 2875 008c FB68     		ldr	r3, [r7, #12]
 2876 008e 0122     		movs	r2, #1
 2877 0090 5A77     		strb	r2, [r3, #29]
1222:./Libraries/STM32F4xx_HAL_Driver/Src/stm32f4xx_hal_rtc_ex.c ****   
1223:./Libraries/STM32F4xx_HAL_Driver/Src/stm32f4xx_hal_rtc_ex.c ****   /* Process Unlocked */ 
1224:./Libraries/STM32F4xx_HAL_Driver/Src/stm32f4xx_hal_rtc_ex.c ****   __HAL_UNLOCK(hrtc);
 2878              		.loc 1 1224 3
 2879 0092 FB68     		ldr	r3, [r7, #12]
 2880 0094 0022     		movs	r2, #0
 2881 0096 1A77     		strb	r2, [r3, #28]
1225:./Libraries/STM32F4xx_HAL_Driver/Src/stm32f4xx_hal_rtc_ex.c ****   
1226:./Libraries/STM32F4xx_HAL_Driver/Src/stm32f4xx_hal_rtc_ex.c ****   return HAL_OK;
 2882              		.loc 1 1226 10
 2883 0098 0023     		movs	r3, #0
 2884              	.L95:
1227:./Libraries/STM32F4xx_HAL_Driver/Src/stm32f4xx_hal_rtc_ex.c **** }
 2885              		.loc 1 1227 1
 2886 009a 1846     		mov	r0, r3
 2887 009c 1037     		adds	r7, r7, #16
 2888              	.LCFI132:
 2889              		.cfi_def_cfa_offset 8
 2890 009e BD46     		mov	sp, r7
 2891              	.LCFI133:
 2892              		.cfi_def_cfa_register 13
 2893              		@ sp needed
 2894 00a0 80BD     		pop	{r7, pc}
 2895              		.cfi_endproc
 2896              	.LFE149:
 2898              		.section	.text.HAL_RTCEx_DeactivateCoarseCalib,"ax",%progbits
 2899              		.align	1
ARM GAS  /tmp/cckIUkG9.s 			page 73


 2900              		.global	HAL_RTCEx_DeactivateCoarseCalib
 2901              		.syntax unified
 2902              		.thumb
 2903              		.thumb_func
 2904              		.fpu fpv4-sp-d16
 2906              	HAL_RTCEx_DeactivateCoarseCalib:
 2907              	.LFB150:
1228:./Libraries/STM32F4xx_HAL_Driver/Src/stm32f4xx_hal_rtc_ex.c **** 
1229:./Libraries/STM32F4xx_HAL_Driver/Src/stm32f4xx_hal_rtc_ex.c **** /**
1230:./Libraries/STM32F4xx_HAL_Driver/Src/stm32f4xx_hal_rtc_ex.c ****   * @brief  Deactivates the Coarse calibration parameters.
1231:./Libraries/STM32F4xx_HAL_Driver/Src/stm32f4xx_hal_rtc_ex.c ****   * @param  hrtc pointer to a RTC_HandleTypeDef structure that contains
1232:./Libraries/STM32F4xx_HAL_Driver/Src/stm32f4xx_hal_rtc_ex.c ****   *                the configuration information for RTC.  
1233:./Libraries/STM32F4xx_HAL_Driver/Src/stm32f4xx_hal_rtc_ex.c ****   * @retval HAL status
1234:./Libraries/STM32F4xx_HAL_Driver/Src/stm32f4xx_hal_rtc_ex.c ****   */
1235:./Libraries/STM32F4xx_HAL_Driver/Src/stm32f4xx_hal_rtc_ex.c **** HAL_StatusTypeDef HAL_RTCEx_DeactivateCoarseCalib(RTC_HandleTypeDef* hrtc)
1236:./Libraries/STM32F4xx_HAL_Driver/Src/stm32f4xx_hal_rtc_ex.c **** { 
 2908              		.loc 1 1236 1
 2909              		.cfi_startproc
 2910              		@ args = 0, pretend = 0, frame = 8
 2911              		@ frame_needed = 1, uses_anonymous_args = 0
 2912 0000 80B5     		push	{r7, lr}
 2913              	.LCFI134:
 2914              		.cfi_def_cfa_offset 8
 2915              		.cfi_offset 7, -8
 2916              		.cfi_offset 14, -4
 2917 0002 82B0     		sub	sp, sp, #8
 2918              	.LCFI135:
 2919              		.cfi_def_cfa_offset 16
 2920 0004 00AF     		add	r7, sp, #0
 2921              	.LCFI136:
 2922              		.cfi_def_cfa_register 7
 2923 0006 7860     		str	r0, [r7, #4]
1237:./Libraries/STM32F4xx_HAL_Driver/Src/stm32f4xx_hal_rtc_ex.c ****   /* Process Locked */ 
1238:./Libraries/STM32F4xx_HAL_Driver/Src/stm32f4xx_hal_rtc_ex.c ****   __HAL_LOCK(hrtc);
 2924              		.loc 1 1238 3
 2925 0008 7B68     		ldr	r3, [r7, #4]
 2926 000a 1B7F     		ldrb	r3, [r3, #28]	@ zero_extendqisi2
 2927 000c 012B     		cmp	r3, #1
 2928 000e 01D1     		bne	.L98
 2929              		.loc 1 1238 3 is_stmt 0 discriminator 1
 2930 0010 0223     		movs	r3, #2
 2931 0012 3AE0     		b	.L99
 2932              	.L98:
 2933              		.loc 1 1238 3 discriminator 2
 2934 0014 7B68     		ldr	r3, [r7, #4]
 2935 0016 0122     		movs	r2, #1
 2936 0018 1A77     		strb	r2, [r3, #28]
1239:./Libraries/STM32F4xx_HAL_Driver/Src/stm32f4xx_hal_rtc_ex.c ****   
1240:./Libraries/STM32F4xx_HAL_Driver/Src/stm32f4xx_hal_rtc_ex.c ****   hrtc->State = HAL_RTC_STATE_BUSY;
 2937              		.loc 1 1240 15 is_stmt 1 discriminator 2
 2938 001a 7B68     		ldr	r3, [r7, #4]
 2939 001c 0222     		movs	r2, #2
 2940 001e 5A77     		strb	r2, [r3, #29]
1241:./Libraries/STM32F4xx_HAL_Driver/Src/stm32f4xx_hal_rtc_ex.c ****   
1242:./Libraries/STM32F4xx_HAL_Driver/Src/stm32f4xx_hal_rtc_ex.c ****   /* Disable the write protection for RTC registers */
1243:./Libraries/STM32F4xx_HAL_Driver/Src/stm32f4xx_hal_rtc_ex.c ****   __HAL_RTC_WRITEPROTECTION_DISABLE(hrtc);
 2941              		.loc 1 1243 3 discriminator 2
ARM GAS  /tmp/cckIUkG9.s 			page 74


 2942 0020 7B68     		ldr	r3, [r7, #4]
 2943 0022 1B68     		ldr	r3, [r3]
 2944 0024 CA22     		movs	r2, #202
 2945 0026 5A62     		str	r2, [r3, #36]
 2946 0028 7B68     		ldr	r3, [r7, #4]
 2947 002a 1B68     		ldr	r3, [r3]
 2948 002c 5322     		movs	r2, #83
 2949 002e 5A62     		str	r2, [r3, #36]
1244:./Libraries/STM32F4xx_HAL_Driver/Src/stm32f4xx_hal_rtc_ex.c **** 
1245:./Libraries/STM32F4xx_HAL_Driver/Src/stm32f4xx_hal_rtc_ex.c ****   /* Set Initialization mode */
1246:./Libraries/STM32F4xx_HAL_Driver/Src/stm32f4xx_hal_rtc_ex.c ****   if(RTC_EnterInitMode(hrtc) != HAL_OK)
 2950              		.loc 1 1246 6 discriminator 2
 2951 0030 7868     		ldr	r0, [r7, #4]
 2952 0032 FFF7FEFF 		bl	RTC_EnterInitMode
 2953 0036 0346     		mov	r3, r0
 2954              		.loc 1 1246 5 discriminator 2
 2955 0038 002B     		cmp	r3, #0
 2956 003a 0BD0     		beq	.L100
1247:./Libraries/STM32F4xx_HAL_Driver/Src/stm32f4xx_hal_rtc_ex.c ****   {
1248:./Libraries/STM32F4xx_HAL_Driver/Src/stm32f4xx_hal_rtc_ex.c ****     /* Enable the write protection for RTC registers */
1249:./Libraries/STM32F4xx_HAL_Driver/Src/stm32f4xx_hal_rtc_ex.c ****     __HAL_RTC_WRITEPROTECTION_ENABLE(hrtc); 
 2957              		.loc 1 1249 5
 2958 003c 7B68     		ldr	r3, [r7, #4]
 2959 003e 1B68     		ldr	r3, [r3]
 2960 0040 FF22     		movs	r2, #255
 2961 0042 5A62     		str	r2, [r3, #36]
1250:./Libraries/STM32F4xx_HAL_Driver/Src/stm32f4xx_hal_rtc_ex.c ****     
1251:./Libraries/STM32F4xx_HAL_Driver/Src/stm32f4xx_hal_rtc_ex.c ****     /* Set RTC state*/
1252:./Libraries/STM32F4xx_HAL_Driver/Src/stm32f4xx_hal_rtc_ex.c ****     hrtc->State = HAL_RTC_STATE_ERROR;
 2962              		.loc 1 1252 17
 2963 0044 7B68     		ldr	r3, [r7, #4]
 2964 0046 0422     		movs	r2, #4
 2965 0048 5A77     		strb	r2, [r3, #29]
1253:./Libraries/STM32F4xx_HAL_Driver/Src/stm32f4xx_hal_rtc_ex.c ****     
1254:./Libraries/STM32F4xx_HAL_Driver/Src/stm32f4xx_hal_rtc_ex.c ****     /* Process Unlocked */ 
1255:./Libraries/STM32F4xx_HAL_Driver/Src/stm32f4xx_hal_rtc_ex.c ****     __HAL_UNLOCK(hrtc);
 2966              		.loc 1 1255 5
 2967 004a 7B68     		ldr	r3, [r7, #4]
 2968 004c 0022     		movs	r2, #0
 2969 004e 1A77     		strb	r2, [r3, #28]
1256:./Libraries/STM32F4xx_HAL_Driver/Src/stm32f4xx_hal_rtc_ex.c ****     
1257:./Libraries/STM32F4xx_HAL_Driver/Src/stm32f4xx_hal_rtc_ex.c ****     return HAL_ERROR;
 2970              		.loc 1 1257 12
 2971 0050 0123     		movs	r3, #1
 2972 0052 1AE0     		b	.L99
 2973              	.L100:
1258:./Libraries/STM32F4xx_HAL_Driver/Src/stm32f4xx_hal_rtc_ex.c ****   } 
1259:./Libraries/STM32F4xx_HAL_Driver/Src/stm32f4xx_hal_rtc_ex.c ****   else
1260:./Libraries/STM32F4xx_HAL_Driver/Src/stm32f4xx_hal_rtc_ex.c ****   { 
1261:./Libraries/STM32F4xx_HAL_Driver/Src/stm32f4xx_hal_rtc_ex.c ****     /* Enable the Coarse Calibration */
1262:./Libraries/STM32F4xx_HAL_Driver/Src/stm32f4xx_hal_rtc_ex.c ****     __HAL_RTC_COARSE_CALIB_DISABLE(hrtc);
 2974              		.loc 1 1262 5
 2975 0054 7B68     		ldr	r3, [r7, #4]
 2976 0056 1B68     		ldr	r3, [r3]
 2977 0058 9A68     		ldr	r2, [r3, #8]
 2978 005a 7B68     		ldr	r3, [r7, #4]
 2979 005c 1B68     		ldr	r3, [r3]
ARM GAS  /tmp/cckIUkG9.s 			page 75


 2980 005e 22F08002 		bic	r2, r2, #128
 2981 0062 9A60     		str	r2, [r3, #8]
1263:./Libraries/STM32F4xx_HAL_Driver/Src/stm32f4xx_hal_rtc_ex.c ****     
1264:./Libraries/STM32F4xx_HAL_Driver/Src/stm32f4xx_hal_rtc_ex.c ****     /* Exit Initialization mode */
1265:./Libraries/STM32F4xx_HAL_Driver/Src/stm32f4xx_hal_rtc_ex.c ****     hrtc->Instance->ISR &= (uint32_t)~RTC_ISR_INIT; 
 2982              		.loc 1 1265 9
 2983 0064 7B68     		ldr	r3, [r7, #4]
 2984 0066 1B68     		ldr	r3, [r3]
 2985              		.loc 1 1265 25
 2986 0068 DA68     		ldr	r2, [r3, #12]
 2987              		.loc 1 1265 9
 2988 006a 7B68     		ldr	r3, [r7, #4]
 2989 006c 1B68     		ldr	r3, [r3]
 2990              		.loc 1 1265 25
 2991 006e 22F08002 		bic	r2, r2, #128
 2992 0072 DA60     		str	r2, [r3, #12]
1266:./Libraries/STM32F4xx_HAL_Driver/Src/stm32f4xx_hal_rtc_ex.c ****   } 
1267:./Libraries/STM32F4xx_HAL_Driver/Src/stm32f4xx_hal_rtc_ex.c **** 
1268:./Libraries/STM32F4xx_HAL_Driver/Src/stm32f4xx_hal_rtc_ex.c ****   /* Enable the write protection for RTC registers */
1269:./Libraries/STM32F4xx_HAL_Driver/Src/stm32f4xx_hal_rtc_ex.c ****   __HAL_RTC_WRITEPROTECTION_ENABLE(hrtc);
 2993              		.loc 1 1269 3
 2994 0074 7B68     		ldr	r3, [r7, #4]
 2995 0076 1B68     		ldr	r3, [r3]
 2996 0078 FF22     		movs	r2, #255
 2997 007a 5A62     		str	r2, [r3, #36]
1270:./Libraries/STM32F4xx_HAL_Driver/Src/stm32f4xx_hal_rtc_ex.c ****   
1271:./Libraries/STM32F4xx_HAL_Driver/Src/stm32f4xx_hal_rtc_ex.c ****   /* Change state */
1272:./Libraries/STM32F4xx_HAL_Driver/Src/stm32f4xx_hal_rtc_ex.c ****   hrtc->State = HAL_RTC_STATE_READY; 
 2998              		.loc 1 1272 15
 2999 007c 7B68     		ldr	r3, [r7, #4]
 3000 007e 0122     		movs	r2, #1
 3001 0080 5A77     		strb	r2, [r3, #29]
1273:./Libraries/STM32F4xx_HAL_Driver/Src/stm32f4xx_hal_rtc_ex.c ****   
1274:./Libraries/STM32F4xx_HAL_Driver/Src/stm32f4xx_hal_rtc_ex.c ****   /* Process Unlocked */ 
1275:./Libraries/STM32F4xx_HAL_Driver/Src/stm32f4xx_hal_rtc_ex.c ****   __HAL_UNLOCK(hrtc);
 3002              		.loc 1 1275 3
 3003 0082 7B68     		ldr	r3, [r7, #4]
 3004 0084 0022     		movs	r2, #0
 3005 0086 1A77     		strb	r2, [r3, #28]
1276:./Libraries/STM32F4xx_HAL_Driver/Src/stm32f4xx_hal_rtc_ex.c ****   
1277:./Libraries/STM32F4xx_HAL_Driver/Src/stm32f4xx_hal_rtc_ex.c ****   return HAL_OK;
 3006              		.loc 1 1277 10
 3007 0088 0023     		movs	r3, #0
 3008              	.L99:
1278:./Libraries/STM32F4xx_HAL_Driver/Src/stm32f4xx_hal_rtc_ex.c **** }
 3009              		.loc 1 1278 1
 3010 008a 1846     		mov	r0, r3
 3011 008c 0837     		adds	r7, r7, #8
 3012              	.LCFI137:
 3013              		.cfi_def_cfa_offset 8
 3014 008e BD46     		mov	sp, r7
 3015              	.LCFI138:
 3016              		.cfi_def_cfa_register 13
 3017              		@ sp needed
 3018 0090 80BD     		pop	{r7, pc}
 3019              		.cfi_endproc
 3020              	.LFE150:
ARM GAS  /tmp/cckIUkG9.s 			page 76


 3022              		.section	.text.HAL_RTCEx_SetSmoothCalib,"ax",%progbits
 3023              		.align	1
 3024              		.global	HAL_RTCEx_SetSmoothCalib
 3025              		.syntax unified
 3026              		.thumb
 3027              		.thumb_func
