ARM GAS  /tmp/ccscUl47.s 			page 1


   1              		.cpu cortex-m4
   2              		.eabi_attribute 27, 1
   3              		.eabi_attribute 28, 1
   4              		.eabi_attribute 20, 1
   5              		.eabi_attribute 21, 1
   6              		.eabi_attribute 23, 3
   7              		.eabi_attribute 24, 1
   8              		.eabi_attribute 25, 1
   9              		.eabi_attribute 26, 1
  10              		.eabi_attribute 30, 6
  11              		.eabi_attribute 34, 1
  12              		.eabi_attribute 18, 4
  13              		.file	"stm32f4xx_hal_nor.c"
  14              		.text
  15              	.Ltext0:
  16              		.cfi_sections	.debug_frame
  17              		.section	.bss.uwNORMemoryDataWidth,"aw",%nobits
  18              		.align	2
  21              	uwNORMemoryDataWidth:
  22 0000 00000000 		.space	4
  23              		.section	.text.HAL_NOR_Init,"ax",%progbits
  24              		.align	1
  25              		.global	HAL_NOR_Init
  26              		.arch armv7e-m
  27              		.syntax unified
  28              		.thumb
  29              		.thumb_func
  30              		.fpu fpv4-sp-d16
  32              	HAL_NOR_Init:
  33              	.LFB126:
  34              		.file 1 "./Libraries/STM32F4xx_HAL_Driver/Src/stm32f4xx_hal_nor.c"
   1:./Libraries/STM32F4xx_HAL_Driver/Src/stm32f4xx_hal_nor.c **** /**
   2:./Libraries/STM32F4xx_HAL_Driver/Src/stm32f4xx_hal_nor.c ****   ******************************************************************************
   3:./Libraries/STM32F4xx_HAL_Driver/Src/stm32f4xx_hal_nor.c ****   * @file    stm32f4xx_hal_nor.c
   4:./Libraries/STM32F4xx_HAL_Driver/Src/stm32f4xx_hal_nor.c ****   * @author  MCD Application Team
   5:./Libraries/STM32F4xx_HAL_Driver/Src/stm32f4xx_hal_nor.c ****   * @brief   NOR HAL module driver.
   6:./Libraries/STM32F4xx_HAL_Driver/Src/stm32f4xx_hal_nor.c ****   *          This file provides a generic firmware to drive NOR memories mounted 
   7:./Libraries/STM32F4xx_HAL_Driver/Src/stm32f4xx_hal_nor.c ****   *          as external device.
   8:./Libraries/STM32F4xx_HAL_Driver/Src/stm32f4xx_hal_nor.c ****   *         
   9:./Libraries/STM32F4xx_HAL_Driver/Src/stm32f4xx_hal_nor.c ****   @verbatim
  10:./Libraries/STM32F4xx_HAL_Driver/Src/stm32f4xx_hal_nor.c ****   ==============================================================================
  11:./Libraries/STM32F4xx_HAL_Driver/Src/stm32f4xx_hal_nor.c ****                      ##### How to use this driver #####
  12:./Libraries/STM32F4xx_HAL_Driver/Src/stm32f4xx_hal_nor.c ****   ==============================================================================       
  13:./Libraries/STM32F4xx_HAL_Driver/Src/stm32f4xx_hal_nor.c ****     [..]
  14:./Libraries/STM32F4xx_HAL_Driver/Src/stm32f4xx_hal_nor.c ****       This driver is a generic layered driver which contains a set of APIs used to 
  15:./Libraries/STM32F4xx_HAL_Driver/Src/stm32f4xx_hal_nor.c ****       control NOR flash memories. It uses the FMC/FSMC layer functions to interface 
  16:./Libraries/STM32F4xx_HAL_Driver/Src/stm32f4xx_hal_nor.c ****       with NOR devices. This driver is used as follows:
  17:./Libraries/STM32F4xx_HAL_Driver/Src/stm32f4xx_hal_nor.c ****     
  18:./Libraries/STM32F4xx_HAL_Driver/Src/stm32f4xx_hal_nor.c ****       (+) NOR flash memory configuration sequence using the function HAL_NOR_Init() 
  19:./Libraries/STM32F4xx_HAL_Driver/Src/stm32f4xx_hal_nor.c ****           with control and timing parameters for both normal and extended mode.
  20:./Libraries/STM32F4xx_HAL_Driver/Src/stm32f4xx_hal_nor.c ****             
  21:./Libraries/STM32F4xx_HAL_Driver/Src/stm32f4xx_hal_nor.c ****       (+) Read NOR flash memory manufacturer code and device IDs using the function
  22:./Libraries/STM32F4xx_HAL_Driver/Src/stm32f4xx_hal_nor.c ****           HAL_NOR_Read_ID(). The read information is stored in the NOR_ID_TypeDef 
  23:./Libraries/STM32F4xx_HAL_Driver/Src/stm32f4xx_hal_nor.c ****           structure declared by the function caller. 
  24:./Libraries/STM32F4xx_HAL_Driver/Src/stm32f4xx_hal_nor.c ****         
  25:./Libraries/STM32F4xx_HAL_Driver/Src/stm32f4xx_hal_nor.c ****       (+) Access NOR flash memory by read/write data unit operations using the functions
  26:./Libraries/STM32F4xx_HAL_Driver/Src/stm32f4xx_hal_nor.c ****           HAL_NOR_Read(), HAL_NOR_Program().
ARM GAS  /tmp/ccscUl47.s 			page 2


  27:./Libraries/STM32F4xx_HAL_Driver/Src/stm32f4xx_hal_nor.c ****         
  28:./Libraries/STM32F4xx_HAL_Driver/Src/stm32f4xx_hal_nor.c ****       (+) Perform NOR flash erase block/chip operations using the functions 
  29:./Libraries/STM32F4xx_HAL_Driver/Src/stm32f4xx_hal_nor.c ****           HAL_NOR_Erase_Block() and HAL_NOR_Erase_Chip().
  30:./Libraries/STM32F4xx_HAL_Driver/Src/stm32f4xx_hal_nor.c ****         
  31:./Libraries/STM32F4xx_HAL_Driver/Src/stm32f4xx_hal_nor.c ****       (+) Read the NOR flash CFI (common flash interface) IDs using the function
  32:./Libraries/STM32F4xx_HAL_Driver/Src/stm32f4xx_hal_nor.c ****           HAL_NOR_Read_CFI(). The read information is stored in the NOR_CFI_TypeDef
  33:./Libraries/STM32F4xx_HAL_Driver/Src/stm32f4xx_hal_nor.c ****           structure declared by the function caller.
  34:./Libraries/STM32F4xx_HAL_Driver/Src/stm32f4xx_hal_nor.c ****         
  35:./Libraries/STM32F4xx_HAL_Driver/Src/stm32f4xx_hal_nor.c ****       (+) You can also control the NOR device by calling the control APIs HAL_NOR_WriteOperation_En
  36:./Libraries/STM32F4xx_HAL_Driver/Src/stm32f4xx_hal_nor.c ****           HAL_NOR_WriteOperation_Disable() to respectively enable/disable the NOR write operation  
  37:./Libraries/STM32F4xx_HAL_Driver/Src/stm32f4xx_hal_nor.c ****        
  38:./Libraries/STM32F4xx_HAL_Driver/Src/stm32f4xx_hal_nor.c ****       (+) You can monitor the NOR device HAL state by calling the function
  39:./Libraries/STM32F4xx_HAL_Driver/Src/stm32f4xx_hal_nor.c ****           HAL_NOR_GetState() 
  40:./Libraries/STM32F4xx_HAL_Driver/Src/stm32f4xx_hal_nor.c ****     [..]
  41:./Libraries/STM32F4xx_HAL_Driver/Src/stm32f4xx_hal_nor.c ****      (@) This driver is a set of generic APIs which handle standard NOR flash operations.
  42:./Libraries/STM32F4xx_HAL_Driver/Src/stm32f4xx_hal_nor.c ****          If a NOR flash device contains different operations and/or implementations, 
  43:./Libraries/STM32F4xx_HAL_Driver/Src/stm32f4xx_hal_nor.c ****          it should be implemented separately.
  44:./Libraries/STM32F4xx_HAL_Driver/Src/stm32f4xx_hal_nor.c **** 
  45:./Libraries/STM32F4xx_HAL_Driver/Src/stm32f4xx_hal_nor.c ****      *** NOR HAL driver macros list ***
  46:./Libraries/STM32F4xx_HAL_Driver/Src/stm32f4xx_hal_nor.c ****      ============================================= 
  47:./Libraries/STM32F4xx_HAL_Driver/Src/stm32f4xx_hal_nor.c ****      [..]
  48:./Libraries/STM32F4xx_HAL_Driver/Src/stm32f4xx_hal_nor.c ****        Below the list of most used macros in NOR HAL driver.
  49:./Libraries/STM32F4xx_HAL_Driver/Src/stm32f4xx_hal_nor.c ****        
  50:./Libraries/STM32F4xx_HAL_Driver/Src/stm32f4xx_hal_nor.c ****       (+) NOR_WRITE : NOR memory write data to specified address
  51:./Libraries/STM32F4xx_HAL_Driver/Src/stm32f4xx_hal_nor.c **** 
  52:./Libraries/STM32F4xx_HAL_Driver/Src/stm32f4xx_hal_nor.c ****   @endverbatim
  53:./Libraries/STM32F4xx_HAL_Driver/Src/stm32f4xx_hal_nor.c ****   ******************************************************************************
  54:./Libraries/STM32F4xx_HAL_Driver/Src/stm32f4xx_hal_nor.c ****   * @attention
  55:./Libraries/STM32F4xx_HAL_Driver/Src/stm32f4xx_hal_nor.c ****   *
  56:./Libraries/STM32F4xx_HAL_Driver/Src/stm32f4xx_hal_nor.c ****   * <h2><center>&copy; COPYRIGHT(c) 2017 STMicroelectronics</center></h2>
  57:./Libraries/STM32F4xx_HAL_Driver/Src/stm32f4xx_hal_nor.c ****   *
  58:./Libraries/STM32F4xx_HAL_Driver/Src/stm32f4xx_hal_nor.c ****   * Redistribution and use in source and binary forms, with or without modification,
  59:./Libraries/STM32F4xx_HAL_Driver/Src/stm32f4xx_hal_nor.c ****   * are permitted provided that the following conditions are met:
  60:./Libraries/STM32F4xx_HAL_Driver/Src/stm32f4xx_hal_nor.c ****   *   1. Redistributions of source code must retain the above copyright notice,
  61:./Libraries/STM32F4xx_HAL_Driver/Src/stm32f4xx_hal_nor.c ****   *      this list of conditions and the following disclaimer.
  62:./Libraries/STM32F4xx_HAL_Driver/Src/stm32f4xx_hal_nor.c ****   *   2. Redistributions in binary form must reproduce the above copyright notice,
  63:./Libraries/STM32F4xx_HAL_Driver/Src/stm32f4xx_hal_nor.c ****   *      this list of conditions and the following disclaimer in the documentation
  64:./Libraries/STM32F4xx_HAL_Driver/Src/stm32f4xx_hal_nor.c ****   *      and/or other materials provided with the distribution.
  65:./Libraries/STM32F4xx_HAL_Driver/Src/stm32f4xx_hal_nor.c ****   *   3. Neither the name of STMicroelectronics nor the names of its contributors
  66:./Libraries/STM32F4xx_HAL_Driver/Src/stm32f4xx_hal_nor.c ****   *      may be used to endorse or promote products derived from this software
  67:./Libraries/STM32F4xx_HAL_Driver/Src/stm32f4xx_hal_nor.c ****   *      without specific prior written permission.
  68:./Libraries/STM32F4xx_HAL_Driver/Src/stm32f4xx_hal_nor.c ****   *
  69:./Libraries/STM32F4xx_HAL_Driver/Src/stm32f4xx_hal_nor.c ****   * THIS SOFTWARE IS PROVIDED BY THE COPYRIGHT HOLDERS AND CONTRIBUTORS "AS IS"
  70:./Libraries/STM32F4xx_HAL_Driver/Src/stm32f4xx_hal_nor.c ****   * AND ANY EXPRESS OR IMPLIED WARRANTIES, INCLUDING, BUT NOT LIMITED TO, THE
  71:./Libraries/STM32F4xx_HAL_Driver/Src/stm32f4xx_hal_nor.c ****   * IMPLIED WARRANTIES OF MERCHANTABILITY AND FITNESS FOR A PARTICULAR PURPOSE ARE
  72:./Libraries/STM32F4xx_HAL_Driver/Src/stm32f4xx_hal_nor.c ****   * DISCLAIMED. IN NO EVENT SHALL THE COPYRIGHT HOLDER OR CONTRIBUTORS BE LIABLE
  73:./Libraries/STM32F4xx_HAL_Driver/Src/stm32f4xx_hal_nor.c ****   * FOR ANY DIRECT, INDIRECT, INCIDENTAL, SPECIAL, EXEMPLARY, OR CONSEQUENTIAL
  74:./Libraries/STM32F4xx_HAL_Driver/Src/stm32f4xx_hal_nor.c ****   * DAMAGES (INCLUDING, BUT NOT LIMITED TO, PROCUREMENT OF SUBSTITUTE GOODS OR
  75:./Libraries/STM32F4xx_HAL_Driver/Src/stm32f4xx_hal_nor.c ****   * SERVICES; LOSS OF USE, DATA, OR PROFITS; OR BUSINESS INTERRUPTION) HOWEVER
  76:./Libraries/STM32F4xx_HAL_Driver/Src/stm32f4xx_hal_nor.c ****   * CAUSED AND ON ANY THEORY OF LIABILITY, WHETHER IN CONTRACT, STRICT LIABILITY,
  77:./Libraries/STM32F4xx_HAL_Driver/Src/stm32f4xx_hal_nor.c ****   * OR TORT (INCLUDING NEGLIGENCE OR OTHERWISE) ARISING IN ANY WAY OUT OF THE USE
  78:./Libraries/STM32F4xx_HAL_Driver/Src/stm32f4xx_hal_nor.c ****   * OF THIS SOFTWARE, EVEN IF ADVISED OF THE POSSIBILITY OF SUCH DAMAGE.
  79:./Libraries/STM32F4xx_HAL_Driver/Src/stm32f4xx_hal_nor.c ****   *
  80:./Libraries/STM32F4xx_HAL_Driver/Src/stm32f4xx_hal_nor.c ****   ******************************************************************************
  81:./Libraries/STM32F4xx_HAL_Driver/Src/stm32f4xx_hal_nor.c ****   */ 
  82:./Libraries/STM32F4xx_HAL_Driver/Src/stm32f4xx_hal_nor.c **** 
  83:./Libraries/STM32F4xx_HAL_Driver/Src/stm32f4xx_hal_nor.c **** /* Includes ------------------------------------------------------------------*/
ARM GAS  /tmp/ccscUl47.s 			page 3


  84:./Libraries/STM32F4xx_HAL_Driver/Src/stm32f4xx_hal_nor.c **** #include "stm32f4xx_hal.h"
  85:./Libraries/STM32F4xx_HAL_Driver/Src/stm32f4xx_hal_nor.c **** 
  86:./Libraries/STM32F4xx_HAL_Driver/Src/stm32f4xx_hal_nor.c **** /** @addtogroup STM32F4xx_HAL_Driver
  87:./Libraries/STM32F4xx_HAL_Driver/Src/stm32f4xx_hal_nor.c ****   * @{
  88:./Libraries/STM32F4xx_HAL_Driver/Src/stm32f4xx_hal_nor.c ****   */
  89:./Libraries/STM32F4xx_HAL_Driver/Src/stm32f4xx_hal_nor.c **** 
  90:./Libraries/STM32F4xx_HAL_Driver/Src/stm32f4xx_hal_nor.c **** /** @defgroup NOR NOR
  91:./Libraries/STM32F4xx_HAL_Driver/Src/stm32f4xx_hal_nor.c ****   * @brief NOR driver modules
  92:./Libraries/STM32F4xx_HAL_Driver/Src/stm32f4xx_hal_nor.c ****   * @{
  93:./Libraries/STM32F4xx_HAL_Driver/Src/stm32f4xx_hal_nor.c ****   */
  94:./Libraries/STM32F4xx_HAL_Driver/Src/stm32f4xx_hal_nor.c **** #ifdef HAL_NOR_MODULE_ENABLED
  95:./Libraries/STM32F4xx_HAL_Driver/Src/stm32f4xx_hal_nor.c **** #if defined(STM32F405xx) || defined(STM32F415xx) || defined(STM32F407xx) || defined(STM32F417xx) ||
  96:./Libraries/STM32F4xx_HAL_Driver/Src/stm32f4xx_hal_nor.c ****     defined(STM32F427xx) || defined(STM32F437xx) || defined(STM32F429xx) || defined(STM32F439xx) ||
  97:./Libraries/STM32F4xx_HAL_Driver/Src/stm32f4xx_hal_nor.c ****     defined(STM32F446xx) || defined(STM32F469xx) || defined(STM32F479xx) || defined(STM32F412Zx) ||
  98:./Libraries/STM32F4xx_HAL_Driver/Src/stm32f4xx_hal_nor.c ****     defined(STM32F412Vx) || defined(STM32F412Rx) || defined(STM32F413xx) || defined(STM32F423xx)
  99:./Libraries/STM32F4xx_HAL_Driver/Src/stm32f4xx_hal_nor.c **** /* Private typedef -----------------------------------------------------------*/
 100:./Libraries/STM32F4xx_HAL_Driver/Src/stm32f4xx_hal_nor.c **** /* Private define ------------------------------------------------------------*/
 101:./Libraries/STM32F4xx_HAL_Driver/Src/stm32f4xx_hal_nor.c ****       
 102:./Libraries/STM32F4xx_HAL_Driver/Src/stm32f4xx_hal_nor.c **** /** @defgroup NOR_Private_Defines NOR Private Defines
 103:./Libraries/STM32F4xx_HAL_Driver/Src/stm32f4xx_hal_nor.c ****   * @{
 104:./Libraries/STM32F4xx_HAL_Driver/Src/stm32f4xx_hal_nor.c ****   */
 105:./Libraries/STM32F4xx_HAL_Driver/Src/stm32f4xx_hal_nor.c **** 
 106:./Libraries/STM32F4xx_HAL_Driver/Src/stm32f4xx_hal_nor.c **** /* Constants to define address to set to write a command */
 107:./Libraries/STM32F4xx_HAL_Driver/Src/stm32f4xx_hal_nor.c **** #define NOR_CMD_ADDRESS_FIRST                 (uint16_t)0x0555
 108:./Libraries/STM32F4xx_HAL_Driver/Src/stm32f4xx_hal_nor.c **** #define NOR_CMD_ADDRESS_FIRST_CFI             (uint16_t)0x0055
 109:./Libraries/STM32F4xx_HAL_Driver/Src/stm32f4xx_hal_nor.c **** #define NOR_CMD_ADDRESS_SECOND                (uint16_t)0x02AA
 110:./Libraries/STM32F4xx_HAL_Driver/Src/stm32f4xx_hal_nor.c **** #define NOR_CMD_ADDRESS_THIRD                 (uint16_t)0x0555
 111:./Libraries/STM32F4xx_HAL_Driver/Src/stm32f4xx_hal_nor.c **** #define NOR_CMD_ADDRESS_FOURTH                (uint16_t)0x0555
 112:./Libraries/STM32F4xx_HAL_Driver/Src/stm32f4xx_hal_nor.c **** #define NOR_CMD_ADDRESS_FIFTH                 (uint16_t)0x02AA
 113:./Libraries/STM32F4xx_HAL_Driver/Src/stm32f4xx_hal_nor.c **** #define NOR_CMD_ADDRESS_SIXTH                 (uint16_t)0x0555
 114:./Libraries/STM32F4xx_HAL_Driver/Src/stm32f4xx_hal_nor.c **** 
 115:./Libraries/STM32F4xx_HAL_Driver/Src/stm32f4xx_hal_nor.c **** /* Constants to define data to program a command */
 116:./Libraries/STM32F4xx_HAL_Driver/Src/stm32f4xx_hal_nor.c **** #define NOR_CMD_DATA_READ_RESET               (uint16_t)0x00F0
 117:./Libraries/STM32F4xx_HAL_Driver/Src/stm32f4xx_hal_nor.c **** #define NOR_CMD_DATA_FIRST                    (uint16_t)0x00AA
 118:./Libraries/STM32F4xx_HAL_Driver/Src/stm32f4xx_hal_nor.c **** #define NOR_CMD_DATA_SECOND                   (uint16_t)0x0055
 119:./Libraries/STM32F4xx_HAL_Driver/Src/stm32f4xx_hal_nor.c **** #define NOR_CMD_DATA_AUTO_SELECT              (uint16_t)0x0090
 120:./Libraries/STM32F4xx_HAL_Driver/Src/stm32f4xx_hal_nor.c **** #define NOR_CMD_DATA_PROGRAM                  (uint16_t)0x00A0
 121:./Libraries/STM32F4xx_HAL_Driver/Src/stm32f4xx_hal_nor.c **** #define NOR_CMD_DATA_CHIP_BLOCK_ERASE_THIRD   (uint16_t)0x0080
 122:./Libraries/STM32F4xx_HAL_Driver/Src/stm32f4xx_hal_nor.c **** #define NOR_CMD_DATA_CHIP_BLOCK_ERASE_FOURTH  (uint16_t)0x00AA
 123:./Libraries/STM32F4xx_HAL_Driver/Src/stm32f4xx_hal_nor.c **** #define NOR_CMD_DATA_CHIP_BLOCK_ERASE_FIFTH   (uint16_t)0x0055
 124:./Libraries/STM32F4xx_HAL_Driver/Src/stm32f4xx_hal_nor.c **** #define NOR_CMD_DATA_CHIP_ERASE               (uint16_t)0x0010
 125:./Libraries/STM32F4xx_HAL_Driver/Src/stm32f4xx_hal_nor.c **** #define NOR_CMD_DATA_CFI                      (uint16_t)0x0098
 126:./Libraries/STM32F4xx_HAL_Driver/Src/stm32f4xx_hal_nor.c **** 
 127:./Libraries/STM32F4xx_HAL_Driver/Src/stm32f4xx_hal_nor.c **** #define NOR_CMD_DATA_BUFFER_AND_PROG          (uint8_t)0x25
 128:./Libraries/STM32F4xx_HAL_Driver/Src/stm32f4xx_hal_nor.c **** #define NOR_CMD_DATA_BUFFER_AND_PROG_CONFIRM  (uint8_t)0x29
 129:./Libraries/STM32F4xx_HAL_Driver/Src/stm32f4xx_hal_nor.c **** #define NOR_CMD_DATA_BLOCK_ERASE              (uint8_t)0x30
 130:./Libraries/STM32F4xx_HAL_Driver/Src/stm32f4xx_hal_nor.c **** 
 131:./Libraries/STM32F4xx_HAL_Driver/Src/stm32f4xx_hal_nor.c **** /* Mask on NOR STATUS REGISTER */
 132:./Libraries/STM32F4xx_HAL_Driver/Src/stm32f4xx_hal_nor.c **** #define NOR_MASK_STATUS_DQ5                   (uint16_t)0x0020
 133:./Libraries/STM32F4xx_HAL_Driver/Src/stm32f4xx_hal_nor.c **** #define NOR_MASK_STATUS_DQ6                   (uint16_t)0x0040
 134:./Libraries/STM32F4xx_HAL_Driver/Src/stm32f4xx_hal_nor.c **** 
 135:./Libraries/STM32F4xx_HAL_Driver/Src/stm32f4xx_hal_nor.c **** /**
 136:./Libraries/STM32F4xx_HAL_Driver/Src/stm32f4xx_hal_nor.c ****   * @}
 137:./Libraries/STM32F4xx_HAL_Driver/Src/stm32f4xx_hal_nor.c ****   */
 138:./Libraries/STM32F4xx_HAL_Driver/Src/stm32f4xx_hal_nor.c ****       
 139:./Libraries/STM32F4xx_HAL_Driver/Src/stm32f4xx_hal_nor.c **** /* Private macro -------------------------------------------------------------*/
 140:./Libraries/STM32F4xx_HAL_Driver/Src/stm32f4xx_hal_nor.c **** /* Private variables ---------------------------------------------------------*/
ARM GAS  /tmp/ccscUl47.s 			page 4


 141:./Libraries/STM32F4xx_HAL_Driver/Src/stm32f4xx_hal_nor.c **** /** @defgroup NOR_Private_Variables NOR Private Variables
 142:./Libraries/STM32F4xx_HAL_Driver/Src/stm32f4xx_hal_nor.c ****   * @{
 143:./Libraries/STM32F4xx_HAL_Driver/Src/stm32f4xx_hal_nor.c ****   */
 144:./Libraries/STM32F4xx_HAL_Driver/Src/stm32f4xx_hal_nor.c **** 
 145:./Libraries/STM32F4xx_HAL_Driver/Src/stm32f4xx_hal_nor.c **** static uint32_t uwNORMemoryDataWidth  = NOR_MEMORY_8B;
 146:./Libraries/STM32F4xx_HAL_Driver/Src/stm32f4xx_hal_nor.c **** 
 147:./Libraries/STM32F4xx_HAL_Driver/Src/stm32f4xx_hal_nor.c **** /**
 148:./Libraries/STM32F4xx_HAL_Driver/Src/stm32f4xx_hal_nor.c ****   * @}
 149:./Libraries/STM32F4xx_HAL_Driver/Src/stm32f4xx_hal_nor.c ****   */
 150:./Libraries/STM32F4xx_HAL_Driver/Src/stm32f4xx_hal_nor.c **** 
 151:./Libraries/STM32F4xx_HAL_Driver/Src/stm32f4xx_hal_nor.c **** /* Private functions ---------------------------------------------------------*/
 152:./Libraries/STM32F4xx_HAL_Driver/Src/stm32f4xx_hal_nor.c **** /* Exported functions --------------------------------------------------------*/
 153:./Libraries/STM32F4xx_HAL_Driver/Src/stm32f4xx_hal_nor.c **** /** @defgroup NOR_Exported_Functions NOR Exported Functions
 154:./Libraries/STM32F4xx_HAL_Driver/Src/stm32f4xx_hal_nor.c ****   * @{
 155:./Libraries/STM32F4xx_HAL_Driver/Src/stm32f4xx_hal_nor.c ****   */
 156:./Libraries/STM32F4xx_HAL_Driver/Src/stm32f4xx_hal_nor.c **** 
 157:./Libraries/STM32F4xx_HAL_Driver/Src/stm32f4xx_hal_nor.c **** /** @defgroup NOR_Exported_Functions_Group1 Initialization and de-initialization functions 
 158:./Libraries/STM32F4xx_HAL_Driver/Src/stm32f4xx_hal_nor.c ****   * @brief    Initialization and Configuration functions 
 159:./Libraries/STM32F4xx_HAL_Driver/Src/stm32f4xx_hal_nor.c ****   *
 160:./Libraries/STM32F4xx_HAL_Driver/Src/stm32f4xx_hal_nor.c ****   @verbatim    
 161:./Libraries/STM32F4xx_HAL_Driver/Src/stm32f4xx_hal_nor.c ****   ==============================================================================
 162:./Libraries/STM32F4xx_HAL_Driver/Src/stm32f4xx_hal_nor.c ****            ##### NOR Initialization and de_initialization functions #####
 163:./Libraries/STM32F4xx_HAL_Driver/Src/stm32f4xx_hal_nor.c ****   ==============================================================================
 164:./Libraries/STM32F4xx_HAL_Driver/Src/stm32f4xx_hal_nor.c ****   [..]  
 165:./Libraries/STM32F4xx_HAL_Driver/Src/stm32f4xx_hal_nor.c ****     This section provides functions allowing to initialize/de-initialize
 166:./Libraries/STM32F4xx_HAL_Driver/Src/stm32f4xx_hal_nor.c ****     the NOR memory
 167:./Libraries/STM32F4xx_HAL_Driver/Src/stm32f4xx_hal_nor.c ****   
 168:./Libraries/STM32F4xx_HAL_Driver/Src/stm32f4xx_hal_nor.c **** @endverbatim
 169:./Libraries/STM32F4xx_HAL_Driver/Src/stm32f4xx_hal_nor.c ****   * @{
 170:./Libraries/STM32F4xx_HAL_Driver/Src/stm32f4xx_hal_nor.c ****   */
 171:./Libraries/STM32F4xx_HAL_Driver/Src/stm32f4xx_hal_nor.c ****     
 172:./Libraries/STM32F4xx_HAL_Driver/Src/stm32f4xx_hal_nor.c **** /**
 173:./Libraries/STM32F4xx_HAL_Driver/Src/stm32f4xx_hal_nor.c ****   * @brief  Perform the NOR memory Initialization sequence
 174:./Libraries/STM32F4xx_HAL_Driver/Src/stm32f4xx_hal_nor.c ****   * @param  hnor pointer to a NOR_HandleTypeDef structure that contains
 175:./Libraries/STM32F4xx_HAL_Driver/Src/stm32f4xx_hal_nor.c ****   *                the configuration information for NOR module.
 176:./Libraries/STM32F4xx_HAL_Driver/Src/stm32f4xx_hal_nor.c ****   * @param  Timing pointer to NOR control timing structure 
 177:./Libraries/STM32F4xx_HAL_Driver/Src/stm32f4xx_hal_nor.c ****   * @param  ExtTiming pointer to NOR extended mode timing structure    
 178:./Libraries/STM32F4xx_HAL_Driver/Src/stm32f4xx_hal_nor.c ****   * @retval HAL status
 179:./Libraries/STM32F4xx_HAL_Driver/Src/stm32f4xx_hal_nor.c ****   */
 180:./Libraries/STM32F4xx_HAL_Driver/Src/stm32f4xx_hal_nor.c **** HAL_StatusTypeDef HAL_NOR_Init(NOR_HandleTypeDef *hnor, FMC_NORSRAM_TimingTypeDef *Timing, FMC_NORS
 181:./Libraries/STM32F4xx_HAL_Driver/Src/stm32f4xx_hal_nor.c **** {
  35              		.loc 1 181 1
  36              		.cfi_startproc
  37              		@ args = 0, pretend = 0, frame = 16
  38              		@ frame_needed = 1, uses_anonymous_args = 0
  39 0000 80B5     		push	{r7, lr}
  40              	.LCFI0:
  41              		.cfi_def_cfa_offset 8
  42              		.cfi_offset 7, -8
  43              		.cfi_offset 14, -4
  44 0002 84B0     		sub	sp, sp, #16
  45              	.LCFI1:
  46              		.cfi_def_cfa_offset 24
  47 0004 00AF     		add	r7, sp, #0
  48              	.LCFI2:
  49              		.cfi_def_cfa_register 7
  50 0006 F860     		str	r0, [r7, #12]
ARM GAS  /tmp/ccscUl47.s 			page 5


  51 0008 B960     		str	r1, [r7, #8]
  52 000a 7A60     		str	r2, [r7, #4]
 182:./Libraries/STM32F4xx_HAL_Driver/Src/stm32f4xx_hal_nor.c ****   /* Check the NOR handle parameter */
 183:./Libraries/STM32F4xx_HAL_Driver/Src/stm32f4xx_hal_nor.c ****   if(hnor == NULL)
  53              		.loc 1 183 5
  54 000c FB68     		ldr	r3, [r7, #12]
  55 000e 002B     		cmp	r3, #0
  56 0010 01D1     		bne	.L2
 184:./Libraries/STM32F4xx_HAL_Driver/Src/stm32f4xx_hal_nor.c ****   {
 185:./Libraries/STM32F4xx_HAL_Driver/Src/stm32f4xx_hal_nor.c ****      return HAL_ERROR;
  57              		.loc 1 185 13
  58 0012 0123     		movs	r3, #1
  59 0014 43E0     		b	.L3
  60              	.L2:
 186:./Libraries/STM32F4xx_HAL_Driver/Src/stm32f4xx_hal_nor.c ****   }
 187:./Libraries/STM32F4xx_HAL_Driver/Src/stm32f4xx_hal_nor.c ****   
 188:./Libraries/STM32F4xx_HAL_Driver/Src/stm32f4xx_hal_nor.c ****   if(hnor->State == HAL_NOR_STATE_RESET)
  61              		.loc 1 188 10
  62 0016 FB68     		ldr	r3, [r7, #12]
  63 0018 93F84930 		ldrb	r3, [r3, #73]
  64 001c DBB2     		uxtb	r3, r3
  65              		.loc 1 188 5
  66 001e 002B     		cmp	r3, #0
  67 0020 06D1     		bne	.L4
 189:./Libraries/STM32F4xx_HAL_Driver/Src/stm32f4xx_hal_nor.c ****   {
 190:./Libraries/STM32F4xx_HAL_Driver/Src/stm32f4xx_hal_nor.c ****     /* Allocate lock resource and initialize it */
 191:./Libraries/STM32F4xx_HAL_Driver/Src/stm32f4xx_hal_nor.c ****     hnor->Lock = HAL_UNLOCKED;
  68              		.loc 1 191 16
  69 0022 FB68     		ldr	r3, [r7, #12]
  70 0024 0022     		movs	r2, #0
  71 0026 83F84820 		strb	r2, [r3, #72]
 192:./Libraries/STM32F4xx_HAL_Driver/Src/stm32f4xx_hal_nor.c ****     /* Initialize the low level hardware (MSP) */
 193:./Libraries/STM32F4xx_HAL_Driver/Src/stm32f4xx_hal_nor.c ****     HAL_NOR_MspInit(hnor);
  72              		.loc 1 193 5
  73 002a F868     		ldr	r0, [r7, #12]
  74 002c FFF7FEFF 		bl	HAL_NOR_MspInit
  75              	.L4:
 194:./Libraries/STM32F4xx_HAL_Driver/Src/stm32f4xx_hal_nor.c ****   }
 195:./Libraries/STM32F4xx_HAL_Driver/Src/stm32f4xx_hal_nor.c ****   
 196:./Libraries/STM32F4xx_HAL_Driver/Src/stm32f4xx_hal_nor.c ****   /* Initialize NOR control Interface */
 197:./Libraries/STM32F4xx_HAL_Driver/Src/stm32f4xx_hal_nor.c ****   FMC_NORSRAM_Init(hnor->Instance, &(hnor->Init));
  76              		.loc 1 197 3
  77 0030 FB68     		ldr	r3, [r7, #12]
  78 0032 1A68     		ldr	r2, [r3]
  79 0034 FB68     		ldr	r3, [r7, #12]
  80 0036 0833     		adds	r3, r3, #8
  81 0038 1946     		mov	r1, r3
  82 003a 1046     		mov	r0, r2
  83 003c FFF7FEFF 		bl	FMC_NORSRAM_Init
 198:./Libraries/STM32F4xx_HAL_Driver/Src/stm32f4xx_hal_nor.c **** 
 199:./Libraries/STM32F4xx_HAL_Driver/Src/stm32f4xx_hal_nor.c ****   /* Initialize NOR timing Interface */
 200:./Libraries/STM32F4xx_HAL_Driver/Src/stm32f4xx_hal_nor.c ****   FMC_NORSRAM_Timing_Init(hnor->Instance, Timing, hnor->Init.NSBank); 
  84              		.loc 1 200 3
  85 0040 FB68     		ldr	r3, [r7, #12]
  86 0042 1868     		ldr	r0, [r3]
  87 0044 FB68     		ldr	r3, [r7, #12]
  88 0046 9B68     		ldr	r3, [r3, #8]
ARM GAS  /tmp/ccscUl47.s 			page 6


  89 0048 1A46     		mov	r2, r3
  90 004a B968     		ldr	r1, [r7, #8]
  91 004c FFF7FEFF 		bl	FMC_NORSRAM_Timing_Init
 201:./Libraries/STM32F4xx_HAL_Driver/Src/stm32f4xx_hal_nor.c **** 
 202:./Libraries/STM32F4xx_HAL_Driver/Src/stm32f4xx_hal_nor.c ****   /* Initialize NOR extended mode timing Interface */
 203:./Libraries/STM32F4xx_HAL_Driver/Src/stm32f4xx_hal_nor.c ****   FMC_NORSRAM_Extended_Timing_Init(hnor->Extended, ExtTiming, hnor->Init.NSBank, hnor->Init.Extende
  92              		.loc 1 203 3
  93 0050 FB68     		ldr	r3, [r7, #12]
  94 0052 5868     		ldr	r0, [r3, #4]
  95 0054 FB68     		ldr	r3, [r7, #12]
  96 0056 9A68     		ldr	r2, [r3, #8]
  97 0058 FB68     		ldr	r3, [r7, #12]
  98 005a 1B6B     		ldr	r3, [r3, #48]
  99 005c 7968     		ldr	r1, [r7, #4]
 100 005e FFF7FEFF 		bl	FMC_NORSRAM_Extended_Timing_Init
 204:./Libraries/STM32F4xx_HAL_Driver/Src/stm32f4xx_hal_nor.c **** 
 205:./Libraries/STM32F4xx_HAL_Driver/Src/stm32f4xx_hal_nor.c ****   /* Enable the NORSRAM device */
 206:./Libraries/STM32F4xx_HAL_Driver/Src/stm32f4xx_hal_nor.c ****   __FMC_NORSRAM_ENABLE(hnor->Instance, hnor->Init.NSBank);
 101              		.loc 1 206 3
 102 0062 FB68     		ldr	r3, [r7, #12]
 103 0064 1B68     		ldr	r3, [r3]
 104 0066 FA68     		ldr	r2, [r7, #12]
 105 0068 9268     		ldr	r2, [r2, #8]
 106 006a 53F82210 		ldr	r1, [r3, r2, lsl #2]
 107 006e FB68     		ldr	r3, [r7, #12]
 108 0070 1B68     		ldr	r3, [r3]
 109 0072 FA68     		ldr	r2, [r7, #12]
 110 0074 9268     		ldr	r2, [r2, #8]
 111 0076 41F00101 		orr	r1, r1, #1
 112 007a 43F82210 		str	r1, [r3, r2, lsl #2]
 207:./Libraries/STM32F4xx_HAL_Driver/Src/stm32f4xx_hal_nor.c **** 
 208:./Libraries/STM32F4xx_HAL_Driver/Src/stm32f4xx_hal_nor.c ****   /* Initialize NOR Memory Data Width*/
 209:./Libraries/STM32F4xx_HAL_Driver/Src/stm32f4xx_hal_nor.c ****   if (hnor->Init.MemoryDataWidth == FMC_NORSRAM_MEM_BUS_WIDTH_8)
 113              		.loc 1 209 17
 114 007e FB68     		ldr	r3, [r7, #12]
 115 0080 5B69     		ldr	r3, [r3, #20]
 116              		.loc 1 209 6
 117 0082 002B     		cmp	r3, #0
 118 0084 03D1     		bne	.L5
 210:./Libraries/STM32F4xx_HAL_Driver/Src/stm32f4xx_hal_nor.c ****   {
 211:./Libraries/STM32F4xx_HAL_Driver/Src/stm32f4xx_hal_nor.c ****     uwNORMemoryDataWidth = NOR_MEMORY_8B;
 119              		.loc 1 211 26
 120 0086 084B     		ldr	r3, .L7
 121 0088 0022     		movs	r2, #0
 122 008a 1A60     		str	r2, [r3]
 123 008c 02E0     		b	.L6
 124              	.L5:
 212:./Libraries/STM32F4xx_HAL_Driver/Src/stm32f4xx_hal_nor.c ****   }
 213:./Libraries/STM32F4xx_HAL_Driver/Src/stm32f4xx_hal_nor.c ****   else
 214:./Libraries/STM32F4xx_HAL_Driver/Src/stm32f4xx_hal_nor.c ****   {
 215:./Libraries/STM32F4xx_HAL_Driver/Src/stm32f4xx_hal_nor.c ****     uwNORMemoryDataWidth = NOR_MEMORY_16B;
 125              		.loc 1 215 26
 126 008e 064B     		ldr	r3, .L7
 127 0090 0122     		movs	r2, #1
 128 0092 1A60     		str	r2, [r3]
 129              	.L6:
 216:./Libraries/STM32F4xx_HAL_Driver/Src/stm32f4xx_hal_nor.c ****   }
ARM GAS  /tmp/ccscUl47.s 			page 7


 217:./Libraries/STM32F4xx_HAL_Driver/Src/stm32f4xx_hal_nor.c **** 
 218:./Libraries/STM32F4xx_HAL_Driver/Src/stm32f4xx_hal_nor.c ****   /* Check the NOR controller state */
 219:./Libraries/STM32F4xx_HAL_Driver/Src/stm32f4xx_hal_nor.c ****   hnor->State = HAL_NOR_STATE_READY; 
 130              		.loc 1 219 15
 131 0094 FB68     		ldr	r3, [r7, #12]
 132 0096 0122     		movs	r2, #1
 133 0098 83F84920 		strb	r2, [r3, #73]
 220:./Libraries/STM32F4xx_HAL_Driver/Src/stm32f4xx_hal_nor.c ****   
 221:./Libraries/STM32F4xx_HAL_Driver/Src/stm32f4xx_hal_nor.c ****   return HAL_OK;
 134              		.loc 1 221 10
 135 009c 0023     		movs	r3, #0
 136              	.L3:
 222:./Libraries/STM32F4xx_HAL_Driver/Src/stm32f4xx_hal_nor.c **** }
 137              		.loc 1 222 1
 138 009e 1846     		mov	r0, r3
 139 00a0 1037     		adds	r7, r7, #16
 140              	.LCFI3:
 141              		.cfi_def_cfa_offset 8
 142 00a2 BD46     		mov	sp, r7
 143              	.LCFI4:
 144              		.cfi_def_cfa_register 13
 145              		@ sp needed
 146 00a4 80BD     		pop	{r7, pc}
 147              	.L8:
 148 00a6 00BF     		.align	2
 149              	.L7:
 150 00a8 00000000 		.word	uwNORMemoryDataWidth
 151              		.cfi_endproc
 152              	.LFE126:
 154              		.section	.text.HAL_NOR_DeInit,"ax",%progbits
 155              		.align	1
 156              		.global	HAL_NOR_DeInit
 157              		.syntax unified
 158              		.thumb
 159              		.thumb_func
 160              		.fpu fpv4-sp-d16
 162              	HAL_NOR_DeInit:
 163              	.LFB127:
 223:./Libraries/STM32F4xx_HAL_Driver/Src/stm32f4xx_hal_nor.c **** 
 224:./Libraries/STM32F4xx_HAL_Driver/Src/stm32f4xx_hal_nor.c **** /**
 225:./Libraries/STM32F4xx_HAL_Driver/Src/stm32f4xx_hal_nor.c ****   * @brief  Perform NOR memory De-Initialization sequence
 226:./Libraries/STM32F4xx_HAL_Driver/Src/stm32f4xx_hal_nor.c ****   * @param  hnor pointer to a NOR_HandleTypeDef structure that contains
 227:./Libraries/STM32F4xx_HAL_Driver/Src/stm32f4xx_hal_nor.c ****   *                the configuration information for NOR module.
 228:./Libraries/STM32F4xx_HAL_Driver/Src/stm32f4xx_hal_nor.c ****   * @retval HAL status
 229:./Libraries/STM32F4xx_HAL_Driver/Src/stm32f4xx_hal_nor.c ****   */
 230:./Libraries/STM32F4xx_HAL_Driver/Src/stm32f4xx_hal_nor.c **** HAL_StatusTypeDef HAL_NOR_DeInit(NOR_HandleTypeDef *hnor)  
 231:./Libraries/STM32F4xx_HAL_Driver/Src/stm32f4xx_hal_nor.c **** {
 164              		.loc 1 231 1
 165              		.cfi_startproc
 166              		@ args = 0, pretend = 0, frame = 8
 167              		@ frame_needed = 1, uses_anonymous_args = 0
 168 0000 80B5     		push	{r7, lr}
 169              	.LCFI5:
 170              		.cfi_def_cfa_offset 8
 171              		.cfi_offset 7, -8
 172              		.cfi_offset 14, -4
 173 0002 82B0     		sub	sp, sp, #8
ARM GAS  /tmp/ccscUl47.s 			page 8


 174              	.LCFI6:
 175              		.cfi_def_cfa_offset 16
 176 0004 00AF     		add	r7, sp, #0
 177              	.LCFI7:
 178              		.cfi_def_cfa_register 7
 179 0006 7860     		str	r0, [r7, #4]
 232:./Libraries/STM32F4xx_HAL_Driver/Src/stm32f4xx_hal_nor.c ****   /* De-Initialize the low level hardware (MSP) */
 233:./Libraries/STM32F4xx_HAL_Driver/Src/stm32f4xx_hal_nor.c ****   HAL_NOR_MspDeInit(hnor);
 180              		.loc 1 233 3
 181 0008 7868     		ldr	r0, [r7, #4]
 182 000a FFF7FEFF 		bl	HAL_NOR_MspDeInit
 234:./Libraries/STM32F4xx_HAL_Driver/Src/stm32f4xx_hal_nor.c ****  
 235:./Libraries/STM32F4xx_HAL_Driver/Src/stm32f4xx_hal_nor.c ****   /* Configure the NOR registers with their reset values */
 236:./Libraries/STM32F4xx_HAL_Driver/Src/stm32f4xx_hal_nor.c ****   FMC_NORSRAM_DeInit(hnor->Instance, hnor->Extended, hnor->Init.NSBank);
 183              		.loc 1 236 3
 184 000e 7B68     		ldr	r3, [r7, #4]
 185 0010 1868     		ldr	r0, [r3]
 186 0012 7B68     		ldr	r3, [r7, #4]
 187 0014 5968     		ldr	r1, [r3, #4]
 188 0016 7B68     		ldr	r3, [r7, #4]
 189 0018 9B68     		ldr	r3, [r3, #8]
 190 001a 1A46     		mov	r2, r3
 191 001c FFF7FEFF 		bl	FMC_NORSRAM_DeInit
 237:./Libraries/STM32F4xx_HAL_Driver/Src/stm32f4xx_hal_nor.c ****   
 238:./Libraries/STM32F4xx_HAL_Driver/Src/stm32f4xx_hal_nor.c ****   /* Update the NOR controller state */
 239:./Libraries/STM32F4xx_HAL_Driver/Src/stm32f4xx_hal_nor.c ****   hnor->State = HAL_NOR_STATE_RESET;
 192              		.loc 1 239 15
 193 0020 7B68     		ldr	r3, [r7, #4]
 194 0022 0022     		movs	r2, #0
 195 0024 83F84920 		strb	r2, [r3, #73]
 240:./Libraries/STM32F4xx_HAL_Driver/Src/stm32f4xx_hal_nor.c **** 
 241:./Libraries/STM32F4xx_HAL_Driver/Src/stm32f4xx_hal_nor.c ****   /* Release Lock */
 242:./Libraries/STM32F4xx_HAL_Driver/Src/stm32f4xx_hal_nor.c ****   __HAL_UNLOCK(hnor);
 196              		.loc 1 242 3
 197 0028 7B68     		ldr	r3, [r7, #4]
 198 002a 0022     		movs	r2, #0
 199 002c 83F84820 		strb	r2, [r3, #72]
 243:./Libraries/STM32F4xx_HAL_Driver/Src/stm32f4xx_hal_nor.c **** 
 244:./Libraries/STM32F4xx_HAL_Driver/Src/stm32f4xx_hal_nor.c ****   return HAL_OK;
 200              		.loc 1 244 10
 201 0030 0023     		movs	r3, #0
 245:./Libraries/STM32F4xx_HAL_Driver/Src/stm32f4xx_hal_nor.c **** }
 202              		.loc 1 245 1
 203 0032 1846     		mov	r0, r3
 204 0034 0837     		adds	r7, r7, #8
 205              	.LCFI8:
 206              		.cfi_def_cfa_offset 8
 207 0036 BD46     		mov	sp, r7
 208              	.LCFI9:
 209              		.cfi_def_cfa_register 13
 210              		@ sp needed
 211 0038 80BD     		pop	{r7, pc}
 212              		.cfi_endproc
 213              	.LFE127:
 215              		.section	.text.HAL_NOR_MspInit,"ax",%progbits
 216              		.align	1
 217              		.weak	HAL_NOR_MspInit
ARM GAS  /tmp/ccscUl47.s 			page 9


 218              		.syntax unified
 219              		.thumb
 220              		.thumb_func
 221              		.fpu fpv4-sp-d16
 223              	HAL_NOR_MspInit:
 224              	.LFB128:
 246:./Libraries/STM32F4xx_HAL_Driver/Src/stm32f4xx_hal_nor.c **** 
 247:./Libraries/STM32F4xx_HAL_Driver/Src/stm32f4xx_hal_nor.c **** /**
 248:./Libraries/STM32F4xx_HAL_Driver/Src/stm32f4xx_hal_nor.c ****   * @brief  NOR MSP Init
 249:./Libraries/STM32F4xx_HAL_Driver/Src/stm32f4xx_hal_nor.c ****   * @param  hnor pointer to a NOR_HandleTypeDef structure that contains
 250:./Libraries/STM32F4xx_HAL_Driver/Src/stm32f4xx_hal_nor.c ****   *                the configuration information for NOR module.
 251:./Libraries/STM32F4xx_HAL_Driver/Src/stm32f4xx_hal_nor.c ****   * @retval None
 252:./Libraries/STM32F4xx_HAL_Driver/Src/stm32f4xx_hal_nor.c ****   */
 253:./Libraries/STM32F4xx_HAL_Driver/Src/stm32f4xx_hal_nor.c **** __weak void HAL_NOR_MspInit(NOR_HandleTypeDef *hnor)
 254:./Libraries/STM32F4xx_HAL_Driver/Src/stm32f4xx_hal_nor.c **** {
 225              		.loc 1 254 1
 226              		.cfi_startproc
 227              		@ args = 0, pretend = 0, frame = 8
 228              		@ frame_needed = 1, uses_anonymous_args = 0
 229              		@ link register save eliminated.
 230 0000 80B4     		push	{r7}
 231              	.LCFI10:
 232              		.cfi_def_cfa_offset 4
 233              		.cfi_offset 7, -4
 234 0002 83B0     		sub	sp, sp, #12
 235              	.LCFI11:
 236              		.cfi_def_cfa_offset 16
 237 0004 00AF     		add	r7, sp, #0
 238              	.LCFI12:
 239              		.cfi_def_cfa_register 7
 240 0006 7860     		str	r0, [r7, #4]
 255:./Libraries/STM32F4xx_HAL_Driver/Src/stm32f4xx_hal_nor.c ****   /* Prevent unused argument(s) compilation warning */
 256:./Libraries/STM32F4xx_HAL_Driver/Src/stm32f4xx_hal_nor.c ****   UNUSED(hnor);
 257:./Libraries/STM32F4xx_HAL_Driver/Src/stm32f4xx_hal_nor.c ****   /* NOTE : This function Should not be modified, when the callback is needed,
 258:./Libraries/STM32F4xx_HAL_Driver/Src/stm32f4xx_hal_nor.c ****             the HAL_NOR_MspInit could be implemented in the user file
 259:./Libraries/STM32F4xx_HAL_Driver/Src/stm32f4xx_hal_nor.c ****    */ 
 260:./Libraries/STM32F4xx_HAL_Driver/Src/stm32f4xx_hal_nor.c **** }
 241              		.loc 1 260 1
 242 0008 00BF     		nop
 243 000a 0C37     		adds	r7, r7, #12
 244              	.LCFI13:
 245              		.cfi_def_cfa_offset 4
 246 000c BD46     		mov	sp, r7
 247              	.LCFI14:
 248              		.cfi_def_cfa_register 13
 249              		@ sp needed
 250 000e 5DF8047B 		ldr	r7, [sp], #4
 251              	.LCFI15:
 252              		.cfi_restore 7
 253              		.cfi_def_cfa_offset 0
 254 0012 7047     		bx	lr
 255              		.cfi_endproc
 256              	.LFE128:
 258              		.section	.text.HAL_NOR_MspDeInit,"ax",%progbits
 259              		.align	1
 260              		.weak	HAL_NOR_MspDeInit
 261              		.syntax unified
ARM GAS  /tmp/ccscUl47.s 			page 10


 262              		.thumb
 263              		.thumb_func
 264              		.fpu fpv4-sp-d16
 266              	HAL_NOR_MspDeInit:
 267              	.LFB129:
 261:./Libraries/STM32F4xx_HAL_Driver/Src/stm32f4xx_hal_nor.c **** 
 262:./Libraries/STM32F4xx_HAL_Driver/Src/stm32f4xx_hal_nor.c **** /**
 263:./Libraries/STM32F4xx_HAL_Driver/Src/stm32f4xx_hal_nor.c ****   * @brief  NOR MSP DeInit
 264:./Libraries/STM32F4xx_HAL_Driver/Src/stm32f4xx_hal_nor.c ****   * @param  hnor pointer to a NOR_HandleTypeDef structure that contains
 265:./Libraries/STM32F4xx_HAL_Driver/Src/stm32f4xx_hal_nor.c ****   *                the configuration information for NOR module.
 266:./Libraries/STM32F4xx_HAL_Driver/Src/stm32f4xx_hal_nor.c ****   * @retval None
 267:./Libraries/STM32F4xx_HAL_Driver/Src/stm32f4xx_hal_nor.c ****   */
 268:./Libraries/STM32F4xx_HAL_Driver/Src/stm32f4xx_hal_nor.c **** __weak void HAL_NOR_MspDeInit(NOR_HandleTypeDef *hnor)
 269:./Libraries/STM32F4xx_HAL_Driver/Src/stm32f4xx_hal_nor.c **** {
 268              		.loc 1 269 1
 269              		.cfi_startproc
 270              		@ args = 0, pretend = 0, frame = 8
 271              		@ frame_needed = 1, uses_anonymous_args = 0
 272              		@ link register save eliminated.
 273 0000 80B4     		push	{r7}
 274              	.LCFI16:
 275              		.cfi_def_cfa_offset 4
 276              		.cfi_offset 7, -4
 277 0002 83B0     		sub	sp, sp, #12
 278              	.LCFI17:
 279              		.cfi_def_cfa_offset 16
 280 0004 00AF     		add	r7, sp, #0
 281              	.LCFI18:
 282              		.cfi_def_cfa_register 7
 283 0006 7860     		str	r0, [r7, #4]
 270:./Libraries/STM32F4xx_HAL_Driver/Src/stm32f4xx_hal_nor.c ****   /* Prevent unused argument(s) compilation warning */
 271:./Libraries/STM32F4xx_HAL_Driver/Src/stm32f4xx_hal_nor.c ****   UNUSED(hnor);
 272:./Libraries/STM32F4xx_HAL_Driver/Src/stm32f4xx_hal_nor.c ****   /* NOTE : This function Should not be modified, when the callback is needed,
 273:./Libraries/STM32F4xx_HAL_Driver/Src/stm32f4xx_hal_nor.c ****             the HAL_NOR_MspDeInit could be implemented in the user file
 274:./Libraries/STM32F4xx_HAL_Driver/Src/stm32f4xx_hal_nor.c ****    */ 
 275:./Libraries/STM32F4xx_HAL_Driver/Src/stm32f4xx_hal_nor.c **** }
 284              		.loc 1 275 1
 285 0008 00BF     		nop
 286 000a 0C37     		adds	r7, r7, #12
 287              	.LCFI19:
 288              		.cfi_def_cfa_offset 4
 289 000c BD46     		mov	sp, r7
 290              	.LCFI20:
 291              		.cfi_def_cfa_register 13
 292              		@ sp needed
 293 000e 5DF8047B 		ldr	r7, [sp], #4
 294              	.LCFI21:
 295              		.cfi_restore 7
 296              		.cfi_def_cfa_offset 0
 297 0012 7047     		bx	lr
 298              		.cfi_endproc
 299              	.LFE129:
 301              		.section	.text.HAL_NOR_MspWait,"ax",%progbits
 302              		.align	1
 303              		.weak	HAL_NOR_MspWait
 304              		.syntax unified
 305              		.thumb
ARM GAS  /tmp/ccscUl47.s 			page 11


 306              		.thumb_func
 307              		.fpu fpv4-sp-d16
 309              	HAL_NOR_MspWait:
 310              	.LFB130:
 276:./Libraries/STM32F4xx_HAL_Driver/Src/stm32f4xx_hal_nor.c **** 
 277:./Libraries/STM32F4xx_HAL_Driver/Src/stm32f4xx_hal_nor.c **** /**
 278:./Libraries/STM32F4xx_HAL_Driver/Src/stm32f4xx_hal_nor.c ****   * @brief  NOR MSP Wait for Ready/Busy signal
 279:./Libraries/STM32F4xx_HAL_Driver/Src/stm32f4xx_hal_nor.c ****   * @param  hnor pointer to a NOR_HandleTypeDef structure that contains
 280:./Libraries/STM32F4xx_HAL_Driver/Src/stm32f4xx_hal_nor.c ****   *                the configuration information for NOR module.
 281:./Libraries/STM32F4xx_HAL_Driver/Src/stm32f4xx_hal_nor.c ****   * @param  Timeout Maximum timeout value
 282:./Libraries/STM32F4xx_HAL_Driver/Src/stm32f4xx_hal_nor.c ****   * @retval None
 283:./Libraries/STM32F4xx_HAL_Driver/Src/stm32f4xx_hal_nor.c ****   */
 284:./Libraries/STM32F4xx_HAL_Driver/Src/stm32f4xx_hal_nor.c **** __weak void HAL_NOR_MspWait(NOR_HandleTypeDef *hnor, uint32_t Timeout)
 285:./Libraries/STM32F4xx_HAL_Driver/Src/stm32f4xx_hal_nor.c **** {
 311              		.loc 1 285 1
 312              		.cfi_startproc
 313              		@ args = 0, pretend = 0, frame = 8
 314              		@ frame_needed = 1, uses_anonymous_args = 0
 315              		@ link register save eliminated.
 316 0000 80B4     		push	{r7}
 317              	.LCFI22:
 318              		.cfi_def_cfa_offset 4
 319              		.cfi_offset 7, -4
 320 0002 83B0     		sub	sp, sp, #12
 321              	.LCFI23:
 322              		.cfi_def_cfa_offset 16
 323 0004 00AF     		add	r7, sp, #0
 324              	.LCFI24:
 325              		.cfi_def_cfa_register 7
 326 0006 7860     		str	r0, [r7, #4]
 327 0008 3960     		str	r1, [r7]
 286:./Libraries/STM32F4xx_HAL_Driver/Src/stm32f4xx_hal_nor.c ****   /* Prevent unused argument(s) compilation warning */
 287:./Libraries/STM32F4xx_HAL_Driver/Src/stm32f4xx_hal_nor.c ****   UNUSED(hnor);
 288:./Libraries/STM32F4xx_HAL_Driver/Src/stm32f4xx_hal_nor.c ****   UNUSED(Timeout);
 289:./Libraries/STM32F4xx_HAL_Driver/Src/stm32f4xx_hal_nor.c ****   
 290:./Libraries/STM32F4xx_HAL_Driver/Src/stm32f4xx_hal_nor.c ****   /* NOTE : This function Should not be modified, when the callback is needed,
 291:./Libraries/STM32F4xx_HAL_Driver/Src/stm32f4xx_hal_nor.c ****             the HAL_NOR_MspWait could be implemented in the user file
 292:./Libraries/STM32F4xx_HAL_Driver/Src/stm32f4xx_hal_nor.c ****    */ 
 293:./Libraries/STM32F4xx_HAL_Driver/Src/stm32f4xx_hal_nor.c **** }
 328              		.loc 1 293 1
 329 000a 00BF     		nop
 330 000c 0C37     		adds	r7, r7, #12
 331              	.LCFI25:
 332              		.cfi_def_cfa_offset 4
 333 000e BD46     		mov	sp, r7
 334              	.LCFI26:
 335              		.cfi_def_cfa_register 13
 336              		@ sp needed
 337 0010 5DF8047B 		ldr	r7, [sp], #4
 338              	.LCFI27:
 339              		.cfi_restore 7
 340              		.cfi_def_cfa_offset 0
 341 0014 7047     		bx	lr
 342              		.cfi_endproc
 343              	.LFE130:
 345              		.section	.text.HAL_NOR_Read_ID,"ax",%progbits
 346              		.align	1
ARM GAS  /tmp/ccscUl47.s 			page 12


 347              		.global	HAL_NOR_Read_ID
 348              		.syntax unified
 349              		.thumb
 350              		.thumb_func
 351              		.fpu fpv4-sp-d16
 353              	HAL_NOR_Read_ID:
 354              	.LFB131:
 294:./Libraries/STM32F4xx_HAL_Driver/Src/stm32f4xx_hal_nor.c ****   
 295:./Libraries/STM32F4xx_HAL_Driver/Src/stm32f4xx_hal_nor.c **** /**
 296:./Libraries/STM32F4xx_HAL_Driver/Src/stm32f4xx_hal_nor.c ****   * @}
 297:./Libraries/STM32F4xx_HAL_Driver/Src/stm32f4xx_hal_nor.c ****   */
 298:./Libraries/STM32F4xx_HAL_Driver/Src/stm32f4xx_hal_nor.c **** 
 299:./Libraries/STM32F4xx_HAL_Driver/Src/stm32f4xx_hal_nor.c **** /** @defgroup NOR_Exported_Functions_Group2 Input and Output functions 
 300:./Libraries/STM32F4xx_HAL_Driver/Src/stm32f4xx_hal_nor.c ****   * @brief    Input Output and memory control functions 
 301:./Libraries/STM32F4xx_HAL_Driver/Src/stm32f4xx_hal_nor.c ****   *
 302:./Libraries/STM32F4xx_HAL_Driver/Src/stm32f4xx_hal_nor.c ****   @verbatim    
 303:./Libraries/STM32F4xx_HAL_Driver/Src/stm32f4xx_hal_nor.c ****   ==============================================================================
 304:./Libraries/STM32F4xx_HAL_Driver/Src/stm32f4xx_hal_nor.c ****                 ##### NOR Input and Output functions #####
 305:./Libraries/STM32F4xx_HAL_Driver/Src/stm32f4xx_hal_nor.c ****   ==============================================================================
 306:./Libraries/STM32F4xx_HAL_Driver/Src/stm32f4xx_hal_nor.c ****   [..]  
 307:./Libraries/STM32F4xx_HAL_Driver/Src/stm32f4xx_hal_nor.c ****     This section provides functions allowing to use and control the NOR memory
 308:./Libraries/STM32F4xx_HAL_Driver/Src/stm32f4xx_hal_nor.c ****   
 309:./Libraries/STM32F4xx_HAL_Driver/Src/stm32f4xx_hal_nor.c **** @endverbatim
 310:./Libraries/STM32F4xx_HAL_Driver/Src/stm32f4xx_hal_nor.c ****   * @{
 311:./Libraries/STM32F4xx_HAL_Driver/Src/stm32f4xx_hal_nor.c ****   */
 312:./Libraries/STM32F4xx_HAL_Driver/Src/stm32f4xx_hal_nor.c ****   
 313:./Libraries/STM32F4xx_HAL_Driver/Src/stm32f4xx_hal_nor.c **** /**
 314:./Libraries/STM32F4xx_HAL_Driver/Src/stm32f4xx_hal_nor.c ****   * @brief  Read NOR flash IDs
 315:./Libraries/STM32F4xx_HAL_Driver/Src/stm32f4xx_hal_nor.c ****   * @param  hnor pointer to a NOR_HandleTypeDef structure that contains
 316:./Libraries/STM32F4xx_HAL_Driver/Src/stm32f4xx_hal_nor.c ****   *                the configuration information for NOR module.
 317:./Libraries/STM32F4xx_HAL_Driver/Src/stm32f4xx_hal_nor.c ****   * @param  pNOR_ID  pointer to NOR ID structure
 318:./Libraries/STM32F4xx_HAL_Driver/Src/stm32f4xx_hal_nor.c ****   * @retval HAL status
 319:./Libraries/STM32F4xx_HAL_Driver/Src/stm32f4xx_hal_nor.c ****   */
 320:./Libraries/STM32F4xx_HAL_Driver/Src/stm32f4xx_hal_nor.c **** HAL_StatusTypeDef HAL_NOR_Read_ID(NOR_HandleTypeDef *hnor, NOR_IDTypeDef *pNOR_ID)
 321:./Libraries/STM32F4xx_HAL_Driver/Src/stm32f4xx_hal_nor.c **** {
 355              		.loc 1 321 1
 356              		.cfi_startproc
 357              		@ args = 0, pretend = 0, frame = 16
 358              		@ frame_needed = 1, uses_anonymous_args = 0
 359              		@ link register save eliminated.
 360 0000 80B4     		push	{r7}
 361              	.LCFI28:
 362              		.cfi_def_cfa_offset 4
 363              		.cfi_offset 7, -4
 364 0002 85B0     		sub	sp, sp, #20
 365              	.LCFI29:
 366              		.cfi_def_cfa_offset 24
 367 0004 00AF     		add	r7, sp, #0
 368              	.LCFI30:
 369              		.cfi_def_cfa_register 7
 370 0006 7860     		str	r0, [r7, #4]
 371 0008 3960     		str	r1, [r7]
 322:./Libraries/STM32F4xx_HAL_Driver/Src/stm32f4xx_hal_nor.c ****   uint32_t deviceaddress = 0U;
 372              		.loc 1 322 12
 373 000a 0023     		movs	r3, #0
 374 000c FB60     		str	r3, [r7, #12]
 323:./Libraries/STM32F4xx_HAL_Driver/Src/stm32f4xx_hal_nor.c ****   
ARM GAS  /tmp/ccscUl47.s 			page 13


 324:./Libraries/STM32F4xx_HAL_Driver/Src/stm32f4xx_hal_nor.c ****   /* Process Locked */
 325:./Libraries/STM32F4xx_HAL_Driver/Src/stm32f4xx_hal_nor.c ****   __HAL_LOCK(hnor);
 375              		.loc 1 325 3
 376 000e 7B68     		ldr	r3, [r7, #4]
 377 0010 93F84830 		ldrb	r3, [r3, #72]	@ zero_extendqisi2
 378 0014 012B     		cmp	r3, #1
 379 0016 01D1     		bne	.L15
 380              		.loc 1 325 3 is_stmt 0 discriminator 1
 381 0018 0223     		movs	r3, #2
 382 001a 86E0     		b	.L16
 383              	.L15:
 384              		.loc 1 325 3 discriminator 2
 385 001c 7B68     		ldr	r3, [r7, #4]
 386 001e 0122     		movs	r2, #1
 387 0020 83F84820 		strb	r2, [r3, #72]
 326:./Libraries/STM32F4xx_HAL_Driver/Src/stm32f4xx_hal_nor.c ****   
 327:./Libraries/STM32F4xx_HAL_Driver/Src/stm32f4xx_hal_nor.c ****   /* Check the NOR controller state */
 328:./Libraries/STM32F4xx_HAL_Driver/Src/stm32f4xx_hal_nor.c ****   if(hnor->State == HAL_NOR_STATE_BUSY)
 388              		.loc 1 328 10 is_stmt 1 discriminator 2
 389 0024 7B68     		ldr	r3, [r7, #4]
 390 0026 93F84930 		ldrb	r3, [r3, #73]
 391 002a DBB2     		uxtb	r3, r3
 392              		.loc 1 328 5 discriminator 2
 393 002c 022B     		cmp	r3, #2
 394 002e 01D1     		bne	.L17
 329:./Libraries/STM32F4xx_HAL_Driver/Src/stm32f4xx_hal_nor.c ****   {
 330:./Libraries/STM32F4xx_HAL_Driver/Src/stm32f4xx_hal_nor.c ****      return HAL_BUSY;
 395              		.loc 1 330 13
 396 0030 0223     		movs	r3, #2
 397 0032 7AE0     		b	.L16
 398              	.L17:
 331:./Libraries/STM32F4xx_HAL_Driver/Src/stm32f4xx_hal_nor.c ****   }
 332:./Libraries/STM32F4xx_HAL_Driver/Src/stm32f4xx_hal_nor.c ****   
 333:./Libraries/STM32F4xx_HAL_Driver/Src/stm32f4xx_hal_nor.c ****   /* Select the NOR device address */
 334:./Libraries/STM32F4xx_HAL_Driver/Src/stm32f4xx_hal_nor.c ****   if (hnor->Init.NSBank == FMC_NORSRAM_BANK1)
 399              		.loc 1 334 17
 400 0034 7B68     		ldr	r3, [r7, #4]
 401 0036 9B68     		ldr	r3, [r3, #8]
 402              		.loc 1 334 6
 403 0038 002B     		cmp	r3, #0
 404 003a 03D1     		bne	.L18
 335:./Libraries/STM32F4xx_HAL_Driver/Src/stm32f4xx_hal_nor.c ****   {
 336:./Libraries/STM32F4xx_HAL_Driver/Src/stm32f4xx_hal_nor.c ****     deviceaddress = NOR_MEMORY_ADRESS1;
 405              		.loc 1 336 19
 406 003c 4FF0C043 		mov	r3, #1610612736
 407 0040 FB60     		str	r3, [r7, #12]
 408 0042 12E0     		b	.L19
 409              	.L18:
 337:./Libraries/STM32F4xx_HAL_Driver/Src/stm32f4xx_hal_nor.c ****   }
 338:./Libraries/STM32F4xx_HAL_Driver/Src/stm32f4xx_hal_nor.c ****   else if (hnor->Init.NSBank == FMC_NORSRAM_BANK2)
 410              		.loc 1 338 22
 411 0044 7B68     		ldr	r3, [r7, #4]
 412 0046 9B68     		ldr	r3, [r3, #8]
 413              		.loc 1 338 11
 414 0048 022B     		cmp	r3, #2
 415 004a 03D1     		bne	.L20
 339:./Libraries/STM32F4xx_HAL_Driver/Src/stm32f4xx_hal_nor.c ****   {
ARM GAS  /tmp/ccscUl47.s 			page 14


 340:./Libraries/STM32F4xx_HAL_Driver/Src/stm32f4xx_hal_nor.c ****     deviceaddress = NOR_MEMORY_ADRESS2;
 416              		.loc 1 340 19
 417 004c 4FF0C843 		mov	r3, #1677721600
 418 0050 FB60     		str	r3, [r7, #12]
 419 0052 0AE0     		b	.L19
 420              	.L20:
 341:./Libraries/STM32F4xx_HAL_Driver/Src/stm32f4xx_hal_nor.c ****   }
 342:./Libraries/STM32F4xx_HAL_Driver/Src/stm32f4xx_hal_nor.c ****   else if (hnor->Init.NSBank == FMC_NORSRAM_BANK3)
 421              		.loc 1 342 22
 422 0054 7B68     		ldr	r3, [r7, #4]
 423 0056 9B68     		ldr	r3, [r3, #8]
 424              		.loc 1 342 11
 425 0058 042B     		cmp	r3, #4
 426 005a 03D1     		bne	.L21
 343:./Libraries/STM32F4xx_HAL_Driver/Src/stm32f4xx_hal_nor.c ****   {
 344:./Libraries/STM32F4xx_HAL_Driver/Src/stm32f4xx_hal_nor.c ****     deviceaddress = NOR_MEMORY_ADRESS3;
 427              		.loc 1 344 19
 428 005c 4FF0D043 		mov	r3, #1744830464
 429 0060 FB60     		str	r3, [r7, #12]
 430 0062 02E0     		b	.L19
 431              	.L21:
 345:./Libraries/STM32F4xx_HAL_Driver/Src/stm32f4xx_hal_nor.c ****   }
 346:./Libraries/STM32F4xx_HAL_Driver/Src/stm32f4xx_hal_nor.c ****   else /* FMC_NORSRAM_BANK4 */
 347:./Libraries/STM32F4xx_HAL_Driver/Src/stm32f4xx_hal_nor.c ****   {
 348:./Libraries/STM32F4xx_HAL_Driver/Src/stm32f4xx_hal_nor.c ****     deviceaddress = NOR_MEMORY_ADRESS4;
 432              		.loc 1 348 19
 433 0064 4FF0D843 		mov	r3, #1811939328
 434 0068 FB60     		str	r3, [r7, #12]
 435              	.L19:
 349:./Libraries/STM32F4xx_HAL_Driver/Src/stm32f4xx_hal_nor.c ****   }  
 350:./Libraries/STM32F4xx_HAL_Driver/Src/stm32f4xx_hal_nor.c ****     
 351:./Libraries/STM32F4xx_HAL_Driver/Src/stm32f4xx_hal_nor.c ****   /* Update the NOR controller state */
 352:./Libraries/STM32F4xx_HAL_Driver/Src/stm32f4xx_hal_nor.c ****   hnor->State = HAL_NOR_STATE_BUSY;
 436              		.loc 1 352 15
 437 006a 7B68     		ldr	r3, [r7, #4]
 438 006c 0222     		movs	r2, #2
 439 006e 83F84920 		strb	r2, [r3, #73]
 353:./Libraries/STM32F4xx_HAL_Driver/Src/stm32f4xx_hal_nor.c ****   
 354:./Libraries/STM32F4xx_HAL_Driver/Src/stm32f4xx_hal_nor.c ****   /* Send read ID command */
 355:./Libraries/STM32F4xx_HAL_Driver/Src/stm32f4xx_hal_nor.c ****   NOR_WRITE(NOR_ADDR_SHIFT(deviceaddress, uwNORMemoryDataWidth, NOR_CMD_ADDRESS_FIRST), NOR_CMD_DAT
 440              		.loc 1 355 3
 441 0072 314B     		ldr	r3, .L34
 442 0074 1B68     		ldr	r3, [r3]
 443 0076 012B     		cmp	r3, #1
 444 0078 03D1     		bne	.L22
 445              		.loc 1 355 3 is_stmt 0 discriminator 1
 446 007a FB68     		ldr	r3, [r7, #12]
 447 007c 03F6AA23 		addw	r3, r3, #2730
 448 0080 02E0     		b	.L23
 449              	.L22:
 450              		.loc 1 355 3 discriminator 2
 451 0082 FB68     		ldr	r3, [r7, #12]
 452 0084 03F25553 		addw	r3, r3, #1365
 453              	.L23:
 454              		.loc 1 355 3 discriminator 4
 455 0088 AA22     		movs	r2, #170
 456 008a 1A80     		strh	r2, [r3]	@ movhi
ARM GAS  /tmp/ccscUl47.s 			page 15


 356:./Libraries/STM32F4xx_HAL_Driver/Src/stm32f4xx_hal_nor.c ****   NOR_WRITE(NOR_ADDR_SHIFT(deviceaddress, uwNORMemoryDataWidth, NOR_CMD_ADDRESS_SECOND), NOR_CMD_DA
 457              		.loc 1 356 3 is_stmt 1 discriminator 4
 458 008c 2A4B     		ldr	r3, .L34
 459 008e 1B68     		ldr	r3, [r3]
 460 0090 012B     		cmp	r3, #1
 461 0092 03D1     		bne	.L24
 462              		.loc 1 356 3 is_stmt 0 discriminator 1
 463 0094 FB68     		ldr	r3, [r7, #12]
 464 0096 03F25453 		addw	r3, r3, #1364
 465 009a 02E0     		b	.L25
 466              	.L24:
 467              		.loc 1 356 3 discriminator 2
 468 009c FB68     		ldr	r3, [r7, #12]
 469 009e 03F2AA23 		addw	r3, r3, #682
 470              	.L25:
 471              		.loc 1 356 3 discriminator 4
 472 00a2 5522     		movs	r2, #85
 473 00a4 1A80     		strh	r2, [r3]	@ movhi
 357:./Libraries/STM32F4xx_HAL_Driver/Src/stm32f4xx_hal_nor.c ****   NOR_WRITE(NOR_ADDR_SHIFT(deviceaddress, uwNORMemoryDataWidth, NOR_CMD_ADDRESS_THIRD), NOR_CMD_DAT
 474              		.loc 1 357 3 is_stmt 1 discriminator 4
 475 00a6 244B     		ldr	r3, .L34
 476 00a8 1B68     		ldr	r3, [r3]
 477 00aa 012B     		cmp	r3, #1
 478 00ac 03D1     		bne	.L26
 479              		.loc 1 357 3 is_stmt 0 discriminator 1
 480 00ae FB68     		ldr	r3, [r7, #12]
 481 00b0 03F6AA23 		addw	r3, r3, #2730
 482 00b4 02E0     		b	.L27
 483              	.L26:
 484              		.loc 1 357 3 discriminator 2
 485 00b6 FB68     		ldr	r3, [r7, #12]
 486 00b8 03F25553 		addw	r3, r3, #1365
 487              	.L27:
 488              		.loc 1 357 3 discriminator 4
 489 00bc 9022     		movs	r2, #144
 490 00be 1A80     		strh	r2, [r3]	@ movhi
 358:./Libraries/STM32F4xx_HAL_Driver/Src/stm32f4xx_hal_nor.c **** 
 359:./Libraries/STM32F4xx_HAL_Driver/Src/stm32f4xx_hal_nor.c ****   /* Read the NOR IDs */
 360:./Libraries/STM32F4xx_HAL_Driver/Src/stm32f4xx_hal_nor.c ****   pNOR_ID->Manufacturer_Code = *(__IO uint16_t *) NOR_ADDR_SHIFT(deviceaddress, uwNORMemoryDataWidt
 491              		.loc 1 360 33 is_stmt 1 discriminator 4
 492 00c0 FB68     		ldr	r3, [r7, #12]
 493              		.loc 1 360 32 discriminator 4
 494 00c2 1B88     		ldrh	r3, [r3]	@ movhi
 495 00c4 9AB2     		uxth	r2, r3
 496              		.loc 1 360 30 discriminator 4
 497 00c6 3B68     		ldr	r3, [r7]
 498 00c8 1A80     		strh	r2, [r3]	@ movhi
 361:./Libraries/STM32F4xx_HAL_Driver/Src/stm32f4xx_hal_nor.c ****   pNOR_ID->Device_Code1      = *(__IO uint16_t *) NOR_ADDR_SHIFT(deviceaddress, uwNORMemoryDataWidt
 499              		.loc 1 361 51 discriminator 4
 500 00ca 1B4B     		ldr	r3, .L34
 501 00cc 1B68     		ldr	r3, [r3]
 502              		.loc 1 361 33 discriminator 4
 503 00ce 012B     		cmp	r3, #1
 504 00d0 02D1     		bne	.L28
 505              		.loc 1 361 33 is_stmt 0 discriminator 1
 506 00d2 FB68     		ldr	r3, [r7, #12]
 507 00d4 0233     		adds	r3, r3, #2
ARM GAS  /tmp/ccscUl47.s 			page 16


 508 00d6 01E0     		b	.L29
 509              	.L28:
 510              		.loc 1 361 33 discriminator 2
 511 00d8 FB68     		ldr	r3, [r7, #12]
 512 00da 0133     		adds	r3, r3, #1
 513              	.L29:
 514              		.loc 1 361 32 is_stmt 1 discriminator 4
 515 00dc 1B88     		ldrh	r3, [r3]	@ movhi
 516 00de 9AB2     		uxth	r2, r3
 517              		.loc 1 361 30 discriminator 4
 518 00e0 3B68     		ldr	r3, [r7]
 519 00e2 5A80     		strh	r2, [r3, #2]	@ movhi
 362:./Libraries/STM32F4xx_HAL_Driver/Src/stm32f4xx_hal_nor.c ****   pNOR_ID->Device_Code2      = *(__IO uint16_t *) NOR_ADDR_SHIFT(deviceaddress, uwNORMemoryDataWidt
 520              		.loc 1 362 51 discriminator 4
 521 00e4 144B     		ldr	r3, .L34
 522 00e6 1B68     		ldr	r3, [r3]
 523              		.loc 1 362 33 discriminator 4
 524 00e8 012B     		cmp	r3, #1
 525 00ea 02D1     		bne	.L30
 526              		.loc 1 362 33 is_stmt 0 discriminator 1
 527 00ec FB68     		ldr	r3, [r7, #12]
 528 00ee 1C33     		adds	r3, r3, #28
 529 00f0 01E0     		b	.L31
 530              	.L30:
 531              		.loc 1 362 33 discriminator 2
 532 00f2 FB68     		ldr	r3, [r7, #12]
 533 00f4 0E33     		adds	r3, r3, #14
 534              	.L31:
 535              		.loc 1 362 32 is_stmt 1 discriminator 4
 536 00f6 1B88     		ldrh	r3, [r3]	@ movhi
 537 00f8 9AB2     		uxth	r2, r3
 538              		.loc 1 362 30 discriminator 4
 539 00fa 3B68     		ldr	r3, [r7]
 540 00fc 9A80     		strh	r2, [r3, #4]	@ movhi
 363:./Libraries/STM32F4xx_HAL_Driver/Src/stm32f4xx_hal_nor.c ****   pNOR_ID->Device_Code3      = *(__IO uint16_t *) NOR_ADDR_SHIFT(deviceaddress, uwNORMemoryDataWidt
 541              		.loc 1 363 51 discriminator 4
 542 00fe 0E4B     		ldr	r3, .L34
 543 0100 1B68     		ldr	r3, [r3]
 544              		.loc 1 363 33 discriminator 4
 545 0102 012B     		cmp	r3, #1
 546 0104 02D1     		bne	.L32
 547              		.loc 1 363 33 is_stmt 0 discriminator 1
 548 0106 FB68     		ldr	r3, [r7, #12]
 549 0108 1E33     		adds	r3, r3, #30
 550 010a 01E0     		b	.L33
 551              	.L32:
 552              		.loc 1 363 33 discriminator 2
 553 010c FB68     		ldr	r3, [r7, #12]
 554 010e 0F33     		adds	r3, r3, #15
 555              	.L33:
 556              		.loc 1 363 32 is_stmt 1 discriminator 4
 557 0110 1B88     		ldrh	r3, [r3]	@ movhi
 558 0112 9AB2     		uxth	r2, r3
 559              		.loc 1 363 30 discriminator 4
 560 0114 3B68     		ldr	r3, [r7]
 561 0116 DA80     		strh	r2, [r3, #6]	@ movhi
 364:./Libraries/STM32F4xx_HAL_Driver/Src/stm32f4xx_hal_nor.c ****   
ARM GAS  /tmp/ccscUl47.s 			page 17


 365:./Libraries/STM32F4xx_HAL_Driver/Src/stm32f4xx_hal_nor.c ****   /* Check the NOR controller state */
 366:./Libraries/STM32F4xx_HAL_Driver/Src/stm32f4xx_hal_nor.c ****   hnor->State = HAL_NOR_STATE_READY;
 562              		.loc 1 366 15 discriminator 4
 563 0118 7B68     		ldr	r3, [r7, #4]
 564 011a 0122     		movs	r2, #1
 565 011c 83F84920 		strb	r2, [r3, #73]
 367:./Libraries/STM32F4xx_HAL_Driver/Src/stm32f4xx_hal_nor.c ****   
 368:./Libraries/STM32F4xx_HAL_Driver/Src/stm32f4xx_hal_nor.c ****   /* Process unlocked */
 369:./Libraries/STM32F4xx_HAL_Driver/Src/stm32f4xx_hal_nor.c ****   __HAL_UNLOCK(hnor);   
 566              		.loc 1 369 3 discriminator 4
 567 0120 7B68     		ldr	r3, [r7, #4]
 568 0122 0022     		movs	r2, #0
 569 0124 83F84820 		strb	r2, [r3, #72]
 370:./Libraries/STM32F4xx_HAL_Driver/Src/stm32f4xx_hal_nor.c ****   
 371:./Libraries/STM32F4xx_HAL_Driver/Src/stm32f4xx_hal_nor.c ****   return HAL_OK;
 570              		.loc 1 371 10 discriminator 4
 571 0128 0023     		movs	r3, #0
 572              	.L16:
 372:./Libraries/STM32F4xx_HAL_Driver/Src/stm32f4xx_hal_nor.c **** }
 573              		.loc 1 372 1
 574 012a 1846     		mov	r0, r3
 575 012c 1437     		adds	r7, r7, #20
 576              	.LCFI31:
 577              		.cfi_def_cfa_offset 4
 578 012e BD46     		mov	sp, r7
 579              	.LCFI32:
 580              		.cfi_def_cfa_register 13
 581              		@ sp needed
 582 0130 5DF8047B 		ldr	r7, [sp], #4
 583              	.LCFI33:
 584              		.cfi_restore 7
 585              		.cfi_def_cfa_offset 0
 586 0134 7047     		bx	lr
 587              	.L35:
 588 0136 00BF     		.align	2
 589              	.L34:
 590 0138 00000000 		.word	uwNORMemoryDataWidth
 591              		.cfi_endproc
 592              	.LFE131:
 594              		.section	.text.HAL_NOR_ReturnToReadMode,"ax",%progbits
 595              		.align	1
 596              		.global	HAL_NOR_ReturnToReadMode
 597              		.syntax unified
 598              		.thumb
 599              		.thumb_func
 600              		.fpu fpv4-sp-d16
 602              	HAL_NOR_ReturnToReadMode:
 603              	.LFB132:
 373:./Libraries/STM32F4xx_HAL_Driver/Src/stm32f4xx_hal_nor.c **** 
 374:./Libraries/STM32F4xx_HAL_Driver/Src/stm32f4xx_hal_nor.c **** /**
 375:./Libraries/STM32F4xx_HAL_Driver/Src/stm32f4xx_hal_nor.c ****   * @brief  Returns the NOR memory to Read mode.
 376:./Libraries/STM32F4xx_HAL_Driver/Src/stm32f4xx_hal_nor.c ****   * @param  hnor pointer to a NOR_HandleTypeDef structure that contains
 377:./Libraries/STM32F4xx_HAL_Driver/Src/stm32f4xx_hal_nor.c ****   *                the configuration information for NOR module.
 378:./Libraries/STM32F4xx_HAL_Driver/Src/stm32f4xx_hal_nor.c ****   * @retval HAL status
 379:./Libraries/STM32F4xx_HAL_Driver/Src/stm32f4xx_hal_nor.c ****   */
 380:./Libraries/STM32F4xx_HAL_Driver/Src/stm32f4xx_hal_nor.c **** HAL_StatusTypeDef HAL_NOR_ReturnToReadMode(NOR_HandleTypeDef *hnor)
 381:./Libraries/STM32F4xx_HAL_Driver/Src/stm32f4xx_hal_nor.c **** {
ARM GAS  /tmp/ccscUl47.s 			page 18


 604              		.loc 1 381 1
 605              		.cfi_startproc
 606              		@ args = 0, pretend = 0, frame = 16
 607              		@ frame_needed = 1, uses_anonymous_args = 0
 608              		@ link register save eliminated.
 609 0000 80B4     		push	{r7}
 610              	.LCFI34:
 611              		.cfi_def_cfa_offset 4
 612              		.cfi_offset 7, -4
 613 0002 85B0     		sub	sp, sp, #20
 614              	.LCFI35:
 615              		.cfi_def_cfa_offset 24
 616 0004 00AF     		add	r7, sp, #0
 617              	.LCFI36:
 618              		.cfi_def_cfa_register 7
 619 0006 7860     		str	r0, [r7, #4]
 382:./Libraries/STM32F4xx_HAL_Driver/Src/stm32f4xx_hal_nor.c ****   uint32_t deviceaddress = 0U;  
 620              		.loc 1 382 12
 621 0008 0023     		movs	r3, #0
 622 000a FB60     		str	r3, [r7, #12]
 383:./Libraries/STM32F4xx_HAL_Driver/Src/stm32f4xx_hal_nor.c ****   
 384:./Libraries/STM32F4xx_HAL_Driver/Src/stm32f4xx_hal_nor.c ****   /* Process Locked */
 385:./Libraries/STM32F4xx_HAL_Driver/Src/stm32f4xx_hal_nor.c ****   __HAL_LOCK(hnor);
 623              		.loc 1 385 3
 624 000c 7B68     		ldr	r3, [r7, #4]
 625 000e 93F84830 		ldrb	r3, [r3, #72]	@ zero_extendqisi2
 626 0012 012B     		cmp	r3, #1
 627 0014 01D1     		bne	.L37
 628              		.loc 1 385 3 is_stmt 0 discriminator 1
 629 0016 0223     		movs	r3, #2
 630 0018 32E0     		b	.L38
 631              	.L37:
 632              		.loc 1 385 3 discriminator 2
 633 001a 7B68     		ldr	r3, [r7, #4]
 634 001c 0122     		movs	r2, #1
 635 001e 83F84820 		strb	r2, [r3, #72]
 386:./Libraries/STM32F4xx_HAL_Driver/Src/stm32f4xx_hal_nor.c ****   
 387:./Libraries/STM32F4xx_HAL_Driver/Src/stm32f4xx_hal_nor.c ****   /* Check the NOR controller state */
 388:./Libraries/STM32F4xx_HAL_Driver/Src/stm32f4xx_hal_nor.c ****   if(hnor->State == HAL_NOR_STATE_BUSY)
 636              		.loc 1 388 10 is_stmt 1 discriminator 2
 637 0022 7B68     		ldr	r3, [r7, #4]
 638 0024 93F84930 		ldrb	r3, [r3, #73]
 639 0028 DBB2     		uxtb	r3, r3
 640              		.loc 1 388 5 discriminator 2
 641 002a 022B     		cmp	r3, #2
 642 002c 01D1     		bne	.L39
 389:./Libraries/STM32F4xx_HAL_Driver/Src/stm32f4xx_hal_nor.c ****   {
 390:./Libraries/STM32F4xx_HAL_Driver/Src/stm32f4xx_hal_nor.c ****      return HAL_BUSY;
 643              		.loc 1 390 13
 644 002e 0223     		movs	r3, #2
 645 0030 26E0     		b	.L38
 646              	.L39:
 391:./Libraries/STM32F4xx_HAL_Driver/Src/stm32f4xx_hal_nor.c ****   }
 392:./Libraries/STM32F4xx_HAL_Driver/Src/stm32f4xx_hal_nor.c ****   
 393:./Libraries/STM32F4xx_HAL_Driver/Src/stm32f4xx_hal_nor.c ****   /* Select the NOR device address */
 394:./Libraries/STM32F4xx_HAL_Driver/Src/stm32f4xx_hal_nor.c ****   if (hnor->Init.NSBank == FMC_NORSRAM_BANK1)
 647              		.loc 1 394 17
ARM GAS  /tmp/ccscUl47.s 			page 19


 648 0032 7B68     		ldr	r3, [r7, #4]
 649 0034 9B68     		ldr	r3, [r3, #8]
 650              		.loc 1 394 6
 651 0036 002B     		cmp	r3, #0
 652 0038 03D1     		bne	.L40
 395:./Libraries/STM32F4xx_HAL_Driver/Src/stm32f4xx_hal_nor.c ****   {
 396:./Libraries/STM32F4xx_HAL_Driver/Src/stm32f4xx_hal_nor.c ****     deviceaddress = NOR_MEMORY_ADRESS1;
 653              		.loc 1 396 19
 654 003a 4FF0C043 		mov	r3, #1610612736
 655 003e FB60     		str	r3, [r7, #12]
 656 0040 12E0     		b	.L41
 657              	.L40:
 397:./Libraries/STM32F4xx_HAL_Driver/Src/stm32f4xx_hal_nor.c ****   }
 398:./Libraries/STM32F4xx_HAL_Driver/Src/stm32f4xx_hal_nor.c ****   else if (hnor->Init.NSBank == FMC_NORSRAM_BANK2)
 658              		.loc 1 398 22
 659 0042 7B68     		ldr	r3, [r7, #4]
 660 0044 9B68     		ldr	r3, [r3, #8]
 661              		.loc 1 398 11
 662 0046 022B     		cmp	r3, #2
 663 0048 03D1     		bne	.L42
 399:./Libraries/STM32F4xx_HAL_Driver/Src/stm32f4xx_hal_nor.c ****   {
 400:./Libraries/STM32F4xx_HAL_Driver/Src/stm32f4xx_hal_nor.c ****     deviceaddress = NOR_MEMORY_ADRESS2;
 664              		.loc 1 400 19
 665 004a 4FF0C843 		mov	r3, #1677721600
 666 004e FB60     		str	r3, [r7, #12]
 667 0050 0AE0     		b	.L41
 668              	.L42:
 401:./Libraries/STM32F4xx_HAL_Driver/Src/stm32f4xx_hal_nor.c ****   }
 402:./Libraries/STM32F4xx_HAL_Driver/Src/stm32f4xx_hal_nor.c ****   else if (hnor->Init.NSBank == FMC_NORSRAM_BANK3)
 669              		.loc 1 402 22
 670 0052 7B68     		ldr	r3, [r7, #4]
 671 0054 9B68     		ldr	r3, [r3, #8]
 672              		.loc 1 402 11
 673 0056 042B     		cmp	r3, #4
 674 0058 03D1     		bne	.L43
 403:./Libraries/STM32F4xx_HAL_Driver/Src/stm32f4xx_hal_nor.c ****   {
 404:./Libraries/STM32F4xx_HAL_Driver/Src/stm32f4xx_hal_nor.c ****     deviceaddress = NOR_MEMORY_ADRESS3;
 675              		.loc 1 404 19
 676 005a 4FF0D043 		mov	r3, #1744830464
 677 005e FB60     		str	r3, [r7, #12]
 678 0060 02E0     		b	.L41
 679              	.L43:
 405:./Libraries/STM32F4xx_HAL_Driver/Src/stm32f4xx_hal_nor.c ****   }
 406:./Libraries/STM32F4xx_HAL_Driver/Src/stm32f4xx_hal_nor.c ****   else /* FMC_NORSRAM_BANK4 */
 407:./Libraries/STM32F4xx_HAL_Driver/Src/stm32f4xx_hal_nor.c ****   {
 408:./Libraries/STM32F4xx_HAL_Driver/Src/stm32f4xx_hal_nor.c ****     deviceaddress = NOR_MEMORY_ADRESS4;
 680              		.loc 1 408 19
 681 0062 4FF0D843 		mov	r3, #1811939328
 682 0066 FB60     		str	r3, [r7, #12]
 683              	.L41:
 409:./Libraries/STM32F4xx_HAL_Driver/Src/stm32f4xx_hal_nor.c ****   }  
 410:./Libraries/STM32F4xx_HAL_Driver/Src/stm32f4xx_hal_nor.c ****   
 411:./Libraries/STM32F4xx_HAL_Driver/Src/stm32f4xx_hal_nor.c ****   NOR_WRITE(deviceaddress, NOR_CMD_DATA_READ_RESET);
 684              		.loc 1 411 3
 685 0068 FB68     		ldr	r3, [r7, #12]
 686 006a F022     		movs	r2, #240
 687 006c 1A80     		strh	r2, [r3]	@ movhi
ARM GAS  /tmp/ccscUl47.s 			page 20


 412:./Libraries/STM32F4xx_HAL_Driver/Src/stm32f4xx_hal_nor.c **** 
 413:./Libraries/STM32F4xx_HAL_Driver/Src/stm32f4xx_hal_nor.c ****   /* Check the NOR controller state */
 414:./Libraries/STM32F4xx_HAL_Driver/Src/stm32f4xx_hal_nor.c ****   hnor->State = HAL_NOR_STATE_READY;
 688              		.loc 1 414 15
 689 006e 7B68     		ldr	r3, [r7, #4]
 690 0070 0122     		movs	r2, #1
 691 0072 83F84920 		strb	r2, [r3, #73]
 415:./Libraries/STM32F4xx_HAL_Driver/Src/stm32f4xx_hal_nor.c ****   
 416:./Libraries/STM32F4xx_HAL_Driver/Src/stm32f4xx_hal_nor.c ****   /* Process unlocked */
 417:./Libraries/STM32F4xx_HAL_Driver/Src/stm32f4xx_hal_nor.c ****   __HAL_UNLOCK(hnor);   
 692              		.loc 1 417 3
 693 0076 7B68     		ldr	r3, [r7, #4]
 694 0078 0022     		movs	r2, #0
 695 007a 83F84820 		strb	r2, [r3, #72]
 418:./Libraries/STM32F4xx_HAL_Driver/Src/stm32f4xx_hal_nor.c ****   
 419:./Libraries/STM32F4xx_HAL_Driver/Src/stm32f4xx_hal_nor.c ****   return HAL_OK;
 696              		.loc 1 419 10
 697 007e 0023     		movs	r3, #0
 698              	.L38:
 420:./Libraries/STM32F4xx_HAL_Driver/Src/stm32f4xx_hal_nor.c **** }
 699              		.loc 1 420 1
 700 0080 1846     		mov	r0, r3
 701 0082 1437     		adds	r7, r7, #20
 702              	.LCFI37:
 703              		.cfi_def_cfa_offset 4
 704 0084 BD46     		mov	sp, r7
 705              	.LCFI38:
 706              		.cfi_def_cfa_register 13
 707              		@ sp needed
 708 0086 5DF8047B 		ldr	r7, [sp], #4
 709              	.LCFI39:
 710              		.cfi_restore 7
 711              		.cfi_def_cfa_offset 0
 712 008a 7047     		bx	lr
 713              		.cfi_endproc
 714              	.LFE132:
 716              		.section	.text.HAL_NOR_Read,"ax",%progbits
 717              		.align	1
 718              		.global	HAL_NOR_Read
 719              		.syntax unified
 720              		.thumb
 721              		.thumb_func
 722              		.fpu fpv4-sp-d16
 724              	HAL_NOR_Read:
 725              	.LFB133:
 421:./Libraries/STM32F4xx_HAL_Driver/Src/stm32f4xx_hal_nor.c **** 
 422:./Libraries/STM32F4xx_HAL_Driver/Src/stm32f4xx_hal_nor.c **** /**
 423:./Libraries/STM32F4xx_HAL_Driver/Src/stm32f4xx_hal_nor.c ****   * @brief  Read data from NOR memory 
 424:./Libraries/STM32F4xx_HAL_Driver/Src/stm32f4xx_hal_nor.c ****   * @param  hnor pointer to a NOR_HandleTypeDef structure that contains
 425:./Libraries/STM32F4xx_HAL_Driver/Src/stm32f4xx_hal_nor.c ****   *                the configuration information for NOR module.
 426:./Libraries/STM32F4xx_HAL_Driver/Src/stm32f4xx_hal_nor.c ****   * @param  pAddress pointer to Device address
 427:./Libraries/STM32F4xx_HAL_Driver/Src/stm32f4xx_hal_nor.c ****   * @param  pData  pointer to read data  
 428:./Libraries/STM32F4xx_HAL_Driver/Src/stm32f4xx_hal_nor.c ****   * @retval HAL status
 429:./Libraries/STM32F4xx_HAL_Driver/Src/stm32f4xx_hal_nor.c ****   */
 430:./Libraries/STM32F4xx_HAL_Driver/Src/stm32f4xx_hal_nor.c **** HAL_StatusTypeDef HAL_NOR_Read(NOR_HandleTypeDef *hnor, uint32_t *pAddress, uint16_t *pData)
 431:./Libraries/STM32F4xx_HAL_Driver/Src/stm32f4xx_hal_nor.c **** {
 726              		.loc 1 431 1
ARM GAS  /tmp/ccscUl47.s 			page 21


 727              		.cfi_startproc
 728              		@ args = 0, pretend = 0, frame = 24
 729              		@ frame_needed = 1, uses_anonymous_args = 0
 730              		@ link register save eliminated.
 731 0000 80B4     		push	{r7}
 732              	.LCFI40:
 733              		.cfi_def_cfa_offset 4
 734              		.cfi_offset 7, -4
 735 0002 87B0     		sub	sp, sp, #28
 736              	.LCFI41:
 737              		.cfi_def_cfa_offset 32
 738 0004 00AF     		add	r7, sp, #0
 739              	.LCFI42:
 740              		.cfi_def_cfa_register 7
 741 0006 F860     		str	r0, [r7, #12]
 742 0008 B960     		str	r1, [r7, #8]
 743 000a 7A60     		str	r2, [r7, #4]
 432:./Libraries/STM32F4xx_HAL_Driver/Src/stm32f4xx_hal_nor.c ****   uint32_t deviceaddress = 0U;
 744              		.loc 1 432 12
 745 000c 0023     		movs	r3, #0
 746 000e 7B61     		str	r3, [r7, #20]
 433:./Libraries/STM32F4xx_HAL_Driver/Src/stm32f4xx_hal_nor.c ****   
 434:./Libraries/STM32F4xx_HAL_Driver/Src/stm32f4xx_hal_nor.c ****   /* Process Locked */
 435:./Libraries/STM32F4xx_HAL_Driver/Src/stm32f4xx_hal_nor.c ****   __HAL_LOCK(hnor);
 747              		.loc 1 435 3
 748 0010 FB68     		ldr	r3, [r7, #12]
 749 0012 93F84830 		ldrb	r3, [r3, #72]	@ zero_extendqisi2
 750 0016 012B     		cmp	r3, #1
 751 0018 01D1     		bne	.L45
 752              		.loc 1 435 3 is_stmt 0 discriminator 1
 753 001a 0223     		movs	r3, #2
 754 001c 5FE0     		b	.L46
 755              	.L45:
 756              		.loc 1 435 3 discriminator 2
 757 001e FB68     		ldr	r3, [r7, #12]
 758 0020 0122     		movs	r2, #1
 759 0022 83F84820 		strb	r2, [r3, #72]
 436:./Libraries/STM32F4xx_HAL_Driver/Src/stm32f4xx_hal_nor.c ****   
 437:./Libraries/STM32F4xx_HAL_Driver/Src/stm32f4xx_hal_nor.c ****   /* Check the NOR controller state */
 438:./Libraries/STM32F4xx_HAL_Driver/Src/stm32f4xx_hal_nor.c ****   if(hnor->State == HAL_NOR_STATE_BUSY)
 760              		.loc 1 438 10 is_stmt 1 discriminator 2
 761 0026 FB68     		ldr	r3, [r7, #12]
 762 0028 93F84930 		ldrb	r3, [r3, #73]
 763 002c DBB2     		uxtb	r3, r3
 764              		.loc 1 438 5 discriminator 2
 765 002e 022B     		cmp	r3, #2
 766 0030 01D1     		bne	.L47
 439:./Libraries/STM32F4xx_HAL_Driver/Src/stm32f4xx_hal_nor.c ****   {
 440:./Libraries/STM32F4xx_HAL_Driver/Src/stm32f4xx_hal_nor.c ****      return HAL_BUSY;
 767              		.loc 1 440 13
 768 0032 0223     		movs	r3, #2
 769 0034 53E0     		b	.L46
 770              	.L47:
 441:./Libraries/STM32F4xx_HAL_Driver/Src/stm32f4xx_hal_nor.c ****   }
 442:./Libraries/STM32F4xx_HAL_Driver/Src/stm32f4xx_hal_nor.c ****   
 443:./Libraries/STM32F4xx_HAL_Driver/Src/stm32f4xx_hal_nor.c ****   /* Select the NOR device address */
 444:./Libraries/STM32F4xx_HAL_Driver/Src/stm32f4xx_hal_nor.c ****   if (hnor->Init.NSBank == FMC_NORSRAM_BANK1)
ARM GAS  /tmp/ccscUl47.s 			page 22


 771              		.loc 1 444 17
 772 0036 FB68     		ldr	r3, [r7, #12]
 773 0038 9B68     		ldr	r3, [r3, #8]
 774              		.loc 1 444 6
 775 003a 002B     		cmp	r3, #0
 776 003c 03D1     		bne	.L48
 445:./Libraries/STM32F4xx_HAL_Driver/Src/stm32f4xx_hal_nor.c ****   {
 446:./Libraries/STM32F4xx_HAL_Driver/Src/stm32f4xx_hal_nor.c ****     deviceaddress = NOR_MEMORY_ADRESS1;
 777              		.loc 1 446 19
 778 003e 4FF0C043 		mov	r3, #1610612736
 779 0042 7B61     		str	r3, [r7, #20]
 780 0044 12E0     		b	.L49
 781              	.L48:
 447:./Libraries/STM32F4xx_HAL_Driver/Src/stm32f4xx_hal_nor.c ****   }
 448:./Libraries/STM32F4xx_HAL_Driver/Src/stm32f4xx_hal_nor.c ****   else if (hnor->Init.NSBank == FMC_NORSRAM_BANK2)
 782              		.loc 1 448 22
 783 0046 FB68     		ldr	r3, [r7, #12]
 784 0048 9B68     		ldr	r3, [r3, #8]
 785              		.loc 1 448 11
 786 004a 022B     		cmp	r3, #2
 787 004c 03D1     		bne	.L50
 449:./Libraries/STM32F4xx_HAL_Driver/Src/stm32f4xx_hal_nor.c ****   {
 450:./Libraries/STM32F4xx_HAL_Driver/Src/stm32f4xx_hal_nor.c ****     deviceaddress = NOR_MEMORY_ADRESS2;
 788              		.loc 1 450 19
 789 004e 4FF0C843 		mov	r3, #1677721600
 790 0052 7B61     		str	r3, [r7, #20]
 791 0054 0AE0     		b	.L49
 792              	.L50:
 451:./Libraries/STM32F4xx_HAL_Driver/Src/stm32f4xx_hal_nor.c ****   }
 452:./Libraries/STM32F4xx_HAL_Driver/Src/stm32f4xx_hal_nor.c ****   else if (hnor->Init.NSBank == FMC_NORSRAM_BANK3)
 793              		.loc 1 452 22
 794 0056 FB68     		ldr	r3, [r7, #12]
 795 0058 9B68     		ldr	r3, [r3, #8]
 796              		.loc 1 452 11
 797 005a 042B     		cmp	r3, #4
 798 005c 03D1     		bne	.L51
 453:./Libraries/STM32F4xx_HAL_Driver/Src/stm32f4xx_hal_nor.c ****   {
 454:./Libraries/STM32F4xx_HAL_Driver/Src/stm32f4xx_hal_nor.c ****     deviceaddress = NOR_MEMORY_ADRESS3;
 799              		.loc 1 454 19
 800 005e 4FF0D043 		mov	r3, #1744830464
 801 0062 7B61     		str	r3, [r7, #20]
 802 0064 02E0     		b	.L49
 803              	.L51:
 455:./Libraries/STM32F4xx_HAL_Driver/Src/stm32f4xx_hal_nor.c ****   }
 456:./Libraries/STM32F4xx_HAL_Driver/Src/stm32f4xx_hal_nor.c ****   else /* FMC_NORSRAM_BANK4 */
 457:./Libraries/STM32F4xx_HAL_Driver/Src/stm32f4xx_hal_nor.c ****   {
 458:./Libraries/STM32F4xx_HAL_Driver/Src/stm32f4xx_hal_nor.c ****     deviceaddress = NOR_MEMORY_ADRESS4;
 804              		.loc 1 458 19
 805 0066 4FF0D843 		mov	r3, #1811939328
 806 006a 7B61     		str	r3, [r7, #20]
 807              	.L49:
 459:./Libraries/STM32F4xx_HAL_Driver/Src/stm32f4xx_hal_nor.c ****   } 
 460:./Libraries/STM32F4xx_HAL_Driver/Src/stm32f4xx_hal_nor.c ****     
 461:./Libraries/STM32F4xx_HAL_Driver/Src/stm32f4xx_hal_nor.c ****   /* Update the NOR controller state */
 462:./Libraries/STM32F4xx_HAL_Driver/Src/stm32f4xx_hal_nor.c ****   hnor->State = HAL_NOR_STATE_BUSY;
 808              		.loc 1 462 15
 809 006c FB68     		ldr	r3, [r7, #12]
ARM GAS  /tmp/ccscUl47.s 			page 23


 810 006e 0222     		movs	r2, #2
 811 0070 83F84920 		strb	r2, [r3, #73]
 463:./Libraries/STM32F4xx_HAL_Driver/Src/stm32f4xx_hal_nor.c ****   
 464:./Libraries/STM32F4xx_HAL_Driver/Src/stm32f4xx_hal_nor.c ****   /* Send read data command */
 465:./Libraries/STM32F4xx_HAL_Driver/Src/stm32f4xx_hal_nor.c ****   NOR_WRITE(NOR_ADDR_SHIFT(deviceaddress, uwNORMemoryDataWidth, NOR_CMD_ADDRESS_FIRST), NOR_CMD_DAT
 812              		.loc 1 465 3
 813 0074 1D4B     		ldr	r3, .L58
 814 0076 1B68     		ldr	r3, [r3]
 815 0078 012B     		cmp	r3, #1
 816 007a 03D1     		bne	.L52
 817              		.loc 1 465 3 is_stmt 0 discriminator 1
 818 007c 7B69     		ldr	r3, [r7, #20]
 819 007e 03F6AA23 		addw	r3, r3, #2730
 820 0082 02E0     		b	.L53
 821              	.L52:
 822              		.loc 1 465 3 discriminator 2
 823 0084 7B69     		ldr	r3, [r7, #20]
 824 0086 03F25553 		addw	r3, r3, #1365
 825              	.L53:
 826              		.loc 1 465 3 discriminator 4
 827 008a AA22     		movs	r2, #170
 828 008c 1A80     		strh	r2, [r3]	@ movhi
 466:./Libraries/STM32F4xx_HAL_Driver/Src/stm32f4xx_hal_nor.c ****   NOR_WRITE(NOR_ADDR_SHIFT(deviceaddress, uwNORMemoryDataWidth, NOR_CMD_ADDRESS_SECOND), NOR_CMD_DA
 829              		.loc 1 466 3 is_stmt 1 discriminator 4
 830 008e 174B     		ldr	r3, .L58
 831 0090 1B68     		ldr	r3, [r3]
 832 0092 012B     		cmp	r3, #1
 833 0094 03D1     		bne	.L54
 834              		.loc 1 466 3 is_stmt 0 discriminator 1
 835 0096 7B69     		ldr	r3, [r7, #20]
 836 0098 03F25453 		addw	r3, r3, #1364
 837 009c 02E0     		b	.L55
 838              	.L54:
 839              		.loc 1 466 3 discriminator 2
 840 009e 7B69     		ldr	r3, [r7, #20]
 841 00a0 03F2AA23 		addw	r3, r3, #682
 842              	.L55:
 843              		.loc 1 466 3 discriminator 4
 844 00a4 5522     		movs	r2, #85
 845 00a6 1A80     		strh	r2, [r3]	@ movhi
 467:./Libraries/STM32F4xx_HAL_Driver/Src/stm32f4xx_hal_nor.c ****   NOR_WRITE(NOR_ADDR_SHIFT(deviceaddress, uwNORMemoryDataWidth, NOR_CMD_ADDRESS_THIRD), NOR_CMD_DAT
 846              		.loc 1 467 3 is_stmt 1 discriminator 4
 847 00a8 104B     		ldr	r3, .L58
 848 00aa 1B68     		ldr	r3, [r3]
 849 00ac 012B     		cmp	r3, #1
 850 00ae 03D1     		bne	.L56
 851              		.loc 1 467 3 is_stmt 0 discriminator 1
 852 00b0 7B69     		ldr	r3, [r7, #20]
 853 00b2 03F6AA23 		addw	r3, r3, #2730
 854 00b6 02E0     		b	.L57
 855              	.L56:
 856              		.loc 1 467 3 discriminator 2
 857 00b8 7B69     		ldr	r3, [r7, #20]
 858 00ba 03F25553 		addw	r3, r3, #1365
 859              	.L57:
 860              		.loc 1 467 3 discriminator 4
 861 00be F022     		movs	r2, #240
ARM GAS  /tmp/ccscUl47.s 			page 24


 862 00c0 1A80     		strh	r2, [r3]	@ movhi
 468:./Libraries/STM32F4xx_HAL_Driver/Src/stm32f4xx_hal_nor.c **** 
 469:./Libraries/STM32F4xx_HAL_Driver/Src/stm32f4xx_hal_nor.c ****   /* Read the data */
 470:./Libraries/STM32F4xx_HAL_Driver/Src/stm32f4xx_hal_nor.c ****   *pData = *(__IO uint32_t *)(uint32_t)pAddress;
 863              		.loc 1 470 12 is_stmt 1 discriminator 4
 864 00c2 BB68     		ldr	r3, [r7, #8]
 865 00c4 1B68     		ldr	r3, [r3]
 866              		.loc 1 470 10 discriminator 4
 867 00c6 9AB2     		uxth	r2, r3
 868 00c8 7B68     		ldr	r3, [r7, #4]
 869 00ca 1A80     		strh	r2, [r3]	@ movhi
 471:./Libraries/STM32F4xx_HAL_Driver/Src/stm32f4xx_hal_nor.c ****   
 472:./Libraries/STM32F4xx_HAL_Driver/Src/stm32f4xx_hal_nor.c ****   /* Check the NOR controller state */
 473:./Libraries/STM32F4xx_HAL_Driver/Src/stm32f4xx_hal_nor.c ****   hnor->State = HAL_NOR_STATE_READY;
 870              		.loc 1 473 15 discriminator 4
 871 00cc FB68     		ldr	r3, [r7, #12]
 872 00ce 0122     		movs	r2, #1
 873 00d0 83F84920 		strb	r2, [r3, #73]
 474:./Libraries/STM32F4xx_HAL_Driver/Src/stm32f4xx_hal_nor.c ****   
 475:./Libraries/STM32F4xx_HAL_Driver/Src/stm32f4xx_hal_nor.c ****   /* Process unlocked */
 476:./Libraries/STM32F4xx_HAL_Driver/Src/stm32f4xx_hal_nor.c ****   __HAL_UNLOCK(hnor);
 874              		.loc 1 476 3 discriminator 4
 875 00d4 FB68     		ldr	r3, [r7, #12]
 876 00d6 0022     		movs	r2, #0
 877 00d8 83F84820 		strb	r2, [r3, #72]
 477:./Libraries/STM32F4xx_HAL_Driver/Src/stm32f4xx_hal_nor.c ****   
 478:./Libraries/STM32F4xx_HAL_Driver/Src/stm32f4xx_hal_nor.c ****   return HAL_OK;  
 878              		.loc 1 478 10 discriminator 4
 879 00dc 0023     		movs	r3, #0
 880              	.L46:
 479:./Libraries/STM32F4xx_HAL_Driver/Src/stm32f4xx_hal_nor.c **** }
 881              		.loc 1 479 1
 882 00de 1846     		mov	r0, r3
 883 00e0 1C37     		adds	r7, r7, #28
 884              	.LCFI43:
 885              		.cfi_def_cfa_offset 4
 886 00e2 BD46     		mov	sp, r7
 887              	.LCFI44:
 888              		.cfi_def_cfa_register 13
 889              		@ sp needed
 890 00e4 5DF8047B 		ldr	r7, [sp], #4
 891              	.LCFI45:
 892              		.cfi_restore 7
 893              		.cfi_def_cfa_offset 0
 894 00e8 7047     		bx	lr
 895              	.L59:
 896 00ea 00BF     		.align	2
 897              	.L58:
 898 00ec 00000000 		.word	uwNORMemoryDataWidth
 899              		.cfi_endproc
 900              	.LFE133:
 902              		.section	.text.HAL_NOR_Program,"ax",%progbits
 903              		.align	1
 904              		.global	HAL_NOR_Program
 905              		.syntax unified
 906              		.thumb
 907              		.thumb_func
ARM GAS  /tmp/ccscUl47.s 			page 25


 908              		.fpu fpv4-sp-d16
 910              	HAL_NOR_Program:
 911              	.LFB134:
 480:./Libraries/STM32F4xx_HAL_Driver/Src/stm32f4xx_hal_nor.c **** 
 481:./Libraries/STM32F4xx_HAL_Driver/Src/stm32f4xx_hal_nor.c **** /**
 482:./Libraries/STM32F4xx_HAL_Driver/Src/stm32f4xx_hal_nor.c ****   * @brief  Program data to NOR memory 
 483:./Libraries/STM32F4xx_HAL_Driver/Src/stm32f4xx_hal_nor.c ****   * @param  hnor pointer to a NOR_HandleTypeDef structure that contains
 484:./Libraries/STM32F4xx_HAL_Driver/Src/stm32f4xx_hal_nor.c ****   *                the configuration information for NOR module.
 485:./Libraries/STM32F4xx_HAL_Driver/Src/stm32f4xx_hal_nor.c ****   * @param  pAddress Device address
 486:./Libraries/STM32F4xx_HAL_Driver/Src/stm32f4xx_hal_nor.c ****   * @param  pData  pointer to the data to write   
 487:./Libraries/STM32F4xx_HAL_Driver/Src/stm32f4xx_hal_nor.c ****   * @retval HAL status
 488:./Libraries/STM32F4xx_HAL_Driver/Src/stm32f4xx_hal_nor.c ****   */
 489:./Libraries/STM32F4xx_HAL_Driver/Src/stm32f4xx_hal_nor.c **** HAL_StatusTypeDef HAL_NOR_Program(NOR_HandleTypeDef *hnor, uint32_t *pAddress, uint16_t *pData)
 490:./Libraries/STM32F4xx_HAL_Driver/Src/stm32f4xx_hal_nor.c **** {
 912              		.loc 1 490 1
 913              		.cfi_startproc
 914              		@ args = 0, pretend = 0, frame = 24
 915              		@ frame_needed = 1, uses_anonymous_args = 0
 916              		@ link register save eliminated.
 917 0000 80B4     		push	{r7}
 918              	.LCFI46:
 919              		.cfi_def_cfa_offset 4
 920              		.cfi_offset 7, -4
 921 0002 87B0     		sub	sp, sp, #28
 922              	.LCFI47:
 923              		.cfi_def_cfa_offset 32
 924 0004 00AF     		add	r7, sp, #0
 925              	.LCFI48:
 926              		.cfi_def_cfa_register 7
 927 0006 F860     		str	r0, [r7, #12]
 928 0008 B960     		str	r1, [r7, #8]
 929 000a 7A60     		str	r2, [r7, #4]
 491:./Libraries/STM32F4xx_HAL_Driver/Src/stm32f4xx_hal_nor.c ****   uint32_t deviceaddress = 0U;
 930              		.loc 1 491 12
 931 000c 0023     		movs	r3, #0
 932 000e 7B61     		str	r3, [r7, #20]
 492:./Libraries/STM32F4xx_HAL_Driver/Src/stm32f4xx_hal_nor.c ****   
 493:./Libraries/STM32F4xx_HAL_Driver/Src/stm32f4xx_hal_nor.c ****   /* Process Locked */
 494:./Libraries/STM32F4xx_HAL_Driver/Src/stm32f4xx_hal_nor.c ****   __HAL_LOCK(hnor);
 933              		.loc 1 494 3
 934 0010 FB68     		ldr	r3, [r7, #12]
 935 0012 93F84830 		ldrb	r3, [r3, #72]	@ zero_extendqisi2
 936 0016 012B     		cmp	r3, #1
 937 0018 01D1     		bne	.L61
 938              		.loc 1 494 3 is_stmt 0 discriminator 1
 939 001a 0223     		movs	r3, #2
 940 001c 5EE0     		b	.L62
 941              	.L61:
 942              		.loc 1 494 3 discriminator 2
 943 001e FB68     		ldr	r3, [r7, #12]
 944 0020 0122     		movs	r2, #1
 945 0022 83F84820 		strb	r2, [r3, #72]
 495:./Libraries/STM32F4xx_HAL_Driver/Src/stm32f4xx_hal_nor.c ****   
 496:./Libraries/STM32F4xx_HAL_Driver/Src/stm32f4xx_hal_nor.c ****   /* Check the NOR controller state */
 497:./Libraries/STM32F4xx_HAL_Driver/Src/stm32f4xx_hal_nor.c ****   if(hnor->State == HAL_NOR_STATE_BUSY)
 946              		.loc 1 497 10 is_stmt 1 discriminator 2
 947 0026 FB68     		ldr	r3, [r7, #12]
ARM GAS  /tmp/ccscUl47.s 			page 26


 948 0028 93F84930 		ldrb	r3, [r3, #73]
 949 002c DBB2     		uxtb	r3, r3
 950              		.loc 1 497 5 discriminator 2
 951 002e 022B     		cmp	r3, #2
 952 0030 01D1     		bne	.L63
 498:./Libraries/STM32F4xx_HAL_Driver/Src/stm32f4xx_hal_nor.c ****   {
 499:./Libraries/STM32F4xx_HAL_Driver/Src/stm32f4xx_hal_nor.c ****      return HAL_BUSY;
 953              		.loc 1 499 13
 954 0032 0223     		movs	r3, #2
 955 0034 52E0     		b	.L62
 956              	.L63:
 500:./Libraries/STM32F4xx_HAL_Driver/Src/stm32f4xx_hal_nor.c ****   }
 501:./Libraries/STM32F4xx_HAL_Driver/Src/stm32f4xx_hal_nor.c ****   
 502:./Libraries/STM32F4xx_HAL_Driver/Src/stm32f4xx_hal_nor.c ****   /* Select the NOR device address */
 503:./Libraries/STM32F4xx_HAL_Driver/Src/stm32f4xx_hal_nor.c ****   if (hnor->Init.NSBank == FMC_NORSRAM_BANK1)
 957              		.loc 1 503 17
 958 0036 FB68     		ldr	r3, [r7, #12]
 959 0038 9B68     		ldr	r3, [r3, #8]
 960              		.loc 1 503 6
 961 003a 002B     		cmp	r3, #0
 962 003c 03D1     		bne	.L64
 504:./Libraries/STM32F4xx_HAL_Driver/Src/stm32f4xx_hal_nor.c ****   {
 505:./Libraries/STM32F4xx_HAL_Driver/Src/stm32f4xx_hal_nor.c ****     deviceaddress = NOR_MEMORY_ADRESS1;
 963              		.loc 1 505 19
 964 003e 4FF0C043 		mov	r3, #1610612736
 965 0042 7B61     		str	r3, [r7, #20]
 966 0044 12E0     		b	.L65
 967              	.L64:
 506:./Libraries/STM32F4xx_HAL_Driver/Src/stm32f4xx_hal_nor.c ****   }
 507:./Libraries/STM32F4xx_HAL_Driver/Src/stm32f4xx_hal_nor.c ****   else if (hnor->Init.NSBank == FMC_NORSRAM_BANK2)
 968              		.loc 1 507 22
 969 0046 FB68     		ldr	r3, [r7, #12]
 970 0048 9B68     		ldr	r3, [r3, #8]
 971              		.loc 1 507 11
 972 004a 022B     		cmp	r3, #2
 973 004c 03D1     		bne	.L66
 508:./Libraries/STM32F4xx_HAL_Driver/Src/stm32f4xx_hal_nor.c ****   {
 509:./Libraries/STM32F4xx_HAL_Driver/Src/stm32f4xx_hal_nor.c ****     deviceaddress = NOR_MEMORY_ADRESS2;
 974              		.loc 1 509 19
 975 004e 4FF0C843 		mov	r3, #1677721600
 976 0052 7B61     		str	r3, [r7, #20]
 977 0054 0AE0     		b	.L65
 978              	.L66:
 510:./Libraries/STM32F4xx_HAL_Driver/Src/stm32f4xx_hal_nor.c ****   }
 511:./Libraries/STM32F4xx_HAL_Driver/Src/stm32f4xx_hal_nor.c ****   else if (hnor->Init.NSBank == FMC_NORSRAM_BANK3)
 979              		.loc 1 511 22
 980 0056 FB68     		ldr	r3, [r7, #12]
 981 0058 9B68     		ldr	r3, [r3, #8]
 982              		.loc 1 511 11
 983 005a 042B     		cmp	r3, #4
 984 005c 03D1     		bne	.L67
 512:./Libraries/STM32F4xx_HAL_Driver/Src/stm32f4xx_hal_nor.c ****   {
 513:./Libraries/STM32F4xx_HAL_Driver/Src/stm32f4xx_hal_nor.c ****     deviceaddress = NOR_MEMORY_ADRESS3;
 985              		.loc 1 513 19
 986 005e 4FF0D043 		mov	r3, #1744830464
 987 0062 7B61     		str	r3, [r7, #20]
 988 0064 02E0     		b	.L65
ARM GAS  /tmp/ccscUl47.s 			page 27


 989              	.L67:
 514:./Libraries/STM32F4xx_HAL_Driver/Src/stm32f4xx_hal_nor.c ****   }
 515:./Libraries/STM32F4xx_HAL_Driver/Src/stm32f4xx_hal_nor.c ****   else /* FMC_NORSRAM_BANK4 */
 516:./Libraries/STM32F4xx_HAL_Driver/Src/stm32f4xx_hal_nor.c ****   {
 517:./Libraries/STM32F4xx_HAL_Driver/Src/stm32f4xx_hal_nor.c ****     deviceaddress = NOR_MEMORY_ADRESS4;
 990              		.loc 1 517 19
 991 0066 4FF0D843 		mov	r3, #1811939328
 992 006a 7B61     		str	r3, [r7, #20]
 993              	.L65:
 518:./Libraries/STM32F4xx_HAL_Driver/Src/stm32f4xx_hal_nor.c ****   } 
 519:./Libraries/STM32F4xx_HAL_Driver/Src/stm32f4xx_hal_nor.c ****     
 520:./Libraries/STM32F4xx_HAL_Driver/Src/stm32f4xx_hal_nor.c ****   /* Update the NOR controller state */
 521:./Libraries/STM32F4xx_HAL_Driver/Src/stm32f4xx_hal_nor.c ****   hnor->State = HAL_NOR_STATE_BUSY;
 994              		.loc 1 521 15
 995 006c FB68     		ldr	r3, [r7, #12]
 996 006e 0222     		movs	r2, #2
 997 0070 83F84920 		strb	r2, [r3, #73]
 522:./Libraries/STM32F4xx_HAL_Driver/Src/stm32f4xx_hal_nor.c ****   
 523:./Libraries/STM32F4xx_HAL_Driver/Src/stm32f4xx_hal_nor.c ****   /* Send program data command */
 524:./Libraries/STM32F4xx_HAL_Driver/Src/stm32f4xx_hal_nor.c ****   NOR_WRITE(NOR_ADDR_SHIFT(deviceaddress, uwNORMemoryDataWidth, NOR_CMD_ADDRESS_FIRST), NOR_CMD_DAT
 998              		.loc 1 524 3
 999 0074 1C4B     		ldr	r3, .L74
 1000 0076 1B68     		ldr	r3, [r3]
 1001 0078 012B     		cmp	r3, #1
 1002 007a 03D1     		bne	.L68
 1003              		.loc 1 524 3 is_stmt 0 discriminator 1
 1004 007c 7B69     		ldr	r3, [r7, #20]
 1005 007e 03F6AA23 		addw	r3, r3, #2730
 1006 0082 02E0     		b	.L69
 1007              	.L68:
 1008              		.loc 1 524 3 discriminator 2
 1009 0084 7B69     		ldr	r3, [r7, #20]
 1010 0086 03F25553 		addw	r3, r3, #1365
 1011              	.L69:
 1012              		.loc 1 524 3 discriminator 4
 1013 008a AA22     		movs	r2, #170
 1014 008c 1A80     		strh	r2, [r3]	@ movhi
 525:./Libraries/STM32F4xx_HAL_Driver/Src/stm32f4xx_hal_nor.c ****   NOR_WRITE(NOR_ADDR_SHIFT(deviceaddress, uwNORMemoryDataWidth, NOR_CMD_ADDRESS_SECOND), NOR_CMD_DA
 1015              		.loc 1 525 3 is_stmt 1 discriminator 4
 1016 008e 164B     		ldr	r3, .L74
 1017 0090 1B68     		ldr	r3, [r3]
 1018 0092 012B     		cmp	r3, #1
 1019 0094 03D1     		bne	.L70
 1020              		.loc 1 525 3 is_stmt 0 discriminator 1
 1021 0096 7B69     		ldr	r3, [r7, #20]
 1022 0098 03F25453 		addw	r3, r3, #1364
 1023 009c 02E0     		b	.L71
 1024              	.L70:
 1025              		.loc 1 525 3 discriminator 2
 1026 009e 7B69     		ldr	r3, [r7, #20]
 1027 00a0 03F2AA23 		addw	r3, r3, #682
 1028              	.L71:
 1029              		.loc 1 525 3 discriminator 4
 1030 00a4 5522     		movs	r2, #85
 1031 00a6 1A80     		strh	r2, [r3]	@ movhi
 526:./Libraries/STM32F4xx_HAL_Driver/Src/stm32f4xx_hal_nor.c ****   NOR_WRITE(NOR_ADDR_SHIFT(deviceaddress, uwNORMemoryDataWidth, NOR_CMD_ADDRESS_THIRD), NOR_CMD_DAT
 1032              		.loc 1 526 3 is_stmt 1 discriminator 4
ARM GAS  /tmp/ccscUl47.s 			page 28


 1033 00a8 0F4B     		ldr	r3, .L74
 1034 00aa 1B68     		ldr	r3, [r3]
 1035 00ac 012B     		cmp	r3, #1
 1036 00ae 03D1     		bne	.L72
 1037              		.loc 1 526 3 is_stmt 0 discriminator 1
 1038 00b0 7B69     		ldr	r3, [r7, #20]
 1039 00b2 03F6AA23 		addw	r3, r3, #2730
 1040 00b6 02E0     		b	.L73
 1041              	.L72:
 1042              		.loc 1 526 3 discriminator 2
 1043 00b8 7B69     		ldr	r3, [r7, #20]
 1044 00ba 03F25553 		addw	r3, r3, #1365
 1045              	.L73:
 1046              		.loc 1 526 3 discriminator 4
 1047 00be A022     		movs	r2, #160
 1048 00c0 1A80     		strh	r2, [r3]	@ movhi
 527:./Libraries/STM32F4xx_HAL_Driver/Src/stm32f4xx_hal_nor.c **** 
 528:./Libraries/STM32F4xx_HAL_Driver/Src/stm32f4xx_hal_nor.c ****   /* Write the data */
 529:./Libraries/STM32F4xx_HAL_Driver/Src/stm32f4xx_hal_nor.c ****   NOR_WRITE(pAddress, *pData);
 1049              		.loc 1 529 3 is_stmt 1 discriminator 4
 1050 00c2 7B68     		ldr	r3, [r7, #4]
 1051 00c4 1A88     		ldrh	r2, [r3]
 1052 00c6 BB68     		ldr	r3, [r7, #8]
 1053 00c8 1A80     		strh	r2, [r3]	@ movhi
 530:./Libraries/STM32F4xx_HAL_Driver/Src/stm32f4xx_hal_nor.c ****   
 531:./Libraries/STM32F4xx_HAL_Driver/Src/stm32f4xx_hal_nor.c ****   /* Check the NOR controller state */
 532:./Libraries/STM32F4xx_HAL_Driver/Src/stm32f4xx_hal_nor.c ****   hnor->State = HAL_NOR_STATE_READY;
 1054              		.loc 1 532 15 discriminator 4
 1055 00ca FB68     		ldr	r3, [r7, #12]
 1056 00cc 0122     		movs	r2, #1
 1057 00ce 83F84920 		strb	r2, [r3, #73]
 533:./Libraries/STM32F4xx_HAL_Driver/Src/stm32f4xx_hal_nor.c ****   
 534:./Libraries/STM32F4xx_HAL_Driver/Src/stm32f4xx_hal_nor.c ****   /* Process unlocked */
 535:./Libraries/STM32F4xx_HAL_Driver/Src/stm32f4xx_hal_nor.c ****   __HAL_UNLOCK(hnor);
 1058              		.loc 1 535 3 discriminator 4
 1059 00d2 FB68     		ldr	r3, [r7, #12]
 1060 00d4 0022     		movs	r2, #0
 1061 00d6 83F84820 		strb	r2, [r3, #72]
 536:./Libraries/STM32F4xx_HAL_Driver/Src/stm32f4xx_hal_nor.c ****   
 537:./Libraries/STM32F4xx_HAL_Driver/Src/stm32f4xx_hal_nor.c ****   return HAL_OK;  
 1062              		.loc 1 537 10 discriminator 4
 1063 00da 0023     		movs	r3, #0
 1064              	.L62:
 538:./Libraries/STM32F4xx_HAL_Driver/Src/stm32f4xx_hal_nor.c **** }
 1065              		.loc 1 538 1
 1066 00dc 1846     		mov	r0, r3
 1067 00de 1C37     		adds	r7, r7, #28
 1068              	.LCFI49:
 1069              		.cfi_def_cfa_offset 4
 1070 00e0 BD46     		mov	sp, r7
 1071              	.LCFI50:
 1072              		.cfi_def_cfa_register 13
 1073              		@ sp needed
 1074 00e2 5DF8047B 		ldr	r7, [sp], #4
 1075              	.LCFI51:
 1076              		.cfi_restore 7
 1077              		.cfi_def_cfa_offset 0
ARM GAS  /tmp/ccscUl47.s 			page 29


 1078 00e6 7047     		bx	lr
 1079              	.L75:
 1080              		.align	2
 1081              	.L74:
 1082 00e8 00000000 		.word	uwNORMemoryDataWidth
 1083              		.cfi_endproc
 1084              	.LFE134:
 1086              		.section	.text.HAL_NOR_ReadBuffer,"ax",%progbits
 1087              		.align	1
 1088              		.global	HAL_NOR_ReadBuffer
 1089              		.syntax unified
 1090              		.thumb
 1091              		.thumb_func
 1092              		.fpu fpv4-sp-d16
 1094              	HAL_NOR_ReadBuffer:
 1095              	.LFB135:
 539:./Libraries/STM32F4xx_HAL_Driver/Src/stm32f4xx_hal_nor.c **** 
 540:./Libraries/STM32F4xx_HAL_Driver/Src/stm32f4xx_hal_nor.c **** /**
 541:./Libraries/STM32F4xx_HAL_Driver/Src/stm32f4xx_hal_nor.c ****   * @brief  Reads a half-word buffer from the NOR memory.
 542:./Libraries/STM32F4xx_HAL_Driver/Src/stm32f4xx_hal_nor.c ****   * @param  hnor pointer to the NOR handle
 543:./Libraries/STM32F4xx_HAL_Driver/Src/stm32f4xx_hal_nor.c ****   * @param  uwAddress NOR memory internal address to read from.
 544:./Libraries/STM32F4xx_HAL_Driver/Src/stm32f4xx_hal_nor.c ****   * @param  pData pointer to the buffer that receives the data read from the 
 545:./Libraries/STM32F4xx_HAL_Driver/Src/stm32f4xx_hal_nor.c ****   *         NOR memory.
 546:./Libraries/STM32F4xx_HAL_Driver/Src/stm32f4xx_hal_nor.c ****   * @param  uwBufferSize  number of Half word to read.
 547:./Libraries/STM32F4xx_HAL_Driver/Src/stm32f4xx_hal_nor.c ****   * @retval HAL status
 548:./Libraries/STM32F4xx_HAL_Driver/Src/stm32f4xx_hal_nor.c ****   */
 549:./Libraries/STM32F4xx_HAL_Driver/Src/stm32f4xx_hal_nor.c **** HAL_StatusTypeDef HAL_NOR_ReadBuffer(NOR_HandleTypeDef *hnor, uint32_t uwAddress, uint16_t *pData, 
 550:./Libraries/STM32F4xx_HAL_Driver/Src/stm32f4xx_hal_nor.c **** {
 1096              		.loc 1 550 1
 1097              		.cfi_startproc
 1098              		@ args = 0, pretend = 0, frame = 24
 1099              		@ frame_needed = 1, uses_anonymous_args = 0
 1100              		@ link register save eliminated.
 1101 0000 80B4     		push	{r7}
 1102              	.LCFI52:
 1103              		.cfi_def_cfa_offset 4
 1104              		.cfi_offset 7, -4
 1105 0002 87B0     		sub	sp, sp, #28
 1106              	.LCFI53:
 1107              		.cfi_def_cfa_offset 32
 1108 0004 00AF     		add	r7, sp, #0
 1109              	.LCFI54:
 1110              		.cfi_def_cfa_register 7
 1111 0006 F860     		str	r0, [r7, #12]
 1112 0008 B960     		str	r1, [r7, #8]
 1113 000a 7A60     		str	r2, [r7, #4]
 1114 000c 3B60     		str	r3, [r7]
 551:./Libraries/STM32F4xx_HAL_Driver/Src/stm32f4xx_hal_nor.c ****   uint32_t deviceaddress = 0U;
 1115              		.loc 1 551 12
 1116 000e 0023     		movs	r3, #0
 1117 0010 7B61     		str	r3, [r7, #20]
 552:./Libraries/STM32F4xx_HAL_Driver/Src/stm32f4xx_hal_nor.c ****   
 553:./Libraries/STM32F4xx_HAL_Driver/Src/stm32f4xx_hal_nor.c ****   /* Process Locked */
 554:./Libraries/STM32F4xx_HAL_Driver/Src/stm32f4xx_hal_nor.c ****   __HAL_LOCK(hnor);
 1118              		.loc 1 554 3
 1119 0012 FB68     		ldr	r3, [r7, #12]
 1120 0014 93F84830 		ldrb	r3, [r3, #72]	@ zero_extendqisi2
ARM GAS  /tmp/ccscUl47.s 			page 30


 1121 0018 012B     		cmp	r3, #1
 1122 001a 01D1     		bne	.L77
 1123              		.loc 1 554 3 is_stmt 0 discriminator 1
 1124 001c 0223     		movs	r3, #2
 1125 001e 6BE0     		b	.L78
 1126              	.L77:
 1127              		.loc 1 554 3 discriminator 2
 1128 0020 FB68     		ldr	r3, [r7, #12]
 1129 0022 0122     		movs	r2, #1
 1130 0024 83F84820 		strb	r2, [r3, #72]
 555:./Libraries/STM32F4xx_HAL_Driver/Src/stm32f4xx_hal_nor.c ****   
 556:./Libraries/STM32F4xx_HAL_Driver/Src/stm32f4xx_hal_nor.c ****   /* Check the NOR controller state */
 557:./Libraries/STM32F4xx_HAL_Driver/Src/stm32f4xx_hal_nor.c ****   if(hnor->State == HAL_NOR_STATE_BUSY)
 1131              		.loc 1 557 10 is_stmt 1 discriminator 2
 1132 0028 FB68     		ldr	r3, [r7, #12]
 1133 002a 93F84930 		ldrb	r3, [r3, #73]
 1134 002e DBB2     		uxtb	r3, r3
 1135              		.loc 1 557 5 discriminator 2
 1136 0030 022B     		cmp	r3, #2
 1137 0032 01D1     		bne	.L79
 558:./Libraries/STM32F4xx_HAL_Driver/Src/stm32f4xx_hal_nor.c ****   {
 559:./Libraries/STM32F4xx_HAL_Driver/Src/stm32f4xx_hal_nor.c ****      return HAL_BUSY;
 1138              		.loc 1 559 13
 1139 0034 0223     		movs	r3, #2
 1140 0036 5FE0     		b	.L78
 1141              	.L79:
 560:./Libraries/STM32F4xx_HAL_Driver/Src/stm32f4xx_hal_nor.c ****   }
 561:./Libraries/STM32F4xx_HAL_Driver/Src/stm32f4xx_hal_nor.c ****   
 562:./Libraries/STM32F4xx_HAL_Driver/Src/stm32f4xx_hal_nor.c ****   /* Select the NOR device address */
 563:./Libraries/STM32F4xx_HAL_Driver/Src/stm32f4xx_hal_nor.c ****   if (hnor->Init.NSBank == FMC_NORSRAM_BANK1)
 1142              		.loc 1 563 17
 1143 0038 FB68     		ldr	r3, [r7, #12]
 1144 003a 9B68     		ldr	r3, [r3, #8]
 1145              		.loc 1 563 6
 1146 003c 002B     		cmp	r3, #0
 1147 003e 03D1     		bne	.L80
 564:./Libraries/STM32F4xx_HAL_Driver/Src/stm32f4xx_hal_nor.c ****   {
 565:./Libraries/STM32F4xx_HAL_Driver/Src/stm32f4xx_hal_nor.c ****     deviceaddress = NOR_MEMORY_ADRESS1;
 1148              		.loc 1 565 19
 1149 0040 4FF0C043 		mov	r3, #1610612736
 1150 0044 7B61     		str	r3, [r7, #20]
 1151 0046 12E0     		b	.L81
 1152              	.L80:
 566:./Libraries/STM32F4xx_HAL_Driver/Src/stm32f4xx_hal_nor.c ****   }
 567:./Libraries/STM32F4xx_HAL_Driver/Src/stm32f4xx_hal_nor.c ****   else if (hnor->Init.NSBank == FMC_NORSRAM_BANK2)
 1153              		.loc 1 567 22
 1154 0048 FB68     		ldr	r3, [r7, #12]
 1155 004a 9B68     		ldr	r3, [r3, #8]
 1156              		.loc 1 567 11
 1157 004c 022B     		cmp	r3, #2
 1158 004e 03D1     		bne	.L82
 568:./Libraries/STM32F4xx_HAL_Driver/Src/stm32f4xx_hal_nor.c ****   {
 569:./Libraries/STM32F4xx_HAL_Driver/Src/stm32f4xx_hal_nor.c ****     deviceaddress = NOR_MEMORY_ADRESS2;
 1159              		.loc 1 569 19
 1160 0050 4FF0C843 		mov	r3, #1677721600
 1161 0054 7B61     		str	r3, [r7, #20]
 1162 0056 0AE0     		b	.L81
ARM GAS  /tmp/ccscUl47.s 			page 31


 1163              	.L82:
 570:./Libraries/STM32F4xx_HAL_Driver/Src/stm32f4xx_hal_nor.c ****   }
 571:./Libraries/STM32F4xx_HAL_Driver/Src/stm32f4xx_hal_nor.c ****   else if (hnor->Init.NSBank == FMC_NORSRAM_BANK3)
 1164              		.loc 1 571 22
 1165 0058 FB68     		ldr	r3, [r7, #12]
 1166 005a 9B68     		ldr	r3, [r3, #8]
 1167              		.loc 1 571 11
 1168 005c 042B     		cmp	r3, #4
 1169 005e 03D1     		bne	.L83
 572:./Libraries/STM32F4xx_HAL_Driver/Src/stm32f4xx_hal_nor.c ****   {
 573:./Libraries/STM32F4xx_HAL_Driver/Src/stm32f4xx_hal_nor.c ****     deviceaddress = NOR_MEMORY_ADRESS3;
 1170              		.loc 1 573 19
 1171 0060 4FF0D043 		mov	r3, #1744830464
 1172 0064 7B61     		str	r3, [r7, #20]
 1173 0066 02E0     		b	.L81
 1174              	.L83:
 574:./Libraries/STM32F4xx_HAL_Driver/Src/stm32f4xx_hal_nor.c ****   }
 575:./Libraries/STM32F4xx_HAL_Driver/Src/stm32f4xx_hal_nor.c ****   else /* FMC_NORSRAM_BANK4 */
 576:./Libraries/STM32F4xx_HAL_Driver/Src/stm32f4xx_hal_nor.c ****   {
 577:./Libraries/STM32F4xx_HAL_Driver/Src/stm32f4xx_hal_nor.c ****     deviceaddress = NOR_MEMORY_ADRESS4;
 1175              		.loc 1 577 19
 1176 0068 4FF0D843 		mov	r3, #1811939328
 1177 006c 7B61     		str	r3, [r7, #20]
 1178              	.L81:
 578:./Libraries/STM32F4xx_HAL_Driver/Src/stm32f4xx_hal_nor.c ****   }  
 579:./Libraries/STM32F4xx_HAL_Driver/Src/stm32f4xx_hal_nor.c ****     
 580:./Libraries/STM32F4xx_HAL_Driver/Src/stm32f4xx_hal_nor.c ****   /* Update the NOR controller state */
 581:./Libraries/STM32F4xx_HAL_Driver/Src/stm32f4xx_hal_nor.c ****   hnor->State = HAL_NOR_STATE_BUSY;
 1179              		.loc 1 581 15
 1180 006e FB68     		ldr	r3, [r7, #12]
 1181 0070 0222     		movs	r2, #2
 1182 0072 83F84920 		strb	r2, [r3, #73]
 582:./Libraries/STM32F4xx_HAL_Driver/Src/stm32f4xx_hal_nor.c ****   
 583:./Libraries/STM32F4xx_HAL_Driver/Src/stm32f4xx_hal_nor.c ****   /* Send read data command */
 584:./Libraries/STM32F4xx_HAL_Driver/Src/stm32f4xx_hal_nor.c ****   NOR_WRITE(NOR_ADDR_SHIFT(deviceaddress, uwNORMemoryDataWidth, NOR_CMD_ADDRESS_FIRST), NOR_CMD_DAT
 1183              		.loc 1 584 3
 1184 0076 234B     		ldr	r3, .L92
 1185 0078 1B68     		ldr	r3, [r3]
 1186 007a 012B     		cmp	r3, #1
 1187 007c 03D1     		bne	.L84
 1188              		.loc 1 584 3 is_stmt 0 discriminator 1
 1189 007e 7B69     		ldr	r3, [r7, #20]
 1190 0080 03F6AA23 		addw	r3, r3, #2730
 1191 0084 02E0     		b	.L85
 1192              	.L84:
 1193              		.loc 1 584 3 discriminator 2
 1194 0086 7B69     		ldr	r3, [r7, #20]
 1195 0088 03F25553 		addw	r3, r3, #1365
 1196              	.L85:
 1197              		.loc 1 584 3 discriminator 4
 1198 008c AA22     		movs	r2, #170
 1199 008e 1A80     		strh	r2, [r3]	@ movhi
 585:./Libraries/STM32F4xx_HAL_Driver/Src/stm32f4xx_hal_nor.c ****   NOR_WRITE(NOR_ADDR_SHIFT(deviceaddress, uwNORMemoryDataWidth, NOR_CMD_ADDRESS_SECOND), NOR_CMD_DA
 1200              		.loc 1 585 3 is_stmt 1 discriminator 4
 1201 0090 1C4B     		ldr	r3, .L92
 1202 0092 1B68     		ldr	r3, [r3]
 1203 0094 012B     		cmp	r3, #1
ARM GAS  /tmp/ccscUl47.s 			page 32


 1204 0096 03D1     		bne	.L86
 1205              		.loc 1 585 3 is_stmt 0 discriminator 1
 1206 0098 7B69     		ldr	r3, [r7, #20]
 1207 009a 03F25453 		addw	r3, r3, #1364
 1208 009e 02E0     		b	.L87
 1209              	.L86:
 1210              		.loc 1 585 3 discriminator 2
 1211 00a0 7B69     		ldr	r3, [r7, #20]
 1212 00a2 03F2AA23 		addw	r3, r3, #682
 1213              	.L87:
 1214              		.loc 1 585 3 discriminator 4
 1215 00a6 5522     		movs	r2, #85
 1216 00a8 1A80     		strh	r2, [r3]	@ movhi
 586:./Libraries/STM32F4xx_HAL_Driver/Src/stm32f4xx_hal_nor.c ****   NOR_WRITE(NOR_ADDR_SHIFT(deviceaddress, uwNORMemoryDataWidth, NOR_CMD_ADDRESS_THIRD), NOR_CMD_DAT
 1217              		.loc 1 586 3 is_stmt 1 discriminator 4
 1218 00aa 164B     		ldr	r3, .L92
 1219 00ac 1B68     		ldr	r3, [r3]
 1220 00ae 012B     		cmp	r3, #1
 1221 00b0 03D1     		bne	.L88
 1222              		.loc 1 586 3 is_stmt 0 discriminator 1
 1223 00b2 7B69     		ldr	r3, [r7, #20]
 1224 00b4 03F6AA23 		addw	r3, r3, #2730
 1225 00b8 02E0     		b	.L89
 1226              	.L88:
 1227              		.loc 1 586 3 discriminator 2
 1228 00ba 7B69     		ldr	r3, [r7, #20]
 1229 00bc 03F25553 		addw	r3, r3, #1365
 1230              	.L89:
 1231              		.loc 1 586 3 discriminator 4
 1232 00c0 F022     		movs	r2, #240
 1233 00c2 1A80     		strh	r2, [r3]	@ movhi
 587:./Libraries/STM32F4xx_HAL_Driver/Src/stm32f4xx_hal_nor.c ****   
 588:./Libraries/STM32F4xx_HAL_Driver/Src/stm32f4xx_hal_nor.c ****   /* Read buffer */
 589:./Libraries/STM32F4xx_HAL_Driver/Src/stm32f4xx_hal_nor.c ****   while( uwBufferSize > 0U) 
 1234              		.loc 1 589 8 is_stmt 1 discriminator 4
 1235 00c4 0CE0     		b	.L90
 1236              	.L91:
 590:./Libraries/STM32F4xx_HAL_Driver/Src/stm32f4xx_hal_nor.c ****   {
 591:./Libraries/STM32F4xx_HAL_Driver/Src/stm32f4xx_hal_nor.c ****     *pData++ = *(__IO uint16_t *)uwAddress;
 1237              		.loc 1 591 17
 1238 00c6 BA68     		ldr	r2, [r7, #8]
 1239              		.loc 1 591 11
 1240 00c8 7B68     		ldr	r3, [r7, #4]
 1241 00ca 991C     		adds	r1, r3, #2
 1242 00cc 7960     		str	r1, [r7, #4]
 1243              		.loc 1 591 16
 1244 00ce 1288     		ldrh	r2, [r2]	@ movhi
 1245 00d0 92B2     		uxth	r2, r2
 1246              		.loc 1 591 14
 1247 00d2 1A80     		strh	r2, [r3]	@ movhi
 592:./Libraries/STM32F4xx_HAL_Driver/Src/stm32f4xx_hal_nor.c ****     uwAddress += 2U;
 1248              		.loc 1 592 15
 1249 00d4 BB68     		ldr	r3, [r7, #8]
 1250 00d6 0233     		adds	r3, r3, #2
 1251 00d8 BB60     		str	r3, [r7, #8]
 593:./Libraries/STM32F4xx_HAL_Driver/Src/stm32f4xx_hal_nor.c ****     uwBufferSize--;
 1252              		.loc 1 593 17
ARM GAS  /tmp/ccscUl47.s 			page 33


 1253 00da 3B68     		ldr	r3, [r7]
 1254 00dc 013B     		subs	r3, r3, #1
 1255 00de 3B60     		str	r3, [r7]
 1256              	.L90:
 589:./Libraries/STM32F4xx_HAL_Driver/Src/stm32f4xx_hal_nor.c ****   {
 1257              		.loc 1 589 8
 1258 00e0 3B68     		ldr	r3, [r7]
 1259 00e2 002B     		cmp	r3, #0
 1260 00e4 EFD1     		bne	.L91
 594:./Libraries/STM32F4xx_HAL_Driver/Src/stm32f4xx_hal_nor.c ****   } 
 595:./Libraries/STM32F4xx_HAL_Driver/Src/stm32f4xx_hal_nor.c ****   
 596:./Libraries/STM32F4xx_HAL_Driver/Src/stm32f4xx_hal_nor.c ****   /* Check the NOR controller state */
 597:./Libraries/STM32F4xx_HAL_Driver/Src/stm32f4xx_hal_nor.c ****   hnor->State = HAL_NOR_STATE_READY;
 1261              		.loc 1 597 15
 1262 00e6 FB68     		ldr	r3, [r7, #12]
 1263 00e8 0122     		movs	r2, #1
 1264 00ea 83F84920 		strb	r2, [r3, #73]
 598:./Libraries/STM32F4xx_HAL_Driver/Src/stm32f4xx_hal_nor.c ****   
 599:./Libraries/STM32F4xx_HAL_Driver/Src/stm32f4xx_hal_nor.c ****   /* Process unlocked */
 600:./Libraries/STM32F4xx_HAL_Driver/Src/stm32f4xx_hal_nor.c ****   __HAL_UNLOCK(hnor);
 1265              		.loc 1 600 3
 1266 00ee FB68     		ldr	r3, [r7, #12]
 1267 00f0 0022     		movs	r2, #0
 1268 00f2 83F84820 		strb	r2, [r3, #72]
 601:./Libraries/STM32F4xx_HAL_Driver/Src/stm32f4xx_hal_nor.c ****   
 602:./Libraries/STM32F4xx_HAL_Driver/Src/stm32f4xx_hal_nor.c ****   return HAL_OK;  
 1269              		.loc 1 602 10
 1270 00f6 0023     		movs	r3, #0
 1271              	.L78:
 603:./Libraries/STM32F4xx_HAL_Driver/Src/stm32f4xx_hal_nor.c **** }
 1272              		.loc 1 603 1
 1273 00f8 1846     		mov	r0, r3
 1274 00fa 1C37     		adds	r7, r7, #28
 1275              	.LCFI55:
 1276              		.cfi_def_cfa_offset 4
 1277 00fc BD46     		mov	sp, r7
 1278              	.LCFI56:
 1279              		.cfi_def_cfa_register 13
 1280              		@ sp needed
 1281 00fe 5DF8047B 		ldr	r7, [sp], #4
 1282              	.LCFI57:
 1283              		.cfi_restore 7
 1284              		.cfi_def_cfa_offset 0
 1285 0102 7047     		bx	lr
 1286              	.L93:
 1287              		.align	2
 1288              	.L92:
 1289 0104 00000000 		.word	uwNORMemoryDataWidth
 1290              		.cfi_endproc
 1291              	.LFE135:
 1293              		.section	.text.HAL_NOR_ProgramBuffer,"ax",%progbits
 1294              		.align	1
 1295              		.global	HAL_NOR_ProgramBuffer
 1296              		.syntax unified
 1297              		.thumb
 1298              		.thumb_func
 1299              		.fpu fpv4-sp-d16
ARM GAS  /tmp/ccscUl47.s 			page 34


 1301              	HAL_NOR_ProgramBuffer:
 1302              	.LFB136:
 604:./Libraries/STM32F4xx_HAL_Driver/Src/stm32f4xx_hal_nor.c **** 
 605:./Libraries/STM32F4xx_HAL_Driver/Src/stm32f4xx_hal_nor.c **** /**
 606:./Libraries/STM32F4xx_HAL_Driver/Src/stm32f4xx_hal_nor.c ****   * @brief  Writes a half-word buffer to the NOR memory. This function must be used 
 607:./Libraries/STM32F4xx_HAL_Driver/Src/stm32f4xx_hal_nor.c ****             only with S29GL128P NOR memory. 
 608:./Libraries/STM32F4xx_HAL_Driver/Src/stm32f4xx_hal_nor.c ****   * @param  hnor pointer to the NOR handle
 609:./Libraries/STM32F4xx_HAL_Driver/Src/stm32f4xx_hal_nor.c ****   * @param  uwAddress NOR memory internal start write address 
 610:./Libraries/STM32F4xx_HAL_Driver/Src/stm32f4xx_hal_nor.c ****   * @param  pData pointer to source data buffer. 
 611:./Libraries/STM32F4xx_HAL_Driver/Src/stm32f4xx_hal_nor.c ****   * @param  uwBufferSize Size of the buffer to write
 612:./Libraries/STM32F4xx_HAL_Driver/Src/stm32f4xx_hal_nor.c ****   * @retval HAL status
 613:./Libraries/STM32F4xx_HAL_Driver/Src/stm32f4xx_hal_nor.c ****   */ 
 614:./Libraries/STM32F4xx_HAL_Driver/Src/stm32f4xx_hal_nor.c **** HAL_StatusTypeDef HAL_NOR_ProgramBuffer(NOR_HandleTypeDef *hnor, uint32_t uwAddress, uint16_t *pDat
 615:./Libraries/STM32F4xx_HAL_Driver/Src/stm32f4xx_hal_nor.c **** {
 1303              		.loc 1 615 1
 1304              		.cfi_startproc
 1305              		@ args = 0, pretend = 0, frame = 32
 1306              		@ frame_needed = 1, uses_anonymous_args = 0
 1307              		@ link register save eliminated.
 1308 0000 80B4     		push	{r7}
 1309              	.LCFI58:
 1310              		.cfi_def_cfa_offset 4
 1311              		.cfi_offset 7, -4
 1312 0002 89B0     		sub	sp, sp, #36
 1313              	.LCFI59:
 1314              		.cfi_def_cfa_offset 40
 1315 0004 00AF     		add	r7, sp, #0
 1316              	.LCFI60:
 1317              		.cfi_def_cfa_register 7
 1318 0006 F860     		str	r0, [r7, #12]
 1319 0008 B960     		str	r1, [r7, #8]
 1320 000a 7A60     		str	r2, [r7, #4]
 1321 000c 3B60     		str	r3, [r7]
 616:./Libraries/STM32F4xx_HAL_Driver/Src/stm32f4xx_hal_nor.c ****   uint16_t * p_currentaddress = (uint16_t *)NULL;
 1322              		.loc 1 616 14
 1323 000e 0023     		movs	r3, #0
 1324 0010 FB61     		str	r3, [r7, #28]
 617:./Libraries/STM32F4xx_HAL_Driver/Src/stm32f4xx_hal_nor.c ****   uint16_t * p_endaddress = (uint16_t *)NULL;
 1325              		.loc 1 617 14
 1326 0012 0023     		movs	r3, #0
 1327 0014 3B61     		str	r3, [r7, #16]
 618:./Libraries/STM32F4xx_HAL_Driver/Src/stm32f4xx_hal_nor.c ****   uint32_t lastloadedaddress = 0U, deviceaddress = 0U;
 1328              		.loc 1 618 12
 1329 0016 0023     		movs	r3, #0
 1330 0018 BB61     		str	r3, [r7, #24]
 1331              		.loc 1 618 36
 1332 001a 0023     		movs	r3, #0
 1333 001c 7B61     		str	r3, [r7, #20]
 619:./Libraries/STM32F4xx_HAL_Driver/Src/stm32f4xx_hal_nor.c ****   
 620:./Libraries/STM32F4xx_HAL_Driver/Src/stm32f4xx_hal_nor.c ****   /* Process Locked */
 621:./Libraries/STM32F4xx_HAL_Driver/Src/stm32f4xx_hal_nor.c ****   __HAL_LOCK(hnor);
 1334              		.loc 1 621 3
 1335 001e FB68     		ldr	r3, [r7, #12]
 1336 0020 93F84830 		ldrb	r3, [r3, #72]	@ zero_extendqisi2
 1337 0024 012B     		cmp	r3, #1
 1338 0026 01D1     		bne	.L95
 1339              		.loc 1 621 3 is_stmt 0 discriminator 1
ARM GAS  /tmp/ccscUl47.s 			page 35


 1340 0028 0223     		movs	r3, #2
 1341 002a 8BE0     		b	.L96
 1342              	.L95:
 1343              		.loc 1 621 3 discriminator 2
 1344 002c FB68     		ldr	r3, [r7, #12]
 1345 002e 0122     		movs	r2, #1
 1346 0030 83F84820 		strb	r2, [r3, #72]
 622:./Libraries/STM32F4xx_HAL_Driver/Src/stm32f4xx_hal_nor.c ****   
 623:./Libraries/STM32F4xx_HAL_Driver/Src/stm32f4xx_hal_nor.c ****   /* Check the NOR controller state */
 624:./Libraries/STM32F4xx_HAL_Driver/Src/stm32f4xx_hal_nor.c ****   if(hnor->State == HAL_NOR_STATE_BUSY)
 1347              		.loc 1 624 10 is_stmt 1 discriminator 2
 1348 0034 FB68     		ldr	r3, [r7, #12]
 1349 0036 93F84930 		ldrb	r3, [r3, #73]
 1350 003a DBB2     		uxtb	r3, r3
 1351              		.loc 1 624 5 discriminator 2
 1352 003c 022B     		cmp	r3, #2
 1353 003e 01D1     		bne	.L97
 625:./Libraries/STM32F4xx_HAL_Driver/Src/stm32f4xx_hal_nor.c ****   {
 626:./Libraries/STM32F4xx_HAL_Driver/Src/stm32f4xx_hal_nor.c ****      return HAL_BUSY;
 1354              		.loc 1 626 13
 1355 0040 0223     		movs	r3, #2
 1356 0042 7FE0     		b	.L96
 1357              	.L97:
 627:./Libraries/STM32F4xx_HAL_Driver/Src/stm32f4xx_hal_nor.c ****   }
 628:./Libraries/STM32F4xx_HAL_Driver/Src/stm32f4xx_hal_nor.c ****   
 629:./Libraries/STM32F4xx_HAL_Driver/Src/stm32f4xx_hal_nor.c ****   /* Select the NOR device address */
 630:./Libraries/STM32F4xx_HAL_Driver/Src/stm32f4xx_hal_nor.c ****   if (hnor->Init.NSBank == FMC_NORSRAM_BANK1)
 1358              		.loc 1 630 17
 1359 0044 FB68     		ldr	r3, [r7, #12]
 1360 0046 9B68     		ldr	r3, [r3, #8]
 1361              		.loc 1 630 6
 1362 0048 002B     		cmp	r3, #0
 1363 004a 03D1     		bne	.L98
 631:./Libraries/STM32F4xx_HAL_Driver/Src/stm32f4xx_hal_nor.c ****   {
 632:./Libraries/STM32F4xx_HAL_Driver/Src/stm32f4xx_hal_nor.c ****     deviceaddress = NOR_MEMORY_ADRESS1;
 1364              		.loc 1 632 19
 1365 004c 4FF0C043 		mov	r3, #1610612736
 1366 0050 7B61     		str	r3, [r7, #20]
 1367 0052 12E0     		b	.L99
 1368              	.L98:
 633:./Libraries/STM32F4xx_HAL_Driver/Src/stm32f4xx_hal_nor.c ****   }
 634:./Libraries/STM32F4xx_HAL_Driver/Src/stm32f4xx_hal_nor.c ****   else if (hnor->Init.NSBank == FMC_NORSRAM_BANK2)
 1369              		.loc 1 634 22
 1370 0054 FB68     		ldr	r3, [r7, #12]
 1371 0056 9B68     		ldr	r3, [r3, #8]
 1372              		.loc 1 634 11
 1373 0058 022B     		cmp	r3, #2
 1374 005a 03D1     		bne	.L100
 635:./Libraries/STM32F4xx_HAL_Driver/Src/stm32f4xx_hal_nor.c ****   {
 636:./Libraries/STM32F4xx_HAL_Driver/Src/stm32f4xx_hal_nor.c ****     deviceaddress = NOR_MEMORY_ADRESS2;
 1375              		.loc 1 636 19
 1376 005c 4FF0C843 		mov	r3, #1677721600
 1377 0060 7B61     		str	r3, [r7, #20]
 1378 0062 0AE0     		b	.L99
 1379              	.L100:
 637:./Libraries/STM32F4xx_HAL_Driver/Src/stm32f4xx_hal_nor.c ****   }
 638:./Libraries/STM32F4xx_HAL_Driver/Src/stm32f4xx_hal_nor.c ****   else if (hnor->Init.NSBank == FMC_NORSRAM_BANK3)
ARM GAS  /tmp/ccscUl47.s 			page 36


 1380              		.loc 1 638 22
 1381 0064 FB68     		ldr	r3, [r7, #12]
 1382 0066 9B68     		ldr	r3, [r3, #8]
 1383              		.loc 1 638 11
 1384 0068 042B     		cmp	r3, #4
 1385 006a 03D1     		bne	.L101
 639:./Libraries/STM32F4xx_HAL_Driver/Src/stm32f4xx_hal_nor.c ****   {
 640:./Libraries/STM32F4xx_HAL_Driver/Src/stm32f4xx_hal_nor.c ****     deviceaddress = NOR_MEMORY_ADRESS3;
 1386              		.loc 1 640 19
 1387 006c 4FF0D043 		mov	r3, #1744830464
 1388 0070 7B61     		str	r3, [r7, #20]
 1389 0072 02E0     		b	.L99
 1390              	.L101:
 641:./Libraries/STM32F4xx_HAL_Driver/Src/stm32f4xx_hal_nor.c ****   }
 642:./Libraries/STM32F4xx_HAL_Driver/Src/stm32f4xx_hal_nor.c ****   else /* FMC_NORSRAM_BANK4 */
 643:./Libraries/STM32F4xx_HAL_Driver/Src/stm32f4xx_hal_nor.c ****   {
 644:./Libraries/STM32F4xx_HAL_Driver/Src/stm32f4xx_hal_nor.c ****     deviceaddress = NOR_MEMORY_ADRESS4;
 1391              		.loc 1 644 19
 1392 0074 4FF0D843 		mov	r3, #1811939328
 1393 0078 7B61     		str	r3, [r7, #20]
 1394              	.L99:
 645:./Libraries/STM32F4xx_HAL_Driver/Src/stm32f4xx_hal_nor.c ****   }  
 646:./Libraries/STM32F4xx_HAL_Driver/Src/stm32f4xx_hal_nor.c ****     
 647:./Libraries/STM32F4xx_HAL_Driver/Src/stm32f4xx_hal_nor.c ****   /* Update the NOR controller state */
 648:./Libraries/STM32F4xx_HAL_Driver/Src/stm32f4xx_hal_nor.c ****   hnor->State = HAL_NOR_STATE_BUSY;
 1395              		.loc 1 648 15
 1396 007a FB68     		ldr	r3, [r7, #12]
 1397 007c 0222     		movs	r2, #2
 1398 007e 83F84920 		strb	r2, [r3, #73]
 649:./Libraries/STM32F4xx_HAL_Driver/Src/stm32f4xx_hal_nor.c ****   
 650:./Libraries/STM32F4xx_HAL_Driver/Src/stm32f4xx_hal_nor.c ****   /* Initialize variables */
 651:./Libraries/STM32F4xx_HAL_Driver/Src/stm32f4xx_hal_nor.c ****   p_currentaddress  = (uint16_t*)((uint32_t)(uwAddress));
 1399              		.loc 1 651 21
 1400 0082 BB68     		ldr	r3, [r7, #8]
 1401 0084 FB61     		str	r3, [r7, #28]
 652:./Libraries/STM32F4xx_HAL_Driver/Src/stm32f4xx_hal_nor.c ****   p_endaddress      = p_currentaddress + (uwBufferSize-1U);
 1402              		.loc 1 652 40
 1403 0086 3B68     		ldr	r3, [r7]
 1404 0088 03F10043 		add	r3, r3, #-2147483648
 1405 008c 013B     		subs	r3, r3, #1
 1406 008e 5B00     		lsls	r3, r3, #1
 1407              		.loc 1 652 21
 1408 0090 FA69     		ldr	r2, [r7, #28]
 1409 0092 1344     		add	r3, r3, r2
 1410 0094 3B61     		str	r3, [r7, #16]
 653:./Libraries/STM32F4xx_HAL_Driver/Src/stm32f4xx_hal_nor.c ****   lastloadedaddress = (uint32_t)(uwAddress);
 1411              		.loc 1 653 21
 1412 0096 BB68     		ldr	r3, [r7, #8]
 1413 0098 BB61     		str	r3, [r7, #24]
 654:./Libraries/STM32F4xx_HAL_Driver/Src/stm32f4xx_hal_nor.c **** 
 655:./Libraries/STM32F4xx_HAL_Driver/Src/stm32f4xx_hal_nor.c ****   /* Issue unlock command sequence */
 656:./Libraries/STM32F4xx_HAL_Driver/Src/stm32f4xx_hal_nor.c ****   NOR_WRITE(NOR_ADDR_SHIFT(deviceaddress, uwNORMemoryDataWidth, NOR_CMD_ADDRESS_FIRST), NOR_CMD_DAT
 1414              		.loc 1 656 3
 1415 009a 2D4B     		ldr	r3, .L112
 1416 009c 1B68     		ldr	r3, [r3]
 1417 009e 012B     		cmp	r3, #1
 1418 00a0 03D1     		bne	.L102
ARM GAS  /tmp/ccscUl47.s 			page 37


 1419              		.loc 1 656 3 is_stmt 0 discriminator 1
 1420 00a2 7B69     		ldr	r3, [r7, #20]
 1421 00a4 03F6AA23 		addw	r3, r3, #2730
 1422 00a8 02E0     		b	.L103
 1423              	.L102:
 1424              		.loc 1 656 3 discriminator 2
 1425 00aa 7B69     		ldr	r3, [r7, #20]
 1426 00ac 03F25553 		addw	r3, r3, #1365
 1427              	.L103:
 1428              		.loc 1 656 3 discriminator 4
 1429 00b0 AA22     		movs	r2, #170
 1430 00b2 1A80     		strh	r2, [r3]	@ movhi
 657:./Libraries/STM32F4xx_HAL_Driver/Src/stm32f4xx_hal_nor.c ****   NOR_WRITE(NOR_ADDR_SHIFT(deviceaddress, uwNORMemoryDataWidth, NOR_CMD_ADDRESS_SECOND), NOR_CMD_DA
 1431              		.loc 1 657 3 is_stmt 1 discriminator 4
 1432 00b4 264B     		ldr	r3, .L112
 1433 00b6 1B68     		ldr	r3, [r3]
 1434 00b8 012B     		cmp	r3, #1
 1435 00ba 03D1     		bne	.L104
 1436              		.loc 1 657 3 is_stmt 0 discriminator 1
 1437 00bc 7B69     		ldr	r3, [r7, #20]
 1438 00be 03F25453 		addw	r3, r3, #1364
 1439 00c2 02E0     		b	.L105
 1440              	.L104:
 1441              		.loc 1 657 3 discriminator 2
 1442 00c4 7B69     		ldr	r3, [r7, #20]
 1443 00c6 03F2AA23 		addw	r3, r3, #682
 1444              	.L105:
 1445              		.loc 1 657 3 discriminator 4
 1446 00ca 5522     		movs	r2, #85
 1447 00cc 1A80     		strh	r2, [r3]	@ movhi
 658:./Libraries/STM32F4xx_HAL_Driver/Src/stm32f4xx_hal_nor.c **** 
 659:./Libraries/STM32F4xx_HAL_Driver/Src/stm32f4xx_hal_nor.c ****   /* Write Buffer Load Command */
 660:./Libraries/STM32F4xx_HAL_Driver/Src/stm32f4xx_hal_nor.c ****   NOR_WRITE(NOR_ADDR_SHIFT(deviceaddress, uwNORMemoryDataWidth, uwAddress), NOR_CMD_DATA_BUFFER_AND
 1448              		.loc 1 660 3 is_stmt 1 discriminator 4
 1449 00ce 204B     		ldr	r3, .L112
 1450 00d0 1B68     		ldr	r3, [r3]
 1451 00d2 012B     		cmp	r3, #1
 1452 00d4 04D1     		bne	.L106
 1453              		.loc 1 660 3 is_stmt 0 discriminator 1
 1454 00d6 BB68     		ldr	r3, [r7, #8]
 1455 00d8 5A00     		lsls	r2, r3, #1
 1456 00da 7B69     		ldr	r3, [r7, #20]
 1457 00dc 1344     		add	r3, r3, r2
 1458 00de 02E0     		b	.L107
 1459              	.L106:
 1460              		.loc 1 660 3 discriminator 2
 1461 00e0 7A69     		ldr	r2, [r7, #20]
 1462 00e2 BB68     		ldr	r3, [r7, #8]
 1463 00e4 1344     		add	r3, r3, r2
 1464              	.L107:
 1465              		.loc 1 660 3 discriminator 4
 1466 00e6 2522     		movs	r2, #37
 1467 00e8 1A80     		strh	r2, [r3]	@ movhi
 661:./Libraries/STM32F4xx_HAL_Driver/Src/stm32f4xx_hal_nor.c ****   NOR_WRITE(NOR_ADDR_SHIFT(deviceaddress, uwNORMemoryDataWidth, uwAddress), (uwBufferSize - 1U)); 
 1468              		.loc 1 661 3 is_stmt 1 discriminator 4
 1469 00ea 3B68     		ldr	r3, [r7]
 1470 00ec 9BB2     		uxth	r3, r3
ARM GAS  /tmp/ccscUl47.s 			page 38


 1471 00ee 184A     		ldr	r2, .L112
 1472 00f0 1268     		ldr	r2, [r2]
 1473 00f2 012A     		cmp	r2, #1
 1474 00f4 04D1     		bne	.L108
 1475              		.loc 1 661 3 is_stmt 0 discriminator 1
 1476 00f6 BA68     		ldr	r2, [r7, #8]
 1477 00f8 5100     		lsls	r1, r2, #1
 1478 00fa 7A69     		ldr	r2, [r7, #20]
 1479 00fc 0A44     		add	r2, r2, r1
 1480 00fe 02E0     		b	.L109
 1481              	.L108:
 1482              		.loc 1 661 3 discriminator 2
 1483 0100 7969     		ldr	r1, [r7, #20]
 1484 0102 BA68     		ldr	r2, [r7, #8]
 1485 0104 0A44     		add	r2, r2, r1
 1486              	.L109:
 1487              		.loc 1 661 3 discriminator 4
 1488 0106 013B     		subs	r3, r3, #1
 1489 0108 9BB2     		uxth	r3, r3
 1490 010a 1380     		strh	r3, [r2]	@ movhi
 662:./Libraries/STM32F4xx_HAL_Driver/Src/stm32f4xx_hal_nor.c **** 
 663:./Libraries/STM32F4xx_HAL_Driver/Src/stm32f4xx_hal_nor.c ****   /* Load Data into NOR Buffer */
 664:./Libraries/STM32F4xx_HAL_Driver/Src/stm32f4xx_hal_nor.c ****   while(p_currentaddress <= p_endaddress)
 1491              		.loc 1 664 8 is_stmt 1 discriminator 4
 1492 010c 0AE0     		b	.L110
 1493              	.L111:
 665:./Libraries/STM32F4xx_HAL_Driver/Src/stm32f4xx_hal_nor.c ****   {
 666:./Libraries/STM32F4xx_HAL_Driver/Src/stm32f4xx_hal_nor.c ****     /* Store last loaded address & data value (for polling) */
 667:./Libraries/STM32F4xx_HAL_Driver/Src/stm32f4xx_hal_nor.c ****      lastloadedaddress = (uint32_t)p_currentaddress;
 1494              		.loc 1 667 24
 1495 010e FB69     		ldr	r3, [r7, #28]
 1496 0110 BB61     		str	r3, [r7, #24]
 668:./Libraries/STM32F4xx_HAL_Driver/Src/stm32f4xx_hal_nor.c ****  
 669:./Libraries/STM32F4xx_HAL_Driver/Src/stm32f4xx_hal_nor.c ****     NOR_WRITE(p_currentaddress, *pData++);
 1497              		.loc 1 669 5
 1498 0112 7B68     		ldr	r3, [r7, #4]
 1499 0114 9A1C     		adds	r2, r3, #2
 1500 0116 7A60     		str	r2, [r7, #4]
 1501 0118 1A88     		ldrh	r2, [r3]
 1502 011a FB69     		ldr	r3, [r7, #28]
 1503 011c 1A80     		strh	r2, [r3]	@ movhi
 670:./Libraries/STM32F4xx_HAL_Driver/Src/stm32f4xx_hal_nor.c ****     
 671:./Libraries/STM32F4xx_HAL_Driver/Src/stm32f4xx_hal_nor.c ****     p_currentaddress ++; 
 1504              		.loc 1 671 22
 1505 011e FB69     		ldr	r3, [r7, #28]
 1506 0120 0233     		adds	r3, r3, #2
 1507 0122 FB61     		str	r3, [r7, #28]
 1508              	.L110:
 664:./Libraries/STM32F4xx_HAL_Driver/Src/stm32f4xx_hal_nor.c ****   {
 1509              		.loc 1 664 8
 1510 0124 FA69     		ldr	r2, [r7, #28]
 1511 0126 3B69     		ldr	r3, [r7, #16]
 1512 0128 9A42     		cmp	r2, r3
 1513 012a F0D9     		bls	.L111
 672:./Libraries/STM32F4xx_HAL_Driver/Src/stm32f4xx_hal_nor.c ****   }
 673:./Libraries/STM32F4xx_HAL_Driver/Src/stm32f4xx_hal_nor.c **** 
 674:./Libraries/STM32F4xx_HAL_Driver/Src/stm32f4xx_hal_nor.c ****   NOR_WRITE((uint32_t)(lastloadedaddress), NOR_CMD_DATA_BUFFER_AND_PROG_CONFIRM);
ARM GAS  /tmp/ccscUl47.s 			page 39


 1514              		.loc 1 674 3
 1515 012c BB69     		ldr	r3, [r7, #24]
 1516 012e 2922     		movs	r2, #41
 1517 0130 1A80     		strh	r2, [r3]	@ movhi
 675:./Libraries/STM32F4xx_HAL_Driver/Src/stm32f4xx_hal_nor.c ****   
 676:./Libraries/STM32F4xx_HAL_Driver/Src/stm32f4xx_hal_nor.c ****   /* Check the NOR controller state */
 677:./Libraries/STM32F4xx_HAL_Driver/Src/stm32f4xx_hal_nor.c ****   hnor->State = HAL_NOR_STATE_READY;
 1518              		.loc 1 677 15
 1519 0132 FB68     		ldr	r3, [r7, #12]
 1520 0134 0122     		movs	r2, #1
 1521 0136 83F84920 		strb	r2, [r3, #73]
 678:./Libraries/STM32F4xx_HAL_Driver/Src/stm32f4xx_hal_nor.c ****   
 679:./Libraries/STM32F4xx_HAL_Driver/Src/stm32f4xx_hal_nor.c ****   /* Process unlocked */
 680:./Libraries/STM32F4xx_HAL_Driver/Src/stm32f4xx_hal_nor.c ****   __HAL_UNLOCK(hnor);
 1522              		.loc 1 680 3
 1523 013a FB68     		ldr	r3, [r7, #12]
 1524 013c 0022     		movs	r2, #0
 1525 013e 83F84820 		strb	r2, [r3, #72]
 681:./Libraries/STM32F4xx_HAL_Driver/Src/stm32f4xx_hal_nor.c ****   
 682:./Libraries/STM32F4xx_HAL_Driver/Src/stm32f4xx_hal_nor.c ****   return HAL_OK; 
 1526              		.loc 1 682 10
 1527 0142 0023     		movs	r3, #0
 1528              	.L96:
 683:./Libraries/STM32F4xx_HAL_Driver/Src/stm32f4xx_hal_nor.c ****   
 684:./Libraries/STM32F4xx_HAL_Driver/Src/stm32f4xx_hal_nor.c **** }
 1529              		.loc 1 684 1
 1530 0144 1846     		mov	r0, r3
 1531 0146 2437     		adds	r7, r7, #36
 1532              	.LCFI61:
 1533              		.cfi_def_cfa_offset 4
 1534 0148 BD46     		mov	sp, r7
 1535              	.LCFI62:
 1536              		.cfi_def_cfa_register 13
 1537              		@ sp needed
 1538 014a 5DF8047B 		ldr	r7, [sp], #4
 1539              	.LCFI63:
 1540              		.cfi_restore 7
 1541              		.cfi_def_cfa_offset 0
 1542 014e 7047     		bx	lr
 1543              	.L113:
 1544              		.align	2
 1545              	.L112:
 1546 0150 00000000 		.word	uwNORMemoryDataWidth
 1547              		.cfi_endproc
 1548              	.LFE136:
 1550              		.section	.text.HAL_NOR_Erase_Block,"ax",%progbits
 1551              		.align	1
 1552              		.global	HAL_NOR_Erase_Block
 1553              		.syntax unified
 1554              		.thumb
 1555              		.thumb_func
 1556              		.fpu fpv4-sp-d16
 1558              	HAL_NOR_Erase_Block:
 1559              	.LFB137:
 685:./Libraries/STM32F4xx_HAL_Driver/Src/stm32f4xx_hal_nor.c **** 
 686:./Libraries/STM32F4xx_HAL_Driver/Src/stm32f4xx_hal_nor.c **** /**
 687:./Libraries/STM32F4xx_HAL_Driver/Src/stm32f4xx_hal_nor.c ****   * @brief  Erase the specified block of the NOR memory 
ARM GAS  /tmp/ccscUl47.s 			page 40


 688:./Libraries/STM32F4xx_HAL_Driver/Src/stm32f4xx_hal_nor.c ****   * @param  hnor pointer to a NOR_HandleTypeDef structure that contains
 689:./Libraries/STM32F4xx_HAL_Driver/Src/stm32f4xx_hal_nor.c ****   *                the configuration information for NOR module.
 690:./Libraries/STM32F4xx_HAL_Driver/Src/stm32f4xx_hal_nor.c ****   * @param  BlockAddress  Block to erase address 
 691:./Libraries/STM32F4xx_HAL_Driver/Src/stm32f4xx_hal_nor.c ****   * @param  Address Device address
 692:./Libraries/STM32F4xx_HAL_Driver/Src/stm32f4xx_hal_nor.c ****   * @retval HAL status
 693:./Libraries/STM32F4xx_HAL_Driver/Src/stm32f4xx_hal_nor.c ****   */
 694:./Libraries/STM32F4xx_HAL_Driver/Src/stm32f4xx_hal_nor.c **** HAL_StatusTypeDef HAL_NOR_Erase_Block(NOR_HandleTypeDef *hnor, uint32_t BlockAddress, uint32_t Addr
 695:./Libraries/STM32F4xx_HAL_Driver/Src/stm32f4xx_hal_nor.c **** {
 1560              		.loc 1 695 1
 1561              		.cfi_startproc
 1562              		@ args = 0, pretend = 0, frame = 24
 1563              		@ frame_needed = 1, uses_anonymous_args = 0
 1564              		@ link register save eliminated.
 1565 0000 80B4     		push	{r7}
 1566              	.LCFI64:
 1567              		.cfi_def_cfa_offset 4
 1568              		.cfi_offset 7, -4
 1569 0002 87B0     		sub	sp, sp, #28
 1570              	.LCFI65:
 1571              		.cfi_def_cfa_offset 32
 1572 0004 00AF     		add	r7, sp, #0
 1573              	.LCFI66:
 1574              		.cfi_def_cfa_register 7
 1575 0006 F860     		str	r0, [r7, #12]
 1576 0008 B960     		str	r1, [r7, #8]
 1577 000a 7A60     		str	r2, [r7, #4]
 696:./Libraries/STM32F4xx_HAL_Driver/Src/stm32f4xx_hal_nor.c ****   uint32_t deviceaddress = 0U;
 1578              		.loc 1 696 12
 1579 000c 0023     		movs	r3, #0
 1580 000e 7B61     		str	r3, [r7, #20]
 697:./Libraries/STM32F4xx_HAL_Driver/Src/stm32f4xx_hal_nor.c **** 
 698:./Libraries/STM32F4xx_HAL_Driver/Src/stm32f4xx_hal_nor.c ****   /* Process Locked */
 699:./Libraries/STM32F4xx_HAL_Driver/Src/stm32f4xx_hal_nor.c ****   __HAL_LOCK(hnor);
 1581              		.loc 1 699 3
 1582 0010 FB68     		ldr	r3, [r7, #12]
 1583 0012 93F84830 		ldrb	r3, [r3, #72]	@ zero_extendqisi2
 1584 0016 012B     		cmp	r3, #1
 1585 0018 01D1     		bne	.L115
 1586              		.loc 1 699 3 is_stmt 0 discriminator 1
 1587 001a 0223     		movs	r3, #2
 1588 001c 79E0     		b	.L116
 1589              	.L115:
 1590              		.loc 1 699 3 discriminator 2
 1591 001e FB68     		ldr	r3, [r7, #12]
 1592 0020 0122     		movs	r2, #1
 1593 0022 83F84820 		strb	r2, [r3, #72]
 700:./Libraries/STM32F4xx_HAL_Driver/Src/stm32f4xx_hal_nor.c ****   
 701:./Libraries/STM32F4xx_HAL_Driver/Src/stm32f4xx_hal_nor.c ****   /* Check the NOR controller state */
 702:./Libraries/STM32F4xx_HAL_Driver/Src/stm32f4xx_hal_nor.c ****   if(hnor->State == HAL_NOR_STATE_BUSY)
 1594              		.loc 1 702 10 is_stmt 1 discriminator 2
 1595 0026 FB68     		ldr	r3, [r7, #12]
 1596 0028 93F84930 		ldrb	r3, [r3, #73]
 1597 002c DBB2     		uxtb	r3, r3
 1598              		.loc 1 702 5 discriminator 2
 1599 002e 022B     		cmp	r3, #2
 1600 0030 01D1     		bne	.L117
 703:./Libraries/STM32F4xx_HAL_Driver/Src/stm32f4xx_hal_nor.c ****   {
ARM GAS  /tmp/ccscUl47.s 			page 41


 704:./Libraries/STM32F4xx_HAL_Driver/Src/stm32f4xx_hal_nor.c ****      return HAL_BUSY;
 1601              		.loc 1 704 13
 1602 0032 0223     		movs	r3, #2
 1603 0034 6DE0     		b	.L116
 1604              	.L117:
 705:./Libraries/STM32F4xx_HAL_Driver/Src/stm32f4xx_hal_nor.c ****   }
 706:./Libraries/STM32F4xx_HAL_Driver/Src/stm32f4xx_hal_nor.c ****   
 707:./Libraries/STM32F4xx_HAL_Driver/Src/stm32f4xx_hal_nor.c ****   /* Select the NOR device address */
 708:./Libraries/STM32F4xx_HAL_Driver/Src/stm32f4xx_hal_nor.c ****   if (hnor->Init.NSBank == FMC_NORSRAM_BANK1)
 1605              		.loc 1 708 17
 1606 0036 FB68     		ldr	r3, [r7, #12]
 1607 0038 9B68     		ldr	r3, [r3, #8]
 1608              		.loc 1 708 6
 1609 003a 002B     		cmp	r3, #0
 1610 003c 03D1     		bne	.L118
 709:./Libraries/STM32F4xx_HAL_Driver/Src/stm32f4xx_hal_nor.c ****   {
 710:./Libraries/STM32F4xx_HAL_Driver/Src/stm32f4xx_hal_nor.c ****     deviceaddress = NOR_MEMORY_ADRESS1;
 1611              		.loc 1 710 19
 1612 003e 4FF0C043 		mov	r3, #1610612736
 1613 0042 7B61     		str	r3, [r7, #20]
 1614 0044 12E0     		b	.L119
 1615              	.L118:
 711:./Libraries/STM32F4xx_HAL_Driver/Src/stm32f4xx_hal_nor.c ****   }
 712:./Libraries/STM32F4xx_HAL_Driver/Src/stm32f4xx_hal_nor.c ****   else if (hnor->Init.NSBank == FMC_NORSRAM_BANK2)
 1616              		.loc 1 712 22
 1617 0046 FB68     		ldr	r3, [r7, #12]
 1618 0048 9B68     		ldr	r3, [r3, #8]
 1619              		.loc 1 712 11
 1620 004a 022B     		cmp	r3, #2
 1621 004c 03D1     		bne	.L120
 713:./Libraries/STM32F4xx_HAL_Driver/Src/stm32f4xx_hal_nor.c ****   {
 714:./Libraries/STM32F4xx_HAL_Driver/Src/stm32f4xx_hal_nor.c ****     deviceaddress = NOR_MEMORY_ADRESS2;
 1622              		.loc 1 714 19
 1623 004e 4FF0C843 		mov	r3, #1677721600
 1624 0052 7B61     		str	r3, [r7, #20]
 1625 0054 0AE0     		b	.L119
 1626              	.L120:
 715:./Libraries/STM32F4xx_HAL_Driver/Src/stm32f4xx_hal_nor.c ****   }
 716:./Libraries/STM32F4xx_HAL_Driver/Src/stm32f4xx_hal_nor.c ****   else if (hnor->Init.NSBank == FMC_NORSRAM_BANK3)
 1627              		.loc 1 716 22
 1628 0056 FB68     		ldr	r3, [r7, #12]
 1629 0058 9B68     		ldr	r3, [r3, #8]
 1630              		.loc 1 716 11
 1631 005a 042B     		cmp	r3, #4
 1632 005c 03D1     		bne	.L121
 717:./Libraries/STM32F4xx_HAL_Driver/Src/stm32f4xx_hal_nor.c ****   {
 718:./Libraries/STM32F4xx_HAL_Driver/Src/stm32f4xx_hal_nor.c ****     deviceaddress = NOR_MEMORY_ADRESS3;
 1633              		.loc 1 718 19
 1634 005e 4FF0D043 		mov	r3, #1744830464
 1635 0062 7B61     		str	r3, [r7, #20]
 1636 0064 02E0     		b	.L119
 1637              	.L121:
 719:./Libraries/STM32F4xx_HAL_Driver/Src/stm32f4xx_hal_nor.c ****   }
 720:./Libraries/STM32F4xx_HAL_Driver/Src/stm32f4xx_hal_nor.c ****   else /* FMC_NORSRAM_BANK4 */
 721:./Libraries/STM32F4xx_HAL_Driver/Src/stm32f4xx_hal_nor.c ****   {
 722:./Libraries/STM32F4xx_HAL_Driver/Src/stm32f4xx_hal_nor.c ****     deviceaddress = NOR_MEMORY_ADRESS4;
 1638              		.loc 1 722 19
ARM GAS  /tmp/ccscUl47.s 			page 42


 1639 0066 4FF0D843 		mov	r3, #1811939328
 1640 006a 7B61     		str	r3, [r7, #20]
 1641              	.L119:
 723:./Libraries/STM32F4xx_HAL_Driver/Src/stm32f4xx_hal_nor.c ****   }
 724:./Libraries/STM32F4xx_HAL_Driver/Src/stm32f4xx_hal_nor.c ****     
 725:./Libraries/STM32F4xx_HAL_Driver/Src/stm32f4xx_hal_nor.c ****   /* Update the NOR controller state */
 726:./Libraries/STM32F4xx_HAL_Driver/Src/stm32f4xx_hal_nor.c ****   hnor->State = HAL_NOR_STATE_BUSY;
 1642              		.loc 1 726 15
 1643 006c FB68     		ldr	r3, [r7, #12]
 1644 006e 0222     		movs	r2, #2
 1645 0070 83F84920 		strb	r2, [r3, #73]
 727:./Libraries/STM32F4xx_HAL_Driver/Src/stm32f4xx_hal_nor.c ****   
 728:./Libraries/STM32F4xx_HAL_Driver/Src/stm32f4xx_hal_nor.c ****   /* Send block erase command sequence */
 729:./Libraries/STM32F4xx_HAL_Driver/Src/stm32f4xx_hal_nor.c ****   NOR_WRITE(NOR_ADDR_SHIFT(deviceaddress, uwNORMemoryDataWidth, NOR_CMD_ADDRESS_FIRST), NOR_CMD_DAT
 1646              		.loc 1 729 3
 1647 0074 2A4B     		ldr	r3, .L132
 1648 0076 1B68     		ldr	r3, [r3]
 1649 0078 012B     		cmp	r3, #1
 1650 007a 03D1     		bne	.L122
 1651              		.loc 1 729 3 is_stmt 0 discriminator 1
 1652 007c 7B69     		ldr	r3, [r7, #20]
 1653 007e 03F6AA23 		addw	r3, r3, #2730
 1654 0082 02E0     		b	.L123
 1655              	.L122:
 1656              		.loc 1 729 3 discriminator 2
 1657 0084 7B69     		ldr	r3, [r7, #20]
 1658 0086 03F25553 		addw	r3, r3, #1365
 1659              	.L123:
 1660              		.loc 1 729 3 discriminator 4
 1661 008a AA22     		movs	r2, #170
 1662 008c 1A80     		strh	r2, [r3]	@ movhi
 730:./Libraries/STM32F4xx_HAL_Driver/Src/stm32f4xx_hal_nor.c ****   NOR_WRITE(NOR_ADDR_SHIFT(deviceaddress, uwNORMemoryDataWidth, NOR_CMD_ADDRESS_SECOND), NOR_CMD_DA
 1663              		.loc 1 730 3 is_stmt 1 discriminator 4
 1664 008e 244B     		ldr	r3, .L132
 1665 0090 1B68     		ldr	r3, [r3]
 1666 0092 012B     		cmp	r3, #1
 1667 0094 03D1     		bne	.L124
 1668              		.loc 1 730 3 is_stmt 0 discriminator 1
 1669 0096 7B69     		ldr	r3, [r7, #20]
 1670 0098 03F25453 		addw	r3, r3, #1364
 1671 009c 02E0     		b	.L125
 1672              	.L124:
 1673              		.loc 1 730 3 discriminator 2
 1674 009e 7B69     		ldr	r3, [r7, #20]
 1675 00a0 03F2AA23 		addw	r3, r3, #682
 1676              	.L125:
 1677              		.loc 1 730 3 discriminator 4
 1678 00a4 5522     		movs	r2, #85
 1679 00a6 1A80     		strh	r2, [r3]	@ movhi
 731:./Libraries/STM32F4xx_HAL_Driver/Src/stm32f4xx_hal_nor.c ****   NOR_WRITE(NOR_ADDR_SHIFT(deviceaddress, uwNORMemoryDataWidth, NOR_CMD_ADDRESS_THIRD), NOR_CMD_DAT
 1680              		.loc 1 731 3 is_stmt 1 discriminator 4
 1681 00a8 1D4B     		ldr	r3, .L132
 1682 00aa 1B68     		ldr	r3, [r3]
 1683 00ac 012B     		cmp	r3, #1
 1684 00ae 03D1     		bne	.L126
 1685              		.loc 1 731 3 is_stmt 0 discriminator 1
 1686 00b0 7B69     		ldr	r3, [r7, #20]
ARM GAS  /tmp/ccscUl47.s 			page 43


 1687 00b2 03F6AA23 		addw	r3, r3, #2730
 1688 00b6 02E0     		b	.L127
 1689              	.L126:
 1690              		.loc 1 731 3 discriminator 2
 1691 00b8 7B69     		ldr	r3, [r7, #20]
 1692 00ba 03F25553 		addw	r3, r3, #1365
 1693              	.L127:
 1694              		.loc 1 731 3 discriminator 4
 1695 00be 8022     		movs	r2, #128
 1696 00c0 1A80     		strh	r2, [r3]	@ movhi
 732:./Libraries/STM32F4xx_HAL_Driver/Src/stm32f4xx_hal_nor.c ****   NOR_WRITE(NOR_ADDR_SHIFT(deviceaddress, uwNORMemoryDataWidth, NOR_CMD_ADDRESS_FOURTH), NOR_CMD_DA
 1697              		.loc 1 732 3 is_stmt 1 discriminator 4
 1698 00c2 174B     		ldr	r3, .L132
 1699 00c4 1B68     		ldr	r3, [r3]
 1700 00c6 012B     		cmp	r3, #1
 1701 00c8 03D1     		bne	.L128
 1702              		.loc 1 732 3 is_stmt 0 discriminator 1
 1703 00ca 7B69     		ldr	r3, [r7, #20]
 1704 00cc 03F6AA23 		addw	r3, r3, #2730
 1705 00d0 02E0     		b	.L129
 1706              	.L128:
 1707              		.loc 1 732 3 discriminator 2
 1708 00d2 7B69     		ldr	r3, [r7, #20]
 1709 00d4 03F25553 		addw	r3, r3, #1365
 1710              	.L129:
 1711              		.loc 1 732 3 discriminator 4
 1712 00d8 AA22     		movs	r2, #170
 1713 00da 1A80     		strh	r2, [r3]	@ movhi
 733:./Libraries/STM32F4xx_HAL_Driver/Src/stm32f4xx_hal_nor.c ****   NOR_WRITE(NOR_ADDR_SHIFT(deviceaddress, uwNORMemoryDataWidth, NOR_CMD_ADDRESS_FIFTH), NOR_CMD_DAT
 1714              		.loc 1 733 3 is_stmt 1 discriminator 4
 1715 00dc 104B     		ldr	r3, .L132
 1716 00de 1B68     		ldr	r3, [r3]
 1717 00e0 012B     		cmp	r3, #1
 1718 00e2 03D1     		bne	.L130
 1719              		.loc 1 733 3 is_stmt 0 discriminator 1
 1720 00e4 7B69     		ldr	r3, [r7, #20]
 1721 00e6 03F25453 		addw	r3, r3, #1364
 1722 00ea 02E0     		b	.L131
 1723              	.L130:
 1724              		.loc 1 733 3 discriminator 2
 1725 00ec 7B69     		ldr	r3, [r7, #20]
 1726 00ee 03F2AA23 		addw	r3, r3, #682
 1727              	.L131:
 1728              		.loc 1 733 3 discriminator 4
 1729 00f2 5522     		movs	r2, #85
 1730 00f4 1A80     		strh	r2, [r3]	@ movhi
 734:./Libraries/STM32F4xx_HAL_Driver/Src/stm32f4xx_hal_nor.c ****   NOR_WRITE((uint32_t)(BlockAddress + Address), NOR_CMD_DATA_BLOCK_ERASE);
 1731              		.loc 1 734 3 is_stmt 1 discriminator 4
 1732 00f6 BA68     		ldr	r2, [r7, #8]
 1733 00f8 7B68     		ldr	r3, [r7, #4]
 1734 00fa 1344     		add	r3, r3, r2
 1735 00fc 3022     		movs	r2, #48
 1736 00fe 1A80     		strh	r2, [r3]	@ movhi
 735:./Libraries/STM32F4xx_HAL_Driver/Src/stm32f4xx_hal_nor.c **** 
 736:./Libraries/STM32F4xx_HAL_Driver/Src/stm32f4xx_hal_nor.c ****   /* Check the NOR memory status and update the controller state */
 737:./Libraries/STM32F4xx_HAL_Driver/Src/stm32f4xx_hal_nor.c ****   hnor->State = HAL_NOR_STATE_READY;
 1737              		.loc 1 737 15 discriminator 4
ARM GAS  /tmp/ccscUl47.s 			page 44


 1738 0100 FB68     		ldr	r3, [r7, #12]
 1739 0102 0122     		movs	r2, #1
 1740 0104 83F84920 		strb	r2, [r3, #73]
 738:./Libraries/STM32F4xx_HAL_Driver/Src/stm32f4xx_hal_nor.c ****     
 739:./Libraries/STM32F4xx_HAL_Driver/Src/stm32f4xx_hal_nor.c ****   /* Process unlocked */
 740:./Libraries/STM32F4xx_HAL_Driver/Src/stm32f4xx_hal_nor.c ****   __HAL_UNLOCK(hnor);
 1741              		.loc 1 740 3 discriminator 4
 1742 0108 FB68     		ldr	r3, [r7, #12]
 1743 010a 0022     		movs	r2, #0
 1744 010c 83F84820 		strb	r2, [r3, #72]
 741:./Libraries/STM32F4xx_HAL_Driver/Src/stm32f4xx_hal_nor.c ****   
 742:./Libraries/STM32F4xx_HAL_Driver/Src/stm32f4xx_hal_nor.c ****   return HAL_OK;
 1745              		.loc 1 742 10 discriminator 4
 1746 0110 0023     		movs	r3, #0
 1747              	.L116:
 743:./Libraries/STM32F4xx_HAL_Driver/Src/stm32f4xx_hal_nor.c ****  
 744:./Libraries/STM32F4xx_HAL_Driver/Src/stm32f4xx_hal_nor.c **** }
 1748              		.loc 1 744 1
 1749 0112 1846     		mov	r0, r3
 1750 0114 1C37     		adds	r7, r7, #28
 1751              	.LCFI67:
 1752              		.cfi_def_cfa_offset 4
 1753 0116 BD46     		mov	sp, r7
 1754              	.LCFI68:
 1755              		.cfi_def_cfa_register 13
 1756              		@ sp needed
 1757 0118 5DF8047B 		ldr	r7, [sp], #4
 1758              	.LCFI69:
 1759              		.cfi_restore 7
 1760              		.cfi_def_cfa_offset 0
 1761 011c 7047     		bx	lr
 1762              	.L133:
 1763 011e 00BF     		.align	2
 1764              	.L132:
 1765 0120 00000000 		.word	uwNORMemoryDataWidth
 1766              		.cfi_endproc
 1767              	.LFE137:
 1769              		.section	.text.HAL_NOR_Erase_Chip,"ax",%progbits
 1770              		.align	1
 1771              		.global	HAL_NOR_Erase_Chip
 1772              		.syntax unified
 1773              		.thumb
 1774              		.thumb_func
 1775              		.fpu fpv4-sp-d16
 1777              	HAL_NOR_Erase_Chip:
 1778              	.LFB138:
 745:./Libraries/STM32F4xx_HAL_Driver/Src/stm32f4xx_hal_nor.c **** 
 746:./Libraries/STM32F4xx_HAL_Driver/Src/stm32f4xx_hal_nor.c **** /**
 747:./Libraries/STM32F4xx_HAL_Driver/Src/stm32f4xx_hal_nor.c ****   * @brief  Erase the entire NOR chip.
 748:./Libraries/STM32F4xx_HAL_Driver/Src/stm32f4xx_hal_nor.c ****   * @param  hnor pointer to a NOR_HandleTypeDef structure that contains
 749:./Libraries/STM32F4xx_HAL_Driver/Src/stm32f4xx_hal_nor.c ****   *                the configuration information for NOR module.
 750:./Libraries/STM32F4xx_HAL_Driver/Src/stm32f4xx_hal_nor.c ****   * @param  Address  Device address  
 751:./Libraries/STM32F4xx_HAL_Driver/Src/stm32f4xx_hal_nor.c ****   * @retval HAL status
 752:./Libraries/STM32F4xx_HAL_Driver/Src/stm32f4xx_hal_nor.c ****   */
 753:./Libraries/STM32F4xx_HAL_Driver/Src/stm32f4xx_hal_nor.c **** HAL_StatusTypeDef HAL_NOR_Erase_Chip(NOR_HandleTypeDef *hnor, uint32_t Address)
 754:./Libraries/STM32F4xx_HAL_Driver/Src/stm32f4xx_hal_nor.c **** {
 1779              		.loc 1 754 1
ARM GAS  /tmp/ccscUl47.s 			page 45


 1780              		.cfi_startproc
 1781              		@ args = 0, pretend = 0, frame = 16
 1782              		@ frame_needed = 1, uses_anonymous_args = 0
 1783              		@ link register save eliminated.
 1784 0000 80B4     		push	{r7}
 1785              	.LCFI70:
 1786              		.cfi_def_cfa_offset 4
 1787              		.cfi_offset 7, -4
 1788 0002 85B0     		sub	sp, sp, #20
 1789              	.LCFI71:
 1790              		.cfi_def_cfa_offset 24
 1791 0004 00AF     		add	r7, sp, #0
 1792              	.LCFI72:
 1793              		.cfi_def_cfa_register 7
 1794 0006 7860     		str	r0, [r7, #4]
 1795 0008 3960     		str	r1, [r7]
 755:./Libraries/STM32F4xx_HAL_Driver/Src/stm32f4xx_hal_nor.c ****   uint32_t deviceaddress = 0U;
 1796              		.loc 1 755 12
 1797 000a 0023     		movs	r3, #0
 1798 000c FB60     		str	r3, [r7, #12]
 756:./Libraries/STM32F4xx_HAL_Driver/Src/stm32f4xx_hal_nor.c ****   
 757:./Libraries/STM32F4xx_HAL_Driver/Src/stm32f4xx_hal_nor.c ****   /* Prevent unused argument(s) compilation warning */
 758:./Libraries/STM32F4xx_HAL_Driver/Src/stm32f4xx_hal_nor.c ****   UNUSED(Address);
 759:./Libraries/STM32F4xx_HAL_Driver/Src/stm32f4xx_hal_nor.c ****   
 760:./Libraries/STM32F4xx_HAL_Driver/Src/stm32f4xx_hal_nor.c ****   /* Process Locked */
 761:./Libraries/STM32F4xx_HAL_Driver/Src/stm32f4xx_hal_nor.c ****   __HAL_LOCK(hnor);
 1799              		.loc 1 761 3
 1800 000e 7B68     		ldr	r3, [r7, #4]
 1801 0010 93F84830 		ldrb	r3, [r3, #72]	@ zero_extendqisi2
 1802 0014 012B     		cmp	r3, #1
 1803 0016 01D1     		bne	.L135
 1804              		.loc 1 761 3 is_stmt 0 discriminator 1
 1805 0018 0223     		movs	r3, #2
 1806 001a 81E0     		b	.L136
 1807              	.L135:
 1808              		.loc 1 761 3 discriminator 2
 1809 001c 7B68     		ldr	r3, [r7, #4]
 1810 001e 0122     		movs	r2, #1
 1811 0020 83F84820 		strb	r2, [r3, #72]
 762:./Libraries/STM32F4xx_HAL_Driver/Src/stm32f4xx_hal_nor.c ****   
 763:./Libraries/STM32F4xx_HAL_Driver/Src/stm32f4xx_hal_nor.c ****   /* Check the NOR controller state */
 764:./Libraries/STM32F4xx_HAL_Driver/Src/stm32f4xx_hal_nor.c ****   if(hnor->State == HAL_NOR_STATE_BUSY)
 1812              		.loc 1 764 10 is_stmt 1 discriminator 2
 1813 0024 7B68     		ldr	r3, [r7, #4]
 1814 0026 93F84930 		ldrb	r3, [r3, #73]
 1815 002a DBB2     		uxtb	r3, r3
 1816              		.loc 1 764 5 discriminator 2
 1817 002c 022B     		cmp	r3, #2
 1818 002e 01D1     		bne	.L137
 765:./Libraries/STM32F4xx_HAL_Driver/Src/stm32f4xx_hal_nor.c ****   {
 766:./Libraries/STM32F4xx_HAL_Driver/Src/stm32f4xx_hal_nor.c ****      return HAL_BUSY;
 1819              		.loc 1 766 13
 1820 0030 0223     		movs	r3, #2
 1821 0032 75E0     		b	.L136
 1822              	.L137:
 767:./Libraries/STM32F4xx_HAL_Driver/Src/stm32f4xx_hal_nor.c ****   }
 768:./Libraries/STM32F4xx_HAL_Driver/Src/stm32f4xx_hal_nor.c ****   
ARM GAS  /tmp/ccscUl47.s 			page 46


 769:./Libraries/STM32F4xx_HAL_Driver/Src/stm32f4xx_hal_nor.c ****   /* Select the NOR device address */
 770:./Libraries/STM32F4xx_HAL_Driver/Src/stm32f4xx_hal_nor.c ****   if (hnor->Init.NSBank == FMC_NORSRAM_BANK1)
 1823              		.loc 1 770 17
 1824 0034 7B68     		ldr	r3, [r7, #4]
 1825 0036 9B68     		ldr	r3, [r3, #8]
 1826              		.loc 1 770 6
 1827 0038 002B     		cmp	r3, #0
 1828 003a 03D1     		bne	.L138
 771:./Libraries/STM32F4xx_HAL_Driver/Src/stm32f4xx_hal_nor.c ****   {
 772:./Libraries/STM32F4xx_HAL_Driver/Src/stm32f4xx_hal_nor.c ****     deviceaddress = NOR_MEMORY_ADRESS1;
 1829              		.loc 1 772 19
 1830 003c 4FF0C043 		mov	r3, #1610612736
 1831 0040 FB60     		str	r3, [r7, #12]
 1832 0042 12E0     		b	.L139
 1833              	.L138:
 773:./Libraries/STM32F4xx_HAL_Driver/Src/stm32f4xx_hal_nor.c ****   }
 774:./Libraries/STM32F4xx_HAL_Driver/Src/stm32f4xx_hal_nor.c ****   else if (hnor->Init.NSBank == FMC_NORSRAM_BANK2)
 1834              		.loc 1 774 22
 1835 0044 7B68     		ldr	r3, [r7, #4]
 1836 0046 9B68     		ldr	r3, [r3, #8]
 1837              		.loc 1 774 11
 1838 0048 022B     		cmp	r3, #2
 1839 004a 03D1     		bne	.L140
 775:./Libraries/STM32F4xx_HAL_Driver/Src/stm32f4xx_hal_nor.c ****   {
 776:./Libraries/STM32F4xx_HAL_Driver/Src/stm32f4xx_hal_nor.c ****     deviceaddress = NOR_MEMORY_ADRESS2;
 1840              		.loc 1 776 19
 1841 004c 4FF0C843 		mov	r3, #1677721600
 1842 0050 FB60     		str	r3, [r7, #12]
 1843 0052 0AE0     		b	.L139
 1844              	.L140:
 777:./Libraries/STM32F4xx_HAL_Driver/Src/stm32f4xx_hal_nor.c ****   }
 778:./Libraries/STM32F4xx_HAL_Driver/Src/stm32f4xx_hal_nor.c ****   else if (hnor->Init.NSBank == FMC_NORSRAM_BANK3)
 1845              		.loc 1 778 22
 1846 0054 7B68     		ldr	r3, [r7, #4]
 1847 0056 9B68     		ldr	r3, [r3, #8]
 1848              		.loc 1 778 11
 1849 0058 042B     		cmp	r3, #4
 1850 005a 03D1     		bne	.L141
 779:./Libraries/STM32F4xx_HAL_Driver/Src/stm32f4xx_hal_nor.c ****   {
 780:./Libraries/STM32F4xx_HAL_Driver/Src/stm32f4xx_hal_nor.c ****     deviceaddress = NOR_MEMORY_ADRESS3;
 1851              		.loc 1 780 19
 1852 005c 4FF0D043 		mov	r3, #1744830464
 1853 0060 FB60     		str	r3, [r7, #12]
 1854 0062 02E0     		b	.L139
 1855              	.L141:
 781:./Libraries/STM32F4xx_HAL_Driver/Src/stm32f4xx_hal_nor.c ****   }
 782:./Libraries/STM32F4xx_HAL_Driver/Src/stm32f4xx_hal_nor.c ****   else /* FMC_NORSRAM_BANK4 */
 783:./Libraries/STM32F4xx_HAL_Driver/Src/stm32f4xx_hal_nor.c ****   {
 784:./Libraries/STM32F4xx_HAL_Driver/Src/stm32f4xx_hal_nor.c ****     deviceaddress = NOR_MEMORY_ADRESS4;
 1856              		.loc 1 784 19
 1857 0064 4FF0D843 		mov	r3, #1811939328
 1858 0068 FB60     		str	r3, [r7, #12]
 1859              	.L139:
 785:./Libraries/STM32F4xx_HAL_Driver/Src/stm32f4xx_hal_nor.c ****   }
 786:./Libraries/STM32F4xx_HAL_Driver/Src/stm32f4xx_hal_nor.c ****     
 787:./Libraries/STM32F4xx_HAL_Driver/Src/stm32f4xx_hal_nor.c ****   /* Update the NOR controller state */
 788:./Libraries/STM32F4xx_HAL_Driver/Src/stm32f4xx_hal_nor.c ****   hnor->State = HAL_NOR_STATE_BUSY;  
ARM GAS  /tmp/ccscUl47.s 			page 47


 1860              		.loc 1 788 15
 1861 006a 7B68     		ldr	r3, [r7, #4]
 1862 006c 0222     		movs	r2, #2
 1863 006e 83F84920 		strb	r2, [r3, #73]
 789:./Libraries/STM32F4xx_HAL_Driver/Src/stm32f4xx_hal_nor.c ****     
 790:./Libraries/STM32F4xx_HAL_Driver/Src/stm32f4xx_hal_nor.c ****   /* Send NOR chip erase command sequence */
 791:./Libraries/STM32F4xx_HAL_Driver/Src/stm32f4xx_hal_nor.c ****   NOR_WRITE(NOR_ADDR_SHIFT(deviceaddress, uwNORMemoryDataWidth, NOR_CMD_ADDRESS_FIRST), NOR_CMD_DAT
 1864              		.loc 1 791 3
 1865 0072 2E4B     		ldr	r3, .L154
 1866 0074 1B68     		ldr	r3, [r3]
 1867 0076 012B     		cmp	r3, #1
 1868 0078 03D1     		bne	.L142
 1869              		.loc 1 791 3 is_stmt 0 discriminator 1
 1870 007a FB68     		ldr	r3, [r7, #12]
 1871 007c 03F6AA23 		addw	r3, r3, #2730
 1872 0080 02E0     		b	.L143
 1873              	.L142:
 1874              		.loc 1 791 3 discriminator 2
 1875 0082 FB68     		ldr	r3, [r7, #12]
 1876 0084 03F25553 		addw	r3, r3, #1365
 1877              	.L143:
 1878              		.loc 1 791 3 discriminator 4
 1879 0088 AA22     		movs	r2, #170
 1880 008a 1A80     		strh	r2, [r3]	@ movhi
 792:./Libraries/STM32F4xx_HAL_Driver/Src/stm32f4xx_hal_nor.c ****   NOR_WRITE(NOR_ADDR_SHIFT(deviceaddress, uwNORMemoryDataWidth, NOR_CMD_ADDRESS_SECOND), NOR_CMD_DA
 1881              		.loc 1 792 3 is_stmt 1 discriminator 4
 1882 008c 274B     		ldr	r3, .L154
 1883 008e 1B68     		ldr	r3, [r3]
 1884 0090 012B     		cmp	r3, #1
 1885 0092 03D1     		bne	.L144
 1886              		.loc 1 792 3 is_stmt 0 discriminator 1
 1887 0094 FB68     		ldr	r3, [r7, #12]
 1888 0096 03F25453 		addw	r3, r3, #1364
 1889 009a 02E0     		b	.L145
 1890              	.L144:
 1891              		.loc 1 792 3 discriminator 2
 1892 009c FB68     		ldr	r3, [r7, #12]
 1893 009e 03F2AA23 		addw	r3, r3, #682
 1894              	.L145:
 1895              		.loc 1 792 3 discriminator 4
 1896 00a2 5522     		movs	r2, #85
 1897 00a4 1A80     		strh	r2, [r3]	@ movhi
 793:./Libraries/STM32F4xx_HAL_Driver/Src/stm32f4xx_hal_nor.c ****   NOR_WRITE(NOR_ADDR_SHIFT(deviceaddress, uwNORMemoryDataWidth, NOR_CMD_ADDRESS_THIRD), NOR_CMD_DAT
 1898              		.loc 1 793 3 is_stmt 1 discriminator 4
 1899 00a6 214B     		ldr	r3, .L154
 1900 00a8 1B68     		ldr	r3, [r3]
 1901 00aa 012B     		cmp	r3, #1
 1902 00ac 03D1     		bne	.L146
 1903              		.loc 1 793 3 is_stmt 0 discriminator 1
 1904 00ae FB68     		ldr	r3, [r7, #12]
 1905 00b0 03F6AA23 		addw	r3, r3, #2730
 1906 00b4 02E0     		b	.L147
 1907              	.L146:
 1908              		.loc 1 793 3 discriminator 2
 1909 00b6 FB68     		ldr	r3, [r7, #12]
 1910 00b8 03F25553 		addw	r3, r3, #1365
 1911              	.L147:
ARM GAS  /tmp/ccscUl47.s 			page 48


 1912              		.loc 1 793 3 discriminator 4
 1913 00bc 8022     		movs	r2, #128
 1914 00be 1A80     		strh	r2, [r3]	@ movhi
 794:./Libraries/STM32F4xx_HAL_Driver/Src/stm32f4xx_hal_nor.c ****   NOR_WRITE(NOR_ADDR_SHIFT(deviceaddress, uwNORMemoryDataWidth, NOR_CMD_ADDRESS_FOURTH), NOR_CMD_DA
 1915              		.loc 1 794 3 is_stmt 1 discriminator 4
 1916 00c0 1A4B     		ldr	r3, .L154
 1917 00c2 1B68     		ldr	r3, [r3]
 1918 00c4 012B     		cmp	r3, #1
 1919 00c6 03D1     		bne	.L148
 1920              		.loc 1 794 3 is_stmt 0 discriminator 1
 1921 00c8 FB68     		ldr	r3, [r7, #12]
 1922 00ca 03F6AA23 		addw	r3, r3, #2730
 1923 00ce 02E0     		b	.L149
 1924              	.L148:
 1925              		.loc 1 794 3 discriminator 2
 1926 00d0 FB68     		ldr	r3, [r7, #12]
 1927 00d2 03F25553 		addw	r3, r3, #1365
 1928              	.L149:
 1929              		.loc 1 794 3 discriminator 4
 1930 00d6 AA22     		movs	r2, #170
 1931 00d8 1A80     		strh	r2, [r3]	@ movhi
 795:./Libraries/STM32F4xx_HAL_Driver/Src/stm32f4xx_hal_nor.c ****   NOR_WRITE(NOR_ADDR_SHIFT(deviceaddress, uwNORMemoryDataWidth, NOR_CMD_ADDRESS_FIFTH), NOR_CMD_DAT
 1932              		.loc 1 795 3 is_stmt 1 discriminator 4
 1933 00da 144B     		ldr	r3, .L154
 1934 00dc 1B68     		ldr	r3, [r3]
 1935 00de 012B     		cmp	r3, #1
 1936 00e0 03D1     		bne	.L150
 1937              		.loc 1 795 3 is_stmt 0 discriminator 1
 1938 00e2 FB68     		ldr	r3, [r7, #12]
 1939 00e4 03F25453 		addw	r3, r3, #1364
 1940 00e8 02E0     		b	.L151
 1941              	.L150:
 1942              		.loc 1 795 3 discriminator 2
 1943 00ea FB68     		ldr	r3, [r7, #12]
 1944 00ec 03F2AA23 		addw	r3, r3, #682
 1945              	.L151:
 1946              		.loc 1 795 3 discriminator 4
 1947 00f0 5522     		movs	r2, #85
 1948 00f2 1A80     		strh	r2, [r3]	@ movhi
 796:./Libraries/STM32F4xx_HAL_Driver/Src/stm32f4xx_hal_nor.c ****   NOR_WRITE(NOR_ADDR_SHIFT(deviceaddress, uwNORMemoryDataWidth, NOR_CMD_ADDRESS_SIXTH), NOR_CMD_DAT
 1949              		.loc 1 796 3 is_stmt 1 discriminator 4
 1950 00f4 0D4B     		ldr	r3, .L154
 1951 00f6 1B68     		ldr	r3, [r3]
 1952 00f8 012B     		cmp	r3, #1
 1953 00fa 03D1     		bne	.L152
 1954              		.loc 1 796 3 is_stmt 0 discriminator 1
 1955 00fc FB68     		ldr	r3, [r7, #12]
 1956 00fe 03F6AA23 		addw	r3, r3, #2730
 1957 0102 02E0     		b	.L153
 1958              	.L152:
 1959              		.loc 1 796 3 discriminator 2
 1960 0104 FB68     		ldr	r3, [r7, #12]
 1961 0106 03F25553 		addw	r3, r3, #1365
 1962              	.L153:
 1963              		.loc 1 796 3 discriminator 4
 1964 010a 1022     		movs	r2, #16
 1965 010c 1A80     		strh	r2, [r3]	@ movhi
ARM GAS  /tmp/ccscUl47.s 			page 49


 797:./Libraries/STM32F4xx_HAL_Driver/Src/stm32f4xx_hal_nor.c ****   
 798:./Libraries/STM32F4xx_HAL_Driver/Src/stm32f4xx_hal_nor.c ****   /* Check the NOR memory status and update the controller state */
 799:./Libraries/STM32F4xx_HAL_Driver/Src/stm32f4xx_hal_nor.c ****   hnor->State = HAL_NOR_STATE_READY;
 1966              		.loc 1 799 15 is_stmt 1 discriminator 4
 1967 010e 7B68     		ldr	r3, [r7, #4]
 1968 0110 0122     		movs	r2, #1
 1969 0112 83F84920 		strb	r2, [r3, #73]
 800:./Libraries/STM32F4xx_HAL_Driver/Src/stm32f4xx_hal_nor.c ****     
 801:./Libraries/STM32F4xx_HAL_Driver/Src/stm32f4xx_hal_nor.c ****   /* Process unlocked */
 802:./Libraries/STM32F4xx_HAL_Driver/Src/stm32f4xx_hal_nor.c ****   __HAL_UNLOCK(hnor);
 1970              		.loc 1 802 3 discriminator 4
 1971 0116 7B68     		ldr	r3, [r7, #4]
 1972 0118 0022     		movs	r2, #0
 1973 011a 83F84820 		strb	r2, [r3, #72]
 803:./Libraries/STM32F4xx_HAL_Driver/Src/stm32f4xx_hal_nor.c ****   
 804:./Libraries/STM32F4xx_HAL_Driver/Src/stm32f4xx_hal_nor.c ****   return HAL_OK;  
 1974              		.loc 1 804 10 discriminator 4
 1975 011e 0023     		movs	r3, #0
 1976              	.L136:
 805:./Libraries/STM32F4xx_HAL_Driver/Src/stm32f4xx_hal_nor.c **** }
 1977              		.loc 1 805 1
 1978 0120 1846     		mov	r0, r3
 1979 0122 1437     		adds	r7, r7, #20
 1980              	.LCFI73:
 1981              		.cfi_def_cfa_offset 4
 1982 0124 BD46     		mov	sp, r7
 1983              	.LCFI74:
 1984              		.cfi_def_cfa_register 13
 1985              		@ sp needed
 1986 0126 5DF8047B 		ldr	r7, [sp], #4
 1987              	.LCFI75:
 1988              		.cfi_restore 7
 1989              		.cfi_def_cfa_offset 0
 1990 012a 7047     		bx	lr
 1991              	.L155:
 1992              		.align	2
 1993              	.L154:
 1994 012c 00000000 		.word	uwNORMemoryDataWidth
 1995              		.cfi_endproc
 1996              	.LFE138:
 1998              		.section	.text.HAL_NOR_Read_CFI,"ax",%progbits
 1999              		.align	1
 2000              		.global	HAL_NOR_Read_CFI
 2001              		.syntax unified
 2002              		.thumb
 2003              		.thumb_func
 2004              		.fpu fpv4-sp-d16
 2006              	HAL_NOR_Read_CFI:
 2007              	.LFB139:
 806:./Libraries/STM32F4xx_HAL_Driver/Src/stm32f4xx_hal_nor.c **** 
 807:./Libraries/STM32F4xx_HAL_Driver/Src/stm32f4xx_hal_nor.c **** /**
 808:./Libraries/STM32F4xx_HAL_Driver/Src/stm32f4xx_hal_nor.c ****   * @brief  Read NOR flash CFI IDs
 809:./Libraries/STM32F4xx_HAL_Driver/Src/stm32f4xx_hal_nor.c ****   * @param  hnor pointer to a NOR_HandleTypeDef structure that contains
 810:./Libraries/STM32F4xx_HAL_Driver/Src/stm32f4xx_hal_nor.c ****   *                the configuration information for NOR module.
 811:./Libraries/STM32F4xx_HAL_Driver/Src/stm32f4xx_hal_nor.c ****   * @param  pNOR_CFI  pointer to NOR CFI IDs structure  
 812:./Libraries/STM32F4xx_HAL_Driver/Src/stm32f4xx_hal_nor.c ****   * @retval HAL status
 813:./Libraries/STM32F4xx_HAL_Driver/Src/stm32f4xx_hal_nor.c ****   */
ARM GAS  /tmp/ccscUl47.s 			page 50


 814:./Libraries/STM32F4xx_HAL_Driver/Src/stm32f4xx_hal_nor.c **** HAL_StatusTypeDef HAL_NOR_Read_CFI(NOR_HandleTypeDef *hnor, NOR_CFITypeDef *pNOR_CFI)
 815:./Libraries/STM32F4xx_HAL_Driver/Src/stm32f4xx_hal_nor.c **** {
 2008              		.loc 1 815 1
 2009              		.cfi_startproc
 2010              		@ args = 0, pretend = 0, frame = 16
 2011              		@ frame_needed = 1, uses_anonymous_args = 0
 2012              		@ link register save eliminated.
 2013 0000 80B4     		push	{r7}
 2014              	.LCFI76:
 2015              		.cfi_def_cfa_offset 4
 2016              		.cfi_offset 7, -4
 2017 0002 85B0     		sub	sp, sp, #20
 2018              	.LCFI77:
 2019              		.cfi_def_cfa_offset 24
 2020 0004 00AF     		add	r7, sp, #0
 2021              	.LCFI78:
 2022              		.cfi_def_cfa_register 7
 2023 0006 7860     		str	r0, [r7, #4]
 2024 0008 3960     		str	r1, [r7]
 816:./Libraries/STM32F4xx_HAL_Driver/Src/stm32f4xx_hal_nor.c ****   uint32_t deviceaddress = 0U;
 2025              		.loc 1 816 12
 2026 000a 0023     		movs	r3, #0
 2027 000c FB60     		str	r3, [r7, #12]
 817:./Libraries/STM32F4xx_HAL_Driver/Src/stm32f4xx_hal_nor.c ****   
 818:./Libraries/STM32F4xx_HAL_Driver/Src/stm32f4xx_hal_nor.c ****   /* Process Locked */
 819:./Libraries/STM32F4xx_HAL_Driver/Src/stm32f4xx_hal_nor.c ****   __HAL_LOCK(hnor);
 2028              		.loc 1 819 3
 2029 000e 7B68     		ldr	r3, [r7, #4]
 2030 0010 93F84830 		ldrb	r3, [r3, #72]	@ zero_extendqisi2
 2031 0014 012B     		cmp	r3, #1
 2032 0016 01D1     		bne	.L157
 2033              		.loc 1 819 3 is_stmt 0 discriminator 1
 2034 0018 0223     		movs	r3, #2
 2035 001a 72E0     		b	.L158
 2036              	.L157:
 2037              		.loc 1 819 3 discriminator 2
 2038 001c 7B68     		ldr	r3, [r7, #4]
 2039 001e 0122     		movs	r2, #1
 2040 0020 83F84820 		strb	r2, [r3, #72]
 820:./Libraries/STM32F4xx_HAL_Driver/Src/stm32f4xx_hal_nor.c ****   
 821:./Libraries/STM32F4xx_HAL_Driver/Src/stm32f4xx_hal_nor.c ****   /* Check the NOR controller state */
 822:./Libraries/STM32F4xx_HAL_Driver/Src/stm32f4xx_hal_nor.c ****   if(hnor->State == HAL_NOR_STATE_BUSY)
 2041              		.loc 1 822 10 is_stmt 1 discriminator 2
 2042 0024 7B68     		ldr	r3, [r7, #4]
 2043 0026 93F84930 		ldrb	r3, [r3, #73]
 2044 002a DBB2     		uxtb	r3, r3
 2045              		.loc 1 822 5 discriminator 2
 2046 002c 022B     		cmp	r3, #2
 2047 002e 01D1     		bne	.L159
 823:./Libraries/STM32F4xx_HAL_Driver/Src/stm32f4xx_hal_nor.c ****   {
 824:./Libraries/STM32F4xx_HAL_Driver/Src/stm32f4xx_hal_nor.c ****      return HAL_BUSY;
 2048              		.loc 1 824 13
 2049 0030 0223     		movs	r3, #2
 2050 0032 66E0     		b	.L158
 2051              	.L159:
 825:./Libraries/STM32F4xx_HAL_Driver/Src/stm32f4xx_hal_nor.c ****   }
 826:./Libraries/STM32F4xx_HAL_Driver/Src/stm32f4xx_hal_nor.c ****   
ARM GAS  /tmp/ccscUl47.s 			page 51


 827:./Libraries/STM32F4xx_HAL_Driver/Src/stm32f4xx_hal_nor.c ****   /* Select the NOR device address */
 828:./Libraries/STM32F4xx_HAL_Driver/Src/stm32f4xx_hal_nor.c ****   if (hnor->Init.NSBank == FMC_NORSRAM_BANK1)
 2052              		.loc 1 828 17
 2053 0034 7B68     		ldr	r3, [r7, #4]
 2054 0036 9B68     		ldr	r3, [r3, #8]
 2055              		.loc 1 828 6
 2056 0038 002B     		cmp	r3, #0
 2057 003a 03D1     		bne	.L160
 829:./Libraries/STM32F4xx_HAL_Driver/Src/stm32f4xx_hal_nor.c ****   {
 830:./Libraries/STM32F4xx_HAL_Driver/Src/stm32f4xx_hal_nor.c ****     deviceaddress = NOR_MEMORY_ADRESS1;
 2058              		.loc 1 830 19
 2059 003c 4FF0C043 		mov	r3, #1610612736
 2060 0040 FB60     		str	r3, [r7, #12]
 2061 0042 12E0     		b	.L161
 2062              	.L160:
 831:./Libraries/STM32F4xx_HAL_Driver/Src/stm32f4xx_hal_nor.c ****   }
 832:./Libraries/STM32F4xx_HAL_Driver/Src/stm32f4xx_hal_nor.c ****   else if (hnor->Init.NSBank == FMC_NORSRAM_BANK2)
 2063              		.loc 1 832 22
 2064 0044 7B68     		ldr	r3, [r7, #4]
 2065 0046 9B68     		ldr	r3, [r3, #8]
 2066              		.loc 1 832 11
 2067 0048 022B     		cmp	r3, #2
 2068 004a 03D1     		bne	.L162
 833:./Libraries/STM32F4xx_HAL_Driver/Src/stm32f4xx_hal_nor.c ****   {
 834:./Libraries/STM32F4xx_HAL_Driver/Src/stm32f4xx_hal_nor.c ****     deviceaddress = NOR_MEMORY_ADRESS2;
 2069              		.loc 1 834 19
 2070 004c 4FF0C843 		mov	r3, #1677721600
 2071 0050 FB60     		str	r3, [r7, #12]
 2072 0052 0AE0     		b	.L161
 2073              	.L162:
 835:./Libraries/STM32F4xx_HAL_Driver/Src/stm32f4xx_hal_nor.c ****   }
 836:./Libraries/STM32F4xx_HAL_Driver/Src/stm32f4xx_hal_nor.c ****   else if (hnor->Init.NSBank == FMC_NORSRAM_BANK3)
 2074              		.loc 1 836 22
 2075 0054 7B68     		ldr	r3, [r7, #4]
 2076 0056 9B68     		ldr	r3, [r3, #8]
 2077              		.loc 1 836 11
 2078 0058 042B     		cmp	r3, #4
 2079 005a 03D1     		bne	.L163
 837:./Libraries/STM32F4xx_HAL_Driver/Src/stm32f4xx_hal_nor.c ****   {
 838:./Libraries/STM32F4xx_HAL_Driver/Src/stm32f4xx_hal_nor.c ****     deviceaddress = NOR_MEMORY_ADRESS3;
 2080              		.loc 1 838 19
 2081 005c 4FF0D043 		mov	r3, #1744830464
 2082 0060 FB60     		str	r3, [r7, #12]
 2083 0062 02E0     		b	.L161
 2084              	.L163:
 839:./Libraries/STM32F4xx_HAL_Driver/Src/stm32f4xx_hal_nor.c ****   }
 840:./Libraries/STM32F4xx_HAL_Driver/Src/stm32f4xx_hal_nor.c ****   else /* FMC_NORSRAM_BANK4 */
 841:./Libraries/STM32F4xx_HAL_Driver/Src/stm32f4xx_hal_nor.c ****   {
 842:./Libraries/STM32F4xx_HAL_Driver/Src/stm32f4xx_hal_nor.c ****     deviceaddress = NOR_MEMORY_ADRESS4;
 2085              		.loc 1 842 19
 2086 0064 4FF0D843 		mov	r3, #1811939328
 2087 0068 FB60     		str	r3, [r7, #12]
 2088              	.L161:
 843:./Libraries/STM32F4xx_HAL_Driver/Src/stm32f4xx_hal_nor.c ****   }  
 844:./Libraries/STM32F4xx_HAL_Driver/Src/stm32f4xx_hal_nor.c ****     
 845:./Libraries/STM32F4xx_HAL_Driver/Src/stm32f4xx_hal_nor.c ****   /* Update the NOR controller state */
 846:./Libraries/STM32F4xx_HAL_Driver/Src/stm32f4xx_hal_nor.c ****   hnor->State = HAL_NOR_STATE_BUSY;
ARM GAS  /tmp/ccscUl47.s 			page 52


 2089              		.loc 1 846 15
 2090 006a 7B68     		ldr	r3, [r7, #4]
 2091 006c 0222     		movs	r2, #2
 2092 006e 83F84920 		strb	r2, [r3, #73]
 847:./Libraries/STM32F4xx_HAL_Driver/Src/stm32f4xx_hal_nor.c ****   
 848:./Libraries/STM32F4xx_HAL_Driver/Src/stm32f4xx_hal_nor.c ****   /* Send read CFI query command */
 849:./Libraries/STM32F4xx_HAL_Driver/Src/stm32f4xx_hal_nor.c ****   NOR_WRITE(NOR_ADDR_SHIFT(deviceaddress, uwNORMemoryDataWidth, NOR_CMD_ADDRESS_FIRST_CFI), NOR_CMD
 2093              		.loc 1 849 3
 2094 0072 274B     		ldr	r3, .L174
 2095 0074 1B68     		ldr	r3, [r3]
 2096 0076 012B     		cmp	r3, #1
 2097 0078 02D1     		bne	.L164
 2098              		.loc 1 849 3 is_stmt 0 discriminator 1
 2099 007a FB68     		ldr	r3, [r7, #12]
 2100 007c AA33     		adds	r3, r3, #170
 2101 007e 01E0     		b	.L165
 2102              	.L164:
 2103              		.loc 1 849 3 discriminator 2
 2104 0080 FB68     		ldr	r3, [r7, #12]
 2105 0082 5533     		adds	r3, r3, #85
 2106              	.L165:
 2107              		.loc 1 849 3 discriminator 4
 2108 0084 9822     		movs	r2, #152
 2109 0086 1A80     		strh	r2, [r3]	@ movhi
 850:./Libraries/STM32F4xx_HAL_Driver/Src/stm32f4xx_hal_nor.c **** 
 851:./Libraries/STM32F4xx_HAL_Driver/Src/stm32f4xx_hal_nor.c ****   /* read the NOR CFI information */
 852:./Libraries/STM32F4xx_HAL_Driver/Src/stm32f4xx_hal_nor.c ****   pNOR_CFI->CFI_1 = *(__IO uint16_t *) NOR_ADDR_SHIFT(deviceaddress, uwNORMemoryDataWidth, CFI1_ADD
 2110              		.loc 1 852 40 is_stmt 1 discriminator 4
 2111 0088 214B     		ldr	r3, .L174
 2112 008a 1B68     		ldr	r3, [r3]
 2113              		.loc 1 852 22 discriminator 4
 2114 008c 012B     		cmp	r3, #1
 2115 008e 02D1     		bne	.L166
 2116              		.loc 1 852 22 is_stmt 0 discriminator 1
 2117 0090 FB68     		ldr	r3, [r7, #12]
 2118 0092 C233     		adds	r3, r3, #194
 2119 0094 01E0     		b	.L167
 2120              	.L166:
 2121              		.loc 1 852 22 discriminator 2
 2122 0096 FB68     		ldr	r3, [r7, #12]
 2123 0098 6133     		adds	r3, r3, #97
 2124              	.L167:
 2125              		.loc 1 852 21 is_stmt 1 discriminator 4
 2126 009a 1B88     		ldrh	r3, [r3]	@ movhi
 2127 009c 9AB2     		uxth	r2, r3
 2128              		.loc 1 852 19 discriminator 4
 2129 009e 3B68     		ldr	r3, [r7]
 2130 00a0 1A80     		strh	r2, [r3]	@ movhi
 853:./Libraries/STM32F4xx_HAL_Driver/Src/stm32f4xx_hal_nor.c ****   pNOR_CFI->CFI_2 = *(__IO uint16_t *) NOR_ADDR_SHIFT(deviceaddress, uwNORMemoryDataWidth, CFI2_ADD
 2131              		.loc 1 853 40 discriminator 4
 2132 00a2 1B4B     		ldr	r3, .L174
 2133 00a4 1B68     		ldr	r3, [r3]
 2134              		.loc 1 853 22 discriminator 4
 2135 00a6 012B     		cmp	r3, #1
 2136 00a8 02D1     		bne	.L168
 2137              		.loc 1 853 22 is_stmt 0 discriminator 1
 2138 00aa FB68     		ldr	r3, [r7, #12]
ARM GAS  /tmp/ccscUl47.s 			page 53


 2139 00ac C433     		adds	r3, r3, #196
 2140 00ae 01E0     		b	.L169
 2141              	.L168:
 2142              		.loc 1 853 22 discriminator 2
 2143 00b0 FB68     		ldr	r3, [r7, #12]
 2144 00b2 6233     		adds	r3, r3, #98
 2145              	.L169:
 2146              		.loc 1 853 21 is_stmt 1 discriminator 4
 2147 00b4 1B88     		ldrh	r3, [r3]	@ movhi
 2148 00b6 9AB2     		uxth	r2, r3
 2149              		.loc 1 853 19 discriminator 4
 2150 00b8 3B68     		ldr	r3, [r7]
 2151 00ba 5A80     		strh	r2, [r3, #2]	@ movhi
 854:./Libraries/STM32F4xx_HAL_Driver/Src/stm32f4xx_hal_nor.c ****   pNOR_CFI->CFI_3 = *(__IO uint16_t *) NOR_ADDR_SHIFT(deviceaddress, uwNORMemoryDataWidth, CFI3_ADD
 2152              		.loc 1 854 40 discriminator 4
 2153 00bc 144B     		ldr	r3, .L174
 2154 00be 1B68     		ldr	r3, [r3]
 2155              		.loc 1 854 22 discriminator 4
 2156 00c0 012B     		cmp	r3, #1
 2157 00c2 02D1     		bne	.L170
 2158              		.loc 1 854 22 is_stmt 0 discriminator 1
 2159 00c4 FB68     		ldr	r3, [r7, #12]
 2160 00c6 C633     		adds	r3, r3, #198
 2161 00c8 01E0     		b	.L171
 2162              	.L170:
 2163              		.loc 1 854 22 discriminator 2
 2164 00ca FB68     		ldr	r3, [r7, #12]
 2165 00cc 6333     		adds	r3, r3, #99
 2166              	.L171:
 2167              		.loc 1 854 21 is_stmt 1 discriminator 4
 2168 00ce 1B88     		ldrh	r3, [r3]	@ movhi
 2169 00d0 9AB2     		uxth	r2, r3
 2170              		.loc 1 854 19 discriminator 4
 2171 00d2 3B68     		ldr	r3, [r7]
 2172 00d4 9A80     		strh	r2, [r3, #4]	@ movhi
 855:./Libraries/STM32F4xx_HAL_Driver/Src/stm32f4xx_hal_nor.c ****   pNOR_CFI->CFI_4 = *(__IO uint16_t *) NOR_ADDR_SHIFT(deviceaddress, uwNORMemoryDataWidth, CFI4_ADD
 2173              		.loc 1 855 40 discriminator 4
 2174 00d6 0E4B     		ldr	r3, .L174
 2175 00d8 1B68     		ldr	r3, [r3]
 2176              		.loc 1 855 22 discriminator 4
 2177 00da 012B     		cmp	r3, #1
 2178 00dc 02D1     		bne	.L172
 2179              		.loc 1 855 22 is_stmt 0 discriminator 1
 2180 00de FB68     		ldr	r3, [r7, #12]
 2181 00e0 C833     		adds	r3, r3, #200
 2182 00e2 01E0     		b	.L173
 2183              	.L172:
 2184              		.loc 1 855 22 discriminator 2
 2185 00e4 FB68     		ldr	r3, [r7, #12]
 2186 00e6 6433     		adds	r3, r3, #100
 2187              	.L173:
 2188              		.loc 1 855 21 is_stmt 1 discriminator 4
 2189 00e8 1B88     		ldrh	r3, [r3]	@ movhi
 2190 00ea 9AB2     		uxth	r2, r3
 2191              		.loc 1 855 19 discriminator 4
 2192 00ec 3B68     		ldr	r3, [r7]
 2193 00ee DA80     		strh	r2, [r3, #6]	@ movhi
ARM GAS  /tmp/ccscUl47.s 			page 54


 856:./Libraries/STM32F4xx_HAL_Driver/Src/stm32f4xx_hal_nor.c **** 
 857:./Libraries/STM32F4xx_HAL_Driver/Src/stm32f4xx_hal_nor.c ****   /* Check the NOR controller state */
 858:./Libraries/STM32F4xx_HAL_Driver/Src/stm32f4xx_hal_nor.c ****   hnor->State = HAL_NOR_STATE_READY;
 2194              		.loc 1 858 15 discriminator 4
 2195 00f0 7B68     		ldr	r3, [r7, #4]
 2196 00f2 0122     		movs	r2, #1
 2197 00f4 83F84920 		strb	r2, [r3, #73]
 859:./Libraries/STM32F4xx_HAL_Driver/Src/stm32f4xx_hal_nor.c ****   
 860:./Libraries/STM32F4xx_HAL_Driver/Src/stm32f4xx_hal_nor.c ****   /* Process unlocked */
 861:./Libraries/STM32F4xx_HAL_Driver/Src/stm32f4xx_hal_nor.c ****   __HAL_UNLOCK(hnor);
 2198              		.loc 1 861 3 discriminator 4
 2199 00f8 7B68     		ldr	r3, [r7, #4]
 2200 00fa 0022     		movs	r2, #0
 2201 00fc 83F84820 		strb	r2, [r3, #72]
 862:./Libraries/STM32F4xx_HAL_Driver/Src/stm32f4xx_hal_nor.c ****   
 863:./Libraries/STM32F4xx_HAL_Driver/Src/stm32f4xx_hal_nor.c ****   return HAL_OK;
 2202              		.loc 1 863 10 discriminator 4
 2203 0100 0023     		movs	r3, #0
 2204              	.L158:
 864:./Libraries/STM32F4xx_HAL_Driver/Src/stm32f4xx_hal_nor.c **** }
 2205              		.loc 1 864 1
 2206 0102 1846     		mov	r0, r3
 2207 0104 1437     		adds	r7, r7, #20
 2208              	.LCFI79:
 2209              		.cfi_def_cfa_offset 4
 2210 0106 BD46     		mov	sp, r7
 2211              	.LCFI80:
 2212              		.cfi_def_cfa_register 13
 2213              		@ sp needed
 2214 0108 5DF8047B 		ldr	r7, [sp], #4
 2215              	.LCFI81:
 2216              		.cfi_restore 7
 2217              		.cfi_def_cfa_offset 0
 2218 010c 7047     		bx	lr
 2219              	.L175:
 2220 010e 00BF     		.align	2
 2221              	.L174:
 2222 0110 00000000 		.word	uwNORMemoryDataWidth
 2223              		.cfi_endproc
 2224              	.LFE139:
 2226              		.section	.text.HAL_NOR_WriteOperation_Enable,"ax",%progbits
 2227              		.align	1
 2228              		.global	HAL_NOR_WriteOperation_Enable
 2229              		.syntax unified
 2230              		.thumb
 2231              		.thumb_func
 2232              		.fpu fpv4-sp-d16
 2234              	HAL_NOR_WriteOperation_Enable:
 2235              	.LFB140:
 865:./Libraries/STM32F4xx_HAL_Driver/Src/stm32f4xx_hal_nor.c **** 
 866:./Libraries/STM32F4xx_HAL_Driver/Src/stm32f4xx_hal_nor.c **** /**
 867:./Libraries/STM32F4xx_HAL_Driver/Src/stm32f4xx_hal_nor.c ****   * @}
 868:./Libraries/STM32F4xx_HAL_Driver/Src/stm32f4xx_hal_nor.c ****   */
 869:./Libraries/STM32F4xx_HAL_Driver/Src/stm32f4xx_hal_nor.c ****   
 870:./Libraries/STM32F4xx_HAL_Driver/Src/stm32f4xx_hal_nor.c **** /** @defgroup NOR_Exported_Functions_Group3 NOR Control functions
 871:./Libraries/STM32F4xx_HAL_Driver/Src/stm32f4xx_hal_nor.c ****  *  @brief   management functions 
 872:./Libraries/STM32F4xx_HAL_Driver/Src/stm32f4xx_hal_nor.c ****  *
ARM GAS  /tmp/ccscUl47.s 			page 55


 873:./Libraries/STM32F4xx_HAL_Driver/Src/stm32f4xx_hal_nor.c **** @verbatim   
 874:./Libraries/STM32F4xx_HAL_Driver/Src/stm32f4xx_hal_nor.c ****   ==============================================================================
 875:./Libraries/STM32F4xx_HAL_Driver/Src/stm32f4xx_hal_nor.c ****                         ##### NOR Control functions #####
 876:./Libraries/STM32F4xx_HAL_Driver/Src/stm32f4xx_hal_nor.c ****   ==============================================================================
 877:./Libraries/STM32F4xx_HAL_Driver/Src/stm32f4xx_hal_nor.c ****   [..]
 878:./Libraries/STM32F4xx_HAL_Driver/Src/stm32f4xx_hal_nor.c ****     This subsection provides a set of functions allowing to control dynamically
 879:./Libraries/STM32F4xx_HAL_Driver/Src/stm32f4xx_hal_nor.c ****     the NOR interface.
 880:./Libraries/STM32F4xx_HAL_Driver/Src/stm32f4xx_hal_nor.c **** 
 881:./Libraries/STM32F4xx_HAL_Driver/Src/stm32f4xx_hal_nor.c **** @endverbatim
 882:./Libraries/STM32F4xx_HAL_Driver/Src/stm32f4xx_hal_nor.c ****   * @{
 883:./Libraries/STM32F4xx_HAL_Driver/Src/stm32f4xx_hal_nor.c ****   */
 884:./Libraries/STM32F4xx_HAL_Driver/Src/stm32f4xx_hal_nor.c ****     
 885:./Libraries/STM32F4xx_HAL_Driver/Src/stm32f4xx_hal_nor.c **** /**
 886:./Libraries/STM32F4xx_HAL_Driver/Src/stm32f4xx_hal_nor.c ****   * @brief  Enables dynamically NOR write operation.
 887:./Libraries/STM32F4xx_HAL_Driver/Src/stm32f4xx_hal_nor.c ****   * @param  hnor pointer to a NOR_HandleTypeDef structure that contains
 888:./Libraries/STM32F4xx_HAL_Driver/Src/stm32f4xx_hal_nor.c ****   *                the configuration information for NOR module.
 889:./Libraries/STM32F4xx_HAL_Driver/Src/stm32f4xx_hal_nor.c ****   * @retval HAL status
 890:./Libraries/STM32F4xx_HAL_Driver/Src/stm32f4xx_hal_nor.c ****   */
 891:./Libraries/STM32F4xx_HAL_Driver/Src/stm32f4xx_hal_nor.c **** HAL_StatusTypeDef HAL_NOR_WriteOperation_Enable(NOR_HandleTypeDef *hnor)
 892:./Libraries/STM32F4xx_HAL_Driver/Src/stm32f4xx_hal_nor.c **** {
 2236              		.loc 1 892 1
 2237              		.cfi_startproc
 2238              		@ args = 0, pretend = 0, frame = 8
 2239              		@ frame_needed = 1, uses_anonymous_args = 0
 2240 0000 80B5     		push	{r7, lr}
 2241              	.LCFI82:
 2242              		.cfi_def_cfa_offset 8
 2243              		.cfi_offset 7, -8
 2244              		.cfi_offset 14, -4
 2245 0002 82B0     		sub	sp, sp, #8
 2246              	.LCFI83:
 2247              		.cfi_def_cfa_offset 16
 2248 0004 00AF     		add	r7, sp, #0
 2249              	.LCFI84:
 2250              		.cfi_def_cfa_register 7
 2251 0006 7860     		str	r0, [r7, #4]
 893:./Libraries/STM32F4xx_HAL_Driver/Src/stm32f4xx_hal_nor.c ****   /* Process Locked */
 894:./Libraries/STM32F4xx_HAL_Driver/Src/stm32f4xx_hal_nor.c ****   __HAL_LOCK(hnor);
 2252              		.loc 1 894 3
 2253 0008 7B68     		ldr	r3, [r7, #4]
 2254 000a 93F84830 		ldrb	r3, [r3, #72]	@ zero_extendqisi2
 2255 000e 012B     		cmp	r3, #1
 2256 0010 01D1     		bne	.L177
 2257              		.loc 1 894 3 is_stmt 0 discriminator 1
 2258 0012 0223     		movs	r3, #2
 2259 0014 14E0     		b	.L178
 2260              	.L177:
 2261              		.loc 1 894 3 discriminator 2
 2262 0016 7B68     		ldr	r3, [r7, #4]
 2263 0018 0122     		movs	r2, #1
 2264 001a 83F84820 		strb	r2, [r3, #72]
 895:./Libraries/STM32F4xx_HAL_Driver/Src/stm32f4xx_hal_nor.c **** 
 896:./Libraries/STM32F4xx_HAL_Driver/Src/stm32f4xx_hal_nor.c ****   /* Enable write operation */
 897:./Libraries/STM32F4xx_HAL_Driver/Src/stm32f4xx_hal_nor.c ****   FMC_NORSRAM_WriteOperation_Enable(hnor->Instance, hnor->Init.NSBank); 
 2265              		.loc 1 897 3 is_stmt 1 discriminator 2
 2266 001e 7B68     		ldr	r3, [r7, #4]
 2267 0020 1A68     		ldr	r2, [r3]
ARM GAS  /tmp/ccscUl47.s 			page 56


 2268 0022 7B68     		ldr	r3, [r7, #4]
 2269 0024 9B68     		ldr	r3, [r3, #8]
 2270 0026 1946     		mov	r1, r3
 2271 0028 1046     		mov	r0, r2
 2272 002a FFF7FEFF 		bl	FMC_NORSRAM_WriteOperation_Enable
 898:./Libraries/STM32F4xx_HAL_Driver/Src/stm32f4xx_hal_nor.c ****   
 899:./Libraries/STM32F4xx_HAL_Driver/Src/stm32f4xx_hal_nor.c ****   /* Update the NOR controller state */
 900:./Libraries/STM32F4xx_HAL_Driver/Src/stm32f4xx_hal_nor.c ****   hnor->State = HAL_NOR_STATE_READY;
 2273              		.loc 1 900 15 discriminator 2
 2274 002e 7B68     		ldr	r3, [r7, #4]
 2275 0030 0122     		movs	r2, #1
 2276 0032 83F84920 		strb	r2, [r3, #73]
 901:./Libraries/STM32F4xx_HAL_Driver/Src/stm32f4xx_hal_nor.c ****   
 902:./Libraries/STM32F4xx_HAL_Driver/Src/stm32f4xx_hal_nor.c ****   /* Process unlocked */
 903:./Libraries/STM32F4xx_HAL_Driver/Src/stm32f4xx_hal_nor.c ****   __HAL_UNLOCK(hnor); 
 2277              		.loc 1 903 3 discriminator 2
 2278 0036 7B68     		ldr	r3, [r7, #4]
 2279 0038 0022     		movs	r2, #0
 2280 003a 83F84820 		strb	r2, [r3, #72]
 904:./Libraries/STM32F4xx_HAL_Driver/Src/stm32f4xx_hal_nor.c ****   
 905:./Libraries/STM32F4xx_HAL_Driver/Src/stm32f4xx_hal_nor.c ****   return HAL_OK;  
 2281              		.loc 1 905 10 discriminator 2
 2282 003e 0023     		movs	r3, #0
 2283              	.L178:
 906:./Libraries/STM32F4xx_HAL_Driver/Src/stm32f4xx_hal_nor.c **** }
 2284              		.loc 1 906 1
 2285 0040 1846     		mov	r0, r3
 2286 0042 0837     		adds	r7, r7, #8
 2287              	.LCFI85:
 2288              		.cfi_def_cfa_offset 8
 2289 0044 BD46     		mov	sp, r7
 2290              	.LCFI86:
 2291              		.cfi_def_cfa_register 13
 2292              		@ sp needed
 2293 0046 80BD     		pop	{r7, pc}
 2294              		.cfi_endproc
 2295              	.LFE140:
 2297              		.section	.text.HAL_NOR_WriteOperation_Disable,"ax",%progbits
 2298              		.align	1
 2299              		.global	HAL_NOR_WriteOperation_Disable
 2300              		.syntax unified
 2301              		.thumb
 2302              		.thumb_func
 2303              		.fpu fpv4-sp-d16
 2305              	HAL_NOR_WriteOperation_Disable:
 2306              	.LFB141:
 907:./Libraries/STM32F4xx_HAL_Driver/Src/stm32f4xx_hal_nor.c **** 
 908:./Libraries/STM32F4xx_HAL_Driver/Src/stm32f4xx_hal_nor.c **** /**
 909:./Libraries/STM32F4xx_HAL_Driver/Src/stm32f4xx_hal_nor.c ****   * @brief  Disables dynamically NOR write operation.
 910:./Libraries/STM32F4xx_HAL_Driver/Src/stm32f4xx_hal_nor.c ****   * @param  hnor pointer to a NOR_HandleTypeDef structure that contains
 911:./Libraries/STM32F4xx_HAL_Driver/Src/stm32f4xx_hal_nor.c ****   *                the configuration information for NOR module.
 912:./Libraries/STM32F4xx_HAL_Driver/Src/stm32f4xx_hal_nor.c ****   * @retval HAL status
 913:./Libraries/STM32F4xx_HAL_Driver/Src/stm32f4xx_hal_nor.c ****   */
 914:./Libraries/STM32F4xx_HAL_Driver/Src/stm32f4xx_hal_nor.c **** HAL_StatusTypeDef HAL_NOR_WriteOperation_Disable(NOR_HandleTypeDef *hnor)
 915:./Libraries/STM32F4xx_HAL_Driver/Src/stm32f4xx_hal_nor.c **** {
 2307              		.loc 1 915 1
 2308              		.cfi_startproc
ARM GAS  /tmp/ccscUl47.s 			page 57


 2309              		@ args = 0, pretend = 0, frame = 8
 2310              		@ frame_needed = 1, uses_anonymous_args = 0
 2311 0000 80B5     		push	{r7, lr}
 2312              	.LCFI87:
 2313              		.cfi_def_cfa_offset 8
 2314              		.cfi_offset 7, -8
 2315              		.cfi_offset 14, -4
 2316 0002 82B0     		sub	sp, sp, #8
 2317              	.LCFI88:
 2318              		.cfi_def_cfa_offset 16
 2319 0004 00AF     		add	r7, sp, #0
 2320              	.LCFI89:
 2321              		.cfi_def_cfa_register 7
 2322 0006 7860     		str	r0, [r7, #4]
 916:./Libraries/STM32F4xx_HAL_Driver/Src/stm32f4xx_hal_nor.c ****   /* Process Locked */
 917:./Libraries/STM32F4xx_HAL_Driver/Src/stm32f4xx_hal_nor.c ****   __HAL_LOCK(hnor);
 2323              		.loc 1 917 3
 2324 0008 7B68     		ldr	r3, [r7, #4]
 2325 000a 93F84830 		ldrb	r3, [r3, #72]	@ zero_extendqisi2
 2326 000e 012B     		cmp	r3, #1
 2327 0010 01D1     		bne	.L180
 2328              		.loc 1 917 3 is_stmt 0 discriminator 1
 2329 0012 0223     		movs	r3, #2
 2330 0014 18E0     		b	.L181
 2331              	.L180:
 2332              		.loc 1 917 3 discriminator 2
 2333 0016 7B68     		ldr	r3, [r7, #4]
 2334 0018 0122     		movs	r2, #1
 2335 001a 83F84820 		strb	r2, [r3, #72]
 918:./Libraries/STM32F4xx_HAL_Driver/Src/stm32f4xx_hal_nor.c **** 
 919:./Libraries/STM32F4xx_HAL_Driver/Src/stm32f4xx_hal_nor.c ****   /* Update the SRAM controller state */
 920:./Libraries/STM32F4xx_HAL_Driver/Src/stm32f4xx_hal_nor.c ****   hnor->State = HAL_NOR_STATE_BUSY;
 2336              		.loc 1 920 15 is_stmt 1 discriminator 2
 2337 001e 7B68     		ldr	r3, [r7, #4]
 2338 0020 0222     		movs	r2, #2
 2339 0022 83F84920 		strb	r2, [r3, #73]
 921:./Libraries/STM32F4xx_HAL_Driver/Src/stm32f4xx_hal_nor.c ****     
 922:./Libraries/STM32F4xx_HAL_Driver/Src/stm32f4xx_hal_nor.c ****   /* Disable write operation */
 923:./Libraries/STM32F4xx_HAL_Driver/Src/stm32f4xx_hal_nor.c ****   FMC_NORSRAM_WriteOperation_Disable(hnor->Instance, hnor->Init.NSBank); 
 2340              		.loc 1 923 3 discriminator 2
 2341 0026 7B68     		ldr	r3, [r7, #4]
 2342 0028 1A68     		ldr	r2, [r3]
 2343 002a 7B68     		ldr	r3, [r7, #4]
 2344 002c 9B68     		ldr	r3, [r3, #8]
 2345 002e 1946     		mov	r1, r3
 2346 0030 1046     		mov	r0, r2
 2347 0032 FFF7FEFF 		bl	FMC_NORSRAM_WriteOperation_Disable
 924:./Libraries/STM32F4xx_HAL_Driver/Src/stm32f4xx_hal_nor.c ****   
 925:./Libraries/STM32F4xx_HAL_Driver/Src/stm32f4xx_hal_nor.c ****   /* Update the NOR controller state */
 926:./Libraries/STM32F4xx_HAL_Driver/Src/stm32f4xx_hal_nor.c ****   hnor->State = HAL_NOR_STATE_PROTECTED;
 2348              		.loc 1 926 15 discriminator 2
 2349 0036 7B68     		ldr	r3, [r7, #4]
 2350 0038 0422     		movs	r2, #4
 2351 003a 83F84920 		strb	r2, [r3, #73]
 927:./Libraries/STM32F4xx_HAL_Driver/Src/stm32f4xx_hal_nor.c ****   
 928:./Libraries/STM32F4xx_HAL_Driver/Src/stm32f4xx_hal_nor.c ****   /* Process unlocked */
 929:./Libraries/STM32F4xx_HAL_Driver/Src/stm32f4xx_hal_nor.c ****   __HAL_UNLOCK(hnor); 
ARM GAS  /tmp/ccscUl47.s 			page 58


 2352              		.loc 1 929 3 discriminator 2
 2353 003e 7B68     		ldr	r3, [r7, #4]
 2354 0040 0022     		movs	r2, #0
 2355 0042 83F84820 		strb	r2, [r3, #72]
 930:./Libraries/STM32F4xx_HAL_Driver/Src/stm32f4xx_hal_nor.c ****   
 931:./Libraries/STM32F4xx_HAL_Driver/Src/stm32f4xx_hal_nor.c ****   return HAL_OK;  
 2356              		.loc 1 931 10 discriminator 2
 2357 0046 0023     		movs	r3, #0
 2358              	.L181:
 932:./Libraries/STM32F4xx_HAL_Driver/Src/stm32f4xx_hal_nor.c **** }
 2359              		.loc 1 932 1
 2360 0048 1846     		mov	r0, r3
 2361 004a 0837     		adds	r7, r7, #8
 2362              	.LCFI90:
 2363              		.cfi_def_cfa_offset 8
 2364 004c BD46     		mov	sp, r7
 2365              	.LCFI91:
 2366              		.cfi_def_cfa_register 13
 2367              		@ sp needed
 2368 004e 80BD     		pop	{r7, pc}
 2369              		.cfi_endproc
 2370              	.LFE141:
 2372              		.section	.text.HAL_NOR_GetState,"ax",%progbits
 2373              		.align	1
 2374              		.global	HAL_NOR_GetState
 2375              		.syntax unified
 2376              		.thumb
 2377              		.thumb_func
 2378              		.fpu fpv4-sp-d16
 2380              	HAL_NOR_GetState:
 2381              	.LFB142:
 933:./Libraries/STM32F4xx_HAL_Driver/Src/stm32f4xx_hal_nor.c **** 
 934:./Libraries/STM32F4xx_HAL_Driver/Src/stm32f4xx_hal_nor.c **** /**
 935:./Libraries/STM32F4xx_HAL_Driver/Src/stm32f4xx_hal_nor.c ****   * @}
 936:./Libraries/STM32F4xx_HAL_Driver/Src/stm32f4xx_hal_nor.c ****   */  
 937:./Libraries/STM32F4xx_HAL_Driver/Src/stm32f4xx_hal_nor.c ****   
 938:./Libraries/STM32F4xx_HAL_Driver/Src/stm32f4xx_hal_nor.c **** /** @defgroup NOR_Exported_Functions_Group4 NOR State functions 
 939:./Libraries/STM32F4xx_HAL_Driver/Src/stm32f4xx_hal_nor.c ****  *  @brief   Peripheral State functions 
 940:./Libraries/STM32F4xx_HAL_Driver/Src/stm32f4xx_hal_nor.c ****  *
 941:./Libraries/STM32F4xx_HAL_Driver/Src/stm32f4xx_hal_nor.c **** @verbatim   
 942:./Libraries/STM32F4xx_HAL_Driver/Src/stm32f4xx_hal_nor.c ****   ==============================================================================
 943:./Libraries/STM32F4xx_HAL_Driver/Src/stm32f4xx_hal_nor.c ****                       ##### NOR State functions #####
 944:./Libraries/STM32F4xx_HAL_Driver/Src/stm32f4xx_hal_nor.c ****   ==============================================================================  
 945:./Libraries/STM32F4xx_HAL_Driver/Src/stm32f4xx_hal_nor.c ****   [..]
 946:./Libraries/STM32F4xx_HAL_Driver/Src/stm32f4xx_hal_nor.c ****     This subsection permits to get in run-time the status of the NOR controller 
 947:./Libraries/STM32F4xx_HAL_Driver/Src/stm32f4xx_hal_nor.c ****     and the data flow.
 948:./Libraries/STM32F4xx_HAL_Driver/Src/stm32f4xx_hal_nor.c **** 
 949:./Libraries/STM32F4xx_HAL_Driver/Src/stm32f4xx_hal_nor.c **** @endverbatim
 950:./Libraries/STM32F4xx_HAL_Driver/Src/stm32f4xx_hal_nor.c ****   * @{
 951:./Libraries/STM32F4xx_HAL_Driver/Src/stm32f4xx_hal_nor.c ****   */
 952:./Libraries/STM32F4xx_HAL_Driver/Src/stm32f4xx_hal_nor.c ****   
 953:./Libraries/STM32F4xx_HAL_Driver/Src/stm32f4xx_hal_nor.c **** /**
 954:./Libraries/STM32F4xx_HAL_Driver/Src/stm32f4xx_hal_nor.c ****   * @brief  return the NOR controller state
 955:./Libraries/STM32F4xx_HAL_Driver/Src/stm32f4xx_hal_nor.c ****   * @param  hnor pointer to a NOR_HandleTypeDef structure that contains
 956:./Libraries/STM32F4xx_HAL_Driver/Src/stm32f4xx_hal_nor.c ****   *                the configuration information for NOR module.
 957:./Libraries/STM32F4xx_HAL_Driver/Src/stm32f4xx_hal_nor.c ****   * @retval NOR controller state
 958:./Libraries/STM32F4xx_HAL_Driver/Src/stm32f4xx_hal_nor.c ****   */
ARM GAS  /tmp/ccscUl47.s 			page 59


 959:./Libraries/STM32F4xx_HAL_Driver/Src/stm32f4xx_hal_nor.c **** HAL_NOR_StateTypeDef HAL_NOR_GetState(NOR_HandleTypeDef *hnor)
 960:./Libraries/STM32F4xx_HAL_Driver/Src/stm32f4xx_hal_nor.c **** {
 2382              		.loc 1 960 1
 2383              		.cfi_startproc
 2384              		@ args = 0, pretend = 0, frame = 8
 2385              		@ frame_needed = 1, uses_anonymous_args = 0
 2386              		@ link register save eliminated.
 2387 0000 80B4     		push	{r7}
 2388              	.LCFI92:
 2389              		.cfi_def_cfa_offset 4
 2390              		.cfi_offset 7, -4
 2391 0002 83B0     		sub	sp, sp, #12
 2392              	.LCFI93:
 2393              		.cfi_def_cfa_offset 16
 2394 0004 00AF     		add	r7, sp, #0
 2395              	.LCFI94:
 2396              		.cfi_def_cfa_register 7
 2397 0006 7860     		str	r0, [r7, #4]
 961:./Libraries/STM32F4xx_HAL_Driver/Src/stm32f4xx_hal_nor.c ****   return hnor->State;
 2398              		.loc 1 961 14
 2399 0008 7B68     		ldr	r3, [r7, #4]
 2400 000a 93F84930 		ldrb	r3, [r3, #73]
 2401 000e DBB2     		uxtb	r3, r3
 962:./Libraries/STM32F4xx_HAL_Driver/Src/stm32f4xx_hal_nor.c **** }
 2402              		.loc 1 962 1
 2403 0010 1846     		mov	r0, r3
 2404 0012 0C37     		adds	r7, r7, #12
 2405              	.LCFI95:
 2406              		.cfi_def_cfa_offset 4
 2407 0014 BD46     		mov	sp, r7
 2408              	.LCFI96:
 2409              		.cfi_def_cfa_register 13
 2410              		@ sp needed
 2411 0016 5DF8047B 		ldr	r7, [sp], #4
 2412              	.LCFI97:
 2413              		.cfi_restore 7
 2414              		.cfi_def_cfa_offset 0
 2415 001a 7047     		bx	lr
 2416              		.cfi_endproc
 2417              	.LFE142:
 2419              		.section	.text.HAL_NOR_GetStatus,"ax",%progbits
 2420              		.align	1
 2421              		.global	HAL_NOR_GetStatus
 2422              		.syntax unified
 2423              		.thumb
 2424              		.thumb_func
 2425              		.fpu fpv4-sp-d16
 2427              	HAL_NOR_GetStatus:
 2428              	.LFB143:
 963:./Libraries/STM32F4xx_HAL_Driver/Src/stm32f4xx_hal_nor.c **** 
 964:./Libraries/STM32F4xx_HAL_Driver/Src/stm32f4xx_hal_nor.c **** /**
 965:./Libraries/STM32F4xx_HAL_Driver/Src/stm32f4xx_hal_nor.c ****   * @brief  Returns the NOR operation status.
 966:./Libraries/STM32F4xx_HAL_Driver/Src/stm32f4xx_hal_nor.c ****   * @param  hnor pointer to a NOR_HandleTypeDef structure that contains
 967:./Libraries/STM32F4xx_HAL_Driver/Src/stm32f4xx_hal_nor.c ****   *                the configuration information for NOR module.   
 968:./Libraries/STM32F4xx_HAL_Driver/Src/stm32f4xx_hal_nor.c ****   * @param  Address Device address
 969:./Libraries/STM32F4xx_HAL_Driver/Src/stm32f4xx_hal_nor.c ****   * @param  Timeout NOR programming Timeout
 970:./Libraries/STM32F4xx_HAL_Driver/Src/stm32f4xx_hal_nor.c ****   * @retval NOR_Status: The returned value can be: HAL_NOR_STATUS_SUCCESS, HAL_NOR_STATUS_ERROR
ARM GAS  /tmp/ccscUl47.s 			page 60


 971:./Libraries/STM32F4xx_HAL_Driver/Src/stm32f4xx_hal_nor.c ****   *         or HAL_NOR_STATUS_TIMEOUT
 972:./Libraries/STM32F4xx_HAL_Driver/Src/stm32f4xx_hal_nor.c ****   */
 973:./Libraries/STM32F4xx_HAL_Driver/Src/stm32f4xx_hal_nor.c **** HAL_NOR_StatusTypeDef HAL_NOR_GetStatus(NOR_HandleTypeDef *hnor, uint32_t Address, uint32_t Timeout
 974:./Libraries/STM32F4xx_HAL_Driver/Src/stm32f4xx_hal_nor.c **** { 
 2429              		.loc 1 974 1
 2430              		.cfi_startproc
 2431              		@ args = 0, pretend = 0, frame = 32
 2432              		@ frame_needed = 1, uses_anonymous_args = 0
 2433 0000 80B5     		push	{r7, lr}
 2434              	.LCFI98:
 2435              		.cfi_def_cfa_offset 8
 2436              		.cfi_offset 7, -8
 2437              		.cfi_offset 14, -4
 2438 0002 88B0     		sub	sp, sp, #32
 2439              	.LCFI99:
 2440              		.cfi_def_cfa_offset 40
 2441 0004 00AF     		add	r7, sp, #0
 2442              	.LCFI100:
 2443              		.cfi_def_cfa_register 7
 2444 0006 F860     		str	r0, [r7, #12]
 2445 0008 B960     		str	r1, [r7, #8]
 2446 000a 7A60     		str	r2, [r7, #4]
 975:./Libraries/STM32F4xx_HAL_Driver/Src/stm32f4xx_hal_nor.c ****   HAL_NOR_StatusTypeDef status = HAL_NOR_STATUS_ONGOING;
 2447              		.loc 1 975 25
 2448 000c 0123     		movs	r3, #1
 2449 000e FB77     		strb	r3, [r7, #31]
 976:./Libraries/STM32F4xx_HAL_Driver/Src/stm32f4xx_hal_nor.c ****   uint16_t tmpSR1 = 0, tmpSR2 = 0;
 2450              		.loc 1 976 12
 2451 0010 0023     		movs	r3, #0
 2452 0012 BB83     		strh	r3, [r7, #28]	@ movhi
 2453              		.loc 1 976 24
 2454 0014 0023     		movs	r3, #0
 2455 0016 7B83     		strh	r3, [r7, #26]	@ movhi
 977:./Libraries/STM32F4xx_HAL_Driver/Src/stm32f4xx_hal_nor.c ****   uint32_t tickstart = 0U;
 2456              		.loc 1 977 12
 2457 0018 0023     		movs	r3, #0
 2458 001a 7B61     		str	r3, [r7, #20]
 978:./Libraries/STM32F4xx_HAL_Driver/Src/stm32f4xx_hal_nor.c **** 
 979:./Libraries/STM32F4xx_HAL_Driver/Src/stm32f4xx_hal_nor.c ****   /* Poll on NOR memory Ready/Busy signal ------------------------------------*/
 980:./Libraries/STM32F4xx_HAL_Driver/Src/stm32f4xx_hal_nor.c ****   HAL_NOR_MspWait(hnor, Timeout);
 2459              		.loc 1 980 3
 2460 001c 7968     		ldr	r1, [r7, #4]
 2461 001e F868     		ldr	r0, [r7, #12]
 2462 0020 FFF7FEFF 		bl	HAL_NOR_MspWait
 981:./Libraries/STM32F4xx_HAL_Driver/Src/stm32f4xx_hal_nor.c ****   
 982:./Libraries/STM32F4xx_HAL_Driver/Src/stm32f4xx_hal_nor.c ****   /* Get the NOR memory operation status -------------------------------------*/
 983:./Libraries/STM32F4xx_HAL_Driver/Src/stm32f4xx_hal_nor.c ****   
 984:./Libraries/STM32F4xx_HAL_Driver/Src/stm32f4xx_hal_nor.c ****   /* Get tick */
 985:./Libraries/STM32F4xx_HAL_Driver/Src/stm32f4xx_hal_nor.c ****   tickstart = HAL_GetTick();
 2463              		.loc 1 985 15
 2464 0024 FFF7FEFF 		bl	HAL_GetTick
 2465 0028 7861     		str	r0, [r7, #20]
 986:./Libraries/STM32F4xx_HAL_Driver/Src/stm32f4xx_hal_nor.c ****   while((status != HAL_NOR_STATUS_SUCCESS ) && (status != HAL_NOR_STATUS_TIMEOUT))
 2466              		.loc 1 986 8
 2467 002a 3EE0     		b	.L185
 2468              	.L193:
 987:./Libraries/STM32F4xx_HAL_Driver/Src/stm32f4xx_hal_nor.c ****   {
ARM GAS  /tmp/ccscUl47.s 			page 61


 988:./Libraries/STM32F4xx_HAL_Driver/Src/stm32f4xx_hal_nor.c ****     /* Check for the Timeout */
 989:./Libraries/STM32F4xx_HAL_Driver/Src/stm32f4xx_hal_nor.c ****     if(Timeout != HAL_MAX_DELAY)
 2469              		.loc 1 989 7
 2470 002c 7B68     		ldr	r3, [r7, #4]
 2471 002e B3F1FF3F 		cmp	r3, #-1
 2472 0032 0CD0     		beq	.L186
 990:./Libraries/STM32F4xx_HAL_Driver/Src/stm32f4xx_hal_nor.c ****     {
 991:./Libraries/STM32F4xx_HAL_Driver/Src/stm32f4xx_hal_nor.c ****       if((Timeout == 0U)||((HAL_GetTick() - tickstart ) > Timeout))
 2473              		.loc 1 991 9
 2474 0034 7B68     		ldr	r3, [r7, #4]
 2475 0036 002B     		cmp	r3, #0
 2476 0038 07D0     		beq	.L187
 2477              		.loc 1 991 29 discriminator 1
 2478 003a FFF7FEFF 		bl	HAL_GetTick
 2479 003e 0246     		mov	r2, r0
 2480              		.loc 1 991 43 discriminator 1
 2481 0040 7B69     		ldr	r3, [r7, #20]
 2482 0042 D31A     		subs	r3, r2, r3
 2483              		.loc 1 991 25 discriminator 1
 2484 0044 7A68     		ldr	r2, [r7, #4]
 2485 0046 9A42     		cmp	r2, r3
 2486 0048 01D2     		bcs	.L186
 2487              	.L187:
 992:./Libraries/STM32F4xx_HAL_Driver/Src/stm32f4xx_hal_nor.c ****       {
 993:./Libraries/STM32F4xx_HAL_Driver/Src/stm32f4xx_hal_nor.c ****         status = HAL_NOR_STATUS_TIMEOUT; 
 2488              		.loc 1 993 16
 2489 004a 0323     		movs	r3, #3
 2490 004c FB77     		strb	r3, [r7, #31]
 2491              	.L186:
 994:./Libraries/STM32F4xx_HAL_Driver/Src/stm32f4xx_hal_nor.c ****       } 
 995:./Libraries/STM32F4xx_HAL_Driver/Src/stm32f4xx_hal_nor.c ****     } 
 996:./Libraries/STM32F4xx_HAL_Driver/Src/stm32f4xx_hal_nor.c **** 
 997:./Libraries/STM32F4xx_HAL_Driver/Src/stm32f4xx_hal_nor.c ****     /* Read NOR status register (DQ6 and DQ5) */
 998:./Libraries/STM32F4xx_HAL_Driver/Src/stm32f4xx_hal_nor.c ****     tmpSR1 = *(__IO uint16_t *)Address;
 2492              		.loc 1 998 15
 2493 004e BB68     		ldr	r3, [r7, #8]
 2494              		.loc 1 998 12
 2495 0050 1B88     		ldrh	r3, [r3]	@ movhi
 2496 0052 BB83     		strh	r3, [r7, #28]	@ movhi
 999:./Libraries/STM32F4xx_HAL_Driver/Src/stm32f4xx_hal_nor.c ****     tmpSR2 = *(__IO uint16_t *)Address;
 2497              		.loc 1 999 15
 2498 0054 BB68     		ldr	r3, [r7, #8]
 2499              		.loc 1 999 12
 2500 0056 1B88     		ldrh	r3, [r3]	@ movhi
 2501 0058 7B83     		strh	r3, [r7, #26]	@ movhi
1000:./Libraries/STM32F4xx_HAL_Driver/Src/stm32f4xx_hal_nor.c **** 
1001:./Libraries/STM32F4xx_HAL_Driver/Src/stm32f4xx_hal_nor.c ****     /* If DQ6 did not toggle between the two reads then return HAL_NOR_STATUS_SUCCESS  */
1002:./Libraries/STM32F4xx_HAL_Driver/Src/stm32f4xx_hal_nor.c ****     if((tmpSR1 & NOR_MASK_STATUS_DQ6) == (tmpSR2 & NOR_MASK_STATUS_DQ6)) 
 2502              		.loc 1 1002 39
 2503 005a BA8B     		ldrh	r2, [r7, #28]	@ movhi
 2504 005c 7B8B     		ldrh	r3, [r7, #26]	@ movhi
 2505 005e 5340     		eors	r3, r3, r2
 2506 0060 9BB2     		uxth	r3, r3
 2507 0062 03F04003 		and	r3, r3, #64
 2508              		.loc 1 1002 7
 2509 0066 002B     		cmp	r3, #0
 2510 0068 01D1     		bne	.L188
ARM GAS  /tmp/ccscUl47.s 			page 62


1003:./Libraries/STM32F4xx_HAL_Driver/Src/stm32f4xx_hal_nor.c ****     {
1004:./Libraries/STM32F4xx_HAL_Driver/Src/stm32f4xx_hal_nor.c ****       return HAL_NOR_STATUS_SUCCESS ;
 2511              		.loc 1 1004 14
 2512 006a 0023     		movs	r3, #0
 2513 006c 24E0     		b	.L189
 2514              	.L188:
1005:./Libraries/STM32F4xx_HAL_Driver/Src/stm32f4xx_hal_nor.c ****     }
1006:./Libraries/STM32F4xx_HAL_Driver/Src/stm32f4xx_hal_nor.c ****     
1007:./Libraries/STM32F4xx_HAL_Driver/Src/stm32f4xx_hal_nor.c ****     if((tmpSR1 & NOR_MASK_STATUS_DQ5) == NOR_MASK_STATUS_DQ5)
 2515              		.loc 1 1007 16
 2516 006e BB8B     		ldrh	r3, [r7, #28]
 2517 0070 03F02003 		and	r3, r3, #32
 2518              		.loc 1 1007 7
 2519 0074 002B     		cmp	r3, #0
 2520 0076 01D0     		beq	.L190
1008:./Libraries/STM32F4xx_HAL_Driver/Src/stm32f4xx_hal_nor.c ****     {
1009:./Libraries/STM32F4xx_HAL_Driver/Src/stm32f4xx_hal_nor.c ****       status = HAL_NOR_STATUS_ONGOING;
 2521              		.loc 1 1009 14
 2522 0078 0123     		movs	r3, #1
 2523 007a FB77     		strb	r3, [r7, #31]
 2524              	.L190:
1010:./Libraries/STM32F4xx_HAL_Driver/Src/stm32f4xx_hal_nor.c ****     }
1011:./Libraries/STM32F4xx_HAL_Driver/Src/stm32f4xx_hal_nor.c ****     
1012:./Libraries/STM32F4xx_HAL_Driver/Src/stm32f4xx_hal_nor.c ****     tmpSR1 = *(__IO uint16_t *)Address;
 2525              		.loc 1 1012 15
 2526 007c BB68     		ldr	r3, [r7, #8]
 2527              		.loc 1 1012 12
 2528 007e 1B88     		ldrh	r3, [r3]	@ movhi
 2529 0080 BB83     		strh	r3, [r7, #28]	@ movhi
1013:./Libraries/STM32F4xx_HAL_Driver/Src/stm32f4xx_hal_nor.c ****     tmpSR2 = *(__IO uint16_t *)Address;
 2530              		.loc 1 1013 15
 2531 0082 BB68     		ldr	r3, [r7, #8]
 2532              		.loc 1 1013 12
 2533 0084 1B88     		ldrh	r3, [r3]	@ movhi
 2534 0086 7B83     		strh	r3, [r7, #26]	@ movhi
1014:./Libraries/STM32F4xx_HAL_Driver/Src/stm32f4xx_hal_nor.c **** 
1015:./Libraries/STM32F4xx_HAL_Driver/Src/stm32f4xx_hal_nor.c ****     /* If DQ6 did not toggle between the two reads then return HAL_NOR_STATUS_SUCCESS  */
1016:./Libraries/STM32F4xx_HAL_Driver/Src/stm32f4xx_hal_nor.c ****     if((tmpSR1 & NOR_MASK_STATUS_DQ6) == (tmpSR2 & NOR_MASK_STATUS_DQ6)) 
 2535              		.loc 1 1016 39
 2536 0088 BA8B     		ldrh	r2, [r7, #28]	@ movhi
 2537 008a 7B8B     		ldrh	r3, [r7, #26]	@ movhi
 2538 008c 5340     		eors	r3, r3, r2
 2539 008e 9BB2     		uxth	r3, r3
 2540 0090 03F04003 		and	r3, r3, #64
 2541              		.loc 1 1016 7
 2542 0094 002B     		cmp	r3, #0
 2543 0096 01D1     		bne	.L191
1017:./Libraries/STM32F4xx_HAL_Driver/Src/stm32f4xx_hal_nor.c ****     {
1018:./Libraries/STM32F4xx_HAL_Driver/Src/stm32f4xx_hal_nor.c ****       return HAL_NOR_STATUS_SUCCESS;
 2544              		.loc 1 1018 14
 2545 0098 0023     		movs	r3, #0
 2546 009a 0DE0     		b	.L189
 2547              	.L191:
1019:./Libraries/STM32F4xx_HAL_Driver/Src/stm32f4xx_hal_nor.c ****     }
1020:./Libraries/STM32F4xx_HAL_Driver/Src/stm32f4xx_hal_nor.c ****     if((tmpSR1 & NOR_MASK_STATUS_DQ5) == NOR_MASK_STATUS_DQ5)
 2548              		.loc 1 1020 16
 2549 009c BB8B     		ldrh	r3, [r7, #28]
ARM GAS  /tmp/ccscUl47.s 			page 63


 2550 009e 03F02003 		and	r3, r3, #32
 2551              		.loc 1 1020 7
 2552 00a2 002B     		cmp	r3, #0
 2553 00a4 01D0     		beq	.L185
1021:./Libraries/STM32F4xx_HAL_Driver/Src/stm32f4xx_hal_nor.c ****     {
1022:./Libraries/STM32F4xx_HAL_Driver/Src/stm32f4xx_hal_nor.c ****       return HAL_NOR_STATUS_ERROR;
 2554              		.loc 1 1022 14
 2555 00a6 0223     		movs	r3, #2
 2556 00a8 06E0     		b	.L189
 2557              	.L185:
 986:./Libraries/STM32F4xx_HAL_Driver/Src/stm32f4xx_hal_nor.c ****   {
 2558              		.loc 1 986 8
 2559 00aa FB7F     		ldrb	r3, [r7, #31]	@ zero_extendqisi2
 2560 00ac 002B     		cmp	r3, #0
 2561 00ae 02D0     		beq	.L192
 986:./Libraries/STM32F4xx_HAL_Driver/Src/stm32f4xx_hal_nor.c ****   {
 2562              		.loc 1 986 45 discriminator 1
 2563 00b0 FB7F     		ldrb	r3, [r7, #31]	@ zero_extendqisi2
 2564 00b2 032B     		cmp	r3, #3
 2565 00b4 BAD1     		bne	.L193
 2566              	.L192:
1023:./Libraries/STM32F4xx_HAL_Driver/Src/stm32f4xx_hal_nor.c ****     } 
1024:./Libraries/STM32F4xx_HAL_Driver/Src/stm32f4xx_hal_nor.c ****   }
1025:./Libraries/STM32F4xx_HAL_Driver/Src/stm32f4xx_hal_nor.c **** 
1026:./Libraries/STM32F4xx_HAL_Driver/Src/stm32f4xx_hal_nor.c ****   /* Return the operation status */
1027:./Libraries/STM32F4xx_HAL_Driver/Src/stm32f4xx_hal_nor.c ****   return status;
 2567              		.loc 1 1027 10
 2568 00b6 FB7F     		ldrb	r3, [r7, #31]	@ zero_extendqisi2
 2569              	.L189:
1028:./Libraries/STM32F4xx_HAL_Driver/Src/stm32f4xx_hal_nor.c **** }
 2570              		.loc 1 1028 1
 2571 00b8 1846     		mov	r0, r3
 2572 00ba 2037     		adds	r7, r7, #32
 2573              	.LCFI101:
 2574              		.cfi_def_cfa_offset 8
 2575 00bc BD46     		mov	sp, r7
 2576              	.LCFI102:
 2577              		.cfi_def_cfa_register 13
 2578              		@ sp needed
 2579 00be 80BD     		pop	{r7, pc}
 2580              		.cfi_endproc
 2581              	.LFE143:
 2583              		.text
 2584              	.Letext0:
 2585              		.file 2 "/home/hao/Documents/gcc-arm-none-eabi/arm-none-eabi/include/machine/_default_types.h"
 2586              		.file 3 "/home/hao/Documents/gcc-arm-none-eabi/arm-none-eabi/include/sys/_stdint.h"
 2587              		.file 4 "./Libraries/CMSIS/Device/ST/STM32F4xx/Include/stm32f429xx.h"
 2588              		.file 5 "./Libraries/STM32F4xx_HAL_Driver/Inc/stm32f4xx_hal_def.h"
 2589              		.file 6 "./Libraries/STM32F4xx_HAL_Driver/Inc/stm32f4xx_ll_fmc.h"
 2590              		.file 7 "./Libraries/STM32F4xx_HAL_Driver/Inc/stm32f4xx_hal_nor.h"
ARM GAS  /tmp/ccscUl47.s 			page 64

