ARM GAS  /tmp/ccvKwMj1.s 			page 1


   1              		.cpu cortex-m4
   2              		.eabi_attribute 27, 1
   3              		.eabi_attribute 28, 1
   4              		.eabi_attribute 20, 1
   5              		.eabi_attribute 21, 1
   6              		.eabi_attribute 23, 3
   7              		.eabi_attribute 24, 1
   8              		.eabi_attribute 25, 1
   9              		.eabi_attribute 26, 1
  10              		.eabi_attribute 30, 6
  11              		.eabi_attribute 34, 1
  12              		.eabi_attribute 18, 4
  13              		.file	"stm32f4xx_hal_tim.c"
  14              		.text
  15              	.Ltext0:
  16              		.cfi_sections	.debug_frame
  17              		.section	.text.HAL_TIM_Base_Init,"ax",%progbits
  18              		.align	1
  19              		.global	HAL_TIM_Base_Init
  20              		.arch armv7e-m
  21              		.syntax unified
  22              		.thumb
  23              		.thumb_func
  24              		.fpu fpv4-sp-d16
  26              	HAL_TIM_Base_Init:
  27              	.LFB126:
  28              		.file 1 "./Libraries/STM32F4xx_HAL_Driver/Src/stm32f4xx_hal_tim.c"
   1:./Libraries/STM32F4xx_HAL_Driver/Src/stm32f4xx_hal_tim.c **** /**
   2:./Libraries/STM32F4xx_HAL_Driver/Src/stm32f4xx_hal_tim.c ****   ******************************************************************************
   3:./Libraries/STM32F4xx_HAL_Driver/Src/stm32f4xx_hal_tim.c ****   * @file    stm32f4xx_hal_tim.c
   4:./Libraries/STM32F4xx_HAL_Driver/Src/stm32f4xx_hal_tim.c ****   * @author  MCD Application Team
   5:./Libraries/STM32F4xx_HAL_Driver/Src/stm32f4xx_hal_tim.c ****   * @brief   TIM HAL module driver.
   6:./Libraries/STM32F4xx_HAL_Driver/Src/stm32f4xx_hal_tim.c ****   *          This file provides firmware functions to manage the following 
   7:./Libraries/STM32F4xx_HAL_Driver/Src/stm32f4xx_hal_tim.c ****   *          functionalities of the Timer (TIM) peripheral:
   8:./Libraries/STM32F4xx_HAL_Driver/Src/stm32f4xx_hal_tim.c ****   *           + Time Base Initialization
   9:./Libraries/STM32F4xx_HAL_Driver/Src/stm32f4xx_hal_tim.c ****   *           + Time Base Start
  10:./Libraries/STM32F4xx_HAL_Driver/Src/stm32f4xx_hal_tim.c ****   *           + Time Base Start Interruption
  11:./Libraries/STM32F4xx_HAL_Driver/Src/stm32f4xx_hal_tim.c ****   *           + Time Base Start DMA
  12:./Libraries/STM32F4xx_HAL_Driver/Src/stm32f4xx_hal_tim.c ****   *           + Time Output Compare/PWM Initialization
  13:./Libraries/STM32F4xx_HAL_Driver/Src/stm32f4xx_hal_tim.c ****   *           + Time Output Compare/PWM Channel Configuration
  14:./Libraries/STM32F4xx_HAL_Driver/Src/stm32f4xx_hal_tim.c ****   *           + Time Output Compare/PWM  Start
  15:./Libraries/STM32F4xx_HAL_Driver/Src/stm32f4xx_hal_tim.c ****   *           + Time Output Compare/PWM  Start Interruption
  16:./Libraries/STM32F4xx_HAL_Driver/Src/stm32f4xx_hal_tim.c ****   *           + Time Output Compare/PWM Start DMA
  17:./Libraries/STM32F4xx_HAL_Driver/Src/stm32f4xx_hal_tim.c ****   *           + Time Input Capture Initialization
  18:./Libraries/STM32F4xx_HAL_Driver/Src/stm32f4xx_hal_tim.c ****   *           + Time Input Capture Channel Configuration
  19:./Libraries/STM32F4xx_HAL_Driver/Src/stm32f4xx_hal_tim.c ****   *           + Time Input Capture Start
  20:./Libraries/STM32F4xx_HAL_Driver/Src/stm32f4xx_hal_tim.c ****   *           + Time Input Capture Start Interruption 
  21:./Libraries/STM32F4xx_HAL_Driver/Src/stm32f4xx_hal_tim.c ****   *           + Time Input Capture Start DMA
  22:./Libraries/STM32F4xx_HAL_Driver/Src/stm32f4xx_hal_tim.c ****   *           + Time One Pulse Initialization
  23:./Libraries/STM32F4xx_HAL_Driver/Src/stm32f4xx_hal_tim.c ****   *           + Time One Pulse Channel Configuration
  24:./Libraries/STM32F4xx_HAL_Driver/Src/stm32f4xx_hal_tim.c ****   *           + Time One Pulse Start 
  25:./Libraries/STM32F4xx_HAL_Driver/Src/stm32f4xx_hal_tim.c ****   *           + Time Encoder Interface Initialization
  26:./Libraries/STM32F4xx_HAL_Driver/Src/stm32f4xx_hal_tim.c ****   *           + Time Encoder Interface Start
  27:./Libraries/STM32F4xx_HAL_Driver/Src/stm32f4xx_hal_tim.c ****   *           + Time Encoder Interface Start Interruption
  28:./Libraries/STM32F4xx_HAL_Driver/Src/stm32f4xx_hal_tim.c ****   *           + Time Encoder Interface Start DMA
  29:./Libraries/STM32F4xx_HAL_Driver/Src/stm32f4xx_hal_tim.c ****   *           + Commutation Event configuration with Interruption and DMA
  30:./Libraries/STM32F4xx_HAL_Driver/Src/stm32f4xx_hal_tim.c ****   *           + Time OCRef clear configuration
ARM GAS  /tmp/ccvKwMj1.s 			page 2


  31:./Libraries/STM32F4xx_HAL_Driver/Src/stm32f4xx_hal_tim.c ****   *           + Time External Clock configuration
  32:./Libraries/STM32F4xx_HAL_Driver/Src/stm32f4xx_hal_tim.c ****   @verbatim 
  33:./Libraries/STM32F4xx_HAL_Driver/Src/stm32f4xx_hal_tim.c ****   ==============================================================================
  34:./Libraries/STM32F4xx_HAL_Driver/Src/stm32f4xx_hal_tim.c ****                       ##### TIMER Generic features #####
  35:./Libraries/STM32F4xx_HAL_Driver/Src/stm32f4xx_hal_tim.c ****   ==============================================================================
  36:./Libraries/STM32F4xx_HAL_Driver/Src/stm32f4xx_hal_tim.c ****   [..] The Timer features include: 
  37:./Libraries/STM32F4xx_HAL_Driver/Src/stm32f4xx_hal_tim.c ****        (#) 16-bit up, down, up/down auto-reload counter.
  38:./Libraries/STM32F4xx_HAL_Driver/Src/stm32f4xx_hal_tim.c ****        (#) 16-bit programmable prescaler allowing dividing (also on the fly) the 
  39:./Libraries/STM32F4xx_HAL_Driver/Src/stm32f4xx_hal_tim.c ****            counter clock frequency either by any factor between 1 and 65536.
  40:./Libraries/STM32F4xx_HAL_Driver/Src/stm32f4xx_hal_tim.c ****        (#) Up to 4 independent channels for:
  41:./Libraries/STM32F4xx_HAL_Driver/Src/stm32f4xx_hal_tim.c ****            (++) Input Capture
  42:./Libraries/STM32F4xx_HAL_Driver/Src/stm32f4xx_hal_tim.c ****            (++) Output Compare
  43:./Libraries/STM32F4xx_HAL_Driver/Src/stm32f4xx_hal_tim.c ****            (++) PWM generation (Edge and Center-aligned Mode)
  44:./Libraries/STM32F4xx_HAL_Driver/Src/stm32f4xx_hal_tim.c ****            (++) One-pulse mode output               
  45:./Libraries/STM32F4xx_HAL_Driver/Src/stm32f4xx_hal_tim.c ****    
  46:./Libraries/STM32F4xx_HAL_Driver/Src/stm32f4xx_hal_tim.c ****                         ##### How to use this driver #####
  47:./Libraries/STM32F4xx_HAL_Driver/Src/stm32f4xx_hal_tim.c ****   ==============================================================================
  48:./Libraries/STM32F4xx_HAL_Driver/Src/stm32f4xx_hal_tim.c ****     [..]
  49:./Libraries/STM32F4xx_HAL_Driver/Src/stm32f4xx_hal_tim.c ****      (#) Initialize the TIM low level resources by implementing the following functions 
  50:./Libraries/STM32F4xx_HAL_Driver/Src/stm32f4xx_hal_tim.c ****          depending from feature used :
  51:./Libraries/STM32F4xx_HAL_Driver/Src/stm32f4xx_hal_tim.c ****            (++) Time Base : HAL_TIM_Base_MspInit() 
  52:./Libraries/STM32F4xx_HAL_Driver/Src/stm32f4xx_hal_tim.c ****            (++) Input Capture : HAL_TIM_IC_MspInit()
  53:./Libraries/STM32F4xx_HAL_Driver/Src/stm32f4xx_hal_tim.c ****            (++) Output Compare : HAL_TIM_OC_MspInit()
  54:./Libraries/STM32F4xx_HAL_Driver/Src/stm32f4xx_hal_tim.c ****            (++) PWM generation : HAL_TIM_PWM_MspInit()
  55:./Libraries/STM32F4xx_HAL_Driver/Src/stm32f4xx_hal_tim.c ****            (++) One-pulse mode output : HAL_TIM_OnePulse_MspInit()
  56:./Libraries/STM32F4xx_HAL_Driver/Src/stm32f4xx_hal_tim.c ****            (++) Encoder mode output : HAL_TIM_Encoder_MspInit()
  57:./Libraries/STM32F4xx_HAL_Driver/Src/stm32f4xx_hal_tim.c ****            
  58:./Libraries/STM32F4xx_HAL_Driver/Src/stm32f4xx_hal_tim.c ****      (#) Initialize the TIM low level resources :
  59:./Libraries/STM32F4xx_HAL_Driver/Src/stm32f4xx_hal_tim.c ****         (##) Enable the TIM interface clock using __TIMx_CLK_ENABLE(); 
  60:./Libraries/STM32F4xx_HAL_Driver/Src/stm32f4xx_hal_tim.c ****         (##) TIM pins configuration
  61:./Libraries/STM32F4xx_HAL_Driver/Src/stm32f4xx_hal_tim.c ****             (+++) Enable the clock for the TIM GPIOs using the following function:
  62:./Libraries/STM32F4xx_HAL_Driver/Src/stm32f4xx_hal_tim.c ****                  __GPIOx_CLK_ENABLE();   
  63:./Libraries/STM32F4xx_HAL_Driver/Src/stm32f4xx_hal_tim.c ****             (+++) Configure these TIM pins in Alternate function mode using HAL_GPIO_Init();  
  64:./Libraries/STM32F4xx_HAL_Driver/Src/stm32f4xx_hal_tim.c **** 
  65:./Libraries/STM32F4xx_HAL_Driver/Src/stm32f4xx_hal_tim.c ****      (#) The external Clock can be configured, if needed (the default clock is the 
  66:./Libraries/STM32F4xx_HAL_Driver/Src/stm32f4xx_hal_tim.c ****          internal clock from the APBx), using the following function:
  67:./Libraries/STM32F4xx_HAL_Driver/Src/stm32f4xx_hal_tim.c ****          HAL_TIM_ConfigClockSource, the clock configuration should be done before 
  68:./Libraries/STM32F4xx_HAL_Driver/Src/stm32f4xx_hal_tim.c ****          any start function.
  69:./Libraries/STM32F4xx_HAL_Driver/Src/stm32f4xx_hal_tim.c ****   
  70:./Libraries/STM32F4xx_HAL_Driver/Src/stm32f4xx_hal_tim.c ****      (#) Configure the TIM in the desired functioning mode using one of the 
  71:./Libraries/STM32F4xx_HAL_Driver/Src/stm32f4xx_hal_tim.c ****          initialization function of this driver:
  72:./Libraries/STM32F4xx_HAL_Driver/Src/stm32f4xx_hal_tim.c ****          (++) HAL_TIM_Base_Init: to use the Timer to generate a simple time base
  73:./Libraries/STM32F4xx_HAL_Driver/Src/stm32f4xx_hal_tim.c ****          (++) HAL_TIM_OC_Init and HAL_TIM_OC_ConfigChannel: to use the Timer to generate an 
  74:./Libraries/STM32F4xx_HAL_Driver/Src/stm32f4xx_hal_tim.c ****               Output Compare signal.
  75:./Libraries/STM32F4xx_HAL_Driver/Src/stm32f4xx_hal_tim.c ****          (++) HAL_TIM_PWM_Init and HAL_TIM_PWM_ConfigChannel: to use the Timer to generate a 
  76:./Libraries/STM32F4xx_HAL_Driver/Src/stm32f4xx_hal_tim.c ****               PWM signal.
  77:./Libraries/STM32F4xx_HAL_Driver/Src/stm32f4xx_hal_tim.c ****          (++) HAL_TIM_IC_Init and HAL_TIM_IC_ConfigChannel: to use the Timer to measure an 
  78:./Libraries/STM32F4xx_HAL_Driver/Src/stm32f4xx_hal_tim.c ****               external signal.
  79:./Libraries/STM32F4xx_HAL_Driver/Src/stm32f4xx_hal_tim.c ****          (++) HAL_TIM_OnePulse_Init and HAL_TIM_OnePulse_ConfigChannel: to use the Timer 
  80:./Libraries/STM32F4xx_HAL_Driver/Src/stm32f4xx_hal_tim.c ****               in One Pulse Mode.
  81:./Libraries/STM32F4xx_HAL_Driver/Src/stm32f4xx_hal_tim.c ****          (++) HAL_TIM_Encoder_Init: to use the Timer Encoder Interface.
  82:./Libraries/STM32F4xx_HAL_Driver/Src/stm32f4xx_hal_tim.c ****          
  83:./Libraries/STM32F4xx_HAL_Driver/Src/stm32f4xx_hal_tim.c ****      (#) Activate the TIM peripheral using one of the start functions depending from the feature us
  84:./Libraries/STM32F4xx_HAL_Driver/Src/stm32f4xx_hal_tim.c ****            (++) Time Base : HAL_TIM_Base_Start(), HAL_TIM_Base_Start_DMA(), HAL_TIM_Base_Start_IT()
  85:./Libraries/STM32F4xx_HAL_Driver/Src/stm32f4xx_hal_tim.c ****            (++) Input Capture :  HAL_TIM_IC_Start(), HAL_TIM_IC_Start_DMA(), HAL_TIM_IC_Start_IT()
  86:./Libraries/STM32F4xx_HAL_Driver/Src/stm32f4xx_hal_tim.c ****            (++) Output Compare : HAL_TIM_OC_Start(), HAL_TIM_OC_Start_DMA(), HAL_TIM_OC_Start_IT()
  87:./Libraries/STM32F4xx_HAL_Driver/Src/stm32f4xx_hal_tim.c ****            (++) PWM generation : HAL_TIM_PWM_Start(), HAL_TIM_PWM_Start_DMA(), HAL_TIM_PWM_Start_IT
ARM GAS  /tmp/ccvKwMj1.s 			page 3


  88:./Libraries/STM32F4xx_HAL_Driver/Src/stm32f4xx_hal_tim.c ****            (++) One-pulse mode output : HAL_TIM_OnePulse_Start(), HAL_TIM_OnePulse_Start_IT()
  89:./Libraries/STM32F4xx_HAL_Driver/Src/stm32f4xx_hal_tim.c ****            (++) Encoder mode output : HAL_TIM_Encoder_Start(), HAL_TIM_Encoder_Start_DMA(), HAL_TIM
  90:./Libraries/STM32F4xx_HAL_Driver/Src/stm32f4xx_hal_tim.c **** 
  91:./Libraries/STM32F4xx_HAL_Driver/Src/stm32f4xx_hal_tim.c ****      (#) The DMA Burst is managed with the two following functions:
  92:./Libraries/STM32F4xx_HAL_Driver/Src/stm32f4xx_hal_tim.c ****          HAL_TIM_DMABurst_WriteStart()
  93:./Libraries/STM32F4xx_HAL_Driver/Src/stm32f4xx_hal_tim.c ****          HAL_TIM_DMABurst_ReadStart()
  94:./Libraries/STM32F4xx_HAL_Driver/Src/stm32f4xx_hal_tim.c ****   
  95:./Libraries/STM32F4xx_HAL_Driver/Src/stm32f4xx_hal_tim.c ****   @endverbatim
  96:./Libraries/STM32F4xx_HAL_Driver/Src/stm32f4xx_hal_tim.c ****   ******************************************************************************
  97:./Libraries/STM32F4xx_HAL_Driver/Src/stm32f4xx_hal_tim.c ****   * @attention
  98:./Libraries/STM32F4xx_HAL_Driver/Src/stm32f4xx_hal_tim.c ****   *
  99:./Libraries/STM32F4xx_HAL_Driver/Src/stm32f4xx_hal_tim.c ****   * <h2><center>&copy; COPYRIGHT(c) 2017 STMicroelectronics</center></h2>
 100:./Libraries/STM32F4xx_HAL_Driver/Src/stm32f4xx_hal_tim.c ****   *
 101:./Libraries/STM32F4xx_HAL_Driver/Src/stm32f4xx_hal_tim.c ****   * Redistribution and use in source and binary forms, with or without modification,
 102:./Libraries/STM32F4xx_HAL_Driver/Src/stm32f4xx_hal_tim.c ****   * are permitted provided that the following conditions are met:
 103:./Libraries/STM32F4xx_HAL_Driver/Src/stm32f4xx_hal_tim.c ****   *   1. Redistributions of source code must retain the above copyright notice,
 104:./Libraries/STM32F4xx_HAL_Driver/Src/stm32f4xx_hal_tim.c ****   *      this list of conditions and the following disclaimer.
 105:./Libraries/STM32F4xx_HAL_Driver/Src/stm32f4xx_hal_tim.c ****   *   2. Redistributions in binary form must reproduce the above copyright notice,
 106:./Libraries/STM32F4xx_HAL_Driver/Src/stm32f4xx_hal_tim.c ****   *      this list of conditions and the following disclaimer in the documentation
 107:./Libraries/STM32F4xx_HAL_Driver/Src/stm32f4xx_hal_tim.c ****   *      and/or other materials provided with the distribution.
 108:./Libraries/STM32F4xx_HAL_Driver/Src/stm32f4xx_hal_tim.c ****   *   3. Neither the name of STMicroelectronics nor the names of its contributors
 109:./Libraries/STM32F4xx_HAL_Driver/Src/stm32f4xx_hal_tim.c ****   *      may be used to endorse or promote products derived from this software
 110:./Libraries/STM32F4xx_HAL_Driver/Src/stm32f4xx_hal_tim.c ****   *      without specific prior written permission.
 111:./Libraries/STM32F4xx_HAL_Driver/Src/stm32f4xx_hal_tim.c ****   *
 112:./Libraries/STM32F4xx_HAL_Driver/Src/stm32f4xx_hal_tim.c ****   * THIS SOFTWARE IS PROVIDED BY THE COPYRIGHT HOLDERS AND CONTRIBUTORS "AS IS"
 113:./Libraries/STM32F4xx_HAL_Driver/Src/stm32f4xx_hal_tim.c ****   * AND ANY EXPRESS OR IMPLIED WARRANTIES, INCLUDING, BUT NOT LIMITED TO, THE
 114:./Libraries/STM32F4xx_HAL_Driver/Src/stm32f4xx_hal_tim.c ****   * IMPLIED WARRANTIES OF MERCHANTABILITY AND FITNESS FOR A PARTICULAR PURPOSE ARE
 115:./Libraries/STM32F4xx_HAL_Driver/Src/stm32f4xx_hal_tim.c ****   * DISCLAIMED. IN NO EVENT SHALL THE COPYRIGHT HOLDER OR CONTRIBUTORS BE LIABLE
 116:./Libraries/STM32F4xx_HAL_Driver/Src/stm32f4xx_hal_tim.c ****   * FOR ANY DIRECT, INDIRECT, INCIDENTAL, SPECIAL, EXEMPLARY, OR CONSEQUENTIAL
 117:./Libraries/STM32F4xx_HAL_Driver/Src/stm32f4xx_hal_tim.c ****   * DAMAGES (INCLUDING, BUT NOT LIMITED TO, PROCUREMENT OF SUBSTITUTE GOODS OR
 118:./Libraries/STM32F4xx_HAL_Driver/Src/stm32f4xx_hal_tim.c ****   * SERVICES; LOSS OF USE, DATA, OR PROFITS; OR BUSINESS INTERRUPTION) HOWEVER
 119:./Libraries/STM32F4xx_HAL_Driver/Src/stm32f4xx_hal_tim.c ****   * CAUSED AND ON ANY THEORY OF LIABILITY, WHETHER IN CONTRACT, STRICT LIABILITY,
 120:./Libraries/STM32F4xx_HAL_Driver/Src/stm32f4xx_hal_tim.c ****   * OR TORT (INCLUDING NEGLIGENCE OR OTHERWISE) ARISING IN ANY WAY OUT OF THE USE
 121:./Libraries/STM32F4xx_HAL_Driver/Src/stm32f4xx_hal_tim.c ****   * OF THIS SOFTWARE, EVEN IF ADVISED OF THE POSSIBILITY OF SUCH DAMAGE.
 122:./Libraries/STM32F4xx_HAL_Driver/Src/stm32f4xx_hal_tim.c ****   *
 123:./Libraries/STM32F4xx_HAL_Driver/Src/stm32f4xx_hal_tim.c ****   ******************************************************************************
 124:./Libraries/STM32F4xx_HAL_Driver/Src/stm32f4xx_hal_tim.c ****   */ 
 125:./Libraries/STM32F4xx_HAL_Driver/Src/stm32f4xx_hal_tim.c **** 
 126:./Libraries/STM32F4xx_HAL_Driver/Src/stm32f4xx_hal_tim.c **** /* Includes ------------------------------------------------------------------*/
 127:./Libraries/STM32F4xx_HAL_Driver/Src/stm32f4xx_hal_tim.c **** #include "stm32f4xx_hal.h"
 128:./Libraries/STM32F4xx_HAL_Driver/Src/stm32f4xx_hal_tim.c **** 
 129:./Libraries/STM32F4xx_HAL_Driver/Src/stm32f4xx_hal_tim.c **** /** @addtogroup STM32F4xx_HAL_Driver
 130:./Libraries/STM32F4xx_HAL_Driver/Src/stm32f4xx_hal_tim.c ****   * @{
 131:./Libraries/STM32F4xx_HAL_Driver/Src/stm32f4xx_hal_tim.c ****   */
 132:./Libraries/STM32F4xx_HAL_Driver/Src/stm32f4xx_hal_tim.c **** 
 133:./Libraries/STM32F4xx_HAL_Driver/Src/stm32f4xx_hal_tim.c **** /** @defgroup TIM TIM
 134:./Libraries/STM32F4xx_HAL_Driver/Src/stm32f4xx_hal_tim.c ****   * @brief TIM HAL module driver
 135:./Libraries/STM32F4xx_HAL_Driver/Src/stm32f4xx_hal_tim.c ****   * @{
 136:./Libraries/STM32F4xx_HAL_Driver/Src/stm32f4xx_hal_tim.c ****   */
 137:./Libraries/STM32F4xx_HAL_Driver/Src/stm32f4xx_hal_tim.c **** 
 138:./Libraries/STM32F4xx_HAL_Driver/Src/stm32f4xx_hal_tim.c **** #ifdef HAL_TIM_MODULE_ENABLED
 139:./Libraries/STM32F4xx_HAL_Driver/Src/stm32f4xx_hal_tim.c **** 
 140:./Libraries/STM32F4xx_HAL_Driver/Src/stm32f4xx_hal_tim.c **** /* Private typedef -----------------------------------------------------------*/
 141:./Libraries/STM32F4xx_HAL_Driver/Src/stm32f4xx_hal_tim.c **** /* Private define ------------------------------------------------------------*/
 142:./Libraries/STM32F4xx_HAL_Driver/Src/stm32f4xx_hal_tim.c **** /* Private macro -------------------------------------------------------------*/
 143:./Libraries/STM32F4xx_HAL_Driver/Src/stm32f4xx_hal_tim.c **** /* Private variables ---------------------------------------------------------*/
 144:./Libraries/STM32F4xx_HAL_Driver/Src/stm32f4xx_hal_tim.c **** /** @addtogroup TIM_Private_Functions
ARM GAS  /tmp/ccvKwMj1.s 			page 4


 145:./Libraries/STM32F4xx_HAL_Driver/Src/stm32f4xx_hal_tim.c ****   * @{
 146:./Libraries/STM32F4xx_HAL_Driver/Src/stm32f4xx_hal_tim.c ****   */
 147:./Libraries/STM32F4xx_HAL_Driver/Src/stm32f4xx_hal_tim.c **** /* Private function prototypes -----------------------------------------------*/
 148:./Libraries/STM32F4xx_HAL_Driver/Src/stm32f4xx_hal_tim.c **** static void TIM_OC1_SetConfig(TIM_TypeDef *TIMx, TIM_OC_InitTypeDef *OC_Config);
 149:./Libraries/STM32F4xx_HAL_Driver/Src/stm32f4xx_hal_tim.c **** static void TIM_OC3_SetConfig(TIM_TypeDef *TIMx, TIM_OC_InitTypeDef *OC_Config);
 150:./Libraries/STM32F4xx_HAL_Driver/Src/stm32f4xx_hal_tim.c **** static void TIM_OC4_SetConfig(TIM_TypeDef *TIMx, TIM_OC_InitTypeDef *OC_Config);
 151:./Libraries/STM32F4xx_HAL_Driver/Src/stm32f4xx_hal_tim.c **** 
 152:./Libraries/STM32F4xx_HAL_Driver/Src/stm32f4xx_hal_tim.c **** static void TIM_TI1_ConfigInputStage(TIM_TypeDef *TIMx, uint32_t TIM_ICPolarity, uint32_t TIM_ICFil
 153:./Libraries/STM32F4xx_HAL_Driver/Src/stm32f4xx_hal_tim.c **** static void TIM_TI2_SetConfig(TIM_TypeDef *TIMx, uint32_t TIM_ICPolarity, uint32_t TIM_ICSelection,
 154:./Libraries/STM32F4xx_HAL_Driver/Src/stm32f4xx_hal_tim.c ****                        uint32_t TIM_ICFilter);
 155:./Libraries/STM32F4xx_HAL_Driver/Src/stm32f4xx_hal_tim.c **** static void TIM_TI2_ConfigInputStage(TIM_TypeDef *TIMx, uint32_t TIM_ICPolarity, uint32_t TIM_ICFil
 156:./Libraries/STM32F4xx_HAL_Driver/Src/stm32f4xx_hal_tim.c **** static void TIM_TI3_SetConfig(TIM_TypeDef *TIMx, uint32_t TIM_ICPolarity, uint32_t TIM_ICSelection,
 157:./Libraries/STM32F4xx_HAL_Driver/Src/stm32f4xx_hal_tim.c ****                        uint32_t TIM_ICFilter);
 158:./Libraries/STM32F4xx_HAL_Driver/Src/stm32f4xx_hal_tim.c **** static void TIM_TI4_SetConfig(TIM_TypeDef *TIMx, uint32_t TIM_ICPolarity, uint32_t TIM_ICSelection,
 159:./Libraries/STM32F4xx_HAL_Driver/Src/stm32f4xx_hal_tim.c ****                        uint32_t TIM_ICFilter);
 160:./Libraries/STM32F4xx_HAL_Driver/Src/stm32f4xx_hal_tim.c **** 
 161:./Libraries/STM32F4xx_HAL_Driver/Src/stm32f4xx_hal_tim.c **** static void TIM_ETR_SetConfig(TIM_TypeDef* TIMx, uint32_t TIM_ExtTRGPrescaler,
 162:./Libraries/STM32F4xx_HAL_Driver/Src/stm32f4xx_hal_tim.c ****                        uint32_t TIM_ExtTRGPolarity, uint32_t ExtTRGFilter);
 163:./Libraries/STM32F4xx_HAL_Driver/Src/stm32f4xx_hal_tim.c **** 
 164:./Libraries/STM32F4xx_HAL_Driver/Src/stm32f4xx_hal_tim.c **** static void TIM_ITRx_SetConfig(TIM_TypeDef* TIMx, uint16_t TIM_ITRx);
 165:./Libraries/STM32F4xx_HAL_Driver/Src/stm32f4xx_hal_tim.c **** static void TIM_DMAPeriodElapsedCplt(DMA_HandleTypeDef *hdma);
 166:./Libraries/STM32F4xx_HAL_Driver/Src/stm32f4xx_hal_tim.c **** static void TIM_DMATriggerCplt(DMA_HandleTypeDef *hdma);
 167:./Libraries/STM32F4xx_HAL_Driver/Src/stm32f4xx_hal_tim.c **** static void TIM_SlaveTimer_SetConfig(TIM_HandleTypeDef *htim,
 168:./Libraries/STM32F4xx_HAL_Driver/Src/stm32f4xx_hal_tim.c ****                                      TIM_SlaveConfigTypeDef * sSlaveConfig);
 169:./Libraries/STM32F4xx_HAL_Driver/Src/stm32f4xx_hal_tim.c **** /**
 170:./Libraries/STM32F4xx_HAL_Driver/Src/stm32f4xx_hal_tim.c ****   * @}
 171:./Libraries/STM32F4xx_HAL_Driver/Src/stm32f4xx_hal_tim.c ****   */
 172:./Libraries/STM32F4xx_HAL_Driver/Src/stm32f4xx_hal_tim.c ****   
 173:./Libraries/STM32F4xx_HAL_Driver/Src/stm32f4xx_hal_tim.c **** /* Exported functions --------------------------------------------------------*/
 174:./Libraries/STM32F4xx_HAL_Driver/Src/stm32f4xx_hal_tim.c **** /** @defgroup TIM_Exported_Functions TIM Exported Functions
 175:./Libraries/STM32F4xx_HAL_Driver/Src/stm32f4xx_hal_tim.c ****   * @{
 176:./Libraries/STM32F4xx_HAL_Driver/Src/stm32f4xx_hal_tim.c ****   */
 177:./Libraries/STM32F4xx_HAL_Driver/Src/stm32f4xx_hal_tim.c **** 
 178:./Libraries/STM32F4xx_HAL_Driver/Src/stm32f4xx_hal_tim.c **** /** @defgroup TIM_Exported_Functions_Group1 Time Base functions 
 179:./Libraries/STM32F4xx_HAL_Driver/Src/stm32f4xx_hal_tim.c ****  *  @brief    Time Base functions 
 180:./Libraries/STM32F4xx_HAL_Driver/Src/stm32f4xx_hal_tim.c ****  *
 181:./Libraries/STM32F4xx_HAL_Driver/Src/stm32f4xx_hal_tim.c **** @verbatim    
 182:./Libraries/STM32F4xx_HAL_Driver/Src/stm32f4xx_hal_tim.c ****   ==============================================================================
 183:./Libraries/STM32F4xx_HAL_Driver/Src/stm32f4xx_hal_tim.c ****               ##### Time Base functions #####
 184:./Libraries/STM32F4xx_HAL_Driver/Src/stm32f4xx_hal_tim.c ****   ==============================================================================
 185:./Libraries/STM32F4xx_HAL_Driver/Src/stm32f4xx_hal_tim.c ****   [..]  
 186:./Libraries/STM32F4xx_HAL_Driver/Src/stm32f4xx_hal_tim.c ****     This section provides functions allowing to:
 187:./Libraries/STM32F4xx_HAL_Driver/Src/stm32f4xx_hal_tim.c ****     (+) Initialize and configure the TIM base. 
 188:./Libraries/STM32F4xx_HAL_Driver/Src/stm32f4xx_hal_tim.c ****     (+) De-initialize the TIM base.
 189:./Libraries/STM32F4xx_HAL_Driver/Src/stm32f4xx_hal_tim.c ****     (+) Start the Time Base.
 190:./Libraries/STM32F4xx_HAL_Driver/Src/stm32f4xx_hal_tim.c ****     (+) Stop the Time Base.
 191:./Libraries/STM32F4xx_HAL_Driver/Src/stm32f4xx_hal_tim.c ****     (+) Start the Time Base and enable interrupt.
 192:./Libraries/STM32F4xx_HAL_Driver/Src/stm32f4xx_hal_tim.c ****     (+) Stop the Time Base and disable interrupt.
 193:./Libraries/STM32F4xx_HAL_Driver/Src/stm32f4xx_hal_tim.c ****     (+) Start the Time Base and enable DMA transfer.
 194:./Libraries/STM32F4xx_HAL_Driver/Src/stm32f4xx_hal_tim.c ****     (+) Stop the Time Base and disable DMA transfer.
 195:./Libraries/STM32F4xx_HAL_Driver/Src/stm32f4xx_hal_tim.c ****  
 196:./Libraries/STM32F4xx_HAL_Driver/Src/stm32f4xx_hal_tim.c **** @endverbatim
 197:./Libraries/STM32F4xx_HAL_Driver/Src/stm32f4xx_hal_tim.c ****   * @{
 198:./Libraries/STM32F4xx_HAL_Driver/Src/stm32f4xx_hal_tim.c ****   */
 199:./Libraries/STM32F4xx_HAL_Driver/Src/stm32f4xx_hal_tim.c **** /**
 200:./Libraries/STM32F4xx_HAL_Driver/Src/stm32f4xx_hal_tim.c ****   * @brief  Initializes the TIM Time base Unit according to the specified
 201:./Libraries/STM32F4xx_HAL_Driver/Src/stm32f4xx_hal_tim.c ****   *         parameters in the TIM_HandleTypeDef and create the associated handle.
ARM GAS  /tmp/ccvKwMj1.s 			page 5


 202:./Libraries/STM32F4xx_HAL_Driver/Src/stm32f4xx_hal_tim.c ****   * @param  htim pointer to a TIM_HandleTypeDef structure that contains
 203:./Libraries/STM32F4xx_HAL_Driver/Src/stm32f4xx_hal_tim.c ****   *                the configuration information for TIM module.
 204:./Libraries/STM32F4xx_HAL_Driver/Src/stm32f4xx_hal_tim.c ****   * @retval HAL status
 205:./Libraries/STM32F4xx_HAL_Driver/Src/stm32f4xx_hal_tim.c ****   */
 206:./Libraries/STM32F4xx_HAL_Driver/Src/stm32f4xx_hal_tim.c **** HAL_StatusTypeDef HAL_TIM_Base_Init(TIM_HandleTypeDef *htim)
 207:./Libraries/STM32F4xx_HAL_Driver/Src/stm32f4xx_hal_tim.c **** { 
  29              		.loc 1 207 1
  30              		.cfi_startproc
  31              		@ args = 0, pretend = 0, frame = 8
  32              		@ frame_needed = 1, uses_anonymous_args = 0
  33 0000 80B5     		push	{r7, lr}
  34              	.LCFI0:
  35              		.cfi_def_cfa_offset 8
  36              		.cfi_offset 7, -8
  37              		.cfi_offset 14, -4
  38 0002 82B0     		sub	sp, sp, #8
  39              	.LCFI1:
  40              		.cfi_def_cfa_offset 16
  41 0004 00AF     		add	r7, sp, #0
  42              	.LCFI2:
  43              		.cfi_def_cfa_register 7
  44 0006 7860     		str	r0, [r7, #4]
 208:./Libraries/STM32F4xx_HAL_Driver/Src/stm32f4xx_hal_tim.c ****   /* Check the TIM handle allocation */
 209:./Libraries/STM32F4xx_HAL_Driver/Src/stm32f4xx_hal_tim.c ****   if(htim == NULL)
  45              		.loc 1 209 5
  46 0008 7B68     		ldr	r3, [r7, #4]
  47 000a 002B     		cmp	r3, #0
  48 000c 01D1     		bne	.L2
 210:./Libraries/STM32F4xx_HAL_Driver/Src/stm32f4xx_hal_tim.c ****   {
 211:./Libraries/STM32F4xx_HAL_Driver/Src/stm32f4xx_hal_tim.c ****     return HAL_ERROR;
  49              		.loc 1 211 12
  50 000e 0123     		movs	r3, #1
  51 0010 1DE0     		b	.L3
  52              	.L2:
 212:./Libraries/STM32F4xx_HAL_Driver/Src/stm32f4xx_hal_tim.c ****   }
 213:./Libraries/STM32F4xx_HAL_Driver/Src/stm32f4xx_hal_tim.c ****   
 214:./Libraries/STM32F4xx_HAL_Driver/Src/stm32f4xx_hal_tim.c ****   /* Check the parameters */
 215:./Libraries/STM32F4xx_HAL_Driver/Src/stm32f4xx_hal_tim.c ****   assert_param(IS_TIM_INSTANCE(htim->Instance)); 
 216:./Libraries/STM32F4xx_HAL_Driver/Src/stm32f4xx_hal_tim.c ****   assert_param(IS_TIM_COUNTER_MODE(htim->Init.CounterMode));
 217:./Libraries/STM32F4xx_HAL_Driver/Src/stm32f4xx_hal_tim.c ****   assert_param(IS_TIM_CLOCKDIVISION_DIV(htim->Init.ClockDivision));
 218:./Libraries/STM32F4xx_HAL_Driver/Src/stm32f4xx_hal_tim.c ****   
 219:./Libraries/STM32F4xx_HAL_Driver/Src/stm32f4xx_hal_tim.c ****   if(htim->State == HAL_TIM_STATE_RESET)
  53              		.loc 1 219 10
  54 0012 7B68     		ldr	r3, [r7, #4]
  55 0014 93F83930 		ldrb	r3, [r3, #57]
  56 0018 DBB2     		uxtb	r3, r3
  57              		.loc 1 219 5
  58 001a 002B     		cmp	r3, #0
  59 001c 06D1     		bne	.L4
 220:./Libraries/STM32F4xx_HAL_Driver/Src/stm32f4xx_hal_tim.c ****   {  
 221:./Libraries/STM32F4xx_HAL_Driver/Src/stm32f4xx_hal_tim.c ****     /* Allocate lock resource and initialize it */
 222:./Libraries/STM32F4xx_HAL_Driver/Src/stm32f4xx_hal_tim.c ****     htim->Lock = HAL_UNLOCKED;
  60              		.loc 1 222 16
  61 001e 7B68     		ldr	r3, [r7, #4]
  62 0020 0022     		movs	r2, #0
  63 0022 83F83820 		strb	r2, [r3, #56]
 223:./Libraries/STM32F4xx_HAL_Driver/Src/stm32f4xx_hal_tim.c ****     /* Init the low level hardware : GPIO, CLOCK, NVIC */
ARM GAS  /tmp/ccvKwMj1.s 			page 6


 224:./Libraries/STM32F4xx_HAL_Driver/Src/stm32f4xx_hal_tim.c ****     HAL_TIM_Base_MspInit(htim);
  64              		.loc 1 224 5
  65 0026 7868     		ldr	r0, [r7, #4]
  66 0028 FFF7FEFF 		bl	HAL_TIM_Base_MspInit
  67              	.L4:
 225:./Libraries/STM32F4xx_HAL_Driver/Src/stm32f4xx_hal_tim.c ****   }
 226:./Libraries/STM32F4xx_HAL_Driver/Src/stm32f4xx_hal_tim.c ****   
 227:./Libraries/STM32F4xx_HAL_Driver/Src/stm32f4xx_hal_tim.c ****   /* Set the TIM state */
 228:./Libraries/STM32F4xx_HAL_Driver/Src/stm32f4xx_hal_tim.c ****   htim->State= HAL_TIM_STATE_BUSY;
  68              		.loc 1 228 14
  69 002c 7B68     		ldr	r3, [r7, #4]
  70 002e 0222     		movs	r2, #2
  71 0030 83F83920 		strb	r2, [r3, #57]
 229:./Libraries/STM32F4xx_HAL_Driver/Src/stm32f4xx_hal_tim.c ****   
 230:./Libraries/STM32F4xx_HAL_Driver/Src/stm32f4xx_hal_tim.c ****   /* Set the Time Base configuration */
 231:./Libraries/STM32F4xx_HAL_Driver/Src/stm32f4xx_hal_tim.c ****   TIM_Base_SetConfig(htim->Instance, &htim->Init); 
  72              		.loc 1 231 3
  73 0034 7B68     		ldr	r3, [r7, #4]
  74 0036 1A68     		ldr	r2, [r3]
  75 0038 7B68     		ldr	r3, [r7, #4]
  76 003a 0433     		adds	r3, r3, #4
  77 003c 1946     		mov	r1, r3
  78 003e 1046     		mov	r0, r2
  79 0040 FFF7FEFF 		bl	TIM_Base_SetConfig
 232:./Libraries/STM32F4xx_HAL_Driver/Src/stm32f4xx_hal_tim.c ****   
 233:./Libraries/STM32F4xx_HAL_Driver/Src/stm32f4xx_hal_tim.c ****   /* Initialize the TIM state*/
 234:./Libraries/STM32F4xx_HAL_Driver/Src/stm32f4xx_hal_tim.c ****   htim->State= HAL_TIM_STATE_READY;
  80              		.loc 1 234 14
  81 0044 7B68     		ldr	r3, [r7, #4]
  82 0046 0122     		movs	r2, #1
  83 0048 83F83920 		strb	r2, [r3, #57]
 235:./Libraries/STM32F4xx_HAL_Driver/Src/stm32f4xx_hal_tim.c ****   
 236:./Libraries/STM32F4xx_HAL_Driver/Src/stm32f4xx_hal_tim.c ****   return HAL_OK;
  84              		.loc 1 236 10
  85 004c 0023     		movs	r3, #0
  86              	.L3:
 237:./Libraries/STM32F4xx_HAL_Driver/Src/stm32f4xx_hal_tim.c **** }
  87              		.loc 1 237 1
  88 004e 1846     		mov	r0, r3
  89 0050 0837     		adds	r7, r7, #8
  90              	.LCFI3:
  91              		.cfi_def_cfa_offset 8
  92 0052 BD46     		mov	sp, r7
  93              	.LCFI4:
  94              		.cfi_def_cfa_register 13
  95              		@ sp needed
  96 0054 80BD     		pop	{r7, pc}
  97              		.cfi_endproc
  98              	.LFE126:
 100              		.section	.text.HAL_TIM_Base_DeInit,"ax",%progbits
 101              		.align	1
 102              		.global	HAL_TIM_Base_DeInit
 103              		.syntax unified
 104              		.thumb
 105              		.thumb_func
 106              		.fpu fpv4-sp-d16
 108              	HAL_TIM_Base_DeInit:
ARM GAS  /tmp/ccvKwMj1.s 			page 7


 109              	.LFB127:
 238:./Libraries/STM32F4xx_HAL_Driver/Src/stm32f4xx_hal_tim.c **** 
 239:./Libraries/STM32F4xx_HAL_Driver/Src/stm32f4xx_hal_tim.c **** /**
 240:./Libraries/STM32F4xx_HAL_Driver/Src/stm32f4xx_hal_tim.c ****   * @brief  DeInitializes the TIM Base peripheral 
 241:./Libraries/STM32F4xx_HAL_Driver/Src/stm32f4xx_hal_tim.c ****   * @param  htim pointer to a TIM_HandleTypeDef structure that contains
 242:./Libraries/STM32F4xx_HAL_Driver/Src/stm32f4xx_hal_tim.c ****   *                the configuration information for TIM module.
 243:./Libraries/STM32F4xx_HAL_Driver/Src/stm32f4xx_hal_tim.c ****   * @retval HAL status
 244:./Libraries/STM32F4xx_HAL_Driver/Src/stm32f4xx_hal_tim.c ****   */
 245:./Libraries/STM32F4xx_HAL_Driver/Src/stm32f4xx_hal_tim.c **** HAL_StatusTypeDef HAL_TIM_Base_DeInit(TIM_HandleTypeDef *htim)
 246:./Libraries/STM32F4xx_HAL_Driver/Src/stm32f4xx_hal_tim.c **** {  
 110              		.loc 1 246 1
 111              		.cfi_startproc
 112              		@ args = 0, pretend = 0, frame = 8
 113              		@ frame_needed = 1, uses_anonymous_args = 0
 114 0000 80B5     		push	{r7, lr}
 115              	.LCFI5:
 116              		.cfi_def_cfa_offset 8
 117              		.cfi_offset 7, -8
 118              		.cfi_offset 14, -4
 119 0002 82B0     		sub	sp, sp, #8
 120              	.LCFI6:
 121              		.cfi_def_cfa_offset 16
 122 0004 00AF     		add	r7, sp, #0
 123              	.LCFI7:
 124              		.cfi_def_cfa_register 7
 125 0006 7860     		str	r0, [r7, #4]
 247:./Libraries/STM32F4xx_HAL_Driver/Src/stm32f4xx_hal_tim.c ****   /* Check the parameters */
 248:./Libraries/STM32F4xx_HAL_Driver/Src/stm32f4xx_hal_tim.c ****   assert_param(IS_TIM_INSTANCE(htim->Instance));
 249:./Libraries/STM32F4xx_HAL_Driver/Src/stm32f4xx_hal_tim.c **** 
 250:./Libraries/STM32F4xx_HAL_Driver/Src/stm32f4xx_hal_tim.c ****   htim->State = HAL_TIM_STATE_BUSY;
 126              		.loc 1 250 15
 127 0008 7B68     		ldr	r3, [r7, #4]
 128 000a 0222     		movs	r2, #2
 129 000c 83F83920 		strb	r2, [r3, #57]
 251:./Libraries/STM32F4xx_HAL_Driver/Src/stm32f4xx_hal_tim.c ****    
 252:./Libraries/STM32F4xx_HAL_Driver/Src/stm32f4xx_hal_tim.c ****   /* Disable the TIM Peripheral Clock */
 253:./Libraries/STM32F4xx_HAL_Driver/Src/stm32f4xx_hal_tim.c ****   __HAL_TIM_DISABLE(htim);
 130              		.loc 1 253 3
 131 0010 7B68     		ldr	r3, [r7, #4]
 132 0012 1B68     		ldr	r3, [r3]
 133 0014 1A6A     		ldr	r2, [r3, #32]
 134 0016 41F21113 		movw	r3, #4369
 135 001a 1340     		ands	r3, r3, r2
 136 001c 002B     		cmp	r3, #0
 137 001e 0FD1     		bne	.L6
 138              		.loc 1 253 3 is_stmt 0 discriminator 1
 139 0020 7B68     		ldr	r3, [r7, #4]
 140 0022 1B68     		ldr	r3, [r3]
 141 0024 1A6A     		ldr	r2, [r3, #32]
 142 0026 40F24443 		movw	r3, #1092
 143 002a 1340     		ands	r3, r3, r2
 144 002c 002B     		cmp	r3, #0
 145 002e 07D1     		bne	.L6
 146              		.loc 1 253 3 discriminator 2
 147 0030 7B68     		ldr	r3, [r7, #4]
 148 0032 1B68     		ldr	r3, [r3]
 149 0034 1A68     		ldr	r2, [r3]
ARM GAS  /tmp/ccvKwMj1.s 			page 8


 150 0036 7B68     		ldr	r3, [r7, #4]
 151 0038 1B68     		ldr	r3, [r3]
 152 003a 22F00102 		bic	r2, r2, #1
 153 003e 1A60     		str	r2, [r3]
 154              	.L6:
 254:./Libraries/STM32F4xx_HAL_Driver/Src/stm32f4xx_hal_tim.c ****     
 255:./Libraries/STM32F4xx_HAL_Driver/Src/stm32f4xx_hal_tim.c ****   /* DeInit the low level hardware: GPIO, CLOCK, NVIC */
 256:./Libraries/STM32F4xx_HAL_Driver/Src/stm32f4xx_hal_tim.c ****   HAL_TIM_Base_MspDeInit(htim);
 155              		.loc 1 256 3 is_stmt 1
 156 0040 7868     		ldr	r0, [r7, #4]
 157 0042 FFF7FEFF 		bl	HAL_TIM_Base_MspDeInit
 257:./Libraries/STM32F4xx_HAL_Driver/Src/stm32f4xx_hal_tim.c ****   
 258:./Libraries/STM32F4xx_HAL_Driver/Src/stm32f4xx_hal_tim.c ****   /* Change TIM state */  
 259:./Libraries/STM32F4xx_HAL_Driver/Src/stm32f4xx_hal_tim.c ****   htim->State = HAL_TIM_STATE_RESET; 
 158              		.loc 1 259 15
 159 0046 7B68     		ldr	r3, [r7, #4]
 160 0048 0022     		movs	r2, #0
 161 004a 83F83920 		strb	r2, [r3, #57]
 260:./Libraries/STM32F4xx_HAL_Driver/Src/stm32f4xx_hal_tim.c ****   
 261:./Libraries/STM32F4xx_HAL_Driver/Src/stm32f4xx_hal_tim.c ****   /* Release Lock */
 262:./Libraries/STM32F4xx_HAL_Driver/Src/stm32f4xx_hal_tim.c ****   __HAL_UNLOCK(htim);
 162              		.loc 1 262 3
 163 004e 7B68     		ldr	r3, [r7, #4]
 164 0050 0022     		movs	r2, #0
 165 0052 83F83820 		strb	r2, [r3, #56]
 263:./Libraries/STM32F4xx_HAL_Driver/Src/stm32f4xx_hal_tim.c **** 
 264:./Libraries/STM32F4xx_HAL_Driver/Src/stm32f4xx_hal_tim.c ****   return HAL_OK;
 166              		.loc 1 264 10
 167 0056 0023     		movs	r3, #0
 265:./Libraries/STM32F4xx_HAL_Driver/Src/stm32f4xx_hal_tim.c **** }
 168              		.loc 1 265 1
 169 0058 1846     		mov	r0, r3
 170 005a 0837     		adds	r7, r7, #8
 171              	.LCFI8:
 172              		.cfi_def_cfa_offset 8
 173 005c BD46     		mov	sp, r7
 174              	.LCFI9:
 175              		.cfi_def_cfa_register 13
 176              		@ sp needed
 177 005e 80BD     		pop	{r7, pc}
 178              		.cfi_endproc
 179              	.LFE127:
 181              		.section	.text.HAL_TIM_Base_MspInit,"ax",%progbits
 182              		.align	1
 183              		.weak	HAL_TIM_Base_MspInit
 184              		.syntax unified
 185              		.thumb
 186              		.thumb_func
 187              		.fpu fpv4-sp-d16
 189              	HAL_TIM_Base_MspInit:
 190              	.LFB128:
 266:./Libraries/STM32F4xx_HAL_Driver/Src/stm32f4xx_hal_tim.c **** 
 267:./Libraries/STM32F4xx_HAL_Driver/Src/stm32f4xx_hal_tim.c **** /**
 268:./Libraries/STM32F4xx_HAL_Driver/Src/stm32f4xx_hal_tim.c ****   * @brief  Initializes the TIM Base MSP.
 269:./Libraries/STM32F4xx_HAL_Driver/Src/stm32f4xx_hal_tim.c ****   * @param  htim pointer to a TIM_HandleTypeDef structure that contains
 270:./Libraries/STM32F4xx_HAL_Driver/Src/stm32f4xx_hal_tim.c ****   *                the configuration information for TIM module.
 271:./Libraries/STM32F4xx_HAL_Driver/Src/stm32f4xx_hal_tim.c ****   * @retval None
ARM GAS  /tmp/ccvKwMj1.s 			page 9


 272:./Libraries/STM32F4xx_HAL_Driver/Src/stm32f4xx_hal_tim.c ****   */
 273:./Libraries/STM32F4xx_HAL_Driver/Src/stm32f4xx_hal_tim.c **** __weak void HAL_TIM_Base_MspInit(TIM_HandleTypeDef *htim)
 274:./Libraries/STM32F4xx_HAL_Driver/Src/stm32f4xx_hal_tim.c **** {
 191              		.loc 1 274 1
 192              		.cfi_startproc
 193              		@ args = 0, pretend = 0, frame = 8
 194              		@ frame_needed = 1, uses_anonymous_args = 0
 195              		@ link register save eliminated.
 196 0000 80B4     		push	{r7}
 197              	.LCFI10:
 198              		.cfi_def_cfa_offset 4
 199              		.cfi_offset 7, -4
 200 0002 83B0     		sub	sp, sp, #12
 201              	.LCFI11:
 202              		.cfi_def_cfa_offset 16
 203 0004 00AF     		add	r7, sp, #0
 204              	.LCFI12:
 205              		.cfi_def_cfa_register 7
 206 0006 7860     		str	r0, [r7, #4]
 275:./Libraries/STM32F4xx_HAL_Driver/Src/stm32f4xx_hal_tim.c ****   /* Prevent unused argument(s) compilation warning */
 276:./Libraries/STM32F4xx_HAL_Driver/Src/stm32f4xx_hal_tim.c ****   UNUSED(htim);
 277:./Libraries/STM32F4xx_HAL_Driver/Src/stm32f4xx_hal_tim.c ****   /* NOTE : This function Should not be modified, when the callback is needed,
 278:./Libraries/STM32F4xx_HAL_Driver/Src/stm32f4xx_hal_tim.c ****             the HAL_TIM_Base_MspInit could be implemented in the user file
 279:./Libraries/STM32F4xx_HAL_Driver/Src/stm32f4xx_hal_tim.c ****    */
 280:./Libraries/STM32F4xx_HAL_Driver/Src/stm32f4xx_hal_tim.c **** }
 207              		.loc 1 280 1
 208 0008 00BF     		nop
 209 000a 0C37     		adds	r7, r7, #12
 210              	.LCFI13:
 211              		.cfi_def_cfa_offset 4
 212 000c BD46     		mov	sp, r7
 213              	.LCFI14:
 214              		.cfi_def_cfa_register 13
 215              		@ sp needed
 216 000e 5DF8047B 		ldr	r7, [sp], #4
 217              	.LCFI15:
 218              		.cfi_restore 7
 219              		.cfi_def_cfa_offset 0
 220 0012 7047     		bx	lr
 221              		.cfi_endproc
 222              	.LFE128:
 224              		.section	.text.HAL_TIM_Base_MspDeInit,"ax",%progbits
 225              		.align	1
 226              		.weak	HAL_TIM_Base_MspDeInit
 227              		.syntax unified
 228              		.thumb
 229              		.thumb_func
 230              		.fpu fpv4-sp-d16
 232              	HAL_TIM_Base_MspDeInit:
 233              	.LFB129:
 281:./Libraries/STM32F4xx_HAL_Driver/Src/stm32f4xx_hal_tim.c **** 
 282:./Libraries/STM32F4xx_HAL_Driver/Src/stm32f4xx_hal_tim.c **** /**
 283:./Libraries/STM32F4xx_HAL_Driver/Src/stm32f4xx_hal_tim.c ****   * @brief  DeInitializes TIM Base MSP.
 284:./Libraries/STM32F4xx_HAL_Driver/Src/stm32f4xx_hal_tim.c ****   * @param  htim pointer to a TIM_HandleTypeDef structure that contains
 285:./Libraries/STM32F4xx_HAL_Driver/Src/stm32f4xx_hal_tim.c ****   *                the configuration information for TIM module.
 286:./Libraries/STM32F4xx_HAL_Driver/Src/stm32f4xx_hal_tim.c ****   * @retval None
 287:./Libraries/STM32F4xx_HAL_Driver/Src/stm32f4xx_hal_tim.c ****   */
ARM GAS  /tmp/ccvKwMj1.s 			page 10


 288:./Libraries/STM32F4xx_HAL_Driver/Src/stm32f4xx_hal_tim.c **** __weak void HAL_TIM_Base_MspDeInit(TIM_HandleTypeDef *htim)
 289:./Libraries/STM32F4xx_HAL_Driver/Src/stm32f4xx_hal_tim.c **** {
 234              		.loc 1 289 1
 235              		.cfi_startproc
 236              		@ args = 0, pretend = 0, frame = 8
 237              		@ frame_needed = 1, uses_anonymous_args = 0
 238              		@ link register save eliminated.
 239 0000 80B4     		push	{r7}
 240              	.LCFI16:
 241              		.cfi_def_cfa_offset 4
 242              		.cfi_offset 7, -4
 243 0002 83B0     		sub	sp, sp, #12
 244              	.LCFI17:
 245              		.cfi_def_cfa_offset 16
 246 0004 00AF     		add	r7, sp, #0
 247              	.LCFI18:
 248              		.cfi_def_cfa_register 7
 249 0006 7860     		str	r0, [r7, #4]
 290:./Libraries/STM32F4xx_HAL_Driver/Src/stm32f4xx_hal_tim.c ****   /* Prevent unused argument(s) compilation warning */
 291:./Libraries/STM32F4xx_HAL_Driver/Src/stm32f4xx_hal_tim.c ****   UNUSED(htim);
 292:./Libraries/STM32F4xx_HAL_Driver/Src/stm32f4xx_hal_tim.c ****   /* NOTE : This function Should not be modified, when the callback is needed,
 293:./Libraries/STM32F4xx_HAL_Driver/Src/stm32f4xx_hal_tim.c ****             the HAL_TIM_Base_MspDeInit could be implemented in the user file
 294:./Libraries/STM32F4xx_HAL_Driver/Src/stm32f4xx_hal_tim.c ****    */
 295:./Libraries/STM32F4xx_HAL_Driver/Src/stm32f4xx_hal_tim.c **** }
 250              		.loc 1 295 1
 251 0008 00BF     		nop
 252 000a 0C37     		adds	r7, r7, #12
 253              	.LCFI19:
 254              		.cfi_def_cfa_offset 4
 255 000c BD46     		mov	sp, r7
 256              	.LCFI20:
 257              		.cfi_def_cfa_register 13
 258              		@ sp needed
 259 000e 5DF8047B 		ldr	r7, [sp], #4
 260              	.LCFI21:
 261              		.cfi_restore 7
 262              		.cfi_def_cfa_offset 0
 263 0012 7047     		bx	lr
 264              		.cfi_endproc
 265              	.LFE129:
 267              		.section	.text.HAL_TIM_Base_Start,"ax",%progbits
 268              		.align	1
 269              		.global	HAL_TIM_Base_Start
 270              		.syntax unified
 271              		.thumb
 272              		.thumb_func
 273              		.fpu fpv4-sp-d16
 275              	HAL_TIM_Base_Start:
 276              	.LFB130:
 296:./Libraries/STM32F4xx_HAL_Driver/Src/stm32f4xx_hal_tim.c **** 
 297:./Libraries/STM32F4xx_HAL_Driver/Src/stm32f4xx_hal_tim.c **** /**
 298:./Libraries/STM32F4xx_HAL_Driver/Src/stm32f4xx_hal_tim.c ****   * @brief  Starts the TIM Base generation.
 299:./Libraries/STM32F4xx_HAL_Driver/Src/stm32f4xx_hal_tim.c ****   * @param  htim pointer to a TIM_HandleTypeDef structure that contains
 300:./Libraries/STM32F4xx_HAL_Driver/Src/stm32f4xx_hal_tim.c ****   *                the configuration information for TIM module.
 301:./Libraries/STM32F4xx_HAL_Driver/Src/stm32f4xx_hal_tim.c ****   * @retval HAL status
 302:./Libraries/STM32F4xx_HAL_Driver/Src/stm32f4xx_hal_tim.c ****   */
 303:./Libraries/STM32F4xx_HAL_Driver/Src/stm32f4xx_hal_tim.c **** HAL_StatusTypeDef HAL_TIM_Base_Start(TIM_HandleTypeDef *htim)
ARM GAS  /tmp/ccvKwMj1.s 			page 11


 304:./Libraries/STM32F4xx_HAL_Driver/Src/stm32f4xx_hal_tim.c **** {
 277              		.loc 1 304 1
 278              		.cfi_startproc
 279              		@ args = 0, pretend = 0, frame = 8
 280              		@ frame_needed = 1, uses_anonymous_args = 0
 281              		@ link register save eliminated.
 282 0000 80B4     		push	{r7}
 283              	.LCFI22:
 284              		.cfi_def_cfa_offset 4
 285              		.cfi_offset 7, -4
 286 0002 83B0     		sub	sp, sp, #12
 287              	.LCFI23:
 288              		.cfi_def_cfa_offset 16
 289 0004 00AF     		add	r7, sp, #0
 290              	.LCFI24:
 291              		.cfi_def_cfa_register 7
 292 0006 7860     		str	r0, [r7, #4]
 305:./Libraries/STM32F4xx_HAL_Driver/Src/stm32f4xx_hal_tim.c ****   /* Check the parameters */
 306:./Libraries/STM32F4xx_HAL_Driver/Src/stm32f4xx_hal_tim.c ****   assert_param(IS_TIM_INSTANCE(htim->Instance));
 307:./Libraries/STM32F4xx_HAL_Driver/Src/stm32f4xx_hal_tim.c ****   
 308:./Libraries/STM32F4xx_HAL_Driver/Src/stm32f4xx_hal_tim.c ****   /* Set the TIM state */
 309:./Libraries/STM32F4xx_HAL_Driver/Src/stm32f4xx_hal_tim.c ****   htim->State= HAL_TIM_STATE_BUSY;
 293              		.loc 1 309 14
 294 0008 7B68     		ldr	r3, [r7, #4]
 295 000a 0222     		movs	r2, #2
 296 000c 83F83920 		strb	r2, [r3, #57]
 310:./Libraries/STM32F4xx_HAL_Driver/Src/stm32f4xx_hal_tim.c ****   
 311:./Libraries/STM32F4xx_HAL_Driver/Src/stm32f4xx_hal_tim.c ****   /* Enable the Peripheral */
 312:./Libraries/STM32F4xx_HAL_Driver/Src/stm32f4xx_hal_tim.c ****   __HAL_TIM_ENABLE(htim);
 297              		.loc 1 312 3
 298 0010 7B68     		ldr	r3, [r7, #4]
 299 0012 1B68     		ldr	r3, [r3]
 300 0014 1A68     		ldr	r2, [r3]
 301 0016 7B68     		ldr	r3, [r7, #4]
 302 0018 1B68     		ldr	r3, [r3]
 303 001a 42F00102 		orr	r2, r2, #1
 304 001e 1A60     		str	r2, [r3]
 313:./Libraries/STM32F4xx_HAL_Driver/Src/stm32f4xx_hal_tim.c ****   
 314:./Libraries/STM32F4xx_HAL_Driver/Src/stm32f4xx_hal_tim.c ****   /* Change the TIM state*/
 315:./Libraries/STM32F4xx_HAL_Driver/Src/stm32f4xx_hal_tim.c ****   htim->State= HAL_TIM_STATE_READY;
 305              		.loc 1 315 14
 306 0020 7B68     		ldr	r3, [r7, #4]
 307 0022 0122     		movs	r2, #1
 308 0024 83F83920 		strb	r2, [r3, #57]
 316:./Libraries/STM32F4xx_HAL_Driver/Src/stm32f4xx_hal_tim.c ****   
 317:./Libraries/STM32F4xx_HAL_Driver/Src/stm32f4xx_hal_tim.c ****   /* Return function status */
 318:./Libraries/STM32F4xx_HAL_Driver/Src/stm32f4xx_hal_tim.c ****   return HAL_OK;
 309              		.loc 1 318 10
 310 0028 0023     		movs	r3, #0
 319:./Libraries/STM32F4xx_HAL_Driver/Src/stm32f4xx_hal_tim.c **** }
 311              		.loc 1 319 1
 312 002a 1846     		mov	r0, r3
 313 002c 0C37     		adds	r7, r7, #12
 314              	.LCFI25:
 315              		.cfi_def_cfa_offset 4
 316 002e BD46     		mov	sp, r7
 317              	.LCFI26:
ARM GAS  /tmp/ccvKwMj1.s 			page 12


 318              		.cfi_def_cfa_register 13
 319              		@ sp needed
 320 0030 5DF8047B 		ldr	r7, [sp], #4
 321              	.LCFI27:
 322              		.cfi_restore 7
 323              		.cfi_def_cfa_offset 0
 324 0034 7047     		bx	lr
 325              		.cfi_endproc
 326              	.LFE130:
 328              		.section	.text.HAL_TIM_Base_Stop,"ax",%progbits
 329              		.align	1
 330              		.global	HAL_TIM_Base_Stop
 331              		.syntax unified
 332              		.thumb
 333              		.thumb_func
 334              		.fpu fpv4-sp-d16
 336              	HAL_TIM_Base_Stop:
 337              	.LFB131:
 320:./Libraries/STM32F4xx_HAL_Driver/Src/stm32f4xx_hal_tim.c **** 
 321:./Libraries/STM32F4xx_HAL_Driver/Src/stm32f4xx_hal_tim.c **** /**
 322:./Libraries/STM32F4xx_HAL_Driver/Src/stm32f4xx_hal_tim.c ****   * @brief  Stops the TIM Base generation.
 323:./Libraries/STM32F4xx_HAL_Driver/Src/stm32f4xx_hal_tim.c ****   * @param  htim pointer to a TIM_HandleTypeDef structure that contains
 324:./Libraries/STM32F4xx_HAL_Driver/Src/stm32f4xx_hal_tim.c ****   *                the configuration information for TIM module.
 325:./Libraries/STM32F4xx_HAL_Driver/Src/stm32f4xx_hal_tim.c ****   * @retval HAL status
 326:./Libraries/STM32F4xx_HAL_Driver/Src/stm32f4xx_hal_tim.c ****   */
 327:./Libraries/STM32F4xx_HAL_Driver/Src/stm32f4xx_hal_tim.c **** HAL_StatusTypeDef HAL_TIM_Base_Stop(TIM_HandleTypeDef *htim)
 328:./Libraries/STM32F4xx_HAL_Driver/Src/stm32f4xx_hal_tim.c **** {
 338              		.loc 1 328 1
 339              		.cfi_startproc
 340              		@ args = 0, pretend = 0, frame = 8
 341              		@ frame_needed = 1, uses_anonymous_args = 0
 342              		@ link register save eliminated.
 343 0000 80B4     		push	{r7}
 344              	.LCFI28:
 345              		.cfi_def_cfa_offset 4
 346              		.cfi_offset 7, -4
 347 0002 83B0     		sub	sp, sp, #12
 348              	.LCFI29:
 349              		.cfi_def_cfa_offset 16
 350 0004 00AF     		add	r7, sp, #0
 351              	.LCFI30:
 352              		.cfi_def_cfa_register 7
 353 0006 7860     		str	r0, [r7, #4]
 329:./Libraries/STM32F4xx_HAL_Driver/Src/stm32f4xx_hal_tim.c ****   /* Check the parameters */
 330:./Libraries/STM32F4xx_HAL_Driver/Src/stm32f4xx_hal_tim.c ****   assert_param(IS_TIM_INSTANCE(htim->Instance));
 331:./Libraries/STM32F4xx_HAL_Driver/Src/stm32f4xx_hal_tim.c ****   
 332:./Libraries/STM32F4xx_HAL_Driver/Src/stm32f4xx_hal_tim.c ****   /* Set the TIM state */
 333:./Libraries/STM32F4xx_HAL_Driver/Src/stm32f4xx_hal_tim.c ****   htim->State= HAL_TIM_STATE_BUSY;
 354              		.loc 1 333 14
 355 0008 7B68     		ldr	r3, [r7, #4]
 356 000a 0222     		movs	r2, #2
 357 000c 83F83920 		strb	r2, [r3, #57]
 334:./Libraries/STM32F4xx_HAL_Driver/Src/stm32f4xx_hal_tim.c ****   
 335:./Libraries/STM32F4xx_HAL_Driver/Src/stm32f4xx_hal_tim.c ****   /* Disable the Peripheral */
 336:./Libraries/STM32F4xx_HAL_Driver/Src/stm32f4xx_hal_tim.c ****   __HAL_TIM_DISABLE(htim);
 358              		.loc 1 336 3
 359 0010 7B68     		ldr	r3, [r7, #4]
ARM GAS  /tmp/ccvKwMj1.s 			page 13


 360 0012 1B68     		ldr	r3, [r3]
 361 0014 1A6A     		ldr	r2, [r3, #32]
 362 0016 41F21113 		movw	r3, #4369
 363 001a 1340     		ands	r3, r3, r2
 364 001c 002B     		cmp	r3, #0
 365 001e 0FD1     		bne	.L13
 366              		.loc 1 336 3 is_stmt 0 discriminator 1
 367 0020 7B68     		ldr	r3, [r7, #4]
 368 0022 1B68     		ldr	r3, [r3]
 369 0024 1A6A     		ldr	r2, [r3, #32]
 370 0026 40F24443 		movw	r3, #1092
 371 002a 1340     		ands	r3, r3, r2
 372 002c 002B     		cmp	r3, #0
 373 002e 07D1     		bne	.L13
 374              		.loc 1 336 3 discriminator 2
 375 0030 7B68     		ldr	r3, [r7, #4]
 376 0032 1B68     		ldr	r3, [r3]
 377 0034 1A68     		ldr	r2, [r3]
 378 0036 7B68     		ldr	r3, [r7, #4]
 379 0038 1B68     		ldr	r3, [r3]
 380 003a 22F00102 		bic	r2, r2, #1
 381 003e 1A60     		str	r2, [r3]
 382              	.L13:
 337:./Libraries/STM32F4xx_HAL_Driver/Src/stm32f4xx_hal_tim.c ****   
 338:./Libraries/STM32F4xx_HAL_Driver/Src/stm32f4xx_hal_tim.c ****   /* Change the TIM state*/
 339:./Libraries/STM32F4xx_HAL_Driver/Src/stm32f4xx_hal_tim.c ****   htim->State= HAL_TIM_STATE_READY;
 383              		.loc 1 339 14 is_stmt 1
 384 0040 7B68     		ldr	r3, [r7, #4]
 385 0042 0122     		movs	r2, #1
 386 0044 83F83920 		strb	r2, [r3, #57]
 340:./Libraries/STM32F4xx_HAL_Driver/Src/stm32f4xx_hal_tim.c ****   
 341:./Libraries/STM32F4xx_HAL_Driver/Src/stm32f4xx_hal_tim.c ****   /* Return function status */
 342:./Libraries/STM32F4xx_HAL_Driver/Src/stm32f4xx_hal_tim.c ****   return HAL_OK;
 387              		.loc 1 342 10
 388 0048 0023     		movs	r3, #0
 343:./Libraries/STM32F4xx_HAL_Driver/Src/stm32f4xx_hal_tim.c **** }
 389              		.loc 1 343 1
 390 004a 1846     		mov	r0, r3
 391 004c 0C37     		adds	r7, r7, #12
 392              	.LCFI31:
 393              		.cfi_def_cfa_offset 4
 394 004e BD46     		mov	sp, r7
 395              	.LCFI32:
 396              		.cfi_def_cfa_register 13
 397              		@ sp needed
 398 0050 5DF8047B 		ldr	r7, [sp], #4
 399              	.LCFI33:
 400              		.cfi_restore 7
 401              		.cfi_def_cfa_offset 0
 402 0054 7047     		bx	lr
 403              		.cfi_endproc
 404              	.LFE131:
 406              		.section	.text.HAL_TIM_Base_Start_IT,"ax",%progbits
 407              		.align	1
 408              		.global	HAL_TIM_Base_Start_IT
 409              		.syntax unified
 410              		.thumb
ARM GAS  /tmp/ccvKwMj1.s 			page 14


 411              		.thumb_func
 412              		.fpu fpv4-sp-d16
 414              	HAL_TIM_Base_Start_IT:
 415              	.LFB132:
 344:./Libraries/STM32F4xx_HAL_Driver/Src/stm32f4xx_hal_tim.c **** 
 345:./Libraries/STM32F4xx_HAL_Driver/Src/stm32f4xx_hal_tim.c **** /**
 346:./Libraries/STM32F4xx_HAL_Driver/Src/stm32f4xx_hal_tim.c ****   * @brief  Starts the TIM Base generation in interrupt mode.
 347:./Libraries/STM32F4xx_HAL_Driver/Src/stm32f4xx_hal_tim.c ****   * @param  htim pointer to a TIM_HandleTypeDef structure that contains
 348:./Libraries/STM32F4xx_HAL_Driver/Src/stm32f4xx_hal_tim.c ****   *                the configuration information for TIM module.
 349:./Libraries/STM32F4xx_HAL_Driver/Src/stm32f4xx_hal_tim.c ****   * @retval HAL status
 350:./Libraries/STM32F4xx_HAL_Driver/Src/stm32f4xx_hal_tim.c ****   */
 351:./Libraries/STM32F4xx_HAL_Driver/Src/stm32f4xx_hal_tim.c **** HAL_StatusTypeDef HAL_TIM_Base_Start_IT(TIM_HandleTypeDef *htim)
 352:./Libraries/STM32F4xx_HAL_Driver/Src/stm32f4xx_hal_tim.c **** {
 416              		.loc 1 352 1
 417              		.cfi_startproc
 418              		@ args = 0, pretend = 0, frame = 8
 419              		@ frame_needed = 1, uses_anonymous_args = 0
 420              		@ link register save eliminated.
 421 0000 80B4     		push	{r7}
 422              	.LCFI34:
 423              		.cfi_def_cfa_offset 4
 424              		.cfi_offset 7, -4
 425 0002 83B0     		sub	sp, sp, #12
 426              	.LCFI35:
 427              		.cfi_def_cfa_offset 16
 428 0004 00AF     		add	r7, sp, #0
 429              	.LCFI36:
 430              		.cfi_def_cfa_register 7
 431 0006 7860     		str	r0, [r7, #4]
 353:./Libraries/STM32F4xx_HAL_Driver/Src/stm32f4xx_hal_tim.c ****   /* Check the parameters */
 354:./Libraries/STM32F4xx_HAL_Driver/Src/stm32f4xx_hal_tim.c ****   assert_param(IS_TIM_INSTANCE(htim->Instance));
 355:./Libraries/STM32F4xx_HAL_Driver/Src/stm32f4xx_hal_tim.c ****   
 356:./Libraries/STM32F4xx_HAL_Driver/Src/stm32f4xx_hal_tim.c ****   /* Enable the TIM Update interrupt */
 357:./Libraries/STM32F4xx_HAL_Driver/Src/stm32f4xx_hal_tim.c ****   __HAL_TIM_ENABLE_IT(htim, TIM_IT_UPDATE);
 432              		.loc 1 357 3
 433 0008 7B68     		ldr	r3, [r7, #4]
 434 000a 1B68     		ldr	r3, [r3]
 435 000c DA68     		ldr	r2, [r3, #12]
 436 000e 7B68     		ldr	r3, [r7, #4]
 437 0010 1B68     		ldr	r3, [r3]
 438 0012 42F00102 		orr	r2, r2, #1
 439 0016 DA60     		str	r2, [r3, #12]
 358:./Libraries/STM32F4xx_HAL_Driver/Src/stm32f4xx_hal_tim.c ****       
 359:./Libraries/STM32F4xx_HAL_Driver/Src/stm32f4xx_hal_tim.c ****   /* Enable the Peripheral */
 360:./Libraries/STM32F4xx_HAL_Driver/Src/stm32f4xx_hal_tim.c ****   __HAL_TIM_ENABLE(htim);
 440              		.loc 1 360 3
 441 0018 7B68     		ldr	r3, [r7, #4]
 442 001a 1B68     		ldr	r3, [r3]
 443 001c 1A68     		ldr	r2, [r3]
 444 001e 7B68     		ldr	r3, [r7, #4]
 445 0020 1B68     		ldr	r3, [r3]
 446 0022 42F00102 		orr	r2, r2, #1
 447 0026 1A60     		str	r2, [r3]
 361:./Libraries/STM32F4xx_HAL_Driver/Src/stm32f4xx_hal_tim.c ****       
 362:./Libraries/STM32F4xx_HAL_Driver/Src/stm32f4xx_hal_tim.c ****   /* Return function status */
 363:./Libraries/STM32F4xx_HAL_Driver/Src/stm32f4xx_hal_tim.c ****   return HAL_OK;
 448              		.loc 1 363 10
ARM GAS  /tmp/ccvKwMj1.s 			page 15


 449 0028 0023     		movs	r3, #0
 364:./Libraries/STM32F4xx_HAL_Driver/Src/stm32f4xx_hal_tim.c **** }
 450              		.loc 1 364 1
 451 002a 1846     		mov	r0, r3
 452 002c 0C37     		adds	r7, r7, #12
 453              	.LCFI37:
 454              		.cfi_def_cfa_offset 4
 455 002e BD46     		mov	sp, r7
 456              	.LCFI38:
 457              		.cfi_def_cfa_register 13
 458              		@ sp needed
 459 0030 5DF8047B 		ldr	r7, [sp], #4
 460              	.LCFI39:
 461              		.cfi_restore 7
 462              		.cfi_def_cfa_offset 0
 463 0034 7047     		bx	lr
 464              		.cfi_endproc
 465              	.LFE132:
 467              		.section	.text.HAL_TIM_Base_Stop_IT,"ax",%progbits
 468              		.align	1
 469              		.global	HAL_TIM_Base_Stop_IT
 470              		.syntax unified
 471              		.thumb
 472              		.thumb_func
 473              		.fpu fpv4-sp-d16
 475              	HAL_TIM_Base_Stop_IT:
 476              	.LFB133:
 365:./Libraries/STM32F4xx_HAL_Driver/Src/stm32f4xx_hal_tim.c **** 
 366:./Libraries/STM32F4xx_HAL_Driver/Src/stm32f4xx_hal_tim.c **** /**
 367:./Libraries/STM32F4xx_HAL_Driver/Src/stm32f4xx_hal_tim.c ****   * @brief  Stops the TIM Base generation in interrupt mode.
 368:./Libraries/STM32F4xx_HAL_Driver/Src/stm32f4xx_hal_tim.c ****   * @param  htim pointer to a TIM_HandleTypeDef structure that contains
 369:./Libraries/STM32F4xx_HAL_Driver/Src/stm32f4xx_hal_tim.c ****   *                the configuration information for TIM module.
 370:./Libraries/STM32F4xx_HAL_Driver/Src/stm32f4xx_hal_tim.c ****   * @retval HAL status
 371:./Libraries/STM32F4xx_HAL_Driver/Src/stm32f4xx_hal_tim.c ****   */
 372:./Libraries/STM32F4xx_HAL_Driver/Src/stm32f4xx_hal_tim.c **** HAL_StatusTypeDef HAL_TIM_Base_Stop_IT(TIM_HandleTypeDef *htim)
 373:./Libraries/STM32F4xx_HAL_Driver/Src/stm32f4xx_hal_tim.c **** {
 477              		.loc 1 373 1
 478              		.cfi_startproc
 479              		@ args = 0, pretend = 0, frame = 8
 480              		@ frame_needed = 1, uses_anonymous_args = 0
 481              		@ link register save eliminated.
 482 0000 80B4     		push	{r7}
 483              	.LCFI40:
 484              		.cfi_def_cfa_offset 4
 485              		.cfi_offset 7, -4
 486 0002 83B0     		sub	sp, sp, #12
 487              	.LCFI41:
 488              		.cfi_def_cfa_offset 16
 489 0004 00AF     		add	r7, sp, #0
 490              	.LCFI42:
 491              		.cfi_def_cfa_register 7
 492 0006 7860     		str	r0, [r7, #4]
 374:./Libraries/STM32F4xx_HAL_Driver/Src/stm32f4xx_hal_tim.c ****   /* Check the parameters */
 375:./Libraries/STM32F4xx_HAL_Driver/Src/stm32f4xx_hal_tim.c ****   assert_param(IS_TIM_INSTANCE(htim->Instance));
 376:./Libraries/STM32F4xx_HAL_Driver/Src/stm32f4xx_hal_tim.c ****   /* Disable the TIM Update interrupt */
 377:./Libraries/STM32F4xx_HAL_Driver/Src/stm32f4xx_hal_tim.c ****   __HAL_TIM_DISABLE_IT(htim, TIM_IT_UPDATE);
 493              		.loc 1 377 3
ARM GAS  /tmp/ccvKwMj1.s 			page 16


 494 0008 7B68     		ldr	r3, [r7, #4]
 495 000a 1B68     		ldr	r3, [r3]
 496 000c DA68     		ldr	r2, [r3, #12]
 497 000e 7B68     		ldr	r3, [r7, #4]
 498 0010 1B68     		ldr	r3, [r3]
 499 0012 22F00102 		bic	r2, r2, #1
 500 0016 DA60     		str	r2, [r3, #12]
 378:./Libraries/STM32F4xx_HAL_Driver/Src/stm32f4xx_hal_tim.c ****       
 379:./Libraries/STM32F4xx_HAL_Driver/Src/stm32f4xx_hal_tim.c ****   /* Disable the Peripheral */
 380:./Libraries/STM32F4xx_HAL_Driver/Src/stm32f4xx_hal_tim.c ****   __HAL_TIM_DISABLE(htim);
 501              		.loc 1 380 3
 502 0018 7B68     		ldr	r3, [r7, #4]
 503 001a 1B68     		ldr	r3, [r3]
 504 001c 1A6A     		ldr	r2, [r3, #32]
 505 001e 41F21113 		movw	r3, #4369
 506 0022 1340     		ands	r3, r3, r2
 507 0024 002B     		cmp	r3, #0
 508 0026 0FD1     		bne	.L18
 509              		.loc 1 380 3 is_stmt 0 discriminator 1
 510 0028 7B68     		ldr	r3, [r7, #4]
 511 002a 1B68     		ldr	r3, [r3]
 512 002c 1A6A     		ldr	r2, [r3, #32]
 513 002e 40F24443 		movw	r3, #1092
 514 0032 1340     		ands	r3, r3, r2
 515 0034 002B     		cmp	r3, #0
 516 0036 07D1     		bne	.L18
 517              		.loc 1 380 3 discriminator 2
 518 0038 7B68     		ldr	r3, [r7, #4]
 519 003a 1B68     		ldr	r3, [r3]
 520 003c 1A68     		ldr	r2, [r3]
 521 003e 7B68     		ldr	r3, [r7, #4]
 522 0040 1B68     		ldr	r3, [r3]
 523 0042 22F00102 		bic	r2, r2, #1
 524 0046 1A60     		str	r2, [r3]
 525              	.L18:
 381:./Libraries/STM32F4xx_HAL_Driver/Src/stm32f4xx_hal_tim.c ****     
 382:./Libraries/STM32F4xx_HAL_Driver/Src/stm32f4xx_hal_tim.c ****   /* Return function status */
 383:./Libraries/STM32F4xx_HAL_Driver/Src/stm32f4xx_hal_tim.c ****   return HAL_OK;
 526              		.loc 1 383 10 is_stmt 1
 527 0048 0023     		movs	r3, #0
 384:./Libraries/STM32F4xx_HAL_Driver/Src/stm32f4xx_hal_tim.c **** }
 528              		.loc 1 384 1
 529 004a 1846     		mov	r0, r3
 530 004c 0C37     		adds	r7, r7, #12
 531              	.LCFI43:
 532              		.cfi_def_cfa_offset 4
 533 004e BD46     		mov	sp, r7
 534              	.LCFI44:
 535              		.cfi_def_cfa_register 13
 536              		@ sp needed
 537 0050 5DF8047B 		ldr	r7, [sp], #4
 538              	.LCFI45:
 539              		.cfi_restore 7
 540              		.cfi_def_cfa_offset 0
 541 0054 7047     		bx	lr
 542              		.cfi_endproc
 543              	.LFE133:
ARM GAS  /tmp/ccvKwMj1.s 			page 17


 545              		.section	.text.HAL_TIM_Base_Start_DMA,"ax",%progbits
 546              		.align	1
 547              		.global	HAL_TIM_Base_Start_DMA
 548              		.syntax unified
 549              		.thumb
 550              		.thumb_func
 551              		.fpu fpv4-sp-d16
 553              	HAL_TIM_Base_Start_DMA:
 554              	.LFB134:
 385:./Libraries/STM32F4xx_HAL_Driver/Src/stm32f4xx_hal_tim.c **** 
 386:./Libraries/STM32F4xx_HAL_Driver/Src/stm32f4xx_hal_tim.c **** /**
 387:./Libraries/STM32F4xx_HAL_Driver/Src/stm32f4xx_hal_tim.c ****   * @brief  Starts the TIM Base generation in DMA mode.
 388:./Libraries/STM32F4xx_HAL_Driver/Src/stm32f4xx_hal_tim.c ****   * @param  htim pointer to a TIM_HandleTypeDef structure that contains
 389:./Libraries/STM32F4xx_HAL_Driver/Src/stm32f4xx_hal_tim.c ****   *                the configuration information for TIM module.
 390:./Libraries/STM32F4xx_HAL_Driver/Src/stm32f4xx_hal_tim.c ****   * @param  pData The source Buffer address.
 391:./Libraries/STM32F4xx_HAL_Driver/Src/stm32f4xx_hal_tim.c ****   * @param  Length The length of data to be transferred from memory to peripheral.
 392:./Libraries/STM32F4xx_HAL_Driver/Src/stm32f4xx_hal_tim.c ****   * @retval HAL status
 393:./Libraries/STM32F4xx_HAL_Driver/Src/stm32f4xx_hal_tim.c ****   */
 394:./Libraries/STM32F4xx_HAL_Driver/Src/stm32f4xx_hal_tim.c **** HAL_StatusTypeDef HAL_TIM_Base_Start_DMA(TIM_HandleTypeDef *htim, uint32_t *pData, uint16_t Length)
 395:./Libraries/STM32F4xx_HAL_Driver/Src/stm32f4xx_hal_tim.c **** {
 555              		.loc 1 395 1
 556              		.cfi_startproc
 557              		@ args = 0, pretend = 0, frame = 16
 558              		@ frame_needed = 1, uses_anonymous_args = 0
 559 0000 80B5     		push	{r7, lr}
 560              	.LCFI46:
 561              		.cfi_def_cfa_offset 8
 562              		.cfi_offset 7, -8
 563              		.cfi_offset 14, -4
 564 0002 84B0     		sub	sp, sp, #16
 565              	.LCFI47:
 566              		.cfi_def_cfa_offset 24
 567 0004 00AF     		add	r7, sp, #0
 568              	.LCFI48:
 569              		.cfi_def_cfa_register 7
 570 0006 F860     		str	r0, [r7, #12]
 571 0008 B960     		str	r1, [r7, #8]
 572 000a 1346     		mov	r3, r2
 573 000c FB80     		strh	r3, [r7, #6]	@ movhi
 396:./Libraries/STM32F4xx_HAL_Driver/Src/stm32f4xx_hal_tim.c ****   /* Check the parameters */
 397:./Libraries/STM32F4xx_HAL_Driver/Src/stm32f4xx_hal_tim.c ****   assert_param(IS_TIM_DMA_INSTANCE(htim->Instance)); 
 398:./Libraries/STM32F4xx_HAL_Driver/Src/stm32f4xx_hal_tim.c ****   
 399:./Libraries/STM32F4xx_HAL_Driver/Src/stm32f4xx_hal_tim.c ****   if((htim->State == HAL_TIM_STATE_BUSY))
 574              		.loc 1 399 11
 575 000e FB68     		ldr	r3, [r7, #12]
 576 0010 93F83930 		ldrb	r3, [r3, #57]
 577 0014 DBB2     		uxtb	r3, r3
 578              		.loc 1 399 5
 579 0016 022B     		cmp	r3, #2
 580 0018 01D1     		bne	.L21
 400:./Libraries/STM32F4xx_HAL_Driver/Src/stm32f4xx_hal_tim.c ****   {
 401:./Libraries/STM32F4xx_HAL_Driver/Src/stm32f4xx_hal_tim.c ****      return HAL_BUSY;
 581              		.loc 1 401 13
 582 001a 0223     		movs	r3, #2
 583 001c 34E0     		b	.L22
 584              	.L21:
 402:./Libraries/STM32F4xx_HAL_Driver/Src/stm32f4xx_hal_tim.c ****   }
ARM GAS  /tmp/ccvKwMj1.s 			page 18


 403:./Libraries/STM32F4xx_HAL_Driver/Src/stm32f4xx_hal_tim.c ****   else if((htim->State == HAL_TIM_STATE_READY))
 585              		.loc 1 403 16
 586 001e FB68     		ldr	r3, [r7, #12]
 587 0020 93F83930 		ldrb	r3, [r3, #57]
 588 0024 DBB2     		uxtb	r3, r3
 589              		.loc 1 403 10
 590 0026 012B     		cmp	r3, #1
 591 0028 0BD1     		bne	.L23
 404:./Libraries/STM32F4xx_HAL_Driver/Src/stm32f4xx_hal_tim.c ****   {
 405:./Libraries/STM32F4xx_HAL_Driver/Src/stm32f4xx_hal_tim.c ****     if((pData == 0U) && (Length > 0)) 
 592              		.loc 1 405 7
 593 002a BB68     		ldr	r3, [r7, #8]
 594 002c 002B     		cmp	r3, #0
 595 002e 04D1     		bne	.L24
 596              		.loc 1 405 22 discriminator 1
 597 0030 FB88     		ldrh	r3, [r7, #6]
 598 0032 002B     		cmp	r3, #0
 599 0034 01D0     		beq	.L24
 406:./Libraries/STM32F4xx_HAL_Driver/Src/stm32f4xx_hal_tim.c ****     {
 407:./Libraries/STM32F4xx_HAL_Driver/Src/stm32f4xx_hal_tim.c ****       return HAL_ERROR;                                    
 600              		.loc 1 407 14
 601 0036 0123     		movs	r3, #1
 602 0038 26E0     		b	.L22
 603              	.L24:
 408:./Libraries/STM32F4xx_HAL_Driver/Src/stm32f4xx_hal_tim.c ****     }
 409:./Libraries/STM32F4xx_HAL_Driver/Src/stm32f4xx_hal_tim.c ****     else
 410:./Libraries/STM32F4xx_HAL_Driver/Src/stm32f4xx_hal_tim.c ****     {
 411:./Libraries/STM32F4xx_HAL_Driver/Src/stm32f4xx_hal_tim.c ****       htim->State = HAL_TIM_STATE_BUSY;
 604              		.loc 1 411 19
 605 003a FB68     		ldr	r3, [r7, #12]
 606 003c 0222     		movs	r2, #2
 607 003e 83F83920 		strb	r2, [r3, #57]
 608              	.L23:
 412:./Libraries/STM32F4xx_HAL_Driver/Src/stm32f4xx_hal_tim.c ****     }
 413:./Libraries/STM32F4xx_HAL_Driver/Src/stm32f4xx_hal_tim.c ****   }  
 414:./Libraries/STM32F4xx_HAL_Driver/Src/stm32f4xx_hal_tim.c ****   /* Set the DMA Period elapsed callback */
 415:./Libraries/STM32F4xx_HAL_Driver/Src/stm32f4xx_hal_tim.c ****   htim->hdma[TIM_DMA_ID_UPDATE]->XferCpltCallback = TIM_DMAPeriodElapsedCplt;
 609              		.loc 1 415 13
 610 0042 FB68     		ldr	r3, [r7, #12]
 611 0044 DB69     		ldr	r3, [r3, #28]
 612              		.loc 1 415 51
 613 0046 124A     		ldr	r2, .L25
 614 0048 DA63     		str	r2, [r3, #60]
 416:./Libraries/STM32F4xx_HAL_Driver/Src/stm32f4xx_hal_tim.c ****      
 417:./Libraries/STM32F4xx_HAL_Driver/Src/stm32f4xx_hal_tim.c ****   /* Set the DMA error callback */
 418:./Libraries/STM32F4xx_HAL_Driver/Src/stm32f4xx_hal_tim.c ****   htim->hdma[TIM_DMA_ID_UPDATE]->XferErrorCallback = TIM_DMAError ;
 615              		.loc 1 418 13
 616 004a FB68     		ldr	r3, [r7, #12]
 617 004c DB69     		ldr	r3, [r3, #28]
 618              		.loc 1 418 52
 619 004e 114A     		ldr	r2, .L25+4
 620 0050 DA64     		str	r2, [r3, #76]
 419:./Libraries/STM32F4xx_HAL_Driver/Src/stm32f4xx_hal_tim.c ****   
 420:./Libraries/STM32F4xx_HAL_Driver/Src/stm32f4xx_hal_tim.c ****   /* Enable the DMA Stream */
 421:./Libraries/STM32F4xx_HAL_Driver/Src/stm32f4xx_hal_tim.c ****   HAL_DMA_Start_IT(htim->hdma[TIM_DMA_ID_UPDATE], (uint32_t)pData, (uint32_t)&htim->Instance->ARR, 
 621              		.loc 1 421 3
 622 0052 FB68     		ldr	r3, [r7, #12]
ARM GAS  /tmp/ccvKwMj1.s 			page 19


 623 0054 D869     		ldr	r0, [r3, #28]
 624 0056 B968     		ldr	r1, [r7, #8]
 625              		.loc 1 421 83
 626 0058 FB68     		ldr	r3, [r7, #12]
 627 005a 1B68     		ldr	r3, [r3]
 628              		.loc 1 421 78
 629 005c 2C33     		adds	r3, r3, #44
 630              		.loc 1 421 3
 631 005e 1A46     		mov	r2, r3
 632 0060 FB88     		ldrh	r3, [r7, #6]
 633 0062 FFF7FEFF 		bl	HAL_DMA_Start_IT
 422:./Libraries/STM32F4xx_HAL_Driver/Src/stm32f4xx_hal_tim.c ****   
 423:./Libraries/STM32F4xx_HAL_Driver/Src/stm32f4xx_hal_tim.c ****   /* Enable the TIM Update DMA request */
 424:./Libraries/STM32F4xx_HAL_Driver/Src/stm32f4xx_hal_tim.c ****   __HAL_TIM_ENABLE_DMA(htim, TIM_DMA_UPDATE);
 634              		.loc 1 424 3
 635 0066 FB68     		ldr	r3, [r7, #12]
 636 0068 1B68     		ldr	r3, [r3]
 637 006a DA68     		ldr	r2, [r3, #12]
 638 006c FB68     		ldr	r3, [r7, #12]
 639 006e 1B68     		ldr	r3, [r3]
 640 0070 42F48072 		orr	r2, r2, #256
 641 0074 DA60     		str	r2, [r3, #12]
 425:./Libraries/STM32F4xx_HAL_Driver/Src/stm32f4xx_hal_tim.c **** 
 426:./Libraries/STM32F4xx_HAL_Driver/Src/stm32f4xx_hal_tim.c ****   /* Enable the Peripheral */
 427:./Libraries/STM32F4xx_HAL_Driver/Src/stm32f4xx_hal_tim.c ****   __HAL_TIM_ENABLE(htim);  
 642              		.loc 1 427 3
 643 0076 FB68     		ldr	r3, [r7, #12]
 644 0078 1B68     		ldr	r3, [r3]
 645 007a 1A68     		ldr	r2, [r3]
 646 007c FB68     		ldr	r3, [r7, #12]
 647 007e 1B68     		ldr	r3, [r3]
 648 0080 42F00102 		orr	r2, r2, #1
 649 0084 1A60     		str	r2, [r3]
 428:./Libraries/STM32F4xx_HAL_Driver/Src/stm32f4xx_hal_tim.c ****   
 429:./Libraries/STM32F4xx_HAL_Driver/Src/stm32f4xx_hal_tim.c ****   /* Return function status */
 430:./Libraries/STM32F4xx_HAL_Driver/Src/stm32f4xx_hal_tim.c ****   return HAL_OK;
 650              		.loc 1 430 10
 651 0086 0023     		movs	r3, #0
 652              	.L22:
 431:./Libraries/STM32F4xx_HAL_Driver/Src/stm32f4xx_hal_tim.c **** }
 653              		.loc 1 431 1
 654 0088 1846     		mov	r0, r3
 655 008a 1037     		adds	r7, r7, #16
 656              	.LCFI49:
 657              		.cfi_def_cfa_offset 8
 658 008c BD46     		mov	sp, r7
 659              	.LCFI50:
 660              		.cfi_def_cfa_register 13
 661              		@ sp needed
 662 008e 80BD     		pop	{r7, pc}
 663              	.L26:
 664              		.align	2
 665              	.L25:
 666 0090 00000000 		.word	TIM_DMAPeriodElapsedCplt
 667 0094 00000000 		.word	TIM_DMAError
 668              		.cfi_endproc
 669              	.LFE134:
ARM GAS  /tmp/ccvKwMj1.s 			page 20


 671              		.section	.text.HAL_TIM_Base_Stop_DMA,"ax",%progbits
 672              		.align	1
 673              		.global	HAL_TIM_Base_Stop_DMA
 674              		.syntax unified
 675              		.thumb
 676              		.thumb_func
 677              		.fpu fpv4-sp-d16
 679              	HAL_TIM_Base_Stop_DMA:
 680              	.LFB135:
 432:./Libraries/STM32F4xx_HAL_Driver/Src/stm32f4xx_hal_tim.c **** 
 433:./Libraries/STM32F4xx_HAL_Driver/Src/stm32f4xx_hal_tim.c **** /**
 434:./Libraries/STM32F4xx_HAL_Driver/Src/stm32f4xx_hal_tim.c ****   * @brief  Stops the TIM Base generation in DMA mode.
 435:./Libraries/STM32F4xx_HAL_Driver/Src/stm32f4xx_hal_tim.c ****   * @param  htim pointer to a TIM_HandleTypeDef structure that contains
 436:./Libraries/STM32F4xx_HAL_Driver/Src/stm32f4xx_hal_tim.c ****   *                the configuration information for TIM module.
 437:./Libraries/STM32F4xx_HAL_Driver/Src/stm32f4xx_hal_tim.c ****   * @retval HAL status
 438:./Libraries/STM32F4xx_HAL_Driver/Src/stm32f4xx_hal_tim.c ****   */
 439:./Libraries/STM32F4xx_HAL_Driver/Src/stm32f4xx_hal_tim.c **** HAL_StatusTypeDef HAL_TIM_Base_Stop_DMA(TIM_HandleTypeDef *htim)
 440:./Libraries/STM32F4xx_HAL_Driver/Src/stm32f4xx_hal_tim.c **** {
 681              		.loc 1 440 1
 682              		.cfi_startproc
 683              		@ args = 0, pretend = 0, frame = 8
 684              		@ frame_needed = 1, uses_anonymous_args = 0
 685              		@ link register save eliminated.
 686 0000 80B4     		push	{r7}
 687              	.LCFI51:
 688              		.cfi_def_cfa_offset 4
 689              		.cfi_offset 7, -4
 690 0002 83B0     		sub	sp, sp, #12
 691              	.LCFI52:
 692              		.cfi_def_cfa_offset 16
 693 0004 00AF     		add	r7, sp, #0
 694              	.LCFI53:
 695              		.cfi_def_cfa_register 7
 696 0006 7860     		str	r0, [r7, #4]
 441:./Libraries/STM32F4xx_HAL_Driver/Src/stm32f4xx_hal_tim.c ****   /* Check the parameters */
 442:./Libraries/STM32F4xx_HAL_Driver/Src/stm32f4xx_hal_tim.c ****   assert_param(IS_TIM_DMA_INSTANCE(htim->Instance));
 443:./Libraries/STM32F4xx_HAL_Driver/Src/stm32f4xx_hal_tim.c ****   
 444:./Libraries/STM32F4xx_HAL_Driver/Src/stm32f4xx_hal_tim.c ****   /* Disable the TIM Update DMA request */
 445:./Libraries/STM32F4xx_HAL_Driver/Src/stm32f4xx_hal_tim.c ****   __HAL_TIM_DISABLE_DMA(htim, TIM_DMA_UPDATE);
 697              		.loc 1 445 3
 698 0008 7B68     		ldr	r3, [r7, #4]
 699 000a 1B68     		ldr	r3, [r3]
 700 000c DA68     		ldr	r2, [r3, #12]
 701 000e 7B68     		ldr	r3, [r7, #4]
 702 0010 1B68     		ldr	r3, [r3]
 703 0012 22F48072 		bic	r2, r2, #256
 704 0016 DA60     		str	r2, [r3, #12]
 446:./Libraries/STM32F4xx_HAL_Driver/Src/stm32f4xx_hal_tim.c ****       
 447:./Libraries/STM32F4xx_HAL_Driver/Src/stm32f4xx_hal_tim.c ****   /* Disable the Peripheral */
 448:./Libraries/STM32F4xx_HAL_Driver/Src/stm32f4xx_hal_tim.c ****   __HAL_TIM_DISABLE(htim);
 705              		.loc 1 448 3
 706 0018 7B68     		ldr	r3, [r7, #4]
 707 001a 1B68     		ldr	r3, [r3]
 708 001c 1A6A     		ldr	r2, [r3, #32]
 709 001e 41F21113 		movw	r3, #4369
 710 0022 1340     		ands	r3, r3, r2
 711 0024 002B     		cmp	r3, #0
ARM GAS  /tmp/ccvKwMj1.s 			page 21


 712 0026 0FD1     		bne	.L28
 713              		.loc 1 448 3 is_stmt 0 discriminator 1
 714 0028 7B68     		ldr	r3, [r7, #4]
 715 002a 1B68     		ldr	r3, [r3]
 716 002c 1A6A     		ldr	r2, [r3, #32]
 717 002e 40F24443 		movw	r3, #1092
 718 0032 1340     		ands	r3, r3, r2
 719 0034 002B     		cmp	r3, #0
 720 0036 07D1     		bne	.L28
 721              		.loc 1 448 3 discriminator 2
 722 0038 7B68     		ldr	r3, [r7, #4]
 723 003a 1B68     		ldr	r3, [r3]
 724 003c 1A68     		ldr	r2, [r3]
 725 003e 7B68     		ldr	r3, [r7, #4]
 726 0040 1B68     		ldr	r3, [r3]
 727 0042 22F00102 		bic	r2, r2, #1
 728 0046 1A60     		str	r2, [r3]
 729              	.L28:
 449:./Libraries/STM32F4xx_HAL_Driver/Src/stm32f4xx_hal_tim.c ****     
 450:./Libraries/STM32F4xx_HAL_Driver/Src/stm32f4xx_hal_tim.c ****   /* Change the htim state */
 451:./Libraries/STM32F4xx_HAL_Driver/Src/stm32f4xx_hal_tim.c ****   htim->State = HAL_TIM_STATE_READY;
 730              		.loc 1 451 15 is_stmt 1
 731 0048 7B68     		ldr	r3, [r7, #4]
 732 004a 0122     		movs	r2, #1
 733 004c 83F83920 		strb	r2, [r3, #57]
 452:./Libraries/STM32F4xx_HAL_Driver/Src/stm32f4xx_hal_tim.c ****       
 453:./Libraries/STM32F4xx_HAL_Driver/Src/stm32f4xx_hal_tim.c ****   /* Return function status */
 454:./Libraries/STM32F4xx_HAL_Driver/Src/stm32f4xx_hal_tim.c ****   return HAL_OK;
 734              		.loc 1 454 10
 735 0050 0023     		movs	r3, #0
 455:./Libraries/STM32F4xx_HAL_Driver/Src/stm32f4xx_hal_tim.c **** }
 736              		.loc 1 455 1
 737 0052 1846     		mov	r0, r3
 738 0054 0C37     		adds	r7, r7, #12
 739              	.LCFI54:
 740              		.cfi_def_cfa_offset 4
 741 0056 BD46     		mov	sp, r7
 742              	.LCFI55:
 743              		.cfi_def_cfa_register 13
 744              		@ sp needed
 745 0058 5DF8047B 		ldr	r7, [sp], #4
 746              	.LCFI56:
 747              		.cfi_restore 7
 748              		.cfi_def_cfa_offset 0
 749 005c 7047     		bx	lr
 750              		.cfi_endproc
 751              	.LFE135:
 753              		.section	.text.HAL_TIM_OC_Init,"ax",%progbits
 754              		.align	1
 755              		.global	HAL_TIM_OC_Init
 756              		.syntax unified
 757              		.thumb
 758              		.thumb_func
 759              		.fpu fpv4-sp-d16
 761              	HAL_TIM_OC_Init:
 762              	.LFB136:
 456:./Libraries/STM32F4xx_HAL_Driver/Src/stm32f4xx_hal_tim.c **** /**
ARM GAS  /tmp/ccvKwMj1.s 			page 22


 457:./Libraries/STM32F4xx_HAL_Driver/Src/stm32f4xx_hal_tim.c ****   * @}
 458:./Libraries/STM32F4xx_HAL_Driver/Src/stm32f4xx_hal_tim.c ****   */
 459:./Libraries/STM32F4xx_HAL_Driver/Src/stm32f4xx_hal_tim.c ****   
 460:./Libraries/STM32F4xx_HAL_Driver/Src/stm32f4xx_hal_tim.c **** /** @defgroup TIM_Exported_Functions_Group2 Time Output Compare functions 
 461:./Libraries/STM32F4xx_HAL_Driver/Src/stm32f4xx_hal_tim.c ****  *  @brief    Time Output Compare functions 
 462:./Libraries/STM32F4xx_HAL_Driver/Src/stm32f4xx_hal_tim.c ****  *
 463:./Libraries/STM32F4xx_HAL_Driver/Src/stm32f4xx_hal_tim.c **** @verbatim    
 464:./Libraries/STM32F4xx_HAL_Driver/Src/stm32f4xx_hal_tim.c ****   ==============================================================================
 465:./Libraries/STM32F4xx_HAL_Driver/Src/stm32f4xx_hal_tim.c ****                   ##### Time Output Compare functions #####
 466:./Libraries/STM32F4xx_HAL_Driver/Src/stm32f4xx_hal_tim.c ****   ==============================================================================
 467:./Libraries/STM32F4xx_HAL_Driver/Src/stm32f4xx_hal_tim.c ****   [..]
 468:./Libraries/STM32F4xx_HAL_Driver/Src/stm32f4xx_hal_tim.c ****     This section provides functions allowing to:
 469:./Libraries/STM32F4xx_HAL_Driver/Src/stm32f4xx_hal_tim.c ****     (+) Initialize and configure the TIM Output Compare. 
 470:./Libraries/STM32F4xx_HAL_Driver/Src/stm32f4xx_hal_tim.c ****     (+) De-initialize the TIM Output Compare.
 471:./Libraries/STM32F4xx_HAL_Driver/Src/stm32f4xx_hal_tim.c ****     (+) Start the Time Output Compare.
 472:./Libraries/STM32F4xx_HAL_Driver/Src/stm32f4xx_hal_tim.c ****     (+) Stop the Time Output Compare.
 473:./Libraries/STM32F4xx_HAL_Driver/Src/stm32f4xx_hal_tim.c ****     (+) Start the Time Output Compare and enable interrupt.
 474:./Libraries/STM32F4xx_HAL_Driver/Src/stm32f4xx_hal_tim.c ****     (+) Stop the Time Output Compare and disable interrupt.
 475:./Libraries/STM32F4xx_HAL_Driver/Src/stm32f4xx_hal_tim.c ****     (+) Start the Time Output Compare and enable DMA transfer.
 476:./Libraries/STM32F4xx_HAL_Driver/Src/stm32f4xx_hal_tim.c ****     (+) Stop the Time Output Compare and disable DMA transfer.
 477:./Libraries/STM32F4xx_HAL_Driver/Src/stm32f4xx_hal_tim.c ****  
 478:./Libraries/STM32F4xx_HAL_Driver/Src/stm32f4xx_hal_tim.c **** @endverbatim
 479:./Libraries/STM32F4xx_HAL_Driver/Src/stm32f4xx_hal_tim.c ****   * @{
 480:./Libraries/STM32F4xx_HAL_Driver/Src/stm32f4xx_hal_tim.c ****   */
 481:./Libraries/STM32F4xx_HAL_Driver/Src/stm32f4xx_hal_tim.c **** /**
 482:./Libraries/STM32F4xx_HAL_Driver/Src/stm32f4xx_hal_tim.c ****   * @brief  Initializes the TIM Output Compare according to the specified
 483:./Libraries/STM32F4xx_HAL_Driver/Src/stm32f4xx_hal_tim.c ****   *         parameters in the TIM_HandleTypeDef and create the associated handle.
 484:./Libraries/STM32F4xx_HAL_Driver/Src/stm32f4xx_hal_tim.c ****   * @param  htim pointer to a TIM_HandleTypeDef structure that contains
 485:./Libraries/STM32F4xx_HAL_Driver/Src/stm32f4xx_hal_tim.c ****   *                the configuration information for TIM module.
 486:./Libraries/STM32F4xx_HAL_Driver/Src/stm32f4xx_hal_tim.c ****   * @retval HAL status
 487:./Libraries/STM32F4xx_HAL_Driver/Src/stm32f4xx_hal_tim.c ****   */
 488:./Libraries/STM32F4xx_HAL_Driver/Src/stm32f4xx_hal_tim.c **** HAL_StatusTypeDef HAL_TIM_OC_Init(TIM_HandleTypeDef* htim)
 489:./Libraries/STM32F4xx_HAL_Driver/Src/stm32f4xx_hal_tim.c **** {
 763              		.loc 1 489 1
 764              		.cfi_startproc
 765              		@ args = 0, pretend = 0, frame = 8
 766              		@ frame_needed = 1, uses_anonymous_args = 0
 767 0000 80B5     		push	{r7, lr}
 768              	.LCFI57:
 769              		.cfi_def_cfa_offset 8
 770              		.cfi_offset 7, -8
 771              		.cfi_offset 14, -4
 772 0002 82B0     		sub	sp, sp, #8
 773              	.LCFI58:
 774              		.cfi_def_cfa_offset 16
 775 0004 00AF     		add	r7, sp, #0
 776              	.LCFI59:
 777              		.cfi_def_cfa_register 7
 778 0006 7860     		str	r0, [r7, #4]
 490:./Libraries/STM32F4xx_HAL_Driver/Src/stm32f4xx_hal_tim.c ****   /* Check the TIM handle allocation */
 491:./Libraries/STM32F4xx_HAL_Driver/Src/stm32f4xx_hal_tim.c ****   if(htim == NULL)
 779              		.loc 1 491 5
 780 0008 7B68     		ldr	r3, [r7, #4]
 781 000a 002B     		cmp	r3, #0
 782 000c 01D1     		bne	.L31
 492:./Libraries/STM32F4xx_HAL_Driver/Src/stm32f4xx_hal_tim.c ****   {
 493:./Libraries/STM32F4xx_HAL_Driver/Src/stm32f4xx_hal_tim.c ****     return HAL_ERROR;
ARM GAS  /tmp/ccvKwMj1.s 			page 23


 783              		.loc 1 493 12
 784 000e 0123     		movs	r3, #1
 785 0010 1DE0     		b	.L32
 786              	.L31:
 494:./Libraries/STM32F4xx_HAL_Driver/Src/stm32f4xx_hal_tim.c ****   }
 495:./Libraries/STM32F4xx_HAL_Driver/Src/stm32f4xx_hal_tim.c **** 
 496:./Libraries/STM32F4xx_HAL_Driver/Src/stm32f4xx_hal_tim.c ****   /* Check the parameters */
 497:./Libraries/STM32F4xx_HAL_Driver/Src/stm32f4xx_hal_tim.c ****   assert_param(IS_TIM_INSTANCE(htim->Instance));
 498:./Libraries/STM32F4xx_HAL_Driver/Src/stm32f4xx_hal_tim.c ****   assert_param(IS_TIM_COUNTER_MODE(htim->Init.CounterMode));
 499:./Libraries/STM32F4xx_HAL_Driver/Src/stm32f4xx_hal_tim.c ****   assert_param(IS_TIM_CLOCKDIVISION_DIV(htim->Init.ClockDivision));
 500:./Libraries/STM32F4xx_HAL_Driver/Src/stm32f4xx_hal_tim.c ****  
 501:./Libraries/STM32F4xx_HAL_Driver/Src/stm32f4xx_hal_tim.c ****   if(htim->State == HAL_TIM_STATE_RESET)
 787              		.loc 1 501 10
 788 0012 7B68     		ldr	r3, [r7, #4]
 789 0014 93F83930 		ldrb	r3, [r3, #57]
 790 0018 DBB2     		uxtb	r3, r3
 791              		.loc 1 501 5
 792 001a 002B     		cmp	r3, #0
 793 001c 06D1     		bne	.L33
 502:./Libraries/STM32F4xx_HAL_Driver/Src/stm32f4xx_hal_tim.c ****   { 
 503:./Libraries/STM32F4xx_HAL_Driver/Src/stm32f4xx_hal_tim.c ****     /* Allocate lock resource and initialize it */
 504:./Libraries/STM32F4xx_HAL_Driver/Src/stm32f4xx_hal_tim.c ****     htim->Lock = HAL_UNLOCKED;
 794              		.loc 1 504 16
 795 001e 7B68     		ldr	r3, [r7, #4]
 796 0020 0022     		movs	r2, #0
 797 0022 83F83820 		strb	r2, [r3, #56]
 505:./Libraries/STM32F4xx_HAL_Driver/Src/stm32f4xx_hal_tim.c ****     /* Init the low level hardware : GPIO, CLOCK, NVIC and DMA */
 506:./Libraries/STM32F4xx_HAL_Driver/Src/stm32f4xx_hal_tim.c ****     HAL_TIM_OC_MspInit(htim);
 798              		.loc 1 506 5
 799 0026 7868     		ldr	r0, [r7, #4]
 800 0028 FFF7FEFF 		bl	HAL_TIM_OC_MspInit
 801              	.L33:
 507:./Libraries/STM32F4xx_HAL_Driver/Src/stm32f4xx_hal_tim.c ****   }
 508:./Libraries/STM32F4xx_HAL_Driver/Src/stm32f4xx_hal_tim.c ****   
 509:./Libraries/STM32F4xx_HAL_Driver/Src/stm32f4xx_hal_tim.c ****   /* Set the TIM state */
 510:./Libraries/STM32F4xx_HAL_Driver/Src/stm32f4xx_hal_tim.c ****   htim->State= HAL_TIM_STATE_BUSY;
 802              		.loc 1 510 14
 803 002c 7B68     		ldr	r3, [r7, #4]
 804 002e 0222     		movs	r2, #2
 805 0030 83F83920 		strb	r2, [r3, #57]
 511:./Libraries/STM32F4xx_HAL_Driver/Src/stm32f4xx_hal_tim.c ****   
 512:./Libraries/STM32F4xx_HAL_Driver/Src/stm32f4xx_hal_tim.c ****   /* Init the base time for the Output Compare */  
 513:./Libraries/STM32F4xx_HAL_Driver/Src/stm32f4xx_hal_tim.c ****   TIM_Base_SetConfig(htim->Instance,  &htim->Init); 
 806              		.loc 1 513 3
 807 0034 7B68     		ldr	r3, [r7, #4]
 808 0036 1A68     		ldr	r2, [r3]
 809 0038 7B68     		ldr	r3, [r7, #4]
 810 003a 0433     		adds	r3, r3, #4
 811 003c 1946     		mov	r1, r3
 812 003e 1046     		mov	r0, r2
 813 0040 FFF7FEFF 		bl	TIM_Base_SetConfig
 514:./Libraries/STM32F4xx_HAL_Driver/Src/stm32f4xx_hal_tim.c ****   
 515:./Libraries/STM32F4xx_HAL_Driver/Src/stm32f4xx_hal_tim.c ****   /* Initialize the TIM state*/
 516:./Libraries/STM32F4xx_HAL_Driver/Src/stm32f4xx_hal_tim.c ****   htim->State= HAL_TIM_STATE_READY;
 814              		.loc 1 516 14
 815 0044 7B68     		ldr	r3, [r7, #4]
 816 0046 0122     		movs	r2, #1
ARM GAS  /tmp/ccvKwMj1.s 			page 24


 817 0048 83F83920 		strb	r2, [r3, #57]
 517:./Libraries/STM32F4xx_HAL_Driver/Src/stm32f4xx_hal_tim.c ****   
 518:./Libraries/STM32F4xx_HAL_Driver/Src/stm32f4xx_hal_tim.c ****   return HAL_OK;
 818              		.loc 1 518 10
 819 004c 0023     		movs	r3, #0
 820              	.L32:
 519:./Libraries/STM32F4xx_HAL_Driver/Src/stm32f4xx_hal_tim.c **** }
 821              		.loc 1 519 1
 822 004e 1846     		mov	r0, r3
 823 0050 0837     		adds	r7, r7, #8
 824              	.LCFI60:
 825              		.cfi_def_cfa_offset 8
 826 0052 BD46     		mov	sp, r7
 827              	.LCFI61:
 828              		.cfi_def_cfa_register 13
 829              		@ sp needed
 830 0054 80BD     		pop	{r7, pc}
 831              		.cfi_endproc
 832              	.LFE136:
 834              		.section	.text.HAL_TIM_OC_DeInit,"ax",%progbits
 835              		.align	1
 836              		.global	HAL_TIM_OC_DeInit
 837              		.syntax unified
 838              		.thumb
 839              		.thumb_func
 840              		.fpu fpv4-sp-d16
 842              	HAL_TIM_OC_DeInit:
 843              	.LFB137:
 520:./Libraries/STM32F4xx_HAL_Driver/Src/stm32f4xx_hal_tim.c **** 
 521:./Libraries/STM32F4xx_HAL_Driver/Src/stm32f4xx_hal_tim.c **** /**
 522:./Libraries/STM32F4xx_HAL_Driver/Src/stm32f4xx_hal_tim.c ****   * @brief  DeInitializes the TIM peripheral 
 523:./Libraries/STM32F4xx_HAL_Driver/Src/stm32f4xx_hal_tim.c ****   * @param  htim pointer to a TIM_HandleTypeDef structure that contains
 524:./Libraries/STM32F4xx_HAL_Driver/Src/stm32f4xx_hal_tim.c ****   *                the configuration information for TIM module.
 525:./Libraries/STM32F4xx_HAL_Driver/Src/stm32f4xx_hal_tim.c ****   * @retval HAL status
 526:./Libraries/STM32F4xx_HAL_Driver/Src/stm32f4xx_hal_tim.c ****   */
 527:./Libraries/STM32F4xx_HAL_Driver/Src/stm32f4xx_hal_tim.c **** HAL_StatusTypeDef HAL_TIM_OC_DeInit(TIM_HandleTypeDef *htim)
 528:./Libraries/STM32F4xx_HAL_Driver/Src/stm32f4xx_hal_tim.c **** {
 844              		.loc 1 528 1
 845              		.cfi_startproc
 846              		@ args = 0, pretend = 0, frame = 8
 847              		@ frame_needed = 1, uses_anonymous_args = 0
 848 0000 80B5     		push	{r7, lr}
 849              	.LCFI62:
 850              		.cfi_def_cfa_offset 8
 851              		.cfi_offset 7, -8
 852              		.cfi_offset 14, -4
 853 0002 82B0     		sub	sp, sp, #8
 854              	.LCFI63:
 855              		.cfi_def_cfa_offset 16
 856 0004 00AF     		add	r7, sp, #0
 857              	.LCFI64:
 858              		.cfi_def_cfa_register 7
 859 0006 7860     		str	r0, [r7, #4]
 529:./Libraries/STM32F4xx_HAL_Driver/Src/stm32f4xx_hal_tim.c ****   /* Check the parameters */
 530:./Libraries/STM32F4xx_HAL_Driver/Src/stm32f4xx_hal_tim.c ****   assert_param(IS_TIM_INSTANCE(htim->Instance));
 531:./Libraries/STM32F4xx_HAL_Driver/Src/stm32f4xx_hal_tim.c ****   
 532:./Libraries/STM32F4xx_HAL_Driver/Src/stm32f4xx_hal_tim.c ****    htim->State = HAL_TIM_STATE_BUSY;
ARM GAS  /tmp/ccvKwMj1.s 			page 25


 860              		.loc 1 532 16
 861 0008 7B68     		ldr	r3, [r7, #4]
 862 000a 0222     		movs	r2, #2
 863 000c 83F83920 		strb	r2, [r3, #57]
 533:./Libraries/STM32F4xx_HAL_Driver/Src/stm32f4xx_hal_tim.c ****    
 534:./Libraries/STM32F4xx_HAL_Driver/Src/stm32f4xx_hal_tim.c ****   /* Disable the TIM Peripheral Clock */
 535:./Libraries/STM32F4xx_HAL_Driver/Src/stm32f4xx_hal_tim.c ****   __HAL_TIM_DISABLE(htim);
 864              		.loc 1 535 3
 865 0010 7B68     		ldr	r3, [r7, #4]
 866 0012 1B68     		ldr	r3, [r3]
 867 0014 1A6A     		ldr	r2, [r3, #32]
 868 0016 41F21113 		movw	r3, #4369
 869 001a 1340     		ands	r3, r3, r2
 870 001c 002B     		cmp	r3, #0
 871 001e 0FD1     		bne	.L35
 872              		.loc 1 535 3 is_stmt 0 discriminator 1
 873 0020 7B68     		ldr	r3, [r7, #4]
 874 0022 1B68     		ldr	r3, [r3]
 875 0024 1A6A     		ldr	r2, [r3, #32]
 876 0026 40F24443 		movw	r3, #1092
 877 002a 1340     		ands	r3, r3, r2
 878 002c 002B     		cmp	r3, #0
 879 002e 07D1     		bne	.L35
 880              		.loc 1 535 3 discriminator 2
 881 0030 7B68     		ldr	r3, [r7, #4]
 882 0032 1B68     		ldr	r3, [r3]
 883 0034 1A68     		ldr	r2, [r3]
 884 0036 7B68     		ldr	r3, [r7, #4]
 885 0038 1B68     		ldr	r3, [r3]
 886 003a 22F00102 		bic	r2, r2, #1
 887 003e 1A60     		str	r2, [r3]
 888              	.L35:
 536:./Libraries/STM32F4xx_HAL_Driver/Src/stm32f4xx_hal_tim.c ****   
 537:./Libraries/STM32F4xx_HAL_Driver/Src/stm32f4xx_hal_tim.c ****   /* DeInit the low level hardware: GPIO, CLOCK, NVIC and DMA */
 538:./Libraries/STM32F4xx_HAL_Driver/Src/stm32f4xx_hal_tim.c ****   HAL_TIM_OC_MspDeInit(htim);
 889              		.loc 1 538 3 is_stmt 1
 890 0040 7868     		ldr	r0, [r7, #4]
 891 0042 FFF7FEFF 		bl	HAL_TIM_OC_MspDeInit
 539:./Libraries/STM32F4xx_HAL_Driver/Src/stm32f4xx_hal_tim.c ****     
 540:./Libraries/STM32F4xx_HAL_Driver/Src/stm32f4xx_hal_tim.c ****   /* Change TIM state */  
 541:./Libraries/STM32F4xx_HAL_Driver/Src/stm32f4xx_hal_tim.c ****   htim->State = HAL_TIM_STATE_RESET; 
 892              		.loc 1 541 15
 893 0046 7B68     		ldr	r3, [r7, #4]
 894 0048 0022     		movs	r2, #0
 895 004a 83F83920 		strb	r2, [r3, #57]
 542:./Libraries/STM32F4xx_HAL_Driver/Src/stm32f4xx_hal_tim.c **** 
 543:./Libraries/STM32F4xx_HAL_Driver/Src/stm32f4xx_hal_tim.c ****   /* Release Lock */
 544:./Libraries/STM32F4xx_HAL_Driver/Src/stm32f4xx_hal_tim.c ****   __HAL_UNLOCK(htim);
 896              		.loc 1 544 3
 897 004e 7B68     		ldr	r3, [r7, #4]
 898 0050 0022     		movs	r2, #0
 899 0052 83F83820 		strb	r2, [r3, #56]
 545:./Libraries/STM32F4xx_HAL_Driver/Src/stm32f4xx_hal_tim.c **** 
 546:./Libraries/STM32F4xx_HAL_Driver/Src/stm32f4xx_hal_tim.c ****   return HAL_OK;
 900              		.loc 1 546 10
 901 0056 0023     		movs	r3, #0
 547:./Libraries/STM32F4xx_HAL_Driver/Src/stm32f4xx_hal_tim.c **** }
ARM GAS  /tmp/ccvKwMj1.s 			page 26


 902              		.loc 1 547 1
 903 0058 1846     		mov	r0, r3
 904 005a 0837     		adds	r7, r7, #8
 905              	.LCFI65:
 906              		.cfi_def_cfa_offset 8
 907 005c BD46     		mov	sp, r7
 908              	.LCFI66:
 909              		.cfi_def_cfa_register 13
 910              		@ sp needed
 911 005e 80BD     		pop	{r7, pc}
 912              		.cfi_endproc
 913              	.LFE137:
 915              		.section	.text.HAL_TIM_OC_MspInit,"ax",%progbits
 916              		.align	1
 917              		.weak	HAL_TIM_OC_MspInit
 918              		.syntax unified
 919              		.thumb
 920              		.thumb_func
 921              		.fpu fpv4-sp-d16
 923              	HAL_TIM_OC_MspInit:
 924              	.LFB138:
 548:./Libraries/STM32F4xx_HAL_Driver/Src/stm32f4xx_hal_tim.c **** 
 549:./Libraries/STM32F4xx_HAL_Driver/Src/stm32f4xx_hal_tim.c **** /**
 550:./Libraries/STM32F4xx_HAL_Driver/Src/stm32f4xx_hal_tim.c ****   * @brief  Initializes the TIM Output Compare MSP.
 551:./Libraries/STM32F4xx_HAL_Driver/Src/stm32f4xx_hal_tim.c ****   * @param  htim pointer to a TIM_HandleTypeDef structure that contains
 552:./Libraries/STM32F4xx_HAL_Driver/Src/stm32f4xx_hal_tim.c ****   *                the configuration information for TIM module.
 553:./Libraries/STM32F4xx_HAL_Driver/Src/stm32f4xx_hal_tim.c ****   * @retval None
 554:./Libraries/STM32F4xx_HAL_Driver/Src/stm32f4xx_hal_tim.c ****   */
 555:./Libraries/STM32F4xx_HAL_Driver/Src/stm32f4xx_hal_tim.c **** __weak void HAL_TIM_OC_MspInit(TIM_HandleTypeDef *htim)
 556:./Libraries/STM32F4xx_HAL_Driver/Src/stm32f4xx_hal_tim.c **** {
 925              		.loc 1 556 1
 926              		.cfi_startproc
 927              		@ args = 0, pretend = 0, frame = 8
 928              		@ frame_needed = 1, uses_anonymous_args = 0
 929              		@ link register save eliminated.
 930 0000 80B4     		push	{r7}
 931              	.LCFI67:
 932              		.cfi_def_cfa_offset 4
 933              		.cfi_offset 7, -4
 934 0002 83B0     		sub	sp, sp, #12
 935              	.LCFI68:
 936              		.cfi_def_cfa_offset 16
 937 0004 00AF     		add	r7, sp, #0
 938              	.LCFI69:
 939              		.cfi_def_cfa_register 7
 940 0006 7860     		str	r0, [r7, #4]
 557:./Libraries/STM32F4xx_HAL_Driver/Src/stm32f4xx_hal_tim.c ****   /* Prevent unused argument(s) compilation warning */
 558:./Libraries/STM32F4xx_HAL_Driver/Src/stm32f4xx_hal_tim.c ****   UNUSED(htim);
 559:./Libraries/STM32F4xx_HAL_Driver/Src/stm32f4xx_hal_tim.c ****   /* NOTE : This function Should not be modified, when the callback is needed,
 560:./Libraries/STM32F4xx_HAL_Driver/Src/stm32f4xx_hal_tim.c ****             the HAL_TIM_OC_MspInit could be implemented in the user file
 561:./Libraries/STM32F4xx_HAL_Driver/Src/stm32f4xx_hal_tim.c ****    */
 562:./Libraries/STM32F4xx_HAL_Driver/Src/stm32f4xx_hal_tim.c **** }
 941              		.loc 1 562 1
 942 0008 00BF     		nop
 943 000a 0C37     		adds	r7, r7, #12
 944              	.LCFI70:
 945              		.cfi_def_cfa_offset 4
ARM GAS  /tmp/ccvKwMj1.s 			page 27


 946 000c BD46     		mov	sp, r7
 947              	.LCFI71:
 948              		.cfi_def_cfa_register 13
 949              		@ sp needed
 950 000e 5DF8047B 		ldr	r7, [sp], #4
 951              	.LCFI72:
 952              		.cfi_restore 7
 953              		.cfi_def_cfa_offset 0
 954 0012 7047     		bx	lr
 955              		.cfi_endproc
 956              	.LFE138:
 958              		.section	.text.HAL_TIM_OC_MspDeInit,"ax",%progbits
 959              		.align	1
 960              		.weak	HAL_TIM_OC_MspDeInit
 961              		.syntax unified
 962              		.thumb
 963              		.thumb_func
 964              		.fpu fpv4-sp-d16
 966              	HAL_TIM_OC_MspDeInit:
 967              	.LFB139:
 563:./Libraries/STM32F4xx_HAL_Driver/Src/stm32f4xx_hal_tim.c **** 
 564:./Libraries/STM32F4xx_HAL_Driver/Src/stm32f4xx_hal_tim.c **** /**
 565:./Libraries/STM32F4xx_HAL_Driver/Src/stm32f4xx_hal_tim.c ****   * @brief  DeInitializes TIM Output Compare MSP.
 566:./Libraries/STM32F4xx_HAL_Driver/Src/stm32f4xx_hal_tim.c ****   * @param  htim pointer to a TIM_HandleTypeDef structure that contains
 567:./Libraries/STM32F4xx_HAL_Driver/Src/stm32f4xx_hal_tim.c ****   *                the configuration information for TIM module.
 568:./Libraries/STM32F4xx_HAL_Driver/Src/stm32f4xx_hal_tim.c ****   * @retval None
 569:./Libraries/STM32F4xx_HAL_Driver/Src/stm32f4xx_hal_tim.c ****   */
 570:./Libraries/STM32F4xx_HAL_Driver/Src/stm32f4xx_hal_tim.c **** __weak void HAL_TIM_OC_MspDeInit(TIM_HandleTypeDef *htim)
 571:./Libraries/STM32F4xx_HAL_Driver/Src/stm32f4xx_hal_tim.c **** {
 968              		.loc 1 571 1
 969              		.cfi_startproc
 970              		@ args = 0, pretend = 0, frame = 8
 971              		@ frame_needed = 1, uses_anonymous_args = 0
 972              		@ link register save eliminated.
 973 0000 80B4     		push	{r7}
 974              	.LCFI73:
 975              		.cfi_def_cfa_offset 4
 976              		.cfi_offset 7, -4
 977 0002 83B0     		sub	sp, sp, #12
 978              	.LCFI74:
 979              		.cfi_def_cfa_offset 16
 980 0004 00AF     		add	r7, sp, #0
 981              	.LCFI75:
 982              		.cfi_def_cfa_register 7
 983 0006 7860     		str	r0, [r7, #4]
 572:./Libraries/STM32F4xx_HAL_Driver/Src/stm32f4xx_hal_tim.c ****   /* Prevent unused argument(s) compilation warning */
 573:./Libraries/STM32F4xx_HAL_Driver/Src/stm32f4xx_hal_tim.c ****   UNUSED(htim);
 574:./Libraries/STM32F4xx_HAL_Driver/Src/stm32f4xx_hal_tim.c ****   /* NOTE : This function Should not be modified, when the callback is needed,
 575:./Libraries/STM32F4xx_HAL_Driver/Src/stm32f4xx_hal_tim.c ****             the HAL_TIM_OC_MspDeInit could be implemented in the user file
 576:./Libraries/STM32F4xx_HAL_Driver/Src/stm32f4xx_hal_tim.c ****    */
 577:./Libraries/STM32F4xx_HAL_Driver/Src/stm32f4xx_hal_tim.c **** }
 984              		.loc 1 577 1
 985 0008 00BF     		nop
 986 000a 0C37     		adds	r7, r7, #12
 987              	.LCFI76:
 988              		.cfi_def_cfa_offset 4
 989 000c BD46     		mov	sp, r7
ARM GAS  /tmp/ccvKwMj1.s 			page 28


 990              	.LCFI77:
 991              		.cfi_def_cfa_register 13
 992              		@ sp needed
 993 000e 5DF8047B 		ldr	r7, [sp], #4
 994              	.LCFI78:
 995              		.cfi_restore 7
 996              		.cfi_def_cfa_offset 0
 997 0012 7047     		bx	lr
 998              		.cfi_endproc
 999              	.LFE139:
 1001              		.section	.text.HAL_TIM_OC_Start,"ax",%progbits
 1002              		.align	1
 1003              		.global	HAL_TIM_OC_Start
 1004              		.syntax unified
 1005              		.thumb
 1006              		.thumb_func
 1007              		.fpu fpv4-sp-d16
 1009              	HAL_TIM_OC_Start:
 1010              	.LFB140:
 578:./Libraries/STM32F4xx_HAL_Driver/Src/stm32f4xx_hal_tim.c **** 
 579:./Libraries/STM32F4xx_HAL_Driver/Src/stm32f4xx_hal_tim.c **** /**
 580:./Libraries/STM32F4xx_HAL_Driver/Src/stm32f4xx_hal_tim.c ****   * @brief  Starts the TIM Output Compare signal generation.
 581:./Libraries/STM32F4xx_HAL_Driver/Src/stm32f4xx_hal_tim.c ****   * @param  htim pointer to a TIM_HandleTypeDef structure that contains
 582:./Libraries/STM32F4xx_HAL_Driver/Src/stm32f4xx_hal_tim.c ****   *                the configuration information for TIM module.  
 583:./Libraries/STM32F4xx_HAL_Driver/Src/stm32f4xx_hal_tim.c ****   * @param  Channel TIM Channel to be enabled.
 584:./Libraries/STM32F4xx_HAL_Driver/Src/stm32f4xx_hal_tim.c ****   *          This parameter can be one of the following values:
 585:./Libraries/STM32F4xx_HAL_Driver/Src/stm32f4xx_hal_tim.c ****   *            @arg TIM_CHANNEL_1: TIM Channel 1 selected
 586:./Libraries/STM32F4xx_HAL_Driver/Src/stm32f4xx_hal_tim.c ****   *            @arg TIM_CHANNEL_2: TIM Channel 2 selected
 587:./Libraries/STM32F4xx_HAL_Driver/Src/stm32f4xx_hal_tim.c ****   *            @arg TIM_CHANNEL_3: TIM Channel 3 selected
 588:./Libraries/STM32F4xx_HAL_Driver/Src/stm32f4xx_hal_tim.c ****   *            @arg TIM_CHANNEL_4: TIM Channel 4 selected   
 589:./Libraries/STM32F4xx_HAL_Driver/Src/stm32f4xx_hal_tim.c ****   * @retval HAL status
 590:./Libraries/STM32F4xx_HAL_Driver/Src/stm32f4xx_hal_tim.c ****   */
 591:./Libraries/STM32F4xx_HAL_Driver/Src/stm32f4xx_hal_tim.c **** HAL_StatusTypeDef HAL_TIM_OC_Start(TIM_HandleTypeDef *htim, uint32_t Channel)
 592:./Libraries/STM32F4xx_HAL_Driver/Src/stm32f4xx_hal_tim.c **** {
 1011              		.loc 1 592 1
 1012              		.cfi_startproc
 1013              		@ args = 0, pretend = 0, frame = 8
 1014              		@ frame_needed = 1, uses_anonymous_args = 0
 1015 0000 80B5     		push	{r7, lr}
 1016              	.LCFI79:
 1017              		.cfi_def_cfa_offset 8
 1018              		.cfi_offset 7, -8
 1019              		.cfi_offset 14, -4
 1020 0002 82B0     		sub	sp, sp, #8
 1021              	.LCFI80:
 1022              		.cfi_def_cfa_offset 16
 1023 0004 00AF     		add	r7, sp, #0
 1024              	.LCFI81:
 1025              		.cfi_def_cfa_register 7
 1026 0006 7860     		str	r0, [r7, #4]
 1027 0008 3960     		str	r1, [r7]
 593:./Libraries/STM32F4xx_HAL_Driver/Src/stm32f4xx_hal_tim.c ****   /* Check the parameters */
 594:./Libraries/STM32F4xx_HAL_Driver/Src/stm32f4xx_hal_tim.c ****   assert_param(IS_TIM_CCX_INSTANCE(htim->Instance, Channel));
 595:./Libraries/STM32F4xx_HAL_Driver/Src/stm32f4xx_hal_tim.c ****   
 596:./Libraries/STM32F4xx_HAL_Driver/Src/stm32f4xx_hal_tim.c ****   /* Enable the Output compare channel */
 597:./Libraries/STM32F4xx_HAL_Driver/Src/stm32f4xx_hal_tim.c ****   TIM_CCxChannelCmd(htim->Instance, Channel, TIM_CCx_ENABLE);
 1028              		.loc 1 597 3
ARM GAS  /tmp/ccvKwMj1.s 			page 29


 1029 000a 7B68     		ldr	r3, [r7, #4]
 1030 000c 1B68     		ldr	r3, [r3]
 1031 000e 0122     		movs	r2, #1
 1032 0010 3968     		ldr	r1, [r7]
 1033 0012 1846     		mov	r0, r3
 1034 0014 FFF7FEFF 		bl	TIM_CCxChannelCmd
 598:./Libraries/STM32F4xx_HAL_Driver/Src/stm32f4xx_hal_tim.c ****   
 599:./Libraries/STM32F4xx_HAL_Driver/Src/stm32f4xx_hal_tim.c ****   if(IS_TIM_ADVANCED_INSTANCE(htim->Instance) != RESET)  
 1035              		.loc 1 599 6
 1036 0018 7B68     		ldr	r3, [r7, #4]
 1037 001a 1B68     		ldr	r3, [r3]
 1038 001c 104A     		ldr	r2, .L45
 1039 001e 9342     		cmp	r3, r2
 1040 0020 04D0     		beq	.L40
 1041              		.loc 1 599 6 is_stmt 0 discriminator 2
 1042 0022 7B68     		ldr	r3, [r7, #4]
 1043 0024 1B68     		ldr	r3, [r3]
 1044 0026 0F4A     		ldr	r2, .L45+4
 1045 0028 9342     		cmp	r3, r2
 1046 002a 01D1     		bne	.L41
 1047              	.L40:
 1048              		.loc 1 599 6 discriminator 3
 1049 002c 0123     		movs	r3, #1
 1050 002e 00E0     		b	.L42
 1051              	.L41:
 1052              		.loc 1 599 6 discriminator 4
 1053 0030 0023     		movs	r3, #0
 1054              	.L42:
 1055              		.loc 1 599 5 is_stmt 1 discriminator 6
 1056 0032 002B     		cmp	r3, #0
 1057 0034 07D0     		beq	.L43
 600:./Libraries/STM32F4xx_HAL_Driver/Src/stm32f4xx_hal_tim.c ****   {
 601:./Libraries/STM32F4xx_HAL_Driver/Src/stm32f4xx_hal_tim.c ****     /* Enable the main output */
 602:./Libraries/STM32F4xx_HAL_Driver/Src/stm32f4xx_hal_tim.c ****     __HAL_TIM_MOE_ENABLE(htim);
 1058              		.loc 1 602 5
 1059 0036 7B68     		ldr	r3, [r7, #4]
 1060 0038 1B68     		ldr	r3, [r3]
 1061 003a 5A6C     		ldr	r2, [r3, #68]
 1062 003c 7B68     		ldr	r3, [r7, #4]
 1063 003e 1B68     		ldr	r3, [r3]
 1064 0040 42F40042 		orr	r2, r2, #32768
 1065 0044 5A64     		str	r2, [r3, #68]
 1066              	.L43:
 603:./Libraries/STM32F4xx_HAL_Driver/Src/stm32f4xx_hal_tim.c ****   }
 604:./Libraries/STM32F4xx_HAL_Driver/Src/stm32f4xx_hal_tim.c ****   
 605:./Libraries/STM32F4xx_HAL_Driver/Src/stm32f4xx_hal_tim.c ****   /* Enable the Peripheral */
 606:./Libraries/STM32F4xx_HAL_Driver/Src/stm32f4xx_hal_tim.c ****   __HAL_TIM_ENABLE(htim); 
 1067              		.loc 1 606 3
 1068 0046 7B68     		ldr	r3, [r7, #4]
 1069 0048 1B68     		ldr	r3, [r3]
 1070 004a 1A68     		ldr	r2, [r3]
 1071 004c 7B68     		ldr	r3, [r7, #4]
 1072 004e 1B68     		ldr	r3, [r3]
 1073 0050 42F00102 		orr	r2, r2, #1
 1074 0054 1A60     		str	r2, [r3]
 607:./Libraries/STM32F4xx_HAL_Driver/Src/stm32f4xx_hal_tim.c ****   
 608:./Libraries/STM32F4xx_HAL_Driver/Src/stm32f4xx_hal_tim.c ****   /* Return function status */
ARM GAS  /tmp/ccvKwMj1.s 			page 30


 609:./Libraries/STM32F4xx_HAL_Driver/Src/stm32f4xx_hal_tim.c ****   return HAL_OK;
 1075              		.loc 1 609 10
 1076 0056 0023     		movs	r3, #0
 610:./Libraries/STM32F4xx_HAL_Driver/Src/stm32f4xx_hal_tim.c **** }
 1077              		.loc 1 610 1
 1078 0058 1846     		mov	r0, r3
 1079 005a 0837     		adds	r7, r7, #8
 1080              	.LCFI82:
 1081              		.cfi_def_cfa_offset 8
 1082 005c BD46     		mov	sp, r7
 1083              	.LCFI83:
 1084              		.cfi_def_cfa_register 13
 1085              		@ sp needed
 1086 005e 80BD     		pop	{r7, pc}
 1087              	.L46:
 1088              		.align	2
 1089              	.L45:
 1090 0060 00000140 		.word	1073807360
 1091 0064 00040140 		.word	1073808384
 1092              		.cfi_endproc
 1093              	.LFE140:
 1095              		.section	.text.HAL_TIM_OC_Stop,"ax",%progbits
 1096              		.align	1
 1097              		.global	HAL_TIM_OC_Stop
 1098              		.syntax unified
 1099              		.thumb
 1100              		.thumb_func
 1101              		.fpu fpv4-sp-d16
 1103              	HAL_TIM_OC_Stop:
 1104              	.LFB141:
 611:./Libraries/STM32F4xx_HAL_Driver/Src/stm32f4xx_hal_tim.c **** 
 612:./Libraries/STM32F4xx_HAL_Driver/Src/stm32f4xx_hal_tim.c **** /**
 613:./Libraries/STM32F4xx_HAL_Driver/Src/stm32f4xx_hal_tim.c ****   * @brief  Stops the TIM Output Compare signal generation.
 614:./Libraries/STM32F4xx_HAL_Driver/Src/stm32f4xx_hal_tim.c ****   * @param  htim pointer to a TIM_HandleTypeDef structure that contains
 615:./Libraries/STM32F4xx_HAL_Driver/Src/stm32f4xx_hal_tim.c ****   *                the configuration information for TIM module.
 616:./Libraries/STM32F4xx_HAL_Driver/Src/stm32f4xx_hal_tim.c ****   * @param  Channel TIM Channel to be disabled.
 617:./Libraries/STM32F4xx_HAL_Driver/Src/stm32f4xx_hal_tim.c ****   *          This parameter can be one of the following values:
 618:./Libraries/STM32F4xx_HAL_Driver/Src/stm32f4xx_hal_tim.c ****   *            @arg TIM_CHANNEL_1: TIM Channel 1 selected
 619:./Libraries/STM32F4xx_HAL_Driver/Src/stm32f4xx_hal_tim.c ****   *            @arg TIM_CHANNEL_2: TIM Channel 2 selected
 620:./Libraries/STM32F4xx_HAL_Driver/Src/stm32f4xx_hal_tim.c ****   *            @arg TIM_CHANNEL_3: TIM Channel 3 selected
 621:./Libraries/STM32F4xx_HAL_Driver/Src/stm32f4xx_hal_tim.c ****   *            @arg TIM_CHANNEL_4: TIM Channel 4 selected
 622:./Libraries/STM32F4xx_HAL_Driver/Src/stm32f4xx_hal_tim.c ****   * @retval HAL status
 623:./Libraries/STM32F4xx_HAL_Driver/Src/stm32f4xx_hal_tim.c ****   */
 624:./Libraries/STM32F4xx_HAL_Driver/Src/stm32f4xx_hal_tim.c **** HAL_StatusTypeDef HAL_TIM_OC_Stop(TIM_HandleTypeDef *htim, uint32_t Channel)
 625:./Libraries/STM32F4xx_HAL_Driver/Src/stm32f4xx_hal_tim.c **** {
 1105              		.loc 1 625 1
 1106              		.cfi_startproc
 1107              		@ args = 0, pretend = 0, frame = 8
 1108              		@ frame_needed = 1, uses_anonymous_args = 0
 1109 0000 80B5     		push	{r7, lr}
 1110              	.LCFI84:
 1111              		.cfi_def_cfa_offset 8
 1112              		.cfi_offset 7, -8
 1113              		.cfi_offset 14, -4
 1114 0002 82B0     		sub	sp, sp, #8
 1115              	.LCFI85:
 1116              		.cfi_def_cfa_offset 16
ARM GAS  /tmp/ccvKwMj1.s 			page 31


 1117 0004 00AF     		add	r7, sp, #0
 1118              	.LCFI86:
 1119              		.cfi_def_cfa_register 7
 1120 0006 7860     		str	r0, [r7, #4]
 1121 0008 3960     		str	r1, [r7]
 626:./Libraries/STM32F4xx_HAL_Driver/Src/stm32f4xx_hal_tim.c ****   /* Check the parameters */
 627:./Libraries/STM32F4xx_HAL_Driver/Src/stm32f4xx_hal_tim.c ****   assert_param(IS_TIM_CCX_INSTANCE(htim->Instance, Channel));
 628:./Libraries/STM32F4xx_HAL_Driver/Src/stm32f4xx_hal_tim.c ****   
 629:./Libraries/STM32F4xx_HAL_Driver/Src/stm32f4xx_hal_tim.c ****   /* Disable the Output compare channel */
 630:./Libraries/STM32F4xx_HAL_Driver/Src/stm32f4xx_hal_tim.c ****   TIM_CCxChannelCmd(htim->Instance, Channel, TIM_CCx_DISABLE);
 1122              		.loc 1 630 3
 1123 000a 7B68     		ldr	r3, [r7, #4]
 1124 000c 1B68     		ldr	r3, [r3]
 1125 000e 0022     		movs	r2, #0
 1126 0010 3968     		ldr	r1, [r7]
 1127 0012 1846     		mov	r0, r3
 1128 0014 FFF7FEFF 		bl	TIM_CCxChannelCmd
 631:./Libraries/STM32F4xx_HAL_Driver/Src/stm32f4xx_hal_tim.c ****   
 632:./Libraries/STM32F4xx_HAL_Driver/Src/stm32f4xx_hal_tim.c ****   if(IS_TIM_ADVANCED_INSTANCE(htim->Instance) != RESET)  
 1129              		.loc 1 632 6
 1130 0018 7B68     		ldr	r3, [r7, #4]
 1131 001a 1B68     		ldr	r3, [r3]
 1132 001c 204A     		ldr	r2, .L54
 1133 001e 9342     		cmp	r3, r2
 1134 0020 04D0     		beq	.L48
 1135              		.loc 1 632 6 is_stmt 0 discriminator 2
 1136 0022 7B68     		ldr	r3, [r7, #4]
 1137 0024 1B68     		ldr	r3, [r3]
 1138 0026 1F4A     		ldr	r2, .L54+4
 1139 0028 9342     		cmp	r3, r2
 1140 002a 01D1     		bne	.L49
 1141              	.L48:
 1142              		.loc 1 632 6 discriminator 3
 1143 002c 0123     		movs	r3, #1
 1144 002e 00E0     		b	.L50
 1145              	.L49:
 1146              		.loc 1 632 6 discriminator 4
 1147 0030 0023     		movs	r3, #0
 1148              	.L50:
 1149              		.loc 1 632 5 is_stmt 1 discriminator 6
 1150 0032 002B     		cmp	r3, #0
 1151 0034 17D0     		beq	.L51
 633:./Libraries/STM32F4xx_HAL_Driver/Src/stm32f4xx_hal_tim.c ****   {
 634:./Libraries/STM32F4xx_HAL_Driver/Src/stm32f4xx_hal_tim.c ****     /* Disable the Main Output */
 635:./Libraries/STM32F4xx_HAL_Driver/Src/stm32f4xx_hal_tim.c ****     __HAL_TIM_MOE_DISABLE(htim);
 1152              		.loc 1 635 5
 1153 0036 7B68     		ldr	r3, [r7, #4]
 1154 0038 1B68     		ldr	r3, [r3]
 1155 003a 1A6A     		ldr	r2, [r3, #32]
 1156 003c 41F21113 		movw	r3, #4369
 1157 0040 1340     		ands	r3, r3, r2
 1158 0042 002B     		cmp	r3, #0
 1159 0044 0FD1     		bne	.L51
 1160              		.loc 1 635 5 is_stmt 0 discriminator 1
 1161 0046 7B68     		ldr	r3, [r7, #4]
 1162 0048 1B68     		ldr	r3, [r3]
 1163 004a 1A6A     		ldr	r2, [r3, #32]
ARM GAS  /tmp/ccvKwMj1.s 			page 32


 1164 004c 40F24443 		movw	r3, #1092
 1165 0050 1340     		ands	r3, r3, r2
 1166 0052 002B     		cmp	r3, #0
 1167 0054 07D1     		bne	.L51
 1168              		.loc 1 635 5 discriminator 2
 1169 0056 7B68     		ldr	r3, [r7, #4]
 1170 0058 1B68     		ldr	r3, [r3]
 1171 005a 5A6C     		ldr	r2, [r3, #68]
 1172 005c 7B68     		ldr	r3, [r7, #4]
 1173 005e 1B68     		ldr	r3, [r3]
 1174 0060 22F40042 		bic	r2, r2, #32768
 1175 0064 5A64     		str	r2, [r3, #68]
 1176              	.L51:
 636:./Libraries/STM32F4xx_HAL_Driver/Src/stm32f4xx_hal_tim.c ****   }  
 637:./Libraries/STM32F4xx_HAL_Driver/Src/stm32f4xx_hal_tim.c ****   
 638:./Libraries/STM32F4xx_HAL_Driver/Src/stm32f4xx_hal_tim.c ****   /* Disable the Peripheral */
 639:./Libraries/STM32F4xx_HAL_Driver/Src/stm32f4xx_hal_tim.c ****   __HAL_TIM_DISABLE(htim);  
 1177              		.loc 1 639 3 is_stmt 1
 1178 0066 7B68     		ldr	r3, [r7, #4]
 1179 0068 1B68     		ldr	r3, [r3]
 1180 006a 1A6A     		ldr	r2, [r3, #32]
 1181 006c 41F21113 		movw	r3, #4369
 1182 0070 1340     		ands	r3, r3, r2
 1183 0072 002B     		cmp	r3, #0
 1184 0074 0FD1     		bne	.L52
 1185              		.loc 1 639 3 is_stmt 0 discriminator 1
 1186 0076 7B68     		ldr	r3, [r7, #4]
 1187 0078 1B68     		ldr	r3, [r3]
 1188 007a 1A6A     		ldr	r2, [r3, #32]
 1189 007c 40F24443 		movw	r3, #1092
 1190 0080 1340     		ands	r3, r3, r2
 1191 0082 002B     		cmp	r3, #0
 1192 0084 07D1     		bne	.L52
 1193              		.loc 1 639 3 discriminator 2
 1194 0086 7B68     		ldr	r3, [r7, #4]
 1195 0088 1B68     		ldr	r3, [r3]
 1196 008a 1A68     		ldr	r2, [r3]
 1197 008c 7B68     		ldr	r3, [r7, #4]
 1198 008e 1B68     		ldr	r3, [r3]
 1199 0090 22F00102 		bic	r2, r2, #1
 1200 0094 1A60     		str	r2, [r3]
 1201              	.L52:
 640:./Libraries/STM32F4xx_HAL_Driver/Src/stm32f4xx_hal_tim.c ****   
 641:./Libraries/STM32F4xx_HAL_Driver/Src/stm32f4xx_hal_tim.c ****   /* Return function status */
 642:./Libraries/STM32F4xx_HAL_Driver/Src/stm32f4xx_hal_tim.c ****   return HAL_OK;
 1202              		.loc 1 642 10 is_stmt 1
 1203 0096 0023     		movs	r3, #0
 643:./Libraries/STM32F4xx_HAL_Driver/Src/stm32f4xx_hal_tim.c **** }  
 1204              		.loc 1 643 1
 1205 0098 1846     		mov	r0, r3
 1206 009a 0837     		adds	r7, r7, #8
 1207              	.LCFI87:
 1208              		.cfi_def_cfa_offset 8
 1209 009c BD46     		mov	sp, r7
 1210              	.LCFI88:
 1211              		.cfi_def_cfa_register 13
 1212              		@ sp needed
ARM GAS  /tmp/ccvKwMj1.s 			page 33


 1213 009e 80BD     		pop	{r7, pc}
 1214              	.L55:
 1215              		.align	2
 1216              	.L54:
 1217 00a0 00000140 		.word	1073807360
 1218 00a4 00040140 		.word	1073808384
 1219              		.cfi_endproc
 1220              	.LFE141:
 1222              		.section	.text.HAL_TIM_OC_Start_IT,"ax",%progbits
 1223              		.align	1
 1224              		.global	HAL_TIM_OC_Start_IT
 1225              		.syntax unified
 1226              		.thumb
 1227              		.thumb_func
 1228              		.fpu fpv4-sp-d16
 1230              	HAL_TIM_OC_Start_IT:
 1231              	.LFB142:
 644:./Libraries/STM32F4xx_HAL_Driver/Src/stm32f4xx_hal_tim.c **** 
 645:./Libraries/STM32F4xx_HAL_Driver/Src/stm32f4xx_hal_tim.c **** /**
 646:./Libraries/STM32F4xx_HAL_Driver/Src/stm32f4xx_hal_tim.c ****   * @brief  Starts the TIM Output Compare signal generation in interrupt mode.
 647:./Libraries/STM32F4xx_HAL_Driver/Src/stm32f4xx_hal_tim.c ****   * @param  htim pointer to a TIM_HandleTypeDef structure that contains
 648:./Libraries/STM32F4xx_HAL_Driver/Src/stm32f4xx_hal_tim.c ****   *                the configuration information for TIM module.
 649:./Libraries/STM32F4xx_HAL_Driver/Src/stm32f4xx_hal_tim.c ****   * @param  Channel TIM Channel to be enabled.
 650:./Libraries/STM32F4xx_HAL_Driver/Src/stm32f4xx_hal_tim.c ****   *          This parameter can be one of the following values:
 651:./Libraries/STM32F4xx_HAL_Driver/Src/stm32f4xx_hal_tim.c ****   *            @arg TIM_CHANNEL_1: TIM Channel 1 selected
 652:./Libraries/STM32F4xx_HAL_Driver/Src/stm32f4xx_hal_tim.c ****   *            @arg TIM_CHANNEL_2: TIM Channel 2 selected
 653:./Libraries/STM32F4xx_HAL_Driver/Src/stm32f4xx_hal_tim.c ****   *            @arg TIM_CHANNEL_3: TIM Channel 3 selected
 654:./Libraries/STM32F4xx_HAL_Driver/Src/stm32f4xx_hal_tim.c ****   *            @arg TIM_CHANNEL_4: TIM Channel 4 selected
 655:./Libraries/STM32F4xx_HAL_Driver/Src/stm32f4xx_hal_tim.c ****   * @retval HAL status
 656:./Libraries/STM32F4xx_HAL_Driver/Src/stm32f4xx_hal_tim.c ****   */
 657:./Libraries/STM32F4xx_HAL_Driver/Src/stm32f4xx_hal_tim.c **** HAL_StatusTypeDef HAL_TIM_OC_Start_IT(TIM_HandleTypeDef *htim, uint32_t Channel)
 658:./Libraries/STM32F4xx_HAL_Driver/Src/stm32f4xx_hal_tim.c **** {
 1232              		.loc 1 658 1
 1233              		.cfi_startproc
 1234              		@ args = 0, pretend = 0, frame = 8
 1235              		@ frame_needed = 1, uses_anonymous_args = 0
 1236 0000 80B5     		push	{r7, lr}
 1237              	.LCFI89:
 1238              		.cfi_def_cfa_offset 8
 1239              		.cfi_offset 7, -8
 1240              		.cfi_offset 14, -4
 1241 0002 82B0     		sub	sp, sp, #8
 1242              	.LCFI90:
 1243              		.cfi_def_cfa_offset 16
 1244 0004 00AF     		add	r7, sp, #0
 1245              	.LCFI91:
 1246              		.cfi_def_cfa_register 7
 1247 0006 7860     		str	r0, [r7, #4]
 1248 0008 3960     		str	r1, [r7]
 1249 000a 3B68     		ldr	r3, [r7]
 1250 000c 0C2B     		cmp	r3, #12
 1251 000e 41D8     		bhi	.L69
 1252 0010 01A2     		adr	r2, .L59
 1253 0012 52F823F0 		ldr	pc, [r2, r3, lsl #2]
 1254 0016 00BF     		.p2align 2
 1255              	.L59:
 1256 0018 4D000000 		.word	.L62+1
ARM GAS  /tmp/ccvKwMj1.s 			page 34


 1257 001c 95000000 		.word	.L69+1
 1258 0020 95000000 		.word	.L69+1
 1259 0024 95000000 		.word	.L69+1
 1260 0028 5F000000 		.word	.L61+1
 1261 002c 95000000 		.word	.L69+1
 1262 0030 95000000 		.word	.L69+1
 1263 0034 95000000 		.word	.L69+1
 1264 0038 71000000 		.word	.L60+1
 1265 003c 95000000 		.word	.L69+1
 1266 0040 95000000 		.word	.L69+1
 1267 0044 95000000 		.word	.L69+1
 1268 0048 83000000 		.word	.L58+1
 1269              		.p2align 1
 1270              	.L62:
 659:./Libraries/STM32F4xx_HAL_Driver/Src/stm32f4xx_hal_tim.c ****   /* Check the parameters */
 660:./Libraries/STM32F4xx_HAL_Driver/Src/stm32f4xx_hal_tim.c ****   assert_param(IS_TIM_CCX_INSTANCE(htim->Instance, Channel));
 661:./Libraries/STM32F4xx_HAL_Driver/Src/stm32f4xx_hal_tim.c ****   
 662:./Libraries/STM32F4xx_HAL_Driver/Src/stm32f4xx_hal_tim.c ****   switch (Channel)
 663:./Libraries/STM32F4xx_HAL_Driver/Src/stm32f4xx_hal_tim.c ****   {
 664:./Libraries/STM32F4xx_HAL_Driver/Src/stm32f4xx_hal_tim.c ****     case TIM_CHANNEL_1:
 665:./Libraries/STM32F4xx_HAL_Driver/Src/stm32f4xx_hal_tim.c ****     {       
 666:./Libraries/STM32F4xx_HAL_Driver/Src/stm32f4xx_hal_tim.c ****       /* Enable the TIM Capture/Compare 1 interrupt */
 667:./Libraries/STM32F4xx_HAL_Driver/Src/stm32f4xx_hal_tim.c ****       __HAL_TIM_ENABLE_IT(htim, TIM_IT_CC1);
 1271              		.loc 1 667 7
 1272 004c 7B68     		ldr	r3, [r7, #4]
 1273 004e 1B68     		ldr	r3, [r3]
 1274 0050 DA68     		ldr	r2, [r3, #12]
 1275 0052 7B68     		ldr	r3, [r7, #4]
 1276 0054 1B68     		ldr	r3, [r3]
 1277 0056 42F00202 		orr	r2, r2, #2
 1278 005a DA60     		str	r2, [r3, #12]
 668:./Libraries/STM32F4xx_HAL_Driver/Src/stm32f4xx_hal_tim.c ****     }
 669:./Libraries/STM32F4xx_HAL_Driver/Src/stm32f4xx_hal_tim.c ****     break;
 1279              		.loc 1 669 5
 1280 005c 1BE0     		b	.L63
 1281              	.L61:
 670:./Libraries/STM32F4xx_HAL_Driver/Src/stm32f4xx_hal_tim.c ****     
 671:./Libraries/STM32F4xx_HAL_Driver/Src/stm32f4xx_hal_tim.c ****     case TIM_CHANNEL_2:
 672:./Libraries/STM32F4xx_HAL_Driver/Src/stm32f4xx_hal_tim.c ****     {
 673:./Libraries/STM32F4xx_HAL_Driver/Src/stm32f4xx_hal_tim.c ****       /* Enable the TIM Capture/Compare 2 interrupt */
 674:./Libraries/STM32F4xx_HAL_Driver/Src/stm32f4xx_hal_tim.c ****       __HAL_TIM_ENABLE_IT(htim, TIM_IT_CC2);
 1282              		.loc 1 674 7
 1283 005e 7B68     		ldr	r3, [r7, #4]
 1284 0060 1B68     		ldr	r3, [r3]
 1285 0062 DA68     		ldr	r2, [r3, #12]
 1286 0064 7B68     		ldr	r3, [r7, #4]
 1287 0066 1B68     		ldr	r3, [r3]
 1288 0068 42F00402 		orr	r2, r2, #4
 1289 006c DA60     		str	r2, [r3, #12]
 675:./Libraries/STM32F4xx_HAL_Driver/Src/stm32f4xx_hal_tim.c ****     }
 676:./Libraries/STM32F4xx_HAL_Driver/Src/stm32f4xx_hal_tim.c ****     break;
 1290              		.loc 1 676 5
 1291 006e 12E0     		b	.L63
 1292              	.L60:
 677:./Libraries/STM32F4xx_HAL_Driver/Src/stm32f4xx_hal_tim.c ****     
 678:./Libraries/STM32F4xx_HAL_Driver/Src/stm32f4xx_hal_tim.c ****     case TIM_CHANNEL_3:
 679:./Libraries/STM32F4xx_HAL_Driver/Src/stm32f4xx_hal_tim.c ****     {
ARM GAS  /tmp/ccvKwMj1.s 			page 35


 680:./Libraries/STM32F4xx_HAL_Driver/Src/stm32f4xx_hal_tim.c ****       /* Enable the TIM Capture/Compare 3 interrupt */
 681:./Libraries/STM32F4xx_HAL_Driver/Src/stm32f4xx_hal_tim.c ****       __HAL_TIM_ENABLE_IT(htim, TIM_IT_CC3);
 1293              		.loc 1 681 7
 1294 0070 7B68     		ldr	r3, [r7, #4]
 1295 0072 1B68     		ldr	r3, [r3]
 1296 0074 DA68     		ldr	r2, [r3, #12]
 1297 0076 7B68     		ldr	r3, [r7, #4]
 1298 0078 1B68     		ldr	r3, [r3]
 1299 007a 42F00802 		orr	r2, r2, #8
 1300 007e DA60     		str	r2, [r3, #12]
 682:./Libraries/STM32F4xx_HAL_Driver/Src/stm32f4xx_hal_tim.c ****     }
 683:./Libraries/STM32F4xx_HAL_Driver/Src/stm32f4xx_hal_tim.c ****     break;
 1301              		.loc 1 683 5
 1302 0080 09E0     		b	.L63
 1303              	.L58:
 684:./Libraries/STM32F4xx_HAL_Driver/Src/stm32f4xx_hal_tim.c ****     
 685:./Libraries/STM32F4xx_HAL_Driver/Src/stm32f4xx_hal_tim.c ****     case TIM_CHANNEL_4:
 686:./Libraries/STM32F4xx_HAL_Driver/Src/stm32f4xx_hal_tim.c ****     {
 687:./Libraries/STM32F4xx_HAL_Driver/Src/stm32f4xx_hal_tim.c ****       /* Enable the TIM Capture/Compare 4 interrupt */
 688:./Libraries/STM32F4xx_HAL_Driver/Src/stm32f4xx_hal_tim.c ****       __HAL_TIM_ENABLE_IT(htim, TIM_IT_CC4);
 1304              		.loc 1 688 7
 1305 0082 7B68     		ldr	r3, [r7, #4]
 1306 0084 1B68     		ldr	r3, [r3]
 1307 0086 DA68     		ldr	r2, [r3, #12]
 1308 0088 7B68     		ldr	r3, [r7, #4]
 1309 008a 1B68     		ldr	r3, [r3]
 1310 008c 42F01002 		orr	r2, r2, #16
 1311 0090 DA60     		str	r2, [r3, #12]
 689:./Libraries/STM32F4xx_HAL_Driver/Src/stm32f4xx_hal_tim.c ****     }
 690:./Libraries/STM32F4xx_HAL_Driver/Src/stm32f4xx_hal_tim.c ****     break;
 1312              		.loc 1 690 5
 1313 0092 00E0     		b	.L63
 1314              	.L69:
 691:./Libraries/STM32F4xx_HAL_Driver/Src/stm32f4xx_hal_tim.c ****     
 692:./Libraries/STM32F4xx_HAL_Driver/Src/stm32f4xx_hal_tim.c ****     default:
 693:./Libraries/STM32F4xx_HAL_Driver/Src/stm32f4xx_hal_tim.c ****     break;
 1315              		.loc 1 693 5
 1316 0094 00BF     		nop
 1317              	.L63:
 694:./Libraries/STM32F4xx_HAL_Driver/Src/stm32f4xx_hal_tim.c ****   } 
 695:./Libraries/STM32F4xx_HAL_Driver/Src/stm32f4xx_hal_tim.c **** 
 696:./Libraries/STM32F4xx_HAL_Driver/Src/stm32f4xx_hal_tim.c ****   /* Enable the Output compare channel */
 697:./Libraries/STM32F4xx_HAL_Driver/Src/stm32f4xx_hal_tim.c ****   TIM_CCxChannelCmd(htim->Instance, Channel, TIM_CCx_ENABLE);
 1318              		.loc 1 697 3
 1319 0096 7B68     		ldr	r3, [r7, #4]
 1320 0098 1B68     		ldr	r3, [r3]
 1321 009a 0122     		movs	r2, #1
 1322 009c 3968     		ldr	r1, [r7]
 1323 009e 1846     		mov	r0, r3
 1324 00a0 FFF7FEFF 		bl	TIM_CCxChannelCmd
 698:./Libraries/STM32F4xx_HAL_Driver/Src/stm32f4xx_hal_tim.c ****   
 699:./Libraries/STM32F4xx_HAL_Driver/Src/stm32f4xx_hal_tim.c ****   if(IS_TIM_ADVANCED_INSTANCE(htim->Instance) != RESET)  
 1325              		.loc 1 699 6
 1326 00a4 7B68     		ldr	r3, [r7, #4]
 1327 00a6 1B68     		ldr	r3, [r3]
 1328 00a8 104A     		ldr	r2, .L70
 1329 00aa 9342     		cmp	r3, r2
ARM GAS  /tmp/ccvKwMj1.s 			page 36


 1330 00ac 04D0     		beq	.L64
 1331              		.loc 1 699 6 is_stmt 0 discriminator 2
 1332 00ae 7B68     		ldr	r3, [r7, #4]
 1333 00b0 1B68     		ldr	r3, [r3]
 1334 00b2 0F4A     		ldr	r2, .L70+4
 1335 00b4 9342     		cmp	r3, r2
 1336 00b6 01D1     		bne	.L65
 1337              	.L64:
 1338              		.loc 1 699 6 discriminator 3
 1339 00b8 0123     		movs	r3, #1
 1340 00ba 00E0     		b	.L66
 1341              	.L65:
 1342              		.loc 1 699 6 discriminator 4
 1343 00bc 0023     		movs	r3, #0
 1344              	.L66:
 1345              		.loc 1 699 5 is_stmt 1 discriminator 6
 1346 00be 002B     		cmp	r3, #0
 1347 00c0 07D0     		beq	.L67
 700:./Libraries/STM32F4xx_HAL_Driver/Src/stm32f4xx_hal_tim.c ****   {
 701:./Libraries/STM32F4xx_HAL_Driver/Src/stm32f4xx_hal_tim.c ****     /* Enable the main output */
 702:./Libraries/STM32F4xx_HAL_Driver/Src/stm32f4xx_hal_tim.c ****     __HAL_TIM_MOE_ENABLE(htim);
 1348              		.loc 1 702 5
 1349 00c2 7B68     		ldr	r3, [r7, #4]
 1350 00c4 1B68     		ldr	r3, [r3]
 1351 00c6 5A6C     		ldr	r2, [r3, #68]
 1352 00c8 7B68     		ldr	r3, [r7, #4]
 1353 00ca 1B68     		ldr	r3, [r3]
 1354 00cc 42F40042 		orr	r2, r2, #32768
 1355 00d0 5A64     		str	r2, [r3, #68]
 1356              	.L67:
 703:./Libraries/STM32F4xx_HAL_Driver/Src/stm32f4xx_hal_tim.c ****   }
 704:./Libraries/STM32F4xx_HAL_Driver/Src/stm32f4xx_hal_tim.c **** 
 705:./Libraries/STM32F4xx_HAL_Driver/Src/stm32f4xx_hal_tim.c ****   /* Enable the Peripheral */
 706:./Libraries/STM32F4xx_HAL_Driver/Src/stm32f4xx_hal_tim.c ****   __HAL_TIM_ENABLE(htim);
 1357              		.loc 1 706 3
 1358 00d2 7B68     		ldr	r3, [r7, #4]
 1359 00d4 1B68     		ldr	r3, [r3]
 1360 00d6 1A68     		ldr	r2, [r3]
 1361 00d8 7B68     		ldr	r3, [r7, #4]
 1362 00da 1B68     		ldr	r3, [r3]
 1363 00dc 42F00102 		orr	r2, r2, #1
 1364 00e0 1A60     		str	r2, [r3]
 707:./Libraries/STM32F4xx_HAL_Driver/Src/stm32f4xx_hal_tim.c ****   
 708:./Libraries/STM32F4xx_HAL_Driver/Src/stm32f4xx_hal_tim.c ****   /* Return function status */
 709:./Libraries/STM32F4xx_HAL_Driver/Src/stm32f4xx_hal_tim.c ****   return HAL_OK;
 1365              		.loc 1 709 10
 1366 00e2 0023     		movs	r3, #0
 710:./Libraries/STM32F4xx_HAL_Driver/Src/stm32f4xx_hal_tim.c **** }
 1367              		.loc 1 710 1
 1368 00e4 1846     		mov	r0, r3
 1369 00e6 0837     		adds	r7, r7, #8
 1370              	.LCFI92:
 1371              		.cfi_def_cfa_offset 8
 1372 00e8 BD46     		mov	sp, r7
 1373              	.LCFI93:
 1374              		.cfi_def_cfa_register 13
 1375              		@ sp needed
ARM GAS  /tmp/ccvKwMj1.s 			page 37


 1376 00ea 80BD     		pop	{r7, pc}
 1377              	.L71:
 1378              		.align	2
 1379              	.L70:
 1380 00ec 00000140 		.word	1073807360
 1381 00f0 00040140 		.word	1073808384
 1382              		.cfi_endproc
 1383              	.LFE142:
 1385              		.section	.text.HAL_TIM_OC_Stop_IT,"ax",%progbits
 1386              		.align	1
 1387              		.global	HAL_TIM_OC_Stop_IT
 1388              		.syntax unified
 1389              		.thumb
 1390              		.thumb_func
 1391              		.fpu fpv4-sp-d16
 1393              	HAL_TIM_OC_Stop_IT:
 1394              	.LFB143:
 711:./Libraries/STM32F4xx_HAL_Driver/Src/stm32f4xx_hal_tim.c **** 
 712:./Libraries/STM32F4xx_HAL_Driver/Src/stm32f4xx_hal_tim.c **** /**
 713:./Libraries/STM32F4xx_HAL_Driver/Src/stm32f4xx_hal_tim.c ****   * @brief  Stops the TIM Output Compare signal generation in interrupt mode.
 714:./Libraries/STM32F4xx_HAL_Driver/Src/stm32f4xx_hal_tim.c ****   * @param  htim pointer to a TIM_HandleTypeDef structure that contains
 715:./Libraries/STM32F4xx_HAL_Driver/Src/stm32f4xx_hal_tim.c ****   *                the configuration information for TIM module.
 716:./Libraries/STM32F4xx_HAL_Driver/Src/stm32f4xx_hal_tim.c ****   * @param  Channel TIM Channel to be disabled.
 717:./Libraries/STM32F4xx_HAL_Driver/Src/stm32f4xx_hal_tim.c ****   *          This parameter can be one of the following values:
 718:./Libraries/STM32F4xx_HAL_Driver/Src/stm32f4xx_hal_tim.c ****   *            @arg TIM_CHANNEL_1: TIM Channel 1 selected
 719:./Libraries/STM32F4xx_HAL_Driver/Src/stm32f4xx_hal_tim.c ****   *            @arg TIM_CHANNEL_2: TIM Channel 2 selected
 720:./Libraries/STM32F4xx_HAL_Driver/Src/stm32f4xx_hal_tim.c ****   *            @arg TIM_CHANNEL_3: TIM Channel 3 selected
 721:./Libraries/STM32F4xx_HAL_Driver/Src/stm32f4xx_hal_tim.c ****   *            @arg TIM_CHANNEL_4: TIM Channel 4 selected
 722:./Libraries/STM32F4xx_HAL_Driver/Src/stm32f4xx_hal_tim.c ****   * @retval HAL status
 723:./Libraries/STM32F4xx_HAL_Driver/Src/stm32f4xx_hal_tim.c ****   */
 724:./Libraries/STM32F4xx_HAL_Driver/Src/stm32f4xx_hal_tim.c **** HAL_StatusTypeDef HAL_TIM_OC_Stop_IT(TIM_HandleTypeDef *htim, uint32_t Channel)
 725:./Libraries/STM32F4xx_HAL_Driver/Src/stm32f4xx_hal_tim.c **** {
 1395              		.loc 1 725 1
 1396              		.cfi_startproc
 1397              		@ args = 0, pretend = 0, frame = 8
 1398              		@ frame_needed = 1, uses_anonymous_args = 0
 1399 0000 80B5     		push	{r7, lr}
 1400              	.LCFI94:
 1401              		.cfi_def_cfa_offset 8
 1402              		.cfi_offset 7, -8
 1403              		.cfi_offset 14, -4
 1404 0002 82B0     		sub	sp, sp, #8
 1405              	.LCFI95:
 1406              		.cfi_def_cfa_offset 16
 1407 0004 00AF     		add	r7, sp, #0
 1408              	.LCFI96:
 1409              		.cfi_def_cfa_register 7
 1410 0006 7860     		str	r0, [r7, #4]
 1411 0008 3960     		str	r1, [r7]
 1412 000a 3B68     		ldr	r3, [r7]
 1413 000c 0C2B     		cmp	r3, #12
 1414 000e 41D8     		bhi	.L86
 1415 0010 01A2     		adr	r2, .L75
 1416 0012 52F823F0 		ldr	pc, [r2, r3, lsl #2]
 1417 0016 00BF     		.p2align 2
 1418              	.L75:
 1419 0018 4D000000 		.word	.L78+1
ARM GAS  /tmp/ccvKwMj1.s 			page 38


 1420 001c 95000000 		.word	.L86+1
 1421 0020 95000000 		.word	.L86+1
 1422 0024 95000000 		.word	.L86+1
 1423 0028 5F000000 		.word	.L77+1
 1424 002c 95000000 		.word	.L86+1
 1425 0030 95000000 		.word	.L86+1
 1426 0034 95000000 		.word	.L86+1
 1427 0038 71000000 		.word	.L76+1
 1428 003c 95000000 		.word	.L86+1
 1429 0040 95000000 		.word	.L86+1
 1430 0044 95000000 		.word	.L86+1
 1431 0048 83000000 		.word	.L74+1
 1432              		.p2align 1
 1433              	.L78:
 726:./Libraries/STM32F4xx_HAL_Driver/Src/stm32f4xx_hal_tim.c ****   /* Check the parameters */
 727:./Libraries/STM32F4xx_HAL_Driver/Src/stm32f4xx_hal_tim.c ****   assert_param(IS_TIM_CCX_INSTANCE(htim->Instance, Channel));
 728:./Libraries/STM32F4xx_HAL_Driver/Src/stm32f4xx_hal_tim.c ****   
 729:./Libraries/STM32F4xx_HAL_Driver/Src/stm32f4xx_hal_tim.c ****   switch (Channel)
 730:./Libraries/STM32F4xx_HAL_Driver/Src/stm32f4xx_hal_tim.c ****   {
 731:./Libraries/STM32F4xx_HAL_Driver/Src/stm32f4xx_hal_tim.c ****     case TIM_CHANNEL_1:
 732:./Libraries/STM32F4xx_HAL_Driver/Src/stm32f4xx_hal_tim.c ****     {       
 733:./Libraries/STM32F4xx_HAL_Driver/Src/stm32f4xx_hal_tim.c ****       /* Disable the TIM Capture/Compare 1 interrupt */
 734:./Libraries/STM32F4xx_HAL_Driver/Src/stm32f4xx_hal_tim.c ****       __HAL_TIM_DISABLE_IT(htim, TIM_IT_CC1);
 1434              		.loc 1 734 7
 1435 004c 7B68     		ldr	r3, [r7, #4]
 1436 004e 1B68     		ldr	r3, [r3]
 1437 0050 DA68     		ldr	r2, [r3, #12]
 1438 0052 7B68     		ldr	r3, [r7, #4]
 1439 0054 1B68     		ldr	r3, [r3]
 1440 0056 22F00202 		bic	r2, r2, #2
 1441 005a DA60     		str	r2, [r3, #12]
 735:./Libraries/STM32F4xx_HAL_Driver/Src/stm32f4xx_hal_tim.c ****     }
 736:./Libraries/STM32F4xx_HAL_Driver/Src/stm32f4xx_hal_tim.c ****     break;
 1442              		.loc 1 736 5
 1443 005c 1BE0     		b	.L79
 1444              	.L77:
 737:./Libraries/STM32F4xx_HAL_Driver/Src/stm32f4xx_hal_tim.c ****     
 738:./Libraries/STM32F4xx_HAL_Driver/Src/stm32f4xx_hal_tim.c ****     case TIM_CHANNEL_2:
 739:./Libraries/STM32F4xx_HAL_Driver/Src/stm32f4xx_hal_tim.c ****     {
 740:./Libraries/STM32F4xx_HAL_Driver/Src/stm32f4xx_hal_tim.c ****       /* Disable the TIM Capture/Compare 2 interrupt */
 741:./Libraries/STM32F4xx_HAL_Driver/Src/stm32f4xx_hal_tim.c ****       __HAL_TIM_DISABLE_IT(htim, TIM_IT_CC2);
 1445              		.loc 1 741 7
 1446 005e 7B68     		ldr	r3, [r7, #4]
 1447 0060 1B68     		ldr	r3, [r3]
 1448 0062 DA68     		ldr	r2, [r3, #12]
 1449 0064 7B68     		ldr	r3, [r7, #4]
 1450 0066 1B68     		ldr	r3, [r3]
 1451 0068 22F00402 		bic	r2, r2, #4
 1452 006c DA60     		str	r2, [r3, #12]
 742:./Libraries/STM32F4xx_HAL_Driver/Src/stm32f4xx_hal_tim.c ****     }
 743:./Libraries/STM32F4xx_HAL_Driver/Src/stm32f4xx_hal_tim.c ****     break;
 1453              		.loc 1 743 5
 1454 006e 12E0     		b	.L79
 1455              	.L76:
 744:./Libraries/STM32F4xx_HAL_Driver/Src/stm32f4xx_hal_tim.c ****     
 745:./Libraries/STM32F4xx_HAL_Driver/Src/stm32f4xx_hal_tim.c ****     case TIM_CHANNEL_3:
 746:./Libraries/STM32F4xx_HAL_Driver/Src/stm32f4xx_hal_tim.c ****     {
ARM GAS  /tmp/ccvKwMj1.s 			page 39


 747:./Libraries/STM32F4xx_HAL_Driver/Src/stm32f4xx_hal_tim.c ****       /* Disable the TIM Capture/Compare 3 interrupt */
 748:./Libraries/STM32F4xx_HAL_Driver/Src/stm32f4xx_hal_tim.c ****       __HAL_TIM_DISABLE_IT(htim, TIM_IT_CC3);
 1456              		.loc 1 748 7
 1457 0070 7B68     		ldr	r3, [r7, #4]
 1458 0072 1B68     		ldr	r3, [r3]
 1459 0074 DA68     		ldr	r2, [r3, #12]
 1460 0076 7B68     		ldr	r3, [r7, #4]
 1461 0078 1B68     		ldr	r3, [r3]
 1462 007a 22F00802 		bic	r2, r2, #8
 1463 007e DA60     		str	r2, [r3, #12]
 749:./Libraries/STM32F4xx_HAL_Driver/Src/stm32f4xx_hal_tim.c ****     }
 750:./Libraries/STM32F4xx_HAL_Driver/Src/stm32f4xx_hal_tim.c ****     break;
 1464              		.loc 1 750 5
 1465 0080 09E0     		b	.L79
 1466              	.L74:
 751:./Libraries/STM32F4xx_HAL_Driver/Src/stm32f4xx_hal_tim.c ****     
 752:./Libraries/STM32F4xx_HAL_Driver/Src/stm32f4xx_hal_tim.c ****     case TIM_CHANNEL_4:
 753:./Libraries/STM32F4xx_HAL_Driver/Src/stm32f4xx_hal_tim.c ****     {
 754:./Libraries/STM32F4xx_HAL_Driver/Src/stm32f4xx_hal_tim.c ****       /* Disable the TIM Capture/Compare 4 interrupt */
 755:./Libraries/STM32F4xx_HAL_Driver/Src/stm32f4xx_hal_tim.c ****       __HAL_TIM_DISABLE_IT(htim, TIM_IT_CC4);
 1467              		.loc 1 755 7
 1468 0082 7B68     		ldr	r3, [r7, #4]
 1469 0084 1B68     		ldr	r3, [r3]
 1470 0086 DA68     		ldr	r2, [r3, #12]
 1471 0088 7B68     		ldr	r3, [r7, #4]
 1472 008a 1B68     		ldr	r3, [r3]
 1473 008c 22F01002 		bic	r2, r2, #16
 1474 0090 DA60     		str	r2, [r3, #12]
 756:./Libraries/STM32F4xx_HAL_Driver/Src/stm32f4xx_hal_tim.c ****     }
 757:./Libraries/STM32F4xx_HAL_Driver/Src/stm32f4xx_hal_tim.c ****     break;
 1475              		.loc 1 757 5
 1476 0092 00E0     		b	.L79
 1477              	.L86:
 758:./Libraries/STM32F4xx_HAL_Driver/Src/stm32f4xx_hal_tim.c ****     
 759:./Libraries/STM32F4xx_HAL_Driver/Src/stm32f4xx_hal_tim.c ****     default:
 760:./Libraries/STM32F4xx_HAL_Driver/Src/stm32f4xx_hal_tim.c ****     break; 
 1478              		.loc 1 760 5
 1479 0094 00BF     		nop
 1480              	.L79:
 761:./Libraries/STM32F4xx_HAL_Driver/Src/stm32f4xx_hal_tim.c ****   } 
 762:./Libraries/STM32F4xx_HAL_Driver/Src/stm32f4xx_hal_tim.c ****   
 763:./Libraries/STM32F4xx_HAL_Driver/Src/stm32f4xx_hal_tim.c ****   /* Disable the Output compare channel */
 764:./Libraries/STM32F4xx_HAL_Driver/Src/stm32f4xx_hal_tim.c ****   TIM_CCxChannelCmd(htim->Instance, Channel, TIM_CCx_DISABLE); 
 1481              		.loc 1 764 3
 1482 0096 7B68     		ldr	r3, [r7, #4]
 1483 0098 1B68     		ldr	r3, [r3]
 1484 009a 0022     		movs	r2, #0
 1485 009c 3968     		ldr	r1, [r7]
 1486 009e 1846     		mov	r0, r3
 1487 00a0 FFF7FEFF 		bl	TIM_CCxChannelCmd
 765:./Libraries/STM32F4xx_HAL_Driver/Src/stm32f4xx_hal_tim.c ****   
 766:./Libraries/STM32F4xx_HAL_Driver/Src/stm32f4xx_hal_tim.c ****   if(IS_TIM_ADVANCED_INSTANCE(htim->Instance) != RESET)  
 1488              		.loc 1 766 6
 1489 00a4 7B68     		ldr	r3, [r7, #4]
 1490 00a6 1B68     		ldr	r3, [r3]
 1491 00a8 204A     		ldr	r2, .L87
 1492 00aa 9342     		cmp	r3, r2
ARM GAS  /tmp/ccvKwMj1.s 			page 40


 1493 00ac 04D0     		beq	.L80
 1494              		.loc 1 766 6 is_stmt 0 discriminator 2
 1495 00ae 7B68     		ldr	r3, [r7, #4]
 1496 00b0 1B68     		ldr	r3, [r3]
 1497 00b2 1F4A     		ldr	r2, .L87+4
 1498 00b4 9342     		cmp	r3, r2
 1499 00b6 01D1     		bne	.L81
 1500              	.L80:
 1501              		.loc 1 766 6 discriminator 3
 1502 00b8 0123     		movs	r3, #1
 1503 00ba 00E0     		b	.L82
 1504              	.L81:
 1505              		.loc 1 766 6 discriminator 4
 1506 00bc 0023     		movs	r3, #0
 1507              	.L82:
 1508              		.loc 1 766 5 is_stmt 1 discriminator 6
 1509 00be 002B     		cmp	r3, #0
 1510 00c0 17D0     		beq	.L83
 767:./Libraries/STM32F4xx_HAL_Driver/Src/stm32f4xx_hal_tim.c ****   {
 768:./Libraries/STM32F4xx_HAL_Driver/Src/stm32f4xx_hal_tim.c ****     /* Disable the Main Output */
 769:./Libraries/STM32F4xx_HAL_Driver/Src/stm32f4xx_hal_tim.c ****     __HAL_TIM_MOE_DISABLE(htim);
 1511              		.loc 1 769 5
 1512 00c2 7B68     		ldr	r3, [r7, #4]
 1513 00c4 1B68     		ldr	r3, [r3]
 1514 00c6 1A6A     		ldr	r2, [r3, #32]
 1515 00c8 41F21113 		movw	r3, #4369
 1516 00cc 1340     		ands	r3, r3, r2
 1517 00ce 002B     		cmp	r3, #0
 1518 00d0 0FD1     		bne	.L83
 1519              		.loc 1 769 5 is_stmt 0 discriminator 1
 1520 00d2 7B68     		ldr	r3, [r7, #4]
 1521 00d4 1B68     		ldr	r3, [r3]
 1522 00d6 1A6A     		ldr	r2, [r3, #32]
 1523 00d8 40F24443 		movw	r3, #1092
 1524 00dc 1340     		ands	r3, r3, r2
 1525 00de 002B     		cmp	r3, #0
 1526 00e0 07D1     		bne	.L83
 1527              		.loc 1 769 5 discriminator 2
 1528 00e2 7B68     		ldr	r3, [r7, #4]
 1529 00e4 1B68     		ldr	r3, [r3]
 1530 00e6 5A6C     		ldr	r2, [r3, #68]
 1531 00e8 7B68     		ldr	r3, [r7, #4]
 1532 00ea 1B68     		ldr	r3, [r3]
 1533 00ec 22F40042 		bic	r2, r2, #32768
 1534 00f0 5A64     		str	r2, [r3, #68]
 1535              	.L83:
 770:./Libraries/STM32F4xx_HAL_Driver/Src/stm32f4xx_hal_tim.c ****   }
 771:./Libraries/STM32F4xx_HAL_Driver/Src/stm32f4xx_hal_tim.c ****   
 772:./Libraries/STM32F4xx_HAL_Driver/Src/stm32f4xx_hal_tim.c ****   /* Disable the Peripheral */
 773:./Libraries/STM32F4xx_HAL_Driver/Src/stm32f4xx_hal_tim.c ****   __HAL_TIM_DISABLE(htim);  
 1536              		.loc 1 773 3 is_stmt 1
 1537 00f2 7B68     		ldr	r3, [r7, #4]
 1538 00f4 1B68     		ldr	r3, [r3]
 1539 00f6 1A6A     		ldr	r2, [r3, #32]
 1540 00f8 41F21113 		movw	r3, #4369
 1541 00fc 1340     		ands	r3, r3, r2
 1542 00fe 002B     		cmp	r3, #0
ARM GAS  /tmp/ccvKwMj1.s 			page 41


 1543 0100 0FD1     		bne	.L84
 1544              		.loc 1 773 3 is_stmt 0 discriminator 1
 1545 0102 7B68     		ldr	r3, [r7, #4]
 1546 0104 1B68     		ldr	r3, [r3]
 1547 0106 1A6A     		ldr	r2, [r3, #32]
 1548 0108 40F24443 		movw	r3, #1092
 1549 010c 1340     		ands	r3, r3, r2
 1550 010e 002B     		cmp	r3, #0
 1551 0110 07D1     		bne	.L84
 1552              		.loc 1 773 3 discriminator 2
 1553 0112 7B68     		ldr	r3, [r7, #4]
 1554 0114 1B68     		ldr	r3, [r3]
 1555 0116 1A68     		ldr	r2, [r3]
 1556 0118 7B68     		ldr	r3, [r7, #4]
 1557 011a 1B68     		ldr	r3, [r3]
 1558 011c 22F00102 		bic	r2, r2, #1
 1559 0120 1A60     		str	r2, [r3]
 1560              	.L84:
 774:./Libraries/STM32F4xx_HAL_Driver/Src/stm32f4xx_hal_tim.c ****   
 775:./Libraries/STM32F4xx_HAL_Driver/Src/stm32f4xx_hal_tim.c ****   /* Return function status */
 776:./Libraries/STM32F4xx_HAL_Driver/Src/stm32f4xx_hal_tim.c ****   return HAL_OK;
 1561              		.loc 1 776 10 is_stmt 1
 1562 0122 0023     		movs	r3, #0
 777:./Libraries/STM32F4xx_HAL_Driver/Src/stm32f4xx_hal_tim.c **** }
 1563              		.loc 1 777 1
 1564 0124 1846     		mov	r0, r3
 1565 0126 0837     		adds	r7, r7, #8
 1566              	.LCFI97:
 1567              		.cfi_def_cfa_offset 8
 1568 0128 BD46     		mov	sp, r7
 1569              	.LCFI98:
 1570              		.cfi_def_cfa_register 13
 1571              		@ sp needed
 1572 012a 80BD     		pop	{r7, pc}
 1573              	.L88:
 1574              		.align	2
 1575              	.L87:
 1576 012c 00000140 		.word	1073807360
 1577 0130 00040140 		.word	1073808384
 1578              		.cfi_endproc
 1579              	.LFE143:
 1581              		.section	.text.HAL_TIM_OC_Start_DMA,"ax",%progbits
 1582              		.align	1
 1583              		.global	HAL_TIM_OC_Start_DMA
 1584              		.syntax unified
 1585              		.thumb
 1586              		.thumb_func
 1587              		.fpu fpv4-sp-d16
 1589              	HAL_TIM_OC_Start_DMA:
 1590              	.LFB144:
 778:./Libraries/STM32F4xx_HAL_Driver/Src/stm32f4xx_hal_tim.c **** 
 779:./Libraries/STM32F4xx_HAL_Driver/Src/stm32f4xx_hal_tim.c **** /**
 780:./Libraries/STM32F4xx_HAL_Driver/Src/stm32f4xx_hal_tim.c ****   * @brief  Starts the TIM Output Compare signal generation in DMA mode.
 781:./Libraries/STM32F4xx_HAL_Driver/Src/stm32f4xx_hal_tim.c ****   * @param  htim pointer to a TIM_HandleTypeDef structure that contains
 782:./Libraries/STM32F4xx_HAL_Driver/Src/stm32f4xx_hal_tim.c ****   *                the configuration information for TIM module.
 783:./Libraries/STM32F4xx_HAL_Driver/Src/stm32f4xx_hal_tim.c ****   * @param  Channel TIM Channel to be enabled.
 784:./Libraries/STM32F4xx_HAL_Driver/Src/stm32f4xx_hal_tim.c ****   *          This parameter can be one of the following values:
ARM GAS  /tmp/ccvKwMj1.s 			page 42


 785:./Libraries/STM32F4xx_HAL_Driver/Src/stm32f4xx_hal_tim.c ****   *            @arg TIM_CHANNEL_1: TIM Channel 1 selected
 786:./Libraries/STM32F4xx_HAL_Driver/Src/stm32f4xx_hal_tim.c ****   *            @arg TIM_CHANNEL_2: TIM Channel 2 selected
 787:./Libraries/STM32F4xx_HAL_Driver/Src/stm32f4xx_hal_tim.c ****   *            @arg TIM_CHANNEL_3: TIM Channel 3 selected
 788:./Libraries/STM32F4xx_HAL_Driver/Src/stm32f4xx_hal_tim.c ****   *            @arg TIM_CHANNEL_4: TIM Channel 4 selected
 789:./Libraries/STM32F4xx_HAL_Driver/Src/stm32f4xx_hal_tim.c ****   * @param  pData The source Buffer address.
 790:./Libraries/STM32F4xx_HAL_Driver/Src/stm32f4xx_hal_tim.c ****   * @param  Length The length of data to be transferred from memory to TIM peripheral
 791:./Libraries/STM32F4xx_HAL_Driver/Src/stm32f4xx_hal_tim.c ****   * @retval HAL status
 792:./Libraries/STM32F4xx_HAL_Driver/Src/stm32f4xx_hal_tim.c ****   */
 793:./Libraries/STM32F4xx_HAL_Driver/Src/stm32f4xx_hal_tim.c **** HAL_StatusTypeDef HAL_TIM_OC_Start_DMA(TIM_HandleTypeDef *htim, uint32_t Channel, uint32_t *pData, 
 794:./Libraries/STM32F4xx_HAL_Driver/Src/stm32f4xx_hal_tim.c **** {
 1591              		.loc 1 794 1
 1592              		.cfi_startproc
 1593              		@ args = 0, pretend = 0, frame = 16
 1594              		@ frame_needed = 1, uses_anonymous_args = 0
 1595 0000 80B5     		push	{r7, lr}
 1596              	.LCFI99:
 1597              		.cfi_def_cfa_offset 8
 1598              		.cfi_offset 7, -8
 1599              		.cfi_offset 14, -4
 1600 0002 84B0     		sub	sp, sp, #16
 1601              	.LCFI100:
 1602              		.cfi_def_cfa_offset 24
 1603 0004 00AF     		add	r7, sp, #0
 1604              	.LCFI101:
 1605              		.cfi_def_cfa_register 7
 1606 0006 F860     		str	r0, [r7, #12]
 1607 0008 B960     		str	r1, [r7, #8]
 1608 000a 7A60     		str	r2, [r7, #4]
 1609 000c 7B80     		strh	r3, [r7, #2]	@ movhi
 795:./Libraries/STM32F4xx_HAL_Driver/Src/stm32f4xx_hal_tim.c ****   /* Check the parameters */
 796:./Libraries/STM32F4xx_HAL_Driver/Src/stm32f4xx_hal_tim.c ****   assert_param(IS_TIM_CCX_INSTANCE(htim->Instance, Channel));
 797:./Libraries/STM32F4xx_HAL_Driver/Src/stm32f4xx_hal_tim.c ****   
 798:./Libraries/STM32F4xx_HAL_Driver/Src/stm32f4xx_hal_tim.c ****   if((htim->State == HAL_TIM_STATE_BUSY))
 1610              		.loc 1 798 11
 1611 000e FB68     		ldr	r3, [r7, #12]
 1612 0010 93F83930 		ldrb	r3, [r3, #57]
 1613 0014 DBB2     		uxtb	r3, r3
 1614              		.loc 1 798 5
 1615 0016 022B     		cmp	r3, #2
 1616 0018 01D1     		bne	.L90
 799:./Libraries/STM32F4xx_HAL_Driver/Src/stm32f4xx_hal_tim.c ****   {
 800:./Libraries/STM32F4xx_HAL_Driver/Src/stm32f4xx_hal_tim.c ****      return HAL_BUSY;
 1617              		.loc 1 800 13
 1618 001a 0223     		movs	r3, #2
 1619 001c C6E0     		b	.L91
 1620              	.L90:
 801:./Libraries/STM32F4xx_HAL_Driver/Src/stm32f4xx_hal_tim.c ****   }
 802:./Libraries/STM32F4xx_HAL_Driver/Src/stm32f4xx_hal_tim.c ****   else if((htim->State == HAL_TIM_STATE_READY))
 1621              		.loc 1 802 16
 1622 001e FB68     		ldr	r3, [r7, #12]
 1623 0020 93F83930 		ldrb	r3, [r3, #57]
 1624 0024 DBB2     		uxtb	r3, r3
 1625              		.loc 1 802 10
 1626 0026 012B     		cmp	r3, #1
 1627 0028 0BD1     		bne	.L92
 803:./Libraries/STM32F4xx_HAL_Driver/Src/stm32f4xx_hal_tim.c ****   {
 804:./Libraries/STM32F4xx_HAL_Driver/Src/stm32f4xx_hal_tim.c ****     if(((uint32_t)pData == 0U) && (Length > 0)) 
ARM GAS  /tmp/ccvKwMj1.s 			page 43


 1628              		.loc 1 804 7
 1629 002a 7B68     		ldr	r3, [r7, #4]
 1630 002c 002B     		cmp	r3, #0
 1631 002e 04D1     		bne	.L93
 1632              		.loc 1 804 32 discriminator 1
 1633 0030 7B88     		ldrh	r3, [r7, #2]
 1634 0032 002B     		cmp	r3, #0
 1635 0034 01D0     		beq	.L93
 805:./Libraries/STM32F4xx_HAL_Driver/Src/stm32f4xx_hal_tim.c ****     {
 806:./Libraries/STM32F4xx_HAL_Driver/Src/stm32f4xx_hal_tim.c ****       return HAL_ERROR;                                    
 1636              		.loc 1 806 14
 1637 0036 0123     		movs	r3, #1
 1638 0038 B8E0     		b	.L91
 1639              	.L93:
 807:./Libraries/STM32F4xx_HAL_Driver/Src/stm32f4xx_hal_tim.c ****     }
 808:./Libraries/STM32F4xx_HAL_Driver/Src/stm32f4xx_hal_tim.c ****     else
 809:./Libraries/STM32F4xx_HAL_Driver/Src/stm32f4xx_hal_tim.c ****     {
 810:./Libraries/STM32F4xx_HAL_Driver/Src/stm32f4xx_hal_tim.c ****       htim->State = HAL_TIM_STATE_BUSY;
 1640              		.loc 1 810 19
 1641 003a FB68     		ldr	r3, [r7, #12]
 1642 003c 0222     		movs	r2, #2
 1643 003e 83F83920 		strb	r2, [r3, #57]
 1644              	.L92:
 1645 0042 BB68     		ldr	r3, [r7, #8]
 1646 0044 0C2B     		cmp	r3, #12
 1647 0046 00F28980 		bhi	.L105
 1648 004a 01A2     		adr	r2, .L96
 1649 004c 52F823F0 		ldr	pc, [r2, r3, lsl #2]
 1650              		.p2align 2
 1651              	.L96:
 1652 0050 85000000 		.word	.L99+1
 1653 0054 5D010000 		.word	.L105+1
 1654 0058 5D010000 		.word	.L105+1
 1655 005c 5D010000 		.word	.L105+1
 1656 0060 BB000000 		.word	.L98+1
 1657 0064 5D010000 		.word	.L105+1
 1658 0068 5D010000 		.word	.L105+1
 1659 006c 5D010000 		.word	.L105+1
 1660 0070 F1000000 		.word	.L97+1
 1661 0074 5D010000 		.word	.L105+1
 1662 0078 5D010000 		.word	.L105+1
 1663 007c 5D010000 		.word	.L105+1
 1664 0080 27010000 		.word	.L95+1
 1665              		.p2align 1
 1666              	.L99:
 811:./Libraries/STM32F4xx_HAL_Driver/Src/stm32f4xx_hal_tim.c ****     }
 812:./Libraries/STM32F4xx_HAL_Driver/Src/stm32f4xx_hal_tim.c ****   }    
 813:./Libraries/STM32F4xx_HAL_Driver/Src/stm32f4xx_hal_tim.c ****   switch (Channel)
 814:./Libraries/STM32F4xx_HAL_Driver/Src/stm32f4xx_hal_tim.c ****   {
 815:./Libraries/STM32F4xx_HAL_Driver/Src/stm32f4xx_hal_tim.c ****     case TIM_CHANNEL_1:
 816:./Libraries/STM32F4xx_HAL_Driver/Src/stm32f4xx_hal_tim.c ****     {      
 817:./Libraries/STM32F4xx_HAL_Driver/Src/stm32f4xx_hal_tim.c ****       /* Set the DMA Period elapsed callback */
 818:./Libraries/STM32F4xx_HAL_Driver/Src/stm32f4xx_hal_tim.c ****       htim->hdma[TIM_DMA_ID_CC1]->XferCpltCallback = TIM_DMADelayPulseCplt;
 1667              		.loc 1 818 17
 1668 0084 FB68     		ldr	r3, [r7, #12]
 1669 0086 1B6A     		ldr	r3, [r3, #32]
 1670              		.loc 1 818 52
ARM GAS  /tmp/ccvKwMj1.s 			page 44


 1671 0088 4A4A     		ldr	r2, .L106
 1672 008a DA63     		str	r2, [r3, #60]
 819:./Libraries/STM32F4xx_HAL_Driver/Src/stm32f4xx_hal_tim.c ****      
 820:./Libraries/STM32F4xx_HAL_Driver/Src/stm32f4xx_hal_tim.c ****       /* Set the DMA error callback */
 821:./Libraries/STM32F4xx_HAL_Driver/Src/stm32f4xx_hal_tim.c ****       htim->hdma[TIM_DMA_ID_CC1]->XferErrorCallback = TIM_DMAError ;
 1673              		.loc 1 821 17
 1674 008c FB68     		ldr	r3, [r7, #12]
 1675 008e 1B6A     		ldr	r3, [r3, #32]
 1676              		.loc 1 821 53
 1677 0090 494A     		ldr	r2, .L106+4
 1678 0092 DA64     		str	r2, [r3, #76]
 822:./Libraries/STM32F4xx_HAL_Driver/Src/stm32f4xx_hal_tim.c ****       
 823:./Libraries/STM32F4xx_HAL_Driver/Src/stm32f4xx_hal_tim.c ****       /* Enable the DMA Stream */
 824:./Libraries/STM32F4xx_HAL_Driver/Src/stm32f4xx_hal_tim.c ****       HAL_DMA_Start_IT(htim->hdma[TIM_DMA_ID_CC1], (uint32_t)pData, (uint32_t)&htim->Instance->CCR1
 1679              		.loc 1 824 7
 1680 0094 FB68     		ldr	r3, [r7, #12]
 1681 0096 186A     		ldr	r0, [r3, #32]
 1682 0098 7968     		ldr	r1, [r7, #4]
 1683              		.loc 1 824 84
 1684 009a FB68     		ldr	r3, [r7, #12]
 1685 009c 1B68     		ldr	r3, [r3]
 1686              		.loc 1 824 79
 1687 009e 3433     		adds	r3, r3, #52
 1688              		.loc 1 824 7
 1689 00a0 1A46     		mov	r2, r3
 1690 00a2 7B88     		ldrh	r3, [r7, #2]
 1691 00a4 FFF7FEFF 		bl	HAL_DMA_Start_IT
 825:./Libraries/STM32F4xx_HAL_Driver/Src/stm32f4xx_hal_tim.c ****       
 826:./Libraries/STM32F4xx_HAL_Driver/Src/stm32f4xx_hal_tim.c ****       /* Enable the TIM Capture/Compare 1 DMA request */
 827:./Libraries/STM32F4xx_HAL_Driver/Src/stm32f4xx_hal_tim.c ****       __HAL_TIM_ENABLE_DMA(htim, TIM_DMA_CC1);
 1692              		.loc 1 827 7
 1693 00a8 FB68     		ldr	r3, [r7, #12]
 1694 00aa 1B68     		ldr	r3, [r3]
 1695 00ac DA68     		ldr	r2, [r3, #12]
 1696 00ae FB68     		ldr	r3, [r7, #12]
 1697 00b0 1B68     		ldr	r3, [r3]
 1698 00b2 42F40072 		orr	r2, r2, #512
 1699 00b6 DA60     		str	r2, [r3, #12]
 828:./Libraries/STM32F4xx_HAL_Driver/Src/stm32f4xx_hal_tim.c ****     }
 829:./Libraries/STM32F4xx_HAL_Driver/Src/stm32f4xx_hal_tim.c ****     break;
 1700              		.loc 1 829 5
 1701 00b8 51E0     		b	.L100
 1702              	.L98:
 830:./Libraries/STM32F4xx_HAL_Driver/Src/stm32f4xx_hal_tim.c ****     
 831:./Libraries/STM32F4xx_HAL_Driver/Src/stm32f4xx_hal_tim.c ****     case TIM_CHANNEL_2:
 832:./Libraries/STM32F4xx_HAL_Driver/Src/stm32f4xx_hal_tim.c ****     {
 833:./Libraries/STM32F4xx_HAL_Driver/Src/stm32f4xx_hal_tim.c ****       /* Set the DMA Period elapsed callback */
 834:./Libraries/STM32F4xx_HAL_Driver/Src/stm32f4xx_hal_tim.c ****       htim->hdma[TIM_DMA_ID_CC2]->XferCpltCallback = TIM_DMADelayPulseCplt;
 1703              		.loc 1 834 17
 1704 00ba FB68     		ldr	r3, [r7, #12]
 1705 00bc 5B6A     		ldr	r3, [r3, #36]
 1706              		.loc 1 834 52
 1707 00be 3D4A     		ldr	r2, .L106
 1708 00c0 DA63     		str	r2, [r3, #60]
 835:./Libraries/STM32F4xx_HAL_Driver/Src/stm32f4xx_hal_tim.c ****      
 836:./Libraries/STM32F4xx_HAL_Driver/Src/stm32f4xx_hal_tim.c ****       /* Set the DMA error callback */
 837:./Libraries/STM32F4xx_HAL_Driver/Src/stm32f4xx_hal_tim.c ****       htim->hdma[TIM_DMA_ID_CC2]->XferErrorCallback = TIM_DMAError ;
ARM GAS  /tmp/ccvKwMj1.s 			page 45


 1709              		.loc 1 837 17
 1710 00c2 FB68     		ldr	r3, [r7, #12]
 1711 00c4 5B6A     		ldr	r3, [r3, #36]
 1712              		.loc 1 837 53
 1713 00c6 3C4A     		ldr	r2, .L106+4
 1714 00c8 DA64     		str	r2, [r3, #76]
 838:./Libraries/STM32F4xx_HAL_Driver/Src/stm32f4xx_hal_tim.c ****       
 839:./Libraries/STM32F4xx_HAL_Driver/Src/stm32f4xx_hal_tim.c ****       /* Enable the DMA Stream */
 840:./Libraries/STM32F4xx_HAL_Driver/Src/stm32f4xx_hal_tim.c ****       HAL_DMA_Start_IT(htim->hdma[TIM_DMA_ID_CC2], (uint32_t)pData, (uint32_t)&htim->Instance->CCR2
 1715              		.loc 1 840 7
 1716 00ca FB68     		ldr	r3, [r7, #12]
 1717 00cc 586A     		ldr	r0, [r3, #36]
 1718 00ce 7968     		ldr	r1, [r7, #4]
 1719              		.loc 1 840 84
 1720 00d0 FB68     		ldr	r3, [r7, #12]
 1721 00d2 1B68     		ldr	r3, [r3]
 1722              		.loc 1 840 79
 1723 00d4 3833     		adds	r3, r3, #56
 1724              		.loc 1 840 7
 1725 00d6 1A46     		mov	r2, r3
 1726 00d8 7B88     		ldrh	r3, [r7, #2]
 1727 00da FFF7FEFF 		bl	HAL_DMA_Start_IT
 841:./Libraries/STM32F4xx_HAL_Driver/Src/stm32f4xx_hal_tim.c ****       
 842:./Libraries/STM32F4xx_HAL_Driver/Src/stm32f4xx_hal_tim.c ****       /* Enable the TIM Capture/Compare 2 DMA request */
 843:./Libraries/STM32F4xx_HAL_Driver/Src/stm32f4xx_hal_tim.c ****       __HAL_TIM_ENABLE_DMA(htim, TIM_DMA_CC2);
 1728              		.loc 1 843 7
 1729 00de FB68     		ldr	r3, [r7, #12]
 1730 00e0 1B68     		ldr	r3, [r3]
 1731 00e2 DA68     		ldr	r2, [r3, #12]
 1732 00e4 FB68     		ldr	r3, [r7, #12]
 1733 00e6 1B68     		ldr	r3, [r3]
 1734 00e8 42F48062 		orr	r2, r2, #1024
 1735 00ec DA60     		str	r2, [r3, #12]
 844:./Libraries/STM32F4xx_HAL_Driver/Src/stm32f4xx_hal_tim.c ****     }
 845:./Libraries/STM32F4xx_HAL_Driver/Src/stm32f4xx_hal_tim.c ****     break;
 1736              		.loc 1 845 5
 1737 00ee 36E0     		b	.L100
 1738              	.L97:
 846:./Libraries/STM32F4xx_HAL_Driver/Src/stm32f4xx_hal_tim.c ****     
 847:./Libraries/STM32F4xx_HAL_Driver/Src/stm32f4xx_hal_tim.c ****     case TIM_CHANNEL_3:
 848:./Libraries/STM32F4xx_HAL_Driver/Src/stm32f4xx_hal_tim.c ****     {
 849:./Libraries/STM32F4xx_HAL_Driver/Src/stm32f4xx_hal_tim.c ****       /* Set the DMA Period elapsed callback */
 850:./Libraries/STM32F4xx_HAL_Driver/Src/stm32f4xx_hal_tim.c ****       htim->hdma[TIM_DMA_ID_CC3]->XferCpltCallback = TIM_DMADelayPulseCplt;
 1739              		.loc 1 850 17
 1740 00f0 FB68     		ldr	r3, [r7, #12]
 1741 00f2 9B6A     		ldr	r3, [r3, #40]
 1742              		.loc 1 850 52
 1743 00f4 2F4A     		ldr	r2, .L106
 1744 00f6 DA63     		str	r2, [r3, #60]
 851:./Libraries/STM32F4xx_HAL_Driver/Src/stm32f4xx_hal_tim.c ****      
 852:./Libraries/STM32F4xx_HAL_Driver/Src/stm32f4xx_hal_tim.c ****       /* Set the DMA error callback */
 853:./Libraries/STM32F4xx_HAL_Driver/Src/stm32f4xx_hal_tim.c ****       htim->hdma[TIM_DMA_ID_CC3]->XferErrorCallback = TIM_DMAError ;
 1745              		.loc 1 853 17
 1746 00f8 FB68     		ldr	r3, [r7, #12]
 1747 00fa 9B6A     		ldr	r3, [r3, #40]
 1748              		.loc 1 853 53
 1749 00fc 2E4A     		ldr	r2, .L106+4
ARM GAS  /tmp/ccvKwMj1.s 			page 46


 1750 00fe DA64     		str	r2, [r3, #76]
 854:./Libraries/STM32F4xx_HAL_Driver/Src/stm32f4xx_hal_tim.c ****       
 855:./Libraries/STM32F4xx_HAL_Driver/Src/stm32f4xx_hal_tim.c ****       /* Enable the DMA Stream */
 856:./Libraries/STM32F4xx_HAL_Driver/Src/stm32f4xx_hal_tim.c ****       HAL_DMA_Start_IT(htim->hdma[TIM_DMA_ID_CC3], (uint32_t)pData, (uint32_t)&htim->Instance->CCR3
 1751              		.loc 1 856 7
 1752 0100 FB68     		ldr	r3, [r7, #12]
 1753 0102 986A     		ldr	r0, [r3, #40]
 1754 0104 7968     		ldr	r1, [r7, #4]
 1755              		.loc 1 856 84
 1756 0106 FB68     		ldr	r3, [r7, #12]
 1757 0108 1B68     		ldr	r3, [r3]
 1758              		.loc 1 856 79
 1759 010a 3C33     		adds	r3, r3, #60
 1760              		.loc 1 856 7
 1761 010c 1A46     		mov	r2, r3
 1762 010e 7B88     		ldrh	r3, [r7, #2]
 1763 0110 FFF7FEFF 		bl	HAL_DMA_Start_IT
 857:./Libraries/STM32F4xx_HAL_Driver/Src/stm32f4xx_hal_tim.c ****       
 858:./Libraries/STM32F4xx_HAL_Driver/Src/stm32f4xx_hal_tim.c ****       /* Enable the TIM Capture/Compare 3 DMA request */
 859:./Libraries/STM32F4xx_HAL_Driver/Src/stm32f4xx_hal_tim.c ****       __HAL_TIM_ENABLE_DMA(htim, TIM_DMA_CC3);
 1764              		.loc 1 859 7
 1765 0114 FB68     		ldr	r3, [r7, #12]
 1766 0116 1B68     		ldr	r3, [r3]
 1767 0118 DA68     		ldr	r2, [r3, #12]
 1768 011a FB68     		ldr	r3, [r7, #12]
 1769 011c 1B68     		ldr	r3, [r3]
 1770 011e 42F40062 		orr	r2, r2, #2048
 1771 0122 DA60     		str	r2, [r3, #12]
 860:./Libraries/STM32F4xx_HAL_Driver/Src/stm32f4xx_hal_tim.c ****     }
 861:./Libraries/STM32F4xx_HAL_Driver/Src/stm32f4xx_hal_tim.c ****     break;
 1772              		.loc 1 861 5
 1773 0124 1BE0     		b	.L100
 1774              	.L95:
 862:./Libraries/STM32F4xx_HAL_Driver/Src/stm32f4xx_hal_tim.c ****     
 863:./Libraries/STM32F4xx_HAL_Driver/Src/stm32f4xx_hal_tim.c ****     case TIM_CHANNEL_4:
 864:./Libraries/STM32F4xx_HAL_Driver/Src/stm32f4xx_hal_tim.c ****     {
 865:./Libraries/STM32F4xx_HAL_Driver/Src/stm32f4xx_hal_tim.c ****      /* Set the DMA Period elapsed callback */
 866:./Libraries/STM32F4xx_HAL_Driver/Src/stm32f4xx_hal_tim.c ****       htim->hdma[TIM_DMA_ID_CC4]->XferCpltCallback = TIM_DMADelayPulseCplt;
 1775              		.loc 1 866 17
 1776 0126 FB68     		ldr	r3, [r7, #12]
 1777 0128 DB6A     		ldr	r3, [r3, #44]
 1778              		.loc 1 866 52
 1779 012a 224A     		ldr	r2, .L106
 1780 012c DA63     		str	r2, [r3, #60]
 867:./Libraries/STM32F4xx_HAL_Driver/Src/stm32f4xx_hal_tim.c ****      
 868:./Libraries/STM32F4xx_HAL_Driver/Src/stm32f4xx_hal_tim.c ****       /* Set the DMA error callback */
 869:./Libraries/STM32F4xx_HAL_Driver/Src/stm32f4xx_hal_tim.c ****       htim->hdma[TIM_DMA_ID_CC4]->XferErrorCallback = TIM_DMAError ;
 1781              		.loc 1 869 17
 1782 012e FB68     		ldr	r3, [r7, #12]
 1783 0130 DB6A     		ldr	r3, [r3, #44]
 1784              		.loc 1 869 53
 1785 0132 214A     		ldr	r2, .L106+4
 1786 0134 DA64     		str	r2, [r3, #76]
 870:./Libraries/STM32F4xx_HAL_Driver/Src/stm32f4xx_hal_tim.c ****       
 871:./Libraries/STM32F4xx_HAL_Driver/Src/stm32f4xx_hal_tim.c ****       /* Enable the DMA Stream */
 872:./Libraries/STM32F4xx_HAL_Driver/Src/stm32f4xx_hal_tim.c ****       HAL_DMA_Start_IT(htim->hdma[TIM_DMA_ID_CC4], (uint32_t)pData, (uint32_t)&htim->Instance->CCR4
 1787              		.loc 1 872 7
ARM GAS  /tmp/ccvKwMj1.s 			page 47


 1788 0136 FB68     		ldr	r3, [r7, #12]
 1789 0138 D86A     		ldr	r0, [r3, #44]
 1790 013a 7968     		ldr	r1, [r7, #4]
 1791              		.loc 1 872 84
 1792 013c FB68     		ldr	r3, [r7, #12]
 1793 013e 1B68     		ldr	r3, [r3]
 1794              		.loc 1 872 79
 1795 0140 4033     		adds	r3, r3, #64
 1796              		.loc 1 872 7
 1797 0142 1A46     		mov	r2, r3
 1798 0144 7B88     		ldrh	r3, [r7, #2]
 1799 0146 FFF7FEFF 		bl	HAL_DMA_Start_IT
 873:./Libraries/STM32F4xx_HAL_Driver/Src/stm32f4xx_hal_tim.c ****       
 874:./Libraries/STM32F4xx_HAL_Driver/Src/stm32f4xx_hal_tim.c ****       /* Enable the TIM Capture/Compare 4 DMA request */
 875:./Libraries/STM32F4xx_HAL_Driver/Src/stm32f4xx_hal_tim.c ****       __HAL_TIM_ENABLE_DMA(htim, TIM_DMA_CC4);
 1800              		.loc 1 875 7
 1801 014a FB68     		ldr	r3, [r7, #12]
 1802 014c 1B68     		ldr	r3, [r3]
 1803 014e DA68     		ldr	r2, [r3, #12]
 1804 0150 FB68     		ldr	r3, [r7, #12]
 1805 0152 1B68     		ldr	r3, [r3]
 1806 0154 42F48052 		orr	r2, r2, #4096
 1807 0158 DA60     		str	r2, [r3, #12]
 876:./Libraries/STM32F4xx_HAL_Driver/Src/stm32f4xx_hal_tim.c ****     }
 877:./Libraries/STM32F4xx_HAL_Driver/Src/stm32f4xx_hal_tim.c ****     break;
 1808              		.loc 1 877 5
 1809 015a 00E0     		b	.L100
 1810              	.L105:
 878:./Libraries/STM32F4xx_HAL_Driver/Src/stm32f4xx_hal_tim.c ****     
 879:./Libraries/STM32F4xx_HAL_Driver/Src/stm32f4xx_hal_tim.c ****     default:
 880:./Libraries/STM32F4xx_HAL_Driver/Src/stm32f4xx_hal_tim.c ****     break;
 1811              		.loc 1 880 5
 1812 015c 00BF     		nop
 1813              	.L100:
 881:./Libraries/STM32F4xx_HAL_Driver/Src/stm32f4xx_hal_tim.c ****   }
 882:./Libraries/STM32F4xx_HAL_Driver/Src/stm32f4xx_hal_tim.c **** 
 883:./Libraries/STM32F4xx_HAL_Driver/Src/stm32f4xx_hal_tim.c ****   /* Enable the Output compare channel */
 884:./Libraries/STM32F4xx_HAL_Driver/Src/stm32f4xx_hal_tim.c ****   TIM_CCxChannelCmd(htim->Instance, Channel, TIM_CCx_ENABLE);
 1814              		.loc 1 884 3
 1815 015e FB68     		ldr	r3, [r7, #12]
 1816 0160 1B68     		ldr	r3, [r3]
 1817 0162 0122     		movs	r2, #1
 1818 0164 B968     		ldr	r1, [r7, #8]
 1819 0166 1846     		mov	r0, r3
 1820 0168 FFF7FEFF 		bl	TIM_CCxChannelCmd
 885:./Libraries/STM32F4xx_HAL_Driver/Src/stm32f4xx_hal_tim.c ****   
 886:./Libraries/STM32F4xx_HAL_Driver/Src/stm32f4xx_hal_tim.c ****   if(IS_TIM_ADVANCED_INSTANCE(htim->Instance) != RESET)  
 1821              		.loc 1 886 6
 1822 016c FB68     		ldr	r3, [r7, #12]
 1823 016e 1B68     		ldr	r3, [r3]
 1824 0170 124A     		ldr	r2, .L106+8
 1825 0172 9342     		cmp	r3, r2
 1826 0174 04D0     		beq	.L101
 1827              		.loc 1 886 6 is_stmt 0 discriminator 2
 1828 0176 FB68     		ldr	r3, [r7, #12]
 1829 0178 1B68     		ldr	r3, [r3]
 1830 017a 114A     		ldr	r2, .L106+12
ARM GAS  /tmp/ccvKwMj1.s 			page 48


 1831 017c 9342     		cmp	r3, r2
 1832 017e 01D1     		bne	.L102
 1833              	.L101:
 1834              		.loc 1 886 6 discriminator 3
 1835 0180 0123     		movs	r3, #1
 1836 0182 00E0     		b	.L103
 1837              	.L102:
 1838              		.loc 1 886 6 discriminator 4
 1839 0184 0023     		movs	r3, #0
 1840              	.L103:
 1841              		.loc 1 886 5 is_stmt 1 discriminator 6
 1842 0186 002B     		cmp	r3, #0
 1843 0188 07D0     		beq	.L104
 887:./Libraries/STM32F4xx_HAL_Driver/Src/stm32f4xx_hal_tim.c ****   {
 888:./Libraries/STM32F4xx_HAL_Driver/Src/stm32f4xx_hal_tim.c ****     /* Enable the main output */
 889:./Libraries/STM32F4xx_HAL_Driver/Src/stm32f4xx_hal_tim.c ****     __HAL_TIM_MOE_ENABLE(htim);
 1844              		.loc 1 889 5
 1845 018a FB68     		ldr	r3, [r7, #12]
 1846 018c 1B68     		ldr	r3, [r3]
 1847 018e 5A6C     		ldr	r2, [r3, #68]
 1848 0190 FB68     		ldr	r3, [r7, #12]
 1849 0192 1B68     		ldr	r3, [r3]
 1850 0194 42F40042 		orr	r2, r2, #32768
 1851 0198 5A64     		str	r2, [r3, #68]
 1852              	.L104:
 890:./Libraries/STM32F4xx_HAL_Driver/Src/stm32f4xx_hal_tim.c ****   }  
 891:./Libraries/STM32F4xx_HAL_Driver/Src/stm32f4xx_hal_tim.c ****   
 892:./Libraries/STM32F4xx_HAL_Driver/Src/stm32f4xx_hal_tim.c ****   /* Enable the Peripheral */
 893:./Libraries/STM32F4xx_HAL_Driver/Src/stm32f4xx_hal_tim.c ****   __HAL_TIM_ENABLE(htim); 
 1853              		.loc 1 893 3
 1854 019a FB68     		ldr	r3, [r7, #12]
 1855 019c 1B68     		ldr	r3, [r3]
 1856 019e 1A68     		ldr	r2, [r3]
 1857 01a0 FB68     		ldr	r3, [r7, #12]
 1858 01a2 1B68     		ldr	r3, [r3]
 1859 01a4 42F00102 		orr	r2, r2, #1
 1860 01a8 1A60     		str	r2, [r3]
 894:./Libraries/STM32F4xx_HAL_Driver/Src/stm32f4xx_hal_tim.c ****   
 895:./Libraries/STM32F4xx_HAL_Driver/Src/stm32f4xx_hal_tim.c ****   /* Return function status */
 896:./Libraries/STM32F4xx_HAL_Driver/Src/stm32f4xx_hal_tim.c ****   return HAL_OK;
 1861              		.loc 1 896 10
 1862 01aa 0023     		movs	r3, #0
 1863              	.L91:
 897:./Libraries/STM32F4xx_HAL_Driver/Src/stm32f4xx_hal_tim.c **** }
 1864              		.loc 1 897 1
 1865 01ac 1846     		mov	r0, r3
 1866 01ae 1037     		adds	r7, r7, #16
 1867              	.LCFI102:
 1868              		.cfi_def_cfa_offset 8
 1869 01b0 BD46     		mov	sp, r7
 1870              	.LCFI103:
 1871              		.cfi_def_cfa_register 13
 1872              		@ sp needed
 1873 01b2 80BD     		pop	{r7, pc}
 1874              	.L107:
 1875              		.align	2
 1876              	.L106:
ARM GAS  /tmp/ccvKwMj1.s 			page 49


 1877 01b4 00000000 		.word	TIM_DMADelayPulseCplt
 1878 01b8 00000000 		.word	TIM_DMAError
 1879 01bc 00000140 		.word	1073807360
 1880 01c0 00040140 		.word	1073808384
 1881              		.cfi_endproc
 1882              	.LFE144:
 1884              		.section	.text.HAL_TIM_OC_Stop_DMA,"ax",%progbits
 1885              		.align	1
 1886              		.global	HAL_TIM_OC_Stop_DMA
 1887              		.syntax unified
 1888              		.thumb
 1889              		.thumb_func
 1890              		.fpu fpv4-sp-d16
 1892              	HAL_TIM_OC_Stop_DMA:
 1893              	.LFB145:
 898:./Libraries/STM32F4xx_HAL_Driver/Src/stm32f4xx_hal_tim.c **** 
 899:./Libraries/STM32F4xx_HAL_Driver/Src/stm32f4xx_hal_tim.c **** /**
 900:./Libraries/STM32F4xx_HAL_Driver/Src/stm32f4xx_hal_tim.c ****   * @brief  Stops the TIM Output Compare signal generation in DMA mode.
 901:./Libraries/STM32F4xx_HAL_Driver/Src/stm32f4xx_hal_tim.c ****   * @param  htim pointer to a TIM_HandleTypeDef structure that contains
 902:./Libraries/STM32F4xx_HAL_Driver/Src/stm32f4xx_hal_tim.c ****   *                the configuration information for TIM module.
 903:./Libraries/STM32F4xx_HAL_Driver/Src/stm32f4xx_hal_tim.c ****   * @param  Channel TIM Channel to be disabled.
 904:./Libraries/STM32F4xx_HAL_Driver/Src/stm32f4xx_hal_tim.c ****   *          This parameter can be one of the following values:
 905:./Libraries/STM32F4xx_HAL_Driver/Src/stm32f4xx_hal_tim.c ****   *            @arg TIM_CHANNEL_1: TIM Channel 1 selected
 906:./Libraries/STM32F4xx_HAL_Driver/Src/stm32f4xx_hal_tim.c ****   *            @arg TIM_CHANNEL_2: TIM Channel 2 selected
 907:./Libraries/STM32F4xx_HAL_Driver/Src/stm32f4xx_hal_tim.c ****   *            @arg TIM_CHANNEL_3: TIM Channel 3 selected
 908:./Libraries/STM32F4xx_HAL_Driver/Src/stm32f4xx_hal_tim.c ****   *            @arg TIM_CHANNEL_4: TIM Channel 4 selected
 909:./Libraries/STM32F4xx_HAL_Driver/Src/stm32f4xx_hal_tim.c ****   * @retval HAL status
 910:./Libraries/STM32F4xx_HAL_Driver/Src/stm32f4xx_hal_tim.c ****   */
 911:./Libraries/STM32F4xx_HAL_Driver/Src/stm32f4xx_hal_tim.c **** HAL_StatusTypeDef HAL_TIM_OC_Stop_DMA(TIM_HandleTypeDef *htim, uint32_t Channel)
 912:./Libraries/STM32F4xx_HAL_Driver/Src/stm32f4xx_hal_tim.c **** {
 1894              		.loc 1 912 1
 1895              		.cfi_startproc
 1896              		@ args = 0, pretend = 0, frame = 8
 1897              		@ frame_needed = 1, uses_anonymous_args = 0
 1898 0000 80B5     		push	{r7, lr}
 1899              	.LCFI104:
 1900              		.cfi_def_cfa_offset 8
 1901              		.cfi_offset 7, -8
 1902              		.cfi_offset 14, -4
 1903 0002 82B0     		sub	sp, sp, #8
 1904              	.LCFI105:
 1905              		.cfi_def_cfa_offset 16
 1906 0004 00AF     		add	r7, sp, #0
 1907              	.LCFI106:
 1908              		.cfi_def_cfa_register 7
 1909 0006 7860     		str	r0, [r7, #4]
 1910 0008 3960     		str	r1, [r7]
 1911 000a 3B68     		ldr	r3, [r7]
 1912 000c 0C2B     		cmp	r3, #12
 1913 000e 41D8     		bhi	.L122
 1914 0010 01A2     		adr	r2, .L111
 1915 0012 52F823F0 		ldr	pc, [r2, r3, lsl #2]
 1916 0016 00BF     		.p2align 2
 1917              	.L111:
 1918 0018 4D000000 		.word	.L114+1
 1919 001c 95000000 		.word	.L122+1
 1920 0020 95000000 		.word	.L122+1
ARM GAS  /tmp/ccvKwMj1.s 			page 50


 1921 0024 95000000 		.word	.L122+1
 1922 0028 5F000000 		.word	.L113+1
 1923 002c 95000000 		.word	.L122+1
 1924 0030 95000000 		.word	.L122+1
 1925 0034 95000000 		.word	.L122+1
 1926 0038 71000000 		.word	.L112+1
 1927 003c 95000000 		.word	.L122+1
 1928 0040 95000000 		.word	.L122+1
 1929 0044 95000000 		.word	.L122+1
 1930 0048 83000000 		.word	.L110+1
 1931              		.p2align 1
 1932              	.L114:
 913:./Libraries/STM32F4xx_HAL_Driver/Src/stm32f4xx_hal_tim.c ****   /* Check the parameters */
 914:./Libraries/STM32F4xx_HAL_Driver/Src/stm32f4xx_hal_tim.c ****   assert_param(IS_TIM_CCX_INSTANCE(htim->Instance, Channel));
 915:./Libraries/STM32F4xx_HAL_Driver/Src/stm32f4xx_hal_tim.c ****   
 916:./Libraries/STM32F4xx_HAL_Driver/Src/stm32f4xx_hal_tim.c ****   switch (Channel)
 917:./Libraries/STM32F4xx_HAL_Driver/Src/stm32f4xx_hal_tim.c ****   {
 918:./Libraries/STM32F4xx_HAL_Driver/Src/stm32f4xx_hal_tim.c ****     case TIM_CHANNEL_1:
 919:./Libraries/STM32F4xx_HAL_Driver/Src/stm32f4xx_hal_tim.c ****     {       
 920:./Libraries/STM32F4xx_HAL_Driver/Src/stm32f4xx_hal_tim.c ****       /* Disable the TIM Capture/Compare 1 DMA request */
 921:./Libraries/STM32F4xx_HAL_Driver/Src/stm32f4xx_hal_tim.c ****       __HAL_TIM_DISABLE_DMA(htim, TIM_DMA_CC1);
 1933              		.loc 1 921 7
 1934 004c 7B68     		ldr	r3, [r7, #4]
 1935 004e 1B68     		ldr	r3, [r3]
 1936 0050 DA68     		ldr	r2, [r3, #12]
 1937 0052 7B68     		ldr	r3, [r7, #4]
 1938 0054 1B68     		ldr	r3, [r3]
 1939 0056 22F40072 		bic	r2, r2, #512
 1940 005a DA60     		str	r2, [r3, #12]
 922:./Libraries/STM32F4xx_HAL_Driver/Src/stm32f4xx_hal_tim.c ****     }
 923:./Libraries/STM32F4xx_HAL_Driver/Src/stm32f4xx_hal_tim.c ****     break;
 1941              		.loc 1 923 5
 1942 005c 1BE0     		b	.L115
 1943              	.L113:
 924:./Libraries/STM32F4xx_HAL_Driver/Src/stm32f4xx_hal_tim.c ****     
 925:./Libraries/STM32F4xx_HAL_Driver/Src/stm32f4xx_hal_tim.c ****     case TIM_CHANNEL_2:
 926:./Libraries/STM32F4xx_HAL_Driver/Src/stm32f4xx_hal_tim.c ****     {
 927:./Libraries/STM32F4xx_HAL_Driver/Src/stm32f4xx_hal_tim.c ****       /* Disable the TIM Capture/Compare 2 DMA request */
 928:./Libraries/STM32F4xx_HAL_Driver/Src/stm32f4xx_hal_tim.c ****       __HAL_TIM_DISABLE_DMA(htim, TIM_DMA_CC2);
 1944              		.loc 1 928 7
 1945 005e 7B68     		ldr	r3, [r7, #4]
 1946 0060 1B68     		ldr	r3, [r3]
 1947 0062 DA68     		ldr	r2, [r3, #12]
 1948 0064 7B68     		ldr	r3, [r7, #4]
 1949 0066 1B68     		ldr	r3, [r3]
 1950 0068 22F48062 		bic	r2, r2, #1024
 1951 006c DA60     		str	r2, [r3, #12]
 929:./Libraries/STM32F4xx_HAL_Driver/Src/stm32f4xx_hal_tim.c ****     }
 930:./Libraries/STM32F4xx_HAL_Driver/Src/stm32f4xx_hal_tim.c ****     break;
 1952              		.loc 1 930 5
 1953 006e 12E0     		b	.L115
 1954              	.L112:
 931:./Libraries/STM32F4xx_HAL_Driver/Src/stm32f4xx_hal_tim.c ****     
 932:./Libraries/STM32F4xx_HAL_Driver/Src/stm32f4xx_hal_tim.c ****     case TIM_CHANNEL_3:
 933:./Libraries/STM32F4xx_HAL_Driver/Src/stm32f4xx_hal_tim.c ****     {
 934:./Libraries/STM32F4xx_HAL_Driver/Src/stm32f4xx_hal_tim.c ****       /* Disable the TIM Capture/Compare 3 DMA request */
 935:./Libraries/STM32F4xx_HAL_Driver/Src/stm32f4xx_hal_tim.c ****       __HAL_TIM_DISABLE_DMA(htim, TIM_DMA_CC3);
ARM GAS  /tmp/ccvKwMj1.s 			page 51


 1955              		.loc 1 935 7
 1956 0070 7B68     		ldr	r3, [r7, #4]
 1957 0072 1B68     		ldr	r3, [r3]
 1958 0074 DA68     		ldr	r2, [r3, #12]
 1959 0076 7B68     		ldr	r3, [r7, #4]
 1960 0078 1B68     		ldr	r3, [r3]
 1961 007a 22F40062 		bic	r2, r2, #2048
 1962 007e DA60     		str	r2, [r3, #12]
 936:./Libraries/STM32F4xx_HAL_Driver/Src/stm32f4xx_hal_tim.c ****     }
 937:./Libraries/STM32F4xx_HAL_Driver/Src/stm32f4xx_hal_tim.c ****     break;
 1963              		.loc 1 937 5
 1964 0080 09E0     		b	.L115
 1965              	.L110:
 938:./Libraries/STM32F4xx_HAL_Driver/Src/stm32f4xx_hal_tim.c ****     
 939:./Libraries/STM32F4xx_HAL_Driver/Src/stm32f4xx_hal_tim.c ****     case TIM_CHANNEL_4:
 940:./Libraries/STM32F4xx_HAL_Driver/Src/stm32f4xx_hal_tim.c ****     {
 941:./Libraries/STM32F4xx_HAL_Driver/Src/stm32f4xx_hal_tim.c ****       /* Disable the TIM Capture/Compare 4 interrupt */
 942:./Libraries/STM32F4xx_HAL_Driver/Src/stm32f4xx_hal_tim.c ****       __HAL_TIM_DISABLE_DMA(htim, TIM_DMA_CC4);
 1966              		.loc 1 942 7
 1967 0082 7B68     		ldr	r3, [r7, #4]
 1968 0084 1B68     		ldr	r3, [r3]
 1969 0086 DA68     		ldr	r2, [r3, #12]
 1970 0088 7B68     		ldr	r3, [r7, #4]
 1971 008a 1B68     		ldr	r3, [r3]
 1972 008c 22F48052 		bic	r2, r2, #4096
 1973 0090 DA60     		str	r2, [r3, #12]
 943:./Libraries/STM32F4xx_HAL_Driver/Src/stm32f4xx_hal_tim.c ****     }
 944:./Libraries/STM32F4xx_HAL_Driver/Src/stm32f4xx_hal_tim.c ****     break;
 1974              		.loc 1 944 5
 1975 0092 00E0     		b	.L115
 1976              	.L122:
 945:./Libraries/STM32F4xx_HAL_Driver/Src/stm32f4xx_hal_tim.c ****     
 946:./Libraries/STM32F4xx_HAL_Driver/Src/stm32f4xx_hal_tim.c ****     default:
 947:./Libraries/STM32F4xx_HAL_Driver/Src/stm32f4xx_hal_tim.c ****     break;
 1977              		.loc 1 947 5
 1978 0094 00BF     		nop
 1979              	.L115:
 948:./Libraries/STM32F4xx_HAL_Driver/Src/stm32f4xx_hal_tim.c ****   } 
 949:./Libraries/STM32F4xx_HAL_Driver/Src/stm32f4xx_hal_tim.c ****   
 950:./Libraries/STM32F4xx_HAL_Driver/Src/stm32f4xx_hal_tim.c ****   /* Disable the Output compare channel */
 951:./Libraries/STM32F4xx_HAL_Driver/Src/stm32f4xx_hal_tim.c ****   TIM_CCxChannelCmd(htim->Instance, Channel, TIM_CCx_DISABLE);
 1980              		.loc 1 951 3
 1981 0096 7B68     		ldr	r3, [r7, #4]
 1982 0098 1B68     		ldr	r3, [r3]
 1983 009a 0022     		movs	r2, #0
 1984 009c 3968     		ldr	r1, [r7]
 1985 009e 1846     		mov	r0, r3
 1986 00a0 FFF7FEFF 		bl	TIM_CCxChannelCmd
 952:./Libraries/STM32F4xx_HAL_Driver/Src/stm32f4xx_hal_tim.c ****   
 953:./Libraries/STM32F4xx_HAL_Driver/Src/stm32f4xx_hal_tim.c ****   if(IS_TIM_ADVANCED_INSTANCE(htim->Instance) != RESET)  
 1987              		.loc 1 953 6
 1988 00a4 7B68     		ldr	r3, [r7, #4]
 1989 00a6 1B68     		ldr	r3, [r3]
 1990 00a8 224A     		ldr	r2, .L123
 1991 00aa 9342     		cmp	r3, r2
 1992 00ac 04D0     		beq	.L116
 1993              		.loc 1 953 6 is_stmt 0 discriminator 2
ARM GAS  /tmp/ccvKwMj1.s 			page 52


 1994 00ae 7B68     		ldr	r3, [r7, #4]
 1995 00b0 1B68     		ldr	r3, [r3]
 1996 00b2 214A     		ldr	r2, .L123+4
 1997 00b4 9342     		cmp	r3, r2
 1998 00b6 01D1     		bne	.L117
 1999              	.L116:
 2000              		.loc 1 953 6 discriminator 3
 2001 00b8 0123     		movs	r3, #1
 2002 00ba 00E0     		b	.L118
 2003              	.L117:
 2004              		.loc 1 953 6 discriminator 4
 2005 00bc 0023     		movs	r3, #0
 2006              	.L118:
 2007              		.loc 1 953 5 is_stmt 1 discriminator 6
 2008 00be 002B     		cmp	r3, #0
 2009 00c0 17D0     		beq	.L119
 954:./Libraries/STM32F4xx_HAL_Driver/Src/stm32f4xx_hal_tim.c ****   {
 955:./Libraries/STM32F4xx_HAL_Driver/Src/stm32f4xx_hal_tim.c ****     /* Disable the Main Output */
 956:./Libraries/STM32F4xx_HAL_Driver/Src/stm32f4xx_hal_tim.c ****     __HAL_TIM_MOE_DISABLE(htim);
 2010              		.loc 1 956 5
 2011 00c2 7B68     		ldr	r3, [r7, #4]
 2012 00c4 1B68     		ldr	r3, [r3]
 2013 00c6 1A6A     		ldr	r2, [r3, #32]
 2014 00c8 41F21113 		movw	r3, #4369
 2015 00cc 1340     		ands	r3, r3, r2
 2016 00ce 002B     		cmp	r3, #0
 2017 00d0 0FD1     		bne	.L119
 2018              		.loc 1 956 5 is_stmt 0 discriminator 1
 2019 00d2 7B68     		ldr	r3, [r7, #4]
 2020 00d4 1B68     		ldr	r3, [r3]
 2021 00d6 1A6A     		ldr	r2, [r3, #32]
 2022 00d8 40F24443 		movw	r3, #1092
 2023 00dc 1340     		ands	r3, r3, r2
 2024 00de 002B     		cmp	r3, #0
 2025 00e0 07D1     		bne	.L119
 2026              		.loc 1 956 5 discriminator 2
 2027 00e2 7B68     		ldr	r3, [r7, #4]
 2028 00e4 1B68     		ldr	r3, [r3]
 2029 00e6 5A6C     		ldr	r2, [r3, #68]
 2030 00e8 7B68     		ldr	r3, [r7, #4]
 2031 00ea 1B68     		ldr	r3, [r3]
 2032 00ec 22F40042 		bic	r2, r2, #32768
 2033 00f0 5A64     		str	r2, [r3, #68]
 2034              	.L119:
 957:./Libraries/STM32F4xx_HAL_Driver/Src/stm32f4xx_hal_tim.c ****   }
 958:./Libraries/STM32F4xx_HAL_Driver/Src/stm32f4xx_hal_tim.c ****   
 959:./Libraries/STM32F4xx_HAL_Driver/Src/stm32f4xx_hal_tim.c ****   /* Disable the Peripheral */
 960:./Libraries/STM32F4xx_HAL_Driver/Src/stm32f4xx_hal_tim.c ****   __HAL_TIM_DISABLE(htim);
 2035              		.loc 1 960 3 is_stmt 1
 2036 00f2 7B68     		ldr	r3, [r7, #4]
 2037 00f4 1B68     		ldr	r3, [r3]
 2038 00f6 1A6A     		ldr	r2, [r3, #32]
 2039 00f8 41F21113 		movw	r3, #4369
 2040 00fc 1340     		ands	r3, r3, r2
 2041 00fe 002B     		cmp	r3, #0
 2042 0100 0FD1     		bne	.L120
 2043              		.loc 1 960 3 is_stmt 0 discriminator 1
ARM GAS  /tmp/ccvKwMj1.s 			page 53


 2044 0102 7B68     		ldr	r3, [r7, #4]
 2045 0104 1B68     		ldr	r3, [r3]
 2046 0106 1A6A     		ldr	r2, [r3, #32]
 2047 0108 40F24443 		movw	r3, #1092
 2048 010c 1340     		ands	r3, r3, r2
 2049 010e 002B     		cmp	r3, #0
 2050 0110 07D1     		bne	.L120
 2051              		.loc 1 960 3 discriminator 2
 2052 0112 7B68     		ldr	r3, [r7, #4]
 2053 0114 1B68     		ldr	r3, [r3]
 2054 0116 1A68     		ldr	r2, [r3]
 2055 0118 7B68     		ldr	r3, [r7, #4]
 2056 011a 1B68     		ldr	r3, [r3]
 2057 011c 22F00102 		bic	r2, r2, #1
 2058 0120 1A60     		str	r2, [r3]
 2059              	.L120:
 961:./Libraries/STM32F4xx_HAL_Driver/Src/stm32f4xx_hal_tim.c ****   
 962:./Libraries/STM32F4xx_HAL_Driver/Src/stm32f4xx_hal_tim.c ****   /* Change the htim state */
 963:./Libraries/STM32F4xx_HAL_Driver/Src/stm32f4xx_hal_tim.c ****   htim->State = HAL_TIM_STATE_READY;
 2060              		.loc 1 963 15 is_stmt 1
 2061 0122 7B68     		ldr	r3, [r7, #4]
 2062 0124 0122     		movs	r2, #1
 2063 0126 83F83920 		strb	r2, [r3, #57]
 964:./Libraries/STM32F4xx_HAL_Driver/Src/stm32f4xx_hal_tim.c ****   
 965:./Libraries/STM32F4xx_HAL_Driver/Src/stm32f4xx_hal_tim.c ****   /* Return function status */
 966:./Libraries/STM32F4xx_HAL_Driver/Src/stm32f4xx_hal_tim.c ****   return HAL_OK;
 2064              		.loc 1 966 10
 2065 012a 0023     		movs	r3, #0
 967:./Libraries/STM32F4xx_HAL_Driver/Src/stm32f4xx_hal_tim.c **** }
 2066              		.loc 1 967 1
 2067 012c 1846     		mov	r0, r3
 2068 012e 0837     		adds	r7, r7, #8
 2069              	.LCFI107:
 2070              		.cfi_def_cfa_offset 8
 2071 0130 BD46     		mov	sp, r7
 2072              	.LCFI108:
 2073              		.cfi_def_cfa_register 13
 2074              		@ sp needed
 2075 0132 80BD     		pop	{r7, pc}
 2076              	.L124:
 2077              		.align	2
 2078              	.L123:
 2079 0134 00000140 		.word	1073807360
 2080 0138 00040140 		.word	1073808384
 2081              		.cfi_endproc
 2082              	.LFE145:
 2084              		.section	.text.HAL_TIM_PWM_Init,"ax",%progbits
 2085              		.align	1
 2086              		.global	HAL_TIM_PWM_Init
 2087              		.syntax unified
 2088              		.thumb
 2089              		.thumb_func
 2090              		.fpu fpv4-sp-d16
 2092              	HAL_TIM_PWM_Init:
 2093              	.LFB146:
 968:./Libraries/STM32F4xx_HAL_Driver/Src/stm32f4xx_hal_tim.c **** /**
 969:./Libraries/STM32F4xx_HAL_Driver/Src/stm32f4xx_hal_tim.c ****   * @}
ARM GAS  /tmp/ccvKwMj1.s 			page 54


 970:./Libraries/STM32F4xx_HAL_Driver/Src/stm32f4xx_hal_tim.c ****   */
 971:./Libraries/STM32F4xx_HAL_Driver/Src/stm32f4xx_hal_tim.c **** 
 972:./Libraries/STM32F4xx_HAL_Driver/Src/stm32f4xx_hal_tim.c **** /** @defgroup TIM_Exported_Functions_Group3 Time PWM functions 
 973:./Libraries/STM32F4xx_HAL_Driver/Src/stm32f4xx_hal_tim.c ****  *  @brief    Time PWM functions 
 974:./Libraries/STM32F4xx_HAL_Driver/Src/stm32f4xx_hal_tim.c ****  *
 975:./Libraries/STM32F4xx_HAL_Driver/Src/stm32f4xx_hal_tim.c **** @verbatim    
 976:./Libraries/STM32F4xx_HAL_Driver/Src/stm32f4xx_hal_tim.c ****   ==============================================================================
 977:./Libraries/STM32F4xx_HAL_Driver/Src/stm32f4xx_hal_tim.c ****                           ##### Time PWM functions #####
 978:./Libraries/STM32F4xx_HAL_Driver/Src/stm32f4xx_hal_tim.c ****   ==============================================================================
 979:./Libraries/STM32F4xx_HAL_Driver/Src/stm32f4xx_hal_tim.c ****   [..]  
 980:./Libraries/STM32F4xx_HAL_Driver/Src/stm32f4xx_hal_tim.c ****     This section provides functions allowing to:
 981:./Libraries/STM32F4xx_HAL_Driver/Src/stm32f4xx_hal_tim.c ****     (+) Initialize and configure the TIM OPWM. 
 982:./Libraries/STM32F4xx_HAL_Driver/Src/stm32f4xx_hal_tim.c ****     (+) De-initialize the TIM PWM.
 983:./Libraries/STM32F4xx_HAL_Driver/Src/stm32f4xx_hal_tim.c ****     (+) Start the Time PWM.
 984:./Libraries/STM32F4xx_HAL_Driver/Src/stm32f4xx_hal_tim.c ****     (+) Stop the Time PWM.
 985:./Libraries/STM32F4xx_HAL_Driver/Src/stm32f4xx_hal_tim.c ****     (+) Start the Time PWM and enable interrupt.
 986:./Libraries/STM32F4xx_HAL_Driver/Src/stm32f4xx_hal_tim.c ****     (+) Stop the Time PWM and disable interrupt.
 987:./Libraries/STM32F4xx_HAL_Driver/Src/stm32f4xx_hal_tim.c ****     (+) Start the Time PWM and enable DMA transfer.
 988:./Libraries/STM32F4xx_HAL_Driver/Src/stm32f4xx_hal_tim.c ****     (+) Stop the Time PWM and disable DMA transfer.
 989:./Libraries/STM32F4xx_HAL_Driver/Src/stm32f4xx_hal_tim.c ****  
 990:./Libraries/STM32F4xx_HAL_Driver/Src/stm32f4xx_hal_tim.c **** @endverbatim
 991:./Libraries/STM32F4xx_HAL_Driver/Src/stm32f4xx_hal_tim.c ****   * @{
 992:./Libraries/STM32F4xx_HAL_Driver/Src/stm32f4xx_hal_tim.c ****   */
 993:./Libraries/STM32F4xx_HAL_Driver/Src/stm32f4xx_hal_tim.c **** /**
 994:./Libraries/STM32F4xx_HAL_Driver/Src/stm32f4xx_hal_tim.c ****   * @brief  Initializes the TIM PWM Time Base according to the specified
 995:./Libraries/STM32F4xx_HAL_Driver/Src/stm32f4xx_hal_tim.c ****   *         parameters in the TIM_HandleTypeDef and create the associated handle.
 996:./Libraries/STM32F4xx_HAL_Driver/Src/stm32f4xx_hal_tim.c ****   * @param  htim pointer to a TIM_HandleTypeDef structure that contains
 997:./Libraries/STM32F4xx_HAL_Driver/Src/stm32f4xx_hal_tim.c ****   *                the configuration information for TIM module.
 998:./Libraries/STM32F4xx_HAL_Driver/Src/stm32f4xx_hal_tim.c ****   * @retval HAL status
 999:./Libraries/STM32F4xx_HAL_Driver/Src/stm32f4xx_hal_tim.c ****   */
1000:./Libraries/STM32F4xx_HAL_Driver/Src/stm32f4xx_hal_tim.c **** HAL_StatusTypeDef HAL_TIM_PWM_Init(TIM_HandleTypeDef *htim)
1001:./Libraries/STM32F4xx_HAL_Driver/Src/stm32f4xx_hal_tim.c **** {
 2094              		.loc 1 1001 1
 2095              		.cfi_startproc
 2096              		@ args = 0, pretend = 0, frame = 8
 2097              		@ frame_needed = 1, uses_anonymous_args = 0
 2098 0000 80B5     		push	{r7, lr}
 2099              	.LCFI109:
 2100              		.cfi_def_cfa_offset 8
 2101              		.cfi_offset 7, -8
 2102              		.cfi_offset 14, -4
 2103 0002 82B0     		sub	sp, sp, #8
 2104              	.LCFI110:
 2105              		.cfi_def_cfa_offset 16
 2106 0004 00AF     		add	r7, sp, #0
 2107              	.LCFI111:
 2108              		.cfi_def_cfa_register 7
 2109 0006 7860     		str	r0, [r7, #4]
1002:./Libraries/STM32F4xx_HAL_Driver/Src/stm32f4xx_hal_tim.c ****   /* Check the TIM handle allocation */
1003:./Libraries/STM32F4xx_HAL_Driver/Src/stm32f4xx_hal_tim.c ****   if(htim == NULL)
 2110              		.loc 1 1003 5
 2111 0008 7B68     		ldr	r3, [r7, #4]
 2112 000a 002B     		cmp	r3, #0
 2113 000c 01D1     		bne	.L126
1004:./Libraries/STM32F4xx_HAL_Driver/Src/stm32f4xx_hal_tim.c ****   {
1005:./Libraries/STM32F4xx_HAL_Driver/Src/stm32f4xx_hal_tim.c ****     return HAL_ERROR;
 2114              		.loc 1 1005 12
ARM GAS  /tmp/ccvKwMj1.s 			page 55


 2115 000e 0123     		movs	r3, #1
 2116 0010 1DE0     		b	.L127
 2117              	.L126:
1006:./Libraries/STM32F4xx_HAL_Driver/Src/stm32f4xx_hal_tim.c ****   }
1007:./Libraries/STM32F4xx_HAL_Driver/Src/stm32f4xx_hal_tim.c **** 
1008:./Libraries/STM32F4xx_HAL_Driver/Src/stm32f4xx_hal_tim.c ****   /* Check the parameters */
1009:./Libraries/STM32F4xx_HAL_Driver/Src/stm32f4xx_hal_tim.c ****   assert_param(IS_TIM_INSTANCE(htim->Instance));
1010:./Libraries/STM32F4xx_HAL_Driver/Src/stm32f4xx_hal_tim.c ****   assert_param(IS_TIM_COUNTER_MODE(htim->Init.CounterMode));
1011:./Libraries/STM32F4xx_HAL_Driver/Src/stm32f4xx_hal_tim.c ****   assert_param(IS_TIM_CLOCKDIVISION_DIV(htim->Init.ClockDivision));
1012:./Libraries/STM32F4xx_HAL_Driver/Src/stm32f4xx_hal_tim.c **** 
1013:./Libraries/STM32F4xx_HAL_Driver/Src/stm32f4xx_hal_tim.c ****   if(htim->State == HAL_TIM_STATE_RESET)
 2118              		.loc 1 1013 10
 2119 0012 7B68     		ldr	r3, [r7, #4]
 2120 0014 93F83930 		ldrb	r3, [r3, #57]
 2121 0018 DBB2     		uxtb	r3, r3
 2122              		.loc 1 1013 5
 2123 001a 002B     		cmp	r3, #0
 2124 001c 06D1     		bne	.L128
1014:./Libraries/STM32F4xx_HAL_Driver/Src/stm32f4xx_hal_tim.c ****   {
1015:./Libraries/STM32F4xx_HAL_Driver/Src/stm32f4xx_hal_tim.c ****     /* Allocate lock resource and initialize it */
1016:./Libraries/STM32F4xx_HAL_Driver/Src/stm32f4xx_hal_tim.c ****     htim->Lock = HAL_UNLOCKED;
 2125              		.loc 1 1016 16
 2126 001e 7B68     		ldr	r3, [r7, #4]
 2127 0020 0022     		movs	r2, #0
 2128 0022 83F83820 		strb	r2, [r3, #56]
1017:./Libraries/STM32F4xx_HAL_Driver/Src/stm32f4xx_hal_tim.c ****     /* Init the low level hardware : GPIO, CLOCK, NVIC and DMA */
1018:./Libraries/STM32F4xx_HAL_Driver/Src/stm32f4xx_hal_tim.c ****     HAL_TIM_PWM_MspInit(htim);
 2129              		.loc 1 1018 5
 2130 0026 7868     		ldr	r0, [r7, #4]
 2131 0028 FFF7FEFF 		bl	HAL_TIM_PWM_MspInit
 2132              	.L128:
1019:./Libraries/STM32F4xx_HAL_Driver/Src/stm32f4xx_hal_tim.c ****   }
1020:./Libraries/STM32F4xx_HAL_Driver/Src/stm32f4xx_hal_tim.c **** 
1021:./Libraries/STM32F4xx_HAL_Driver/Src/stm32f4xx_hal_tim.c ****   /* Set the TIM state */
1022:./Libraries/STM32F4xx_HAL_Driver/Src/stm32f4xx_hal_tim.c ****   htim->State= HAL_TIM_STATE_BUSY;  
 2133              		.loc 1 1022 14
 2134 002c 7B68     		ldr	r3, [r7, #4]
 2135 002e 0222     		movs	r2, #2
 2136 0030 83F83920 		strb	r2, [r3, #57]
1023:./Libraries/STM32F4xx_HAL_Driver/Src/stm32f4xx_hal_tim.c ****   
1024:./Libraries/STM32F4xx_HAL_Driver/Src/stm32f4xx_hal_tim.c ****   /* Init the base time for the PWM */  
1025:./Libraries/STM32F4xx_HAL_Driver/Src/stm32f4xx_hal_tim.c ****   TIM_Base_SetConfig(htim->Instance, &htim->Init); 
 2137              		.loc 1 1025 3
 2138 0034 7B68     		ldr	r3, [r7, #4]
 2139 0036 1A68     		ldr	r2, [r3]
 2140 0038 7B68     		ldr	r3, [r7, #4]
 2141 003a 0433     		adds	r3, r3, #4
 2142 003c 1946     		mov	r1, r3
 2143 003e 1046     		mov	r0, r2
 2144 0040 FFF7FEFF 		bl	TIM_Base_SetConfig
1026:./Libraries/STM32F4xx_HAL_Driver/Src/stm32f4xx_hal_tim.c ****    
1027:./Libraries/STM32F4xx_HAL_Driver/Src/stm32f4xx_hal_tim.c ****   /* Initialize the TIM state*/
1028:./Libraries/STM32F4xx_HAL_Driver/Src/stm32f4xx_hal_tim.c ****   htim->State= HAL_TIM_STATE_READY;
 2145              		.loc 1 1028 14
 2146 0044 7B68     		ldr	r3, [r7, #4]
 2147 0046 0122     		movs	r2, #1
 2148 0048 83F83920 		strb	r2, [r3, #57]
ARM GAS  /tmp/ccvKwMj1.s 			page 56


1029:./Libraries/STM32F4xx_HAL_Driver/Src/stm32f4xx_hal_tim.c ****   
1030:./Libraries/STM32F4xx_HAL_Driver/Src/stm32f4xx_hal_tim.c ****   return HAL_OK;
 2149              		.loc 1 1030 10
 2150 004c 0023     		movs	r3, #0
 2151              	.L127:
1031:./Libraries/STM32F4xx_HAL_Driver/Src/stm32f4xx_hal_tim.c **** }  
 2152              		.loc 1 1031 1
 2153 004e 1846     		mov	r0, r3
 2154 0050 0837     		adds	r7, r7, #8
 2155              	.LCFI112:
 2156              		.cfi_def_cfa_offset 8
 2157 0052 BD46     		mov	sp, r7
 2158              	.LCFI113:
 2159              		.cfi_def_cfa_register 13
 2160              		@ sp needed
 2161 0054 80BD     		pop	{r7, pc}
 2162              		.cfi_endproc
 2163              	.LFE146:
 2165              		.section	.text.HAL_TIM_PWM_DeInit,"ax",%progbits
 2166              		.align	1
 2167              		.global	HAL_TIM_PWM_DeInit
 2168              		.syntax unified
 2169              		.thumb
 2170              		.thumb_func
 2171              		.fpu fpv4-sp-d16
 2173              	HAL_TIM_PWM_DeInit:
 2174              	.LFB147:
1032:./Libraries/STM32F4xx_HAL_Driver/Src/stm32f4xx_hal_tim.c **** 
1033:./Libraries/STM32F4xx_HAL_Driver/Src/stm32f4xx_hal_tim.c **** /**
1034:./Libraries/STM32F4xx_HAL_Driver/Src/stm32f4xx_hal_tim.c ****   * @brief  DeInitializes the TIM peripheral 
1035:./Libraries/STM32F4xx_HAL_Driver/Src/stm32f4xx_hal_tim.c ****   * @param  htim pointer to a TIM_HandleTypeDef structure that contains
1036:./Libraries/STM32F4xx_HAL_Driver/Src/stm32f4xx_hal_tim.c ****   *                the configuration information for TIM module.
1037:./Libraries/STM32F4xx_HAL_Driver/Src/stm32f4xx_hal_tim.c ****   * @retval HAL status
1038:./Libraries/STM32F4xx_HAL_Driver/Src/stm32f4xx_hal_tim.c ****   */
1039:./Libraries/STM32F4xx_HAL_Driver/Src/stm32f4xx_hal_tim.c **** HAL_StatusTypeDef HAL_TIM_PWM_DeInit(TIM_HandleTypeDef *htim)
1040:./Libraries/STM32F4xx_HAL_Driver/Src/stm32f4xx_hal_tim.c **** {
 2175              		.loc 1 1040 1
 2176              		.cfi_startproc
 2177              		@ args = 0, pretend = 0, frame = 8
 2178              		@ frame_needed = 1, uses_anonymous_args = 0
 2179 0000 80B5     		push	{r7, lr}
 2180              	.LCFI114:
 2181              		.cfi_def_cfa_offset 8
 2182              		.cfi_offset 7, -8
 2183              		.cfi_offset 14, -4
 2184 0002 82B0     		sub	sp, sp, #8
 2185              	.LCFI115:
 2186              		.cfi_def_cfa_offset 16
 2187 0004 00AF     		add	r7, sp, #0
 2188              	.LCFI116:
 2189              		.cfi_def_cfa_register 7
 2190 0006 7860     		str	r0, [r7, #4]
1041:./Libraries/STM32F4xx_HAL_Driver/Src/stm32f4xx_hal_tim.c ****   /* Check the parameters */
1042:./Libraries/STM32F4xx_HAL_Driver/Src/stm32f4xx_hal_tim.c ****   assert_param(IS_TIM_INSTANCE(htim->Instance));
1043:./Libraries/STM32F4xx_HAL_Driver/Src/stm32f4xx_hal_tim.c ****   
1044:./Libraries/STM32F4xx_HAL_Driver/Src/stm32f4xx_hal_tim.c ****   htim->State = HAL_TIM_STATE_BUSY;
 2191              		.loc 1 1044 15
ARM GAS  /tmp/ccvKwMj1.s 			page 57


 2192 0008 7B68     		ldr	r3, [r7, #4]
 2193 000a 0222     		movs	r2, #2
 2194 000c 83F83920 		strb	r2, [r3, #57]
1045:./Libraries/STM32F4xx_HAL_Driver/Src/stm32f4xx_hal_tim.c ****   
1046:./Libraries/STM32F4xx_HAL_Driver/Src/stm32f4xx_hal_tim.c ****   /* Disable the TIM Peripheral Clock */
1047:./Libraries/STM32F4xx_HAL_Driver/Src/stm32f4xx_hal_tim.c ****   __HAL_TIM_DISABLE(htim);
 2195              		.loc 1 1047 3
 2196 0010 7B68     		ldr	r3, [r7, #4]
 2197 0012 1B68     		ldr	r3, [r3]
 2198 0014 1A6A     		ldr	r2, [r3, #32]
 2199 0016 41F21113 		movw	r3, #4369
 2200 001a 1340     		ands	r3, r3, r2
 2201 001c 002B     		cmp	r3, #0
 2202 001e 0FD1     		bne	.L130
 2203              		.loc 1 1047 3 is_stmt 0 discriminator 1
 2204 0020 7B68     		ldr	r3, [r7, #4]
 2205 0022 1B68     		ldr	r3, [r3]
 2206 0024 1A6A     		ldr	r2, [r3, #32]
 2207 0026 40F24443 		movw	r3, #1092
 2208 002a 1340     		ands	r3, r3, r2
 2209 002c 002B     		cmp	r3, #0
 2210 002e 07D1     		bne	.L130
 2211              		.loc 1 1047 3 discriminator 2
 2212 0030 7B68     		ldr	r3, [r7, #4]
 2213 0032 1B68     		ldr	r3, [r3]
 2214 0034 1A68     		ldr	r2, [r3]
 2215 0036 7B68     		ldr	r3, [r7, #4]
 2216 0038 1B68     		ldr	r3, [r3]
 2217 003a 22F00102 		bic	r2, r2, #1
 2218 003e 1A60     		str	r2, [r3]
 2219              	.L130:
1048:./Libraries/STM32F4xx_HAL_Driver/Src/stm32f4xx_hal_tim.c ****     
1049:./Libraries/STM32F4xx_HAL_Driver/Src/stm32f4xx_hal_tim.c ****   /* DeInit the low level hardware: GPIO, CLOCK, NVIC and DMA */
1050:./Libraries/STM32F4xx_HAL_Driver/Src/stm32f4xx_hal_tim.c ****   HAL_TIM_PWM_MspDeInit(htim);
 2220              		.loc 1 1050 3 is_stmt 1
 2221 0040 7868     		ldr	r0, [r7, #4]
 2222 0042 FFF7FEFF 		bl	HAL_TIM_PWM_MspDeInit
1051:./Libraries/STM32F4xx_HAL_Driver/Src/stm32f4xx_hal_tim.c ****     
1052:./Libraries/STM32F4xx_HAL_Driver/Src/stm32f4xx_hal_tim.c ****   /* Change TIM state */  
1053:./Libraries/STM32F4xx_HAL_Driver/Src/stm32f4xx_hal_tim.c ****   htim->State = HAL_TIM_STATE_RESET; 
 2223              		.loc 1 1053 15
 2224 0046 7B68     		ldr	r3, [r7, #4]
 2225 0048 0022     		movs	r2, #0
 2226 004a 83F83920 		strb	r2, [r3, #57]
1054:./Libraries/STM32F4xx_HAL_Driver/Src/stm32f4xx_hal_tim.c **** 
1055:./Libraries/STM32F4xx_HAL_Driver/Src/stm32f4xx_hal_tim.c ****   /* Release Lock */
1056:./Libraries/STM32F4xx_HAL_Driver/Src/stm32f4xx_hal_tim.c ****   __HAL_UNLOCK(htim);
 2227              		.loc 1 1056 3
 2228 004e 7B68     		ldr	r3, [r7, #4]
 2229 0050 0022     		movs	r2, #0
 2230 0052 83F83820 		strb	r2, [r3, #56]
1057:./Libraries/STM32F4xx_HAL_Driver/Src/stm32f4xx_hal_tim.c **** 
1058:./Libraries/STM32F4xx_HAL_Driver/Src/stm32f4xx_hal_tim.c ****   return HAL_OK;
 2231              		.loc 1 1058 10
 2232 0056 0023     		movs	r3, #0
1059:./Libraries/STM32F4xx_HAL_Driver/Src/stm32f4xx_hal_tim.c **** }
 2233              		.loc 1 1059 1
ARM GAS  /tmp/ccvKwMj1.s 			page 58


 2234 0058 1846     		mov	r0, r3
 2235 005a 0837     		adds	r7, r7, #8
 2236              	.LCFI117:
 2237              		.cfi_def_cfa_offset 8
 2238 005c BD46     		mov	sp, r7
 2239              	.LCFI118:
 2240              		.cfi_def_cfa_register 13
 2241              		@ sp needed
 2242 005e 80BD     		pop	{r7, pc}
 2243              		.cfi_endproc
 2244              	.LFE147:
 2246              		.section	.text.HAL_TIM_PWM_MspInit,"ax",%progbits
 2247              		.align	1
 2248              		.weak	HAL_TIM_PWM_MspInit
 2249              		.syntax unified
 2250              		.thumb
 2251              		.thumb_func
 2252              		.fpu fpv4-sp-d16
 2254              	HAL_TIM_PWM_MspInit:
 2255              	.LFB148:
1060:./Libraries/STM32F4xx_HAL_Driver/Src/stm32f4xx_hal_tim.c **** 
1061:./Libraries/STM32F4xx_HAL_Driver/Src/stm32f4xx_hal_tim.c **** /**
1062:./Libraries/STM32F4xx_HAL_Driver/Src/stm32f4xx_hal_tim.c ****   * @brief  Initializes the TIM PWM MSP.
1063:./Libraries/STM32F4xx_HAL_Driver/Src/stm32f4xx_hal_tim.c ****   * @param  htim pointer to a TIM_HandleTypeDef structure that contains
1064:./Libraries/STM32F4xx_HAL_Driver/Src/stm32f4xx_hal_tim.c ****   *                the configuration information for TIM module.
1065:./Libraries/STM32F4xx_HAL_Driver/Src/stm32f4xx_hal_tim.c ****   * @retval None
1066:./Libraries/STM32F4xx_HAL_Driver/Src/stm32f4xx_hal_tim.c ****   */
1067:./Libraries/STM32F4xx_HAL_Driver/Src/stm32f4xx_hal_tim.c **** __weak void HAL_TIM_PWM_MspInit(TIM_HandleTypeDef *htim)
1068:./Libraries/STM32F4xx_HAL_Driver/Src/stm32f4xx_hal_tim.c **** {
 2256              		.loc 1 1068 1
 2257              		.cfi_startproc
 2258              		@ args = 0, pretend = 0, frame = 8
 2259              		@ frame_needed = 1, uses_anonymous_args = 0
 2260              		@ link register save eliminated.
 2261 0000 80B4     		push	{r7}
 2262              	.LCFI119:
 2263              		.cfi_def_cfa_offset 4
 2264              		.cfi_offset 7, -4
 2265 0002 83B0     		sub	sp, sp, #12
 2266              	.LCFI120:
 2267              		.cfi_def_cfa_offset 16
 2268 0004 00AF     		add	r7, sp, #0
 2269              	.LCFI121:
 2270              		.cfi_def_cfa_register 7
 2271 0006 7860     		str	r0, [r7, #4]
1069:./Libraries/STM32F4xx_HAL_Driver/Src/stm32f4xx_hal_tim.c ****   /* Prevent unused argument(s) compilation warning */
1070:./Libraries/STM32F4xx_HAL_Driver/Src/stm32f4xx_hal_tim.c ****   UNUSED(htim);
1071:./Libraries/STM32F4xx_HAL_Driver/Src/stm32f4xx_hal_tim.c ****   /* NOTE : This function Should not be modified, when the callback is needed,
1072:./Libraries/STM32F4xx_HAL_Driver/Src/stm32f4xx_hal_tim.c ****             the HAL_TIM_PWM_MspInit could be implemented in the user file
1073:./Libraries/STM32F4xx_HAL_Driver/Src/stm32f4xx_hal_tim.c ****    */
1074:./Libraries/STM32F4xx_HAL_Driver/Src/stm32f4xx_hal_tim.c **** }
 2272              		.loc 1 1074 1
 2273 0008 00BF     		nop
 2274 000a 0C37     		adds	r7, r7, #12
 2275              	.LCFI122:
 2276              		.cfi_def_cfa_offset 4
 2277 000c BD46     		mov	sp, r7
ARM GAS  /tmp/ccvKwMj1.s 			page 59


 2278              	.LCFI123:
 2279              		.cfi_def_cfa_register 13
 2280              		@ sp needed
 2281 000e 5DF8047B 		ldr	r7, [sp], #4
 2282              	.LCFI124:
 2283              		.cfi_restore 7
 2284              		.cfi_def_cfa_offset 0
 2285 0012 7047     		bx	lr
 2286              		.cfi_endproc
 2287              	.LFE148:
 2289              		.section	.text.HAL_TIM_PWM_MspDeInit,"ax",%progbits
 2290              		.align	1
 2291              		.weak	HAL_TIM_PWM_MspDeInit
 2292              		.syntax unified
 2293              		.thumb
 2294              		.thumb_func
 2295              		.fpu fpv4-sp-d16
 2297              	HAL_TIM_PWM_MspDeInit:
 2298              	.LFB149:
1075:./Libraries/STM32F4xx_HAL_Driver/Src/stm32f4xx_hal_tim.c **** 
1076:./Libraries/STM32F4xx_HAL_Driver/Src/stm32f4xx_hal_tim.c **** /**
1077:./Libraries/STM32F4xx_HAL_Driver/Src/stm32f4xx_hal_tim.c ****   * @brief  DeInitializes TIM PWM MSP.
1078:./Libraries/STM32F4xx_HAL_Driver/Src/stm32f4xx_hal_tim.c ****   * @param  htim pointer to a TIM_HandleTypeDef structure that contains
1079:./Libraries/STM32F4xx_HAL_Driver/Src/stm32f4xx_hal_tim.c ****   *                the configuration information for TIM module.
1080:./Libraries/STM32F4xx_HAL_Driver/Src/stm32f4xx_hal_tim.c ****   * @retval None
1081:./Libraries/STM32F4xx_HAL_Driver/Src/stm32f4xx_hal_tim.c ****   */
1082:./Libraries/STM32F4xx_HAL_Driver/Src/stm32f4xx_hal_tim.c **** __weak void HAL_TIM_PWM_MspDeInit(TIM_HandleTypeDef *htim)
1083:./Libraries/STM32F4xx_HAL_Driver/Src/stm32f4xx_hal_tim.c **** {
 2299              		.loc 1 1083 1
 2300              		.cfi_startproc
 2301              		@ args = 0, pretend = 0, frame = 8
 2302              		@ frame_needed = 1, uses_anonymous_args = 0
 2303              		@ link register save eliminated.
 2304 0000 80B4     		push	{r7}
 2305              	.LCFI125:
 2306              		.cfi_def_cfa_offset 4
 2307              		.cfi_offset 7, -4
 2308 0002 83B0     		sub	sp, sp, #12
 2309              	.LCFI126:
 2310              		.cfi_def_cfa_offset 16
 2311 0004 00AF     		add	r7, sp, #0
 2312              	.LCFI127:
 2313              		.cfi_def_cfa_register 7
 2314 0006 7860     		str	r0, [r7, #4]
1084:./Libraries/STM32F4xx_HAL_Driver/Src/stm32f4xx_hal_tim.c ****   /* Prevent unused argument(s) compilation warning */
1085:./Libraries/STM32F4xx_HAL_Driver/Src/stm32f4xx_hal_tim.c ****   UNUSED(htim);
1086:./Libraries/STM32F4xx_HAL_Driver/Src/stm32f4xx_hal_tim.c ****   /* NOTE : This function Should not be modified, when the callback is needed,
1087:./Libraries/STM32F4xx_HAL_Driver/Src/stm32f4xx_hal_tim.c ****             the HAL_TIM_PWM_MspDeInit could be implemented in the user file
1088:./Libraries/STM32F4xx_HAL_Driver/Src/stm32f4xx_hal_tim.c ****    */
1089:./Libraries/STM32F4xx_HAL_Driver/Src/stm32f4xx_hal_tim.c **** }
 2315              		.loc 1 1089 1
 2316 0008 00BF     		nop
 2317 000a 0C37     		adds	r7, r7, #12
 2318              	.LCFI128:
 2319              		.cfi_def_cfa_offset 4
 2320 000c BD46     		mov	sp, r7
 2321              	.LCFI129:
ARM GAS  /tmp/ccvKwMj1.s 			page 60


 2322              		.cfi_def_cfa_register 13
 2323              		@ sp needed
 2324 000e 5DF8047B 		ldr	r7, [sp], #4
 2325              	.LCFI130:
 2326              		.cfi_restore 7
 2327              		.cfi_def_cfa_offset 0
 2328 0012 7047     		bx	lr
 2329              		.cfi_endproc
 2330              	.LFE149:
 2332              		.section	.text.HAL_TIM_PWM_Start,"ax",%progbits
 2333              		.align	1
 2334              		.global	HAL_TIM_PWM_Start
 2335              		.syntax unified
 2336              		.thumb
 2337              		.thumb_func
 2338              		.fpu fpv4-sp-d16
 2340              	HAL_TIM_PWM_Start:
 2341              	.LFB150:
1090:./Libraries/STM32F4xx_HAL_Driver/Src/stm32f4xx_hal_tim.c **** 
1091:./Libraries/STM32F4xx_HAL_Driver/Src/stm32f4xx_hal_tim.c **** /**
1092:./Libraries/STM32F4xx_HAL_Driver/Src/stm32f4xx_hal_tim.c ****   * @brief  Starts the PWM signal generation.
1093:./Libraries/STM32F4xx_HAL_Driver/Src/stm32f4xx_hal_tim.c ****   * @param  htim pointer to a TIM_HandleTypeDef structure that contains
1094:./Libraries/STM32F4xx_HAL_Driver/Src/stm32f4xx_hal_tim.c ****   *                the configuration information for TIM module.
1095:./Libraries/STM32F4xx_HAL_Driver/Src/stm32f4xx_hal_tim.c ****   * @param  Channel TIM Channels to be enabled.
1096:./Libraries/STM32F4xx_HAL_Driver/Src/stm32f4xx_hal_tim.c ****   *          This parameter can be one of the following values:
1097:./Libraries/STM32F4xx_HAL_Driver/Src/stm32f4xx_hal_tim.c ****   *            @arg TIM_CHANNEL_1: TIM Channel 1 selected
1098:./Libraries/STM32F4xx_HAL_Driver/Src/stm32f4xx_hal_tim.c ****   *            @arg TIM_CHANNEL_2: TIM Channel 2 selected
1099:./Libraries/STM32F4xx_HAL_Driver/Src/stm32f4xx_hal_tim.c ****   *            @arg TIM_CHANNEL_3: TIM Channel 3 selected
1100:./Libraries/STM32F4xx_HAL_Driver/Src/stm32f4xx_hal_tim.c ****   *            @arg TIM_CHANNEL_4: TIM Channel 4 selected
1101:./Libraries/STM32F4xx_HAL_Driver/Src/stm32f4xx_hal_tim.c ****   * @retval HAL status
1102:./Libraries/STM32F4xx_HAL_Driver/Src/stm32f4xx_hal_tim.c ****   */
1103:./Libraries/STM32F4xx_HAL_Driver/Src/stm32f4xx_hal_tim.c **** HAL_StatusTypeDef HAL_TIM_PWM_Start(TIM_HandleTypeDef *htim, uint32_t Channel)
1104:./Libraries/STM32F4xx_HAL_Driver/Src/stm32f4xx_hal_tim.c **** {
 2342              		.loc 1 1104 1
 2343              		.cfi_startproc
 2344              		@ args = 0, pretend = 0, frame = 8
 2345              		@ frame_needed = 1, uses_anonymous_args = 0
 2346 0000 80B5     		push	{r7, lr}
 2347              	.LCFI131:
 2348              		.cfi_def_cfa_offset 8
 2349              		.cfi_offset 7, -8
 2350              		.cfi_offset 14, -4
 2351 0002 82B0     		sub	sp, sp, #8
 2352              	.LCFI132:
 2353              		.cfi_def_cfa_offset 16
 2354 0004 00AF     		add	r7, sp, #0
 2355              	.LCFI133:
 2356              		.cfi_def_cfa_register 7
 2357 0006 7860     		str	r0, [r7, #4]
 2358 0008 3960     		str	r1, [r7]
1105:./Libraries/STM32F4xx_HAL_Driver/Src/stm32f4xx_hal_tim.c ****   /* Check the parameters */
1106:./Libraries/STM32F4xx_HAL_Driver/Src/stm32f4xx_hal_tim.c ****   assert_param(IS_TIM_CCX_INSTANCE(htim->Instance, Channel));
1107:./Libraries/STM32F4xx_HAL_Driver/Src/stm32f4xx_hal_tim.c **** 
1108:./Libraries/STM32F4xx_HAL_Driver/Src/stm32f4xx_hal_tim.c ****   /* Enable the Capture compare channel */
1109:./Libraries/STM32F4xx_HAL_Driver/Src/stm32f4xx_hal_tim.c ****   TIM_CCxChannelCmd(htim->Instance, Channel, TIM_CCx_ENABLE);
 2359              		.loc 1 1109 3
 2360 000a 7B68     		ldr	r3, [r7, #4]
ARM GAS  /tmp/ccvKwMj1.s 			page 61


 2361 000c 1B68     		ldr	r3, [r3]
 2362 000e 0122     		movs	r2, #1
 2363 0010 3968     		ldr	r1, [r7]
 2364 0012 1846     		mov	r0, r3
 2365 0014 FFF7FEFF 		bl	TIM_CCxChannelCmd
1110:./Libraries/STM32F4xx_HAL_Driver/Src/stm32f4xx_hal_tim.c ****   
1111:./Libraries/STM32F4xx_HAL_Driver/Src/stm32f4xx_hal_tim.c ****   if(IS_TIM_ADVANCED_INSTANCE(htim->Instance) != RESET)  
 2366              		.loc 1 1111 6
 2367 0018 7B68     		ldr	r3, [r7, #4]
 2368 001a 1B68     		ldr	r3, [r3]
 2369 001c 104A     		ldr	r2, .L140
 2370 001e 9342     		cmp	r3, r2
 2371 0020 04D0     		beq	.L135
 2372              		.loc 1 1111 6 is_stmt 0 discriminator 2
 2373 0022 7B68     		ldr	r3, [r7, #4]
 2374 0024 1B68     		ldr	r3, [r3]
 2375 0026 0F4A     		ldr	r2, .L140+4
 2376 0028 9342     		cmp	r3, r2
 2377 002a 01D1     		bne	.L136
 2378              	.L135:
 2379              		.loc 1 1111 6 discriminator 3
 2380 002c 0123     		movs	r3, #1
 2381 002e 00E0     		b	.L137
 2382              	.L136:
 2383              		.loc 1 1111 6 discriminator 4
 2384 0030 0023     		movs	r3, #0
 2385              	.L137:
 2386              		.loc 1 1111 5 is_stmt 1 discriminator 6
 2387 0032 002B     		cmp	r3, #0
 2388 0034 07D0     		beq	.L138
1112:./Libraries/STM32F4xx_HAL_Driver/Src/stm32f4xx_hal_tim.c ****   {
1113:./Libraries/STM32F4xx_HAL_Driver/Src/stm32f4xx_hal_tim.c ****     /* Enable the main output */
1114:./Libraries/STM32F4xx_HAL_Driver/Src/stm32f4xx_hal_tim.c ****     __HAL_TIM_MOE_ENABLE(htim);
 2389              		.loc 1 1114 5
 2390 0036 7B68     		ldr	r3, [r7, #4]
 2391 0038 1B68     		ldr	r3, [r3]
 2392 003a 5A6C     		ldr	r2, [r3, #68]
 2393 003c 7B68     		ldr	r3, [r7, #4]
 2394 003e 1B68     		ldr	r3, [r3]
 2395 0040 42F40042 		orr	r2, r2, #32768
 2396 0044 5A64     		str	r2, [r3, #68]
 2397              	.L138:
1115:./Libraries/STM32F4xx_HAL_Driver/Src/stm32f4xx_hal_tim.c ****   }
1116:./Libraries/STM32F4xx_HAL_Driver/Src/stm32f4xx_hal_tim.c ****     
1117:./Libraries/STM32F4xx_HAL_Driver/Src/stm32f4xx_hal_tim.c ****   /* Enable the Peripheral */
1118:./Libraries/STM32F4xx_HAL_Driver/Src/stm32f4xx_hal_tim.c ****   __HAL_TIM_ENABLE(htim);
 2398              		.loc 1 1118 3
 2399 0046 7B68     		ldr	r3, [r7, #4]
 2400 0048 1B68     		ldr	r3, [r3]
 2401 004a 1A68     		ldr	r2, [r3]
 2402 004c 7B68     		ldr	r3, [r7, #4]
 2403 004e 1B68     		ldr	r3, [r3]
 2404 0050 42F00102 		orr	r2, r2, #1
 2405 0054 1A60     		str	r2, [r3]
1119:./Libraries/STM32F4xx_HAL_Driver/Src/stm32f4xx_hal_tim.c ****   
1120:./Libraries/STM32F4xx_HAL_Driver/Src/stm32f4xx_hal_tim.c ****   /* Return function status */
1121:./Libraries/STM32F4xx_HAL_Driver/Src/stm32f4xx_hal_tim.c ****   return HAL_OK;
ARM GAS  /tmp/ccvKwMj1.s 			page 62


 2406              		.loc 1 1121 10
 2407 0056 0023     		movs	r3, #0
1122:./Libraries/STM32F4xx_HAL_Driver/Src/stm32f4xx_hal_tim.c **** } 
 2408              		.loc 1 1122 1
 2409 0058 1846     		mov	r0, r3
 2410 005a 0837     		adds	r7, r7, #8
 2411              	.LCFI134:
 2412              		.cfi_def_cfa_offset 8
 2413 005c BD46     		mov	sp, r7
 2414              	.LCFI135:
 2415              		.cfi_def_cfa_register 13
 2416              		@ sp needed
 2417 005e 80BD     		pop	{r7, pc}
 2418              	.L141:
 2419              		.align	2
 2420              	.L140:
 2421 0060 00000140 		.word	1073807360
 2422 0064 00040140 		.word	1073808384
 2423              		.cfi_endproc
 2424              	.LFE150:
 2426              		.section	.text.HAL_TIM_PWM_Stop,"ax",%progbits
 2427              		.align	1
 2428              		.global	HAL_TIM_PWM_Stop
 2429              		.syntax unified
 2430              		.thumb
 2431              		.thumb_func
 2432              		.fpu fpv4-sp-d16
 2434              	HAL_TIM_PWM_Stop:
 2435              	.LFB151:
1123:./Libraries/STM32F4xx_HAL_Driver/Src/stm32f4xx_hal_tim.c **** 
1124:./Libraries/STM32F4xx_HAL_Driver/Src/stm32f4xx_hal_tim.c **** /**
1125:./Libraries/STM32F4xx_HAL_Driver/Src/stm32f4xx_hal_tim.c ****   * @brief  Stops the PWM signal generation.
1126:./Libraries/STM32F4xx_HAL_Driver/Src/stm32f4xx_hal_tim.c ****   * @param  htim pointer to a TIM_HandleTypeDef structure that contains
1127:./Libraries/STM32F4xx_HAL_Driver/Src/stm32f4xx_hal_tim.c ****   *                the configuration information for TIM module.
1128:./Libraries/STM32F4xx_HAL_Driver/Src/stm32f4xx_hal_tim.c ****   * @param  Channel TIM Channels to be disabled.
1129:./Libraries/STM32F4xx_HAL_Driver/Src/stm32f4xx_hal_tim.c ****   *          This parameter can be one of the following values:
1130:./Libraries/STM32F4xx_HAL_Driver/Src/stm32f4xx_hal_tim.c ****   *            @arg TIM_CHANNEL_1: TIM Channel 1 selected
1131:./Libraries/STM32F4xx_HAL_Driver/Src/stm32f4xx_hal_tim.c ****   *            @arg TIM_CHANNEL_2: TIM Channel 2 selected
1132:./Libraries/STM32F4xx_HAL_Driver/Src/stm32f4xx_hal_tim.c ****   *            @arg TIM_CHANNEL_3: TIM Channel 3 selected
1133:./Libraries/STM32F4xx_HAL_Driver/Src/stm32f4xx_hal_tim.c ****   *            @arg TIM_CHANNEL_4: TIM Channel 4 selected
1134:./Libraries/STM32F4xx_HAL_Driver/Src/stm32f4xx_hal_tim.c ****   * @retval HAL status
1135:./Libraries/STM32F4xx_HAL_Driver/Src/stm32f4xx_hal_tim.c ****   */
1136:./Libraries/STM32F4xx_HAL_Driver/Src/stm32f4xx_hal_tim.c **** HAL_StatusTypeDef HAL_TIM_PWM_Stop(TIM_HandleTypeDef *htim, uint32_t Channel)
1137:./Libraries/STM32F4xx_HAL_Driver/Src/stm32f4xx_hal_tim.c **** { 
 2436              		.loc 1 1137 1
 2437              		.cfi_startproc
 2438              		@ args = 0, pretend = 0, frame = 8
 2439              		@ frame_needed = 1, uses_anonymous_args = 0
 2440 0000 80B5     		push	{r7, lr}
 2441              	.LCFI136:
 2442              		.cfi_def_cfa_offset 8
 2443              		.cfi_offset 7, -8
 2444              		.cfi_offset 14, -4
 2445 0002 82B0     		sub	sp, sp, #8
 2446              	.LCFI137:
 2447              		.cfi_def_cfa_offset 16
 2448 0004 00AF     		add	r7, sp, #0
ARM GAS  /tmp/ccvKwMj1.s 			page 63


 2449              	.LCFI138:
 2450              		.cfi_def_cfa_register 7
 2451 0006 7860     		str	r0, [r7, #4]
 2452 0008 3960     		str	r1, [r7]
1138:./Libraries/STM32F4xx_HAL_Driver/Src/stm32f4xx_hal_tim.c ****   /* Check the parameters */
1139:./Libraries/STM32F4xx_HAL_Driver/Src/stm32f4xx_hal_tim.c ****   assert_param(IS_TIM_CCX_INSTANCE(htim->Instance, Channel));
1140:./Libraries/STM32F4xx_HAL_Driver/Src/stm32f4xx_hal_tim.c ****     
1141:./Libraries/STM32F4xx_HAL_Driver/Src/stm32f4xx_hal_tim.c ****   /* Disable the Capture compare channel */
1142:./Libraries/STM32F4xx_HAL_Driver/Src/stm32f4xx_hal_tim.c ****   TIM_CCxChannelCmd(htim->Instance, Channel, TIM_CCx_DISABLE);
 2453              		.loc 1 1142 3
 2454 000a 7B68     		ldr	r3, [r7, #4]
 2455 000c 1B68     		ldr	r3, [r3]
 2456 000e 0022     		movs	r2, #0
 2457 0010 3968     		ldr	r1, [r7]
 2458 0012 1846     		mov	r0, r3
 2459 0014 FFF7FEFF 		bl	TIM_CCxChannelCmd
1143:./Libraries/STM32F4xx_HAL_Driver/Src/stm32f4xx_hal_tim.c ****   
1144:./Libraries/STM32F4xx_HAL_Driver/Src/stm32f4xx_hal_tim.c ****   if(IS_TIM_ADVANCED_INSTANCE(htim->Instance) != RESET)  
 2460              		.loc 1 1144 6
 2461 0018 7B68     		ldr	r3, [r7, #4]
 2462 001a 1B68     		ldr	r3, [r3]
 2463 001c 224A     		ldr	r2, .L149
 2464 001e 9342     		cmp	r3, r2
 2465 0020 04D0     		beq	.L143
 2466              		.loc 1 1144 6 is_stmt 0 discriminator 2
 2467 0022 7B68     		ldr	r3, [r7, #4]
 2468 0024 1B68     		ldr	r3, [r3]
 2469 0026 214A     		ldr	r2, .L149+4
 2470 0028 9342     		cmp	r3, r2
 2471 002a 01D1     		bne	.L144
 2472              	.L143:
 2473              		.loc 1 1144 6 discriminator 3
 2474 002c 0123     		movs	r3, #1
 2475 002e 00E0     		b	.L145
 2476              	.L144:
 2477              		.loc 1 1144 6 discriminator 4
 2478 0030 0023     		movs	r3, #0
 2479              	.L145:
 2480              		.loc 1 1144 5 is_stmt 1 discriminator 6
 2481 0032 002B     		cmp	r3, #0
 2482 0034 17D0     		beq	.L146
1145:./Libraries/STM32F4xx_HAL_Driver/Src/stm32f4xx_hal_tim.c ****   {
1146:./Libraries/STM32F4xx_HAL_Driver/Src/stm32f4xx_hal_tim.c ****     /* Disable the Main Output */
1147:./Libraries/STM32F4xx_HAL_Driver/Src/stm32f4xx_hal_tim.c ****     __HAL_TIM_MOE_DISABLE(htim);
 2483              		.loc 1 1147 5
 2484 0036 7B68     		ldr	r3, [r7, #4]
 2485 0038 1B68     		ldr	r3, [r3]
 2486 003a 1A6A     		ldr	r2, [r3, #32]
 2487 003c 41F21113 		movw	r3, #4369
 2488 0040 1340     		ands	r3, r3, r2
 2489 0042 002B     		cmp	r3, #0
 2490 0044 0FD1     		bne	.L146
 2491              		.loc 1 1147 5 is_stmt 0 discriminator 1
 2492 0046 7B68     		ldr	r3, [r7, #4]
 2493 0048 1B68     		ldr	r3, [r3]
 2494 004a 1A6A     		ldr	r2, [r3, #32]
 2495 004c 40F24443 		movw	r3, #1092
ARM GAS  /tmp/ccvKwMj1.s 			page 64


 2496 0050 1340     		ands	r3, r3, r2
 2497 0052 002B     		cmp	r3, #0
 2498 0054 07D1     		bne	.L146
 2499              		.loc 1 1147 5 discriminator 2
 2500 0056 7B68     		ldr	r3, [r7, #4]
 2501 0058 1B68     		ldr	r3, [r3]
 2502 005a 5A6C     		ldr	r2, [r3, #68]
 2503 005c 7B68     		ldr	r3, [r7, #4]
 2504 005e 1B68     		ldr	r3, [r3]
 2505 0060 22F40042 		bic	r2, r2, #32768
 2506 0064 5A64     		str	r2, [r3, #68]
 2507              	.L146:
1148:./Libraries/STM32F4xx_HAL_Driver/Src/stm32f4xx_hal_tim.c ****   }
1149:./Libraries/STM32F4xx_HAL_Driver/Src/stm32f4xx_hal_tim.c ****   
1150:./Libraries/STM32F4xx_HAL_Driver/Src/stm32f4xx_hal_tim.c ****   /* Disable the Peripheral */
1151:./Libraries/STM32F4xx_HAL_Driver/Src/stm32f4xx_hal_tim.c ****   __HAL_TIM_DISABLE(htim);
 2508              		.loc 1 1151 3 is_stmt 1
 2509 0066 7B68     		ldr	r3, [r7, #4]
 2510 0068 1B68     		ldr	r3, [r3]
 2511 006a 1A6A     		ldr	r2, [r3, #32]
 2512 006c 41F21113 		movw	r3, #4369
 2513 0070 1340     		ands	r3, r3, r2
 2514 0072 002B     		cmp	r3, #0
 2515 0074 0FD1     		bne	.L147
 2516              		.loc 1 1151 3 is_stmt 0 discriminator 1
 2517 0076 7B68     		ldr	r3, [r7, #4]
 2518 0078 1B68     		ldr	r3, [r3]
 2519 007a 1A6A     		ldr	r2, [r3, #32]
 2520 007c 40F24443 		movw	r3, #1092
 2521 0080 1340     		ands	r3, r3, r2
 2522 0082 002B     		cmp	r3, #0
 2523 0084 07D1     		bne	.L147
 2524              		.loc 1 1151 3 discriminator 2
 2525 0086 7B68     		ldr	r3, [r7, #4]
 2526 0088 1B68     		ldr	r3, [r3]
 2527 008a 1A68     		ldr	r2, [r3]
 2528 008c 7B68     		ldr	r3, [r7, #4]
 2529 008e 1B68     		ldr	r3, [r3]
 2530 0090 22F00102 		bic	r2, r2, #1
 2531 0094 1A60     		str	r2, [r3]
 2532              	.L147:
1152:./Libraries/STM32F4xx_HAL_Driver/Src/stm32f4xx_hal_tim.c ****   
1153:./Libraries/STM32F4xx_HAL_Driver/Src/stm32f4xx_hal_tim.c ****   /* Change the htim state */
1154:./Libraries/STM32F4xx_HAL_Driver/Src/stm32f4xx_hal_tim.c ****   htim->State = HAL_TIM_STATE_READY;
 2533              		.loc 1 1154 15 is_stmt 1
 2534 0096 7B68     		ldr	r3, [r7, #4]
 2535 0098 0122     		movs	r2, #1
 2536 009a 83F83920 		strb	r2, [r3, #57]
1155:./Libraries/STM32F4xx_HAL_Driver/Src/stm32f4xx_hal_tim.c ****   
1156:./Libraries/STM32F4xx_HAL_Driver/Src/stm32f4xx_hal_tim.c ****   /* Return function status */
1157:./Libraries/STM32F4xx_HAL_Driver/Src/stm32f4xx_hal_tim.c ****   return HAL_OK;
 2537              		.loc 1 1157 10
 2538 009e 0023     		movs	r3, #0
1158:./Libraries/STM32F4xx_HAL_Driver/Src/stm32f4xx_hal_tim.c **** } 
 2539              		.loc 1 1158 1
 2540 00a0 1846     		mov	r0, r3
 2541 00a2 0837     		adds	r7, r7, #8
ARM GAS  /tmp/ccvKwMj1.s 			page 65


 2542              	.LCFI139:
 2543              		.cfi_def_cfa_offset 8
 2544 00a4 BD46     		mov	sp, r7
 2545              	.LCFI140:
 2546              		.cfi_def_cfa_register 13
 2547              		@ sp needed
 2548 00a6 80BD     		pop	{r7, pc}
 2549              	.L150:
 2550              		.align	2
 2551              	.L149:
 2552 00a8 00000140 		.word	1073807360
 2553 00ac 00040140 		.word	1073808384
 2554              		.cfi_endproc
 2555              	.LFE151:
 2557              		.section	.text.HAL_TIM_PWM_Start_IT,"ax",%progbits
 2558              		.align	1
 2559              		.global	HAL_TIM_PWM_Start_IT
 2560              		.syntax unified
 2561              		.thumb
 2562              		.thumb_func
 2563              		.fpu fpv4-sp-d16
 2565              	HAL_TIM_PWM_Start_IT:
 2566              	.LFB152:
1159:./Libraries/STM32F4xx_HAL_Driver/Src/stm32f4xx_hal_tim.c **** 
1160:./Libraries/STM32F4xx_HAL_Driver/Src/stm32f4xx_hal_tim.c **** /**
1161:./Libraries/STM32F4xx_HAL_Driver/Src/stm32f4xx_hal_tim.c ****   * @brief  Starts the PWM signal generation in interrupt mode.
1162:./Libraries/STM32F4xx_HAL_Driver/Src/stm32f4xx_hal_tim.c ****   * @param  htim pointer to a TIM_HandleTypeDef structure that contains
1163:./Libraries/STM32F4xx_HAL_Driver/Src/stm32f4xx_hal_tim.c ****   *                the configuration information for TIM module.
1164:./Libraries/STM32F4xx_HAL_Driver/Src/stm32f4xx_hal_tim.c ****   * @param  Channel TIM Channel to be enabled.
1165:./Libraries/STM32F4xx_HAL_Driver/Src/stm32f4xx_hal_tim.c ****   *          This parameter can be one of the following values:
1166:./Libraries/STM32F4xx_HAL_Driver/Src/stm32f4xx_hal_tim.c ****   *            @arg TIM_CHANNEL_1: TIM Channel 1 selected
1167:./Libraries/STM32F4xx_HAL_Driver/Src/stm32f4xx_hal_tim.c ****   *            @arg TIM_CHANNEL_2: TIM Channel 2 selected
1168:./Libraries/STM32F4xx_HAL_Driver/Src/stm32f4xx_hal_tim.c ****   *            @arg TIM_CHANNEL_3: TIM Channel 3 selected
1169:./Libraries/STM32F4xx_HAL_Driver/Src/stm32f4xx_hal_tim.c ****   *            @arg TIM_CHANNEL_4: TIM Channel 4 selected
1170:./Libraries/STM32F4xx_HAL_Driver/Src/stm32f4xx_hal_tim.c ****   * @retval HAL status
1171:./Libraries/STM32F4xx_HAL_Driver/Src/stm32f4xx_hal_tim.c ****   */
1172:./Libraries/STM32F4xx_HAL_Driver/Src/stm32f4xx_hal_tim.c **** HAL_StatusTypeDef HAL_TIM_PWM_Start_IT(TIM_HandleTypeDef *htim, uint32_t Channel)
1173:./Libraries/STM32F4xx_HAL_Driver/Src/stm32f4xx_hal_tim.c **** {
 2567              		.loc 1 1173 1
 2568              		.cfi_startproc
 2569              		@ args = 0, pretend = 0, frame = 8
 2570              		@ frame_needed = 1, uses_anonymous_args = 0
 2571 0000 80B5     		push	{r7, lr}
 2572              	.LCFI141:
 2573              		.cfi_def_cfa_offset 8
 2574              		.cfi_offset 7, -8
 2575              		.cfi_offset 14, -4
 2576 0002 82B0     		sub	sp, sp, #8
 2577              	.LCFI142:
 2578              		.cfi_def_cfa_offset 16
 2579 0004 00AF     		add	r7, sp, #0
 2580              	.LCFI143:
 2581              		.cfi_def_cfa_register 7
 2582 0006 7860     		str	r0, [r7, #4]
 2583 0008 3960     		str	r1, [r7]
 2584 000a 3B68     		ldr	r3, [r7]
 2585 000c 0C2B     		cmp	r3, #12
ARM GAS  /tmp/ccvKwMj1.s 			page 66


 2586 000e 41D8     		bhi	.L164
 2587 0010 01A2     		adr	r2, .L154
 2588 0012 52F823F0 		ldr	pc, [r2, r3, lsl #2]
 2589 0016 00BF     		.p2align 2
 2590              	.L154:
 2591 0018 4D000000 		.word	.L157+1
 2592 001c 95000000 		.word	.L164+1
 2593 0020 95000000 		.word	.L164+1
 2594 0024 95000000 		.word	.L164+1
 2595 0028 5F000000 		.word	.L156+1
 2596 002c 95000000 		.word	.L164+1
 2597 0030 95000000 		.word	.L164+1
 2598 0034 95000000 		.word	.L164+1
 2599 0038 71000000 		.word	.L155+1
 2600 003c 95000000 		.word	.L164+1
 2601 0040 95000000 		.word	.L164+1
 2602 0044 95000000 		.word	.L164+1
 2603 0048 83000000 		.word	.L153+1
 2604              		.p2align 1
 2605              	.L157:
1174:./Libraries/STM32F4xx_HAL_Driver/Src/stm32f4xx_hal_tim.c ****   /* Check the parameters */
1175:./Libraries/STM32F4xx_HAL_Driver/Src/stm32f4xx_hal_tim.c ****   assert_param(IS_TIM_CCX_INSTANCE(htim->Instance, Channel));
1176:./Libraries/STM32F4xx_HAL_Driver/Src/stm32f4xx_hal_tim.c ****   
1177:./Libraries/STM32F4xx_HAL_Driver/Src/stm32f4xx_hal_tim.c ****   switch (Channel)
1178:./Libraries/STM32F4xx_HAL_Driver/Src/stm32f4xx_hal_tim.c ****   {
1179:./Libraries/STM32F4xx_HAL_Driver/Src/stm32f4xx_hal_tim.c ****     case TIM_CHANNEL_1:
1180:./Libraries/STM32F4xx_HAL_Driver/Src/stm32f4xx_hal_tim.c ****     {       
1181:./Libraries/STM32F4xx_HAL_Driver/Src/stm32f4xx_hal_tim.c ****       /* Enable the TIM Capture/Compare 1 interrupt */
1182:./Libraries/STM32F4xx_HAL_Driver/Src/stm32f4xx_hal_tim.c ****       __HAL_TIM_ENABLE_IT(htim, TIM_IT_CC1);
 2606              		.loc 1 1182 7
 2607 004c 7B68     		ldr	r3, [r7, #4]
 2608 004e 1B68     		ldr	r3, [r3]
 2609 0050 DA68     		ldr	r2, [r3, #12]
 2610 0052 7B68     		ldr	r3, [r7, #4]
 2611 0054 1B68     		ldr	r3, [r3]
 2612 0056 42F00202 		orr	r2, r2, #2
 2613 005a DA60     		str	r2, [r3, #12]
1183:./Libraries/STM32F4xx_HAL_Driver/Src/stm32f4xx_hal_tim.c ****     }
1184:./Libraries/STM32F4xx_HAL_Driver/Src/stm32f4xx_hal_tim.c ****     break;
 2614              		.loc 1 1184 5
 2615 005c 1BE0     		b	.L158
 2616              	.L156:
1185:./Libraries/STM32F4xx_HAL_Driver/Src/stm32f4xx_hal_tim.c ****     
1186:./Libraries/STM32F4xx_HAL_Driver/Src/stm32f4xx_hal_tim.c ****     case TIM_CHANNEL_2:
1187:./Libraries/STM32F4xx_HAL_Driver/Src/stm32f4xx_hal_tim.c ****     {
1188:./Libraries/STM32F4xx_HAL_Driver/Src/stm32f4xx_hal_tim.c ****       /* Enable the TIM Capture/Compare 2 interrupt */
1189:./Libraries/STM32F4xx_HAL_Driver/Src/stm32f4xx_hal_tim.c ****       __HAL_TIM_ENABLE_IT(htim, TIM_IT_CC2);
 2617              		.loc 1 1189 7
 2618 005e 7B68     		ldr	r3, [r7, #4]
 2619 0060 1B68     		ldr	r3, [r3]
 2620 0062 DA68     		ldr	r2, [r3, #12]
 2621 0064 7B68     		ldr	r3, [r7, #4]
 2622 0066 1B68     		ldr	r3, [r3]
 2623 0068 42F00402 		orr	r2, r2, #4
 2624 006c DA60     		str	r2, [r3, #12]
1190:./Libraries/STM32F4xx_HAL_Driver/Src/stm32f4xx_hal_tim.c ****     }
1191:./Libraries/STM32F4xx_HAL_Driver/Src/stm32f4xx_hal_tim.c ****     break;
ARM GAS  /tmp/ccvKwMj1.s 			page 67


 2625              		.loc 1 1191 5
 2626 006e 12E0     		b	.L158
 2627              	.L155:
1192:./Libraries/STM32F4xx_HAL_Driver/Src/stm32f4xx_hal_tim.c ****     
1193:./Libraries/STM32F4xx_HAL_Driver/Src/stm32f4xx_hal_tim.c ****     case TIM_CHANNEL_3:
1194:./Libraries/STM32F4xx_HAL_Driver/Src/stm32f4xx_hal_tim.c ****     {
1195:./Libraries/STM32F4xx_HAL_Driver/Src/stm32f4xx_hal_tim.c ****       /* Enable the TIM Capture/Compare 3 interrupt */
1196:./Libraries/STM32F4xx_HAL_Driver/Src/stm32f4xx_hal_tim.c ****       __HAL_TIM_ENABLE_IT(htim, TIM_IT_CC3);
 2628              		.loc 1 1196 7
 2629 0070 7B68     		ldr	r3, [r7, #4]
 2630 0072 1B68     		ldr	r3, [r3]
 2631 0074 DA68     		ldr	r2, [r3, #12]
 2632 0076 7B68     		ldr	r3, [r7, #4]
 2633 0078 1B68     		ldr	r3, [r3]
 2634 007a 42F00802 		orr	r2, r2, #8
 2635 007e DA60     		str	r2, [r3, #12]
1197:./Libraries/STM32F4xx_HAL_Driver/Src/stm32f4xx_hal_tim.c ****     }
1198:./Libraries/STM32F4xx_HAL_Driver/Src/stm32f4xx_hal_tim.c ****     break;
 2636              		.loc 1 1198 5
 2637 0080 09E0     		b	.L158
 2638              	.L153:
1199:./Libraries/STM32F4xx_HAL_Driver/Src/stm32f4xx_hal_tim.c ****     
1200:./Libraries/STM32F4xx_HAL_Driver/Src/stm32f4xx_hal_tim.c ****     case TIM_CHANNEL_4:
1201:./Libraries/STM32F4xx_HAL_Driver/Src/stm32f4xx_hal_tim.c ****     {
1202:./Libraries/STM32F4xx_HAL_Driver/Src/stm32f4xx_hal_tim.c ****       /* Enable the TIM Capture/Compare 4 interrupt */
1203:./Libraries/STM32F4xx_HAL_Driver/Src/stm32f4xx_hal_tim.c ****       __HAL_TIM_ENABLE_IT(htim, TIM_IT_CC4);
 2639              		.loc 1 1203 7
 2640 0082 7B68     		ldr	r3, [r7, #4]
 2641 0084 1B68     		ldr	r3, [r3]
 2642 0086 DA68     		ldr	r2, [r3, #12]
 2643 0088 7B68     		ldr	r3, [r7, #4]
 2644 008a 1B68     		ldr	r3, [r3]
 2645 008c 42F01002 		orr	r2, r2, #16
 2646 0090 DA60     		str	r2, [r3, #12]
1204:./Libraries/STM32F4xx_HAL_Driver/Src/stm32f4xx_hal_tim.c ****     }
1205:./Libraries/STM32F4xx_HAL_Driver/Src/stm32f4xx_hal_tim.c ****     break;
 2647              		.loc 1 1205 5
 2648 0092 00E0     		b	.L158
 2649              	.L164:
1206:./Libraries/STM32F4xx_HAL_Driver/Src/stm32f4xx_hal_tim.c ****     
1207:./Libraries/STM32F4xx_HAL_Driver/Src/stm32f4xx_hal_tim.c ****     default:
1208:./Libraries/STM32F4xx_HAL_Driver/Src/stm32f4xx_hal_tim.c ****     break;
 2650              		.loc 1 1208 5
 2651 0094 00BF     		nop
 2652              	.L158:
1209:./Libraries/STM32F4xx_HAL_Driver/Src/stm32f4xx_hal_tim.c ****   } 
1210:./Libraries/STM32F4xx_HAL_Driver/Src/stm32f4xx_hal_tim.c ****   
1211:./Libraries/STM32F4xx_HAL_Driver/Src/stm32f4xx_hal_tim.c ****   /* Enable the Capture compare channel */
1212:./Libraries/STM32F4xx_HAL_Driver/Src/stm32f4xx_hal_tim.c ****   TIM_CCxChannelCmd(htim->Instance, Channel, TIM_CCx_ENABLE);
 2653              		.loc 1 1212 3
 2654 0096 7B68     		ldr	r3, [r7, #4]
 2655 0098 1B68     		ldr	r3, [r3]
 2656 009a 0122     		movs	r2, #1
 2657 009c 3968     		ldr	r1, [r7]
 2658 009e 1846     		mov	r0, r3
 2659 00a0 FFF7FEFF 		bl	TIM_CCxChannelCmd
1213:./Libraries/STM32F4xx_HAL_Driver/Src/stm32f4xx_hal_tim.c ****   
ARM GAS  /tmp/ccvKwMj1.s 			page 68


1214:./Libraries/STM32F4xx_HAL_Driver/Src/stm32f4xx_hal_tim.c ****   if(IS_TIM_ADVANCED_INSTANCE(htim->Instance) != RESET)  
 2660              		.loc 1 1214 6
 2661 00a4 7B68     		ldr	r3, [r7, #4]
 2662 00a6 1B68     		ldr	r3, [r3]
 2663 00a8 104A     		ldr	r2, .L165
 2664 00aa 9342     		cmp	r3, r2
 2665 00ac 04D0     		beq	.L159
 2666              		.loc 1 1214 6 is_stmt 0 discriminator 2
 2667 00ae 7B68     		ldr	r3, [r7, #4]
 2668 00b0 1B68     		ldr	r3, [r3]
 2669 00b2 0F4A     		ldr	r2, .L165+4
 2670 00b4 9342     		cmp	r3, r2
 2671 00b6 01D1     		bne	.L160
 2672              	.L159:
 2673              		.loc 1 1214 6 discriminator 3
 2674 00b8 0123     		movs	r3, #1
 2675 00ba 00E0     		b	.L161
 2676              	.L160:
 2677              		.loc 1 1214 6 discriminator 4
 2678 00bc 0023     		movs	r3, #0
 2679              	.L161:
 2680              		.loc 1 1214 5 is_stmt 1 discriminator 6
 2681 00be 002B     		cmp	r3, #0
 2682 00c0 07D0     		beq	.L162
1215:./Libraries/STM32F4xx_HAL_Driver/Src/stm32f4xx_hal_tim.c ****   {
1216:./Libraries/STM32F4xx_HAL_Driver/Src/stm32f4xx_hal_tim.c ****     /* Enable the main output */
1217:./Libraries/STM32F4xx_HAL_Driver/Src/stm32f4xx_hal_tim.c ****     __HAL_TIM_MOE_ENABLE(htim);
 2683              		.loc 1 1217 5
 2684 00c2 7B68     		ldr	r3, [r7, #4]
 2685 00c4 1B68     		ldr	r3, [r3]
 2686 00c6 5A6C     		ldr	r2, [r3, #68]
 2687 00c8 7B68     		ldr	r3, [r7, #4]
 2688 00ca 1B68     		ldr	r3, [r3]
 2689 00cc 42F40042 		orr	r2, r2, #32768
 2690 00d0 5A64     		str	r2, [r3, #68]
 2691              	.L162:
1218:./Libraries/STM32F4xx_HAL_Driver/Src/stm32f4xx_hal_tim.c ****   }
1219:./Libraries/STM32F4xx_HAL_Driver/Src/stm32f4xx_hal_tim.c **** 
1220:./Libraries/STM32F4xx_HAL_Driver/Src/stm32f4xx_hal_tim.c ****   /* Enable the Peripheral */
1221:./Libraries/STM32F4xx_HAL_Driver/Src/stm32f4xx_hal_tim.c ****   __HAL_TIM_ENABLE(htim);
 2692              		.loc 1 1221 3
 2693 00d2 7B68     		ldr	r3, [r7, #4]
 2694 00d4 1B68     		ldr	r3, [r3]
 2695 00d6 1A68     		ldr	r2, [r3]
 2696 00d8 7B68     		ldr	r3, [r7, #4]
 2697 00da 1B68     		ldr	r3, [r3]
 2698 00dc 42F00102 		orr	r2, r2, #1
 2699 00e0 1A60     		str	r2, [r3]
1222:./Libraries/STM32F4xx_HAL_Driver/Src/stm32f4xx_hal_tim.c ****   
1223:./Libraries/STM32F4xx_HAL_Driver/Src/stm32f4xx_hal_tim.c ****   /* Return function status */
1224:./Libraries/STM32F4xx_HAL_Driver/Src/stm32f4xx_hal_tim.c ****   return HAL_OK;
 2700              		.loc 1 1224 10
 2701 00e2 0023     		movs	r3, #0
1225:./Libraries/STM32F4xx_HAL_Driver/Src/stm32f4xx_hal_tim.c **** } 
 2702              		.loc 1 1225 1
 2703 00e4 1846     		mov	r0, r3
 2704 00e6 0837     		adds	r7, r7, #8
ARM GAS  /tmp/ccvKwMj1.s 			page 69


 2705              	.LCFI144:
 2706              		.cfi_def_cfa_offset 8
 2707 00e8 BD46     		mov	sp, r7
 2708              	.LCFI145:
 2709              		.cfi_def_cfa_register 13
 2710              		@ sp needed
 2711 00ea 80BD     		pop	{r7, pc}
 2712              	.L166:
 2713              		.align	2
 2714              	.L165:
 2715 00ec 00000140 		.word	1073807360
 2716 00f0 00040140 		.word	1073808384
 2717              		.cfi_endproc
 2718              	.LFE152:
 2720              		.section	.text.HAL_TIM_PWM_Stop_IT,"ax",%progbits
 2721              		.align	1
 2722              		.global	HAL_TIM_PWM_Stop_IT
 2723              		.syntax unified
 2724              		.thumb
 2725              		.thumb_func
 2726              		.fpu fpv4-sp-d16
 2728              	HAL_TIM_PWM_Stop_IT:
 2729              	.LFB153:
1226:./Libraries/STM32F4xx_HAL_Driver/Src/stm32f4xx_hal_tim.c **** 
1227:./Libraries/STM32F4xx_HAL_Driver/Src/stm32f4xx_hal_tim.c **** /**
1228:./Libraries/STM32F4xx_HAL_Driver/Src/stm32f4xx_hal_tim.c ****   * @brief  Stops the PWM signal generation in interrupt mode.
1229:./Libraries/STM32F4xx_HAL_Driver/Src/stm32f4xx_hal_tim.c ****   * @param  htim pointer to a TIM_HandleTypeDef structure that contains
1230:./Libraries/STM32F4xx_HAL_Driver/Src/stm32f4xx_hal_tim.c ****   *                the configuration information for TIM module.
1231:./Libraries/STM32F4xx_HAL_Driver/Src/stm32f4xx_hal_tim.c ****   * @param  Channel TIM Channels to be disabled.
1232:./Libraries/STM32F4xx_HAL_Driver/Src/stm32f4xx_hal_tim.c ****   *          This parameter can be one of the following values:
1233:./Libraries/STM32F4xx_HAL_Driver/Src/stm32f4xx_hal_tim.c ****   *            @arg TIM_CHANNEL_1: TIM Channel 1 selected
1234:./Libraries/STM32F4xx_HAL_Driver/Src/stm32f4xx_hal_tim.c ****   *            @arg TIM_CHANNEL_2: TIM Channel 2 selected
1235:./Libraries/STM32F4xx_HAL_Driver/Src/stm32f4xx_hal_tim.c ****   *            @arg TIM_CHANNEL_3: TIM Channel 3 selected
1236:./Libraries/STM32F4xx_HAL_Driver/Src/stm32f4xx_hal_tim.c ****   *            @arg TIM_CHANNEL_4: TIM Channel 4 selected
1237:./Libraries/STM32F4xx_HAL_Driver/Src/stm32f4xx_hal_tim.c ****   * @retval HAL status
1238:./Libraries/STM32F4xx_HAL_Driver/Src/stm32f4xx_hal_tim.c ****   */
1239:./Libraries/STM32F4xx_HAL_Driver/Src/stm32f4xx_hal_tim.c **** HAL_StatusTypeDef HAL_TIM_PWM_Stop_IT (TIM_HandleTypeDef *htim, uint32_t Channel)
1240:./Libraries/STM32F4xx_HAL_Driver/Src/stm32f4xx_hal_tim.c **** {
 2730              		.loc 1 1240 1
 2731              		.cfi_startproc
 2732              		@ args = 0, pretend = 0, frame = 8
 2733              		@ frame_needed = 1, uses_anonymous_args = 0
 2734 0000 80B5     		push	{r7, lr}
 2735              	.LCFI146:
 2736              		.cfi_def_cfa_offset 8
 2737              		.cfi_offset 7, -8
 2738              		.cfi_offset 14, -4
 2739 0002 82B0     		sub	sp, sp, #8
 2740              	.LCFI147:
 2741              		.cfi_def_cfa_offset 16
 2742 0004 00AF     		add	r7, sp, #0
 2743              	.LCFI148:
 2744              		.cfi_def_cfa_register 7
 2745 0006 7860     		str	r0, [r7, #4]
 2746 0008 3960     		str	r1, [r7]
 2747 000a 3B68     		ldr	r3, [r7]
 2748 000c 0C2B     		cmp	r3, #12
ARM GAS  /tmp/ccvKwMj1.s 			page 70


 2749 000e 41D8     		bhi	.L181
 2750 0010 01A2     		adr	r2, .L170
 2751 0012 52F823F0 		ldr	pc, [r2, r3, lsl #2]
 2752 0016 00BF     		.p2align 2
 2753              	.L170:
 2754 0018 4D000000 		.word	.L173+1
 2755 001c 95000000 		.word	.L181+1
 2756 0020 95000000 		.word	.L181+1
 2757 0024 95000000 		.word	.L181+1
 2758 0028 5F000000 		.word	.L172+1
 2759 002c 95000000 		.word	.L181+1
 2760 0030 95000000 		.word	.L181+1
 2761 0034 95000000 		.word	.L181+1
 2762 0038 71000000 		.word	.L171+1
 2763 003c 95000000 		.word	.L181+1
 2764 0040 95000000 		.word	.L181+1
 2765 0044 95000000 		.word	.L181+1
 2766 0048 83000000 		.word	.L169+1
 2767              		.p2align 1
 2768              	.L173:
1241:./Libraries/STM32F4xx_HAL_Driver/Src/stm32f4xx_hal_tim.c ****   /* Check the parameters */
1242:./Libraries/STM32F4xx_HAL_Driver/Src/stm32f4xx_hal_tim.c ****   assert_param(IS_TIM_CCX_INSTANCE(htim->Instance, Channel));
1243:./Libraries/STM32F4xx_HAL_Driver/Src/stm32f4xx_hal_tim.c ****   
1244:./Libraries/STM32F4xx_HAL_Driver/Src/stm32f4xx_hal_tim.c ****   switch (Channel)
1245:./Libraries/STM32F4xx_HAL_Driver/Src/stm32f4xx_hal_tim.c ****   {
1246:./Libraries/STM32F4xx_HAL_Driver/Src/stm32f4xx_hal_tim.c ****     case TIM_CHANNEL_1:
1247:./Libraries/STM32F4xx_HAL_Driver/Src/stm32f4xx_hal_tim.c ****     {       
1248:./Libraries/STM32F4xx_HAL_Driver/Src/stm32f4xx_hal_tim.c ****       /* Disable the TIM Capture/Compare 1 interrupt */
1249:./Libraries/STM32F4xx_HAL_Driver/Src/stm32f4xx_hal_tim.c ****       __HAL_TIM_DISABLE_IT(htim, TIM_IT_CC1);
 2769              		.loc 1 1249 7
 2770 004c 7B68     		ldr	r3, [r7, #4]
 2771 004e 1B68     		ldr	r3, [r3]
 2772 0050 DA68     		ldr	r2, [r3, #12]
 2773 0052 7B68     		ldr	r3, [r7, #4]
 2774 0054 1B68     		ldr	r3, [r3]
 2775 0056 22F00202 		bic	r2, r2, #2
 2776 005a DA60     		str	r2, [r3, #12]
1250:./Libraries/STM32F4xx_HAL_Driver/Src/stm32f4xx_hal_tim.c ****     }
1251:./Libraries/STM32F4xx_HAL_Driver/Src/stm32f4xx_hal_tim.c ****     break;
 2777              		.loc 1 1251 5
 2778 005c 1BE0     		b	.L174
 2779              	.L172:
1252:./Libraries/STM32F4xx_HAL_Driver/Src/stm32f4xx_hal_tim.c ****     
1253:./Libraries/STM32F4xx_HAL_Driver/Src/stm32f4xx_hal_tim.c ****     case TIM_CHANNEL_2:
1254:./Libraries/STM32F4xx_HAL_Driver/Src/stm32f4xx_hal_tim.c ****     {
1255:./Libraries/STM32F4xx_HAL_Driver/Src/stm32f4xx_hal_tim.c ****       /* Disable the TIM Capture/Compare 2 interrupt */
1256:./Libraries/STM32F4xx_HAL_Driver/Src/stm32f4xx_hal_tim.c ****       __HAL_TIM_DISABLE_IT(htim, TIM_IT_CC2);
 2780              		.loc 1 1256 7
 2781 005e 7B68     		ldr	r3, [r7, #4]
 2782 0060 1B68     		ldr	r3, [r3]
 2783 0062 DA68     		ldr	r2, [r3, #12]
 2784 0064 7B68     		ldr	r3, [r7, #4]
 2785 0066 1B68     		ldr	r3, [r3]
 2786 0068 22F00402 		bic	r2, r2, #4
 2787 006c DA60     		str	r2, [r3, #12]
1257:./Libraries/STM32F4xx_HAL_Driver/Src/stm32f4xx_hal_tim.c ****     }
1258:./Libraries/STM32F4xx_HAL_Driver/Src/stm32f4xx_hal_tim.c ****     break;
ARM GAS  /tmp/ccvKwMj1.s 			page 71


 2788              		.loc 1 1258 5
 2789 006e 12E0     		b	.L174
 2790              	.L171:
1259:./Libraries/STM32F4xx_HAL_Driver/Src/stm32f4xx_hal_tim.c ****     
1260:./Libraries/STM32F4xx_HAL_Driver/Src/stm32f4xx_hal_tim.c ****     case TIM_CHANNEL_3:
1261:./Libraries/STM32F4xx_HAL_Driver/Src/stm32f4xx_hal_tim.c ****     {
1262:./Libraries/STM32F4xx_HAL_Driver/Src/stm32f4xx_hal_tim.c ****       /* Disable the TIM Capture/Compare 3 interrupt */
1263:./Libraries/STM32F4xx_HAL_Driver/Src/stm32f4xx_hal_tim.c ****       __HAL_TIM_DISABLE_IT(htim, TIM_IT_CC3);
 2791              		.loc 1 1263 7
 2792 0070 7B68     		ldr	r3, [r7, #4]
 2793 0072 1B68     		ldr	r3, [r3]
 2794 0074 DA68     		ldr	r2, [r3, #12]
 2795 0076 7B68     		ldr	r3, [r7, #4]
 2796 0078 1B68     		ldr	r3, [r3]
 2797 007a 22F00802 		bic	r2, r2, #8
 2798 007e DA60     		str	r2, [r3, #12]
1264:./Libraries/STM32F4xx_HAL_Driver/Src/stm32f4xx_hal_tim.c ****     }
1265:./Libraries/STM32F4xx_HAL_Driver/Src/stm32f4xx_hal_tim.c ****     break;
 2799              		.loc 1 1265 5
 2800 0080 09E0     		b	.L174
 2801              	.L169:
1266:./Libraries/STM32F4xx_HAL_Driver/Src/stm32f4xx_hal_tim.c ****     
1267:./Libraries/STM32F4xx_HAL_Driver/Src/stm32f4xx_hal_tim.c ****     case TIM_CHANNEL_4:
1268:./Libraries/STM32F4xx_HAL_Driver/Src/stm32f4xx_hal_tim.c ****     {
1269:./Libraries/STM32F4xx_HAL_Driver/Src/stm32f4xx_hal_tim.c ****       /* Disable the TIM Capture/Compare 4 interrupt */
1270:./Libraries/STM32F4xx_HAL_Driver/Src/stm32f4xx_hal_tim.c ****       __HAL_TIM_DISABLE_IT(htim, TIM_IT_CC4);
 2802              		.loc 1 1270 7
 2803 0082 7B68     		ldr	r3, [r7, #4]
 2804 0084 1B68     		ldr	r3, [r3]
 2805 0086 DA68     		ldr	r2, [r3, #12]
 2806 0088 7B68     		ldr	r3, [r7, #4]
 2807 008a 1B68     		ldr	r3, [r3]
 2808 008c 22F01002 		bic	r2, r2, #16
 2809 0090 DA60     		str	r2, [r3, #12]
1271:./Libraries/STM32F4xx_HAL_Driver/Src/stm32f4xx_hal_tim.c ****     }
1272:./Libraries/STM32F4xx_HAL_Driver/Src/stm32f4xx_hal_tim.c ****     break;
 2810              		.loc 1 1272 5
 2811 0092 00E0     		b	.L174
 2812              	.L181:
1273:./Libraries/STM32F4xx_HAL_Driver/Src/stm32f4xx_hal_tim.c ****     
1274:./Libraries/STM32F4xx_HAL_Driver/Src/stm32f4xx_hal_tim.c ****     default:
1275:./Libraries/STM32F4xx_HAL_Driver/Src/stm32f4xx_hal_tim.c ****     break; 
 2813              		.loc 1 1275 5
 2814 0094 00BF     		nop
 2815              	.L174:
1276:./Libraries/STM32F4xx_HAL_Driver/Src/stm32f4xx_hal_tim.c ****   }
1277:./Libraries/STM32F4xx_HAL_Driver/Src/stm32f4xx_hal_tim.c ****   
1278:./Libraries/STM32F4xx_HAL_Driver/Src/stm32f4xx_hal_tim.c ****   /* Disable the Capture compare channel */
1279:./Libraries/STM32F4xx_HAL_Driver/Src/stm32f4xx_hal_tim.c ****   TIM_CCxChannelCmd(htim->Instance, Channel, TIM_CCx_DISABLE);
 2816              		.loc 1 1279 3
 2817 0096 7B68     		ldr	r3, [r7, #4]
 2818 0098 1B68     		ldr	r3, [r3]
 2819 009a 0022     		movs	r2, #0
 2820 009c 3968     		ldr	r1, [r7]
 2821 009e 1846     		mov	r0, r3
 2822 00a0 FFF7FEFF 		bl	TIM_CCxChannelCmd
1280:./Libraries/STM32F4xx_HAL_Driver/Src/stm32f4xx_hal_tim.c ****   
ARM GAS  /tmp/ccvKwMj1.s 			page 72


1281:./Libraries/STM32F4xx_HAL_Driver/Src/stm32f4xx_hal_tim.c ****   if(IS_TIM_ADVANCED_INSTANCE(htim->Instance) != RESET)  
 2823              		.loc 1 1281 6
 2824 00a4 7B68     		ldr	r3, [r7, #4]
 2825 00a6 1B68     		ldr	r3, [r3]
 2826 00a8 204A     		ldr	r2, .L182
 2827 00aa 9342     		cmp	r3, r2
 2828 00ac 04D0     		beq	.L175
 2829              		.loc 1 1281 6 is_stmt 0 discriminator 2
 2830 00ae 7B68     		ldr	r3, [r7, #4]
 2831 00b0 1B68     		ldr	r3, [r3]
 2832 00b2 1F4A     		ldr	r2, .L182+4
 2833 00b4 9342     		cmp	r3, r2
 2834 00b6 01D1     		bne	.L176
 2835              	.L175:
 2836              		.loc 1 1281 6 discriminator 3
 2837 00b8 0123     		movs	r3, #1
 2838 00ba 00E0     		b	.L177
 2839              	.L176:
 2840              		.loc 1 1281 6 discriminator 4
 2841 00bc 0023     		movs	r3, #0
 2842              	.L177:
 2843              		.loc 1 1281 5 is_stmt 1 discriminator 6
 2844 00be 002B     		cmp	r3, #0
 2845 00c0 17D0     		beq	.L178
1282:./Libraries/STM32F4xx_HAL_Driver/Src/stm32f4xx_hal_tim.c ****   {
1283:./Libraries/STM32F4xx_HAL_Driver/Src/stm32f4xx_hal_tim.c ****     /* Disable the Main Output */
1284:./Libraries/STM32F4xx_HAL_Driver/Src/stm32f4xx_hal_tim.c ****     __HAL_TIM_MOE_DISABLE(htim);
 2846              		.loc 1 1284 5
 2847 00c2 7B68     		ldr	r3, [r7, #4]
 2848 00c4 1B68     		ldr	r3, [r3]
 2849 00c6 1A6A     		ldr	r2, [r3, #32]
 2850 00c8 41F21113 		movw	r3, #4369
 2851 00cc 1340     		ands	r3, r3, r2
 2852 00ce 002B     		cmp	r3, #0
 2853 00d0 0FD1     		bne	.L178
 2854              		.loc 1 1284 5 is_stmt 0 discriminator 1
 2855 00d2 7B68     		ldr	r3, [r7, #4]
 2856 00d4 1B68     		ldr	r3, [r3]
 2857 00d6 1A6A     		ldr	r2, [r3, #32]
 2858 00d8 40F24443 		movw	r3, #1092
 2859 00dc 1340     		ands	r3, r3, r2
 2860 00de 002B     		cmp	r3, #0
 2861 00e0 07D1     		bne	.L178
 2862              		.loc 1 1284 5 discriminator 2
 2863 00e2 7B68     		ldr	r3, [r7, #4]
 2864 00e4 1B68     		ldr	r3, [r3]
 2865 00e6 5A6C     		ldr	r2, [r3, #68]
 2866 00e8 7B68     		ldr	r3, [r7, #4]
 2867 00ea 1B68     		ldr	r3, [r3]
 2868 00ec 22F40042 		bic	r2, r2, #32768
 2869 00f0 5A64     		str	r2, [r3, #68]
 2870              	.L178:
1285:./Libraries/STM32F4xx_HAL_Driver/Src/stm32f4xx_hal_tim.c ****   }
1286:./Libraries/STM32F4xx_HAL_Driver/Src/stm32f4xx_hal_tim.c ****   
1287:./Libraries/STM32F4xx_HAL_Driver/Src/stm32f4xx_hal_tim.c ****   /* Disable the Peripheral */
1288:./Libraries/STM32F4xx_HAL_Driver/Src/stm32f4xx_hal_tim.c ****   __HAL_TIM_DISABLE(htim);
 2871              		.loc 1 1288 3 is_stmt 1
ARM GAS  /tmp/ccvKwMj1.s 			page 73


 2872 00f2 7B68     		ldr	r3, [r7, #4]
 2873 00f4 1B68     		ldr	r3, [r3]
 2874 00f6 1A6A     		ldr	r2, [r3, #32]
 2875 00f8 41F21113 		movw	r3, #4369
 2876 00fc 1340     		ands	r3, r3, r2
 2877 00fe 002B     		cmp	r3, #0
 2878 0100 0FD1     		bne	.L179
 2879              		.loc 1 1288 3 is_stmt 0 discriminator 1
 2880 0102 7B68     		ldr	r3, [r7, #4]
 2881 0104 1B68     		ldr	r3, [r3]
 2882 0106 1A6A     		ldr	r2, [r3, #32]
 2883 0108 40F24443 		movw	r3, #1092
 2884 010c 1340     		ands	r3, r3, r2
 2885 010e 002B     		cmp	r3, #0
 2886 0110 07D1     		bne	.L179
 2887              		.loc 1 1288 3 discriminator 2
 2888 0112 7B68     		ldr	r3, [r7, #4]
 2889 0114 1B68     		ldr	r3, [r3]
 2890 0116 1A68     		ldr	r2, [r3]
 2891 0118 7B68     		ldr	r3, [r7, #4]
 2892 011a 1B68     		ldr	r3, [r3]
 2893 011c 22F00102 		bic	r2, r2, #1
 2894 0120 1A60     		str	r2, [r3]
 2895              	.L179:
1289:./Libraries/STM32F4xx_HAL_Driver/Src/stm32f4xx_hal_tim.c ****   
1290:./Libraries/STM32F4xx_HAL_Driver/Src/stm32f4xx_hal_tim.c ****   /* Return function status */
1291:./Libraries/STM32F4xx_HAL_Driver/Src/stm32f4xx_hal_tim.c ****   return HAL_OK;
 2896              		.loc 1 1291 10 is_stmt 1
 2897 0122 0023     		movs	r3, #0
1292:./Libraries/STM32F4xx_HAL_Driver/Src/stm32f4xx_hal_tim.c **** } 
 2898              		.loc 1 1292 1
 2899 0124 1846     		mov	r0, r3
 2900 0126 0837     		adds	r7, r7, #8
 2901              	.LCFI149:
 2902              		.cfi_def_cfa_offset 8
 2903 0128 BD46     		mov	sp, r7
 2904              	.LCFI150:
 2905              		.cfi_def_cfa_register 13
 2906              		@ sp needed
 2907 012a 80BD     		pop	{r7, pc}
 2908              	.L183:
 2909              		.align	2
 2910              	.L182:
 2911 012c 00000140 		.word	1073807360
 2912 0130 00040140 		.word	1073808384
 2913              		.cfi_endproc
 2914              	.LFE153:
 2916              		.section	.text.HAL_TIM_PWM_Start_DMA,"ax",%progbits
 2917              		.align	1
 2918              		.global	HAL_TIM_PWM_Start_DMA
 2919              		.syntax unified
 2920              		.thumb
 2921              		.thumb_func
 2922              		.fpu fpv4-sp-d16
 2924              	HAL_TIM_PWM_Start_DMA:
 2925              	.LFB154:
1293:./Libraries/STM32F4xx_HAL_Driver/Src/stm32f4xx_hal_tim.c **** 
ARM GAS  /tmp/ccvKwMj1.s 			page 74


1294:./Libraries/STM32F4xx_HAL_Driver/Src/stm32f4xx_hal_tim.c **** /**
1295:./Libraries/STM32F4xx_HAL_Driver/Src/stm32f4xx_hal_tim.c ****   * @brief  Starts the TIM PWM signal generation in DMA mode.
1296:./Libraries/STM32F4xx_HAL_Driver/Src/stm32f4xx_hal_tim.c ****   * @param  htim pointer to a TIM_HandleTypeDef structure that contains
1297:./Libraries/STM32F4xx_HAL_Driver/Src/stm32f4xx_hal_tim.c ****   *                the configuration information for TIM module.
1298:./Libraries/STM32F4xx_HAL_Driver/Src/stm32f4xx_hal_tim.c ****   * @param  Channel TIM Channels to be enabled.
1299:./Libraries/STM32F4xx_HAL_Driver/Src/stm32f4xx_hal_tim.c ****   *          This parameter can be one of the following values:
1300:./Libraries/STM32F4xx_HAL_Driver/Src/stm32f4xx_hal_tim.c ****   *            @arg TIM_CHANNEL_1: TIM Channel 1 selected
1301:./Libraries/STM32F4xx_HAL_Driver/Src/stm32f4xx_hal_tim.c ****   *            @arg TIM_CHANNEL_2: TIM Channel 2 selected
1302:./Libraries/STM32F4xx_HAL_Driver/Src/stm32f4xx_hal_tim.c ****   *            @arg TIM_CHANNEL_3: TIM Channel 3 selected
1303:./Libraries/STM32F4xx_HAL_Driver/Src/stm32f4xx_hal_tim.c ****   *            @arg TIM_CHANNEL_4: TIM Channel 4 selected
1304:./Libraries/STM32F4xx_HAL_Driver/Src/stm32f4xx_hal_tim.c ****   * @param  pData The source Buffer address.
1305:./Libraries/STM32F4xx_HAL_Driver/Src/stm32f4xx_hal_tim.c ****   * @param  Length The length of data to be transferred from memory to TIM peripheral
1306:./Libraries/STM32F4xx_HAL_Driver/Src/stm32f4xx_hal_tim.c ****   * @retval HAL status
1307:./Libraries/STM32F4xx_HAL_Driver/Src/stm32f4xx_hal_tim.c ****   */
1308:./Libraries/STM32F4xx_HAL_Driver/Src/stm32f4xx_hal_tim.c **** HAL_StatusTypeDef HAL_TIM_PWM_Start_DMA(TIM_HandleTypeDef *htim, uint32_t Channel, uint32_t *pData,
1309:./Libraries/STM32F4xx_HAL_Driver/Src/stm32f4xx_hal_tim.c **** {
 2926              		.loc 1 1309 1
 2927              		.cfi_startproc
 2928              		@ args = 0, pretend = 0, frame = 16
 2929              		@ frame_needed = 1, uses_anonymous_args = 0
 2930 0000 80B5     		push	{r7, lr}
 2931              	.LCFI151:
 2932              		.cfi_def_cfa_offset 8
 2933              		.cfi_offset 7, -8
 2934              		.cfi_offset 14, -4
 2935 0002 84B0     		sub	sp, sp, #16
 2936              	.LCFI152:
 2937              		.cfi_def_cfa_offset 24
 2938 0004 00AF     		add	r7, sp, #0
 2939              	.LCFI153:
 2940              		.cfi_def_cfa_register 7
 2941 0006 F860     		str	r0, [r7, #12]
 2942 0008 B960     		str	r1, [r7, #8]
 2943 000a 7A60     		str	r2, [r7, #4]
 2944 000c 7B80     		strh	r3, [r7, #2]	@ movhi
1310:./Libraries/STM32F4xx_HAL_Driver/Src/stm32f4xx_hal_tim.c ****   /* Check the parameters */
1311:./Libraries/STM32F4xx_HAL_Driver/Src/stm32f4xx_hal_tim.c ****   assert_param(IS_TIM_CCX_INSTANCE(htim->Instance, Channel));
1312:./Libraries/STM32F4xx_HAL_Driver/Src/stm32f4xx_hal_tim.c ****   
1313:./Libraries/STM32F4xx_HAL_Driver/Src/stm32f4xx_hal_tim.c ****   if((htim->State == HAL_TIM_STATE_BUSY))
 2945              		.loc 1 1313 11
 2946 000e FB68     		ldr	r3, [r7, #12]
 2947 0010 93F83930 		ldrb	r3, [r3, #57]
 2948 0014 DBB2     		uxtb	r3, r3
 2949              		.loc 1 1313 5
 2950 0016 022B     		cmp	r3, #2
 2951 0018 01D1     		bne	.L185
1314:./Libraries/STM32F4xx_HAL_Driver/Src/stm32f4xx_hal_tim.c ****   {
1315:./Libraries/STM32F4xx_HAL_Driver/Src/stm32f4xx_hal_tim.c ****      return HAL_BUSY;
 2952              		.loc 1 1315 13
 2953 001a 0223     		movs	r3, #2
 2954 001c C6E0     		b	.L186
 2955              	.L185:
1316:./Libraries/STM32F4xx_HAL_Driver/Src/stm32f4xx_hal_tim.c ****   }
1317:./Libraries/STM32F4xx_HAL_Driver/Src/stm32f4xx_hal_tim.c ****   else if((htim->State == HAL_TIM_STATE_READY))
 2956              		.loc 1 1317 16
 2957 001e FB68     		ldr	r3, [r7, #12]
 2958 0020 93F83930 		ldrb	r3, [r3, #57]
ARM GAS  /tmp/ccvKwMj1.s 			page 75


 2959 0024 DBB2     		uxtb	r3, r3
 2960              		.loc 1 1317 10
 2961 0026 012B     		cmp	r3, #1
 2962 0028 0BD1     		bne	.L187
1318:./Libraries/STM32F4xx_HAL_Driver/Src/stm32f4xx_hal_tim.c ****   {
1319:./Libraries/STM32F4xx_HAL_Driver/Src/stm32f4xx_hal_tim.c ****     if(((uint32_t)pData == 0U) && (Length > 0)) 
 2963              		.loc 1 1319 7
 2964 002a 7B68     		ldr	r3, [r7, #4]
 2965 002c 002B     		cmp	r3, #0
 2966 002e 04D1     		bne	.L188
 2967              		.loc 1 1319 32 discriminator 1
 2968 0030 7B88     		ldrh	r3, [r7, #2]
 2969 0032 002B     		cmp	r3, #0
 2970 0034 01D0     		beq	.L188
1320:./Libraries/STM32F4xx_HAL_Driver/Src/stm32f4xx_hal_tim.c ****     {
1321:./Libraries/STM32F4xx_HAL_Driver/Src/stm32f4xx_hal_tim.c ****       return HAL_ERROR;                                    
 2971              		.loc 1 1321 14
 2972 0036 0123     		movs	r3, #1
 2973 0038 B8E0     		b	.L186
 2974              	.L188:
1322:./Libraries/STM32F4xx_HAL_Driver/Src/stm32f4xx_hal_tim.c ****     }
1323:./Libraries/STM32F4xx_HAL_Driver/Src/stm32f4xx_hal_tim.c ****     else
1324:./Libraries/STM32F4xx_HAL_Driver/Src/stm32f4xx_hal_tim.c ****     {
1325:./Libraries/STM32F4xx_HAL_Driver/Src/stm32f4xx_hal_tim.c ****       htim->State = HAL_TIM_STATE_BUSY;
 2975              		.loc 1 1325 19
 2976 003a FB68     		ldr	r3, [r7, #12]
 2977 003c 0222     		movs	r2, #2
 2978 003e 83F83920 		strb	r2, [r3, #57]
 2979              	.L187:
 2980 0042 BB68     		ldr	r3, [r7, #8]
 2981 0044 0C2B     		cmp	r3, #12
 2982 0046 00F28980 		bhi	.L200
 2983 004a 01A2     		adr	r2, .L191
 2984 004c 52F823F0 		ldr	pc, [r2, r3, lsl #2]
 2985              		.p2align 2
 2986              	.L191:
 2987 0050 85000000 		.word	.L194+1
 2988 0054 5D010000 		.word	.L200+1
 2989 0058 5D010000 		.word	.L200+1
 2990 005c 5D010000 		.word	.L200+1
 2991 0060 BB000000 		.word	.L193+1
 2992 0064 5D010000 		.word	.L200+1
 2993 0068 5D010000 		.word	.L200+1
 2994 006c 5D010000 		.word	.L200+1
 2995 0070 F1000000 		.word	.L192+1
 2996 0074 5D010000 		.word	.L200+1
 2997 0078 5D010000 		.word	.L200+1
 2998 007c 5D010000 		.word	.L200+1
 2999 0080 27010000 		.word	.L190+1
 3000              		.p2align 1
 3001              	.L194:
1326:./Libraries/STM32F4xx_HAL_Driver/Src/stm32f4xx_hal_tim.c ****     }
1327:./Libraries/STM32F4xx_HAL_Driver/Src/stm32f4xx_hal_tim.c ****   }    
1328:./Libraries/STM32F4xx_HAL_Driver/Src/stm32f4xx_hal_tim.c ****   switch (Channel)
1329:./Libraries/STM32F4xx_HAL_Driver/Src/stm32f4xx_hal_tim.c ****   {
1330:./Libraries/STM32F4xx_HAL_Driver/Src/stm32f4xx_hal_tim.c ****     case TIM_CHANNEL_1:
1331:./Libraries/STM32F4xx_HAL_Driver/Src/stm32f4xx_hal_tim.c ****     {      
ARM GAS  /tmp/ccvKwMj1.s 			page 76


1332:./Libraries/STM32F4xx_HAL_Driver/Src/stm32f4xx_hal_tim.c ****       /* Set the DMA Period elapsed callback */
1333:./Libraries/STM32F4xx_HAL_Driver/Src/stm32f4xx_hal_tim.c ****       htim->hdma[TIM_DMA_ID_CC1]->XferCpltCallback = TIM_DMADelayPulseCplt;
 3002              		.loc 1 1333 17
 3003 0084 FB68     		ldr	r3, [r7, #12]
 3004 0086 1B6A     		ldr	r3, [r3, #32]
 3005              		.loc 1 1333 52
 3006 0088 4A4A     		ldr	r2, .L201
 3007 008a DA63     		str	r2, [r3, #60]
1334:./Libraries/STM32F4xx_HAL_Driver/Src/stm32f4xx_hal_tim.c ****      
1335:./Libraries/STM32F4xx_HAL_Driver/Src/stm32f4xx_hal_tim.c ****       /* Set the DMA error callback */
1336:./Libraries/STM32F4xx_HAL_Driver/Src/stm32f4xx_hal_tim.c ****       htim->hdma[TIM_DMA_ID_CC1]->XferErrorCallback = TIM_DMAError ;
 3008              		.loc 1 1336 17
 3009 008c FB68     		ldr	r3, [r7, #12]
 3010 008e 1B6A     		ldr	r3, [r3, #32]
 3011              		.loc 1 1336 53
 3012 0090 494A     		ldr	r2, .L201+4
 3013 0092 DA64     		str	r2, [r3, #76]
1337:./Libraries/STM32F4xx_HAL_Driver/Src/stm32f4xx_hal_tim.c ****       
1338:./Libraries/STM32F4xx_HAL_Driver/Src/stm32f4xx_hal_tim.c ****       /* Enable the DMA Stream */
1339:./Libraries/STM32F4xx_HAL_Driver/Src/stm32f4xx_hal_tim.c ****       HAL_DMA_Start_IT(htim->hdma[TIM_DMA_ID_CC1], (uint32_t)pData, (uint32_t)&htim->Instance->CCR1
 3014              		.loc 1 1339 7
 3015 0094 FB68     		ldr	r3, [r7, #12]
 3016 0096 186A     		ldr	r0, [r3, #32]
 3017 0098 7968     		ldr	r1, [r7, #4]
 3018              		.loc 1 1339 84
 3019 009a FB68     		ldr	r3, [r7, #12]
 3020 009c 1B68     		ldr	r3, [r3]
 3021              		.loc 1 1339 79
 3022 009e 3433     		adds	r3, r3, #52
 3023              		.loc 1 1339 7
 3024 00a0 1A46     		mov	r2, r3
 3025 00a2 7B88     		ldrh	r3, [r7, #2]
 3026 00a4 FFF7FEFF 		bl	HAL_DMA_Start_IT
1340:./Libraries/STM32F4xx_HAL_Driver/Src/stm32f4xx_hal_tim.c ****       
1341:./Libraries/STM32F4xx_HAL_Driver/Src/stm32f4xx_hal_tim.c ****       /* Enable the TIM Capture/Compare 1 DMA request */
1342:./Libraries/STM32F4xx_HAL_Driver/Src/stm32f4xx_hal_tim.c ****       __HAL_TIM_ENABLE_DMA(htim, TIM_DMA_CC1);
 3027              		.loc 1 1342 7
 3028 00a8 FB68     		ldr	r3, [r7, #12]
 3029 00aa 1B68     		ldr	r3, [r3]
 3030 00ac DA68     		ldr	r2, [r3, #12]
 3031 00ae FB68     		ldr	r3, [r7, #12]
 3032 00b0 1B68     		ldr	r3, [r3]
 3033 00b2 42F40072 		orr	r2, r2, #512
 3034 00b6 DA60     		str	r2, [r3, #12]
1343:./Libraries/STM32F4xx_HAL_Driver/Src/stm32f4xx_hal_tim.c ****     }
1344:./Libraries/STM32F4xx_HAL_Driver/Src/stm32f4xx_hal_tim.c ****     break;
 3035              		.loc 1 1344 5
 3036 00b8 51E0     		b	.L195
 3037              	.L193:
1345:./Libraries/STM32F4xx_HAL_Driver/Src/stm32f4xx_hal_tim.c ****     
1346:./Libraries/STM32F4xx_HAL_Driver/Src/stm32f4xx_hal_tim.c ****     case TIM_CHANNEL_2:
1347:./Libraries/STM32F4xx_HAL_Driver/Src/stm32f4xx_hal_tim.c ****     {
1348:./Libraries/STM32F4xx_HAL_Driver/Src/stm32f4xx_hal_tim.c ****       /* Set the DMA Period elapsed callback */
1349:./Libraries/STM32F4xx_HAL_Driver/Src/stm32f4xx_hal_tim.c ****       htim->hdma[TIM_DMA_ID_CC2]->XferCpltCallback = TIM_DMADelayPulseCplt;
 3038              		.loc 1 1349 17
 3039 00ba FB68     		ldr	r3, [r7, #12]
 3040 00bc 5B6A     		ldr	r3, [r3, #36]
ARM GAS  /tmp/ccvKwMj1.s 			page 77


 3041              		.loc 1 1349 52
 3042 00be 3D4A     		ldr	r2, .L201
 3043 00c0 DA63     		str	r2, [r3, #60]
1350:./Libraries/STM32F4xx_HAL_Driver/Src/stm32f4xx_hal_tim.c ****      
1351:./Libraries/STM32F4xx_HAL_Driver/Src/stm32f4xx_hal_tim.c ****       /* Set the DMA error callback */
1352:./Libraries/STM32F4xx_HAL_Driver/Src/stm32f4xx_hal_tim.c ****       htim->hdma[TIM_DMA_ID_CC2]->XferErrorCallback = TIM_DMAError ;
 3044              		.loc 1 1352 17
 3045 00c2 FB68     		ldr	r3, [r7, #12]
 3046 00c4 5B6A     		ldr	r3, [r3, #36]
 3047              		.loc 1 1352 53
 3048 00c6 3C4A     		ldr	r2, .L201+4
 3049 00c8 DA64     		str	r2, [r3, #76]
1353:./Libraries/STM32F4xx_HAL_Driver/Src/stm32f4xx_hal_tim.c ****       
1354:./Libraries/STM32F4xx_HAL_Driver/Src/stm32f4xx_hal_tim.c ****       /* Enable the DMA Stream */
1355:./Libraries/STM32F4xx_HAL_Driver/Src/stm32f4xx_hal_tim.c ****       HAL_DMA_Start_IT(htim->hdma[TIM_DMA_ID_CC2], (uint32_t)pData, (uint32_t)&htim->Instance->CCR2
 3050              		.loc 1 1355 7
 3051 00ca FB68     		ldr	r3, [r7, #12]
 3052 00cc 586A     		ldr	r0, [r3, #36]
 3053 00ce 7968     		ldr	r1, [r7, #4]
 3054              		.loc 1 1355 84
 3055 00d0 FB68     		ldr	r3, [r7, #12]
 3056 00d2 1B68     		ldr	r3, [r3]
 3057              		.loc 1 1355 79
 3058 00d4 3833     		adds	r3, r3, #56
 3059              		.loc 1 1355 7
 3060 00d6 1A46     		mov	r2, r3
 3061 00d8 7B88     		ldrh	r3, [r7, #2]
 3062 00da FFF7FEFF 		bl	HAL_DMA_Start_IT
1356:./Libraries/STM32F4xx_HAL_Driver/Src/stm32f4xx_hal_tim.c ****       
1357:./Libraries/STM32F4xx_HAL_Driver/Src/stm32f4xx_hal_tim.c ****       /* Enable the TIM Capture/Compare 2 DMA request */
1358:./Libraries/STM32F4xx_HAL_Driver/Src/stm32f4xx_hal_tim.c ****       __HAL_TIM_ENABLE_DMA(htim, TIM_DMA_CC2);
 3063              		.loc 1 1358 7
 3064 00de FB68     		ldr	r3, [r7, #12]
 3065 00e0 1B68     		ldr	r3, [r3]
 3066 00e2 DA68     		ldr	r2, [r3, #12]
 3067 00e4 FB68     		ldr	r3, [r7, #12]
 3068 00e6 1B68     		ldr	r3, [r3]
 3069 00e8 42F48062 		orr	r2, r2, #1024
 3070 00ec DA60     		str	r2, [r3, #12]
1359:./Libraries/STM32F4xx_HAL_Driver/Src/stm32f4xx_hal_tim.c ****     }
1360:./Libraries/STM32F4xx_HAL_Driver/Src/stm32f4xx_hal_tim.c ****     break;
 3071              		.loc 1 1360 5
 3072 00ee 36E0     		b	.L195
 3073              	.L192:
1361:./Libraries/STM32F4xx_HAL_Driver/Src/stm32f4xx_hal_tim.c ****     
1362:./Libraries/STM32F4xx_HAL_Driver/Src/stm32f4xx_hal_tim.c ****     case TIM_CHANNEL_3:
1363:./Libraries/STM32F4xx_HAL_Driver/Src/stm32f4xx_hal_tim.c ****     {
1364:./Libraries/STM32F4xx_HAL_Driver/Src/stm32f4xx_hal_tim.c ****       /* Set the DMA Period elapsed callback */
1365:./Libraries/STM32F4xx_HAL_Driver/Src/stm32f4xx_hal_tim.c ****       htim->hdma[TIM_DMA_ID_CC3]->XferCpltCallback = TIM_DMADelayPulseCplt;
 3074              		.loc 1 1365 17
 3075 00f0 FB68     		ldr	r3, [r7, #12]
 3076 00f2 9B6A     		ldr	r3, [r3, #40]
 3077              		.loc 1 1365 52
 3078 00f4 2F4A     		ldr	r2, .L201
 3079 00f6 DA63     		str	r2, [r3, #60]
