ARM GAS  /tmp/ccIc9xCh.s 			page 1


   1              		.cpu cortex-m4
   2              		.eabi_attribute 27, 1
   3              		.eabi_attribute 28, 1
   4              		.eabi_attribute 20, 1
   5              		.eabi_attribute 21, 1
   6              		.eabi_attribute 23, 3
   7              		.eabi_attribute 24, 1
   8              		.eabi_attribute 25, 1
   9              		.eabi_attribute 26, 1
  10              		.eabi_attribute 30, 6
  11              		.eabi_attribute 34, 1
  12              		.eabi_attribute 18, 4
  13              		.file	"stm32f4xx_hal_i2s.c"
  14              		.text
  15              	.Ltext0:
  16              		.cfi_sections	.debug_frame
  17              		.section	.text.HAL_I2S_Init,"ax",%progbits
  18              		.align	1
  19              		.global	HAL_I2S_Init
  20              		.arch armv7e-m
  21              		.syntax unified
  22              		.thumb
  23              		.thumb_func
  24              		.fpu fpv4-sp-d16
  26              	HAL_I2S_Init:
  27              	.LFB126:
  28              		.file 1 "./Libraries/STM32F4xx_HAL_Driver/Src/stm32f4xx_hal_i2s.c"
   1:./Libraries/STM32F4xx_HAL_Driver/Src/stm32f4xx_hal_i2s.c **** /**
   2:./Libraries/STM32F4xx_HAL_Driver/Src/stm32f4xx_hal_i2s.c ****   ******************************************************************************
   3:./Libraries/STM32F4xx_HAL_Driver/Src/stm32f4xx_hal_i2s.c ****   * @file    stm32f4xx_hal_i2s.c
   4:./Libraries/STM32F4xx_HAL_Driver/Src/stm32f4xx_hal_i2s.c ****   * @author  MCD Application Team
   5:./Libraries/STM32F4xx_HAL_Driver/Src/stm32f4xx_hal_i2s.c ****   * @brief   I2S HAL module driver.
   6:./Libraries/STM32F4xx_HAL_Driver/Src/stm32f4xx_hal_i2s.c ****   *          This file provides firmware functions to manage the following
   7:./Libraries/STM32F4xx_HAL_Driver/Src/stm32f4xx_hal_i2s.c ****   *          functionalities of the Integrated Interchip Sound (I2S) peripheral:
   8:./Libraries/STM32F4xx_HAL_Driver/Src/stm32f4xx_hal_i2s.c ****   *           + Initialization and de-initialization functions
   9:./Libraries/STM32F4xx_HAL_Driver/Src/stm32f4xx_hal_i2s.c ****   *           + IO operation functions
  10:./Libraries/STM32F4xx_HAL_Driver/Src/stm32f4xx_hal_i2s.c ****   *           + Peripheral State and Errors functions
  11:./Libraries/STM32F4xx_HAL_Driver/Src/stm32f4xx_hal_i2s.c ****   @verbatim
  12:./Libraries/STM32F4xx_HAL_Driver/Src/stm32f4xx_hal_i2s.c ****  ===============================================================================
  13:./Libraries/STM32F4xx_HAL_Driver/Src/stm32f4xx_hal_i2s.c ****                   ##### How to use this driver #####
  14:./Libraries/STM32F4xx_HAL_Driver/Src/stm32f4xx_hal_i2s.c ****  ===============================================================================
  15:./Libraries/STM32F4xx_HAL_Driver/Src/stm32f4xx_hal_i2s.c ****  [..]
  16:./Libraries/STM32F4xx_HAL_Driver/Src/stm32f4xx_hal_i2s.c ****     The I2S HAL driver can be used as follow:
  17:./Libraries/STM32F4xx_HAL_Driver/Src/stm32f4xx_hal_i2s.c **** 
  18:./Libraries/STM32F4xx_HAL_Driver/Src/stm32f4xx_hal_i2s.c ****     (#) Declare a I2S_HandleTypeDef handle structure.
  19:./Libraries/STM32F4xx_HAL_Driver/Src/stm32f4xx_hal_i2s.c ****     (#) Initialize the I2S low level resources by implement the HAL_I2S_MspInit() API:
  20:./Libraries/STM32F4xx_HAL_Driver/Src/stm32f4xx_hal_i2s.c ****         (##) Enable the SPIx interface clock.
  21:./Libraries/STM32F4xx_HAL_Driver/Src/stm32f4xx_hal_i2s.c ****         (##) I2S pins configuration:
  22:./Libraries/STM32F4xx_HAL_Driver/Src/stm32f4xx_hal_i2s.c ****             (+++) Enable the clock for the I2S GPIOs.
  23:./Libraries/STM32F4xx_HAL_Driver/Src/stm32f4xx_hal_i2s.c ****             (+++) Configure these I2S pins as alternate function pull-up.
  24:./Libraries/STM32F4xx_HAL_Driver/Src/stm32f4xx_hal_i2s.c ****         (##) NVIC configuration if you need to use interrupt process (HAL_I2S_Transmit_IT()
  25:./Libraries/STM32F4xx_HAL_Driver/Src/stm32f4xx_hal_i2s.c ****              and HAL_I2S_Receive_IT() APIs).
  26:./Libraries/STM32F4xx_HAL_Driver/Src/stm32f4xx_hal_i2s.c ****             (+++) Configure the I2Sx interrupt priority.
  27:./Libraries/STM32F4xx_HAL_Driver/Src/stm32f4xx_hal_i2s.c ****             (+++) Enable the NVIC I2S IRQ handle.
  28:./Libraries/STM32F4xx_HAL_Driver/Src/stm32f4xx_hal_i2s.c ****         (##) DMA Configuration if you need to use DMA process (HAL_I2S_Transmit_DMA()
  29:./Libraries/STM32F4xx_HAL_Driver/Src/stm32f4xx_hal_i2s.c ****              and HAL_I2S_Receive_DMA() APIs:
  30:./Libraries/STM32F4xx_HAL_Driver/Src/stm32f4xx_hal_i2s.c ****             (+++) Declare a DMA handle structure for the Tx/Rx stream.
ARM GAS  /tmp/ccIc9xCh.s 			page 2


  31:./Libraries/STM32F4xx_HAL_Driver/Src/stm32f4xx_hal_i2s.c ****             (+++) Enable the DMAx interface clock.
  32:./Libraries/STM32F4xx_HAL_Driver/Src/stm32f4xx_hal_i2s.c ****             (+++) Configure the declared DMA handle structure with the required Tx/Rx parameters.
  33:./Libraries/STM32F4xx_HAL_Driver/Src/stm32f4xx_hal_i2s.c ****             (+++) Configure the DMA Tx/Rx Stream.
  34:./Libraries/STM32F4xx_HAL_Driver/Src/stm32f4xx_hal_i2s.c ****             (+++) Associate the initialized DMA handle to the I2S DMA Tx/Rx handle.
  35:./Libraries/STM32F4xx_HAL_Driver/Src/stm32f4xx_hal_i2s.c ****             (+++) Configure the priority and enable the NVIC for the transfer complete interrupt on
  36:./Libraries/STM32F4xx_HAL_Driver/Src/stm32f4xx_hal_i2s.c ****                 DMA Tx/Rx Stream.
  37:./Libraries/STM32F4xx_HAL_Driver/Src/stm32f4xx_hal_i2s.c **** 
  38:./Libraries/STM32F4xx_HAL_Driver/Src/stm32f4xx_hal_i2s.c ****    (#) Program the Mode, Standard, Data Format, MCLK Output, Audio frequency and Polarity
  39:./Libraries/STM32F4xx_HAL_Driver/Src/stm32f4xx_hal_i2s.c ****        using HAL_I2S_Init() function.
  40:./Libraries/STM32F4xx_HAL_Driver/Src/stm32f4xx_hal_i2s.c **** 
  41:./Libraries/STM32F4xx_HAL_Driver/Src/stm32f4xx_hal_i2s.c ****    -@- The specific I2S interrupts (Transmission complete interrupt,
  42:./Libraries/STM32F4xx_HAL_Driver/Src/stm32f4xx_hal_i2s.c ****        RXNE interrupt and Error Interrupts) will be managed using the macros
  43:./Libraries/STM32F4xx_HAL_Driver/Src/stm32f4xx_hal_i2s.c ****        __HAL_I2S_ENABLE_IT() and __HAL_I2S_DISABLE_IT() inside the transmit and receive process.
  44:./Libraries/STM32F4xx_HAL_Driver/Src/stm32f4xx_hal_i2s.c ****    -@- Make sure that either:
  45:./Libraries/STM32F4xx_HAL_Driver/Src/stm32f4xx_hal_i2s.c ****         (+@) I2S PLL is configured or
  46:./Libraries/STM32F4xx_HAL_Driver/Src/stm32f4xx_hal_i2s.c ****         (+@) External clock source is configured after setting correctly
  47:./Libraries/STM32F4xx_HAL_Driver/Src/stm32f4xx_hal_i2s.c ****              the define constant EXTERNAL_CLOCK_VALUE in the stm32f4xx_hal_conf.h file.
  48:./Libraries/STM32F4xx_HAL_Driver/Src/stm32f4xx_hal_i2s.c **** 
  49:./Libraries/STM32F4xx_HAL_Driver/Src/stm32f4xx_hal_i2s.c ****    (#) Three operation modes are available within this driver :
  50:./Libraries/STM32F4xx_HAL_Driver/Src/stm32f4xx_hal_i2s.c **** 
  51:./Libraries/STM32F4xx_HAL_Driver/Src/stm32f4xx_hal_i2s.c ****    *** Polling mode IO operation ***
  52:./Libraries/STM32F4xx_HAL_Driver/Src/stm32f4xx_hal_i2s.c ****    =================================
  53:./Libraries/STM32F4xx_HAL_Driver/Src/stm32f4xx_hal_i2s.c ****    [..]
  54:./Libraries/STM32F4xx_HAL_Driver/Src/stm32f4xx_hal_i2s.c ****      (+) Send an amount of data in blocking mode using HAL_I2S_Transmit()
  55:./Libraries/STM32F4xx_HAL_Driver/Src/stm32f4xx_hal_i2s.c ****      (+) Receive an amount of data in blocking mode using HAL_I2S_Receive()
  56:./Libraries/STM32F4xx_HAL_Driver/Src/stm32f4xx_hal_i2s.c **** 
  57:./Libraries/STM32F4xx_HAL_Driver/Src/stm32f4xx_hal_i2s.c ****    *** Interrupt mode IO operation ***
  58:./Libraries/STM32F4xx_HAL_Driver/Src/stm32f4xx_hal_i2s.c ****    ===================================
  59:./Libraries/STM32F4xx_HAL_Driver/Src/stm32f4xx_hal_i2s.c ****    [..]
  60:./Libraries/STM32F4xx_HAL_Driver/Src/stm32f4xx_hal_i2s.c ****      (+) Send an amount of data in non blocking mode using HAL_I2S_Transmit_IT()
  61:./Libraries/STM32F4xx_HAL_Driver/Src/stm32f4xx_hal_i2s.c ****      (+) At transmission end of half transfer HAL_I2S_TxHalfCpltCallback is executed and user can
  62:./Libraries/STM32F4xx_HAL_Driver/Src/stm32f4xx_hal_i2s.c ****          add his own code by customization of function pointer HAL_I2S_TxHalfCpltCallback
  63:./Libraries/STM32F4xx_HAL_Driver/Src/stm32f4xx_hal_i2s.c ****      (+) At transmission end of transfer HAL_I2S_TxCpltCallback is executed and user can
  64:./Libraries/STM32F4xx_HAL_Driver/Src/stm32f4xx_hal_i2s.c ****          add his own code by customization of function pointer HAL_I2S_TxCpltCallback
  65:./Libraries/STM32F4xx_HAL_Driver/Src/stm32f4xx_hal_i2s.c ****      (+) Receive an amount of data in non blocking mode using HAL_I2S_Receive_IT()
  66:./Libraries/STM32F4xx_HAL_Driver/Src/stm32f4xx_hal_i2s.c ****      (+) At reception end of half transfer HAL_I2S_RxHalfCpltCallback is executed and user can
  67:./Libraries/STM32F4xx_HAL_Driver/Src/stm32f4xx_hal_i2s.c ****          add his own code by customization of function pointer HAL_I2S_RxHalfCpltCallback
  68:./Libraries/STM32F4xx_HAL_Driver/Src/stm32f4xx_hal_i2s.c ****      (+) At reception end of transfer HAL_I2S_RxCpltCallback is executed and user can
  69:./Libraries/STM32F4xx_HAL_Driver/Src/stm32f4xx_hal_i2s.c ****          add his own code by customization of function pointer HAL_I2S_RxCpltCallback
  70:./Libraries/STM32F4xx_HAL_Driver/Src/stm32f4xx_hal_i2s.c ****      (+) In case of transfer Error, HAL_I2S_ErrorCallback() function is executed and user can
  71:./Libraries/STM32F4xx_HAL_Driver/Src/stm32f4xx_hal_i2s.c ****          add his own code by customization of function pointer HAL_I2S_ErrorCallback
  72:./Libraries/STM32F4xx_HAL_Driver/Src/stm32f4xx_hal_i2s.c **** 
  73:./Libraries/STM32F4xx_HAL_Driver/Src/stm32f4xx_hal_i2s.c ****    *** DMA mode IO operation ***
  74:./Libraries/STM32F4xx_HAL_Driver/Src/stm32f4xx_hal_i2s.c ****    ==============================
  75:./Libraries/STM32F4xx_HAL_Driver/Src/stm32f4xx_hal_i2s.c ****    [..]
  76:./Libraries/STM32F4xx_HAL_Driver/Src/stm32f4xx_hal_i2s.c ****      (+) Send an amount of data in non blocking mode (DMA) using HAL_I2S_Transmit_DMA()
  77:./Libraries/STM32F4xx_HAL_Driver/Src/stm32f4xx_hal_i2s.c ****      (+) At transmission end of half transfer HAL_I2S_TxHalfCpltCallback is executed and user can
  78:./Libraries/STM32F4xx_HAL_Driver/Src/stm32f4xx_hal_i2s.c ****          add his own code by customization of function pointer HAL_I2S_TxHalfCpltCallback
  79:./Libraries/STM32F4xx_HAL_Driver/Src/stm32f4xx_hal_i2s.c ****      (+) At transmission end of transfer HAL_I2S_TxCpltCallback is executed and user can
  80:./Libraries/STM32F4xx_HAL_Driver/Src/stm32f4xx_hal_i2s.c ****          add his own code by customization of function pointer HAL_I2S_TxCpltCallback
  81:./Libraries/STM32F4xx_HAL_Driver/Src/stm32f4xx_hal_i2s.c ****      (+) Receive an amount of data in non blocking mode (DMA) using HAL_I2S_Receive_DMA()
  82:./Libraries/STM32F4xx_HAL_Driver/Src/stm32f4xx_hal_i2s.c ****      (+) At reception end of half transfer HAL_I2S_RxHalfCpltCallback is executed and user can
  83:./Libraries/STM32F4xx_HAL_Driver/Src/stm32f4xx_hal_i2s.c ****          add his own code by customization of function pointer HAL_I2S_RxHalfCpltCallback
  84:./Libraries/STM32F4xx_HAL_Driver/Src/stm32f4xx_hal_i2s.c ****      (+) At reception end of transfer HAL_I2S_RxCpltCallback is executed and user can
  85:./Libraries/STM32F4xx_HAL_Driver/Src/stm32f4xx_hal_i2s.c ****          add his own code by customization of function pointer HAL_I2S_RxCpltCallback
  86:./Libraries/STM32F4xx_HAL_Driver/Src/stm32f4xx_hal_i2s.c ****      (+) In case of transfer Error, HAL_I2S_ErrorCallback() function is executed and user can
  87:./Libraries/STM32F4xx_HAL_Driver/Src/stm32f4xx_hal_i2s.c ****          add his own code by customization of function pointer HAL_I2S_ErrorCallback
ARM GAS  /tmp/ccIc9xCh.s 			page 3


  88:./Libraries/STM32F4xx_HAL_Driver/Src/stm32f4xx_hal_i2s.c ****      (+) Pause the DMA Transfer using HAL_I2S_DMAPause()
  89:./Libraries/STM32F4xx_HAL_Driver/Src/stm32f4xx_hal_i2s.c ****      (+) Resume the DMA Transfer using HAL_I2S_DMAResume()
  90:./Libraries/STM32F4xx_HAL_Driver/Src/stm32f4xx_hal_i2s.c ****      (+) Stop the DMA Transfer using HAL_I2S_DMAStop()
  91:./Libraries/STM32F4xx_HAL_Driver/Src/stm32f4xx_hal_i2s.c **** 
  92:./Libraries/STM32F4xx_HAL_Driver/Src/stm32f4xx_hal_i2s.c ****    *** I2S HAL driver macros list ***
  93:./Libraries/STM32F4xx_HAL_Driver/Src/stm32f4xx_hal_i2s.c ****    =============================================
  94:./Libraries/STM32F4xx_HAL_Driver/Src/stm32f4xx_hal_i2s.c ****    [..]
  95:./Libraries/STM32F4xx_HAL_Driver/Src/stm32f4xx_hal_i2s.c ****      Below the list of most used macros in I2S HAL driver.
  96:./Libraries/STM32F4xx_HAL_Driver/Src/stm32f4xx_hal_i2s.c **** 
  97:./Libraries/STM32F4xx_HAL_Driver/Src/stm32f4xx_hal_i2s.c ****       (+) __HAL_I2S_ENABLE: Enable the specified SPI peripheral (in I2S mode)
  98:./Libraries/STM32F4xx_HAL_Driver/Src/stm32f4xx_hal_i2s.c ****       (+) __HAL_I2S_DISABLE: Disable the specified SPI peripheral (in I2S mode)
  99:./Libraries/STM32F4xx_HAL_Driver/Src/stm32f4xx_hal_i2s.c ****       (+) __HAL_I2S_ENABLE_IT : Enable the specified I2S interrupts
 100:./Libraries/STM32F4xx_HAL_Driver/Src/stm32f4xx_hal_i2s.c ****       (+) __HAL_I2S_DISABLE_IT : Disable the specified I2S interrupts
 101:./Libraries/STM32F4xx_HAL_Driver/Src/stm32f4xx_hal_i2s.c ****       (+) __HAL_I2S_GET_FLAG: Check whether the specified I2S flag is set or not
 102:./Libraries/STM32F4xx_HAL_Driver/Src/stm32f4xx_hal_i2s.c **** 
 103:./Libraries/STM32F4xx_HAL_Driver/Src/stm32f4xx_hal_i2s.c ****     [..]
 104:./Libraries/STM32F4xx_HAL_Driver/Src/stm32f4xx_hal_i2s.c ****       (@) You can refer to the I2S HAL driver header file for more useful macros
 105:./Libraries/STM32F4xx_HAL_Driver/Src/stm32f4xx_hal_i2s.c **** 
 106:./Libraries/STM32F4xx_HAL_Driver/Src/stm32f4xx_hal_i2s.c ****   @endverbatim
 107:./Libraries/STM32F4xx_HAL_Driver/Src/stm32f4xx_hal_i2s.c ****   ******************************************************************************
 108:./Libraries/STM32F4xx_HAL_Driver/Src/stm32f4xx_hal_i2s.c ****   * @attention
 109:./Libraries/STM32F4xx_HAL_Driver/Src/stm32f4xx_hal_i2s.c ****   *
 110:./Libraries/STM32F4xx_HAL_Driver/Src/stm32f4xx_hal_i2s.c ****   * <h2><center>&copy; COPYRIGHT(c) 2017 STMicroelectronics</center></h2>
 111:./Libraries/STM32F4xx_HAL_Driver/Src/stm32f4xx_hal_i2s.c ****   *
 112:./Libraries/STM32F4xx_HAL_Driver/Src/stm32f4xx_hal_i2s.c ****   * Redistribution and use in source and binary forms, with or without modification,
 113:./Libraries/STM32F4xx_HAL_Driver/Src/stm32f4xx_hal_i2s.c ****   * are permitted provided that the following conditions are met:
 114:./Libraries/STM32F4xx_HAL_Driver/Src/stm32f4xx_hal_i2s.c ****   *   1. Redistributions of source code must retain the above copyright notice,
 115:./Libraries/STM32F4xx_HAL_Driver/Src/stm32f4xx_hal_i2s.c ****   *      this list of conditions and the following disclaimer.
 116:./Libraries/STM32F4xx_HAL_Driver/Src/stm32f4xx_hal_i2s.c ****   *   2. Redistributions in binary form must reproduce the above copyright notice,
 117:./Libraries/STM32F4xx_HAL_Driver/Src/stm32f4xx_hal_i2s.c ****   *      this list of conditions and the following disclaimer in the documentation
 118:./Libraries/STM32F4xx_HAL_Driver/Src/stm32f4xx_hal_i2s.c ****   *      and/or other materials provided with the distribution.
 119:./Libraries/STM32F4xx_HAL_Driver/Src/stm32f4xx_hal_i2s.c ****   *   3. Neither the name of STMicroelectronics nor the names of its contributors
 120:./Libraries/STM32F4xx_HAL_Driver/Src/stm32f4xx_hal_i2s.c ****   *      may be used to endorse or promote products derived from this software
 121:./Libraries/STM32F4xx_HAL_Driver/Src/stm32f4xx_hal_i2s.c ****   *      without specific prior written permission.
 122:./Libraries/STM32F4xx_HAL_Driver/Src/stm32f4xx_hal_i2s.c ****   *
 123:./Libraries/STM32F4xx_HAL_Driver/Src/stm32f4xx_hal_i2s.c ****   * THIS SOFTWARE IS PROVIDED BY THE COPYRIGHT HOLDERS AND CONTRIBUTORS "AS IS"
 124:./Libraries/STM32F4xx_HAL_Driver/Src/stm32f4xx_hal_i2s.c ****   * AND ANY EXPRESS OR IMPLIED WARRANTIES, INCLUDING, BUT NOT LIMITED TO, THE
 125:./Libraries/STM32F4xx_HAL_Driver/Src/stm32f4xx_hal_i2s.c ****   * IMPLIED WARRANTIES OF MERCHANTABILITY AND FITNESS FOR A PARTICULAR PURPOSE ARE
 126:./Libraries/STM32F4xx_HAL_Driver/Src/stm32f4xx_hal_i2s.c ****   * DISCLAIMED. IN NO EVENT SHALL THE COPYRIGHT HOLDER OR CONTRIBUTORS BE LIABLE
 127:./Libraries/STM32F4xx_HAL_Driver/Src/stm32f4xx_hal_i2s.c ****   * FOR ANY DIRECT, INDIRECT, INCIDENTAL, SPECIAL, EXEMPLARY, OR CONSEQUENTIAL
 128:./Libraries/STM32F4xx_HAL_Driver/Src/stm32f4xx_hal_i2s.c ****   * DAMAGES (INCLUDING, BUT NOT LIMITED TO, PROCUREMENT OF SUBSTITUTE GOODS OR
 129:./Libraries/STM32F4xx_HAL_Driver/Src/stm32f4xx_hal_i2s.c ****   * SERVICES; LOSS OF USE, DATA, OR PROFITS; OR BUSINESS INTERRUPTION) HOWEVER
 130:./Libraries/STM32F4xx_HAL_Driver/Src/stm32f4xx_hal_i2s.c ****   * CAUSED AND ON ANY THEORY OF LIABILITY, WHETHER IN CONTRACT, STRICT LIABILITY,
 131:./Libraries/STM32F4xx_HAL_Driver/Src/stm32f4xx_hal_i2s.c ****   * OR TORT (INCLUDING NEGLIGENCE OR OTHERWISE) ARISING IN ANY WAY OUT OF THE USE
 132:./Libraries/STM32F4xx_HAL_Driver/Src/stm32f4xx_hal_i2s.c ****   * OF THIS SOFTWARE, EVEN IF ADVISED OF THE POSSIBILITY OF SUCH DAMAGE.
 133:./Libraries/STM32F4xx_HAL_Driver/Src/stm32f4xx_hal_i2s.c ****   *
 134:./Libraries/STM32F4xx_HAL_Driver/Src/stm32f4xx_hal_i2s.c ****   ******************************************************************************
 135:./Libraries/STM32F4xx_HAL_Driver/Src/stm32f4xx_hal_i2s.c ****   */
 136:./Libraries/STM32F4xx_HAL_Driver/Src/stm32f4xx_hal_i2s.c **** 
 137:./Libraries/STM32F4xx_HAL_Driver/Src/stm32f4xx_hal_i2s.c **** /* Includes ------------------------------------------------------------------*/
 138:./Libraries/STM32F4xx_HAL_Driver/Src/stm32f4xx_hal_i2s.c **** #include "stm32f4xx_hal.h"
 139:./Libraries/STM32F4xx_HAL_Driver/Src/stm32f4xx_hal_i2s.c **** 
 140:./Libraries/STM32F4xx_HAL_Driver/Src/stm32f4xx_hal_i2s.c **** /** @addtogroup STM32F4xx_HAL_Driver
 141:./Libraries/STM32F4xx_HAL_Driver/Src/stm32f4xx_hal_i2s.c ****   * @{
 142:./Libraries/STM32F4xx_HAL_Driver/Src/stm32f4xx_hal_i2s.c ****   */
 143:./Libraries/STM32F4xx_HAL_Driver/Src/stm32f4xx_hal_i2s.c **** 
 144:./Libraries/STM32F4xx_HAL_Driver/Src/stm32f4xx_hal_i2s.c **** #ifdef HAL_I2S_MODULE_ENABLED
ARM GAS  /tmp/ccIc9xCh.s 			page 4


 145:./Libraries/STM32F4xx_HAL_Driver/Src/stm32f4xx_hal_i2s.c **** 
 146:./Libraries/STM32F4xx_HAL_Driver/Src/stm32f4xx_hal_i2s.c **** /** @defgroup I2S I2S
 147:./Libraries/STM32F4xx_HAL_Driver/Src/stm32f4xx_hal_i2s.c ****   * @brief I2S HAL module driver
 148:./Libraries/STM32F4xx_HAL_Driver/Src/stm32f4xx_hal_i2s.c ****   * @{
 149:./Libraries/STM32F4xx_HAL_Driver/Src/stm32f4xx_hal_i2s.c ****   */
 150:./Libraries/STM32F4xx_HAL_Driver/Src/stm32f4xx_hal_i2s.c **** 
 151:./Libraries/STM32F4xx_HAL_Driver/Src/stm32f4xx_hal_i2s.c **** /* Private typedef -----------------------------------------------------------*/
 152:./Libraries/STM32F4xx_HAL_Driver/Src/stm32f4xx_hal_i2s.c **** /* Private define ------------------------------------------------------------*/
 153:./Libraries/STM32F4xx_HAL_Driver/Src/stm32f4xx_hal_i2s.c **** /* Private macro -------------------------------------------------------------*/
 154:./Libraries/STM32F4xx_HAL_Driver/Src/stm32f4xx_hal_i2s.c **** /* Private variables ---------------------------------------------------------*/
 155:./Libraries/STM32F4xx_HAL_Driver/Src/stm32f4xx_hal_i2s.c **** /* Private function prototypes -----------------------------------------------*/
 156:./Libraries/STM32F4xx_HAL_Driver/Src/stm32f4xx_hal_i2s.c **** 
 157:./Libraries/STM32F4xx_HAL_Driver/Src/stm32f4xx_hal_i2s.c **** /** @addtogroup I2S_Private_Functions
 158:./Libraries/STM32F4xx_HAL_Driver/Src/stm32f4xx_hal_i2s.c ****   * @{
 159:./Libraries/STM32F4xx_HAL_Driver/Src/stm32f4xx_hal_i2s.c ****   */
 160:./Libraries/STM32F4xx_HAL_Driver/Src/stm32f4xx_hal_i2s.c **** static void               I2S_DMATxCplt(DMA_HandleTypeDef *hdma);
 161:./Libraries/STM32F4xx_HAL_Driver/Src/stm32f4xx_hal_i2s.c **** static void               I2S_DMATxHalfCplt(DMA_HandleTypeDef *hdma);
 162:./Libraries/STM32F4xx_HAL_Driver/Src/stm32f4xx_hal_i2s.c **** static void               I2S_DMARxCplt(DMA_HandleTypeDef *hdma);
 163:./Libraries/STM32F4xx_HAL_Driver/Src/stm32f4xx_hal_i2s.c **** static void               I2S_DMARxHalfCplt(DMA_HandleTypeDef *hdma);
 164:./Libraries/STM32F4xx_HAL_Driver/Src/stm32f4xx_hal_i2s.c **** static void               I2S_DMAError(DMA_HandleTypeDef *hdma);
 165:./Libraries/STM32F4xx_HAL_Driver/Src/stm32f4xx_hal_i2s.c **** static void               I2S_Transmit_IT(I2S_HandleTypeDef *hi2s);
 166:./Libraries/STM32F4xx_HAL_Driver/Src/stm32f4xx_hal_i2s.c **** static void               I2S_Receive_IT(I2S_HandleTypeDef *hi2s);
 167:./Libraries/STM32F4xx_HAL_Driver/Src/stm32f4xx_hal_i2s.c **** static void               I2S_IRQHandler(I2S_HandleTypeDef *hi2s);
 168:./Libraries/STM32F4xx_HAL_Driver/Src/stm32f4xx_hal_i2s.c **** static HAL_StatusTypeDef  I2S_WaitFlagStateUntilTimeout(I2S_HandleTypeDef *hi2s, uint32_t Flag, uin
 169:./Libraries/STM32F4xx_HAL_Driver/Src/stm32f4xx_hal_i2s.c ****                                                         uint32_t Timeout);
 170:./Libraries/STM32F4xx_HAL_Driver/Src/stm32f4xx_hal_i2s.c **** /**
 171:./Libraries/STM32F4xx_HAL_Driver/Src/stm32f4xx_hal_i2s.c ****   * @}
 172:./Libraries/STM32F4xx_HAL_Driver/Src/stm32f4xx_hal_i2s.c ****   */
 173:./Libraries/STM32F4xx_HAL_Driver/Src/stm32f4xx_hal_i2s.c **** 
 174:./Libraries/STM32F4xx_HAL_Driver/Src/stm32f4xx_hal_i2s.c **** /* Exported functions --------------------------------------------------------*/
 175:./Libraries/STM32F4xx_HAL_Driver/Src/stm32f4xx_hal_i2s.c **** /** @addtogroup I2S_Exported_Functions I2S Exported Functions
 176:./Libraries/STM32F4xx_HAL_Driver/Src/stm32f4xx_hal_i2s.c ****   * @{
 177:./Libraries/STM32F4xx_HAL_Driver/Src/stm32f4xx_hal_i2s.c ****   */
 178:./Libraries/STM32F4xx_HAL_Driver/Src/stm32f4xx_hal_i2s.c **** 
 179:./Libraries/STM32F4xx_HAL_Driver/Src/stm32f4xx_hal_i2s.c **** /** @addtogroup  I2S_Exported_Functions_Group1
 180:./Libraries/STM32F4xx_HAL_Driver/Src/stm32f4xx_hal_i2s.c ****   *  @brief    Initialization and Configuration functions
 181:./Libraries/STM32F4xx_HAL_Driver/Src/stm32f4xx_hal_i2s.c ****   *
 182:./Libraries/STM32F4xx_HAL_Driver/Src/stm32f4xx_hal_i2s.c **** @verbatim
 183:./Libraries/STM32F4xx_HAL_Driver/Src/stm32f4xx_hal_i2s.c ****  ===============================================================================
 184:./Libraries/STM32F4xx_HAL_Driver/Src/stm32f4xx_hal_i2s.c ****               ##### Initialization and de-initialization functions #####
 185:./Libraries/STM32F4xx_HAL_Driver/Src/stm32f4xx_hal_i2s.c ****  ===============================================================================
 186:./Libraries/STM32F4xx_HAL_Driver/Src/stm32f4xx_hal_i2s.c ****     [..]  This subsection provides a set of functions allowing to initialize and
 187:./Libraries/STM32F4xx_HAL_Driver/Src/stm32f4xx_hal_i2s.c ****           de-initialize the I2Sx peripheral in simplex mode:
 188:./Libraries/STM32F4xx_HAL_Driver/Src/stm32f4xx_hal_i2s.c **** 
 189:./Libraries/STM32F4xx_HAL_Driver/Src/stm32f4xx_hal_i2s.c ****       (+) User must Implement HAL_I2S_MspInit() function in which he configures
 190:./Libraries/STM32F4xx_HAL_Driver/Src/stm32f4xx_hal_i2s.c ****           all related peripherals resources (CLOCK, GPIO, DMA, IT and NVIC ).
 191:./Libraries/STM32F4xx_HAL_Driver/Src/stm32f4xx_hal_i2s.c **** 
 192:./Libraries/STM32F4xx_HAL_Driver/Src/stm32f4xx_hal_i2s.c ****       (+) Call the function HAL_I2S_Init() to configure the selected device with
 193:./Libraries/STM32F4xx_HAL_Driver/Src/stm32f4xx_hal_i2s.c ****           the selected configuration:
 194:./Libraries/STM32F4xx_HAL_Driver/Src/stm32f4xx_hal_i2s.c ****         (++) Mode
 195:./Libraries/STM32F4xx_HAL_Driver/Src/stm32f4xx_hal_i2s.c ****         (++) Standard
 196:./Libraries/STM32F4xx_HAL_Driver/Src/stm32f4xx_hal_i2s.c ****         (++) Data Format
 197:./Libraries/STM32F4xx_HAL_Driver/Src/stm32f4xx_hal_i2s.c ****         (++) MCLK Output
 198:./Libraries/STM32F4xx_HAL_Driver/Src/stm32f4xx_hal_i2s.c ****         (++) Audio frequency
 199:./Libraries/STM32F4xx_HAL_Driver/Src/stm32f4xx_hal_i2s.c ****         (++) Polarity
 200:./Libraries/STM32F4xx_HAL_Driver/Src/stm32f4xx_hal_i2s.c ****         (++) Full duplex mode
 201:./Libraries/STM32F4xx_HAL_Driver/Src/stm32f4xx_hal_i2s.c **** 
ARM GAS  /tmp/ccIc9xCh.s 			page 5


 202:./Libraries/STM32F4xx_HAL_Driver/Src/stm32f4xx_hal_i2s.c ****       (+) Call the function HAL_I2S_DeInit() to restore the default configuration
 203:./Libraries/STM32F4xx_HAL_Driver/Src/stm32f4xx_hal_i2s.c ****           of the selected I2Sx peripheral.
 204:./Libraries/STM32F4xx_HAL_Driver/Src/stm32f4xx_hal_i2s.c **** @endverbatim
 205:./Libraries/STM32F4xx_HAL_Driver/Src/stm32f4xx_hal_i2s.c ****   * @{
 206:./Libraries/STM32F4xx_HAL_Driver/Src/stm32f4xx_hal_i2s.c ****   */
 207:./Libraries/STM32F4xx_HAL_Driver/Src/stm32f4xx_hal_i2s.c **** 
 208:./Libraries/STM32F4xx_HAL_Driver/Src/stm32f4xx_hal_i2s.c **** /**
 209:./Libraries/STM32F4xx_HAL_Driver/Src/stm32f4xx_hal_i2s.c ****   * @brief Initializes the I2S according to the specified parameters
 210:./Libraries/STM32F4xx_HAL_Driver/Src/stm32f4xx_hal_i2s.c ****   *         in the I2S_InitTypeDef and create the associated handle.
 211:./Libraries/STM32F4xx_HAL_Driver/Src/stm32f4xx_hal_i2s.c ****   * @param  hi2s pointer to a I2S_HandleTypeDef structure that contains
 212:./Libraries/STM32F4xx_HAL_Driver/Src/stm32f4xx_hal_i2s.c ****   *         the configuration information for I2S module
 213:./Libraries/STM32F4xx_HAL_Driver/Src/stm32f4xx_hal_i2s.c ****   * @retval HAL status
 214:./Libraries/STM32F4xx_HAL_Driver/Src/stm32f4xx_hal_i2s.c ****   */
 215:./Libraries/STM32F4xx_HAL_Driver/Src/stm32f4xx_hal_i2s.c **** HAL_StatusTypeDef HAL_I2S_Init(I2S_HandleTypeDef *hi2s)
 216:./Libraries/STM32F4xx_HAL_Driver/Src/stm32f4xx_hal_i2s.c **** {
  29              		.loc 1 216 1
  30              		.cfi_startproc
  31              		@ args = 0, pretend = 0, frame = 32
  32              		@ frame_needed = 1, uses_anonymous_args = 0
  33 0000 80B5     		push	{r7, lr}
  34              	.LCFI0:
  35              		.cfi_def_cfa_offset 8
  36              		.cfi_offset 7, -8
  37              		.cfi_offset 14, -4
  38 0002 88B0     		sub	sp, sp, #32
  39              	.LCFI1:
  40              		.cfi_def_cfa_offset 40
  41 0004 00AF     		add	r7, sp, #0
  42              	.LCFI2:
  43              		.cfi_def_cfa_register 7
  44 0006 7860     		str	r0, [r7, #4]
 217:./Libraries/STM32F4xx_HAL_Driver/Src/stm32f4xx_hal_i2s.c ****   uint32_t tmpreg = 0U, i2sdiv = 2U, i2sodd = 0U, packetlength = 16U;
  45              		.loc 1 217 12
  46 0008 0023     		movs	r3, #0
  47 000a FB60     		str	r3, [r7, #12]
  48              		.loc 1 217 25
  49 000c 0223     		movs	r3, #2
  50 000e FB61     		str	r3, [r7, #28]
  51              		.loc 1 217 38
  52 0010 0023     		movs	r3, #0
  53 0012 BB61     		str	r3, [r7, #24]
  54              		.loc 1 217 51
  55 0014 1023     		movs	r3, #16
  56 0016 7B61     		str	r3, [r7, #20]
 218:./Libraries/STM32F4xx_HAL_Driver/Src/stm32f4xx_hal_i2s.c ****   uint32_t tmp = 0U, i2sclk = 0U;
  57              		.loc 1 218 12
  58 0018 0023     		movs	r3, #0
  59 001a 3B61     		str	r3, [r7, #16]
  60              		.loc 1 218 22
  61 001c 0023     		movs	r3, #0
  62 001e BB60     		str	r3, [r7, #8]
 219:./Libraries/STM32F4xx_HAL_Driver/Src/stm32f4xx_hal_i2s.c **** 
 220:./Libraries/STM32F4xx_HAL_Driver/Src/stm32f4xx_hal_i2s.c ****   /* Check the I2S handle allocation */
 221:./Libraries/STM32F4xx_HAL_Driver/Src/stm32f4xx_hal_i2s.c ****   if(hi2s == NULL)
  63              		.loc 1 221 5
  64 0020 7B68     		ldr	r3, [r7, #4]
  65 0022 002B     		cmp	r3, #0
ARM GAS  /tmp/ccIc9xCh.s 			page 6


  66 0024 01D1     		bne	.L2
 222:./Libraries/STM32F4xx_HAL_Driver/Src/stm32f4xx_hal_i2s.c ****   {
 223:./Libraries/STM32F4xx_HAL_Driver/Src/stm32f4xx_hal_i2s.c ****     return HAL_ERROR;
  67              		.loc 1 223 12
  68 0026 0123     		movs	r3, #1
  69 0028 2CE1     		b	.L3
  70              	.L2:
 224:./Libraries/STM32F4xx_HAL_Driver/Src/stm32f4xx_hal_i2s.c ****   }
 225:./Libraries/STM32F4xx_HAL_Driver/Src/stm32f4xx_hal_i2s.c **** 
 226:./Libraries/STM32F4xx_HAL_Driver/Src/stm32f4xx_hal_i2s.c ****   /* Check the I2S parameters */
 227:./Libraries/STM32F4xx_HAL_Driver/Src/stm32f4xx_hal_i2s.c ****   assert_param(IS_I2S_ALL_INSTANCE(hi2s->Instance));
 228:./Libraries/STM32F4xx_HAL_Driver/Src/stm32f4xx_hal_i2s.c ****   assert_param(IS_I2S_MODE(hi2s->Init.Mode));
 229:./Libraries/STM32F4xx_HAL_Driver/Src/stm32f4xx_hal_i2s.c ****   assert_param(IS_I2S_STANDARD(hi2s->Init.Standard));
 230:./Libraries/STM32F4xx_HAL_Driver/Src/stm32f4xx_hal_i2s.c ****   assert_param(IS_I2S_DATA_FORMAT(hi2s->Init.DataFormat));
 231:./Libraries/STM32F4xx_HAL_Driver/Src/stm32f4xx_hal_i2s.c ****   assert_param(IS_I2S_MCLK_OUTPUT(hi2s->Init.MCLKOutput));
 232:./Libraries/STM32F4xx_HAL_Driver/Src/stm32f4xx_hal_i2s.c ****   assert_param(IS_I2S_AUDIO_FREQ(hi2s->Init.AudioFreq));
 233:./Libraries/STM32F4xx_HAL_Driver/Src/stm32f4xx_hal_i2s.c ****   assert_param(IS_I2S_CPOL(hi2s->Init.CPOL));
 234:./Libraries/STM32F4xx_HAL_Driver/Src/stm32f4xx_hal_i2s.c ****   assert_param(IS_I2S_CLOCKSOURCE(hi2s->Init.ClockSource));
 235:./Libraries/STM32F4xx_HAL_Driver/Src/stm32f4xx_hal_i2s.c **** 
 236:./Libraries/STM32F4xx_HAL_Driver/Src/stm32f4xx_hal_i2s.c ****   hi2s->State = HAL_I2S_STATE_BUSY;
  71              		.loc 1 236 15
  72 002a 7B68     		ldr	r3, [r7, #4]
  73 002c 0222     		movs	r2, #2
  74 002e 83F84120 		strb	r2, [r3, #65]
 237:./Libraries/STM32F4xx_HAL_Driver/Src/stm32f4xx_hal_i2s.c **** 
 238:./Libraries/STM32F4xx_HAL_Driver/Src/stm32f4xx_hal_i2s.c ****   /* Initialize Default I2S IrqHandler ISR */
 239:./Libraries/STM32F4xx_HAL_Driver/Src/stm32f4xx_hal_i2s.c ****   hi2s->IrqHandlerISR = I2S_IRQHandler;
  75              		.loc 1 239 23
  76 0032 7B68     		ldr	r3, [r7, #4]
  77 0034 954A     		ldr	r2, .L27
  78 0036 5A63     		str	r2, [r3, #52]
 240:./Libraries/STM32F4xx_HAL_Driver/Src/stm32f4xx_hal_i2s.c **** 
 241:./Libraries/STM32F4xx_HAL_Driver/Src/stm32f4xx_hal_i2s.c ****   /* Init the low level hardware : GPIO, CLOCK, CORTEX...etc */
 242:./Libraries/STM32F4xx_HAL_Driver/Src/stm32f4xx_hal_i2s.c ****   HAL_I2S_MspInit(hi2s);
  79              		.loc 1 242 3
  80 0038 7868     		ldr	r0, [r7, #4]
  81 003a FFF7FEFF 		bl	HAL_I2S_MspInit
 243:./Libraries/STM32F4xx_HAL_Driver/Src/stm32f4xx_hal_i2s.c **** 
 244:./Libraries/STM32F4xx_HAL_Driver/Src/stm32f4xx_hal_i2s.c ****   /*----------------------- SPIx I2SCFGR & I2SPR Configuration ---------------*/
 245:./Libraries/STM32F4xx_HAL_Driver/Src/stm32f4xx_hal_i2s.c ****   /* Clear I2SMOD, I2SE, I2SCFG, PCMSYNC, I2SSTD, CKPOL, DATLEN and CHLEN bits */
 246:./Libraries/STM32F4xx_HAL_Driver/Src/stm32f4xx_hal_i2s.c ****   CLEAR_BIT(hi2s->Instance->I2SCFGR,(SPI_I2SCFGR_CHLEN | SPI_I2SCFGR_DATLEN | SPI_I2SCFGR_CKPOL | \
  82              		.loc 1 246 3
  83 003e 7B68     		ldr	r3, [r7, #4]
  84 0040 1B68     		ldr	r3, [r3]
  85 0042 DB69     		ldr	r3, [r3, #28]
  86 0044 7A68     		ldr	r2, [r7, #4]
  87 0046 1268     		ldr	r2, [r2]
  88 0048 23F47B63 		bic	r3, r3, #4016
  89 004c 23F00F03 		bic	r3, r3, #15
  90 0050 D361     		str	r3, [r2, #28]
 247:./Libraries/STM32F4xx_HAL_Driver/Src/stm32f4xx_hal_i2s.c ****                                      SPI_I2SCFGR_I2SSTD | SPI_I2SCFGR_PCMSYNC | SPI_I2SCFGR_I2SCFG 
 248:./Libraries/STM32F4xx_HAL_Driver/Src/stm32f4xx_hal_i2s.c ****                                      SPI_I2SCFGR_I2SE | SPI_I2SCFGR_I2SMOD));
 249:./Libraries/STM32F4xx_HAL_Driver/Src/stm32f4xx_hal_i2s.c ****   hi2s->Instance->I2SPR = 0x0002U;
  91              		.loc 1 249 7
  92 0052 7B68     		ldr	r3, [r7, #4]
  93 0054 1B68     		ldr	r3, [r3]
  94              		.loc 1 249 25
ARM GAS  /tmp/ccIc9xCh.s 			page 7


  95 0056 0222     		movs	r2, #2
  96 0058 1A62     		str	r2, [r3, #32]
 250:./Libraries/STM32F4xx_HAL_Driver/Src/stm32f4xx_hal_i2s.c **** 
 251:./Libraries/STM32F4xx_HAL_Driver/Src/stm32f4xx_hal_i2s.c ****   /* Get the I2SCFGR register value */
 252:./Libraries/STM32F4xx_HAL_Driver/Src/stm32f4xx_hal_i2s.c ****   tmpreg = hi2s->Instance->I2SCFGR;
  97              		.loc 1 252 16
  98 005a 7B68     		ldr	r3, [r7, #4]
  99 005c 1B68     		ldr	r3, [r3]
 100              		.loc 1 252 10
 101 005e DB69     		ldr	r3, [r3, #28]
 102 0060 FB60     		str	r3, [r7, #12]
 253:./Libraries/STM32F4xx_HAL_Driver/Src/stm32f4xx_hal_i2s.c **** 
 254:./Libraries/STM32F4xx_HAL_Driver/Src/stm32f4xx_hal_i2s.c ****   /* If the default frequency value has to be written, reinitialize i2sdiv and i2sodd */
 255:./Libraries/STM32F4xx_HAL_Driver/Src/stm32f4xx_hal_i2s.c ****   /* If the requested audio frequency is not the default, compute the prescaler */
 256:./Libraries/STM32F4xx_HAL_Driver/Src/stm32f4xx_hal_i2s.c ****   if(hi2s->Init.AudioFreq != I2S_AUDIOFREQ_DEFAULT)
 103              		.loc 1 256 16
 104 0062 7B68     		ldr	r3, [r7, #4]
 105 0064 5B69     		ldr	r3, [r3, #20]
 106              		.loc 1 256 5
 107 0066 022B     		cmp	r3, #2
 108 0068 61D0     		beq	.L4
 257:./Libraries/STM32F4xx_HAL_Driver/Src/stm32f4xx_hal_i2s.c ****   {
 258:./Libraries/STM32F4xx_HAL_Driver/Src/stm32f4xx_hal_i2s.c ****     /* Check the frame length (For the Prescaler computing) *******************/
 259:./Libraries/STM32F4xx_HAL_Driver/Src/stm32f4xx_hal_i2s.c ****     /* Set I2S Packet Length value*/
 260:./Libraries/STM32F4xx_HAL_Driver/Src/stm32f4xx_hal_i2s.c ****     if(hi2s->Init.DataFormat != I2S_DATAFORMAT_16B)
 109              		.loc 1 260 18
 110 006a 7B68     		ldr	r3, [r7, #4]
 111 006c DB68     		ldr	r3, [r3, #12]
 112              		.loc 1 260 7
 113 006e 002B     		cmp	r3, #0
 114 0070 02D0     		beq	.L5
 261:./Libraries/STM32F4xx_HAL_Driver/Src/stm32f4xx_hal_i2s.c ****     {
 262:./Libraries/STM32F4xx_HAL_Driver/Src/stm32f4xx_hal_i2s.c ****       /* Packet length is 32 bits */
 263:./Libraries/STM32F4xx_HAL_Driver/Src/stm32f4xx_hal_i2s.c ****       packetlength = 32U;
 115              		.loc 1 263 20
 116 0072 2023     		movs	r3, #32
 117 0074 7B61     		str	r3, [r7, #20]
 118 0076 01E0     		b	.L6
 119              	.L5:
 264:./Libraries/STM32F4xx_HAL_Driver/Src/stm32f4xx_hal_i2s.c ****     }
 265:./Libraries/STM32F4xx_HAL_Driver/Src/stm32f4xx_hal_i2s.c ****     else
 266:./Libraries/STM32F4xx_HAL_Driver/Src/stm32f4xx_hal_i2s.c ****     {
 267:./Libraries/STM32F4xx_HAL_Driver/Src/stm32f4xx_hal_i2s.c ****       /* Packet length is 16 bits */
 268:./Libraries/STM32F4xx_HAL_Driver/Src/stm32f4xx_hal_i2s.c ****       packetlength = 16U;
 120              		.loc 1 268 20
 121 0078 1023     		movs	r3, #16
 122 007a 7B61     		str	r3, [r7, #20]
 123              	.L6:
 269:./Libraries/STM32F4xx_HAL_Driver/Src/stm32f4xx_hal_i2s.c ****     }
 270:./Libraries/STM32F4xx_HAL_Driver/Src/stm32f4xx_hal_i2s.c **** 
 271:./Libraries/STM32F4xx_HAL_Driver/Src/stm32f4xx_hal_i2s.c ****     /* I2S standard */
 272:./Libraries/STM32F4xx_HAL_Driver/Src/stm32f4xx_hal_i2s.c ****     if(hi2s->Init.Standard <= I2S_STANDARD_LSB)
 124              		.loc 1 272 18
 125 007c 7B68     		ldr	r3, [r7, #4]
 126 007e 9B68     		ldr	r3, [r3, #8]
 127              		.loc 1 272 7
 128 0080 202B     		cmp	r3, #32
ARM GAS  /tmp/ccIc9xCh.s 			page 8


 129 0082 02D8     		bhi	.L7
 273:./Libraries/STM32F4xx_HAL_Driver/Src/stm32f4xx_hal_i2s.c ****     {
 274:./Libraries/STM32F4xx_HAL_Driver/Src/stm32f4xx_hal_i2s.c ****       /* In I2S standard packet lenght is multiplied by 2 */
 275:./Libraries/STM32F4xx_HAL_Driver/Src/stm32f4xx_hal_i2s.c ****       packetlength = packetlength * 2U;
 130              		.loc 1 275 20
 131 0084 7B69     		ldr	r3, [r7, #20]
 132 0086 5B00     		lsls	r3, r3, #1
 133 0088 7B61     		str	r3, [r7, #20]
 134              	.L7:
 276:./Libraries/STM32F4xx_HAL_Driver/Src/stm32f4xx_hal_i2s.c ****     }
 277:./Libraries/STM32F4xx_HAL_Driver/Src/stm32f4xx_hal_i2s.c **** 
 278:./Libraries/STM32F4xx_HAL_Driver/Src/stm32f4xx_hal_i2s.c ****     /* Get I2S source Clock frequency from RCC ********************************/
 279:./Libraries/STM32F4xx_HAL_Driver/Src/stm32f4xx_hal_i2s.c **** #if defined(I2S_APB1_APB2_FEATURE)
 280:./Libraries/STM32F4xx_HAL_Driver/Src/stm32f4xx_hal_i2s.c ****     if(IS_I2S_APB1_INSTANCE(hi2s->Instance))
 281:./Libraries/STM32F4xx_HAL_Driver/Src/stm32f4xx_hal_i2s.c ****     {
 282:./Libraries/STM32F4xx_HAL_Driver/Src/stm32f4xx_hal_i2s.c ****       i2sclk = HAL_RCCEx_GetPeriphCLKFreq(RCC_PERIPHCLK_I2S_APB1);
 283:./Libraries/STM32F4xx_HAL_Driver/Src/stm32f4xx_hal_i2s.c ****     }
 284:./Libraries/STM32F4xx_HAL_Driver/Src/stm32f4xx_hal_i2s.c ****     else
 285:./Libraries/STM32F4xx_HAL_Driver/Src/stm32f4xx_hal_i2s.c ****     {
 286:./Libraries/STM32F4xx_HAL_Driver/Src/stm32f4xx_hal_i2s.c ****       i2sclk = HAL_RCCEx_GetPeriphCLKFreq(RCC_PERIPHCLK_I2S_APB2);
 287:./Libraries/STM32F4xx_HAL_Driver/Src/stm32f4xx_hal_i2s.c ****     }
 288:./Libraries/STM32F4xx_HAL_Driver/Src/stm32f4xx_hal_i2s.c **** #else
 289:./Libraries/STM32F4xx_HAL_Driver/Src/stm32f4xx_hal_i2s.c ****     i2sclk = HAL_RCCEx_GetPeriphCLKFreq(RCC_PERIPHCLK_I2S);
 135              		.loc 1 289 14
 136 008a 0120     		movs	r0, #1
 137 008c FFF7FEFF 		bl	HAL_RCCEx_GetPeriphCLKFreq
 138 0090 B860     		str	r0, [r7, #8]
 290:./Libraries/STM32F4xx_HAL_Driver/Src/stm32f4xx_hal_i2s.c **** #endif
 291:./Libraries/STM32F4xx_HAL_Driver/Src/stm32f4xx_hal_i2s.c **** 
 292:./Libraries/STM32F4xx_HAL_Driver/Src/stm32f4xx_hal_i2s.c ****     /* Compute the Real divider depending on the MCLK output state, with a floating point */
 293:./Libraries/STM32F4xx_HAL_Driver/Src/stm32f4xx_hal_i2s.c ****     if(hi2s->Init.MCLKOutput == I2S_MCLKOUTPUT_ENABLE)
 139              		.loc 1 293 18
 140 0092 7B68     		ldr	r3, [r7, #4]
 141 0094 1B69     		ldr	r3, [r3, #16]
 142              		.loc 1 293 7
 143 0096 B3F5007F 		cmp	r3, #512
 144 009a 25D1     		bne	.L8
 294:./Libraries/STM32F4xx_HAL_Driver/Src/stm32f4xx_hal_i2s.c ****     {
 295:./Libraries/STM32F4xx_HAL_Driver/Src/stm32f4xx_hal_i2s.c ****       /* MCLK output is enabled */
 296:./Libraries/STM32F4xx_HAL_Driver/Src/stm32f4xx_hal_i2s.c ****       if (hi2s->Init.DataFormat != I2S_DATAFORMAT_16B)
 145              		.loc 1 296 21
 146 009c 7B68     		ldr	r3, [r7, #4]
 147 009e DB68     		ldr	r3, [r3, #12]
 148              		.loc 1 296 10
 149 00a0 002B     		cmp	r3, #0
 150 00a2 10D0     		beq	.L9
 297:./Libraries/STM32F4xx_HAL_Driver/Src/stm32f4xx_hal_i2s.c ****       {
 298:./Libraries/STM32F4xx_HAL_Driver/Src/stm32f4xx_hal_i2s.c ****         tmp = (uint32_t)(((((i2sclk / (packetlength*4)) * 10) / hi2s->Init.AudioFreq)) + 5);
 151              		.loc 1 298 52
 152 00a4 7B69     		ldr	r3, [r7, #20]
 153 00a6 9B00     		lsls	r3, r3, #2
 154              		.loc 1 298 37
 155 00a8 BA68     		ldr	r2, [r7, #8]
 156 00aa B2FBF3F2 		udiv	r2, r2, r3
 157              		.loc 1 298 57
 158 00ae 1346     		mov	r3, r2
 159 00b0 9B00     		lsls	r3, r3, #2
ARM GAS  /tmp/ccIc9xCh.s 			page 9


 160 00b2 1344     		add	r3, r3, r2
 161 00b4 5B00     		lsls	r3, r3, #1
 162 00b6 1A46     		mov	r2, r3
 163              		.loc 1 298 75
 164 00b8 7B68     		ldr	r3, [r7, #4]
 165 00ba 5B69     		ldr	r3, [r3, #20]
 166              		.loc 1 298 63
 167 00bc B2FBF3F3 		udiv	r3, r2, r3
 168              		.loc 1 298 13
 169 00c0 0533     		adds	r3, r3, #5
 170 00c2 3B61     		str	r3, [r7, #16]
 171 00c4 1FE0     		b	.L10
 172              	.L9:
 299:./Libraries/STM32F4xx_HAL_Driver/Src/stm32f4xx_hal_i2s.c ****       }
 300:./Libraries/STM32F4xx_HAL_Driver/Src/stm32f4xx_hal_i2s.c ****       else
 301:./Libraries/STM32F4xx_HAL_Driver/Src/stm32f4xx_hal_i2s.c ****       {
 302:./Libraries/STM32F4xx_HAL_Driver/Src/stm32f4xx_hal_i2s.c ****         tmp = (uint32_t)(((((i2sclk / (packetlength*8)) * 10) / hi2s->Init.AudioFreq)) + 5);
 173              		.loc 1 302 52
 174 00c6 7B69     		ldr	r3, [r7, #20]
 175 00c8 DB00     		lsls	r3, r3, #3
 176              		.loc 1 302 37
 177 00ca BA68     		ldr	r2, [r7, #8]
 178 00cc B2FBF3F2 		udiv	r2, r2, r3
 179              		.loc 1 302 57
 180 00d0 1346     		mov	r3, r2
 181 00d2 9B00     		lsls	r3, r3, #2
 182 00d4 1344     		add	r3, r3, r2
 183 00d6 5B00     		lsls	r3, r3, #1
 184 00d8 1A46     		mov	r2, r3
 185              		.loc 1 302 75
 186 00da 7B68     		ldr	r3, [r7, #4]
 187 00dc 5B69     		ldr	r3, [r3, #20]
 188              		.loc 1 302 63
 189 00de B2FBF3F3 		udiv	r3, r2, r3
 190              		.loc 1 302 13
 191 00e2 0533     		adds	r3, r3, #5
 192 00e4 3B61     		str	r3, [r7, #16]
 193 00e6 0EE0     		b	.L10
 194              	.L8:
 303:./Libraries/STM32F4xx_HAL_Driver/Src/stm32f4xx_hal_i2s.c ****       }
 304:./Libraries/STM32F4xx_HAL_Driver/Src/stm32f4xx_hal_i2s.c ****     }
 305:./Libraries/STM32F4xx_HAL_Driver/Src/stm32f4xx_hal_i2s.c ****     else
 306:./Libraries/STM32F4xx_HAL_Driver/Src/stm32f4xx_hal_i2s.c ****     {
 307:./Libraries/STM32F4xx_HAL_Driver/Src/stm32f4xx_hal_i2s.c ****       /* MCLK output is disabled */
 308:./Libraries/STM32F4xx_HAL_Driver/Src/stm32f4xx_hal_i2s.c ****       tmp = (uint32_t)(((((i2sclk / packetlength) *10 ) / hi2s->Init.AudioFreq)) + 5);
 195              		.loc 1 308 35
 196 00e8 BA68     		ldr	r2, [r7, #8]
 197 00ea 7B69     		ldr	r3, [r7, #20]
 198 00ec B2FBF3F2 		udiv	r2, r2, r3
 199              		.loc 1 308 51
 200 00f0 1346     		mov	r3, r2
 201 00f2 9B00     		lsls	r3, r3, #2
 202 00f4 1344     		add	r3, r3, r2
 203 00f6 5B00     		lsls	r3, r3, #1
 204 00f8 1A46     		mov	r2, r3
 205              		.loc 1 308 69
 206 00fa 7B68     		ldr	r3, [r7, #4]
ARM GAS  /tmp/ccIc9xCh.s 			page 10


 207 00fc 5B69     		ldr	r3, [r3, #20]
 208              		.loc 1 308 57
 209 00fe B2FBF3F3 		udiv	r3, r2, r3
 210              		.loc 1 308 11
 211 0102 0533     		adds	r3, r3, #5
 212 0104 3B61     		str	r3, [r7, #16]
 213              	.L10:
 309:./Libraries/STM32F4xx_HAL_Driver/Src/stm32f4xx_hal_i2s.c ****     }
 310:./Libraries/STM32F4xx_HAL_Driver/Src/stm32f4xx_hal_i2s.c **** 
 311:./Libraries/STM32F4xx_HAL_Driver/Src/stm32f4xx_hal_i2s.c ****     /* Remove the flatting point */
 312:./Libraries/STM32F4xx_HAL_Driver/Src/stm32f4xx_hal_i2s.c ****     tmp = tmp / 10U;
 214              		.loc 1 312 9
 215 0106 3B69     		ldr	r3, [r7, #16]
 216 0108 614A     		ldr	r2, .L27+4
 217 010a A2FB0323 		umull	r2, r3, r2, r3
 218 010e DB08     		lsrs	r3, r3, #3
 219 0110 3B61     		str	r3, [r7, #16]
 313:./Libraries/STM32F4xx_HAL_Driver/Src/stm32f4xx_hal_i2s.c **** 
 314:./Libraries/STM32F4xx_HAL_Driver/Src/stm32f4xx_hal_i2s.c ****     /* Check the parity of the divider */
 315:./Libraries/STM32F4xx_HAL_Driver/Src/stm32f4xx_hal_i2s.c ****     i2sodd = (uint16_t)(tmp & (uint16_t)1U);
 220              		.loc 1 315 14
 221 0112 3B69     		ldr	r3, [r7, #16]
 222 0114 9BB2     		uxth	r3, r3
 223              		.loc 1 315 12
 224 0116 03F00103 		and	r3, r3, #1
 225 011a BB61     		str	r3, [r7, #24]
 316:./Libraries/STM32F4xx_HAL_Driver/Src/stm32f4xx_hal_i2s.c **** 
 317:./Libraries/STM32F4xx_HAL_Driver/Src/stm32f4xx_hal_i2s.c ****     /* Compute the i2sdiv prescaler */
 318:./Libraries/STM32F4xx_HAL_Driver/Src/stm32f4xx_hal_i2s.c ****     i2sdiv = (uint16_t)((tmp - i2sodd) / 2U);
 226              		.loc 1 318 30
 227 011c 3A69     		ldr	r2, [r7, #16]
 228 011e BB69     		ldr	r3, [r7, #24]
 229 0120 D31A     		subs	r3, r2, r3
 230              		.loc 1 318 40
 231 0122 5B08     		lsrs	r3, r3, #1
 232              		.loc 1 318 14
 233 0124 9BB2     		uxth	r3, r3
 234              		.loc 1 318 12
 235 0126 FB61     		str	r3, [r7, #28]
 319:./Libraries/STM32F4xx_HAL_Driver/Src/stm32f4xx_hal_i2s.c **** 
 320:./Libraries/STM32F4xx_HAL_Driver/Src/stm32f4xx_hal_i2s.c ****     /* Get the Mask for the Odd bit (SPI_I2SPR[8]) register */
 321:./Libraries/STM32F4xx_HAL_Driver/Src/stm32f4xx_hal_i2s.c ****     i2sodd = (uint32_t) (i2sodd << 8U);
 236              		.loc 1 321 12
 237 0128 BB69     		ldr	r3, [r7, #24]
 238 012a 1B02     		lsls	r3, r3, #8
 239 012c BB61     		str	r3, [r7, #24]
 240              	.L4:
 322:./Libraries/STM32F4xx_HAL_Driver/Src/stm32f4xx_hal_i2s.c ****   }
 323:./Libraries/STM32F4xx_HAL_Driver/Src/stm32f4xx_hal_i2s.c **** 
 324:./Libraries/STM32F4xx_HAL_Driver/Src/stm32f4xx_hal_i2s.c ****   /* Test if the divider is 1 or 0 or greater than 0xFF */
 325:./Libraries/STM32F4xx_HAL_Driver/Src/stm32f4xx_hal_i2s.c ****   if((i2sdiv < 2U) || (i2sdiv > 0xFFU))
 241              		.loc 1 325 5
 242 012e FB69     		ldr	r3, [r7, #28]
 243 0130 012B     		cmp	r3, #1
 244 0132 02D9     		bls	.L11
 245              		.loc 1 325 20 discriminator 1
 246 0134 FB69     		ldr	r3, [r7, #28]
ARM GAS  /tmp/ccIc9xCh.s 			page 11


 247 0136 FF2B     		cmp	r3, #255
 248 0138 0ED9     		bls	.L12
 249              	.L11:
 326:./Libraries/STM32F4xx_HAL_Driver/Src/stm32f4xx_hal_i2s.c ****   {
 327:./Libraries/STM32F4xx_HAL_Driver/Src/stm32f4xx_hal_i2s.c ****     /* Set the default values */
 328:./Libraries/STM32F4xx_HAL_Driver/Src/stm32f4xx_hal_i2s.c ****     i2sdiv = 2U;
 250              		.loc 1 328 12
 251 013a 0223     		movs	r3, #2
 252 013c FB61     		str	r3, [r7, #28]
 329:./Libraries/STM32F4xx_HAL_Driver/Src/stm32f4xx_hal_i2s.c ****     i2sodd = 0U;
 253              		.loc 1 329 12
 254 013e 0023     		movs	r3, #0
 255 0140 BB61     		str	r3, [r7, #24]
 330:./Libraries/STM32F4xx_HAL_Driver/Src/stm32f4xx_hal_i2s.c **** 
 331:./Libraries/STM32F4xx_HAL_Driver/Src/stm32f4xx_hal_i2s.c ****     /* Set the error code and execute error callback*/
 332:./Libraries/STM32F4xx_HAL_Driver/Src/stm32f4xx_hal_i2s.c ****     SET_BIT(hi2s->ErrorCode, HAL_I2S_ERROR_PRESCALER);
 256              		.loc 1 332 5
 257 0142 7B68     		ldr	r3, [r7, #4]
 258 0144 5B6C     		ldr	r3, [r3, #68]
 259 0146 43F01002 		orr	r2, r3, #16
 260 014a 7B68     		ldr	r3, [r7, #4]
 261 014c 5A64     		str	r2, [r3, #68]
 333:./Libraries/STM32F4xx_HAL_Driver/Src/stm32f4xx_hal_i2s.c ****     HAL_I2S_ErrorCallback(hi2s);
 262              		.loc 1 333 5
 263 014e 7868     		ldr	r0, [r7, #4]
 264 0150 FFF7FEFF 		bl	HAL_I2S_ErrorCallback
 334:./Libraries/STM32F4xx_HAL_Driver/Src/stm32f4xx_hal_i2s.c ****     return  HAL_ERROR;
 265              		.loc 1 334 13
 266 0154 0123     		movs	r3, #1
 267 0156 95E0     		b	.L3
 268              	.L12:
 335:./Libraries/STM32F4xx_HAL_Driver/Src/stm32f4xx_hal_i2s.c ****   }
 336:./Libraries/STM32F4xx_HAL_Driver/Src/stm32f4xx_hal_i2s.c **** 
 337:./Libraries/STM32F4xx_HAL_Driver/Src/stm32f4xx_hal_i2s.c ****   /* Write to SPIx I2SPR register the computed value */
 338:./Libraries/STM32F4xx_HAL_Driver/Src/stm32f4xx_hal_i2s.c ****   hi2s->Instance->I2SPR = (uint32_t)((uint32_t)i2sdiv | (uint32_t)(i2sodd | (uint32_t)hi2s->Init.MC
 269              		.loc 1 338 97
 270 0158 7B68     		ldr	r3, [r7, #4]
 271 015a 1A69     		ldr	r2, [r3, #16]
 272              		.loc 1 338 57
 273 015c BB69     		ldr	r3, [r7, #24]
 274 015e 42EA0301 		orr	r1, r2, r3
 275              		.loc 1 338 7
 276 0162 7B68     		ldr	r3, [r7, #4]
 277 0164 1B68     		ldr	r3, [r3]
 278              		.loc 1 338 27
 279 0166 FA69     		ldr	r2, [r7, #28]
 280 0168 0A43     		orrs	r2, r2, r1
 281              		.loc 1 338 25
 282 016a 1A62     		str	r2, [r3, #32]
 339:./Libraries/STM32F4xx_HAL_Driver/Src/stm32f4xx_hal_i2s.c **** 
 340:./Libraries/STM32F4xx_HAL_Driver/Src/stm32f4xx_hal_i2s.c ****   /* Configure the I2S with the I2S_InitStruct values */
 341:./Libraries/STM32F4xx_HAL_Driver/Src/stm32f4xx_hal_i2s.c ****   tmpreg |= (uint16_t)((uint16_t)SPI_I2SCFGR_I2SMOD | (uint16_t)(hi2s->Init.Mode | \
 283              		.loc 1 341 76
 284 016c 7B68     		ldr	r3, [r7, #4]
 285 016e 5B68     		ldr	r3, [r3, #4]
 286              		.loc 1 341 55
 287 0170 9AB2     		uxth	r2, r3
ARM GAS  /tmp/ccIc9xCh.s 			page 12


 342:./Libraries/STM32F4xx_HAL_Driver/Src/stm32f4xx_hal_i2s.c ****                        (uint16_t)(hi2s->Init.Standard | (uint16_t)(hi2s->Init.DataFormat | \
 288              		.loc 1 342 45
 289 0172 7B68     		ldr	r3, [r7, #4]
 290 0174 9B68     		ldr	r3, [r3, #8]
 291              		.loc 1 342 24
 292 0176 99B2     		uxth	r1, r3
 293              		.loc 1 342 78
 294 0178 7B68     		ldr	r3, [r7, #4]
 295 017a DB68     		ldr	r3, [r3, #12]
 296              		.loc 1 342 57
 297 017c 98B2     		uxth	r0, r3
 343:./Libraries/STM32F4xx_HAL_Driver/Src/stm32f4xx_hal_i2s.c ****                        (uint16_t)hi2s->Init.CPOL))));
 298              		.loc 1 343 44
 299 017e 7B68     		ldr	r3, [r7, #4]
 300 0180 9B69     		ldr	r3, [r3, #24]
 301              		.loc 1 343 24
 302 0182 9BB2     		uxth	r3, r3
 342:./Libraries/STM32F4xx_HAL_Driver/Src/stm32f4xx_hal_i2s.c ****                        (uint16_t)(hi2s->Init.Standard | (uint16_t)(hi2s->Init.DataFormat | \
 303              		.loc 1 342 57
 304 0184 0343     		orrs	r3, r3, r0
 305 0186 9BB2     		uxth	r3, r3
 342:./Libraries/STM32F4xx_HAL_Driver/Src/stm32f4xx_hal_i2s.c ****                        (uint16_t)(hi2s->Init.Standard | (uint16_t)(hi2s->Init.DataFormat | \
 306              		.loc 1 342 24
 307 0188 0B43     		orrs	r3, r3, r1
 308 018a 9BB2     		uxth	r3, r3
 341:./Libraries/STM32F4xx_HAL_Driver/Src/stm32f4xx_hal_i2s.c ****                        (uint16_t)(hi2s->Init.Standard | (uint16_t)(hi2s->Init.DataFormat | \
 309              		.loc 1 341 55
 310 018c 1343     		orrs	r3, r3, r2
 311 018e 9BB2     		uxth	r3, r3
 341:./Libraries/STM32F4xx_HAL_Driver/Src/stm32f4xx_hal_i2s.c ****                        (uint16_t)(hi2s->Init.Standard | (uint16_t)(hi2s->Init.DataFormat | \
 312              		.loc 1 341 13
 313 0190 43F40063 		orr	r3, r3, #2048
 314 0194 9BB2     		uxth	r3, r3
 315 0196 1A46     		mov	r2, r3
 341:./Libraries/STM32F4xx_HAL_Driver/Src/stm32f4xx_hal_i2s.c ****                        (uint16_t)(hi2s->Init.Standard | (uint16_t)(hi2s->Init.DataFormat | \
 316              		.loc 1 341 10
 317 0198 FB68     		ldr	r3, [r7, #12]
 318 019a 1343     		orrs	r3, r3, r2
 319 019c FB60     		str	r3, [r7, #12]
 344:./Libraries/STM32F4xx_HAL_Driver/Src/stm32f4xx_hal_i2s.c **** 
 345:./Libraries/STM32F4xx_HAL_Driver/Src/stm32f4xx_hal_i2s.c **** #if defined(SPI_I2SCFGR_ASTRTEN)
 346:./Libraries/STM32F4xx_HAL_Driver/Src/stm32f4xx_hal_i2s.c ****   if ((hi2s->Init.Standard == I2S_STANDARD_PCM_SHORT) ||(hi2s->Init.Standard == I2S_STANDARD_PCM_LO
 347:./Libraries/STM32F4xx_HAL_Driver/Src/stm32f4xx_hal_i2s.c ****   {
 348:./Libraries/STM32F4xx_HAL_Driver/Src/stm32f4xx_hal_i2s.c ****   /* Write to SPIx I2SCFGR */
 349:./Libraries/STM32F4xx_HAL_Driver/Src/stm32f4xx_hal_i2s.c ****     WRITE_REG(hi2s->Instance->I2SCFGR,(tmpreg | SPI_I2SCFGR_ASTRTEN));
 350:./Libraries/STM32F4xx_HAL_Driver/Src/stm32f4xx_hal_i2s.c ****   }
 351:./Libraries/STM32F4xx_HAL_Driver/Src/stm32f4xx_hal_i2s.c ****   else
 352:./Libraries/STM32F4xx_HAL_Driver/Src/stm32f4xx_hal_i2s.c ****   {
 353:./Libraries/STM32F4xx_HAL_Driver/Src/stm32f4xx_hal_i2s.c ****   /* Write to SPIx I2SCFGR */
 354:./Libraries/STM32F4xx_HAL_Driver/Src/stm32f4xx_hal_i2s.c ****     WRITE_REG(hi2s->Instance->I2SCFGR,tmpreg);
 355:./Libraries/STM32F4xx_HAL_Driver/Src/stm32f4xx_hal_i2s.c ****   }
 356:./Libraries/STM32F4xx_HAL_Driver/Src/stm32f4xx_hal_i2s.c **** #else
 357:./Libraries/STM32F4xx_HAL_Driver/Src/stm32f4xx_hal_i2s.c ****   /* Write to SPIx I2SCFGR */
 358:./Libraries/STM32F4xx_HAL_Driver/Src/stm32f4xx_hal_i2s.c ****   WRITE_REG(hi2s->Instance->I2SCFGR, tmpreg);
 320              		.loc 1 358 3
 321 019e 7B68     		ldr	r3, [r7, #4]
 322 01a0 1B68     		ldr	r3, [r3]
ARM GAS  /tmp/ccIc9xCh.s 			page 13


 323 01a2 FA68     		ldr	r2, [r7, #12]
 324 01a4 DA61     		str	r2, [r3, #28]
 359:./Libraries/STM32F4xx_HAL_Driver/Src/stm32f4xx_hal_i2s.c **** #endif
 360:./Libraries/STM32F4xx_HAL_Driver/Src/stm32f4xx_hal_i2s.c **** 
 361:./Libraries/STM32F4xx_HAL_Driver/Src/stm32f4xx_hal_i2s.c **** #if defined (SPI_I2S_FULLDUPLEX_SUPPORT)
 362:./Libraries/STM32F4xx_HAL_Driver/Src/stm32f4xx_hal_i2s.c **** 
 363:./Libraries/STM32F4xx_HAL_Driver/Src/stm32f4xx_hal_i2s.c ****   /* Configure the I2S extended if the full duplex mode is enabled */
 364:./Libraries/STM32F4xx_HAL_Driver/Src/stm32f4xx_hal_i2s.c ****   assert_param(IS_I2S_FULLDUPLEX_MODE(hi2s->Init.FullDuplexMode));
 365:./Libraries/STM32F4xx_HAL_Driver/Src/stm32f4xx_hal_i2s.c **** 
 366:./Libraries/STM32F4xx_HAL_Driver/Src/stm32f4xx_hal_i2s.c ****   if(hi2s->Init.FullDuplexMode == I2S_FULLDUPLEXMODE_ENABLE)
 325              		.loc 1 366 16
 326 01a6 7B68     		ldr	r3, [r7, #4]
 327 01a8 1B6A     		ldr	r3, [r3, #32]
 328              		.loc 1 366 5
 329 01aa 012B     		cmp	r3, #1
 330 01ac 62D1     		bne	.L13
 367:./Libraries/STM32F4xx_HAL_Driver/Src/stm32f4xx_hal_i2s.c ****   {
 368:./Libraries/STM32F4xx_HAL_Driver/Src/stm32f4xx_hal_i2s.c ****   	/* Set FullDuplex I2S IrqHandler ISR if FULLDUPLEXMODE is enabled */
 369:./Libraries/STM32F4xx_HAL_Driver/Src/stm32f4xx_hal_i2s.c ****     hi2s->IrqHandlerISR = HAL_I2SEx_FullDuplex_IRQHandler;
 331              		.loc 1 369 25
 332 01ae 7B68     		ldr	r3, [r7, #4]
 333 01b0 384A     		ldr	r2, .L27+8
 334 01b2 5A63     		str	r2, [r3, #52]
 370:./Libraries/STM32F4xx_HAL_Driver/Src/stm32f4xx_hal_i2s.c **** 
 371:./Libraries/STM32F4xx_HAL_Driver/Src/stm32f4xx_hal_i2s.c ****     /* Clear I2SMOD, I2SE, I2SCFG, PCMSYNC, I2SSTD, CKPOL, DATLEN and CHLEN bits */
 372:./Libraries/STM32F4xx_HAL_Driver/Src/stm32f4xx_hal_i2s.c ****     CLEAR_BIT(I2SxEXT(hi2s->Instance)->I2SCFGR,(SPI_I2SCFGR_CHLEN | SPI_I2SCFGR_DATLEN | SPI_I2SCFG
 335              		.loc 1 372 5
 336 01b4 7B68     		ldr	r3, [r7, #4]
 337 01b6 1B68     		ldr	r3, [r3]
 338 01b8 374A     		ldr	r2, .L27+12
 339 01ba 9342     		cmp	r3, r2
 340 01bc 01D1     		bne	.L14
 341              		.loc 1 372 5 is_stmt 0 discriminator 1
 342 01be 374B     		ldr	r3, .L27+16
 343 01c0 01E0     		b	.L15
 344              	.L14:
 345              		.loc 1 372 5 discriminator 2
 346 01c2 4FF04023 		mov	r3, #1073758208
 347              	.L15:
 348              		.loc 1 372 5 discriminator 4
 349 01c6 DB69     		ldr	r3, [r3, #28]
 350 01c8 7A68     		ldr	r2, [r7, #4]
 351 01ca 1268     		ldr	r2, [r2]
 352 01cc 3249     		ldr	r1, .L27+12
 353 01ce 8A42     		cmp	r2, r1
 354 01d0 01D1     		bne	.L16
 355              		.loc 1 372 5 discriminator 5
 356 01d2 324A     		ldr	r2, .L27+16
 357 01d4 01E0     		b	.L17
 358              	.L16:
 359              		.loc 1 372 5 discriminator 6
 360 01d6 4FF04022 		mov	r2, #1073758208
 361              	.L17:
 362              		.loc 1 372 5 discriminator 8
 363 01da 23F47B63 		bic	r3, r3, #4016
 364 01de 23F00F03 		bic	r3, r3, #15
 365 01e2 D361     		str	r3, [r2, #28]
ARM GAS  /tmp/ccIc9xCh.s 			page 14


 373:./Libraries/STM32F4xx_HAL_Driver/Src/stm32f4xx_hal_i2s.c ****                                                 SPI_I2SCFGR_I2SSTD | SPI_I2SCFGR_PCMSYNC | SPI_I2SC
 374:./Libraries/STM32F4xx_HAL_Driver/Src/stm32f4xx_hal_i2s.c ****                                                 SPI_I2SCFGR_I2SE | SPI_I2SCFGR_I2SMOD));
 375:./Libraries/STM32F4xx_HAL_Driver/Src/stm32f4xx_hal_i2s.c ****     I2SxEXT(hi2s->Instance)->I2SPR = 2U;
 366              		.loc 1 375 5 is_stmt 1 discriminator 8
 367 01e4 7B68     		ldr	r3, [r7, #4]
 368 01e6 1B68     		ldr	r3, [r3]
 369 01e8 2B4A     		ldr	r2, .L27+12
 370 01ea 9342     		cmp	r3, r2
 371 01ec 01D1     		bne	.L18
 372              		.loc 1 375 5 is_stmt 0 discriminator 1
 373 01ee 2B4B     		ldr	r3, .L27+16
 374 01f0 01E0     		b	.L19
 375              	.L18:
 376              		.loc 1 375 5 discriminator 2
 377 01f2 4FF04023 		mov	r3, #1073758208
 378              	.L19:
 379              		.loc 1 375 36 is_stmt 1 discriminator 4
 380 01f6 0222     		movs	r2, #2
 381 01f8 1A62     		str	r2, [r3, #32]
 376:./Libraries/STM32F4xx_HAL_Driver/Src/stm32f4xx_hal_i2s.c **** 
 377:./Libraries/STM32F4xx_HAL_Driver/Src/stm32f4xx_hal_i2s.c ****     /* Get the I2SCFGR register value */
 378:./Libraries/STM32F4xx_HAL_Driver/Src/stm32f4xx_hal_i2s.c ****     tmpreg = I2SxEXT(hi2s->Instance)->I2SCFGR;
 382              		.loc 1 378 14 discriminator 4
 383 01fa 7B68     		ldr	r3, [r7, #4]
 384 01fc 1B68     		ldr	r3, [r3]
 385 01fe 264A     		ldr	r2, .L27+12
 386 0200 9342     		cmp	r3, r2
 387 0202 01D1     		bne	.L20
 388              		.loc 1 378 14 is_stmt 0 discriminator 1
 389 0204 254B     		ldr	r3, .L27+16
 390 0206 01E0     		b	.L21
 391              	.L20:
 392              		.loc 1 378 14 discriminator 2
 393 0208 4FF04023 		mov	r3, #1073758208
 394              	.L21:
 395              		.loc 1 378 12 is_stmt 1 discriminator 4
 396 020c DB69     		ldr	r3, [r3, #28]
 397 020e FB60     		str	r3, [r7, #12]
 379:./Libraries/STM32F4xx_HAL_Driver/Src/stm32f4xx_hal_i2s.c **** 
 380:./Libraries/STM32F4xx_HAL_Driver/Src/stm32f4xx_hal_i2s.c ****     /* Get the mode to be configured for the extended I2S */
 381:./Libraries/STM32F4xx_HAL_Driver/Src/stm32f4xx_hal_i2s.c ****     if((hi2s->Init.Mode == I2S_MODE_MASTER_TX) || (hi2s->Init.Mode == I2S_MODE_SLAVE_TX))
 398              		.loc 1 381 19 discriminator 4
 399 0210 7B68     		ldr	r3, [r7, #4]
 400 0212 5B68     		ldr	r3, [r3, #4]
 401              		.loc 1 381 7 discriminator 4
 402 0214 B3F5007F 		cmp	r3, #512
 403 0218 03D0     		beq	.L22
 404              		.loc 1 381 62 discriminator 1
 405 021a 7B68     		ldr	r3, [r7, #4]
 406 021c 5B68     		ldr	r3, [r3, #4]
 407              		.loc 1 381 48 discriminator 1
 408 021e 002B     		cmp	r3, #0
 409 0220 03D1     		bne	.L23
 410              	.L22:
 382:./Libraries/STM32F4xx_HAL_Driver/Src/stm32f4xx_hal_i2s.c ****     {
 383:./Libraries/STM32F4xx_HAL_Driver/Src/stm32f4xx_hal_i2s.c ****       tmp = I2S_MODE_SLAVE_RX;
 411              		.loc 1 383 11
ARM GAS  /tmp/ccIc9xCh.s 			page 15


 412 0222 4FF48073 		mov	r3, #256
 413 0226 3B61     		str	r3, [r7, #16]
 414 0228 01E0     		b	.L24
 415              	.L23:
 384:./Libraries/STM32F4xx_HAL_Driver/Src/stm32f4xx_hal_i2s.c ****     }
 385:./Libraries/STM32F4xx_HAL_Driver/Src/stm32f4xx_hal_i2s.c ****     else /* I2S_MODE_MASTER_RX ||  I2S_MODE_SLAVE_RX */
 386:./Libraries/STM32F4xx_HAL_Driver/Src/stm32f4xx_hal_i2s.c ****     {
 387:./Libraries/STM32F4xx_HAL_Driver/Src/stm32f4xx_hal_i2s.c ****       tmp = I2S_MODE_SLAVE_TX;
 416              		.loc 1 387 11
 417 022a 0023     		movs	r3, #0
 418 022c 3B61     		str	r3, [r7, #16]
 419              	.L24:
 388:./Libraries/STM32F4xx_HAL_Driver/Src/stm32f4xx_hal_i2s.c ****     }
 389:./Libraries/STM32F4xx_HAL_Driver/Src/stm32f4xx_hal_i2s.c **** 
 390:./Libraries/STM32F4xx_HAL_Driver/Src/stm32f4xx_hal_i2s.c ****     /* Configure the I2S Slave with the I2S Master parameter values */
 391:./Libraries/STM32F4xx_HAL_Driver/Src/stm32f4xx_hal_i2s.c ****     tmpreg |= (uint16_t)((uint16_t)SPI_I2SCFGR_I2SMOD | (uint16_t)(tmp | \
 420              		.loc 1 391 57
 421 022e 3B69     		ldr	r3, [r7, #16]
 422 0230 9AB2     		uxth	r2, r3
 392:./Libraries/STM32F4xx_HAL_Driver/Src/stm32f4xx_hal_i2s.c ****                          (uint16_t)(hi2s->Init.Standard | (uint16_t)(hi2s->Init.DataFormat | \
 423              		.loc 1 392 47
 424 0232 7B68     		ldr	r3, [r7, #4]
 425 0234 9B68     		ldr	r3, [r3, #8]
 426              		.loc 1 392 26
 427 0236 99B2     		uxth	r1, r3
 428              		.loc 1 392 80
 429 0238 7B68     		ldr	r3, [r7, #4]
 430 023a DB68     		ldr	r3, [r3, #12]
 431              		.loc 1 392 59
 432 023c 98B2     		uxth	r0, r3
 393:./Libraries/STM32F4xx_HAL_Driver/Src/stm32f4xx_hal_i2s.c ****                          (uint16_t)hi2s->Init.CPOL))));
 433              		.loc 1 393 46
 434 023e 7B68     		ldr	r3, [r7, #4]
 435 0240 9B69     		ldr	r3, [r3, #24]
 436              		.loc 1 393 26
 437 0242 9BB2     		uxth	r3, r3
 392:./Libraries/STM32F4xx_HAL_Driver/Src/stm32f4xx_hal_i2s.c ****                          (uint16_t)(hi2s->Init.Standard | (uint16_t)(hi2s->Init.DataFormat | \
 438              		.loc 1 392 59
 439 0244 0343     		orrs	r3, r3, r0
 440 0246 9BB2     		uxth	r3, r3
 392:./Libraries/STM32F4xx_HAL_Driver/Src/stm32f4xx_hal_i2s.c ****                          (uint16_t)(hi2s->Init.Standard | (uint16_t)(hi2s->Init.DataFormat | \
 441              		.loc 1 392 26
 442 0248 0B43     		orrs	r3, r3, r1
 443 024a 9BB2     		uxth	r3, r3
 391:./Libraries/STM32F4xx_HAL_Driver/Src/stm32f4xx_hal_i2s.c ****                          (uint16_t)(hi2s->Init.Standard | (uint16_t)(hi2s->Init.DataFormat | \
 444              		.loc 1 391 57
 445 024c 1343     		orrs	r3, r3, r2
 446 024e 9BB2     		uxth	r3, r3
 391:./Libraries/STM32F4xx_HAL_Driver/Src/stm32f4xx_hal_i2s.c ****                          (uint16_t)(hi2s->Init.Standard | (uint16_t)(hi2s->Init.DataFormat | \
 447              		.loc 1 391 15
 448 0250 43F40063 		orr	r3, r3, #2048
 449 0254 9BB2     		uxth	r3, r3
 450 0256 1A46     		mov	r2, r3
 391:./Libraries/STM32F4xx_HAL_Driver/Src/stm32f4xx_hal_i2s.c ****                          (uint16_t)(hi2s->Init.Standard | (uint16_t)(hi2s->Init.DataFormat | \
 451              		.loc 1 391 12
 452 0258 FB68     		ldr	r3, [r7, #12]
 453 025a 1343     		orrs	r3, r3, r2
ARM GAS  /tmp/ccIc9xCh.s 			page 16


 454 025c FB60     		str	r3, [r7, #12]
 394:./Libraries/STM32F4xx_HAL_Driver/Src/stm32f4xx_hal_i2s.c **** 
 395:./Libraries/STM32F4xx_HAL_Driver/Src/stm32f4xx_hal_i2s.c ****     /* Write to SPIx I2SCFGR */
 396:./Libraries/STM32F4xx_HAL_Driver/Src/stm32f4xx_hal_i2s.c ****     WRITE_REG(I2SxEXT(hi2s->Instance)->I2SCFGR,tmpreg);
 455              		.loc 1 396 5
 456 025e 7B68     		ldr	r3, [r7, #4]
 457 0260 1B68     		ldr	r3, [r3]
 458 0262 0D4A     		ldr	r2, .L27+12
 459 0264 9342     		cmp	r3, r2
 460 0266 01D1     		bne	.L25
 461              		.loc 1 396 5 is_stmt 0 discriminator 1
 462 0268 0C4B     		ldr	r3, .L27+16
 463 026a 01E0     		b	.L26
 464              	.L25:
 465              		.loc 1 396 5 discriminator 2
 466 026c 4FF04023 		mov	r3, #1073758208
 467              	.L26:
 468              		.loc 1 396 5 discriminator 4
 469 0270 FA68     		ldr	r2, [r7, #12]
 470 0272 DA61     		str	r2, [r3, #28]
 471              	.L13:
 397:./Libraries/STM32F4xx_HAL_Driver/Src/stm32f4xx_hal_i2s.c ****   }
 398:./Libraries/STM32F4xx_HAL_Driver/Src/stm32f4xx_hal_i2s.c **** #endif /* SPI_I2S_FULLDUPLEX_SUPPORT */
 399:./Libraries/STM32F4xx_HAL_Driver/Src/stm32f4xx_hal_i2s.c **** 
 400:./Libraries/STM32F4xx_HAL_Driver/Src/stm32f4xx_hal_i2s.c ****   hi2s->ErrorCode = HAL_I2S_ERROR_NONE;
 472              		.loc 1 400 19 is_stmt 1
 473 0274 7B68     		ldr	r3, [r7, #4]
 474 0276 0022     		movs	r2, #0
 475 0278 5A64     		str	r2, [r3, #68]
 401:./Libraries/STM32F4xx_HAL_Driver/Src/stm32f4xx_hal_i2s.c ****   hi2s->State     = HAL_I2S_STATE_READY;
 476              		.loc 1 401 19
 477 027a 7B68     		ldr	r3, [r7, #4]
 478 027c 0122     		movs	r2, #1
 479 027e 83F84120 		strb	r2, [r3, #65]
 402:./Libraries/STM32F4xx_HAL_Driver/Src/stm32f4xx_hal_i2s.c **** 
 403:./Libraries/STM32F4xx_HAL_Driver/Src/stm32f4xx_hal_i2s.c ****   return HAL_OK;
 480              		.loc 1 403 10
 481 0282 0023     		movs	r3, #0
 482              	.L3:
 404:./Libraries/STM32F4xx_HAL_Driver/Src/stm32f4xx_hal_i2s.c **** }
 483              		.loc 1 404 1
 484 0284 1846     		mov	r0, r3
 485 0286 2037     		adds	r7, r7, #32
 486              	.LCFI3:
 487              		.cfi_def_cfa_offset 8
 488 0288 BD46     		mov	sp, r7
 489              	.LCFI4:
 490              		.cfi_def_cfa_register 13
 491              		@ sp needed
 492 028a 80BD     		pop	{r7, pc}
 493              	.L28:
 494              		.align	2
 495              	.L27:
 496 028c 00000000 		.word	I2S_IRQHandler
 497 0290 CDCCCCCC 		.word	-858993459
 498 0294 00000000 		.word	HAL_I2SEx_FullDuplex_IRQHandler
 499 0298 00380040 		.word	1073756160
ARM GAS  /tmp/ccIc9xCh.s 			page 17


 500 029c 00340040 		.word	1073755136
 501              		.cfi_endproc
 502              	.LFE126:
 504              		.section	.text.HAL_I2S_DeInit,"ax",%progbits
 505              		.align	1
 506              		.global	HAL_I2S_DeInit
 507              		.syntax unified
 508              		.thumb
 509              		.thumb_func
 510              		.fpu fpv4-sp-d16
 512              	HAL_I2S_DeInit:
 513              	.LFB127:
 405:./Libraries/STM32F4xx_HAL_Driver/Src/stm32f4xx_hal_i2s.c **** 
 406:./Libraries/STM32F4xx_HAL_Driver/Src/stm32f4xx_hal_i2s.c **** /**
 407:./Libraries/STM32F4xx_HAL_Driver/Src/stm32f4xx_hal_i2s.c ****   * @brief DeInitializes the I2S peripheral
 408:./Libraries/STM32F4xx_HAL_Driver/Src/stm32f4xx_hal_i2s.c ****   * @param  hi2s pointer to a I2S_HandleTypeDef structure that contains
 409:./Libraries/STM32F4xx_HAL_Driver/Src/stm32f4xx_hal_i2s.c ****   *         the configuration information for I2S module
 410:./Libraries/STM32F4xx_HAL_Driver/Src/stm32f4xx_hal_i2s.c ****   * @retval HAL status
 411:./Libraries/STM32F4xx_HAL_Driver/Src/stm32f4xx_hal_i2s.c ****   */
 412:./Libraries/STM32F4xx_HAL_Driver/Src/stm32f4xx_hal_i2s.c **** HAL_StatusTypeDef HAL_I2S_DeInit(I2S_HandleTypeDef *hi2s)
 413:./Libraries/STM32F4xx_HAL_Driver/Src/stm32f4xx_hal_i2s.c **** {
 514              		.loc 1 413 1
 515              		.cfi_startproc
 516              		@ args = 0, pretend = 0, frame = 8
 517              		@ frame_needed = 1, uses_anonymous_args = 0
 518 0000 80B5     		push	{r7, lr}
 519              	.LCFI5:
 520              		.cfi_def_cfa_offset 8
 521              		.cfi_offset 7, -8
 522              		.cfi_offset 14, -4
 523 0002 82B0     		sub	sp, sp, #8
 524              	.LCFI6:
 525              		.cfi_def_cfa_offset 16
 526 0004 00AF     		add	r7, sp, #0
 527              	.LCFI7:
 528              		.cfi_def_cfa_register 7
 529 0006 7860     		str	r0, [r7, #4]
 414:./Libraries/STM32F4xx_HAL_Driver/Src/stm32f4xx_hal_i2s.c ****   /* Check the I2S handle allocation */
 415:./Libraries/STM32F4xx_HAL_Driver/Src/stm32f4xx_hal_i2s.c ****   if(hi2s == NULL)
 530              		.loc 1 415 5
 531 0008 7B68     		ldr	r3, [r7, #4]
 532 000a 002B     		cmp	r3, #0
 533 000c 01D1     		bne	.L30
 416:./Libraries/STM32F4xx_HAL_Driver/Src/stm32f4xx_hal_i2s.c ****   {
 417:./Libraries/STM32F4xx_HAL_Driver/Src/stm32f4xx_hal_i2s.c ****     return HAL_ERROR;
 534              		.loc 1 417 12
 535 000e 0123     		movs	r3, #1
 536 0010 12E0     		b	.L31
 537              	.L30:
 418:./Libraries/STM32F4xx_HAL_Driver/Src/stm32f4xx_hal_i2s.c ****   }
 419:./Libraries/STM32F4xx_HAL_Driver/Src/stm32f4xx_hal_i2s.c **** 
 420:./Libraries/STM32F4xx_HAL_Driver/Src/stm32f4xx_hal_i2s.c ****   hi2s->State = HAL_I2S_STATE_BUSY;
 538              		.loc 1 420 15
 539 0012 7B68     		ldr	r3, [r7, #4]
 540 0014 0222     		movs	r2, #2
 541 0016 83F84120 		strb	r2, [r3, #65]
 421:./Libraries/STM32F4xx_HAL_Driver/Src/stm32f4xx_hal_i2s.c **** 
ARM GAS  /tmp/ccIc9xCh.s 			page 18


 422:./Libraries/STM32F4xx_HAL_Driver/Src/stm32f4xx_hal_i2s.c ****   /* DeInit the low level hardware: GPIO, CLOCK, NVIC... */
 423:./Libraries/STM32F4xx_HAL_Driver/Src/stm32f4xx_hal_i2s.c ****   HAL_I2S_MspDeInit(hi2s);
 542              		.loc 1 423 3
 543 001a 7868     		ldr	r0, [r7, #4]
 544 001c FFF7FEFF 		bl	HAL_I2S_MspDeInit
 424:./Libraries/STM32F4xx_HAL_Driver/Src/stm32f4xx_hal_i2s.c **** 
 425:./Libraries/STM32F4xx_HAL_Driver/Src/stm32f4xx_hal_i2s.c ****   hi2s->ErrorCode = HAL_I2S_ERROR_NONE;
 545              		.loc 1 425 19
 546 0020 7B68     		ldr	r3, [r7, #4]
 547 0022 0022     		movs	r2, #0
 548 0024 5A64     		str	r2, [r3, #68]
 426:./Libraries/STM32F4xx_HAL_Driver/Src/stm32f4xx_hal_i2s.c ****   hi2s->State     = HAL_I2S_STATE_RESET;
 549              		.loc 1 426 19
 550 0026 7B68     		ldr	r3, [r7, #4]
 551 0028 0022     		movs	r2, #0
 552 002a 83F84120 		strb	r2, [r3, #65]
 427:./Libraries/STM32F4xx_HAL_Driver/Src/stm32f4xx_hal_i2s.c **** 
 428:./Libraries/STM32F4xx_HAL_Driver/Src/stm32f4xx_hal_i2s.c ****   /* Release Lock */
 429:./Libraries/STM32F4xx_HAL_Driver/Src/stm32f4xx_hal_i2s.c ****   __HAL_UNLOCK(hi2s);
 553              		.loc 1 429 3
 554 002e 7B68     		ldr	r3, [r7, #4]
 555 0030 0022     		movs	r2, #0
 556 0032 83F84020 		strb	r2, [r3, #64]
 430:./Libraries/STM32F4xx_HAL_Driver/Src/stm32f4xx_hal_i2s.c **** 
 431:./Libraries/STM32F4xx_HAL_Driver/Src/stm32f4xx_hal_i2s.c ****   return HAL_OK;
 557              		.loc 1 431 10
 558 0036 0023     		movs	r3, #0
 559              	.L31:
 432:./Libraries/STM32F4xx_HAL_Driver/Src/stm32f4xx_hal_i2s.c **** }
 560              		.loc 1 432 1
 561 0038 1846     		mov	r0, r3
 562 003a 0837     		adds	r7, r7, #8
 563              	.LCFI8:
 564              		.cfi_def_cfa_offset 8
 565 003c BD46     		mov	sp, r7
 566              	.LCFI9:
 567              		.cfi_def_cfa_register 13
 568              		@ sp needed
 569 003e 80BD     		pop	{r7, pc}
 570              		.cfi_endproc
 571              	.LFE127:
 573              		.section	.text.HAL_I2S_MspInit,"ax",%progbits
 574              		.align	1
 575              		.weak	HAL_I2S_MspInit
 576              		.syntax unified
 577              		.thumb
 578              		.thumb_func
 579              		.fpu fpv4-sp-d16
 581              	HAL_I2S_MspInit:
 582              	.LFB128:
 433:./Libraries/STM32F4xx_HAL_Driver/Src/stm32f4xx_hal_i2s.c **** 
 434:./Libraries/STM32F4xx_HAL_Driver/Src/stm32f4xx_hal_i2s.c **** /**
 435:./Libraries/STM32F4xx_HAL_Driver/Src/stm32f4xx_hal_i2s.c ****   * @brief I2S MSP Init
 436:./Libraries/STM32F4xx_HAL_Driver/Src/stm32f4xx_hal_i2s.c ****   * @param  hi2s pointer to a I2S_HandleTypeDef structure that contains
 437:./Libraries/STM32F4xx_HAL_Driver/Src/stm32f4xx_hal_i2s.c ****   *         the configuration information for I2S module
 438:./Libraries/STM32F4xx_HAL_Driver/Src/stm32f4xx_hal_i2s.c ****   * @retval None
 439:./Libraries/STM32F4xx_HAL_Driver/Src/stm32f4xx_hal_i2s.c ****   */
ARM GAS  /tmp/ccIc9xCh.s 			page 19


 440:./Libraries/STM32F4xx_HAL_Driver/Src/stm32f4xx_hal_i2s.c ****  __weak void HAL_I2S_MspInit(I2S_HandleTypeDef *hi2s)
 441:./Libraries/STM32F4xx_HAL_Driver/Src/stm32f4xx_hal_i2s.c **** {
 583              		.loc 1 441 1
 584              		.cfi_startproc
 585              		@ args = 0, pretend = 0, frame = 8
 586              		@ frame_needed = 1, uses_anonymous_args = 0
 587              		@ link register save eliminated.
 588 0000 80B4     		push	{r7}
 589              	.LCFI10:
 590              		.cfi_def_cfa_offset 4
 591              		.cfi_offset 7, -4
 592 0002 83B0     		sub	sp, sp, #12
 593              	.LCFI11:
 594              		.cfi_def_cfa_offset 16
 595 0004 00AF     		add	r7, sp, #0
 596              	.LCFI12:
 597              		.cfi_def_cfa_register 7
 598 0006 7860     		str	r0, [r7, #4]
 442:./Libraries/STM32F4xx_HAL_Driver/Src/stm32f4xx_hal_i2s.c ****   /* Prevent unused argument(s) compilation warning */
 443:./Libraries/STM32F4xx_HAL_Driver/Src/stm32f4xx_hal_i2s.c ****   UNUSED(hi2s);
 444:./Libraries/STM32F4xx_HAL_Driver/Src/stm32f4xx_hal_i2s.c ****   /* NOTE : This function Should not be modified, when the callback is needed,
 445:./Libraries/STM32F4xx_HAL_Driver/Src/stm32f4xx_hal_i2s.c ****             the HAL_I2S_MspInit could be implemented in the user file
 446:./Libraries/STM32F4xx_HAL_Driver/Src/stm32f4xx_hal_i2s.c ****    */
 447:./Libraries/STM32F4xx_HAL_Driver/Src/stm32f4xx_hal_i2s.c **** }
 599              		.loc 1 447 1
 600 0008 00BF     		nop
 601 000a 0C37     		adds	r7, r7, #12
 602              	.LCFI13:
 603              		.cfi_def_cfa_offset 4
 604 000c BD46     		mov	sp, r7
 605              	.LCFI14:
 606              		.cfi_def_cfa_register 13
 607              		@ sp needed
 608 000e 5DF8047B 		ldr	r7, [sp], #4
 609              	.LCFI15:
 610              		.cfi_restore 7
 611              		.cfi_def_cfa_offset 0
 612 0012 7047     		bx	lr
 613              		.cfi_endproc
 614              	.LFE128:
 616              		.section	.text.HAL_I2S_MspDeInit,"ax",%progbits
 617              		.align	1
 618              		.weak	HAL_I2S_MspDeInit
 619              		.syntax unified
 620              		.thumb
 621              		.thumb_func
 622              		.fpu fpv4-sp-d16
 624              	HAL_I2S_MspDeInit:
 625              	.LFB129:
 448:./Libraries/STM32F4xx_HAL_Driver/Src/stm32f4xx_hal_i2s.c **** 
 449:./Libraries/STM32F4xx_HAL_Driver/Src/stm32f4xx_hal_i2s.c **** /**
 450:./Libraries/STM32F4xx_HAL_Driver/Src/stm32f4xx_hal_i2s.c ****   * @brief I2S MSP DeInit
 451:./Libraries/STM32F4xx_HAL_Driver/Src/stm32f4xx_hal_i2s.c ****   * @param  hi2s pointer to a I2S_HandleTypeDef structure that contains
 452:./Libraries/STM32F4xx_HAL_Driver/Src/stm32f4xx_hal_i2s.c ****   *         the configuration information for I2S module
 453:./Libraries/STM32F4xx_HAL_Driver/Src/stm32f4xx_hal_i2s.c ****   * @retval None
 454:./Libraries/STM32F4xx_HAL_Driver/Src/stm32f4xx_hal_i2s.c ****   */
 455:./Libraries/STM32F4xx_HAL_Driver/Src/stm32f4xx_hal_i2s.c ****  __weak void HAL_I2S_MspDeInit(I2S_HandleTypeDef *hi2s)
ARM GAS  /tmp/ccIc9xCh.s 			page 20


 456:./Libraries/STM32F4xx_HAL_Driver/Src/stm32f4xx_hal_i2s.c **** {
 626              		.loc 1 456 1
 627              		.cfi_startproc
 628              		@ args = 0, pretend = 0, frame = 8
 629              		@ frame_needed = 1, uses_anonymous_args = 0
 630              		@ link register save eliminated.
 631 0000 80B4     		push	{r7}
 632              	.LCFI16:
 633              		.cfi_def_cfa_offset 4
 634              		.cfi_offset 7, -4
 635 0002 83B0     		sub	sp, sp, #12
 636              	.LCFI17:
 637              		.cfi_def_cfa_offset 16
 638 0004 00AF     		add	r7, sp, #0
 639              	.LCFI18:
 640              		.cfi_def_cfa_register 7
 641 0006 7860     		str	r0, [r7, #4]
 457:./Libraries/STM32F4xx_HAL_Driver/Src/stm32f4xx_hal_i2s.c ****   /* Prevent unused argument(s) compilation warning */
 458:./Libraries/STM32F4xx_HAL_Driver/Src/stm32f4xx_hal_i2s.c ****   UNUSED(hi2s);
 459:./Libraries/STM32F4xx_HAL_Driver/Src/stm32f4xx_hal_i2s.c ****   /* NOTE : This function Should not be modified, when the callback is needed,
 460:./Libraries/STM32F4xx_HAL_Driver/Src/stm32f4xx_hal_i2s.c ****             the HAL_I2S_MspDeInit could be implemented in the user file
 461:./Libraries/STM32F4xx_HAL_Driver/Src/stm32f4xx_hal_i2s.c ****    */
 462:./Libraries/STM32F4xx_HAL_Driver/Src/stm32f4xx_hal_i2s.c **** }
 642              		.loc 1 462 1
 643 0008 00BF     		nop
 644 000a 0C37     		adds	r7, r7, #12
 645              	.LCFI19:
 646              		.cfi_def_cfa_offset 4
 647 000c BD46     		mov	sp, r7
 648              	.LCFI20:
 649              		.cfi_def_cfa_register 13
 650              		@ sp needed
 651 000e 5DF8047B 		ldr	r7, [sp], #4
 652              	.LCFI21:
 653              		.cfi_restore 7
 654              		.cfi_def_cfa_offset 0
 655 0012 7047     		bx	lr
 656              		.cfi_endproc
 657              	.LFE129:
 659              		.section	.text.HAL_I2S_Transmit,"ax",%progbits
 660              		.align	1
 661              		.global	HAL_I2S_Transmit
 662              		.syntax unified
 663              		.thumb
 664              		.thumb_func
 665              		.fpu fpv4-sp-d16
 667              	HAL_I2S_Transmit:
 668              	.LFB130:
 463:./Libraries/STM32F4xx_HAL_Driver/Src/stm32f4xx_hal_i2s.c **** /**
 464:./Libraries/STM32F4xx_HAL_Driver/Src/stm32f4xx_hal_i2s.c ****   * @}
 465:./Libraries/STM32F4xx_HAL_Driver/Src/stm32f4xx_hal_i2s.c ****   */
 466:./Libraries/STM32F4xx_HAL_Driver/Src/stm32f4xx_hal_i2s.c **** 
 467:./Libraries/STM32F4xx_HAL_Driver/Src/stm32f4xx_hal_i2s.c **** /** @addtogroup I2S_Exported_Functions_Group2
 468:./Libraries/STM32F4xx_HAL_Driver/Src/stm32f4xx_hal_i2s.c ****   *  @brief Data transfers functions
 469:./Libraries/STM32F4xx_HAL_Driver/Src/stm32f4xx_hal_i2s.c ****   *
 470:./Libraries/STM32F4xx_HAL_Driver/Src/stm32f4xx_hal_i2s.c **** @verbatim
 471:./Libraries/STM32F4xx_HAL_Driver/Src/stm32f4xx_hal_i2s.c ****  ===============================================================================
ARM GAS  /tmp/ccIc9xCh.s 			page 21


 472:./Libraries/STM32F4xx_HAL_Driver/Src/stm32f4xx_hal_i2s.c ****                       ##### IO operation functions #####
 473:./Libraries/STM32F4xx_HAL_Driver/Src/stm32f4xx_hal_i2s.c ****  ===============================================================================
 474:./Libraries/STM32F4xx_HAL_Driver/Src/stm32f4xx_hal_i2s.c ****     [..]
 475:./Libraries/STM32F4xx_HAL_Driver/Src/stm32f4xx_hal_i2s.c ****     This subsection provides a set of functions allowing to manage the I2S data
 476:./Libraries/STM32F4xx_HAL_Driver/Src/stm32f4xx_hal_i2s.c ****     transfers.
 477:./Libraries/STM32F4xx_HAL_Driver/Src/stm32f4xx_hal_i2s.c **** 
 478:./Libraries/STM32F4xx_HAL_Driver/Src/stm32f4xx_hal_i2s.c ****     (#) There are two modes of transfer:
 479:./Libraries/STM32F4xx_HAL_Driver/Src/stm32f4xx_hal_i2s.c ****        (++) Blocking mode : The communication is performed in the polling mode.
 480:./Libraries/STM32F4xx_HAL_Driver/Src/stm32f4xx_hal_i2s.c ****             The status of all data processing is returned by the same function
 481:./Libraries/STM32F4xx_HAL_Driver/Src/stm32f4xx_hal_i2s.c ****             after finishing transfer.
 482:./Libraries/STM32F4xx_HAL_Driver/Src/stm32f4xx_hal_i2s.c ****        (++) No-Blocking mode : The communication is performed using Interrupts
 483:./Libraries/STM32F4xx_HAL_Driver/Src/stm32f4xx_hal_i2s.c ****             or DMA. These functions return the status of the transfer startup.
 484:./Libraries/STM32F4xx_HAL_Driver/Src/stm32f4xx_hal_i2s.c ****             The end of the data processing will be indicated through the
 485:./Libraries/STM32F4xx_HAL_Driver/Src/stm32f4xx_hal_i2s.c ****             dedicated I2S IRQ when using Interrupt mode or the DMA IRQ when
 486:./Libraries/STM32F4xx_HAL_Driver/Src/stm32f4xx_hal_i2s.c ****             using DMA mode.
 487:./Libraries/STM32F4xx_HAL_Driver/Src/stm32f4xx_hal_i2s.c **** 
 488:./Libraries/STM32F4xx_HAL_Driver/Src/stm32f4xx_hal_i2s.c ****     (#) Blocking mode functions are :
 489:./Libraries/STM32F4xx_HAL_Driver/Src/stm32f4xx_hal_i2s.c ****         (++) HAL_I2S_Transmit()
 490:./Libraries/STM32F4xx_HAL_Driver/Src/stm32f4xx_hal_i2s.c ****         (++) HAL_I2S_Receive()
 491:./Libraries/STM32F4xx_HAL_Driver/Src/stm32f4xx_hal_i2s.c **** 
 492:./Libraries/STM32F4xx_HAL_Driver/Src/stm32f4xx_hal_i2s.c ****     (#) No-Blocking mode functions with Interrupt are :
 493:./Libraries/STM32F4xx_HAL_Driver/Src/stm32f4xx_hal_i2s.c ****         (++) HAL_I2S_Transmit_IT()
 494:./Libraries/STM32F4xx_HAL_Driver/Src/stm32f4xx_hal_i2s.c ****         (++) HAL_I2S_Receive_IT()
 495:./Libraries/STM32F4xx_HAL_Driver/Src/stm32f4xx_hal_i2s.c **** 
 496:./Libraries/STM32F4xx_HAL_Driver/Src/stm32f4xx_hal_i2s.c ****     (#) No-Blocking mode functions with DMA are :
 497:./Libraries/STM32F4xx_HAL_Driver/Src/stm32f4xx_hal_i2s.c ****         (++) HAL_I2S_Transmit_DMA()
 498:./Libraries/STM32F4xx_HAL_Driver/Src/stm32f4xx_hal_i2s.c ****         (++) HAL_I2S_Receive_DMA()
 499:./Libraries/STM32F4xx_HAL_Driver/Src/stm32f4xx_hal_i2s.c **** 
 500:./Libraries/STM32F4xx_HAL_Driver/Src/stm32f4xx_hal_i2s.c ****     (#) A set of Transfer Complete Callbacks are provided in non Blocking mode:
 501:./Libraries/STM32F4xx_HAL_Driver/Src/stm32f4xx_hal_i2s.c ****         (++) HAL_I2S_TxCpltCallback()
 502:./Libraries/STM32F4xx_HAL_Driver/Src/stm32f4xx_hal_i2s.c ****         (++) HAL_I2S_RxCpltCallback()
 503:./Libraries/STM32F4xx_HAL_Driver/Src/stm32f4xx_hal_i2s.c ****         (++) HAL_I2S_ErrorCallback()
 504:./Libraries/STM32F4xx_HAL_Driver/Src/stm32f4xx_hal_i2s.c **** 
 505:./Libraries/STM32F4xx_HAL_Driver/Src/stm32f4xx_hal_i2s.c **** @endverbatim
 506:./Libraries/STM32F4xx_HAL_Driver/Src/stm32f4xx_hal_i2s.c ****   * @{
 507:./Libraries/STM32F4xx_HAL_Driver/Src/stm32f4xx_hal_i2s.c ****   */
 508:./Libraries/STM32F4xx_HAL_Driver/Src/stm32f4xx_hal_i2s.c **** 
 509:./Libraries/STM32F4xx_HAL_Driver/Src/stm32f4xx_hal_i2s.c **** /**
 510:./Libraries/STM32F4xx_HAL_Driver/Src/stm32f4xx_hal_i2s.c ****   * @brief Transmit an amount of data in blocking mode
 511:./Libraries/STM32F4xx_HAL_Driver/Src/stm32f4xx_hal_i2s.c ****   * @param  hi2s pointer to a I2S_HandleTypeDef structure that contains
 512:./Libraries/STM32F4xx_HAL_Driver/Src/stm32f4xx_hal_i2s.c ****   *         the configuration information for I2S module
 513:./Libraries/STM32F4xx_HAL_Driver/Src/stm32f4xx_hal_i2s.c ****   * @param pData a 16-bit pointer to data buffer.
 514:./Libraries/STM32F4xx_HAL_Driver/Src/stm32f4xx_hal_i2s.c ****   * @param Size number of data sample to be sent:
 515:./Libraries/STM32F4xx_HAL_Driver/Src/stm32f4xx_hal_i2s.c ****   * @note When a 16-bit data frame or a 16-bit data frame extended is selected during the I2S
 516:./Libraries/STM32F4xx_HAL_Driver/Src/stm32f4xx_hal_i2s.c ****   *       configuration phase, the Size parameter means the number of 16-bit data length
 517:./Libraries/STM32F4xx_HAL_Driver/Src/stm32f4xx_hal_i2s.c ****   *       in the transaction and when a 24-bit data frame or a 32-bit data frame is selected
 518:./Libraries/STM32F4xx_HAL_Driver/Src/stm32f4xx_hal_i2s.c ****   *       the Size parameter means the number of 16-bit data length.
 519:./Libraries/STM32F4xx_HAL_Driver/Src/stm32f4xx_hal_i2s.c ****   * @param  Timeout Timeout duration
 520:./Libraries/STM32F4xx_HAL_Driver/Src/stm32f4xx_hal_i2s.c ****   * @note The I2S is kept enabled at the end of transaction to avoid the clock de-synchronization
 521:./Libraries/STM32F4xx_HAL_Driver/Src/stm32f4xx_hal_i2s.c ****   *       between Master and Slave(example: audio streaming).
 522:./Libraries/STM32F4xx_HAL_Driver/Src/stm32f4xx_hal_i2s.c ****   * @retval HAL status
 523:./Libraries/STM32F4xx_HAL_Driver/Src/stm32f4xx_hal_i2s.c ****   */
 524:./Libraries/STM32F4xx_HAL_Driver/Src/stm32f4xx_hal_i2s.c **** HAL_StatusTypeDef HAL_I2S_Transmit(I2S_HandleTypeDef *hi2s, uint16_t *pData, uint16_t Size, uint32_
 525:./Libraries/STM32F4xx_HAL_Driver/Src/stm32f4xx_hal_i2s.c **** {
 669              		.loc 1 525 1
 670              		.cfi_startproc
 671              		@ args = 0, pretend = 0, frame = 24
ARM GAS  /tmp/ccIc9xCh.s 			page 22


 672              		@ frame_needed = 1, uses_anonymous_args = 0
 673 0000 80B5     		push	{r7, lr}
 674              	.LCFI22:
 675              		.cfi_def_cfa_offset 8
 676              		.cfi_offset 7, -8
 677              		.cfi_offset 14, -4
 678 0002 86B0     		sub	sp, sp, #24
 679              	.LCFI23:
 680              		.cfi_def_cfa_offset 32
 681 0004 00AF     		add	r7, sp, #0
 682              	.LCFI24:
 683              		.cfi_def_cfa_register 7
 684 0006 F860     		str	r0, [r7, #12]
 685 0008 B960     		str	r1, [r7, #8]
 686 000a 3B60     		str	r3, [r7]
 687 000c 1346     		mov	r3, r2	@ movhi
 688 000e FB80     		strh	r3, [r7, #6]	@ movhi
 526:./Libraries/STM32F4xx_HAL_Driver/Src/stm32f4xx_hal_i2s.c ****   uint32_t tmp1 = 0U;
 689              		.loc 1 526 12
 690 0010 0023     		movs	r3, #0
 691 0012 7B61     		str	r3, [r7, #20]
 527:./Libraries/STM32F4xx_HAL_Driver/Src/stm32f4xx_hal_i2s.c **** 
 528:./Libraries/STM32F4xx_HAL_Driver/Src/stm32f4xx_hal_i2s.c ****   if((pData == NULL ) || (Size == 0U))
 692              		.loc 1 528 5
 693 0014 BB68     		ldr	r3, [r7, #8]
 694 0016 002B     		cmp	r3, #0
 695 0018 02D0     		beq	.L35
 696              		.loc 1 528 23 discriminator 1
 697 001a FB88     		ldrh	r3, [r7, #6]
 698 001c 002B     		cmp	r3, #0
 699 001e 01D1     		bne	.L36
 700              	.L35:
 529:./Libraries/STM32F4xx_HAL_Driver/Src/stm32f4xx_hal_i2s.c ****   {
 530:./Libraries/STM32F4xx_HAL_Driver/Src/stm32f4xx_hal_i2s.c ****     return  HAL_ERROR;
 701              		.loc 1 530 13
 702 0020 0123     		movs	r3, #1
 703 0022 9AE0     		b	.L37
 704              	.L36:
 531:./Libraries/STM32F4xx_HAL_Driver/Src/stm32f4xx_hal_i2s.c ****   }
 532:./Libraries/STM32F4xx_HAL_Driver/Src/stm32f4xx_hal_i2s.c **** 
 533:./Libraries/STM32F4xx_HAL_Driver/Src/stm32f4xx_hal_i2s.c ****   if(hi2s->State == HAL_I2S_STATE_READY)
 705              		.loc 1 533 10
 706 0024 FB68     		ldr	r3, [r7, #12]
 707 0026 93F84130 		ldrb	r3, [r3, #65]
 708 002a DBB2     		uxtb	r3, r3
 709              		.loc 1 533 5
 710 002c 012B     		cmp	r3, #1
 711 002e 40F09380 		bne	.L38
 534:./Libraries/STM32F4xx_HAL_Driver/Src/stm32f4xx_hal_i2s.c ****   {
 535:./Libraries/STM32F4xx_HAL_Driver/Src/stm32f4xx_hal_i2s.c ****     tmp1 = hi2s->Instance->I2SCFGR & (SPI_I2SCFGR_DATLEN | SPI_I2SCFGR_CHLEN);
 712              		.loc 1 535 16
 713 0032 FB68     		ldr	r3, [r7, #12]
 714 0034 1B68     		ldr	r3, [r3]
 715              		.loc 1 535 26
 716 0036 DB69     		ldr	r3, [r3, #28]
 717              		.loc 1 535 10
 718 0038 03F00703 		and	r3, r3, #7
ARM GAS  /tmp/ccIc9xCh.s 			page 23


 719 003c 7B61     		str	r3, [r7, #20]
 536:./Libraries/STM32F4xx_HAL_Driver/Src/stm32f4xx_hal_i2s.c **** 
 537:./Libraries/STM32F4xx_HAL_Driver/Src/stm32f4xx_hal_i2s.c ****     if((tmp1 == I2S_DATAFORMAT_24B) || (tmp1 == I2S_DATAFORMAT_32B))
 720              		.loc 1 537 7
 721 003e 7B69     		ldr	r3, [r7, #20]
 722 0040 032B     		cmp	r3, #3
 723 0042 02D0     		beq	.L39
 724              		.loc 1 537 37 discriminator 1
 725 0044 7B69     		ldr	r3, [r7, #20]
 726 0046 052B     		cmp	r3, #5
 727 0048 0AD1     		bne	.L40
 728              	.L39:
 538:./Libraries/STM32F4xx_HAL_Driver/Src/stm32f4xx_hal_i2s.c ****     {
 539:./Libraries/STM32F4xx_HAL_Driver/Src/stm32f4xx_hal_i2s.c ****       hi2s->TxXferSize  = (Size << 1U);
 729              		.loc 1 539 33
 730 004a FB88     		ldrh	r3, [r7, #6]	@ movhi
 731 004c 5B00     		lsls	r3, r3, #1
 732 004e 9AB2     		uxth	r2, r3
 733              		.loc 1 539 25
 734 0050 FB68     		ldr	r3, [r7, #12]
 735 0052 1A85     		strh	r2, [r3, #40]	@ movhi
 540:./Libraries/STM32F4xx_HAL_Driver/Src/stm32f4xx_hal_i2s.c ****       hi2s->TxXferCount = (Size << 1U);
 736              		.loc 1 540 33
 737 0054 FB88     		ldrh	r3, [r7, #6]	@ movhi
 738 0056 5B00     		lsls	r3, r3, #1
 739 0058 9AB2     		uxth	r2, r3
 740              		.loc 1 540 25
 741 005a FB68     		ldr	r3, [r7, #12]
 742 005c 5A85     		strh	r2, [r3, #42]	@ movhi
 743 005e 05E0     		b	.L41
 744              	.L40:
 541:./Libraries/STM32F4xx_HAL_Driver/Src/stm32f4xx_hal_i2s.c ****     }
 542:./Libraries/STM32F4xx_HAL_Driver/Src/stm32f4xx_hal_i2s.c ****     else
 543:./Libraries/STM32F4xx_HAL_Driver/Src/stm32f4xx_hal_i2s.c ****     {
 544:./Libraries/STM32F4xx_HAL_Driver/Src/stm32f4xx_hal_i2s.c ****       hi2s->TxXferSize  = Size;
 745              		.loc 1 544 25
 746 0060 FB68     		ldr	r3, [r7, #12]
 747 0062 FA88     		ldrh	r2, [r7, #6]	@ movhi
 748 0064 1A85     		strh	r2, [r3, #40]	@ movhi
 545:./Libraries/STM32F4xx_HAL_Driver/Src/stm32f4xx_hal_i2s.c ****       hi2s->TxXferCount = Size;
 749              		.loc 1 545 25
 750 0066 FB68     		ldr	r3, [r7, #12]
 751 0068 FA88     		ldrh	r2, [r7, #6]	@ movhi
 752 006a 5A85     		strh	r2, [r3, #42]	@ movhi
 753              	.L41:
 546:./Libraries/STM32F4xx_HAL_Driver/Src/stm32f4xx_hal_i2s.c ****     }
 547:./Libraries/STM32F4xx_HAL_Driver/Src/stm32f4xx_hal_i2s.c **** 
 548:./Libraries/STM32F4xx_HAL_Driver/Src/stm32f4xx_hal_i2s.c ****     /* Process Locked */
 549:./Libraries/STM32F4xx_HAL_Driver/Src/stm32f4xx_hal_i2s.c ****     __HAL_LOCK(hi2s);
 754              		.loc 1 549 5
 755 006c FB68     		ldr	r3, [r7, #12]
 756 006e 93F84030 		ldrb	r3, [r3, #64]
 757 0072 DBB2     		uxtb	r3, r3
 758 0074 012B     		cmp	r3, #1
 759 0076 01D1     		bne	.L42
 760              		.loc 1 549 5 is_stmt 0 discriminator 1
 761 0078 0223     		movs	r3, #2
ARM GAS  /tmp/ccIc9xCh.s 			page 24


 762 007a 6EE0     		b	.L37
 763              	.L42:
 764              		.loc 1 549 5 discriminator 2
 765 007c FB68     		ldr	r3, [r7, #12]
 766 007e 0122     		movs	r2, #1
 767 0080 83F84020 		strb	r2, [r3, #64]
 550:./Libraries/STM32F4xx_HAL_Driver/Src/stm32f4xx_hal_i2s.c **** 
 551:./Libraries/STM32F4xx_HAL_Driver/Src/stm32f4xx_hal_i2s.c ****     hi2s->ErrorCode = HAL_I2S_ERROR_NONE;
 768              		.loc 1 551 21 is_stmt 1 discriminator 2
 769 0084 FB68     		ldr	r3, [r7, #12]
 770 0086 0022     		movs	r2, #0
 771 0088 5A64     		str	r2, [r3, #68]
 552:./Libraries/STM32F4xx_HAL_Driver/Src/stm32f4xx_hal_i2s.c ****     hi2s->State     = HAL_I2S_STATE_BUSY_TX;
 772              		.loc 1 552 21 discriminator 2
 773 008a FB68     		ldr	r3, [r7, #12]
 774 008c 0322     		movs	r2, #3
 775 008e 83F84120 		strb	r2, [r3, #65]
 553:./Libraries/STM32F4xx_HAL_Driver/Src/stm32f4xx_hal_i2s.c **** 
 554:./Libraries/STM32F4xx_HAL_Driver/Src/stm32f4xx_hal_i2s.c ****     /* Check if the I2S is already enabled */
 555:./Libraries/STM32F4xx_HAL_Driver/Src/stm32f4xx_hal_i2s.c ****     if((hi2s->Instance->I2SCFGR &SPI_I2SCFGR_I2SE) != SPI_I2SCFGR_I2SE)
 776              		.loc 1 555 13 discriminator 2
 777 0092 FB68     		ldr	r3, [r7, #12]
 778 0094 1B68     		ldr	r3, [r3]
 779              		.loc 1 555 23 discriminator 2
 780 0096 DB69     		ldr	r3, [r3, #28]
 781              		.loc 1 555 33 discriminator 2
 782 0098 03F48063 		and	r3, r3, #1024
 783              		.loc 1 555 7 discriminator 2
 784 009c B3F5806F 		cmp	r3, #1024
 785 00a0 4BD0     		beq	.L44
 556:./Libraries/STM32F4xx_HAL_Driver/Src/stm32f4xx_hal_i2s.c ****     {
 557:./Libraries/STM32F4xx_HAL_Driver/Src/stm32f4xx_hal_i2s.c ****       /* Enable I2S peripheral */
 558:./Libraries/STM32F4xx_HAL_Driver/Src/stm32f4xx_hal_i2s.c ****       __HAL_I2S_ENABLE(hi2s);
 786              		.loc 1 558 7
 787 00a2 FB68     		ldr	r3, [r7, #12]
 788 00a4 1B68     		ldr	r3, [r3]
 789 00a6 DA69     		ldr	r2, [r3, #28]
 790 00a8 FB68     		ldr	r3, [r7, #12]
 791 00aa 1B68     		ldr	r3, [r3]
 792 00ac 42F48062 		orr	r2, r2, #1024
 793 00b0 DA61     		str	r2, [r3, #28]
 559:./Libraries/STM32F4xx_HAL_Driver/Src/stm32f4xx_hal_i2s.c ****     }
 560:./Libraries/STM32F4xx_HAL_Driver/Src/stm32f4xx_hal_i2s.c **** 
 561:./Libraries/STM32F4xx_HAL_Driver/Src/stm32f4xx_hal_i2s.c ****     while(hi2s->TxXferCount > 0U)
 794              		.loc 1 561 10
 795 00b2 42E0     		b	.L44
 796              	.L46:
 562:./Libraries/STM32F4xx_HAL_Driver/Src/stm32f4xx_hal_i2s.c ****     {
 563:./Libraries/STM32F4xx_HAL_Driver/Src/stm32f4xx_hal_i2s.c ****       hi2s->Instance->DR = (*pData++);
 797              		.loc 1 563 35
 798 00b4 BB68     		ldr	r3, [r7, #8]
 799 00b6 9A1C     		adds	r2, r3, #2
 800 00b8 BA60     		str	r2, [r7, #8]
 801              		.loc 1 563 29
 802 00ba 1A88     		ldrh	r2, [r3]
 803              		.loc 1 563 11
 804 00bc FB68     		ldr	r3, [r7, #12]
ARM GAS  /tmp/ccIc9xCh.s 			page 25


 805 00be 1B68     		ldr	r3, [r3]
 806              		.loc 1 563 26
 807 00c0 DA60     		str	r2, [r3, #12]
 564:./Libraries/STM32F4xx_HAL_Driver/Src/stm32f4xx_hal_i2s.c ****       hi2s->TxXferCount--;
 808              		.loc 1 564 11
 809 00c2 FB68     		ldr	r3, [r7, #12]
 810 00c4 5B8D     		ldrh	r3, [r3, #42]	@ movhi
 811 00c6 9BB2     		uxth	r3, r3
 812              		.loc 1 564 24
 813 00c8 013B     		subs	r3, r3, #1
 814 00ca 9AB2     		uxth	r2, r3
 815 00cc FB68     		ldr	r3, [r7, #12]
 816 00ce 5A85     		strh	r2, [r3, #42]	@ movhi
 565:./Libraries/STM32F4xx_HAL_Driver/Src/stm32f4xx_hal_i2s.c **** 
 566:./Libraries/STM32F4xx_HAL_Driver/Src/stm32f4xx_hal_i2s.c ****       /* Wait until TXE flag is set */
 567:./Libraries/STM32F4xx_HAL_Driver/Src/stm32f4xx_hal_i2s.c ****       if (I2S_WaitFlagStateUntilTimeout(hi2s, I2S_FLAG_TXE, SET, Timeout) != HAL_OK)
 817              		.loc 1 567 11
 818 00d0 3B68     		ldr	r3, [r7]
 819 00d2 0122     		movs	r2, #1
 820 00d4 0221     		movs	r1, #2
 821 00d6 F868     		ldr	r0, [r7, #12]
 822 00d8 FFF7FEFF 		bl	I2S_WaitFlagStateUntilTimeout
 823 00dc 0346     		mov	r3, r0
 824              		.loc 1 567 10
 825 00de 002B     		cmp	r3, #0
 826 00e0 0AD0     		beq	.L45
 568:./Libraries/STM32F4xx_HAL_Driver/Src/stm32f4xx_hal_i2s.c ****       {
 569:./Libraries/STM32F4xx_HAL_Driver/Src/stm32f4xx_hal_i2s.c ****         /* Set the error code and execute error callback*/
 570:./Libraries/STM32F4xx_HAL_Driver/Src/stm32f4xx_hal_i2s.c ****         SET_BIT(hi2s->ErrorCode, HAL_I2S_ERROR_TIMEOUT);
 827              		.loc 1 570 9
 828 00e2 FB68     		ldr	r3, [r7, #12]
 829 00e4 5B6C     		ldr	r3, [r3, #68]
 830 00e6 43F00102 		orr	r2, r3, #1
 831 00ea FB68     		ldr	r3, [r7, #12]
 832 00ec 5A64     		str	r2, [r3, #68]
 571:./Libraries/STM32F4xx_HAL_Driver/Src/stm32f4xx_hal_i2s.c ****         HAL_I2S_ErrorCallback(hi2s);
 833              		.loc 1 571 9
 834 00ee F868     		ldr	r0, [r7, #12]
 835 00f0 FFF7FEFF 		bl	HAL_I2S_ErrorCallback
 572:./Libraries/STM32F4xx_HAL_Driver/Src/stm32f4xx_hal_i2s.c ****         return HAL_TIMEOUT;
 836              		.loc 1 572 16
 837 00f4 0323     		movs	r3, #3
 838 00f6 30E0     		b	.L37
 839              	.L45:
 573:./Libraries/STM32F4xx_HAL_Driver/Src/stm32f4xx_hal_i2s.c ****       }
 574:./Libraries/STM32F4xx_HAL_Driver/Src/stm32f4xx_hal_i2s.c **** 
 575:./Libraries/STM32F4xx_HAL_Driver/Src/stm32f4xx_hal_i2s.c ****       /* Check if an underrun occurs */
 576:./Libraries/STM32F4xx_HAL_Driver/Src/stm32f4xx_hal_i2s.c ****       if(__HAL_I2S_GET_FLAG(hi2s, I2S_FLAG_UDR) == SET)
 840              		.loc 1 576 10
 841 00f8 FB68     		ldr	r3, [r7, #12]
 842 00fa 1B68     		ldr	r3, [r3]
 843 00fc 9B68     		ldr	r3, [r3, #8]
 844 00fe 03F00803 		and	r3, r3, #8
 845              		.loc 1 576 9
 846 0102 082B     		cmp	r3, #8
 847 0104 19D1     		bne	.L44
 848              	.LBB2:
ARM GAS  /tmp/ccIc9xCh.s 			page 26


 577:./Libraries/STM32F4xx_HAL_Driver/Src/stm32f4xx_hal_i2s.c ****       {
 578:./Libraries/STM32F4xx_HAL_Driver/Src/stm32f4xx_hal_i2s.c ****         /* Clear underrun flag */
 579:./Libraries/STM32F4xx_HAL_Driver/Src/stm32f4xx_hal_i2s.c ****         __HAL_I2S_CLEAR_UDRFLAG(hi2s);
 849              		.loc 1 579 9
 850 0106 0023     		movs	r3, #0
 851 0108 3B61     		str	r3, [r7, #16]
 852 010a FB68     		ldr	r3, [r7, #12]
 853 010c 1B68     		ldr	r3, [r3]
 854 010e 9B68     		ldr	r3, [r3, #8]
 855 0110 3B61     		str	r3, [r7, #16]
 856 0112 3B69     		ldr	r3, [r7, #16]
 857              	.LBE2:
 580:./Libraries/STM32F4xx_HAL_Driver/Src/stm32f4xx_hal_i2s.c ****         /* Set the I2S State ready */
 581:./Libraries/STM32F4xx_HAL_Driver/Src/stm32f4xx_hal_i2s.c ****         hi2s->State = HAL_I2S_STATE_READY;
 858              		.loc 1 581 21
 859 0114 FB68     		ldr	r3, [r7, #12]
 860 0116 0122     		movs	r2, #1
 861 0118 83F84120 		strb	r2, [r3, #65]
 582:./Libraries/STM32F4xx_HAL_Driver/Src/stm32f4xx_hal_i2s.c **** 
 583:./Libraries/STM32F4xx_HAL_Driver/Src/stm32f4xx_hal_i2s.c ****         /* Process Unlocked */
 584:./Libraries/STM32F4xx_HAL_Driver/Src/stm32f4xx_hal_i2s.c ****         __HAL_UNLOCK(hi2s);
 862              		.loc 1 584 9
 863 011c FB68     		ldr	r3, [r7, #12]
 864 011e 0022     		movs	r2, #0
 865 0120 83F84020 		strb	r2, [r3, #64]
 585:./Libraries/STM32F4xx_HAL_Driver/Src/stm32f4xx_hal_i2s.c **** 
 586:./Libraries/STM32F4xx_HAL_Driver/Src/stm32f4xx_hal_i2s.c ****         /* Set the error code and execute error callback*/
 587:./Libraries/STM32F4xx_HAL_Driver/Src/stm32f4xx_hal_i2s.c ****         SET_BIT(hi2s->ErrorCode, HAL_I2S_ERROR_UDR);
 866              		.loc 1 587 9
 867 0124 FB68     		ldr	r3, [r7, #12]
 868 0126 5B6C     		ldr	r3, [r3, #68]
 869 0128 43F00402 		orr	r2, r3, #4
 870 012c FB68     		ldr	r3, [r7, #12]
 871 012e 5A64     		str	r2, [r3, #68]
 588:./Libraries/STM32F4xx_HAL_Driver/Src/stm32f4xx_hal_i2s.c ****         HAL_I2S_ErrorCallback(hi2s);
 872              		.loc 1 588 9
 873 0130 F868     		ldr	r0, [r7, #12]
 874 0132 FFF7FEFF 		bl	HAL_I2S_ErrorCallback
 589:./Libraries/STM32F4xx_HAL_Driver/Src/stm32f4xx_hal_i2s.c **** 
 590:./Libraries/STM32F4xx_HAL_Driver/Src/stm32f4xx_hal_i2s.c ****         return HAL_ERROR;
 875              		.loc 1 590 16
 876 0136 0123     		movs	r3, #1
 877 0138 0FE0     		b	.L37
 878              	.L44:
 561:./Libraries/STM32F4xx_HAL_Driver/Src/stm32f4xx_hal_i2s.c ****     {
 879              		.loc 1 561 15
 880 013a FB68     		ldr	r3, [r7, #12]
 881 013c 5B8D     		ldrh	r3, [r3, #42]	@ movhi
 882 013e 9BB2     		uxth	r3, r3
 561:./Libraries/STM32F4xx_HAL_Driver/Src/stm32f4xx_hal_i2s.c ****     {
 883              		.loc 1 561 10
 884 0140 002B     		cmp	r3, #0
 885 0142 B7D1     		bne	.L46
 591:./Libraries/STM32F4xx_HAL_Driver/Src/stm32f4xx_hal_i2s.c ****       }
 592:./Libraries/STM32F4xx_HAL_Driver/Src/stm32f4xx_hal_i2s.c ****     }
 593:./Libraries/STM32F4xx_HAL_Driver/Src/stm32f4xx_hal_i2s.c ****     hi2s->State = HAL_I2S_STATE_READY;
 886              		.loc 1 593 17
ARM GAS  /tmp/ccIc9xCh.s 			page 27


 887 0144 FB68     		ldr	r3, [r7, #12]
 888 0146 0122     		movs	r2, #1
 889 0148 83F84120 		strb	r2, [r3, #65]
 594:./Libraries/STM32F4xx_HAL_Driver/Src/stm32f4xx_hal_i2s.c **** 
 595:./Libraries/STM32F4xx_HAL_Driver/Src/stm32f4xx_hal_i2s.c ****     /* Process Unlocked */
 596:./Libraries/STM32F4xx_HAL_Driver/Src/stm32f4xx_hal_i2s.c ****     __HAL_UNLOCK(hi2s);
 890              		.loc 1 596 5
 891 014c FB68     		ldr	r3, [r7, #12]
 892 014e 0022     		movs	r2, #0
 893 0150 83F84020 		strb	r2, [r3, #64]
 597:./Libraries/STM32F4xx_HAL_Driver/Src/stm32f4xx_hal_i2s.c **** 
 598:./Libraries/STM32F4xx_HAL_Driver/Src/stm32f4xx_hal_i2s.c ****     return HAL_OK;
 894              		.loc 1 598 12
 895 0154 0023     		movs	r3, #0
 896 0156 00E0     		b	.L37
 897              	.L38:
 599:./Libraries/STM32F4xx_HAL_Driver/Src/stm32f4xx_hal_i2s.c ****   }
 600:./Libraries/STM32F4xx_HAL_Driver/Src/stm32f4xx_hal_i2s.c ****   else
 601:./Libraries/STM32F4xx_HAL_Driver/Src/stm32f4xx_hal_i2s.c ****   {
 602:./Libraries/STM32F4xx_HAL_Driver/Src/stm32f4xx_hal_i2s.c ****     return HAL_BUSY;
 898              		.loc 1 602 12
 899 0158 0223     		movs	r3, #2
 900              	.L37:
 603:./Libraries/STM32F4xx_HAL_Driver/Src/stm32f4xx_hal_i2s.c ****   }
 604:./Libraries/STM32F4xx_HAL_Driver/Src/stm32f4xx_hal_i2s.c **** }
 901              		.loc 1 604 1
 902 015a 1846     		mov	r0, r3
 903 015c 1837     		adds	r7, r7, #24
 904              	.LCFI25:
 905              		.cfi_def_cfa_offset 8
 906 015e BD46     		mov	sp, r7
 907              	.LCFI26:
 908              		.cfi_def_cfa_register 13
 909              		@ sp needed
 910 0160 80BD     		pop	{r7, pc}
 911              		.cfi_endproc
 912              	.LFE130:
 914              		.section	.text.HAL_I2S_Receive,"ax",%progbits
 915              		.align	1
 916              		.global	HAL_I2S_Receive
 917              		.syntax unified
 918              		.thumb
 919              		.thumb_func
 920              		.fpu fpv4-sp-d16
 922              	HAL_I2S_Receive:
 923              	.LFB131:
 605:./Libraries/STM32F4xx_HAL_Driver/Src/stm32f4xx_hal_i2s.c **** 
 606:./Libraries/STM32F4xx_HAL_Driver/Src/stm32f4xx_hal_i2s.c **** /**
 607:./Libraries/STM32F4xx_HAL_Driver/Src/stm32f4xx_hal_i2s.c ****   * @brief Receive an amount of data in blocking mode
 608:./Libraries/STM32F4xx_HAL_Driver/Src/stm32f4xx_hal_i2s.c ****   * @param  hi2s pointer to a I2S_HandleTypeDef structure that contains
 609:./Libraries/STM32F4xx_HAL_Driver/Src/stm32f4xx_hal_i2s.c ****   *         the configuration information for I2S module
 610:./Libraries/STM32F4xx_HAL_Driver/Src/stm32f4xx_hal_i2s.c ****   * @param pData a 16-bit pointer to data buffer
 611:./Libraries/STM32F4xx_HAL_Driver/Src/stm32f4xx_hal_i2s.c ****   * @param Size number of data sample to be sent:
 612:./Libraries/STM32F4xx_HAL_Driver/Src/stm32f4xx_hal_i2s.c ****   * @note When a 16-bit data frame or a 16-bit data frame extended is selected during the I2S
 613:./Libraries/STM32F4xx_HAL_Driver/Src/stm32f4xx_hal_i2s.c ****   *       configuration phase, the Size parameter means the number of 16-bit data length
 614:./Libraries/STM32F4xx_HAL_Driver/Src/stm32f4xx_hal_i2s.c ****   *       in the transaction and when a 24-bit data frame or a 32-bit data frame is selected
 615:./Libraries/STM32F4xx_HAL_Driver/Src/stm32f4xx_hal_i2s.c ****   *       the Size parameter means the number of 16-bit data length.
ARM GAS  /tmp/ccIc9xCh.s 			page 28


 616:./Libraries/STM32F4xx_HAL_Driver/Src/stm32f4xx_hal_i2s.c ****   * @param Timeout Timeout duration
 617:./Libraries/STM32F4xx_HAL_Driver/Src/stm32f4xx_hal_i2s.c ****   * @note The I2S is kept enabled at the end of transaction to avoid the clock de-synchronization
 618:./Libraries/STM32F4xx_HAL_Driver/Src/stm32f4xx_hal_i2s.c ****   *       between Master and Slave(example: audio streaming)
 619:./Libraries/STM32F4xx_HAL_Driver/Src/stm32f4xx_hal_i2s.c ****   * @note In I2S Master Receiver mode, just after enabling the peripheral the clock will be generat
 620:./Libraries/STM32F4xx_HAL_Driver/Src/stm32f4xx_hal_i2s.c ****   *       in continuous way and as the I2S is not disabled at the end of the I2S transaction
 621:./Libraries/STM32F4xx_HAL_Driver/Src/stm32f4xx_hal_i2s.c ****   * @retval HAL status
 622:./Libraries/STM32F4xx_HAL_Driver/Src/stm32f4xx_hal_i2s.c ****   */
 623:./Libraries/STM32F4xx_HAL_Driver/Src/stm32f4xx_hal_i2s.c **** HAL_StatusTypeDef HAL_I2S_Receive(I2S_HandleTypeDef *hi2s, uint16_t *pData, uint16_t Size, uint32_t
 624:./Libraries/STM32F4xx_HAL_Driver/Src/stm32f4xx_hal_i2s.c **** {
 924              		.loc 1 624 1
 925              		.cfi_startproc
 926              		@ args = 0, pretend = 0, frame = 32
 927              		@ frame_needed = 1, uses_anonymous_args = 0
 928 0000 80B5     		push	{r7, lr}
 929              	.LCFI27:
 930              		.cfi_def_cfa_offset 8
 931              		.cfi_offset 7, -8
 932              		.cfi_offset 14, -4
 933 0002 88B0     		sub	sp, sp, #32
 934              	.LCFI28:
 935              		.cfi_def_cfa_offset 40
 936 0004 00AF     		add	r7, sp, #0
 937              	.LCFI29:
 938              		.cfi_def_cfa_register 7
 939 0006 F860     		str	r0, [r7, #12]
 940 0008 B960     		str	r1, [r7, #8]
 941 000a 3B60     		str	r3, [r7]
 942 000c 1346     		mov	r3, r2	@ movhi
 943 000e FB80     		strh	r3, [r7, #6]	@ movhi
 625:./Libraries/STM32F4xx_HAL_Driver/Src/stm32f4xx_hal_i2s.c ****   uint32_t tmp1 = 0U;
 944              		.loc 1 625 12
 945 0010 0023     		movs	r3, #0
 946 0012 FB61     		str	r3, [r7, #28]
 626:./Libraries/STM32F4xx_HAL_Driver/Src/stm32f4xx_hal_i2s.c **** 
 627:./Libraries/STM32F4xx_HAL_Driver/Src/stm32f4xx_hal_i2s.c ****   if((pData == NULL ) || (Size == 0U))
 947              		.loc 1 627 5
 948 0014 BB68     		ldr	r3, [r7, #8]
 949 0016 002B     		cmp	r3, #0
 950 0018 02D0     		beq	.L48
 951              		.loc 1 627 23 discriminator 1
 952 001a FB88     		ldrh	r3, [r7, #6]
 953 001c 002B     		cmp	r3, #0
 954 001e 01D1     		bne	.L49
 955              	.L48:
 628:./Libraries/STM32F4xx_HAL_Driver/Src/stm32f4xx_hal_i2s.c ****   {
 629:./Libraries/STM32F4xx_HAL_Driver/Src/stm32f4xx_hal_i2s.c ****     return  HAL_ERROR;
 956              		.loc 1 629 13
 957 0020 0123     		movs	r3, #1
 958 0022 B2E0     		b	.L50
 959              	.L49:
 630:./Libraries/STM32F4xx_HAL_Driver/Src/stm32f4xx_hal_i2s.c ****   }
 631:./Libraries/STM32F4xx_HAL_Driver/Src/stm32f4xx_hal_i2s.c **** 
 632:./Libraries/STM32F4xx_HAL_Driver/Src/stm32f4xx_hal_i2s.c ****   if(hi2s->State == HAL_I2S_STATE_READY)
 960              		.loc 1 632 10
 961 0024 FB68     		ldr	r3, [r7, #12]
 962 0026 93F84130 		ldrb	r3, [r3, #65]
 963 002a DBB2     		uxtb	r3, r3
ARM GAS  /tmp/ccIc9xCh.s 			page 29


 964              		.loc 1 632 5
 965 002c 012B     		cmp	r3, #1
 966 002e 40F0AB80 		bne	.L51
 633:./Libraries/STM32F4xx_HAL_Driver/Src/stm32f4xx_hal_i2s.c ****   {
 634:./Libraries/STM32F4xx_HAL_Driver/Src/stm32f4xx_hal_i2s.c ****     tmp1 = hi2s->Instance->I2SCFGR & (SPI_I2SCFGR_DATLEN | SPI_I2SCFGR_CHLEN);
 967              		.loc 1 634 16
 968 0032 FB68     		ldr	r3, [r7, #12]
 969 0034 1B68     		ldr	r3, [r3]
 970              		.loc 1 634 26
 971 0036 DB69     		ldr	r3, [r3, #28]
 972              		.loc 1 634 10
 973 0038 03F00703 		and	r3, r3, #7
 974 003c FB61     		str	r3, [r7, #28]
 635:./Libraries/STM32F4xx_HAL_Driver/Src/stm32f4xx_hal_i2s.c ****     if((tmp1 == I2S_DATAFORMAT_24B) || (tmp1 == I2S_DATAFORMAT_32B))
 975              		.loc 1 635 7
 976 003e FB69     		ldr	r3, [r7, #28]
 977 0040 032B     		cmp	r3, #3
 978 0042 02D0     		beq	.L52
 979              		.loc 1 635 37 discriminator 1
 980 0044 FB69     		ldr	r3, [r7, #28]
 981 0046 052B     		cmp	r3, #5
 982 0048 0AD1     		bne	.L53
 983              	.L52:
 636:./Libraries/STM32F4xx_HAL_Driver/Src/stm32f4xx_hal_i2s.c ****     {
 637:./Libraries/STM32F4xx_HAL_Driver/Src/stm32f4xx_hal_i2s.c ****       hi2s->RxXferSize  = (Size << 1U);
 984              		.loc 1 637 33
 985 004a FB88     		ldrh	r3, [r7, #6]	@ movhi
 986 004c 5B00     		lsls	r3, r3, #1
 987 004e 9AB2     		uxth	r2, r3
 988              		.loc 1 637 25
 989 0050 FB68     		ldr	r3, [r7, #12]
 990 0052 1A86     		strh	r2, [r3, #48]	@ movhi
 638:./Libraries/STM32F4xx_HAL_Driver/Src/stm32f4xx_hal_i2s.c ****       hi2s->RxXferCount = (Size << 1U);
 991              		.loc 1 638 33
 992 0054 FB88     		ldrh	r3, [r7, #6]	@ movhi
 993 0056 5B00     		lsls	r3, r3, #1
 994 0058 9AB2     		uxth	r2, r3
 995              		.loc 1 638 25
 996 005a FB68     		ldr	r3, [r7, #12]
 997 005c 5A86     		strh	r2, [r3, #50]	@ movhi
 998 005e 05E0     		b	.L54
 999              	.L53:
 639:./Libraries/STM32F4xx_HAL_Driver/Src/stm32f4xx_hal_i2s.c ****     }
 640:./Libraries/STM32F4xx_HAL_Driver/Src/stm32f4xx_hal_i2s.c ****     else
 641:./Libraries/STM32F4xx_HAL_Driver/Src/stm32f4xx_hal_i2s.c ****     {
 642:./Libraries/STM32F4xx_HAL_Driver/Src/stm32f4xx_hal_i2s.c ****       hi2s->RxXferSize  = Size;
 1000              		.loc 1 642 25
 1001 0060 FB68     		ldr	r3, [r7, #12]
 1002 0062 FA88     		ldrh	r2, [r7, #6]	@ movhi
 1003 0064 1A86     		strh	r2, [r3, #48]	@ movhi
 643:./Libraries/STM32F4xx_HAL_Driver/Src/stm32f4xx_hal_i2s.c ****       hi2s->RxXferCount = Size;
 1004              		.loc 1 643 25
 1005 0066 FB68     		ldr	r3, [r7, #12]
 1006 0068 FA88     		ldrh	r2, [r7, #6]	@ movhi
 1007 006a 5A86     		strh	r2, [r3, #50]	@ movhi
 1008              	.L54:
 644:./Libraries/STM32F4xx_HAL_Driver/Src/stm32f4xx_hal_i2s.c ****     }
ARM GAS  /tmp/ccIc9xCh.s 			page 30


 645:./Libraries/STM32F4xx_HAL_Driver/Src/stm32f4xx_hal_i2s.c ****     /* Process Locked */
 646:./Libraries/STM32F4xx_HAL_Driver/Src/stm32f4xx_hal_i2s.c ****     __HAL_LOCK(hi2s);
 1009              		.loc 1 646 5
 1010 006c FB68     		ldr	r3, [r7, #12]
 1011 006e 93F84030 		ldrb	r3, [r3, #64]
 1012 0072 DBB2     		uxtb	r3, r3
 1013 0074 012B     		cmp	r3, #1
 1014 0076 01D1     		bne	.L55
 1015              		.loc 1 646 5 is_stmt 0 discriminator 1
 1016 0078 0223     		movs	r3, #2
 1017 007a 86E0     		b	.L50
 1018              	.L55:
 1019              		.loc 1 646 5 discriminator 2
 1020 007c FB68     		ldr	r3, [r7, #12]
 1021 007e 0122     		movs	r2, #1
 1022 0080 83F84020 		strb	r2, [r3, #64]
 647:./Libraries/STM32F4xx_HAL_Driver/Src/stm32f4xx_hal_i2s.c **** 
 648:./Libraries/STM32F4xx_HAL_Driver/Src/stm32f4xx_hal_i2s.c ****     hi2s->ErrorCode = HAL_I2S_ERROR_NONE;
 1023              		.loc 1 648 21 is_stmt 1 discriminator 2
 1024 0084 FB68     		ldr	r3, [r7, #12]
 1025 0086 0022     		movs	r2, #0
 1026 0088 5A64     		str	r2, [r3, #68]
 649:./Libraries/STM32F4xx_HAL_Driver/Src/stm32f4xx_hal_i2s.c ****     hi2s->State     = HAL_I2S_STATE_BUSY_RX;
 1027              		.loc 1 649 21 discriminator 2
 1028 008a FB68     		ldr	r3, [r7, #12]
 1029 008c 0422     		movs	r2, #4
 1030 008e 83F84120 		strb	r2, [r3, #65]
 650:./Libraries/STM32F4xx_HAL_Driver/Src/stm32f4xx_hal_i2s.c **** 
 651:./Libraries/STM32F4xx_HAL_Driver/Src/stm32f4xx_hal_i2s.c ****     /* Check if the I2S is already enabled */
 652:./Libraries/STM32F4xx_HAL_Driver/Src/stm32f4xx_hal_i2s.c ****     if((hi2s->Instance->I2SCFGR & SPI_I2SCFGR_I2SE) != SPI_I2SCFGR_I2SE)
 1031              		.loc 1 652 13 discriminator 2
 1032 0092 FB68     		ldr	r3, [r7, #12]
 1033 0094 1B68     		ldr	r3, [r3]
 1034              		.loc 1 652 23 discriminator 2
 1035 0096 DB69     		ldr	r3, [r3, #28]
 1036              		.loc 1 652 33 discriminator 2
 1037 0098 03F48063 		and	r3, r3, #1024
 1038              		.loc 1 652 7 discriminator 2
 1039 009c B3F5806F 		cmp	r3, #1024
 1040 00a0 07D0     		beq	.L56
 653:./Libraries/STM32F4xx_HAL_Driver/Src/stm32f4xx_hal_i2s.c ****     {
 654:./Libraries/STM32F4xx_HAL_Driver/Src/stm32f4xx_hal_i2s.c ****       /* Enable I2S peripheral */
 655:./Libraries/STM32F4xx_HAL_Driver/Src/stm32f4xx_hal_i2s.c ****       __HAL_I2S_ENABLE(hi2s);
 1041              		.loc 1 655 7
 1042 00a2 FB68     		ldr	r3, [r7, #12]
 1043 00a4 1B68     		ldr	r3, [r3]
 1044 00a6 DA69     		ldr	r2, [r3, #28]
 1045 00a8 FB68     		ldr	r3, [r7, #12]
 1046 00aa 1B68     		ldr	r3, [r3]
 1047 00ac 42F48062 		orr	r2, r2, #1024
 1048 00b0 DA61     		str	r2, [r3, #28]
 1049              	.L56:
 656:./Libraries/STM32F4xx_HAL_Driver/Src/stm32f4xx_hal_i2s.c ****     }
 657:./Libraries/STM32F4xx_HAL_Driver/Src/stm32f4xx_hal_i2s.c **** 
 658:./Libraries/STM32F4xx_HAL_Driver/Src/stm32f4xx_hal_i2s.c ****     /* Check if Master Receiver mode is selected */
 659:./Libraries/STM32F4xx_HAL_Driver/Src/stm32f4xx_hal_i2s.c ****     if((hi2s->Instance->I2SCFGR & SPI_I2SCFGR_I2SCFG) == I2S_MODE_MASTER_RX)
 1050              		.loc 1 659 13
ARM GAS  /tmp/ccIc9xCh.s 			page 31


 1051 00b2 FB68     		ldr	r3, [r7, #12]
 1052 00b4 1B68     		ldr	r3, [r3]
 1053              		.loc 1 659 23
 1054 00b6 DB69     		ldr	r3, [r3, #28]
 1055              		.loc 1 659 33
 1056 00b8 03F44073 		and	r3, r3, #768
 1057              		.loc 1 659 7
 1058 00bc B3F5407F 		cmp	r3, #768
 1059 00c0 53D1     		bne	.L58
 1060              	.LBB3:
 660:./Libraries/STM32F4xx_HAL_Driver/Src/stm32f4xx_hal_i2s.c ****     {
 661:./Libraries/STM32F4xx_HAL_Driver/Src/stm32f4xx_hal_i2s.c ****       /* Clear the Overrun Flag by a read operation on the SPI_DR register followed by a read
 662:./Libraries/STM32F4xx_HAL_Driver/Src/stm32f4xx_hal_i2s.c ****       access to the SPI_SR register. */
 663:./Libraries/STM32F4xx_HAL_Driver/Src/stm32f4xx_hal_i2s.c ****       __HAL_I2S_CLEAR_OVRFLAG(hi2s);
 1061              		.loc 1 663 7
 1062 00c2 0023     		movs	r3, #0
 1063 00c4 BB61     		str	r3, [r7, #24]
 1064 00c6 FB68     		ldr	r3, [r7, #12]
 1065 00c8 1B68     		ldr	r3, [r3]
 1066 00ca DB68     		ldr	r3, [r3, #12]
 1067 00cc BB61     		str	r3, [r7, #24]
 1068 00ce FB68     		ldr	r3, [r7, #12]
 1069 00d0 1B68     		ldr	r3, [r3]
 1070 00d2 9B68     		ldr	r3, [r3, #8]
 1071 00d4 BB61     		str	r3, [r7, #24]
 1072 00d6 BB69     		ldr	r3, [r7, #24]
 1073              	.LBE3:
 664:./Libraries/STM32F4xx_HAL_Driver/Src/stm32f4xx_hal_i2s.c ****     }
 665:./Libraries/STM32F4xx_HAL_Driver/Src/stm32f4xx_hal_i2s.c **** 
 666:./Libraries/STM32F4xx_HAL_Driver/Src/stm32f4xx_hal_i2s.c ****     /* Receive data */
 667:./Libraries/STM32F4xx_HAL_Driver/Src/stm32f4xx_hal_i2s.c ****     while(hi2s->RxXferCount > 0U)
 1074              		.loc 1 667 10
 1075 00d8 47E0     		b	.L58
 1076              	.L61:
 668:./Libraries/STM32F4xx_HAL_Driver/Src/stm32f4xx_hal_i2s.c ****     {
 669:./Libraries/STM32F4xx_HAL_Driver/Src/stm32f4xx_hal_i2s.c ****       /* Wait until RXNE flag is set */
 670:./Libraries/STM32F4xx_HAL_Driver/Src/stm32f4xx_hal_i2s.c ****       if (I2S_WaitFlagStateUntilTimeout(hi2s, I2S_FLAG_RXNE, SET, Timeout) != HAL_OK)
 1077              		.loc 1 670 11
 1078 00da 3B68     		ldr	r3, [r7]
 1079 00dc 0122     		movs	r2, #1
 1080 00de 0121     		movs	r1, #1
 1081 00e0 F868     		ldr	r0, [r7, #12]
 1082 00e2 FFF7FEFF 		bl	I2S_WaitFlagStateUntilTimeout
 1083 00e6 0346     		mov	r3, r0
 1084              		.loc 1 670 10
 1085 00e8 002B     		cmp	r3, #0
 1086 00ea 0AD0     		beq	.L59
 671:./Libraries/STM32F4xx_HAL_Driver/Src/stm32f4xx_hal_i2s.c ****       {
 672:./Libraries/STM32F4xx_HAL_Driver/Src/stm32f4xx_hal_i2s.c ****         /* Set the error code and execute error callback*/
 673:./Libraries/STM32F4xx_HAL_Driver/Src/stm32f4xx_hal_i2s.c ****         SET_BIT(hi2s->ErrorCode,HAL_I2S_ERROR_TIMEOUT);
 1087              		.loc 1 673 9
 1088 00ec FB68     		ldr	r3, [r7, #12]
 1089 00ee 5B6C     		ldr	r3, [r3, #68]
 1090 00f0 43F00102 		orr	r2, r3, #1
 1091 00f4 FB68     		ldr	r3, [r7, #12]
 1092 00f6 5A64     		str	r2, [r3, #68]
 674:./Libraries/STM32F4xx_HAL_Driver/Src/stm32f4xx_hal_i2s.c ****         HAL_I2S_ErrorCallback(hi2s);
ARM GAS  /tmp/ccIc9xCh.s 			page 32


 1093              		.loc 1 674 9
 1094 00f8 F868     		ldr	r0, [r7, #12]
 1095 00fa FFF7FEFF 		bl	HAL_I2S_ErrorCallback
 675:./Libraries/STM32F4xx_HAL_Driver/Src/stm32f4xx_hal_i2s.c ****         return HAL_TIMEOUT;
 1096              		.loc 1 675 16
 1097 00fe 0323     		movs	r3, #3
 1098 0100 43E0     		b	.L50
 1099              	.L59:
 676:./Libraries/STM32F4xx_HAL_Driver/Src/stm32f4xx_hal_i2s.c ****       }
 677:./Libraries/STM32F4xx_HAL_Driver/Src/stm32f4xx_hal_i2s.c **** 
 678:./Libraries/STM32F4xx_HAL_Driver/Src/stm32f4xx_hal_i2s.c ****       /* Check if an overrun occurs */
 679:./Libraries/STM32F4xx_HAL_Driver/Src/stm32f4xx_hal_i2s.c ****       if(__HAL_I2S_GET_FLAG(hi2s, I2S_FLAG_OVR) == SET)
 1100              		.loc 1 679 10
 1101 0102 FB68     		ldr	r3, [r7, #12]
 1102 0104 1B68     		ldr	r3, [r3]
 1103 0106 9B68     		ldr	r3, [r3, #8]
 1104 0108 03F04003 		and	r3, r3, #64
 1105              		.loc 1 679 9
 1106 010c 402B     		cmp	r3, #64
 1107 010e 1DD1     		bne	.L60
 1108              	.LBB4:
 680:./Libraries/STM32F4xx_HAL_Driver/Src/stm32f4xx_hal_i2s.c ****       {
 681:./Libraries/STM32F4xx_HAL_Driver/Src/stm32f4xx_hal_i2s.c ****         /* Clear overrun flag */
 682:./Libraries/STM32F4xx_HAL_Driver/Src/stm32f4xx_hal_i2s.c ****         __HAL_I2S_CLEAR_OVRFLAG(hi2s);
 1109              		.loc 1 682 9
 1110 0110 0023     		movs	r3, #0
 1111 0112 7B61     		str	r3, [r7, #20]
 1112 0114 FB68     		ldr	r3, [r7, #12]
 1113 0116 1B68     		ldr	r3, [r3]
 1114 0118 DB68     		ldr	r3, [r3, #12]
 1115 011a 7B61     		str	r3, [r7, #20]
 1116 011c FB68     		ldr	r3, [r7, #12]
 1117 011e 1B68     		ldr	r3, [r3]
 1118 0120 9B68     		ldr	r3, [r3, #8]
 1119 0122 7B61     		str	r3, [r7, #20]
 1120 0124 7B69     		ldr	r3, [r7, #20]
 1121              	.LBE4:
 683:./Libraries/STM32F4xx_HAL_Driver/Src/stm32f4xx_hal_i2s.c **** 
 684:./Libraries/STM32F4xx_HAL_Driver/Src/stm32f4xx_hal_i2s.c ****         /* Set the I2S State ready */
 685:./Libraries/STM32F4xx_HAL_Driver/Src/stm32f4xx_hal_i2s.c ****         hi2s->State = HAL_I2S_STATE_READY;
 1122              		.loc 1 685 21
 1123 0126 FB68     		ldr	r3, [r7, #12]
 1124 0128 0122     		movs	r2, #1
 1125 012a 83F84120 		strb	r2, [r3, #65]
 686:./Libraries/STM32F4xx_HAL_Driver/Src/stm32f4xx_hal_i2s.c **** 
 687:./Libraries/STM32F4xx_HAL_Driver/Src/stm32f4xx_hal_i2s.c ****         /* Process Unlocked */
 688:./Libraries/STM32F4xx_HAL_Driver/Src/stm32f4xx_hal_i2s.c ****         __HAL_UNLOCK(hi2s);
 1126              		.loc 1 688 9
 1127 012e FB68     		ldr	r3, [r7, #12]
 1128 0130 0022     		movs	r2, #0
 1129 0132 83F84020 		strb	r2, [r3, #64]
 689:./Libraries/STM32F4xx_HAL_Driver/Src/stm32f4xx_hal_i2s.c **** 
 690:./Libraries/STM32F4xx_HAL_Driver/Src/stm32f4xx_hal_i2s.c ****         /* Set the error code and execute error callback*/
 691:./Libraries/STM32F4xx_HAL_Driver/Src/stm32f4xx_hal_i2s.c ****         SET_BIT(hi2s->ErrorCode, HAL_I2S_ERROR_OVR);
 1130              		.loc 1 691 9
 1131 0136 FB68     		ldr	r3, [r7, #12]
 1132 0138 5B6C     		ldr	r3, [r3, #68]
ARM GAS  /tmp/ccIc9xCh.s 			page 33


 1133 013a 43F00202 		orr	r2, r3, #2
 1134 013e FB68     		ldr	r3, [r7, #12]
 1135 0140 5A64     		str	r2, [r3, #68]
 692:./Libraries/STM32F4xx_HAL_Driver/Src/stm32f4xx_hal_i2s.c ****         HAL_I2S_ErrorCallback(hi2s);
 1136              		.loc 1 692 9
 1137 0142 F868     		ldr	r0, [r7, #12]
 1138 0144 FFF7FEFF 		bl	HAL_I2S_ErrorCallback
 693:./Libraries/STM32F4xx_HAL_Driver/Src/stm32f4xx_hal_i2s.c **** 
 694:./Libraries/STM32F4xx_HAL_Driver/Src/stm32f4xx_hal_i2s.c ****         return HAL_ERROR;
 1139              		.loc 1 694 16
 1140 0148 0123     		movs	r3, #1
 1141 014a 1EE0     		b	.L50
 1142              	.L60:
 695:./Libraries/STM32F4xx_HAL_Driver/Src/stm32f4xx_hal_i2s.c ****       }
 696:./Libraries/STM32F4xx_HAL_Driver/Src/stm32f4xx_hal_i2s.c **** 
 697:./Libraries/STM32F4xx_HAL_Driver/Src/stm32f4xx_hal_i2s.c ****       (*pData++) = hi2s->Instance->DR;
 1143              		.loc 1 697 24
 1144 014c FB68     		ldr	r3, [r7, #12]
 1145 014e 1B68     		ldr	r3, [r3]
 1146              		.loc 1 697 34
 1147 0150 D968     		ldr	r1, [r3, #12]
 1148              		.loc 1 697 14
 1149 0152 BB68     		ldr	r3, [r7, #8]
 1150 0154 9A1C     		adds	r2, r3, #2
 1151 0156 BA60     		str	r2, [r7, #8]
 1152              		.loc 1 697 18
 1153 0158 8AB2     		uxth	r2, r1
 1154 015a 1A80     		strh	r2, [r3]	@ movhi
 698:./Libraries/STM32F4xx_HAL_Driver/Src/stm32f4xx_hal_i2s.c ****       hi2s->RxXferCount--;
 1155              		.loc 1 698 11
 1156 015c FB68     		ldr	r3, [r7, #12]
 1157 015e 5B8E     		ldrh	r3, [r3, #50]	@ movhi
 1158 0160 9BB2     		uxth	r3, r3
 1159              		.loc 1 698 24
 1160 0162 013B     		subs	r3, r3, #1
 1161 0164 9AB2     		uxth	r2, r3
 1162 0166 FB68     		ldr	r3, [r7, #12]
 1163 0168 5A86     		strh	r2, [r3, #50]	@ movhi
 1164              	.L58:
 667:./Libraries/STM32F4xx_HAL_Driver/Src/stm32f4xx_hal_i2s.c ****     {
 1165              		.loc 1 667 15
 1166 016a FB68     		ldr	r3, [r7, #12]
 1167 016c 5B8E     		ldrh	r3, [r3, #50]	@ movhi
 1168 016e 9BB2     		uxth	r3, r3
 667:./Libraries/STM32F4xx_HAL_Driver/Src/stm32f4xx_hal_i2s.c ****     {
 1169              		.loc 1 667 10
 1170 0170 002B     		cmp	r3, #0
 1171 0172 B2D1     		bne	.L61
 699:./Libraries/STM32F4xx_HAL_Driver/Src/stm32f4xx_hal_i2s.c ****     }
 700:./Libraries/STM32F4xx_HAL_Driver/Src/stm32f4xx_hal_i2s.c **** 
 701:./Libraries/STM32F4xx_HAL_Driver/Src/stm32f4xx_hal_i2s.c ****     hi2s->State = HAL_I2S_STATE_READY;
 1172              		.loc 1 701 17
 1173 0174 FB68     		ldr	r3, [r7, #12]
 1174 0176 0122     		movs	r2, #1
 1175 0178 83F84120 		strb	r2, [r3, #65]
 702:./Libraries/STM32F4xx_HAL_Driver/Src/stm32f4xx_hal_i2s.c **** 
 703:./Libraries/STM32F4xx_HAL_Driver/Src/stm32f4xx_hal_i2s.c ****     /* Process Unlocked */
ARM GAS  /tmp/ccIc9xCh.s 			page 34


 704:./Libraries/STM32F4xx_HAL_Driver/Src/stm32f4xx_hal_i2s.c ****     __HAL_UNLOCK(hi2s);
 1176              		.loc 1 704 5
 1177 017c FB68     		ldr	r3, [r7, #12]
 1178 017e 0022     		movs	r2, #0
 1179 0180 83F84020 		strb	r2, [r3, #64]
 705:./Libraries/STM32F4xx_HAL_Driver/Src/stm32f4xx_hal_i2s.c **** 
 706:./Libraries/STM32F4xx_HAL_Driver/Src/stm32f4xx_hal_i2s.c ****     return HAL_OK;
 1180              		.loc 1 706 12
 1181 0184 0023     		movs	r3, #0
 1182 0186 00E0     		b	.L50
 1183              	.L51:
 707:./Libraries/STM32F4xx_HAL_Driver/Src/stm32f4xx_hal_i2s.c ****   }
 708:./Libraries/STM32F4xx_HAL_Driver/Src/stm32f4xx_hal_i2s.c ****   else
 709:./Libraries/STM32F4xx_HAL_Driver/Src/stm32f4xx_hal_i2s.c ****   {
 710:./Libraries/STM32F4xx_HAL_Driver/Src/stm32f4xx_hal_i2s.c ****     return HAL_BUSY;
 1184              		.loc 1 710 12
 1185 0188 0223     		movs	r3, #2
 1186              	.L50:
 711:./Libraries/STM32F4xx_HAL_Driver/Src/stm32f4xx_hal_i2s.c ****   }
 712:./Libraries/STM32F4xx_HAL_Driver/Src/stm32f4xx_hal_i2s.c **** }
 1187              		.loc 1 712 1
 1188 018a 1846     		mov	r0, r3
 1189 018c 2037     		adds	r7, r7, #32
 1190              	.LCFI30:
 1191              		.cfi_def_cfa_offset 8
 1192 018e BD46     		mov	sp, r7
 1193              	.LCFI31:
 1194              		.cfi_def_cfa_register 13
 1195              		@ sp needed
 1196 0190 80BD     		pop	{r7, pc}
 1197              		.cfi_endproc
 1198              	.LFE131:
 1200              		.section	.text.HAL_I2S_Transmit_IT,"ax",%progbits
 1201              		.align	1
 1202              		.global	HAL_I2S_Transmit_IT
 1203              		.syntax unified
 1204              		.thumb
 1205              		.thumb_func
 1206              		.fpu fpv4-sp-d16
 1208              	HAL_I2S_Transmit_IT:
 1209              	.LFB132:
 713:./Libraries/STM32F4xx_HAL_Driver/Src/stm32f4xx_hal_i2s.c **** 
 714:./Libraries/STM32F4xx_HAL_Driver/Src/stm32f4xx_hal_i2s.c **** /**
 715:./Libraries/STM32F4xx_HAL_Driver/Src/stm32f4xx_hal_i2s.c ****   * @brief Transmit an amount of data in non-blocking mode with Interrupt
 716:./Libraries/STM32F4xx_HAL_Driver/Src/stm32f4xx_hal_i2s.c ****   * @param  hi2s pointer to a I2S_HandleTypeDef structure that contains
 717:./Libraries/STM32F4xx_HAL_Driver/Src/stm32f4xx_hal_i2s.c ****   *         the configuration information for I2S module
 718:./Libraries/STM32F4xx_HAL_Driver/Src/stm32f4xx_hal_i2s.c ****   * @param pData a 16-bit pointer to data buffer.
 719:./Libraries/STM32F4xx_HAL_Driver/Src/stm32f4xx_hal_i2s.c ****   * @param Size number of data sample to be sent:
 720:./Libraries/STM32F4xx_HAL_Driver/Src/stm32f4xx_hal_i2s.c ****   * @note When a 16-bit data frame or a 16-bit data frame extended is selected during the I2S
 721:./Libraries/STM32F4xx_HAL_Driver/Src/stm32f4xx_hal_i2s.c ****   *       configuration phase, the Size parameter means the number of 16-bit data length
 722:./Libraries/STM32F4xx_HAL_Driver/Src/stm32f4xx_hal_i2s.c ****   *       in the transaction and when a 24-bit data frame or a 32-bit data frame is selected
 723:./Libraries/STM32F4xx_HAL_Driver/Src/stm32f4xx_hal_i2s.c ****   *       the Size parameter means the number of 16-bit data length.
 724:./Libraries/STM32F4xx_HAL_Driver/Src/stm32f4xx_hal_i2s.c ****   * @note The I2S is kept enabled at the end of transaction to avoid the clock de-synchronization
 725:./Libraries/STM32F4xx_HAL_Driver/Src/stm32f4xx_hal_i2s.c ****   *       between Master and Slave(example: audio streaming).
 726:./Libraries/STM32F4xx_HAL_Driver/Src/stm32f4xx_hal_i2s.c ****   * @retval HAL status
 727:./Libraries/STM32F4xx_HAL_Driver/Src/stm32f4xx_hal_i2s.c ****   */
 728:./Libraries/STM32F4xx_HAL_Driver/Src/stm32f4xx_hal_i2s.c **** HAL_StatusTypeDef HAL_I2S_Transmit_IT(I2S_HandleTypeDef *hi2s, uint16_t *pData, uint16_t Size)
ARM GAS  /tmp/ccIc9xCh.s 			page 35


 729:./Libraries/STM32F4xx_HAL_Driver/Src/stm32f4xx_hal_i2s.c **** {
 1210              		.loc 1 729 1
 1211              		.cfi_startproc
 1212              		@ args = 0, pretend = 0, frame = 24
 1213              		@ frame_needed = 1, uses_anonymous_args = 0
 1214              		@ link register save eliminated.
 1215 0000 80B4     		push	{r7}
 1216              	.LCFI32:
 1217              		.cfi_def_cfa_offset 4
 1218              		.cfi_offset 7, -4
 1219 0002 87B0     		sub	sp, sp, #28
 1220              	.LCFI33:
 1221              		.cfi_def_cfa_offset 32
 1222 0004 00AF     		add	r7, sp, #0
 1223              	.LCFI34:
 1224              		.cfi_def_cfa_register 7
 1225 0006 F860     		str	r0, [r7, #12]
 1226 0008 B960     		str	r1, [r7, #8]
 1227 000a 1346     		mov	r3, r2
 1228 000c FB80     		strh	r3, [r7, #6]	@ movhi
 730:./Libraries/STM32F4xx_HAL_Driver/Src/stm32f4xx_hal_i2s.c ****   uint32_t tmp1 = 0U;
 1229              		.loc 1 730 12
 1230 000e 0023     		movs	r3, #0
 1231 0010 7B61     		str	r3, [r7, #20]
 731:./Libraries/STM32F4xx_HAL_Driver/Src/stm32f4xx_hal_i2s.c **** 
 732:./Libraries/STM32F4xx_HAL_Driver/Src/stm32f4xx_hal_i2s.c ****   if(hi2s->State == HAL_I2S_STATE_READY)
 1232              		.loc 1 732 10
 1233 0012 FB68     		ldr	r3, [r7, #12]
 1234 0014 93F84130 		ldrb	r3, [r3, #65]
 1235 0018 DBB2     		uxtb	r3, r3
 1236              		.loc 1 732 5
 1237 001a 012B     		cmp	r3, #1
 1238 001c 58D1     		bne	.L63
 733:./Libraries/STM32F4xx_HAL_Driver/Src/stm32f4xx_hal_i2s.c ****   {
 734:./Libraries/STM32F4xx_HAL_Driver/Src/stm32f4xx_hal_i2s.c ****     if((pData == NULL) || (Size == 0U))
 1239              		.loc 1 734 7
 1240 001e BB68     		ldr	r3, [r7, #8]
 1241 0020 002B     		cmp	r3, #0
 1242 0022 02D0     		beq	.L64
 1243              		.loc 1 734 24 discriminator 1
 1244 0024 FB88     		ldrh	r3, [r7, #6]
 1245 0026 002B     		cmp	r3, #0
 1246 0028 01D1     		bne	.L65
 1247              	.L64:
 735:./Libraries/STM32F4xx_HAL_Driver/Src/stm32f4xx_hal_i2s.c ****     {
 736:./Libraries/STM32F4xx_HAL_Driver/Src/stm32f4xx_hal_i2s.c ****       return  HAL_ERROR;
 1248              		.loc 1 736 15
 1249 002a 0123     		movs	r3, #1
 1250 002c 51E0     		b	.L66
 1251              	.L65:
 737:./Libraries/STM32F4xx_HAL_Driver/Src/stm32f4xx_hal_i2s.c ****     }
 738:./Libraries/STM32F4xx_HAL_Driver/Src/stm32f4xx_hal_i2s.c **** 
 739:./Libraries/STM32F4xx_HAL_Driver/Src/stm32f4xx_hal_i2s.c ****     hi2s->pTxBuffPtr = pData;
 1252              		.loc 1 739 22
 1253 002e FB68     		ldr	r3, [r7, #12]
 1254 0030 BA68     		ldr	r2, [r7, #8]
 1255 0032 5A62     		str	r2, [r3, #36]
ARM GAS  /tmp/ccIc9xCh.s 			page 36


 740:./Libraries/STM32F4xx_HAL_Driver/Src/stm32f4xx_hal_i2s.c ****     tmp1 = hi2s->Instance->I2SCFGR & (SPI_I2SCFGR_DATLEN | SPI_I2SCFGR_CHLEN);
 1256              		.loc 1 740 16
 1257 0034 FB68     		ldr	r3, [r7, #12]
 1258 0036 1B68     		ldr	r3, [r3]
 1259              		.loc 1 740 26
 1260 0038 DB69     		ldr	r3, [r3, #28]
 1261              		.loc 1 740 10
 1262 003a 03F00703 		and	r3, r3, #7
 1263 003e 7B61     		str	r3, [r7, #20]
 741:./Libraries/STM32F4xx_HAL_Driver/Src/stm32f4xx_hal_i2s.c ****     if((tmp1 == I2S_DATAFORMAT_24B) || (tmp1 == I2S_DATAFORMAT_32B))
 1264              		.loc 1 741 7
 1265 0040 7B69     		ldr	r3, [r7, #20]
 1266 0042 032B     		cmp	r3, #3
 1267 0044 02D0     		beq	.L67
 1268              		.loc 1 741 37 discriminator 1
 1269 0046 7B69     		ldr	r3, [r7, #20]
 1270 0048 052B     		cmp	r3, #5
 1271 004a 0AD1     		bne	.L68
 1272              	.L67:
 742:./Libraries/STM32F4xx_HAL_Driver/Src/stm32f4xx_hal_i2s.c ****     {
 743:./Libraries/STM32F4xx_HAL_Driver/Src/stm32f4xx_hal_i2s.c ****       hi2s->TxXferSize  = (Size << 1U);
 1273              		.loc 1 743 33
 1274 004c FB88     		ldrh	r3, [r7, #6]	@ movhi
 1275 004e 5B00     		lsls	r3, r3, #1
 1276 0050 9AB2     		uxth	r2, r3
 1277              		.loc 1 743 25
 1278 0052 FB68     		ldr	r3, [r7, #12]
 1279 0054 1A85     		strh	r2, [r3, #40]	@ movhi
 744:./Libraries/STM32F4xx_HAL_Driver/Src/stm32f4xx_hal_i2s.c ****       hi2s->TxXferCount = (Size << 1U);
 1280              		.loc 1 744 33
 1281 0056 FB88     		ldrh	r3, [r7, #6]	@ movhi
 1282 0058 5B00     		lsls	r3, r3, #1
 1283 005a 9AB2     		uxth	r2, r3
 1284              		.loc 1 744 25
 1285 005c FB68     		ldr	r3, [r7, #12]
 1286 005e 5A85     		strh	r2, [r3, #42]	@ movhi
 1287 0060 05E0     		b	.L69
 1288              	.L68:
 745:./Libraries/STM32F4xx_HAL_Driver/Src/stm32f4xx_hal_i2s.c ****     }
 746:./Libraries/STM32F4xx_HAL_Driver/Src/stm32f4xx_hal_i2s.c ****     else
 747:./Libraries/STM32F4xx_HAL_Driver/Src/stm32f4xx_hal_i2s.c ****     {
 748:./Libraries/STM32F4xx_HAL_Driver/Src/stm32f4xx_hal_i2s.c ****       hi2s->TxXferSize  = Size;
 1289              		.loc 1 748 25
 1290 0062 FB68     		ldr	r3, [r7, #12]
 1291 0064 FA88     		ldrh	r2, [r7, #6]	@ movhi
 1292 0066 1A85     		strh	r2, [r3, #40]	@ movhi
 749:./Libraries/STM32F4xx_HAL_Driver/Src/stm32f4xx_hal_i2s.c ****       hi2s->TxXferCount = Size;
 1293              		.loc 1 749 25
 1294 0068 FB68     		ldr	r3, [r7, #12]
 1295 006a FA88     		ldrh	r2, [r7, #6]	@ movhi
 1296 006c 5A85     		strh	r2, [r3, #42]	@ movhi
 1297              	.L69:
 750:./Libraries/STM32F4xx_HAL_Driver/Src/stm32f4xx_hal_i2s.c ****     }
 751:./Libraries/STM32F4xx_HAL_Driver/Src/stm32f4xx_hal_i2s.c **** 
 752:./Libraries/STM32F4xx_HAL_Driver/Src/stm32f4xx_hal_i2s.c ****     /* Process Locked */
 753:./Libraries/STM32F4xx_HAL_Driver/Src/stm32f4xx_hal_i2s.c ****     __HAL_LOCK(hi2s);
 1298              		.loc 1 753 5
ARM GAS  /tmp/ccIc9xCh.s 			page 37


 1299 006e FB68     		ldr	r3, [r7, #12]
 1300 0070 93F84030 		ldrb	r3, [r3, #64]
 1301 0074 DBB2     		uxtb	r3, r3
 1302 0076 012B     		cmp	r3, #1
 1303 0078 01D1     		bne	.L70
 1304              		.loc 1 753 5 is_stmt 0 discriminator 1
 1305 007a 0223     		movs	r3, #2
 1306 007c 29E0     		b	.L66
 1307              	.L70:
 1308              		.loc 1 753 5 discriminator 2
 1309 007e FB68     		ldr	r3, [r7, #12]
 1310 0080 0122     		movs	r2, #1
 1311 0082 83F84020 		strb	r2, [r3, #64]
 754:./Libraries/STM32F4xx_HAL_Driver/Src/stm32f4xx_hal_i2s.c **** 
 755:./Libraries/STM32F4xx_HAL_Driver/Src/stm32f4xx_hal_i2s.c ****     hi2s->State     = HAL_I2S_STATE_BUSY_TX;
 1312              		.loc 1 755 21 is_stmt 1 discriminator 2
 1313 0086 FB68     		ldr	r3, [r7, #12]
 1314 0088 0322     		movs	r2, #3
 1315 008a 83F84120 		strb	r2, [r3, #65]
 756:./Libraries/STM32F4xx_HAL_Driver/Src/stm32f4xx_hal_i2s.c ****     hi2s->ErrorCode = HAL_I2S_ERROR_NONE;
 1316              		.loc 1 756 21 discriminator 2
 1317 008e FB68     		ldr	r3, [r7, #12]
 1318 0090 0022     		movs	r2, #0
 1319 0092 5A64     		str	r2, [r3, #68]
 757:./Libraries/STM32F4xx_HAL_Driver/Src/stm32f4xx_hal_i2s.c **** 
 758:./Libraries/STM32F4xx_HAL_Driver/Src/stm32f4xx_hal_i2s.c ****     /* Enable TXE and ERR interrupt */
 759:./Libraries/STM32F4xx_HAL_Driver/Src/stm32f4xx_hal_i2s.c ****     __HAL_I2S_ENABLE_IT(hi2s, (I2S_IT_TXE | I2S_IT_ERR));
 1320              		.loc 1 759 5 discriminator 2
 1321 0094 FB68     		ldr	r3, [r7, #12]
 1322 0096 1B68     		ldr	r3, [r3]
 1323 0098 5A68     		ldr	r2, [r3, #4]
 1324 009a FB68     		ldr	r3, [r7, #12]
 1325 009c 1B68     		ldr	r3, [r3]
 1326 009e 42F0A002 		orr	r2, r2, #160
 1327 00a2 5A60     		str	r2, [r3, #4]
 760:./Libraries/STM32F4xx_HAL_Driver/Src/stm32f4xx_hal_i2s.c **** 
 761:./Libraries/STM32F4xx_HAL_Driver/Src/stm32f4xx_hal_i2s.c ****     /* Check if the I2S is already enabled */
 762:./Libraries/STM32F4xx_HAL_Driver/Src/stm32f4xx_hal_i2s.c ****     if((hi2s->Instance->I2SCFGR &SPI_I2SCFGR_I2SE) != SPI_I2SCFGR_I2SE)
 1328              		.loc 1 762 13 discriminator 2
 1329 00a4 FB68     		ldr	r3, [r7, #12]
 1330 00a6 1B68     		ldr	r3, [r3]
 1331              		.loc 1 762 23 discriminator 2
 1332 00a8 DB69     		ldr	r3, [r3, #28]
 1333              		.loc 1 762 33 discriminator 2
 1334 00aa 03F48063 		and	r3, r3, #1024
 1335              		.loc 1 762 7 discriminator 2
 1336 00ae B3F5806F 		cmp	r3, #1024
 1337 00b2 07D0     		beq	.L71
 763:./Libraries/STM32F4xx_HAL_Driver/Src/stm32f4xx_hal_i2s.c ****     {
 764:./Libraries/STM32F4xx_HAL_Driver/Src/stm32f4xx_hal_i2s.c ****       /* Enable I2S peripheral */
 765:./Libraries/STM32F4xx_HAL_Driver/Src/stm32f4xx_hal_i2s.c ****       __HAL_I2S_ENABLE(hi2s);
 1338              		.loc 1 765 7
 1339 00b4 FB68     		ldr	r3, [r7, #12]
 1340 00b6 1B68     		ldr	r3, [r3]
 1341 00b8 DA69     		ldr	r2, [r3, #28]
 1342 00ba FB68     		ldr	r3, [r7, #12]
 1343 00bc 1B68     		ldr	r3, [r3]
ARM GAS  /tmp/ccIc9xCh.s 			page 38


 1344 00be 42F48062 		orr	r2, r2, #1024
 1345 00c2 DA61     		str	r2, [r3, #28]
 1346              	.L71:
 766:./Libraries/STM32F4xx_HAL_Driver/Src/stm32f4xx_hal_i2s.c ****     }
 767:./Libraries/STM32F4xx_HAL_Driver/Src/stm32f4xx_hal_i2s.c **** 
 768:./Libraries/STM32F4xx_HAL_Driver/Src/stm32f4xx_hal_i2s.c ****     /* Process Unlocked */
 769:./Libraries/STM32F4xx_HAL_Driver/Src/stm32f4xx_hal_i2s.c ****     __HAL_UNLOCK(hi2s);
 1347              		.loc 1 769 5
 1348 00c4 FB68     		ldr	r3, [r7, #12]
 1349 00c6 0022     		movs	r2, #0
 1350 00c8 83F84020 		strb	r2, [r3, #64]
 770:./Libraries/STM32F4xx_HAL_Driver/Src/stm32f4xx_hal_i2s.c **** 
 771:./Libraries/STM32F4xx_HAL_Driver/Src/stm32f4xx_hal_i2s.c ****     return HAL_OK;
 1351              		.loc 1 771 12
 1352 00cc 0023     		movs	r3, #0
 1353 00ce 00E0     		b	.L66
 1354              	.L63:
 772:./Libraries/STM32F4xx_HAL_Driver/Src/stm32f4xx_hal_i2s.c ****   }
 773:./Libraries/STM32F4xx_HAL_Driver/Src/stm32f4xx_hal_i2s.c ****   else
 774:./Libraries/STM32F4xx_HAL_Driver/Src/stm32f4xx_hal_i2s.c ****   {
 775:./Libraries/STM32F4xx_HAL_Driver/Src/stm32f4xx_hal_i2s.c ****     return HAL_BUSY;
 1355              		.loc 1 775 12
 1356 00d0 0223     		movs	r3, #2
 1357              	.L66:
 776:./Libraries/STM32F4xx_HAL_Driver/Src/stm32f4xx_hal_i2s.c ****   }
 777:./Libraries/STM32F4xx_HAL_Driver/Src/stm32f4xx_hal_i2s.c **** }
 1358              		.loc 1 777 1
 1359 00d2 1846     		mov	r0, r3
 1360 00d4 1C37     		adds	r7, r7, #28
 1361              	.LCFI35:
 1362              		.cfi_def_cfa_offset 4
 1363 00d6 BD46     		mov	sp, r7
 1364              	.LCFI36:
 1365              		.cfi_def_cfa_register 13
 1366              		@ sp needed
 1367 00d8 5DF8047B 		ldr	r7, [sp], #4
 1368              	.LCFI37:
 1369              		.cfi_restore 7
 1370              		.cfi_def_cfa_offset 0
 1371 00dc 7047     		bx	lr
 1372              		.cfi_endproc
 1373              	.LFE132:
 1375              		.section	.text.HAL_I2S_Receive_IT,"ax",%progbits
 1376              		.align	1
 1377              		.global	HAL_I2S_Receive_IT
 1378              		.syntax unified
 1379              		.thumb
 1380              		.thumb_func
 1381              		.fpu fpv4-sp-d16
 1383              	HAL_I2S_Receive_IT:
 1384              	.LFB133:
 778:./Libraries/STM32F4xx_HAL_Driver/Src/stm32f4xx_hal_i2s.c **** 
 779:./Libraries/STM32F4xx_HAL_Driver/Src/stm32f4xx_hal_i2s.c **** /**
 780:./Libraries/STM32F4xx_HAL_Driver/Src/stm32f4xx_hal_i2s.c ****   * @brief Receive an amount of data in non-blocking mode with Interrupt
 781:./Libraries/STM32F4xx_HAL_Driver/Src/stm32f4xx_hal_i2s.c ****   * @param  hi2s pointer to a I2S_HandleTypeDef structure that contains
 782:./Libraries/STM32F4xx_HAL_Driver/Src/stm32f4xx_hal_i2s.c ****   *         the configuration information for I2S module
 783:./Libraries/STM32F4xx_HAL_Driver/Src/stm32f4xx_hal_i2s.c ****   * @param pData a 16-bit pointer to the Receive data buffer.
ARM GAS  /tmp/ccIc9xCh.s 			page 39


 784:./Libraries/STM32F4xx_HAL_Driver/Src/stm32f4xx_hal_i2s.c ****   * @param Size number of data sample to be sent:
 785:./Libraries/STM32F4xx_HAL_Driver/Src/stm32f4xx_hal_i2s.c ****   * @note When a 16-bit data frame or a 16-bit data frame extended is selected during the I2S
 786:./Libraries/STM32F4xx_HAL_Driver/Src/stm32f4xx_hal_i2s.c ****   *       configuration phase, the Size parameter means the number of 16-bit data length
 787:./Libraries/STM32F4xx_HAL_Driver/Src/stm32f4xx_hal_i2s.c ****   *       in the transaction and when a 24-bit data frame or a 32-bit data frame is selected
 788:./Libraries/STM32F4xx_HAL_Driver/Src/stm32f4xx_hal_i2s.c ****   *       the Size parameter means the number of 16-bit data length.
 789:./Libraries/STM32F4xx_HAL_Driver/Src/stm32f4xx_hal_i2s.c ****   * @note The I2S is kept enabled at the end of transaction to avoid the clock de-synchronization
 790:./Libraries/STM32F4xx_HAL_Driver/Src/stm32f4xx_hal_i2s.c ****   *       between Master and Slave(example: audio streaming).
 791:./Libraries/STM32F4xx_HAL_Driver/Src/stm32f4xx_hal_i2s.c ****   * @note It is recommended to use DMA for the I2S receiver to avoid de-synchronisation
 792:./Libraries/STM32F4xx_HAL_Driver/Src/stm32f4xx_hal_i2s.c ****   * between Master and Slave otherwise the I2S interrupt should be optimized.
 793:./Libraries/STM32F4xx_HAL_Driver/Src/stm32f4xx_hal_i2s.c ****   * @retval HAL status
 794:./Libraries/STM32F4xx_HAL_Driver/Src/stm32f4xx_hal_i2s.c ****   */
 795:./Libraries/STM32F4xx_HAL_Driver/Src/stm32f4xx_hal_i2s.c **** HAL_StatusTypeDef HAL_I2S_Receive_IT(I2S_HandleTypeDef *hi2s, uint16_t *pData, uint16_t Size)
 796:./Libraries/STM32F4xx_HAL_Driver/Src/stm32f4xx_hal_i2s.c **** {
 1385              		.loc 1 796 1
 1386              		.cfi_startproc
 1387              		@ args = 0, pretend = 0, frame = 24
 1388              		@ frame_needed = 1, uses_anonymous_args = 0
 1389              		@ link register save eliminated.
 1390 0000 80B4     		push	{r7}
 1391              	.LCFI38:
 1392              		.cfi_def_cfa_offset 4
 1393              		.cfi_offset 7, -4
 1394 0002 87B0     		sub	sp, sp, #28
 1395              	.LCFI39:
 1396              		.cfi_def_cfa_offset 32
 1397 0004 00AF     		add	r7, sp, #0
 1398              	.LCFI40:
 1399              		.cfi_def_cfa_register 7
 1400 0006 F860     		str	r0, [r7, #12]
 1401 0008 B960     		str	r1, [r7, #8]
 1402 000a 1346     		mov	r3, r2
 1403 000c FB80     		strh	r3, [r7, #6]	@ movhi
 797:./Libraries/STM32F4xx_HAL_Driver/Src/stm32f4xx_hal_i2s.c ****   uint32_t tmp1 = 0U;
 1404              		.loc 1 797 12
 1405 000e 0023     		movs	r3, #0
 1406 0010 7B61     		str	r3, [r7, #20]
 798:./Libraries/STM32F4xx_HAL_Driver/Src/stm32f4xx_hal_i2s.c **** 
 799:./Libraries/STM32F4xx_HAL_Driver/Src/stm32f4xx_hal_i2s.c ****   if(hi2s->State == HAL_I2S_STATE_READY)
 1407              		.loc 1 799 10
 1408 0012 FB68     		ldr	r3, [r7, #12]
 1409 0014 93F84130 		ldrb	r3, [r3, #65]
 1410 0018 DBB2     		uxtb	r3, r3
 1411              		.loc 1 799 5
 1412 001a 012B     		cmp	r3, #1
 1413 001c 58D1     		bne	.L73
 800:./Libraries/STM32F4xx_HAL_Driver/Src/stm32f4xx_hal_i2s.c ****   {
 801:./Libraries/STM32F4xx_HAL_Driver/Src/stm32f4xx_hal_i2s.c ****     if((pData == NULL) || (Size == 0U))
 1414              		.loc 1 801 7
 1415 001e BB68     		ldr	r3, [r7, #8]
 1416 0020 002B     		cmp	r3, #0
 1417 0022 02D0     		beq	.L74
 1418              		.loc 1 801 24 discriminator 1
 1419 0024 FB88     		ldrh	r3, [r7, #6]
 1420 0026 002B     		cmp	r3, #0
 1421 0028 01D1     		bne	.L75
 1422              	.L74:
 802:./Libraries/STM32F4xx_HAL_Driver/Src/stm32f4xx_hal_i2s.c ****     {
ARM GAS  /tmp/ccIc9xCh.s 			page 40


 803:./Libraries/STM32F4xx_HAL_Driver/Src/stm32f4xx_hal_i2s.c ****       return  HAL_ERROR;
 1423              		.loc 1 803 15
 1424 002a 0123     		movs	r3, #1
 1425 002c 51E0     		b	.L76
 1426              	.L75:
 804:./Libraries/STM32F4xx_HAL_Driver/Src/stm32f4xx_hal_i2s.c ****     }
 805:./Libraries/STM32F4xx_HAL_Driver/Src/stm32f4xx_hal_i2s.c **** 
 806:./Libraries/STM32F4xx_HAL_Driver/Src/stm32f4xx_hal_i2s.c ****     hi2s->pRxBuffPtr = pData;
 1427              		.loc 1 806 22
 1428 002e FB68     		ldr	r3, [r7, #12]
 1429 0030 BA68     		ldr	r2, [r7, #8]
 1430 0032 DA62     		str	r2, [r3, #44]
 807:./Libraries/STM32F4xx_HAL_Driver/Src/stm32f4xx_hal_i2s.c ****     tmp1 = hi2s->Instance->I2SCFGR & (SPI_I2SCFGR_DATLEN | SPI_I2SCFGR_CHLEN);
 1431              		.loc 1 807 16
 1432 0034 FB68     		ldr	r3, [r7, #12]
 1433 0036 1B68     		ldr	r3, [r3]
 1434              		.loc 1 807 26
 1435 0038 DB69     		ldr	r3, [r3, #28]
 1436              		.loc 1 807 10
 1437 003a 03F00703 		and	r3, r3, #7
 1438 003e 7B61     		str	r3, [r7, #20]
 808:./Libraries/STM32F4xx_HAL_Driver/Src/stm32f4xx_hal_i2s.c ****     if((tmp1 == I2S_DATAFORMAT_24B) || (tmp1 == I2S_DATAFORMAT_32B))
 1439              		.loc 1 808 7
 1440 0040 7B69     		ldr	r3, [r7, #20]
 1441 0042 032B     		cmp	r3, #3
 1442 0044 02D0     		beq	.L77
 1443              		.loc 1 808 37 discriminator 1
 1444 0046 7B69     		ldr	r3, [r7, #20]
 1445 0048 052B     		cmp	r3, #5
 1446 004a 0AD1     		bne	.L78
 1447              	.L77:
 809:./Libraries/STM32F4xx_HAL_Driver/Src/stm32f4xx_hal_i2s.c ****     {
 810:./Libraries/STM32F4xx_HAL_Driver/Src/stm32f4xx_hal_i2s.c ****       hi2s->RxXferSize  = (Size << 1U);
 1448              		.loc 1 810 33
 1449 004c FB88     		ldrh	r3, [r7, #6]	@ movhi
 1450 004e 5B00     		lsls	r3, r3, #1
 1451 0050 9AB2     		uxth	r2, r3
 1452              		.loc 1 810 25
 1453 0052 FB68     		ldr	r3, [r7, #12]
 1454 0054 1A86     		strh	r2, [r3, #48]	@ movhi
 811:./Libraries/STM32F4xx_HAL_Driver/Src/stm32f4xx_hal_i2s.c ****       hi2s->RxXferCount = (Size << 1U);
 1455              		.loc 1 811 33
 1456 0056 FB88     		ldrh	r3, [r7, #6]	@ movhi
 1457 0058 5B00     		lsls	r3, r3, #1
 1458 005a 9AB2     		uxth	r2, r3
 1459              		.loc 1 811 25
 1460 005c FB68     		ldr	r3, [r7, #12]
 1461 005e 5A86     		strh	r2, [r3, #50]	@ movhi
 1462 0060 05E0     		b	.L79
 1463              	.L78:
 812:./Libraries/STM32F4xx_HAL_Driver/Src/stm32f4xx_hal_i2s.c ****     }
 813:./Libraries/STM32F4xx_HAL_Driver/Src/stm32f4xx_hal_i2s.c ****     else
 814:./Libraries/STM32F4xx_HAL_Driver/Src/stm32f4xx_hal_i2s.c ****     {
 815:./Libraries/STM32F4xx_HAL_Driver/Src/stm32f4xx_hal_i2s.c ****       hi2s->RxXferSize  = Size;
 1464              		.loc 1 815 25
 1465 0062 FB68     		ldr	r3, [r7, #12]
 1466 0064 FA88     		ldrh	r2, [r7, #6]	@ movhi
ARM GAS  /tmp/ccIc9xCh.s 			page 41


 1467 0066 1A86     		strh	r2, [r3, #48]	@ movhi
 816:./Libraries/STM32F4xx_HAL_Driver/Src/stm32f4xx_hal_i2s.c ****       hi2s->RxXferCount = Size;
 1468              		.loc 1 816 25
 1469 0068 FB68     		ldr	r3, [r7, #12]
 1470 006a FA88     		ldrh	r2, [r7, #6]	@ movhi
 1471 006c 5A86     		strh	r2, [r3, #50]	@ movhi
 1472              	.L79:
 817:./Libraries/STM32F4xx_HAL_Driver/Src/stm32f4xx_hal_i2s.c ****     }
 818:./Libraries/STM32F4xx_HAL_Driver/Src/stm32f4xx_hal_i2s.c ****     /* Process Locked */
 819:./Libraries/STM32F4xx_HAL_Driver/Src/stm32f4xx_hal_i2s.c ****     __HAL_LOCK(hi2s);
 1473              		.loc 1 819 5
 1474 006e FB68     		ldr	r3, [r7, #12]
 1475 0070 93F84030 		ldrb	r3, [r3, #64]
 1476 0074 DBB2     		uxtb	r3, r3
 1477 0076 012B     		cmp	r3, #1
 1478 0078 01D1     		bne	.L80
 1479              		.loc 1 819 5 is_stmt 0 discriminator 1
 1480 007a 0223     		movs	r3, #2
 1481 007c 29E0     		b	.L76
 1482              	.L80:
 1483              		.loc 1 819 5 discriminator 2
 1484 007e FB68     		ldr	r3, [r7, #12]
 1485 0080 0122     		movs	r2, #1
 1486 0082 83F84020 		strb	r2, [r3, #64]
 820:./Libraries/STM32F4xx_HAL_Driver/Src/stm32f4xx_hal_i2s.c **** 
 821:./Libraries/STM32F4xx_HAL_Driver/Src/stm32f4xx_hal_i2s.c ****     hi2s->State     = HAL_I2S_STATE_BUSY_RX;
 1487              		.loc 1 821 21 is_stmt 1 discriminator 2
 1488 0086 FB68     		ldr	r3, [r7, #12]
 1489 0088 0422     		movs	r2, #4
 1490 008a 83F84120 		strb	r2, [r3, #65]
 822:./Libraries/STM32F4xx_HAL_Driver/Src/stm32f4xx_hal_i2s.c ****     hi2s->ErrorCode = HAL_I2S_ERROR_NONE;
 1491              		.loc 1 822 21 discriminator 2
 1492 008e FB68     		ldr	r3, [r7, #12]
 1493 0090 0022     		movs	r2, #0
 1494 0092 5A64     		str	r2, [r3, #68]
 823:./Libraries/STM32F4xx_HAL_Driver/Src/stm32f4xx_hal_i2s.c **** 
 824:./Libraries/STM32F4xx_HAL_Driver/Src/stm32f4xx_hal_i2s.c ****     /* Enable TXE and ERR interrupt */
 825:./Libraries/STM32F4xx_HAL_Driver/Src/stm32f4xx_hal_i2s.c ****     __HAL_I2S_ENABLE_IT(hi2s, (I2S_IT_RXNE | I2S_IT_ERR));
 1495              		.loc 1 825 5 discriminator 2
 1496 0094 FB68     		ldr	r3, [r7, #12]
 1497 0096 1B68     		ldr	r3, [r3]
 1498 0098 5A68     		ldr	r2, [r3, #4]
 1499 009a FB68     		ldr	r3, [r7, #12]
 1500 009c 1B68     		ldr	r3, [r3]
 1501 009e 42F06002 		orr	r2, r2, #96
 1502 00a2 5A60     		str	r2, [r3, #4]
 826:./Libraries/STM32F4xx_HAL_Driver/Src/stm32f4xx_hal_i2s.c **** 
 827:./Libraries/STM32F4xx_HAL_Driver/Src/stm32f4xx_hal_i2s.c ****     /* Check if the I2S is already enabled */
 828:./Libraries/STM32F4xx_HAL_Driver/Src/stm32f4xx_hal_i2s.c ****     if((hi2s->Instance->I2SCFGR &SPI_I2SCFGR_I2SE) != SPI_I2SCFGR_I2SE)
 1503              		.loc 1 828 13 discriminator 2
 1504 00a4 FB68     		ldr	r3, [r7, #12]
 1505 00a6 1B68     		ldr	r3, [r3]
 1506              		.loc 1 828 23 discriminator 2
 1507 00a8 DB69     		ldr	r3, [r3, #28]
 1508              		.loc 1 828 33 discriminator 2
 1509 00aa 03F48063 		and	r3, r3, #1024
 1510              		.loc 1 828 7 discriminator 2
ARM GAS  /tmp/ccIc9xCh.s 			page 42


 1511 00ae B3F5806F 		cmp	r3, #1024
 1512 00b2 07D0     		beq	.L81
 829:./Libraries/STM32F4xx_HAL_Driver/Src/stm32f4xx_hal_i2s.c ****     {
 830:./Libraries/STM32F4xx_HAL_Driver/Src/stm32f4xx_hal_i2s.c ****       /* Enable I2S peripheral */
 831:./Libraries/STM32F4xx_HAL_Driver/Src/stm32f4xx_hal_i2s.c ****       __HAL_I2S_ENABLE(hi2s);
 1513              		.loc 1 831 7
 1514 00b4 FB68     		ldr	r3, [r7, #12]
 1515 00b6 1B68     		ldr	r3, [r3]
 1516 00b8 DA69     		ldr	r2, [r3, #28]
 1517 00ba FB68     		ldr	r3, [r7, #12]
 1518 00bc 1B68     		ldr	r3, [r3]
 1519 00be 42F48062 		orr	r2, r2, #1024
 1520 00c2 DA61     		str	r2, [r3, #28]
 1521              	.L81:
 832:./Libraries/STM32F4xx_HAL_Driver/Src/stm32f4xx_hal_i2s.c ****     }
 833:./Libraries/STM32F4xx_HAL_Driver/Src/stm32f4xx_hal_i2s.c **** 
 834:./Libraries/STM32F4xx_HAL_Driver/Src/stm32f4xx_hal_i2s.c ****     /* Process Unlocked */
 835:./Libraries/STM32F4xx_HAL_Driver/Src/stm32f4xx_hal_i2s.c ****     __HAL_UNLOCK(hi2s);
 1522              		.loc 1 835 5
 1523 00c4 FB68     		ldr	r3, [r7, #12]
 1524 00c6 0022     		movs	r2, #0
 1525 00c8 83F84020 		strb	r2, [r3, #64]
 836:./Libraries/STM32F4xx_HAL_Driver/Src/stm32f4xx_hal_i2s.c **** 
 837:./Libraries/STM32F4xx_HAL_Driver/Src/stm32f4xx_hal_i2s.c ****     return HAL_OK;
 1526              		.loc 1 837 12
 1527 00cc 0023     		movs	r3, #0
 1528 00ce 00E0     		b	.L76
 1529              	.L73:
 838:./Libraries/STM32F4xx_HAL_Driver/Src/stm32f4xx_hal_i2s.c ****   }
 839:./Libraries/STM32F4xx_HAL_Driver/Src/stm32f4xx_hal_i2s.c **** 
 840:./Libraries/STM32F4xx_HAL_Driver/Src/stm32f4xx_hal_i2s.c ****   else
 841:./Libraries/STM32F4xx_HAL_Driver/Src/stm32f4xx_hal_i2s.c ****   {
 842:./Libraries/STM32F4xx_HAL_Driver/Src/stm32f4xx_hal_i2s.c ****     return HAL_BUSY;
 1530              		.loc 1 842 12
 1531 00d0 0223     		movs	r3, #2
 1532              	.L76:
 843:./Libraries/STM32F4xx_HAL_Driver/Src/stm32f4xx_hal_i2s.c ****   }
 844:./Libraries/STM32F4xx_HAL_Driver/Src/stm32f4xx_hal_i2s.c **** }
 1533              		.loc 1 844 1
 1534 00d2 1846     		mov	r0, r3
 1535 00d4 1C37     		adds	r7, r7, #28
 1536              	.LCFI41:
 1537              		.cfi_def_cfa_offset 4
 1538 00d6 BD46     		mov	sp, r7
 1539              	.LCFI42:
 1540              		.cfi_def_cfa_register 13
 1541              		@ sp needed
 1542 00d8 5DF8047B 		ldr	r7, [sp], #4
 1543              	.LCFI43:
 1544              		.cfi_restore 7
 1545              		.cfi_def_cfa_offset 0
 1546 00dc 7047     		bx	lr
 1547              		.cfi_endproc
 1548              	.LFE133:
 1550              		.section	.text.HAL_I2S_Transmit_DMA,"ax",%progbits
 1551              		.align	1
 1552              		.global	HAL_I2S_Transmit_DMA
ARM GAS  /tmp/ccIc9xCh.s 			page 43


 1553              		.syntax unified
 1554              		.thumb
 1555              		.thumb_func
 1556              		.fpu fpv4-sp-d16
 1558              	HAL_I2S_Transmit_DMA:
 1559              	.LFB134:
 845:./Libraries/STM32F4xx_HAL_Driver/Src/stm32f4xx_hal_i2s.c **** 
 846:./Libraries/STM32F4xx_HAL_Driver/Src/stm32f4xx_hal_i2s.c **** /**
 847:./Libraries/STM32F4xx_HAL_Driver/Src/stm32f4xx_hal_i2s.c ****   * @brief Transmit an amount of data in non-blocking mode with DMA
 848:./Libraries/STM32F4xx_HAL_Driver/Src/stm32f4xx_hal_i2s.c ****   * @param  hi2s pointer to a I2S_HandleTypeDef structure that contains
 849:./Libraries/STM32F4xx_HAL_Driver/Src/stm32f4xx_hal_i2s.c ****   *         the configuration information for I2S module
 850:./Libraries/STM32F4xx_HAL_Driver/Src/stm32f4xx_hal_i2s.c ****   * @param pData a 16-bit pointer to the Transmit data buffer.
 851:./Libraries/STM32F4xx_HAL_Driver/Src/stm32f4xx_hal_i2s.c ****   * @param Size number of data sample to be sent:
 852:./Libraries/STM32F4xx_HAL_Driver/Src/stm32f4xx_hal_i2s.c ****   * @note When a 16-bit data frame or a 16-bit data frame extended is selected during the I2S
 853:./Libraries/STM32F4xx_HAL_Driver/Src/stm32f4xx_hal_i2s.c ****   *       configuration phase, the Size parameter means the number of 16-bit data length
 854:./Libraries/STM32F4xx_HAL_Driver/Src/stm32f4xx_hal_i2s.c ****   *       in the transaction and when a 24-bit data frame or a 32-bit data frame is selected
 855:./Libraries/STM32F4xx_HAL_Driver/Src/stm32f4xx_hal_i2s.c ****   *       the Size parameter means the number of 16-bit data length.
 856:./Libraries/STM32F4xx_HAL_Driver/Src/stm32f4xx_hal_i2s.c ****   * @note The I2S is kept enabled at the end of transaction to avoid the clock de-synchronization
 857:./Libraries/STM32F4xx_HAL_Driver/Src/stm32f4xx_hal_i2s.c ****   *       between Master and Slave(example: audio streaming).
 858:./Libraries/STM32F4xx_HAL_Driver/Src/stm32f4xx_hal_i2s.c ****   * @retval HAL status
 859:./Libraries/STM32F4xx_HAL_Driver/Src/stm32f4xx_hal_i2s.c ****   */
 860:./Libraries/STM32F4xx_HAL_Driver/Src/stm32f4xx_hal_i2s.c **** HAL_StatusTypeDef HAL_I2S_Transmit_DMA(I2S_HandleTypeDef *hi2s, uint16_t *pData, uint16_t Size)
 861:./Libraries/STM32F4xx_HAL_Driver/Src/stm32f4xx_hal_i2s.c **** {
 1560              		.loc 1 861 1
 1561              		.cfi_startproc
 1562              		@ args = 0, pretend = 0, frame = 24
 1563              		@ frame_needed = 1, uses_anonymous_args = 0
 1564 0000 80B5     		push	{r7, lr}
 1565              	.LCFI44:
 1566              		.cfi_def_cfa_offset 8
 1567              		.cfi_offset 7, -8
 1568              		.cfi_offset 14, -4
 1569 0002 86B0     		sub	sp, sp, #24
 1570              	.LCFI45:
 1571              		.cfi_def_cfa_offset 32
 1572 0004 00AF     		add	r7, sp, #0
 1573              	.LCFI46:
 1574              		.cfi_def_cfa_register 7
 1575 0006 F860     		str	r0, [r7, #12]
 1576 0008 B960     		str	r1, [r7, #8]
 1577 000a 1346     		mov	r3, r2
 1578 000c FB80     		strh	r3, [r7, #6]	@ movhi
 862:./Libraries/STM32F4xx_HAL_Driver/Src/stm32f4xx_hal_i2s.c ****   uint32_t *tmp = NULL;
 1579              		.loc 1 862 13
 1580 000e 0023     		movs	r3, #0
 1581 0010 7B61     		str	r3, [r7, #20]
 863:./Libraries/STM32F4xx_HAL_Driver/Src/stm32f4xx_hal_i2s.c ****   uint32_t tmp1 = 0U;
 1582              		.loc 1 863 12
 1583 0012 0023     		movs	r3, #0
 1584 0014 3B61     		str	r3, [r7, #16]
 864:./Libraries/STM32F4xx_HAL_Driver/Src/stm32f4xx_hal_i2s.c **** 
 865:./Libraries/STM32F4xx_HAL_Driver/Src/stm32f4xx_hal_i2s.c ****   if((pData == NULL) || (Size == 0U))
 1585              		.loc 1 865 13
 1586 0016 BB68     		ldr	r3, [r7, #8]
 1587              		.loc 1 865 5
 1588 0018 002B     		cmp	r3, #0
 1589 001a 02D0     		beq	.L83
ARM GAS  /tmp/ccIc9xCh.s 			page 44


 1590              		.loc 1 865 22 discriminator 1
 1591 001c FB88     		ldrh	r3, [r7, #6]
 1592 001e 002B     		cmp	r3, #0
 1593 0020 01D1     		bne	.L84
 1594              	.L83:
 866:./Libraries/STM32F4xx_HAL_Driver/Src/stm32f4xx_hal_i2s.c ****   {
 867:./Libraries/STM32F4xx_HAL_Driver/Src/stm32f4xx_hal_i2s.c ****     return  HAL_ERROR;
 1595              		.loc 1 867 13
 1596 0022 0123     		movs	r3, #1
 1597 0024 7AE0     		b	.L85
 1598              	.L84:
 868:./Libraries/STM32F4xx_HAL_Driver/Src/stm32f4xx_hal_i2s.c ****   }
 869:./Libraries/STM32F4xx_HAL_Driver/Src/stm32f4xx_hal_i2s.c **** 
 870:./Libraries/STM32F4xx_HAL_Driver/Src/stm32f4xx_hal_i2s.c ****   if(hi2s->State == HAL_I2S_STATE_READY)
 1599              		.loc 1 870 10
 1600 0026 FB68     		ldr	r3, [r7, #12]
 1601 0028 93F84130 		ldrb	r3, [r3, #65]
 1602 002c DBB2     		uxtb	r3, r3
 1603              		.loc 1 870 5
 1604 002e 012B     		cmp	r3, #1
 1605 0030 73D1     		bne	.L86
 871:./Libraries/STM32F4xx_HAL_Driver/Src/stm32f4xx_hal_i2s.c ****   {
 872:./Libraries/STM32F4xx_HAL_Driver/Src/stm32f4xx_hal_i2s.c ****     hi2s->pTxBuffPtr = pData;
 1606              		.loc 1 872 22
 1607 0032 BA68     		ldr	r2, [r7, #8]
 1608 0034 FB68     		ldr	r3, [r7, #12]
 1609 0036 5A62     		str	r2, [r3, #36]
 873:./Libraries/STM32F4xx_HAL_Driver/Src/stm32f4xx_hal_i2s.c ****     tmp1 = hi2s->Instance->I2SCFGR & (SPI_I2SCFGR_DATLEN | SPI_I2SCFGR_CHLEN);
 1610              		.loc 1 873 16
 1611 0038 FB68     		ldr	r3, [r7, #12]
 1612 003a 1B68     		ldr	r3, [r3]
 1613              		.loc 1 873 26
 1614 003c DB69     		ldr	r3, [r3, #28]
 1615              		.loc 1 873 10
 1616 003e 03F00703 		and	r3, r3, #7
 1617 0042 3B61     		str	r3, [r7, #16]
 874:./Libraries/STM32F4xx_HAL_Driver/Src/stm32f4xx_hal_i2s.c ****     if((tmp1 == I2S_DATAFORMAT_24B) || (tmp1 == I2S_DATAFORMAT_32B))
 1618              		.loc 1 874 7
 1619 0044 3B69     		ldr	r3, [r7, #16]
 1620 0046 032B     		cmp	r3, #3
 1621 0048 02D0     		beq	.L87
 1622              		.loc 1 874 37 discriminator 1
 1623 004a 3B69     		ldr	r3, [r7, #16]
 1624 004c 052B     		cmp	r3, #5
 1625 004e 0AD1     		bne	.L88
 1626              	.L87:
 875:./Libraries/STM32F4xx_HAL_Driver/Src/stm32f4xx_hal_i2s.c ****     {
 876:./Libraries/STM32F4xx_HAL_Driver/Src/stm32f4xx_hal_i2s.c ****       hi2s->TxXferSize  = (Size << 1U);
 1627              		.loc 1 876 33
 1628 0050 FB88     		ldrh	r3, [r7, #6]	@ movhi
 1629 0052 5B00     		lsls	r3, r3, #1
 1630 0054 9AB2     		uxth	r2, r3
 1631              		.loc 1 876 25
 1632 0056 FB68     		ldr	r3, [r7, #12]
 1633 0058 1A85     		strh	r2, [r3, #40]	@ movhi
 877:./Libraries/STM32F4xx_HAL_Driver/Src/stm32f4xx_hal_i2s.c ****       hi2s->TxXferCount = (Size << 1U);
 1634              		.loc 1 877 33
ARM GAS  /tmp/ccIc9xCh.s 			page 45


 1635 005a FB88     		ldrh	r3, [r7, #6]	@ movhi
 1636 005c 5B00     		lsls	r3, r3, #1
 1637 005e 9AB2     		uxth	r2, r3
 1638              		.loc 1 877 25
 1639 0060 FB68     		ldr	r3, [r7, #12]
 1640 0062 5A85     		strh	r2, [r3, #42]	@ movhi
 1641 0064 05E0     		b	.L89
 1642              	.L88:
 878:./Libraries/STM32F4xx_HAL_Driver/Src/stm32f4xx_hal_i2s.c ****     }
 879:./Libraries/STM32F4xx_HAL_Driver/Src/stm32f4xx_hal_i2s.c ****     else
 880:./Libraries/STM32F4xx_HAL_Driver/Src/stm32f4xx_hal_i2s.c ****     {
 881:./Libraries/STM32F4xx_HAL_Driver/Src/stm32f4xx_hal_i2s.c ****       hi2s->TxXferSize  = Size;
 1643              		.loc 1 881 25
 1644 0066 FB68     		ldr	r3, [r7, #12]
 1645 0068 FA88     		ldrh	r2, [r7, #6]	@ movhi
 1646 006a 1A85     		strh	r2, [r3, #40]	@ movhi
 882:./Libraries/STM32F4xx_HAL_Driver/Src/stm32f4xx_hal_i2s.c ****       hi2s->TxXferCount = Size;
 1647              		.loc 1 882 25
 1648 006c FB68     		ldr	r3, [r7, #12]
 1649 006e FA88     		ldrh	r2, [r7, #6]	@ movhi
 1650 0070 5A85     		strh	r2, [r3, #42]	@ movhi
 1651              	.L89:
 883:./Libraries/STM32F4xx_HAL_Driver/Src/stm32f4xx_hal_i2s.c ****     }
 884:./Libraries/STM32F4xx_HAL_Driver/Src/stm32f4xx_hal_i2s.c **** 
 885:./Libraries/STM32F4xx_HAL_Driver/Src/stm32f4xx_hal_i2s.c ****     /* Process Locked */
 886:./Libraries/STM32F4xx_HAL_Driver/Src/stm32f4xx_hal_i2s.c ****     __HAL_LOCK(hi2s);
 1652              		.loc 1 886 5
 1653 0072 FB68     		ldr	r3, [r7, #12]
 1654 0074 93F84030 		ldrb	r3, [r3, #64]
 1655 0078 DBB2     		uxtb	r3, r3
 1656 007a 012B     		cmp	r3, #1
 1657 007c 01D1     		bne	.L90
 1658              		.loc 1 886 5 is_stmt 0 discriminator 1
 1659 007e 0223     		movs	r3, #2
 1660 0080 4CE0     		b	.L85
 1661              	.L90:
 1662              		.loc 1 886 5 discriminator 2
 1663 0082 FB68     		ldr	r3, [r7, #12]
 1664 0084 0122     		movs	r2, #1
 1665 0086 83F84020 		strb	r2, [r3, #64]
 887:./Libraries/STM32F4xx_HAL_Driver/Src/stm32f4xx_hal_i2s.c **** 
 888:./Libraries/STM32F4xx_HAL_Driver/Src/stm32f4xx_hal_i2s.c ****     hi2s->ErrorCode = HAL_I2S_ERROR_NONE;
 1666              		.loc 1 888 21 is_stmt 1 discriminator 2
 1667 008a FB68     		ldr	r3, [r7, #12]
 1668 008c 0022     		movs	r2, #0
 1669 008e 5A64     		str	r2, [r3, #68]
 889:./Libraries/STM32F4xx_HAL_Driver/Src/stm32f4xx_hal_i2s.c ****     hi2s->State     = HAL_I2S_STATE_BUSY_TX;
 1670              		.loc 1 889 21 discriminator 2
 1671 0090 FB68     		ldr	r3, [r7, #12]
 1672 0092 0322     		movs	r2, #3
 1673 0094 83F84120 		strb	r2, [r3, #65]
 890:./Libraries/STM32F4xx_HAL_Driver/Src/stm32f4xx_hal_i2s.c **** 
 891:./Libraries/STM32F4xx_HAL_Driver/Src/stm32f4xx_hal_i2s.c ****     /* Set the I2S Tx DMA Half transfer complete callback */
 892:./Libraries/STM32F4xx_HAL_Driver/Src/stm32f4xx_hal_i2s.c ****     hi2s->hdmatx->XferHalfCpltCallback = I2S_DMATxHalfCplt;
 1674              		.loc 1 892 9 discriminator 2
 1675 0098 FB68     		ldr	r3, [r7, #12]
 1676 009a 9B6B     		ldr	r3, [r3, #56]
ARM GAS  /tmp/ccIc9xCh.s 			page 46


 1677              		.loc 1 892 40 discriminator 2
 1678 009c 214A     		ldr	r2, .L93
 1679 009e 1A64     		str	r2, [r3, #64]
 893:./Libraries/STM32F4xx_HAL_Driver/Src/stm32f4xx_hal_i2s.c **** 
 894:./Libraries/STM32F4xx_HAL_Driver/Src/stm32f4xx_hal_i2s.c ****     /* Set the I2S Tx DMA transfer complete callback */
 895:./Libraries/STM32F4xx_HAL_Driver/Src/stm32f4xx_hal_i2s.c ****     hi2s->hdmatx->XferCpltCallback = I2S_DMATxCplt;
 1680              		.loc 1 895 9 discriminator 2
 1681 00a0 FB68     		ldr	r3, [r7, #12]
 1682 00a2 9B6B     		ldr	r3, [r3, #56]
 1683              		.loc 1 895 36 discriminator 2
 1684 00a4 204A     		ldr	r2, .L93+4
 1685 00a6 DA63     		str	r2, [r3, #60]
 896:./Libraries/STM32F4xx_HAL_Driver/Src/stm32f4xx_hal_i2s.c **** 
 897:./Libraries/STM32F4xx_HAL_Driver/Src/stm32f4xx_hal_i2s.c ****     /* Set the DMA error callback */
 898:./Libraries/STM32F4xx_HAL_Driver/Src/stm32f4xx_hal_i2s.c ****     hi2s->hdmatx->XferErrorCallback = I2S_DMAError;
 1686              		.loc 1 898 9 discriminator 2
 1687 00a8 FB68     		ldr	r3, [r7, #12]
 1688 00aa 9B6B     		ldr	r3, [r3, #56]
 1689              		.loc 1 898 37 discriminator 2
 1690 00ac 1F4A     		ldr	r2, .L93+8
 1691 00ae DA64     		str	r2, [r3, #76]
 899:./Libraries/STM32F4xx_HAL_Driver/Src/stm32f4xx_hal_i2s.c **** 
 900:./Libraries/STM32F4xx_HAL_Driver/Src/stm32f4xx_hal_i2s.c ****     /* Enable the Tx DMA Stream */
 901:./Libraries/STM32F4xx_HAL_Driver/Src/stm32f4xx_hal_i2s.c ****     tmp = (uint32_t*)&pData;
 1692              		.loc 1 901 9 discriminator 2
 1693 00b0 07F10803 		add	r3, r7, #8
 1694 00b4 7B61     		str	r3, [r7, #20]
 902:./Libraries/STM32F4xx_HAL_Driver/Src/stm32f4xx_hal_i2s.c ****     HAL_DMA_Start_IT(hi2s->hdmatx, *(uint32_t*)tmp, (uint32_t)&hi2s->Instance->DR, hi2s->TxXferSize
 1695              		.loc 1 902 5 discriminator 2
 1696 00b6 FB68     		ldr	r3, [r7, #12]
 1697 00b8 986B     		ldr	r0, [r3, #56]
 1698 00ba 7B69     		ldr	r3, [r7, #20]
 1699 00bc 1968     		ldr	r1, [r3]
 1700              		.loc 1 902 68 discriminator 2
 1701 00be FB68     		ldr	r3, [r7, #12]
 1702 00c0 1B68     		ldr	r3, [r3]
 1703              		.loc 1 902 63 discriminator 2
 1704 00c2 0C33     		adds	r3, r3, #12
 1705              		.loc 1 902 5 discriminator 2
 1706 00c4 1A46     		mov	r2, r3
 1707              		.loc 1 902 88 discriminator 2
 1708 00c6 FB68     		ldr	r3, [r7, #12]
 1709 00c8 1B8D     		ldrh	r3, [r3, #40]	@ movhi
 1710 00ca 9BB2     		uxth	r3, r3
 1711              		.loc 1 902 5 discriminator 2
 1712 00cc FFF7FEFF 		bl	HAL_DMA_Start_IT
 903:./Libraries/STM32F4xx_HAL_Driver/Src/stm32f4xx_hal_i2s.c **** 
 904:./Libraries/STM32F4xx_HAL_Driver/Src/stm32f4xx_hal_i2s.c ****     /* Check if the I2S is already enabled */
 905:./Libraries/STM32F4xx_HAL_Driver/Src/stm32f4xx_hal_i2s.c ****     if((hi2s->Instance->I2SCFGR &SPI_I2SCFGR_I2SE) != SPI_I2SCFGR_I2SE)
 1713              		.loc 1 905 13 discriminator 2
 1714 00d0 FB68     		ldr	r3, [r7, #12]
 1715 00d2 1B68     		ldr	r3, [r3]
 1716              		.loc 1 905 23 discriminator 2
 1717 00d4 DB69     		ldr	r3, [r3, #28]
 1718              		.loc 1 905 33 discriminator 2
 1719 00d6 03F48063 		and	r3, r3, #1024
 1720              		.loc 1 905 7 discriminator 2
ARM GAS  /tmp/ccIc9xCh.s 			page 47


 1721 00da B3F5806F 		cmp	r3, #1024
 1722 00de 07D0     		beq	.L91
 906:./Libraries/STM32F4xx_HAL_Driver/Src/stm32f4xx_hal_i2s.c ****     {
 907:./Libraries/STM32F4xx_HAL_Driver/Src/stm32f4xx_hal_i2s.c ****       /* Enable I2S peripheral */
 908:./Libraries/STM32F4xx_HAL_Driver/Src/stm32f4xx_hal_i2s.c ****       __HAL_I2S_ENABLE(hi2s);
 1723              		.loc 1 908 7
 1724 00e0 FB68     		ldr	r3, [r7, #12]
 1725 00e2 1B68     		ldr	r3, [r3]
 1726 00e4 DA69     		ldr	r2, [r3, #28]
 1727 00e6 FB68     		ldr	r3, [r7, #12]
 1728 00e8 1B68     		ldr	r3, [r3]
 1729 00ea 42F48062 		orr	r2, r2, #1024
 1730 00ee DA61     		str	r2, [r3, #28]
 1731              	.L91:
 909:./Libraries/STM32F4xx_HAL_Driver/Src/stm32f4xx_hal_i2s.c ****     }
 910:./Libraries/STM32F4xx_HAL_Driver/Src/stm32f4xx_hal_i2s.c **** 
 911:./Libraries/STM32F4xx_HAL_Driver/Src/stm32f4xx_hal_i2s.c ****      /* Check if the I2S Tx request is already enabled */
 912:./Libraries/STM32F4xx_HAL_Driver/Src/stm32f4xx_hal_i2s.c ****     if((hi2s->Instance->CR2 & SPI_CR2_TXDMAEN) != SPI_CR2_TXDMAEN)
 1732              		.loc 1 912 13
 1733 00f0 FB68     		ldr	r3, [r7, #12]
 1734 00f2 1B68     		ldr	r3, [r3]
 1735              		.loc 1 912 23
 1736 00f4 5B68     		ldr	r3, [r3, #4]
 1737              		.loc 1 912 29
 1738 00f6 03F00203 		and	r3, r3, #2
 1739              		.loc 1 912 7
 1740 00fa 022B     		cmp	r3, #2
 1741 00fc 07D0     		beq	.L92
 913:./Libraries/STM32F4xx_HAL_Driver/Src/stm32f4xx_hal_i2s.c ****     {
 914:./Libraries/STM32F4xx_HAL_Driver/Src/stm32f4xx_hal_i2s.c ****       /* Enable Tx DMA Request */
 915:./Libraries/STM32F4xx_HAL_Driver/Src/stm32f4xx_hal_i2s.c ****       SET_BIT(hi2s->Instance->CR2, SPI_CR2_TXDMAEN);
 1742              		.loc 1 915 7
 1743 00fe FB68     		ldr	r3, [r7, #12]
 1744 0100 1B68     		ldr	r3, [r3]
 1745 0102 5A68     		ldr	r2, [r3, #4]
 1746 0104 FB68     		ldr	r3, [r7, #12]
 1747 0106 1B68     		ldr	r3, [r3]
 1748 0108 42F00202 		orr	r2, r2, #2
 1749 010c 5A60     		str	r2, [r3, #4]
 1750              	.L92:
 916:./Libraries/STM32F4xx_HAL_Driver/Src/stm32f4xx_hal_i2s.c ****     }
 917:./Libraries/STM32F4xx_HAL_Driver/Src/stm32f4xx_hal_i2s.c **** 
 918:./Libraries/STM32F4xx_HAL_Driver/Src/stm32f4xx_hal_i2s.c ****     /* Process Unlocked */
 919:./Libraries/STM32F4xx_HAL_Driver/Src/stm32f4xx_hal_i2s.c ****     __HAL_UNLOCK(hi2s);
 1751              		.loc 1 919 5
 1752 010e FB68     		ldr	r3, [r7, #12]
 1753 0110 0022     		movs	r2, #0
 1754 0112 83F84020 		strb	r2, [r3, #64]
 920:./Libraries/STM32F4xx_HAL_Driver/Src/stm32f4xx_hal_i2s.c **** 
 921:./Libraries/STM32F4xx_HAL_Driver/Src/stm32f4xx_hal_i2s.c ****     return HAL_OK;
 1755              		.loc 1 921 12
 1756 0116 0023     		movs	r3, #0
 1757 0118 00E0     		b	.L85
 1758              	.L86:
 922:./Libraries/STM32F4xx_HAL_Driver/Src/stm32f4xx_hal_i2s.c ****   }
 923:./Libraries/STM32F4xx_HAL_Driver/Src/stm32f4xx_hal_i2s.c ****   else
 924:./Libraries/STM32F4xx_HAL_Driver/Src/stm32f4xx_hal_i2s.c ****   {
ARM GAS  /tmp/ccIc9xCh.s 			page 48


 925:./Libraries/STM32F4xx_HAL_Driver/Src/stm32f4xx_hal_i2s.c ****     return HAL_BUSY;
 1759              		.loc 1 925 12
 1760 011a 0223     		movs	r3, #2
 1761              	.L85:
 926:./Libraries/STM32F4xx_HAL_Driver/Src/stm32f4xx_hal_i2s.c ****   }
 927:./Libraries/STM32F4xx_HAL_Driver/Src/stm32f4xx_hal_i2s.c **** }
 1762              		.loc 1 927 1
 1763 011c 1846     		mov	r0, r3
 1764 011e 1837     		adds	r7, r7, #24
 1765              	.LCFI47:
 1766              		.cfi_def_cfa_offset 8
 1767 0120 BD46     		mov	sp, r7
 1768              	.LCFI48:
 1769              		.cfi_def_cfa_register 13
 1770              		@ sp needed
 1771 0122 80BD     		pop	{r7, pc}
 1772              	.L94:
 1773              		.align	2
 1774              	.L93:
 1775 0124 00000000 		.word	I2S_DMATxHalfCplt
 1776 0128 00000000 		.word	I2S_DMATxCplt
 1777 012c 00000000 		.word	I2S_DMAError
 1778              		.cfi_endproc
 1779              	.LFE134:
 1781              		.section	.text.HAL_I2S_Receive_DMA,"ax",%progbits
 1782              		.align	1
 1783              		.global	HAL_I2S_Receive_DMA
 1784              		.syntax unified
 1785              		.thumb
 1786              		.thumb_func
 1787              		.fpu fpv4-sp-d16
 1789              	HAL_I2S_Receive_DMA:
 1790              	.LFB135:
 928:./Libraries/STM32F4xx_HAL_Driver/Src/stm32f4xx_hal_i2s.c **** 
 929:./Libraries/STM32F4xx_HAL_Driver/Src/stm32f4xx_hal_i2s.c **** /**
 930:./Libraries/STM32F4xx_HAL_Driver/Src/stm32f4xx_hal_i2s.c ****   * @brief Receive an amount of data in non-blocking mode with DMA
 931:./Libraries/STM32F4xx_HAL_Driver/Src/stm32f4xx_hal_i2s.c ****   * @param  hi2s pointer to a I2S_HandleTypeDef structure that contains
 932:./Libraries/STM32F4xx_HAL_Driver/Src/stm32f4xx_hal_i2s.c ****   *         the configuration information for I2S module
 933:./Libraries/STM32F4xx_HAL_Driver/Src/stm32f4xx_hal_i2s.c ****   * @param pData a 16-bit pointer to the Receive data buffer.
 934:./Libraries/STM32F4xx_HAL_Driver/Src/stm32f4xx_hal_i2s.c ****   * @param Size number of data sample to be sent:
 935:./Libraries/STM32F4xx_HAL_Driver/Src/stm32f4xx_hal_i2s.c ****   * @note When a 16-bit data frame or a 16-bit data frame extended is selected during the I2S
 936:./Libraries/STM32F4xx_HAL_Driver/Src/stm32f4xx_hal_i2s.c ****   *       configuration phase, the Size parameter means the number of 16-bit data length
 937:./Libraries/STM32F4xx_HAL_Driver/Src/stm32f4xx_hal_i2s.c ****   *       in the transaction and when a 24-bit data frame or a 32-bit data frame is selected
 938:./Libraries/STM32F4xx_HAL_Driver/Src/stm32f4xx_hal_i2s.c ****   *       the Size parameter means the number of 16-bit data length.
 939:./Libraries/STM32F4xx_HAL_Driver/Src/stm32f4xx_hal_i2s.c ****   * @note The I2S is kept enabled at the end of transaction to avoid the clock de-synchronization
 940:./Libraries/STM32F4xx_HAL_Driver/Src/stm32f4xx_hal_i2s.c ****   *       between Master and Slave(example: audio streaming).
 941:./Libraries/STM32F4xx_HAL_Driver/Src/stm32f4xx_hal_i2s.c ****   * @retval HAL status
 942:./Libraries/STM32F4xx_HAL_Driver/Src/stm32f4xx_hal_i2s.c ****   */
 943:./Libraries/STM32F4xx_HAL_Driver/Src/stm32f4xx_hal_i2s.c **** HAL_StatusTypeDef HAL_I2S_Receive_DMA(I2S_HandleTypeDef *hi2s, uint16_t *pData, uint16_t Size)
 944:./Libraries/STM32F4xx_HAL_Driver/Src/stm32f4xx_hal_i2s.c **** {
 1791              		.loc 1 944 1
 1792              		.cfi_startproc
 1793              		@ args = 0, pretend = 0, frame = 32
 1794              		@ frame_needed = 1, uses_anonymous_args = 0
 1795 0000 80B5     		push	{r7, lr}
 1796              	.LCFI49:
 1797              		.cfi_def_cfa_offset 8
ARM GAS  /tmp/ccIc9xCh.s 			page 49


 1798              		.cfi_offset 7, -8
 1799              		.cfi_offset 14, -4
 1800 0002 88B0     		sub	sp, sp, #32
 1801              	.LCFI50:
 1802              		.cfi_def_cfa_offset 40
 1803 0004 00AF     		add	r7, sp, #0
 1804              	.LCFI51:
 1805              		.cfi_def_cfa_register 7
 1806 0006 F860     		str	r0, [r7, #12]
 1807 0008 B960     		str	r1, [r7, #8]
 1808 000a 1346     		mov	r3, r2
 1809 000c FB80     		strh	r3, [r7, #6]	@ movhi
 945:./Libraries/STM32F4xx_HAL_Driver/Src/stm32f4xx_hal_i2s.c ****   uint32_t *tmp = NULL;
 1810              		.loc 1 945 13
 1811 000e 0023     		movs	r3, #0
 1812 0010 FB61     		str	r3, [r7, #28]
 946:./Libraries/STM32F4xx_HAL_Driver/Src/stm32f4xx_hal_i2s.c ****   uint32_t tmp1 = 0U;
 1813              		.loc 1 946 12
 1814 0012 0023     		movs	r3, #0
 1815 0014 BB61     		str	r3, [r7, #24]
 947:./Libraries/STM32F4xx_HAL_Driver/Src/stm32f4xx_hal_i2s.c **** 
 948:./Libraries/STM32F4xx_HAL_Driver/Src/stm32f4xx_hal_i2s.c ****   if((pData == NULL) || (Size == 0U))
 1816              		.loc 1 948 13
 1817 0016 BB68     		ldr	r3, [r7, #8]
 1818              		.loc 1 948 5
 1819 0018 002B     		cmp	r3, #0
 1820 001a 02D0     		beq	.L96
 1821              		.loc 1 948 22 discriminator 1
 1822 001c FB88     		ldrh	r3, [r7, #6]
 1823 001e 002B     		cmp	r3, #0
 1824 0020 01D1     		bne	.L97
 1825              	.L96:
 949:./Libraries/STM32F4xx_HAL_Driver/Src/stm32f4xx_hal_i2s.c ****   {
 950:./Libraries/STM32F4xx_HAL_Driver/Src/stm32f4xx_hal_i2s.c ****     return  HAL_ERROR;
 1826              		.loc 1 950 13
 1827 0022 0123     		movs	r3, #1
 1828 0024 8EE0     		b	.L98
 1829              	.L97:
 951:./Libraries/STM32F4xx_HAL_Driver/Src/stm32f4xx_hal_i2s.c ****   }
 952:./Libraries/STM32F4xx_HAL_Driver/Src/stm32f4xx_hal_i2s.c **** 
 953:./Libraries/STM32F4xx_HAL_Driver/Src/stm32f4xx_hal_i2s.c ****   if(hi2s->State == HAL_I2S_STATE_READY)
 1830              		.loc 1 953 10
 1831 0026 FB68     		ldr	r3, [r7, #12]
 1832 0028 93F84130 		ldrb	r3, [r3, #65]
 1833 002c DBB2     		uxtb	r3, r3
 1834              		.loc 1 953 5
 1835 002e 012B     		cmp	r3, #1
 1836 0030 40F08780 		bne	.L99
 954:./Libraries/STM32F4xx_HAL_Driver/Src/stm32f4xx_hal_i2s.c ****   {
 955:./Libraries/STM32F4xx_HAL_Driver/Src/stm32f4xx_hal_i2s.c ****     hi2s->pRxBuffPtr = pData;
 1837              		.loc 1 955 22
 1838 0034 BA68     		ldr	r2, [r7, #8]
 1839 0036 FB68     		ldr	r3, [r7, #12]
 1840 0038 DA62     		str	r2, [r3, #44]
 956:./Libraries/STM32F4xx_HAL_Driver/Src/stm32f4xx_hal_i2s.c ****     tmp1 = hi2s->Instance->I2SCFGR & (SPI_I2SCFGR_DATLEN | SPI_I2SCFGR_CHLEN);
 1841              		.loc 1 956 16
 1842 003a FB68     		ldr	r3, [r7, #12]
ARM GAS  /tmp/ccIc9xCh.s 			page 50


 1843 003c 1B68     		ldr	r3, [r3]
 1844              		.loc 1 956 26
 1845 003e DB69     		ldr	r3, [r3, #28]
 1846              		.loc 1 956 10
 1847 0040 03F00703 		and	r3, r3, #7
 1848 0044 BB61     		str	r3, [r7, #24]
 957:./Libraries/STM32F4xx_HAL_Driver/Src/stm32f4xx_hal_i2s.c ****     if((tmp1 == I2S_DATAFORMAT_24B) || (tmp1 == I2S_DATAFORMAT_32B))
 1849              		.loc 1 957 7
 1850 0046 BB69     		ldr	r3, [r7, #24]
 1851 0048 032B     		cmp	r3, #3
 1852 004a 02D0     		beq	.L100
 1853              		.loc 1 957 37 discriminator 1
 1854 004c BB69     		ldr	r3, [r7, #24]
 1855 004e 052B     		cmp	r3, #5
 1856 0050 0AD1     		bne	.L101
 1857              	.L100:
 958:./Libraries/STM32F4xx_HAL_Driver/Src/stm32f4xx_hal_i2s.c ****     {
 959:./Libraries/STM32F4xx_HAL_Driver/Src/stm32f4xx_hal_i2s.c ****       hi2s->RxXferSize  = (Size << 1U);
 1858              		.loc 1 959 33
 1859 0052 FB88     		ldrh	r3, [r7, #6]	@ movhi
 1860 0054 5B00     		lsls	r3, r3, #1
 1861 0056 9AB2     		uxth	r2, r3
 1862              		.loc 1 959 25
 1863 0058 FB68     		ldr	r3, [r7, #12]
 1864 005a 1A86     		strh	r2, [r3, #48]	@ movhi
 960:./Libraries/STM32F4xx_HAL_Driver/Src/stm32f4xx_hal_i2s.c ****       hi2s->RxXferCount = (Size << 1U);
 1865              		.loc 1 960 33
 1866 005c FB88     		ldrh	r3, [r7, #6]	@ movhi
 1867 005e 5B00     		lsls	r3, r3, #1
 1868 0060 9AB2     		uxth	r2, r3
 1869              		.loc 1 960 25
 1870 0062 FB68     		ldr	r3, [r7, #12]
 1871 0064 5A86     		strh	r2, [r3, #50]	@ movhi
 1872 0066 05E0     		b	.L102
 1873              	.L101:
 961:./Libraries/STM32F4xx_HAL_Driver/Src/stm32f4xx_hal_i2s.c ****     }
 962:./Libraries/STM32F4xx_HAL_Driver/Src/stm32f4xx_hal_i2s.c ****     else
 963:./Libraries/STM32F4xx_HAL_Driver/Src/stm32f4xx_hal_i2s.c ****     {
 964:./Libraries/STM32F4xx_HAL_Driver/Src/stm32f4xx_hal_i2s.c ****       hi2s->RxXferSize  = Size;
 1874              		.loc 1 964 25
 1875 0068 FB68     		ldr	r3, [r7, #12]
 1876 006a FA88     		ldrh	r2, [r7, #6]	@ movhi
 1877 006c 1A86     		strh	r2, [r3, #48]	@ movhi
 965:./Libraries/STM32F4xx_HAL_Driver/Src/stm32f4xx_hal_i2s.c ****       hi2s->RxXferCount = Size;
 1878              		.loc 1 965 25
 1879 006e FB68     		ldr	r3, [r7, #12]
 1880 0070 FA88     		ldrh	r2, [r7, #6]	@ movhi
 1881 0072 5A86     		strh	r2, [r3, #50]	@ movhi
 1882              	.L102:
 966:./Libraries/STM32F4xx_HAL_Driver/Src/stm32f4xx_hal_i2s.c ****     }
 967:./Libraries/STM32F4xx_HAL_Driver/Src/stm32f4xx_hal_i2s.c ****     /* Process Locked */
 968:./Libraries/STM32F4xx_HAL_Driver/Src/stm32f4xx_hal_i2s.c ****     __HAL_LOCK(hi2s);
 1883              		.loc 1 968 5
 1884 0074 FB68     		ldr	r3, [r7, #12]
 1885 0076 93F84030 		ldrb	r3, [r3, #64]
 1886 007a DBB2     		uxtb	r3, r3
 1887 007c 012B     		cmp	r3, #1
ARM GAS  /tmp/ccIc9xCh.s 			page 51


 1888 007e 01D1     		bne	.L103
 1889              		.loc 1 968 5 is_stmt 0 discriminator 1
 1890 0080 0223     		movs	r3, #2
 1891 0082 5FE0     		b	.L98
 1892              	.L103:
 1893              		.loc 1 968 5 discriminator 2
 1894 0084 FB68     		ldr	r3, [r7, #12]
 1895 0086 0122     		movs	r2, #1
 1896 0088 83F84020 		strb	r2, [r3, #64]
 969:./Libraries/STM32F4xx_HAL_Driver/Src/stm32f4xx_hal_i2s.c **** 
 970:./Libraries/STM32F4xx_HAL_Driver/Src/stm32f4xx_hal_i2s.c ****     hi2s->State     = HAL_I2S_STATE_BUSY_RX;
 1897              		.loc 1 970 21 is_stmt 1 discriminator 2
 1898 008c FB68     		ldr	r3, [r7, #12]
 1899 008e 0422     		movs	r2, #4
 1900 0090 83F84120 		strb	r2, [r3, #65]
 971:./Libraries/STM32F4xx_HAL_Driver/Src/stm32f4xx_hal_i2s.c ****     hi2s->ErrorCode = HAL_I2S_ERROR_NONE;
 1901              		.loc 1 971 21 discriminator 2
 1902 0094 FB68     		ldr	r3, [r7, #12]
 1903 0096 0022     		movs	r2, #0
 1904 0098 5A64     		str	r2, [r3, #68]
 972:./Libraries/STM32F4xx_HAL_Driver/Src/stm32f4xx_hal_i2s.c **** 
 973:./Libraries/STM32F4xx_HAL_Driver/Src/stm32f4xx_hal_i2s.c ****     /* Set the I2S Rx DMA Half transfer complete callback */
 974:./Libraries/STM32F4xx_HAL_Driver/Src/stm32f4xx_hal_i2s.c ****     hi2s->hdmarx->XferHalfCpltCallback = I2S_DMARxHalfCplt;
 1905              		.loc 1 974 9 discriminator 2
 1906 009a FB68     		ldr	r3, [r7, #12]
 1907 009c DB6B     		ldr	r3, [r3, #60]
 1908              		.loc 1 974 40 discriminator 2
 1909 009e 2B4A     		ldr	r2, .L107
 1910 00a0 1A64     		str	r2, [r3, #64]
 975:./Libraries/STM32F4xx_HAL_Driver/Src/stm32f4xx_hal_i2s.c **** 
 976:./Libraries/STM32F4xx_HAL_Driver/Src/stm32f4xx_hal_i2s.c ****     /* Set the I2S Rx DMA transfer complete callback */
 977:./Libraries/STM32F4xx_HAL_Driver/Src/stm32f4xx_hal_i2s.c ****     hi2s->hdmarx->XferCpltCallback = I2S_DMARxCplt;
 1911              		.loc 1 977 9 discriminator 2
 1912 00a2 FB68     		ldr	r3, [r7, #12]
 1913 00a4 DB6B     		ldr	r3, [r3, #60]
 1914              		.loc 1 977 36 discriminator 2
 1915 00a6 2A4A     		ldr	r2, .L107+4
 1916 00a8 DA63     		str	r2, [r3, #60]
 978:./Libraries/STM32F4xx_HAL_Driver/Src/stm32f4xx_hal_i2s.c **** 
 979:./Libraries/STM32F4xx_HAL_Driver/Src/stm32f4xx_hal_i2s.c ****     /* Set the DMA error callback */
 980:./Libraries/STM32F4xx_HAL_Driver/Src/stm32f4xx_hal_i2s.c ****     hi2s->hdmarx->XferErrorCallback = I2S_DMAError;
 1917              		.loc 1 980 9 discriminator 2
 1918 00aa FB68     		ldr	r3, [r7, #12]
 1919 00ac DB6B     		ldr	r3, [r3, #60]
 1920              		.loc 1 980 37 discriminator 2
 1921 00ae 294A     		ldr	r2, .L107+8
 1922 00b0 DA64     		str	r2, [r3, #76]
 981:./Libraries/STM32F4xx_HAL_Driver/Src/stm32f4xx_hal_i2s.c **** 
 982:./Libraries/STM32F4xx_HAL_Driver/Src/stm32f4xx_hal_i2s.c ****     /* Check if Master Receiver mode is selected */
 983:./Libraries/STM32F4xx_HAL_Driver/Src/stm32f4xx_hal_i2s.c ****     if((hi2s->Instance->I2SCFGR & SPI_I2SCFGR_I2SCFG) == I2S_MODE_MASTER_RX)
 1923              		.loc 1 983 13 discriminator 2
 1924 00b2 FB68     		ldr	r3, [r7, #12]
 1925 00b4 1B68     		ldr	r3, [r3]
 1926              		.loc 1 983 23 discriminator 2
 1927 00b6 DB69     		ldr	r3, [r3, #28]
 1928              		.loc 1 983 33 discriminator 2
 1929 00b8 03F44073 		and	r3, r3, #768
ARM GAS  /tmp/ccIc9xCh.s 			page 52


 1930              		.loc 1 983 7 discriminator 2
 1931 00bc B3F5407F 		cmp	r3, #768
 1932 00c0 0AD1     		bne	.L104
 1933              	.LBB5:
 984:./Libraries/STM32F4xx_HAL_Driver/Src/stm32f4xx_hal_i2s.c ****     {
 985:./Libraries/STM32F4xx_HAL_Driver/Src/stm32f4xx_hal_i2s.c ****       /* Clear the Overrun Flag by a read operation to the SPI_DR register followed by a read
 986:./Libraries/STM32F4xx_HAL_Driver/Src/stm32f4xx_hal_i2s.c ****       access to the SPI_SR register. */
 987:./Libraries/STM32F4xx_HAL_Driver/Src/stm32f4xx_hal_i2s.c ****       __HAL_I2S_CLEAR_OVRFLAG(hi2s);
 1934              		.loc 1 987 7
 1935 00c2 0023     		movs	r3, #0
 1936 00c4 7B61     		str	r3, [r7, #20]
 1937 00c6 FB68     		ldr	r3, [r7, #12]
 1938 00c8 1B68     		ldr	r3, [r3]
 1939 00ca DB68     		ldr	r3, [r3, #12]
 1940 00cc 7B61     		str	r3, [r7, #20]
 1941 00ce FB68     		ldr	r3, [r7, #12]
 1942 00d0 1B68     		ldr	r3, [r3]
 1943 00d2 9B68     		ldr	r3, [r3, #8]
 1944 00d4 7B61     		str	r3, [r7, #20]
 1945 00d6 7B69     		ldr	r3, [r7, #20]
 1946              	.L104:
 1947              	.LBE5:
 988:./Libraries/STM32F4xx_HAL_Driver/Src/stm32f4xx_hal_i2s.c ****     }
 989:./Libraries/STM32F4xx_HAL_Driver/Src/stm32f4xx_hal_i2s.c **** 
 990:./Libraries/STM32F4xx_HAL_Driver/Src/stm32f4xx_hal_i2s.c ****     /* Enable the Rx DMA Stream */
 991:./Libraries/STM32F4xx_HAL_Driver/Src/stm32f4xx_hal_i2s.c ****     tmp = (uint32_t*)&pData;
 1948              		.loc 1 991 9
 1949 00d8 07F10803 		add	r3, r7, #8
 1950 00dc FB61     		str	r3, [r7, #28]
 992:./Libraries/STM32F4xx_HAL_Driver/Src/stm32f4xx_hal_i2s.c ****     HAL_DMA_Start_IT(hi2s->hdmarx, (uint32_t)&hi2s->Instance->DR, *(uint32_t*)tmp, hi2s->RxXferSize
 1951              		.loc 1 992 5
 1952 00de FB68     		ldr	r3, [r7, #12]
 1953 00e0 D86B     		ldr	r0, [r3, #60]
 1954              		.loc 1 992 51
 1955 00e2 FB68     		ldr	r3, [r7, #12]
 1956 00e4 1B68     		ldr	r3, [r3]
 1957              		.loc 1 992 46
 1958 00e6 0C33     		adds	r3, r3, #12
 1959              		.loc 1 992 5
 1960 00e8 1946     		mov	r1, r3
 1961 00ea FB69     		ldr	r3, [r7, #28]
 1962 00ec 1A68     		ldr	r2, [r3]
 1963              		.loc 1 992 88
 1964 00ee FB68     		ldr	r3, [r7, #12]
 1965 00f0 1B8E     		ldrh	r3, [r3, #48]	@ movhi
 1966 00f2 9BB2     		uxth	r3, r3
 1967              		.loc 1 992 5
 1968 00f4 FFF7FEFF 		bl	HAL_DMA_Start_IT
 993:./Libraries/STM32F4xx_HAL_Driver/Src/stm32f4xx_hal_i2s.c **** 
 994:./Libraries/STM32F4xx_HAL_Driver/Src/stm32f4xx_hal_i2s.c ****     /* Check if the I2S is already enabled */
 995:./Libraries/STM32F4xx_HAL_Driver/Src/stm32f4xx_hal_i2s.c ****     if((hi2s->Instance->I2SCFGR &SPI_I2SCFGR_I2SE) != SPI_I2SCFGR_I2SE)
 1969              		.loc 1 995 13
 1970 00f8 FB68     		ldr	r3, [r7, #12]
 1971 00fa 1B68     		ldr	r3, [r3]
 1972              		.loc 1 995 23
 1973 00fc DB69     		ldr	r3, [r3, #28]
 1974              		.loc 1 995 33
ARM GAS  /tmp/ccIc9xCh.s 			page 53


 1975 00fe 03F48063 		and	r3, r3, #1024
 1976              		.loc 1 995 7
 1977 0102 B3F5806F 		cmp	r3, #1024
 1978 0106 07D0     		beq	.L105
 996:./Libraries/STM32F4xx_HAL_Driver/Src/stm32f4xx_hal_i2s.c ****     {
 997:./Libraries/STM32F4xx_HAL_Driver/Src/stm32f4xx_hal_i2s.c ****       /* Enable I2S peripheral */
 998:./Libraries/STM32F4xx_HAL_Driver/Src/stm32f4xx_hal_i2s.c ****       __HAL_I2S_ENABLE(hi2s);
 1979              		.loc 1 998 7
 1980 0108 FB68     		ldr	r3, [r7, #12]
 1981 010a 1B68     		ldr	r3, [r3]
 1982 010c DA69     		ldr	r2, [r3, #28]
 1983 010e FB68     		ldr	r3, [r7, #12]
 1984 0110 1B68     		ldr	r3, [r3]
 1985 0112 42F48062 		orr	r2, r2, #1024
 1986 0116 DA61     		str	r2, [r3, #28]
 1987              	.L105:
 999:./Libraries/STM32F4xx_HAL_Driver/Src/stm32f4xx_hal_i2s.c ****     }
1000:./Libraries/STM32F4xx_HAL_Driver/Src/stm32f4xx_hal_i2s.c **** 
1001:./Libraries/STM32F4xx_HAL_Driver/Src/stm32f4xx_hal_i2s.c ****      /* Check if the I2S Rx request is already enabled */
1002:./Libraries/STM32F4xx_HAL_Driver/Src/stm32f4xx_hal_i2s.c ****     if((hi2s->Instance->CR2 &SPI_CR2_RXDMAEN) != SPI_CR2_RXDMAEN)
 1988              		.loc 1 1002 13
 1989 0118 FB68     		ldr	r3, [r7, #12]
 1990 011a 1B68     		ldr	r3, [r3]
 1991              		.loc 1 1002 23
 1992 011c 5B68     		ldr	r3, [r3, #4]
 1993              		.loc 1 1002 29
 1994 011e 03F00103 		and	r3, r3, #1
 1995              		.loc 1 1002 7
 1996 0122 012B     		cmp	r3, #1
 1997 0124 07D0     		beq	.L106
1003:./Libraries/STM32F4xx_HAL_Driver/Src/stm32f4xx_hal_i2s.c ****     {
1004:./Libraries/STM32F4xx_HAL_Driver/Src/stm32f4xx_hal_i2s.c ****       /* Enable Rx DMA Request */
1005:./Libraries/STM32F4xx_HAL_Driver/Src/stm32f4xx_hal_i2s.c ****       SET_BIT(hi2s->Instance->CR2,SPI_CR2_RXDMAEN);
 1998              		.loc 1 1005 7
 1999 0126 FB68     		ldr	r3, [r7, #12]
 2000 0128 1B68     		ldr	r3, [r3]
 2001 012a 5A68     		ldr	r2, [r3, #4]
 2002 012c FB68     		ldr	r3, [r7, #12]
 2003 012e 1B68     		ldr	r3, [r3]
 2004 0130 42F00102 		orr	r2, r2, #1
 2005 0134 5A60     		str	r2, [r3, #4]
 2006              	.L106:
1006:./Libraries/STM32F4xx_HAL_Driver/Src/stm32f4xx_hal_i2s.c ****     }
1007:./Libraries/STM32F4xx_HAL_Driver/Src/stm32f4xx_hal_i2s.c **** 
1008:./Libraries/STM32F4xx_HAL_Driver/Src/stm32f4xx_hal_i2s.c ****     /* Process Unlocked */
1009:./Libraries/STM32F4xx_HAL_Driver/Src/stm32f4xx_hal_i2s.c ****     __HAL_UNLOCK(hi2s);
 2007              		.loc 1 1009 5
 2008 0136 FB68     		ldr	r3, [r7, #12]
 2009 0138 0022     		movs	r2, #0
 2010 013a 83F84020 		strb	r2, [r3, #64]
1010:./Libraries/STM32F4xx_HAL_Driver/Src/stm32f4xx_hal_i2s.c **** 
1011:./Libraries/STM32F4xx_HAL_Driver/Src/stm32f4xx_hal_i2s.c ****     return HAL_OK;
 2011              		.loc 1 1011 12
 2012 013e 0023     		movs	r3, #0
 2013 0140 00E0     		b	.L98
 2014              	.L99:
1012:./Libraries/STM32F4xx_HAL_Driver/Src/stm32f4xx_hal_i2s.c ****   }
ARM GAS  /tmp/ccIc9xCh.s 			page 54


1013:./Libraries/STM32F4xx_HAL_Driver/Src/stm32f4xx_hal_i2s.c ****   else
1014:./Libraries/STM32F4xx_HAL_Driver/Src/stm32f4xx_hal_i2s.c ****   {
1015:./Libraries/STM32F4xx_HAL_Driver/Src/stm32f4xx_hal_i2s.c ****     return HAL_BUSY;
 2015              		.loc 1 1015 12
 2016 0142 0223     		movs	r3, #2
 2017              	.L98:
1016:./Libraries/STM32F4xx_HAL_Driver/Src/stm32f4xx_hal_i2s.c ****   }
1017:./Libraries/STM32F4xx_HAL_Driver/Src/stm32f4xx_hal_i2s.c **** }
 2018              		.loc 1 1017 1
 2019 0144 1846     		mov	r0, r3
 2020 0146 2037     		adds	r7, r7, #32
 2021              	.LCFI52:
 2022              		.cfi_def_cfa_offset 8
 2023 0148 BD46     		mov	sp, r7
 2024              	.LCFI53:
 2025              		.cfi_def_cfa_register 13
 2026              		@ sp needed
 2027 014a 80BD     		pop	{r7, pc}
 2028              	.L108:
 2029              		.align	2
 2030              	.L107:
 2031 014c 00000000 		.word	I2S_DMARxHalfCplt
 2032 0150 00000000 		.word	I2S_DMARxCplt
 2033 0154 00000000 		.word	I2S_DMAError
 2034              		.cfi_endproc
 2035              	.LFE135:
 2037              		.section	.text.HAL_I2S_DMAPause,"ax",%progbits
 2038              		.align	1
 2039              		.global	HAL_I2S_DMAPause
 2040              		.syntax unified
 2041              		.thumb
 2042              		.thumb_func
 2043              		.fpu fpv4-sp-d16
 2045              	HAL_I2S_DMAPause:
 2046              	.LFB136:
1018:./Libraries/STM32F4xx_HAL_Driver/Src/stm32f4xx_hal_i2s.c **** 
1019:./Libraries/STM32F4xx_HAL_Driver/Src/stm32f4xx_hal_i2s.c **** /**
1020:./Libraries/STM32F4xx_HAL_Driver/Src/stm32f4xx_hal_i2s.c ****   * @brief Pauses the audio stream playing from the Media.
1021:./Libraries/STM32F4xx_HAL_Driver/Src/stm32f4xx_hal_i2s.c ****   * @param  hi2s pointer to a I2S_HandleTypeDef structure that contains
1022:./Libraries/STM32F4xx_HAL_Driver/Src/stm32f4xx_hal_i2s.c ****   *         the configuration information for I2S module
1023:./Libraries/STM32F4xx_HAL_Driver/Src/stm32f4xx_hal_i2s.c ****   * @retval HAL status
1024:./Libraries/STM32F4xx_HAL_Driver/Src/stm32f4xx_hal_i2s.c ****   */
1025:./Libraries/STM32F4xx_HAL_Driver/Src/stm32f4xx_hal_i2s.c **** HAL_StatusTypeDef HAL_I2S_DMAPause(I2S_HandleTypeDef *hi2s)
1026:./Libraries/STM32F4xx_HAL_Driver/Src/stm32f4xx_hal_i2s.c **** {
 2047              		.loc 1 1026 1
 2048              		.cfi_startproc
 2049              		@ args = 0, pretend = 0, frame = 8
 2050              		@ frame_needed = 1, uses_anonymous_args = 0
 2051              		@ link register save eliminated.
 2052 0000 80B4     		push	{r7}
 2053              	.LCFI54:
 2054              		.cfi_def_cfa_offset 4
 2055              		.cfi_offset 7, -4
 2056 0002 83B0     		sub	sp, sp, #12
 2057              	.LCFI55:
 2058              		.cfi_def_cfa_offset 16
 2059 0004 00AF     		add	r7, sp, #0
ARM GAS  /tmp/ccIc9xCh.s 			page 55


 2060              	.LCFI56:
 2061              		.cfi_def_cfa_register 7
 2062 0006 7860     		str	r0, [r7, #4]
1027:./Libraries/STM32F4xx_HAL_Driver/Src/stm32f4xx_hal_i2s.c ****   /* Process Locked */
1028:./Libraries/STM32F4xx_HAL_Driver/Src/stm32f4xx_hal_i2s.c ****   __HAL_LOCK(hi2s);
 2063              		.loc 1 1028 3
 2064 0008 7B68     		ldr	r3, [r7, #4]
 2065 000a 93F84030 		ldrb	r3, [r3, #64]
 2066 000e DBB2     		uxtb	r3, r3
 2067 0010 012B     		cmp	r3, #1
 2068 0012 01D1     		bne	.L110
 2069              		.loc 1 1028 3 is_stmt 0 discriminator 1
 2070 0014 0223     		movs	r3, #2
 2071 0016 4AE0     		b	.L111
 2072              	.L110:
 2073              		.loc 1 1028 3 discriminator 2
 2074 0018 7B68     		ldr	r3, [r7, #4]
 2075 001a 0122     		movs	r2, #1
 2076 001c 83F84020 		strb	r2, [r3, #64]
1029:./Libraries/STM32F4xx_HAL_Driver/Src/stm32f4xx_hal_i2s.c **** 
1030:./Libraries/STM32F4xx_HAL_Driver/Src/stm32f4xx_hal_i2s.c ****   if(hi2s->State == HAL_I2S_STATE_BUSY_TX)
 2077              		.loc 1 1030 10 is_stmt 1 discriminator 2
 2078 0020 7B68     		ldr	r3, [r7, #4]
 2079 0022 93F84130 		ldrb	r3, [r3, #65]
 2080 0026 DBB2     		uxtb	r3, r3
 2081              		.loc 1 1030 5 discriminator 2
 2082 0028 032B     		cmp	r3, #3
 2083 002a 08D1     		bne	.L112
1031:./Libraries/STM32F4xx_HAL_Driver/Src/stm32f4xx_hal_i2s.c ****   {
1032:./Libraries/STM32F4xx_HAL_Driver/Src/stm32f4xx_hal_i2s.c ****     /* Disable the I2S DMA Tx request */
1033:./Libraries/STM32F4xx_HAL_Driver/Src/stm32f4xx_hal_i2s.c ****     CLEAR_BIT(hi2s->Instance->CR2,SPI_CR2_TXDMAEN);
 2084              		.loc 1 1033 5
 2085 002c 7B68     		ldr	r3, [r7, #4]
 2086 002e 1B68     		ldr	r3, [r3]
 2087 0030 5A68     		ldr	r2, [r3, #4]
 2088 0032 7B68     		ldr	r3, [r7, #4]
 2089 0034 1B68     		ldr	r3, [r3]
 2090 0036 22F00202 		bic	r2, r2, #2
 2091 003a 5A60     		str	r2, [r3, #4]
 2092 003c 32E0     		b	.L113
 2093              	.L112:
1034:./Libraries/STM32F4xx_HAL_Driver/Src/stm32f4xx_hal_i2s.c ****   }
1035:./Libraries/STM32F4xx_HAL_Driver/Src/stm32f4xx_hal_i2s.c ****   else if(hi2s->State == HAL_I2S_STATE_BUSY_RX)
 2094              		.loc 1 1035 15
 2095 003e 7B68     		ldr	r3, [r7, #4]
 2096 0040 93F84130 		ldrb	r3, [r3, #65]
 2097 0044 DBB2     		uxtb	r3, r3
 2098              		.loc 1 1035 10
 2099 0046 042B     		cmp	r3, #4
 2100 0048 08D1     		bne	.L114
1036:./Libraries/STM32F4xx_HAL_Driver/Src/stm32f4xx_hal_i2s.c ****   {
1037:./Libraries/STM32F4xx_HAL_Driver/Src/stm32f4xx_hal_i2s.c ****     /* Disable the I2S DMA Rx request */
1038:./Libraries/STM32F4xx_HAL_Driver/Src/stm32f4xx_hal_i2s.c ****     CLEAR_BIT(hi2s->Instance->CR2,SPI_CR2_RXDMAEN);
 2101              		.loc 1 1038 5
 2102 004a 7B68     		ldr	r3, [r7, #4]
 2103 004c 1B68     		ldr	r3, [r3]
 2104 004e 5A68     		ldr	r2, [r3, #4]
ARM GAS  /tmp/ccIc9xCh.s 			page 56


 2105 0050 7B68     		ldr	r3, [r7, #4]
 2106 0052 1B68     		ldr	r3, [r3]
 2107 0054 22F00102 		bic	r2, r2, #1
 2108 0058 5A60     		str	r2, [r3, #4]
 2109 005a 23E0     		b	.L113
 2110              	.L114:
1039:./Libraries/STM32F4xx_HAL_Driver/Src/stm32f4xx_hal_i2s.c ****   }
1040:./Libraries/STM32F4xx_HAL_Driver/Src/stm32f4xx_hal_i2s.c **** #if defined (SPI_I2S_FULLDUPLEX_SUPPORT)
1041:./Libraries/STM32F4xx_HAL_Driver/Src/stm32f4xx_hal_i2s.c ****   else if(hi2s->State == HAL_I2S_STATE_BUSY_TX_RX)
 2111              		.loc 1 1041 15
 2112 005c 7B68     		ldr	r3, [r7, #4]
 2113 005e 93F84130 		ldrb	r3, [r3, #65]
 2114 0062 DBB2     		uxtb	r3, r3
 2115              		.loc 1 1041 10
 2116 0064 052B     		cmp	r3, #5
 2117 0066 1DD1     		bne	.L113
1042:./Libraries/STM32F4xx_HAL_Driver/Src/stm32f4xx_hal_i2s.c ****   {
1043:./Libraries/STM32F4xx_HAL_Driver/Src/stm32f4xx_hal_i2s.c ****     /* Pause the audio file playing by disabling the I2S DMA request */
1044:./Libraries/STM32F4xx_HAL_Driver/Src/stm32f4xx_hal_i2s.c ****     CLEAR_BIT(hi2s->Instance->CR2,(SPI_CR2_TXDMAEN|SPI_CR2_RXDMAEN));
 2118              		.loc 1 1044 5
 2119 0068 7B68     		ldr	r3, [r7, #4]
 2120 006a 1B68     		ldr	r3, [r3]
 2121 006c 5A68     		ldr	r2, [r3, #4]
 2122 006e 7B68     		ldr	r3, [r7, #4]
 2123 0070 1B68     		ldr	r3, [r3]
 2124 0072 22F00302 		bic	r2, r2, #3
 2125 0076 5A60     		str	r2, [r3, #4]
1045:./Libraries/STM32F4xx_HAL_Driver/Src/stm32f4xx_hal_i2s.c ****     CLEAR_BIT(I2SxEXT(hi2s->Instance)->CR2,(SPI_CR2_TXDMAEN|SPI_CR2_RXDMAEN));
 2126              		.loc 1 1045 5
 2127 0078 7B68     		ldr	r3, [r7, #4]
 2128 007a 1B68     		ldr	r3, [r3]
 2129 007c 0F4A     		ldr	r2, .L119
 2130 007e 9342     		cmp	r3, r2
 2131 0080 01D1     		bne	.L115
 2132              		.loc 1 1045 5 is_stmt 0 discriminator 1
 2133 0082 0F4B     		ldr	r3, .L119+4
 2134 0084 01E0     		b	.L116
 2135              	.L115:
 2136              		.loc 1 1045 5 discriminator 2
 2137 0086 4FF04023 		mov	r3, #1073758208
 2138              	.L116:
 2139              		.loc 1 1045 5 discriminator 4
 2140 008a 5A68     		ldr	r2, [r3, #4]
 2141 008c 7B68     		ldr	r3, [r7, #4]
 2142 008e 1B68     		ldr	r3, [r3]
 2143 0090 0A49     		ldr	r1, .L119
 2144 0092 8B42     		cmp	r3, r1
 2145 0094 01D1     		bne	.L117
 2146              		.loc 1 1045 5 discriminator 5
 2147 0096 0A4B     		ldr	r3, .L119+4
 2148 0098 01E0     		b	.L118
 2149              	.L117:
 2150              		.loc 1 1045 5 discriminator 6
 2151 009a 4FF04023 		mov	r3, #1073758208
 2152              	.L118:
 2153              		.loc 1 1045 5 discriminator 8
 2154 009e 22F00302 		bic	r2, r2, #3
ARM GAS  /tmp/ccIc9xCh.s 			page 57


 2155 00a2 5A60     		str	r2, [r3, #4]
 2156              	.L113:
1046:./Libraries/STM32F4xx_HAL_Driver/Src/stm32f4xx_hal_i2s.c ****   }
1047:./Libraries/STM32F4xx_HAL_Driver/Src/stm32f4xx_hal_i2s.c **** #endif /* SPI_I2S_FULLDUPLEX_SUPPORT */
1048:./Libraries/STM32F4xx_HAL_Driver/Src/stm32f4xx_hal_i2s.c **** 
1049:./Libraries/STM32F4xx_HAL_Driver/Src/stm32f4xx_hal_i2s.c ****   /* Process Unlocked */
1050:./Libraries/STM32F4xx_HAL_Driver/Src/stm32f4xx_hal_i2s.c ****   __HAL_UNLOCK(hi2s);
 2157              		.loc 1 1050 3 is_stmt 1
 2158 00a4 7B68     		ldr	r3, [r7, #4]
 2159 00a6 0022     		movs	r2, #0
 2160 00a8 83F84020 		strb	r2, [r3, #64]
1051:./Libraries/STM32F4xx_HAL_Driver/Src/stm32f4xx_hal_i2s.c **** 
1052:./Libraries/STM32F4xx_HAL_Driver/Src/stm32f4xx_hal_i2s.c ****   return HAL_OK;
 2161              		.loc 1 1052 10
 2162 00ac 0023     		movs	r3, #0
 2163              	.L111:
1053:./Libraries/STM32F4xx_HAL_Driver/Src/stm32f4xx_hal_i2s.c **** }
 2164              		.loc 1 1053 1
 2165 00ae 1846     		mov	r0, r3
 2166 00b0 0C37     		adds	r7, r7, #12
 2167              	.LCFI57:
 2168              		.cfi_def_cfa_offset 4
 2169 00b2 BD46     		mov	sp, r7
 2170              	.LCFI58:
 2171              		.cfi_def_cfa_register 13
 2172              		@ sp needed
 2173 00b4 5DF8047B 		ldr	r7, [sp], #4
 2174              	.LCFI59:
 2175              		.cfi_restore 7
 2176              		.cfi_def_cfa_offset 0
 2177 00b8 7047     		bx	lr
 2178              	.L120:
 2179 00ba 00BF     		.align	2
 2180              	.L119:
 2181 00bc 00380040 		.word	1073756160
 2182 00c0 00340040 		.word	1073755136
 2183              		.cfi_endproc
 2184              	.LFE136:
 2186              		.section	.text.HAL_I2S_DMAResume,"ax",%progbits
 2187              		.align	1
 2188              		.global	HAL_I2S_DMAResume
 2189              		.syntax unified
 2190              		.thumb
 2191              		.thumb_func
 2192              		.fpu fpv4-sp-d16
 2194              	HAL_I2S_DMAResume:
 2195              	.LFB137:
1054:./Libraries/STM32F4xx_HAL_Driver/Src/stm32f4xx_hal_i2s.c **** 
1055:./Libraries/STM32F4xx_HAL_Driver/Src/stm32f4xx_hal_i2s.c **** /**
1056:./Libraries/STM32F4xx_HAL_Driver/Src/stm32f4xx_hal_i2s.c ****   * @brief Resumes the audio stream playing from the Media.
1057:./Libraries/STM32F4xx_HAL_Driver/Src/stm32f4xx_hal_i2s.c ****   * @param  hi2s pointer to a I2S_HandleTypeDef structure that contains
1058:./Libraries/STM32F4xx_HAL_Driver/Src/stm32f4xx_hal_i2s.c ****   *         the configuration information for I2S module
1059:./Libraries/STM32F4xx_HAL_Driver/Src/stm32f4xx_hal_i2s.c ****   * @retval HAL status
1060:./Libraries/STM32F4xx_HAL_Driver/Src/stm32f4xx_hal_i2s.c ****   */
1061:./Libraries/STM32F4xx_HAL_Driver/Src/stm32f4xx_hal_i2s.c **** HAL_StatusTypeDef HAL_I2S_DMAResume(I2S_HandleTypeDef *hi2s)
1062:./Libraries/STM32F4xx_HAL_Driver/Src/stm32f4xx_hal_i2s.c **** {
 2196              		.loc 1 1062 1
ARM GAS  /tmp/ccIc9xCh.s 			page 58


 2197              		.cfi_startproc
 2198              		@ args = 0, pretend = 0, frame = 8
 2199              		@ frame_needed = 1, uses_anonymous_args = 0
 2200              		@ link register save eliminated.
 2201 0000 80B4     		push	{r7}
 2202              	.LCFI60:
 2203              		.cfi_def_cfa_offset 4
 2204              		.cfi_offset 7, -4
 2205 0002 83B0     		sub	sp, sp, #12
 2206              	.LCFI61:
 2207              		.cfi_def_cfa_offset 16
 2208 0004 00AF     		add	r7, sp, #0
 2209              	.LCFI62:
 2210              		.cfi_def_cfa_register 7
 2211 0006 7860     		str	r0, [r7, #4]
1063:./Libraries/STM32F4xx_HAL_Driver/Src/stm32f4xx_hal_i2s.c ****   /* Process Locked */
1064:./Libraries/STM32F4xx_HAL_Driver/Src/stm32f4xx_hal_i2s.c ****   __HAL_LOCK(hi2s);
 2212              		.loc 1 1064 3
 2213 0008 7B68     		ldr	r3, [r7, #4]
 2214 000a 93F84030 		ldrb	r3, [r3, #64]
 2215 000e DBB2     		uxtb	r3, r3
 2216 0010 012B     		cmp	r3, #1
 2217 0012 01D1     		bne	.L122
 2218              		.loc 1 1064 3 is_stmt 0 discriminator 1
 2219 0014 0223     		movs	r3, #2
 2220 0016 7DE0     		b	.L123
 2221              	.L122:
 2222              		.loc 1 1064 3 discriminator 2
 2223 0018 7B68     		ldr	r3, [r7, #4]
 2224 001a 0122     		movs	r2, #1
 2225 001c 83F84020 		strb	r2, [r3, #64]
1065:./Libraries/STM32F4xx_HAL_Driver/Src/stm32f4xx_hal_i2s.c **** 
1066:./Libraries/STM32F4xx_HAL_Driver/Src/stm32f4xx_hal_i2s.c ****   if(hi2s->State == HAL_I2S_STATE_BUSY_TX)
 2226              		.loc 1 1066 10 is_stmt 1 discriminator 2
 2227 0020 7B68     		ldr	r3, [r7, #4]
 2228 0022 93F84130 		ldrb	r3, [r3, #65]
 2229 0026 DBB2     		uxtb	r3, r3
 2230              		.loc 1 1066 5 discriminator 2
 2231 0028 032B     		cmp	r3, #3
 2232 002a 08D1     		bne	.L124
1067:./Libraries/STM32F4xx_HAL_Driver/Src/stm32f4xx_hal_i2s.c ****   {
1068:./Libraries/STM32F4xx_HAL_Driver/Src/stm32f4xx_hal_i2s.c ****     /* Enable the I2S DMA Tx request */
1069:./Libraries/STM32F4xx_HAL_Driver/Src/stm32f4xx_hal_i2s.c ****     SET_BIT(hi2s->Instance->CR2,SPI_CR2_TXDMAEN);
 2233              		.loc 1 1069 5
 2234 002c 7B68     		ldr	r3, [r7, #4]
 2235 002e 1B68     		ldr	r3, [r3]
 2236 0030 5A68     		ldr	r2, [r3, #4]
 2237 0032 7B68     		ldr	r3, [r7, #4]
 2238 0034 1B68     		ldr	r3, [r3]
 2239 0036 42F00202 		orr	r2, r2, #2
 2240 003a 5A60     		str	r2, [r3, #4]
 2241 003c 56E0     		b	.L125
 2242              	.L124:
1070:./Libraries/STM32F4xx_HAL_Driver/Src/stm32f4xx_hal_i2s.c ****   }
1071:./Libraries/STM32F4xx_HAL_Driver/Src/stm32f4xx_hal_i2s.c ****   else if(hi2s->State == HAL_I2S_STATE_BUSY_RX)
 2243              		.loc 1 1071 15
 2244 003e 7B68     		ldr	r3, [r7, #4]
ARM GAS  /tmp/ccIc9xCh.s 			page 59


 2245 0040 93F84130 		ldrb	r3, [r3, #65]
 2246 0044 DBB2     		uxtb	r3, r3
 2247              		.loc 1 1071 10
 2248 0046 042B     		cmp	r3, #4
 2249 0048 08D1     		bne	.L126
1072:./Libraries/STM32F4xx_HAL_Driver/Src/stm32f4xx_hal_i2s.c ****   {
1073:./Libraries/STM32F4xx_HAL_Driver/Src/stm32f4xx_hal_i2s.c ****     /* Enable the I2S DMA Rx request */
1074:./Libraries/STM32F4xx_HAL_Driver/Src/stm32f4xx_hal_i2s.c ****     SET_BIT(hi2s->Instance->CR2,SPI_CR2_RXDMAEN);
 2250              		.loc 1 1074 5
 2251 004a 7B68     		ldr	r3, [r7, #4]
 2252 004c 1B68     		ldr	r3, [r3]
 2253 004e 5A68     		ldr	r2, [r3, #4]
 2254 0050 7B68     		ldr	r3, [r7, #4]
 2255 0052 1B68     		ldr	r3, [r3]
 2256 0054 42F00102 		orr	r2, r2, #1
 2257 0058 5A60     		str	r2, [r3, #4]
 2258 005a 47E0     		b	.L125
 2259              	.L126:
1075:./Libraries/STM32F4xx_HAL_Driver/Src/stm32f4xx_hal_i2s.c ****   }
1076:./Libraries/STM32F4xx_HAL_Driver/Src/stm32f4xx_hal_i2s.c **** #if defined (SPI_I2S_FULLDUPLEX_SUPPORT)
1077:./Libraries/STM32F4xx_HAL_Driver/Src/stm32f4xx_hal_i2s.c ****   else if(hi2s->State == HAL_I2S_STATE_BUSY_TX_RX)
 2260              		.loc 1 1077 15
 2261 005c 7B68     		ldr	r3, [r7, #4]
 2262 005e 93F84130 		ldrb	r3, [r3, #65]
 2263 0062 DBB2     		uxtb	r3, r3
 2264              		.loc 1 1077 10
 2265 0064 052B     		cmp	r3, #5
 2266 0066 41D1     		bne	.L125
1078:./Libraries/STM32F4xx_HAL_Driver/Src/stm32f4xx_hal_i2s.c ****   {
1079:./Libraries/STM32F4xx_HAL_Driver/Src/stm32f4xx_hal_i2s.c ****     /* Pause the audio file playing by disabling the I2S DMA request */
1080:./Libraries/STM32F4xx_HAL_Driver/Src/stm32f4xx_hal_i2s.c ****     SET_BIT(hi2s->Instance->CR2,(SPI_CR2_RXDMAEN | SPI_CR2_TXDMAEN));
 2267              		.loc 1 1080 5
 2268 0068 7B68     		ldr	r3, [r7, #4]
 2269 006a 1B68     		ldr	r3, [r3]
 2270 006c 5A68     		ldr	r2, [r3, #4]
 2271 006e 7B68     		ldr	r3, [r7, #4]
 2272 0070 1B68     		ldr	r3, [r3]
 2273 0072 42F00302 		orr	r2, r2, #3
 2274 0076 5A60     		str	r2, [r3, #4]
1081:./Libraries/STM32F4xx_HAL_Driver/Src/stm32f4xx_hal_i2s.c ****     SET_BIT(I2SxEXT(hi2s->Instance)->CR2,(SPI_CR2_RXDMAEN | SPI_CR2_TXDMAEN));
 2275              		.loc 1 1081 5
 2276 0078 7B68     		ldr	r3, [r7, #4]
 2277 007a 1B68     		ldr	r3, [r3]
 2278 007c 284A     		ldr	r2, .L138
 2279 007e 9342     		cmp	r3, r2
 2280 0080 01D1     		bne	.L127
 2281              		.loc 1 1081 5 is_stmt 0 discriminator 1
 2282 0082 284B     		ldr	r3, .L138+4
 2283 0084 01E0     		b	.L128
 2284              	.L127:
 2285              		.loc 1 1081 5 discriminator 2
 2286 0086 4FF04023 		mov	r3, #1073758208
 2287              	.L128:
 2288              		.loc 1 1081 5 discriminator 4
 2289 008a 5A68     		ldr	r2, [r3, #4]
 2290 008c 7B68     		ldr	r3, [r7, #4]
 2291 008e 1B68     		ldr	r3, [r3]
ARM GAS  /tmp/ccIc9xCh.s 			page 60


 2292 0090 2349     		ldr	r1, .L138
 2293 0092 8B42     		cmp	r3, r1
 2294 0094 01D1     		bne	.L129
 2295              		.loc 1 1081 5 discriminator 5
 2296 0096 234B     		ldr	r3, .L138+4
 2297 0098 01E0     		b	.L130
 2298              	.L129:
 2299              		.loc 1 1081 5 discriminator 6
 2300 009a 4FF04023 		mov	r3, #1073758208
 2301              	.L130:
 2302              		.loc 1 1081 5 discriminator 8
 2303 009e 42F00302 		orr	r2, r2, #3
 2304 00a2 5A60     		str	r2, [r3, #4]
1082:./Libraries/STM32F4xx_HAL_Driver/Src/stm32f4xx_hal_i2s.c **** 
1083:./Libraries/STM32F4xx_HAL_Driver/Src/stm32f4xx_hal_i2s.c ****     /* If the I2Sext peripheral is still not enabled, enable it */
1084:./Libraries/STM32F4xx_HAL_Driver/Src/stm32f4xx_hal_i2s.c ****     if ((I2SxEXT(hi2s->Instance)->I2SCFGR & SPI_I2SCFGR_I2SE) == 0U)
 2305              		.loc 1 1084 10 is_stmt 1 discriminator 8
 2306 00a4 7B68     		ldr	r3, [r7, #4]
 2307 00a6 1B68     		ldr	r3, [r3]
 2308 00a8 1D4A     		ldr	r2, .L138
 2309 00aa 9342     		cmp	r3, r2
 2310 00ac 01D1     		bne	.L131
 2311              		.loc 1 1084 10 is_stmt 0 discriminator 1
 2312 00ae 1D4B     		ldr	r3, .L138+4
 2313 00b0 01E0     		b	.L132
 2314              	.L131:
 2315              		.loc 1 1084 10 discriminator 2
 2316 00b2 4FF04023 		mov	r3, #1073758208
 2317              	.L132:
 2318              		.loc 1 1084 33 is_stmt 1 discriminator 4
 2319 00b6 DB69     		ldr	r3, [r3, #28]
 2320              		.loc 1 1084 43 discriminator 4
 2321 00b8 03F48063 		and	r3, r3, #1024
 2322              		.loc 1 1084 8 discriminator 4
 2323 00bc 002B     		cmp	r3, #0
 2324 00be 15D1     		bne	.L125
1085:./Libraries/STM32F4xx_HAL_Driver/Src/stm32f4xx_hal_i2s.c ****     {
1086:./Libraries/STM32F4xx_HAL_Driver/Src/stm32f4xx_hal_i2s.c ****       /* Enable I2Sext peripheral */
1087:./Libraries/STM32F4xx_HAL_Driver/Src/stm32f4xx_hal_i2s.c ****       __HAL_I2SEXT_ENABLE(hi2s);
 2325              		.loc 1 1087 7
 2326 00c0 7B68     		ldr	r3, [r7, #4]
 2327 00c2 1B68     		ldr	r3, [r3]
 2328 00c4 164A     		ldr	r2, .L138
 2329 00c6 9342     		cmp	r3, r2
 2330 00c8 01D1     		bne	.L133
 2331              		.loc 1 1087 7 is_stmt 0 discriminator 1
 2332 00ca 164B     		ldr	r3, .L138+4
 2333 00cc 01E0     		b	.L134
 2334              	.L133:
 2335              		.loc 1 1087 7 discriminator 2
 2336 00ce 4FF04023 		mov	r3, #1073758208
 2337              	.L134:
 2338              		.loc 1 1087 7 discriminator 4
 2339 00d2 DA69     		ldr	r2, [r3, #28]
 2340 00d4 7B68     		ldr	r3, [r7, #4]
 2341 00d6 1B68     		ldr	r3, [r3]
 2342 00d8 1149     		ldr	r1, .L138
ARM GAS  /tmp/ccIc9xCh.s 			page 61


 2343 00da 8B42     		cmp	r3, r1
 2344 00dc 01D1     		bne	.L135
 2345              		.loc 1 1087 7 discriminator 5
 2346 00de 114B     		ldr	r3, .L138+4
 2347 00e0 01E0     		b	.L136
 2348              	.L135:
 2349              		.loc 1 1087 7 discriminator 6
 2350 00e2 4FF04023 		mov	r3, #1073758208
 2351              	.L136:
 2352              		.loc 1 1087 7 discriminator 8
 2353 00e6 42F48062 		orr	r2, r2, #1024
 2354 00ea DA61     		str	r2, [r3, #28]
 2355              	.L125:
1088:./Libraries/STM32F4xx_HAL_Driver/Src/stm32f4xx_hal_i2s.c ****     }
1089:./Libraries/STM32F4xx_HAL_Driver/Src/stm32f4xx_hal_i2s.c ****   }
1090:./Libraries/STM32F4xx_HAL_Driver/Src/stm32f4xx_hal_i2s.c **** #endif /* SPI_I2S_FULLDUPLEX_SUPPORT */
1091:./Libraries/STM32F4xx_HAL_Driver/Src/stm32f4xx_hal_i2s.c **** 
1092:./Libraries/STM32F4xx_HAL_Driver/Src/stm32f4xx_hal_i2s.c ****   /* If the I2S peripheral is still not enabled, enable it */
1093:./Libraries/STM32F4xx_HAL_Driver/Src/stm32f4xx_hal_i2s.c ****   if ((hi2s->Instance->I2SCFGR & SPI_I2SCFGR_I2SE) == 0U)
 2356              		.loc 1 1093 12 is_stmt 1
 2357 00ec 7B68     		ldr	r3, [r7, #4]
 2358 00ee 1B68     		ldr	r3, [r3]
 2359              		.loc 1 1093 22
 2360 00f0 DB69     		ldr	r3, [r3, #28]
 2361              		.loc 1 1093 32
 2362 00f2 03F48063 		and	r3, r3, #1024
 2363              		.loc 1 1093 6
 2364 00f6 002B     		cmp	r3, #0
 2365 00f8 07D1     		bne	.L137
1094:./Libraries/STM32F4xx_HAL_Driver/Src/stm32f4xx_hal_i2s.c ****   {
1095:./Libraries/STM32F4xx_HAL_Driver/Src/stm32f4xx_hal_i2s.c ****     /* Enable I2S peripheral */
1096:./Libraries/STM32F4xx_HAL_Driver/Src/stm32f4xx_hal_i2s.c ****     __HAL_I2S_ENABLE(hi2s);
 2366              		.loc 1 1096 5
 2367 00fa 7B68     		ldr	r3, [r7, #4]
 2368 00fc 1B68     		ldr	r3, [r3]
 2369 00fe DA69     		ldr	r2, [r3, #28]
 2370 0100 7B68     		ldr	r3, [r7, #4]
 2371 0102 1B68     		ldr	r3, [r3]
 2372 0104 42F48062 		orr	r2, r2, #1024
 2373 0108 DA61     		str	r2, [r3, #28]
 2374              	.L137:
1097:./Libraries/STM32F4xx_HAL_Driver/Src/stm32f4xx_hal_i2s.c ****   }
1098:./Libraries/STM32F4xx_HAL_Driver/Src/stm32f4xx_hal_i2s.c **** 
1099:./Libraries/STM32F4xx_HAL_Driver/Src/stm32f4xx_hal_i2s.c ****   /* Process Unlocked */
1100:./Libraries/STM32F4xx_HAL_Driver/Src/stm32f4xx_hal_i2s.c ****   __HAL_UNLOCK(hi2s);
 2375              		.loc 1 1100 3
 2376 010a 7B68     		ldr	r3, [r7, #4]
 2377 010c 0022     		movs	r2, #0
 2378 010e 83F84020 		strb	r2, [r3, #64]
1101:./Libraries/STM32F4xx_HAL_Driver/Src/stm32f4xx_hal_i2s.c **** 
1102:./Libraries/STM32F4xx_HAL_Driver/Src/stm32f4xx_hal_i2s.c ****   return HAL_OK;
 2379              		.loc 1 1102 10
 2380 0112 0023     		movs	r3, #0
 2381              	.L123:
1103:./Libraries/STM32F4xx_HAL_Driver/Src/stm32f4xx_hal_i2s.c **** }
 2382              		.loc 1 1103 1
 2383 0114 1846     		mov	r0, r3
ARM GAS  /tmp/ccIc9xCh.s 			page 62


 2384 0116 0C37     		adds	r7, r7, #12
 2385              	.LCFI63:
 2386              		.cfi_def_cfa_offset 4
 2387 0118 BD46     		mov	sp, r7
 2388              	.LCFI64:
 2389              		.cfi_def_cfa_register 13
 2390              		@ sp needed
 2391 011a 5DF8047B 		ldr	r7, [sp], #4
 2392              	.LCFI65:
 2393              		.cfi_restore 7
 2394              		.cfi_def_cfa_offset 0
 2395 011e 7047     		bx	lr
 2396              	.L139:
 2397              		.align	2
 2398              	.L138:
 2399 0120 00380040 		.word	1073756160
 2400 0124 00340040 		.word	1073755136
 2401              		.cfi_endproc
 2402              	.LFE137:
 2404              		.section	.text.HAL_I2S_DMAStop,"ax",%progbits
 2405              		.align	1
 2406              		.global	HAL_I2S_DMAStop
 2407              		.syntax unified
 2408              		.thumb
 2409              		.thumb_func
 2410              		.fpu fpv4-sp-d16
 2412              	HAL_I2S_DMAStop:
 2413              	.LFB138:
1104:./Libraries/STM32F4xx_HAL_Driver/Src/stm32f4xx_hal_i2s.c **** 
1105:./Libraries/STM32F4xx_HAL_Driver/Src/stm32f4xx_hal_i2s.c **** /**
1106:./Libraries/STM32F4xx_HAL_Driver/Src/stm32f4xx_hal_i2s.c ****   * @brief Resumes the audio stream playing from the Media.
1107:./Libraries/STM32F4xx_HAL_Driver/Src/stm32f4xx_hal_i2s.c ****   * @param  hi2s pointer to a I2S_HandleTypeDef structure that contains
1108:./Libraries/STM32F4xx_HAL_Driver/Src/stm32f4xx_hal_i2s.c ****   *         the configuration information for I2S module
1109:./Libraries/STM32F4xx_HAL_Driver/Src/stm32f4xx_hal_i2s.c ****   * @retval HAL status
1110:./Libraries/STM32F4xx_HAL_Driver/Src/stm32f4xx_hal_i2s.c ****   */
1111:./Libraries/STM32F4xx_HAL_Driver/Src/stm32f4xx_hal_i2s.c **** HAL_StatusTypeDef HAL_I2S_DMAStop(I2S_HandleTypeDef *hi2s)
1112:./Libraries/STM32F4xx_HAL_Driver/Src/stm32f4xx_hal_i2s.c **** {
 2414              		.loc 1 1112 1
 2415              		.cfi_startproc
 2416              		@ args = 0, pretend = 0, frame = 8
 2417              		@ frame_needed = 1, uses_anonymous_args = 0
 2418 0000 80B5     		push	{r7, lr}
 2419              	.LCFI66:
 2420              		.cfi_def_cfa_offset 8
 2421              		.cfi_offset 7, -8
 2422              		.cfi_offset 14, -4
 2423 0002 82B0     		sub	sp, sp, #8
 2424              	.LCFI67:
 2425              		.cfi_def_cfa_offset 16
 2426 0004 00AF     		add	r7, sp, #0
 2427              	.LCFI68:
 2428              		.cfi_def_cfa_register 7
 2429 0006 7860     		str	r0, [r7, #4]
1113:./Libraries/STM32F4xx_HAL_Driver/Src/stm32f4xx_hal_i2s.c ****   /* Process Locked */
1114:./Libraries/STM32F4xx_HAL_Driver/Src/stm32f4xx_hal_i2s.c ****   __HAL_LOCK(hi2s);
 2430              		.loc 1 1114 3
 2431 0008 7B68     		ldr	r3, [r7, #4]
ARM GAS  /tmp/ccIc9xCh.s 			page 63


 2432 000a 93F84030 		ldrb	r3, [r3, #64]
 2433 000e DBB2     		uxtb	r3, r3
 2434 0010 012B     		cmp	r3, #1
 2435 0012 01D1     		bne	.L141
 2436              		.loc 1 1114 3 is_stmt 0 discriminator 1
 2437 0014 0223     		movs	r3, #2
 2438 0016 81E0     		b	.L142
 2439              	.L141:
 2440              		.loc 1 1114 3 discriminator 2
 2441 0018 7B68     		ldr	r3, [r7, #4]
 2442 001a 0122     		movs	r2, #1
 2443 001c 83F84020 		strb	r2, [r3, #64]
1115:./Libraries/STM32F4xx_HAL_Driver/Src/stm32f4xx_hal_i2s.c **** 
1116:./Libraries/STM32F4xx_HAL_Driver/Src/stm32f4xx_hal_i2s.c ****   if(hi2s->State == HAL_I2S_STATE_BUSY_TX)
 2444              		.loc 1 1116 10 is_stmt 1 discriminator 2
 2445 0020 7B68     		ldr	r3, [r7, #4]
 2446 0022 93F84130 		ldrb	r3, [r3, #65]
 2447 0026 DBB2     		uxtb	r3, r3
 2448              		.loc 1 1116 5 discriminator 2
 2449 0028 032B     		cmp	r3, #3
 2450 002a 0DD1     		bne	.L143
1117:./Libraries/STM32F4xx_HAL_Driver/Src/stm32f4xx_hal_i2s.c ****   {
1118:./Libraries/STM32F4xx_HAL_Driver/Src/stm32f4xx_hal_i2s.c ****     /* Disable the I2S DMA requests */
1119:./Libraries/STM32F4xx_HAL_Driver/Src/stm32f4xx_hal_i2s.c ****     CLEAR_BIT(hi2s->Instance->CR2,SPI_CR2_TXDMAEN);
 2451              		.loc 1 1119 5
 2452 002c 7B68     		ldr	r3, [r7, #4]
 2453 002e 1B68     		ldr	r3, [r3]
 2454 0030 5A68     		ldr	r2, [r3, #4]
 2455 0032 7B68     		ldr	r3, [r7, #4]
 2456 0034 1B68     		ldr	r3, [r3]
 2457 0036 22F00202 		bic	r2, r2, #2
 2458 003a 5A60     		str	r2, [r3, #4]
1120:./Libraries/STM32F4xx_HAL_Driver/Src/stm32f4xx_hal_i2s.c **** 
1121:./Libraries/STM32F4xx_HAL_Driver/Src/stm32f4xx_hal_i2s.c ****     /* Disable the I2S DMA Channel */
1122:./Libraries/STM32F4xx_HAL_Driver/Src/stm32f4xx_hal_i2s.c ****     HAL_DMA_Abort(hi2s->hdmatx);
 2459              		.loc 1 1122 5
 2460 003c 7B68     		ldr	r3, [r7, #4]
 2461 003e 9B6B     		ldr	r3, [r3, #56]
 2462 0040 1846     		mov	r0, r3
 2463 0042 FFF7FEFF 		bl	HAL_DMA_Abort
 2464 0046 57E0     		b	.L144
 2465              	.L143:
1123:./Libraries/STM32F4xx_HAL_Driver/Src/stm32f4xx_hal_i2s.c ****   }
1124:./Libraries/STM32F4xx_HAL_Driver/Src/stm32f4xx_hal_i2s.c ****   else if(hi2s->State == HAL_I2S_STATE_BUSY_RX)
 2466              		.loc 1 1124 15
 2467 0048 7B68     		ldr	r3, [r7, #4]
 2468 004a 93F84130 		ldrb	r3, [r3, #65]
 2469 004e DBB2     		uxtb	r3, r3
 2470              		.loc 1 1124 10
 2471 0050 042B     		cmp	r3, #4
 2472 0052 0DD1     		bne	.L145
1125:./Libraries/STM32F4xx_HAL_Driver/Src/stm32f4xx_hal_i2s.c ****   {
1126:./Libraries/STM32F4xx_HAL_Driver/Src/stm32f4xx_hal_i2s.c ****     /* Disable the I2S DMA requests */
1127:./Libraries/STM32F4xx_HAL_Driver/Src/stm32f4xx_hal_i2s.c ****     CLEAR_BIT(hi2s->Instance->CR2,SPI_CR2_RXDMAEN);
 2473              		.loc 1 1127 5
 2474 0054 7B68     		ldr	r3, [r7, #4]
 2475 0056 1B68     		ldr	r3, [r3]
ARM GAS  /tmp/ccIc9xCh.s 			page 64


 2476 0058 5A68     		ldr	r2, [r3, #4]
 2477 005a 7B68     		ldr	r3, [r7, #4]
 2478 005c 1B68     		ldr	r3, [r3]
 2479 005e 22F00102 		bic	r2, r2, #1
 2480 0062 5A60     		str	r2, [r3, #4]
1128:./Libraries/STM32F4xx_HAL_Driver/Src/stm32f4xx_hal_i2s.c **** 
1129:./Libraries/STM32F4xx_HAL_Driver/Src/stm32f4xx_hal_i2s.c ****     /* Disable the I2S DMA Channel */
1130:./Libraries/STM32F4xx_HAL_Driver/Src/stm32f4xx_hal_i2s.c ****     HAL_DMA_Abort(hi2s->hdmarx);
 2481              		.loc 1 1130 5
 2482 0064 7B68     		ldr	r3, [r7, #4]
 2483 0066 DB6B     		ldr	r3, [r3, #60]
 2484 0068 1846     		mov	r0, r3
 2485 006a FFF7FEFF 		bl	HAL_DMA_Abort
 2486 006e 43E0     		b	.L144
 2487              	.L145:
1131:./Libraries/STM32F4xx_HAL_Driver/Src/stm32f4xx_hal_i2s.c ****   }
1132:./Libraries/STM32F4xx_HAL_Driver/Src/stm32f4xx_hal_i2s.c **** #if defined (SPI_I2S_FULLDUPLEX_SUPPORT)
1133:./Libraries/STM32F4xx_HAL_Driver/Src/stm32f4xx_hal_i2s.c ****   else if(hi2s->State == HAL_I2S_STATE_BUSY_TX_RX)
 2488              		.loc 1 1133 15
 2489 0070 7B68     		ldr	r3, [r7, #4]
 2490 0072 93F84130 		ldrb	r3, [r3, #65]
 2491 0076 DBB2     		uxtb	r3, r3
 2492              		.loc 1 1133 10
 2493 0078 052B     		cmp	r3, #5
 2494 007a 3DD1     		bne	.L144
1134:./Libraries/STM32F4xx_HAL_Driver/Src/stm32f4xx_hal_i2s.c ****   {
1135:./Libraries/STM32F4xx_HAL_Driver/Src/stm32f4xx_hal_i2s.c ****     /* Disable the I2S DMA requests */
1136:./Libraries/STM32F4xx_HAL_Driver/Src/stm32f4xx_hal_i2s.c ****     CLEAR_BIT(hi2s->Instance->CR2,(SPI_CR2_RXDMAEN | SPI_CR2_TXDMAEN));
 2495              		.loc 1 1136 5
 2496 007c 7B68     		ldr	r3, [r7, #4]
 2497 007e 1B68     		ldr	r3, [r3]
 2498 0080 5A68     		ldr	r2, [r3, #4]
 2499 0082 7B68     		ldr	r3, [r7, #4]
 2500 0084 1B68     		ldr	r3, [r3]
 2501 0086 22F00302 		bic	r2, r2, #3
 2502 008a 5A60     		str	r2, [r3, #4]
1137:./Libraries/STM32F4xx_HAL_Driver/Src/stm32f4xx_hal_i2s.c ****     CLEAR_BIT(I2SxEXT(hi2s->Instance)->CR2,(SPI_CR2_RXDMAEN | SPI_CR2_TXDMAEN));
 2503              		.loc 1 1137 5
 2504 008c 7B68     		ldr	r3, [r7, #4]
 2505 008e 1B68     		ldr	r3, [r3]
 2506 0090 244A     		ldr	r2, .L154
 2507 0092 9342     		cmp	r3, r2
 2508 0094 01D1     		bne	.L146
 2509              		.loc 1 1137 5 is_stmt 0 discriminator 1
 2510 0096 244B     		ldr	r3, .L154+4
 2511 0098 01E0     		b	.L147
 2512              	.L146:
 2513              		.loc 1 1137 5 discriminator 2
 2514 009a 4FF04023 		mov	r3, #1073758208
 2515              	.L147:
 2516              		.loc 1 1137 5 discriminator 4
 2517 009e 5A68     		ldr	r2, [r3, #4]
 2518 00a0 7B68     		ldr	r3, [r7, #4]
 2519 00a2 1B68     		ldr	r3, [r3]
 2520 00a4 1F49     		ldr	r1, .L154
 2521 00a6 8B42     		cmp	r3, r1
 2522 00a8 01D1     		bne	.L148
ARM GAS  /tmp/ccIc9xCh.s 			page 65


 2523              		.loc 1 1137 5 discriminator 5
 2524 00aa 1F4B     		ldr	r3, .L154+4
 2525 00ac 01E0     		b	.L149
 2526              	.L148:
 2527              		.loc 1 1137 5 discriminator 6
 2528 00ae 4FF04023 		mov	r3, #1073758208
 2529              	.L149:
 2530              		.loc 1 1137 5 discriminator 8
 2531 00b2 22F00302 		bic	r2, r2, #3
 2532 00b6 5A60     		str	r2, [r3, #4]
1138:./Libraries/STM32F4xx_HAL_Driver/Src/stm32f4xx_hal_i2s.c **** 
1139:./Libraries/STM32F4xx_HAL_Driver/Src/stm32f4xx_hal_i2s.c ****     /* Disable the I2S DMA Channels */
1140:./Libraries/STM32F4xx_HAL_Driver/Src/stm32f4xx_hal_i2s.c ****     HAL_DMA_Abort(hi2s->hdmatx);
 2533              		.loc 1 1140 5 is_stmt 1 discriminator 8
 2534 00b8 7B68     		ldr	r3, [r7, #4]
 2535 00ba 9B6B     		ldr	r3, [r3, #56]
 2536 00bc 1846     		mov	r0, r3
 2537 00be FFF7FEFF 		bl	HAL_DMA_Abort
1141:./Libraries/STM32F4xx_HAL_Driver/Src/stm32f4xx_hal_i2s.c ****     HAL_DMA_Abort(hi2s->hdmarx);
 2538              		.loc 1 1141 5 discriminator 8
 2539 00c2 7B68     		ldr	r3, [r7, #4]
 2540 00c4 DB6B     		ldr	r3, [r3, #60]
 2541 00c6 1846     		mov	r0, r3
 2542 00c8 FFF7FEFF 		bl	HAL_DMA_Abort
1142:./Libraries/STM32F4xx_HAL_Driver/Src/stm32f4xx_hal_i2s.c **** 
1143:./Libraries/STM32F4xx_HAL_Driver/Src/stm32f4xx_hal_i2s.c ****     /* Disable I2Sext peripheral */
1144:./Libraries/STM32F4xx_HAL_Driver/Src/stm32f4xx_hal_i2s.c ****     __HAL_I2SEXT_DISABLE(hi2s);
 2543              		.loc 1 1144 5 discriminator 8
 2544 00cc 7B68     		ldr	r3, [r7, #4]
 2545 00ce 1B68     		ldr	r3, [r3]
 2546 00d0 144A     		ldr	r2, .L154
 2547 00d2 9342     		cmp	r3, r2
 2548 00d4 01D1     		bne	.L150
 2549              		.loc 1 1144 5 is_stmt 0 discriminator 1
 2550 00d6 144B     		ldr	r3, .L154+4
 2551 00d8 01E0     		b	.L151
 2552              	.L150:
 2553              		.loc 1 1144 5 discriminator 2
 2554 00da 4FF04023 		mov	r3, #1073758208
 2555              	.L151:
 2556              		.loc 1 1144 5 discriminator 4
 2557 00de DA69     		ldr	r2, [r3, #28]
 2558 00e0 7B68     		ldr	r3, [r7, #4]
 2559 00e2 1B68     		ldr	r3, [r3]
 2560 00e4 0F49     		ldr	r1, .L154
 2561 00e6 8B42     		cmp	r3, r1
 2562 00e8 01D1     		bne	.L152
 2563              		.loc 1 1144 5 discriminator 5
 2564 00ea 0F4B     		ldr	r3, .L154+4
 2565 00ec 01E0     		b	.L153
 2566              	.L152:
 2567              		.loc 1 1144 5 discriminator 6
 2568 00ee 4FF04023 		mov	r3, #1073758208
 2569              	.L153:
 2570              		.loc 1 1144 5 discriminator 8
 2571 00f2 22F48062 		bic	r2, r2, #1024
 2572 00f6 DA61     		str	r2, [r3, #28]
ARM GAS  /tmp/ccIc9xCh.s 			page 66


 2573              	.L144:
1145:./Libraries/STM32F4xx_HAL_Driver/Src/stm32f4xx_hal_i2s.c ****   }
1146:./Libraries/STM32F4xx_HAL_Driver/Src/stm32f4xx_hal_i2s.c **** #endif /* SPI_I2S_FULLDUPLEX_SUPPORT */
1147:./Libraries/STM32F4xx_HAL_Driver/Src/stm32f4xx_hal_i2s.c **** 
1148:./Libraries/STM32F4xx_HAL_Driver/Src/stm32f4xx_hal_i2s.c ****   /* Disable I2S peripheral */
1149:./Libraries/STM32F4xx_HAL_Driver/Src/stm32f4xx_hal_i2s.c ****   __HAL_I2S_DISABLE(hi2s);
 2574              		.loc 1 1149 3 is_stmt 1
 2575 00f8 7B68     		ldr	r3, [r7, #4]
 2576 00fa 1B68     		ldr	r3, [r3]
 2577 00fc D969     		ldr	r1, [r3, #28]
 2578 00fe 7B68     		ldr	r3, [r7, #4]
 2579 0100 1A68     		ldr	r2, [r3]
 2580 0102 4FF6FF33 		movw	r3, #64511
 2581 0106 0B40     		ands	r3, r3, r1
 2582 0108 D361     		str	r3, [r2, #28]
1150:./Libraries/STM32F4xx_HAL_Driver/Src/stm32f4xx_hal_i2s.c **** 
1151:./Libraries/STM32F4xx_HAL_Driver/Src/stm32f4xx_hal_i2s.c ****   hi2s->State = HAL_I2S_STATE_READY;
 2583              		.loc 1 1151 15
 2584 010a 7B68     		ldr	r3, [r7, #4]
 2585 010c 0122     		movs	r2, #1
 2586 010e 83F84120 		strb	r2, [r3, #65]
1152:./Libraries/STM32F4xx_HAL_Driver/Src/stm32f4xx_hal_i2s.c **** 
1153:./Libraries/STM32F4xx_HAL_Driver/Src/stm32f4xx_hal_i2s.c ****   /* Process Unlocked */
1154:./Libraries/STM32F4xx_HAL_Driver/Src/stm32f4xx_hal_i2s.c ****   __HAL_UNLOCK(hi2s);
 2587              		.loc 1 1154 3
 2588 0112 7B68     		ldr	r3, [r7, #4]
 2589 0114 0022     		movs	r2, #0
 2590 0116 83F84020 		strb	r2, [r3, #64]
1155:./Libraries/STM32F4xx_HAL_Driver/Src/stm32f4xx_hal_i2s.c **** 
1156:./Libraries/STM32F4xx_HAL_Driver/Src/stm32f4xx_hal_i2s.c ****   return HAL_OK;
 2591              		.loc 1 1156 10
 2592 011a 0023     		movs	r3, #0
 2593              	.L142:
1157:./Libraries/STM32F4xx_HAL_Driver/Src/stm32f4xx_hal_i2s.c **** }
 2594              		.loc 1 1157 1
 2595 011c 1846     		mov	r0, r3
 2596 011e 0837     		adds	r7, r7, #8
 2597              	.LCFI69:
 2598              		.cfi_def_cfa_offset 8
 2599 0120 BD46     		mov	sp, r7
 2600              	.LCFI70:
 2601              		.cfi_def_cfa_register 13
 2602              		@ sp needed
 2603 0122 80BD     		pop	{r7, pc}
 2604              	.L155:
 2605              		.align	2
 2606              	.L154:
 2607 0124 00380040 		.word	1073756160
 2608 0128 00340040 		.word	1073755136
 2609              		.cfi_endproc
 2610              	.LFE138:
 2612              		.section	.text.HAL_I2S_IRQHandler,"ax",%progbits
 2613              		.align	1
 2614              		.global	HAL_I2S_IRQHandler
 2615              		.syntax unified
 2616              		.thumb
 2617              		.thumb_func
ARM GAS  /tmp/ccIc9xCh.s 			page 67


 2618              		.fpu fpv4-sp-d16
 2620              	HAL_I2S_IRQHandler:
 2621              	.LFB139:
1158:./Libraries/STM32F4xx_HAL_Driver/Src/stm32f4xx_hal_i2s.c **** 
1159:./Libraries/STM32F4xx_HAL_Driver/Src/stm32f4xx_hal_i2s.c **** /**
1160:./Libraries/STM32F4xx_HAL_Driver/Src/stm32f4xx_hal_i2s.c ****   * @brief  This function handles I2S interrupt request.
1161:./Libraries/STM32F4xx_HAL_Driver/Src/stm32f4xx_hal_i2s.c ****   * @param  hi2s pointer to a I2S_HandleTypeDef structure that contains
1162:./Libraries/STM32F4xx_HAL_Driver/Src/stm32f4xx_hal_i2s.c ****   *         the configuration information for I2S module
1163:./Libraries/STM32F4xx_HAL_Driver/Src/stm32f4xx_hal_i2s.c ****   * @retval None
1164:./Libraries/STM32F4xx_HAL_Driver/Src/stm32f4xx_hal_i2s.c ****   */
1165:./Libraries/STM32F4xx_HAL_Driver/Src/stm32f4xx_hal_i2s.c **** void HAL_I2S_IRQHandler(I2S_HandleTypeDef *hi2s)
1166:./Libraries/STM32F4xx_HAL_Driver/Src/stm32f4xx_hal_i2s.c **** {
 2622              		.loc 1 1166 1
 2623              		.cfi_startproc
 2624              		@ args = 0, pretend = 0, frame = 8
 2625              		@ frame_needed = 1, uses_anonymous_args = 0
 2626 0000 80B5     		push	{r7, lr}
 2627              	.LCFI71:
 2628              		.cfi_def_cfa_offset 8
 2629              		.cfi_offset 7, -8
 2630              		.cfi_offset 14, -4
 2631 0002 82B0     		sub	sp, sp, #8
 2632              	.LCFI72:
 2633              		.cfi_def_cfa_offset 16
 2634 0004 00AF     		add	r7, sp, #0
 2635              	.LCFI73:
 2636              		.cfi_def_cfa_register 7
 2637 0006 7860     		str	r0, [r7, #4]
1167:./Libraries/STM32F4xx_HAL_Driver/Src/stm32f4xx_hal_i2s.c ****   /* Call the IrqHandler ISR set during HAL_I2S_INIT */
1168:./Libraries/STM32F4xx_HAL_Driver/Src/stm32f4xx_hal_i2s.c ****   hi2s->IrqHandlerISR(hi2s);
 2638              		.loc 1 1168 7
 2639 0008 7B68     		ldr	r3, [r7, #4]
 2640 000a 5B6B     		ldr	r3, [r3, #52]
 2641              		.loc 1 1168 3
 2642 000c 7868     		ldr	r0, [r7, #4]
 2643 000e 9847     		blx	r3
 2644              	.LVL0:
1169:./Libraries/STM32F4xx_HAL_Driver/Src/stm32f4xx_hal_i2s.c **** }
 2645              		.loc 1 1169 1
 2646 0010 00BF     		nop
 2647 0012 0837     		adds	r7, r7, #8
 2648              	.LCFI74:
 2649              		.cfi_def_cfa_offset 8
 2650 0014 BD46     		mov	sp, r7
 2651              	.LCFI75:
 2652              		.cfi_def_cfa_register 13
 2653              		@ sp needed
 2654 0016 80BD     		pop	{r7, pc}
 2655              		.cfi_endproc
 2656              	.LFE139:
 2658              		.section	.text.HAL_I2S_TxHalfCpltCallback,"ax",%progbits
 2659              		.align	1
 2660              		.weak	HAL_I2S_TxHalfCpltCallback
 2661              		.syntax unified
 2662              		.thumb
 2663              		.thumb_func
 2664              		.fpu fpv4-sp-d16
ARM GAS  /tmp/ccIc9xCh.s 			page 68


 2666              	HAL_I2S_TxHalfCpltCallback:
 2667              	.LFB140:
1170:./Libraries/STM32F4xx_HAL_Driver/Src/stm32f4xx_hal_i2s.c **** 
1171:./Libraries/STM32F4xx_HAL_Driver/Src/stm32f4xx_hal_i2s.c **** /**
1172:./Libraries/STM32F4xx_HAL_Driver/Src/stm32f4xx_hal_i2s.c ****   * @brief Tx Transfer Half completed callbacks
1173:./Libraries/STM32F4xx_HAL_Driver/Src/stm32f4xx_hal_i2s.c ****   * @param  hi2s pointer to a I2S_HandleTypeDef structure that contains
1174:./Libraries/STM32F4xx_HAL_Driver/Src/stm32f4xx_hal_i2s.c ****   *         the configuration information for I2S module
1175:./Libraries/STM32F4xx_HAL_Driver/Src/stm32f4xx_hal_i2s.c ****   * @retval None
1176:./Libraries/STM32F4xx_HAL_Driver/Src/stm32f4xx_hal_i2s.c ****   */
1177:./Libraries/STM32F4xx_HAL_Driver/Src/stm32f4xx_hal_i2s.c ****  __weak void HAL_I2S_TxHalfCpltCallback(I2S_HandleTypeDef *hi2s)
1178:./Libraries/STM32F4xx_HAL_Driver/Src/stm32f4xx_hal_i2s.c **** {
 2668              		.loc 1 1178 1
 2669              		.cfi_startproc
 2670              		@ args = 0, pretend = 0, frame = 8
 2671              		@ frame_needed = 1, uses_anonymous_args = 0
 2672              		@ link register save eliminated.
 2673 0000 80B4     		push	{r7}
 2674              	.LCFI76:
 2675              		.cfi_def_cfa_offset 4
 2676              		.cfi_offset 7, -4
 2677 0002 83B0     		sub	sp, sp, #12
 2678              	.LCFI77:
 2679              		.cfi_def_cfa_offset 16
 2680 0004 00AF     		add	r7, sp, #0
 2681              	.LCFI78:
 2682              		.cfi_def_cfa_register 7
 2683 0006 7860     		str	r0, [r7, #4]
1179:./Libraries/STM32F4xx_HAL_Driver/Src/stm32f4xx_hal_i2s.c ****   /* Prevent unused argument(s) compilation warning */
1180:./Libraries/STM32F4xx_HAL_Driver/Src/stm32f4xx_hal_i2s.c ****   UNUSED(hi2s);
1181:./Libraries/STM32F4xx_HAL_Driver/Src/stm32f4xx_hal_i2s.c ****   /* NOTE : This function Should not be modified, when the callback is needed,
1182:./Libraries/STM32F4xx_HAL_Driver/Src/stm32f4xx_hal_i2s.c ****             the HAL_I2S_TxHalfCpltCallback could be implemented in the user file
1183:./Libraries/STM32F4xx_HAL_Driver/Src/stm32f4xx_hal_i2s.c ****    */
1184:./Libraries/STM32F4xx_HAL_Driver/Src/stm32f4xx_hal_i2s.c **** }
 2684              		.loc 1 1184 1
 2685 0008 00BF     		nop
 2686 000a 0C37     		adds	r7, r7, #12
 2687              	.LCFI79:
 2688              		.cfi_def_cfa_offset 4
 2689 000c BD46     		mov	sp, r7
 2690              	.LCFI80:
 2691              		.cfi_def_cfa_register 13
 2692              		@ sp needed
 2693 000e 5DF8047B 		ldr	r7, [sp], #4
 2694              	.LCFI81:
 2695              		.cfi_restore 7
 2696              		.cfi_def_cfa_offset 0
 2697 0012 7047     		bx	lr
 2698              		.cfi_endproc
 2699              	.LFE140:
 2701              		.section	.text.HAL_I2S_TxCpltCallback,"ax",%progbits
 2702              		.align	1
 2703              		.weak	HAL_I2S_TxCpltCallback
 2704              		.syntax unified
 2705              		.thumb
 2706              		.thumb_func
 2707              		.fpu fpv4-sp-d16
 2709              	HAL_I2S_TxCpltCallback:
ARM GAS  /tmp/ccIc9xCh.s 			page 69


 2710              	.LFB141:
1185:./Libraries/STM32F4xx_HAL_Driver/Src/stm32f4xx_hal_i2s.c **** 
1186:./Libraries/STM32F4xx_HAL_Driver/Src/stm32f4xx_hal_i2s.c **** /**
1187:./Libraries/STM32F4xx_HAL_Driver/Src/stm32f4xx_hal_i2s.c ****   * @brief Tx Transfer completed callbacks
1188:./Libraries/STM32F4xx_HAL_Driver/Src/stm32f4xx_hal_i2s.c ****   * @param  hi2s pointer to a I2S_HandleTypeDef structure that contains
1189:./Libraries/STM32F4xx_HAL_Driver/Src/stm32f4xx_hal_i2s.c ****   *         the configuration information for I2S module
1190:./Libraries/STM32F4xx_HAL_Driver/Src/stm32f4xx_hal_i2s.c ****   * @retval None
1191:./Libraries/STM32F4xx_HAL_Driver/Src/stm32f4xx_hal_i2s.c ****   */
1192:./Libraries/STM32F4xx_HAL_Driver/Src/stm32f4xx_hal_i2s.c ****  __weak void HAL_I2S_TxCpltCallback(I2S_HandleTypeDef *hi2s)
1193:./Libraries/STM32F4xx_HAL_Driver/Src/stm32f4xx_hal_i2s.c **** {
 2711              		.loc 1 1193 1
 2712              		.cfi_startproc
 2713              		@ args = 0, pretend = 0, frame = 8
 2714              		@ frame_needed = 1, uses_anonymous_args = 0
 2715              		@ link register save eliminated.
 2716 0000 80B4     		push	{r7}
 2717              	.LCFI82:
 2718              		.cfi_def_cfa_offset 4
 2719              		.cfi_offset 7, -4
 2720 0002 83B0     		sub	sp, sp, #12
 2721              	.LCFI83:
 2722              		.cfi_def_cfa_offset 16
 2723 0004 00AF     		add	r7, sp, #0
 2724              	.LCFI84:
 2725              		.cfi_def_cfa_register 7
 2726 0006 7860     		str	r0, [r7, #4]
1194:./Libraries/STM32F4xx_HAL_Driver/Src/stm32f4xx_hal_i2s.c ****   /* Prevent unused argument(s) compilation warning */
1195:./Libraries/STM32F4xx_HAL_Driver/Src/stm32f4xx_hal_i2s.c ****   UNUSED(hi2s);
1196:./Libraries/STM32F4xx_HAL_Driver/Src/stm32f4xx_hal_i2s.c ****   /* NOTE : This function Should not be modified, when the callback is needed,
1197:./Libraries/STM32F4xx_HAL_Driver/Src/stm32f4xx_hal_i2s.c ****             the HAL_I2S_TxCpltCallback could be implemented in the user file
1198:./Libraries/STM32F4xx_HAL_Driver/Src/stm32f4xx_hal_i2s.c ****    */
1199:./Libraries/STM32F4xx_HAL_Driver/Src/stm32f4xx_hal_i2s.c **** }
 2727              		.loc 1 1199 1
 2728 0008 00BF     		nop
 2729 000a 0C37     		adds	r7, r7, #12
 2730              	.LCFI85:
 2731              		.cfi_def_cfa_offset 4
 2732 000c BD46     		mov	sp, r7
 2733              	.LCFI86:
 2734              		.cfi_def_cfa_register 13
 2735              		@ sp needed
 2736 000e 5DF8047B 		ldr	r7, [sp], #4
 2737              	.LCFI87:
 2738              		.cfi_restore 7
 2739              		.cfi_def_cfa_offset 0
 2740 0012 7047     		bx	lr
 2741              		.cfi_endproc
 2742              	.LFE141:
 2744              		.section	.text.HAL_I2S_RxHalfCpltCallback,"ax",%progbits
 2745              		.align	1
 2746              		.weak	HAL_I2S_RxHalfCpltCallback
 2747              		.syntax unified
 2748              		.thumb
 2749              		.thumb_func
 2750              		.fpu fpv4-sp-d16
 2752              	HAL_I2S_RxHalfCpltCallback:
 2753              	.LFB142:
ARM GAS  /tmp/ccIc9xCh.s 			page 70


1200:./Libraries/STM32F4xx_HAL_Driver/Src/stm32f4xx_hal_i2s.c **** 
1201:./Libraries/STM32F4xx_HAL_Driver/Src/stm32f4xx_hal_i2s.c **** /**
1202:./Libraries/STM32F4xx_HAL_Driver/Src/stm32f4xx_hal_i2s.c ****   * @brief Rx Transfer half completed callbacks
1203:./Libraries/STM32F4xx_HAL_Driver/Src/stm32f4xx_hal_i2s.c ****   * @param  hi2s pointer to a I2S_HandleTypeDef structure that contains
1204:./Libraries/STM32F4xx_HAL_Driver/Src/stm32f4xx_hal_i2s.c ****   *         the configuration information for I2S module
1205:./Libraries/STM32F4xx_HAL_Driver/Src/stm32f4xx_hal_i2s.c ****   * @retval None
1206:./Libraries/STM32F4xx_HAL_Driver/Src/stm32f4xx_hal_i2s.c ****   */
1207:./Libraries/STM32F4xx_HAL_Driver/Src/stm32f4xx_hal_i2s.c **** __weak void HAL_I2S_RxHalfCpltCallback(I2S_HandleTypeDef *hi2s)
1208:./Libraries/STM32F4xx_HAL_Driver/Src/stm32f4xx_hal_i2s.c **** {
 2754              		.loc 1 1208 1
 2755              		.cfi_startproc
 2756              		@ args = 0, pretend = 0, frame = 8
 2757              		@ frame_needed = 1, uses_anonymous_args = 0
 2758              		@ link register save eliminated.
 2759 0000 80B4     		push	{r7}
 2760              	.LCFI88:
 2761              		.cfi_def_cfa_offset 4
 2762              		.cfi_offset 7, -4
 2763 0002 83B0     		sub	sp, sp, #12
 2764              	.LCFI89:
 2765              		.cfi_def_cfa_offset 16
 2766 0004 00AF     		add	r7, sp, #0
 2767              	.LCFI90:
 2768              		.cfi_def_cfa_register 7
 2769 0006 7860     		str	r0, [r7, #4]
1209:./Libraries/STM32F4xx_HAL_Driver/Src/stm32f4xx_hal_i2s.c ****   /* Prevent unused argument(s) compilation warning */
1210:./Libraries/STM32F4xx_HAL_Driver/Src/stm32f4xx_hal_i2s.c ****   UNUSED(hi2s);
1211:./Libraries/STM32F4xx_HAL_Driver/Src/stm32f4xx_hal_i2s.c ****   /* NOTE : This function Should not be modified, when the callback is needed,
1212:./Libraries/STM32F4xx_HAL_Driver/Src/stm32f4xx_hal_i2s.c ****             the HAL_I2S_RxCpltCallback could be implemented in the user file
1213:./Libraries/STM32F4xx_HAL_Driver/Src/stm32f4xx_hal_i2s.c ****    */
1214:./Libraries/STM32F4xx_HAL_Driver/Src/stm32f4xx_hal_i2s.c **** }
 2770              		.loc 1 1214 1
 2771 0008 00BF     		nop
 2772 000a 0C37     		adds	r7, r7, #12
 2773              	.LCFI91:
 2774              		.cfi_def_cfa_offset 4
 2775 000c BD46     		mov	sp, r7
 2776              	.LCFI92:
 2777              		.cfi_def_cfa_register 13
 2778              		@ sp needed
 2779 000e 5DF8047B 		ldr	r7, [sp], #4
 2780              	.LCFI93:
 2781              		.cfi_restore 7
 2782              		.cfi_def_cfa_offset 0
 2783 0012 7047     		bx	lr
 2784              		.cfi_endproc
 2785              	.LFE142:
 2787              		.section	.text.HAL_I2S_RxCpltCallback,"ax",%progbits
 2788              		.align	1
 2789              		.weak	HAL_I2S_RxCpltCallback
 2790              		.syntax unified
 2791              		.thumb
 2792              		.thumb_func
 2793              		.fpu fpv4-sp-d16
 2795              	HAL_I2S_RxCpltCallback:
 2796              	.LFB143:
1215:./Libraries/STM32F4xx_HAL_Driver/Src/stm32f4xx_hal_i2s.c **** 
ARM GAS  /tmp/ccIc9xCh.s 			page 71


1216:./Libraries/STM32F4xx_HAL_Driver/Src/stm32f4xx_hal_i2s.c **** /**
1217:./Libraries/STM32F4xx_HAL_Driver/Src/stm32f4xx_hal_i2s.c ****   * @brief Rx Transfer completed callbacks
1218:./Libraries/STM32F4xx_HAL_Driver/Src/stm32f4xx_hal_i2s.c ****   * @param  hi2s pointer to a I2S_HandleTypeDef structure that contains
1219:./Libraries/STM32F4xx_HAL_Driver/Src/stm32f4xx_hal_i2s.c ****   *         the configuration information for I2S module
1220:./Libraries/STM32F4xx_HAL_Driver/Src/stm32f4xx_hal_i2s.c ****   * @retval None
1221:./Libraries/STM32F4xx_HAL_Driver/Src/stm32f4xx_hal_i2s.c ****   */
1222:./Libraries/STM32F4xx_HAL_Driver/Src/stm32f4xx_hal_i2s.c **** __weak void HAL_I2S_RxCpltCallback(I2S_HandleTypeDef *hi2s)
1223:./Libraries/STM32F4xx_HAL_Driver/Src/stm32f4xx_hal_i2s.c **** {
 2797              		.loc 1 1223 1
 2798              		.cfi_startproc
 2799              		@ args = 0, pretend = 0, frame = 8
 2800              		@ frame_needed = 1, uses_anonymous_args = 0
 2801              		@ link register save eliminated.
 2802 0000 80B4     		push	{r7}
 2803              	.LCFI94:
 2804              		.cfi_def_cfa_offset 4
 2805              		.cfi_offset 7, -4
 2806 0002 83B0     		sub	sp, sp, #12
 2807              	.LCFI95:
 2808              		.cfi_def_cfa_offset 16
 2809 0004 00AF     		add	r7, sp, #0
 2810              	.LCFI96:
 2811              		.cfi_def_cfa_register 7
 2812 0006 7860     		str	r0, [r7, #4]
1224:./Libraries/STM32F4xx_HAL_Driver/Src/stm32f4xx_hal_i2s.c ****   /* Prevent unused argument(s) compilation warning */
1225:./Libraries/STM32F4xx_HAL_Driver/Src/stm32f4xx_hal_i2s.c ****   UNUSED(hi2s);
1226:./Libraries/STM32F4xx_HAL_Driver/Src/stm32f4xx_hal_i2s.c ****   /* NOTE : This function Should not be modified, when the callback is needed,
1227:./Libraries/STM32F4xx_HAL_Driver/Src/stm32f4xx_hal_i2s.c ****             the HAL_I2S_RxCpltCallback could be implemented in the user file
1228:./Libraries/STM32F4xx_HAL_Driver/Src/stm32f4xx_hal_i2s.c ****    */
1229:./Libraries/STM32F4xx_HAL_Driver/Src/stm32f4xx_hal_i2s.c **** }
 2813              		.loc 1 1229 1
 2814 0008 00BF     		nop
 2815 000a 0C37     		adds	r7, r7, #12
 2816              	.LCFI97:
 2817              		.cfi_def_cfa_offset 4
 2818 000c BD46     		mov	sp, r7
 2819              	.LCFI98:
 2820              		.cfi_def_cfa_register 13
 2821              		@ sp needed
 2822 000e 5DF8047B 		ldr	r7, [sp], #4
 2823              	.LCFI99:
 2824              		.cfi_restore 7
 2825              		.cfi_def_cfa_offset 0
 2826 0012 7047     		bx	lr
 2827              		.cfi_endproc
 2828              	.LFE143:
 2830              		.section	.text.HAL_I2S_ErrorCallback,"ax",%progbits
 2831              		.align	1
 2832              		.weak	HAL_I2S_ErrorCallback
 2833              		.syntax unified
 2834              		.thumb
 2835              		.thumb_func
 2836              		.fpu fpv4-sp-d16
 2838              	HAL_I2S_ErrorCallback:
 2839              	.LFB144:
1230:./Libraries/STM32F4xx_HAL_Driver/Src/stm32f4xx_hal_i2s.c **** 
1231:./Libraries/STM32F4xx_HAL_Driver/Src/stm32f4xx_hal_i2s.c **** /**
ARM GAS  /tmp/ccIc9xCh.s 			page 72


1232:./Libraries/STM32F4xx_HAL_Driver/Src/stm32f4xx_hal_i2s.c ****   * @brief I2S error callbacks
1233:./Libraries/STM32F4xx_HAL_Driver/Src/stm32f4xx_hal_i2s.c ****   * @param  hi2s pointer to a I2S_HandleTypeDef structure that contains
1234:./Libraries/STM32F4xx_HAL_Driver/Src/stm32f4xx_hal_i2s.c ****   *         the configuration information for I2S module
1235:./Libraries/STM32F4xx_HAL_Driver/Src/stm32f4xx_hal_i2s.c ****   * @retval None
1236:./Libraries/STM32F4xx_HAL_Driver/Src/stm32f4xx_hal_i2s.c ****   */
1237:./Libraries/STM32F4xx_HAL_Driver/Src/stm32f4xx_hal_i2s.c ****  __weak void HAL_I2S_ErrorCallback(I2S_HandleTypeDef *hi2s)
1238:./Libraries/STM32F4xx_HAL_Driver/Src/stm32f4xx_hal_i2s.c **** {
 2840              		.loc 1 1238 1
 2841              		.cfi_startproc
 2842              		@ args = 0, pretend = 0, frame = 8
 2843              		@ frame_needed = 1, uses_anonymous_args = 0
 2844              		@ link register save eliminated.
 2845 0000 80B4     		push	{r7}
 2846              	.LCFI100:
 2847              		.cfi_def_cfa_offset 4
 2848              		.cfi_offset 7, -4
 2849 0002 83B0     		sub	sp, sp, #12
 2850              	.LCFI101:
 2851              		.cfi_def_cfa_offset 16
 2852 0004 00AF     		add	r7, sp, #0
 2853              	.LCFI102:
 2854              		.cfi_def_cfa_register 7
 2855 0006 7860     		str	r0, [r7, #4]
1239:./Libraries/STM32F4xx_HAL_Driver/Src/stm32f4xx_hal_i2s.c ****   /* Prevent unused argument(s) compilation warning */
1240:./Libraries/STM32F4xx_HAL_Driver/Src/stm32f4xx_hal_i2s.c ****   UNUSED(hi2s);
1241:./Libraries/STM32F4xx_HAL_Driver/Src/stm32f4xx_hal_i2s.c ****   /* NOTE : This function Should not be modified, when the callback is needed,
1242:./Libraries/STM32F4xx_HAL_Driver/Src/stm32f4xx_hal_i2s.c ****             the HAL_I2S_ErrorCallback could be implemented in the user file
1243:./Libraries/STM32F4xx_HAL_Driver/Src/stm32f4xx_hal_i2s.c ****    */
1244:./Libraries/STM32F4xx_HAL_Driver/Src/stm32f4xx_hal_i2s.c **** }
 2856              		.loc 1 1244 1
 2857 0008 00BF     		nop
 2858 000a 0C37     		adds	r7, r7, #12
 2859              	.LCFI103:
 2860              		.cfi_def_cfa_offset 4
 2861 000c BD46     		mov	sp, r7
 2862              	.LCFI104:
 2863              		.cfi_def_cfa_register 13
 2864              		@ sp needed
 2865 000e 5DF8047B 		ldr	r7, [sp], #4
 2866              	.LCFI105:
 2867              		.cfi_restore 7
 2868              		.cfi_def_cfa_offset 0
 2869 0012 7047     		bx	lr
 2870              		.cfi_endproc
 2871              	.LFE144:
 2873              		.section	.text.HAL_I2S_GetState,"ax",%progbits
 2874              		.align	1
 2875              		.global	HAL_I2S_GetState
 2876              		.syntax unified
 2877              		.thumb
 2878              		.thumb_func
 2879              		.fpu fpv4-sp-d16
 2881              	HAL_I2S_GetState:
 2882              	.LFB145:
1245:./Libraries/STM32F4xx_HAL_Driver/Src/stm32f4xx_hal_i2s.c **** 
1246:./Libraries/STM32F4xx_HAL_Driver/Src/stm32f4xx_hal_i2s.c **** /**
1247:./Libraries/STM32F4xx_HAL_Driver/Src/stm32f4xx_hal_i2s.c ****   * @}
ARM GAS  /tmp/ccIc9xCh.s 			page 73


1248:./Libraries/STM32F4xx_HAL_Driver/Src/stm32f4xx_hal_i2s.c ****   */
1249:./Libraries/STM32F4xx_HAL_Driver/Src/stm32f4xx_hal_i2s.c **** 
1250:./Libraries/STM32F4xx_HAL_Driver/Src/stm32f4xx_hal_i2s.c **** /** @addtogroup I2S_Exported_Functions_Group3
1251:./Libraries/STM32F4xx_HAL_Driver/Src/stm32f4xx_hal_i2s.c ****   *  @brief   Peripheral State functions
1252:./Libraries/STM32F4xx_HAL_Driver/Src/stm32f4xx_hal_i2s.c ****   *
1253:./Libraries/STM32F4xx_HAL_Driver/Src/stm32f4xx_hal_i2s.c **** @verbatim
1254:./Libraries/STM32F4xx_HAL_Driver/Src/stm32f4xx_hal_i2s.c ****  ===============================================================================
1255:./Libraries/STM32F4xx_HAL_Driver/Src/stm32f4xx_hal_i2s.c ****                       ##### Peripheral State and Errors functions #####
1256:./Libraries/STM32F4xx_HAL_Driver/Src/stm32f4xx_hal_i2s.c ****  ===============================================================================
1257:./Libraries/STM32F4xx_HAL_Driver/Src/stm32f4xx_hal_i2s.c ****     [..]
1258:./Libraries/STM32F4xx_HAL_Driver/Src/stm32f4xx_hal_i2s.c ****     This subsection permits to get in run-time the status of the peripheral
1259:./Libraries/STM32F4xx_HAL_Driver/Src/stm32f4xx_hal_i2s.c ****     and the data flow.
1260:./Libraries/STM32F4xx_HAL_Driver/Src/stm32f4xx_hal_i2s.c **** 
1261:./Libraries/STM32F4xx_HAL_Driver/Src/stm32f4xx_hal_i2s.c **** @endverbatim
1262:./Libraries/STM32F4xx_HAL_Driver/Src/stm32f4xx_hal_i2s.c ****   * @{
1263:./Libraries/STM32F4xx_HAL_Driver/Src/stm32f4xx_hal_i2s.c ****   */
1264:./Libraries/STM32F4xx_HAL_Driver/Src/stm32f4xx_hal_i2s.c **** 
1265:./Libraries/STM32F4xx_HAL_Driver/Src/stm32f4xx_hal_i2s.c **** /**
1266:./Libraries/STM32F4xx_HAL_Driver/Src/stm32f4xx_hal_i2s.c ****   * @brief  Return the I2S state
1267:./Libraries/STM32F4xx_HAL_Driver/Src/stm32f4xx_hal_i2s.c ****   * @param  hi2s pointer to a I2S_HandleTypeDef structure that contains
1268:./Libraries/STM32F4xx_HAL_Driver/Src/stm32f4xx_hal_i2s.c ****   *         the configuration information for I2S module
1269:./Libraries/STM32F4xx_HAL_Driver/Src/stm32f4xx_hal_i2s.c ****   * @retval HAL state
1270:./Libraries/STM32F4xx_HAL_Driver/Src/stm32f4xx_hal_i2s.c ****   */
1271:./Libraries/STM32F4xx_HAL_Driver/Src/stm32f4xx_hal_i2s.c **** HAL_I2S_StateTypeDef HAL_I2S_GetState(I2S_HandleTypeDef *hi2s)
1272:./Libraries/STM32F4xx_HAL_Driver/Src/stm32f4xx_hal_i2s.c **** {
 2883              		.loc 1 1272 1
 2884              		.cfi_startproc
 2885              		@ args = 0, pretend = 0, frame = 8
 2886              		@ frame_needed = 1, uses_anonymous_args = 0
 2887              		@ link register save eliminated.
 2888 0000 80B4     		push	{r7}
 2889              	.LCFI106:
 2890              		.cfi_def_cfa_offset 4
 2891              		.cfi_offset 7, -4
 2892 0002 83B0     		sub	sp, sp, #12
 2893              	.LCFI107:
 2894              		.cfi_def_cfa_offset 16
 2895 0004 00AF     		add	r7, sp, #0
 2896              	.LCFI108:
 2897              		.cfi_def_cfa_register 7
 2898 0006 7860     		str	r0, [r7, #4]
1273:./Libraries/STM32F4xx_HAL_Driver/Src/stm32f4xx_hal_i2s.c ****   return hi2s->State;
 2899              		.loc 1 1273 14
 2900 0008 7B68     		ldr	r3, [r7, #4]
 2901 000a 93F84130 		ldrb	r3, [r3, #65]
 2902 000e DBB2     		uxtb	r3, r3
1274:./Libraries/STM32F4xx_HAL_Driver/Src/stm32f4xx_hal_i2s.c **** }
 2903              		.loc 1 1274 1
 2904 0010 1846     		mov	r0, r3
 2905 0012 0C37     		adds	r7, r7, #12
 2906              	.LCFI109:
 2907              		.cfi_def_cfa_offset 4
 2908 0014 BD46     		mov	sp, r7
 2909              	.LCFI110:
 2910              		.cfi_def_cfa_register 13
 2911              		@ sp needed
 2912 0016 5DF8047B 		ldr	r7, [sp], #4
ARM GAS  /tmp/ccIc9xCh.s 			page 74


 2913              	.LCFI111:
 2914              		.cfi_restore 7
 2915              		.cfi_def_cfa_offset 0
 2916 001a 7047     		bx	lr
 2917              		.cfi_endproc
 2918              	.LFE145:
 2920              		.section	.text.HAL_I2S_GetError,"ax",%progbits
 2921              		.align	1
 2922              		.global	HAL_I2S_GetError
 2923              		.syntax unified
 2924              		.thumb
 2925              		.thumb_func
 2926              		.fpu fpv4-sp-d16
 2928              	HAL_I2S_GetError:
 2929              	.LFB146:
1275:./Libraries/STM32F4xx_HAL_Driver/Src/stm32f4xx_hal_i2s.c **** 
1276:./Libraries/STM32F4xx_HAL_Driver/Src/stm32f4xx_hal_i2s.c **** /**
1277:./Libraries/STM32F4xx_HAL_Driver/Src/stm32f4xx_hal_i2s.c ****   * @brief  Return the I2S error code
1278:./Libraries/STM32F4xx_HAL_Driver/Src/stm32f4xx_hal_i2s.c ****   * @param  hi2s pointer to a I2S_HandleTypeDef structure that contains
1279:./Libraries/STM32F4xx_HAL_Driver/Src/stm32f4xx_hal_i2s.c ****   *         the configuration information for I2S module
1280:./Libraries/STM32F4xx_HAL_Driver/Src/stm32f4xx_hal_i2s.c ****   * @retval I2S Error Code
1281:./Libraries/STM32F4xx_HAL_Driver/Src/stm32f4xx_hal_i2s.c ****   */
1282:./Libraries/STM32F4xx_HAL_Driver/Src/stm32f4xx_hal_i2s.c **** uint32_t HAL_I2S_GetError(I2S_HandleTypeDef *hi2s)
1283:./Libraries/STM32F4xx_HAL_Driver/Src/stm32f4xx_hal_i2s.c **** {
 2930              		.loc 1 1283 1
 2931              		.cfi_startproc
 2932              		@ args = 0, pretend = 0, frame = 8
 2933              		@ frame_needed = 1, uses_anonymous_args = 0
 2934              		@ link register save eliminated.
 2935 0000 80B4     		push	{r7}
 2936              	.LCFI112:
 2937              		.cfi_def_cfa_offset 4
 2938              		.cfi_offset 7, -4
 2939 0002 83B0     		sub	sp, sp, #12
 2940              	.LCFI113:
 2941              		.cfi_def_cfa_offset 16
 2942 0004 00AF     		add	r7, sp, #0
 2943              	.LCFI114:
 2944              		.cfi_def_cfa_register 7
 2945 0006 7860     		str	r0, [r7, #4]
1284:./Libraries/STM32F4xx_HAL_Driver/Src/stm32f4xx_hal_i2s.c ****   return hi2s->ErrorCode;
 2946              		.loc 1 1284 14
 2947 0008 7B68     		ldr	r3, [r7, #4]
 2948 000a 5B6C     		ldr	r3, [r3, #68]
1285:./Libraries/STM32F4xx_HAL_Driver/Src/stm32f4xx_hal_i2s.c **** }
 2949              		.loc 1 1285 1
 2950 000c 1846     		mov	r0, r3
 2951 000e 0C37     		adds	r7, r7, #12
 2952              	.LCFI115:
 2953              		.cfi_def_cfa_offset 4
 2954 0010 BD46     		mov	sp, r7
 2955              	.LCFI116:
 2956              		.cfi_def_cfa_register 13
 2957              		@ sp needed
 2958 0012 5DF8047B 		ldr	r7, [sp], #4
 2959              	.LCFI117:
 2960              		.cfi_restore 7
ARM GAS  /tmp/ccIc9xCh.s 			page 75


 2961              		.cfi_def_cfa_offset 0
 2962 0016 7047     		bx	lr
 2963              		.cfi_endproc
 2964              	.LFE146:
 2966              		.section	.text.I2S_DMATxCplt,"ax",%progbits
 2967              		.align	1
 2968              		.syntax unified
 2969              		.thumb
 2970              		.thumb_func
 2971              		.fpu fpv4-sp-d16
 2973              	I2S_DMATxCplt:
 2974              	.LFB147:
1286:./Libraries/STM32F4xx_HAL_Driver/Src/stm32f4xx_hal_i2s.c **** /**
1287:./Libraries/STM32F4xx_HAL_Driver/Src/stm32f4xx_hal_i2s.c ****   * @}
1288:./Libraries/STM32F4xx_HAL_Driver/Src/stm32f4xx_hal_i2s.c ****   */
1289:./Libraries/STM32F4xx_HAL_Driver/Src/stm32f4xx_hal_i2s.c **** 
1290:./Libraries/STM32F4xx_HAL_Driver/Src/stm32f4xx_hal_i2s.c **** /**
1291:./Libraries/STM32F4xx_HAL_Driver/Src/stm32f4xx_hal_i2s.c ****   * @}
1292:./Libraries/STM32F4xx_HAL_Driver/Src/stm32f4xx_hal_i2s.c ****   */
1293:./Libraries/STM32F4xx_HAL_Driver/Src/stm32f4xx_hal_i2s.c **** 
1294:./Libraries/STM32F4xx_HAL_Driver/Src/stm32f4xx_hal_i2s.c **** /** @addtogroup I2S_Private_Functions I2S Private Functions
1295:./Libraries/STM32F4xx_HAL_Driver/Src/stm32f4xx_hal_i2s.c ****   * @{
1296:./Libraries/STM32F4xx_HAL_Driver/Src/stm32f4xx_hal_i2s.c ****   */
1297:./Libraries/STM32F4xx_HAL_Driver/Src/stm32f4xx_hal_i2s.c **** /**
1298:./Libraries/STM32F4xx_HAL_Driver/Src/stm32f4xx_hal_i2s.c ****   * @brief DMA I2S transmit process complete callback
1299:./Libraries/STM32F4xx_HAL_Driver/Src/stm32f4xx_hal_i2s.c ****   * @param  hdma pointer to a DMA_HandleTypeDef structure that contains
1300:./Libraries/STM32F4xx_HAL_Driver/Src/stm32f4xx_hal_i2s.c ****   *                the configuration information for the specified DMA module.
1301:./Libraries/STM32F4xx_HAL_Driver/Src/stm32f4xx_hal_i2s.c ****   * @retval None
1302:./Libraries/STM32F4xx_HAL_Driver/Src/stm32f4xx_hal_i2s.c ****   */
1303:./Libraries/STM32F4xx_HAL_Driver/Src/stm32f4xx_hal_i2s.c **** static void I2S_DMATxCplt(DMA_HandleTypeDef *hdma)
1304:./Libraries/STM32F4xx_HAL_Driver/Src/stm32f4xx_hal_i2s.c **** {
 2975              		.loc 1 1304 1
 2976              		.cfi_startproc
 2977              		@ args = 0, pretend = 0, frame = 16
 2978              		@ frame_needed = 1, uses_anonymous_args = 0
 2979 0000 80B5     		push	{r7, lr}
 2980              	.LCFI118:
 2981              		.cfi_def_cfa_offset 8
 2982              		.cfi_offset 7, -8
 2983              		.cfi_offset 14, -4
 2984 0002 84B0     		sub	sp, sp, #16
 2985              	.LCFI119:
 2986              		.cfi_def_cfa_offset 24
 2987 0004 00AF     		add	r7, sp, #0
 2988              	.LCFI120:
 2989              		.cfi_def_cfa_register 7
 2990 0006 7860     		str	r0, [r7, #4]
1305:./Libraries/STM32F4xx_HAL_Driver/Src/stm32f4xx_hal_i2s.c ****   I2S_HandleTypeDef* hi2s = ( I2S_HandleTypeDef* )((DMA_HandleTypeDef* )hdma)->Parent;
 2991              		.loc 1 1305 22
 2992 0008 7B68     		ldr	r3, [r7, #4]
 2993 000a 9B6B     		ldr	r3, [r3, #56]
 2994 000c FB60     		str	r3, [r7, #12]
1306:./Libraries/STM32F4xx_HAL_Driver/Src/stm32f4xx_hal_i2s.c **** 
1307:./Libraries/STM32F4xx_HAL_Driver/Src/stm32f4xx_hal_i2s.c ****   if((hdma->Instance->CR & DMA_SxCR_CIRC) == 0U)
 2995              		.loc 1 1307 11
 2996 000e 7B68     		ldr	r3, [r7, #4]
 2997 0010 1B68     		ldr	r3, [r3]
ARM GAS  /tmp/ccIc9xCh.s 			page 76


 2998              		.loc 1 1307 21
 2999 0012 1B68     		ldr	r3, [r3]
 3000              		.loc 1 1307 26
 3001 0014 03F48073 		and	r3, r3, #256
 3002              		.loc 1 1307 5
 3003 0018 002B     		cmp	r3, #0
 3004 001a 0ED1     		bne	.L167
1308:./Libraries/STM32F4xx_HAL_Driver/Src/stm32f4xx_hal_i2s.c ****   {
1309:./Libraries/STM32F4xx_HAL_Driver/Src/stm32f4xx_hal_i2s.c ****     /* Disable Tx DMA Request */
1310:./Libraries/STM32F4xx_HAL_Driver/Src/stm32f4xx_hal_i2s.c ****     CLEAR_BIT(hi2s->Instance->CR2,SPI_CR2_TXDMAEN);
 3005              		.loc 1 1310 5
 3006 001c FB68     		ldr	r3, [r7, #12]
 3007 001e 1B68     		ldr	r3, [r3]
 3008 0020 5A68     		ldr	r2, [r3, #4]
 3009 0022 FB68     		ldr	r3, [r7, #12]
 3010 0024 1B68     		ldr	r3, [r3]
 3011 0026 22F00202 		bic	r2, r2, #2
 3012 002a 5A60     		str	r2, [r3, #4]
1311:./Libraries/STM32F4xx_HAL_Driver/Src/stm32f4xx_hal_i2s.c **** 
1312:./Libraries/STM32F4xx_HAL_Driver/Src/stm32f4xx_hal_i2s.c ****     hi2s->TxXferCount = 0U;
 3013              		.loc 1 1312 23
 3014 002c FB68     		ldr	r3, [r7, #12]
 3015 002e 0022     		movs	r2, #0
 3016 0030 5A85     		strh	r2, [r3, #42]	@ movhi
1313:./Libraries/STM32F4xx_HAL_Driver/Src/stm32f4xx_hal_i2s.c ****     hi2s->State       = HAL_I2S_STATE_READY;
 3017              		.loc 1 1313 23
 3018 0032 FB68     		ldr	r3, [r7, #12]
 3019 0034 0122     		movs	r2, #1
 3020 0036 83F84120 		strb	r2, [r3, #65]
 3021              	.L167:
1314:./Libraries/STM32F4xx_HAL_Driver/Src/stm32f4xx_hal_i2s.c ****   }
1315:./Libraries/STM32F4xx_HAL_Driver/Src/stm32f4xx_hal_i2s.c ****   HAL_I2S_TxCpltCallback(hi2s);
 3022              		.loc 1 1315 3
 3023 003a F868     		ldr	r0, [r7, #12]
 3024 003c FFF7FEFF 		bl	HAL_I2S_TxCpltCallback
1316:./Libraries/STM32F4xx_HAL_Driver/Src/stm32f4xx_hal_i2s.c **** }
 3025              		.loc 1 1316 1
 3026 0040 00BF     		nop
 3027 0042 1037     		adds	r7, r7, #16
 3028              	.LCFI121:
 3029              		.cfi_def_cfa_offset 8
 3030 0044 BD46     		mov	sp, r7
 3031              	.LCFI122:
 3032              		.cfi_def_cfa_register 13
 3033              		@ sp needed
 3034 0046 80BD     		pop	{r7, pc}
 3035              		.cfi_endproc
 3036              	.LFE147:
 3038              		.section	.text.I2S_DMATxHalfCplt,"ax",%progbits
 3039              		.align	1
 3040              		.syntax unified
 3041              		.thumb
 3042              		.thumb_func
 3043              		.fpu fpv4-sp-d16
 3045              	I2S_DMATxHalfCplt:
 3046              	.LFB148:
1317:./Libraries/STM32F4xx_HAL_Driver/Src/stm32f4xx_hal_i2s.c **** /**
ARM GAS  /tmp/ccIc9xCh.s 			page 77


1318:./Libraries/STM32F4xx_HAL_Driver/Src/stm32f4xx_hal_i2s.c ****   * @brief DMA I2S transmit process half complete callback
