ARM GAS  /tmp/ccdJbK3i.s 			page 1


   1              		.cpu cortex-m4
   2              		.eabi_attribute 27, 1
   3              		.eabi_attribute 28, 1
   4              		.eabi_attribute 20, 1
   5              		.eabi_attribute 21, 1
   6              		.eabi_attribute 23, 3
   7              		.eabi_attribute 24, 1
   8              		.eabi_attribute 25, 1
   9              		.eabi_attribute 26, 1
  10              		.eabi_attribute 30, 1
  11              		.eabi_attribute 34, 1
  12              		.eabi_attribute 18, 4
  13              		.file	"stm32f4xx_hal_rtc.c"
  14              		.text
  15              	.Ltext0:
  16              		.cfi_sections	.debug_frame
  17              		.section	.text.HAL_RTC_MspInit,"ax",%progbits
  18              		.align	1
  19              		.weak	HAL_RTC_MspInit
  20              		.arch armv7e-m
  21              		.syntax unified
  22              		.thumb
  23              		.thumb_func
  24              		.fpu fpv4-sp-d16
  26              	HAL_RTC_MspInit:
  27              	.LVL0:
  28              	.LFB128:
  29              		.file 1 "./Libraries/STM32F4xx_HAL_Driver/Src/stm32f4xx_hal_rtc.c"
   1:./Libraries/STM32F4xx_HAL_Driver/Src/stm32f4xx_hal_rtc.c **** /**
   2:./Libraries/STM32F4xx_HAL_Driver/Src/stm32f4xx_hal_rtc.c ****   ******************************************************************************
   3:./Libraries/STM32F4xx_HAL_Driver/Src/stm32f4xx_hal_rtc.c ****   * @file    stm32f4xx_hal_rtc.c
   4:./Libraries/STM32F4xx_HAL_Driver/Src/stm32f4xx_hal_rtc.c ****   * @author  MCD Application Team
   5:./Libraries/STM32F4xx_HAL_Driver/Src/stm32f4xx_hal_rtc.c ****   * @brief   RTC HAL module driver.
   6:./Libraries/STM32F4xx_HAL_Driver/Src/stm32f4xx_hal_rtc.c ****   *          This file provides firmware functions to manage the following 
   7:./Libraries/STM32F4xx_HAL_Driver/Src/stm32f4xx_hal_rtc.c ****   *          functionalities of the Real Time Clock (RTC) peripheral:
   8:./Libraries/STM32F4xx_HAL_Driver/Src/stm32f4xx_hal_rtc.c ****   *           + Initialization and de-initialization functions
   9:./Libraries/STM32F4xx_HAL_Driver/Src/stm32f4xx_hal_rtc.c ****   *           + RTC Time and Date functions
  10:./Libraries/STM32F4xx_HAL_Driver/Src/stm32f4xx_hal_rtc.c ****   *           + RTC Alarm functions
  11:./Libraries/STM32F4xx_HAL_Driver/Src/stm32f4xx_hal_rtc.c ****   *           + Peripheral Control functions   
  12:./Libraries/STM32F4xx_HAL_Driver/Src/stm32f4xx_hal_rtc.c ****   *           + Peripheral State functions
  13:./Libraries/STM32F4xx_HAL_Driver/Src/stm32f4xx_hal_rtc.c ****   *         
  14:./Libraries/STM32F4xx_HAL_Driver/Src/stm32f4xx_hal_rtc.c ****   @verbatim
  15:./Libraries/STM32F4xx_HAL_Driver/Src/stm32f4xx_hal_rtc.c ****   ==============================================================================
  16:./Libraries/STM32F4xx_HAL_Driver/Src/stm32f4xx_hal_rtc.c ****               ##### Backup Domain Operating Condition #####
  17:./Libraries/STM32F4xx_HAL_Driver/Src/stm32f4xx_hal_rtc.c ****   ==============================================================================
  18:./Libraries/STM32F4xx_HAL_Driver/Src/stm32f4xx_hal_rtc.c ****   [..] The real-time clock (RTC), the RTC backup registers, and the backup 
  19:./Libraries/STM32F4xx_HAL_Driver/Src/stm32f4xx_hal_rtc.c ****        SRAM (BKP SRAM) can be powered from the VBAT voltage when the main 
  20:./Libraries/STM32F4xx_HAL_Driver/Src/stm32f4xx_hal_rtc.c ****        VDD supply is powered off.
  21:./Libraries/STM32F4xx_HAL_Driver/Src/stm32f4xx_hal_rtc.c ****        To retain the content of the RTC backup registers, backup SRAM, and supply 
  22:./Libraries/STM32F4xx_HAL_Driver/Src/stm32f4xx_hal_rtc.c ****        the RTC when VDD is turned off, VBAT pin can be connected to an optional 
  23:./Libraries/STM32F4xx_HAL_Driver/Src/stm32f4xx_hal_rtc.c ****        standby voltage supplied by a battery or by another source.
  24:./Libraries/STM32F4xx_HAL_Driver/Src/stm32f4xx_hal_rtc.c **** 
  25:./Libraries/STM32F4xx_HAL_Driver/Src/stm32f4xx_hal_rtc.c ****   [..] To allow the RTC operating even when the main digital supply (VDD) is turned
  26:./Libraries/STM32F4xx_HAL_Driver/Src/stm32f4xx_hal_rtc.c ****        off, the VBAT pin powers the following blocks:
  27:./Libraries/STM32F4xx_HAL_Driver/Src/stm32f4xx_hal_rtc.c ****     (#) The RTC
  28:./Libraries/STM32F4xx_HAL_Driver/Src/stm32f4xx_hal_rtc.c ****     (#) The LSE oscillator
  29:./Libraries/STM32F4xx_HAL_Driver/Src/stm32f4xx_hal_rtc.c ****     (#) The backup SRAM when the low power backup regulator is enabled
ARM GAS  /tmp/ccdJbK3i.s 			page 2


  30:./Libraries/STM32F4xx_HAL_Driver/Src/stm32f4xx_hal_rtc.c ****     (#) PC13 to PC15 I/Os, plus PI8 I/O (when available)
  31:./Libraries/STM32F4xx_HAL_Driver/Src/stm32f4xx_hal_rtc.c ****   
  32:./Libraries/STM32F4xx_HAL_Driver/Src/stm32f4xx_hal_rtc.c ****   [..] When the backup domain is supplied by VDD (analog switch connected to VDD),
  33:./Libraries/STM32F4xx_HAL_Driver/Src/stm32f4xx_hal_rtc.c ****        the following pins are available:
  34:./Libraries/STM32F4xx_HAL_Driver/Src/stm32f4xx_hal_rtc.c ****     (#) PC14 and PC15 can be used as either GPIO or LSE pins
  35:./Libraries/STM32F4xx_HAL_Driver/Src/stm32f4xx_hal_rtc.c ****     (#) PC13 can be used as a GPIO or as the RTC_AF1 pin
  36:./Libraries/STM32F4xx_HAL_Driver/Src/stm32f4xx_hal_rtc.c ****     (#) PI8 can be used as a GPIO or as the RTC_AF2 pin
  37:./Libraries/STM32F4xx_HAL_Driver/Src/stm32f4xx_hal_rtc.c ****   
  38:./Libraries/STM32F4xx_HAL_Driver/Src/stm32f4xx_hal_rtc.c ****   [..] When the backup domain is supplied by VBAT (analog switch connected to VBAT 
  39:./Libraries/STM32F4xx_HAL_Driver/Src/stm32f4xx_hal_rtc.c ****        because VDD is not present), the following pins are available:
  40:./Libraries/STM32F4xx_HAL_Driver/Src/stm32f4xx_hal_rtc.c ****     (#) PC14 and PC15 can be used as LSE pins only
  41:./Libraries/STM32F4xx_HAL_Driver/Src/stm32f4xx_hal_rtc.c ****     (#) PC13 can be used as the RTC_AF1 pin 
  42:./Libraries/STM32F4xx_HAL_Driver/Src/stm32f4xx_hal_rtc.c ****     (#) PI8 can be used as the RTC_AF2 pin
  43:./Libraries/STM32F4xx_HAL_Driver/Src/stm32f4xx_hal_rtc.c ****              
  44:./Libraries/STM32F4xx_HAL_Driver/Src/stm32f4xx_hal_rtc.c ****                    ##### Backup Domain Reset #####
  45:./Libraries/STM32F4xx_HAL_Driver/Src/stm32f4xx_hal_rtc.c ****   ==================================================================
  46:./Libraries/STM32F4xx_HAL_Driver/Src/stm32f4xx_hal_rtc.c ****   [..] The backup domain reset sets all RTC registers and the RCC_BDCR register 
  47:./Libraries/STM32F4xx_HAL_Driver/Src/stm32f4xx_hal_rtc.c ****        to their reset values. The BKPSRAM is not affected by this reset. The only
  48:./Libraries/STM32F4xx_HAL_Driver/Src/stm32f4xx_hal_rtc.c ****        way to reset the BKPSRAM is through the Flash interface by requesting 
  49:./Libraries/STM32F4xx_HAL_Driver/Src/stm32f4xx_hal_rtc.c ****        a protection level change from 1 to 0.
  50:./Libraries/STM32F4xx_HAL_Driver/Src/stm32f4xx_hal_rtc.c ****   [..] A backup domain reset is generated when one of the following events occurs:
  51:./Libraries/STM32F4xx_HAL_Driver/Src/stm32f4xx_hal_rtc.c ****     (#) Software reset, triggered by setting the BDRST bit in the 
  52:./Libraries/STM32F4xx_HAL_Driver/Src/stm32f4xx_hal_rtc.c ****         RCC Backup domain control register (RCC_BDCR). 
  53:./Libraries/STM32F4xx_HAL_Driver/Src/stm32f4xx_hal_rtc.c ****     (#) VDD or VBAT power on, if both supplies have previously been powered off.  
  54:./Libraries/STM32F4xx_HAL_Driver/Src/stm32f4xx_hal_rtc.c **** 
  55:./Libraries/STM32F4xx_HAL_Driver/Src/stm32f4xx_hal_rtc.c ****                    ##### Backup Domain Access #####
  56:./Libraries/STM32F4xx_HAL_Driver/Src/stm32f4xx_hal_rtc.c ****   ==================================================================
  57:./Libraries/STM32F4xx_HAL_Driver/Src/stm32f4xx_hal_rtc.c ****   [..] After reset, the backup domain (RTC registers, RTC backup data 
  58:./Libraries/STM32F4xx_HAL_Driver/Src/stm32f4xx_hal_rtc.c ****        registers and backup SRAM) is protected against possible unwanted write 
  59:./Libraries/STM32F4xx_HAL_Driver/Src/stm32f4xx_hal_rtc.c ****        accesses. 
  60:./Libraries/STM32F4xx_HAL_Driver/Src/stm32f4xx_hal_rtc.c ****   [..] To enable access to the RTC Domain and RTC registers, proceed as follows:
  61:./Libraries/STM32F4xx_HAL_Driver/Src/stm32f4xx_hal_rtc.c ****     (+) Enable the Power Controller (PWR) APB1 interface clock using the
  62:./Libraries/STM32F4xx_HAL_Driver/Src/stm32f4xx_hal_rtc.c ****         __HAL_RCC_PWR_CLK_ENABLE() function.
  63:./Libraries/STM32F4xx_HAL_Driver/Src/stm32f4xx_hal_rtc.c ****     (+) Enable access to RTC domain using the HAL_PWR_EnableBkUpAccess() function.
  64:./Libraries/STM32F4xx_HAL_Driver/Src/stm32f4xx_hal_rtc.c ****     (+) Select the RTC clock source using the __HAL_RCC_RTC_CONFIG() function.
  65:./Libraries/STM32F4xx_HAL_Driver/Src/stm32f4xx_hal_rtc.c ****     (+) Enable RTC Clock using the __HAL_RCC_RTC_ENABLE() function.
  66:./Libraries/STM32F4xx_HAL_Driver/Src/stm32f4xx_hal_rtc.c ****   
  67:./Libraries/STM32F4xx_HAL_Driver/Src/stm32f4xx_hal_rtc.c ****   
  68:./Libraries/STM32F4xx_HAL_Driver/Src/stm32f4xx_hal_rtc.c ****                   ##### How to use this driver #####
  69:./Libraries/STM32F4xx_HAL_Driver/Src/stm32f4xx_hal_rtc.c ****   ==================================================================
  70:./Libraries/STM32F4xx_HAL_Driver/Src/stm32f4xx_hal_rtc.c ****   [..] 
  71:./Libraries/STM32F4xx_HAL_Driver/Src/stm32f4xx_hal_rtc.c ****     (+) Enable the RTC domain access (see description in the section above).
  72:./Libraries/STM32F4xx_HAL_Driver/Src/stm32f4xx_hal_rtc.c ****     (+) Configure the RTC Prescaler (Asynchronous and Synchronous) and RTC hour 
  73:./Libraries/STM32F4xx_HAL_Driver/Src/stm32f4xx_hal_rtc.c ****         format using the HAL_RTC_Init() function.
  74:./Libraries/STM32F4xx_HAL_Driver/Src/stm32f4xx_hal_rtc.c ****   
  75:./Libraries/STM32F4xx_HAL_Driver/Src/stm32f4xx_hal_rtc.c ****   *** Time and Date configuration ***
  76:./Libraries/STM32F4xx_HAL_Driver/Src/stm32f4xx_hal_rtc.c ****   ===================================
  77:./Libraries/STM32F4xx_HAL_Driver/Src/stm32f4xx_hal_rtc.c ****   [..] 
  78:./Libraries/STM32F4xx_HAL_Driver/Src/stm32f4xx_hal_rtc.c ****     (+) To configure the RTC Calendar (Time and Date) use the HAL_RTC_SetTime() 
  79:./Libraries/STM32F4xx_HAL_Driver/Src/stm32f4xx_hal_rtc.c ****         and HAL_RTC_SetDate() functions.
  80:./Libraries/STM32F4xx_HAL_Driver/Src/stm32f4xx_hal_rtc.c ****     (+) To read the RTC Calendar, use the HAL_RTC_GetTime() and HAL_RTC_GetDate() functions. 
  81:./Libraries/STM32F4xx_HAL_Driver/Src/stm32f4xx_hal_rtc.c ****   
  82:./Libraries/STM32F4xx_HAL_Driver/Src/stm32f4xx_hal_rtc.c ****   *** Alarm configuration ***
  83:./Libraries/STM32F4xx_HAL_Driver/Src/stm32f4xx_hal_rtc.c ****   ===========================
  84:./Libraries/STM32F4xx_HAL_Driver/Src/stm32f4xx_hal_rtc.c ****   [..]
  85:./Libraries/STM32F4xx_HAL_Driver/Src/stm32f4xx_hal_rtc.c ****     (+) To configure the RTC Alarm use the HAL_RTC_SetAlarm() function. 
  86:./Libraries/STM32F4xx_HAL_Driver/Src/stm32f4xx_hal_rtc.c ****         You can also configure the RTC Alarm with interrupt mode using the HAL_RTC_SetAlarm_IT() fu
ARM GAS  /tmp/ccdJbK3i.s 			page 3


  87:./Libraries/STM32F4xx_HAL_Driver/Src/stm32f4xx_hal_rtc.c ****     (+) To read the RTC Alarm, use the HAL_RTC_GetAlarm() function.
  88:./Libraries/STM32F4xx_HAL_Driver/Src/stm32f4xx_hal_rtc.c ****   
  89:./Libraries/STM32F4xx_HAL_Driver/Src/stm32f4xx_hal_rtc.c ****                   ##### RTC and low power modes #####
  90:./Libraries/STM32F4xx_HAL_Driver/Src/stm32f4xx_hal_rtc.c ****   ==================================================================
  91:./Libraries/STM32F4xx_HAL_Driver/Src/stm32f4xx_hal_rtc.c ****   [..] The MCU can be woken up from a low power mode by an RTC alternate 
  92:./Libraries/STM32F4xx_HAL_Driver/Src/stm32f4xx_hal_rtc.c ****        function.
  93:./Libraries/STM32F4xx_HAL_Driver/Src/stm32f4xx_hal_rtc.c ****   [..] The RTC alternate functions are the RTC alarms (Alarm A and Alarm B), 
  94:./Libraries/STM32F4xx_HAL_Driver/Src/stm32f4xx_hal_rtc.c ****        RTC wake-up, RTC tamper event detection and RTC time stamp event detection.
  95:./Libraries/STM32F4xx_HAL_Driver/Src/stm32f4xx_hal_rtc.c ****        These RTC alternate functions can wake up the system from the Stop and 
  96:./Libraries/STM32F4xx_HAL_Driver/Src/stm32f4xx_hal_rtc.c ****        Standby low power modes.
  97:./Libraries/STM32F4xx_HAL_Driver/Src/stm32f4xx_hal_rtc.c ****   [..] The system can also wake up from low power modes without depending 
  98:./Libraries/STM32F4xx_HAL_Driver/Src/stm32f4xx_hal_rtc.c ****        on an external interrupt (Auto-wake-up mode), by using the RTC alarm 
  99:./Libraries/STM32F4xx_HAL_Driver/Src/stm32f4xx_hal_rtc.c ****        or the RTC wake-up events.
 100:./Libraries/STM32F4xx_HAL_Driver/Src/stm32f4xx_hal_rtc.c ****   [..] The RTC provides a programmable time base for waking up from the 
 101:./Libraries/STM32F4xx_HAL_Driver/Src/stm32f4xx_hal_rtc.c ****        Stop or Standby mode at regular intervals.
 102:./Libraries/STM32F4xx_HAL_Driver/Src/stm32f4xx_hal_rtc.c ****        Wake-up from STOP and STANDBY modes is possible only when the RTC clock source
 103:./Libraries/STM32F4xx_HAL_Driver/Src/stm32f4xx_hal_rtc.c ****        is LSE or LSI.
 104:./Libraries/STM32F4xx_HAL_Driver/Src/stm32f4xx_hal_rtc.c ****      
 105:./Libraries/STM32F4xx_HAL_Driver/Src/stm32f4xx_hal_rtc.c ****    @endverbatim
 106:./Libraries/STM32F4xx_HAL_Driver/Src/stm32f4xx_hal_rtc.c ****   ******************************************************************************
 107:./Libraries/STM32F4xx_HAL_Driver/Src/stm32f4xx_hal_rtc.c ****   * @attention
 108:./Libraries/STM32F4xx_HAL_Driver/Src/stm32f4xx_hal_rtc.c ****   *
 109:./Libraries/STM32F4xx_HAL_Driver/Src/stm32f4xx_hal_rtc.c ****   * <h2><center>&copy; COPYRIGHT(c) 2017 STMicroelectronics</center></h2>
 110:./Libraries/STM32F4xx_HAL_Driver/Src/stm32f4xx_hal_rtc.c ****   *
 111:./Libraries/STM32F4xx_HAL_Driver/Src/stm32f4xx_hal_rtc.c ****   * Redistribution and use in source and binary forms, with or without modification,
 112:./Libraries/STM32F4xx_HAL_Driver/Src/stm32f4xx_hal_rtc.c ****   * are permitted provided that the following conditions are met:
 113:./Libraries/STM32F4xx_HAL_Driver/Src/stm32f4xx_hal_rtc.c ****   *   1. Redistributions of source code must retain the above copyright notice,
 114:./Libraries/STM32F4xx_HAL_Driver/Src/stm32f4xx_hal_rtc.c ****   *      this list of conditions and the following disclaimer.
 115:./Libraries/STM32F4xx_HAL_Driver/Src/stm32f4xx_hal_rtc.c ****   *   2. Redistributions in binary form must reproduce the above copyright notice,
 116:./Libraries/STM32F4xx_HAL_Driver/Src/stm32f4xx_hal_rtc.c ****   *      this list of conditions and the following disclaimer in the documentation
 117:./Libraries/STM32F4xx_HAL_Driver/Src/stm32f4xx_hal_rtc.c ****   *      and/or other materials provided with the distribution.
 118:./Libraries/STM32F4xx_HAL_Driver/Src/stm32f4xx_hal_rtc.c ****   *   3. Neither the name of STMicroelectronics nor the names of its contributors
 119:./Libraries/STM32F4xx_HAL_Driver/Src/stm32f4xx_hal_rtc.c ****   *      may be used to endorse or promote products derived from this software
 120:./Libraries/STM32F4xx_HAL_Driver/Src/stm32f4xx_hal_rtc.c ****   *      without specific prior written permission.
 121:./Libraries/STM32F4xx_HAL_Driver/Src/stm32f4xx_hal_rtc.c ****   *
 122:./Libraries/STM32F4xx_HAL_Driver/Src/stm32f4xx_hal_rtc.c ****   * THIS SOFTWARE IS PROVIDED BY THE COPYRIGHT HOLDERS AND CONTRIBUTORS "AS IS"
 123:./Libraries/STM32F4xx_HAL_Driver/Src/stm32f4xx_hal_rtc.c ****   * AND ANY EXPRESS OR IMPLIED WARRANTIES, INCLUDING, BUT NOT LIMITED TO, THE
 124:./Libraries/STM32F4xx_HAL_Driver/Src/stm32f4xx_hal_rtc.c ****   * IMPLIED WARRANTIES OF MERCHANTABILITY AND FITNESS FOR A PARTICULAR PURPOSE ARE
 125:./Libraries/STM32F4xx_HAL_Driver/Src/stm32f4xx_hal_rtc.c ****   * DISCLAIMED. IN NO EVENT SHALL THE COPYRIGHT HOLDER OR CONTRIBUTORS BE LIABLE
 126:./Libraries/STM32F4xx_HAL_Driver/Src/stm32f4xx_hal_rtc.c ****   * FOR ANY DIRECT, INDIRECT, INCIDENTAL, SPECIAL, EXEMPLARY, OR CONSEQUENTIAL
 127:./Libraries/STM32F4xx_HAL_Driver/Src/stm32f4xx_hal_rtc.c ****   * DAMAGES (INCLUDING, BUT NOT LIMITED TO, PROCUREMENT OF SUBSTITUTE GOODS OR
 128:./Libraries/STM32F4xx_HAL_Driver/Src/stm32f4xx_hal_rtc.c ****   * SERVICES; LOSS OF USE, DATA, OR PROFITS; OR BUSINESS INTERRUPTION) HOWEVER
 129:./Libraries/STM32F4xx_HAL_Driver/Src/stm32f4xx_hal_rtc.c ****   * CAUSED AND ON ANY THEORY OF LIABILITY, WHETHER IN CONTRACT, STRICT LIABILITY,
 130:./Libraries/STM32F4xx_HAL_Driver/Src/stm32f4xx_hal_rtc.c ****   * OR TORT (INCLUDING NEGLIGENCE OR OTHERWISE) ARISING IN ANY WAY OUT OF THE USE
 131:./Libraries/STM32F4xx_HAL_Driver/Src/stm32f4xx_hal_rtc.c ****   * OF THIS SOFTWARE, EVEN IF ADVISED OF THE POSSIBILITY OF SUCH DAMAGE.
 132:./Libraries/STM32F4xx_HAL_Driver/Src/stm32f4xx_hal_rtc.c ****   *
 133:./Libraries/STM32F4xx_HAL_Driver/Src/stm32f4xx_hal_rtc.c ****   ******************************************************************************
 134:./Libraries/STM32F4xx_HAL_Driver/Src/stm32f4xx_hal_rtc.c ****   */ 
 135:./Libraries/STM32F4xx_HAL_Driver/Src/stm32f4xx_hal_rtc.c **** 
 136:./Libraries/STM32F4xx_HAL_Driver/Src/stm32f4xx_hal_rtc.c **** /* Includes ------------------------------------------------------------------*/
 137:./Libraries/STM32F4xx_HAL_Driver/Src/stm32f4xx_hal_rtc.c **** #include "stm32f4xx_hal.h"
 138:./Libraries/STM32F4xx_HAL_Driver/Src/stm32f4xx_hal_rtc.c **** 
 139:./Libraries/STM32F4xx_HAL_Driver/Src/stm32f4xx_hal_rtc.c **** /** @addtogroup STM32F4xx_HAL_Driver
 140:./Libraries/STM32F4xx_HAL_Driver/Src/stm32f4xx_hal_rtc.c ****   * @{
 141:./Libraries/STM32F4xx_HAL_Driver/Src/stm32f4xx_hal_rtc.c ****   */
 142:./Libraries/STM32F4xx_HAL_Driver/Src/stm32f4xx_hal_rtc.c **** 
 143:./Libraries/STM32F4xx_HAL_Driver/Src/stm32f4xx_hal_rtc.c **** /** @defgroup RTC RTC
ARM GAS  /tmp/ccdJbK3i.s 			page 4


 144:./Libraries/STM32F4xx_HAL_Driver/Src/stm32f4xx_hal_rtc.c ****   * @brief RTC HAL module driver
 145:./Libraries/STM32F4xx_HAL_Driver/Src/stm32f4xx_hal_rtc.c ****   * @{
 146:./Libraries/STM32F4xx_HAL_Driver/Src/stm32f4xx_hal_rtc.c ****   */
 147:./Libraries/STM32F4xx_HAL_Driver/Src/stm32f4xx_hal_rtc.c **** 
 148:./Libraries/STM32F4xx_HAL_Driver/Src/stm32f4xx_hal_rtc.c **** #ifdef HAL_RTC_MODULE_ENABLED
 149:./Libraries/STM32F4xx_HAL_Driver/Src/stm32f4xx_hal_rtc.c **** 
 150:./Libraries/STM32F4xx_HAL_Driver/Src/stm32f4xx_hal_rtc.c **** /* Private typedef -----------------------------------------------------------*/
 151:./Libraries/STM32F4xx_HAL_Driver/Src/stm32f4xx_hal_rtc.c **** /* Private define ------------------------------------------------------------*/
 152:./Libraries/STM32F4xx_HAL_Driver/Src/stm32f4xx_hal_rtc.c **** /* Private macro -------------------------------------------------------------*/
 153:./Libraries/STM32F4xx_HAL_Driver/Src/stm32f4xx_hal_rtc.c **** /* Private variables ---------------------------------------------------------*/
 154:./Libraries/STM32F4xx_HAL_Driver/Src/stm32f4xx_hal_rtc.c **** /* Private function prototypes -----------------------------------------------*/
 155:./Libraries/STM32F4xx_HAL_Driver/Src/stm32f4xx_hal_rtc.c **** /* Private functions ---------------------------------------------------------*/
 156:./Libraries/STM32F4xx_HAL_Driver/Src/stm32f4xx_hal_rtc.c **** 
 157:./Libraries/STM32F4xx_HAL_Driver/Src/stm32f4xx_hal_rtc.c **** /** @defgroup RTC_Exported_Functions RTC Exported Functions
 158:./Libraries/STM32F4xx_HAL_Driver/Src/stm32f4xx_hal_rtc.c ****   * @{
 159:./Libraries/STM32F4xx_HAL_Driver/Src/stm32f4xx_hal_rtc.c ****   */
 160:./Libraries/STM32F4xx_HAL_Driver/Src/stm32f4xx_hal_rtc.c ****   
 161:./Libraries/STM32F4xx_HAL_Driver/Src/stm32f4xx_hal_rtc.c **** /** @defgroup RTC_Exported_Functions_Group1 Initialization and de-initialization functions 
 162:./Libraries/STM32F4xx_HAL_Driver/Src/stm32f4xx_hal_rtc.c ****  *  @brief    Initialization and Configuration functions 
 163:./Libraries/STM32F4xx_HAL_Driver/Src/stm32f4xx_hal_rtc.c ****  *
 164:./Libraries/STM32F4xx_HAL_Driver/Src/stm32f4xx_hal_rtc.c **** @verbatim    
 165:./Libraries/STM32F4xx_HAL_Driver/Src/stm32f4xx_hal_rtc.c ****  ===============================================================================
 166:./Libraries/STM32F4xx_HAL_Driver/Src/stm32f4xx_hal_rtc.c ****               ##### Initialization and de-initialization functions #####
 167:./Libraries/STM32F4xx_HAL_Driver/Src/stm32f4xx_hal_rtc.c ****  ===============================================================================
 168:./Libraries/STM32F4xx_HAL_Driver/Src/stm32f4xx_hal_rtc.c ****    [..] This section provides functions allowing to initialize and configure the 
 169:./Libraries/STM32F4xx_HAL_Driver/Src/stm32f4xx_hal_rtc.c ****          RTC Prescaler (Synchronous and Asynchronous), RTC Hour format, disable 
 170:./Libraries/STM32F4xx_HAL_Driver/Src/stm32f4xx_hal_rtc.c ****          RTC registers Write protection, enter and exit the RTC initialization mode, 
 171:./Libraries/STM32F4xx_HAL_Driver/Src/stm32f4xx_hal_rtc.c ****          RTC registers synchronization check and reference clock detection enable.
 172:./Libraries/STM32F4xx_HAL_Driver/Src/stm32f4xx_hal_rtc.c ****          (#) The RTC Prescaler is programmed to generate the RTC 1Hz time base. 
 173:./Libraries/STM32F4xx_HAL_Driver/Src/stm32f4xx_hal_rtc.c ****              It is split into 2 programmable prescalers to minimize power consumption.
 174:./Libraries/STM32F4xx_HAL_Driver/Src/stm32f4xx_hal_rtc.c ****              (++) A 7-bit asynchronous prescaler and a 13-bit synchronous prescaler.
 175:./Libraries/STM32F4xx_HAL_Driver/Src/stm32f4xx_hal_rtc.c ****              (++) When both prescalers are used, it is recommended to configure the 
 176:./Libraries/STM32F4xx_HAL_Driver/Src/stm32f4xx_hal_rtc.c ****                  asynchronous prescaler to a high value to minimize power consumption.
 177:./Libraries/STM32F4xx_HAL_Driver/Src/stm32f4xx_hal_rtc.c ****          (#) All RTC registers are Write protected. Writing to the RTC registers
 178:./Libraries/STM32F4xx_HAL_Driver/Src/stm32f4xx_hal_rtc.c ****              is enabled by writing a key into the Write Protection register, RTC_WPR.
 179:./Libraries/STM32F4xx_HAL_Driver/Src/stm32f4xx_hal_rtc.c ****          (#) To configure the RTC Calendar, user application should enter 
 180:./Libraries/STM32F4xx_HAL_Driver/Src/stm32f4xx_hal_rtc.c ****              initialization mode. In this mode, the calendar counter is stopped 
 181:./Libraries/STM32F4xx_HAL_Driver/Src/stm32f4xx_hal_rtc.c ****              and its value can be updated. When the initialization sequence is 
 182:./Libraries/STM32F4xx_HAL_Driver/Src/stm32f4xx_hal_rtc.c ****              complete, the calendar restarts counting after 4 RTCCLK cycles.
 183:./Libraries/STM32F4xx_HAL_Driver/Src/stm32f4xx_hal_rtc.c ****          (#) To read the calendar through the shadow registers after Calendar 
 184:./Libraries/STM32F4xx_HAL_Driver/Src/stm32f4xx_hal_rtc.c ****              initialization, calendar update or after wake-up from low power modes 
 185:./Libraries/STM32F4xx_HAL_Driver/Src/stm32f4xx_hal_rtc.c ****              the software must first clear the RSF flag. The software must then 
 186:./Libraries/STM32F4xx_HAL_Driver/Src/stm32f4xx_hal_rtc.c ****              wait until it is set again before reading the calendar, which means 
 187:./Libraries/STM32F4xx_HAL_Driver/Src/stm32f4xx_hal_rtc.c ****              that the calendar registers have been correctly copied into the 
 188:./Libraries/STM32F4xx_HAL_Driver/Src/stm32f4xx_hal_rtc.c ****              RTC_TR and RTC_DR shadow registers.The HAL_RTC_WaitForSynchro() function 
 189:./Libraries/STM32F4xx_HAL_Driver/Src/stm32f4xx_hal_rtc.c ****              implements the above software sequence (RSF clear and RSF check).
 190:./Libraries/STM32F4xx_HAL_Driver/Src/stm32f4xx_hal_rtc.c ****  
 191:./Libraries/STM32F4xx_HAL_Driver/Src/stm32f4xx_hal_rtc.c **** @endverbatim
 192:./Libraries/STM32F4xx_HAL_Driver/Src/stm32f4xx_hal_rtc.c ****   * @{
 193:./Libraries/STM32F4xx_HAL_Driver/Src/stm32f4xx_hal_rtc.c ****   */
 194:./Libraries/STM32F4xx_HAL_Driver/Src/stm32f4xx_hal_rtc.c **** 
 195:./Libraries/STM32F4xx_HAL_Driver/Src/stm32f4xx_hal_rtc.c **** /**
 196:./Libraries/STM32F4xx_HAL_Driver/Src/stm32f4xx_hal_rtc.c ****   * @brief  Initializes the RTC peripheral 
 197:./Libraries/STM32F4xx_HAL_Driver/Src/stm32f4xx_hal_rtc.c ****   * @param  hrtc pointer to a RTC_HandleTypeDef structure that contains
 198:./Libraries/STM32F4xx_HAL_Driver/Src/stm32f4xx_hal_rtc.c ****   *                the configuration information for RTC.
 199:./Libraries/STM32F4xx_HAL_Driver/Src/stm32f4xx_hal_rtc.c ****   * @retval HAL status
 200:./Libraries/STM32F4xx_HAL_Driver/Src/stm32f4xx_hal_rtc.c ****   */
ARM GAS  /tmp/ccdJbK3i.s 			page 5


 201:./Libraries/STM32F4xx_HAL_Driver/Src/stm32f4xx_hal_rtc.c **** HAL_StatusTypeDef HAL_RTC_Init(RTC_HandleTypeDef *hrtc)
 202:./Libraries/STM32F4xx_HAL_Driver/Src/stm32f4xx_hal_rtc.c **** {
 203:./Libraries/STM32F4xx_HAL_Driver/Src/stm32f4xx_hal_rtc.c ****   /* Check the RTC peripheral state */
 204:./Libraries/STM32F4xx_HAL_Driver/Src/stm32f4xx_hal_rtc.c ****   if(hrtc == NULL)
 205:./Libraries/STM32F4xx_HAL_Driver/Src/stm32f4xx_hal_rtc.c ****   {
 206:./Libraries/STM32F4xx_HAL_Driver/Src/stm32f4xx_hal_rtc.c ****      return HAL_ERROR;
 207:./Libraries/STM32F4xx_HAL_Driver/Src/stm32f4xx_hal_rtc.c ****   }
 208:./Libraries/STM32F4xx_HAL_Driver/Src/stm32f4xx_hal_rtc.c ****   
 209:./Libraries/STM32F4xx_HAL_Driver/Src/stm32f4xx_hal_rtc.c ****   /* Check the parameters */
 210:./Libraries/STM32F4xx_HAL_Driver/Src/stm32f4xx_hal_rtc.c ****   assert_param(IS_RTC_HOUR_FORMAT(hrtc->Init.HourFormat));
 211:./Libraries/STM32F4xx_HAL_Driver/Src/stm32f4xx_hal_rtc.c ****   assert_param(IS_RTC_ASYNCH_PREDIV(hrtc->Init.AsynchPrediv));
 212:./Libraries/STM32F4xx_HAL_Driver/Src/stm32f4xx_hal_rtc.c ****   assert_param(IS_RTC_SYNCH_PREDIV(hrtc->Init.SynchPrediv));
 213:./Libraries/STM32F4xx_HAL_Driver/Src/stm32f4xx_hal_rtc.c ****   assert_param (IS_RTC_OUTPUT(hrtc->Init.OutPut));
 214:./Libraries/STM32F4xx_HAL_Driver/Src/stm32f4xx_hal_rtc.c ****   assert_param (IS_RTC_OUTPUT_POL(hrtc->Init.OutPutPolarity));
 215:./Libraries/STM32F4xx_HAL_Driver/Src/stm32f4xx_hal_rtc.c ****   assert_param(IS_RTC_OUTPUT_TYPE(hrtc->Init.OutPutType));
 216:./Libraries/STM32F4xx_HAL_Driver/Src/stm32f4xx_hal_rtc.c ****     
 217:./Libraries/STM32F4xx_HAL_Driver/Src/stm32f4xx_hal_rtc.c ****   if(hrtc->State == HAL_RTC_STATE_RESET)
 218:./Libraries/STM32F4xx_HAL_Driver/Src/stm32f4xx_hal_rtc.c ****   {
 219:./Libraries/STM32F4xx_HAL_Driver/Src/stm32f4xx_hal_rtc.c ****     /* Allocate lock resource and initialize it */
 220:./Libraries/STM32F4xx_HAL_Driver/Src/stm32f4xx_hal_rtc.c ****     hrtc->Lock = HAL_UNLOCKED;
 221:./Libraries/STM32F4xx_HAL_Driver/Src/stm32f4xx_hal_rtc.c ****     /* Initialize RTC MSP */
 222:./Libraries/STM32F4xx_HAL_Driver/Src/stm32f4xx_hal_rtc.c ****     HAL_RTC_MspInit(hrtc);
 223:./Libraries/STM32F4xx_HAL_Driver/Src/stm32f4xx_hal_rtc.c ****   }
 224:./Libraries/STM32F4xx_HAL_Driver/Src/stm32f4xx_hal_rtc.c ****   
 225:./Libraries/STM32F4xx_HAL_Driver/Src/stm32f4xx_hal_rtc.c ****   /* Set RTC state */  
 226:./Libraries/STM32F4xx_HAL_Driver/Src/stm32f4xx_hal_rtc.c ****   hrtc->State = HAL_RTC_STATE_BUSY;  
 227:./Libraries/STM32F4xx_HAL_Driver/Src/stm32f4xx_hal_rtc.c ****        
 228:./Libraries/STM32F4xx_HAL_Driver/Src/stm32f4xx_hal_rtc.c ****   /* Disable the write protection for RTC registers */
 229:./Libraries/STM32F4xx_HAL_Driver/Src/stm32f4xx_hal_rtc.c ****   __HAL_RTC_WRITEPROTECTION_DISABLE(hrtc);
 230:./Libraries/STM32F4xx_HAL_Driver/Src/stm32f4xx_hal_rtc.c **** 
 231:./Libraries/STM32F4xx_HAL_Driver/Src/stm32f4xx_hal_rtc.c ****   /* Set Initialization mode */
 232:./Libraries/STM32F4xx_HAL_Driver/Src/stm32f4xx_hal_rtc.c ****   if(RTC_EnterInitMode(hrtc) != HAL_OK)
 233:./Libraries/STM32F4xx_HAL_Driver/Src/stm32f4xx_hal_rtc.c ****   {
 234:./Libraries/STM32F4xx_HAL_Driver/Src/stm32f4xx_hal_rtc.c ****     /* Enable the write protection for RTC registers */
 235:./Libraries/STM32F4xx_HAL_Driver/Src/stm32f4xx_hal_rtc.c ****     __HAL_RTC_WRITEPROTECTION_ENABLE(hrtc); 
 236:./Libraries/STM32F4xx_HAL_Driver/Src/stm32f4xx_hal_rtc.c ****     
 237:./Libraries/STM32F4xx_HAL_Driver/Src/stm32f4xx_hal_rtc.c ****     /* Set RTC state */
 238:./Libraries/STM32F4xx_HAL_Driver/Src/stm32f4xx_hal_rtc.c ****     hrtc->State = HAL_RTC_STATE_ERROR;
 239:./Libraries/STM32F4xx_HAL_Driver/Src/stm32f4xx_hal_rtc.c ****     
 240:./Libraries/STM32F4xx_HAL_Driver/Src/stm32f4xx_hal_rtc.c ****     return HAL_ERROR;
 241:./Libraries/STM32F4xx_HAL_Driver/Src/stm32f4xx_hal_rtc.c ****   } 
 242:./Libraries/STM32F4xx_HAL_Driver/Src/stm32f4xx_hal_rtc.c ****   else
 243:./Libraries/STM32F4xx_HAL_Driver/Src/stm32f4xx_hal_rtc.c ****   { 
 244:./Libraries/STM32F4xx_HAL_Driver/Src/stm32f4xx_hal_rtc.c ****     /* Clear RTC_CR FMT, OSEL and POL Bits */
 245:./Libraries/STM32F4xx_HAL_Driver/Src/stm32f4xx_hal_rtc.c ****     hrtc->Instance->CR &= ((uint32_t)~(RTC_CR_FMT | RTC_CR_OSEL | RTC_CR_POL));
 246:./Libraries/STM32F4xx_HAL_Driver/Src/stm32f4xx_hal_rtc.c ****     /* Set RTC_CR register */
 247:./Libraries/STM32F4xx_HAL_Driver/Src/stm32f4xx_hal_rtc.c ****     hrtc->Instance->CR |= (uint32_t)(hrtc->Init.HourFormat | hrtc->Init.OutPut | hrtc->Init.OutPutP
 248:./Libraries/STM32F4xx_HAL_Driver/Src/stm32f4xx_hal_rtc.c ****     
 249:./Libraries/STM32F4xx_HAL_Driver/Src/stm32f4xx_hal_rtc.c ****     /* Configure the RTC PRER */
 250:./Libraries/STM32F4xx_HAL_Driver/Src/stm32f4xx_hal_rtc.c ****     hrtc->Instance->PRER = (uint32_t)(hrtc->Init.SynchPrediv);
 251:./Libraries/STM32F4xx_HAL_Driver/Src/stm32f4xx_hal_rtc.c ****     hrtc->Instance->PRER |= (uint32_t)(hrtc->Init.AsynchPrediv << 16U);
 252:./Libraries/STM32F4xx_HAL_Driver/Src/stm32f4xx_hal_rtc.c ****     
 253:./Libraries/STM32F4xx_HAL_Driver/Src/stm32f4xx_hal_rtc.c ****     /* Exit Initialization mode */
 254:./Libraries/STM32F4xx_HAL_Driver/Src/stm32f4xx_hal_rtc.c ****     hrtc->Instance->ISR &= (uint32_t)~RTC_ISR_INIT; 
 255:./Libraries/STM32F4xx_HAL_Driver/Src/stm32f4xx_hal_rtc.c **** 
 256:./Libraries/STM32F4xx_HAL_Driver/Src/stm32f4xx_hal_rtc.c ****     /* If  CR_BYPSHAD bit = 0, wait for synchro else this check is not needed */
 257:./Libraries/STM32F4xx_HAL_Driver/Src/stm32f4xx_hal_rtc.c ****     if((hrtc->Instance->CR & RTC_CR_BYPSHAD) == RESET)
ARM GAS  /tmp/ccdJbK3i.s 			page 6


 258:./Libraries/STM32F4xx_HAL_Driver/Src/stm32f4xx_hal_rtc.c ****     {
 259:./Libraries/STM32F4xx_HAL_Driver/Src/stm32f4xx_hal_rtc.c ****       if(HAL_RTC_WaitForSynchro(hrtc) != HAL_OK)
 260:./Libraries/STM32F4xx_HAL_Driver/Src/stm32f4xx_hal_rtc.c ****       {
 261:./Libraries/STM32F4xx_HAL_Driver/Src/stm32f4xx_hal_rtc.c ****         /* Enable the write protection for RTC registers */
 262:./Libraries/STM32F4xx_HAL_Driver/Src/stm32f4xx_hal_rtc.c ****         __HAL_RTC_WRITEPROTECTION_ENABLE(hrtc);
 263:./Libraries/STM32F4xx_HAL_Driver/Src/stm32f4xx_hal_rtc.c **** 
 264:./Libraries/STM32F4xx_HAL_Driver/Src/stm32f4xx_hal_rtc.c ****         hrtc->State = HAL_RTC_STATE_ERROR;
 265:./Libraries/STM32F4xx_HAL_Driver/Src/stm32f4xx_hal_rtc.c **** 
 266:./Libraries/STM32F4xx_HAL_Driver/Src/stm32f4xx_hal_rtc.c ****         return HAL_ERROR;
 267:./Libraries/STM32F4xx_HAL_Driver/Src/stm32f4xx_hal_rtc.c ****       }
 268:./Libraries/STM32F4xx_HAL_Driver/Src/stm32f4xx_hal_rtc.c ****     }
 269:./Libraries/STM32F4xx_HAL_Driver/Src/stm32f4xx_hal_rtc.c **** 
 270:./Libraries/STM32F4xx_HAL_Driver/Src/stm32f4xx_hal_rtc.c ****     hrtc->Instance->TAFCR &= (uint32_t)~RTC_TAFCR_ALARMOUTTYPE;
 271:./Libraries/STM32F4xx_HAL_Driver/Src/stm32f4xx_hal_rtc.c ****     hrtc->Instance->TAFCR |= (uint32_t)(hrtc->Init.OutPutType); 
 272:./Libraries/STM32F4xx_HAL_Driver/Src/stm32f4xx_hal_rtc.c ****     
 273:./Libraries/STM32F4xx_HAL_Driver/Src/stm32f4xx_hal_rtc.c ****     /* Enable the write protection for RTC registers */
 274:./Libraries/STM32F4xx_HAL_Driver/Src/stm32f4xx_hal_rtc.c ****     __HAL_RTC_WRITEPROTECTION_ENABLE(hrtc); 
 275:./Libraries/STM32F4xx_HAL_Driver/Src/stm32f4xx_hal_rtc.c ****     
 276:./Libraries/STM32F4xx_HAL_Driver/Src/stm32f4xx_hal_rtc.c ****     /* Set RTC state */
 277:./Libraries/STM32F4xx_HAL_Driver/Src/stm32f4xx_hal_rtc.c ****     hrtc->State = HAL_RTC_STATE_READY;
 278:./Libraries/STM32F4xx_HAL_Driver/Src/stm32f4xx_hal_rtc.c ****     
 279:./Libraries/STM32F4xx_HAL_Driver/Src/stm32f4xx_hal_rtc.c ****     return HAL_OK;
 280:./Libraries/STM32F4xx_HAL_Driver/Src/stm32f4xx_hal_rtc.c ****   }
 281:./Libraries/STM32F4xx_HAL_Driver/Src/stm32f4xx_hal_rtc.c **** }
 282:./Libraries/STM32F4xx_HAL_Driver/Src/stm32f4xx_hal_rtc.c **** 
 283:./Libraries/STM32F4xx_HAL_Driver/Src/stm32f4xx_hal_rtc.c **** /**
 284:./Libraries/STM32F4xx_HAL_Driver/Src/stm32f4xx_hal_rtc.c ****   * @brief  DeInitializes the RTC peripheral 
 285:./Libraries/STM32F4xx_HAL_Driver/Src/stm32f4xx_hal_rtc.c ****   * @param  hrtc pointer to a RTC_HandleTypeDef structure that contains
 286:./Libraries/STM32F4xx_HAL_Driver/Src/stm32f4xx_hal_rtc.c ****   *                the configuration information for RTC.
 287:./Libraries/STM32F4xx_HAL_Driver/Src/stm32f4xx_hal_rtc.c ****   * @note   This function doesn't reset the RTC Backup Data registers.   
 288:./Libraries/STM32F4xx_HAL_Driver/Src/stm32f4xx_hal_rtc.c ****   * @retval HAL status
 289:./Libraries/STM32F4xx_HAL_Driver/Src/stm32f4xx_hal_rtc.c ****   */
 290:./Libraries/STM32F4xx_HAL_Driver/Src/stm32f4xx_hal_rtc.c **** HAL_StatusTypeDef HAL_RTC_DeInit(RTC_HandleTypeDef *hrtc)
 291:./Libraries/STM32F4xx_HAL_Driver/Src/stm32f4xx_hal_rtc.c **** {
 292:./Libraries/STM32F4xx_HAL_Driver/Src/stm32f4xx_hal_rtc.c ****   uint32_t tickstart = 0U;
 293:./Libraries/STM32F4xx_HAL_Driver/Src/stm32f4xx_hal_rtc.c **** 
 294:./Libraries/STM32F4xx_HAL_Driver/Src/stm32f4xx_hal_rtc.c ****   /* Set RTC state */
 295:./Libraries/STM32F4xx_HAL_Driver/Src/stm32f4xx_hal_rtc.c ****   hrtc->State = HAL_RTC_STATE_BUSY; 
 296:./Libraries/STM32F4xx_HAL_Driver/Src/stm32f4xx_hal_rtc.c ****   
 297:./Libraries/STM32F4xx_HAL_Driver/Src/stm32f4xx_hal_rtc.c ****   /* Disable the write protection for RTC registers */
 298:./Libraries/STM32F4xx_HAL_Driver/Src/stm32f4xx_hal_rtc.c ****   __HAL_RTC_WRITEPROTECTION_DISABLE(hrtc);
 299:./Libraries/STM32F4xx_HAL_Driver/Src/stm32f4xx_hal_rtc.c ****   
 300:./Libraries/STM32F4xx_HAL_Driver/Src/stm32f4xx_hal_rtc.c ****   /* Set Initialization mode */
 301:./Libraries/STM32F4xx_HAL_Driver/Src/stm32f4xx_hal_rtc.c ****   if(RTC_EnterInitMode(hrtc) != HAL_OK)
 302:./Libraries/STM32F4xx_HAL_Driver/Src/stm32f4xx_hal_rtc.c ****   {
 303:./Libraries/STM32F4xx_HAL_Driver/Src/stm32f4xx_hal_rtc.c ****     /* Enable the write protection for RTC registers */
 304:./Libraries/STM32F4xx_HAL_Driver/Src/stm32f4xx_hal_rtc.c ****     __HAL_RTC_WRITEPROTECTION_ENABLE(hrtc); 
 305:./Libraries/STM32F4xx_HAL_Driver/Src/stm32f4xx_hal_rtc.c ****     
 306:./Libraries/STM32F4xx_HAL_Driver/Src/stm32f4xx_hal_rtc.c ****     /* Set RTC state */
 307:./Libraries/STM32F4xx_HAL_Driver/Src/stm32f4xx_hal_rtc.c ****     hrtc->State = HAL_RTC_STATE_ERROR;
 308:./Libraries/STM32F4xx_HAL_Driver/Src/stm32f4xx_hal_rtc.c ****     
 309:./Libraries/STM32F4xx_HAL_Driver/Src/stm32f4xx_hal_rtc.c ****     return HAL_ERROR;
 310:./Libraries/STM32F4xx_HAL_Driver/Src/stm32f4xx_hal_rtc.c ****   }  
 311:./Libraries/STM32F4xx_HAL_Driver/Src/stm32f4xx_hal_rtc.c ****   else
 312:./Libraries/STM32F4xx_HAL_Driver/Src/stm32f4xx_hal_rtc.c ****   {
 313:./Libraries/STM32F4xx_HAL_Driver/Src/stm32f4xx_hal_rtc.c ****     /* Reset TR, DR and CR registers */
 314:./Libraries/STM32F4xx_HAL_Driver/Src/stm32f4xx_hal_rtc.c ****     hrtc->Instance->TR = 0x00000000U;
ARM GAS  /tmp/ccdJbK3i.s 			page 7


 315:./Libraries/STM32F4xx_HAL_Driver/Src/stm32f4xx_hal_rtc.c ****     hrtc->Instance->DR = 0x00002101U;
 316:./Libraries/STM32F4xx_HAL_Driver/Src/stm32f4xx_hal_rtc.c ****     /* Reset All CR bits except CR[2:0] */
 317:./Libraries/STM32F4xx_HAL_Driver/Src/stm32f4xx_hal_rtc.c ****     hrtc->Instance->CR &= 0x00000007U;
 318:./Libraries/STM32F4xx_HAL_Driver/Src/stm32f4xx_hal_rtc.c **** 
 319:./Libraries/STM32F4xx_HAL_Driver/Src/stm32f4xx_hal_rtc.c ****     /* Get tick */
 320:./Libraries/STM32F4xx_HAL_Driver/Src/stm32f4xx_hal_rtc.c ****     tickstart = HAL_GetTick();
 321:./Libraries/STM32F4xx_HAL_Driver/Src/stm32f4xx_hal_rtc.c **** 
 322:./Libraries/STM32F4xx_HAL_Driver/Src/stm32f4xx_hal_rtc.c ****     /* Wait till WUTWF flag is set and if Time out is reached exit */
 323:./Libraries/STM32F4xx_HAL_Driver/Src/stm32f4xx_hal_rtc.c ****     while(((hrtc->Instance->ISR) & RTC_ISR_WUTWF) == (uint32_t)RESET)
 324:./Libraries/STM32F4xx_HAL_Driver/Src/stm32f4xx_hal_rtc.c ****     {
 325:./Libraries/STM32F4xx_HAL_Driver/Src/stm32f4xx_hal_rtc.c ****       if((HAL_GetTick() - tickstart ) > RTC_TIMEOUT_VALUE)
 326:./Libraries/STM32F4xx_HAL_Driver/Src/stm32f4xx_hal_rtc.c ****       { 
 327:./Libraries/STM32F4xx_HAL_Driver/Src/stm32f4xx_hal_rtc.c ****         /* Enable the write protection for RTC registers */
 328:./Libraries/STM32F4xx_HAL_Driver/Src/stm32f4xx_hal_rtc.c ****         __HAL_RTC_WRITEPROTECTION_ENABLE(hrtc); 
 329:./Libraries/STM32F4xx_HAL_Driver/Src/stm32f4xx_hal_rtc.c ****         
 330:./Libraries/STM32F4xx_HAL_Driver/Src/stm32f4xx_hal_rtc.c ****         /* Set RTC state */
 331:./Libraries/STM32F4xx_HAL_Driver/Src/stm32f4xx_hal_rtc.c ****         hrtc->State = HAL_RTC_STATE_TIMEOUT;
 332:./Libraries/STM32F4xx_HAL_Driver/Src/stm32f4xx_hal_rtc.c ****         
 333:./Libraries/STM32F4xx_HAL_Driver/Src/stm32f4xx_hal_rtc.c ****         return HAL_TIMEOUT;
 334:./Libraries/STM32F4xx_HAL_Driver/Src/stm32f4xx_hal_rtc.c ****       }      
 335:./Libraries/STM32F4xx_HAL_Driver/Src/stm32f4xx_hal_rtc.c ****     }
 336:./Libraries/STM32F4xx_HAL_Driver/Src/stm32f4xx_hal_rtc.c ****     
 337:./Libraries/STM32F4xx_HAL_Driver/Src/stm32f4xx_hal_rtc.c ****     /* Reset all RTC CR register bits */
 338:./Libraries/STM32F4xx_HAL_Driver/Src/stm32f4xx_hal_rtc.c ****     hrtc->Instance->CR &= 0x00000000U;
 339:./Libraries/STM32F4xx_HAL_Driver/Src/stm32f4xx_hal_rtc.c ****     hrtc->Instance->WUTR = 0x0000FFFFU;
 340:./Libraries/STM32F4xx_HAL_Driver/Src/stm32f4xx_hal_rtc.c ****     hrtc->Instance->PRER = 0x007F00FFU;
 341:./Libraries/STM32F4xx_HAL_Driver/Src/stm32f4xx_hal_rtc.c ****     hrtc->Instance->CALIBR = 0x00000000U;
 342:./Libraries/STM32F4xx_HAL_Driver/Src/stm32f4xx_hal_rtc.c ****     hrtc->Instance->ALRMAR = 0x00000000U;
 343:./Libraries/STM32F4xx_HAL_Driver/Src/stm32f4xx_hal_rtc.c ****     hrtc->Instance->ALRMBR = 0x00000000U;
 344:./Libraries/STM32F4xx_HAL_Driver/Src/stm32f4xx_hal_rtc.c ****     hrtc->Instance->SHIFTR = 0x00000000U;
 345:./Libraries/STM32F4xx_HAL_Driver/Src/stm32f4xx_hal_rtc.c ****     hrtc->Instance->CALR = 0x00000000U;
 346:./Libraries/STM32F4xx_HAL_Driver/Src/stm32f4xx_hal_rtc.c ****     hrtc->Instance->ALRMASSR = 0x00000000U;
 347:./Libraries/STM32F4xx_HAL_Driver/Src/stm32f4xx_hal_rtc.c ****     hrtc->Instance->ALRMBSSR = 0x00000000U;
 348:./Libraries/STM32F4xx_HAL_Driver/Src/stm32f4xx_hal_rtc.c ****     
 349:./Libraries/STM32F4xx_HAL_Driver/Src/stm32f4xx_hal_rtc.c ****     /* Reset ISR register and exit initialization mode */
 350:./Libraries/STM32F4xx_HAL_Driver/Src/stm32f4xx_hal_rtc.c ****     hrtc->Instance->ISR = 0x00000000U;
 351:./Libraries/STM32F4xx_HAL_Driver/Src/stm32f4xx_hal_rtc.c ****     
 352:./Libraries/STM32F4xx_HAL_Driver/Src/stm32f4xx_hal_rtc.c ****     /* Reset Tamper and alternate functions configuration register */
 353:./Libraries/STM32F4xx_HAL_Driver/Src/stm32f4xx_hal_rtc.c ****     hrtc->Instance->TAFCR = 0x00000000U;
 354:./Libraries/STM32F4xx_HAL_Driver/Src/stm32f4xx_hal_rtc.c ****     
 355:./Libraries/STM32F4xx_HAL_Driver/Src/stm32f4xx_hal_rtc.c ****     /* If  RTC_CR_BYPSHAD bit = 0, wait for synchro else this check is not needed */
 356:./Libraries/STM32F4xx_HAL_Driver/Src/stm32f4xx_hal_rtc.c ****     if((hrtc->Instance->CR & RTC_CR_BYPSHAD) == RESET)
 357:./Libraries/STM32F4xx_HAL_Driver/Src/stm32f4xx_hal_rtc.c ****     {
 358:./Libraries/STM32F4xx_HAL_Driver/Src/stm32f4xx_hal_rtc.c ****       if(HAL_RTC_WaitForSynchro(hrtc) != HAL_OK)
 359:./Libraries/STM32F4xx_HAL_Driver/Src/stm32f4xx_hal_rtc.c ****       {
 360:./Libraries/STM32F4xx_HAL_Driver/Src/stm32f4xx_hal_rtc.c ****         /* Enable the write protection for RTC registers */
 361:./Libraries/STM32F4xx_HAL_Driver/Src/stm32f4xx_hal_rtc.c ****         __HAL_RTC_WRITEPROTECTION_ENABLE(hrtc);  
 362:./Libraries/STM32F4xx_HAL_Driver/Src/stm32f4xx_hal_rtc.c ****         
 363:./Libraries/STM32F4xx_HAL_Driver/Src/stm32f4xx_hal_rtc.c ****         hrtc->State = HAL_RTC_STATE_ERROR;
 364:./Libraries/STM32F4xx_HAL_Driver/Src/stm32f4xx_hal_rtc.c ****         
 365:./Libraries/STM32F4xx_HAL_Driver/Src/stm32f4xx_hal_rtc.c ****         return HAL_ERROR;
 366:./Libraries/STM32F4xx_HAL_Driver/Src/stm32f4xx_hal_rtc.c ****       }
 367:./Libraries/STM32F4xx_HAL_Driver/Src/stm32f4xx_hal_rtc.c ****     }    
 368:./Libraries/STM32F4xx_HAL_Driver/Src/stm32f4xx_hal_rtc.c ****   }
 369:./Libraries/STM32F4xx_HAL_Driver/Src/stm32f4xx_hal_rtc.c ****   
 370:./Libraries/STM32F4xx_HAL_Driver/Src/stm32f4xx_hal_rtc.c ****   /* Enable the write protection for RTC registers */
 371:./Libraries/STM32F4xx_HAL_Driver/Src/stm32f4xx_hal_rtc.c ****   __HAL_RTC_WRITEPROTECTION_ENABLE(hrtc);
ARM GAS  /tmp/ccdJbK3i.s 			page 8


 372:./Libraries/STM32F4xx_HAL_Driver/Src/stm32f4xx_hal_rtc.c ****   
 373:./Libraries/STM32F4xx_HAL_Driver/Src/stm32f4xx_hal_rtc.c ****   /* De-Initialize RTC MSP */
 374:./Libraries/STM32F4xx_HAL_Driver/Src/stm32f4xx_hal_rtc.c ****   HAL_RTC_MspDeInit(hrtc);
 375:./Libraries/STM32F4xx_HAL_Driver/Src/stm32f4xx_hal_rtc.c ****   
 376:./Libraries/STM32F4xx_HAL_Driver/Src/stm32f4xx_hal_rtc.c ****   hrtc->State = HAL_RTC_STATE_RESET; 
 377:./Libraries/STM32F4xx_HAL_Driver/Src/stm32f4xx_hal_rtc.c **** 
 378:./Libraries/STM32F4xx_HAL_Driver/Src/stm32f4xx_hal_rtc.c ****   /* Release Lock */
 379:./Libraries/STM32F4xx_HAL_Driver/Src/stm32f4xx_hal_rtc.c ****   __HAL_UNLOCK(hrtc);
 380:./Libraries/STM32F4xx_HAL_Driver/Src/stm32f4xx_hal_rtc.c **** 
 381:./Libraries/STM32F4xx_HAL_Driver/Src/stm32f4xx_hal_rtc.c ****   return HAL_OK;
 382:./Libraries/STM32F4xx_HAL_Driver/Src/stm32f4xx_hal_rtc.c **** }
 383:./Libraries/STM32F4xx_HAL_Driver/Src/stm32f4xx_hal_rtc.c **** 
 384:./Libraries/STM32F4xx_HAL_Driver/Src/stm32f4xx_hal_rtc.c **** /**
 385:./Libraries/STM32F4xx_HAL_Driver/Src/stm32f4xx_hal_rtc.c ****   * @brief  Initializes the RTC MSP.
 386:./Libraries/STM32F4xx_HAL_Driver/Src/stm32f4xx_hal_rtc.c ****   * @param  hrtc pointer to a RTC_HandleTypeDef structure that contains
 387:./Libraries/STM32F4xx_HAL_Driver/Src/stm32f4xx_hal_rtc.c ****   *                the configuration information for RTC.  
 388:./Libraries/STM32F4xx_HAL_Driver/Src/stm32f4xx_hal_rtc.c ****   * @retval None
 389:./Libraries/STM32F4xx_HAL_Driver/Src/stm32f4xx_hal_rtc.c ****   */
 390:./Libraries/STM32F4xx_HAL_Driver/Src/stm32f4xx_hal_rtc.c **** __weak void HAL_RTC_MspInit(RTC_HandleTypeDef* hrtc)
 391:./Libraries/STM32F4xx_HAL_Driver/Src/stm32f4xx_hal_rtc.c **** {
  30              		.loc 1 391 1 view -0
  31              		.cfi_startproc
  32              		@ args = 0, pretend = 0, frame = 0
  33              		@ frame_needed = 0, uses_anonymous_args = 0
  34              		@ link register save eliminated.
 392:./Libraries/STM32F4xx_HAL_Driver/Src/stm32f4xx_hal_rtc.c ****   /* Prevent unused argument(s) compilation warning */
 393:./Libraries/STM32F4xx_HAL_Driver/Src/stm32f4xx_hal_rtc.c ****   UNUSED(hrtc);
  35              		.loc 1 393 3 view .LVU1
 394:./Libraries/STM32F4xx_HAL_Driver/Src/stm32f4xx_hal_rtc.c ****   /* NOTE : This function Should not be modified, when the callback is needed,
 395:./Libraries/STM32F4xx_HAL_Driver/Src/stm32f4xx_hal_rtc.c ****             the HAL_RTC_MspInit could be implemented in the user file
 396:./Libraries/STM32F4xx_HAL_Driver/Src/stm32f4xx_hal_rtc.c ****    */ 
 397:./Libraries/STM32F4xx_HAL_Driver/Src/stm32f4xx_hal_rtc.c **** }
  36              		.loc 1 397 1 is_stmt 0 view .LVU2
  37 0000 7047     		bx	lr
  38              		.cfi_endproc
  39              	.LFE128:
  41              		.section	.text.HAL_RTC_MspDeInit,"ax",%progbits
  42              		.align	1
  43              		.weak	HAL_RTC_MspDeInit
  44              		.syntax unified
  45              		.thumb
  46              		.thumb_func
  47              		.fpu fpv4-sp-d16
  49              	HAL_RTC_MspDeInit:
  50              	.LVL1:
  51              	.LFB129:
 398:./Libraries/STM32F4xx_HAL_Driver/Src/stm32f4xx_hal_rtc.c **** 
 399:./Libraries/STM32F4xx_HAL_Driver/Src/stm32f4xx_hal_rtc.c **** /**
 400:./Libraries/STM32F4xx_HAL_Driver/Src/stm32f4xx_hal_rtc.c ****   * @brief  DeInitializes the RTC MSP.
 401:./Libraries/STM32F4xx_HAL_Driver/Src/stm32f4xx_hal_rtc.c ****   * @param  hrtc pointer to a RTC_HandleTypeDef structure that contains
 402:./Libraries/STM32F4xx_HAL_Driver/Src/stm32f4xx_hal_rtc.c ****   *                the configuration information for RTC. 
 403:./Libraries/STM32F4xx_HAL_Driver/Src/stm32f4xx_hal_rtc.c ****   * @retval None
 404:./Libraries/STM32F4xx_HAL_Driver/Src/stm32f4xx_hal_rtc.c ****   */
 405:./Libraries/STM32F4xx_HAL_Driver/Src/stm32f4xx_hal_rtc.c **** __weak void HAL_RTC_MspDeInit(RTC_HandleTypeDef* hrtc)
 406:./Libraries/STM32F4xx_HAL_Driver/Src/stm32f4xx_hal_rtc.c **** {
  52              		.loc 1 406 1 is_stmt 1 view -0
  53              		.cfi_startproc
ARM GAS  /tmp/ccdJbK3i.s 			page 9


  54              		@ args = 0, pretend = 0, frame = 0
  55              		@ frame_needed = 0, uses_anonymous_args = 0
  56              		@ link register save eliminated.
 407:./Libraries/STM32F4xx_HAL_Driver/Src/stm32f4xx_hal_rtc.c ****   /* Prevent unused argument(s) compilation warning */
 408:./Libraries/STM32F4xx_HAL_Driver/Src/stm32f4xx_hal_rtc.c ****   UNUSED(hrtc);
  57              		.loc 1 408 3 view .LVU4
 409:./Libraries/STM32F4xx_HAL_Driver/Src/stm32f4xx_hal_rtc.c ****   /* NOTE : This function Should not be modified, when the callback is needed,
 410:./Libraries/STM32F4xx_HAL_Driver/Src/stm32f4xx_hal_rtc.c ****             the HAL_RTC_MspDeInit could be implemented in the user file
 411:./Libraries/STM32F4xx_HAL_Driver/Src/stm32f4xx_hal_rtc.c ****    */ 
 412:./Libraries/STM32F4xx_HAL_Driver/Src/stm32f4xx_hal_rtc.c **** }
  58              		.loc 1 412 1 is_stmt 0 view .LVU5
  59 0000 7047     		bx	lr
  60              		.cfi_endproc
  61              	.LFE129:
  63              		.section	.text.HAL_RTC_DeactivateAlarm,"ax",%progbits
  64              		.align	1
  65              		.global	HAL_RTC_DeactivateAlarm
  66              		.syntax unified
  67              		.thumb
  68              		.thumb_func
  69              		.fpu fpv4-sp-d16
  71              	HAL_RTC_DeactivateAlarm:
  72              	.LVL2:
  73              	.LFB136:
 413:./Libraries/STM32F4xx_HAL_Driver/Src/stm32f4xx_hal_rtc.c **** 
 414:./Libraries/STM32F4xx_HAL_Driver/Src/stm32f4xx_hal_rtc.c **** /**
 415:./Libraries/STM32F4xx_HAL_Driver/Src/stm32f4xx_hal_rtc.c ****   * @}
 416:./Libraries/STM32F4xx_HAL_Driver/Src/stm32f4xx_hal_rtc.c ****   */
 417:./Libraries/STM32F4xx_HAL_Driver/Src/stm32f4xx_hal_rtc.c **** 
 418:./Libraries/STM32F4xx_HAL_Driver/Src/stm32f4xx_hal_rtc.c **** /** @defgroup RTC_Exported_Functions_Group2 RTC Time and Date functions
 419:./Libraries/STM32F4xx_HAL_Driver/Src/stm32f4xx_hal_rtc.c ****  *  @brief   RTC Time and Date functions
 420:./Libraries/STM32F4xx_HAL_Driver/Src/stm32f4xx_hal_rtc.c ****  *
 421:./Libraries/STM32F4xx_HAL_Driver/Src/stm32f4xx_hal_rtc.c **** @verbatim   
 422:./Libraries/STM32F4xx_HAL_Driver/Src/stm32f4xx_hal_rtc.c ****  ===============================================================================
 423:./Libraries/STM32F4xx_HAL_Driver/Src/stm32f4xx_hal_rtc.c ****                  ##### RTC Time and Date functions #####
 424:./Libraries/STM32F4xx_HAL_Driver/Src/stm32f4xx_hal_rtc.c ****  ===============================================================================  
 425:./Libraries/STM32F4xx_HAL_Driver/Src/stm32f4xx_hal_rtc.c ****  
 426:./Libraries/STM32F4xx_HAL_Driver/Src/stm32f4xx_hal_rtc.c ****  [..] This section provides functions allowing to configure Time and Date features
 427:./Libraries/STM32F4xx_HAL_Driver/Src/stm32f4xx_hal_rtc.c **** 
 428:./Libraries/STM32F4xx_HAL_Driver/Src/stm32f4xx_hal_rtc.c **** @endverbatim
 429:./Libraries/STM32F4xx_HAL_Driver/Src/stm32f4xx_hal_rtc.c ****   * @{
 430:./Libraries/STM32F4xx_HAL_Driver/Src/stm32f4xx_hal_rtc.c ****   */
 431:./Libraries/STM32F4xx_HAL_Driver/Src/stm32f4xx_hal_rtc.c **** 
 432:./Libraries/STM32F4xx_HAL_Driver/Src/stm32f4xx_hal_rtc.c **** /**
 433:./Libraries/STM32F4xx_HAL_Driver/Src/stm32f4xx_hal_rtc.c ****   * @brief  Sets RTC current time.
 434:./Libraries/STM32F4xx_HAL_Driver/Src/stm32f4xx_hal_rtc.c ****   * @param  hrtc pointer to a RTC_HandleTypeDef structure that contains
 435:./Libraries/STM32F4xx_HAL_Driver/Src/stm32f4xx_hal_rtc.c ****   *                the configuration information for RTC.
 436:./Libraries/STM32F4xx_HAL_Driver/Src/stm32f4xx_hal_rtc.c ****   * @param  sTime Pointer to Time structure
 437:./Libraries/STM32F4xx_HAL_Driver/Src/stm32f4xx_hal_rtc.c ****   * @param  Format Specifies the format of the entered parameters.
 438:./Libraries/STM32F4xx_HAL_Driver/Src/stm32f4xx_hal_rtc.c ****   *          This parameter can be one of the following values:
 439:./Libraries/STM32F4xx_HAL_Driver/Src/stm32f4xx_hal_rtc.c ****   *            @arg RTC_FORMAT_BIN: Binary data format 
 440:./Libraries/STM32F4xx_HAL_Driver/Src/stm32f4xx_hal_rtc.c ****   *            @arg RTC_FORMAT_BCD: BCD data format
 441:./Libraries/STM32F4xx_HAL_Driver/Src/stm32f4xx_hal_rtc.c ****   * @retval HAL status
 442:./Libraries/STM32F4xx_HAL_Driver/Src/stm32f4xx_hal_rtc.c ****   */
 443:./Libraries/STM32F4xx_HAL_Driver/Src/stm32f4xx_hal_rtc.c **** HAL_StatusTypeDef HAL_RTC_SetTime(RTC_HandleTypeDef *hrtc, RTC_TimeTypeDef *sTime, uint32_t Format)
 444:./Libraries/STM32F4xx_HAL_Driver/Src/stm32f4xx_hal_rtc.c **** {
 445:./Libraries/STM32F4xx_HAL_Driver/Src/stm32f4xx_hal_rtc.c ****   uint32_t tmpreg = 0U;
ARM GAS  /tmp/ccdJbK3i.s 			page 10


 446:./Libraries/STM32F4xx_HAL_Driver/Src/stm32f4xx_hal_rtc.c ****   
 447:./Libraries/STM32F4xx_HAL_Driver/Src/stm32f4xx_hal_rtc.c ****  /* Check the parameters */
 448:./Libraries/STM32F4xx_HAL_Driver/Src/stm32f4xx_hal_rtc.c ****   assert_param(IS_RTC_FORMAT(Format));
 449:./Libraries/STM32F4xx_HAL_Driver/Src/stm32f4xx_hal_rtc.c ****   assert_param(IS_RTC_DAYLIGHT_SAVING(sTime->DayLightSaving));
 450:./Libraries/STM32F4xx_HAL_Driver/Src/stm32f4xx_hal_rtc.c ****   assert_param(IS_RTC_STORE_OPERATION(sTime->StoreOperation));
 451:./Libraries/STM32F4xx_HAL_Driver/Src/stm32f4xx_hal_rtc.c ****   
 452:./Libraries/STM32F4xx_HAL_Driver/Src/stm32f4xx_hal_rtc.c ****   /* Process Locked */ 
 453:./Libraries/STM32F4xx_HAL_Driver/Src/stm32f4xx_hal_rtc.c ****   __HAL_LOCK(hrtc);
 454:./Libraries/STM32F4xx_HAL_Driver/Src/stm32f4xx_hal_rtc.c ****   
 455:./Libraries/STM32F4xx_HAL_Driver/Src/stm32f4xx_hal_rtc.c ****   hrtc->State = HAL_RTC_STATE_BUSY;
 456:./Libraries/STM32F4xx_HAL_Driver/Src/stm32f4xx_hal_rtc.c ****   
 457:./Libraries/STM32F4xx_HAL_Driver/Src/stm32f4xx_hal_rtc.c ****   if(Format == RTC_FORMAT_BIN)
 458:./Libraries/STM32F4xx_HAL_Driver/Src/stm32f4xx_hal_rtc.c ****   {
 459:./Libraries/STM32F4xx_HAL_Driver/Src/stm32f4xx_hal_rtc.c ****     if((hrtc->Instance->CR & RTC_CR_FMT) != (uint32_t)RESET)
 460:./Libraries/STM32F4xx_HAL_Driver/Src/stm32f4xx_hal_rtc.c ****     {
 461:./Libraries/STM32F4xx_HAL_Driver/Src/stm32f4xx_hal_rtc.c ****       assert_param(IS_RTC_HOUR12(sTime->Hours));
 462:./Libraries/STM32F4xx_HAL_Driver/Src/stm32f4xx_hal_rtc.c ****       assert_param(IS_RTC_HOURFORMAT12(sTime->TimeFormat));
 463:./Libraries/STM32F4xx_HAL_Driver/Src/stm32f4xx_hal_rtc.c ****     } 
 464:./Libraries/STM32F4xx_HAL_Driver/Src/stm32f4xx_hal_rtc.c ****     else
 465:./Libraries/STM32F4xx_HAL_Driver/Src/stm32f4xx_hal_rtc.c ****     {
 466:./Libraries/STM32F4xx_HAL_Driver/Src/stm32f4xx_hal_rtc.c ****       sTime->TimeFormat = 0x00U;
 467:./Libraries/STM32F4xx_HAL_Driver/Src/stm32f4xx_hal_rtc.c ****       assert_param(IS_RTC_HOUR24(sTime->Hours));
 468:./Libraries/STM32F4xx_HAL_Driver/Src/stm32f4xx_hal_rtc.c ****     }
 469:./Libraries/STM32F4xx_HAL_Driver/Src/stm32f4xx_hal_rtc.c ****     assert_param(IS_RTC_MINUTES(sTime->Minutes));
 470:./Libraries/STM32F4xx_HAL_Driver/Src/stm32f4xx_hal_rtc.c ****     assert_param(IS_RTC_SECONDS(sTime->Seconds));
 471:./Libraries/STM32F4xx_HAL_Driver/Src/stm32f4xx_hal_rtc.c ****     
 472:./Libraries/STM32F4xx_HAL_Driver/Src/stm32f4xx_hal_rtc.c ****     tmpreg = (uint32_t)(((uint32_t)RTC_ByteToBcd2(sTime->Hours) << 16U) | \
 473:./Libraries/STM32F4xx_HAL_Driver/Src/stm32f4xx_hal_rtc.c ****                         ((uint32_t)RTC_ByteToBcd2(sTime->Minutes) << 8U) | \
 474:./Libraries/STM32F4xx_HAL_Driver/Src/stm32f4xx_hal_rtc.c ****                         ((uint32_t)RTC_ByteToBcd2(sTime->Seconds)) | \
 475:./Libraries/STM32F4xx_HAL_Driver/Src/stm32f4xx_hal_rtc.c ****                         (((uint32_t)sTime->TimeFormat) << 16U));  
 476:./Libraries/STM32F4xx_HAL_Driver/Src/stm32f4xx_hal_rtc.c ****   }
 477:./Libraries/STM32F4xx_HAL_Driver/Src/stm32f4xx_hal_rtc.c ****   else
 478:./Libraries/STM32F4xx_HAL_Driver/Src/stm32f4xx_hal_rtc.c ****   {
 479:./Libraries/STM32F4xx_HAL_Driver/Src/stm32f4xx_hal_rtc.c ****     if((hrtc->Instance->CR & RTC_CR_FMT) != (uint32_t)RESET)
 480:./Libraries/STM32F4xx_HAL_Driver/Src/stm32f4xx_hal_rtc.c ****     {
 481:./Libraries/STM32F4xx_HAL_Driver/Src/stm32f4xx_hal_rtc.c ****       tmpreg = RTC_Bcd2ToByte(sTime->Hours);
 482:./Libraries/STM32F4xx_HAL_Driver/Src/stm32f4xx_hal_rtc.c ****       assert_param(IS_RTC_HOUR12(tmpreg));
 483:./Libraries/STM32F4xx_HAL_Driver/Src/stm32f4xx_hal_rtc.c ****       assert_param(IS_RTC_HOURFORMAT12(sTime->TimeFormat)); 
 484:./Libraries/STM32F4xx_HAL_Driver/Src/stm32f4xx_hal_rtc.c ****     } 
 485:./Libraries/STM32F4xx_HAL_Driver/Src/stm32f4xx_hal_rtc.c ****     else
 486:./Libraries/STM32F4xx_HAL_Driver/Src/stm32f4xx_hal_rtc.c ****     {
 487:./Libraries/STM32F4xx_HAL_Driver/Src/stm32f4xx_hal_rtc.c ****       sTime->TimeFormat = 0x00U;
 488:./Libraries/STM32F4xx_HAL_Driver/Src/stm32f4xx_hal_rtc.c ****       assert_param(IS_RTC_HOUR24(RTC_Bcd2ToByte(sTime->Hours)));
 489:./Libraries/STM32F4xx_HAL_Driver/Src/stm32f4xx_hal_rtc.c ****     }
 490:./Libraries/STM32F4xx_HAL_Driver/Src/stm32f4xx_hal_rtc.c ****     assert_param(IS_RTC_MINUTES(RTC_Bcd2ToByte(sTime->Minutes)));
 491:./Libraries/STM32F4xx_HAL_Driver/Src/stm32f4xx_hal_rtc.c ****     assert_param(IS_RTC_SECONDS(RTC_Bcd2ToByte(sTime->Seconds)));
 492:./Libraries/STM32F4xx_HAL_Driver/Src/stm32f4xx_hal_rtc.c ****     tmpreg = (((uint32_t)(sTime->Hours) << 16U) | \
 493:./Libraries/STM32F4xx_HAL_Driver/Src/stm32f4xx_hal_rtc.c ****               ((uint32_t)(sTime->Minutes) << 8U) | \
 494:./Libraries/STM32F4xx_HAL_Driver/Src/stm32f4xx_hal_rtc.c ****               ((uint32_t)sTime->Seconds) | \
 495:./Libraries/STM32F4xx_HAL_Driver/Src/stm32f4xx_hal_rtc.c ****               ((uint32_t)(sTime->TimeFormat) << 16U));   
 496:./Libraries/STM32F4xx_HAL_Driver/Src/stm32f4xx_hal_rtc.c ****   }
 497:./Libraries/STM32F4xx_HAL_Driver/Src/stm32f4xx_hal_rtc.c ****   
 498:./Libraries/STM32F4xx_HAL_Driver/Src/stm32f4xx_hal_rtc.c ****   /* Disable the write protection for RTC registers */
 499:./Libraries/STM32F4xx_HAL_Driver/Src/stm32f4xx_hal_rtc.c ****   __HAL_RTC_WRITEPROTECTION_DISABLE(hrtc);
 500:./Libraries/STM32F4xx_HAL_Driver/Src/stm32f4xx_hal_rtc.c ****   
 501:./Libraries/STM32F4xx_HAL_Driver/Src/stm32f4xx_hal_rtc.c ****   /* Set Initialization mode */
 502:./Libraries/STM32F4xx_HAL_Driver/Src/stm32f4xx_hal_rtc.c ****   if(RTC_EnterInitMode(hrtc) != HAL_OK)
ARM GAS  /tmp/ccdJbK3i.s 			page 11


 503:./Libraries/STM32F4xx_HAL_Driver/Src/stm32f4xx_hal_rtc.c ****   {
 504:./Libraries/STM32F4xx_HAL_Driver/Src/stm32f4xx_hal_rtc.c ****     /* Enable the write protection for RTC registers */
 505:./Libraries/STM32F4xx_HAL_Driver/Src/stm32f4xx_hal_rtc.c ****     __HAL_RTC_WRITEPROTECTION_ENABLE(hrtc); 
 506:./Libraries/STM32F4xx_HAL_Driver/Src/stm32f4xx_hal_rtc.c ****     
 507:./Libraries/STM32F4xx_HAL_Driver/Src/stm32f4xx_hal_rtc.c ****     /* Set RTC state */
 508:./Libraries/STM32F4xx_HAL_Driver/Src/stm32f4xx_hal_rtc.c ****     hrtc->State = HAL_RTC_STATE_ERROR;
 509:./Libraries/STM32F4xx_HAL_Driver/Src/stm32f4xx_hal_rtc.c ****     
 510:./Libraries/STM32F4xx_HAL_Driver/Src/stm32f4xx_hal_rtc.c ****     /* Process Unlocked */ 
 511:./Libraries/STM32F4xx_HAL_Driver/Src/stm32f4xx_hal_rtc.c ****     __HAL_UNLOCK(hrtc);
 512:./Libraries/STM32F4xx_HAL_Driver/Src/stm32f4xx_hal_rtc.c ****     
 513:./Libraries/STM32F4xx_HAL_Driver/Src/stm32f4xx_hal_rtc.c ****     return HAL_ERROR;
 514:./Libraries/STM32F4xx_HAL_Driver/Src/stm32f4xx_hal_rtc.c ****   } 
 515:./Libraries/STM32F4xx_HAL_Driver/Src/stm32f4xx_hal_rtc.c ****   else
 516:./Libraries/STM32F4xx_HAL_Driver/Src/stm32f4xx_hal_rtc.c ****   {
 517:./Libraries/STM32F4xx_HAL_Driver/Src/stm32f4xx_hal_rtc.c ****     /* Set the RTC_TR register */
 518:./Libraries/STM32F4xx_HAL_Driver/Src/stm32f4xx_hal_rtc.c ****     hrtc->Instance->TR = (uint32_t)(tmpreg & RTC_TR_RESERVED_MASK);
 519:./Libraries/STM32F4xx_HAL_Driver/Src/stm32f4xx_hal_rtc.c ****      
 520:./Libraries/STM32F4xx_HAL_Driver/Src/stm32f4xx_hal_rtc.c ****     /* Clear the bits to be configured */
 521:./Libraries/STM32F4xx_HAL_Driver/Src/stm32f4xx_hal_rtc.c ****     hrtc->Instance->CR &= (uint32_t)~RTC_CR_BCK;
 522:./Libraries/STM32F4xx_HAL_Driver/Src/stm32f4xx_hal_rtc.c ****     
 523:./Libraries/STM32F4xx_HAL_Driver/Src/stm32f4xx_hal_rtc.c ****     /* Configure the RTC_CR register */
 524:./Libraries/STM32F4xx_HAL_Driver/Src/stm32f4xx_hal_rtc.c ****     hrtc->Instance->CR |= (uint32_t)(sTime->DayLightSaving | sTime->StoreOperation);
 525:./Libraries/STM32F4xx_HAL_Driver/Src/stm32f4xx_hal_rtc.c ****     
 526:./Libraries/STM32F4xx_HAL_Driver/Src/stm32f4xx_hal_rtc.c ****     /* Exit Initialization mode */
 527:./Libraries/STM32F4xx_HAL_Driver/Src/stm32f4xx_hal_rtc.c ****     hrtc->Instance->ISR &= (uint32_t)~RTC_ISR_INIT;  
 528:./Libraries/STM32F4xx_HAL_Driver/Src/stm32f4xx_hal_rtc.c ****     
 529:./Libraries/STM32F4xx_HAL_Driver/Src/stm32f4xx_hal_rtc.c ****     /* If  CR_BYPSHAD bit = 0, wait for synchro else this check is not needed */
 530:./Libraries/STM32F4xx_HAL_Driver/Src/stm32f4xx_hal_rtc.c ****     if((hrtc->Instance->CR & RTC_CR_BYPSHAD) == RESET)
 531:./Libraries/STM32F4xx_HAL_Driver/Src/stm32f4xx_hal_rtc.c ****     {
 532:./Libraries/STM32F4xx_HAL_Driver/Src/stm32f4xx_hal_rtc.c ****       if(HAL_RTC_WaitForSynchro(hrtc) != HAL_OK)
 533:./Libraries/STM32F4xx_HAL_Driver/Src/stm32f4xx_hal_rtc.c ****       {        
 534:./Libraries/STM32F4xx_HAL_Driver/Src/stm32f4xx_hal_rtc.c ****         /* Enable the write protection for RTC registers */
 535:./Libraries/STM32F4xx_HAL_Driver/Src/stm32f4xx_hal_rtc.c ****         __HAL_RTC_WRITEPROTECTION_ENABLE(hrtc);  
 536:./Libraries/STM32F4xx_HAL_Driver/Src/stm32f4xx_hal_rtc.c ****         
 537:./Libraries/STM32F4xx_HAL_Driver/Src/stm32f4xx_hal_rtc.c ****         hrtc->State = HAL_RTC_STATE_ERROR;
 538:./Libraries/STM32F4xx_HAL_Driver/Src/stm32f4xx_hal_rtc.c ****         
 539:./Libraries/STM32F4xx_HAL_Driver/Src/stm32f4xx_hal_rtc.c ****         /* Process Unlocked */ 
 540:./Libraries/STM32F4xx_HAL_Driver/Src/stm32f4xx_hal_rtc.c ****         __HAL_UNLOCK(hrtc);
 541:./Libraries/STM32F4xx_HAL_Driver/Src/stm32f4xx_hal_rtc.c ****         
 542:./Libraries/STM32F4xx_HAL_Driver/Src/stm32f4xx_hal_rtc.c ****         return HAL_ERROR;
 543:./Libraries/STM32F4xx_HAL_Driver/Src/stm32f4xx_hal_rtc.c ****       }
 544:./Libraries/STM32F4xx_HAL_Driver/Src/stm32f4xx_hal_rtc.c ****     }
 545:./Libraries/STM32F4xx_HAL_Driver/Src/stm32f4xx_hal_rtc.c ****     
 546:./Libraries/STM32F4xx_HAL_Driver/Src/stm32f4xx_hal_rtc.c ****     /* Enable the write protection for RTC registers */
 547:./Libraries/STM32F4xx_HAL_Driver/Src/stm32f4xx_hal_rtc.c ****     __HAL_RTC_WRITEPROTECTION_ENABLE(hrtc);
 548:./Libraries/STM32F4xx_HAL_Driver/Src/stm32f4xx_hal_rtc.c ****     
 549:./Libraries/STM32F4xx_HAL_Driver/Src/stm32f4xx_hal_rtc.c ****    hrtc->State = HAL_RTC_STATE_READY;
 550:./Libraries/STM32F4xx_HAL_Driver/Src/stm32f4xx_hal_rtc.c ****   
 551:./Libraries/STM32F4xx_HAL_Driver/Src/stm32f4xx_hal_rtc.c ****    __HAL_UNLOCK(hrtc); 
 552:./Libraries/STM32F4xx_HAL_Driver/Src/stm32f4xx_hal_rtc.c ****      
 553:./Libraries/STM32F4xx_HAL_Driver/Src/stm32f4xx_hal_rtc.c ****    return HAL_OK;
 554:./Libraries/STM32F4xx_HAL_Driver/Src/stm32f4xx_hal_rtc.c ****   }
 555:./Libraries/STM32F4xx_HAL_Driver/Src/stm32f4xx_hal_rtc.c **** }
 556:./Libraries/STM32F4xx_HAL_Driver/Src/stm32f4xx_hal_rtc.c **** 
 557:./Libraries/STM32F4xx_HAL_Driver/Src/stm32f4xx_hal_rtc.c **** /**
 558:./Libraries/STM32F4xx_HAL_Driver/Src/stm32f4xx_hal_rtc.c ****   * @brief  Gets RTC current time.
 559:./Libraries/STM32F4xx_HAL_Driver/Src/stm32f4xx_hal_rtc.c ****   * @param  hrtc pointer to a RTC_HandleTypeDef structure that contains
ARM GAS  /tmp/ccdJbK3i.s 			page 12


 560:./Libraries/STM32F4xx_HAL_Driver/Src/stm32f4xx_hal_rtc.c ****   *                the configuration information for RTC.
 561:./Libraries/STM32F4xx_HAL_Driver/Src/stm32f4xx_hal_rtc.c ****   * @param  sTime Pointer to Time structure
 562:./Libraries/STM32F4xx_HAL_Driver/Src/stm32f4xx_hal_rtc.c ****   * @param  Format Specifies the format of the entered parameters.
 563:./Libraries/STM32F4xx_HAL_Driver/Src/stm32f4xx_hal_rtc.c ****   *          This parameter can be one of the following values:
 564:./Libraries/STM32F4xx_HAL_Driver/Src/stm32f4xx_hal_rtc.c ****   *            @arg RTC_FORMAT_BIN: Binary data format 
 565:./Libraries/STM32F4xx_HAL_Driver/Src/stm32f4xx_hal_rtc.c ****   *            @arg RTC_FORMAT_BCD: BCD data format
 566:./Libraries/STM32F4xx_HAL_Driver/Src/stm32f4xx_hal_rtc.c ****   * @note  You can use SubSeconds and SecondFraction (sTime structure fields returned) to convert S
 567:./Libraries/STM32F4xx_HAL_Driver/Src/stm32f4xx_hal_rtc.c ****   *        value in second fraction ratio with time unit following generic formula:
 568:./Libraries/STM32F4xx_HAL_Driver/Src/stm32f4xx_hal_rtc.c ****   *        Second fraction ratio * time_unit= [(SecondFraction-SubSeconds)/(SecondFraction+1)] * ti
 569:./Libraries/STM32F4xx_HAL_Driver/Src/stm32f4xx_hal_rtc.c ****   *        This conversion can be performed only if no shift operation is pending (ie. SHFP=0) when
 570:./Libraries/STM32F4xx_HAL_Driver/Src/stm32f4xx_hal_rtc.c ****   * @note You must call HAL_RTC_GetDate() after HAL_RTC_GetTime() to unlock the values 
 571:./Libraries/STM32F4xx_HAL_Driver/Src/stm32f4xx_hal_rtc.c ****   *        in the higher-order calendar shadow registers to ensure consistency between the time and
 572:./Libraries/STM32F4xx_HAL_Driver/Src/stm32f4xx_hal_rtc.c ****   *        Reading RTC current time locks the values in calendar shadow registers until current dat
 573:./Libraries/STM32F4xx_HAL_Driver/Src/stm32f4xx_hal_rtc.c ****   * @retval HAL status
 574:./Libraries/STM32F4xx_HAL_Driver/Src/stm32f4xx_hal_rtc.c ****   */
 575:./Libraries/STM32F4xx_HAL_Driver/Src/stm32f4xx_hal_rtc.c **** HAL_StatusTypeDef HAL_RTC_GetTime(RTC_HandleTypeDef *hrtc, RTC_TimeTypeDef *sTime, uint32_t Format)
 576:./Libraries/STM32F4xx_HAL_Driver/Src/stm32f4xx_hal_rtc.c **** {
 577:./Libraries/STM32F4xx_HAL_Driver/Src/stm32f4xx_hal_rtc.c ****   uint32_t tmpreg = 0U;
 578:./Libraries/STM32F4xx_HAL_Driver/Src/stm32f4xx_hal_rtc.c **** 
 579:./Libraries/STM32F4xx_HAL_Driver/Src/stm32f4xx_hal_rtc.c ****   /* Check the parameters */
 580:./Libraries/STM32F4xx_HAL_Driver/Src/stm32f4xx_hal_rtc.c ****   assert_param(IS_RTC_FORMAT(Format));
 581:./Libraries/STM32F4xx_HAL_Driver/Src/stm32f4xx_hal_rtc.c ****   
 582:./Libraries/STM32F4xx_HAL_Driver/Src/stm32f4xx_hal_rtc.c ****   /* Get subseconds structure field from the corresponding register */
 583:./Libraries/STM32F4xx_HAL_Driver/Src/stm32f4xx_hal_rtc.c ****   sTime->SubSeconds = (uint32_t)(hrtc->Instance->SSR);
 584:./Libraries/STM32F4xx_HAL_Driver/Src/stm32f4xx_hal_rtc.c ****   
 585:./Libraries/STM32F4xx_HAL_Driver/Src/stm32f4xx_hal_rtc.c ****   /* Get SecondFraction structure field from the corresponding register field*/
 586:./Libraries/STM32F4xx_HAL_Driver/Src/stm32f4xx_hal_rtc.c ****   sTime->SecondFraction = (uint32_t)(hrtc->Instance->PRER & RTC_PRER_PREDIV_S);
 587:./Libraries/STM32F4xx_HAL_Driver/Src/stm32f4xx_hal_rtc.c **** 
 588:./Libraries/STM32F4xx_HAL_Driver/Src/stm32f4xx_hal_rtc.c ****   /* Get the TR register */
 589:./Libraries/STM32F4xx_HAL_Driver/Src/stm32f4xx_hal_rtc.c ****   tmpreg = (uint32_t)(hrtc->Instance->TR & RTC_TR_RESERVED_MASK); 
 590:./Libraries/STM32F4xx_HAL_Driver/Src/stm32f4xx_hal_rtc.c ****   
 591:./Libraries/STM32F4xx_HAL_Driver/Src/stm32f4xx_hal_rtc.c ****   /* Fill the structure fields with the read parameters */
 592:./Libraries/STM32F4xx_HAL_Driver/Src/stm32f4xx_hal_rtc.c ****   sTime->Hours = (uint8_t)((tmpreg & (RTC_TR_HT | RTC_TR_HU)) >> 16U);
 593:./Libraries/STM32F4xx_HAL_Driver/Src/stm32f4xx_hal_rtc.c ****   sTime->Minutes = (uint8_t)((tmpreg & (RTC_TR_MNT | RTC_TR_MNU)) >> 8U);
 594:./Libraries/STM32F4xx_HAL_Driver/Src/stm32f4xx_hal_rtc.c ****   sTime->Seconds = (uint8_t)(tmpreg & (RTC_TR_ST | RTC_TR_SU));
 595:./Libraries/STM32F4xx_HAL_Driver/Src/stm32f4xx_hal_rtc.c ****   sTime->TimeFormat = (uint8_t)((tmpreg & (RTC_TR_PM)) >> 16U); 
 596:./Libraries/STM32F4xx_HAL_Driver/Src/stm32f4xx_hal_rtc.c ****   
 597:./Libraries/STM32F4xx_HAL_Driver/Src/stm32f4xx_hal_rtc.c ****   /* Check the input parameters format */
 598:./Libraries/STM32F4xx_HAL_Driver/Src/stm32f4xx_hal_rtc.c ****   if(Format == RTC_FORMAT_BIN)
 599:./Libraries/STM32F4xx_HAL_Driver/Src/stm32f4xx_hal_rtc.c ****   {
 600:./Libraries/STM32F4xx_HAL_Driver/Src/stm32f4xx_hal_rtc.c ****     /* Convert the time structure parameters to Binary format */
 601:./Libraries/STM32F4xx_HAL_Driver/Src/stm32f4xx_hal_rtc.c ****     sTime->Hours = (uint8_t)RTC_Bcd2ToByte(sTime->Hours);
 602:./Libraries/STM32F4xx_HAL_Driver/Src/stm32f4xx_hal_rtc.c ****     sTime->Minutes = (uint8_t)RTC_Bcd2ToByte(sTime->Minutes);
 603:./Libraries/STM32F4xx_HAL_Driver/Src/stm32f4xx_hal_rtc.c ****     sTime->Seconds = (uint8_t)RTC_Bcd2ToByte(sTime->Seconds);  
 604:./Libraries/STM32F4xx_HAL_Driver/Src/stm32f4xx_hal_rtc.c ****   }
 605:./Libraries/STM32F4xx_HAL_Driver/Src/stm32f4xx_hal_rtc.c ****   
 606:./Libraries/STM32F4xx_HAL_Driver/Src/stm32f4xx_hal_rtc.c ****   return HAL_OK;
 607:./Libraries/STM32F4xx_HAL_Driver/Src/stm32f4xx_hal_rtc.c **** }
 608:./Libraries/STM32F4xx_HAL_Driver/Src/stm32f4xx_hal_rtc.c **** 
 609:./Libraries/STM32F4xx_HAL_Driver/Src/stm32f4xx_hal_rtc.c **** /**
 610:./Libraries/STM32F4xx_HAL_Driver/Src/stm32f4xx_hal_rtc.c ****   * @brief  Sets RTC current date.
 611:./Libraries/STM32F4xx_HAL_Driver/Src/stm32f4xx_hal_rtc.c ****   * @param  hrtc pointer to a RTC_HandleTypeDef structure that contains
 612:./Libraries/STM32F4xx_HAL_Driver/Src/stm32f4xx_hal_rtc.c ****   *                the configuration information for RTC.
 613:./Libraries/STM32F4xx_HAL_Driver/Src/stm32f4xx_hal_rtc.c ****   * @param  sDate Pointer to date structure
 614:./Libraries/STM32F4xx_HAL_Driver/Src/stm32f4xx_hal_rtc.c ****   * @param  Format specifies the format of the entered parameters.
 615:./Libraries/STM32F4xx_HAL_Driver/Src/stm32f4xx_hal_rtc.c ****   *          This parameter can be one of the following values:
 616:./Libraries/STM32F4xx_HAL_Driver/Src/stm32f4xx_hal_rtc.c ****   *            @arg RTC_FORMAT_BIN: Binary data format 
ARM GAS  /tmp/ccdJbK3i.s 			page 13


 617:./Libraries/STM32F4xx_HAL_Driver/Src/stm32f4xx_hal_rtc.c ****   *            @arg RTC_FORMAT_BCD: BCD data format
 618:./Libraries/STM32F4xx_HAL_Driver/Src/stm32f4xx_hal_rtc.c ****   * @retval HAL status
 619:./Libraries/STM32F4xx_HAL_Driver/Src/stm32f4xx_hal_rtc.c ****   */
 620:./Libraries/STM32F4xx_HAL_Driver/Src/stm32f4xx_hal_rtc.c **** HAL_StatusTypeDef HAL_RTC_SetDate(RTC_HandleTypeDef *hrtc, RTC_DateTypeDef *sDate, uint32_t Format)
 621:./Libraries/STM32F4xx_HAL_Driver/Src/stm32f4xx_hal_rtc.c **** {
 622:./Libraries/STM32F4xx_HAL_Driver/Src/stm32f4xx_hal_rtc.c ****   uint32_t datetmpreg = 0U;
 623:./Libraries/STM32F4xx_HAL_Driver/Src/stm32f4xx_hal_rtc.c ****   
 624:./Libraries/STM32F4xx_HAL_Driver/Src/stm32f4xx_hal_rtc.c ****  /* Check the parameters */
 625:./Libraries/STM32F4xx_HAL_Driver/Src/stm32f4xx_hal_rtc.c ****   assert_param(IS_RTC_FORMAT(Format));
 626:./Libraries/STM32F4xx_HAL_Driver/Src/stm32f4xx_hal_rtc.c ****   
 627:./Libraries/STM32F4xx_HAL_Driver/Src/stm32f4xx_hal_rtc.c ****  /* Process Locked */ 
 628:./Libraries/STM32F4xx_HAL_Driver/Src/stm32f4xx_hal_rtc.c ****  __HAL_LOCK(hrtc);
 629:./Libraries/STM32F4xx_HAL_Driver/Src/stm32f4xx_hal_rtc.c ****   
 630:./Libraries/STM32F4xx_HAL_Driver/Src/stm32f4xx_hal_rtc.c ****   hrtc->State = HAL_RTC_STATE_BUSY; 
 631:./Libraries/STM32F4xx_HAL_Driver/Src/stm32f4xx_hal_rtc.c ****   
 632:./Libraries/STM32F4xx_HAL_Driver/Src/stm32f4xx_hal_rtc.c ****   if((Format == RTC_FORMAT_BIN) && ((sDate->Month & 0x10U) == 0x10U))
 633:./Libraries/STM32F4xx_HAL_Driver/Src/stm32f4xx_hal_rtc.c ****   {
 634:./Libraries/STM32F4xx_HAL_Driver/Src/stm32f4xx_hal_rtc.c ****     sDate->Month = (uint8_t)((sDate->Month & (uint8_t)~(0x10U)) + (uint8_t)0x0AU);
 635:./Libraries/STM32F4xx_HAL_Driver/Src/stm32f4xx_hal_rtc.c ****   }
 636:./Libraries/STM32F4xx_HAL_Driver/Src/stm32f4xx_hal_rtc.c ****   
 637:./Libraries/STM32F4xx_HAL_Driver/Src/stm32f4xx_hal_rtc.c ****   assert_param(IS_RTC_WEEKDAY(sDate->WeekDay));
 638:./Libraries/STM32F4xx_HAL_Driver/Src/stm32f4xx_hal_rtc.c ****   
 639:./Libraries/STM32F4xx_HAL_Driver/Src/stm32f4xx_hal_rtc.c ****   if(Format == RTC_FORMAT_BIN)
 640:./Libraries/STM32F4xx_HAL_Driver/Src/stm32f4xx_hal_rtc.c ****   {   
 641:./Libraries/STM32F4xx_HAL_Driver/Src/stm32f4xx_hal_rtc.c ****     assert_param(IS_RTC_YEAR(sDate->Year));
 642:./Libraries/STM32F4xx_HAL_Driver/Src/stm32f4xx_hal_rtc.c ****     assert_param(IS_RTC_MONTH(sDate->Month));
 643:./Libraries/STM32F4xx_HAL_Driver/Src/stm32f4xx_hal_rtc.c ****     assert_param(IS_RTC_DATE(sDate->Date)); 
 644:./Libraries/STM32F4xx_HAL_Driver/Src/stm32f4xx_hal_rtc.c ****     
 645:./Libraries/STM32F4xx_HAL_Driver/Src/stm32f4xx_hal_rtc.c ****    datetmpreg = (((uint32_t)RTC_ByteToBcd2(sDate->Year) << 16U) | \
 646:./Libraries/STM32F4xx_HAL_Driver/Src/stm32f4xx_hal_rtc.c ****                  ((uint32_t)RTC_ByteToBcd2(sDate->Month) << 8U) | \
 647:./Libraries/STM32F4xx_HAL_Driver/Src/stm32f4xx_hal_rtc.c ****                  ((uint32_t)RTC_ByteToBcd2(sDate->Date)) | \
 648:./Libraries/STM32F4xx_HAL_Driver/Src/stm32f4xx_hal_rtc.c ****                  ((uint32_t)sDate->WeekDay << 13U));   
 649:./Libraries/STM32F4xx_HAL_Driver/Src/stm32f4xx_hal_rtc.c ****   }
 650:./Libraries/STM32F4xx_HAL_Driver/Src/stm32f4xx_hal_rtc.c ****   else
 651:./Libraries/STM32F4xx_HAL_Driver/Src/stm32f4xx_hal_rtc.c ****   {   
 652:./Libraries/STM32F4xx_HAL_Driver/Src/stm32f4xx_hal_rtc.c ****     assert_param(IS_RTC_YEAR(RTC_Bcd2ToByte(sDate->Year)));
 653:./Libraries/STM32F4xx_HAL_Driver/Src/stm32f4xx_hal_rtc.c ****     assert_param(IS_RTC_MONTH(datetmpreg));
 654:./Libraries/STM32F4xx_HAL_Driver/Src/stm32f4xx_hal_rtc.c ****     assert_param(IS_RTC_DATE(datetmpreg));
 655:./Libraries/STM32F4xx_HAL_Driver/Src/stm32f4xx_hal_rtc.c ****     
 656:./Libraries/STM32F4xx_HAL_Driver/Src/stm32f4xx_hal_rtc.c ****     datetmpreg = ((((uint32_t)sDate->Year) << 16U) | \
 657:./Libraries/STM32F4xx_HAL_Driver/Src/stm32f4xx_hal_rtc.c ****                   (((uint32_t)sDate->Month) << 8U) | \
 658:./Libraries/STM32F4xx_HAL_Driver/Src/stm32f4xx_hal_rtc.c ****                   ((uint32_t)sDate->Date) | \
 659:./Libraries/STM32F4xx_HAL_Driver/Src/stm32f4xx_hal_rtc.c ****                   (((uint32_t)sDate->WeekDay) << 13U));  
 660:./Libraries/STM32F4xx_HAL_Driver/Src/stm32f4xx_hal_rtc.c ****   }
 661:./Libraries/STM32F4xx_HAL_Driver/Src/stm32f4xx_hal_rtc.c **** 
 662:./Libraries/STM32F4xx_HAL_Driver/Src/stm32f4xx_hal_rtc.c ****   /* Disable the write protection for RTC registers */
 663:./Libraries/STM32F4xx_HAL_Driver/Src/stm32f4xx_hal_rtc.c ****   __HAL_RTC_WRITEPROTECTION_DISABLE(hrtc);
 664:./Libraries/STM32F4xx_HAL_Driver/Src/stm32f4xx_hal_rtc.c ****   
 665:./Libraries/STM32F4xx_HAL_Driver/Src/stm32f4xx_hal_rtc.c ****   /* Set Initialization mode */
 666:./Libraries/STM32F4xx_HAL_Driver/Src/stm32f4xx_hal_rtc.c ****   if(RTC_EnterInitMode(hrtc) != HAL_OK)
 667:./Libraries/STM32F4xx_HAL_Driver/Src/stm32f4xx_hal_rtc.c ****   {
 668:./Libraries/STM32F4xx_HAL_Driver/Src/stm32f4xx_hal_rtc.c ****     /* Enable the write protection for RTC registers */
 669:./Libraries/STM32F4xx_HAL_Driver/Src/stm32f4xx_hal_rtc.c ****     __HAL_RTC_WRITEPROTECTION_ENABLE(hrtc); 
 670:./Libraries/STM32F4xx_HAL_Driver/Src/stm32f4xx_hal_rtc.c ****     
 671:./Libraries/STM32F4xx_HAL_Driver/Src/stm32f4xx_hal_rtc.c ****     /* Set RTC state*/
 672:./Libraries/STM32F4xx_HAL_Driver/Src/stm32f4xx_hal_rtc.c ****     hrtc->State = HAL_RTC_STATE_ERROR;
 673:./Libraries/STM32F4xx_HAL_Driver/Src/stm32f4xx_hal_rtc.c ****     
ARM GAS  /tmp/ccdJbK3i.s 			page 14


 674:./Libraries/STM32F4xx_HAL_Driver/Src/stm32f4xx_hal_rtc.c ****     /* Process Unlocked */ 
 675:./Libraries/STM32F4xx_HAL_Driver/Src/stm32f4xx_hal_rtc.c ****     __HAL_UNLOCK(hrtc);
 676:./Libraries/STM32F4xx_HAL_Driver/Src/stm32f4xx_hal_rtc.c ****     
 677:./Libraries/STM32F4xx_HAL_Driver/Src/stm32f4xx_hal_rtc.c ****     return HAL_ERROR;
 678:./Libraries/STM32F4xx_HAL_Driver/Src/stm32f4xx_hal_rtc.c ****   } 
 679:./Libraries/STM32F4xx_HAL_Driver/Src/stm32f4xx_hal_rtc.c ****   else
 680:./Libraries/STM32F4xx_HAL_Driver/Src/stm32f4xx_hal_rtc.c ****   {
 681:./Libraries/STM32F4xx_HAL_Driver/Src/stm32f4xx_hal_rtc.c ****     /* Set the RTC_DR register */
 682:./Libraries/STM32F4xx_HAL_Driver/Src/stm32f4xx_hal_rtc.c ****     hrtc->Instance->DR = (uint32_t)(datetmpreg & RTC_DR_RESERVED_MASK);
 683:./Libraries/STM32F4xx_HAL_Driver/Src/stm32f4xx_hal_rtc.c ****     
 684:./Libraries/STM32F4xx_HAL_Driver/Src/stm32f4xx_hal_rtc.c ****     /* Exit Initialization mode */
 685:./Libraries/STM32F4xx_HAL_Driver/Src/stm32f4xx_hal_rtc.c ****     hrtc->Instance->ISR &= (uint32_t)~RTC_ISR_INIT;  
 686:./Libraries/STM32F4xx_HAL_Driver/Src/stm32f4xx_hal_rtc.c ****     
 687:./Libraries/STM32F4xx_HAL_Driver/Src/stm32f4xx_hal_rtc.c ****     /* If  CR_BYPSHAD bit = 0, wait for synchro else this check is not needed */
 688:./Libraries/STM32F4xx_HAL_Driver/Src/stm32f4xx_hal_rtc.c ****     if((hrtc->Instance->CR & RTC_CR_BYPSHAD) == RESET)
 689:./Libraries/STM32F4xx_HAL_Driver/Src/stm32f4xx_hal_rtc.c ****     {
 690:./Libraries/STM32F4xx_HAL_Driver/Src/stm32f4xx_hal_rtc.c ****       if(HAL_RTC_WaitForSynchro(hrtc) != HAL_OK)
 691:./Libraries/STM32F4xx_HAL_Driver/Src/stm32f4xx_hal_rtc.c ****       { 
 692:./Libraries/STM32F4xx_HAL_Driver/Src/stm32f4xx_hal_rtc.c ****         /* Enable the write protection for RTC registers */
 693:./Libraries/STM32F4xx_HAL_Driver/Src/stm32f4xx_hal_rtc.c ****         __HAL_RTC_WRITEPROTECTION_ENABLE(hrtc);  
 694:./Libraries/STM32F4xx_HAL_Driver/Src/stm32f4xx_hal_rtc.c ****         
 695:./Libraries/STM32F4xx_HAL_Driver/Src/stm32f4xx_hal_rtc.c ****         hrtc->State = HAL_RTC_STATE_ERROR;
 696:./Libraries/STM32F4xx_HAL_Driver/Src/stm32f4xx_hal_rtc.c ****         
 697:./Libraries/STM32F4xx_HAL_Driver/Src/stm32f4xx_hal_rtc.c ****         /* Process Unlocked */ 
 698:./Libraries/STM32F4xx_HAL_Driver/Src/stm32f4xx_hal_rtc.c ****         __HAL_UNLOCK(hrtc);
 699:./Libraries/STM32F4xx_HAL_Driver/Src/stm32f4xx_hal_rtc.c ****         
 700:./Libraries/STM32F4xx_HAL_Driver/Src/stm32f4xx_hal_rtc.c ****         return HAL_ERROR;
 701:./Libraries/STM32F4xx_HAL_Driver/Src/stm32f4xx_hal_rtc.c ****       }
 702:./Libraries/STM32F4xx_HAL_Driver/Src/stm32f4xx_hal_rtc.c ****     }
 703:./Libraries/STM32F4xx_HAL_Driver/Src/stm32f4xx_hal_rtc.c ****     
 704:./Libraries/STM32F4xx_HAL_Driver/Src/stm32f4xx_hal_rtc.c ****     /* Enable the write protection for RTC registers */
 705:./Libraries/STM32F4xx_HAL_Driver/Src/stm32f4xx_hal_rtc.c ****     __HAL_RTC_WRITEPROTECTION_ENABLE(hrtc);  
 706:./Libraries/STM32F4xx_HAL_Driver/Src/stm32f4xx_hal_rtc.c ****     
 707:./Libraries/STM32F4xx_HAL_Driver/Src/stm32f4xx_hal_rtc.c ****     hrtc->State = HAL_RTC_STATE_READY ;
 708:./Libraries/STM32F4xx_HAL_Driver/Src/stm32f4xx_hal_rtc.c ****     
 709:./Libraries/STM32F4xx_HAL_Driver/Src/stm32f4xx_hal_rtc.c ****     /* Process Unlocked */ 
 710:./Libraries/STM32F4xx_HAL_Driver/Src/stm32f4xx_hal_rtc.c ****     __HAL_UNLOCK(hrtc);
 711:./Libraries/STM32F4xx_HAL_Driver/Src/stm32f4xx_hal_rtc.c ****     
 712:./Libraries/STM32F4xx_HAL_Driver/Src/stm32f4xx_hal_rtc.c ****     return HAL_OK;    
 713:./Libraries/STM32F4xx_HAL_Driver/Src/stm32f4xx_hal_rtc.c ****   }
 714:./Libraries/STM32F4xx_HAL_Driver/Src/stm32f4xx_hal_rtc.c **** }
 715:./Libraries/STM32F4xx_HAL_Driver/Src/stm32f4xx_hal_rtc.c **** 
 716:./Libraries/STM32F4xx_HAL_Driver/Src/stm32f4xx_hal_rtc.c **** /**
 717:./Libraries/STM32F4xx_HAL_Driver/Src/stm32f4xx_hal_rtc.c ****   * @brief  Gets RTC current date.
 718:./Libraries/STM32F4xx_HAL_Driver/Src/stm32f4xx_hal_rtc.c ****   * @param  hrtc pointer to a RTC_HandleTypeDef structure that contains
 719:./Libraries/STM32F4xx_HAL_Driver/Src/stm32f4xx_hal_rtc.c ****   *                the configuration information for RTC.
 720:./Libraries/STM32F4xx_HAL_Driver/Src/stm32f4xx_hal_rtc.c ****   * @param  sDate Pointer to Date structure
 721:./Libraries/STM32F4xx_HAL_Driver/Src/stm32f4xx_hal_rtc.c ****   * @param  Format Specifies the format of the entered parameters.
 722:./Libraries/STM32F4xx_HAL_Driver/Src/stm32f4xx_hal_rtc.c ****   *          This parameter can be one of the following values:
 723:./Libraries/STM32F4xx_HAL_Driver/Src/stm32f4xx_hal_rtc.c ****   *            @arg RTC_FORMAT_BIN:  Binary data format 
 724:./Libraries/STM32F4xx_HAL_Driver/Src/stm32f4xx_hal_rtc.c ****   *            @arg RTC_FORMAT_BCD:  BCD data format
 725:./Libraries/STM32F4xx_HAL_Driver/Src/stm32f4xx_hal_rtc.c ****   * @note You must call HAL_RTC_GetDate() after HAL_RTC_GetTime() to unlock the values 
 726:./Libraries/STM32F4xx_HAL_Driver/Src/stm32f4xx_hal_rtc.c ****   * in the higher-order calendar shadow registers to ensure consistency between the time and date v
 727:./Libraries/STM32F4xx_HAL_Driver/Src/stm32f4xx_hal_rtc.c ****   * Reading RTC current time locks the values in calendar shadow registers until Current date is re
 728:./Libraries/STM32F4xx_HAL_Driver/Src/stm32f4xx_hal_rtc.c ****   * @retval HAL status
 729:./Libraries/STM32F4xx_HAL_Driver/Src/stm32f4xx_hal_rtc.c ****   */
 730:./Libraries/STM32F4xx_HAL_Driver/Src/stm32f4xx_hal_rtc.c **** HAL_StatusTypeDef HAL_RTC_GetDate(RTC_HandleTypeDef *hrtc, RTC_DateTypeDef *sDate, uint32_t Format)
ARM GAS  /tmp/ccdJbK3i.s 			page 15


 731:./Libraries/STM32F4xx_HAL_Driver/Src/stm32f4xx_hal_rtc.c **** {
 732:./Libraries/STM32F4xx_HAL_Driver/Src/stm32f4xx_hal_rtc.c ****   uint32_t datetmpreg = 0U;
 733:./Libraries/STM32F4xx_HAL_Driver/Src/stm32f4xx_hal_rtc.c **** 
 734:./Libraries/STM32F4xx_HAL_Driver/Src/stm32f4xx_hal_rtc.c ****   /* Check the parameters */
 735:./Libraries/STM32F4xx_HAL_Driver/Src/stm32f4xx_hal_rtc.c ****   assert_param(IS_RTC_FORMAT(Format));
 736:./Libraries/STM32F4xx_HAL_Driver/Src/stm32f4xx_hal_rtc.c ****           
 737:./Libraries/STM32F4xx_HAL_Driver/Src/stm32f4xx_hal_rtc.c ****   /* Get the DR register */
 738:./Libraries/STM32F4xx_HAL_Driver/Src/stm32f4xx_hal_rtc.c ****   datetmpreg = (uint32_t)(hrtc->Instance->DR & RTC_DR_RESERVED_MASK); 
 739:./Libraries/STM32F4xx_HAL_Driver/Src/stm32f4xx_hal_rtc.c **** 
 740:./Libraries/STM32F4xx_HAL_Driver/Src/stm32f4xx_hal_rtc.c ****   /* Fill the structure fields with the read parameters */
 741:./Libraries/STM32F4xx_HAL_Driver/Src/stm32f4xx_hal_rtc.c ****   sDate->Year = (uint8_t)((datetmpreg & (RTC_DR_YT | RTC_DR_YU)) >> 16U);
 742:./Libraries/STM32F4xx_HAL_Driver/Src/stm32f4xx_hal_rtc.c ****   sDate->Month = (uint8_t)((datetmpreg & (RTC_DR_MT | RTC_DR_MU)) >> 8U);
 743:./Libraries/STM32F4xx_HAL_Driver/Src/stm32f4xx_hal_rtc.c ****   sDate->Date = (uint8_t)(datetmpreg & (RTC_DR_DT | RTC_DR_DU));
 744:./Libraries/STM32F4xx_HAL_Driver/Src/stm32f4xx_hal_rtc.c ****   sDate->WeekDay = (uint8_t)((datetmpreg & (RTC_DR_WDU)) >> 13U); 
 745:./Libraries/STM32F4xx_HAL_Driver/Src/stm32f4xx_hal_rtc.c **** 
 746:./Libraries/STM32F4xx_HAL_Driver/Src/stm32f4xx_hal_rtc.c ****   /* Check the input parameters format */
 747:./Libraries/STM32F4xx_HAL_Driver/Src/stm32f4xx_hal_rtc.c ****   if(Format == RTC_FORMAT_BIN)
 748:./Libraries/STM32F4xx_HAL_Driver/Src/stm32f4xx_hal_rtc.c ****   {    
 749:./Libraries/STM32F4xx_HAL_Driver/Src/stm32f4xx_hal_rtc.c ****     /* Convert the date structure parameters to Binary format */
 750:./Libraries/STM32F4xx_HAL_Driver/Src/stm32f4xx_hal_rtc.c ****     sDate->Year = (uint8_t)RTC_Bcd2ToByte(sDate->Year);
 751:./Libraries/STM32F4xx_HAL_Driver/Src/stm32f4xx_hal_rtc.c ****     sDate->Month = (uint8_t)RTC_Bcd2ToByte(sDate->Month);
 752:./Libraries/STM32F4xx_HAL_Driver/Src/stm32f4xx_hal_rtc.c ****     sDate->Date = (uint8_t)RTC_Bcd2ToByte(sDate->Date);  
 753:./Libraries/STM32F4xx_HAL_Driver/Src/stm32f4xx_hal_rtc.c ****   }
 754:./Libraries/STM32F4xx_HAL_Driver/Src/stm32f4xx_hal_rtc.c ****   return HAL_OK;
 755:./Libraries/STM32F4xx_HAL_Driver/Src/stm32f4xx_hal_rtc.c **** }
 756:./Libraries/STM32F4xx_HAL_Driver/Src/stm32f4xx_hal_rtc.c **** 
 757:./Libraries/STM32F4xx_HAL_Driver/Src/stm32f4xx_hal_rtc.c **** /**
 758:./Libraries/STM32F4xx_HAL_Driver/Src/stm32f4xx_hal_rtc.c ****   * @}
 759:./Libraries/STM32F4xx_HAL_Driver/Src/stm32f4xx_hal_rtc.c ****   */
 760:./Libraries/STM32F4xx_HAL_Driver/Src/stm32f4xx_hal_rtc.c **** 
 761:./Libraries/STM32F4xx_HAL_Driver/Src/stm32f4xx_hal_rtc.c **** /** @defgroup RTC_Exported_Functions_Group3 RTC Alarm functions
 762:./Libraries/STM32F4xx_HAL_Driver/Src/stm32f4xx_hal_rtc.c ****  *  @brief   RTC Alarm functions
 763:./Libraries/STM32F4xx_HAL_Driver/Src/stm32f4xx_hal_rtc.c ****  *
 764:./Libraries/STM32F4xx_HAL_Driver/Src/stm32f4xx_hal_rtc.c **** @verbatim   
 765:./Libraries/STM32F4xx_HAL_Driver/Src/stm32f4xx_hal_rtc.c ****  ===============================================================================
 766:./Libraries/STM32F4xx_HAL_Driver/Src/stm32f4xx_hal_rtc.c ****                  ##### RTC Alarm functions #####
 767:./Libraries/STM32F4xx_HAL_Driver/Src/stm32f4xx_hal_rtc.c ****  ===============================================================================  
 768:./Libraries/STM32F4xx_HAL_Driver/Src/stm32f4xx_hal_rtc.c ****  
 769:./Libraries/STM32F4xx_HAL_Driver/Src/stm32f4xx_hal_rtc.c ****  [..] This section provides functions allowing to configure Alarm feature
 770:./Libraries/STM32F4xx_HAL_Driver/Src/stm32f4xx_hal_rtc.c **** 
 771:./Libraries/STM32F4xx_HAL_Driver/Src/stm32f4xx_hal_rtc.c **** @endverbatim
 772:./Libraries/STM32F4xx_HAL_Driver/Src/stm32f4xx_hal_rtc.c ****   * @{
 773:./Libraries/STM32F4xx_HAL_Driver/Src/stm32f4xx_hal_rtc.c ****   */
 774:./Libraries/STM32F4xx_HAL_Driver/Src/stm32f4xx_hal_rtc.c **** /**
 775:./Libraries/STM32F4xx_HAL_Driver/Src/stm32f4xx_hal_rtc.c ****   * @brief  Sets the specified RTC Alarm.
 776:./Libraries/STM32F4xx_HAL_Driver/Src/stm32f4xx_hal_rtc.c ****   * @param  hrtc pointer to a RTC_HandleTypeDef structure that contains
 777:./Libraries/STM32F4xx_HAL_Driver/Src/stm32f4xx_hal_rtc.c ****   *                the configuration information for RTC.
 778:./Libraries/STM32F4xx_HAL_Driver/Src/stm32f4xx_hal_rtc.c ****   * @param  sAlarm Pointer to Alarm structure
 779:./Libraries/STM32F4xx_HAL_Driver/Src/stm32f4xx_hal_rtc.c ****   * @param  Format Specifies the format of the entered parameters.
 780:./Libraries/STM32F4xx_HAL_Driver/Src/stm32f4xx_hal_rtc.c ****   *          This parameter can be one of the following values:
 781:./Libraries/STM32F4xx_HAL_Driver/Src/stm32f4xx_hal_rtc.c ****   *             @arg RTC_FORMAT_BIN: Binary data format 
 782:./Libraries/STM32F4xx_HAL_Driver/Src/stm32f4xx_hal_rtc.c ****   *             @arg RTC_FORMAT_BCD: BCD data format
 783:./Libraries/STM32F4xx_HAL_Driver/Src/stm32f4xx_hal_rtc.c ****   * @retval HAL status
 784:./Libraries/STM32F4xx_HAL_Driver/Src/stm32f4xx_hal_rtc.c ****   */
 785:./Libraries/STM32F4xx_HAL_Driver/Src/stm32f4xx_hal_rtc.c **** HAL_StatusTypeDef HAL_RTC_SetAlarm(RTC_HandleTypeDef *hrtc, RTC_AlarmTypeDef *sAlarm, uint32_t Form
 786:./Libraries/STM32F4xx_HAL_Driver/Src/stm32f4xx_hal_rtc.c **** {
 787:./Libraries/STM32F4xx_HAL_Driver/Src/stm32f4xx_hal_rtc.c ****   uint32_t tickstart = 0U;
ARM GAS  /tmp/ccdJbK3i.s 			page 16


 788:./Libraries/STM32F4xx_HAL_Driver/Src/stm32f4xx_hal_rtc.c ****   uint32_t tmpreg = 0U, subsecondtmpreg = 0U;
 789:./Libraries/STM32F4xx_HAL_Driver/Src/stm32f4xx_hal_rtc.c ****   
 790:./Libraries/STM32F4xx_HAL_Driver/Src/stm32f4xx_hal_rtc.c ****   /* Check the parameters */
 791:./Libraries/STM32F4xx_HAL_Driver/Src/stm32f4xx_hal_rtc.c ****   assert_param(IS_RTC_FORMAT(Format));
 792:./Libraries/STM32F4xx_HAL_Driver/Src/stm32f4xx_hal_rtc.c ****   assert_param(IS_RTC_ALARM(sAlarm->Alarm));
 793:./Libraries/STM32F4xx_HAL_Driver/Src/stm32f4xx_hal_rtc.c ****   assert_param(IS_RTC_ALARM_MASK(sAlarm->AlarmMask));
 794:./Libraries/STM32F4xx_HAL_Driver/Src/stm32f4xx_hal_rtc.c ****   assert_param(IS_RTC_ALARM_DATE_WEEKDAY_SEL(sAlarm->AlarmDateWeekDaySel));
 795:./Libraries/STM32F4xx_HAL_Driver/Src/stm32f4xx_hal_rtc.c ****   assert_param(IS_RTC_ALARM_SUB_SECOND_VALUE(sAlarm->AlarmTime.SubSeconds));
 796:./Libraries/STM32F4xx_HAL_Driver/Src/stm32f4xx_hal_rtc.c ****   assert_param(IS_RTC_ALARM_SUB_SECOND_MASK(sAlarm->AlarmSubSecondMask));
 797:./Libraries/STM32F4xx_HAL_Driver/Src/stm32f4xx_hal_rtc.c ****   
 798:./Libraries/STM32F4xx_HAL_Driver/Src/stm32f4xx_hal_rtc.c ****   /* Process Locked */ 
 799:./Libraries/STM32F4xx_HAL_Driver/Src/stm32f4xx_hal_rtc.c ****   __HAL_LOCK(hrtc);
 800:./Libraries/STM32F4xx_HAL_Driver/Src/stm32f4xx_hal_rtc.c ****   
 801:./Libraries/STM32F4xx_HAL_Driver/Src/stm32f4xx_hal_rtc.c ****   hrtc->State = HAL_RTC_STATE_BUSY;
 802:./Libraries/STM32F4xx_HAL_Driver/Src/stm32f4xx_hal_rtc.c ****   
 803:./Libraries/STM32F4xx_HAL_Driver/Src/stm32f4xx_hal_rtc.c ****   if(Format == RTC_FORMAT_BIN)
 804:./Libraries/STM32F4xx_HAL_Driver/Src/stm32f4xx_hal_rtc.c ****   {
 805:./Libraries/STM32F4xx_HAL_Driver/Src/stm32f4xx_hal_rtc.c ****     if((hrtc->Instance->CR & RTC_CR_FMT) != (uint32_t)RESET)
 806:./Libraries/STM32F4xx_HAL_Driver/Src/stm32f4xx_hal_rtc.c ****     {
 807:./Libraries/STM32F4xx_HAL_Driver/Src/stm32f4xx_hal_rtc.c ****       assert_param(IS_RTC_HOUR12(sAlarm->AlarmTime.Hours));
 808:./Libraries/STM32F4xx_HAL_Driver/Src/stm32f4xx_hal_rtc.c ****       assert_param(IS_RTC_HOURFORMAT12(sAlarm->AlarmTime.TimeFormat));
 809:./Libraries/STM32F4xx_HAL_Driver/Src/stm32f4xx_hal_rtc.c ****     } 
 810:./Libraries/STM32F4xx_HAL_Driver/Src/stm32f4xx_hal_rtc.c ****     else
 811:./Libraries/STM32F4xx_HAL_Driver/Src/stm32f4xx_hal_rtc.c ****     {
 812:./Libraries/STM32F4xx_HAL_Driver/Src/stm32f4xx_hal_rtc.c ****       sAlarm->AlarmTime.TimeFormat = 0x00U;
 813:./Libraries/STM32F4xx_HAL_Driver/Src/stm32f4xx_hal_rtc.c ****       assert_param(IS_RTC_HOUR24(sAlarm->AlarmTime.Hours));
 814:./Libraries/STM32F4xx_HAL_Driver/Src/stm32f4xx_hal_rtc.c ****     }
 815:./Libraries/STM32F4xx_HAL_Driver/Src/stm32f4xx_hal_rtc.c ****     assert_param(IS_RTC_MINUTES(sAlarm->AlarmTime.Minutes));
 816:./Libraries/STM32F4xx_HAL_Driver/Src/stm32f4xx_hal_rtc.c ****     assert_param(IS_RTC_SECONDS(sAlarm->AlarmTime.Seconds));
 817:./Libraries/STM32F4xx_HAL_Driver/Src/stm32f4xx_hal_rtc.c ****     
 818:./Libraries/STM32F4xx_HAL_Driver/Src/stm32f4xx_hal_rtc.c ****     if(sAlarm->AlarmDateWeekDaySel == RTC_ALARMDATEWEEKDAYSEL_DATE)
 819:./Libraries/STM32F4xx_HAL_Driver/Src/stm32f4xx_hal_rtc.c ****     {
 820:./Libraries/STM32F4xx_HAL_Driver/Src/stm32f4xx_hal_rtc.c ****       assert_param(IS_RTC_ALARM_DATE_WEEKDAY_DATE(sAlarm->AlarmDateWeekDay));
 821:./Libraries/STM32F4xx_HAL_Driver/Src/stm32f4xx_hal_rtc.c ****     }
 822:./Libraries/STM32F4xx_HAL_Driver/Src/stm32f4xx_hal_rtc.c ****     else
 823:./Libraries/STM32F4xx_HAL_Driver/Src/stm32f4xx_hal_rtc.c ****     {
 824:./Libraries/STM32F4xx_HAL_Driver/Src/stm32f4xx_hal_rtc.c ****       assert_param(IS_RTC_ALARM_DATE_WEEKDAY_WEEKDAY(sAlarm->AlarmDateWeekDay));
 825:./Libraries/STM32F4xx_HAL_Driver/Src/stm32f4xx_hal_rtc.c ****     }
 826:./Libraries/STM32F4xx_HAL_Driver/Src/stm32f4xx_hal_rtc.c ****     
 827:./Libraries/STM32F4xx_HAL_Driver/Src/stm32f4xx_hal_rtc.c ****     tmpreg = (((uint32_t)RTC_ByteToBcd2(sAlarm->AlarmTime.Hours) << 16U) | \
 828:./Libraries/STM32F4xx_HAL_Driver/Src/stm32f4xx_hal_rtc.c ****               ((uint32_t)RTC_ByteToBcd2(sAlarm->AlarmTime.Minutes) << 8U) | \
 829:./Libraries/STM32F4xx_HAL_Driver/Src/stm32f4xx_hal_rtc.c ****               ((uint32_t)RTC_ByteToBcd2(sAlarm->AlarmTime.Seconds)) | \
 830:./Libraries/STM32F4xx_HAL_Driver/Src/stm32f4xx_hal_rtc.c ****               ((uint32_t)(sAlarm->AlarmTime.TimeFormat) << 16U) | \
 831:./Libraries/STM32F4xx_HAL_Driver/Src/stm32f4xx_hal_rtc.c ****               ((uint32_t)RTC_ByteToBcd2(sAlarm->AlarmDateWeekDay) << 24U) | \
 832:./Libraries/STM32F4xx_HAL_Driver/Src/stm32f4xx_hal_rtc.c ****               ((uint32_t)sAlarm->AlarmDateWeekDaySel) | \
 833:./Libraries/STM32F4xx_HAL_Driver/Src/stm32f4xx_hal_rtc.c ****               ((uint32_t)sAlarm->AlarmMask)); 
 834:./Libraries/STM32F4xx_HAL_Driver/Src/stm32f4xx_hal_rtc.c ****   }
 835:./Libraries/STM32F4xx_HAL_Driver/Src/stm32f4xx_hal_rtc.c ****   else
 836:./Libraries/STM32F4xx_HAL_Driver/Src/stm32f4xx_hal_rtc.c ****   {
 837:./Libraries/STM32F4xx_HAL_Driver/Src/stm32f4xx_hal_rtc.c ****     if((hrtc->Instance->CR & RTC_CR_FMT) != (uint32_t)RESET)
 838:./Libraries/STM32F4xx_HAL_Driver/Src/stm32f4xx_hal_rtc.c ****     {
 839:./Libraries/STM32F4xx_HAL_Driver/Src/stm32f4xx_hal_rtc.c ****       tmpreg = RTC_Bcd2ToByte(sAlarm->AlarmTime.Hours);
 840:./Libraries/STM32F4xx_HAL_Driver/Src/stm32f4xx_hal_rtc.c ****       assert_param(IS_RTC_HOUR12(tmpreg));
 841:./Libraries/STM32F4xx_HAL_Driver/Src/stm32f4xx_hal_rtc.c ****       assert_param(IS_RTC_HOURFORMAT12(sAlarm->AlarmTime.TimeFormat));
 842:./Libraries/STM32F4xx_HAL_Driver/Src/stm32f4xx_hal_rtc.c ****     } 
 843:./Libraries/STM32F4xx_HAL_Driver/Src/stm32f4xx_hal_rtc.c ****     else
 844:./Libraries/STM32F4xx_HAL_Driver/Src/stm32f4xx_hal_rtc.c ****     {
ARM GAS  /tmp/ccdJbK3i.s 			page 17


 845:./Libraries/STM32F4xx_HAL_Driver/Src/stm32f4xx_hal_rtc.c ****       sAlarm->AlarmTime.TimeFormat = 0x00U;
 846:./Libraries/STM32F4xx_HAL_Driver/Src/stm32f4xx_hal_rtc.c ****       assert_param(IS_RTC_HOUR24(RTC_Bcd2ToByte(sAlarm->AlarmTime.Hours)));
 847:./Libraries/STM32F4xx_HAL_Driver/Src/stm32f4xx_hal_rtc.c ****     }
 848:./Libraries/STM32F4xx_HAL_Driver/Src/stm32f4xx_hal_rtc.c ****     
 849:./Libraries/STM32F4xx_HAL_Driver/Src/stm32f4xx_hal_rtc.c ****     assert_param(IS_RTC_MINUTES(RTC_Bcd2ToByte(sAlarm->AlarmTime.Minutes)));
 850:./Libraries/STM32F4xx_HAL_Driver/Src/stm32f4xx_hal_rtc.c ****     assert_param(IS_RTC_SECONDS(RTC_Bcd2ToByte(sAlarm->AlarmTime.Seconds)));
 851:./Libraries/STM32F4xx_HAL_Driver/Src/stm32f4xx_hal_rtc.c ****     
 852:./Libraries/STM32F4xx_HAL_Driver/Src/stm32f4xx_hal_rtc.c ****     if(sAlarm->AlarmDateWeekDaySel == RTC_ALARMDATEWEEKDAYSEL_DATE)
 853:./Libraries/STM32F4xx_HAL_Driver/Src/stm32f4xx_hal_rtc.c ****     {
 854:./Libraries/STM32F4xx_HAL_Driver/Src/stm32f4xx_hal_rtc.c ****       tmpreg = RTC_Bcd2ToByte(sAlarm->AlarmDateWeekDay);
 855:./Libraries/STM32F4xx_HAL_Driver/Src/stm32f4xx_hal_rtc.c ****       assert_param(IS_RTC_ALARM_DATE_WEEKDAY_DATE(tmpreg));    
 856:./Libraries/STM32F4xx_HAL_Driver/Src/stm32f4xx_hal_rtc.c ****     }
 857:./Libraries/STM32F4xx_HAL_Driver/Src/stm32f4xx_hal_rtc.c ****     else
 858:./Libraries/STM32F4xx_HAL_Driver/Src/stm32f4xx_hal_rtc.c ****     {
 859:./Libraries/STM32F4xx_HAL_Driver/Src/stm32f4xx_hal_rtc.c ****       tmpreg = RTC_Bcd2ToByte(sAlarm->AlarmDateWeekDay);
 860:./Libraries/STM32F4xx_HAL_Driver/Src/stm32f4xx_hal_rtc.c ****       assert_param(IS_RTC_ALARM_DATE_WEEKDAY_WEEKDAY(tmpreg));      
 861:./Libraries/STM32F4xx_HAL_Driver/Src/stm32f4xx_hal_rtc.c ****     }  
 862:./Libraries/STM32F4xx_HAL_Driver/Src/stm32f4xx_hal_rtc.c ****     
 863:./Libraries/STM32F4xx_HAL_Driver/Src/stm32f4xx_hal_rtc.c ****     tmpreg = (((uint32_t)(sAlarm->AlarmTime.Hours) << 16U) | \
 864:./Libraries/STM32F4xx_HAL_Driver/Src/stm32f4xx_hal_rtc.c ****               ((uint32_t)(sAlarm->AlarmTime.Minutes) << 8U) | \
 865:./Libraries/STM32F4xx_HAL_Driver/Src/stm32f4xx_hal_rtc.c ****               ((uint32_t) sAlarm->AlarmTime.Seconds) | \
 866:./Libraries/STM32F4xx_HAL_Driver/Src/stm32f4xx_hal_rtc.c ****               ((uint32_t)(sAlarm->AlarmTime.TimeFormat) << 16U) | \
 867:./Libraries/STM32F4xx_HAL_Driver/Src/stm32f4xx_hal_rtc.c ****               ((uint32_t)(sAlarm->AlarmDateWeekDay) << 24U) | \
 868:./Libraries/STM32F4xx_HAL_Driver/Src/stm32f4xx_hal_rtc.c ****               ((uint32_t)sAlarm->AlarmDateWeekDaySel) | \
 869:./Libraries/STM32F4xx_HAL_Driver/Src/stm32f4xx_hal_rtc.c ****               ((uint32_t)sAlarm->AlarmMask));   
 870:./Libraries/STM32F4xx_HAL_Driver/Src/stm32f4xx_hal_rtc.c ****   }
 871:./Libraries/STM32F4xx_HAL_Driver/Src/stm32f4xx_hal_rtc.c ****   
 872:./Libraries/STM32F4xx_HAL_Driver/Src/stm32f4xx_hal_rtc.c ****   /* Configure the Alarm A or Alarm B Sub Second registers */
 873:./Libraries/STM32F4xx_HAL_Driver/Src/stm32f4xx_hal_rtc.c ****   subsecondtmpreg = (uint32_t)((uint32_t)(sAlarm->AlarmTime.SubSeconds) | (uint32_t)(sAlarm->AlarmS
 874:./Libraries/STM32F4xx_HAL_Driver/Src/stm32f4xx_hal_rtc.c ****   
 875:./Libraries/STM32F4xx_HAL_Driver/Src/stm32f4xx_hal_rtc.c ****   /* Disable the write protection for RTC registers */
 876:./Libraries/STM32F4xx_HAL_Driver/Src/stm32f4xx_hal_rtc.c ****   __HAL_RTC_WRITEPROTECTION_DISABLE(hrtc);
 877:./Libraries/STM32F4xx_HAL_Driver/Src/stm32f4xx_hal_rtc.c **** 
 878:./Libraries/STM32F4xx_HAL_Driver/Src/stm32f4xx_hal_rtc.c ****   /* Configure the Alarm register */
 879:./Libraries/STM32F4xx_HAL_Driver/Src/stm32f4xx_hal_rtc.c ****   if(sAlarm->Alarm == RTC_ALARM_A)
 880:./Libraries/STM32F4xx_HAL_Driver/Src/stm32f4xx_hal_rtc.c ****   {
 881:./Libraries/STM32F4xx_HAL_Driver/Src/stm32f4xx_hal_rtc.c ****     /* Disable the Alarm A interrupt */
 882:./Libraries/STM32F4xx_HAL_Driver/Src/stm32f4xx_hal_rtc.c ****     __HAL_RTC_ALARMA_DISABLE(hrtc);
 883:./Libraries/STM32F4xx_HAL_Driver/Src/stm32f4xx_hal_rtc.c ****     
 884:./Libraries/STM32F4xx_HAL_Driver/Src/stm32f4xx_hal_rtc.c ****     /* In case of interrupt mode is used, the interrupt source must disabled */ 
 885:./Libraries/STM32F4xx_HAL_Driver/Src/stm32f4xx_hal_rtc.c ****     __HAL_RTC_ALARM_DISABLE_IT(hrtc, RTC_IT_ALRA);
 886:./Libraries/STM32F4xx_HAL_Driver/Src/stm32f4xx_hal_rtc.c **** 
 887:./Libraries/STM32F4xx_HAL_Driver/Src/stm32f4xx_hal_rtc.c ****     /* Get tick */
 888:./Libraries/STM32F4xx_HAL_Driver/Src/stm32f4xx_hal_rtc.c ****     tickstart = HAL_GetTick();
 889:./Libraries/STM32F4xx_HAL_Driver/Src/stm32f4xx_hal_rtc.c **** 
 890:./Libraries/STM32F4xx_HAL_Driver/Src/stm32f4xx_hal_rtc.c ****     /* Wait till RTC ALRAWF flag is set and if Time out is reached exit */
 891:./Libraries/STM32F4xx_HAL_Driver/Src/stm32f4xx_hal_rtc.c ****     while(__HAL_RTC_ALARM_GET_FLAG(hrtc, RTC_FLAG_ALRAWF) == RESET)
 892:./Libraries/STM32F4xx_HAL_Driver/Src/stm32f4xx_hal_rtc.c ****     {
 893:./Libraries/STM32F4xx_HAL_Driver/Src/stm32f4xx_hal_rtc.c ****       if((HAL_GetTick() - tickstart ) > RTC_TIMEOUT_VALUE)
 894:./Libraries/STM32F4xx_HAL_Driver/Src/stm32f4xx_hal_rtc.c ****       {
 895:./Libraries/STM32F4xx_HAL_Driver/Src/stm32f4xx_hal_rtc.c ****         /* Enable the write protection for RTC registers */
 896:./Libraries/STM32F4xx_HAL_Driver/Src/stm32f4xx_hal_rtc.c ****         __HAL_RTC_WRITEPROTECTION_ENABLE(hrtc);
 897:./Libraries/STM32F4xx_HAL_Driver/Src/stm32f4xx_hal_rtc.c ****         
 898:./Libraries/STM32F4xx_HAL_Driver/Src/stm32f4xx_hal_rtc.c ****         hrtc->State = HAL_RTC_STATE_TIMEOUT; 
 899:./Libraries/STM32F4xx_HAL_Driver/Src/stm32f4xx_hal_rtc.c ****         
 900:./Libraries/STM32F4xx_HAL_Driver/Src/stm32f4xx_hal_rtc.c ****         /* Process Unlocked */ 
 901:./Libraries/STM32F4xx_HAL_Driver/Src/stm32f4xx_hal_rtc.c ****         __HAL_UNLOCK(hrtc);
ARM GAS  /tmp/ccdJbK3i.s 			page 18


 902:./Libraries/STM32F4xx_HAL_Driver/Src/stm32f4xx_hal_rtc.c ****         
 903:./Libraries/STM32F4xx_HAL_Driver/Src/stm32f4xx_hal_rtc.c ****         return HAL_TIMEOUT;
 904:./Libraries/STM32F4xx_HAL_Driver/Src/stm32f4xx_hal_rtc.c ****       }   
 905:./Libraries/STM32F4xx_HAL_Driver/Src/stm32f4xx_hal_rtc.c ****     }
 906:./Libraries/STM32F4xx_HAL_Driver/Src/stm32f4xx_hal_rtc.c ****     
 907:./Libraries/STM32F4xx_HAL_Driver/Src/stm32f4xx_hal_rtc.c ****     hrtc->Instance->ALRMAR = (uint32_t)tmpreg;
 908:./Libraries/STM32F4xx_HAL_Driver/Src/stm32f4xx_hal_rtc.c ****     /* Configure the Alarm A Sub Second register */
 909:./Libraries/STM32F4xx_HAL_Driver/Src/stm32f4xx_hal_rtc.c ****     hrtc->Instance->ALRMASSR = subsecondtmpreg;
 910:./Libraries/STM32F4xx_HAL_Driver/Src/stm32f4xx_hal_rtc.c ****     /* Configure the Alarm state: Enable Alarm */
 911:./Libraries/STM32F4xx_HAL_Driver/Src/stm32f4xx_hal_rtc.c ****     __HAL_RTC_ALARMA_ENABLE(hrtc);
 912:./Libraries/STM32F4xx_HAL_Driver/Src/stm32f4xx_hal_rtc.c ****   }
 913:./Libraries/STM32F4xx_HAL_Driver/Src/stm32f4xx_hal_rtc.c ****   else
 914:./Libraries/STM32F4xx_HAL_Driver/Src/stm32f4xx_hal_rtc.c ****   {
 915:./Libraries/STM32F4xx_HAL_Driver/Src/stm32f4xx_hal_rtc.c ****     /* Disable the Alarm B interrupt */
 916:./Libraries/STM32F4xx_HAL_Driver/Src/stm32f4xx_hal_rtc.c ****     __HAL_RTC_ALARMB_DISABLE(hrtc);
 917:./Libraries/STM32F4xx_HAL_Driver/Src/stm32f4xx_hal_rtc.c ****     
 918:./Libraries/STM32F4xx_HAL_Driver/Src/stm32f4xx_hal_rtc.c ****     /* In case of interrupt mode is used, the interrupt source must disabled */ 
 919:./Libraries/STM32F4xx_HAL_Driver/Src/stm32f4xx_hal_rtc.c ****     __HAL_RTC_ALARM_DISABLE_IT(hrtc, RTC_IT_ALRB);
 920:./Libraries/STM32F4xx_HAL_Driver/Src/stm32f4xx_hal_rtc.c **** 
 921:./Libraries/STM32F4xx_HAL_Driver/Src/stm32f4xx_hal_rtc.c ****     /* Get tick */
 922:./Libraries/STM32F4xx_HAL_Driver/Src/stm32f4xx_hal_rtc.c ****     tickstart = HAL_GetTick();
 923:./Libraries/STM32F4xx_HAL_Driver/Src/stm32f4xx_hal_rtc.c **** 
 924:./Libraries/STM32F4xx_HAL_Driver/Src/stm32f4xx_hal_rtc.c ****     /* Wait till RTC ALRBWF flag is set and if Time out is reached exit */
 925:./Libraries/STM32F4xx_HAL_Driver/Src/stm32f4xx_hal_rtc.c ****     while(__HAL_RTC_ALARM_GET_FLAG(hrtc, RTC_FLAG_ALRBWF) == RESET)
 926:./Libraries/STM32F4xx_HAL_Driver/Src/stm32f4xx_hal_rtc.c ****     {
 927:./Libraries/STM32F4xx_HAL_Driver/Src/stm32f4xx_hal_rtc.c ****       if((HAL_GetTick() - tickstart ) > RTC_TIMEOUT_VALUE)
 928:./Libraries/STM32F4xx_HAL_Driver/Src/stm32f4xx_hal_rtc.c ****       {
 929:./Libraries/STM32F4xx_HAL_Driver/Src/stm32f4xx_hal_rtc.c ****         /* Enable the write protection for RTC registers */
 930:./Libraries/STM32F4xx_HAL_Driver/Src/stm32f4xx_hal_rtc.c ****         __HAL_RTC_WRITEPROTECTION_ENABLE(hrtc);
 931:./Libraries/STM32F4xx_HAL_Driver/Src/stm32f4xx_hal_rtc.c ****         
 932:./Libraries/STM32F4xx_HAL_Driver/Src/stm32f4xx_hal_rtc.c ****         hrtc->State = HAL_RTC_STATE_TIMEOUT; 
 933:./Libraries/STM32F4xx_HAL_Driver/Src/stm32f4xx_hal_rtc.c ****         
 934:./Libraries/STM32F4xx_HAL_Driver/Src/stm32f4xx_hal_rtc.c ****         /* Process Unlocked */ 
 935:./Libraries/STM32F4xx_HAL_Driver/Src/stm32f4xx_hal_rtc.c ****         __HAL_UNLOCK(hrtc);
 936:./Libraries/STM32F4xx_HAL_Driver/Src/stm32f4xx_hal_rtc.c ****         
 937:./Libraries/STM32F4xx_HAL_Driver/Src/stm32f4xx_hal_rtc.c ****         return HAL_TIMEOUT;
 938:./Libraries/STM32F4xx_HAL_Driver/Src/stm32f4xx_hal_rtc.c ****       }  
 939:./Libraries/STM32F4xx_HAL_Driver/Src/stm32f4xx_hal_rtc.c ****     }    
 940:./Libraries/STM32F4xx_HAL_Driver/Src/stm32f4xx_hal_rtc.c ****     
 941:./Libraries/STM32F4xx_HAL_Driver/Src/stm32f4xx_hal_rtc.c ****     hrtc->Instance->ALRMBR = (uint32_t)tmpreg;
 942:./Libraries/STM32F4xx_HAL_Driver/Src/stm32f4xx_hal_rtc.c ****     /* Configure the Alarm B Sub Second register */
 943:./Libraries/STM32F4xx_HAL_Driver/Src/stm32f4xx_hal_rtc.c ****     hrtc->Instance->ALRMBSSR = subsecondtmpreg;
 944:./Libraries/STM32F4xx_HAL_Driver/Src/stm32f4xx_hal_rtc.c ****     /* Configure the Alarm state: Enable Alarm */
 945:./Libraries/STM32F4xx_HAL_Driver/Src/stm32f4xx_hal_rtc.c ****     __HAL_RTC_ALARMB_ENABLE(hrtc); 
 946:./Libraries/STM32F4xx_HAL_Driver/Src/stm32f4xx_hal_rtc.c ****   }
 947:./Libraries/STM32F4xx_HAL_Driver/Src/stm32f4xx_hal_rtc.c ****   
 948:./Libraries/STM32F4xx_HAL_Driver/Src/stm32f4xx_hal_rtc.c ****   /* Enable the write protection for RTC registers */
 949:./Libraries/STM32F4xx_HAL_Driver/Src/stm32f4xx_hal_rtc.c ****   __HAL_RTC_WRITEPROTECTION_ENABLE(hrtc);   
 950:./Libraries/STM32F4xx_HAL_Driver/Src/stm32f4xx_hal_rtc.c ****   
 951:./Libraries/STM32F4xx_HAL_Driver/Src/stm32f4xx_hal_rtc.c ****   /* Change RTC state */
 952:./Libraries/STM32F4xx_HAL_Driver/Src/stm32f4xx_hal_rtc.c ****   hrtc->State = HAL_RTC_STATE_READY; 
 953:./Libraries/STM32F4xx_HAL_Driver/Src/stm32f4xx_hal_rtc.c ****   
 954:./Libraries/STM32F4xx_HAL_Driver/Src/stm32f4xx_hal_rtc.c ****   /* Process Unlocked */ 
 955:./Libraries/STM32F4xx_HAL_Driver/Src/stm32f4xx_hal_rtc.c ****   __HAL_UNLOCK(hrtc);
 956:./Libraries/STM32F4xx_HAL_Driver/Src/stm32f4xx_hal_rtc.c ****   
 957:./Libraries/STM32F4xx_HAL_Driver/Src/stm32f4xx_hal_rtc.c ****   return HAL_OK;
 958:./Libraries/STM32F4xx_HAL_Driver/Src/stm32f4xx_hal_rtc.c **** }
ARM GAS  /tmp/ccdJbK3i.s 			page 19


 959:./Libraries/STM32F4xx_HAL_Driver/Src/stm32f4xx_hal_rtc.c **** 
 960:./Libraries/STM32F4xx_HAL_Driver/Src/stm32f4xx_hal_rtc.c **** /**
 961:./Libraries/STM32F4xx_HAL_Driver/Src/stm32f4xx_hal_rtc.c ****   * @brief  Sets the specified RTC Alarm with Interrupt 
 962:./Libraries/STM32F4xx_HAL_Driver/Src/stm32f4xx_hal_rtc.c ****   * @param  hrtc pointer to a RTC_HandleTypeDef structure that contains
 963:./Libraries/STM32F4xx_HAL_Driver/Src/stm32f4xx_hal_rtc.c ****   *                the configuration information for RTC.
 964:./Libraries/STM32F4xx_HAL_Driver/Src/stm32f4xx_hal_rtc.c ****   * @param  sAlarm Pointer to Alarm structure
 965:./Libraries/STM32F4xx_HAL_Driver/Src/stm32f4xx_hal_rtc.c ****   * @param  Format Specifies the format of the entered parameters.
 966:./Libraries/STM32F4xx_HAL_Driver/Src/stm32f4xx_hal_rtc.c ****   *          This parameter can be one of the following values:
 967:./Libraries/STM32F4xx_HAL_Driver/Src/stm32f4xx_hal_rtc.c ****   *             @arg RTC_FORMAT_BIN: Binary data format 
 968:./Libraries/STM32F4xx_HAL_Driver/Src/stm32f4xx_hal_rtc.c ****   *             @arg RTC_FORMAT_BCD: BCD data format
 969:./Libraries/STM32F4xx_HAL_Driver/Src/stm32f4xx_hal_rtc.c ****   * @retval HAL status
 970:./Libraries/STM32F4xx_HAL_Driver/Src/stm32f4xx_hal_rtc.c ****   */
 971:./Libraries/STM32F4xx_HAL_Driver/Src/stm32f4xx_hal_rtc.c **** HAL_StatusTypeDef HAL_RTC_SetAlarm_IT(RTC_HandleTypeDef *hrtc, RTC_AlarmTypeDef *sAlarm, uint32_t F
 972:./Libraries/STM32F4xx_HAL_Driver/Src/stm32f4xx_hal_rtc.c **** {
 973:./Libraries/STM32F4xx_HAL_Driver/Src/stm32f4xx_hal_rtc.c ****   uint32_t tmpreg = 0U, subsecondtmpreg = 0U;
 974:./Libraries/STM32F4xx_HAL_Driver/Src/stm32f4xx_hal_rtc.c ****   __IO uint32_t count = RTC_TIMEOUT_VALUE  * (SystemCoreClock / 32U / 1000U) ;
 975:./Libraries/STM32F4xx_HAL_Driver/Src/stm32f4xx_hal_rtc.c ****   
 976:./Libraries/STM32F4xx_HAL_Driver/Src/stm32f4xx_hal_rtc.c ****   /* Check the parameters */
 977:./Libraries/STM32F4xx_HAL_Driver/Src/stm32f4xx_hal_rtc.c ****   assert_param(IS_RTC_FORMAT(Format));
 978:./Libraries/STM32F4xx_HAL_Driver/Src/stm32f4xx_hal_rtc.c ****   assert_param(IS_RTC_ALARM(sAlarm->Alarm));
 979:./Libraries/STM32F4xx_HAL_Driver/Src/stm32f4xx_hal_rtc.c ****   assert_param(IS_RTC_ALARM_MASK(sAlarm->AlarmMask));
 980:./Libraries/STM32F4xx_HAL_Driver/Src/stm32f4xx_hal_rtc.c ****   assert_param(IS_RTC_ALARM_DATE_WEEKDAY_SEL(sAlarm->AlarmDateWeekDaySel));
 981:./Libraries/STM32F4xx_HAL_Driver/Src/stm32f4xx_hal_rtc.c ****   assert_param(IS_RTC_ALARM_SUB_SECOND_VALUE(sAlarm->AlarmTime.SubSeconds));
 982:./Libraries/STM32F4xx_HAL_Driver/Src/stm32f4xx_hal_rtc.c ****   assert_param(IS_RTC_ALARM_SUB_SECOND_MASK(sAlarm->AlarmSubSecondMask));
 983:./Libraries/STM32F4xx_HAL_Driver/Src/stm32f4xx_hal_rtc.c ****       
 984:./Libraries/STM32F4xx_HAL_Driver/Src/stm32f4xx_hal_rtc.c ****   /* Process Locked */ 
 985:./Libraries/STM32F4xx_HAL_Driver/Src/stm32f4xx_hal_rtc.c ****   __HAL_LOCK(hrtc);
 986:./Libraries/STM32F4xx_HAL_Driver/Src/stm32f4xx_hal_rtc.c ****   
 987:./Libraries/STM32F4xx_HAL_Driver/Src/stm32f4xx_hal_rtc.c ****   hrtc->State = HAL_RTC_STATE_BUSY;
 988:./Libraries/STM32F4xx_HAL_Driver/Src/stm32f4xx_hal_rtc.c ****   
 989:./Libraries/STM32F4xx_HAL_Driver/Src/stm32f4xx_hal_rtc.c ****   if(Format == RTC_FORMAT_BIN)
 990:./Libraries/STM32F4xx_HAL_Driver/Src/stm32f4xx_hal_rtc.c ****   {
 991:./Libraries/STM32F4xx_HAL_Driver/Src/stm32f4xx_hal_rtc.c ****     if((hrtc->Instance->CR & RTC_CR_FMT) != (uint32_t)RESET)
 992:./Libraries/STM32F4xx_HAL_Driver/Src/stm32f4xx_hal_rtc.c ****     {
 993:./Libraries/STM32F4xx_HAL_Driver/Src/stm32f4xx_hal_rtc.c ****       assert_param(IS_RTC_HOUR12(sAlarm->AlarmTime.Hours));
 994:./Libraries/STM32F4xx_HAL_Driver/Src/stm32f4xx_hal_rtc.c ****       assert_param(IS_RTC_HOURFORMAT12(sAlarm->AlarmTime.TimeFormat));
 995:./Libraries/STM32F4xx_HAL_Driver/Src/stm32f4xx_hal_rtc.c ****     } 
 996:./Libraries/STM32F4xx_HAL_Driver/Src/stm32f4xx_hal_rtc.c ****     else
 997:./Libraries/STM32F4xx_HAL_Driver/Src/stm32f4xx_hal_rtc.c ****     {
 998:./Libraries/STM32F4xx_HAL_Driver/Src/stm32f4xx_hal_rtc.c ****       sAlarm->AlarmTime.TimeFormat = 0x00U;
 999:./Libraries/STM32F4xx_HAL_Driver/Src/stm32f4xx_hal_rtc.c ****       assert_param(IS_RTC_HOUR24(sAlarm->AlarmTime.Hours));
1000:./Libraries/STM32F4xx_HAL_Driver/Src/stm32f4xx_hal_rtc.c ****     }
1001:./Libraries/STM32F4xx_HAL_Driver/Src/stm32f4xx_hal_rtc.c ****     assert_param(IS_RTC_MINUTES(sAlarm->AlarmTime.Minutes));
1002:./Libraries/STM32F4xx_HAL_Driver/Src/stm32f4xx_hal_rtc.c ****     assert_param(IS_RTC_SECONDS(sAlarm->AlarmTime.Seconds));
1003:./Libraries/STM32F4xx_HAL_Driver/Src/stm32f4xx_hal_rtc.c ****     
1004:./Libraries/STM32F4xx_HAL_Driver/Src/stm32f4xx_hal_rtc.c ****     if(sAlarm->AlarmDateWeekDaySel == RTC_ALARMDATEWEEKDAYSEL_DATE)
1005:./Libraries/STM32F4xx_HAL_Driver/Src/stm32f4xx_hal_rtc.c ****     {
1006:./Libraries/STM32F4xx_HAL_Driver/Src/stm32f4xx_hal_rtc.c ****       assert_param(IS_RTC_ALARM_DATE_WEEKDAY_DATE(sAlarm->AlarmDateWeekDay));
1007:./Libraries/STM32F4xx_HAL_Driver/Src/stm32f4xx_hal_rtc.c ****     }
1008:./Libraries/STM32F4xx_HAL_Driver/Src/stm32f4xx_hal_rtc.c ****     else
1009:./Libraries/STM32F4xx_HAL_Driver/Src/stm32f4xx_hal_rtc.c ****     {
1010:./Libraries/STM32F4xx_HAL_Driver/Src/stm32f4xx_hal_rtc.c ****       assert_param(IS_RTC_ALARM_DATE_WEEKDAY_WEEKDAY(sAlarm->AlarmDateWeekDay));
1011:./Libraries/STM32F4xx_HAL_Driver/Src/stm32f4xx_hal_rtc.c ****     }
1012:./Libraries/STM32F4xx_HAL_Driver/Src/stm32f4xx_hal_rtc.c ****     tmpreg = (((uint32_t)RTC_ByteToBcd2(sAlarm->AlarmTime.Hours) << 16U) | \
1013:./Libraries/STM32F4xx_HAL_Driver/Src/stm32f4xx_hal_rtc.c ****               ((uint32_t)RTC_ByteToBcd2(sAlarm->AlarmTime.Minutes) << 8U) | \
1014:./Libraries/STM32F4xx_HAL_Driver/Src/stm32f4xx_hal_rtc.c ****               ((uint32_t)RTC_ByteToBcd2(sAlarm->AlarmTime.Seconds)) | \
1015:./Libraries/STM32F4xx_HAL_Driver/Src/stm32f4xx_hal_rtc.c ****               ((uint32_t)(sAlarm->AlarmTime.TimeFormat) << 16U) | \
ARM GAS  /tmp/ccdJbK3i.s 			page 20


1016:./Libraries/STM32F4xx_HAL_Driver/Src/stm32f4xx_hal_rtc.c ****               ((uint32_t)RTC_ByteToBcd2(sAlarm->AlarmDateWeekDay) << 24U) | \
1017:./Libraries/STM32F4xx_HAL_Driver/Src/stm32f4xx_hal_rtc.c ****               ((uint32_t)sAlarm->AlarmDateWeekDaySel) | \
1018:./Libraries/STM32F4xx_HAL_Driver/Src/stm32f4xx_hal_rtc.c ****               ((uint32_t)sAlarm->AlarmMask)); 
1019:./Libraries/STM32F4xx_HAL_Driver/Src/stm32f4xx_hal_rtc.c ****   }
1020:./Libraries/STM32F4xx_HAL_Driver/Src/stm32f4xx_hal_rtc.c ****   else
1021:./Libraries/STM32F4xx_HAL_Driver/Src/stm32f4xx_hal_rtc.c ****   {
1022:./Libraries/STM32F4xx_HAL_Driver/Src/stm32f4xx_hal_rtc.c ****     if((hrtc->Instance->CR & RTC_CR_FMT) != (uint32_t)RESET)
1023:./Libraries/STM32F4xx_HAL_Driver/Src/stm32f4xx_hal_rtc.c ****     {
1024:./Libraries/STM32F4xx_HAL_Driver/Src/stm32f4xx_hal_rtc.c ****       tmpreg = RTC_Bcd2ToByte(sAlarm->AlarmTime.Hours);
1025:./Libraries/STM32F4xx_HAL_Driver/Src/stm32f4xx_hal_rtc.c ****       assert_param(IS_RTC_HOUR12(tmpreg));
1026:./Libraries/STM32F4xx_HAL_Driver/Src/stm32f4xx_hal_rtc.c ****       assert_param(IS_RTC_HOURFORMAT12(sAlarm->AlarmTime.TimeFormat));
1027:./Libraries/STM32F4xx_HAL_Driver/Src/stm32f4xx_hal_rtc.c ****     } 
1028:./Libraries/STM32F4xx_HAL_Driver/Src/stm32f4xx_hal_rtc.c ****     else
1029:./Libraries/STM32F4xx_HAL_Driver/Src/stm32f4xx_hal_rtc.c ****     {
1030:./Libraries/STM32F4xx_HAL_Driver/Src/stm32f4xx_hal_rtc.c ****       sAlarm->AlarmTime.TimeFormat = 0x00U;
1031:./Libraries/STM32F4xx_HAL_Driver/Src/stm32f4xx_hal_rtc.c ****       assert_param(IS_RTC_HOUR24(RTC_Bcd2ToByte(sAlarm->AlarmTime.Hours)));
1032:./Libraries/STM32F4xx_HAL_Driver/Src/stm32f4xx_hal_rtc.c ****     }
1033:./Libraries/STM32F4xx_HAL_Driver/Src/stm32f4xx_hal_rtc.c ****     
1034:./Libraries/STM32F4xx_HAL_Driver/Src/stm32f4xx_hal_rtc.c ****     assert_param(IS_RTC_MINUTES(RTC_Bcd2ToByte(sAlarm->AlarmTime.Minutes)));
1035:./Libraries/STM32F4xx_HAL_Driver/Src/stm32f4xx_hal_rtc.c ****     assert_param(IS_RTC_SECONDS(RTC_Bcd2ToByte(sAlarm->AlarmTime.Seconds)));
1036:./Libraries/STM32F4xx_HAL_Driver/Src/stm32f4xx_hal_rtc.c ****     
1037:./Libraries/STM32F4xx_HAL_Driver/Src/stm32f4xx_hal_rtc.c ****     if(sAlarm->AlarmDateWeekDaySel == RTC_ALARMDATEWEEKDAYSEL_DATE)
1038:./Libraries/STM32F4xx_HAL_Driver/Src/stm32f4xx_hal_rtc.c ****     {
1039:./Libraries/STM32F4xx_HAL_Driver/Src/stm32f4xx_hal_rtc.c ****       tmpreg = RTC_Bcd2ToByte(sAlarm->AlarmDateWeekDay);
1040:./Libraries/STM32F4xx_HAL_Driver/Src/stm32f4xx_hal_rtc.c ****       assert_param(IS_RTC_ALARM_DATE_WEEKDAY_DATE(tmpreg));    
1041:./Libraries/STM32F4xx_HAL_Driver/Src/stm32f4xx_hal_rtc.c ****     }
1042:./Libraries/STM32F4xx_HAL_Driver/Src/stm32f4xx_hal_rtc.c ****     else
1043:./Libraries/STM32F4xx_HAL_Driver/Src/stm32f4xx_hal_rtc.c ****     {
1044:./Libraries/STM32F4xx_HAL_Driver/Src/stm32f4xx_hal_rtc.c ****       tmpreg = RTC_Bcd2ToByte(sAlarm->AlarmDateWeekDay);
1045:./Libraries/STM32F4xx_HAL_Driver/Src/stm32f4xx_hal_rtc.c ****       assert_param(IS_RTC_ALARM_DATE_WEEKDAY_WEEKDAY(tmpreg));      
1046:./Libraries/STM32F4xx_HAL_Driver/Src/stm32f4xx_hal_rtc.c ****     }
1047:./Libraries/STM32F4xx_HAL_Driver/Src/stm32f4xx_hal_rtc.c ****     tmpreg = (((uint32_t)(sAlarm->AlarmTime.Hours) << 16U) | \
1048:./Libraries/STM32F4xx_HAL_Driver/Src/stm32f4xx_hal_rtc.c ****               ((uint32_t)(sAlarm->AlarmTime.Minutes) << 8U) | \
1049:./Libraries/STM32F4xx_HAL_Driver/Src/stm32f4xx_hal_rtc.c ****               ((uint32_t) sAlarm->AlarmTime.Seconds) | \
1050:./Libraries/STM32F4xx_HAL_Driver/Src/stm32f4xx_hal_rtc.c ****               ((uint32_t)(sAlarm->AlarmTime.TimeFormat) << 16U) | \
1051:./Libraries/STM32F4xx_HAL_Driver/Src/stm32f4xx_hal_rtc.c ****               ((uint32_t)(sAlarm->AlarmDateWeekDay) << 24U) | \
1052:./Libraries/STM32F4xx_HAL_Driver/Src/stm32f4xx_hal_rtc.c ****               ((uint32_t)sAlarm->AlarmDateWeekDaySel) | \
1053:./Libraries/STM32F4xx_HAL_Driver/Src/stm32f4xx_hal_rtc.c ****               ((uint32_t)sAlarm->AlarmMask));     
1054:./Libraries/STM32F4xx_HAL_Driver/Src/stm32f4xx_hal_rtc.c ****   }
1055:./Libraries/STM32F4xx_HAL_Driver/Src/stm32f4xx_hal_rtc.c ****   /* Configure the Alarm A or Alarm B Sub Second registers */
1056:./Libraries/STM32F4xx_HAL_Driver/Src/stm32f4xx_hal_rtc.c ****   subsecondtmpreg = (uint32_t)((uint32_t)(sAlarm->AlarmTime.SubSeconds) | (uint32_t)(sAlarm->AlarmS
1057:./Libraries/STM32F4xx_HAL_Driver/Src/stm32f4xx_hal_rtc.c ****   
1058:./Libraries/STM32F4xx_HAL_Driver/Src/stm32f4xx_hal_rtc.c ****   /* Disable the write protection for RTC registers */
1059:./Libraries/STM32F4xx_HAL_Driver/Src/stm32f4xx_hal_rtc.c ****   __HAL_RTC_WRITEPROTECTION_DISABLE(hrtc);
1060:./Libraries/STM32F4xx_HAL_Driver/Src/stm32f4xx_hal_rtc.c ****   
1061:./Libraries/STM32F4xx_HAL_Driver/Src/stm32f4xx_hal_rtc.c ****   /* Configure the Alarm register */
1062:./Libraries/STM32F4xx_HAL_Driver/Src/stm32f4xx_hal_rtc.c ****   if(sAlarm->Alarm == RTC_ALARM_A)
1063:./Libraries/STM32F4xx_HAL_Driver/Src/stm32f4xx_hal_rtc.c ****   {
1064:./Libraries/STM32F4xx_HAL_Driver/Src/stm32f4xx_hal_rtc.c ****     /* Disable the Alarm A interrupt */
1065:./Libraries/STM32F4xx_HAL_Driver/Src/stm32f4xx_hal_rtc.c ****     __HAL_RTC_ALARMA_DISABLE(hrtc);
1066:./Libraries/STM32F4xx_HAL_Driver/Src/stm32f4xx_hal_rtc.c **** 
1067:./Libraries/STM32F4xx_HAL_Driver/Src/stm32f4xx_hal_rtc.c ****     /* Clear flag alarm A */
1068:./Libraries/STM32F4xx_HAL_Driver/Src/stm32f4xx_hal_rtc.c ****     __HAL_RTC_ALARM_CLEAR_FLAG(hrtc, RTC_FLAG_ALRAF);
1069:./Libraries/STM32F4xx_HAL_Driver/Src/stm32f4xx_hal_rtc.c **** 
1070:./Libraries/STM32F4xx_HAL_Driver/Src/stm32f4xx_hal_rtc.c ****     /* Wait till RTC ALRAWF flag is set and if Time out is reached exit */
1071:./Libraries/STM32F4xx_HAL_Driver/Src/stm32f4xx_hal_rtc.c ****     do
1072:./Libraries/STM32F4xx_HAL_Driver/Src/stm32f4xx_hal_rtc.c ****     {
ARM GAS  /tmp/ccdJbK3i.s 			page 21


1073:./Libraries/STM32F4xx_HAL_Driver/Src/stm32f4xx_hal_rtc.c ****       if (count-- == 0U)
1074:./Libraries/STM32F4xx_HAL_Driver/Src/stm32f4xx_hal_rtc.c ****       {
1075:./Libraries/STM32F4xx_HAL_Driver/Src/stm32f4xx_hal_rtc.c ****         /* Enable the write protection for RTC registers */
1076:./Libraries/STM32F4xx_HAL_Driver/Src/stm32f4xx_hal_rtc.c ****         __HAL_RTC_WRITEPROTECTION_ENABLE(hrtc);
1077:./Libraries/STM32F4xx_HAL_Driver/Src/stm32f4xx_hal_rtc.c **** 
1078:./Libraries/STM32F4xx_HAL_Driver/Src/stm32f4xx_hal_rtc.c ****         hrtc->State = HAL_RTC_STATE_TIMEOUT;
1079:./Libraries/STM32F4xx_HAL_Driver/Src/stm32f4xx_hal_rtc.c **** 
1080:./Libraries/STM32F4xx_HAL_Driver/Src/stm32f4xx_hal_rtc.c ****         /* Process Unlocked */
1081:./Libraries/STM32F4xx_HAL_Driver/Src/stm32f4xx_hal_rtc.c ****         __HAL_UNLOCK(hrtc);
1082:./Libraries/STM32F4xx_HAL_Driver/Src/stm32f4xx_hal_rtc.c **** 
1083:./Libraries/STM32F4xx_HAL_Driver/Src/stm32f4xx_hal_rtc.c ****         return HAL_TIMEOUT;
1084:./Libraries/STM32F4xx_HAL_Driver/Src/stm32f4xx_hal_rtc.c ****       }
1085:./Libraries/STM32F4xx_HAL_Driver/Src/stm32f4xx_hal_rtc.c ****     } 
1086:./Libraries/STM32F4xx_HAL_Driver/Src/stm32f4xx_hal_rtc.c ****     while (__HAL_RTC_ALARM_GET_FLAG(hrtc, RTC_FLAG_ALRAWF) == RESET);
1087:./Libraries/STM32F4xx_HAL_Driver/Src/stm32f4xx_hal_rtc.c **** 
1088:./Libraries/STM32F4xx_HAL_Driver/Src/stm32f4xx_hal_rtc.c ****     hrtc->Instance->ALRMAR = (uint32_t)tmpreg;
1089:./Libraries/STM32F4xx_HAL_Driver/Src/stm32f4xx_hal_rtc.c ****     /* Configure the Alarm A Sub Second register */
1090:./Libraries/STM32F4xx_HAL_Driver/Src/stm32f4xx_hal_rtc.c ****     hrtc->Instance->ALRMASSR = subsecondtmpreg;
1091:./Libraries/STM32F4xx_HAL_Driver/Src/stm32f4xx_hal_rtc.c ****     /* Configure the Alarm state: Enable Alarm */
1092:./Libraries/STM32F4xx_HAL_Driver/Src/stm32f4xx_hal_rtc.c ****     __HAL_RTC_ALARMA_ENABLE(hrtc);
1093:./Libraries/STM32F4xx_HAL_Driver/Src/stm32f4xx_hal_rtc.c ****     /* Configure the Alarm interrupt */
1094:./Libraries/STM32F4xx_HAL_Driver/Src/stm32f4xx_hal_rtc.c ****     __HAL_RTC_ALARM_ENABLE_IT(hrtc,RTC_IT_ALRA);
1095:./Libraries/STM32F4xx_HAL_Driver/Src/stm32f4xx_hal_rtc.c ****   }
1096:./Libraries/STM32F4xx_HAL_Driver/Src/stm32f4xx_hal_rtc.c ****   else
1097:./Libraries/STM32F4xx_HAL_Driver/Src/stm32f4xx_hal_rtc.c ****   {
1098:./Libraries/STM32F4xx_HAL_Driver/Src/stm32f4xx_hal_rtc.c ****     /* Disable the Alarm B interrupt */
1099:./Libraries/STM32F4xx_HAL_Driver/Src/stm32f4xx_hal_rtc.c ****     __HAL_RTC_ALARMB_DISABLE(hrtc);
1100:./Libraries/STM32F4xx_HAL_Driver/Src/stm32f4xx_hal_rtc.c **** 
1101:./Libraries/STM32F4xx_HAL_Driver/Src/stm32f4xx_hal_rtc.c ****     /* Clear flag alarm B */
1102:./Libraries/STM32F4xx_HAL_Driver/Src/stm32f4xx_hal_rtc.c ****     __HAL_RTC_ALARM_CLEAR_FLAG(hrtc, RTC_FLAG_ALRBF);
1103:./Libraries/STM32F4xx_HAL_Driver/Src/stm32f4xx_hal_rtc.c **** 
1104:./Libraries/STM32F4xx_HAL_Driver/Src/stm32f4xx_hal_rtc.c ****     /* Wait till RTC ALRBWF flag is set and if Time out is reached exit */
1105:./Libraries/STM32F4xx_HAL_Driver/Src/stm32f4xx_hal_rtc.c ****     do
1106:./Libraries/STM32F4xx_HAL_Driver/Src/stm32f4xx_hal_rtc.c ****     {
1107:./Libraries/STM32F4xx_HAL_Driver/Src/stm32f4xx_hal_rtc.c ****       if (count-- == 0U)
1108:./Libraries/STM32F4xx_HAL_Driver/Src/stm32f4xx_hal_rtc.c ****       {
1109:./Libraries/STM32F4xx_HAL_Driver/Src/stm32f4xx_hal_rtc.c ****         /* Enable the write protection for RTC registers */
1110:./Libraries/STM32F4xx_HAL_Driver/Src/stm32f4xx_hal_rtc.c ****         __HAL_RTC_WRITEPROTECTION_ENABLE(hrtc);
1111:./Libraries/STM32F4xx_HAL_Driver/Src/stm32f4xx_hal_rtc.c **** 
1112:./Libraries/STM32F4xx_HAL_Driver/Src/stm32f4xx_hal_rtc.c ****         hrtc->State = HAL_RTC_STATE_TIMEOUT;
1113:./Libraries/STM32F4xx_HAL_Driver/Src/stm32f4xx_hal_rtc.c **** 
1114:./Libraries/STM32F4xx_HAL_Driver/Src/stm32f4xx_hal_rtc.c ****         /* Process Unlocked */
1115:./Libraries/STM32F4xx_HAL_Driver/Src/stm32f4xx_hal_rtc.c ****         __HAL_UNLOCK(hrtc);
1116:./Libraries/STM32F4xx_HAL_Driver/Src/stm32f4xx_hal_rtc.c **** 
1117:./Libraries/STM32F4xx_HAL_Driver/Src/stm32f4xx_hal_rtc.c ****         return HAL_TIMEOUT;
1118:./Libraries/STM32F4xx_HAL_Driver/Src/stm32f4xx_hal_rtc.c ****       }
1119:./Libraries/STM32F4xx_HAL_Driver/Src/stm32f4xx_hal_rtc.c ****     } 
1120:./Libraries/STM32F4xx_HAL_Driver/Src/stm32f4xx_hal_rtc.c ****     while (__HAL_RTC_ALARM_GET_FLAG(hrtc, RTC_FLAG_ALRBWF) == RESET);
1121:./Libraries/STM32F4xx_HAL_Driver/Src/stm32f4xx_hal_rtc.c ****     
1122:./Libraries/STM32F4xx_HAL_Driver/Src/stm32f4xx_hal_rtc.c ****     hrtc->Instance->ALRMBR = (uint32_t)tmpreg;
1123:./Libraries/STM32F4xx_HAL_Driver/Src/stm32f4xx_hal_rtc.c ****     /* Configure the Alarm B Sub Second register */
1124:./Libraries/STM32F4xx_HAL_Driver/Src/stm32f4xx_hal_rtc.c ****     hrtc->Instance->ALRMBSSR = subsecondtmpreg;
1125:./Libraries/STM32F4xx_HAL_Driver/Src/stm32f4xx_hal_rtc.c ****     /* Configure the Alarm state: Enable Alarm */
1126:./Libraries/STM32F4xx_HAL_Driver/Src/stm32f4xx_hal_rtc.c ****     __HAL_RTC_ALARMB_ENABLE(hrtc);
1127:./Libraries/STM32F4xx_HAL_Driver/Src/stm32f4xx_hal_rtc.c ****     /* Configure the Alarm interrupt */
1128:./Libraries/STM32F4xx_HAL_Driver/Src/stm32f4xx_hal_rtc.c ****     __HAL_RTC_ALARM_ENABLE_IT(hrtc, RTC_IT_ALRB);
1129:./Libraries/STM32F4xx_HAL_Driver/Src/stm32f4xx_hal_rtc.c ****   }
ARM GAS  /tmp/ccdJbK3i.s 			page 22


1130:./Libraries/STM32F4xx_HAL_Driver/Src/stm32f4xx_hal_rtc.c **** 
1131:./Libraries/STM32F4xx_HAL_Driver/Src/stm32f4xx_hal_rtc.c ****   /* RTC Alarm Interrupt Configuration: EXTI configuration */
1132:./Libraries/STM32F4xx_HAL_Driver/Src/stm32f4xx_hal_rtc.c ****   __HAL_RTC_ALARM_EXTI_ENABLE_IT();
1133:./Libraries/STM32F4xx_HAL_Driver/Src/stm32f4xx_hal_rtc.c ****   
1134:./Libraries/STM32F4xx_HAL_Driver/Src/stm32f4xx_hal_rtc.c ****   EXTI->RTSR |= RTC_EXTI_LINE_ALARM_EVENT;
1135:./Libraries/STM32F4xx_HAL_Driver/Src/stm32f4xx_hal_rtc.c ****   
1136:./Libraries/STM32F4xx_HAL_Driver/Src/stm32f4xx_hal_rtc.c ****   /* Enable the write protection for RTC registers */
1137:./Libraries/STM32F4xx_HAL_Driver/Src/stm32f4xx_hal_rtc.c ****   __HAL_RTC_WRITEPROTECTION_ENABLE(hrtc);  
1138:./Libraries/STM32F4xx_HAL_Driver/Src/stm32f4xx_hal_rtc.c ****   
1139:./Libraries/STM32F4xx_HAL_Driver/Src/stm32f4xx_hal_rtc.c ****   hrtc->State = HAL_RTC_STATE_READY; 
1140:./Libraries/STM32F4xx_HAL_Driver/Src/stm32f4xx_hal_rtc.c ****   
1141:./Libraries/STM32F4xx_HAL_Driver/Src/stm32f4xx_hal_rtc.c ****   /* Process Unlocked */ 
1142:./Libraries/STM32F4xx_HAL_Driver/Src/stm32f4xx_hal_rtc.c ****   __HAL_UNLOCK(hrtc);  
1143:./Libraries/STM32F4xx_HAL_Driver/Src/stm32f4xx_hal_rtc.c ****   
1144:./Libraries/STM32F4xx_HAL_Driver/Src/stm32f4xx_hal_rtc.c ****   return HAL_OK;
1145:./Libraries/STM32F4xx_HAL_Driver/Src/stm32f4xx_hal_rtc.c **** }
1146:./Libraries/STM32F4xx_HAL_Driver/Src/stm32f4xx_hal_rtc.c **** 
1147:./Libraries/STM32F4xx_HAL_Driver/Src/stm32f4xx_hal_rtc.c **** /**
1148:./Libraries/STM32F4xx_HAL_Driver/Src/stm32f4xx_hal_rtc.c ****   * @brief  Deactivate the specified RTC Alarm 
1149:./Libraries/STM32F4xx_HAL_Driver/Src/stm32f4xx_hal_rtc.c ****   * @param  hrtc pointer to a RTC_HandleTypeDef structure that contains
1150:./Libraries/STM32F4xx_HAL_Driver/Src/stm32f4xx_hal_rtc.c ****   *                the configuration information for RTC.
1151:./Libraries/STM32F4xx_HAL_Driver/Src/stm32f4xx_hal_rtc.c ****   * @param  Alarm Specifies the Alarm.
1152:./Libraries/STM32F4xx_HAL_Driver/Src/stm32f4xx_hal_rtc.c ****   *          This parameter can be one of the following values:
1153:./Libraries/STM32F4xx_HAL_Driver/Src/stm32f4xx_hal_rtc.c ****   *            @arg RTC_ALARM_A:  AlarmA
1154:./Libraries/STM32F4xx_HAL_Driver/Src/stm32f4xx_hal_rtc.c ****   *            @arg RTC_ALARM_B:  AlarmB
1155:./Libraries/STM32F4xx_HAL_Driver/Src/stm32f4xx_hal_rtc.c ****   * @retval HAL status
1156:./Libraries/STM32F4xx_HAL_Driver/Src/stm32f4xx_hal_rtc.c ****   */
1157:./Libraries/STM32F4xx_HAL_Driver/Src/stm32f4xx_hal_rtc.c **** HAL_StatusTypeDef HAL_RTC_DeactivateAlarm(RTC_HandleTypeDef *hrtc, uint32_t Alarm)
1158:./Libraries/STM32F4xx_HAL_Driver/Src/stm32f4xx_hal_rtc.c **** {
  74              		.loc 1 1158 1 is_stmt 1 view -0
  75              		.cfi_startproc
  76              		@ args = 0, pretend = 0, frame = 0
  77              		@ frame_needed = 0, uses_anonymous_args = 0
  78              		.loc 1 1158 1 is_stmt 0 view .LVU7
  79 0000 38B5     		push	{r3, r4, r5, lr}
  80              	.LCFI0:
  81              		.cfi_def_cfa_offset 16
  82              		.cfi_offset 3, -16
  83              		.cfi_offset 4, -12
  84              		.cfi_offset 5, -8
  85              		.cfi_offset 14, -4
1159:./Libraries/STM32F4xx_HAL_Driver/Src/stm32f4xx_hal_rtc.c ****   uint32_t tickstart = 0U;
  86              		.loc 1 1159 3 is_stmt 1 view .LVU8
  87              	.LVL3:
1160:./Libraries/STM32F4xx_HAL_Driver/Src/stm32f4xx_hal_rtc.c ****   
1161:./Libraries/STM32F4xx_HAL_Driver/Src/stm32f4xx_hal_rtc.c ****   /* Check the parameters */
1162:./Libraries/STM32F4xx_HAL_Driver/Src/stm32f4xx_hal_rtc.c ****   assert_param(IS_RTC_ALARM(Alarm));
  88              		.loc 1 1162 3 view .LVU9
1163:./Libraries/STM32F4xx_HAL_Driver/Src/stm32f4xx_hal_rtc.c ****   
1164:./Libraries/STM32F4xx_HAL_Driver/Src/stm32f4xx_hal_rtc.c ****   /* Process Locked */ 
1165:./Libraries/STM32F4xx_HAL_Driver/Src/stm32f4xx_hal_rtc.c ****   __HAL_LOCK(hrtc);
  89              		.loc 1 1165 3 view .LVU10
  90              		.loc 1 1165 3 view .LVU11
  91 0002 037F     		ldrb	r3, [r0, #28]	@ zero_extendqisi2
  92 0004 012B     		cmp	r3, #1
  93 0006 55D0     		beq	.L11
  94 0008 0446     		mov	r4, r0
ARM GAS  /tmp/ccdJbK3i.s 			page 23


  95              		.loc 1 1165 3 discriminator 2 view .LVU12
  96 000a 0123     		movs	r3, #1
  97 000c 0377     		strb	r3, [r0, #28]
  98              		.loc 1 1165 3 discriminator 2 view .LVU13
1166:./Libraries/STM32F4xx_HAL_Driver/Src/stm32f4xx_hal_rtc.c ****   
1167:./Libraries/STM32F4xx_HAL_Driver/Src/stm32f4xx_hal_rtc.c ****   hrtc->State = HAL_RTC_STATE_BUSY;
  99              		.loc 1 1167 3 discriminator 2 view .LVU14
 100              		.loc 1 1167 15 is_stmt 0 discriminator 2 view .LVU15
 101 000e 0223     		movs	r3, #2
 102 0010 4377     		strb	r3, [r0, #29]
1168:./Libraries/STM32F4xx_HAL_Driver/Src/stm32f4xx_hal_rtc.c ****   
1169:./Libraries/STM32F4xx_HAL_Driver/Src/stm32f4xx_hal_rtc.c ****   /* Disable the write protection for RTC registers */
1170:./Libraries/STM32F4xx_HAL_Driver/Src/stm32f4xx_hal_rtc.c ****   __HAL_RTC_WRITEPROTECTION_DISABLE(hrtc);
 103              		.loc 1 1170 3 is_stmt 1 discriminator 2 view .LVU16
 104              		.loc 1 1170 3 discriminator 2 view .LVU17
 105 0012 0368     		ldr	r3, [r0]
 106 0014 CA22     		movs	r2, #202
 107 0016 5A62     		str	r2, [r3, #36]
 108              		.loc 1 1170 3 discriminator 2 view .LVU18
 109 0018 0368     		ldr	r3, [r0]
 110 001a 5322     		movs	r2, #83
 111 001c 5A62     		str	r2, [r3, #36]
 112              		.loc 1 1170 3 discriminator 2 view .LVU19
1171:./Libraries/STM32F4xx_HAL_Driver/Src/stm32f4xx_hal_rtc.c ****   
1172:./Libraries/STM32F4xx_HAL_Driver/Src/stm32f4xx_hal_rtc.c ****   if(Alarm == RTC_ALARM_A)
 113              		.loc 1 1172 3 discriminator 2 view .LVU20
 114              		.loc 1 1172 5 is_stmt 0 discriminator 2 view .LVU21
 115 001e B1F5807F 		cmp	r1, #256
 116 0022 1FD0     		beq	.L13
1173:./Libraries/STM32F4xx_HAL_Driver/Src/stm32f4xx_hal_rtc.c ****   {
1174:./Libraries/STM32F4xx_HAL_Driver/Src/stm32f4xx_hal_rtc.c ****     /* AlarmA */
1175:./Libraries/STM32F4xx_HAL_Driver/Src/stm32f4xx_hal_rtc.c ****     __HAL_RTC_ALARMA_DISABLE(hrtc);
1176:./Libraries/STM32F4xx_HAL_Driver/Src/stm32f4xx_hal_rtc.c ****     
1177:./Libraries/STM32F4xx_HAL_Driver/Src/stm32f4xx_hal_rtc.c ****     /* In case of interrupt mode is used, the interrupt source must disabled */ 
1178:./Libraries/STM32F4xx_HAL_Driver/Src/stm32f4xx_hal_rtc.c ****     __HAL_RTC_ALARM_DISABLE_IT(hrtc, RTC_IT_ALRA);
1179:./Libraries/STM32F4xx_HAL_Driver/Src/stm32f4xx_hal_rtc.c **** 
1180:./Libraries/STM32F4xx_HAL_Driver/Src/stm32f4xx_hal_rtc.c ****     /* Get tick */
1181:./Libraries/STM32F4xx_HAL_Driver/Src/stm32f4xx_hal_rtc.c ****     tickstart = HAL_GetTick();
1182:./Libraries/STM32F4xx_HAL_Driver/Src/stm32f4xx_hal_rtc.c **** 
1183:./Libraries/STM32F4xx_HAL_Driver/Src/stm32f4xx_hal_rtc.c ****     /* Wait till RTC ALRxWF flag is set and if Time out is reached exit */
1184:./Libraries/STM32F4xx_HAL_Driver/Src/stm32f4xx_hal_rtc.c ****     while(__HAL_RTC_ALARM_GET_FLAG(hrtc, RTC_FLAG_ALRAWF) == RESET)
1185:./Libraries/STM32F4xx_HAL_Driver/Src/stm32f4xx_hal_rtc.c ****     {
1186:./Libraries/STM32F4xx_HAL_Driver/Src/stm32f4xx_hal_rtc.c ****       if((HAL_GetTick() - tickstart ) > RTC_TIMEOUT_VALUE)
1187:./Libraries/STM32F4xx_HAL_Driver/Src/stm32f4xx_hal_rtc.c ****       { 
1188:./Libraries/STM32F4xx_HAL_Driver/Src/stm32f4xx_hal_rtc.c ****         /* Enable the write protection for RTC registers */
1189:./Libraries/STM32F4xx_HAL_Driver/Src/stm32f4xx_hal_rtc.c ****         __HAL_RTC_WRITEPROTECTION_ENABLE(hrtc);
1190:./Libraries/STM32F4xx_HAL_Driver/Src/stm32f4xx_hal_rtc.c ****         
1191:./Libraries/STM32F4xx_HAL_Driver/Src/stm32f4xx_hal_rtc.c ****         hrtc->State = HAL_RTC_STATE_TIMEOUT; 
1192:./Libraries/STM32F4xx_HAL_Driver/Src/stm32f4xx_hal_rtc.c ****         
1193:./Libraries/STM32F4xx_HAL_Driver/Src/stm32f4xx_hal_rtc.c ****         /* Process Unlocked */ 
1194:./Libraries/STM32F4xx_HAL_Driver/Src/stm32f4xx_hal_rtc.c ****         __HAL_UNLOCK(hrtc);
1195:./Libraries/STM32F4xx_HAL_Driver/Src/stm32f4xx_hal_rtc.c ****         
1196:./Libraries/STM32F4xx_HAL_Driver/Src/stm32f4xx_hal_rtc.c ****         return HAL_TIMEOUT;
1197:./Libraries/STM32F4xx_HAL_Driver/Src/stm32f4xx_hal_rtc.c ****       }      
1198:./Libraries/STM32F4xx_HAL_Driver/Src/stm32f4xx_hal_rtc.c ****     }
1199:./Libraries/STM32F4xx_HAL_Driver/Src/stm32f4xx_hal_rtc.c ****   }
1200:./Libraries/STM32F4xx_HAL_Driver/Src/stm32f4xx_hal_rtc.c ****   else
ARM GAS  /tmp/ccdJbK3i.s 			page 24


1201:./Libraries/STM32F4xx_HAL_Driver/Src/stm32f4xx_hal_rtc.c ****   {
1202:./Libraries/STM32F4xx_HAL_Driver/Src/stm32f4xx_hal_rtc.c ****     /* AlarmB */
1203:./Libraries/STM32F4xx_HAL_Driver/Src/stm32f4xx_hal_rtc.c ****     __HAL_RTC_ALARMB_DISABLE(hrtc);
 117              		.loc 1 1203 5 is_stmt 1 view .LVU22
 118 0024 0268     		ldr	r2, [r0]
 119 0026 9368     		ldr	r3, [r2, #8]
 120 0028 23F40073 		bic	r3, r3, #512
 121 002c 9360     		str	r3, [r2, #8]
1204:./Libraries/STM32F4xx_HAL_Driver/Src/stm32f4xx_hal_rtc.c ****     
1205:./Libraries/STM32F4xx_HAL_Driver/Src/stm32f4xx_hal_rtc.c ****     /* In case of interrupt mode is used, the interrupt source must disabled */ 
1206:./Libraries/STM32F4xx_HAL_Driver/Src/stm32f4xx_hal_rtc.c ****     __HAL_RTC_ALARM_DISABLE_IT(hrtc,RTC_IT_ALRB);
 122              		.loc 1 1206 5 view .LVU23
 123 002e 0268     		ldr	r2, [r0]
 124 0030 9368     		ldr	r3, [r2, #8]
 125 0032 23F40053 		bic	r3, r3, #8192
 126 0036 9360     		str	r3, [r2, #8]
1207:./Libraries/STM32F4xx_HAL_Driver/Src/stm32f4xx_hal_rtc.c **** 
1208:./Libraries/STM32F4xx_HAL_Driver/Src/stm32f4xx_hal_rtc.c ****     /* Get tick */
1209:./Libraries/STM32F4xx_HAL_Driver/Src/stm32f4xx_hal_rtc.c ****     tickstart = HAL_GetTick();
 127              		.loc 1 1209 5 view .LVU24
 128              		.loc 1 1209 17 is_stmt 0 view .LVU25
 129 0038 FFF7FEFF 		bl	HAL_GetTick
 130              	.LVL4:
 131              		.loc 1 1209 17 view .LVU26
 132 003c 0546     		mov	r5, r0
 133              	.LVL5:
1210:./Libraries/STM32F4xx_HAL_Driver/Src/stm32f4xx_hal_rtc.c **** 
1211:./Libraries/STM32F4xx_HAL_Driver/Src/stm32f4xx_hal_rtc.c ****     /* Wait till RTC ALRxWF flag is set and if Time out is reached exit */
1212:./Libraries/STM32F4xx_HAL_Driver/Src/stm32f4xx_hal_rtc.c ****     while(__HAL_RTC_ALARM_GET_FLAG(hrtc, RTC_FLAG_ALRBWF) == RESET)
 134              		.loc 1 1212 5 is_stmt 1 view .LVU27
 135              	.L9:
 136              		.loc 1 1212 10 view .LVU28
 137              		.loc 1 1212 11 is_stmt 0 view .LVU29
 138 003e 2368     		ldr	r3, [r4]
 139 0040 DB68     		ldr	r3, [r3, #12]
 140              		.loc 1 1212 10 view .LVU30
 141 0042 13F0020F 		tst	r3, #2
 142 0046 2DD1     		bne	.L8
1213:./Libraries/STM32F4xx_HAL_Driver/Src/stm32f4xx_hal_rtc.c ****     {
1214:./Libraries/STM32F4xx_HAL_Driver/Src/stm32f4xx_hal_rtc.c ****       if((HAL_GetTick() - tickstart ) > RTC_TIMEOUT_VALUE)
 143              		.loc 1 1214 7 is_stmt 1 view .LVU31
 144              		.loc 1 1214 11 is_stmt 0 view .LVU32
 145 0048 FFF7FEFF 		bl	HAL_GetTick
 146              	.LVL6:
 147              		.loc 1 1214 25 view .LVU33
 148 004c 431B     		subs	r3, r0, r5
 149              		.loc 1 1214 9 view .LVU34
 150 004e B3F57A7F 		cmp	r3, #1000
 151 0052 F4D9     		bls	.L9
1215:./Libraries/STM32F4xx_HAL_Driver/Src/stm32f4xx_hal_rtc.c ****       {
1216:./Libraries/STM32F4xx_HAL_Driver/Src/stm32f4xx_hal_rtc.c ****         /* Enable the write protection for RTC registers */
1217:./Libraries/STM32F4xx_HAL_Driver/Src/stm32f4xx_hal_rtc.c ****         __HAL_RTC_WRITEPROTECTION_ENABLE(hrtc);
 152              		.loc 1 1217 9 is_stmt 1 view .LVU35
 153              		.loc 1 1217 9 view .LVU36
 154 0054 2368     		ldr	r3, [r4]
 155 0056 FF22     		movs	r2, #255
 156 0058 5A62     		str	r2, [r3, #36]
ARM GAS  /tmp/ccdJbK3i.s 			page 25


 157              		.loc 1 1217 9 view .LVU37
1218:./Libraries/STM32F4xx_HAL_Driver/Src/stm32f4xx_hal_rtc.c ****         
1219:./Libraries/STM32F4xx_HAL_Driver/Src/stm32f4xx_hal_rtc.c ****         hrtc->State = HAL_RTC_STATE_TIMEOUT; 
 158              		.loc 1 1219 9 view .LVU38
 159              		.loc 1 1219 21 is_stmt 0 view .LVU39
 160 005a 0320     		movs	r0, #3
 161 005c 6077     		strb	r0, [r4, #29]
1220:./Libraries/STM32F4xx_HAL_Driver/Src/stm32f4xx_hal_rtc.c ****         
1221:./Libraries/STM32F4xx_HAL_Driver/Src/stm32f4xx_hal_rtc.c ****         /* Process Unlocked */ 
1222:./Libraries/STM32F4xx_HAL_Driver/Src/stm32f4xx_hal_rtc.c ****         __HAL_UNLOCK(hrtc);
 162              		.loc 1 1222 9 is_stmt 1 view .LVU40
 163              		.loc 1 1222 9 view .LVU41
 164 005e 0023     		movs	r3, #0
 165 0060 2377     		strb	r3, [r4, #28]
 166              		.loc 1 1222 9 view .LVU42
1223:./Libraries/STM32F4xx_HAL_Driver/Src/stm32f4xx_hal_rtc.c ****         
1224:./Libraries/STM32F4xx_HAL_Driver/Src/stm32f4xx_hal_rtc.c ****         return HAL_TIMEOUT;
 167              		.loc 1 1224 9 view .LVU43
 168              		.loc 1 1224 16 is_stmt 0 view .LVU44
 169 0062 26E0     		b	.L4
 170              	.LVL7:
 171              	.L13:
1175:./Libraries/STM32F4xx_HAL_Driver/Src/stm32f4xx_hal_rtc.c ****     
 172              		.loc 1 1175 5 is_stmt 1 view .LVU45
 173 0064 0268     		ldr	r2, [r0]
 174 0066 9368     		ldr	r3, [r2, #8]
 175 0068 23F48073 		bic	r3, r3, #256
 176 006c 9360     		str	r3, [r2, #8]
1178:./Libraries/STM32F4xx_HAL_Driver/Src/stm32f4xx_hal_rtc.c **** 
 177              		.loc 1 1178 5 view .LVU46
 178 006e 0268     		ldr	r2, [r0]
 179 0070 9368     		ldr	r3, [r2, #8]
 180 0072 23F48053 		bic	r3, r3, #4096
 181 0076 9360     		str	r3, [r2, #8]
1181:./Libraries/STM32F4xx_HAL_Driver/Src/stm32f4xx_hal_rtc.c **** 
 182              		.loc 1 1181 5 view .LVU47
1181:./Libraries/STM32F4xx_HAL_Driver/Src/stm32f4xx_hal_rtc.c **** 
 183              		.loc 1 1181 17 is_stmt 0 view .LVU48
 184 0078 FFF7FEFF 		bl	HAL_GetTick
 185              	.LVL8:
1181:./Libraries/STM32F4xx_HAL_Driver/Src/stm32f4xx_hal_rtc.c **** 
 186              		.loc 1 1181 17 view .LVU49
 187 007c 0546     		mov	r5, r0
 188              	.LVL9:
1184:./Libraries/STM32F4xx_HAL_Driver/Src/stm32f4xx_hal_rtc.c ****     {
 189              		.loc 1 1184 5 is_stmt 1 view .LVU50
 190              	.L6:
1184:./Libraries/STM32F4xx_HAL_Driver/Src/stm32f4xx_hal_rtc.c ****     {
 191              		.loc 1 1184 10 view .LVU51
1184:./Libraries/STM32F4xx_HAL_Driver/Src/stm32f4xx_hal_rtc.c ****     {
 192              		.loc 1 1184 11 is_stmt 0 view .LVU52
 193 007e 2368     		ldr	r3, [r4]
 194 0080 DB68     		ldr	r3, [r3, #12]
1184:./Libraries/STM32F4xx_HAL_Driver/Src/stm32f4xx_hal_rtc.c ****     {
 195              		.loc 1 1184 10 view .LVU53
 196 0082 13F0010F 		tst	r3, #1
 197 0086 0DD1     		bne	.L8
ARM GAS  /tmp/ccdJbK3i.s 			page 26


1186:./Libraries/STM32F4xx_HAL_Driver/Src/stm32f4xx_hal_rtc.c ****       { 
 198              		.loc 1 1186 7 is_stmt 1 view .LVU54
1186:./Libraries/STM32F4xx_HAL_Driver/Src/stm32f4xx_hal_rtc.c ****       { 
 199              		.loc 1 1186 11 is_stmt 0 view .LVU55
 200 0088 FFF7FEFF 		bl	HAL_GetTick
 201              	.LVL10:
1186:./Libraries/STM32F4xx_HAL_Driver/Src/stm32f4xx_hal_rtc.c ****       { 
 202              		.loc 1 1186 25 view .LVU56
 203 008c 401B     		subs	r0, r0, r5
1186:./Libraries/STM32F4xx_HAL_Driver/Src/stm32f4xx_hal_rtc.c ****       { 
 204              		.loc 1 1186 9 view .LVU57
 205 008e B0F57A7F 		cmp	r0, #1000
 206 0092 F4D9     		bls	.L6
1189:./Libraries/STM32F4xx_HAL_Driver/Src/stm32f4xx_hal_rtc.c ****         
 207              		.loc 1 1189 9 is_stmt 1 view .LVU58
1189:./Libraries/STM32F4xx_HAL_Driver/Src/stm32f4xx_hal_rtc.c ****         
 208              		.loc 1 1189 9 view .LVU59
 209 0094 2368     		ldr	r3, [r4]
 210 0096 FF22     		movs	r2, #255
 211 0098 5A62     		str	r2, [r3, #36]
1189:./Libraries/STM32F4xx_HAL_Driver/Src/stm32f4xx_hal_rtc.c ****         
 212              		.loc 1 1189 9 view .LVU60
1191:./Libraries/STM32F4xx_HAL_Driver/Src/stm32f4xx_hal_rtc.c ****         
 213              		.loc 1 1191 9 view .LVU61
1191:./Libraries/STM32F4xx_HAL_Driver/Src/stm32f4xx_hal_rtc.c ****         
 214              		.loc 1 1191 21 is_stmt 0 view .LVU62
 215 009a 0320     		movs	r0, #3
 216 009c 6077     		strb	r0, [r4, #29]
1194:./Libraries/STM32F4xx_HAL_Driver/Src/stm32f4xx_hal_rtc.c ****         
 217              		.loc 1 1194 9 is_stmt 1 view .LVU63
1194:./Libraries/STM32F4xx_HAL_Driver/Src/stm32f4xx_hal_rtc.c ****         
 218              		.loc 1 1194 9 view .LVU64
 219 009e 0023     		movs	r3, #0
 220 00a0 2377     		strb	r3, [r4, #28]
1194:./Libraries/STM32F4xx_HAL_Driver/Src/stm32f4xx_hal_rtc.c ****         
 221              		.loc 1 1194 9 view .LVU65
1196:./Libraries/STM32F4xx_HAL_Driver/Src/stm32f4xx_hal_rtc.c ****       }      
 222              		.loc 1 1196 9 view .LVU66
1196:./Libraries/STM32F4xx_HAL_Driver/Src/stm32f4xx_hal_rtc.c ****       }      
 223              		.loc 1 1196 16 is_stmt 0 view .LVU67
 224 00a2 06E0     		b	.L4
 225              	.L8:
1225:./Libraries/STM32F4xx_HAL_Driver/Src/stm32f4xx_hal_rtc.c ****       }    
1226:./Libraries/STM32F4xx_HAL_Driver/Src/stm32f4xx_hal_rtc.c ****     }
1227:./Libraries/STM32F4xx_HAL_Driver/Src/stm32f4xx_hal_rtc.c ****   }
1228:./Libraries/STM32F4xx_HAL_Driver/Src/stm32f4xx_hal_rtc.c ****   /* Enable the write protection for RTC registers */
1229:./Libraries/STM32F4xx_HAL_Driver/Src/stm32f4xx_hal_rtc.c ****   __HAL_RTC_WRITEPROTECTION_ENABLE(hrtc);
 226              		.loc 1 1229 3 is_stmt 1 view .LVU68
 227              		.loc 1 1229 3 view .LVU69
 228 00a4 2368     		ldr	r3, [r4]
 229 00a6 FF22     		movs	r2, #255
 230 00a8 5A62     		str	r2, [r3, #36]
 231              		.loc 1 1229 3 view .LVU70
1230:./Libraries/STM32F4xx_HAL_Driver/Src/stm32f4xx_hal_rtc.c ****   
1231:./Libraries/STM32F4xx_HAL_Driver/Src/stm32f4xx_hal_rtc.c ****   hrtc->State = HAL_RTC_STATE_READY; 
 232              		.loc 1 1231 3 view .LVU71
 233              		.loc 1 1231 15 is_stmt 0 view .LVU72
ARM GAS  /tmp/ccdJbK3i.s 			page 27


 234 00aa 0123     		movs	r3, #1
 235 00ac 6377     		strb	r3, [r4, #29]
1232:./Libraries/STM32F4xx_HAL_Driver/Src/stm32f4xx_hal_rtc.c ****   
1233:./Libraries/STM32F4xx_HAL_Driver/Src/stm32f4xx_hal_rtc.c ****   /* Process Unlocked */ 
1234:./Libraries/STM32F4xx_HAL_Driver/Src/stm32f4xx_hal_rtc.c ****   __HAL_UNLOCK(hrtc);  
 236              		.loc 1 1234 3 is_stmt 1 view .LVU73
 237              		.loc 1 1234 3 view .LVU74
 238 00ae 0020     		movs	r0, #0
 239 00b0 2077     		strb	r0, [r4, #28]
 240              		.loc 1 1234 3 view .LVU75
1235:./Libraries/STM32F4xx_HAL_Driver/Src/stm32f4xx_hal_rtc.c ****   
1236:./Libraries/STM32F4xx_HAL_Driver/Src/stm32f4xx_hal_rtc.c ****   return HAL_OK; 
 241              		.loc 1 1236 3 view .LVU76
 242              	.LVL11:
 243              	.L4:
1237:./Libraries/STM32F4xx_HAL_Driver/Src/stm32f4xx_hal_rtc.c **** }
 244              		.loc 1 1237 1 is_stmt 0 view .LVU77
 245 00b2 38BD     		pop	{r3, r4, r5, pc}
 246              	.LVL12:
 247              	.L11:
1165:./Libraries/STM32F4xx_HAL_Driver/Src/stm32f4xx_hal_rtc.c ****   
 248              		.loc 1 1165 3 view .LVU78
 249 00b4 0220     		movs	r0, #2
 250              	.LVL13:
1165:./Libraries/STM32F4xx_HAL_Driver/Src/stm32f4xx_hal_rtc.c ****   
 251              		.loc 1 1165 3 view .LVU79
 252 00b6 FCE7     		b	.L4
 253              		.cfi_endproc
 254              	.LFE136:
 256              		.section	.text.HAL_RTC_AlarmAEventCallback,"ax",%progbits
 257              		.align	1
 258              		.weak	HAL_RTC_AlarmAEventCallback
 259              		.syntax unified
 260              		.thumb
 261              		.thumb_func
 262              		.fpu fpv4-sp-d16
 264              	HAL_RTC_AlarmAEventCallback:
 265              	.LVL14:
 266              	.LFB139:
1238:./Libraries/STM32F4xx_HAL_Driver/Src/stm32f4xx_hal_rtc.c ****            
1239:./Libraries/STM32F4xx_HAL_Driver/Src/stm32f4xx_hal_rtc.c **** /**
1240:./Libraries/STM32F4xx_HAL_Driver/Src/stm32f4xx_hal_rtc.c ****   * @brief  Gets the RTC Alarm value and masks.
1241:./Libraries/STM32F4xx_HAL_Driver/Src/stm32f4xx_hal_rtc.c ****   * @param  hrtc pointer to a RTC_HandleTypeDef structure that contains
1242:./Libraries/STM32F4xx_HAL_Driver/Src/stm32f4xx_hal_rtc.c ****   *                the configuration information for RTC.
1243:./Libraries/STM32F4xx_HAL_Driver/Src/stm32f4xx_hal_rtc.c ****   * @param  sAlarm Pointer to Date structure
1244:./Libraries/STM32F4xx_HAL_Driver/Src/stm32f4xx_hal_rtc.c ****   * @param  Alarm Specifies the Alarm.
1245:./Libraries/STM32F4xx_HAL_Driver/Src/stm32f4xx_hal_rtc.c ****   *          This parameter can be one of the following values:
1246:./Libraries/STM32F4xx_HAL_Driver/Src/stm32f4xx_hal_rtc.c ****   *             @arg RTC_ALARM_A: AlarmA
1247:./Libraries/STM32F4xx_HAL_Driver/Src/stm32f4xx_hal_rtc.c ****   *             @arg RTC_ALARM_B: AlarmB  
1248:./Libraries/STM32F4xx_HAL_Driver/Src/stm32f4xx_hal_rtc.c ****   * @param  Format Specifies the format of the entered parameters.
1249:./Libraries/STM32F4xx_HAL_Driver/Src/stm32f4xx_hal_rtc.c ****   *          This parameter can be one of the following values:
1250:./Libraries/STM32F4xx_HAL_Driver/Src/stm32f4xx_hal_rtc.c ****   *             @arg RTC_FORMAT_BIN: Binary data format 
1251:./Libraries/STM32F4xx_HAL_Driver/Src/stm32f4xx_hal_rtc.c ****   *             @arg RTC_FORMAT_BCD: BCD data format
1252:./Libraries/STM32F4xx_HAL_Driver/Src/stm32f4xx_hal_rtc.c ****   * @retval HAL status
1253:./Libraries/STM32F4xx_HAL_Driver/Src/stm32f4xx_hal_rtc.c ****   */
1254:./Libraries/STM32F4xx_HAL_Driver/Src/stm32f4xx_hal_rtc.c **** HAL_StatusTypeDef HAL_RTC_GetAlarm(RTC_HandleTypeDef *hrtc, RTC_AlarmTypeDef *sAlarm, uint32_t Alar
1255:./Libraries/STM32F4xx_HAL_Driver/Src/stm32f4xx_hal_rtc.c **** {
ARM GAS  /tmp/ccdJbK3i.s 			page 28


1256:./Libraries/STM32F4xx_HAL_Driver/Src/stm32f4xx_hal_rtc.c ****   uint32_t tmpreg = 0U, subsecondtmpreg = 0U;
1257:./Libraries/STM32F4xx_HAL_Driver/Src/stm32f4xx_hal_rtc.c ****   
1258:./Libraries/STM32F4xx_HAL_Driver/Src/stm32f4xx_hal_rtc.c ****   /* Check the parameters */
1259:./Libraries/STM32F4xx_HAL_Driver/Src/stm32f4xx_hal_rtc.c ****   assert_param(IS_RTC_FORMAT(Format));
1260:./Libraries/STM32F4xx_HAL_Driver/Src/stm32f4xx_hal_rtc.c ****   assert_param(IS_RTC_ALARM(Alarm));
1261:./Libraries/STM32F4xx_HAL_Driver/Src/stm32f4xx_hal_rtc.c ****   
1262:./Libraries/STM32F4xx_HAL_Driver/Src/stm32f4xx_hal_rtc.c ****   if(Alarm == RTC_ALARM_A)
1263:./Libraries/STM32F4xx_HAL_Driver/Src/stm32f4xx_hal_rtc.c ****   {
1264:./Libraries/STM32F4xx_HAL_Driver/Src/stm32f4xx_hal_rtc.c ****     /* AlarmA */
1265:./Libraries/STM32F4xx_HAL_Driver/Src/stm32f4xx_hal_rtc.c ****     sAlarm->Alarm = RTC_ALARM_A;
1266:./Libraries/STM32F4xx_HAL_Driver/Src/stm32f4xx_hal_rtc.c ****     
1267:./Libraries/STM32F4xx_HAL_Driver/Src/stm32f4xx_hal_rtc.c ****     tmpreg = (uint32_t)(hrtc->Instance->ALRMAR);
1268:./Libraries/STM32F4xx_HAL_Driver/Src/stm32f4xx_hal_rtc.c ****     subsecondtmpreg = (uint32_t)((hrtc->Instance->ALRMASSR ) & RTC_ALRMASSR_SS);
1269:./Libraries/STM32F4xx_HAL_Driver/Src/stm32f4xx_hal_rtc.c ****   }
1270:./Libraries/STM32F4xx_HAL_Driver/Src/stm32f4xx_hal_rtc.c ****   else
1271:./Libraries/STM32F4xx_HAL_Driver/Src/stm32f4xx_hal_rtc.c ****   {
1272:./Libraries/STM32F4xx_HAL_Driver/Src/stm32f4xx_hal_rtc.c ****     sAlarm->Alarm = RTC_ALARM_B;
1273:./Libraries/STM32F4xx_HAL_Driver/Src/stm32f4xx_hal_rtc.c ****     
1274:./Libraries/STM32F4xx_HAL_Driver/Src/stm32f4xx_hal_rtc.c ****     tmpreg = (uint32_t)(hrtc->Instance->ALRMBR);
1275:./Libraries/STM32F4xx_HAL_Driver/Src/stm32f4xx_hal_rtc.c ****     subsecondtmpreg = (uint32_t)((hrtc->Instance->ALRMBSSR) & RTC_ALRMBSSR_SS);
1276:./Libraries/STM32F4xx_HAL_Driver/Src/stm32f4xx_hal_rtc.c ****   }
1277:./Libraries/STM32F4xx_HAL_Driver/Src/stm32f4xx_hal_rtc.c ****     
1278:./Libraries/STM32F4xx_HAL_Driver/Src/stm32f4xx_hal_rtc.c ****   /* Fill the structure with the read parameters */
1279:./Libraries/STM32F4xx_HAL_Driver/Src/stm32f4xx_hal_rtc.c ****   sAlarm->AlarmTime.Hours = (uint32_t)((tmpreg & (RTC_ALRMAR_HT | RTC_ALRMAR_HU)) >> 16U);
1280:./Libraries/STM32F4xx_HAL_Driver/Src/stm32f4xx_hal_rtc.c ****   sAlarm->AlarmTime.Minutes = (uint32_t)((tmpreg & (RTC_ALRMAR_MNT | RTC_ALRMAR_MNU)) >> 8U);
1281:./Libraries/STM32F4xx_HAL_Driver/Src/stm32f4xx_hal_rtc.c ****   sAlarm->AlarmTime.Seconds = (uint32_t)(tmpreg & (RTC_ALRMAR_ST | RTC_ALRMAR_SU));
1282:./Libraries/STM32F4xx_HAL_Driver/Src/stm32f4xx_hal_rtc.c ****   sAlarm->AlarmTime.TimeFormat = (uint32_t)((tmpreg & RTC_ALRMAR_PM) >> 16U);
1283:./Libraries/STM32F4xx_HAL_Driver/Src/stm32f4xx_hal_rtc.c ****   sAlarm->AlarmTime.SubSeconds = (uint32_t) subsecondtmpreg;
1284:./Libraries/STM32F4xx_HAL_Driver/Src/stm32f4xx_hal_rtc.c ****   sAlarm->AlarmDateWeekDay = (uint32_t)((tmpreg & (RTC_ALRMAR_DT | RTC_ALRMAR_DU)) >> 24U);
1285:./Libraries/STM32F4xx_HAL_Driver/Src/stm32f4xx_hal_rtc.c ****   sAlarm->AlarmDateWeekDaySel = (uint32_t)(tmpreg & RTC_ALRMAR_WDSEL);
1286:./Libraries/STM32F4xx_HAL_Driver/Src/stm32f4xx_hal_rtc.c ****   sAlarm->AlarmMask = (uint32_t)(tmpreg & RTC_ALARMMASK_ALL);
1287:./Libraries/STM32F4xx_HAL_Driver/Src/stm32f4xx_hal_rtc.c ****     
1288:./Libraries/STM32F4xx_HAL_Driver/Src/stm32f4xx_hal_rtc.c ****   if(Format == RTC_FORMAT_BIN)
1289:./Libraries/STM32F4xx_HAL_Driver/Src/stm32f4xx_hal_rtc.c ****   {
1290:./Libraries/STM32F4xx_HAL_Driver/Src/stm32f4xx_hal_rtc.c ****     sAlarm->AlarmTime.Hours = RTC_Bcd2ToByte(sAlarm->AlarmTime.Hours);
1291:./Libraries/STM32F4xx_HAL_Driver/Src/stm32f4xx_hal_rtc.c ****     sAlarm->AlarmTime.Minutes = RTC_Bcd2ToByte(sAlarm->AlarmTime.Minutes);
1292:./Libraries/STM32F4xx_HAL_Driver/Src/stm32f4xx_hal_rtc.c ****     sAlarm->AlarmTime.Seconds = RTC_Bcd2ToByte(sAlarm->AlarmTime.Seconds);
1293:./Libraries/STM32F4xx_HAL_Driver/Src/stm32f4xx_hal_rtc.c ****     sAlarm->AlarmDateWeekDay = RTC_Bcd2ToByte(sAlarm->AlarmDateWeekDay);
1294:./Libraries/STM32F4xx_HAL_Driver/Src/stm32f4xx_hal_rtc.c ****   }  
1295:./Libraries/STM32F4xx_HAL_Driver/Src/stm32f4xx_hal_rtc.c ****     
1296:./Libraries/STM32F4xx_HAL_Driver/Src/stm32f4xx_hal_rtc.c ****   return HAL_OK;
1297:./Libraries/STM32F4xx_HAL_Driver/Src/stm32f4xx_hal_rtc.c **** }
1298:./Libraries/STM32F4xx_HAL_Driver/Src/stm32f4xx_hal_rtc.c **** 
1299:./Libraries/STM32F4xx_HAL_Driver/Src/stm32f4xx_hal_rtc.c **** /**
1300:./Libraries/STM32F4xx_HAL_Driver/Src/stm32f4xx_hal_rtc.c ****   * @brief  This function handles Alarm interrupt request.
1301:./Libraries/STM32F4xx_HAL_Driver/Src/stm32f4xx_hal_rtc.c ****   * @param  hrtc pointer to a RTC_HandleTypeDef structure that contains
1302:./Libraries/STM32F4xx_HAL_Driver/Src/stm32f4xx_hal_rtc.c ****   *                the configuration information for RTC.
1303:./Libraries/STM32F4xx_HAL_Driver/Src/stm32f4xx_hal_rtc.c ****   * @retval None
1304:./Libraries/STM32F4xx_HAL_Driver/Src/stm32f4xx_hal_rtc.c ****   */
1305:./Libraries/STM32F4xx_HAL_Driver/Src/stm32f4xx_hal_rtc.c **** void HAL_RTC_AlarmIRQHandler(RTC_HandleTypeDef* hrtc)
1306:./Libraries/STM32F4xx_HAL_Driver/Src/stm32f4xx_hal_rtc.c **** {  
1307:./Libraries/STM32F4xx_HAL_Driver/Src/stm32f4xx_hal_rtc.c ****   if(__HAL_RTC_ALARM_GET_IT(hrtc, RTC_IT_ALRA))
1308:./Libraries/STM32F4xx_HAL_Driver/Src/stm32f4xx_hal_rtc.c ****   {
1309:./Libraries/STM32F4xx_HAL_Driver/Src/stm32f4xx_hal_rtc.c ****     /* Get the status of the Interrupt */
1310:./Libraries/STM32F4xx_HAL_Driver/Src/stm32f4xx_hal_rtc.c ****     if((uint32_t)(hrtc->Instance->CR & RTC_IT_ALRA) != (uint32_t)RESET)
1311:./Libraries/STM32F4xx_HAL_Driver/Src/stm32f4xx_hal_rtc.c ****     {
1312:./Libraries/STM32F4xx_HAL_Driver/Src/stm32f4xx_hal_rtc.c ****       /* AlarmA callback */ 
ARM GAS  /tmp/ccdJbK3i.s 			page 29


1313:./Libraries/STM32F4xx_HAL_Driver/Src/stm32f4xx_hal_rtc.c ****       HAL_RTC_AlarmAEventCallback(hrtc);
1314:./Libraries/STM32F4xx_HAL_Driver/Src/stm32f4xx_hal_rtc.c ****       
1315:./Libraries/STM32F4xx_HAL_Driver/Src/stm32f4xx_hal_rtc.c ****       /* Clear the Alarm interrupt pending bit */
1316:./Libraries/STM32F4xx_HAL_Driver/Src/stm32f4xx_hal_rtc.c ****       __HAL_RTC_ALARM_CLEAR_FLAG(hrtc,RTC_FLAG_ALRAF);
1317:./Libraries/STM32F4xx_HAL_Driver/Src/stm32f4xx_hal_rtc.c ****     }
1318:./Libraries/STM32F4xx_HAL_Driver/Src/stm32f4xx_hal_rtc.c ****   }
1319:./Libraries/STM32F4xx_HAL_Driver/Src/stm32f4xx_hal_rtc.c ****   
1320:./Libraries/STM32F4xx_HAL_Driver/Src/stm32f4xx_hal_rtc.c ****   if(__HAL_RTC_ALARM_GET_IT(hrtc, RTC_IT_ALRB))
1321:./Libraries/STM32F4xx_HAL_Driver/Src/stm32f4xx_hal_rtc.c ****   {
1322:./Libraries/STM32F4xx_HAL_Driver/Src/stm32f4xx_hal_rtc.c ****     /* Get the status of the Interrupt */
1323:./Libraries/STM32F4xx_HAL_Driver/Src/stm32f4xx_hal_rtc.c ****     if((uint32_t)(hrtc->Instance->CR & RTC_IT_ALRB) != (uint32_t)RESET)
1324:./Libraries/STM32F4xx_HAL_Driver/Src/stm32f4xx_hal_rtc.c ****     {
1325:./Libraries/STM32F4xx_HAL_Driver/Src/stm32f4xx_hal_rtc.c ****       /* AlarmB callback */ 
1326:./Libraries/STM32F4xx_HAL_Driver/Src/stm32f4xx_hal_rtc.c ****       HAL_RTCEx_AlarmBEventCallback(hrtc);
1327:./Libraries/STM32F4xx_HAL_Driver/Src/stm32f4xx_hal_rtc.c ****       
1328:./Libraries/STM32F4xx_HAL_Driver/Src/stm32f4xx_hal_rtc.c ****       /* Clear the Alarm interrupt pending bit */
1329:./Libraries/STM32F4xx_HAL_Driver/Src/stm32f4xx_hal_rtc.c ****       __HAL_RTC_ALARM_CLEAR_FLAG(hrtc,RTC_FLAG_ALRBF);
1330:./Libraries/STM32F4xx_HAL_Driver/Src/stm32f4xx_hal_rtc.c ****     }
1331:./Libraries/STM32F4xx_HAL_Driver/Src/stm32f4xx_hal_rtc.c ****   }
1332:./Libraries/STM32F4xx_HAL_Driver/Src/stm32f4xx_hal_rtc.c ****   
1333:./Libraries/STM32F4xx_HAL_Driver/Src/stm32f4xx_hal_rtc.c ****   /* Clear the EXTI's line Flag for RTC Alarm */
1334:./Libraries/STM32F4xx_HAL_Driver/Src/stm32f4xx_hal_rtc.c ****   __HAL_RTC_ALARM_EXTI_CLEAR_FLAG();
1335:./Libraries/STM32F4xx_HAL_Driver/Src/stm32f4xx_hal_rtc.c ****   
1336:./Libraries/STM32F4xx_HAL_Driver/Src/stm32f4xx_hal_rtc.c ****   /* Change RTC state */
1337:./Libraries/STM32F4xx_HAL_Driver/Src/stm32f4xx_hal_rtc.c ****   hrtc->State = HAL_RTC_STATE_READY; 
1338:./Libraries/STM32F4xx_HAL_Driver/Src/stm32f4xx_hal_rtc.c **** }
1339:./Libraries/STM32F4xx_HAL_Driver/Src/stm32f4xx_hal_rtc.c **** 
1340:./Libraries/STM32F4xx_HAL_Driver/Src/stm32f4xx_hal_rtc.c **** /**
1341:./Libraries/STM32F4xx_HAL_Driver/Src/stm32f4xx_hal_rtc.c ****   * @brief  Alarm A callback.
1342:./Libraries/STM32F4xx_HAL_Driver/Src/stm32f4xx_hal_rtc.c ****   * @param  hrtc pointer to a RTC_HandleTypeDef structure that contains
1343:./Libraries/STM32F4xx_HAL_Driver/Src/stm32f4xx_hal_rtc.c ****   *                the configuration information for RTC.
1344:./Libraries/STM32F4xx_HAL_Driver/Src/stm32f4xx_hal_rtc.c ****   * @retval None
1345:./Libraries/STM32F4xx_HAL_Driver/Src/stm32f4xx_hal_rtc.c ****   */
1346:./Libraries/STM32F4xx_HAL_Driver/Src/stm32f4xx_hal_rtc.c **** __weak void HAL_RTC_AlarmAEventCallback(RTC_HandleTypeDef *hrtc)
1347:./Libraries/STM32F4xx_HAL_Driver/Src/stm32f4xx_hal_rtc.c **** {
 267              		.loc 1 1347 1 is_stmt 1 view -0
 268              		.cfi_startproc
 269              		@ args = 0, pretend = 0, frame = 0
 270              		@ frame_needed = 0, uses_anonymous_args = 0
 271              		@ link register save eliminated.
1348:./Libraries/STM32F4xx_HAL_Driver/Src/stm32f4xx_hal_rtc.c ****   /* Prevent unused argument(s) compilation warning */
1349:./Libraries/STM32F4xx_HAL_Driver/Src/stm32f4xx_hal_rtc.c ****   UNUSED(hrtc);
 272              		.loc 1 1349 3 view .LVU81
1350:./Libraries/STM32F4xx_HAL_Driver/Src/stm32f4xx_hal_rtc.c ****   /* NOTE : This function Should not be modified, when the callback is needed,
1351:./Libraries/STM32F4xx_HAL_Driver/Src/stm32f4xx_hal_rtc.c ****             the HAL_RTC_AlarmAEventCallback could be implemented in the user file
1352:./Libraries/STM32F4xx_HAL_Driver/Src/stm32f4xx_hal_rtc.c ****    */
1353:./Libraries/STM32F4xx_HAL_Driver/Src/stm32f4xx_hal_rtc.c **** }
 273              		.loc 1 1353 1 is_stmt 0 view .LVU82
 274 0000 7047     		bx	lr
 275              		.cfi_endproc
 276              	.LFE139:
 278              		.section	.text.HAL_RTC_AlarmIRQHandler,"ax",%progbits
 279              		.align	1
 280              		.global	HAL_RTC_AlarmIRQHandler
 281              		.syntax unified
 282              		.thumb
 283              		.thumb_func
ARM GAS  /tmp/ccdJbK3i.s 			page 30


 284              		.fpu fpv4-sp-d16
 286              	HAL_RTC_AlarmIRQHandler:
 287              	.LVL15:
 288              	.LFB138:
1306:./Libraries/STM32F4xx_HAL_Driver/Src/stm32f4xx_hal_rtc.c ****   if(__HAL_RTC_ALARM_GET_IT(hrtc, RTC_IT_ALRA))
 289              		.loc 1 1306 1 is_stmt 1 view -0
 290              		.cfi_startproc
 291              		@ args = 0, pretend = 0, frame = 0
 292              		@ frame_needed = 0, uses_anonymous_args = 0
1306:./Libraries/STM32F4xx_HAL_Driver/Src/stm32f4xx_hal_rtc.c ****   if(__HAL_RTC_ALARM_GET_IT(hrtc, RTC_IT_ALRA))
 293              		.loc 1 1306 1 is_stmt 0 view .LVU84
 294 0000 10B5     		push	{r4, lr}
 295              	.LCFI1:
 296              		.cfi_def_cfa_offset 8
 297              		.cfi_offset 4, -8
 298              		.cfi_offset 14, -4
 299 0002 0446     		mov	r4, r0
1307:./Libraries/STM32F4xx_HAL_Driver/Src/stm32f4xx_hal_rtc.c ****   {
 300              		.loc 1 1307 3 is_stmt 1 view .LVU85
1307:./Libraries/STM32F4xx_HAL_Driver/Src/stm32f4xx_hal_rtc.c ****   {
 301              		.loc 1 1307 6 is_stmt 0 view .LVU86
 302 0004 0368     		ldr	r3, [r0]
 303 0006 DA68     		ldr	r2, [r3, #12]
1307:./Libraries/STM32F4xx_HAL_Driver/Src/stm32f4xx_hal_rtc.c ****   {
 304              		.loc 1 1307 5 view .LVU87
 305 0008 12F4807F 		tst	r2, #256
 306 000c 03D0     		beq	.L16
1310:./Libraries/STM32F4xx_HAL_Driver/Src/stm32f4xx_hal_rtc.c ****     {
 307              		.loc 1 1310 5 is_stmt 1 view .LVU88
1310:./Libraries/STM32F4xx_HAL_Driver/Src/stm32f4xx_hal_rtc.c ****     {
 308              		.loc 1 1310 33 is_stmt 0 view .LVU89
 309 000e 9B68     		ldr	r3, [r3, #8]
1310:./Libraries/STM32F4xx_HAL_Driver/Src/stm32f4xx_hal_rtc.c ****     {
 310              		.loc 1 1310 7 view .LVU90
 311 0010 13F4805F 		tst	r3, #4096
 312 0014 0FD1     		bne	.L19
 313              	.LVL16:
 314              	.L16:
1320:./Libraries/STM32F4xx_HAL_Driver/Src/stm32f4xx_hal_rtc.c ****   {
 315              		.loc 1 1320 3 is_stmt 1 view .LVU91
1320:./Libraries/STM32F4xx_HAL_Driver/Src/stm32f4xx_hal_rtc.c ****   {
 316              		.loc 1 1320 6 is_stmt 0 view .LVU92
 317 0016 2368     		ldr	r3, [r4]
 318 0018 DA68     		ldr	r2, [r3, #12]
1320:./Libraries/STM32F4xx_HAL_Driver/Src/stm32f4xx_hal_rtc.c ****   {
 319              		.loc 1 1320 5 view .LVU93
 320 001a 12F4007F 		tst	r2, #512
 321 001e 03D0     		beq	.L17
1323:./Libraries/STM32F4xx_HAL_Driver/Src/stm32f4xx_hal_rtc.c ****     {
 322              		.loc 1 1323 5 is_stmt 1 view .LVU94
1323:./Libraries/STM32F4xx_HAL_Driver/Src/stm32f4xx_hal_rtc.c ****     {
 323              		.loc 1 1323 33 is_stmt 0 view .LVU95
 324 0020 9B68     		ldr	r3, [r3, #8]
1323:./Libraries/STM32F4xx_HAL_Driver/Src/stm32f4xx_hal_rtc.c ****     {
 325              		.loc 1 1323 7 view .LVU96
 326 0022 13F4005F 		tst	r3, #8192
 327 0026 0FD1     		bne	.L20
ARM GAS  /tmp/ccdJbK3i.s 			page 31


 328              	.L17:
1334:./Libraries/STM32F4xx_HAL_Driver/Src/stm32f4xx_hal_rtc.c ****   
 329              		.loc 1 1334 3 is_stmt 1 view .LVU97
 330 0028 0C4B     		ldr	r3, .L21
 331 002a 4FF40032 		mov	r2, #131072
 332 002e 5A61     		str	r2, [r3, #20]
1337:./Libraries/STM32F4xx_HAL_Driver/Src/stm32f4xx_hal_rtc.c **** }
 333              		.loc 1 1337 3 view .LVU98
1337:./Libraries/STM32F4xx_HAL_Driver/Src/stm32f4xx_hal_rtc.c **** }
 334              		.loc 1 1337 15 is_stmt 0 view .LVU99
 335 0030 0123     		movs	r3, #1
 336 0032 6377     		strb	r3, [r4, #29]
1338:./Libraries/STM32F4xx_HAL_Driver/Src/stm32f4xx_hal_rtc.c **** 
 337              		.loc 1 1338 1 view .LVU100
 338 0034 10BD     		pop	{r4, pc}
 339              	.LVL17:
 340              	.L19:
1313:./Libraries/STM32F4xx_HAL_Driver/Src/stm32f4xx_hal_rtc.c ****       
 341              		.loc 1 1313 7 is_stmt 1 view .LVU101
 342 0036 FFF7FEFF 		bl	HAL_RTC_AlarmAEventCallback
 343              	.LVL18:
1316:./Libraries/STM32F4xx_HAL_Driver/Src/stm32f4xx_hal_rtc.c ****     }
 344              		.loc 1 1316 7 view .LVU102
 345 003a 2268     		ldr	r2, [r4]
 346 003c D368     		ldr	r3, [r2, #12]
 347 003e DBB2     		uxtb	r3, r3
 348 0040 63F4C073 		orn	r3, r3, #384
 349 0044 D360     		str	r3, [r2, #12]
 350 0046 E6E7     		b	.L16
 351              	.L20:
1326:./Libraries/STM32F4xx_HAL_Driver/Src/stm32f4xx_hal_rtc.c ****       
 352              		.loc 1 1326 7 view .LVU103
 353 0048 2046     		mov	r0, r4
 354 004a FFF7FEFF 		bl	HAL_RTCEx_AlarmBEventCallback
 355              	.LVL19:
1329:./Libraries/STM32F4xx_HAL_Driver/Src/stm32f4xx_hal_rtc.c ****     }
 356              		.loc 1 1329 7 view .LVU104
 357 004e 2268     		ldr	r2, [r4]
 358 0050 D368     		ldr	r3, [r2, #12]
 359 0052 DBB2     		uxtb	r3, r3
 360 0054 63F42073 		orn	r3, r3, #640
 361 0058 D360     		str	r3, [r2, #12]
 362 005a E5E7     		b	.L17
 363              	.L22:
 364              		.align	2
 365              	.L21:
 366 005c 003C0140 		.word	1073822720
 367              		.cfi_endproc
 368              	.LFE138:
 370              		.section	.text.HAL_RTC_PollForAlarmAEvent,"ax",%progbits
 371              		.align	1
 372              		.global	HAL_RTC_PollForAlarmAEvent
 373              		.syntax unified
 374              		.thumb
 375              		.thumb_func
 376              		.fpu fpv4-sp-d16
 378              	HAL_RTC_PollForAlarmAEvent:
ARM GAS  /tmp/ccdJbK3i.s 			page 32


 379              	.LVL20:
 380              	.LFB140:
1354:./Libraries/STM32F4xx_HAL_Driver/Src/stm32f4xx_hal_rtc.c **** 
1355:./Libraries/STM32F4xx_HAL_Driver/Src/stm32f4xx_hal_rtc.c **** /**
1356:./Libraries/STM32F4xx_HAL_Driver/Src/stm32f4xx_hal_rtc.c ****   * @brief  This function handles AlarmA Polling request.
1357:./Libraries/STM32F4xx_HAL_Driver/Src/stm32f4xx_hal_rtc.c ****   * @param  hrtc pointer to a RTC_HandleTypeDef structure that contains
1358:./Libraries/STM32F4xx_HAL_Driver/Src/stm32f4xx_hal_rtc.c ****   *                the configuration information for RTC.
1359:./Libraries/STM32F4xx_HAL_Driver/Src/stm32f4xx_hal_rtc.c ****   * @param  Timeout Timeout duration
1360:./Libraries/STM32F4xx_HAL_Driver/Src/stm32f4xx_hal_rtc.c ****   * @retval HAL status
1361:./Libraries/STM32F4xx_HAL_Driver/Src/stm32f4xx_hal_rtc.c ****   */
1362:./Libraries/STM32F4xx_HAL_Driver/Src/stm32f4xx_hal_rtc.c **** HAL_StatusTypeDef HAL_RTC_PollForAlarmAEvent(RTC_HandleTypeDef *hrtc, uint32_t Timeout)
1363:./Libraries/STM32F4xx_HAL_Driver/Src/stm32f4xx_hal_rtc.c **** {
 381              		.loc 1 1363 1 view -0
 382              		.cfi_startproc
 383              		@ args = 0, pretend = 0, frame = 0
 384              		@ frame_needed = 0, uses_anonymous_args = 0
 385              		.loc 1 1363 1 is_stmt 0 view .LVU106
 386 0000 70B5     		push	{r4, r5, r6, lr}
 387              	.LCFI2:
 388              		.cfi_def_cfa_offset 16
 389              		.cfi_offset 4, -16
 390              		.cfi_offset 5, -12
 391              		.cfi_offset 6, -8
 392              		.cfi_offset 14, -4
 393 0002 0446     		mov	r4, r0
 394 0004 0D46     		mov	r5, r1
1364:./Libraries/STM32F4xx_HAL_Driver/Src/stm32f4xx_hal_rtc.c ****   uint32_t tickstart = 0U; 
 395              		.loc 1 1364 3 is_stmt 1 view .LVU107
 396              	.LVL21:
1365:./Libraries/STM32F4xx_HAL_Driver/Src/stm32f4xx_hal_rtc.c **** 
1366:./Libraries/STM32F4xx_HAL_Driver/Src/stm32f4xx_hal_rtc.c ****     /* Get tick */
1367:./Libraries/STM32F4xx_HAL_Driver/Src/stm32f4xx_hal_rtc.c ****     tickstart = HAL_GetTick();
 397              		.loc 1 1367 5 view .LVU108
 398              		.loc 1 1367 17 is_stmt 0 view .LVU109
 399 0006 FFF7FEFF 		bl	HAL_GetTick
 400              	.LVL22:
 401              		.loc 1 1367 17 view .LVU110
 402 000a 0646     		mov	r6, r0
 403              	.LVL23:
1368:./Libraries/STM32F4xx_HAL_Driver/Src/stm32f4xx_hal_rtc.c **** 
1369:./Libraries/STM32F4xx_HAL_Driver/Src/stm32f4xx_hal_rtc.c ****   while(__HAL_RTC_ALARM_GET_FLAG(hrtc, RTC_FLAG_ALRAF) == RESET)
 404              		.loc 1 1369 3 is_stmt 1 view .LVU111
 405              	.L25:
 406              		.loc 1 1369 8 view .LVU112
 407              		.loc 1 1369 9 is_stmt 0 view .LVU113
 408 000c 2368     		ldr	r3, [r4]
 409 000e DA68     		ldr	r2, [r3, #12]
 410              		.loc 1 1369 8 view .LVU114
 411 0010 12F4807F 		tst	r2, #256
 412 0014 0BD1     		bne	.L30
1370:./Libraries/STM32F4xx_HAL_Driver/Src/stm32f4xx_hal_rtc.c ****   {
1371:./Libraries/STM32F4xx_HAL_Driver/Src/stm32f4xx_hal_rtc.c ****     if(Timeout != HAL_MAX_DELAY)
 413              		.loc 1 1371 5 is_stmt 1 view .LVU115
 414              		.loc 1 1371 7 is_stmt 0 view .LVU116
 415 0016 B5F1FF3F 		cmp	r5, #-1
 416 001a F7D0     		beq	.L25
1372:./Libraries/STM32F4xx_HAL_Driver/Src/stm32f4xx_hal_rtc.c ****     {
ARM GAS  /tmp/ccdJbK3i.s 			page 33


1373:./Libraries/STM32F4xx_HAL_Driver/Src/stm32f4xx_hal_rtc.c ****       if((Timeout == 0U)||((HAL_GetTick() - tickstart ) > Timeout))
 417              		.loc 1 1373 7 is_stmt 1 view .LVU117
 418              		.loc 1 1373 9 is_stmt 0 view .LVU118
 419 001c 25B1     		cbz	r5, .L26
 420              		.loc 1 1373 29 discriminator 1 view .LVU119
 421 001e FFF7FEFF 		bl	HAL_GetTick
 422              	.LVL24:
 423              		.loc 1 1373 43 discriminator 1 view .LVU120
 424 0022 801B     		subs	r0, r0, r6
 425              		.loc 1 1373 25 discriminator 1 view .LVU121
 426 0024 A842     		cmp	r0, r5
 427 0026 F1D9     		bls	.L25
 428              	.L26:
1374:./Libraries/STM32F4xx_HAL_Driver/Src/stm32f4xx_hal_rtc.c ****       {
1375:./Libraries/STM32F4xx_HAL_Driver/Src/stm32f4xx_hal_rtc.c ****         hrtc->State = HAL_RTC_STATE_TIMEOUT;
 429              		.loc 1 1375 9 is_stmt 1 view .LVU122
 430              		.loc 1 1375 21 is_stmt 0 view .LVU123
 431 0028 0320     		movs	r0, #3
 432 002a 6077     		strb	r0, [r4, #29]
1376:./Libraries/STM32F4xx_HAL_Driver/Src/stm32f4xx_hal_rtc.c ****         return HAL_TIMEOUT;
 433              		.loc 1 1376 9 is_stmt 1 view .LVU124
 434              		.loc 1 1376 16 is_stmt 0 view .LVU125
 435 002c 07E0     		b	.L27
 436              	.L30:
1377:./Libraries/STM32F4xx_HAL_Driver/Src/stm32f4xx_hal_rtc.c ****       }
1378:./Libraries/STM32F4xx_HAL_Driver/Src/stm32f4xx_hal_rtc.c ****     }
1379:./Libraries/STM32F4xx_HAL_Driver/Src/stm32f4xx_hal_rtc.c ****   }
1380:./Libraries/STM32F4xx_HAL_Driver/Src/stm32f4xx_hal_rtc.c ****   
1381:./Libraries/STM32F4xx_HAL_Driver/Src/stm32f4xx_hal_rtc.c ****   /* Clear the Alarm interrupt pending bit */
1382:./Libraries/STM32F4xx_HAL_Driver/Src/stm32f4xx_hal_rtc.c ****   __HAL_RTC_ALARM_CLEAR_FLAG(hrtc, RTC_FLAG_ALRAF);
 437              		.loc 1 1382 3 is_stmt 1 view .LVU126
 438 002e DA68     		ldr	r2, [r3, #12]
 439 0030 D2B2     		uxtb	r2, r2
 440 0032 62F4C072 		orn	r2, r2, #384
 441 0036 DA60     		str	r2, [r3, #12]
1383:./Libraries/STM32F4xx_HAL_Driver/Src/stm32f4xx_hal_rtc.c ****   
1384:./Libraries/STM32F4xx_HAL_Driver/Src/stm32f4xx_hal_rtc.c ****   /* Change RTC state */
1385:./Libraries/STM32F4xx_HAL_Driver/Src/stm32f4xx_hal_rtc.c ****   hrtc->State = HAL_RTC_STATE_READY; 
 442              		.loc 1 1385 3 view .LVU127
 443              		.loc 1 1385 15 is_stmt 0 view .LVU128
 444 0038 0123     		movs	r3, #1
 445 003a 6377     		strb	r3, [r4, #29]
1386:./Libraries/STM32F4xx_HAL_Driver/Src/stm32f4xx_hal_rtc.c ****   
1387:./Libraries/STM32F4xx_HAL_Driver/Src/stm32f4xx_hal_rtc.c ****   return HAL_OK;  
 446              		.loc 1 1387 3 is_stmt 1 view .LVU129
 447              		.loc 1 1387 10 is_stmt 0 view .LVU130
 448 003c 0020     		movs	r0, #0
 449              	.L27:
1388:./Libraries/STM32F4xx_HAL_Driver/Src/stm32f4xx_hal_rtc.c **** }
 450              		.loc 1 1388 1 view .LVU131
 451 003e 70BD     		pop	{r4, r5, r6, pc}
 452              		.loc 1 1388 1 view .LVU132
 453              		.cfi_endproc
 454              	.LFE140:
 456              		.section	.text.HAL_RTC_WaitForSynchro,"ax",%progbits
 457              		.align	1
 458              		.global	HAL_RTC_WaitForSynchro
ARM GAS  /tmp/ccdJbK3i.s 			page 34


 459              		.syntax unified
 460              		.thumb
 461              		.thumb_func
 462              		.fpu fpv4-sp-d16
 464              	HAL_RTC_WaitForSynchro:
 465              	.LVL25:
 466              	.LFB141:
1389:./Libraries/STM32F4xx_HAL_Driver/Src/stm32f4xx_hal_rtc.c **** 
1390:./Libraries/STM32F4xx_HAL_Driver/Src/stm32f4xx_hal_rtc.c **** /**
1391:./Libraries/STM32F4xx_HAL_Driver/Src/stm32f4xx_hal_rtc.c ****   * @}
1392:./Libraries/STM32F4xx_HAL_Driver/Src/stm32f4xx_hal_rtc.c ****   */
1393:./Libraries/STM32F4xx_HAL_Driver/Src/stm32f4xx_hal_rtc.c **** 
1394:./Libraries/STM32F4xx_HAL_Driver/Src/stm32f4xx_hal_rtc.c **** /** @defgroup RTC_Exported_Functions_Group4 Peripheral Control functions 
1395:./Libraries/STM32F4xx_HAL_Driver/Src/stm32f4xx_hal_rtc.c ****  *  @brief   Peripheral Control functions 
1396:./Libraries/STM32F4xx_HAL_Driver/Src/stm32f4xx_hal_rtc.c ****  *
1397:./Libraries/STM32F4xx_HAL_Driver/Src/stm32f4xx_hal_rtc.c **** @verbatim   
1398:./Libraries/STM32F4xx_HAL_Driver/Src/stm32f4xx_hal_rtc.c ****  ===============================================================================
1399:./Libraries/STM32F4xx_HAL_Driver/Src/stm32f4xx_hal_rtc.c ****                      ##### Peripheral Control functions #####
1400:./Libraries/STM32F4xx_HAL_Driver/Src/stm32f4xx_hal_rtc.c ****  ===============================================================================  
1401:./Libraries/STM32F4xx_HAL_Driver/Src/stm32f4xx_hal_rtc.c ****     [..]
1402:./Libraries/STM32F4xx_HAL_Driver/Src/stm32f4xx_hal_rtc.c ****     This subsection provides functions allowing to
1403:./Libraries/STM32F4xx_HAL_Driver/Src/stm32f4xx_hal_rtc.c ****       (+) Wait for RTC Time and Date Synchronization
1404:./Libraries/STM32F4xx_HAL_Driver/Src/stm32f4xx_hal_rtc.c **** 
1405:./Libraries/STM32F4xx_HAL_Driver/Src/stm32f4xx_hal_rtc.c **** @endverbatim
1406:./Libraries/STM32F4xx_HAL_Driver/Src/stm32f4xx_hal_rtc.c ****   * @{
1407:./Libraries/STM32F4xx_HAL_Driver/Src/stm32f4xx_hal_rtc.c ****   */
1408:./Libraries/STM32F4xx_HAL_Driver/Src/stm32f4xx_hal_rtc.c **** 
1409:./Libraries/STM32F4xx_HAL_Driver/Src/stm32f4xx_hal_rtc.c **** /**
1410:./Libraries/STM32F4xx_HAL_Driver/Src/stm32f4xx_hal_rtc.c ****   * @brief  Waits until the RTC Time and Date registers (RTC_TR and RTC_DR) are 
1411:./Libraries/STM32F4xx_HAL_Driver/Src/stm32f4xx_hal_rtc.c ****   *         synchronized with RTC APB clock.
1412:./Libraries/STM32F4xx_HAL_Driver/Src/stm32f4xx_hal_rtc.c ****   * @note   The RTC Resynchronization mode is write protected, use the 
1413:./Libraries/STM32F4xx_HAL_Driver/Src/stm32f4xx_hal_rtc.c ****   *         __HAL_RTC_WRITEPROTECTION_DISABLE() before calling this function. 
1414:./Libraries/STM32F4xx_HAL_Driver/Src/stm32f4xx_hal_rtc.c ****   * @note   To read the calendar through the shadow registers after Calendar 
1415:./Libraries/STM32F4xx_HAL_Driver/Src/stm32f4xx_hal_rtc.c ****   *         initialization, calendar update or after wake-up from low power modes 
1416:./Libraries/STM32F4xx_HAL_Driver/Src/stm32f4xx_hal_rtc.c ****   *         the software must first clear the RSF flag. 
1417:./Libraries/STM32F4xx_HAL_Driver/Src/stm32f4xx_hal_rtc.c ****   *         The software must then wait until it is set again before reading 
1418:./Libraries/STM32F4xx_HAL_Driver/Src/stm32f4xx_hal_rtc.c ****   *         the calendar, which means that the calendar registers have been 
1419:./Libraries/STM32F4xx_HAL_Driver/Src/stm32f4xx_hal_rtc.c ****   *         correctly copied into the RTC_TR and RTC_DR shadow registers.   
1420:./Libraries/STM32F4xx_HAL_Driver/Src/stm32f4xx_hal_rtc.c ****   * @param  hrtc pointer to a RTC_HandleTypeDef structure that contains
1421:./Libraries/STM32F4xx_HAL_Driver/Src/stm32f4xx_hal_rtc.c ****   *                the configuration information for RTC.
1422:./Libraries/STM32F4xx_HAL_Driver/Src/stm32f4xx_hal_rtc.c ****   * @retval HAL status
1423:./Libraries/STM32F4xx_HAL_Driver/Src/stm32f4xx_hal_rtc.c ****   */
1424:./Libraries/STM32F4xx_HAL_Driver/Src/stm32f4xx_hal_rtc.c **** HAL_StatusTypeDef HAL_RTC_WaitForSynchro(RTC_HandleTypeDef* hrtc)
1425:./Libraries/STM32F4xx_HAL_Driver/Src/stm32f4xx_hal_rtc.c **** {
 467              		.loc 1 1425 1 is_stmt 1 view -0
 468              		.cfi_startproc
 469              		@ args = 0, pretend = 0, frame = 0
 470              		@ frame_needed = 0, uses_anonymous_args = 0
 471              		.loc 1 1425 1 is_stmt 0 view .LVU134
 472 0000 38B5     		push	{r3, r4, r5, lr}
 473              	.LCFI3:
 474              		.cfi_def_cfa_offset 16
 475              		.cfi_offset 3, -16
 476              		.cfi_offset 4, -12
 477              		.cfi_offset 5, -8
 478              		.cfi_offset 14, -4
 479 0002 0446     		mov	r4, r0
ARM GAS  /tmp/ccdJbK3i.s 			page 35


1426:./Libraries/STM32F4xx_HAL_Driver/Src/stm32f4xx_hal_rtc.c ****   uint32_t tickstart = 0U;
 480              		.loc 1 1426 3 is_stmt 1 view .LVU135
 481              	.LVL26:
1427:./Libraries/STM32F4xx_HAL_Driver/Src/stm32f4xx_hal_rtc.c **** 
1428:./Libraries/STM32F4xx_HAL_Driver/Src/stm32f4xx_hal_rtc.c ****   /* Clear RSF flag */
1429:./Libraries/STM32F4xx_HAL_Driver/Src/stm32f4xx_hal_rtc.c ****   hrtc->Instance->ISR &= (uint32_t)RTC_RSF_MASK;
 482              		.loc 1 1429 3 view .LVU136
 483              		.loc 1 1429 7 is_stmt 0 view .LVU137
 484 0004 0268     		ldr	r2, [r0]
 485              		.loc 1 1429 23 view .LVU138
 486 0006 D368     		ldr	r3, [r2, #12]
 487 0008 23F0A003 		bic	r3, r3, #160
 488 000c D360     		str	r3, [r2, #12]
1430:./Libraries/STM32F4xx_HAL_Driver/Src/stm32f4xx_hal_rtc.c **** 
1431:./Libraries/STM32F4xx_HAL_Driver/Src/stm32f4xx_hal_rtc.c ****     /* Get tick */
1432:./Libraries/STM32F4xx_HAL_Driver/Src/stm32f4xx_hal_rtc.c ****     tickstart = HAL_GetTick();
 489              		.loc 1 1432 5 is_stmt 1 view .LVU139
 490              		.loc 1 1432 17 is_stmt 0 view .LVU140
 491 000e FFF7FEFF 		bl	HAL_GetTick
 492              	.LVL27:
 493              		.loc 1 1432 17 view .LVU141
 494 0012 0546     		mov	r5, r0
 495              	.LVL28:
1433:./Libraries/STM32F4xx_HAL_Driver/Src/stm32f4xx_hal_rtc.c **** 
1434:./Libraries/STM32F4xx_HAL_Driver/Src/stm32f4xx_hal_rtc.c ****   /* Wait the registers to be synchronised */
1435:./Libraries/STM32F4xx_HAL_Driver/Src/stm32f4xx_hal_rtc.c ****   while((hrtc->Instance->ISR & RTC_ISR_RSF) == (uint32_t)RESET)
 496              		.loc 1 1435 3 is_stmt 1 view .LVU142
 497              	.L32:
 498              		.loc 1 1435 8 view .LVU143
 499              		.loc 1 1435 14 is_stmt 0 view .LVU144
 500 0014 2368     		ldr	r3, [r4]
 501              		.loc 1 1435 24 view .LVU145
 502 0016 DB68     		ldr	r3, [r3, #12]
 503              		.loc 1 1435 8 view .LVU146
 504 0018 13F0200F 		tst	r3, #32
 505 001c 07D1     		bne	.L37
1436:./Libraries/STM32F4xx_HAL_Driver/Src/stm32f4xx_hal_rtc.c ****   {
1437:./Libraries/STM32F4xx_HAL_Driver/Src/stm32f4xx_hal_rtc.c ****     if((HAL_GetTick() - tickstart ) > RTC_TIMEOUT_VALUE)
 506              		.loc 1 1437 5 is_stmt 1 view .LVU147
 507              		.loc 1 1437 9 is_stmt 0 view .LVU148
 508 001e FFF7FEFF 		bl	HAL_GetTick
 509              	.LVL29:
 510              		.loc 1 1437 23 view .LVU149
 511 0022 401B     		subs	r0, r0, r5
 512              		.loc 1 1437 7 view .LVU150
 513 0024 B0F57A7F 		cmp	r0, #1000
 514 0028 F4D9     		bls	.L32
1438:./Libraries/STM32F4xx_HAL_Driver/Src/stm32f4xx_hal_rtc.c ****     {       
1439:./Libraries/STM32F4xx_HAL_Driver/Src/stm32f4xx_hal_rtc.c ****       return HAL_TIMEOUT;
 515              		.loc 1 1439 14 view .LVU151
 516 002a 0320     		movs	r0, #3
 517 002c 00E0     		b	.L33
 518              	.L37:
1440:./Libraries/STM32F4xx_HAL_Driver/Src/stm32f4xx_hal_rtc.c ****     } 
1441:./Libraries/STM32F4xx_HAL_Driver/Src/stm32f4xx_hal_rtc.c ****   }
1442:./Libraries/STM32F4xx_HAL_Driver/Src/stm32f4xx_hal_rtc.c **** 
1443:./Libraries/STM32F4xx_HAL_Driver/Src/stm32f4xx_hal_rtc.c ****   return HAL_OK;
ARM GAS  /tmp/ccdJbK3i.s 			page 36


 519              		.loc 1 1443 10 view .LVU152
 520 002e 0020     		movs	r0, #0
 521              	.L33:
1444:./Libraries/STM32F4xx_HAL_Driver/Src/stm32f4xx_hal_rtc.c **** }
 522              		.loc 1 1444 1 view .LVU153
 523 0030 38BD     		pop	{r3, r4, r5, pc}
 524              		.loc 1 1444 1 view .LVU154
 525              		.cfi_endproc
 526              	.LFE141:
 528              		.section	.text.HAL_RTC_GetState,"ax",%progbits
 529              		.align	1
 530              		.global	HAL_RTC_GetState
 531              		.syntax unified
 532              		.thumb
 533              		.thumb_func
 534              		.fpu fpv4-sp-d16
 536              	HAL_RTC_GetState:
 537              	.LVL30:
 538              	.LFB142:
1445:./Libraries/STM32F4xx_HAL_Driver/Src/stm32f4xx_hal_rtc.c **** 
1446:./Libraries/STM32F4xx_HAL_Driver/Src/stm32f4xx_hal_rtc.c **** /**
1447:./Libraries/STM32F4xx_HAL_Driver/Src/stm32f4xx_hal_rtc.c ****   * @}
1448:./Libraries/STM32F4xx_HAL_Driver/Src/stm32f4xx_hal_rtc.c ****   */
1449:./Libraries/STM32F4xx_HAL_Driver/Src/stm32f4xx_hal_rtc.c **** 
1450:./Libraries/STM32F4xx_HAL_Driver/Src/stm32f4xx_hal_rtc.c **** /** @defgroup RTC_Exported_Functions_Group5 Peripheral State functions 
1451:./Libraries/STM32F4xx_HAL_Driver/Src/stm32f4xx_hal_rtc.c ****  *  @brief   Peripheral State functions 
1452:./Libraries/STM32F4xx_HAL_Driver/Src/stm32f4xx_hal_rtc.c ****  *
1453:./Libraries/STM32F4xx_HAL_Driver/Src/stm32f4xx_hal_rtc.c **** @verbatim   
1454:./Libraries/STM32F4xx_HAL_Driver/Src/stm32f4xx_hal_rtc.c ****  ===============================================================================
1455:./Libraries/STM32F4xx_HAL_Driver/Src/stm32f4xx_hal_rtc.c ****                      ##### Peripheral State functions #####
1456:./Libraries/STM32F4xx_HAL_Driver/Src/stm32f4xx_hal_rtc.c ****  ===============================================================================  
1457:./Libraries/STM32F4xx_HAL_Driver/Src/stm32f4xx_hal_rtc.c ****     [..]
1458:./Libraries/STM32F4xx_HAL_Driver/Src/stm32f4xx_hal_rtc.c ****     This subsection provides functions allowing to
1459:./Libraries/STM32F4xx_HAL_Driver/Src/stm32f4xx_hal_rtc.c ****       (+) Get RTC state
1460:./Libraries/STM32F4xx_HAL_Driver/Src/stm32f4xx_hal_rtc.c **** 
1461:./Libraries/STM32F4xx_HAL_Driver/Src/stm32f4xx_hal_rtc.c **** @endverbatim
1462:./Libraries/STM32F4xx_HAL_Driver/Src/stm32f4xx_hal_rtc.c ****   * @{
1463:./Libraries/STM32F4xx_HAL_Driver/Src/stm32f4xx_hal_rtc.c ****   */
1464:./Libraries/STM32F4xx_HAL_Driver/Src/stm32f4xx_hal_rtc.c **** /**
1465:./Libraries/STM32F4xx_HAL_Driver/Src/stm32f4xx_hal_rtc.c ****   * @brief  Returns the RTC state.
1466:./Libraries/STM32F4xx_HAL_Driver/Src/stm32f4xx_hal_rtc.c ****   * @param  hrtc pointer to a RTC_HandleTypeDef structure that contains
1467:./Libraries/STM32F4xx_HAL_Driver/Src/stm32f4xx_hal_rtc.c ****   *                the configuration information for RTC.
1468:./Libraries/STM32F4xx_HAL_Driver/Src/stm32f4xx_hal_rtc.c ****   * @retval HAL state
1469:./Libraries/STM32F4xx_HAL_Driver/Src/stm32f4xx_hal_rtc.c ****   */
1470:./Libraries/STM32F4xx_HAL_Driver/Src/stm32f4xx_hal_rtc.c **** HAL_RTCStateTypeDef HAL_RTC_GetState(RTC_HandleTypeDef* hrtc)
1471:./Libraries/STM32F4xx_HAL_Driver/Src/stm32f4xx_hal_rtc.c **** {
 539              		.loc 1 1471 1 is_stmt 1 view -0
 540              		.cfi_startproc
 541              		@ args = 0, pretend = 0, frame = 0
 542              		@ frame_needed = 0, uses_anonymous_args = 0
 543              		@ link register save eliminated.
1472:./Libraries/STM32F4xx_HAL_Driver/Src/stm32f4xx_hal_rtc.c ****   return hrtc->State;
 544              		.loc 1 1472 3 view .LVU156
 545              		.loc 1 1472 14 is_stmt 0 view .LVU157
 546 0000 407F     		ldrb	r0, [r0, #29]	@ zero_extendqisi2
 547              	.LVL31:
1473:./Libraries/STM32F4xx_HAL_Driver/Src/stm32f4xx_hal_rtc.c **** }
ARM GAS  /tmp/ccdJbK3i.s 			page 37


 548              		.loc 1 1473 1 view .LVU158
 549 0002 7047     		bx	lr
 550              		.cfi_endproc
 551              	.LFE142:
 553              		.section	.text.RTC_EnterInitMode,"ax",%progbits
 554              		.align	1
 555              		.global	RTC_EnterInitMode
 556              		.syntax unified
 557              		.thumb
 558              		.thumb_func
 559              		.fpu fpv4-sp-d16
 561              	RTC_EnterInitMode:
 562              	.LVL32:
 563              	.LFB143:
1474:./Libraries/STM32F4xx_HAL_Driver/Src/stm32f4xx_hal_rtc.c **** 
1475:./Libraries/STM32F4xx_HAL_Driver/Src/stm32f4xx_hal_rtc.c **** /**
1476:./Libraries/STM32F4xx_HAL_Driver/Src/stm32f4xx_hal_rtc.c ****   * @}
1477:./Libraries/STM32F4xx_HAL_Driver/Src/stm32f4xx_hal_rtc.c ****   */
1478:./Libraries/STM32F4xx_HAL_Driver/Src/stm32f4xx_hal_rtc.c **** 
1479:./Libraries/STM32F4xx_HAL_Driver/Src/stm32f4xx_hal_rtc.c **** /**
1480:./Libraries/STM32F4xx_HAL_Driver/Src/stm32f4xx_hal_rtc.c ****   * @brief  Enters the RTC Initialization mode.
1481:./Libraries/STM32F4xx_HAL_Driver/Src/stm32f4xx_hal_rtc.c ****   * @note   The RTC Initialization mode is write protected, use the
1482:./Libraries/STM32F4xx_HAL_Driver/Src/stm32f4xx_hal_rtc.c ****   *         __HAL_RTC_WRITEPROTECTION_DISABLE() before calling this function.
1483:./Libraries/STM32F4xx_HAL_Driver/Src/stm32f4xx_hal_rtc.c ****   * @param  hrtc pointer to a RTC_HandleTypeDef structure that contains
1484:./Libraries/STM32F4xx_HAL_Driver/Src/stm32f4xx_hal_rtc.c ****   *                the configuration information for RTC.
1485:./Libraries/STM32F4xx_HAL_Driver/Src/stm32f4xx_hal_rtc.c ****   * @retval HAL status
1486:./Libraries/STM32F4xx_HAL_Driver/Src/stm32f4xx_hal_rtc.c ****   */
1487:./Libraries/STM32F4xx_HAL_Driver/Src/stm32f4xx_hal_rtc.c **** HAL_StatusTypeDef RTC_EnterInitMode(RTC_HandleTypeDef* hrtc)
1488:./Libraries/STM32F4xx_HAL_Driver/Src/stm32f4xx_hal_rtc.c **** {
 564              		.loc 1 1488 1 is_stmt 1 view -0
 565              		.cfi_startproc
 566              		@ args = 0, pretend = 0, frame = 0
 567              		@ frame_needed = 0, uses_anonymous_args = 0
 568              		.loc 1 1488 1 is_stmt 0 view .LVU160
 569 0000 38B5     		push	{r3, r4, r5, lr}
 570              	.LCFI4:
 571              		.cfi_def_cfa_offset 16
 572              		.cfi_offset 3, -16
 573              		.cfi_offset 4, -12
 574              		.cfi_offset 5, -8
 575              		.cfi_offset 14, -4
1489:./Libraries/STM32F4xx_HAL_Driver/Src/stm32f4xx_hal_rtc.c ****   uint32_t tickstart = 0U; 
 576              		.loc 1 1489 3 is_stmt 1 view .LVU161
 577              	.LVL33:
1490:./Libraries/STM32F4xx_HAL_Driver/Src/stm32f4xx_hal_rtc.c ****   
1491:./Libraries/STM32F4xx_HAL_Driver/Src/stm32f4xx_hal_rtc.c ****   /* Check if the Initialization mode is set */
1492:./Libraries/STM32F4xx_HAL_Driver/Src/stm32f4xx_hal_rtc.c ****   if((hrtc->Instance->ISR & RTC_ISR_INITF) == (uint32_t)RESET)
 578              		.loc 1 1492 3 view .LVU162
 579              		.loc 1 1492 11 is_stmt 0 view .LVU163
 580 0002 0368     		ldr	r3, [r0]
 581              		.loc 1 1492 21 view .LVU164
 582 0004 DA68     		ldr	r2, [r3, #12]
 583              		.loc 1 1492 5 view .LVU165
 584 0006 12F0400F 		tst	r2, #64
 585 000a 01D0     		beq	.L46
1493:./Libraries/STM32F4xx_HAL_Driver/Src/stm32f4xx_hal_rtc.c ****   {
1494:./Libraries/STM32F4xx_HAL_Driver/Src/stm32f4xx_hal_rtc.c ****     /* Set the Initialization mode */
ARM GAS  /tmp/ccdJbK3i.s 			page 38


1495:./Libraries/STM32F4xx_HAL_Driver/Src/stm32f4xx_hal_rtc.c ****     hrtc->Instance->ISR = (uint32_t)RTC_INIT_MASK;
1496:./Libraries/STM32F4xx_HAL_Driver/Src/stm32f4xx_hal_rtc.c **** 
1497:./Libraries/STM32F4xx_HAL_Driver/Src/stm32f4xx_hal_rtc.c ****     /* Get tick */
1498:./Libraries/STM32F4xx_HAL_Driver/Src/stm32f4xx_hal_rtc.c ****     tickstart = HAL_GetTick();
1499:./Libraries/STM32F4xx_HAL_Driver/Src/stm32f4xx_hal_rtc.c **** 
1500:./Libraries/STM32F4xx_HAL_Driver/Src/stm32f4xx_hal_rtc.c ****     /* Wait till RTC is in INIT state and if Time out is reached exit */
1501:./Libraries/STM32F4xx_HAL_Driver/Src/stm32f4xx_hal_rtc.c ****     while((hrtc->Instance->ISR & RTC_ISR_INITF) == (uint32_t)RESET)
1502:./Libraries/STM32F4xx_HAL_Driver/Src/stm32f4xx_hal_rtc.c ****     {
1503:./Libraries/STM32F4xx_HAL_Driver/Src/stm32f4xx_hal_rtc.c ****       if((HAL_GetTick() - tickstart ) > RTC_TIMEOUT_VALUE)
1504:./Libraries/STM32F4xx_HAL_Driver/Src/stm32f4xx_hal_rtc.c ****       {       
1505:./Libraries/STM32F4xx_HAL_Driver/Src/stm32f4xx_hal_rtc.c ****         return HAL_TIMEOUT;
1506:./Libraries/STM32F4xx_HAL_Driver/Src/stm32f4xx_hal_rtc.c ****       } 
1507:./Libraries/STM32F4xx_HAL_Driver/Src/stm32f4xx_hal_rtc.c ****     }
1508:./Libraries/STM32F4xx_HAL_Driver/Src/stm32f4xx_hal_rtc.c ****   }
1509:./Libraries/STM32F4xx_HAL_Driver/Src/stm32f4xx_hal_rtc.c ****   
1510:./Libraries/STM32F4xx_HAL_Driver/Src/stm32f4xx_hal_rtc.c ****   return HAL_OK;  
 586              		.loc 1 1510 10 view .LVU166
 587 000c 0020     		movs	r0, #0
 588              	.LVL34:
 589              	.L40:
1511:./Libraries/STM32F4xx_HAL_Driver/Src/stm32f4xx_hal_rtc.c **** }
 590              		.loc 1 1511 1 view .LVU167
 591 000e 38BD     		pop	{r3, r4, r5, pc}
 592              	.LVL35:
 593              	.L46:
 594              		.loc 1 1511 1 view .LVU168
 595 0010 0446     		mov	r4, r0
1495:./Libraries/STM32F4xx_HAL_Driver/Src/stm32f4xx_hal_rtc.c **** 
 596              		.loc 1 1495 5 is_stmt 1 view .LVU169
1495:./Libraries/STM32F4xx_HAL_Driver/Src/stm32f4xx_hal_rtc.c **** 
 597              		.loc 1 1495 25 is_stmt 0 view .LVU170
 598 0012 4FF0FF32 		mov	r2, #-1
 599 0016 DA60     		str	r2, [r3, #12]
1498:./Libraries/STM32F4xx_HAL_Driver/Src/stm32f4xx_hal_rtc.c **** 
 600              		.loc 1 1498 5 is_stmt 1 view .LVU171
1498:./Libraries/STM32F4xx_HAL_Driver/Src/stm32f4xx_hal_rtc.c **** 
 601              		.loc 1 1498 17 is_stmt 0 view .LVU172
 602 0018 FFF7FEFF 		bl	HAL_GetTick
 603              	.LVL36:
1498:./Libraries/STM32F4xx_HAL_Driver/Src/stm32f4xx_hal_rtc.c **** 
 604              		.loc 1 1498 17 view .LVU173
 605 001c 0546     		mov	r5, r0
 606              	.LVL37:
1501:./Libraries/STM32F4xx_HAL_Driver/Src/stm32f4xx_hal_rtc.c ****     {
 607              		.loc 1 1501 5 is_stmt 1 view .LVU174
 608              	.L41:
1501:./Libraries/STM32F4xx_HAL_Driver/Src/stm32f4xx_hal_rtc.c ****     {
 609              		.loc 1 1501 10 view .LVU175
1501:./Libraries/STM32F4xx_HAL_Driver/Src/stm32f4xx_hal_rtc.c ****     {
 610              		.loc 1 1501 16 is_stmt 0 view .LVU176
 611 001e 2368     		ldr	r3, [r4]
1501:./Libraries/STM32F4xx_HAL_Driver/Src/stm32f4xx_hal_rtc.c ****     {
 612              		.loc 1 1501 26 view .LVU177
 613 0020 DB68     		ldr	r3, [r3, #12]
1501:./Libraries/STM32F4xx_HAL_Driver/Src/stm32f4xx_hal_rtc.c ****     {
 614              		.loc 1 1501 10 view .LVU178
 615 0022 13F0400F 		tst	r3, #64
ARM GAS  /tmp/ccdJbK3i.s 			page 39


 616 0026 07D1     		bne	.L47
1503:./Libraries/STM32F4xx_HAL_Driver/Src/stm32f4xx_hal_rtc.c ****       {       
 617              		.loc 1 1503 7 is_stmt 1 view .LVU179
1503:./Libraries/STM32F4xx_HAL_Driver/Src/stm32f4xx_hal_rtc.c ****       {       
 618              		.loc 1 1503 11 is_stmt 0 view .LVU180
 619 0028 FFF7FEFF 		bl	HAL_GetTick
 620              	.LVL38:
1503:./Libraries/STM32F4xx_HAL_Driver/Src/stm32f4xx_hal_rtc.c ****       {       
 621              		.loc 1 1503 25 view .LVU181
 622 002c 431B     		subs	r3, r0, r5
1503:./Libraries/STM32F4xx_HAL_Driver/Src/stm32f4xx_hal_rtc.c ****       {       
 623              		.loc 1 1503 9 view .LVU182
 624 002e B3F57A7F 		cmp	r3, #1000
 625 0032 F4D9     		bls	.L41
1505:./Libraries/STM32F4xx_HAL_Driver/Src/stm32f4xx_hal_rtc.c ****       } 
 626              		.loc 1 1505 16 view .LVU183
 627 0034 0320     		movs	r0, #3
 628 0036 EAE7     		b	.L40
 629              	.L47:
1510:./Libraries/STM32F4xx_HAL_Driver/Src/stm32f4xx_hal_rtc.c **** }
 630              		.loc 1 1510 10 view .LVU184
 631 0038 0020     		movs	r0, #0
 632 003a E8E7     		b	.L40
 633              		.cfi_endproc
 634              	.LFE143:
 636              		.section	.text.HAL_RTC_Init,"ax",%progbits
 637              		.align	1
 638              		.global	HAL_RTC_Init
 639              		.syntax unified
 640              		.thumb
 641              		.thumb_func
 642              		.fpu fpv4-sp-d16
 644              	HAL_RTC_Init:
 645              	.LVL39:
 646              	.LFB126:
 202:./Libraries/STM32F4xx_HAL_Driver/Src/stm32f4xx_hal_rtc.c ****   /* Check the RTC peripheral state */
 647              		.loc 1 202 1 is_stmt 1 view -0
 648              		.cfi_startproc
 649              		@ args = 0, pretend = 0, frame = 0
 650              		@ frame_needed = 0, uses_anonymous_args = 0
 202:./Libraries/STM32F4xx_HAL_Driver/Src/stm32f4xx_hal_rtc.c ****   /* Check the RTC peripheral state */
 651              		.loc 1 202 1 is_stmt 0 view .LVU186
 652 0000 38B5     		push	{r3, r4, r5, lr}
 653              	.LCFI5:
 654              		.cfi_def_cfa_offset 16
 655              		.cfi_offset 3, -16
 656              		.cfi_offset 4, -12
 657              		.cfi_offset 5, -8
 658              		.cfi_offset 14, -4
 204:./Libraries/STM32F4xx_HAL_Driver/Src/stm32f4xx_hal_rtc.c ****   {
 659              		.loc 1 204 3 is_stmt 1 view .LVU187
 204:./Libraries/STM32F4xx_HAL_Driver/Src/stm32f4xx_hal_rtc.c ****   {
 660              		.loc 1 204 5 is_stmt 0 view .LVU188
 661 0002 0028     		cmp	r0, #0
 662 0004 5CD0     		beq	.L53
 663 0006 0446     		mov	r4, r0
 210:./Libraries/STM32F4xx_HAL_Driver/Src/stm32f4xx_hal_rtc.c ****   assert_param(IS_RTC_ASYNCH_PREDIV(hrtc->Init.AsynchPrediv));
ARM GAS  /tmp/ccdJbK3i.s 			page 40


 664              		.loc 1 210 3 is_stmt 1 view .LVU189
 211:./Libraries/STM32F4xx_HAL_Driver/Src/stm32f4xx_hal_rtc.c ****   assert_param(IS_RTC_SYNCH_PREDIV(hrtc->Init.SynchPrediv));
 665              		.loc 1 211 3 view .LVU190
 212:./Libraries/STM32F4xx_HAL_Driver/Src/stm32f4xx_hal_rtc.c ****   assert_param (IS_RTC_OUTPUT(hrtc->Init.OutPut));
 666              		.loc 1 212 3 view .LVU191
 213:./Libraries/STM32F4xx_HAL_Driver/Src/stm32f4xx_hal_rtc.c ****   assert_param (IS_RTC_OUTPUT_POL(hrtc->Init.OutPutPolarity));
 667              		.loc 1 213 3 view .LVU192
 214:./Libraries/STM32F4xx_HAL_Driver/Src/stm32f4xx_hal_rtc.c ****   assert_param(IS_RTC_OUTPUT_TYPE(hrtc->Init.OutPutType));
 668              		.loc 1 214 3 view .LVU193
 215:./Libraries/STM32F4xx_HAL_Driver/Src/stm32f4xx_hal_rtc.c ****     
 669              		.loc 1 215 3 view .LVU194
 217:./Libraries/STM32F4xx_HAL_Driver/Src/stm32f4xx_hal_rtc.c ****   {
 670              		.loc 1 217 3 view .LVU195
 217:./Libraries/STM32F4xx_HAL_Driver/Src/stm32f4xx_hal_rtc.c ****   {
 671              		.loc 1 217 10 is_stmt 0 view .LVU196
 672 0008 437F     		ldrb	r3, [r0, #29]	@ zero_extendqisi2
 217:./Libraries/STM32F4xx_HAL_Driver/Src/stm32f4xx_hal_rtc.c ****   {
 673              		.loc 1 217 5 view .LVU197
 674 000a 002B     		cmp	r3, #0
 675 000c 41D0     		beq	.L55
 676              	.LVL40:
 677              	.L50:
 226:./Libraries/STM32F4xx_HAL_Driver/Src/stm32f4xx_hal_rtc.c ****        
 678              		.loc 1 226 3 is_stmt 1 view .LVU198
 226:./Libraries/STM32F4xx_HAL_Driver/Src/stm32f4xx_hal_rtc.c ****        
 679              		.loc 1 226 15 is_stmt 0 view .LVU199
 680 000e 0223     		movs	r3, #2
 681 0010 6377     		strb	r3, [r4, #29]
 229:./Libraries/STM32F4xx_HAL_Driver/Src/stm32f4xx_hal_rtc.c **** 
 682              		.loc 1 229 3 is_stmt 1 view .LVU200
 229:./Libraries/STM32F4xx_HAL_Driver/Src/stm32f4xx_hal_rtc.c **** 
 683              		.loc 1 229 3 view .LVU201
 684 0012 2368     		ldr	r3, [r4]
 685 0014 CA22     		movs	r2, #202
 686 0016 5A62     		str	r2, [r3, #36]
 229:./Libraries/STM32F4xx_HAL_Driver/Src/stm32f4xx_hal_rtc.c **** 
 687              		.loc 1 229 3 view .LVU202
 688 0018 2368     		ldr	r3, [r4]
 689 001a 5322     		movs	r2, #83
 690 001c 5A62     		str	r2, [r3, #36]
 229:./Libraries/STM32F4xx_HAL_Driver/Src/stm32f4xx_hal_rtc.c **** 
 691              		.loc 1 229 3 view .LVU203
 232:./Libraries/STM32F4xx_HAL_Driver/Src/stm32f4xx_hal_rtc.c ****   {
 692              		.loc 1 232 3 view .LVU204
 232:./Libraries/STM32F4xx_HAL_Driver/Src/stm32f4xx_hal_rtc.c ****   {
 693              		.loc 1 232 6 is_stmt 0 view .LVU205
 694 001e 2046     		mov	r0, r4
 695 0020 FFF7FEFF 		bl	RTC_EnterInitMode
 696              	.LVL41:
 232:./Libraries/STM32F4xx_HAL_Driver/Src/stm32f4xx_hal_rtc.c ****   {
 697              		.loc 1 232 5 view .LVU206
 698 0024 0546     		mov	r5, r0
 699 0026 0028     		cmp	r0, #0
 700 0028 37D1     		bne	.L56
 245:./Libraries/STM32F4xx_HAL_Driver/Src/stm32f4xx_hal_rtc.c ****     /* Set RTC_CR register */
 701              		.loc 1 245 5 is_stmt 1 view .LVU207
 245:./Libraries/STM32F4xx_HAL_Driver/Src/stm32f4xx_hal_rtc.c ****     /* Set RTC_CR register */
ARM GAS  /tmp/ccdJbK3i.s 			page 41


 702              		.loc 1 245 9 is_stmt 0 view .LVU208
 703 002a 2268     		ldr	r2, [r4]
 245:./Libraries/STM32F4xx_HAL_Driver/Src/stm32f4xx_hal_rtc.c ****     /* Set RTC_CR register */
 704              		.loc 1 245 24 view .LVU209
 705 002c 9368     		ldr	r3, [r2, #8]
 706 002e 23F4E003 		bic	r3, r3, #7340032
 707 0032 23F04003 		bic	r3, r3, #64
 708 0036 9360     		str	r3, [r2, #8]
 247:./Libraries/STM32F4xx_HAL_Driver/Src/stm32f4xx_hal_rtc.c ****     
 709              		.loc 1 247 5 is_stmt 1 view .LVU210
 247:./Libraries/STM32F4xx_HAL_Driver/Src/stm32f4xx_hal_rtc.c ****     
 710              		.loc 1 247 9 is_stmt 0 view .LVU211
 711 0038 2168     		ldr	r1, [r4]
 247:./Libraries/STM32F4xx_HAL_Driver/Src/stm32f4xx_hal_rtc.c ****     
 712              		.loc 1 247 24 view .LVU212
 713 003a 8A68     		ldr	r2, [r1, #8]
 247:./Libraries/STM32F4xx_HAL_Driver/Src/stm32f4xx_hal_rtc.c ****     
 714              		.loc 1 247 48 view .LVU213
 715 003c 6368     		ldr	r3, [r4, #4]
 247:./Libraries/STM32F4xx_HAL_Driver/Src/stm32f4xx_hal_rtc.c ****     
 716              		.loc 1 247 72 view .LVU214
 717 003e 2069     		ldr	r0, [r4, #16]
 247:./Libraries/STM32F4xx_HAL_Driver/Src/stm32f4xx_hal_rtc.c ****     
 718              		.loc 1 247 60 view .LVU215
 719 0040 0343     		orrs	r3, r3, r0
 247:./Libraries/STM32F4xx_HAL_Driver/Src/stm32f4xx_hal_rtc.c ****     
 720              		.loc 1 247 92 view .LVU216
 721 0042 6069     		ldr	r0, [r4, #20]
 247:./Libraries/STM32F4xx_HAL_Driver/Src/stm32f4xx_hal_rtc.c ****     
 722              		.loc 1 247 80 view .LVU217
 723 0044 0343     		orrs	r3, r3, r0
 247:./Libraries/STM32F4xx_HAL_Driver/Src/stm32f4xx_hal_rtc.c ****     
 724              		.loc 1 247 24 view .LVU218
 725 0046 1343     		orrs	r3, r3, r2
 726 0048 8B60     		str	r3, [r1, #8]
 250:./Libraries/STM32F4xx_HAL_Driver/Src/stm32f4xx_hal_rtc.c ****     hrtc->Instance->PRER |= (uint32_t)(hrtc->Init.AsynchPrediv << 16U);
 727              		.loc 1 250 5 is_stmt 1 view .LVU219
 250:./Libraries/STM32F4xx_HAL_Driver/Src/stm32f4xx_hal_rtc.c ****     hrtc->Instance->PRER |= (uint32_t)(hrtc->Init.AsynchPrediv << 16U);
 728              		.loc 1 250 9 is_stmt 0 view .LVU220
 729 004a 2368     		ldr	r3, [r4]
 250:./Libraries/STM32F4xx_HAL_Driver/Src/stm32f4xx_hal_rtc.c ****     hrtc->Instance->PRER |= (uint32_t)(hrtc->Init.AsynchPrediv << 16U);
 730              		.loc 1 250 49 view .LVU221
 731 004c E268     		ldr	r2, [r4, #12]
 250:./Libraries/STM32F4xx_HAL_Driver/Src/stm32f4xx_hal_rtc.c ****     hrtc->Instance->PRER |= (uint32_t)(hrtc->Init.AsynchPrediv << 16U);
 732              		.loc 1 250 26 view .LVU222
 733 004e 1A61     		str	r2, [r3, #16]
 251:./Libraries/STM32F4xx_HAL_Driver/Src/stm32f4xx_hal_rtc.c ****     
 734              		.loc 1 251 5 is_stmt 1 view .LVU223
 251:./Libraries/STM32F4xx_HAL_Driver/Src/stm32f4xx_hal_rtc.c ****     
 735              		.loc 1 251 9 is_stmt 0 view .LVU224
 736 0050 2268     		ldr	r2, [r4]
 251:./Libraries/STM32F4xx_HAL_Driver/Src/stm32f4xx_hal_rtc.c ****     
 737              		.loc 1 251 26 view .LVU225
 738 0052 1369     		ldr	r3, [r2, #16]
 251:./Libraries/STM32F4xx_HAL_Driver/Src/stm32f4xx_hal_rtc.c ****     
 739              		.loc 1 251 50 view .LVU226
 740 0054 A168     		ldr	r1, [r4, #8]
ARM GAS  /tmp/ccdJbK3i.s 			page 42


 251:./Libraries/STM32F4xx_HAL_Driver/Src/stm32f4xx_hal_rtc.c ****     
 741              		.loc 1 251 26 view .LVU227
 742 0056 43EA0143 		orr	r3, r3, r1, lsl #16
 743 005a 1361     		str	r3, [r2, #16]
 254:./Libraries/STM32F4xx_HAL_Driver/Src/stm32f4xx_hal_rtc.c **** 
 744              		.loc 1 254 5 is_stmt 1 view .LVU228
 254:./Libraries/STM32F4xx_HAL_Driver/Src/stm32f4xx_hal_rtc.c **** 
 745              		.loc 1 254 9 is_stmt 0 view .LVU229
 746 005c 2268     		ldr	r2, [r4]
 254:./Libraries/STM32F4xx_HAL_Driver/Src/stm32f4xx_hal_rtc.c **** 
 747              		.loc 1 254 25 view .LVU230
 748 005e D368     		ldr	r3, [r2, #12]
 749 0060 23F08003 		bic	r3, r3, #128
 750 0064 D360     		str	r3, [r2, #12]
 257:./Libraries/STM32F4xx_HAL_Driver/Src/stm32f4xx_hal_rtc.c ****     {
 751              		.loc 1 257 5 is_stmt 1 view .LVU231
 257:./Libraries/STM32F4xx_HAL_Driver/Src/stm32f4xx_hal_rtc.c ****     {
 752              		.loc 1 257 13 is_stmt 0 view .LVU232
 753 0066 2368     		ldr	r3, [r4]
 257:./Libraries/STM32F4xx_HAL_Driver/Src/stm32f4xx_hal_rtc.c ****     {
 754              		.loc 1 257 23 view .LVU233
 755 0068 9B68     		ldr	r3, [r3, #8]
 257:./Libraries/STM32F4xx_HAL_Driver/Src/stm32f4xx_hal_rtc.c ****     {
 756              		.loc 1 257 7 view .LVU234
 757 006a 13F0200F 		tst	r3, #32
 758 006e 1BD0     		beq	.L57
 759              	.L52:
 270:./Libraries/STM32F4xx_HAL_Driver/Src/stm32f4xx_hal_rtc.c ****     hrtc->Instance->TAFCR |= (uint32_t)(hrtc->Init.OutPutType); 
 760              		.loc 1 270 5 is_stmt 1 view .LVU235
 270:./Libraries/STM32F4xx_HAL_Driver/Src/stm32f4xx_hal_rtc.c ****     hrtc->Instance->TAFCR |= (uint32_t)(hrtc->Init.OutPutType); 
 761              		.loc 1 270 9 is_stmt 0 view .LVU236
 762 0070 2268     		ldr	r2, [r4]
 270:./Libraries/STM32F4xx_HAL_Driver/Src/stm32f4xx_hal_rtc.c ****     hrtc->Instance->TAFCR |= (uint32_t)(hrtc->Init.OutPutType); 
 763              		.loc 1 270 27 view .LVU237
 764 0072 136C     		ldr	r3, [r2, #64]
 765 0074 23F48023 		bic	r3, r3, #262144
 766 0078 1364     		str	r3, [r2, #64]
 271:./Libraries/STM32F4xx_HAL_Driver/Src/stm32f4xx_hal_rtc.c ****     
 767              		.loc 1 271 5 is_stmt 1 view .LVU238
 271:./Libraries/STM32F4xx_HAL_Driver/Src/stm32f4xx_hal_rtc.c ****     
 768              		.loc 1 271 9 is_stmt 0 view .LVU239
 769 007a 2268     		ldr	r2, [r4]
 271:./Libraries/STM32F4xx_HAL_Driver/Src/stm32f4xx_hal_rtc.c ****     
 770              		.loc 1 271 27 view .LVU240
 771 007c 136C     		ldr	r3, [r2, #64]
 271:./Libraries/STM32F4xx_HAL_Driver/Src/stm32f4xx_hal_rtc.c ****     
 772              		.loc 1 271 51 view .LVU241
 773 007e A169     		ldr	r1, [r4, #24]
 271:./Libraries/STM32F4xx_HAL_Driver/Src/stm32f4xx_hal_rtc.c ****     
 774              		.loc 1 271 27 view .LVU242
 775 0080 0B43     		orrs	r3, r3, r1
 776 0082 1364     		str	r3, [r2, #64]
 274:./Libraries/STM32F4xx_HAL_Driver/Src/stm32f4xx_hal_rtc.c ****     
 777              		.loc 1 274 5 is_stmt 1 view .LVU243
 274:./Libraries/STM32F4xx_HAL_Driver/Src/stm32f4xx_hal_rtc.c ****     
 778              		.loc 1 274 5 view .LVU244
 779 0084 2368     		ldr	r3, [r4]
ARM GAS  /tmp/ccdJbK3i.s 			page 43


 780 0086 FF22     		movs	r2, #255
 781 0088 5A62     		str	r2, [r3, #36]
 274:./Libraries/STM32F4xx_HAL_Driver/Src/stm32f4xx_hal_rtc.c ****     
 782              		.loc 1 274 5 view .LVU245
 277:./Libraries/STM32F4xx_HAL_Driver/Src/stm32f4xx_hal_rtc.c ****     
 783              		.loc 1 277 5 view .LVU246
 277:./Libraries/STM32F4xx_HAL_Driver/Src/stm32f4xx_hal_rtc.c ****     
 784              		.loc 1 277 17 is_stmt 0 view .LVU247
 785 008a 0123     		movs	r3, #1
 786 008c 6377     		strb	r3, [r4, #29]
 279:./Libraries/STM32F4xx_HAL_Driver/Src/stm32f4xx_hal_rtc.c ****   }
 787              		.loc 1 279 5 is_stmt 1 view .LVU248
 788              	.LVL42:
 789              	.L49:
 281:./Libraries/STM32F4xx_HAL_Driver/Src/stm32f4xx_hal_rtc.c **** 
 790              		.loc 1 281 1 is_stmt 0 view .LVU249
 791 008e 2846     		mov	r0, r5
 792 0090 38BD     		pop	{r3, r4, r5, pc}
 793              	.LVL43:
 794              	.L55:
 220:./Libraries/STM32F4xx_HAL_Driver/Src/stm32f4xx_hal_rtc.c ****     /* Initialize RTC MSP */
 795              		.loc 1 220 5 is_stmt 1 view .LVU250
 220:./Libraries/STM32F4xx_HAL_Driver/Src/stm32f4xx_hal_rtc.c ****     /* Initialize RTC MSP */
 796              		.loc 1 220 16 is_stmt 0 view .LVU251
 797 0092 0377     		strb	r3, [r0, #28]
 222:./Libraries/STM32F4xx_HAL_Driver/Src/stm32f4xx_hal_rtc.c ****   }
 798              		.loc 1 222 5 is_stmt 1 view .LVU252
 799 0094 FFF7FEFF 		bl	HAL_RTC_MspInit
 800              	.LVL44:
 222:./Libraries/STM32F4xx_HAL_Driver/Src/stm32f4xx_hal_rtc.c ****   }
 801              		.loc 1 222 5 is_stmt 0 view .LVU253
 802 0098 B9E7     		b	.L50
 803              	.L56:
 235:./Libraries/STM32F4xx_HAL_Driver/Src/stm32f4xx_hal_rtc.c ****     
 804              		.loc 1 235 5 is_stmt 1 view .LVU254
 235:./Libraries/STM32F4xx_HAL_Driver/Src/stm32f4xx_hal_rtc.c ****     
 805              		.loc 1 235 5 view .LVU255
 806 009a 2368     		ldr	r3, [r4]
 807 009c FF22     		movs	r2, #255
 808 009e 5A62     		str	r2, [r3, #36]
 235:./Libraries/STM32F4xx_HAL_Driver/Src/stm32f4xx_hal_rtc.c ****     
 809              		.loc 1 235 5 view .LVU256
 238:./Libraries/STM32F4xx_HAL_Driver/Src/stm32f4xx_hal_rtc.c ****     
 810              		.loc 1 238 5 view .LVU257
 238:./Libraries/STM32F4xx_HAL_Driver/Src/stm32f4xx_hal_rtc.c ****     
 811              		.loc 1 238 17 is_stmt 0 view .LVU258
 812 00a0 0423     		movs	r3, #4
 813 00a2 6377     		strb	r3, [r4, #29]
 240:./Libraries/STM32F4xx_HAL_Driver/Src/stm32f4xx_hal_rtc.c ****   } 
 814              		.loc 1 240 5 is_stmt 1 view .LVU259
 240:./Libraries/STM32F4xx_HAL_Driver/Src/stm32f4xx_hal_rtc.c ****   } 
 815              		.loc 1 240 12 is_stmt 0 view .LVU260
 816 00a4 0125     		movs	r5, #1
 817 00a6 F2E7     		b	.L49
 818              	.L57:
 259:./Libraries/STM32F4xx_HAL_Driver/Src/stm32f4xx_hal_rtc.c ****       {
 819              		.loc 1 259 7 is_stmt 1 view .LVU261
ARM GAS  /tmp/ccdJbK3i.s 			page 44


 259:./Libraries/STM32F4xx_HAL_Driver/Src/stm32f4xx_hal_rtc.c ****       {
 820              		.loc 1 259 10 is_stmt 0 view .LVU262
 821 00a8 2046     		mov	r0, r4
 822 00aa FFF7FEFF 		bl	HAL_RTC_WaitForSynchro
 823              	.LVL45:
 259:./Libraries/STM32F4xx_HAL_Driver/Src/stm32f4xx_hal_rtc.c ****       {
 824              		.loc 1 259 9 view .LVU263
 825 00ae 0028     		cmp	r0, #0
 826 00b0 DED0     		beq	.L52
 262:./Libraries/STM32F4xx_HAL_Driver/Src/stm32f4xx_hal_rtc.c **** 
 827              		.loc 1 262 9 is_stmt 1 view .LVU264
 262:./Libraries/STM32F4xx_HAL_Driver/Src/stm32f4xx_hal_rtc.c **** 
 828              		.loc 1 262 9 view .LVU265
 829 00b2 2368     		ldr	r3, [r4]
 830 00b4 FF22     		movs	r2, #255
 831 00b6 5A62     		str	r2, [r3, #36]
 262:./Libraries/STM32F4xx_HAL_Driver/Src/stm32f4xx_hal_rtc.c **** 
 832              		.loc 1 262 9 view .LVU266
 264:./Libraries/STM32F4xx_HAL_Driver/Src/stm32f4xx_hal_rtc.c **** 
 833              		.loc 1 264 9 view .LVU267
 264:./Libraries/STM32F4xx_HAL_Driver/Src/stm32f4xx_hal_rtc.c **** 
 834              		.loc 1 264 21 is_stmt 0 view .LVU268
 835 00b8 0423     		movs	r3, #4
 836 00ba 6377     		strb	r3, [r4, #29]
 266:./Libraries/STM32F4xx_HAL_Driver/Src/stm32f4xx_hal_rtc.c ****       }
 837              		.loc 1 266 9 is_stmt 1 view .LVU269
 266:./Libraries/STM32F4xx_HAL_Driver/Src/stm32f4xx_hal_rtc.c ****       }
 838              		.loc 1 266 16 is_stmt 0 view .LVU270
 839 00bc 0125     		movs	r5, #1
 840 00be E6E7     		b	.L49
 841              	.LVL46:
 842              	.L53:
 206:./Libraries/STM32F4xx_HAL_Driver/Src/stm32f4xx_hal_rtc.c ****   }
 843              		.loc 1 206 13 view .LVU271
 844 00c0 0125     		movs	r5, #1
 845 00c2 E4E7     		b	.L49
 846              		.cfi_endproc
 847              	.LFE126:
 849              		.section	.text.HAL_RTC_DeInit,"ax",%progbits
 850              		.align	1
 851              		.global	HAL_RTC_DeInit
 852              		.syntax unified
 853              		.thumb
 854              		.thumb_func
 855              		.fpu fpv4-sp-d16
 857              	HAL_RTC_DeInit:
 858              	.LVL47:
 859              	.LFB127:
 291:./Libraries/STM32F4xx_HAL_Driver/Src/stm32f4xx_hal_rtc.c ****   uint32_t tickstart = 0U;
 860              		.loc 1 291 1 is_stmt 1 view -0
 861              		.cfi_startproc
 862              		@ args = 0, pretend = 0, frame = 0
 863              		@ frame_needed = 0, uses_anonymous_args = 0
 291:./Libraries/STM32F4xx_HAL_Driver/Src/stm32f4xx_hal_rtc.c ****   uint32_t tickstart = 0U;
 864              		.loc 1 291 1 is_stmt 0 view .LVU273
 865 0000 70B5     		push	{r4, r5, r6, lr}
 866              	.LCFI6:
ARM GAS  /tmp/ccdJbK3i.s 			page 45


 867              		.cfi_def_cfa_offset 16
 868              		.cfi_offset 4, -16
 869              		.cfi_offset 5, -12
 870              		.cfi_offset 6, -8
 871              		.cfi_offset 14, -4
 872 0002 0446     		mov	r4, r0
 292:./Libraries/STM32F4xx_HAL_Driver/Src/stm32f4xx_hal_rtc.c **** 
 873              		.loc 1 292 3 is_stmt 1 view .LVU274
 874              	.LVL48:
 295:./Libraries/STM32F4xx_HAL_Driver/Src/stm32f4xx_hal_rtc.c ****   
 875              		.loc 1 295 3 view .LVU275
 295:./Libraries/STM32F4xx_HAL_Driver/Src/stm32f4xx_hal_rtc.c ****   
 876              		.loc 1 295 15 is_stmt 0 view .LVU276
 877 0004 0223     		movs	r3, #2
 878 0006 4377     		strb	r3, [r0, #29]
 298:./Libraries/STM32F4xx_HAL_Driver/Src/stm32f4xx_hal_rtc.c ****   
 879              		.loc 1 298 3 is_stmt 1 view .LVU277
 298:./Libraries/STM32F4xx_HAL_Driver/Src/stm32f4xx_hal_rtc.c ****   
 880              		.loc 1 298 3 view .LVU278
 881 0008 0368     		ldr	r3, [r0]
 882 000a CA22     		movs	r2, #202
 883 000c 5A62     		str	r2, [r3, #36]
 298:./Libraries/STM32F4xx_HAL_Driver/Src/stm32f4xx_hal_rtc.c ****   
 884              		.loc 1 298 3 view .LVU279
 885 000e 0368     		ldr	r3, [r0]
 886 0010 5322     		movs	r2, #83
 887 0012 5A62     		str	r2, [r3, #36]
 298:./Libraries/STM32F4xx_HAL_Driver/Src/stm32f4xx_hal_rtc.c ****   
 888              		.loc 1 298 3 view .LVU280
 301:./Libraries/STM32F4xx_HAL_Driver/Src/stm32f4xx_hal_rtc.c ****   {
 889              		.loc 1 301 3 view .LVU281
 301:./Libraries/STM32F4xx_HAL_Driver/Src/stm32f4xx_hal_rtc.c ****   {
 890              		.loc 1 301 6 is_stmt 0 view .LVU282
 891 0014 FFF7FEFF 		bl	RTC_EnterInitMode
 892              	.LVL49:
 301:./Libraries/STM32F4xx_HAL_Driver/Src/stm32f4xx_hal_rtc.c ****   {
 893              		.loc 1 301 5 view .LVU283
 894 0018 38B1     		cbz	r0, .L59
 304:./Libraries/STM32F4xx_HAL_Driver/Src/stm32f4xx_hal_rtc.c ****     
 895              		.loc 1 304 5 is_stmt 1 view .LVU284
 304:./Libraries/STM32F4xx_HAL_Driver/Src/stm32f4xx_hal_rtc.c ****     
 896              		.loc 1 304 5 view .LVU285
 897 001a 2368     		ldr	r3, [r4]
 898 001c FF22     		movs	r2, #255
 899 001e 5A62     		str	r2, [r3, #36]
 304:./Libraries/STM32F4xx_HAL_Driver/Src/stm32f4xx_hal_rtc.c ****     
 900              		.loc 1 304 5 view .LVU286
 307:./Libraries/STM32F4xx_HAL_Driver/Src/stm32f4xx_hal_rtc.c ****     
 901              		.loc 1 307 5 view .LVU287
 307:./Libraries/STM32F4xx_HAL_Driver/Src/stm32f4xx_hal_rtc.c ****     
 902              		.loc 1 307 17 is_stmt 0 view .LVU288
 903 0020 0423     		movs	r3, #4
 904 0022 6377     		strb	r3, [r4, #29]
 309:./Libraries/STM32F4xx_HAL_Driver/Src/stm32f4xx_hal_rtc.c ****   }  
 905              		.loc 1 309 5 is_stmt 1 view .LVU289
 309:./Libraries/STM32F4xx_HAL_Driver/Src/stm32f4xx_hal_rtc.c ****   }  
 906              		.loc 1 309 12 is_stmt 0 view .LVU290
ARM GAS  /tmp/ccdJbK3i.s 			page 46


 907 0024 0126     		movs	r6, #1
 908              	.LVL50:
 909              	.L60:
 382:./Libraries/STM32F4xx_HAL_Driver/Src/stm32f4xx_hal_rtc.c **** 
 910              		.loc 1 382 1 view .LVU291
 911 0026 3046     		mov	r0, r6
 912 0028 70BD     		pop	{r4, r5, r6, pc}
 913              	.LVL51:
 914              	.L59:
 382:./Libraries/STM32F4xx_HAL_Driver/Src/stm32f4xx_hal_rtc.c **** 
 915              		.loc 1 382 1 view .LVU292
 916 002a 0646     		mov	r6, r0
 314:./Libraries/STM32F4xx_HAL_Driver/Src/stm32f4xx_hal_rtc.c ****     hrtc->Instance->DR = 0x00002101U;
 917              		.loc 1 314 5 is_stmt 1 view .LVU293
 314:./Libraries/STM32F4xx_HAL_Driver/Src/stm32f4xx_hal_rtc.c ****     hrtc->Instance->DR = 0x00002101U;
 918              		.loc 1 314 9 is_stmt 0 view .LVU294
 919 002c 2368     		ldr	r3, [r4]
 314:./Libraries/STM32F4xx_HAL_Driver/Src/stm32f4xx_hal_rtc.c ****     hrtc->Instance->DR = 0x00002101U;
 920              		.loc 1 314 24 view .LVU295
 921 002e 0022     		movs	r2, #0
 922 0030 1A60     		str	r2, [r3]
 315:./Libraries/STM32F4xx_HAL_Driver/Src/stm32f4xx_hal_rtc.c ****     /* Reset All CR bits except CR[2:0] */
 923              		.loc 1 315 5 is_stmt 1 view .LVU296
 315:./Libraries/STM32F4xx_HAL_Driver/Src/stm32f4xx_hal_rtc.c ****     /* Reset All CR bits except CR[2:0] */
 924              		.loc 1 315 9 is_stmt 0 view .LVU297
 925 0032 2368     		ldr	r3, [r4]
 315:./Libraries/STM32F4xx_HAL_Driver/Src/stm32f4xx_hal_rtc.c ****     /* Reset All CR bits except CR[2:0] */
 926              		.loc 1 315 24 view .LVU298
 927 0034 42F20112 		movw	r2, #8449
 928 0038 5A60     		str	r2, [r3, #4]
 317:./Libraries/STM32F4xx_HAL_Driver/Src/stm32f4xx_hal_rtc.c **** 
 929              		.loc 1 317 5 is_stmt 1 view .LVU299
 317:./Libraries/STM32F4xx_HAL_Driver/Src/stm32f4xx_hal_rtc.c **** 
 930              		.loc 1 317 9 is_stmt 0 view .LVU300
 931 003a 2268     		ldr	r2, [r4]
 317:./Libraries/STM32F4xx_HAL_Driver/Src/stm32f4xx_hal_rtc.c **** 
 932              		.loc 1 317 24 view .LVU301
 933 003c 9368     		ldr	r3, [r2, #8]
 934 003e 03F00703 		and	r3, r3, #7
 935 0042 9360     		str	r3, [r2, #8]
 320:./Libraries/STM32F4xx_HAL_Driver/Src/stm32f4xx_hal_rtc.c **** 
 936              		.loc 1 320 5 is_stmt 1 view .LVU302
 320:./Libraries/STM32F4xx_HAL_Driver/Src/stm32f4xx_hal_rtc.c **** 
 937              		.loc 1 320 17 is_stmt 0 view .LVU303
 938 0044 FFF7FEFF 		bl	HAL_GetTick
 939              	.LVL52:
 940 0048 0546     		mov	r5, r0
 941              	.LVL53:
 323:./Libraries/STM32F4xx_HAL_Driver/Src/stm32f4xx_hal_rtc.c ****     {
 942              		.loc 1 323 5 is_stmt 1 view .LVU304
 943              	.L61:
 323:./Libraries/STM32F4xx_HAL_Driver/Src/stm32f4xx_hal_rtc.c ****     {
 944              		.loc 1 323 10 view .LVU305
 323:./Libraries/STM32F4xx_HAL_Driver/Src/stm32f4xx_hal_rtc.c ****     {
 945              		.loc 1 323 17 is_stmt 0 view .LVU306
 946 004a 2368     		ldr	r3, [r4]
 323:./Libraries/STM32F4xx_HAL_Driver/Src/stm32f4xx_hal_rtc.c ****     {
ARM GAS  /tmp/ccdJbK3i.s 			page 47


 947              		.loc 1 323 27 view .LVU307
 948 004c DA68     		ldr	r2, [r3, #12]
 323:./Libraries/STM32F4xx_HAL_Driver/Src/stm32f4xx_hal_rtc.c ****     {
 949              		.loc 1 323 10 view .LVU308
 950 004e 12F0040F 		tst	r2, #4
 951 0052 0BD1     		bne	.L65
 325:./Libraries/STM32F4xx_HAL_Driver/Src/stm32f4xx_hal_rtc.c ****       { 
 952              		.loc 1 325 7 is_stmt 1 view .LVU309
 325:./Libraries/STM32F4xx_HAL_Driver/Src/stm32f4xx_hal_rtc.c ****       { 
 953              		.loc 1 325 11 is_stmt 0 view .LVU310
 954 0054 FFF7FEFF 		bl	HAL_GetTick
 955              	.LVL54:
 325:./Libraries/STM32F4xx_HAL_Driver/Src/stm32f4xx_hal_rtc.c ****       { 
 956              		.loc 1 325 25 view .LVU311
 957 0058 401B     		subs	r0, r0, r5
 325:./Libraries/STM32F4xx_HAL_Driver/Src/stm32f4xx_hal_rtc.c ****       { 
 958              		.loc 1 325 9 view .LVU312
 959 005a B0F57A7F 		cmp	r0, #1000
 960 005e F4D9     		bls	.L61
 328:./Libraries/STM32F4xx_HAL_Driver/Src/stm32f4xx_hal_rtc.c ****         
 961              		.loc 1 328 9 is_stmt 1 view .LVU313
 328:./Libraries/STM32F4xx_HAL_Driver/Src/stm32f4xx_hal_rtc.c ****         
 962              		.loc 1 328 9 view .LVU314
 963 0060 2368     		ldr	r3, [r4]
 964 0062 FF22     		movs	r2, #255
 965 0064 5A62     		str	r2, [r3, #36]
 328:./Libraries/STM32F4xx_HAL_Driver/Src/stm32f4xx_hal_rtc.c ****         
 966              		.loc 1 328 9 view .LVU315
 331:./Libraries/STM32F4xx_HAL_Driver/Src/stm32f4xx_hal_rtc.c ****         
 967              		.loc 1 331 9 view .LVU316
 331:./Libraries/STM32F4xx_HAL_Driver/Src/stm32f4xx_hal_rtc.c ****         
 968              		.loc 1 331 21 is_stmt 0 view .LVU317
 969 0066 0326     		movs	r6, #3
 970 0068 6677     		strb	r6, [r4, #29]
 333:./Libraries/STM32F4xx_HAL_Driver/Src/stm32f4xx_hal_rtc.c ****       }      
 971              		.loc 1 333 9 is_stmt 1 view .LVU318
 333:./Libraries/STM32F4xx_HAL_Driver/Src/stm32f4xx_hal_rtc.c ****       }      
 972              		.loc 1 333 16 is_stmt 0 view .LVU319
 973 006a DCE7     		b	.L60
 974              	.L65:
 338:./Libraries/STM32F4xx_HAL_Driver/Src/stm32f4xx_hal_rtc.c ****     hrtc->Instance->WUTR = 0x0000FFFFU;
 975              		.loc 1 338 5 is_stmt 1 view .LVU320
 338:./Libraries/STM32F4xx_HAL_Driver/Src/stm32f4xx_hal_rtc.c ****     hrtc->Instance->WUTR = 0x0000FFFFU;
 976              		.loc 1 338 24 is_stmt 0 view .LVU321
 977 006c 9A68     		ldr	r2, [r3, #8]
 978 006e 0022     		movs	r2, #0
 979 0070 9A60     		str	r2, [r3, #8]
 339:./Libraries/STM32F4xx_HAL_Driver/Src/stm32f4xx_hal_rtc.c ****     hrtc->Instance->PRER = 0x007F00FFU;
 980              		.loc 1 339 5 is_stmt 1 view .LVU322
 339:./Libraries/STM32F4xx_HAL_Driver/Src/stm32f4xx_hal_rtc.c ****     hrtc->Instance->PRER = 0x007F00FFU;
 981              		.loc 1 339 9 is_stmt 0 view .LVU323
 982 0072 2368     		ldr	r3, [r4]
 339:./Libraries/STM32F4xx_HAL_Driver/Src/stm32f4xx_hal_rtc.c ****     hrtc->Instance->PRER = 0x007F00FFU;
 983              		.loc 1 339 26 view .LVU324
 984 0074 4FF6FF71 		movw	r1, #65535
 985 0078 5961     		str	r1, [r3, #20]
 340:./Libraries/STM32F4xx_HAL_Driver/Src/stm32f4xx_hal_rtc.c ****     hrtc->Instance->CALIBR = 0x00000000U;
ARM GAS  /tmp/ccdJbK3i.s 			page 48


 986              		.loc 1 340 5 is_stmt 1 view .LVU325
 340:./Libraries/STM32F4xx_HAL_Driver/Src/stm32f4xx_hal_rtc.c ****     hrtc->Instance->CALIBR = 0x00000000U;
 987              		.loc 1 340 9 is_stmt 0 view .LVU326
 988 007a 2368     		ldr	r3, [r4]
 340:./Libraries/STM32F4xx_HAL_Driver/Src/stm32f4xx_hal_rtc.c ****     hrtc->Instance->CALIBR = 0x00000000U;
 989              		.loc 1 340 26 view .LVU327
 990 007c 1649     		ldr	r1, .L67
 991 007e 1961     		str	r1, [r3, #16]
 341:./Libraries/STM32F4xx_HAL_Driver/Src/stm32f4xx_hal_rtc.c ****     hrtc->Instance->ALRMAR = 0x00000000U;
 992              		.loc 1 341 5 is_stmt 1 view .LVU328
 341:./Libraries/STM32F4xx_HAL_Driver/Src/stm32f4xx_hal_rtc.c ****     hrtc->Instance->ALRMAR = 0x00000000U;
 993              		.loc 1 341 9 is_stmt 0 view .LVU329
 994 0080 2368     		ldr	r3, [r4]
 341:./Libraries/STM32F4xx_HAL_Driver/Src/stm32f4xx_hal_rtc.c ****     hrtc->Instance->ALRMAR = 0x00000000U;
 995              		.loc 1 341 28 view .LVU330
 996 0082 9A61     		str	r2, [r3, #24]
 342:./Libraries/STM32F4xx_HAL_Driver/Src/stm32f4xx_hal_rtc.c ****     hrtc->Instance->ALRMBR = 0x00000000U;
 997              		.loc 1 342 5 is_stmt 1 view .LVU331
 342:./Libraries/STM32F4xx_HAL_Driver/Src/stm32f4xx_hal_rtc.c ****     hrtc->Instance->ALRMBR = 0x00000000U;
 998              		.loc 1 342 9 is_stmt 0 view .LVU332
 999 0084 2368     		ldr	r3, [r4]
 342:./Libraries/STM32F4xx_HAL_Driver/Src/stm32f4xx_hal_rtc.c ****     hrtc->Instance->ALRMBR = 0x00000000U;
 1000              		.loc 1 342 28 view .LVU333
 1001 0086 DA61     		str	r2, [r3, #28]
 343:./Libraries/STM32F4xx_HAL_Driver/Src/stm32f4xx_hal_rtc.c ****     hrtc->Instance->SHIFTR = 0x00000000U;
 1002              		.loc 1 343 5 is_stmt 1 view .LVU334
 343:./Libraries/STM32F4xx_HAL_Driver/Src/stm32f4xx_hal_rtc.c ****     hrtc->Instance->SHIFTR = 0x00000000U;
 1003              		.loc 1 343 9 is_stmt 0 view .LVU335
 1004 0088 2368     		ldr	r3, [r4]
 343:./Libraries/STM32F4xx_HAL_Driver/Src/stm32f4xx_hal_rtc.c ****     hrtc->Instance->SHIFTR = 0x00000000U;
 1005              		.loc 1 343 28 view .LVU336
 1006 008a 1A62     		str	r2, [r3, #32]
 344:./Libraries/STM32F4xx_HAL_Driver/Src/stm32f4xx_hal_rtc.c ****     hrtc->Instance->CALR = 0x00000000U;
 1007              		.loc 1 344 5 is_stmt 1 view .LVU337
 344:./Libraries/STM32F4xx_HAL_Driver/Src/stm32f4xx_hal_rtc.c ****     hrtc->Instance->CALR = 0x00000000U;
 1008              		.loc 1 344 9 is_stmt 0 view .LVU338
 1009 008c 2368     		ldr	r3, [r4]
 344:./Libraries/STM32F4xx_HAL_Driver/Src/stm32f4xx_hal_rtc.c ****     hrtc->Instance->CALR = 0x00000000U;
 1010              		.loc 1 344 28 view .LVU339
 1011 008e DA62     		str	r2, [r3, #44]
 345:./Libraries/STM32F4xx_HAL_Driver/Src/stm32f4xx_hal_rtc.c ****     hrtc->Instance->ALRMASSR = 0x00000000U;
 1012              		.loc 1 345 5 is_stmt 1 view .LVU340
 345:./Libraries/STM32F4xx_HAL_Driver/Src/stm32f4xx_hal_rtc.c ****     hrtc->Instance->ALRMASSR = 0x00000000U;
 1013              		.loc 1 345 9 is_stmt 0 view .LVU341
 1014 0090 2368     		ldr	r3, [r4]
 345:./Libraries/STM32F4xx_HAL_Driver/Src/stm32f4xx_hal_rtc.c ****     hrtc->Instance->ALRMASSR = 0x00000000U;
 1015              		.loc 1 345 26 view .LVU342
 1016 0092 DA63     		str	r2, [r3, #60]
 346:./Libraries/STM32F4xx_HAL_Driver/Src/stm32f4xx_hal_rtc.c ****     hrtc->Instance->ALRMBSSR = 0x00000000U;
 1017              		.loc 1 346 5 is_stmt 1 view .LVU343
 346:./Libraries/STM32F4xx_HAL_Driver/Src/stm32f4xx_hal_rtc.c ****     hrtc->Instance->ALRMBSSR = 0x00000000U;
 1018              		.loc 1 346 9 is_stmt 0 view .LVU344
 1019 0094 2368     		ldr	r3, [r4]
 346:./Libraries/STM32F4xx_HAL_Driver/Src/stm32f4xx_hal_rtc.c ****     hrtc->Instance->ALRMBSSR = 0x00000000U;
 1020              		.loc 1 346 30 view .LVU345
 1021 0096 5A64     		str	r2, [r3, #68]
 347:./Libraries/STM32F4xx_HAL_Driver/Src/stm32f4xx_hal_rtc.c ****     
ARM GAS  /tmp/ccdJbK3i.s 			page 49


 1022              		.loc 1 347 5 is_stmt 1 view .LVU346
 347:./Libraries/STM32F4xx_HAL_Driver/Src/stm32f4xx_hal_rtc.c ****     
 1023              		.loc 1 347 9 is_stmt 0 view .LVU347
 1024 0098 2368     		ldr	r3, [r4]
 347:./Libraries/STM32F4xx_HAL_Driver/Src/stm32f4xx_hal_rtc.c ****     
 1025              		.loc 1 347 30 view .LVU348
 1026 009a 9A64     		str	r2, [r3, #72]
 350:./Libraries/STM32F4xx_HAL_Driver/Src/stm32f4xx_hal_rtc.c ****     
 1027              		.loc 1 350 5 is_stmt 1 view .LVU349
 350:./Libraries/STM32F4xx_HAL_Driver/Src/stm32f4xx_hal_rtc.c ****     
 1028              		.loc 1 350 9 is_stmt 0 view .LVU350
 1029 009c 2368     		ldr	r3, [r4]
 350:./Libraries/STM32F4xx_HAL_Driver/Src/stm32f4xx_hal_rtc.c ****     
 1030              		.loc 1 350 25 view .LVU351
 1031 009e DA60     		str	r2, [r3, #12]
 353:./Libraries/STM32F4xx_HAL_Driver/Src/stm32f4xx_hal_rtc.c ****     
 1032              		.loc 1 353 5 is_stmt 1 view .LVU352
 353:./Libraries/STM32F4xx_HAL_Driver/Src/stm32f4xx_hal_rtc.c ****     
 1033              		.loc 1 353 9 is_stmt 0 view .LVU353
 1034 00a0 2368     		ldr	r3, [r4]
 353:./Libraries/STM32F4xx_HAL_Driver/Src/stm32f4xx_hal_rtc.c ****     
 1035              		.loc 1 353 27 view .LVU354
 1036 00a2 1A64     		str	r2, [r3, #64]
 356:./Libraries/STM32F4xx_HAL_Driver/Src/stm32f4xx_hal_rtc.c ****     {
 1037              		.loc 1 356 5 is_stmt 1 view .LVU355
 356:./Libraries/STM32F4xx_HAL_Driver/Src/stm32f4xx_hal_rtc.c ****     {
 1038              		.loc 1 356 13 is_stmt 0 view .LVU356
 1039 00a4 2368     		ldr	r3, [r4]
 356:./Libraries/STM32F4xx_HAL_Driver/Src/stm32f4xx_hal_rtc.c ****     {
 1040              		.loc 1 356 23 view .LVU357
 1041 00a6 9B68     		ldr	r3, [r3, #8]
 356:./Libraries/STM32F4xx_HAL_Driver/Src/stm32f4xx_hal_rtc.c ****     {
 1042              		.loc 1 356 7 view .LVU358
 1043 00a8 13F0200F 		tst	r3, #32
 1044 00ac 03D1     		bne	.L63
 358:./Libraries/STM32F4xx_HAL_Driver/Src/stm32f4xx_hal_rtc.c ****       {
 1045              		.loc 1 358 7 is_stmt 1 view .LVU359
 358:./Libraries/STM32F4xx_HAL_Driver/Src/stm32f4xx_hal_rtc.c ****       {
 1046              		.loc 1 358 10 is_stmt 0 view .LVU360
 1047 00ae 2046     		mov	r0, r4
 1048 00b0 FFF7FEFF 		bl	HAL_RTC_WaitForSynchro
 1049              	.LVL55:
 358:./Libraries/STM32F4xx_HAL_Driver/Src/stm32f4xx_hal_rtc.c ****       {
 1050              		.loc 1 358 9 view .LVU361
 1051 00b4 48B9     		cbnz	r0, .L66
 1052              	.L63:
 371:./Libraries/STM32F4xx_HAL_Driver/Src/stm32f4xx_hal_rtc.c ****   
 1053              		.loc 1 371 3 is_stmt 1 view .LVU362
 371:./Libraries/STM32F4xx_HAL_Driver/Src/stm32f4xx_hal_rtc.c ****   
 1054              		.loc 1 371 3 view .LVU363
 1055 00b6 2368     		ldr	r3, [r4]
 1056 00b8 FF22     		movs	r2, #255
 1057 00ba 5A62     		str	r2, [r3, #36]
 371:./Libraries/STM32F4xx_HAL_Driver/Src/stm32f4xx_hal_rtc.c ****   
 1058              		.loc 1 371 3 view .LVU364
 374:./Libraries/STM32F4xx_HAL_Driver/Src/stm32f4xx_hal_rtc.c ****   
 1059              		.loc 1 374 3 view .LVU365
ARM GAS  /tmp/ccdJbK3i.s 			page 50


 1060 00bc 2046     		mov	r0, r4
 1061 00be FFF7FEFF 		bl	HAL_RTC_MspDeInit
 1062              	.LVL56:
 376:./Libraries/STM32F4xx_HAL_Driver/Src/stm32f4xx_hal_rtc.c **** 
 1063              		.loc 1 376 3 view .LVU366
 376:./Libraries/STM32F4xx_HAL_Driver/Src/stm32f4xx_hal_rtc.c **** 
 1064              		.loc 1 376 15 is_stmt 0 view .LVU367
 1065 00c2 0023     		movs	r3, #0
 1066 00c4 6377     		strb	r3, [r4, #29]
 379:./Libraries/STM32F4xx_HAL_Driver/Src/stm32f4xx_hal_rtc.c **** 
 1067              		.loc 1 379 3 is_stmt 1 view .LVU368
 379:./Libraries/STM32F4xx_HAL_Driver/Src/stm32f4xx_hal_rtc.c **** 
 1068              		.loc 1 379 3 view .LVU369
 1069 00c6 2377     		strb	r3, [r4, #28]
 379:./Libraries/STM32F4xx_HAL_Driver/Src/stm32f4xx_hal_rtc.c **** 
 1070              		.loc 1 379 3 view .LVU370
 381:./Libraries/STM32F4xx_HAL_Driver/Src/stm32f4xx_hal_rtc.c **** }
 1071              		.loc 1 381 3 view .LVU371
 381:./Libraries/STM32F4xx_HAL_Driver/Src/stm32f4xx_hal_rtc.c **** }
 1072              		.loc 1 381 10 is_stmt 0 view .LVU372
 1073 00c8 ADE7     		b	.L60
 1074              	.L66:
 361:./Libraries/STM32F4xx_HAL_Driver/Src/stm32f4xx_hal_rtc.c ****         
 1075              		.loc 1 361 9 is_stmt 1 view .LVU373
 361:./Libraries/STM32F4xx_HAL_Driver/Src/stm32f4xx_hal_rtc.c ****         
 1076              		.loc 1 361 9 view .LVU374
 1077 00ca 2368     		ldr	r3, [r4]
 1078 00cc FF22     		movs	r2, #255
 1079 00ce 5A62     		str	r2, [r3, #36]
 361:./Libraries/STM32F4xx_HAL_Driver/Src/stm32f4xx_hal_rtc.c ****         
 1080              		.loc 1 361 9 view .LVU375
 363:./Libraries/STM32F4xx_HAL_Driver/Src/stm32f4xx_hal_rtc.c ****         
 1081              		.loc 1 363 9 view .LVU376
 363:./Libraries/STM32F4xx_HAL_Driver/Src/stm32f4xx_hal_rtc.c ****         
 1082              		.loc 1 363 21 is_stmt 0 view .LVU377
 1083 00d0 0423     		movs	r3, #4
 1084 00d2 6377     		strb	r3, [r4, #29]
 365:./Libraries/STM32F4xx_HAL_Driver/Src/stm32f4xx_hal_rtc.c ****       }
 1085              		.loc 1 365 9 is_stmt 1 view .LVU378
 365:./Libraries/STM32F4xx_HAL_Driver/Src/stm32f4xx_hal_rtc.c ****       }
 1086              		.loc 1 365 16 is_stmt 0 view .LVU379
 1087 00d4 0126     		movs	r6, #1
 1088 00d6 A6E7     		b	.L60
 1089              	.L68:
 1090              		.align	2
 1091              	.L67:
 1092 00d8 FF007F00 		.word	8323327
 1093              		.cfi_endproc
 1094              	.LFE127:
 1096              		.section	.text.RTC_ByteToBcd2,"ax",%progbits
 1097              		.align	1
 1098              		.global	RTC_ByteToBcd2
 1099              		.syntax unified
 1100              		.thumb
 1101              		.thumb_func
 1102              		.fpu fpv4-sp-d16
 1104              	RTC_ByteToBcd2:
ARM GAS  /tmp/ccdJbK3i.s 			page 51


 1105              	.LVL57:
 1106              	.LFB144:
1512:./Libraries/STM32F4xx_HAL_Driver/Src/stm32f4xx_hal_rtc.c **** 
1513:./Libraries/STM32F4xx_HAL_Driver/Src/stm32f4xx_hal_rtc.c **** 
1514:./Libraries/STM32F4xx_HAL_Driver/Src/stm32f4xx_hal_rtc.c **** /**
1515:./Libraries/STM32F4xx_HAL_Driver/Src/stm32f4xx_hal_rtc.c ****   * @brief  Converts a 2 digit decimal to BCD format.
1516:./Libraries/STM32F4xx_HAL_Driver/Src/stm32f4xx_hal_rtc.c ****   * @param  Value Byte to be converted
1517:./Libraries/STM32F4xx_HAL_Driver/Src/stm32f4xx_hal_rtc.c ****   * @retval Converted byte
1518:./Libraries/STM32F4xx_HAL_Driver/Src/stm32f4xx_hal_rtc.c ****   */
1519:./Libraries/STM32F4xx_HAL_Driver/Src/stm32f4xx_hal_rtc.c **** uint8_t RTC_ByteToBcd2(uint8_t Value)
1520:./Libraries/STM32F4xx_HAL_Driver/Src/stm32f4xx_hal_rtc.c **** {
 1107              		.loc 1 1520 1 is_stmt 1 view -0
 1108              		.cfi_startproc
 1109              		@ args = 0, pretend = 0, frame = 0
 1110              		@ frame_needed = 0, uses_anonymous_args = 0
 1111              		@ link register save eliminated.
1521:./Libraries/STM32F4xx_HAL_Driver/Src/stm32f4xx_hal_rtc.c ****   uint32_t bcdhigh = 0U;
 1112              		.loc 1 1521 3 view .LVU381
1522:./Libraries/STM32F4xx_HAL_Driver/Src/stm32f4xx_hal_rtc.c ****   
1523:./Libraries/STM32F4xx_HAL_Driver/Src/stm32f4xx_hal_rtc.c ****   while(Value >= 10U)
 1113              		.loc 1 1523 3 view .LVU382
1521:./Libraries/STM32F4xx_HAL_Driver/Src/stm32f4xx_hal_rtc.c ****   uint32_t bcdhigh = 0U;
 1114              		.loc 1 1521 12 is_stmt 0 view .LVU383
 1115 0000 0023     		movs	r3, #0
 1116              		.loc 1 1523 8 view .LVU384
 1117 0002 02E0     		b	.L70
 1118              	.LVL58:
 1119              	.L71:
1524:./Libraries/STM32F4xx_HAL_Driver/Src/stm32f4xx_hal_rtc.c ****   {
1525:./Libraries/STM32F4xx_HAL_Driver/Src/stm32f4xx_hal_rtc.c ****     bcdhigh++;
 1120              		.loc 1 1525 5 is_stmt 1 view .LVU385
 1121              		.loc 1 1525 12 is_stmt 0 view .LVU386
 1122 0004 0133     		adds	r3, r3, #1
 1123              	.LVL59:
1526:./Libraries/STM32F4xx_HAL_Driver/Src/stm32f4xx_hal_rtc.c ****     Value -= 10U;
 1124              		.loc 1 1526 5 is_stmt 1 view .LVU387
 1125              		.loc 1 1526 11 is_stmt 0 view .LVU388
 1126 0006 0A38     		subs	r0, r0, #10
 1127              	.LVL60:
 1128              		.loc 1 1526 11 view .LVU389
 1129 0008 C0B2     		uxtb	r0, r0
 1130              	.LVL61:
 1131              	.L70:
1523:./Libraries/STM32F4xx_HAL_Driver/Src/stm32f4xx_hal_rtc.c ****   {
 1132              		.loc 1 1523 8 is_stmt 1 view .LVU390
 1133 000a 0928     		cmp	r0, #9
 1134 000c FAD8     		bhi	.L71
1527:./Libraries/STM32F4xx_HAL_Driver/Src/stm32f4xx_hal_rtc.c ****   }
1528:./Libraries/STM32F4xx_HAL_Driver/Src/stm32f4xx_hal_rtc.c ****   
1529:./Libraries/STM32F4xx_HAL_Driver/Src/stm32f4xx_hal_rtc.c ****   return  ((uint8_t)(bcdhigh << 4U) | Value);
 1135              		.loc 1 1529 3 view .LVU391
 1136              		.loc 1 1529 12 is_stmt 0 view .LVU392
 1137 000e 1B01     		lsls	r3, r3, #4
 1138              	.LVL62:
 1139              		.loc 1 1529 12 view .LVU393
 1140 0010 DBB2     		uxtb	r3, r3
1530:./Libraries/STM32F4xx_HAL_Driver/Src/stm32f4xx_hal_rtc.c **** }
ARM GAS  /tmp/ccdJbK3i.s 			page 52


 1141              		.loc 1 1530 1 view .LVU394
 1142 0012 1843     		orrs	r0, r0, r3
 1143              	.LVL63:
 1144              		.loc 1 1530 1 view .LVU395
 1145 0014 7047     		bx	lr
 1146              		.cfi_endproc
 1147              	.LFE144:
 1149              		.section	.text.HAL_RTC_SetDate,"ax",%progbits
 1150              		.align	1
 1151              		.global	HAL_RTC_SetDate
 1152              		.syntax unified
 1153              		.thumb
 1154              		.thumb_func
 1155              		.fpu fpv4-sp-d16
 1157              	HAL_RTC_SetDate:
 1158              	.LVL64:
 1159              	.LFB132:
 621:./Libraries/STM32F4xx_HAL_Driver/Src/stm32f4xx_hal_rtc.c ****   uint32_t datetmpreg = 0U;
 1160              		.loc 1 621 1 is_stmt 1 view -0
 1161              		.cfi_startproc
 1162              		@ args = 0, pretend = 0, frame = 0
 1163              		@ frame_needed = 0, uses_anonymous_args = 0
 621:./Libraries/STM32F4xx_HAL_Driver/Src/stm32f4xx_hal_rtc.c ****   uint32_t datetmpreg = 0U;
 1164              		.loc 1 621 1 is_stmt 0 view .LVU397
 1165 0000 70B5     		push	{r4, r5, r6, lr}
 1166              	.LCFI7:
 1167              		.cfi_def_cfa_offset 16
 1168              		.cfi_offset 4, -16
 1169              		.cfi_offset 5, -12
 1170              		.cfi_offset 6, -8
 1171              		.cfi_offset 14, -4
 622:./Libraries/STM32F4xx_HAL_Driver/Src/stm32f4xx_hal_rtc.c ****   
 1172              		.loc 1 622 3 is_stmt 1 view .LVU398
 1173              	.LVL65:
 625:./Libraries/STM32F4xx_HAL_Driver/Src/stm32f4xx_hal_rtc.c ****   
 1174              		.loc 1 625 3 view .LVU399
 628:./Libraries/STM32F4xx_HAL_Driver/Src/stm32f4xx_hal_rtc.c ****   
 1175              		.loc 1 628 2 view .LVU400
 628:./Libraries/STM32F4xx_HAL_Driver/Src/stm32f4xx_hal_rtc.c ****   
 1176              		.loc 1 628 2 view .LVU401
 1177 0002 037F     		ldrb	r3, [r0, #28]	@ zero_extendqisi2
 1178 0004 012B     		cmp	r3, #1
 1179 0006 66D0     		beq	.L79
 1180 0008 0446     		mov	r4, r0
 1181 000a 0E46     		mov	r6, r1
 628:./Libraries/STM32F4xx_HAL_Driver/Src/stm32f4xx_hal_rtc.c ****   
 1182              		.loc 1 628 2 discriminator 2 view .LVU402
 1183 000c 0123     		movs	r3, #1
 1184 000e 0377     		strb	r3, [r0, #28]
 628:./Libraries/STM32F4xx_HAL_Driver/Src/stm32f4xx_hal_rtc.c ****   
 1185              		.loc 1 628 2 discriminator 2 view .LVU403
 630:./Libraries/STM32F4xx_HAL_Driver/Src/stm32f4xx_hal_rtc.c ****   
 1186              		.loc 1 630 3 discriminator 2 view .LVU404
 630:./Libraries/STM32F4xx_HAL_Driver/Src/stm32f4xx_hal_rtc.c ****   
 1187              		.loc 1 630 15 is_stmt 0 discriminator 2 view .LVU405
 1188 0010 0223     		movs	r3, #2
 1189 0012 4377     		strb	r3, [r0, #29]
ARM GAS  /tmp/ccdJbK3i.s 			page 53


 632:./Libraries/STM32F4xx_HAL_Driver/Src/stm32f4xx_hal_rtc.c ****   {
 1190              		.loc 1 632 3 is_stmt 1 discriminator 2 view .LVU406
 632:./Libraries/STM32F4xx_HAL_Driver/Src/stm32f4xx_hal_rtc.c ****   {
 1191              		.loc 1 632 5 is_stmt 0 discriminator 2 view .LVU407
 1192 0014 3AB9     		cbnz	r2, .L74
 632:./Libraries/STM32F4xx_HAL_Driver/Src/stm32f4xx_hal_rtc.c ****   {
 1193              		.loc 1 632 43 discriminator 1 view .LVU408
 1194 0016 4B78     		ldrb	r3, [r1, #1]	@ zero_extendqisi2
 632:./Libraries/STM32F4xx_HAL_Driver/Src/stm32f4xx_hal_rtc.c ****   {
 1195              		.loc 1 632 33 discriminator 1 view .LVU409
 1196 0018 13F0100F 		tst	r3, #16
 1197 001c 03D0     		beq	.L74
 634:./Libraries/STM32F4xx_HAL_Driver/Src/stm32f4xx_hal_rtc.c ****   }
 1198              		.loc 1 634 5 is_stmt 1 view .LVU410
 634:./Libraries/STM32F4xx_HAL_Driver/Src/stm32f4xx_hal_rtc.c ****   }
 1199              		.loc 1 634 44 is_stmt 0 view .LVU411
 1200 001e 03F0EF03 		and	r3, r3, #239
 634:./Libraries/STM32F4xx_HAL_Driver/Src/stm32f4xx_hal_rtc.c ****   }
 1201              		.loc 1 634 20 view .LVU412
 1202 0022 0A33     		adds	r3, r3, #10
 634:./Libraries/STM32F4xx_HAL_Driver/Src/stm32f4xx_hal_rtc.c ****   }
 1203              		.loc 1 634 18 view .LVU413
 1204 0024 4B70     		strb	r3, [r1, #1]
 1205              	.L74:
 637:./Libraries/STM32F4xx_HAL_Driver/Src/stm32f4xx_hal_rtc.c ****   
 1206              		.loc 1 637 3 is_stmt 1 view .LVU414
 639:./Libraries/STM32F4xx_HAL_Driver/Src/stm32f4xx_hal_rtc.c ****   {   
 1207              		.loc 1 639 3 view .LVU415
 639:./Libraries/STM32F4xx_HAL_Driver/Src/stm32f4xx_hal_rtc.c ****   {   
 1208              		.loc 1 639 5 is_stmt 0 view .LVU416
 1209 0026 002A     		cmp	r2, #0
 1210 0028 33D1     		bne	.L75
 641:./Libraries/STM32F4xx_HAL_Driver/Src/stm32f4xx_hal_rtc.c ****     assert_param(IS_RTC_MONTH(sDate->Month));
 1211              		.loc 1 641 5 is_stmt 1 view .LVU417
 642:./Libraries/STM32F4xx_HAL_Driver/Src/stm32f4xx_hal_rtc.c ****     assert_param(IS_RTC_DATE(sDate->Date)); 
 1212              		.loc 1 642 5 view .LVU418
 643:./Libraries/STM32F4xx_HAL_Driver/Src/stm32f4xx_hal_rtc.c ****     
 1213              		.loc 1 643 5 view .LVU419
 645:./Libraries/STM32F4xx_HAL_Driver/Src/stm32f4xx_hal_rtc.c ****                  ((uint32_t)RTC_ByteToBcd2(sDate->Month) << 8U) | \
 1214              		.loc 1 645 4 view .LVU420
 645:./Libraries/STM32F4xx_HAL_Driver/Src/stm32f4xx_hal_rtc.c ****                  ((uint32_t)RTC_ByteToBcd2(sDate->Month) << 8U) | \
 1215              		.loc 1 645 29 is_stmt 0 view .LVU421
 1216 002a F078     		ldrb	r0, [r6, #3]	@ zero_extendqisi2
 1217              	.LVL66:
 645:./Libraries/STM32F4xx_HAL_Driver/Src/stm32f4xx_hal_rtc.c ****                  ((uint32_t)RTC_ByteToBcd2(sDate->Month) << 8U) | \
 1218              		.loc 1 645 29 view .LVU422
 1219 002c FFF7FEFF 		bl	RTC_ByteToBcd2
 1220              	.LVL67:
 645:./Libraries/STM32F4xx_HAL_Driver/Src/stm32f4xx_hal_rtc.c ****                  ((uint32_t)RTC_ByteToBcd2(sDate->Month) << 8U) | \
 1221              		.loc 1 645 57 view .LVU423
 1222 0030 0504     		lsls	r5, r0, #16
 646:./Libraries/STM32F4xx_HAL_Driver/Src/stm32f4xx_hal_rtc.c ****                  ((uint32_t)RTC_ByteToBcd2(sDate->Date)) | \
 1223              		.loc 1 646 29 view .LVU424
 1224 0032 7078     		ldrb	r0, [r6, #1]	@ zero_extendqisi2
 1225 0034 FFF7FEFF 		bl	RTC_ByteToBcd2
 1226              	.LVL68:
 645:./Libraries/STM32F4xx_HAL_Driver/Src/stm32f4xx_hal_rtc.c ****                  ((uint32_t)RTC_ByteToBcd2(sDate->Month) << 8U) | \
ARM GAS  /tmp/ccdJbK3i.s 			page 54


 1227              		.loc 1 645 65 view .LVU425
 1228 0038 45EA0025 		orr	r5, r5, r0, lsl #8
 647:./Libraries/STM32F4xx_HAL_Driver/Src/stm32f4xx_hal_rtc.c ****                  ((uint32_t)sDate->WeekDay << 13U));   
 1229              		.loc 1 647 29 view .LVU426
 1230 003c B078     		ldrb	r0, [r6, #2]	@ zero_extendqisi2
 1231 003e FFF7FEFF 		bl	RTC_ByteToBcd2
 1232              	.LVL69:
 646:./Libraries/STM32F4xx_HAL_Driver/Src/stm32f4xx_hal_rtc.c ****                  ((uint32_t)RTC_ByteToBcd2(sDate->Date)) | \
 1233              		.loc 1 646 65 view .LVU427
 1234 0042 0543     		orrs	r5, r5, r0
 648:./Libraries/STM32F4xx_HAL_Driver/Src/stm32f4xx_hal_rtc.c ****   }
 1235              		.loc 1 648 34 view .LVU428
 1236 0044 3078     		ldrb	r0, [r6]	@ zero_extendqisi2
 645:./Libraries/STM32F4xx_HAL_Driver/Src/stm32f4xx_hal_rtc.c ****                  ((uint32_t)RTC_ByteToBcd2(sDate->Month) << 8U) | \
 1237              		.loc 1 645 15 view .LVU429
 1238 0046 45EA4035 		orr	r5, r5, r0, lsl #13
 1239              	.LVL70:
 1240              	.L76:
 663:./Libraries/STM32F4xx_HAL_Driver/Src/stm32f4xx_hal_rtc.c ****   
 1241              		.loc 1 663 3 is_stmt 1 view .LVU430
 663:./Libraries/STM32F4xx_HAL_Driver/Src/stm32f4xx_hal_rtc.c ****   
 1242              		.loc 1 663 3 view .LVU431
 1243 004a 2368     		ldr	r3, [r4]
 1244 004c CA22     		movs	r2, #202
 1245 004e 5A62     		str	r2, [r3, #36]
 663:./Libraries/STM32F4xx_HAL_Driver/Src/stm32f4xx_hal_rtc.c ****   
 1246              		.loc 1 663 3 view .LVU432
 1247 0050 2368     		ldr	r3, [r4]
 1248 0052 5322     		movs	r2, #83
 1249 0054 5A62     		str	r2, [r3, #36]
 663:./Libraries/STM32F4xx_HAL_Driver/Src/stm32f4xx_hal_rtc.c ****   
 1250              		.loc 1 663 3 view .LVU433
 666:./Libraries/STM32F4xx_HAL_Driver/Src/stm32f4xx_hal_rtc.c ****   {
 1251              		.loc 1 666 3 view .LVU434
 666:./Libraries/STM32F4xx_HAL_Driver/Src/stm32f4xx_hal_rtc.c ****   {
 1252              		.loc 1 666 6 is_stmt 0 view .LVU435
 1253 0056 2046     		mov	r0, r4
 1254 0058 FFF7FEFF 		bl	RTC_EnterInitMode
 1255              	.LVL71:
 666:./Libraries/STM32F4xx_HAL_Driver/Src/stm32f4xx_hal_rtc.c ****   {
 1256              		.loc 1 666 5 view .LVU436
 1257 005c 0646     		mov	r6, r0
 1258              	.LVL72:
 666:./Libraries/STM32F4xx_HAL_Driver/Src/stm32f4xx_hal_rtc.c ****   {
 1259              		.loc 1 666 5 view .LVU437
 1260 005e 18BB     		cbnz	r0, .L81
 682:./Libraries/STM32F4xx_HAL_Driver/Src/stm32f4xx_hal_rtc.c ****     
 1261              		.loc 1 682 5 is_stmt 1 view .LVU438
 682:./Libraries/STM32F4xx_HAL_Driver/Src/stm32f4xx_hal_rtc.c ****     
 1262              		.loc 1 682 9 is_stmt 0 view .LVU439
 1263 0060 2368     		ldr	r3, [r4]
 682:./Libraries/STM32F4xx_HAL_Driver/Src/stm32f4xx_hal_rtc.c ****     
 1264              		.loc 1 682 26 view .LVU440
 1265 0062 25F07F45 		bic	r5, r5, #-16777216
 1266              	.LVL73:
 682:./Libraries/STM32F4xx_HAL_Driver/Src/stm32f4xx_hal_rtc.c ****     
 1267              		.loc 1 682 26 view .LVU441
ARM GAS  /tmp/ccdJbK3i.s 			page 55


 1268 0066 25F0C005 		bic	r5, r5, #192
 682:./Libraries/STM32F4xx_HAL_Driver/Src/stm32f4xx_hal_rtc.c ****     
 1269              		.loc 1 682 24 view .LVU442
 1270 006a 5D60     		str	r5, [r3, #4]
 685:./Libraries/STM32F4xx_HAL_Driver/Src/stm32f4xx_hal_rtc.c ****     
 1271              		.loc 1 685 5 is_stmt 1 view .LVU443
 685:./Libraries/STM32F4xx_HAL_Driver/Src/stm32f4xx_hal_rtc.c ****     
 1272              		.loc 1 685 9 is_stmt 0 view .LVU444
 1273 006c 2268     		ldr	r2, [r4]
 685:./Libraries/STM32F4xx_HAL_Driver/Src/stm32f4xx_hal_rtc.c ****     
 1274              		.loc 1 685 25 view .LVU445
 1275 006e D368     		ldr	r3, [r2, #12]
 1276 0070 23F08003 		bic	r3, r3, #128
 1277 0074 D360     		str	r3, [r2, #12]
 688:./Libraries/STM32F4xx_HAL_Driver/Src/stm32f4xx_hal_rtc.c ****     {
 1278              		.loc 1 688 5 is_stmt 1 view .LVU446
 688:./Libraries/STM32F4xx_HAL_Driver/Src/stm32f4xx_hal_rtc.c ****     {
 1279              		.loc 1 688 13 is_stmt 0 view .LVU447
 1280 0076 2368     		ldr	r3, [r4]
 688:./Libraries/STM32F4xx_HAL_Driver/Src/stm32f4xx_hal_rtc.c ****     {
 1281              		.loc 1 688 23 view .LVU448
 1282 0078 9B68     		ldr	r3, [r3, #8]
 688:./Libraries/STM32F4xx_HAL_Driver/Src/stm32f4xx_hal_rtc.c ****     {
 1283              		.loc 1 688 7 view .LVU449
 1284 007a 13F0200F 		tst	r3, #32
 1285 007e 1CD0     		beq	.L82
 1286              	.L78:
 705:./Libraries/STM32F4xx_HAL_Driver/Src/stm32f4xx_hal_rtc.c ****     
 1287              		.loc 1 705 5 is_stmt 1 view .LVU450
 705:./Libraries/STM32F4xx_HAL_Driver/Src/stm32f4xx_hal_rtc.c ****     
 1288              		.loc 1 705 5 view .LVU451
 1289 0080 2368     		ldr	r3, [r4]
 1290 0082 FF22     		movs	r2, #255
 1291 0084 5A62     		str	r2, [r3, #36]
 705:./Libraries/STM32F4xx_HAL_Driver/Src/stm32f4xx_hal_rtc.c ****     
 1292              		.loc 1 705 5 view .LVU452
 707:./Libraries/STM32F4xx_HAL_Driver/Src/stm32f4xx_hal_rtc.c ****     
 1293              		.loc 1 707 5 view .LVU453
 707:./Libraries/STM32F4xx_HAL_Driver/Src/stm32f4xx_hal_rtc.c ****     
 1294              		.loc 1 707 17 is_stmt 0 view .LVU454
 1295 0086 0123     		movs	r3, #1
 1296 0088 6377     		strb	r3, [r4, #29]
 710:./Libraries/STM32F4xx_HAL_Driver/Src/stm32f4xx_hal_rtc.c ****     
 1297              		.loc 1 710 5 is_stmt 1 view .LVU455
 710:./Libraries/STM32F4xx_HAL_Driver/Src/stm32f4xx_hal_rtc.c ****     
 1298              		.loc 1 710 5 view .LVU456
 1299 008a 0023     		movs	r3, #0
 1300 008c 2377     		strb	r3, [r4, #28]
 710:./Libraries/STM32F4xx_HAL_Driver/Src/stm32f4xx_hal_rtc.c ****     
 1301              		.loc 1 710 5 view .LVU457
 712:./Libraries/STM32F4xx_HAL_Driver/Src/stm32f4xx_hal_rtc.c ****   }
 1302              		.loc 1 712 5 view .LVU458
 1303              	.LVL74:
 1304              	.L73:
 714:./Libraries/STM32F4xx_HAL_Driver/Src/stm32f4xx_hal_rtc.c **** 
 1305              		.loc 1 714 1 is_stmt 0 view .LVU459
 1306 008e 3046     		mov	r0, r6
ARM GAS  /tmp/ccdJbK3i.s 			page 56


 1307 0090 70BD     		pop	{r4, r5, r6, pc}
 1308              	.LVL75:
 1309              	.L75:
 652:./Libraries/STM32F4xx_HAL_Driver/Src/stm32f4xx_hal_rtc.c ****     assert_param(IS_RTC_MONTH(datetmpreg));
 1310              		.loc 1 652 5 is_stmt 1 view .LVU460
 653:./Libraries/STM32F4xx_HAL_Driver/Src/stm32f4xx_hal_rtc.c ****     assert_param(IS_RTC_DATE(datetmpreg));
 1311              		.loc 1 653 5 view .LVU461
 654:./Libraries/STM32F4xx_HAL_Driver/Src/stm32f4xx_hal_rtc.c ****     
 1312              		.loc 1 654 5 view .LVU462
 656:./Libraries/STM32F4xx_HAL_Driver/Src/stm32f4xx_hal_rtc.c ****                   (((uint32_t)sDate->Month) << 8U) | \
 1313              		.loc 1 656 5 view .LVU463
 656:./Libraries/STM32F4xx_HAL_Driver/Src/stm32f4xx_hal_rtc.c ****                   (((uint32_t)sDate->Month) << 8U) | \
 1314              		.loc 1 656 36 is_stmt 0 view .LVU464
 1315 0092 F578     		ldrb	r5, [r6, #3]	@ zero_extendqisi2
 657:./Libraries/STM32F4xx_HAL_Driver/Src/stm32f4xx_hal_rtc.c ****                   ((uint32_t)sDate->Date) | \
 1316              		.loc 1 657 36 view .LVU465
 1317 0094 7078     		ldrb	r0, [r6, #1]	@ zero_extendqisi2
 1318              	.LVL76:
 657:./Libraries/STM32F4xx_HAL_Driver/Src/stm32f4xx_hal_rtc.c ****                   ((uint32_t)sDate->Date) | \
 1319              		.loc 1 657 45 view .LVU466
 1320 0096 0002     		lsls	r0, r0, #8
 656:./Libraries/STM32F4xx_HAL_Driver/Src/stm32f4xx_hal_rtc.c ****                   (((uint32_t)sDate->Month) << 8U) | \
 1321              		.loc 1 656 52 view .LVU467
 1322 0098 40EA0540 		orr	r0, r0, r5, lsl #16
 658:./Libraries/STM32F4xx_HAL_Driver/Src/stm32f4xx_hal_rtc.c ****                   (((uint32_t)sDate->WeekDay) << 13U));  
 1323              		.loc 1 658 35 view .LVU468
 1324 009c B578     		ldrb	r5, [r6, #2]	@ zero_extendqisi2
 657:./Libraries/STM32F4xx_HAL_Driver/Src/stm32f4xx_hal_rtc.c ****                   ((uint32_t)sDate->Date) | \
 1325              		.loc 1 657 52 view .LVU469
 1326 009e 2843     		orrs	r0, r0, r5
 659:./Libraries/STM32F4xx_HAL_Driver/Src/stm32f4xx_hal_rtc.c ****   }
 1327              		.loc 1 659 36 view .LVU470
 1328 00a0 3578     		ldrb	r5, [r6]	@ zero_extendqisi2
 656:./Libraries/STM32F4xx_HAL_Driver/Src/stm32f4xx_hal_rtc.c ****                   (((uint32_t)sDate->Month) << 8U) | \
 1329              		.loc 1 656 16 view .LVU471
 1330 00a2 40EA4535 		orr	r5, r0, r5, lsl #13
 1331              	.LVL77:
 656:./Libraries/STM32F4xx_HAL_Driver/Src/stm32f4xx_hal_rtc.c ****                   (((uint32_t)sDate->Month) << 8U) | \
 1332              		.loc 1 656 16 view .LVU472
 1333 00a6 D0E7     		b	.L76
 1334              	.LVL78:
 1335              	.L81:
 669:./Libraries/STM32F4xx_HAL_Driver/Src/stm32f4xx_hal_rtc.c ****     
 1336              		.loc 1 669 5 is_stmt 1 view .LVU473
 669:./Libraries/STM32F4xx_HAL_Driver/Src/stm32f4xx_hal_rtc.c ****     
 1337              		.loc 1 669 5 view .LVU474
 1338 00a8 2368     		ldr	r3, [r4]
 1339 00aa FF22     		movs	r2, #255
 1340 00ac 5A62     		str	r2, [r3, #36]
 669:./Libraries/STM32F4xx_HAL_Driver/Src/stm32f4xx_hal_rtc.c ****     
 1341              		.loc 1 669 5 view .LVU475
 672:./Libraries/STM32F4xx_HAL_Driver/Src/stm32f4xx_hal_rtc.c ****     
 1342              		.loc 1 672 5 view .LVU476
 672:./Libraries/STM32F4xx_HAL_Driver/Src/stm32f4xx_hal_rtc.c ****     
 1343              		.loc 1 672 17 is_stmt 0 view .LVU477
 1344 00ae 0423     		movs	r3, #4
 1345 00b0 6377     		strb	r3, [r4, #29]
ARM GAS  /tmp/ccdJbK3i.s 			page 57


 675:./Libraries/STM32F4xx_HAL_Driver/Src/stm32f4xx_hal_rtc.c ****     
 1346              		.loc 1 675 5 is_stmt 1 view .LVU478
 675:./Libraries/STM32F4xx_HAL_Driver/Src/stm32f4xx_hal_rtc.c ****     
 1347              		.loc 1 675 5 view .LVU479
 1348 00b2 0023     		movs	r3, #0
 1349 00b4 2377     		strb	r3, [r4, #28]
 675:./Libraries/STM32F4xx_HAL_Driver/Src/stm32f4xx_hal_rtc.c ****     
 1350              		.loc 1 675 5 view .LVU480
 677:./Libraries/STM32F4xx_HAL_Driver/Src/stm32f4xx_hal_rtc.c ****   } 
 1351              		.loc 1 677 5 view .LVU481
 677:./Libraries/STM32F4xx_HAL_Driver/Src/stm32f4xx_hal_rtc.c ****   } 
 1352              		.loc 1 677 12 is_stmt 0 view .LVU482
 1353 00b6 0126     		movs	r6, #1
 1354 00b8 E9E7     		b	.L73
 1355              	.LVL79:
 1356              	.L82:
 690:./Libraries/STM32F4xx_HAL_Driver/Src/stm32f4xx_hal_rtc.c ****       { 
 1357              		.loc 1 690 7 is_stmt 1 view .LVU483
 690:./Libraries/STM32F4xx_HAL_Driver/Src/stm32f4xx_hal_rtc.c ****       { 
 1358              		.loc 1 690 10 is_stmt 0 view .LVU484
 1359 00ba 2046     		mov	r0, r4
 1360 00bc FFF7FEFF 		bl	HAL_RTC_WaitForSynchro
 1361              	.LVL80:
 690:./Libraries/STM32F4xx_HAL_Driver/Src/stm32f4xx_hal_rtc.c ****       { 
 1362              		.loc 1 690 9 view .LVU485
 1363 00c0 0028     		cmp	r0, #0
 1364 00c2 DDD0     		beq	.L78
 693:./Libraries/STM32F4xx_HAL_Driver/Src/stm32f4xx_hal_rtc.c ****         
 1365              		.loc 1 693 9 is_stmt 1 view .LVU486
 693:./Libraries/STM32F4xx_HAL_Driver/Src/stm32f4xx_hal_rtc.c ****         
 1366              		.loc 1 693 9 view .LVU487
 1367 00c4 2368     		ldr	r3, [r4]
 1368 00c6 FF22     		movs	r2, #255
 1369 00c8 5A62     		str	r2, [r3, #36]
 693:./Libraries/STM32F4xx_HAL_Driver/Src/stm32f4xx_hal_rtc.c ****         
 1370              		.loc 1 693 9 view .LVU488
 695:./Libraries/STM32F4xx_HAL_Driver/Src/stm32f4xx_hal_rtc.c ****         
 1371              		.loc 1 695 9 view .LVU489
 695:./Libraries/STM32F4xx_HAL_Driver/Src/stm32f4xx_hal_rtc.c ****         
 1372              		.loc 1 695 21 is_stmt 0 view .LVU490
 1373 00ca 0423     		movs	r3, #4
 1374 00cc 6377     		strb	r3, [r4, #29]
 698:./Libraries/STM32F4xx_HAL_Driver/Src/stm32f4xx_hal_rtc.c ****         
 1375              		.loc 1 698 9 is_stmt 1 view .LVU491
 698:./Libraries/STM32F4xx_HAL_Driver/Src/stm32f4xx_hal_rtc.c ****         
 1376              		.loc 1 698 9 view .LVU492
 1377 00ce 0023     		movs	r3, #0
 1378 00d0 2377     		strb	r3, [r4, #28]
 698:./Libraries/STM32F4xx_HAL_Driver/Src/stm32f4xx_hal_rtc.c ****         
 1379              		.loc 1 698 9 view .LVU493
 700:./Libraries/STM32F4xx_HAL_Driver/Src/stm32f4xx_hal_rtc.c ****       }
 1380              		.loc 1 700 9 view .LVU494
 700:./Libraries/STM32F4xx_HAL_Driver/Src/stm32f4xx_hal_rtc.c ****       }
 1381              		.loc 1 700 16 is_stmt 0 view .LVU495
 1382 00d2 0126     		movs	r6, #1
 1383 00d4 DBE7     		b	.L73
 1384              	.LVL81:
ARM GAS  /tmp/ccdJbK3i.s 			page 58


 1385              	.L79:
 628:./Libraries/STM32F4xx_HAL_Driver/Src/stm32f4xx_hal_rtc.c ****   
 1386              		.loc 1 628 2 view .LVU496
 1387 00d6 0226     		movs	r6, #2
 1388 00d8 D9E7     		b	.L73
 1389              		.cfi_endproc
 1390              	.LFE132:
 1392              		.section	.text.HAL_RTC_SetTime,"ax",%progbits
 1393              		.align	1
 1394              		.global	HAL_RTC_SetTime
 1395              		.syntax unified
 1396              		.thumb
 1397              		.thumb_func
 1398              		.fpu fpv4-sp-d16
 1400              	HAL_RTC_SetTime:
 1401              	.LVL82:
 1402              	.LFB130:
 444:./Libraries/STM32F4xx_HAL_Driver/Src/stm32f4xx_hal_rtc.c ****   uint32_t tmpreg = 0U;
 1403              		.loc 1 444 1 is_stmt 1 view -0
 1404              		.cfi_startproc
 1405              		@ args = 0, pretend = 0, frame = 0
 1406              		@ frame_needed = 0, uses_anonymous_args = 0
 444:./Libraries/STM32F4xx_HAL_Driver/Src/stm32f4xx_hal_rtc.c ****   uint32_t tmpreg = 0U;
 1407              		.loc 1 444 1 is_stmt 0 view .LVU498
 1408 0000 F8B5     		push	{r3, r4, r5, r6, r7, lr}
 1409              	.LCFI8:
 1410              		.cfi_def_cfa_offset 24
 1411              		.cfi_offset 3, -24
 1412              		.cfi_offset 4, -20
 1413              		.cfi_offset 5, -16
 1414              		.cfi_offset 6, -12
 1415              		.cfi_offset 7, -8
 1416              		.cfi_offset 14, -4
 445:./Libraries/STM32F4xx_HAL_Driver/Src/stm32f4xx_hal_rtc.c ****   
 1417              		.loc 1 445 3 is_stmt 1 view .LVU499
 1418              	.LVL83:
 448:./Libraries/STM32F4xx_HAL_Driver/Src/stm32f4xx_hal_rtc.c ****   assert_param(IS_RTC_DAYLIGHT_SAVING(sTime->DayLightSaving));
 1419              		.loc 1 448 3 view .LVU500
 449:./Libraries/STM32F4xx_HAL_Driver/Src/stm32f4xx_hal_rtc.c ****   assert_param(IS_RTC_STORE_OPERATION(sTime->StoreOperation));
 1420              		.loc 1 449 3 view .LVU501
 450:./Libraries/STM32F4xx_HAL_Driver/Src/stm32f4xx_hal_rtc.c ****   
 1421              		.loc 1 450 3 view .LVU502
 453:./Libraries/STM32F4xx_HAL_Driver/Src/stm32f4xx_hal_rtc.c ****   
 1422              		.loc 1 453 3 view .LVU503
 453:./Libraries/STM32F4xx_HAL_Driver/Src/stm32f4xx_hal_rtc.c ****   
 1423              		.loc 1 453 3 view .LVU504
 1424 0002 037F     		ldrb	r3, [r0, #28]	@ zero_extendqisi2
 1425 0004 012B     		cmp	r3, #1
 1426 0006 78D0     		beq	.L91
 1427 0008 0446     		mov	r4, r0
 1428 000a 0E46     		mov	r6, r1
 453:./Libraries/STM32F4xx_HAL_Driver/Src/stm32f4xx_hal_rtc.c ****   
 1429              		.loc 1 453 3 discriminator 2 view .LVU505
 1430 000c 0123     		movs	r3, #1
 1431 000e 0377     		strb	r3, [r0, #28]
 453:./Libraries/STM32F4xx_HAL_Driver/Src/stm32f4xx_hal_rtc.c ****   
 1432              		.loc 1 453 3 discriminator 2 view .LVU506
ARM GAS  /tmp/ccdJbK3i.s 			page 59


 455:./Libraries/STM32F4xx_HAL_Driver/Src/stm32f4xx_hal_rtc.c ****   
 1433              		.loc 1 455 3 discriminator 2 view .LVU507
 455:./Libraries/STM32F4xx_HAL_Driver/Src/stm32f4xx_hal_rtc.c ****   
 1434              		.loc 1 455 15 is_stmt 0 discriminator 2 view .LVU508
 1435 0010 0223     		movs	r3, #2
 1436 0012 4377     		strb	r3, [r0, #29]
 457:./Libraries/STM32F4xx_HAL_Driver/Src/stm32f4xx_hal_rtc.c ****   {
 1437              		.loc 1 457 3 is_stmt 1 discriminator 2 view .LVU509
 457:./Libraries/STM32F4xx_HAL_Driver/Src/stm32f4xx_hal_rtc.c ****   {
 1438              		.loc 1 457 5 is_stmt 0 discriminator 2 view .LVU510
 1439 0014 002A     		cmp	r2, #0
 1440 0016 47D1     		bne	.L85
 459:./Libraries/STM32F4xx_HAL_Driver/Src/stm32f4xx_hal_rtc.c ****     {
 1441              		.loc 1 459 5 is_stmt 1 view .LVU511
 459:./Libraries/STM32F4xx_HAL_Driver/Src/stm32f4xx_hal_rtc.c ****     {
 1442              		.loc 1 459 13 is_stmt 0 view .LVU512
 1443 0018 0368     		ldr	r3, [r0]
 459:./Libraries/STM32F4xx_HAL_Driver/Src/stm32f4xx_hal_rtc.c ****     {
 1444              		.loc 1 459 23 view .LVU513
 1445 001a 9B68     		ldr	r3, [r3, #8]
 459:./Libraries/STM32F4xx_HAL_Driver/Src/stm32f4xx_hal_rtc.c ****     {
 1446              		.loc 1 459 7 view .LVU514
 1447 001c 13F0400F 		tst	r3, #64
 1448 0020 01D1     		bne	.L86
 466:./Libraries/STM32F4xx_HAL_Driver/Src/stm32f4xx_hal_rtc.c ****       assert_param(IS_RTC_HOUR24(sTime->Hours));
 1449              		.loc 1 466 7 is_stmt 1 view .LVU515
 466:./Libraries/STM32F4xx_HAL_Driver/Src/stm32f4xx_hal_rtc.c ****       assert_param(IS_RTC_HOUR24(sTime->Hours));
 1450              		.loc 1 466 25 is_stmt 0 view .LVU516
 1451 0022 0023     		movs	r3, #0
 1452 0024 CB70     		strb	r3, [r1, #3]
 1453              	.L86:
 467:./Libraries/STM32F4xx_HAL_Driver/Src/stm32f4xx_hal_rtc.c ****     }
 1454              		.loc 1 467 7 is_stmt 1 view .LVU517
 469:./Libraries/STM32F4xx_HAL_Driver/Src/stm32f4xx_hal_rtc.c ****     assert_param(IS_RTC_SECONDS(sTime->Seconds));
 1455              		.loc 1 469 5 view .LVU518
 470:./Libraries/STM32F4xx_HAL_Driver/Src/stm32f4xx_hal_rtc.c ****     
 1456              		.loc 1 470 5 view .LVU519
 472:./Libraries/STM32F4xx_HAL_Driver/Src/stm32f4xx_hal_rtc.c ****                         ((uint32_t)RTC_ByteToBcd2(sTime->Minutes) << 8U) | \
 1457              		.loc 1 472 5 view .LVU520
 472:./Libraries/STM32F4xx_HAL_Driver/Src/stm32f4xx_hal_rtc.c ****                         ((uint32_t)RTC_ByteToBcd2(sTime->Minutes) << 8U) | \
 1458              		.loc 1 472 36 is_stmt 0 view .LVU521
 1459 0026 3078     		ldrb	r0, [r6]	@ zero_extendqisi2
 1460              	.LVL84:
 472:./Libraries/STM32F4xx_HAL_Driver/Src/stm32f4xx_hal_rtc.c ****                         ((uint32_t)RTC_ByteToBcd2(sTime->Minutes) << 8U) | \
 1461              		.loc 1 472 36 view .LVU522
 1462 0028 FFF7FEFF 		bl	RTC_ByteToBcd2
 1463              	.LVL85:
 472:./Libraries/STM32F4xx_HAL_Driver/Src/stm32f4xx_hal_rtc.c ****                         ((uint32_t)RTC_ByteToBcd2(sTime->Minutes) << 8U) | \
 1464              		.loc 1 472 65 view .LVU523
 1465 002c 0504     		lsls	r5, r0, #16
 473:./Libraries/STM32F4xx_HAL_Driver/Src/stm32f4xx_hal_rtc.c ****                         ((uint32_t)RTC_ByteToBcd2(sTime->Seconds)) | \
 1466              		.loc 1 473 36 view .LVU524
 1467 002e 7078     		ldrb	r0, [r6, #1]	@ zero_extendqisi2
 1468 0030 FFF7FEFF 		bl	RTC_ByteToBcd2
 1469              	.LVL86:
 472:./Libraries/STM32F4xx_HAL_Driver/Src/stm32f4xx_hal_rtc.c ****                         ((uint32_t)RTC_ByteToBcd2(sTime->Minutes) << 8U) | \
 1470              		.loc 1 472 73 view .LVU525
ARM GAS  /tmp/ccdJbK3i.s 			page 60


 1471 0034 45EA0025 		orr	r5, r5, r0, lsl #8
 474:./Libraries/STM32F4xx_HAL_Driver/Src/stm32f4xx_hal_rtc.c ****                         (((uint32_t)sTime->TimeFormat) << 16U));  
 1472              		.loc 1 474 36 view .LVU526
 1473 0038 B078     		ldrb	r0, [r6, #2]	@ zero_extendqisi2
 1474 003a FFF7FEFF 		bl	RTC_ByteToBcd2
 1475              	.LVL87:
 473:./Libraries/STM32F4xx_HAL_Driver/Src/stm32f4xx_hal_rtc.c ****                         ((uint32_t)RTC_ByteToBcd2(sTime->Seconds)) | \
 1476              		.loc 1 473 74 view .LVU527
 1477 003e 0543     		orrs	r5, r5, r0
 475:./Libraries/STM32F4xx_HAL_Driver/Src/stm32f4xx_hal_rtc.c ****   }
 1478              		.loc 1 475 42 view .LVU528
 1479 0040 F078     		ldrb	r0, [r6, #3]	@ zero_extendqisi2
 472:./Libraries/STM32F4xx_HAL_Driver/Src/stm32f4xx_hal_rtc.c ****                         ((uint32_t)RTC_ByteToBcd2(sTime->Minutes) << 8U) | \
 1480              		.loc 1 472 12 view .LVU529
 1481 0042 45EA0045 		orr	r5, r5, r0, lsl #16
 1482              	.LVL88:
 1483              	.L87:
 499:./Libraries/STM32F4xx_HAL_Driver/Src/stm32f4xx_hal_rtc.c ****   
 1484              		.loc 1 499 3 is_stmt 1 view .LVU530
 499:./Libraries/STM32F4xx_HAL_Driver/Src/stm32f4xx_hal_rtc.c ****   
 1485              		.loc 1 499 3 view .LVU531
 1486 0046 2368     		ldr	r3, [r4]
 1487 0048 CA22     		movs	r2, #202
 1488 004a 5A62     		str	r2, [r3, #36]
 499:./Libraries/STM32F4xx_HAL_Driver/Src/stm32f4xx_hal_rtc.c ****   
 1489              		.loc 1 499 3 view .LVU532
 1490 004c 2368     		ldr	r3, [r4]
 1491 004e 5322     		movs	r2, #83
 1492 0050 5A62     		str	r2, [r3, #36]
 499:./Libraries/STM32F4xx_HAL_Driver/Src/stm32f4xx_hal_rtc.c ****   
 1493              		.loc 1 499 3 view .LVU533
 502:./Libraries/STM32F4xx_HAL_Driver/Src/stm32f4xx_hal_rtc.c ****   {
 1494              		.loc 1 502 3 view .LVU534
 502:./Libraries/STM32F4xx_HAL_Driver/Src/stm32f4xx_hal_rtc.c ****   {
 1495              		.loc 1 502 6 is_stmt 0 view .LVU535
 1496 0052 2046     		mov	r0, r4
 1497 0054 FFF7FEFF 		bl	RTC_EnterInitMode
 1498              	.LVL89:
 502:./Libraries/STM32F4xx_HAL_Driver/Src/stm32f4xx_hal_rtc.c ****   {
 1499              		.loc 1 502 5 view .LVU536
 1500 0058 0746     		mov	r7, r0
 1501 005a 0028     		cmp	r0, #0
 1502 005c 36D1     		bne	.L93
 518:./Libraries/STM32F4xx_HAL_Driver/Src/stm32f4xx_hal_rtc.c ****      
 1503              		.loc 1 518 5 is_stmt 1 view .LVU537
 518:./Libraries/STM32F4xx_HAL_Driver/Src/stm32f4xx_hal_rtc.c ****      
 1504              		.loc 1 518 9 is_stmt 0 view .LVU538
 1505 005e 2368     		ldr	r3, [r4]
 518:./Libraries/STM32F4xx_HAL_Driver/Src/stm32f4xx_hal_rtc.c ****      
 1506              		.loc 1 518 26 view .LVU539
 1507 0060 05F07F35 		and	r5, r5, #2139062143
 1508              	.LVL90:
 518:./Libraries/STM32F4xx_HAL_Driver/Src/stm32f4xx_hal_rtc.c ****      
 1509              		.loc 1 518 26 view .LVU540
 1510 0064 25F0FE45 		bic	r5, r5, #2130706432
 518:./Libraries/STM32F4xx_HAL_Driver/Src/stm32f4xx_hal_rtc.c ****      
 1511              		.loc 1 518 24 view .LVU541
ARM GAS  /tmp/ccdJbK3i.s 			page 61


 1512 0068 1D60     		str	r5, [r3]
 521:./Libraries/STM32F4xx_HAL_Driver/Src/stm32f4xx_hal_rtc.c ****     
 1513              		.loc 1 521 5 is_stmt 1 view .LVU542
 521:./Libraries/STM32F4xx_HAL_Driver/Src/stm32f4xx_hal_rtc.c ****     
 1514              		.loc 1 521 9 is_stmt 0 view .LVU543
 1515 006a 2268     		ldr	r2, [r4]
 521:./Libraries/STM32F4xx_HAL_Driver/Src/stm32f4xx_hal_rtc.c ****     
 1516              		.loc 1 521 24 view .LVU544
 1517 006c 9368     		ldr	r3, [r2, #8]
 1518 006e 23F48023 		bic	r3, r3, #262144
 1519 0072 9360     		str	r3, [r2, #8]
 524:./Libraries/STM32F4xx_HAL_Driver/Src/stm32f4xx_hal_rtc.c ****     
 1520              		.loc 1 524 5 is_stmt 1 view .LVU545
 524:./Libraries/STM32F4xx_HAL_Driver/Src/stm32f4xx_hal_rtc.c ****     
 1521              		.loc 1 524 9 is_stmt 0 view .LVU546
 1522 0074 2168     		ldr	r1, [r4]
 524:./Libraries/STM32F4xx_HAL_Driver/Src/stm32f4xx_hal_rtc.c ****     
 1523              		.loc 1 524 24 view .LVU547
 1524 0076 8B68     		ldr	r3, [r1, #8]
 524:./Libraries/STM32F4xx_HAL_Driver/Src/stm32f4xx_hal_rtc.c ****     
 1525              		.loc 1 524 43 view .LVU548
 1526 0078 F268     		ldr	r2, [r6, #12]
 524:./Libraries/STM32F4xx_HAL_Driver/Src/stm32f4xx_hal_rtc.c ****     
 1527              		.loc 1 524 67 view .LVU549
 1528 007a 3069     		ldr	r0, [r6, #16]
 524:./Libraries/STM32F4xx_HAL_Driver/Src/stm32f4xx_hal_rtc.c ****     
 1529              		.loc 1 524 60 view .LVU550
 1530 007c 0243     		orrs	r2, r2, r0
 524:./Libraries/STM32F4xx_HAL_Driver/Src/stm32f4xx_hal_rtc.c ****     
 1531              		.loc 1 524 24 view .LVU551
 1532 007e 1343     		orrs	r3, r3, r2
 1533 0080 8B60     		str	r3, [r1, #8]
 527:./Libraries/STM32F4xx_HAL_Driver/Src/stm32f4xx_hal_rtc.c ****     
 1534              		.loc 1 527 5 is_stmt 1 view .LVU552
 527:./Libraries/STM32F4xx_HAL_Driver/Src/stm32f4xx_hal_rtc.c ****     
 1535              		.loc 1 527 9 is_stmt 0 view .LVU553
 1536 0082 2268     		ldr	r2, [r4]
 527:./Libraries/STM32F4xx_HAL_Driver/Src/stm32f4xx_hal_rtc.c ****     
 1537              		.loc 1 527 25 view .LVU554
 1538 0084 D368     		ldr	r3, [r2, #12]
 1539 0086 23F08003 		bic	r3, r3, #128
 1540 008a D360     		str	r3, [r2, #12]
 530:./Libraries/STM32F4xx_HAL_Driver/Src/stm32f4xx_hal_rtc.c ****     {
 1541              		.loc 1 530 5 is_stmt 1 view .LVU555
 530:./Libraries/STM32F4xx_HAL_Driver/Src/stm32f4xx_hal_rtc.c ****     {
 1542              		.loc 1 530 13 is_stmt 0 view .LVU556
 1543 008c 2368     		ldr	r3, [r4]
 530:./Libraries/STM32F4xx_HAL_Driver/Src/stm32f4xx_hal_rtc.c ****     {
 1544              		.loc 1 530 23 view .LVU557
 1545 008e 9B68     		ldr	r3, [r3, #8]
 530:./Libraries/STM32F4xx_HAL_Driver/Src/stm32f4xx_hal_rtc.c ****     {
 1546              		.loc 1 530 7 view .LVU558
 1547 0090 13F0200F 		tst	r3, #32
 1548 0094 23D0     		beq	.L94
 1549              	.L90:
 547:./Libraries/STM32F4xx_HAL_Driver/Src/stm32f4xx_hal_rtc.c ****     
 1550              		.loc 1 547 5 is_stmt 1 view .LVU559
ARM GAS  /tmp/ccdJbK3i.s 			page 62


 547:./Libraries/STM32F4xx_HAL_Driver/Src/stm32f4xx_hal_rtc.c ****     
 1551              		.loc 1 547 5 view .LVU560
 1552 0096 2368     		ldr	r3, [r4]
 1553 0098 FF22     		movs	r2, #255
 1554 009a 5A62     		str	r2, [r3, #36]
 547:./Libraries/STM32F4xx_HAL_Driver/Src/stm32f4xx_hal_rtc.c ****     
 1555              		.loc 1 547 5 view .LVU561
 549:./Libraries/STM32F4xx_HAL_Driver/Src/stm32f4xx_hal_rtc.c ****   
 1556              		.loc 1 549 4 view .LVU562
 549:./Libraries/STM32F4xx_HAL_Driver/Src/stm32f4xx_hal_rtc.c ****   
 1557              		.loc 1 549 16 is_stmt 0 view .LVU563
 1558 009c 0123     		movs	r3, #1
 1559 009e 6377     		strb	r3, [r4, #29]
 551:./Libraries/STM32F4xx_HAL_Driver/Src/stm32f4xx_hal_rtc.c ****      
 1560              		.loc 1 551 4 is_stmt 1 view .LVU564
 551:./Libraries/STM32F4xx_HAL_Driver/Src/stm32f4xx_hal_rtc.c ****      
 1561              		.loc 1 551 4 view .LVU565
 1562 00a0 0023     		movs	r3, #0
 1563 00a2 2377     		strb	r3, [r4, #28]
 551:./Libraries/STM32F4xx_HAL_Driver/Src/stm32f4xx_hal_rtc.c ****      
 1564              		.loc 1 551 4 view .LVU566
 553:./Libraries/STM32F4xx_HAL_Driver/Src/stm32f4xx_hal_rtc.c ****   }
 1565              		.loc 1 553 4 view .LVU567
 1566              	.LVL91:
 1567              	.L84:
 555:./Libraries/STM32F4xx_HAL_Driver/Src/stm32f4xx_hal_rtc.c **** 
 1568              		.loc 1 555 1 is_stmt 0 view .LVU568
 1569 00a4 3846     		mov	r0, r7
 1570 00a6 F8BD     		pop	{r3, r4, r5, r6, r7, pc}
 1571              	.LVL92:
 1572              	.L85:
 479:./Libraries/STM32F4xx_HAL_Driver/Src/stm32f4xx_hal_rtc.c ****     {
 1573              		.loc 1 479 5 is_stmt 1 view .LVU569
 479:./Libraries/STM32F4xx_HAL_Driver/Src/stm32f4xx_hal_rtc.c ****     {
 1574              		.loc 1 479 13 is_stmt 0 view .LVU570
 1575 00a8 0368     		ldr	r3, [r0]
 479:./Libraries/STM32F4xx_HAL_Driver/Src/stm32f4xx_hal_rtc.c ****     {
 1576              		.loc 1 479 23 view .LVU571
 1577 00aa 9B68     		ldr	r3, [r3, #8]
 479:./Libraries/STM32F4xx_HAL_Driver/Src/stm32f4xx_hal_rtc.c ****     {
 1578              		.loc 1 479 7 view .LVU572
 1579 00ac 13F0400F 		tst	r3, #64
 1580 00b0 01D1     		bne	.L88
 487:./Libraries/STM32F4xx_HAL_Driver/Src/stm32f4xx_hal_rtc.c ****       assert_param(IS_RTC_HOUR24(RTC_Bcd2ToByte(sTime->Hours)));
 1581              		.loc 1 487 7 is_stmt 1 view .LVU573
 487:./Libraries/STM32F4xx_HAL_Driver/Src/stm32f4xx_hal_rtc.c ****       assert_param(IS_RTC_HOUR24(RTC_Bcd2ToByte(sTime->Hours)));
 1582              		.loc 1 487 25 is_stmt 0 view .LVU574
 1583 00b2 0023     		movs	r3, #0
 1584 00b4 CB70     		strb	r3, [r1, #3]
 1585              	.L88:
 1586              	.LVL93:
 488:./Libraries/STM32F4xx_HAL_Driver/Src/stm32f4xx_hal_rtc.c ****     }
 1587              		.loc 1 488 7 is_stmt 1 view .LVU575
 490:./Libraries/STM32F4xx_HAL_Driver/Src/stm32f4xx_hal_rtc.c ****     assert_param(IS_RTC_SECONDS(RTC_Bcd2ToByte(sTime->Seconds)));
 1588              		.loc 1 490 5 view .LVU576
 491:./Libraries/STM32F4xx_HAL_Driver/Src/stm32f4xx_hal_rtc.c ****     tmpreg = (((uint32_t)(sTime->Hours) << 16U) | \
 1589              		.loc 1 491 5 view .LVU577
ARM GAS  /tmp/ccdJbK3i.s 			page 63


 492:./Libraries/STM32F4xx_HAL_Driver/Src/stm32f4xx_hal_rtc.c ****               ((uint32_t)(sTime->Minutes) << 8U) | \
 1590              		.loc 1 492 5 view .LVU578
 492:./Libraries/STM32F4xx_HAL_Driver/Src/stm32f4xx_hal_rtc.c ****               ((uint32_t)(sTime->Minutes) << 8U) | \
 1591              		.loc 1 492 32 is_stmt 0 view .LVU579
 1592 00b6 3578     		ldrb	r5, [r6]	@ zero_extendqisi2
 493:./Libraries/STM32F4xx_HAL_Driver/Src/stm32f4xx_hal_rtc.c ****               ((uint32_t)sTime->Seconds) | \
 1593              		.loc 1 493 32 view .LVU580
 1594 00b8 7078     		ldrb	r0, [r6, #1]	@ zero_extendqisi2
 1595              	.LVL94:
 493:./Libraries/STM32F4xx_HAL_Driver/Src/stm32f4xx_hal_rtc.c ****               ((uint32_t)sTime->Seconds) | \
 1596              		.loc 1 493 43 view .LVU581
 1597 00ba 0002     		lsls	r0, r0, #8
 492:./Libraries/STM32F4xx_HAL_Driver/Src/stm32f4xx_hal_rtc.c ****               ((uint32_t)(sTime->Minutes) << 8U) | \
 1598              		.loc 1 492 49 view .LVU582
 1599 00bc 40EA0540 		orr	r0, r0, r5, lsl #16
 494:./Libraries/STM32F4xx_HAL_Driver/Src/stm32f4xx_hal_rtc.c ****               ((uint32_t)(sTime->TimeFormat) << 16U));   
 1600              		.loc 1 494 31 view .LVU583
 1601 00c0 B578     		ldrb	r5, [r6, #2]	@ zero_extendqisi2
 493:./Libraries/STM32F4xx_HAL_Driver/Src/stm32f4xx_hal_rtc.c ****               ((uint32_t)sTime->Seconds) | \
 1602              		.loc 1 493 50 view .LVU584
 1603 00c2 2843     		orrs	r0, r0, r5
 495:./Libraries/STM32F4xx_HAL_Driver/Src/stm32f4xx_hal_rtc.c ****   }
 1604              		.loc 1 495 32 view .LVU585
 1605 00c4 F578     		ldrb	r5, [r6, #3]	@ zero_extendqisi2
 492:./Libraries/STM32F4xx_HAL_Driver/Src/stm32f4xx_hal_rtc.c ****               ((uint32_t)(sTime->Minutes) << 8U) | \
 1606              		.loc 1 492 12 view .LVU586
 1607 00c6 40EA0545 		orr	r5, r0, r5, lsl #16
 1608              	.LVL95:
 492:./Libraries/STM32F4xx_HAL_Driver/Src/stm32f4xx_hal_rtc.c ****               ((uint32_t)(sTime->Minutes) << 8U) | \
 1609              		.loc 1 492 12 view .LVU587
 1610 00ca BCE7     		b	.L87
 1611              	.LVL96:
 1612              	.L93:
 505:./Libraries/STM32F4xx_HAL_Driver/Src/stm32f4xx_hal_rtc.c ****     
 1613              		.loc 1 505 5 is_stmt 1 view .LVU588
 505:./Libraries/STM32F4xx_HAL_Driver/Src/stm32f4xx_hal_rtc.c ****     
 1614              		.loc 1 505 5 view .LVU589
 1615 00cc 2368     		ldr	r3, [r4]
 1616 00ce FF22     		movs	r2, #255
 1617 00d0 5A62     		str	r2, [r3, #36]
 505:./Libraries/STM32F4xx_HAL_Driver/Src/stm32f4xx_hal_rtc.c ****     
 1618              		.loc 1 505 5 view .LVU590
 508:./Libraries/STM32F4xx_HAL_Driver/Src/stm32f4xx_hal_rtc.c ****     
 1619              		.loc 1 508 5 view .LVU591
 508:./Libraries/STM32F4xx_HAL_Driver/Src/stm32f4xx_hal_rtc.c ****     
 1620              		.loc 1 508 17 is_stmt 0 view .LVU592
 1621 00d2 0423     		movs	r3, #4
 1622 00d4 6377     		strb	r3, [r4, #29]
 511:./Libraries/STM32F4xx_HAL_Driver/Src/stm32f4xx_hal_rtc.c ****     
 1623              		.loc 1 511 5 is_stmt 1 view .LVU593
 511:./Libraries/STM32F4xx_HAL_Driver/Src/stm32f4xx_hal_rtc.c ****     
 1624              		.loc 1 511 5 view .LVU594
 1625 00d6 0023     		movs	r3, #0
 1626 00d8 2377     		strb	r3, [r4, #28]
 511:./Libraries/STM32F4xx_HAL_Driver/Src/stm32f4xx_hal_rtc.c ****     
 1627              		.loc 1 511 5 view .LVU595
 513:./Libraries/STM32F4xx_HAL_Driver/Src/stm32f4xx_hal_rtc.c ****   } 
ARM GAS  /tmp/ccdJbK3i.s 			page 64


 1628              		.loc 1 513 5 view .LVU596
 513:./Libraries/STM32F4xx_HAL_Driver/Src/stm32f4xx_hal_rtc.c ****   } 
 1629              		.loc 1 513 12 is_stmt 0 view .LVU597
 1630 00da 0127     		movs	r7, #1
 1631 00dc E2E7     		b	.L84
 1632              	.LVL97:
 1633              	.L94:
 532:./Libraries/STM32F4xx_HAL_Driver/Src/stm32f4xx_hal_rtc.c ****       {        
 1634              		.loc 1 532 7 is_stmt 1 view .LVU598
 532:./Libraries/STM32F4xx_HAL_Driver/Src/stm32f4xx_hal_rtc.c ****       {        
 1635              		.loc 1 532 10 is_stmt 0 view .LVU599
 1636 00de 2046     		mov	r0, r4
 1637 00e0 FFF7FEFF 		bl	HAL_RTC_WaitForSynchro
 1638              	.LVL98:
 532:./Libraries/STM32F4xx_HAL_Driver/Src/stm32f4xx_hal_rtc.c ****       {        
 1639              		.loc 1 532 9 view .LVU600
 1640 00e4 0028     		cmp	r0, #0
 1641 00e6 D6D0     		beq	.L90
 535:./Libraries/STM32F4xx_HAL_Driver/Src/stm32f4xx_hal_rtc.c ****         
 1642              		.loc 1 535 9 is_stmt 1 view .LVU601
 535:./Libraries/STM32F4xx_HAL_Driver/Src/stm32f4xx_hal_rtc.c ****         
 1643              		.loc 1 535 9 view .LVU602
 1644 00e8 2368     		ldr	r3, [r4]
 1645 00ea FF22     		movs	r2, #255
 1646 00ec 5A62     		str	r2, [r3, #36]
 535:./Libraries/STM32F4xx_HAL_Driver/Src/stm32f4xx_hal_rtc.c ****         
 1647              		.loc 1 535 9 view .LVU603
 537:./Libraries/STM32F4xx_HAL_Driver/Src/stm32f4xx_hal_rtc.c ****         
 1648              		.loc 1 537 9 view .LVU604
 537:./Libraries/STM32F4xx_HAL_Driver/Src/stm32f4xx_hal_rtc.c ****         
 1649              		.loc 1 537 21 is_stmt 0 view .LVU605
 1650 00ee 0423     		movs	r3, #4
 1651 00f0 6377     		strb	r3, [r4, #29]
 540:./Libraries/STM32F4xx_HAL_Driver/Src/stm32f4xx_hal_rtc.c ****         
 1652              		.loc 1 540 9 is_stmt 1 view .LVU606
 540:./Libraries/STM32F4xx_HAL_Driver/Src/stm32f4xx_hal_rtc.c ****         
 1653              		.loc 1 540 9 view .LVU607
 1654 00f2 0023     		movs	r3, #0
 1655 00f4 2377     		strb	r3, [r4, #28]
 540:./Libraries/STM32F4xx_HAL_Driver/Src/stm32f4xx_hal_rtc.c ****         
 1656              		.loc 1 540 9 view .LVU608
 542:./Libraries/STM32F4xx_HAL_Driver/Src/stm32f4xx_hal_rtc.c ****       }
 1657              		.loc 1 542 9 view .LVU609
 542:./Libraries/STM32F4xx_HAL_Driver/Src/stm32f4xx_hal_rtc.c ****       }
 1658              		.loc 1 542 16 is_stmt 0 view .LVU610
 1659 00f6 0127     		movs	r7, #1
 1660 00f8 D4E7     		b	.L84
 1661              	.LVL99:
 1662              	.L91:
 453:./Libraries/STM32F4xx_HAL_Driver/Src/stm32f4xx_hal_rtc.c ****   
 1663              		.loc 1 453 3 view .LVU611
 1664 00fa 0227     		movs	r7, #2
 1665 00fc D2E7     		b	.L84
 1666              		.cfi_endproc
 1667              	.LFE130:
 1669              		.section	.text.HAL_RTC_SetAlarm,"ax",%progbits
 1670              		.align	1
ARM GAS  /tmp/ccdJbK3i.s 			page 65


 1671              		.global	HAL_RTC_SetAlarm
 1672              		.syntax unified
 1673              		.thumb
 1674              		.thumb_func
 1675              		.fpu fpv4-sp-d16
 1677              	HAL_RTC_SetAlarm:
 1678              	.LVL100:
 1679              	.LFB134:
 786:./Libraries/STM32F4xx_HAL_Driver/Src/stm32f4xx_hal_rtc.c ****   uint32_t tickstart = 0U;
 1680              		.loc 1 786 1 is_stmt 1 view -0
 1681              		.cfi_startproc
 1682              		@ args = 0, pretend = 0, frame = 0
 1683              		@ frame_needed = 0, uses_anonymous_args = 0
 786:./Libraries/STM32F4xx_HAL_Driver/Src/stm32f4xx_hal_rtc.c ****   uint32_t tickstart = 0U;
 1684              		.loc 1 786 1 is_stmt 0 view .LVU613
 1685 0000 F8B5     		push	{r3, r4, r5, r6, r7, lr}
 1686              	.LCFI9:
 1687              		.cfi_def_cfa_offset 24
 1688              		.cfi_offset 3, -24
 1689              		.cfi_offset 4, -20
 1690              		.cfi_offset 5, -16
 1691              		.cfi_offset 6, -12
 1692              		.cfi_offset 7, -8
 1693              		.cfi_offset 14, -4
 787:./Libraries/STM32F4xx_HAL_Driver/Src/stm32f4xx_hal_rtc.c ****   uint32_t tmpreg = 0U, subsecondtmpreg = 0U;
 1694              		.loc 1 787 3 is_stmt 1 view .LVU614
 1695              	.LVL101:
 788:./Libraries/STM32F4xx_HAL_Driver/Src/stm32f4xx_hal_rtc.c ****   
 1696              		.loc 1 788 3 view .LVU615
 791:./Libraries/STM32F4xx_HAL_Driver/Src/stm32f4xx_hal_rtc.c ****   assert_param(IS_RTC_ALARM(sAlarm->Alarm));
 1697              		.loc 1 791 3 view .LVU616
 792:./Libraries/STM32F4xx_HAL_Driver/Src/stm32f4xx_hal_rtc.c ****   assert_param(IS_RTC_ALARM_MASK(sAlarm->AlarmMask));
 1698              		.loc 1 792 3 view .LVU617
 793:./Libraries/STM32F4xx_HAL_Driver/Src/stm32f4xx_hal_rtc.c ****   assert_param(IS_RTC_ALARM_DATE_WEEKDAY_SEL(sAlarm->AlarmDateWeekDaySel));
 1699              		.loc 1 793 3 view .LVU618
 794:./Libraries/STM32F4xx_HAL_Driver/Src/stm32f4xx_hal_rtc.c ****   assert_param(IS_RTC_ALARM_SUB_SECOND_VALUE(sAlarm->AlarmTime.SubSeconds));
 1700              		.loc 1 794 3 view .LVU619
 795:./Libraries/STM32F4xx_HAL_Driver/Src/stm32f4xx_hal_rtc.c ****   assert_param(IS_RTC_ALARM_SUB_SECOND_MASK(sAlarm->AlarmSubSecondMask));
 1701              		.loc 1 795 3 view .LVU620
 796:./Libraries/STM32F4xx_HAL_Driver/Src/stm32f4xx_hal_rtc.c ****   
 1702              		.loc 1 796 3 view .LVU621
 799:./Libraries/STM32F4xx_HAL_Driver/Src/stm32f4xx_hal_rtc.c ****   
 1703              		.loc 1 799 3 view .LVU622
 799:./Libraries/STM32F4xx_HAL_Driver/Src/stm32f4xx_hal_rtc.c ****   
 1704              		.loc 1 799 3 view .LVU623
 1705 0002 037F     		ldrb	r3, [r0, #28]	@ zero_extendqisi2
 1706 0004 012B     		cmp	r3, #1
 1707 0006 00F0A980 		beq	.L107
 1708 000a 0446     		mov	r4, r0
 1709 000c 0D46     		mov	r5, r1
 799:./Libraries/STM32F4xx_HAL_Driver/Src/stm32f4xx_hal_rtc.c ****   
 1710              		.loc 1 799 3 discriminator 2 view .LVU624
 1711 000e 0123     		movs	r3, #1
 1712 0010 0377     		strb	r3, [r0, #28]
 799:./Libraries/STM32F4xx_HAL_Driver/Src/stm32f4xx_hal_rtc.c ****   
 1713              		.loc 1 799 3 discriminator 2 view .LVU625
 801:./Libraries/STM32F4xx_HAL_Driver/Src/stm32f4xx_hal_rtc.c ****   
ARM GAS  /tmp/ccdJbK3i.s 			page 66


 1714              		.loc 1 801 3 discriminator 2 view .LVU626
 801:./Libraries/STM32F4xx_HAL_Driver/Src/stm32f4xx_hal_rtc.c ****   
 1715              		.loc 1 801 15 is_stmt 0 discriminator 2 view .LVU627
 1716 0012 0223     		movs	r3, #2
 1717 0014 4377     		strb	r3, [r0, #29]
 803:./Libraries/STM32F4xx_HAL_Driver/Src/stm32f4xx_hal_rtc.c ****   {
 1718              		.loc 1 803 3 is_stmt 1 discriminator 2 view .LVU628
 803:./Libraries/STM32F4xx_HAL_Driver/Src/stm32f4xx_hal_rtc.c ****   {
 1719              		.loc 1 803 5 is_stmt 0 discriminator 2 view .LVU629
 1720 0016 002A     		cmp	r2, #0
 1721 0018 4DD1     		bne	.L97
 805:./Libraries/STM32F4xx_HAL_Driver/Src/stm32f4xx_hal_rtc.c ****     {
 1722              		.loc 1 805 5 is_stmt 1 view .LVU630
 805:./Libraries/STM32F4xx_HAL_Driver/Src/stm32f4xx_hal_rtc.c ****     {
 1723              		.loc 1 805 13 is_stmt 0 view .LVU631
 1724 001a 0368     		ldr	r3, [r0]
 805:./Libraries/STM32F4xx_HAL_Driver/Src/stm32f4xx_hal_rtc.c ****     {
 1725              		.loc 1 805 23 view .LVU632
 1726 001c 9B68     		ldr	r3, [r3, #8]
 805:./Libraries/STM32F4xx_HAL_Driver/Src/stm32f4xx_hal_rtc.c ****     {
 1727              		.loc 1 805 7 view .LVU633
 1728 001e 13F0400F 		tst	r3, #64
 1729 0022 01D1     		bne	.L98
 812:./Libraries/STM32F4xx_HAL_Driver/Src/stm32f4xx_hal_rtc.c ****       assert_param(IS_RTC_HOUR24(sAlarm->AlarmTime.Hours));
 1730              		.loc 1 812 7 is_stmt 1 view .LVU634
 812:./Libraries/STM32F4xx_HAL_Driver/Src/stm32f4xx_hal_rtc.c ****       assert_param(IS_RTC_HOUR24(sAlarm->AlarmTime.Hours));
 1731              		.loc 1 812 36 is_stmt 0 view .LVU635
 1732 0024 0023     		movs	r3, #0
 1733 0026 CB70     		strb	r3, [r1, #3]
 1734              	.L98:
 813:./Libraries/STM32F4xx_HAL_Driver/Src/stm32f4xx_hal_rtc.c ****     }
 1735              		.loc 1 813 7 is_stmt 1 view .LVU636
 815:./Libraries/STM32F4xx_HAL_Driver/Src/stm32f4xx_hal_rtc.c ****     assert_param(IS_RTC_SECONDS(sAlarm->AlarmTime.Seconds));
 1736              		.loc 1 815 5 view .LVU637
 816:./Libraries/STM32F4xx_HAL_Driver/Src/stm32f4xx_hal_rtc.c ****     
 1737              		.loc 1 816 5 view .LVU638
 818:./Libraries/STM32F4xx_HAL_Driver/Src/stm32f4xx_hal_rtc.c ****     {
 1738              		.loc 1 818 5 view .LVU639
 818:./Libraries/STM32F4xx_HAL_Driver/Src/stm32f4xx_hal_rtc.c ****     {
 1739              		.loc 1 818 14 is_stmt 0 view .LVU640
 1740 0028 EE69     		ldr	r6, [r5, #28]
 824:./Libraries/STM32F4xx_HAL_Driver/Src/stm32f4xx_hal_rtc.c ****     }
 1741              		.loc 1 824 7 is_stmt 1 view .LVU641
 827:./Libraries/STM32F4xx_HAL_Driver/Src/stm32f4xx_hal_rtc.c ****               ((uint32_t)RTC_ByteToBcd2(sAlarm->AlarmTime.Minutes) << 8U) | \
 1742              		.loc 1 827 5 view .LVU642
 827:./Libraries/STM32F4xx_HAL_Driver/Src/stm32f4xx_hal_rtc.c ****               ((uint32_t)RTC_ByteToBcd2(sAlarm->AlarmTime.Minutes) << 8U) | \
 1743              		.loc 1 827 26 is_stmt 0 view .LVU643
 1744 002a 2878     		ldrb	r0, [r5]	@ zero_extendqisi2
 1745              	.LVL102:
 827:./Libraries/STM32F4xx_HAL_Driver/Src/stm32f4xx_hal_rtc.c ****               ((uint32_t)RTC_ByteToBcd2(sAlarm->AlarmTime.Minutes) << 8U) | \
 1746              		.loc 1 827 26 view .LVU644
 1747 002c FFF7FEFF 		bl	RTC_ByteToBcd2
 1748              	.LVL103:
 827:./Libraries/STM32F4xx_HAL_Driver/Src/stm32f4xx_hal_rtc.c ****               ((uint32_t)RTC_ByteToBcd2(sAlarm->AlarmTime.Minutes) << 8U) | \
 1749              		.loc 1 827 66 view .LVU645
 1750 0030 0704     		lsls	r7, r0, #16
 828:./Libraries/STM32F4xx_HAL_Driver/Src/stm32f4xx_hal_rtc.c ****               ((uint32_t)RTC_ByteToBcd2(sAlarm->AlarmTime.Seconds)) | \
ARM GAS  /tmp/ccdJbK3i.s 			page 67


 1751              		.loc 1 828 26 view .LVU646
 1752 0032 6878     		ldrb	r0, [r5, #1]	@ zero_extendqisi2
 1753 0034 FFF7FEFF 		bl	RTC_ByteToBcd2
 1754              	.LVL104:
 827:./Libraries/STM32F4xx_HAL_Driver/Src/stm32f4xx_hal_rtc.c ****               ((uint32_t)RTC_ByteToBcd2(sAlarm->AlarmTime.Minutes) << 8U) | \
 1755              		.loc 1 827 74 view .LVU647
 1756 0038 47EA0027 		orr	r7, r7, r0, lsl #8
 829:./Libraries/STM32F4xx_HAL_Driver/Src/stm32f4xx_hal_rtc.c ****               ((uint32_t)(sAlarm->AlarmTime.TimeFormat) << 16U) | \
 1757              		.loc 1 829 26 view .LVU648
 1758 003c A878     		ldrb	r0, [r5, #2]	@ zero_extendqisi2
 1759 003e FFF7FEFF 		bl	RTC_ByteToBcd2
 1760              	.LVL105:
 828:./Libraries/STM32F4xx_HAL_Driver/Src/stm32f4xx_hal_rtc.c ****               ((uint32_t)RTC_ByteToBcd2(sAlarm->AlarmTime.Seconds)) | \
 1761              		.loc 1 828 75 view .LVU649
 1762 0042 0743     		orrs	r7, r7, r0
 830:./Libraries/STM32F4xx_HAL_Driver/Src/stm32f4xx_hal_rtc.c ****               ((uint32_t)RTC_ByteToBcd2(sAlarm->AlarmDateWeekDay) << 24U) | \
 1763              		.loc 1 830 44 view .LVU650
 1764 0044 E878     		ldrb	r0, [r5, #3]	@ zero_extendqisi2
 829:./Libraries/STM32F4xx_HAL_Driver/Src/stm32f4xx_hal_rtc.c ****               ((uint32_t)(sAlarm->AlarmTime.TimeFormat) << 16U) | \
 1765              		.loc 1 829 69 view .LVU651
 1766 0046 47EA0047 		orr	r7, r7, r0, lsl #16
 831:./Libraries/STM32F4xx_HAL_Driver/Src/stm32f4xx_hal_rtc.c ****               ((uint32_t)sAlarm->AlarmDateWeekDaySel) | \
 1767              		.loc 1 831 26 view .LVU652
 1768 004a 95F82000 		ldrb	r0, [r5, #32]	@ zero_extendqisi2
 1769 004e FFF7FEFF 		bl	RTC_ByteToBcd2
 1770              	.LVL106:
 830:./Libraries/STM32F4xx_HAL_Driver/Src/stm32f4xx_hal_rtc.c ****               ((uint32_t)RTC_ByteToBcd2(sAlarm->AlarmDateWeekDay) << 24U) | \
 1771              		.loc 1 830 65 view .LVU653
 1772 0052 47EA0067 		orr	r7, r7, r0, lsl #24
 831:./Libraries/STM32F4xx_HAL_Driver/Src/stm32f4xx_hal_rtc.c ****               ((uint32_t)sAlarm->AlarmDateWeekDaySel) | \
 1773              		.loc 1 831 75 view .LVU654
 1774 0056 3E43     		orrs	r6, r6, r7
 833:./Libraries/STM32F4xx_HAL_Driver/Src/stm32f4xx_hal_rtc.c ****   }
 1775              		.loc 1 833 32 view .LVU655
 1776 0058 6B69     		ldr	r3, [r5, #20]
 827:./Libraries/STM32F4xx_HAL_Driver/Src/stm32f4xx_hal_rtc.c ****               ((uint32_t)RTC_ByteToBcd2(sAlarm->AlarmTime.Minutes) << 8U) | \
 1777              		.loc 1 827 12 view .LVU656
 1778 005a 1E43     		orrs	r6, r6, r3
 1779              	.LVL107:
 1780              	.L99:
 873:./Libraries/STM32F4xx_HAL_Driver/Src/stm32f4xx_hal_rtc.c ****   
 1781              		.loc 1 873 3 is_stmt 1 view .LVU657
 873:./Libraries/STM32F4xx_HAL_Driver/Src/stm32f4xx_hal_rtc.c ****   
 1782              		.loc 1 873 60 is_stmt 0 view .LVU658
 1783 005c 6F68     		ldr	r7, [r5, #4]
 873:./Libraries/STM32F4xx_HAL_Driver/Src/stm32f4xx_hal_rtc.c ****   
 1784              		.loc 1 873 92 view .LVU659
 1785 005e AB69     		ldr	r3, [r5, #24]
 873:./Libraries/STM32F4xx_HAL_Driver/Src/stm32f4xx_hal_rtc.c ****   
 1786              		.loc 1 873 19 view .LVU660
 1787 0060 1F43     		orrs	r7, r7, r3
 1788              	.LVL108:
 876:./Libraries/STM32F4xx_HAL_Driver/Src/stm32f4xx_hal_rtc.c **** 
 1789              		.loc 1 876 3 is_stmt 1 view .LVU661
 876:./Libraries/STM32F4xx_HAL_Driver/Src/stm32f4xx_hal_rtc.c **** 
 1790              		.loc 1 876 3 view .LVU662
 1791 0062 2368     		ldr	r3, [r4]
ARM GAS  /tmp/ccdJbK3i.s 			page 68


 1792 0064 CA22     		movs	r2, #202
 1793 0066 5A62     		str	r2, [r3, #36]
 876:./Libraries/STM32F4xx_HAL_Driver/Src/stm32f4xx_hal_rtc.c **** 
 1794              		.loc 1 876 3 view .LVU663
 1795 0068 2368     		ldr	r3, [r4]
 1796 006a 5322     		movs	r2, #83
 1797 006c 5A62     		str	r2, [r3, #36]
 876:./Libraries/STM32F4xx_HAL_Driver/Src/stm32f4xx_hal_rtc.c **** 
 1798              		.loc 1 876 3 view .LVU664
 879:./Libraries/STM32F4xx_HAL_Driver/Src/stm32f4xx_hal_rtc.c ****   {
 1799              		.loc 1 879 3 view .LVU665
 879:./Libraries/STM32F4xx_HAL_Driver/Src/stm32f4xx_hal_rtc.c ****   {
 1800              		.loc 1 879 12 is_stmt 0 view .LVU666
 1801 006e 6B6A     		ldr	r3, [r5, #36]
 879:./Libraries/STM32F4xx_HAL_Driver/Src/stm32f4xx_hal_rtc.c ****   {
 1802              		.loc 1 879 5 view .LVU667
 1803 0070 B3F5807F 		cmp	r3, #256
 1804 0074 39D0     		beq	.L109
 916:./Libraries/STM32F4xx_HAL_Driver/Src/stm32f4xx_hal_rtc.c ****     
 1805              		.loc 1 916 5 is_stmt 1 view .LVU668
 1806 0076 2268     		ldr	r2, [r4]
 1807 0078 9368     		ldr	r3, [r2, #8]
 1808 007a 23F40073 		bic	r3, r3, #512
 1809 007e 9360     		str	r3, [r2, #8]
 919:./Libraries/STM32F4xx_HAL_Driver/Src/stm32f4xx_hal_rtc.c **** 
 1810              		.loc 1 919 5 view .LVU669
 1811 0080 2268     		ldr	r2, [r4]
 1812 0082 9368     		ldr	r3, [r2, #8]
 1813 0084 23F40053 		bic	r3, r3, #8192
 1814 0088 9360     		str	r3, [r2, #8]
 922:./Libraries/STM32F4xx_HAL_Driver/Src/stm32f4xx_hal_rtc.c **** 
 1815              		.loc 1 922 5 view .LVU670
 922:./Libraries/STM32F4xx_HAL_Driver/Src/stm32f4xx_hal_rtc.c **** 
 1816              		.loc 1 922 17 is_stmt 0 view .LVU671
 1817 008a FFF7FEFF 		bl	HAL_GetTick
 1818              	.LVL109:
 1819 008e 0546     		mov	r5, r0
 1820              	.LVL110:
 925:./Libraries/STM32F4xx_HAL_Driver/Src/stm32f4xx_hal_rtc.c ****     {
 1821              		.loc 1 925 5 is_stmt 1 view .LVU672
 1822              	.L105:
 925:./Libraries/STM32F4xx_HAL_Driver/Src/stm32f4xx_hal_rtc.c ****     {
 1823              		.loc 1 925 10 view .LVU673
 925:./Libraries/STM32F4xx_HAL_Driver/Src/stm32f4xx_hal_rtc.c ****     {
 1824              		.loc 1 925 11 is_stmt 0 view .LVU674
 1825 0090 2368     		ldr	r3, [r4]
 1826 0092 DA68     		ldr	r2, [r3, #12]
 925:./Libraries/STM32F4xx_HAL_Driver/Src/stm32f4xx_hal_rtc.c ****     {
 1827              		.loc 1 925 10 view .LVU675
 1828 0094 12F0020F 		tst	r2, #2
 1829 0098 50D1     		bne	.L110
 927:./Libraries/STM32F4xx_HAL_Driver/Src/stm32f4xx_hal_rtc.c ****       {
 1830              		.loc 1 927 7 is_stmt 1 view .LVU676
 927:./Libraries/STM32F4xx_HAL_Driver/Src/stm32f4xx_hal_rtc.c ****       {
 1831              		.loc 1 927 11 is_stmt 0 view .LVU677
 1832 009a FFF7FEFF 		bl	HAL_GetTick
 1833              	.LVL111:
ARM GAS  /tmp/ccdJbK3i.s 			page 69


 927:./Libraries/STM32F4xx_HAL_Driver/Src/stm32f4xx_hal_rtc.c ****       {
 1834              		.loc 1 927 25 view .LVU678
 1835 009e 401B     		subs	r0, r0, r5
 927:./Libraries/STM32F4xx_HAL_Driver/Src/stm32f4xx_hal_rtc.c ****       {
 1836              		.loc 1 927 9 view .LVU679
 1837 00a0 B0F57A7F 		cmp	r0, #1000
 1838 00a4 F4D9     		bls	.L105
 930:./Libraries/STM32F4xx_HAL_Driver/Src/stm32f4xx_hal_rtc.c ****         
 1839              		.loc 1 930 9 is_stmt 1 view .LVU680
 930:./Libraries/STM32F4xx_HAL_Driver/Src/stm32f4xx_hal_rtc.c ****         
 1840              		.loc 1 930 9 view .LVU681
 1841 00a6 2368     		ldr	r3, [r4]
 1842 00a8 FF22     		movs	r2, #255
 1843 00aa 5A62     		str	r2, [r3, #36]
 930:./Libraries/STM32F4xx_HAL_Driver/Src/stm32f4xx_hal_rtc.c ****         
 1844              		.loc 1 930 9 view .LVU682
 932:./Libraries/STM32F4xx_HAL_Driver/Src/stm32f4xx_hal_rtc.c ****         
 1845              		.loc 1 932 9 view .LVU683
 932:./Libraries/STM32F4xx_HAL_Driver/Src/stm32f4xx_hal_rtc.c ****         
 1846              		.loc 1 932 21 is_stmt 0 view .LVU684
 1847 00ac 0320     		movs	r0, #3
 1848 00ae 6077     		strb	r0, [r4, #29]
 935:./Libraries/STM32F4xx_HAL_Driver/Src/stm32f4xx_hal_rtc.c ****         
 1849              		.loc 1 935 9 is_stmt 1 view .LVU685
 935:./Libraries/STM32F4xx_HAL_Driver/Src/stm32f4xx_hal_rtc.c ****         
 1850              		.loc 1 935 9 view .LVU686
 1851 00b0 0023     		movs	r3, #0
 1852 00b2 2377     		strb	r3, [r4, #28]
 935:./Libraries/STM32F4xx_HAL_Driver/Src/stm32f4xx_hal_rtc.c ****         
 1853              		.loc 1 935 9 view .LVU687
 937:./Libraries/STM32F4xx_HAL_Driver/Src/stm32f4xx_hal_rtc.c ****       }  
 1854              		.loc 1 937 9 view .LVU688
 937:./Libraries/STM32F4xx_HAL_Driver/Src/stm32f4xx_hal_rtc.c ****       }  
 1855              		.loc 1 937 16 is_stmt 0 view .LVU689
 1856 00b4 51E0     		b	.L96
 1857              	.LVL112:
 1858              	.L97:
 837:./Libraries/STM32F4xx_HAL_Driver/Src/stm32f4xx_hal_rtc.c ****     {
 1859              		.loc 1 837 5 is_stmt 1 view .LVU690
 837:./Libraries/STM32F4xx_HAL_Driver/Src/stm32f4xx_hal_rtc.c ****     {
 1860              		.loc 1 837 13 is_stmt 0 view .LVU691
 1861 00b6 0368     		ldr	r3, [r0]
 837:./Libraries/STM32F4xx_HAL_Driver/Src/stm32f4xx_hal_rtc.c ****     {
 1862              		.loc 1 837 23 view .LVU692
 1863 00b8 9B68     		ldr	r3, [r3, #8]
 837:./Libraries/STM32F4xx_HAL_Driver/Src/stm32f4xx_hal_rtc.c ****     {
 1864              		.loc 1 837 7 view .LVU693
 1865 00ba 13F0400F 		tst	r3, #64
 1866 00be 01D1     		bne	.L100
 845:./Libraries/STM32F4xx_HAL_Driver/Src/stm32f4xx_hal_rtc.c ****       assert_param(IS_RTC_HOUR24(RTC_Bcd2ToByte(sAlarm->AlarmTime.Hours)));
 1867              		.loc 1 845 7 is_stmt 1 view .LVU694
 845:./Libraries/STM32F4xx_HAL_Driver/Src/stm32f4xx_hal_rtc.c ****       assert_param(IS_RTC_HOUR24(RTC_Bcd2ToByte(sAlarm->AlarmTime.Hours)));
 1868              		.loc 1 845 36 is_stmt 0 view .LVU695
 1869 00c0 0023     		movs	r3, #0
 1870 00c2 CB70     		strb	r3, [r1, #3]
 1871              	.L100:
 1872              	.LVL113:
ARM GAS  /tmp/ccdJbK3i.s 			page 70


 846:./Libraries/STM32F4xx_HAL_Driver/Src/stm32f4xx_hal_rtc.c ****     }
 1873              		.loc 1 846 7 is_stmt 1 view .LVU696
 849:./Libraries/STM32F4xx_HAL_Driver/Src/stm32f4xx_hal_rtc.c ****     assert_param(IS_RTC_SECONDS(RTC_Bcd2ToByte(sAlarm->AlarmTime.Seconds)));
 1874              		.loc 1 849 5 view .LVU697
 850:./Libraries/STM32F4xx_HAL_Driver/Src/stm32f4xx_hal_rtc.c ****     
 1875              		.loc 1 850 5 view .LVU698
 852:./Libraries/STM32F4xx_HAL_Driver/Src/stm32f4xx_hal_rtc.c ****     {
 1876              		.loc 1 852 5 view .LVU699
 852:./Libraries/STM32F4xx_HAL_Driver/Src/stm32f4xx_hal_rtc.c ****     {
 1877              		.loc 1 852 14 is_stmt 0 view .LVU700
 1878 00c4 EE69     		ldr	r6, [r5, #28]
 860:./Libraries/STM32F4xx_HAL_Driver/Src/stm32f4xx_hal_rtc.c ****     }  
 1879              		.loc 1 860 7 is_stmt 1 view .LVU701
 863:./Libraries/STM32F4xx_HAL_Driver/Src/stm32f4xx_hal_rtc.c ****               ((uint32_t)(sAlarm->AlarmTime.Minutes) << 8U) | \
 1880              		.loc 1 863 5 view .LVU702
 863:./Libraries/STM32F4xx_HAL_Driver/Src/stm32f4xx_hal_rtc.c ****               ((uint32_t)(sAlarm->AlarmTime.Minutes) << 8U) | \
 1881              		.loc 1 863 44 is_stmt 0 view .LVU703
 1882 00c6 2A78     		ldrb	r2, [r5]	@ zero_extendqisi2
 1883              	.LVL114:
 864:./Libraries/STM32F4xx_HAL_Driver/Src/stm32f4xx_hal_rtc.c ****               ((uint32_t) sAlarm->AlarmTime.Seconds) | \
 1884              		.loc 1 864 44 view .LVU704
 1885 00c8 6B78     		ldrb	r3, [r5, #1]	@ zero_extendqisi2
 864:./Libraries/STM32F4xx_HAL_Driver/Src/stm32f4xx_hal_rtc.c ****               ((uint32_t) sAlarm->AlarmTime.Seconds) | \
 1886              		.loc 1 864 54 view .LVU705
 1887 00ca 1B02     		lsls	r3, r3, #8
 863:./Libraries/STM32F4xx_HAL_Driver/Src/stm32f4xx_hal_rtc.c ****               ((uint32_t)(sAlarm->AlarmTime.Minutes) << 8U) | \
 1888              		.loc 1 863 60 view .LVU706
 1889 00cc 43EA0243 		orr	r3, r3, r2, lsl #16
 865:./Libraries/STM32F4xx_HAL_Driver/Src/stm32f4xx_hal_rtc.c ****               ((uint32_t)(sAlarm->AlarmTime.TimeFormat) << 16U) | \
 1890              		.loc 1 865 44 view .LVU707
 1891 00d0 AA78     		ldrb	r2, [r5, #2]	@ zero_extendqisi2
 864:./Libraries/STM32F4xx_HAL_Driver/Src/stm32f4xx_hal_rtc.c ****               ((uint32_t) sAlarm->AlarmTime.Seconds) | \
 1892              		.loc 1 864 61 view .LVU708
 1893 00d2 1343     		orrs	r3, r3, r2
 866:./Libraries/STM32F4xx_HAL_Driver/Src/stm32f4xx_hal_rtc.c ****               ((uint32_t)(sAlarm->AlarmDateWeekDay) << 24U) | \
 1894              		.loc 1 866 44 view .LVU709
 1895 00d4 EA78     		ldrb	r2, [r5, #3]	@ zero_extendqisi2
 865:./Libraries/STM32F4xx_HAL_Driver/Src/stm32f4xx_hal_rtc.c ****               ((uint32_t)(sAlarm->AlarmTime.TimeFormat) << 16U) | \
 1896              		.loc 1 865 54 view .LVU710
 1897 00d6 43EA0243 		orr	r3, r3, r2, lsl #16
 867:./Libraries/STM32F4xx_HAL_Driver/Src/stm32f4xx_hal_rtc.c ****               ((uint32_t)sAlarm->AlarmDateWeekDaySel) | \
 1898              		.loc 1 867 33 view .LVU711
 1899 00da 95F82020 		ldrb	r2, [r5, #32]	@ zero_extendqisi2
 866:./Libraries/STM32F4xx_HAL_Driver/Src/stm32f4xx_hal_rtc.c ****               ((uint32_t)(sAlarm->AlarmDateWeekDay) << 24U) | \
 1900              		.loc 1 866 65 view .LVU712
 1901 00de 43EA0263 		orr	r3, r3, r2, lsl #24
 867:./Libraries/STM32F4xx_HAL_Driver/Src/stm32f4xx_hal_rtc.c ****               ((uint32_t)sAlarm->AlarmDateWeekDaySel) | \
 1902              		.loc 1 867 61 view .LVU713
 1903 00e2 1E43     		orrs	r6, r6, r3
 869:./Libraries/STM32F4xx_HAL_Driver/Src/stm32f4xx_hal_rtc.c ****   }
 1904              		.loc 1 869 32 view .LVU714
 1905 00e4 6B69     		ldr	r3, [r5, #20]
 863:./Libraries/STM32F4xx_HAL_Driver/Src/stm32f4xx_hal_rtc.c ****               ((uint32_t)(sAlarm->AlarmTime.Minutes) << 8U) | \
 1906              		.loc 1 863 12 view .LVU715
 1907 00e6 1E43     		orrs	r6, r6, r3
 1908              	.LVL115:
 863:./Libraries/STM32F4xx_HAL_Driver/Src/stm32f4xx_hal_rtc.c ****               ((uint32_t)(sAlarm->AlarmTime.Minutes) << 8U) | \
ARM GAS  /tmp/ccdJbK3i.s 			page 71


 1909              		.loc 1 863 12 view .LVU716
 1910 00e8 B8E7     		b	.L99
 1911              	.LVL116:
 1912              	.L109:
 882:./Libraries/STM32F4xx_HAL_Driver/Src/stm32f4xx_hal_rtc.c ****     
 1913              		.loc 1 882 5 is_stmt 1 view .LVU717
 1914 00ea 2268     		ldr	r2, [r4]
 1915 00ec 9368     		ldr	r3, [r2, #8]
 1916 00ee 23F48073 		bic	r3, r3, #256
 1917 00f2 9360     		str	r3, [r2, #8]
 885:./Libraries/STM32F4xx_HAL_Driver/Src/stm32f4xx_hal_rtc.c **** 
 1918              		.loc 1 885 5 view .LVU718
 1919 00f4 2268     		ldr	r2, [r4]
 1920 00f6 9368     		ldr	r3, [r2, #8]
 1921 00f8 23F48053 		bic	r3, r3, #4096
 1922 00fc 9360     		str	r3, [r2, #8]
 888:./Libraries/STM32F4xx_HAL_Driver/Src/stm32f4xx_hal_rtc.c **** 
 1923              		.loc 1 888 5 view .LVU719
 888:./Libraries/STM32F4xx_HAL_Driver/Src/stm32f4xx_hal_rtc.c **** 
 1924              		.loc 1 888 17 is_stmt 0 view .LVU720
 1925 00fe FFF7FEFF 		bl	HAL_GetTick
 1926              	.LVL117:
 1927 0102 0546     		mov	r5, r0
 1928              	.LVL118:
 891:./Libraries/STM32F4xx_HAL_Driver/Src/stm32f4xx_hal_rtc.c ****     {
 1929              		.loc 1 891 5 is_stmt 1 view .LVU721
 1930              	.L102:
 891:./Libraries/STM32F4xx_HAL_Driver/Src/stm32f4xx_hal_rtc.c ****     {
 1931              		.loc 1 891 10 view .LVU722
 891:./Libraries/STM32F4xx_HAL_Driver/Src/stm32f4xx_hal_rtc.c ****     {
 1932              		.loc 1 891 11 is_stmt 0 view .LVU723
 1933 0104 2368     		ldr	r3, [r4]
 1934 0106 DA68     		ldr	r2, [r3, #12]
 891:./Libraries/STM32F4xx_HAL_Driver/Src/stm32f4xx_hal_rtc.c ****     {
 1935              		.loc 1 891 10 view .LVU724
 1936 0108 12F0010F 		tst	r2, #1
 1937 010c 0DD1     		bne	.L111
 893:./Libraries/STM32F4xx_HAL_Driver/Src/stm32f4xx_hal_rtc.c ****       {
 1938              		.loc 1 893 7 is_stmt 1 view .LVU725
 893:./Libraries/STM32F4xx_HAL_Driver/Src/stm32f4xx_hal_rtc.c ****       {
 1939              		.loc 1 893 11 is_stmt 0 view .LVU726
 1940 010e FFF7FEFF 		bl	HAL_GetTick
 1941              	.LVL119:
 893:./Libraries/STM32F4xx_HAL_Driver/Src/stm32f4xx_hal_rtc.c ****       {
 1942              		.loc 1 893 25 view .LVU727
 1943 0112 401B     		subs	r0, r0, r5
 893:./Libraries/STM32F4xx_HAL_Driver/Src/stm32f4xx_hal_rtc.c ****       {
 1944              		.loc 1 893 9 view .LVU728
 1945 0114 B0F57A7F 		cmp	r0, #1000
 1946 0118 F4D9     		bls	.L102
 896:./Libraries/STM32F4xx_HAL_Driver/Src/stm32f4xx_hal_rtc.c ****         
 1947              		.loc 1 896 9 is_stmt 1 view .LVU729
 896:./Libraries/STM32F4xx_HAL_Driver/Src/stm32f4xx_hal_rtc.c ****         
 1948              		.loc 1 896 9 view .LVU730
 1949 011a 2368     		ldr	r3, [r4]
 1950 011c FF22     		movs	r2, #255
 1951 011e 5A62     		str	r2, [r3, #36]
ARM GAS  /tmp/ccdJbK3i.s 			page 72


 896:./Libraries/STM32F4xx_HAL_Driver/Src/stm32f4xx_hal_rtc.c ****         
 1952              		.loc 1 896 9 view .LVU731
 898:./Libraries/STM32F4xx_HAL_Driver/Src/stm32f4xx_hal_rtc.c ****         
 1953              		.loc 1 898 9 view .LVU732
 898:./Libraries/STM32F4xx_HAL_Driver/Src/stm32f4xx_hal_rtc.c ****         
 1954              		.loc 1 898 21 is_stmt 0 view .LVU733
 1955 0120 0320     		movs	r0, #3
 1956 0122 6077     		strb	r0, [r4, #29]
 901:./Libraries/STM32F4xx_HAL_Driver/Src/stm32f4xx_hal_rtc.c ****         
 1957              		.loc 1 901 9 is_stmt 1 view .LVU734
 901:./Libraries/STM32F4xx_HAL_Driver/Src/stm32f4xx_hal_rtc.c ****         
 1958              		.loc 1 901 9 view .LVU735
 1959 0124 0023     		movs	r3, #0
 1960 0126 2377     		strb	r3, [r4, #28]
 901:./Libraries/STM32F4xx_HAL_Driver/Src/stm32f4xx_hal_rtc.c ****         
 1961              		.loc 1 901 9 view .LVU736
 903:./Libraries/STM32F4xx_HAL_Driver/Src/stm32f4xx_hal_rtc.c ****       }   
 1962              		.loc 1 903 9 view .LVU737
 903:./Libraries/STM32F4xx_HAL_Driver/Src/stm32f4xx_hal_rtc.c ****       }   
 1963              		.loc 1 903 16 is_stmt 0 view .LVU738
 1964 0128 17E0     		b	.L96
 1965              	.L111:
 907:./Libraries/STM32F4xx_HAL_Driver/Src/stm32f4xx_hal_rtc.c ****     /* Configure the Alarm A Sub Second register */
 1966              		.loc 1 907 5 is_stmt 1 view .LVU739
 907:./Libraries/STM32F4xx_HAL_Driver/Src/stm32f4xx_hal_rtc.c ****     /* Configure the Alarm A Sub Second register */
 1967              		.loc 1 907 28 is_stmt 0 view .LVU740
 1968 012a DE61     		str	r6, [r3, #28]
 909:./Libraries/STM32F4xx_HAL_Driver/Src/stm32f4xx_hal_rtc.c ****     /* Configure the Alarm state: Enable Alarm */
 1969              		.loc 1 909 5 is_stmt 1 view .LVU741
 909:./Libraries/STM32F4xx_HAL_Driver/Src/stm32f4xx_hal_rtc.c ****     /* Configure the Alarm state: Enable Alarm */
 1970              		.loc 1 909 9 is_stmt 0 view .LVU742
 1971 012c 2368     		ldr	r3, [r4]
 909:./Libraries/STM32F4xx_HAL_Driver/Src/stm32f4xx_hal_rtc.c ****     /* Configure the Alarm state: Enable Alarm */
 1972              		.loc 1 909 30 view .LVU743
 1973 012e 5F64     		str	r7, [r3, #68]
 911:./Libraries/STM32F4xx_HAL_Driver/Src/stm32f4xx_hal_rtc.c ****   }
 1974              		.loc 1 911 5 is_stmt 1 view .LVU744
 1975 0130 2268     		ldr	r2, [r4]
 1976 0132 9368     		ldr	r3, [r2, #8]
 1977 0134 43F48073 		orr	r3, r3, #256
 1978 0138 9360     		str	r3, [r2, #8]
 1979 013a 07E0     		b	.L104
 1980              	.L110:
 941:./Libraries/STM32F4xx_HAL_Driver/Src/stm32f4xx_hal_rtc.c ****     /* Configure the Alarm B Sub Second register */
 1981              		.loc 1 941 5 view .LVU745
 941:./Libraries/STM32F4xx_HAL_Driver/Src/stm32f4xx_hal_rtc.c ****     /* Configure the Alarm B Sub Second register */
 1982              		.loc 1 941 28 is_stmt 0 view .LVU746
 1983 013c 1E62     		str	r6, [r3, #32]
 943:./Libraries/STM32F4xx_HAL_Driver/Src/stm32f4xx_hal_rtc.c ****     /* Configure the Alarm state: Enable Alarm */
 1984              		.loc 1 943 5 is_stmt 1 view .LVU747
 943:./Libraries/STM32F4xx_HAL_Driver/Src/stm32f4xx_hal_rtc.c ****     /* Configure the Alarm state: Enable Alarm */
 1985              		.loc 1 943 9 is_stmt 0 view .LVU748
 1986 013e 2368     		ldr	r3, [r4]
 943:./Libraries/STM32F4xx_HAL_Driver/Src/stm32f4xx_hal_rtc.c ****     /* Configure the Alarm state: Enable Alarm */
 1987              		.loc 1 943 30 view .LVU749
 1988 0140 9F64     		str	r7, [r3, #72]
 945:./Libraries/STM32F4xx_HAL_Driver/Src/stm32f4xx_hal_rtc.c ****   }
ARM GAS  /tmp/ccdJbK3i.s 			page 73


 1989              		.loc 1 945 5 is_stmt 1 view .LVU750
 1990 0142 2268     		ldr	r2, [r4]
 1991 0144 9368     		ldr	r3, [r2, #8]
 1992 0146 43F40073 		orr	r3, r3, #512
 1993 014a 9360     		str	r3, [r2, #8]
 1994              	.L104:
 949:./Libraries/STM32F4xx_HAL_Driver/Src/stm32f4xx_hal_rtc.c ****   
 1995              		.loc 1 949 3 view .LVU751
 949:./Libraries/STM32F4xx_HAL_Driver/Src/stm32f4xx_hal_rtc.c ****   
 1996              		.loc 1 949 3 view .LVU752
 1997 014c 2368     		ldr	r3, [r4]
 1998 014e FF22     		movs	r2, #255
 1999 0150 5A62     		str	r2, [r3, #36]
 949:./Libraries/STM32F4xx_HAL_Driver/Src/stm32f4xx_hal_rtc.c ****   
 2000              		.loc 1 949 3 view .LVU753
 952:./Libraries/STM32F4xx_HAL_Driver/Src/stm32f4xx_hal_rtc.c ****   
 2001              		.loc 1 952 3 view .LVU754
 952:./Libraries/STM32F4xx_HAL_Driver/Src/stm32f4xx_hal_rtc.c ****   
 2002              		.loc 1 952 15 is_stmt 0 view .LVU755
 2003 0152 0123     		movs	r3, #1
 2004 0154 6377     		strb	r3, [r4, #29]
 955:./Libraries/STM32F4xx_HAL_Driver/Src/stm32f4xx_hal_rtc.c ****   
 2005              		.loc 1 955 3 is_stmt 1 view .LVU756
 955:./Libraries/STM32F4xx_HAL_Driver/Src/stm32f4xx_hal_rtc.c ****   
 2006              		.loc 1 955 3 view .LVU757
 2007 0156 0020     		movs	r0, #0
 2008 0158 2077     		strb	r0, [r4, #28]
 955:./Libraries/STM32F4xx_HAL_Driver/Src/stm32f4xx_hal_rtc.c ****   
 2009              		.loc 1 955 3 view .LVU758
 957:./Libraries/STM32F4xx_HAL_Driver/Src/stm32f4xx_hal_rtc.c **** }
 2010              		.loc 1 957 3 view .LVU759
 2011              	.LVL120:
 2012              	.L96:
 958:./Libraries/STM32F4xx_HAL_Driver/Src/stm32f4xx_hal_rtc.c **** 
 2013              		.loc 1 958 1 is_stmt 0 view .LVU760
 2014 015a F8BD     		pop	{r3, r4, r5, r6, r7, pc}
 2015              	.LVL121:
 2016              	.L107:
 799:./Libraries/STM32F4xx_HAL_Driver/Src/stm32f4xx_hal_rtc.c ****   
 2017              		.loc 1 799 3 view .LVU761
 2018 015c 0220     		movs	r0, #2
 2019              	.LVL122:
 799:./Libraries/STM32F4xx_HAL_Driver/Src/stm32f4xx_hal_rtc.c ****   
 2020              		.loc 1 799 3 view .LVU762
 2021 015e FCE7     		b	.L96
 2022              		.cfi_endproc
 2023              	.LFE134:
 2025              		.section	.text.HAL_RTC_SetAlarm_IT,"ax",%progbits
 2026              		.align	1
 2027              		.global	HAL_RTC_SetAlarm_IT
 2028              		.syntax unified
 2029              		.thumb
 2030              		.thumb_func
 2031              		.fpu fpv4-sp-d16
 2033              	HAL_RTC_SetAlarm_IT:
 2034              	.LVL123:
 2035              	.LFB135:
ARM GAS  /tmp/ccdJbK3i.s 			page 74


 972:./Libraries/STM32F4xx_HAL_Driver/Src/stm32f4xx_hal_rtc.c ****   uint32_t tmpreg = 0U, subsecondtmpreg = 0U;
 2036              		.loc 1 972 1 is_stmt 1 view -0
 2037              		.cfi_startproc
 2038              		@ args = 0, pretend = 0, frame = 8
 2039              		@ frame_needed = 0, uses_anonymous_args = 0
 972:./Libraries/STM32F4xx_HAL_Driver/Src/stm32f4xx_hal_rtc.c ****   uint32_t tmpreg = 0U, subsecondtmpreg = 0U;
 2040              		.loc 1 972 1 is_stmt 0 view .LVU764
 2041 0000 F0B5     		push	{r4, r5, r6, r7, lr}
 2042              	.LCFI10:
 2043              		.cfi_def_cfa_offset 20
 2044              		.cfi_offset 4, -20
 2045              		.cfi_offset 5, -16
 2046              		.cfi_offset 6, -12
 2047              		.cfi_offset 7, -8
 2048              		.cfi_offset 14, -4
 2049 0002 83B0     		sub	sp, sp, #12
 2050              	.LCFI11:
 2051              		.cfi_def_cfa_offset 32
 2052 0004 0D46     		mov	r5, r1
 973:./Libraries/STM32F4xx_HAL_Driver/Src/stm32f4xx_hal_rtc.c ****   __IO uint32_t count = RTC_TIMEOUT_VALUE  * (SystemCoreClock / 32U / 1000U) ;
 2053              		.loc 1 973 3 is_stmt 1 view .LVU765
 2054              	.LVL124:
 974:./Libraries/STM32F4xx_HAL_Driver/Src/stm32f4xx_hal_rtc.c ****   
 2055              		.loc 1 974 3 view .LVU766
 974:./Libraries/STM32F4xx_HAL_Driver/Src/stm32f4xx_hal_rtc.c ****   
 2056              		.loc 1 974 69 is_stmt 0 view .LVU767
 2057 0006 634B     		ldr	r3, .L129
 2058 0008 1B68     		ldr	r3, [r3]
 2059 000a 6349     		ldr	r1, .L129+4
 2060              	.LVL125:
 974:./Libraries/STM32F4xx_HAL_Driver/Src/stm32f4xx_hal_rtc.c ****   
 2061              		.loc 1 974 69 view .LVU768
 2062 000c A1FB0313 		umull	r1, r3, r1, r3
 2063 0010 DB0A     		lsrs	r3, r3, #11
 974:./Libraries/STM32F4xx_HAL_Driver/Src/stm32f4xx_hal_rtc.c ****   
 2064              		.loc 1 974 44 view .LVU769
 2065 0012 4FF47A71 		mov	r1, #1000
 2066 0016 01FB03F3 		mul	r3, r1, r3
 974:./Libraries/STM32F4xx_HAL_Driver/Src/stm32f4xx_hal_rtc.c ****   
 2067              		.loc 1 974 17 view .LVU770
 2068 001a 0193     		str	r3, [sp, #4]
 977:./Libraries/STM32F4xx_HAL_Driver/Src/stm32f4xx_hal_rtc.c ****   assert_param(IS_RTC_ALARM(sAlarm->Alarm));
 2069              		.loc 1 977 3 is_stmt 1 view .LVU771
 978:./Libraries/STM32F4xx_HAL_Driver/Src/stm32f4xx_hal_rtc.c ****   assert_param(IS_RTC_ALARM_MASK(sAlarm->AlarmMask));
 2070              		.loc 1 978 3 view .LVU772
 979:./Libraries/STM32F4xx_HAL_Driver/Src/stm32f4xx_hal_rtc.c ****   assert_param(IS_RTC_ALARM_DATE_WEEKDAY_SEL(sAlarm->AlarmDateWeekDaySel));
 2071              		.loc 1 979 3 view .LVU773
 980:./Libraries/STM32F4xx_HAL_Driver/Src/stm32f4xx_hal_rtc.c ****   assert_param(IS_RTC_ALARM_SUB_SECOND_VALUE(sAlarm->AlarmTime.SubSeconds));
 2072              		.loc 1 980 3 view .LVU774
 981:./Libraries/STM32F4xx_HAL_Driver/Src/stm32f4xx_hal_rtc.c ****   assert_param(IS_RTC_ALARM_SUB_SECOND_MASK(sAlarm->AlarmSubSecondMask));
 2073              		.loc 1 981 3 view .LVU775
 982:./Libraries/STM32F4xx_HAL_Driver/Src/stm32f4xx_hal_rtc.c ****       
 2074              		.loc 1 982 3 view .LVU776
 985:./Libraries/STM32F4xx_HAL_Driver/Src/stm32f4xx_hal_rtc.c ****   
 2075              		.loc 1 985 3 view .LVU777
 985:./Libraries/STM32F4xx_HAL_Driver/Src/stm32f4xx_hal_rtc.c ****   
 2076              		.loc 1 985 3 view .LVU778
ARM GAS  /tmp/ccdJbK3i.s 			page 75


 2077 001c 037F     		ldrb	r3, [r0, #28]	@ zero_extendqisi2
 2078 001e 012B     		cmp	r3, #1
 2079 0020 00F0B580 		beq	.L124
 2080 0024 0446     		mov	r4, r0
 985:./Libraries/STM32F4xx_HAL_Driver/Src/stm32f4xx_hal_rtc.c ****   
 2081              		.loc 1 985 3 discriminator 2 view .LVU779
 2082 0026 0123     		movs	r3, #1
 2083 0028 0377     		strb	r3, [r0, #28]
 985:./Libraries/STM32F4xx_HAL_Driver/Src/stm32f4xx_hal_rtc.c ****   
 2084              		.loc 1 985 3 discriminator 2 view .LVU780
 987:./Libraries/STM32F4xx_HAL_Driver/Src/stm32f4xx_hal_rtc.c ****   
 2085              		.loc 1 987 3 discriminator 2 view .LVU781
 987:./Libraries/STM32F4xx_HAL_Driver/Src/stm32f4xx_hal_rtc.c ****   
 2086              		.loc 1 987 15 is_stmt 0 discriminator 2 view .LVU782
 2087 002a 0223     		movs	r3, #2
 2088 002c 4377     		strb	r3, [r0, #29]
 989:./Libraries/STM32F4xx_HAL_Driver/Src/stm32f4xx_hal_rtc.c ****   {
 2089              		.loc 1 989 3 is_stmt 1 discriminator 2 view .LVU783
 989:./Libraries/STM32F4xx_HAL_Driver/Src/stm32f4xx_hal_rtc.c ****   {
 2090              		.loc 1 989 5 is_stmt 0 discriminator 2 view .LVU784
 2091 002e 002A     		cmp	r2, #0
 2092 0030 61D1     		bne	.L114
 991:./Libraries/STM32F4xx_HAL_Driver/Src/stm32f4xx_hal_rtc.c ****     {
 2093              		.loc 1 991 5 is_stmt 1 view .LVU785
 991:./Libraries/STM32F4xx_HAL_Driver/Src/stm32f4xx_hal_rtc.c ****     {
 2094              		.loc 1 991 13 is_stmt 0 view .LVU786
 2095 0032 0368     		ldr	r3, [r0]
 991:./Libraries/STM32F4xx_HAL_Driver/Src/stm32f4xx_hal_rtc.c ****     {
 2096              		.loc 1 991 23 view .LVU787
 2097 0034 9B68     		ldr	r3, [r3, #8]
 991:./Libraries/STM32F4xx_HAL_Driver/Src/stm32f4xx_hal_rtc.c ****     {
 2098              		.loc 1 991 7 view .LVU788
 2099 0036 13F0400F 		tst	r3, #64
 2100 003a 01D1     		bne	.L115
 998:./Libraries/STM32F4xx_HAL_Driver/Src/stm32f4xx_hal_rtc.c ****       assert_param(IS_RTC_HOUR24(sAlarm->AlarmTime.Hours));
 2101              		.loc 1 998 7 is_stmt 1 view .LVU789
 998:./Libraries/STM32F4xx_HAL_Driver/Src/stm32f4xx_hal_rtc.c ****       assert_param(IS_RTC_HOUR24(sAlarm->AlarmTime.Hours));
 2102              		.loc 1 998 36 is_stmt 0 view .LVU790
 2103 003c 0023     		movs	r3, #0
 2104 003e EB70     		strb	r3, [r5, #3]
 2105              	.L115:
 999:./Libraries/STM32F4xx_HAL_Driver/Src/stm32f4xx_hal_rtc.c ****     }
 2106              		.loc 1 999 7 is_stmt 1 view .LVU791
1001:./Libraries/STM32F4xx_HAL_Driver/Src/stm32f4xx_hal_rtc.c ****     assert_param(IS_RTC_SECONDS(sAlarm->AlarmTime.Seconds));
 2107              		.loc 1 1001 5 view .LVU792
1002:./Libraries/STM32F4xx_HAL_Driver/Src/stm32f4xx_hal_rtc.c ****     
 2108              		.loc 1 1002 5 view .LVU793
1004:./Libraries/STM32F4xx_HAL_Driver/Src/stm32f4xx_hal_rtc.c ****     {
 2109              		.loc 1 1004 5 view .LVU794
1004:./Libraries/STM32F4xx_HAL_Driver/Src/stm32f4xx_hal_rtc.c ****     {
 2110              		.loc 1 1004 14 is_stmt 0 view .LVU795
 2111 0040 EF69     		ldr	r7, [r5, #28]
1010:./Libraries/STM32F4xx_HAL_Driver/Src/stm32f4xx_hal_rtc.c ****     }
 2112              		.loc 1 1010 7 is_stmt 1 view .LVU796
1012:./Libraries/STM32F4xx_HAL_Driver/Src/stm32f4xx_hal_rtc.c ****               ((uint32_t)RTC_ByteToBcd2(sAlarm->AlarmTime.Minutes) << 8U) | \
 2113              		.loc 1 1012 5 view .LVU797
1012:./Libraries/STM32F4xx_HAL_Driver/Src/stm32f4xx_hal_rtc.c ****               ((uint32_t)RTC_ByteToBcd2(sAlarm->AlarmTime.Minutes) << 8U) | \
ARM GAS  /tmp/ccdJbK3i.s 			page 76


 2114              		.loc 1 1012 26 is_stmt 0 view .LVU798
 2115 0042 2878     		ldrb	r0, [r5]	@ zero_extendqisi2
 2116              	.LVL126:
1012:./Libraries/STM32F4xx_HAL_Driver/Src/stm32f4xx_hal_rtc.c ****               ((uint32_t)RTC_ByteToBcd2(sAlarm->AlarmTime.Minutes) << 8U) | \
 2117              		.loc 1 1012 26 view .LVU799
 2118 0044 FFF7FEFF 		bl	RTC_ByteToBcd2
 2119              	.LVL127:
1012:./Libraries/STM32F4xx_HAL_Driver/Src/stm32f4xx_hal_rtc.c ****               ((uint32_t)RTC_ByteToBcd2(sAlarm->AlarmTime.Minutes) << 8U) | \
 2120              		.loc 1 1012 66 view .LVU800
 2121 0048 0604     		lsls	r6, r0, #16
1013:./Libraries/STM32F4xx_HAL_Driver/Src/stm32f4xx_hal_rtc.c ****               ((uint32_t)RTC_ByteToBcd2(sAlarm->AlarmTime.Seconds)) | \
 2122              		.loc 1 1013 26 view .LVU801
 2123 004a 6878     		ldrb	r0, [r5, #1]	@ zero_extendqisi2
 2124 004c FFF7FEFF 		bl	RTC_ByteToBcd2
 2125              	.LVL128:
1012:./Libraries/STM32F4xx_HAL_Driver/Src/stm32f4xx_hal_rtc.c ****               ((uint32_t)RTC_ByteToBcd2(sAlarm->AlarmTime.Minutes) << 8U) | \
 2126              		.loc 1 1012 74 view .LVU802
 2127 0050 46EA0026 		orr	r6, r6, r0, lsl #8
1014:./Libraries/STM32F4xx_HAL_Driver/Src/stm32f4xx_hal_rtc.c ****               ((uint32_t)(sAlarm->AlarmTime.TimeFormat) << 16U) | \
 2128              		.loc 1 1014 26 view .LVU803
 2129 0054 A878     		ldrb	r0, [r5, #2]	@ zero_extendqisi2
 2130 0056 FFF7FEFF 		bl	RTC_ByteToBcd2
 2131              	.LVL129:
1013:./Libraries/STM32F4xx_HAL_Driver/Src/stm32f4xx_hal_rtc.c ****               ((uint32_t)RTC_ByteToBcd2(sAlarm->AlarmTime.Seconds)) | \
 2132              		.loc 1 1013 75 view .LVU804
 2133 005a 0643     		orrs	r6, r6, r0
1015:./Libraries/STM32F4xx_HAL_Driver/Src/stm32f4xx_hal_rtc.c ****               ((uint32_t)RTC_ByteToBcd2(sAlarm->AlarmDateWeekDay) << 24U) | \
 2134              		.loc 1 1015 44 view .LVU805
 2135 005c E878     		ldrb	r0, [r5, #3]	@ zero_extendqisi2
1014:./Libraries/STM32F4xx_HAL_Driver/Src/stm32f4xx_hal_rtc.c ****               ((uint32_t)(sAlarm->AlarmTime.TimeFormat) << 16U) | \
 2136              		.loc 1 1014 69 view .LVU806
 2137 005e 46EA0046 		orr	r6, r6, r0, lsl #16
1016:./Libraries/STM32F4xx_HAL_Driver/Src/stm32f4xx_hal_rtc.c ****               ((uint32_t)sAlarm->AlarmDateWeekDaySel) | \
 2138              		.loc 1 1016 26 view .LVU807
 2139 0062 95F82000 		ldrb	r0, [r5, #32]	@ zero_extendqisi2
 2140 0066 FFF7FEFF 		bl	RTC_ByteToBcd2
 2141              	.LVL130:
1015:./Libraries/STM32F4xx_HAL_Driver/Src/stm32f4xx_hal_rtc.c ****               ((uint32_t)RTC_ByteToBcd2(sAlarm->AlarmDateWeekDay) << 24U) | \
 2142              		.loc 1 1015 65 view .LVU808
 2143 006a 46EA0066 		orr	r6, r6, r0, lsl #24
1016:./Libraries/STM32F4xx_HAL_Driver/Src/stm32f4xx_hal_rtc.c ****               ((uint32_t)sAlarm->AlarmDateWeekDaySel) | \
 2144              		.loc 1 1016 75 view .LVU809
 2145 006e 3E43     		orrs	r6, r6, r7
1018:./Libraries/STM32F4xx_HAL_Driver/Src/stm32f4xx_hal_rtc.c ****   }
 2146              		.loc 1 1018 32 view .LVU810
 2147 0070 6B69     		ldr	r3, [r5, #20]
1012:./Libraries/STM32F4xx_HAL_Driver/Src/stm32f4xx_hal_rtc.c ****               ((uint32_t)RTC_ByteToBcd2(sAlarm->AlarmTime.Minutes) << 8U) | \
 2148              		.loc 1 1012 12 view .LVU811
 2149 0072 1E43     		orrs	r6, r6, r3
 2150              	.LVL131:
 2151              	.L116:
1056:./Libraries/STM32F4xx_HAL_Driver/Src/stm32f4xx_hal_rtc.c ****   
 2152              		.loc 1 1056 3 is_stmt 1 view .LVU812
1056:./Libraries/STM32F4xx_HAL_Driver/Src/stm32f4xx_hal_rtc.c ****   
 2153              		.loc 1 1056 60 is_stmt 0 view .LVU813
 2154 0074 6868     		ldr	r0, [r5, #4]
1056:./Libraries/STM32F4xx_HAL_Driver/Src/stm32f4xx_hal_rtc.c ****   
ARM GAS  /tmp/ccdJbK3i.s 			page 77


 2155              		.loc 1 1056 92 view .LVU814
 2156 0076 AB69     		ldr	r3, [r5, #24]
1056:./Libraries/STM32F4xx_HAL_Driver/Src/stm32f4xx_hal_rtc.c ****   
 2157              		.loc 1 1056 19 view .LVU815
 2158 0078 1843     		orrs	r0, r0, r3
 2159              	.LVL132:
1059:./Libraries/STM32F4xx_HAL_Driver/Src/stm32f4xx_hal_rtc.c ****   
 2160              		.loc 1 1059 3 is_stmt 1 view .LVU816
1059:./Libraries/STM32F4xx_HAL_Driver/Src/stm32f4xx_hal_rtc.c ****   
 2161              		.loc 1 1059 3 view .LVU817
 2162 007a 2368     		ldr	r3, [r4]
 2163 007c CA22     		movs	r2, #202
 2164 007e 5A62     		str	r2, [r3, #36]
1059:./Libraries/STM32F4xx_HAL_Driver/Src/stm32f4xx_hal_rtc.c ****   
 2165              		.loc 1 1059 3 view .LVU818
 2166 0080 2368     		ldr	r3, [r4]
 2167 0082 5322     		movs	r2, #83
 2168 0084 5A62     		str	r2, [r3, #36]
1059:./Libraries/STM32F4xx_HAL_Driver/Src/stm32f4xx_hal_rtc.c ****   
 2169              		.loc 1 1059 3 view .LVU819
1062:./Libraries/STM32F4xx_HAL_Driver/Src/stm32f4xx_hal_rtc.c ****   {
 2170              		.loc 1 1062 3 view .LVU820
1062:./Libraries/STM32F4xx_HAL_Driver/Src/stm32f4xx_hal_rtc.c ****   {
 2171              		.loc 1 1062 12 is_stmt 0 view .LVU821
 2172 0086 6B6A     		ldr	r3, [r5, #36]
1062:./Libraries/STM32F4xx_HAL_Driver/Src/stm32f4xx_hal_rtc.c ****   {
 2173              		.loc 1 1062 5 view .LVU822
 2174 0088 B3F5807F 		cmp	r3, #256
 2175 008c 4DD0     		beq	.L126
1099:./Libraries/STM32F4xx_HAL_Driver/Src/stm32f4xx_hal_rtc.c **** 
 2176              		.loc 1 1099 5 is_stmt 1 view .LVU823
 2177 008e 2268     		ldr	r2, [r4]
 2178 0090 9368     		ldr	r3, [r2, #8]
 2179 0092 23F40073 		bic	r3, r3, #512
 2180 0096 9360     		str	r3, [r2, #8]
1102:./Libraries/STM32F4xx_HAL_Driver/Src/stm32f4xx_hal_rtc.c **** 
 2181              		.loc 1 1102 5 view .LVU824
 2182 0098 2268     		ldr	r2, [r4]
 2183 009a D368     		ldr	r3, [r2, #12]
 2184 009c DBB2     		uxtb	r3, r3
 2185 009e 63F42073 		orn	r3, r3, #640
 2186 00a2 D360     		str	r3, [r2, #12]
 2187              	.L123:
1105:./Libraries/STM32F4xx_HAL_Driver/Src/stm32f4xx_hal_rtc.c ****     {
 2188              		.loc 1 1105 5 view .LVU825
1107:./Libraries/STM32F4xx_HAL_Driver/Src/stm32f4xx_hal_rtc.c ****       {
 2189              		.loc 1 1107 7 view .LVU826
1107:./Libraries/STM32F4xx_HAL_Driver/Src/stm32f4xx_hal_rtc.c ****       {
 2190              		.loc 1 1107 16 is_stmt 0 view .LVU827
 2191 00a4 019B     		ldr	r3, [sp, #4]
 2192 00a6 5A1E     		subs	r2, r3, #1
 2193 00a8 0192     		str	r2, [sp, #4]
1107:./Libraries/STM32F4xx_HAL_Driver/Src/stm32f4xx_hal_rtc.c ****       {
 2194              		.loc 1 1107 10 view .LVU828
 2195 00aa 002B     		cmp	r3, #0
 2196 00ac 67D0     		beq	.L127
1120:./Libraries/STM32F4xx_HAL_Driver/Src/stm32f4xx_hal_rtc.c ****     
ARM GAS  /tmp/ccdJbK3i.s 			page 78


 2197              		.loc 1 1120 11 is_stmt 1 view .LVU829
1120:./Libraries/STM32F4xx_HAL_Driver/Src/stm32f4xx_hal_rtc.c ****     
 2198              		.loc 1 1120 12 is_stmt 0 view .LVU830
 2199 00ae 2368     		ldr	r3, [r4]
 2200 00b0 DA68     		ldr	r2, [r3, #12]
1120:./Libraries/STM32F4xx_HAL_Driver/Src/stm32f4xx_hal_rtc.c ****     
 2201              		.loc 1 1120 5 view .LVU831
 2202 00b2 12F0020F 		tst	r2, #2
 2203 00b6 F5D0     		beq	.L123
1122:./Libraries/STM32F4xx_HAL_Driver/Src/stm32f4xx_hal_rtc.c ****     /* Configure the Alarm B Sub Second register */
 2204              		.loc 1 1122 5 is_stmt 1 view .LVU832
1122:./Libraries/STM32F4xx_HAL_Driver/Src/stm32f4xx_hal_rtc.c ****     /* Configure the Alarm B Sub Second register */
 2205              		.loc 1 1122 28 is_stmt 0 view .LVU833
 2206 00b8 1E62     		str	r6, [r3, #32]
1124:./Libraries/STM32F4xx_HAL_Driver/Src/stm32f4xx_hal_rtc.c ****     /* Configure the Alarm state: Enable Alarm */
 2207              		.loc 1 1124 5 is_stmt 1 view .LVU834
1124:./Libraries/STM32F4xx_HAL_Driver/Src/stm32f4xx_hal_rtc.c ****     /* Configure the Alarm state: Enable Alarm */
 2208              		.loc 1 1124 9 is_stmt 0 view .LVU835
 2209 00ba 2368     		ldr	r3, [r4]
1124:./Libraries/STM32F4xx_HAL_Driver/Src/stm32f4xx_hal_rtc.c ****     /* Configure the Alarm state: Enable Alarm */
 2210              		.loc 1 1124 30 view .LVU836
 2211 00bc 9864     		str	r0, [r3, #72]
1126:./Libraries/STM32F4xx_HAL_Driver/Src/stm32f4xx_hal_rtc.c ****     /* Configure the Alarm interrupt */
 2212              		.loc 1 1126 5 is_stmt 1 view .LVU837
 2213 00be 2268     		ldr	r2, [r4]
 2214 00c0 9368     		ldr	r3, [r2, #8]
 2215 00c2 43F40073 		orr	r3, r3, #512
 2216 00c6 9360     		str	r3, [r2, #8]
1128:./Libraries/STM32F4xx_HAL_Driver/Src/stm32f4xx_hal_rtc.c ****   }
 2217              		.loc 1 1128 5 view .LVU838
 2218 00c8 2268     		ldr	r2, [r4]
 2219 00ca 9368     		ldr	r3, [r2, #8]
 2220 00cc 43F40053 		orr	r3, r3, #8192
 2221 00d0 9360     		str	r3, [r2, #8]
 2222              	.L121:
1132:./Libraries/STM32F4xx_HAL_Driver/Src/stm32f4xx_hal_rtc.c ****   
 2223              		.loc 1 1132 3 view .LVU839
 2224 00d2 324B     		ldr	r3, .L129+8
 2225 00d4 1A68     		ldr	r2, [r3]
 2226 00d6 42F40032 		orr	r2, r2, #131072
 2227 00da 1A60     		str	r2, [r3]
1134:./Libraries/STM32F4xx_HAL_Driver/Src/stm32f4xx_hal_rtc.c ****   
 2228              		.loc 1 1134 3 view .LVU840
1134:./Libraries/STM32F4xx_HAL_Driver/Src/stm32f4xx_hal_rtc.c ****   
 2229              		.loc 1 1134 14 is_stmt 0 view .LVU841
 2230 00dc 9A68     		ldr	r2, [r3, #8]
 2231 00de 42F40032 		orr	r2, r2, #131072
 2232 00e2 9A60     		str	r2, [r3, #8]
1137:./Libraries/STM32F4xx_HAL_Driver/Src/stm32f4xx_hal_rtc.c ****   
 2233              		.loc 1 1137 3 is_stmt 1 view .LVU842
1137:./Libraries/STM32F4xx_HAL_Driver/Src/stm32f4xx_hal_rtc.c ****   
 2234              		.loc 1 1137 3 view .LVU843
 2235 00e4 2368     		ldr	r3, [r4]
 2236 00e6 FF22     		movs	r2, #255
 2237 00e8 5A62     		str	r2, [r3, #36]
1137:./Libraries/STM32F4xx_HAL_Driver/Src/stm32f4xx_hal_rtc.c ****   
 2238              		.loc 1 1137 3 view .LVU844
ARM GAS  /tmp/ccdJbK3i.s 			page 79


1139:./Libraries/STM32F4xx_HAL_Driver/Src/stm32f4xx_hal_rtc.c ****   
 2239              		.loc 1 1139 3 view .LVU845
1139:./Libraries/STM32F4xx_HAL_Driver/Src/stm32f4xx_hal_rtc.c ****   
 2240              		.loc 1 1139 15 is_stmt 0 view .LVU846
 2241 00ea 0123     		movs	r3, #1
 2242 00ec 6377     		strb	r3, [r4, #29]
1142:./Libraries/STM32F4xx_HAL_Driver/Src/stm32f4xx_hal_rtc.c ****   
 2243              		.loc 1 1142 3 is_stmt 1 view .LVU847
1142:./Libraries/STM32F4xx_HAL_Driver/Src/stm32f4xx_hal_rtc.c ****   
 2244              		.loc 1 1142 3 view .LVU848
 2245 00ee 0020     		movs	r0, #0
 2246              	.LVL133:
1142:./Libraries/STM32F4xx_HAL_Driver/Src/stm32f4xx_hal_rtc.c ****   
 2247              		.loc 1 1142 3 is_stmt 0 view .LVU849
 2248 00f0 2077     		strb	r0, [r4, #28]
1142:./Libraries/STM32F4xx_HAL_Driver/Src/stm32f4xx_hal_rtc.c ****   
 2249              		.loc 1 1142 3 is_stmt 1 view .LVU850
1144:./Libraries/STM32F4xx_HAL_Driver/Src/stm32f4xx_hal_rtc.c **** }
 2250              		.loc 1 1144 3 view .LVU851
 2251              	.LVL134:
 2252              	.L113:
1145:./Libraries/STM32F4xx_HAL_Driver/Src/stm32f4xx_hal_rtc.c **** 
 2253              		.loc 1 1145 1 is_stmt 0 view .LVU852
 2254 00f2 03B0     		add	sp, sp, #12
 2255              	.LCFI12:
 2256              		.cfi_remember_state
 2257              		.cfi_def_cfa_offset 20
 2258              		@ sp needed
 2259 00f4 F0BD     		pop	{r4, r5, r6, r7, pc}
 2260              	.LVL135:
 2261              	.L114:
 2262              	.LCFI13:
 2263              		.cfi_restore_state
1022:./Libraries/STM32F4xx_HAL_Driver/Src/stm32f4xx_hal_rtc.c ****     {
 2264              		.loc 1 1022 5 is_stmt 1 view .LVU853
1022:./Libraries/STM32F4xx_HAL_Driver/Src/stm32f4xx_hal_rtc.c ****     {
 2265              		.loc 1 1022 13 is_stmt 0 view .LVU854
 2266 00f6 0368     		ldr	r3, [r0]
1022:./Libraries/STM32F4xx_HAL_Driver/Src/stm32f4xx_hal_rtc.c ****     {
 2267              		.loc 1 1022 23 view .LVU855
 2268 00f8 9B68     		ldr	r3, [r3, #8]
1022:./Libraries/STM32F4xx_HAL_Driver/Src/stm32f4xx_hal_rtc.c ****     {
 2269              		.loc 1 1022 7 view .LVU856
 2270 00fa 13F0400F 		tst	r3, #64
 2271 00fe 01D1     		bne	.L117
1030:./Libraries/STM32F4xx_HAL_Driver/Src/stm32f4xx_hal_rtc.c ****       assert_param(IS_RTC_HOUR24(RTC_Bcd2ToByte(sAlarm->AlarmTime.Hours)));
 2272              		.loc 1 1030 7 is_stmt 1 view .LVU857
1030:./Libraries/STM32F4xx_HAL_Driver/Src/stm32f4xx_hal_rtc.c ****       assert_param(IS_RTC_HOUR24(RTC_Bcd2ToByte(sAlarm->AlarmTime.Hours)));
 2273              		.loc 1 1030 36 is_stmt 0 view .LVU858
 2274 0100 0023     		movs	r3, #0
 2275 0102 EB70     		strb	r3, [r5, #3]
 2276              	.L117:
 2277              	.LVL136:
1031:./Libraries/STM32F4xx_HAL_Driver/Src/stm32f4xx_hal_rtc.c ****     }
 2278              		.loc 1 1031 7 is_stmt 1 view .LVU859
1034:./Libraries/STM32F4xx_HAL_Driver/Src/stm32f4xx_hal_rtc.c ****     assert_param(IS_RTC_SECONDS(RTC_Bcd2ToByte(sAlarm->AlarmTime.Seconds)));
 2279              		.loc 1 1034 5 view .LVU860
ARM GAS  /tmp/ccdJbK3i.s 			page 80


1035:./Libraries/STM32F4xx_HAL_Driver/Src/stm32f4xx_hal_rtc.c ****     
 2280              		.loc 1 1035 5 view .LVU861
1037:./Libraries/STM32F4xx_HAL_Driver/Src/stm32f4xx_hal_rtc.c ****     {
 2281              		.loc 1 1037 5 view .LVU862
1037:./Libraries/STM32F4xx_HAL_Driver/Src/stm32f4xx_hal_rtc.c ****     {
 2282              		.loc 1 1037 14 is_stmt 0 view .LVU863
 2283 0104 EA69     		ldr	r2, [r5, #28]
 2284              	.LVL137:
1045:./Libraries/STM32F4xx_HAL_Driver/Src/stm32f4xx_hal_rtc.c ****     }
 2285              		.loc 1 1045 7 is_stmt 1 view .LVU864
1047:./Libraries/STM32F4xx_HAL_Driver/Src/stm32f4xx_hal_rtc.c ****               ((uint32_t)(sAlarm->AlarmTime.Minutes) << 8U) | \
 2286              		.loc 1 1047 5 view .LVU865
1047:./Libraries/STM32F4xx_HAL_Driver/Src/stm32f4xx_hal_rtc.c ****               ((uint32_t)(sAlarm->AlarmTime.Minutes) << 8U) | \
 2287              		.loc 1 1047 44 is_stmt 0 view .LVU866
 2288 0106 2978     		ldrb	r1, [r5]	@ zero_extendqisi2
1048:./Libraries/STM32F4xx_HAL_Driver/Src/stm32f4xx_hal_rtc.c ****               ((uint32_t) sAlarm->AlarmTime.Seconds) | \
 2289              		.loc 1 1048 44 view .LVU867
 2290 0108 6B78     		ldrb	r3, [r5, #1]	@ zero_extendqisi2
1048:./Libraries/STM32F4xx_HAL_Driver/Src/stm32f4xx_hal_rtc.c ****               ((uint32_t) sAlarm->AlarmTime.Seconds) | \
 2291              		.loc 1 1048 54 view .LVU868
 2292 010a 1B02     		lsls	r3, r3, #8
1047:./Libraries/STM32F4xx_HAL_Driver/Src/stm32f4xx_hal_rtc.c ****               ((uint32_t)(sAlarm->AlarmTime.Minutes) << 8U) | \
 2293              		.loc 1 1047 60 view .LVU869
 2294 010c 43EA0143 		orr	r3, r3, r1, lsl #16
1049:./Libraries/STM32F4xx_HAL_Driver/Src/stm32f4xx_hal_rtc.c ****               ((uint32_t)(sAlarm->AlarmTime.TimeFormat) << 16U) | \
 2295              		.loc 1 1049 44 view .LVU870
 2296 0110 A978     		ldrb	r1, [r5, #2]	@ zero_extendqisi2
1048:./Libraries/STM32F4xx_HAL_Driver/Src/stm32f4xx_hal_rtc.c ****               ((uint32_t) sAlarm->AlarmTime.Seconds) | \
 2297              		.loc 1 1048 61 view .LVU871
 2298 0112 0B43     		orrs	r3, r3, r1
1050:./Libraries/STM32F4xx_HAL_Driver/Src/stm32f4xx_hal_rtc.c ****               ((uint32_t)(sAlarm->AlarmDateWeekDay) << 24U) | \
 2299              		.loc 1 1050 44 view .LVU872
 2300 0114 E978     		ldrb	r1, [r5, #3]	@ zero_extendqisi2
1049:./Libraries/STM32F4xx_HAL_Driver/Src/stm32f4xx_hal_rtc.c ****               ((uint32_t)(sAlarm->AlarmTime.TimeFormat) << 16U) | \
 2301              		.loc 1 1049 54 view .LVU873
 2302 0116 43EA0143 		orr	r3, r3, r1, lsl #16
1051:./Libraries/STM32F4xx_HAL_Driver/Src/stm32f4xx_hal_rtc.c ****               ((uint32_t)sAlarm->AlarmDateWeekDaySel) | \
 2303              		.loc 1 1051 33 view .LVU874
 2304 011a 95F82010 		ldrb	r1, [r5, #32]	@ zero_extendqisi2
1050:./Libraries/STM32F4xx_HAL_Driver/Src/stm32f4xx_hal_rtc.c ****               ((uint32_t)(sAlarm->AlarmDateWeekDay) << 24U) | \
 2305              		.loc 1 1050 65 view .LVU875
 2306 011e 43EA0163 		orr	r3, r3, r1, lsl #24
1051:./Libraries/STM32F4xx_HAL_Driver/Src/stm32f4xx_hal_rtc.c ****               ((uint32_t)sAlarm->AlarmDateWeekDaySel) | \
 2307              		.loc 1 1051 61 view .LVU876
 2308 0122 1343     		orrs	r3, r3, r2
1053:./Libraries/STM32F4xx_HAL_Driver/Src/stm32f4xx_hal_rtc.c ****   }
 2309              		.loc 1 1053 32 view .LVU877
 2310 0124 6E69     		ldr	r6, [r5, #20]
1047:./Libraries/STM32F4xx_HAL_Driver/Src/stm32f4xx_hal_rtc.c ****               ((uint32_t)(sAlarm->AlarmTime.Minutes) << 8U) | \
 2311              		.loc 1 1047 12 view .LVU878
 2312 0126 1E43     		orrs	r6, r6, r3
 2313              	.LVL138:
1047:./Libraries/STM32F4xx_HAL_Driver/Src/stm32f4xx_hal_rtc.c ****               ((uint32_t)(sAlarm->AlarmTime.Minutes) << 8U) | \
 2314              		.loc 1 1047 12 view .LVU879
 2315 0128 A4E7     		b	.L116
 2316              	.LVL139:
 2317              	.L126:
ARM GAS  /tmp/ccdJbK3i.s 			page 81


1065:./Libraries/STM32F4xx_HAL_Driver/Src/stm32f4xx_hal_rtc.c **** 
 2318              		.loc 1 1065 5 is_stmt 1 view .LVU880
 2319 012a 2268     		ldr	r2, [r4]
 2320 012c 9368     		ldr	r3, [r2, #8]
 2321 012e 23F48073 		bic	r3, r3, #256
 2322 0132 9360     		str	r3, [r2, #8]
1068:./Libraries/STM32F4xx_HAL_Driver/Src/stm32f4xx_hal_rtc.c **** 
 2323              		.loc 1 1068 5 view .LVU881
 2324 0134 2268     		ldr	r2, [r4]
 2325 0136 D368     		ldr	r3, [r2, #12]
 2326 0138 DBB2     		uxtb	r3, r3
 2327 013a 63F4C073 		orn	r3, r3, #384
 2328 013e D360     		str	r3, [r2, #12]
 2329              	.L120:
1071:./Libraries/STM32F4xx_HAL_Driver/Src/stm32f4xx_hal_rtc.c ****     {
 2330              		.loc 1 1071 5 view .LVU882
1073:./Libraries/STM32F4xx_HAL_Driver/Src/stm32f4xx_hal_rtc.c ****       {
 2331              		.loc 1 1073 7 view .LVU883
1073:./Libraries/STM32F4xx_HAL_Driver/Src/stm32f4xx_hal_rtc.c ****       {
 2332              		.loc 1 1073 16 is_stmt 0 view .LVU884
 2333 0140 019B     		ldr	r3, [sp, #4]
 2334 0142 5A1E     		subs	r2, r3, #1
 2335 0144 0192     		str	r2, [sp, #4]
1073:./Libraries/STM32F4xx_HAL_Driver/Src/stm32f4xx_hal_rtc.c ****       {
 2336              		.loc 1 1073 10 view .LVU885
 2337 0146 93B1     		cbz	r3, .L128
1086:./Libraries/STM32F4xx_HAL_Driver/Src/stm32f4xx_hal_rtc.c **** 
 2338              		.loc 1 1086 11 is_stmt 1 view .LVU886
1086:./Libraries/STM32F4xx_HAL_Driver/Src/stm32f4xx_hal_rtc.c **** 
 2339              		.loc 1 1086 12 is_stmt 0 view .LVU887
 2340 0148 2368     		ldr	r3, [r4]
 2341 014a D968     		ldr	r1, [r3, #12]
1086:./Libraries/STM32F4xx_HAL_Driver/Src/stm32f4xx_hal_rtc.c **** 
 2342              		.loc 1 1086 5 view .LVU888
 2343 014c 11F0010F 		tst	r1, #1
 2344 0150 F6D0     		beq	.L120
1088:./Libraries/STM32F4xx_HAL_Driver/Src/stm32f4xx_hal_rtc.c ****     /* Configure the Alarm A Sub Second register */
 2345              		.loc 1 1088 5 is_stmt 1 view .LVU889
1088:./Libraries/STM32F4xx_HAL_Driver/Src/stm32f4xx_hal_rtc.c ****     /* Configure the Alarm A Sub Second register */
 2346              		.loc 1 1088 28 is_stmt 0 view .LVU890
 2347 0152 DE61     		str	r6, [r3, #28]
1090:./Libraries/STM32F4xx_HAL_Driver/Src/stm32f4xx_hal_rtc.c ****     /* Configure the Alarm state: Enable Alarm */
 2348              		.loc 1 1090 5 is_stmt 1 view .LVU891
1090:./Libraries/STM32F4xx_HAL_Driver/Src/stm32f4xx_hal_rtc.c ****     /* Configure the Alarm state: Enable Alarm */
 2349              		.loc 1 1090 9 is_stmt 0 view .LVU892
 2350 0154 2368     		ldr	r3, [r4]
1090:./Libraries/STM32F4xx_HAL_Driver/Src/stm32f4xx_hal_rtc.c ****     /* Configure the Alarm state: Enable Alarm */
 2351              		.loc 1 1090 30 view .LVU893
 2352 0156 5864     		str	r0, [r3, #68]
1092:./Libraries/STM32F4xx_HAL_Driver/Src/stm32f4xx_hal_rtc.c ****     /* Configure the Alarm interrupt */
 2353              		.loc 1 1092 5 is_stmt 1 view .LVU894
 2354 0158 2268     		ldr	r2, [r4]
 2355 015a 9368     		ldr	r3, [r2, #8]
 2356 015c 43F48073 		orr	r3, r3, #256
 2357 0160 9360     		str	r3, [r2, #8]
1094:./Libraries/STM32F4xx_HAL_Driver/Src/stm32f4xx_hal_rtc.c ****   }
 2358              		.loc 1 1094 5 view .LVU895
ARM GAS  /tmp/ccdJbK3i.s 			page 82


 2359 0162 2268     		ldr	r2, [r4]
 2360 0164 9368     		ldr	r3, [r2, #8]
 2361 0166 43F48053 		orr	r3, r3, #4096
 2362 016a 9360     		str	r3, [r2, #8]
 2363 016c B1E7     		b	.L121
 2364              	.L128:
1076:./Libraries/STM32F4xx_HAL_Driver/Src/stm32f4xx_hal_rtc.c **** 
 2365              		.loc 1 1076 9 view .LVU896
1076:./Libraries/STM32F4xx_HAL_Driver/Src/stm32f4xx_hal_rtc.c **** 
 2366              		.loc 1 1076 9 view .LVU897
 2367 016e 2368     		ldr	r3, [r4]
 2368 0170 FF22     		movs	r2, #255
 2369 0172 5A62     		str	r2, [r3, #36]
1076:./Libraries/STM32F4xx_HAL_Driver/Src/stm32f4xx_hal_rtc.c **** 
 2370              		.loc 1 1076 9 view .LVU898
1078:./Libraries/STM32F4xx_HAL_Driver/Src/stm32f4xx_hal_rtc.c **** 
 2371              		.loc 1 1078 9 view .LVU899
1078:./Libraries/STM32F4xx_HAL_Driver/Src/stm32f4xx_hal_rtc.c **** 
 2372              		.loc 1 1078 21 is_stmt 0 view .LVU900
 2373 0174 0320     		movs	r0, #3
 2374              	.LVL140:
1078:./Libraries/STM32F4xx_HAL_Driver/Src/stm32f4xx_hal_rtc.c **** 
 2375              		.loc 1 1078 21 view .LVU901
 2376 0176 6077     		strb	r0, [r4, #29]
1081:./Libraries/STM32F4xx_HAL_Driver/Src/stm32f4xx_hal_rtc.c **** 
 2377              		.loc 1 1081 9 is_stmt 1 view .LVU902
1081:./Libraries/STM32F4xx_HAL_Driver/Src/stm32f4xx_hal_rtc.c **** 
 2378              		.loc 1 1081 9 view .LVU903
 2379 0178 0023     		movs	r3, #0
 2380 017a 2377     		strb	r3, [r4, #28]
1081:./Libraries/STM32F4xx_HAL_Driver/Src/stm32f4xx_hal_rtc.c **** 
 2381              		.loc 1 1081 9 view .LVU904
1083:./Libraries/STM32F4xx_HAL_Driver/Src/stm32f4xx_hal_rtc.c ****       }
 2382              		.loc 1 1083 9 view .LVU905
1083:./Libraries/STM32F4xx_HAL_Driver/Src/stm32f4xx_hal_rtc.c ****       }
 2383              		.loc 1 1083 16 is_stmt 0 view .LVU906
 2384 017c B9E7     		b	.L113
 2385              	.LVL141:
 2386              	.L127:
1110:./Libraries/STM32F4xx_HAL_Driver/Src/stm32f4xx_hal_rtc.c **** 
 2387              		.loc 1 1110 9 is_stmt 1 view .LVU907
1110:./Libraries/STM32F4xx_HAL_Driver/Src/stm32f4xx_hal_rtc.c **** 
 2388              		.loc 1 1110 9 view .LVU908
 2389 017e 2368     		ldr	r3, [r4]
 2390 0180 FF22     		movs	r2, #255
 2391 0182 5A62     		str	r2, [r3, #36]
1110:./Libraries/STM32F4xx_HAL_Driver/Src/stm32f4xx_hal_rtc.c **** 
 2392              		.loc 1 1110 9 view .LVU909
1112:./Libraries/STM32F4xx_HAL_Driver/Src/stm32f4xx_hal_rtc.c **** 
 2393              		.loc 1 1112 9 view .LVU910
1112:./Libraries/STM32F4xx_HAL_Driver/Src/stm32f4xx_hal_rtc.c **** 
 2394              		.loc 1 1112 21 is_stmt 0 view .LVU911
 2395 0184 0320     		movs	r0, #3
 2396              	.LVL142:
1112:./Libraries/STM32F4xx_HAL_Driver/Src/stm32f4xx_hal_rtc.c **** 
 2397              		.loc 1 1112 21 view .LVU912
 2398 0186 6077     		strb	r0, [r4, #29]
ARM GAS  /tmp/ccdJbK3i.s 			page 83


1115:./Libraries/STM32F4xx_HAL_Driver/Src/stm32f4xx_hal_rtc.c **** 
 2399              		.loc 1 1115 9 is_stmt 1 view .LVU913
1115:./Libraries/STM32F4xx_HAL_Driver/Src/stm32f4xx_hal_rtc.c **** 
 2400              		.loc 1 1115 9 view .LVU914
 2401 0188 0023     		movs	r3, #0
 2402 018a 2377     		strb	r3, [r4, #28]
1115:./Libraries/STM32F4xx_HAL_Driver/Src/stm32f4xx_hal_rtc.c **** 
 2403              		.loc 1 1115 9 view .LVU915
1117:./Libraries/STM32F4xx_HAL_Driver/Src/stm32f4xx_hal_rtc.c ****       }
 2404              		.loc 1 1117 9 view .LVU916
1117:./Libraries/STM32F4xx_HAL_Driver/Src/stm32f4xx_hal_rtc.c ****       }
 2405              		.loc 1 1117 16 is_stmt 0 view .LVU917
 2406 018c B1E7     		b	.L113
 2407              	.LVL143:
 2408              	.L124:
 985:./Libraries/STM32F4xx_HAL_Driver/Src/stm32f4xx_hal_rtc.c ****   
 2409              		.loc 1 985 3 view .LVU918
 2410 018e 0220     		movs	r0, #2
 2411              	.LVL144:
 985:./Libraries/STM32F4xx_HAL_Driver/Src/stm32f4xx_hal_rtc.c ****   
 2412              		.loc 1 985 3 view .LVU919
 2413 0190 AFE7     		b	.L113
 2414              	.L130:
 2415 0192 00BF     		.align	2
 2416              	.L129:
 2417 0194 00000000 		.word	SystemCoreClock
 2418 0198 D34D6210 		.word	274877907
 2419 019c 003C0140 		.word	1073822720
 2420              		.cfi_endproc
 2421              	.LFE135:
 2423              		.section	.text.RTC_Bcd2ToByte,"ax",%progbits
 2424              		.align	1
 2425              		.global	RTC_Bcd2ToByte
 2426              		.syntax unified
 2427              		.thumb
 2428              		.thumb_func
 2429              		.fpu fpv4-sp-d16
 2431              	RTC_Bcd2ToByte:
 2432              	.LVL145:
 2433              	.LFB145:
1531:./Libraries/STM32F4xx_HAL_Driver/Src/stm32f4xx_hal_rtc.c **** 
1532:./Libraries/STM32F4xx_HAL_Driver/Src/stm32f4xx_hal_rtc.c **** /**
1533:./Libraries/STM32F4xx_HAL_Driver/Src/stm32f4xx_hal_rtc.c ****   * @brief  Converts from 2 digit BCD to Binary.
1534:./Libraries/STM32F4xx_HAL_Driver/Src/stm32f4xx_hal_rtc.c ****   * @param  Value BCD value to be converted
1535:./Libraries/STM32F4xx_HAL_Driver/Src/stm32f4xx_hal_rtc.c ****   * @retval Converted word
1536:./Libraries/STM32F4xx_HAL_Driver/Src/stm32f4xx_hal_rtc.c ****   */
1537:./Libraries/STM32F4xx_HAL_Driver/Src/stm32f4xx_hal_rtc.c **** uint8_t RTC_Bcd2ToByte(uint8_t Value)
1538:./Libraries/STM32F4xx_HAL_Driver/Src/stm32f4xx_hal_rtc.c **** {
 2434              		.loc 1 1538 1 is_stmt 1 view -0
 2435              		.cfi_startproc
 2436              		@ args = 0, pretend = 0, frame = 0
 2437              		@ frame_needed = 0, uses_anonymous_args = 0
 2438              		@ link register save eliminated.
1539:./Libraries/STM32F4xx_HAL_Driver/Src/stm32f4xx_hal_rtc.c ****   uint32_t tmp = 0U;
 2439              		.loc 1 1539 3 view .LVU921
1540:./Libraries/STM32F4xx_HAL_Driver/Src/stm32f4xx_hal_rtc.c ****   tmp = ((uint8_t)(Value & (uint8_t)0xF0) >> (uint8_t)0x4) * 10;
 2440              		.loc 1 1540 3 view .LVU922
ARM GAS  /tmp/ccdJbK3i.s 			page 84


 2441              		.loc 1 1540 43 is_stmt 0 view .LVU923
 2442 0000 0309     		lsrs	r3, r0, #4
 2443              		.loc 1 1540 60 view .LVU924
 2444 0002 03EB8303 		add	r3, r3, r3, lsl #2
 2445              	.LVL146:
1541:./Libraries/STM32F4xx_HAL_Driver/Src/stm32f4xx_hal_rtc.c ****   return (tmp + (Value & (uint8_t)0x0F));
 2446              		.loc 1 1541 3 is_stmt 1 view .LVU925
 2447              		.loc 1 1541 24 is_stmt 0 view .LVU926
 2448 0006 00F00F00 		and	r0, r0, #15
 2449              	.LVL147:
 2450              		.loc 1 1541 15 view .LVU927
 2451 000a 00EB4300 		add	r0, r0, r3, lsl #1
1542:./Libraries/STM32F4xx_HAL_Driver/Src/stm32f4xx_hal_rtc.c **** }
 2452              		.loc 1 1542 1 view .LVU928
 2453 000e C0B2     		uxtb	r0, r0
 2454 0010 7047     		bx	lr
 2455              		.cfi_endproc
 2456              	.LFE145:
 2458              		.section	.text.HAL_RTC_GetTime,"ax",%progbits
 2459              		.align	1
 2460              		.global	HAL_RTC_GetTime
 2461              		.syntax unified
 2462              		.thumb
 2463              		.thumb_func
 2464              		.fpu fpv4-sp-d16
 2466              	HAL_RTC_GetTime:
 2467              	.LVL148:
 2468              	.LFB131:
 576:./Libraries/STM32F4xx_HAL_Driver/Src/stm32f4xx_hal_rtc.c ****   uint32_t tmpreg = 0U;
 2469              		.loc 1 576 1 is_stmt 1 view -0
 2470              		.cfi_startproc
 2471              		@ args = 0, pretend = 0, frame = 0
 2472              		@ frame_needed = 0, uses_anonymous_args = 0
 576:./Libraries/STM32F4xx_HAL_Driver/Src/stm32f4xx_hal_rtc.c ****   uint32_t tmpreg = 0U;
 2473              		.loc 1 576 1 is_stmt 0 view .LVU930
 2474 0000 70B5     		push	{r4, r5, r6, lr}
 2475              	.LCFI14:
 2476              		.cfi_def_cfa_offset 16
 2477              		.cfi_offset 4, -16
 2478              		.cfi_offset 5, -12
 2479              		.cfi_offset 6, -8
 2480              		.cfi_offset 14, -4
 2481 0002 0C46     		mov	r4, r1
 577:./Libraries/STM32F4xx_HAL_Driver/Src/stm32f4xx_hal_rtc.c **** 
 2482              		.loc 1 577 3 is_stmt 1 view .LVU931
 2483              	.LVL149:
 580:./Libraries/STM32F4xx_HAL_Driver/Src/stm32f4xx_hal_rtc.c ****   
 2484              		.loc 1 580 3 view .LVU932
 583:./Libraries/STM32F4xx_HAL_Driver/Src/stm32f4xx_hal_rtc.c ****   
 2485              		.loc 1 583 3 view .LVU933
 583:./Libraries/STM32F4xx_HAL_Driver/Src/stm32f4xx_hal_rtc.c ****   
 2486              		.loc 1 583 38 is_stmt 0 view .LVU934
 2487 0004 0368     		ldr	r3, [r0]
 583:./Libraries/STM32F4xx_HAL_Driver/Src/stm32f4xx_hal_rtc.c ****   
 2488              		.loc 1 583 48 view .LVU935
 2489 0006 9B6A     		ldr	r3, [r3, #40]
 583:./Libraries/STM32F4xx_HAL_Driver/Src/stm32f4xx_hal_rtc.c ****   
ARM GAS  /tmp/ccdJbK3i.s 			page 85


 2490              		.loc 1 583 21 view .LVU936
 2491 0008 4B60     		str	r3, [r1, #4]
 586:./Libraries/STM32F4xx_HAL_Driver/Src/stm32f4xx_hal_rtc.c **** 
 2492              		.loc 1 586 3 is_stmt 1 view .LVU937
 586:./Libraries/STM32F4xx_HAL_Driver/Src/stm32f4xx_hal_rtc.c **** 
 2493              		.loc 1 586 42 is_stmt 0 view .LVU938
 2494 000a 0368     		ldr	r3, [r0]
 586:./Libraries/STM32F4xx_HAL_Driver/Src/stm32f4xx_hal_rtc.c **** 
 2495              		.loc 1 586 52 view .LVU939
 2496 000c 1B69     		ldr	r3, [r3, #16]
 586:./Libraries/STM32F4xx_HAL_Driver/Src/stm32f4xx_hal_rtc.c **** 
 2497              		.loc 1 586 27 view .LVU940
 2498 000e C3F30E03 		ubfx	r3, r3, #0, #15
 586:./Libraries/STM32F4xx_HAL_Driver/Src/stm32f4xx_hal_rtc.c **** 
 2499              		.loc 1 586 25 view .LVU941
 2500 0012 8B60     		str	r3, [r1, #8]
 589:./Libraries/STM32F4xx_HAL_Driver/Src/stm32f4xx_hal_rtc.c ****   
 2501              		.loc 1 589 3 is_stmt 1 view .LVU942
 589:./Libraries/STM32F4xx_HAL_Driver/Src/stm32f4xx_hal_rtc.c ****   
 2502              		.loc 1 589 27 is_stmt 0 view .LVU943
 2503 0014 0368     		ldr	r3, [r0]
 589:./Libraries/STM32F4xx_HAL_Driver/Src/stm32f4xx_hal_rtc.c ****   
 2504              		.loc 1 589 37 view .LVU944
 2505 0016 1D68     		ldr	r5, [r3]
 2506              	.LVL150:
 592:./Libraries/STM32F4xx_HAL_Driver/Src/stm32f4xx_hal_rtc.c ****   sTime->Minutes = (uint8_t)((tmpreg & (RTC_TR_MNT | RTC_TR_MNU)) >> 8U);
 2507              		.loc 1 592 3 is_stmt 1 view .LVU945
 592:./Libraries/STM32F4xx_HAL_Driver/Src/stm32f4xx_hal_rtc.c ****   sTime->Minutes = (uint8_t)((tmpreg & (RTC_TR_MNT | RTC_TR_MNU)) >> 8U);
 2508              		.loc 1 592 18 is_stmt 0 view .LVU946
 2509 0018 C5F30641 		ubfx	r1, r5, #16, #7
 2510              	.LVL151:
 592:./Libraries/STM32F4xx_HAL_Driver/Src/stm32f4xx_hal_rtc.c ****   sTime->Minutes = (uint8_t)((tmpreg & (RTC_TR_MNT | RTC_TR_MNU)) >> 8U);
 2511              		.loc 1 592 18 view .LVU947
 2512 001c C5F30540 		ubfx	r0, r5, #16, #6
 2513              	.LVL152:
 592:./Libraries/STM32F4xx_HAL_Driver/Src/stm32f4xx_hal_rtc.c ****   sTime->Minutes = (uint8_t)((tmpreg & (RTC_TR_MNT | RTC_TR_MNU)) >> 8U);
 2514              		.loc 1 592 16 view .LVU948
 2515 0020 2070     		strb	r0, [r4]
 593:./Libraries/STM32F4xx_HAL_Driver/Src/stm32f4xx_hal_rtc.c ****   sTime->Seconds = (uint8_t)(tmpreg & (RTC_TR_ST | RTC_TR_SU));
 2516              		.loc 1 593 3 is_stmt 1 view .LVU949
 593:./Libraries/STM32F4xx_HAL_Driver/Src/stm32f4xx_hal_rtc.c ****   sTime->Seconds = (uint8_t)(tmpreg & (RTC_TR_ST | RTC_TR_SU));
 2517              		.loc 1 593 20 is_stmt 0 view .LVU950
 2518 0022 C5F30626 		ubfx	r6, r5, #8, #7
 593:./Libraries/STM32F4xx_HAL_Driver/Src/stm32f4xx_hal_rtc.c ****   sTime->Seconds = (uint8_t)(tmpreg & (RTC_TR_ST | RTC_TR_SU));
 2519              		.loc 1 593 18 view .LVU951
 2520 0026 6670     		strb	r6, [r4, #1]
 594:./Libraries/STM32F4xx_HAL_Driver/Src/stm32f4xx_hal_rtc.c ****   sTime->TimeFormat = (uint8_t)((tmpreg & (RTC_TR_PM)) >> 16U); 
 2521              		.loc 1 594 3 is_stmt 1 view .LVU952
 594:./Libraries/STM32F4xx_HAL_Driver/Src/stm32f4xx_hal_rtc.c ****   sTime->TimeFormat = (uint8_t)((tmpreg & (RTC_TR_PM)) >> 16U); 
 2522              		.loc 1 594 20 is_stmt 0 view .LVU953
 2523 0028 05F07F05 		and	r5, r5, #127
 2524              	.LVL153:
 594:./Libraries/STM32F4xx_HAL_Driver/Src/stm32f4xx_hal_rtc.c ****   sTime->TimeFormat = (uint8_t)((tmpreg & (RTC_TR_PM)) >> 16U); 
 2525              		.loc 1 594 18 view .LVU954
 2526 002c A570     		strb	r5, [r4, #2]
 595:./Libraries/STM32F4xx_HAL_Driver/Src/stm32f4xx_hal_rtc.c ****   
 2527              		.loc 1 595 3 is_stmt 1 view .LVU955
ARM GAS  /tmp/ccdJbK3i.s 			page 86


 595:./Libraries/STM32F4xx_HAL_Driver/Src/stm32f4xx_hal_rtc.c ****   
 2528              		.loc 1 595 23 is_stmt 0 view .LVU956
 2529 002e 01F04003 		and	r3, r1, #64
 595:./Libraries/STM32F4xx_HAL_Driver/Src/stm32f4xx_hal_rtc.c ****   
 2530              		.loc 1 595 21 view .LVU957
 2531 0032 E370     		strb	r3, [r4, #3]
 598:./Libraries/STM32F4xx_HAL_Driver/Src/stm32f4xx_hal_rtc.c ****   {
 2532              		.loc 1 598 3 is_stmt 1 view .LVU958
 598:./Libraries/STM32F4xx_HAL_Driver/Src/stm32f4xx_hal_rtc.c ****   {
 2533              		.loc 1 598 5 is_stmt 0 view .LVU959
 2534 0034 52B9     		cbnz	r2, .L133
 601:./Libraries/STM32F4xx_HAL_Driver/Src/stm32f4xx_hal_rtc.c ****     sTime->Minutes = (uint8_t)RTC_Bcd2ToByte(sTime->Minutes);
 2535              		.loc 1 601 5 is_stmt 1 view .LVU960
 601:./Libraries/STM32F4xx_HAL_Driver/Src/stm32f4xx_hal_rtc.c ****     sTime->Minutes = (uint8_t)RTC_Bcd2ToByte(sTime->Minutes);
 2536              		.loc 1 601 29 is_stmt 0 view .LVU961
 2537 0036 FFF7FEFF 		bl	RTC_Bcd2ToByte
 2538              	.LVL154:
 601:./Libraries/STM32F4xx_HAL_Driver/Src/stm32f4xx_hal_rtc.c ****     sTime->Minutes = (uint8_t)RTC_Bcd2ToByte(sTime->Minutes);
 2539              		.loc 1 601 18 view .LVU962
 2540 003a 2070     		strb	r0, [r4]
 602:./Libraries/STM32F4xx_HAL_Driver/Src/stm32f4xx_hal_rtc.c ****     sTime->Seconds = (uint8_t)RTC_Bcd2ToByte(sTime->Seconds);  
 2541              		.loc 1 602 5 is_stmt 1 view .LVU963
 602:./Libraries/STM32F4xx_HAL_Driver/Src/stm32f4xx_hal_rtc.c ****     sTime->Seconds = (uint8_t)RTC_Bcd2ToByte(sTime->Seconds);  
 2542              		.loc 1 602 31 is_stmt 0 view .LVU964
 2543 003c 3046     		mov	r0, r6
 2544 003e FFF7FEFF 		bl	RTC_Bcd2ToByte
 2545              	.LVL155:
 602:./Libraries/STM32F4xx_HAL_Driver/Src/stm32f4xx_hal_rtc.c ****     sTime->Seconds = (uint8_t)RTC_Bcd2ToByte(sTime->Seconds);  
 2546              		.loc 1 602 20 view .LVU965
 2547 0042 6070     		strb	r0, [r4, #1]
 603:./Libraries/STM32F4xx_HAL_Driver/Src/stm32f4xx_hal_rtc.c ****   }
 2548              		.loc 1 603 5 is_stmt 1 view .LVU966
 603:./Libraries/STM32F4xx_HAL_Driver/Src/stm32f4xx_hal_rtc.c ****   }
 2549              		.loc 1 603 31 is_stmt 0 view .LVU967
 2550 0044 2846     		mov	r0, r5
 2551 0046 FFF7FEFF 		bl	RTC_Bcd2ToByte
 2552              	.LVL156:
 603:./Libraries/STM32F4xx_HAL_Driver/Src/stm32f4xx_hal_rtc.c ****   }
 2553              		.loc 1 603 20 view .LVU968
 2554 004a A070     		strb	r0, [r4, #2]
 2555              	.L133:
 606:./Libraries/STM32F4xx_HAL_Driver/Src/stm32f4xx_hal_rtc.c **** }
 2556              		.loc 1 606 3 is_stmt 1 view .LVU969
 607:./Libraries/STM32F4xx_HAL_Driver/Src/stm32f4xx_hal_rtc.c **** 
 2557              		.loc 1 607 1 is_stmt 0 view .LVU970
 2558 004c 0020     		movs	r0, #0
 2559 004e 70BD     		pop	{r4, r5, r6, pc}
 607:./Libraries/STM32F4xx_HAL_Driver/Src/stm32f4xx_hal_rtc.c **** 
 2560              		.loc 1 607 1 view .LVU971
 2561              		.cfi_endproc
 2562              	.LFE131:
 2564              		.section	.text.HAL_RTC_GetDate,"ax",%progbits
 2565              		.align	1
 2566              		.global	HAL_RTC_GetDate
 2567              		.syntax unified
 2568              		.thumb
 2569              		.thumb_func
ARM GAS  /tmp/ccdJbK3i.s 			page 87


 2570              		.fpu fpv4-sp-d16
 2572              	HAL_RTC_GetDate:
 2573              	.LVL157:
 2574              	.LFB133:
 731:./Libraries/STM32F4xx_HAL_Driver/Src/stm32f4xx_hal_rtc.c ****   uint32_t datetmpreg = 0U;
 2575              		.loc 1 731 1 is_stmt 1 view -0
 2576              		.cfi_startproc
 2577              		@ args = 0, pretend = 0, frame = 0
 2578              		@ frame_needed = 0, uses_anonymous_args = 0
 731:./Libraries/STM32F4xx_HAL_Driver/Src/stm32f4xx_hal_rtc.c ****   uint32_t datetmpreg = 0U;
 2579              		.loc 1 731 1 is_stmt 0 view .LVU973
 2580 0000 70B5     		push	{r4, r5, r6, lr}
 2581              	.LCFI15:
 2582              		.cfi_def_cfa_offset 16
 2583              		.cfi_offset 4, -16
 2584              		.cfi_offset 5, -12
 2585              		.cfi_offset 6, -8
 2586              		.cfi_offset 14, -4
 732:./Libraries/STM32F4xx_HAL_Driver/Src/stm32f4xx_hal_rtc.c **** 
 2587              		.loc 1 732 3 is_stmt 1 view .LVU974
 2588              	.LVL158:
 735:./Libraries/STM32F4xx_HAL_Driver/Src/stm32f4xx_hal_rtc.c ****           
 2589              		.loc 1 735 3 view .LVU975
 738:./Libraries/STM32F4xx_HAL_Driver/Src/stm32f4xx_hal_rtc.c **** 
 2590              		.loc 1 738 3 view .LVU976
 738:./Libraries/STM32F4xx_HAL_Driver/Src/stm32f4xx_hal_rtc.c **** 
 2591              		.loc 1 738 31 is_stmt 0 view .LVU977
 2592 0002 0368     		ldr	r3, [r0]
 738:./Libraries/STM32F4xx_HAL_Driver/Src/stm32f4xx_hal_rtc.c **** 
 2593              		.loc 1 738 41 view .LVU978
 2594 0004 5B68     		ldr	r3, [r3, #4]
 2595              	.LVL159:
 741:./Libraries/STM32F4xx_HAL_Driver/Src/stm32f4xx_hal_rtc.c ****   sDate->Month = (uint8_t)((datetmpreg & (RTC_DR_MT | RTC_DR_MU)) >> 8U);
 2596              		.loc 1 741 3 is_stmt 1 view .LVU979
 741:./Libraries/STM32F4xx_HAL_Driver/Src/stm32f4xx_hal_rtc.c ****   sDate->Month = (uint8_t)((datetmpreg & (RTC_DR_MT | RTC_DR_MU)) >> 8U);
 2597              		.loc 1 741 17 is_stmt 0 view .LVU980
 2598 0006 C3F30740 		ubfx	r0, r3, #16, #8
 2599              	.LVL160:
 741:./Libraries/STM32F4xx_HAL_Driver/Src/stm32f4xx_hal_rtc.c ****   sDate->Month = (uint8_t)((datetmpreg & (RTC_DR_MT | RTC_DR_MU)) >> 8U);
 2600              		.loc 1 741 15 view .LVU981
 2601 000a C870     		strb	r0, [r1, #3]
 742:./Libraries/STM32F4xx_HAL_Driver/Src/stm32f4xx_hal_rtc.c ****   sDate->Date = (uint8_t)(datetmpreg & (RTC_DR_DT | RTC_DR_DU));
 2602              		.loc 1 742 3 is_stmt 1 view .LVU982
 742:./Libraries/STM32F4xx_HAL_Driver/Src/stm32f4xx_hal_rtc.c ****   sDate->Date = (uint8_t)(datetmpreg & (RTC_DR_DT | RTC_DR_DU));
 2603              		.loc 1 742 18 is_stmt 0 view .LVU983
 2604 000c C3F30426 		ubfx	r6, r3, #8, #5
 742:./Libraries/STM32F4xx_HAL_Driver/Src/stm32f4xx_hal_rtc.c ****   sDate->Date = (uint8_t)(datetmpreg & (RTC_DR_DT | RTC_DR_DU));
 2605              		.loc 1 742 16 view .LVU984
 2606 0010 4E70     		strb	r6, [r1, #1]
 743:./Libraries/STM32F4xx_HAL_Driver/Src/stm32f4xx_hal_rtc.c ****   sDate->WeekDay = (uint8_t)((datetmpreg & (RTC_DR_WDU)) >> 13U); 
 2607              		.loc 1 743 3 is_stmt 1 view .LVU985
 743:./Libraries/STM32F4xx_HAL_Driver/Src/stm32f4xx_hal_rtc.c ****   sDate->WeekDay = (uint8_t)((datetmpreg & (RTC_DR_WDU)) >> 13U); 
 2608              		.loc 1 743 17 is_stmt 0 view .LVU986
 2609 0012 03F03F05 		and	r5, r3, #63
 743:./Libraries/STM32F4xx_HAL_Driver/Src/stm32f4xx_hal_rtc.c ****   sDate->WeekDay = (uint8_t)((datetmpreg & (RTC_DR_WDU)) >> 13U); 
 2610              		.loc 1 743 15 view .LVU987
 2611 0016 8D70     		strb	r5, [r1, #2]
ARM GAS  /tmp/ccdJbK3i.s 			page 88


 744:./Libraries/STM32F4xx_HAL_Driver/Src/stm32f4xx_hal_rtc.c **** 
 2612              		.loc 1 744 3 is_stmt 1 view .LVU988
 744:./Libraries/STM32F4xx_HAL_Driver/Src/stm32f4xx_hal_rtc.c **** 
 2613              		.loc 1 744 20 is_stmt 0 view .LVU989
 2614 0018 C3F34233 		ubfx	r3, r3, #13, #3
 2615              	.LVL161:
 744:./Libraries/STM32F4xx_HAL_Driver/Src/stm32f4xx_hal_rtc.c **** 
 2616              		.loc 1 744 18 view .LVU990
 2617 001c 0B70     		strb	r3, [r1]
 747:./Libraries/STM32F4xx_HAL_Driver/Src/stm32f4xx_hal_rtc.c ****   {    
 2618              		.loc 1 747 3 is_stmt 1 view .LVU991
 747:./Libraries/STM32F4xx_HAL_Driver/Src/stm32f4xx_hal_rtc.c ****   {    
 2619              		.loc 1 747 5 is_stmt 0 view .LVU992
 2620 001e 5AB9     		cbnz	r2, .L136
 2621 0020 0C46     		mov	r4, r1
 750:./Libraries/STM32F4xx_HAL_Driver/Src/stm32f4xx_hal_rtc.c ****     sDate->Month = (uint8_t)RTC_Bcd2ToByte(sDate->Month);
 2622              		.loc 1 750 5 is_stmt 1 view .LVU993
 750:./Libraries/STM32F4xx_HAL_Driver/Src/stm32f4xx_hal_rtc.c ****     sDate->Month = (uint8_t)RTC_Bcd2ToByte(sDate->Month);
 2623              		.loc 1 750 28 is_stmt 0 view .LVU994
 2624 0022 FFF7FEFF 		bl	RTC_Bcd2ToByte
 2625              	.LVL162:
 750:./Libraries/STM32F4xx_HAL_Driver/Src/stm32f4xx_hal_rtc.c ****     sDate->Month = (uint8_t)RTC_Bcd2ToByte(sDate->Month);
 2626              		.loc 1 750 17 view .LVU995
 2627 0026 E070     		strb	r0, [r4, #3]
 751:./Libraries/STM32F4xx_HAL_Driver/Src/stm32f4xx_hal_rtc.c ****     sDate->Date = (uint8_t)RTC_Bcd2ToByte(sDate->Date);  
 2628              		.loc 1 751 5 is_stmt 1 view .LVU996
 751:./Libraries/STM32F4xx_HAL_Driver/Src/stm32f4xx_hal_rtc.c ****     sDate->Date = (uint8_t)RTC_Bcd2ToByte(sDate->Date);  
 2629              		.loc 1 751 29 is_stmt 0 view .LVU997
 2630 0028 3046     		mov	r0, r6
 2631 002a FFF7FEFF 		bl	RTC_Bcd2ToByte
 2632              	.LVL163:
 751:./Libraries/STM32F4xx_HAL_Driver/Src/stm32f4xx_hal_rtc.c ****     sDate->Date = (uint8_t)RTC_Bcd2ToByte(sDate->Date);  
 2633              		.loc 1 751 18 view .LVU998
 2634 002e 6070     		strb	r0, [r4, #1]
 752:./Libraries/STM32F4xx_HAL_Driver/Src/stm32f4xx_hal_rtc.c ****   }
 2635              		.loc 1 752 5 is_stmt 1 view .LVU999
 752:./Libraries/STM32F4xx_HAL_Driver/Src/stm32f4xx_hal_rtc.c ****   }
 2636              		.loc 1 752 28 is_stmt 0 view .LVU1000
 2637 0030 2846     		mov	r0, r5
 2638 0032 FFF7FEFF 		bl	RTC_Bcd2ToByte
 2639              	.LVL164:
 752:./Libraries/STM32F4xx_HAL_Driver/Src/stm32f4xx_hal_rtc.c ****   }
 2640              		.loc 1 752 17 view .LVU1001
 2641 0036 A070     		strb	r0, [r4, #2]
 2642              	.LVL165:
 2643              	.L136:
 754:./Libraries/STM32F4xx_HAL_Driver/Src/stm32f4xx_hal_rtc.c **** }
 2644              		.loc 1 754 3 is_stmt 1 view .LVU1002
 755:./Libraries/STM32F4xx_HAL_Driver/Src/stm32f4xx_hal_rtc.c **** 
 2645              		.loc 1 755 1 is_stmt 0 view .LVU1003
 2646 0038 0020     		movs	r0, #0
 2647 003a 70BD     		pop	{r4, r5, r6, pc}
 2648              		.cfi_endproc
 2649              	.LFE133:
 2651              		.section	.text.HAL_RTC_GetAlarm,"ax",%progbits
 2652              		.align	1
 2653              		.global	HAL_RTC_GetAlarm
ARM GAS  /tmp/ccdJbK3i.s 			page 89


 2654              		.syntax unified
 2655              		.thumb
 2656              		.thumb_func
 2657              		.fpu fpv4-sp-d16
 2659              	HAL_RTC_GetAlarm:
 2660              	.LVL166:
 2661              	.LFB137:
1255:./Libraries/STM32F4xx_HAL_Driver/Src/stm32f4xx_hal_rtc.c ****   uint32_t tmpreg = 0U, subsecondtmpreg = 0U;
 2662              		.loc 1 1255 1 is_stmt 1 view -0
 2663              		.cfi_startproc
 2664              		@ args = 0, pretend = 0, frame = 0
 2665              		@ frame_needed = 0, uses_anonymous_args = 0
1255:./Libraries/STM32F4xx_HAL_Driver/Src/stm32f4xx_hal_rtc.c ****   uint32_t tmpreg = 0U, subsecondtmpreg = 0U;
 2666              		.loc 1 1255 1 is_stmt 0 view .LVU1005
 2667 0000 F8B5     		push	{r3, r4, r5, r6, r7, lr}
 2668              	.LCFI16:
 2669              		.cfi_def_cfa_offset 24
 2670              		.cfi_offset 3, -24
 2671              		.cfi_offset 4, -20
 2672              		.cfi_offset 5, -16
 2673              		.cfi_offset 6, -12
 2674              		.cfi_offset 7, -8
 2675              		.cfi_offset 14, -4
 2676 0002 0C46     		mov	r4, r1
1256:./Libraries/STM32F4xx_HAL_Driver/Src/stm32f4xx_hal_rtc.c ****   
 2677              		.loc 1 1256 3 is_stmt 1 view .LVU1006
 2678              	.LVL167:
1259:./Libraries/STM32F4xx_HAL_Driver/Src/stm32f4xx_hal_rtc.c ****   assert_param(IS_RTC_ALARM(Alarm));
 2679              		.loc 1 1259 3 view .LVU1007
1260:./Libraries/STM32F4xx_HAL_Driver/Src/stm32f4xx_hal_rtc.c ****   
 2680              		.loc 1 1260 3 view .LVU1008
1262:./Libraries/STM32F4xx_HAL_Driver/Src/stm32f4xx_hal_rtc.c ****   {
 2681              		.loc 1 1262 3 view .LVU1009
1262:./Libraries/STM32F4xx_HAL_Driver/Src/stm32f4xx_hal_rtc.c ****   {
 2682              		.loc 1 1262 5 is_stmt 0 view .LVU1010
 2683 0004 B2F5807F 		cmp	r2, #256
 2684 0008 34D0     		beq	.L143
1272:./Libraries/STM32F4xx_HAL_Driver/Src/stm32f4xx_hal_rtc.c ****     
 2685              		.loc 1 1272 5 is_stmt 1 view .LVU1011
1272:./Libraries/STM32F4xx_HAL_Driver/Src/stm32f4xx_hal_rtc.c ****     
 2686              		.loc 1 1272 19 is_stmt 0 view .LVU1012
 2687 000a 4FF40072 		mov	r2, #512
 2688              	.LVL168:
1272:./Libraries/STM32F4xx_HAL_Driver/Src/stm32f4xx_hal_rtc.c ****     
 2689              		.loc 1 1272 19 view .LVU1013
 2690 000e 4A62     		str	r2, [r1, #36]
1274:./Libraries/STM32F4xx_HAL_Driver/Src/stm32f4xx_hal_rtc.c ****     subsecondtmpreg = (uint32_t)((hrtc->Instance->ALRMBSSR) & RTC_ALRMBSSR_SS);
 2691              		.loc 1 1274 5 is_stmt 1 view .LVU1014
1274:./Libraries/STM32F4xx_HAL_Driver/Src/stm32f4xx_hal_rtc.c ****     subsecondtmpreg = (uint32_t)((hrtc->Instance->ALRMBSSR) & RTC_ALRMBSSR_SS);
 2692              		.loc 1 1274 29 is_stmt 0 view .LVU1015
 2693 0010 0168     		ldr	r1, [r0]
 2694              	.LVL169:
1274:./Libraries/STM32F4xx_HAL_Driver/Src/stm32f4xx_hal_rtc.c ****     subsecondtmpreg = (uint32_t)((hrtc->Instance->ALRMBSSR) & RTC_ALRMBSSR_SS);
 2695              		.loc 1 1274 12 view .LVU1016
 2696 0012 0A6A     		ldr	r2, [r1, #32]
 2697              	.LVL170:
1275:./Libraries/STM32F4xx_HAL_Driver/Src/stm32f4xx_hal_rtc.c ****   }
ARM GAS  /tmp/ccdJbK3i.s 			page 90


 2698              		.loc 1 1275 5 is_stmt 1 view .LVU1017
1275:./Libraries/STM32F4xx_HAL_Driver/Src/stm32f4xx_hal_rtc.c ****   }
 2699              		.loc 1 1275 49 is_stmt 0 view .LVU1018
 2700 0014 896C     		ldr	r1, [r1, #72]
1275:./Libraries/STM32F4xx_HAL_Driver/Src/stm32f4xx_hal_rtc.c ****   }
 2701              		.loc 1 1275 21 view .LVU1019
 2702 0016 C1F30E01 		ubfx	r1, r1, #0, #15
 2703              	.LVL171:
 2704              	.L140:
1279:./Libraries/STM32F4xx_HAL_Driver/Src/stm32f4xx_hal_rtc.c ****   sAlarm->AlarmTime.Minutes = (uint32_t)((tmpreg & (RTC_ALRMAR_MNT | RTC_ALRMAR_MNU)) >> 8U);
 2705              		.loc 1 1279 3 is_stmt 1 view .LVU1020
1279:./Libraries/STM32F4xx_HAL_Driver/Src/stm32f4xx_hal_rtc.c ****   sAlarm->AlarmTime.Minutes = (uint32_t)((tmpreg & (RTC_ALRMAR_MNT | RTC_ALRMAR_MNU)) >> 8U);
 2706              		.loc 1 1279 29 is_stmt 0 view .LVU1021
 2707 001a C2F3074C 		ubfx	ip, r2, #16, #8
 2708 001e C2F30540 		ubfx	r0, r2, #16, #6
 2709              	.LVL172:
1279:./Libraries/STM32F4xx_HAL_Driver/Src/stm32f4xx_hal_rtc.c ****   sAlarm->AlarmTime.Minutes = (uint32_t)((tmpreg & (RTC_ALRMAR_MNT | RTC_ALRMAR_MNU)) >> 8U);
 2710              		.loc 1 1279 27 view .LVU1022
 2711 0022 2070     		strb	r0, [r4]
1280:./Libraries/STM32F4xx_HAL_Driver/Src/stm32f4xx_hal_rtc.c ****   sAlarm->AlarmTime.Seconds = (uint32_t)(tmpreg & (RTC_ALRMAR_ST | RTC_ALRMAR_SU));
 2712              		.loc 1 1280 3 is_stmt 1 view .LVU1023
1280:./Libraries/STM32F4xx_HAL_Driver/Src/stm32f4xx_hal_rtc.c ****   sAlarm->AlarmTime.Seconds = (uint32_t)(tmpreg & (RTC_ALRMAR_ST | RTC_ALRMAR_SU));
 2713              		.loc 1 1280 31 is_stmt 0 view .LVU1024
 2714 0024 C2F30626 		ubfx	r6, r2, #8, #7
1280:./Libraries/STM32F4xx_HAL_Driver/Src/stm32f4xx_hal_rtc.c ****   sAlarm->AlarmTime.Seconds = (uint32_t)(tmpreg & (RTC_ALRMAR_ST | RTC_ALRMAR_SU));
 2715              		.loc 1 1280 29 view .LVU1025
 2716 0028 6670     		strb	r6, [r4, #1]
1281:./Libraries/STM32F4xx_HAL_Driver/Src/stm32f4xx_hal_rtc.c ****   sAlarm->AlarmTime.TimeFormat = (uint32_t)((tmpreg & RTC_ALRMAR_PM) >> 16U);
 2717              		.loc 1 1281 3 is_stmt 1 view .LVU1026
1281:./Libraries/STM32F4xx_HAL_Driver/Src/stm32f4xx_hal_rtc.c ****   sAlarm->AlarmTime.TimeFormat = (uint32_t)((tmpreg & RTC_ALRMAR_PM) >> 16U);
 2718              		.loc 1 1281 31 is_stmt 0 view .LVU1027
 2719 002a 02F07F05 		and	r5, r2, #127
1281:./Libraries/STM32F4xx_HAL_Driver/Src/stm32f4xx_hal_rtc.c ****   sAlarm->AlarmTime.TimeFormat = (uint32_t)((tmpreg & RTC_ALRMAR_PM) >> 16U);
 2720              		.loc 1 1281 29 view .LVU1028
 2721 002e A570     		strb	r5, [r4, #2]
1282:./Libraries/STM32F4xx_HAL_Driver/Src/stm32f4xx_hal_rtc.c ****   sAlarm->AlarmTime.SubSeconds = (uint32_t) subsecondtmpreg;
 2722              		.loc 1 1282 3 is_stmt 1 view .LVU1029
1282:./Libraries/STM32F4xx_HAL_Driver/Src/stm32f4xx_hal_rtc.c ****   sAlarm->AlarmTime.SubSeconds = (uint32_t) subsecondtmpreg;
 2723              		.loc 1 1282 34 is_stmt 0 view .LVU1030
 2724 0030 0CF0400C 		and	ip, ip, #64
1282:./Libraries/STM32F4xx_HAL_Driver/Src/stm32f4xx_hal_rtc.c ****   sAlarm->AlarmTime.SubSeconds = (uint32_t) subsecondtmpreg;
 2725              		.loc 1 1282 32 view .LVU1031
 2726 0034 84F803C0 		strb	ip, [r4, #3]
1283:./Libraries/STM32F4xx_HAL_Driver/Src/stm32f4xx_hal_rtc.c ****   sAlarm->AlarmDateWeekDay = (uint32_t)((tmpreg & (RTC_ALRMAR_DT | RTC_ALRMAR_DU)) >> 24U);
 2727              		.loc 1 1283 3 is_stmt 1 view .LVU1032
1283:./Libraries/STM32F4xx_HAL_Driver/Src/stm32f4xx_hal_rtc.c ****   sAlarm->AlarmDateWeekDay = (uint32_t)((tmpreg & (RTC_ALRMAR_DT | RTC_ALRMAR_DU)) >> 24U);
 2728              		.loc 1 1283 32 is_stmt 0 view .LVU1033
 2729 0038 6160     		str	r1, [r4, #4]
1284:./Libraries/STM32F4xx_HAL_Driver/Src/stm32f4xx_hal_rtc.c ****   sAlarm->AlarmDateWeekDaySel = (uint32_t)(tmpreg & RTC_ALRMAR_WDSEL);
 2730              		.loc 1 1284 3 is_stmt 1 view .LVU1034
1284:./Libraries/STM32F4xx_HAL_Driver/Src/stm32f4xx_hal_rtc.c ****   sAlarm->AlarmDateWeekDaySel = (uint32_t)(tmpreg & RTC_ALRMAR_WDSEL);
 2731              		.loc 1 1284 30 is_stmt 0 view .LVU1035
 2732 003a C2F30567 		ubfx	r7, r2, #24, #6
1284:./Libraries/STM32F4xx_HAL_Driver/Src/stm32f4xx_hal_rtc.c ****   sAlarm->AlarmDateWeekDaySel = (uint32_t)(tmpreg & RTC_ALRMAR_WDSEL);
 2733              		.loc 1 1284 28 view .LVU1036
 2734 003e 84F82070 		strb	r7, [r4, #32]
1285:./Libraries/STM32F4xx_HAL_Driver/Src/stm32f4xx_hal_rtc.c ****   sAlarm->AlarmMask = (uint32_t)(tmpreg & RTC_ALARMMASK_ALL);
ARM GAS  /tmp/ccdJbK3i.s 			page 91


 2735              		.loc 1 1285 3 is_stmt 1 view .LVU1037
1285:./Libraries/STM32F4xx_HAL_Driver/Src/stm32f4xx_hal_rtc.c ****   sAlarm->AlarmMask = (uint32_t)(tmpreg & RTC_ALARMMASK_ALL);
 2736              		.loc 1 1285 33 is_stmt 0 view .LVU1038
 2737 0042 02F08041 		and	r1, r2, #1073741824
 2738              	.LVL173:
1285:./Libraries/STM32F4xx_HAL_Driver/Src/stm32f4xx_hal_rtc.c ****   sAlarm->AlarmMask = (uint32_t)(tmpreg & RTC_ALARMMASK_ALL);
 2739              		.loc 1 1285 31 view .LVU1039
 2740 0046 E161     		str	r1, [r4, #28]
1286:./Libraries/STM32F4xx_HAL_Driver/Src/stm32f4xx_hal_rtc.c ****     
 2741              		.loc 1 1286 3 is_stmt 1 view .LVU1040
1286:./Libraries/STM32F4xx_HAL_Driver/Src/stm32f4xx_hal_rtc.c ****     
 2742              		.loc 1 1286 23 is_stmt 0 view .LVU1041
 2743 0048 02F08032 		and	r2, r2, #-2139062144
 2744              	.LVL174:
1286:./Libraries/STM32F4xx_HAL_Driver/Src/stm32f4xx_hal_rtc.c ****     
 2745              		.loc 1 1286 21 view .LVU1042
 2746 004c 6261     		str	r2, [r4, #20]
1288:./Libraries/STM32F4xx_HAL_Driver/Src/stm32f4xx_hal_rtc.c ****   {
 2747              		.loc 1 1288 3 is_stmt 1 view .LVU1043
1288:./Libraries/STM32F4xx_HAL_Driver/Src/stm32f4xx_hal_rtc.c ****   {
 2748              		.loc 1 1288 5 is_stmt 0 view .LVU1044
 2749 004e 7BB9     		cbnz	r3, .L141
1290:./Libraries/STM32F4xx_HAL_Driver/Src/stm32f4xx_hal_rtc.c ****     sAlarm->AlarmTime.Minutes = RTC_Bcd2ToByte(sAlarm->AlarmTime.Minutes);
 2750              		.loc 1 1290 5 is_stmt 1 view .LVU1045
1290:./Libraries/STM32F4xx_HAL_Driver/Src/stm32f4xx_hal_rtc.c ****     sAlarm->AlarmTime.Minutes = RTC_Bcd2ToByte(sAlarm->AlarmTime.Minutes);
 2751              		.loc 1 1290 31 is_stmt 0 view .LVU1046
 2752 0050 FFF7FEFF 		bl	RTC_Bcd2ToByte
 2753              	.LVL175:
1290:./Libraries/STM32F4xx_HAL_Driver/Src/stm32f4xx_hal_rtc.c ****     sAlarm->AlarmTime.Minutes = RTC_Bcd2ToByte(sAlarm->AlarmTime.Minutes);
 2754              		.loc 1 1290 29 view .LVU1047
 2755 0054 2070     		strb	r0, [r4]
1291:./Libraries/STM32F4xx_HAL_Driver/Src/stm32f4xx_hal_rtc.c ****     sAlarm->AlarmTime.Seconds = RTC_Bcd2ToByte(sAlarm->AlarmTime.Seconds);
 2756              		.loc 1 1291 5 is_stmt 1 view .LVU1048
1291:./Libraries/STM32F4xx_HAL_Driver/Src/stm32f4xx_hal_rtc.c ****     sAlarm->AlarmTime.Seconds = RTC_Bcd2ToByte(sAlarm->AlarmTime.Seconds);
 2757              		.loc 1 1291 33 is_stmt 0 view .LVU1049
 2758 0056 3046     		mov	r0, r6
 2759 0058 FFF7FEFF 		bl	RTC_Bcd2ToByte
 2760              	.LVL176:
1291:./Libraries/STM32F4xx_HAL_Driver/Src/stm32f4xx_hal_rtc.c ****     sAlarm->AlarmTime.Seconds = RTC_Bcd2ToByte(sAlarm->AlarmTime.Seconds);
 2761              		.loc 1 1291 31 view .LVU1050
 2762 005c 6070     		strb	r0, [r4, #1]
1292:./Libraries/STM32F4xx_HAL_Driver/Src/stm32f4xx_hal_rtc.c ****     sAlarm->AlarmDateWeekDay = RTC_Bcd2ToByte(sAlarm->AlarmDateWeekDay);
 2763              		.loc 1 1292 5 is_stmt 1 view .LVU1051
1292:./Libraries/STM32F4xx_HAL_Driver/Src/stm32f4xx_hal_rtc.c ****     sAlarm->AlarmDateWeekDay = RTC_Bcd2ToByte(sAlarm->AlarmDateWeekDay);
 2764              		.loc 1 1292 33 is_stmt 0 view .LVU1052
 2765 005e 2846     		mov	r0, r5
 2766 0060 FFF7FEFF 		bl	RTC_Bcd2ToByte
 2767              	.LVL177:
1292:./Libraries/STM32F4xx_HAL_Driver/Src/stm32f4xx_hal_rtc.c ****     sAlarm->AlarmDateWeekDay = RTC_Bcd2ToByte(sAlarm->AlarmDateWeekDay);
 2768              		.loc 1 1292 31 view .LVU1053
 2769 0064 A070     		strb	r0, [r4, #2]
1293:./Libraries/STM32F4xx_HAL_Driver/Src/stm32f4xx_hal_rtc.c ****   }  
 2770              		.loc 1 1293 5 is_stmt 1 view .LVU1054
1293:./Libraries/STM32F4xx_HAL_Driver/Src/stm32f4xx_hal_rtc.c ****   }  
 2771              		.loc 1 1293 32 is_stmt 0 view .LVU1055
 2772 0066 3846     		mov	r0, r7
 2773 0068 FFF7FEFF 		bl	RTC_Bcd2ToByte
ARM GAS  /tmp/ccdJbK3i.s 			page 92


 2774              	.LVL178:
1293:./Libraries/STM32F4xx_HAL_Driver/Src/stm32f4xx_hal_rtc.c ****   }  
 2775              		.loc 1 1293 30 view .LVU1056
 2776 006c 84F82000 		strb	r0, [r4, #32]
 2777              	.L141:
1296:./Libraries/STM32F4xx_HAL_Driver/Src/stm32f4xx_hal_rtc.c **** }
 2778              		.loc 1 1296 3 is_stmt 1 view .LVU1057
1297:./Libraries/STM32F4xx_HAL_Driver/Src/stm32f4xx_hal_rtc.c **** 
 2779              		.loc 1 1297 1 is_stmt 0 view .LVU1058
 2780 0070 0020     		movs	r0, #0
 2781 0072 F8BD     		pop	{r3, r4, r5, r6, r7, pc}
 2782              	.LVL179:
 2783              	.L143:
1265:./Libraries/STM32F4xx_HAL_Driver/Src/stm32f4xx_hal_rtc.c ****     
 2784              		.loc 1 1265 5 is_stmt 1 view .LVU1059
1265:./Libraries/STM32F4xx_HAL_Driver/Src/stm32f4xx_hal_rtc.c ****     
 2785              		.loc 1 1265 19 is_stmt 0 view .LVU1060
 2786 0074 4A62     		str	r2, [r1, #36]
1267:./Libraries/STM32F4xx_HAL_Driver/Src/stm32f4xx_hal_rtc.c ****     subsecondtmpreg = (uint32_t)((hrtc->Instance->ALRMASSR ) & RTC_ALRMASSR_SS);
 2787              		.loc 1 1267 5 is_stmt 1 view .LVU1061
1267:./Libraries/STM32F4xx_HAL_Driver/Src/stm32f4xx_hal_rtc.c ****     subsecondtmpreg = (uint32_t)((hrtc->Instance->ALRMASSR ) & RTC_ALRMASSR_SS);
 2788              		.loc 1 1267 29 is_stmt 0 view .LVU1062
 2789 0076 0168     		ldr	r1, [r0]
 2790              	.LVL180:
1267:./Libraries/STM32F4xx_HAL_Driver/Src/stm32f4xx_hal_rtc.c ****     subsecondtmpreg = (uint32_t)((hrtc->Instance->ALRMASSR ) & RTC_ALRMASSR_SS);
 2791              		.loc 1 1267 12 view .LVU1063
 2792 0078 CA69     		ldr	r2, [r1, #28]
 2793              	.LVL181:
1268:./Libraries/STM32F4xx_HAL_Driver/Src/stm32f4xx_hal_rtc.c ****   }
 2794              		.loc 1 1268 5 is_stmt 1 view .LVU1064
1268:./Libraries/STM32F4xx_HAL_Driver/Src/stm32f4xx_hal_rtc.c ****   }
 2795              		.loc 1 1268 49 is_stmt 0 view .LVU1065
 2796 007a 496C     		ldr	r1, [r1, #68]
1268:./Libraries/STM32F4xx_HAL_Driver/Src/stm32f4xx_hal_rtc.c ****   }
 2797              		.loc 1 1268 21 view .LVU1066
 2798 007c C1F30E01 		ubfx	r1, r1, #0, #15
 2799              	.LVL182:
1268:./Libraries/STM32F4xx_HAL_Driver/Src/stm32f4xx_hal_rtc.c ****   }
 2800              		.loc 1 1268 21 view .LVU1067
 2801 0080 CBE7     		b	.L140
 2802              		.cfi_endproc
 2803              	.LFE137:
 2805              		.text
 2806              	.Letext0:
 2807              		.file 2 "/home/hao/Documents/gcc-arm-none-eabi/arm-none-eabi/include/machine/_default_types.h"
 2808              		.file 3 "/home/hao/Documents/gcc-arm-none-eabi/arm-none-eabi/include/sys/_stdint.h"
 2809              		.file 4 "./Libraries/CMSIS/Device/ST/STM32F4xx/Include/stm32f429xx.h"
 2810              		.file 5 "./Libraries/CMSIS/Device/ST/STM32F4xx/Include/stm32f4xx.h"
 2811              		.file 6 "./Libraries/STM32F4xx_HAL_Driver/Inc/stm32f4xx_hal_def.h"
 2812              		.file 7 "./Libraries/STM32F4xx_HAL_Driver/Inc/stm32f4xx_hal_rtc.h"
 2813              		.file 8 "./Libraries/CMSIS/Device/ST/STM32F4xx/Include/system_stm32f4xx.h"
 2814              		.file 9 "./Libraries/STM32F4xx_HAL_Driver/Inc/stm32f4xx_hal.h"
 2815              		.file 10 "./Libraries/STM32F4xx_HAL_Driver/Inc/stm32f4xx_hal_rtc_ex.h"
ARM GAS  /tmp/ccdJbK3i.s 			page 93


DEFINED SYMBOLS
                            *ABS*:0000000000000000 stm32f4xx_hal_rtc.c
     /tmp/ccdJbK3i.s:18     .text.HAL_RTC_MspInit:0000000000000000 $t
     /tmp/ccdJbK3i.s:26     .text.HAL_RTC_MspInit:0000000000000000 HAL_RTC_MspInit
     /tmp/ccdJbK3i.s:42     .text.HAL_RTC_MspDeInit:0000000000000000 $t
     /tmp/ccdJbK3i.s:49     .text.HAL_RTC_MspDeInit:0000000000000000 HAL_RTC_MspDeInit
     /tmp/ccdJbK3i.s:64     .text.HAL_RTC_DeactivateAlarm:0000000000000000 $t
     /tmp/ccdJbK3i.s:71     .text.HAL_RTC_DeactivateAlarm:0000000000000000 HAL_RTC_DeactivateAlarm
     /tmp/ccdJbK3i.s:257    .text.HAL_RTC_AlarmAEventCallback:0000000000000000 $t
     /tmp/ccdJbK3i.s:264    .text.HAL_RTC_AlarmAEventCallback:0000000000000000 HAL_RTC_AlarmAEventCallback
     /tmp/ccdJbK3i.s:279    .text.HAL_RTC_AlarmIRQHandler:0000000000000000 $t
     /tmp/ccdJbK3i.s:286    .text.HAL_RTC_AlarmIRQHandler:0000000000000000 HAL_RTC_AlarmIRQHandler
     /tmp/ccdJbK3i.s:366    .text.HAL_RTC_AlarmIRQHandler:000000000000005c $d
     /tmp/ccdJbK3i.s:371    .text.HAL_RTC_PollForAlarmAEvent:0000000000000000 $t
     /tmp/ccdJbK3i.s:378    .text.HAL_RTC_PollForAlarmAEvent:0000000000000000 HAL_RTC_PollForAlarmAEvent
     /tmp/ccdJbK3i.s:457    .text.HAL_RTC_WaitForSynchro:0000000000000000 $t
     /tmp/ccdJbK3i.s:464    .text.HAL_RTC_WaitForSynchro:0000000000000000 HAL_RTC_WaitForSynchro
     /tmp/ccdJbK3i.s:529    .text.HAL_RTC_GetState:0000000000000000 $t
     /tmp/ccdJbK3i.s:536    .text.HAL_RTC_GetState:0000000000000000 HAL_RTC_GetState
     /tmp/ccdJbK3i.s:554    .text.RTC_EnterInitMode:0000000000000000 $t
     /tmp/ccdJbK3i.s:561    .text.RTC_EnterInitMode:0000000000000000 RTC_EnterInitMode
     /tmp/ccdJbK3i.s:637    .text.HAL_RTC_Init:0000000000000000 $t
     /tmp/ccdJbK3i.s:644    .text.HAL_RTC_Init:0000000000000000 HAL_RTC_Init
     /tmp/ccdJbK3i.s:850    .text.HAL_RTC_DeInit:0000000000000000 $t
     /tmp/ccdJbK3i.s:857    .text.HAL_RTC_DeInit:0000000000000000 HAL_RTC_DeInit
     /tmp/ccdJbK3i.s:1092   .text.HAL_RTC_DeInit:00000000000000d8 $d
     /tmp/ccdJbK3i.s:1097   .text.RTC_ByteToBcd2:0000000000000000 $t
     /tmp/ccdJbK3i.s:1104   .text.RTC_ByteToBcd2:0000000000000000 RTC_ByteToBcd2
     /tmp/ccdJbK3i.s:1150   .text.HAL_RTC_SetDate:0000000000000000 $t
     /tmp/ccdJbK3i.s:1157   .text.HAL_RTC_SetDate:0000000000000000 HAL_RTC_SetDate
     /tmp/ccdJbK3i.s:1393   .text.HAL_RTC_SetTime:0000000000000000 $t
     /tmp/ccdJbK3i.s:1400   .text.HAL_RTC_SetTime:0000000000000000 HAL_RTC_SetTime
     /tmp/ccdJbK3i.s:1670   .text.HAL_RTC_SetAlarm:0000000000000000 $t
     /tmp/ccdJbK3i.s:1677   .text.HAL_RTC_SetAlarm:0000000000000000 HAL_RTC_SetAlarm
     /tmp/ccdJbK3i.s:2026   .text.HAL_RTC_SetAlarm_IT:0000000000000000 $t
     /tmp/ccdJbK3i.s:2033   .text.HAL_RTC_SetAlarm_IT:0000000000000000 HAL_RTC_SetAlarm_IT
     /tmp/ccdJbK3i.s:2417   .text.HAL_RTC_SetAlarm_IT:0000000000000194 $d
     /tmp/ccdJbK3i.s:2424   .text.RTC_Bcd2ToByte:0000000000000000 $t
     /tmp/ccdJbK3i.s:2431   .text.RTC_Bcd2ToByte:0000000000000000 RTC_Bcd2ToByte
     /tmp/ccdJbK3i.s:2459   .text.HAL_RTC_GetTime:0000000000000000 $t
     /tmp/ccdJbK3i.s:2466   .text.HAL_RTC_GetTime:0000000000000000 HAL_RTC_GetTime
     /tmp/ccdJbK3i.s:2565   .text.HAL_RTC_GetDate:0000000000000000 $t
     /tmp/ccdJbK3i.s:2572   .text.HAL_RTC_GetDate:0000000000000000 HAL_RTC_GetDate
     /tmp/ccdJbK3i.s:2652   .text.HAL_RTC_GetAlarm:0000000000000000 $t
     /tmp/ccdJbK3i.s:2659   .text.HAL_RTC_GetAlarm:0000000000000000 HAL_RTC_GetAlarm

UNDEFINED SYMBOLS
HAL_GetTick
HAL_RTCEx_AlarmBEventCallback
SystemCoreClock
