ARM GAS  /tmp/cczcFqK2.s 			page 1


   1              		.cpu cortex-m4
   2              		.eabi_attribute 27, 1
   3              		.eabi_attribute 28, 1
   4              		.eabi_attribute 20, 1
   5              		.eabi_attribute 21, 1
   6              		.eabi_attribute 23, 3
   7              		.eabi_attribute 24, 1
   8              		.eabi_attribute 25, 1
   9              		.eabi_attribute 26, 1
  10              		.eabi_attribute 30, 1
  11              		.eabi_attribute 34, 1
  12              		.eabi_attribute 18, 4
  13              		.file	"stm32f4xx_ll_fmc.c"
  14              		.text
  15              	.Ltext0:
  16              		.cfi_sections	.debug_frame
  17              		.section	.text.FMC_NORSRAM_Init,"ax",%progbits
  18              		.align	1
  19              		.global	FMC_NORSRAM_Init
  20              		.arch armv7e-m
  21              		.syntax unified
  22              		.thumb
  23              		.thumb_func
  24              		.fpu fpv4-sp-d16
  26              	FMC_NORSRAM_Init:
  27              	.LVL0:
  28              	.LFB126:
  29              		.file 1 "./Libraries/STM32F4xx_HAL_Driver/Src/stm32f4xx_ll_fmc.c"
   1:./Libraries/STM32F4xx_HAL_Driver/Src/stm32f4xx_ll_fmc.c **** /**
   2:./Libraries/STM32F4xx_HAL_Driver/Src/stm32f4xx_ll_fmc.c ****   ******************************************************************************
   3:./Libraries/STM32F4xx_HAL_Driver/Src/stm32f4xx_ll_fmc.c ****   * @file    stm32f4xx_ll_fmc.c
   4:./Libraries/STM32F4xx_HAL_Driver/Src/stm32f4xx_ll_fmc.c ****   * @author  MCD Application Team
   5:./Libraries/STM32F4xx_HAL_Driver/Src/stm32f4xx_ll_fmc.c ****   * @brief   FMC Low Layer HAL module driver.
   6:./Libraries/STM32F4xx_HAL_Driver/Src/stm32f4xx_ll_fmc.c ****   *    
   7:./Libraries/STM32F4xx_HAL_Driver/Src/stm32f4xx_ll_fmc.c ****   *          This file provides firmware functions to manage the following 
   8:./Libraries/STM32F4xx_HAL_Driver/Src/stm32f4xx_ll_fmc.c ****   *          functionalities of the Flexible Memory Controller (FMC) peripheral memories:
   9:./Libraries/STM32F4xx_HAL_Driver/Src/stm32f4xx_ll_fmc.c ****   *           + Initialization/de-initialization functions
  10:./Libraries/STM32F4xx_HAL_Driver/Src/stm32f4xx_ll_fmc.c ****   *           + Peripheral Control functions 
  11:./Libraries/STM32F4xx_HAL_Driver/Src/stm32f4xx_ll_fmc.c ****   *           + Peripheral State functions
  12:./Libraries/STM32F4xx_HAL_Driver/Src/stm32f4xx_ll_fmc.c ****   *         
  13:./Libraries/STM32F4xx_HAL_Driver/Src/stm32f4xx_ll_fmc.c ****   @verbatim
  14:./Libraries/STM32F4xx_HAL_Driver/Src/stm32f4xx_ll_fmc.c ****   ==============================================================================
  15:./Libraries/STM32F4xx_HAL_Driver/Src/stm32f4xx_ll_fmc.c ****                         ##### FMC peripheral features #####
  16:./Libraries/STM32F4xx_HAL_Driver/Src/stm32f4xx_ll_fmc.c ****   ==============================================================================
  17:./Libraries/STM32F4xx_HAL_Driver/Src/stm32f4xx_ll_fmc.c ****   [..] The Flexible memory controller (FMC) includes three memory controllers:
  18:./Libraries/STM32F4xx_HAL_Driver/Src/stm32f4xx_ll_fmc.c ****        (+) The NOR/PSRAM memory controller
  19:./Libraries/STM32F4xx_HAL_Driver/Src/stm32f4xx_ll_fmc.c ****        (+) The NAND/PC Card memory controller
  20:./Libraries/STM32F4xx_HAL_Driver/Src/stm32f4xx_ll_fmc.c ****        (+) The Synchronous DRAM (SDRAM) controller 
  21:./Libraries/STM32F4xx_HAL_Driver/Src/stm32f4xx_ll_fmc.c ****        
  22:./Libraries/STM32F4xx_HAL_Driver/Src/stm32f4xx_ll_fmc.c ****   [..] The FMC functional block makes the interface with synchronous and asynchronous static
  23:./Libraries/STM32F4xx_HAL_Driver/Src/stm32f4xx_ll_fmc.c ****        memories, SDRAM memories, and 16-bit PC memory cards. Its main purposes are:
  24:./Libraries/STM32F4xx_HAL_Driver/Src/stm32f4xx_ll_fmc.c ****        (+) to translate AHB transactions into the appropriate external device protocol
  25:./Libraries/STM32F4xx_HAL_Driver/Src/stm32f4xx_ll_fmc.c ****        (+) to meet the access time requirements of the external memory devices
  26:./Libraries/STM32F4xx_HAL_Driver/Src/stm32f4xx_ll_fmc.c ****    
  27:./Libraries/STM32F4xx_HAL_Driver/Src/stm32f4xx_ll_fmc.c ****   [..] All external memories share the addresses, data and control signals with the controller.
  28:./Libraries/STM32F4xx_HAL_Driver/Src/stm32f4xx_ll_fmc.c ****        Each external device is accessed by means of a unique Chip Select. The FMC performs
  29:./Libraries/STM32F4xx_HAL_Driver/Src/stm32f4xx_ll_fmc.c ****        only one access at a time to an external device.
ARM GAS  /tmp/cczcFqK2.s 			page 2


  30:./Libraries/STM32F4xx_HAL_Driver/Src/stm32f4xx_ll_fmc.c ****        The main features of the FMC controller are the following:
  31:./Libraries/STM32F4xx_HAL_Driver/Src/stm32f4xx_ll_fmc.c ****         (+) Interface with static-memory mapped devices including:
  32:./Libraries/STM32F4xx_HAL_Driver/Src/stm32f4xx_ll_fmc.c ****            (++) Static random access memory (SRAM)
  33:./Libraries/STM32F4xx_HAL_Driver/Src/stm32f4xx_ll_fmc.c ****            (++) Read-only memory (ROM)
  34:./Libraries/STM32F4xx_HAL_Driver/Src/stm32f4xx_ll_fmc.c ****            (++) NOR Flash memory/OneNAND Flash memory
  35:./Libraries/STM32F4xx_HAL_Driver/Src/stm32f4xx_ll_fmc.c ****            (++) PSRAM (4 memory banks)
  36:./Libraries/STM32F4xx_HAL_Driver/Src/stm32f4xx_ll_fmc.c ****            (++) 16-bit PC Card compatible devices
  37:./Libraries/STM32F4xx_HAL_Driver/Src/stm32f4xx_ll_fmc.c ****            (++) Two banks of NAND Flash memory with ECC hardware to check up to 8 Kbytes of
  38:./Libraries/STM32F4xx_HAL_Driver/Src/stm32f4xx_ll_fmc.c ****                 data
  39:./Libraries/STM32F4xx_HAL_Driver/Src/stm32f4xx_ll_fmc.c ****         (+) Interface with synchronous DRAM (SDRAM) memories
  40:./Libraries/STM32F4xx_HAL_Driver/Src/stm32f4xx_ll_fmc.c ****         (+) Independent Chip Select control for each memory bank
  41:./Libraries/STM32F4xx_HAL_Driver/Src/stm32f4xx_ll_fmc.c ****         (+) Independent configuration for each memory bank
  42:./Libraries/STM32F4xx_HAL_Driver/Src/stm32f4xx_ll_fmc.c ****                     
  43:./Libraries/STM32F4xx_HAL_Driver/Src/stm32f4xx_ll_fmc.c ****   @endverbatim
  44:./Libraries/STM32F4xx_HAL_Driver/Src/stm32f4xx_ll_fmc.c ****   ******************************************************************************
  45:./Libraries/STM32F4xx_HAL_Driver/Src/stm32f4xx_ll_fmc.c ****   * @attention
  46:./Libraries/STM32F4xx_HAL_Driver/Src/stm32f4xx_ll_fmc.c ****   *
  47:./Libraries/STM32F4xx_HAL_Driver/Src/stm32f4xx_ll_fmc.c ****   * <h2><center>&copy; COPYRIGHT(c) 2017 STMicroelectronics</center></h2>
  48:./Libraries/STM32F4xx_HAL_Driver/Src/stm32f4xx_ll_fmc.c ****   *
  49:./Libraries/STM32F4xx_HAL_Driver/Src/stm32f4xx_ll_fmc.c ****   * Redistribution and use in source and binary forms, with or without modification,
  50:./Libraries/STM32F4xx_HAL_Driver/Src/stm32f4xx_ll_fmc.c ****   * are permitted provided that the following conditions are met:
  51:./Libraries/STM32F4xx_HAL_Driver/Src/stm32f4xx_ll_fmc.c ****   *   1. Redistributions of source code must retain the above copyright notice,
  52:./Libraries/STM32F4xx_HAL_Driver/Src/stm32f4xx_ll_fmc.c ****   *      this list of conditions and the following disclaimer.
  53:./Libraries/STM32F4xx_HAL_Driver/Src/stm32f4xx_ll_fmc.c ****   *   2. Redistributions in binary form must reproduce the above copyright notice,
  54:./Libraries/STM32F4xx_HAL_Driver/Src/stm32f4xx_ll_fmc.c ****   *      this list of conditions and the following disclaimer in the documentation
  55:./Libraries/STM32F4xx_HAL_Driver/Src/stm32f4xx_ll_fmc.c ****   *      and/or other materials provided with the distribution.
  56:./Libraries/STM32F4xx_HAL_Driver/Src/stm32f4xx_ll_fmc.c ****   *   3. Neither the name of STMicroelectronics nor the names of its contributors
  57:./Libraries/STM32F4xx_HAL_Driver/Src/stm32f4xx_ll_fmc.c ****   *      may be used to endorse or promote products derived from this software
  58:./Libraries/STM32F4xx_HAL_Driver/Src/stm32f4xx_ll_fmc.c ****   *      without specific prior written permission.
  59:./Libraries/STM32F4xx_HAL_Driver/Src/stm32f4xx_ll_fmc.c ****   *
  60:./Libraries/STM32F4xx_HAL_Driver/Src/stm32f4xx_ll_fmc.c ****   * THIS SOFTWARE IS PROVIDED BY THE COPYRIGHT HOLDERS AND CONTRIBUTORS "AS IS"
  61:./Libraries/STM32F4xx_HAL_Driver/Src/stm32f4xx_ll_fmc.c ****   * AND ANY EXPRESS OR IMPLIED WARRANTIES, INCLUDING, BUT NOT LIMITED TO, THE
  62:./Libraries/STM32F4xx_HAL_Driver/Src/stm32f4xx_ll_fmc.c ****   * IMPLIED WARRANTIES OF MERCHANTABILITY AND FITNESS FOR A PARTICULAR PURPOSE ARE
  63:./Libraries/STM32F4xx_HAL_Driver/Src/stm32f4xx_ll_fmc.c ****   * DISCLAIMED. IN NO EVENT SHALL THE COPYRIGHT HOLDER OR CONTRIBUTORS BE LIABLE
  64:./Libraries/STM32F4xx_HAL_Driver/Src/stm32f4xx_ll_fmc.c ****   * FOR ANY DIRECT, INDIRECT, INCIDENTAL, SPECIAL, EXEMPLARY, OR CONSEQUENTIAL
  65:./Libraries/STM32F4xx_HAL_Driver/Src/stm32f4xx_ll_fmc.c ****   * DAMAGES (INCLUDING, BUT NOT LIMITED TO, PROCUREMENT OF SUBSTITUTE GOODS OR
  66:./Libraries/STM32F4xx_HAL_Driver/Src/stm32f4xx_ll_fmc.c ****   * SERVICES; LOSS OF USE, DATA, OR PROFITS; OR BUSINESS INTERRUPTION) HOWEVER
  67:./Libraries/STM32F4xx_HAL_Driver/Src/stm32f4xx_ll_fmc.c ****   * CAUSED AND ON ANY THEORY OF LIABILITY, WHETHER IN CONTRACT, STRICT LIABILITY,
  68:./Libraries/STM32F4xx_HAL_Driver/Src/stm32f4xx_ll_fmc.c ****   * OR TORT (INCLUDING NEGLIGENCE OR OTHERWISE) ARISING IN ANY WAY OUT OF THE USE
  69:./Libraries/STM32F4xx_HAL_Driver/Src/stm32f4xx_ll_fmc.c ****   * OF THIS SOFTWARE, EVEN IF ADVISED OF THE POSSIBILITY OF SUCH DAMAGE.
  70:./Libraries/STM32F4xx_HAL_Driver/Src/stm32f4xx_ll_fmc.c ****   *
  71:./Libraries/STM32F4xx_HAL_Driver/Src/stm32f4xx_ll_fmc.c ****   ******************************************************************************
  72:./Libraries/STM32F4xx_HAL_Driver/Src/stm32f4xx_ll_fmc.c ****   */ 
  73:./Libraries/STM32F4xx_HAL_Driver/Src/stm32f4xx_ll_fmc.c **** 
  74:./Libraries/STM32F4xx_HAL_Driver/Src/stm32f4xx_ll_fmc.c **** /* Includes ------------------------------------------------------------------*/
  75:./Libraries/STM32F4xx_HAL_Driver/Src/stm32f4xx_ll_fmc.c **** #include "stm32f4xx_hal.h"
  76:./Libraries/STM32F4xx_HAL_Driver/Src/stm32f4xx_ll_fmc.c **** 
  77:./Libraries/STM32F4xx_HAL_Driver/Src/stm32f4xx_ll_fmc.c **** /** @addtogroup STM32F4xx_HAL_Driver
  78:./Libraries/STM32F4xx_HAL_Driver/Src/stm32f4xx_ll_fmc.c ****   * @{
  79:./Libraries/STM32F4xx_HAL_Driver/Src/stm32f4xx_ll_fmc.c ****   */
  80:./Libraries/STM32F4xx_HAL_Driver/Src/stm32f4xx_ll_fmc.c **** 
  81:./Libraries/STM32F4xx_HAL_Driver/Src/stm32f4xx_ll_fmc.c **** /** @defgroup FMC_LL  FMC Low Layer
  82:./Libraries/STM32F4xx_HAL_Driver/Src/stm32f4xx_ll_fmc.c ****   * @brief FMC driver modules
  83:./Libraries/STM32F4xx_HAL_Driver/Src/stm32f4xx_ll_fmc.c ****   * @{
  84:./Libraries/STM32F4xx_HAL_Driver/Src/stm32f4xx_ll_fmc.c ****   */
  85:./Libraries/STM32F4xx_HAL_Driver/Src/stm32f4xx_ll_fmc.c **** 
  86:./Libraries/STM32F4xx_HAL_Driver/Src/stm32f4xx_ll_fmc.c **** #if defined (HAL_SRAM_MODULE_ENABLED) || defined(HAL_NOR_MODULE_ENABLED) || defined(HAL_NAND_MODULE
ARM GAS  /tmp/cczcFqK2.s 			page 3


  87:./Libraries/STM32F4xx_HAL_Driver/Src/stm32f4xx_ll_fmc.c **** 
  88:./Libraries/STM32F4xx_HAL_Driver/Src/stm32f4xx_ll_fmc.c **** #if defined(STM32F427xx) || defined(STM32F437xx) || defined(STM32F429xx) || defined(STM32F439xx) ||
  89:./Libraries/STM32F4xx_HAL_Driver/Src/stm32f4xx_ll_fmc.c **** 
  90:./Libraries/STM32F4xx_HAL_Driver/Src/stm32f4xx_ll_fmc.c **** /* Private typedef -----------------------------------------------------------*/
  91:./Libraries/STM32F4xx_HAL_Driver/Src/stm32f4xx_ll_fmc.c **** /* Private define ------------------------------------------------------------*/
  92:./Libraries/STM32F4xx_HAL_Driver/Src/stm32f4xx_ll_fmc.c **** /* Private macro -------------------------------------------------------------*/
  93:./Libraries/STM32F4xx_HAL_Driver/Src/stm32f4xx_ll_fmc.c **** /* Private variables ---------------------------------------------------------*/
  94:./Libraries/STM32F4xx_HAL_Driver/Src/stm32f4xx_ll_fmc.c **** /* Private function prototypes -----------------------------------------------*/
  95:./Libraries/STM32F4xx_HAL_Driver/Src/stm32f4xx_ll_fmc.c **** /* Private functions ---------------------------------------------------------*/
  96:./Libraries/STM32F4xx_HAL_Driver/Src/stm32f4xx_ll_fmc.c **** /** @addtogroup FMC_LL_Private_Functions
  97:./Libraries/STM32F4xx_HAL_Driver/Src/stm32f4xx_ll_fmc.c ****   * @{
  98:./Libraries/STM32F4xx_HAL_Driver/Src/stm32f4xx_ll_fmc.c ****   */
  99:./Libraries/STM32F4xx_HAL_Driver/Src/stm32f4xx_ll_fmc.c **** 
 100:./Libraries/STM32F4xx_HAL_Driver/Src/stm32f4xx_ll_fmc.c **** /** @addtogroup FMC_LL_NORSRAM
 101:./Libraries/STM32F4xx_HAL_Driver/Src/stm32f4xx_ll_fmc.c ****   * @brief  NORSRAM Controller functions 
 102:./Libraries/STM32F4xx_HAL_Driver/Src/stm32f4xx_ll_fmc.c ****   *
 103:./Libraries/STM32F4xx_HAL_Driver/Src/stm32f4xx_ll_fmc.c ****   @verbatim 
 104:./Libraries/STM32F4xx_HAL_Driver/Src/stm32f4xx_ll_fmc.c ****   ==============================================================================   
 105:./Libraries/STM32F4xx_HAL_Driver/Src/stm32f4xx_ll_fmc.c ****                    ##### How to use NORSRAM device driver #####
 106:./Libraries/STM32F4xx_HAL_Driver/Src/stm32f4xx_ll_fmc.c ****   ==============================================================================
 107:./Libraries/STM32F4xx_HAL_Driver/Src/stm32f4xx_ll_fmc.c ****  
 108:./Libraries/STM32F4xx_HAL_Driver/Src/stm32f4xx_ll_fmc.c ****   [..] 
 109:./Libraries/STM32F4xx_HAL_Driver/Src/stm32f4xx_ll_fmc.c ****     This driver contains a set of APIs to interface with the FMC NORSRAM banks in order
 110:./Libraries/STM32F4xx_HAL_Driver/Src/stm32f4xx_ll_fmc.c ****     to run the NORSRAM external devices.
 111:./Libraries/STM32F4xx_HAL_Driver/Src/stm32f4xx_ll_fmc.c ****       
 112:./Libraries/STM32F4xx_HAL_Driver/Src/stm32f4xx_ll_fmc.c ****     (+) FMC NORSRAM bank reset using the function FMC_NORSRAM_DeInit() 
 113:./Libraries/STM32F4xx_HAL_Driver/Src/stm32f4xx_ll_fmc.c ****     (+) FMC NORSRAM bank control configuration using the function FMC_NORSRAM_Init()
 114:./Libraries/STM32F4xx_HAL_Driver/Src/stm32f4xx_ll_fmc.c ****     (+) FMC NORSRAM bank timing configuration using the function FMC_NORSRAM_Timing_Init()
 115:./Libraries/STM32F4xx_HAL_Driver/Src/stm32f4xx_ll_fmc.c ****     (+) FMC NORSRAM bank extended timing configuration using the function 
 116:./Libraries/STM32F4xx_HAL_Driver/Src/stm32f4xx_ll_fmc.c ****         FMC_NORSRAM_Extended_Timing_Init()
 117:./Libraries/STM32F4xx_HAL_Driver/Src/stm32f4xx_ll_fmc.c ****     (+) FMC NORSRAM bank enable/disable write operation using the functions
 118:./Libraries/STM32F4xx_HAL_Driver/Src/stm32f4xx_ll_fmc.c ****         FMC_NORSRAM_WriteOperation_Enable()/FMC_NORSRAM_WriteOperation_Disable()
 119:./Libraries/STM32F4xx_HAL_Driver/Src/stm32f4xx_ll_fmc.c ****         
 120:./Libraries/STM32F4xx_HAL_Driver/Src/stm32f4xx_ll_fmc.c **** 
 121:./Libraries/STM32F4xx_HAL_Driver/Src/stm32f4xx_ll_fmc.c **** @endverbatim
 122:./Libraries/STM32F4xx_HAL_Driver/Src/stm32f4xx_ll_fmc.c ****   * @{
 123:./Libraries/STM32F4xx_HAL_Driver/Src/stm32f4xx_ll_fmc.c ****   */
 124:./Libraries/STM32F4xx_HAL_Driver/Src/stm32f4xx_ll_fmc.c ****        
 125:./Libraries/STM32F4xx_HAL_Driver/Src/stm32f4xx_ll_fmc.c **** /** @addtogroup FMC_LL_NORSRAM_Private_Functions_Group1
 126:./Libraries/STM32F4xx_HAL_Driver/Src/stm32f4xx_ll_fmc.c ****   * @brief    Initialization and Configuration functions 
 127:./Libraries/STM32F4xx_HAL_Driver/Src/stm32f4xx_ll_fmc.c ****   *
 128:./Libraries/STM32F4xx_HAL_Driver/Src/stm32f4xx_ll_fmc.c ****   @verbatim    
 129:./Libraries/STM32F4xx_HAL_Driver/Src/stm32f4xx_ll_fmc.c ****   ==============================================================================
 130:./Libraries/STM32F4xx_HAL_Driver/Src/stm32f4xx_ll_fmc.c ****               ##### Initialization and de_initialization functions #####
 131:./Libraries/STM32F4xx_HAL_Driver/Src/stm32f4xx_ll_fmc.c ****   ==============================================================================
 132:./Libraries/STM32F4xx_HAL_Driver/Src/stm32f4xx_ll_fmc.c ****   [..]  
 133:./Libraries/STM32F4xx_HAL_Driver/Src/stm32f4xx_ll_fmc.c ****     This section provides functions allowing to:
 134:./Libraries/STM32F4xx_HAL_Driver/Src/stm32f4xx_ll_fmc.c ****     (+) Initialize and configure the FMC NORSRAM interface
 135:./Libraries/STM32F4xx_HAL_Driver/Src/stm32f4xx_ll_fmc.c ****     (+) De-initialize the FMC NORSRAM interface 
 136:./Libraries/STM32F4xx_HAL_Driver/Src/stm32f4xx_ll_fmc.c ****     (+) Configure the FMC clock and associated GPIOs    
 137:./Libraries/STM32F4xx_HAL_Driver/Src/stm32f4xx_ll_fmc.c ****  
 138:./Libraries/STM32F4xx_HAL_Driver/Src/stm32f4xx_ll_fmc.c **** @endverbatim
 139:./Libraries/STM32F4xx_HAL_Driver/Src/stm32f4xx_ll_fmc.c ****   * @{
 140:./Libraries/STM32F4xx_HAL_Driver/Src/stm32f4xx_ll_fmc.c ****   */
 141:./Libraries/STM32F4xx_HAL_Driver/Src/stm32f4xx_ll_fmc.c ****   
 142:./Libraries/STM32F4xx_HAL_Driver/Src/stm32f4xx_ll_fmc.c **** /**
 143:./Libraries/STM32F4xx_HAL_Driver/Src/stm32f4xx_ll_fmc.c ****   * @brief  Initialize the FMC_NORSRAM device according to the specified
ARM GAS  /tmp/cczcFqK2.s 			page 4


 144:./Libraries/STM32F4xx_HAL_Driver/Src/stm32f4xx_ll_fmc.c ****   *         control parameters in the FMC_NORSRAM_InitTypeDef
 145:./Libraries/STM32F4xx_HAL_Driver/Src/stm32f4xx_ll_fmc.c ****   * @param  Device Pointer to NORSRAM device instance
 146:./Libraries/STM32F4xx_HAL_Driver/Src/stm32f4xx_ll_fmc.c ****   * @param  Init Pointer to NORSRAM Initialization structure   
 147:./Libraries/STM32F4xx_HAL_Driver/Src/stm32f4xx_ll_fmc.c ****   * @retval HAL status
 148:./Libraries/STM32F4xx_HAL_Driver/Src/stm32f4xx_ll_fmc.c ****   */
 149:./Libraries/STM32F4xx_HAL_Driver/Src/stm32f4xx_ll_fmc.c **** HAL_StatusTypeDef  FMC_NORSRAM_Init(FMC_NORSRAM_TypeDef *Device, FMC_NORSRAM_InitTypeDef* Init)
 150:./Libraries/STM32F4xx_HAL_Driver/Src/stm32f4xx_ll_fmc.c **** { 
  30              		.loc 1 150 1 view -0
  31              		.cfi_startproc
  32              		@ args = 0, pretend = 0, frame = 0
  33              		@ frame_needed = 0, uses_anonymous_args = 0
  34              		@ link register save eliminated.
  35              		.loc 1 150 1 is_stmt 0 view .LVU1
  36 0000 70B4     		push	{r4, r5, r6}
  37              	.LCFI0:
  38              		.cfi_def_cfa_offset 12
  39              		.cfi_offset 4, -12
  40              		.cfi_offset 5, -8
  41              		.cfi_offset 6, -4
 151:./Libraries/STM32F4xx_HAL_Driver/Src/stm32f4xx_ll_fmc.c ****   uint32_t tmpr = 0U;
  42              		.loc 1 151 3 is_stmt 1 view .LVU2
  43              	.LVL1:
 152:./Libraries/STM32F4xx_HAL_Driver/Src/stm32f4xx_ll_fmc.c ****     
 153:./Libraries/STM32F4xx_HAL_Driver/Src/stm32f4xx_ll_fmc.c ****   /* Check the parameters */
 154:./Libraries/STM32F4xx_HAL_Driver/Src/stm32f4xx_ll_fmc.c ****   assert_param(IS_FMC_NORSRAM_DEVICE(Device));
  44              		.loc 1 154 3 view .LVU3
 155:./Libraries/STM32F4xx_HAL_Driver/Src/stm32f4xx_ll_fmc.c ****   assert_param(IS_FMC_NORSRAM_BANK(Init->NSBank));
  45              		.loc 1 155 3 view .LVU4
 156:./Libraries/STM32F4xx_HAL_Driver/Src/stm32f4xx_ll_fmc.c ****   assert_param(IS_FMC_MUX(Init->DataAddressMux));
  46              		.loc 1 156 3 view .LVU5
 157:./Libraries/STM32F4xx_HAL_Driver/Src/stm32f4xx_ll_fmc.c ****   assert_param(IS_FMC_MEMORY(Init->MemoryType));
  47              		.loc 1 157 3 view .LVU6
 158:./Libraries/STM32F4xx_HAL_Driver/Src/stm32f4xx_ll_fmc.c ****   assert_param(IS_FMC_NORSRAM_MEMORY_WIDTH(Init->MemoryDataWidth));
  48              		.loc 1 158 3 view .LVU7
 159:./Libraries/STM32F4xx_HAL_Driver/Src/stm32f4xx_ll_fmc.c ****   assert_param(IS_FMC_BURSTMODE(Init->BurstAccessMode));
  49              		.loc 1 159 3 view .LVU8
 160:./Libraries/STM32F4xx_HAL_Driver/Src/stm32f4xx_ll_fmc.c ****   assert_param(IS_FMC_WAIT_POLARITY(Init->WaitSignalPolarity));
  50              		.loc 1 160 3 view .LVU9
 161:./Libraries/STM32F4xx_HAL_Driver/Src/stm32f4xx_ll_fmc.c **** #if defined(STM32F427xx) || defined(STM32F437xx) || defined(STM32F429xx) || defined(STM32F439xx)
 162:./Libraries/STM32F4xx_HAL_Driver/Src/stm32f4xx_ll_fmc.c ****   assert_param(IS_FMC_WRAP_MODE(Init->WrapMode));
  51              		.loc 1 162 3 view .LVU10
 163:./Libraries/STM32F4xx_HAL_Driver/Src/stm32f4xx_ll_fmc.c **** #endif /* STM32F427xx || STM32F437xx || STM32F429xx || STM32F439xx */
 164:./Libraries/STM32F4xx_HAL_Driver/Src/stm32f4xx_ll_fmc.c ****   assert_param(IS_FMC_WAIT_SIGNAL_ACTIVE(Init->WaitSignalActive));
  52              		.loc 1 164 3 view .LVU11
 165:./Libraries/STM32F4xx_HAL_Driver/Src/stm32f4xx_ll_fmc.c ****   assert_param(IS_FMC_WRITE_OPERATION(Init->WriteOperation));
  53              		.loc 1 165 3 view .LVU12
 166:./Libraries/STM32F4xx_HAL_Driver/Src/stm32f4xx_ll_fmc.c ****   assert_param(IS_FMC_WAITE_SIGNAL(Init->WaitSignal));
  54              		.loc 1 166 3 view .LVU13
 167:./Libraries/STM32F4xx_HAL_Driver/Src/stm32f4xx_ll_fmc.c ****   assert_param(IS_FMC_EXTENDED_MODE(Init->ExtendedMode));
  55              		.loc 1 167 3 view .LVU14
 168:./Libraries/STM32F4xx_HAL_Driver/Src/stm32f4xx_ll_fmc.c ****   assert_param(IS_FMC_ASYNWAIT(Init->AsynchronousWait));
  56              		.loc 1 168 3 view .LVU15
 169:./Libraries/STM32F4xx_HAL_Driver/Src/stm32f4xx_ll_fmc.c ****   assert_param(IS_FMC_WRITE_BURST(Init->WriteBurst));
  57              		.loc 1 169 3 view .LVU16
 170:./Libraries/STM32F4xx_HAL_Driver/Src/stm32f4xx_ll_fmc.c ****   assert_param(IS_FMC_CONTINOUS_CLOCK(Init->ContinuousClock));
  58              		.loc 1 170 3 view .LVU17
 171:./Libraries/STM32F4xx_HAL_Driver/Src/stm32f4xx_ll_fmc.c ****   assert_param(IS_FMC_PAGESIZE(Init->PageSize));
ARM GAS  /tmp/cczcFqK2.s 			page 5


  59              		.loc 1 171 3 view .LVU18
 172:./Libraries/STM32F4xx_HAL_Driver/Src/stm32f4xx_ll_fmc.c **** #if defined (STM32F446xx) || defined(STM32F469xx) || defined(STM32F479xx)
 173:./Libraries/STM32F4xx_HAL_Driver/Src/stm32f4xx_ll_fmc.c ****   assert_param(IS_FMC_WRITE_FIFO(Init->WriteFifo));
 174:./Libraries/STM32F4xx_HAL_Driver/Src/stm32f4xx_ll_fmc.c **** #endif /* STM32F446xx || STM32F469xx || STM32F479xx */
 175:./Libraries/STM32F4xx_HAL_Driver/Src/stm32f4xx_ll_fmc.c **** 
 176:./Libraries/STM32F4xx_HAL_Driver/Src/stm32f4xx_ll_fmc.c ****   /* Get the BTCR register value */
 177:./Libraries/STM32F4xx_HAL_Driver/Src/stm32f4xx_ll_fmc.c ****   tmpr = Device->BTCR[Init->NSBank];
  60              		.loc 1 177 3 view .LVU19
  61              		.loc 1 177 27 is_stmt 0 view .LVU20
  62 0002 0C68     		ldr	r4, [r1]
  63              		.loc 1 177 8 view .LVU21
  64 0004 50F82430 		ldr	r3, [r0, r4, lsl #2]
  65              	.LVL2:
 178:./Libraries/STM32F4xx_HAL_Driver/Src/stm32f4xx_ll_fmc.c **** 
 179:./Libraries/STM32F4xx_HAL_Driver/Src/stm32f4xx_ll_fmc.c **** #if defined(STM32F427xx) || defined(STM32F437xx) || defined(STM32F429xx) || defined(STM32F439xx)
 180:./Libraries/STM32F4xx_HAL_Driver/Src/stm32f4xx_ll_fmc.c ****   /* Clear MBKEN, MUXEN, MTYP, MWID, FACCEN, BURSTEN, WAITPOL, WRAPMOD, WAITCFG, WREN,
 181:./Libraries/STM32F4xx_HAL_Driver/Src/stm32f4xx_ll_fmc.c ****            WAITEN, EXTMOD, ASYNCWAIT, CPSIZE, CBURSTRW and CCLKEN bits */
 182:./Libraries/STM32F4xx_HAL_Driver/Src/stm32f4xx_ll_fmc.c ****   tmpr &= ((uint32_t)~(FMC_BCR1_MBKEN     | FMC_BCR1_MUXEN    | FMC_BCR1_MTYP     | \
  66              		.loc 1 182 3 is_stmt 1 view .LVU22
  67              		.loc 1 182 8 is_stmt 0 view .LVU23
  68 0008 194E     		ldr	r6, .L7
  69 000a 1E40     		ands	r6, r6, r3
  70              	.LVL3:
 183:./Libraries/STM32F4xx_HAL_Driver/Src/stm32f4xx_ll_fmc.c ****                        FMC_BCR1_MWID      | FMC_BCR1_FACCEN   | FMC_BCR1_BURSTEN  | \
 184:./Libraries/STM32F4xx_HAL_Driver/Src/stm32f4xx_ll_fmc.c ****                        FMC_BCR1_WAITPOL   | FMC_BCR1_WRAPMOD  | FMC_BCR1_WAITCFG  | \
 185:./Libraries/STM32F4xx_HAL_Driver/Src/stm32f4xx_ll_fmc.c ****                        FMC_BCR1_WREN      | FMC_BCR1_WAITEN   | FMC_BCR1_EXTMOD   | \
 186:./Libraries/STM32F4xx_HAL_Driver/Src/stm32f4xx_ll_fmc.c ****                        FMC_BCR1_ASYNCWAIT | FMC_BCR1_CPSIZE   | FMC_BCR1_CBURSTRW | \
 187:./Libraries/STM32F4xx_HAL_Driver/Src/stm32f4xx_ll_fmc.c ****                        FMC_BCR1_CCLKEN));
 188:./Libraries/STM32F4xx_HAL_Driver/Src/stm32f4xx_ll_fmc.c ****   
 189:./Libraries/STM32F4xx_HAL_Driver/Src/stm32f4xx_ll_fmc.c ****   /* Set NORSRAM device control parameters */
 190:./Libraries/STM32F4xx_HAL_Driver/Src/stm32f4xx_ll_fmc.c ****   tmpr |= (uint32_t)(Init->DataAddressMux       |\
  71              		.loc 1 190 3 is_stmt 1 view .LVU24
  72              		.loc 1 190 26 is_stmt 0 view .LVU25
  73 000c 4A68     		ldr	r2, [r1, #4]
 191:./Libraries/STM32F4xx_HAL_Driver/Src/stm32f4xx_ll_fmc.c ****                     Init->MemoryType           |\
  74              		.loc 1 191 25 view .LVU26
  75 000e 8D68     		ldr	r5, [r1, #8]
 190:./Libraries/STM32F4xx_HAL_Driver/Src/stm32f4xx_ll_fmc.c ****                     Init->MemoryType           |\
  76              		.loc 1 190 49 view .LVU27
  77 0010 42EA0503 		orr	r3, r2, r5
 192:./Libraries/STM32F4xx_HAL_Driver/Src/stm32f4xx_ll_fmc.c ****                     Init->MemoryDataWidth      |\
  78              		.loc 1 192 25 view .LVU28
  79 0014 CA68     		ldr	r2, [r1, #12]
 191:./Libraries/STM32F4xx_HAL_Driver/Src/stm32f4xx_ll_fmc.c ****                     Init->MemoryType           |\
  80              		.loc 1 191 48 view .LVU29
  81 0016 1343     		orrs	r3, r3, r2
 193:./Libraries/STM32F4xx_HAL_Driver/Src/stm32f4xx_ll_fmc.c ****                     Init->BurstAccessMode      |\
  82              		.loc 1 193 25 view .LVU30
  83 0018 0A69     		ldr	r2, [r1, #16]
 192:./Libraries/STM32F4xx_HAL_Driver/Src/stm32f4xx_ll_fmc.c ****                     Init->MemoryDataWidth      |\
  84              		.loc 1 192 48 view .LVU31
  85 001a 1343     		orrs	r3, r3, r2
 194:./Libraries/STM32F4xx_HAL_Driver/Src/stm32f4xx_ll_fmc.c ****                     Init->WaitSignalPolarity   |\
  86              		.loc 1 194 25 view .LVU32
  87 001c 4A69     		ldr	r2, [r1, #20]
 193:./Libraries/STM32F4xx_HAL_Driver/Src/stm32f4xx_ll_fmc.c ****                     Init->BurstAccessMode      |\
  88              		.loc 1 193 48 view .LVU33
ARM GAS  /tmp/cczcFqK2.s 			page 6


  89 001e 1343     		orrs	r3, r3, r2
 195:./Libraries/STM32F4xx_HAL_Driver/Src/stm32f4xx_ll_fmc.c ****                     Init->WrapMode             |\
  90              		.loc 1 195 25 view .LVU34
  91 0020 8A69     		ldr	r2, [r1, #24]
 194:./Libraries/STM32F4xx_HAL_Driver/Src/stm32f4xx_ll_fmc.c ****                     Init->WaitSignalPolarity   |\
  92              		.loc 1 194 48 view .LVU35
  93 0022 1343     		orrs	r3, r3, r2
 196:./Libraries/STM32F4xx_HAL_Driver/Src/stm32f4xx_ll_fmc.c ****                     Init->WaitSignalActive     |\
  94              		.loc 1 196 25 view .LVU36
  95 0024 CA69     		ldr	r2, [r1, #28]
 195:./Libraries/STM32F4xx_HAL_Driver/Src/stm32f4xx_ll_fmc.c ****                     Init->WrapMode             |\
  96              		.loc 1 195 48 view .LVU37
  97 0026 1343     		orrs	r3, r3, r2
 197:./Libraries/STM32F4xx_HAL_Driver/Src/stm32f4xx_ll_fmc.c ****                     Init->WriteOperation       |\
  98              		.loc 1 197 25 view .LVU38
  99 0028 0A6A     		ldr	r2, [r1, #32]
 196:./Libraries/STM32F4xx_HAL_Driver/Src/stm32f4xx_ll_fmc.c ****                     Init->WaitSignalActive     |\
 100              		.loc 1 196 48 view .LVU39
 101 002a 1343     		orrs	r3, r3, r2
 198:./Libraries/STM32F4xx_HAL_Driver/Src/stm32f4xx_ll_fmc.c ****                     Init->WaitSignal           |\
 102              		.loc 1 198 25 view .LVU40
 103 002c 4A6A     		ldr	r2, [r1, #36]
 197:./Libraries/STM32F4xx_HAL_Driver/Src/stm32f4xx_ll_fmc.c ****                     Init->WriteOperation       |\
 104              		.loc 1 197 48 view .LVU41
 105 002e 1343     		orrs	r3, r3, r2
 199:./Libraries/STM32F4xx_HAL_Driver/Src/stm32f4xx_ll_fmc.c ****                     Init->ExtendedMode         |\
 106              		.loc 1 199 25 view .LVU42
 107 0030 8A6A     		ldr	r2, [r1, #40]
 198:./Libraries/STM32F4xx_HAL_Driver/Src/stm32f4xx_ll_fmc.c ****                     Init->WaitSignal           |\
 108              		.loc 1 198 48 view .LVU43
 109 0032 1343     		orrs	r3, r3, r2
 200:./Libraries/STM32F4xx_HAL_Driver/Src/stm32f4xx_ll_fmc.c ****                     Init->AsynchronousWait     |\
 110              		.loc 1 200 25 view .LVU44
 111 0034 CA6A     		ldr	r2, [r1, #44]
 199:./Libraries/STM32F4xx_HAL_Driver/Src/stm32f4xx_ll_fmc.c ****                     Init->ExtendedMode         |\
 112              		.loc 1 199 48 view .LVU45
 113 0036 1343     		orrs	r3, r3, r2
 201:./Libraries/STM32F4xx_HAL_Driver/Src/stm32f4xx_ll_fmc.c ****                     Init->PageSize             |\
 114              		.loc 1 201 25 view .LVU46
 115 0038 CA6B     		ldr	r2, [r1, #60]
 200:./Libraries/STM32F4xx_HAL_Driver/Src/stm32f4xx_ll_fmc.c ****                     Init->AsynchronousWait     |\
 116              		.loc 1 200 48 view .LVU47
 117 003a 1343     		orrs	r3, r3, r2
 202:./Libraries/STM32F4xx_HAL_Driver/Src/stm32f4xx_ll_fmc.c ****                     Init->WriteBurst           |\
 118              		.loc 1 202 25 view .LVU48
 119 003c 0A6B     		ldr	r2, [r1, #48]
 201:./Libraries/STM32F4xx_HAL_Driver/Src/stm32f4xx_ll_fmc.c ****                     Init->PageSize             |\
 120              		.loc 1 201 48 view .LVU49
 121 003e 1343     		orrs	r3, r3, r2
 203:./Libraries/STM32F4xx_HAL_Driver/Src/stm32f4xx_ll_fmc.c ****                     Init->ContinuousClock);
 122              		.loc 1 203 25 view .LVU50
 123 0040 4A6B     		ldr	r2, [r1, #52]
 202:./Libraries/STM32F4xx_HAL_Driver/Src/stm32f4xx_ll_fmc.c ****                     Init->WriteBurst           |\
 124              		.loc 1 202 48 view .LVU51
 125 0042 1343     		orrs	r3, r3, r2
 190:./Libraries/STM32F4xx_HAL_Driver/Src/stm32f4xx_ll_fmc.c ****                     Init->MemoryType           |\
 126              		.loc 1 190 8 view .LVU52
ARM GAS  /tmp/cczcFqK2.s 			page 7


 127 0044 3343     		orrs	r3, r3, r6
 128              	.LVL4:
 204:./Libraries/STM32F4xx_HAL_Driver/Src/stm32f4xx_ll_fmc.c **** #else /* defined(STM32F446xx) || defined(STM32F469xx) || defined(STM32F479xx) */
 205:./Libraries/STM32F4xx_HAL_Driver/Src/stm32f4xx_ll_fmc.c ****   /* Clear MBKEN, MUXEN, MTYP, MWID, FACCEN, BURSTEN, WAITPOL, CPSIZE, WAITCFG, WREN,
 206:./Libraries/STM32F4xx_HAL_Driver/Src/stm32f4xx_ll_fmc.c ****            WAITEN, EXTMOD, ASYNCWAIT, CBURSTRW, CCLKEN and WFDIS bits */
 207:./Libraries/STM32F4xx_HAL_Driver/Src/stm32f4xx_ll_fmc.c ****   tmpr &= ((uint32_t)~(FMC_BCR1_MBKEN     | FMC_BCR1_MUXEN    | FMC_BCR1_MTYP     | \
 208:./Libraries/STM32F4xx_HAL_Driver/Src/stm32f4xx_ll_fmc.c ****                        FMC_BCR1_MWID      | FMC_BCR1_FACCEN   | FMC_BCR1_BURSTEN  | \
 209:./Libraries/STM32F4xx_HAL_Driver/Src/stm32f4xx_ll_fmc.c ****                        FMC_BCR1_WAITPOL   | FMC_BCR1_WAITCFG  | FMC_BCR1_CPSIZE   | \
 210:./Libraries/STM32F4xx_HAL_Driver/Src/stm32f4xx_ll_fmc.c ****                        FMC_BCR1_WREN      | FMC_BCR1_WAITEN   | FMC_BCR1_EXTMOD   | \
 211:./Libraries/STM32F4xx_HAL_Driver/Src/stm32f4xx_ll_fmc.c ****                        FMC_BCR1_ASYNCWAIT | FMC_BCR1_CBURSTRW | FMC_BCR1_CCLKEN   | \
 212:./Libraries/STM32F4xx_HAL_Driver/Src/stm32f4xx_ll_fmc.c ****                        FMC_BCR1_WFDIS));
 213:./Libraries/STM32F4xx_HAL_Driver/Src/stm32f4xx_ll_fmc.c ****   
 214:./Libraries/STM32F4xx_HAL_Driver/Src/stm32f4xx_ll_fmc.c ****   /* Set NORSRAM device control parameters */
 215:./Libraries/STM32F4xx_HAL_Driver/Src/stm32f4xx_ll_fmc.c ****   tmpr |= (uint32_t)(Init->DataAddressMux       |\
 216:./Libraries/STM32F4xx_HAL_Driver/Src/stm32f4xx_ll_fmc.c ****                     Init->MemoryType           |\
 217:./Libraries/STM32F4xx_HAL_Driver/Src/stm32f4xx_ll_fmc.c ****                     Init->MemoryDataWidth      |\
 218:./Libraries/STM32F4xx_HAL_Driver/Src/stm32f4xx_ll_fmc.c ****                     Init->BurstAccessMode      |\
 219:./Libraries/STM32F4xx_HAL_Driver/Src/stm32f4xx_ll_fmc.c ****                     Init->WaitSignalPolarity   |\
 220:./Libraries/STM32F4xx_HAL_Driver/Src/stm32f4xx_ll_fmc.c ****                     Init->WaitSignalActive     |\
 221:./Libraries/STM32F4xx_HAL_Driver/Src/stm32f4xx_ll_fmc.c ****                     Init->WriteOperation       |\
 222:./Libraries/STM32F4xx_HAL_Driver/Src/stm32f4xx_ll_fmc.c ****                     Init->WaitSignal           |\
 223:./Libraries/STM32F4xx_HAL_Driver/Src/stm32f4xx_ll_fmc.c ****                     Init->ExtendedMode         |\
 224:./Libraries/STM32F4xx_HAL_Driver/Src/stm32f4xx_ll_fmc.c ****                     Init->AsynchronousWait     |\
 225:./Libraries/STM32F4xx_HAL_Driver/Src/stm32f4xx_ll_fmc.c ****                     Init->WriteBurst           |\
 226:./Libraries/STM32F4xx_HAL_Driver/Src/stm32f4xx_ll_fmc.c ****                     Init->ContinuousClock      |\
 227:./Libraries/STM32F4xx_HAL_Driver/Src/stm32f4xx_ll_fmc.c ****                     Init->PageSize             |\
 228:./Libraries/STM32F4xx_HAL_Driver/Src/stm32f4xx_ll_fmc.c ****                     Init->WriteFifo);
 229:./Libraries/STM32F4xx_HAL_Driver/Src/stm32f4xx_ll_fmc.c **** #endif /*  defined(STM32F427xx) || defined(STM32F437xx) || defined(STM32F429xx) || defined(STM32F43
 230:./Libraries/STM32F4xx_HAL_Driver/Src/stm32f4xx_ll_fmc.c ****                     
 231:./Libraries/STM32F4xx_HAL_Driver/Src/stm32f4xx_ll_fmc.c ****   if(Init->MemoryType == FMC_MEMORY_TYPE_NOR)
 129              		.loc 1 231 3 is_stmt 1 view .LVU53
 130              		.loc 1 231 5 is_stmt 0 view .LVU54
 131 0046 082D     		cmp	r5, #8
 132 0048 08D0     		beq	.L5
 133              	.L2:
 232:./Libraries/STM32F4xx_HAL_Driver/Src/stm32f4xx_ll_fmc.c ****   {
 233:./Libraries/STM32F4xx_HAL_Driver/Src/stm32f4xx_ll_fmc.c ****     tmpr |= (uint32_t)FMC_NORSRAM_FLASH_ACCESS_ENABLE;
 234:./Libraries/STM32F4xx_HAL_Driver/Src/stm32f4xx_ll_fmc.c ****   }
 235:./Libraries/STM32F4xx_HAL_Driver/Src/stm32f4xx_ll_fmc.c ****   
 236:./Libraries/STM32F4xx_HAL_Driver/Src/stm32f4xx_ll_fmc.c ****   Device->BTCR[Init->NSBank] = tmpr;
 134              		.loc 1 236 3 is_stmt 1 view .LVU55
 135              		.loc 1 236 30 is_stmt 0 view .LVU56
 136 004a 40F82430 		str	r3, [r0, r4, lsl #2]
 237:./Libraries/STM32F4xx_HAL_Driver/Src/stm32f4xx_ll_fmc.c **** 
 238:./Libraries/STM32F4xx_HAL_Driver/Src/stm32f4xx_ll_fmc.c ****   /* Configure synchronous mode when Continuous clock is enabled for bank2..4 */
 239:./Libraries/STM32F4xx_HAL_Driver/Src/stm32f4xx_ll_fmc.c ****   if((Init->ContinuousClock == FMC_CONTINUOUS_CLOCK_SYNC_ASYNC) && (Init->NSBank != FMC_NORSRAM_BAN
 137              		.loc 1 239 3 is_stmt 1 view .LVU57
 138              		.loc 1 239 11 is_stmt 0 view .LVU58
 139 004e 4B6B     		ldr	r3, [r1, #52]
 140              	.LVL5:
 141              		.loc 1 239 5 view .LVU59
 142 0050 B3F5801F 		cmp	r3, #1048576
 143 0054 05D0     		beq	.L6
 144              	.LVL6:
 145              	.L3:
 240:./Libraries/STM32F4xx_HAL_Driver/Src/stm32f4xx_ll_fmc.c ****   { 
 241:./Libraries/STM32F4xx_HAL_Driver/Src/stm32f4xx_ll_fmc.c ****     Device->BTCR[FMC_NORSRAM_BANK1] |= (uint32_t)(Init->ContinuousClock);
ARM GAS  /tmp/cczcFqK2.s 			page 8


 242:./Libraries/STM32F4xx_HAL_Driver/Src/stm32f4xx_ll_fmc.c ****   }
 243:./Libraries/STM32F4xx_HAL_Driver/Src/stm32f4xx_ll_fmc.c **** 
 244:./Libraries/STM32F4xx_HAL_Driver/Src/stm32f4xx_ll_fmc.c **** #if defined(STM32F446xx) || defined(STM32F469xx) || defined(STM32F479xx)
 245:./Libraries/STM32F4xx_HAL_Driver/Src/stm32f4xx_ll_fmc.c ****   if(Init->NSBank != FMC_NORSRAM_BANK1)
 246:./Libraries/STM32F4xx_HAL_Driver/Src/stm32f4xx_ll_fmc.c ****   {
 247:./Libraries/STM32F4xx_HAL_Driver/Src/stm32f4xx_ll_fmc.c ****     Device->BTCR[FMC_NORSRAM_BANK1] |= (uint32_t)(Init->WriteFifo);              
 248:./Libraries/STM32F4xx_HAL_Driver/Src/stm32f4xx_ll_fmc.c ****   }
 249:./Libraries/STM32F4xx_HAL_Driver/Src/stm32f4xx_ll_fmc.c **** #endif /* STM32F446xx || STM32F469xx || STM32F479xx */
 250:./Libraries/STM32F4xx_HAL_Driver/Src/stm32f4xx_ll_fmc.c ****   
 251:./Libraries/STM32F4xx_HAL_Driver/Src/stm32f4xx_ll_fmc.c ****   return HAL_OK;
 146              		.loc 1 251 3 is_stmt 1 view .LVU60
 252:./Libraries/STM32F4xx_HAL_Driver/Src/stm32f4xx_ll_fmc.c **** }
 147              		.loc 1 252 1 is_stmt 0 view .LVU61
 148 0056 0020     		movs	r0, #0
 149              	.LVL7:
 150              		.loc 1 252 1 view .LVU62
 151 0058 70BC     		pop	{r4, r5, r6}
 152              	.LCFI1:
 153              		.cfi_remember_state
 154              		.cfi_restore 6
 155              		.cfi_restore 5
 156              		.cfi_restore 4
 157              		.cfi_def_cfa_offset 0
 158 005a 7047     		bx	lr
 159              	.LVL8:
 160              	.L5:
 161              	.LCFI2:
 162              		.cfi_restore_state
 233:./Libraries/STM32F4xx_HAL_Driver/Src/stm32f4xx_ll_fmc.c ****   }
 163              		.loc 1 233 5 is_stmt 1 view .LVU63
 233:./Libraries/STM32F4xx_HAL_Driver/Src/stm32f4xx_ll_fmc.c ****   }
 164              		.loc 1 233 10 is_stmt 0 view .LVU64
 165 005c 43F04003 		orr	r3, r3, #64
 166              	.LVL9:
 233:./Libraries/STM32F4xx_HAL_Driver/Src/stm32f4xx_ll_fmc.c ****   }
 167              		.loc 1 233 10 view .LVU65
 168 0060 F3E7     		b	.L2
 169              	.LVL10:
 170              	.L6:
 239:./Libraries/STM32F4xx_HAL_Driver/Src/stm32f4xx_ll_fmc.c ****   { 
 171              		.loc 1 239 73 discriminator 1 view .LVU66
 172 0062 0A68     		ldr	r2, [r1]
 239:./Libraries/STM32F4xx_HAL_Driver/Src/stm32f4xx_ll_fmc.c ****   { 
 173              		.loc 1 239 65 discriminator 1 view .LVU67
 174 0064 002A     		cmp	r2, #0
 175 0066 F6D0     		beq	.L3
 241:./Libraries/STM32F4xx_HAL_Driver/Src/stm32f4xx_ll_fmc.c ****   }
 176              		.loc 1 241 5 is_stmt 1 view .LVU68
 241:./Libraries/STM32F4xx_HAL_Driver/Src/stm32f4xx_ll_fmc.c ****   }
 177              		.loc 1 241 37 is_stmt 0 view .LVU69
 178 0068 0268     		ldr	r2, [r0]
 179 006a 1343     		orrs	r3, r3, r2
 180 006c 0360     		str	r3, [r0]
 181              	.LVL11:
 241:./Libraries/STM32F4xx_HAL_Driver/Src/stm32f4xx_ll_fmc.c ****   }
 182              		.loc 1 241 37 view .LVU70
 183 006e F2E7     		b	.L3
ARM GAS  /tmp/cczcFqK2.s 			page 9


 184              	.L8:
 185              		.align	2
 186              	.L7:
 187 0070 8000E0FF 		.word	-2097024
 188              		.cfi_endproc
 189              	.LFE126:
 191              		.section	.text.FMC_NORSRAM_DeInit,"ax",%progbits
 192              		.align	1
 193              		.global	FMC_NORSRAM_DeInit
 194              		.syntax unified
 195              		.thumb
 196              		.thumb_func
 197              		.fpu fpv4-sp-d16
 199              	FMC_NORSRAM_DeInit:
 200              	.LVL12:
 201              	.LFB127:
 253:./Libraries/STM32F4xx_HAL_Driver/Src/stm32f4xx_ll_fmc.c **** 
 254:./Libraries/STM32F4xx_HAL_Driver/Src/stm32f4xx_ll_fmc.c **** /**
 255:./Libraries/STM32F4xx_HAL_Driver/Src/stm32f4xx_ll_fmc.c ****   * @brief  DeInitialize the FMC_NORSRAM peripheral 
 256:./Libraries/STM32F4xx_HAL_Driver/Src/stm32f4xx_ll_fmc.c ****   * @param  Device Pointer to NORSRAM device instance
 257:./Libraries/STM32F4xx_HAL_Driver/Src/stm32f4xx_ll_fmc.c ****   * @param  ExDevice Pointer to NORSRAM extended mode device instance  
 258:./Libraries/STM32F4xx_HAL_Driver/Src/stm32f4xx_ll_fmc.c ****   * @param  Bank NORSRAM bank number  
 259:./Libraries/STM32F4xx_HAL_Driver/Src/stm32f4xx_ll_fmc.c ****   * @retval HAL status
 260:./Libraries/STM32F4xx_HAL_Driver/Src/stm32f4xx_ll_fmc.c ****   */
 261:./Libraries/STM32F4xx_HAL_Driver/Src/stm32f4xx_ll_fmc.c **** HAL_StatusTypeDef FMC_NORSRAM_DeInit(FMC_NORSRAM_TypeDef *Device, FMC_NORSRAM_EXTENDED_TypeDef *ExD
 262:./Libraries/STM32F4xx_HAL_Driver/Src/stm32f4xx_ll_fmc.c **** {
 202              		.loc 1 262 1 is_stmt 1 view -0
 203              		.cfi_startproc
 204              		@ args = 0, pretend = 0, frame = 0
 205              		@ frame_needed = 0, uses_anonymous_args = 0
 206              		@ link register save eliminated.
 263:./Libraries/STM32F4xx_HAL_Driver/Src/stm32f4xx_ll_fmc.c ****   /* Check the parameters */
 264:./Libraries/STM32F4xx_HAL_Driver/Src/stm32f4xx_ll_fmc.c ****   assert_param(IS_FMC_NORSRAM_DEVICE(Device));
 207              		.loc 1 264 3 view .LVU72
 265:./Libraries/STM32F4xx_HAL_Driver/Src/stm32f4xx_ll_fmc.c ****   assert_param(IS_FMC_NORSRAM_EXTENDED_DEVICE(ExDevice));
 208              		.loc 1 265 3 view .LVU73
 266:./Libraries/STM32F4xx_HAL_Driver/Src/stm32f4xx_ll_fmc.c ****   assert_param(IS_FMC_NORSRAM_BANK(Bank));
 209              		.loc 1 266 3 view .LVU74
 267:./Libraries/STM32F4xx_HAL_Driver/Src/stm32f4xx_ll_fmc.c ****   
 268:./Libraries/STM32F4xx_HAL_Driver/Src/stm32f4xx_ll_fmc.c ****   /* Disable the FMC_NORSRAM device */
 269:./Libraries/STM32F4xx_HAL_Driver/Src/stm32f4xx_ll_fmc.c ****   __FMC_NORSRAM_DISABLE(Device, Bank);
 210              		.loc 1 269 3 view .LVU75
 211 0000 50F82230 		ldr	r3, [r0, r2, lsl #2]
 212 0004 23F00103 		bic	r3, r3, #1
 213 0008 40F82230 		str	r3, [r0, r2, lsl #2]
 270:./Libraries/STM32F4xx_HAL_Driver/Src/stm32f4xx_ll_fmc.c ****   
 271:./Libraries/STM32F4xx_HAL_Driver/Src/stm32f4xx_ll_fmc.c ****   /* De-initialize the FMC_NORSRAM device */
 272:./Libraries/STM32F4xx_HAL_Driver/Src/stm32f4xx_ll_fmc.c ****   /* FMC_NORSRAM_BANK1 */
 273:./Libraries/STM32F4xx_HAL_Driver/Src/stm32f4xx_ll_fmc.c ****   if(Bank == FMC_NORSRAM_BANK1)
 214              		.loc 1 273 3 view .LVU76
 215              		.loc 1 273 5 is_stmt 0 view .LVU77
 216 000c 6AB9     		cbnz	r2, .L10
 274:./Libraries/STM32F4xx_HAL_Driver/Src/stm32f4xx_ll_fmc.c ****   {
 275:./Libraries/STM32F4xx_HAL_Driver/Src/stm32f4xx_ll_fmc.c ****     Device->BTCR[Bank] = 0x000030DBU;
 217              		.loc 1 275 5 is_stmt 1 view .LVU78
 218              		.loc 1 275 24 is_stmt 0 view .LVU79
 219 000e 43F2DB03 		movw	r3, #12507
ARM GAS  /tmp/cczcFqK2.s 			page 10


 220 0012 40F82230 		str	r3, [r0, r2, lsl #2]
 221              	.L11:
 276:./Libraries/STM32F4xx_HAL_Driver/Src/stm32f4xx_ll_fmc.c ****   }
 277:./Libraries/STM32F4xx_HAL_Driver/Src/stm32f4xx_ll_fmc.c ****   /* FMC_NORSRAM_BANK2, FMC_NORSRAM_BANK3 or FMC_NORSRAM_BANK4 */
 278:./Libraries/STM32F4xx_HAL_Driver/Src/stm32f4xx_ll_fmc.c ****   else
 279:./Libraries/STM32F4xx_HAL_Driver/Src/stm32f4xx_ll_fmc.c ****   {   
 280:./Libraries/STM32F4xx_HAL_Driver/Src/stm32f4xx_ll_fmc.c ****     Device->BTCR[Bank] = 0x000030D2U;
 281:./Libraries/STM32F4xx_HAL_Driver/Src/stm32f4xx_ll_fmc.c ****   }
 282:./Libraries/STM32F4xx_HAL_Driver/Src/stm32f4xx_ll_fmc.c ****   
 283:./Libraries/STM32F4xx_HAL_Driver/Src/stm32f4xx_ll_fmc.c ****   Device->BTCR[Bank + 1U] = 0x0FFFFFFFU;
 222              		.loc 1 283 3 is_stmt 1 view .LVU80
 223              		.loc 1 283 21 is_stmt 0 view .LVU81
 224 0016 02F1010C 		add	ip, r2, #1
 225              		.loc 1 283 27 view .LVU82
 226 001a 6FF07043 		mvn	r3, #-268435456
 227 001e 40F82C30 		str	r3, [r0, ip, lsl #2]
 284:./Libraries/STM32F4xx_HAL_Driver/Src/stm32f4xx_ll_fmc.c ****   ExDevice->BWTR[Bank]    = 0x0FFFFFFFU;
 228              		.loc 1 284 3 is_stmt 1 view .LVU83
 229              		.loc 1 284 27 is_stmt 0 view .LVU84
 230 0022 41F82230 		str	r3, [r1, r2, lsl #2]
 285:./Libraries/STM32F4xx_HAL_Driver/Src/stm32f4xx_ll_fmc.c ****    
 286:./Libraries/STM32F4xx_HAL_Driver/Src/stm32f4xx_ll_fmc.c ****   return HAL_OK;
 231              		.loc 1 286 3 is_stmt 1 view .LVU85
 287:./Libraries/STM32F4xx_HAL_Driver/Src/stm32f4xx_ll_fmc.c **** }
 232              		.loc 1 287 1 is_stmt 0 view .LVU86
 233 0026 0020     		movs	r0, #0
 234              	.LVL13:
 235              		.loc 1 287 1 view .LVU87
 236 0028 7047     		bx	lr
 237              	.LVL14:
 238              	.L10:
 280:./Libraries/STM32F4xx_HAL_Driver/Src/stm32f4xx_ll_fmc.c ****   }
 239              		.loc 1 280 5 is_stmt 1 view .LVU88
 280:./Libraries/STM32F4xx_HAL_Driver/Src/stm32f4xx_ll_fmc.c ****   }
 240              		.loc 1 280 24 is_stmt 0 view .LVU89
 241 002a 43F2D203 		movw	r3, #12498
 242 002e 40F82230 		str	r3, [r0, r2, lsl #2]
 243 0032 F0E7     		b	.L11
 244              		.cfi_endproc
 245              	.LFE127:
 247              		.section	.text.FMC_NORSRAM_Timing_Init,"ax",%progbits
 248              		.align	1
 249              		.global	FMC_NORSRAM_Timing_Init
 250              		.syntax unified
 251              		.thumb
 252              		.thumb_func
 253              		.fpu fpv4-sp-d16
 255              	FMC_NORSRAM_Timing_Init:
 256              	.LVL15:
 257              	.LFB128:
 288:./Libraries/STM32F4xx_HAL_Driver/Src/stm32f4xx_ll_fmc.c **** 
 289:./Libraries/STM32F4xx_HAL_Driver/Src/stm32f4xx_ll_fmc.c **** /**
 290:./Libraries/STM32F4xx_HAL_Driver/Src/stm32f4xx_ll_fmc.c ****   * @brief  Initialize the FMC_NORSRAM Timing according to the specified
 291:./Libraries/STM32F4xx_HAL_Driver/Src/stm32f4xx_ll_fmc.c ****   *         parameters in the FMC_NORSRAM_TimingTypeDef
 292:./Libraries/STM32F4xx_HAL_Driver/Src/stm32f4xx_ll_fmc.c ****   * @param  Device Pointer to NORSRAM device instance
 293:./Libraries/STM32F4xx_HAL_Driver/Src/stm32f4xx_ll_fmc.c ****   * @param  Timing Pointer to NORSRAM Timing structure
 294:./Libraries/STM32F4xx_HAL_Driver/Src/stm32f4xx_ll_fmc.c ****   * @param  Bank NORSRAM bank number  
ARM GAS  /tmp/cczcFqK2.s 			page 11


 295:./Libraries/STM32F4xx_HAL_Driver/Src/stm32f4xx_ll_fmc.c ****   * @retval HAL status
 296:./Libraries/STM32F4xx_HAL_Driver/Src/stm32f4xx_ll_fmc.c ****   */
 297:./Libraries/STM32F4xx_HAL_Driver/Src/stm32f4xx_ll_fmc.c **** HAL_StatusTypeDef FMC_NORSRAM_Timing_Init(FMC_NORSRAM_TypeDef *Device, FMC_NORSRAM_TimingTypeDef *T
 298:./Libraries/STM32F4xx_HAL_Driver/Src/stm32f4xx_ll_fmc.c **** {
 258              		.loc 1 298 1 is_stmt 1 view -0
 259              		.cfi_startproc
 260              		@ args = 0, pretend = 0, frame = 0
 261              		@ frame_needed = 0, uses_anonymous_args = 0
 262              		.loc 1 298 1 is_stmt 0 view .LVU91
 263 0000 10B5     		push	{r4, lr}
 264              	.LCFI3:
 265              		.cfi_def_cfa_offset 8
 266              		.cfi_offset 4, -8
 267              		.cfi_offset 14, -4
 299:./Libraries/STM32F4xx_HAL_Driver/Src/stm32f4xx_ll_fmc.c ****   uint32_t tmpr = 0U;
 268              		.loc 1 299 3 is_stmt 1 view .LVU92
 269              	.LVL16:
 300:./Libraries/STM32F4xx_HAL_Driver/Src/stm32f4xx_ll_fmc.c ****   
 301:./Libraries/STM32F4xx_HAL_Driver/Src/stm32f4xx_ll_fmc.c ****   /* Check the parameters */
 302:./Libraries/STM32F4xx_HAL_Driver/Src/stm32f4xx_ll_fmc.c ****   assert_param(IS_FMC_NORSRAM_DEVICE(Device));
 270              		.loc 1 302 3 view .LVU93
 303:./Libraries/STM32F4xx_HAL_Driver/Src/stm32f4xx_ll_fmc.c ****   assert_param(IS_FMC_ADDRESS_SETUP_TIME(Timing->AddressSetupTime));
 271              		.loc 1 303 3 view .LVU94
 304:./Libraries/STM32F4xx_HAL_Driver/Src/stm32f4xx_ll_fmc.c ****   assert_param(IS_FMC_ADDRESS_HOLD_TIME(Timing->AddressHoldTime));
 272              		.loc 1 304 3 view .LVU95
 305:./Libraries/STM32F4xx_HAL_Driver/Src/stm32f4xx_ll_fmc.c ****   assert_param(IS_FMC_DATASETUP_TIME(Timing->DataSetupTime));
 273              		.loc 1 305 3 view .LVU96
 306:./Libraries/STM32F4xx_HAL_Driver/Src/stm32f4xx_ll_fmc.c ****   assert_param(IS_FMC_TURNAROUND_TIME(Timing->BusTurnAroundDuration));
 274              		.loc 1 306 3 view .LVU97
 307:./Libraries/STM32F4xx_HAL_Driver/Src/stm32f4xx_ll_fmc.c ****   assert_param(IS_FMC_CLK_DIV(Timing->CLKDivision));
 275              		.loc 1 307 3 view .LVU98
 308:./Libraries/STM32F4xx_HAL_Driver/Src/stm32f4xx_ll_fmc.c ****   assert_param(IS_FMC_DATA_LATENCY(Timing->DataLatency));
 276              		.loc 1 308 3 view .LVU99
 309:./Libraries/STM32F4xx_HAL_Driver/Src/stm32f4xx_ll_fmc.c ****   assert_param(IS_FMC_ACCESS_MODE(Timing->AccessMode));
 277              		.loc 1 309 3 view .LVU100
 310:./Libraries/STM32F4xx_HAL_Driver/Src/stm32f4xx_ll_fmc.c ****   assert_param(IS_FMC_NORSRAM_BANK(Bank));
 278              		.loc 1 310 3 view .LVU101
 311:./Libraries/STM32F4xx_HAL_Driver/Src/stm32f4xx_ll_fmc.c ****   
 312:./Libraries/STM32F4xx_HAL_Driver/Src/stm32f4xx_ll_fmc.c ****   /* Get the BTCR register value */
 313:./Libraries/STM32F4xx_HAL_Driver/Src/stm32f4xx_ll_fmc.c ****   tmpr = Device->BTCR[Bank + 1U];
 279              		.loc 1 313 3 view .LVU102
 280              		.loc 1 313 28 is_stmt 0 view .LVU103
 281 0002 0132     		adds	r2, r2, #1
 282              	.LVL17:
 283              		.loc 1 313 8 view .LVU104
 284 0004 50F82230 		ldr	r3, [r0, r2, lsl #2]
 285              	.LVL18:
 314:./Libraries/STM32F4xx_HAL_Driver/Src/stm32f4xx_ll_fmc.c **** 
 315:./Libraries/STM32F4xx_HAL_Driver/Src/stm32f4xx_ll_fmc.c ****   /* Clear ADDSET, ADDHLD, DATAST, BUSTURN, CLKDIV, DATLAT and ACCMOD bits */
 316:./Libraries/STM32F4xx_HAL_Driver/Src/stm32f4xx_ll_fmc.c ****   tmpr &= ((uint32_t)~(FMC_BTR1_ADDSET  | FMC_BTR1_ADDHLD | FMC_BTR1_DATAST | \
 286              		.loc 1 316 3 is_stmt 1 view .LVU105
 287              		.loc 1 316 8 is_stmt 0 view .LVU106
 288 0008 03F0404C 		and	ip, r3, #-1073741824
 289              	.LVL19:
 317:./Libraries/STM32F4xx_HAL_Driver/Src/stm32f4xx_ll_fmc.c ****                        FMC_BTR1_BUSTURN | FMC_BTR1_CLKDIV | FMC_BTR1_DATLAT | \
 318:./Libraries/STM32F4xx_HAL_Driver/Src/stm32f4xx_ll_fmc.c ****                        FMC_BTR1_ACCMOD));
 319:./Libraries/STM32F4xx_HAL_Driver/Src/stm32f4xx_ll_fmc.c ****   
ARM GAS  /tmp/cczcFqK2.s 			page 12


 320:./Libraries/STM32F4xx_HAL_Driver/Src/stm32f4xx_ll_fmc.c ****   /* Set FMC_NORSRAM device timing parameters */  
 321:./Libraries/STM32F4xx_HAL_Driver/Src/stm32f4xx_ll_fmc.c ****   tmpr |= (uint32_t)(Timing->AddressSetupTime                   |\
 290              		.loc 1 321 3 is_stmt 1 view .LVU107
 291              		.loc 1 321 28 is_stmt 0 view .LVU108
 292 000c 0B68     		ldr	r3, [r1]
 293              		.loc 1 321 65 view .LVU109
 294 000e 4C68     		ldr	r4, [r1, #4]
 295 0010 43EA0413 		orr	r3, r3, r4, lsl #4
 322:./Libraries/STM32F4xx_HAL_Driver/Src/stm32f4xx_ll_fmc.c ****                     ((Timing->AddressHoldTime) << 4U)           |\
 296              		.loc 1 322 65 view .LVU110
 297 0014 8C68     		ldr	r4, [r1, #8]
 298 0016 43EA0423 		orr	r3, r3, r4, lsl #8
 323:./Libraries/STM32F4xx_HAL_Driver/Src/stm32f4xx_ll_fmc.c ****                     ((Timing->DataSetupTime) << 8U)             |\
 299              		.loc 1 323 65 view .LVU111
 300 001a CC68     		ldr	r4, [r1, #12]
 301 001c 43EA0443 		orr	r3, r3, r4, lsl #16
 324:./Libraries/STM32F4xx_HAL_Driver/Src/stm32f4xx_ll_fmc.c ****                     ((Timing->BusTurnAroundDuration) << 16U)    |\
 325:./Libraries/STM32F4xx_HAL_Driver/Src/stm32f4xx_ll_fmc.c ****                     (((Timing->CLKDivision) - 1U) << 20U)         |\
 302              		.loc 1 325 45 view .LVU112
 303 0020 0C69     		ldr	r4, [r1, #16]
 304 0022 04F1FF3E 		add	lr, r4, #-1
 324:./Libraries/STM32F4xx_HAL_Driver/Src/stm32f4xx_ll_fmc.c ****                     ((Timing->BusTurnAroundDuration) << 16U)    |\
 305              		.loc 1 324 65 view .LVU113
 306 0026 43EA0E53 		orr	r3, r3, lr, lsl #20
 326:./Libraries/STM32F4xx_HAL_Driver/Src/stm32f4xx_ll_fmc.c ****                     (((Timing->DataLatency) - 2U) << 24U)         |\
 307              		.loc 1 326 45 view .LVU114
 308 002a 4C69     		ldr	r4, [r1, #20]
 309 002c A4F1020E 		sub	lr, r4, #2
 325:./Libraries/STM32F4xx_HAL_Driver/Src/stm32f4xx_ll_fmc.c ****                     (((Timing->DataLatency) - 2U) << 24U)         |\
 310              		.loc 1 325 67 view .LVU115
 311 0030 43EA0E63 		orr	r3, r3, lr, lsl #24
 321:./Libraries/STM32F4xx_HAL_Driver/Src/stm32f4xx_ll_fmc.c ****                     ((Timing->AddressHoldTime) << 4U)           |\
 312              		.loc 1 321 11 view .LVU116
 313 0034 8C69     		ldr	r4, [r1, #24]
 314 0036 2343     		orrs	r3, r3, r4
 321:./Libraries/STM32F4xx_HAL_Driver/Src/stm32f4xx_ll_fmc.c ****                     ((Timing->AddressHoldTime) << 4U)           |\
 315              		.loc 1 321 8 view .LVU117
 316 0038 43EA0C03 		orr	r3, r3, ip
 317              	.LVL20:
 327:./Libraries/STM32F4xx_HAL_Driver/Src/stm32f4xx_ll_fmc.c ****                     (Timing->AccessMode));
 328:./Libraries/STM32F4xx_HAL_Driver/Src/stm32f4xx_ll_fmc.c ****   
 329:./Libraries/STM32F4xx_HAL_Driver/Src/stm32f4xx_ll_fmc.c ****   Device->BTCR[Bank + 1U] = tmpr;
 318              		.loc 1 329 3 is_stmt 1 view .LVU118
 319              		.loc 1 329 27 is_stmt 0 view .LVU119
 320 003c 40F82230 		str	r3, [r0, r2, lsl #2]
 330:./Libraries/STM32F4xx_HAL_Driver/Src/stm32f4xx_ll_fmc.c ****   
 331:./Libraries/STM32F4xx_HAL_Driver/Src/stm32f4xx_ll_fmc.c ****   /* Configure Clock division value (in NORSRAM bank 1) when continuous clock is enabled */
 332:./Libraries/STM32F4xx_HAL_Driver/Src/stm32f4xx_ll_fmc.c ****   if(HAL_IS_BIT_SET(Device->BTCR[FMC_NORSRAM_BANK1], FMC_BCR1_CCLKEN))
 321              		.loc 1 332 3 is_stmt 1 view .LVU120
 322              		.loc 1 332 6 is_stmt 0 view .LVU121
 323 0040 0368     		ldr	r3, [r0]
 324              	.LVL21:
 325              		.loc 1 332 5 view .LVU122
 326 0042 13F4801F 		tst	r3, #1048576
 327 0046 07D0     		beq	.L13
 333:./Libraries/STM32F4xx_HAL_Driver/Src/stm32f4xx_ll_fmc.c ****   {
 334:./Libraries/STM32F4xx_HAL_Driver/Src/stm32f4xx_ll_fmc.c ****     tmpr = (uint32_t)(Device->BTCR[FMC_NORSRAM_BANK1 + 1U] & ~(0x0FU << 20U)); 
ARM GAS  /tmp/cczcFqK2.s 			page 13


 328              		.loc 1 334 5 is_stmt 1 view .LVU123
 329              		.loc 1 334 35 is_stmt 0 view .LVU124
 330 0048 4368     		ldr	r3, [r0, #4]
 331              		.loc 1 334 10 view .LVU125
 332 004a 23F47003 		bic	r3, r3, #15728640
 333              	.LVL22:
 335:./Libraries/STM32F4xx_HAL_Driver/Src/stm32f4xx_ll_fmc.c ****     tmpr |= (uint32_t)(((Timing->CLKDivision) - 1U) << 20U);
 334              		.loc 1 335 5 is_stmt 1 view .LVU126
 335              		.loc 1 335 32 is_stmt 0 view .LVU127
 336 004e 0A69     		ldr	r2, [r1, #16]
 337              	.LVL23:
 338              		.loc 1 335 47 view .LVU128
 339 0050 013A     		subs	r2, r2, #1
 340              		.loc 1 335 10 view .LVU129
 341 0052 43EA0253 		orr	r3, r3, r2, lsl #20
 342              	.LVL24:
 336:./Libraries/STM32F4xx_HAL_Driver/Src/stm32f4xx_ll_fmc.c ****     Device->BTCR[FMC_NORSRAM_BANK1 + 1U] = tmpr;
 343              		.loc 1 336 5 is_stmt 1 view .LVU130
 344              		.loc 1 336 42 is_stmt 0 view .LVU131
 345 0056 4360     		str	r3, [r0, #4]
 346              	.LVL25:
 347              	.L13:
 337:./Libraries/STM32F4xx_HAL_Driver/Src/stm32f4xx_ll_fmc.c ****   }  
 338:./Libraries/STM32F4xx_HAL_Driver/Src/stm32f4xx_ll_fmc.c ****   
 339:./Libraries/STM32F4xx_HAL_Driver/Src/stm32f4xx_ll_fmc.c ****   return HAL_OK;   
 348              		.loc 1 339 3 is_stmt 1 view .LVU132
 340:./Libraries/STM32F4xx_HAL_Driver/Src/stm32f4xx_ll_fmc.c **** }
 349              		.loc 1 340 1 is_stmt 0 view .LVU133
 350 0058 0020     		movs	r0, #0
 351              	.LVL26:
 352              		.loc 1 340 1 view .LVU134
 353 005a 10BD     		pop	{r4, pc}
 354              		.cfi_endproc
 355              	.LFE128:
 357              		.section	.text.FMC_NORSRAM_Extended_Timing_Init,"ax",%progbits
 358              		.align	1
 359              		.global	FMC_NORSRAM_Extended_Timing_Init
 360              		.syntax unified
 361              		.thumb
 362              		.thumb_func
 363              		.fpu fpv4-sp-d16
 365              	FMC_NORSRAM_Extended_Timing_Init:
 366              	.LVL27:
 367              	.LFB129:
 341:./Libraries/STM32F4xx_HAL_Driver/Src/stm32f4xx_ll_fmc.c **** 
 342:./Libraries/STM32F4xx_HAL_Driver/Src/stm32f4xx_ll_fmc.c **** /**
 343:./Libraries/STM32F4xx_HAL_Driver/Src/stm32f4xx_ll_fmc.c ****   * @brief  Initialize the FMC_NORSRAM Extended mode Timing according to the specified
 344:./Libraries/STM32F4xx_HAL_Driver/Src/stm32f4xx_ll_fmc.c ****   *         parameters in the FMC_NORSRAM_TimingTypeDef
 345:./Libraries/STM32F4xx_HAL_Driver/Src/stm32f4xx_ll_fmc.c ****   * @param  Device Pointer to NORSRAM device instance
 346:./Libraries/STM32F4xx_HAL_Driver/Src/stm32f4xx_ll_fmc.c ****   * @param  Timing Pointer to NORSRAM Timing structure
 347:./Libraries/STM32F4xx_HAL_Driver/Src/stm32f4xx_ll_fmc.c ****   * @param  Bank NORSRAM bank number  
 348:./Libraries/STM32F4xx_HAL_Driver/Src/stm32f4xx_ll_fmc.c ****   * @retval HAL status
 349:./Libraries/STM32F4xx_HAL_Driver/Src/stm32f4xx_ll_fmc.c ****   */
 350:./Libraries/STM32F4xx_HAL_Driver/Src/stm32f4xx_ll_fmc.c **** HAL_StatusTypeDef  FMC_NORSRAM_Extended_Timing_Init(FMC_NORSRAM_EXTENDED_TypeDef *Device, FMC_NORSR
 351:./Libraries/STM32F4xx_HAL_Driver/Src/stm32f4xx_ll_fmc.c **** {  
 368              		.loc 1 351 1 is_stmt 1 view -0
 369              		.cfi_startproc
ARM GAS  /tmp/cczcFqK2.s 			page 14


 370              		@ args = 0, pretend = 0, frame = 0
 371              		@ frame_needed = 0, uses_anonymous_args = 0
 372              		@ link register save eliminated.
 352:./Libraries/STM32F4xx_HAL_Driver/Src/stm32f4xx_ll_fmc.c ****   uint32_t tmpr = 0U;
 373              		.loc 1 352 3 view .LVU136
 353:./Libraries/STM32F4xx_HAL_Driver/Src/stm32f4xx_ll_fmc.c ****  
 354:./Libraries/STM32F4xx_HAL_Driver/Src/stm32f4xx_ll_fmc.c ****   /* Check the parameters */
 355:./Libraries/STM32F4xx_HAL_Driver/Src/stm32f4xx_ll_fmc.c ****   assert_param(IS_FMC_EXTENDED_MODE(ExtendedMode));
 374              		.loc 1 355 3 view .LVU137
 356:./Libraries/STM32F4xx_HAL_Driver/Src/stm32f4xx_ll_fmc.c ****   
 357:./Libraries/STM32F4xx_HAL_Driver/Src/stm32f4xx_ll_fmc.c ****   /* Set NORSRAM device timing register for write configuration, if extended mode is used */
 358:./Libraries/STM32F4xx_HAL_Driver/Src/stm32f4xx_ll_fmc.c ****   if(ExtendedMode == FMC_EXTENDED_MODE_ENABLE)
 375              		.loc 1 358 3 view .LVU138
 376              		.loc 1 358 5 is_stmt 0 view .LVU139
 377 0000 B3F5804F 		cmp	r3, #16384
 378 0004 05D0     		beq	.L22
 359:./Libraries/STM32F4xx_HAL_Driver/Src/stm32f4xx_ll_fmc.c ****   {
 360:./Libraries/STM32F4xx_HAL_Driver/Src/stm32f4xx_ll_fmc.c ****     /* Check the parameters */
 361:./Libraries/STM32F4xx_HAL_Driver/Src/stm32f4xx_ll_fmc.c ****     assert_param(IS_FMC_NORSRAM_EXTENDED_DEVICE(Device));  
 362:./Libraries/STM32F4xx_HAL_Driver/Src/stm32f4xx_ll_fmc.c ****     assert_param(IS_FMC_ADDRESS_SETUP_TIME(Timing->AddressSetupTime));
 363:./Libraries/STM32F4xx_HAL_Driver/Src/stm32f4xx_ll_fmc.c ****     assert_param(IS_FMC_ADDRESS_HOLD_TIME(Timing->AddressHoldTime));
 364:./Libraries/STM32F4xx_HAL_Driver/Src/stm32f4xx_ll_fmc.c ****     assert_param(IS_FMC_DATASETUP_TIME(Timing->DataSetupTime));
 365:./Libraries/STM32F4xx_HAL_Driver/Src/stm32f4xx_ll_fmc.c ****     assert_param(IS_FMC_TURNAROUND_TIME(Timing->BusTurnAroundDuration));
 366:./Libraries/STM32F4xx_HAL_Driver/Src/stm32f4xx_ll_fmc.c ****     assert_param(IS_FMC_ACCESS_MODE(Timing->AccessMode));
 367:./Libraries/STM32F4xx_HAL_Driver/Src/stm32f4xx_ll_fmc.c ****     assert_param(IS_FMC_NORSRAM_BANK(Bank));  
 368:./Libraries/STM32F4xx_HAL_Driver/Src/stm32f4xx_ll_fmc.c ****     
 369:./Libraries/STM32F4xx_HAL_Driver/Src/stm32f4xx_ll_fmc.c ****     /* Get the BWTR register value */
 370:./Libraries/STM32F4xx_HAL_Driver/Src/stm32f4xx_ll_fmc.c ****     tmpr = Device->BWTR[Bank];
 371:./Libraries/STM32F4xx_HAL_Driver/Src/stm32f4xx_ll_fmc.c **** 
 372:./Libraries/STM32F4xx_HAL_Driver/Src/stm32f4xx_ll_fmc.c ****     /* Clear ADDSET, ADDHLD, DATAST, BUSTURN and ACCMOD bits */
 373:./Libraries/STM32F4xx_HAL_Driver/Src/stm32f4xx_ll_fmc.c ****     tmpr &= ((uint32_t)~(FMC_BWTR1_ADDSET  | FMC_BWTR1_ADDHLD | FMC_BWTR1_DATAST | \
 374:./Libraries/STM32F4xx_HAL_Driver/Src/stm32f4xx_ll_fmc.c ****                          FMC_BWTR1_BUSTURN | FMC_BWTR1_ACCMOD));
 375:./Libraries/STM32F4xx_HAL_Driver/Src/stm32f4xx_ll_fmc.c ****     
 376:./Libraries/STM32F4xx_HAL_Driver/Src/stm32f4xx_ll_fmc.c ****     tmpr |= (uint32_t)(Timing->AddressSetupTime                  |\
 377:./Libraries/STM32F4xx_HAL_Driver/Src/stm32f4xx_ll_fmc.c ****                       ((Timing->AddressHoldTime) << 4U)          |\
 378:./Libraries/STM32F4xx_HAL_Driver/Src/stm32f4xx_ll_fmc.c ****                       ((Timing->DataSetupTime) << 8U)            |\
 379:./Libraries/STM32F4xx_HAL_Driver/Src/stm32f4xx_ll_fmc.c ****                       ((Timing->BusTurnAroundDuration) << 16U)   |\
 380:./Libraries/STM32F4xx_HAL_Driver/Src/stm32f4xx_ll_fmc.c ****                       (Timing->AccessMode));
 381:./Libraries/STM32F4xx_HAL_Driver/Src/stm32f4xx_ll_fmc.c **** 
 382:./Libraries/STM32F4xx_HAL_Driver/Src/stm32f4xx_ll_fmc.c ****     Device->BWTR[Bank] = tmpr;
 383:./Libraries/STM32F4xx_HAL_Driver/Src/stm32f4xx_ll_fmc.c ****   }
 384:./Libraries/STM32F4xx_HAL_Driver/Src/stm32f4xx_ll_fmc.c ****   else
 385:./Libraries/STM32F4xx_HAL_Driver/Src/stm32f4xx_ll_fmc.c ****   {
 386:./Libraries/STM32F4xx_HAL_Driver/Src/stm32f4xx_ll_fmc.c ****     Device->BWTR[Bank] = 0x0FFFFFFFU;
 379              		.loc 1 386 5 is_stmt 1 view .LVU140
 380              		.loc 1 386 24 is_stmt 0 view .LVU141
 381 0006 6FF07043 		mvn	r3, #-268435456
 382              	.LVL28:
 383              		.loc 1 386 24 view .LVU142
 384 000a 40F82230 		str	r3, [r0, r2, lsl #2]
 387:./Libraries/STM32F4xx_HAL_Driver/Src/stm32f4xx_ll_fmc.c ****   }   
 388:./Libraries/STM32F4xx_HAL_Driver/Src/stm32f4xx_ll_fmc.c ****   
 389:./Libraries/STM32F4xx_HAL_Driver/Src/stm32f4xx_ll_fmc.c ****   return HAL_OK;  
 385              		.loc 1 389 3 is_stmt 1 view .LVU143
 390:./Libraries/STM32F4xx_HAL_Driver/Src/stm32f4xx_ll_fmc.c **** }
 386              		.loc 1 390 1 is_stmt 0 view .LVU144
 387 000e 0020     		movs	r0, #0
ARM GAS  /tmp/cczcFqK2.s 			page 15


 388              	.LVL29:
 389              		.loc 1 390 1 view .LVU145
 390 0010 7047     		bx	lr
 391              	.LVL30:
 392              	.L22:
 351:./Libraries/STM32F4xx_HAL_Driver/Src/stm32f4xx_ll_fmc.c ****   uint32_t tmpr = 0U;
 393              		.loc 1 351 1 view .LVU146
 394 0012 30B4     		push	{r4, r5}
 395              	.LCFI4:
 396              		.cfi_def_cfa_offset 8
 397              		.cfi_offset 4, -8
 398              		.cfi_offset 5, -4
 361:./Libraries/STM32F4xx_HAL_Driver/Src/stm32f4xx_ll_fmc.c ****     assert_param(IS_FMC_ADDRESS_SETUP_TIME(Timing->AddressSetupTime));
 399              		.loc 1 361 5 is_stmt 1 view .LVU147
 362:./Libraries/STM32F4xx_HAL_Driver/Src/stm32f4xx_ll_fmc.c ****     assert_param(IS_FMC_ADDRESS_HOLD_TIME(Timing->AddressHoldTime));
 400              		.loc 1 362 5 view .LVU148
 363:./Libraries/STM32F4xx_HAL_Driver/Src/stm32f4xx_ll_fmc.c ****     assert_param(IS_FMC_DATASETUP_TIME(Timing->DataSetupTime));
 401              		.loc 1 363 5 view .LVU149
 364:./Libraries/STM32F4xx_HAL_Driver/Src/stm32f4xx_ll_fmc.c ****     assert_param(IS_FMC_TURNAROUND_TIME(Timing->BusTurnAroundDuration));
 402              		.loc 1 364 5 view .LVU150
 365:./Libraries/STM32F4xx_HAL_Driver/Src/stm32f4xx_ll_fmc.c ****     assert_param(IS_FMC_ACCESS_MODE(Timing->AccessMode));
 403              		.loc 1 365 5 view .LVU151
 366:./Libraries/STM32F4xx_HAL_Driver/Src/stm32f4xx_ll_fmc.c ****     assert_param(IS_FMC_NORSRAM_BANK(Bank));  
 404              		.loc 1 366 5 view .LVU152
 367:./Libraries/STM32F4xx_HAL_Driver/Src/stm32f4xx_ll_fmc.c ****     
 405              		.loc 1 367 5 view .LVU153
 370:./Libraries/STM32F4xx_HAL_Driver/Src/stm32f4xx_ll_fmc.c **** 
 406              		.loc 1 370 5 view .LVU154
 370:./Libraries/STM32F4xx_HAL_Driver/Src/stm32f4xx_ll_fmc.c **** 
 407              		.loc 1 370 10 is_stmt 0 view .LVU155
 408 0014 50F82230 		ldr	r3, [r0, r2, lsl #2]
 409              	.LVL31:
 373:./Libraries/STM32F4xx_HAL_Driver/Src/stm32f4xx_ll_fmc.c ****                          FMC_BWTR1_BUSTURN | FMC_BWTR1_ACCMOD));
 410              		.loc 1 373 5 is_stmt 1 view .LVU156
 373:./Libraries/STM32F4xx_HAL_Driver/Src/stm32f4xx_ll_fmc.c ****                          FMC_BWTR1_BUSTURN | FMC_BWTR1_ACCMOD));
 411              		.loc 1 373 10 is_stmt 0 view .LVU157
 412 0018 094C     		ldr	r4, .L23
 413 001a 1C40     		ands	r4, r4, r3
 414              	.LVL32:
 376:./Libraries/STM32F4xx_HAL_Driver/Src/stm32f4xx_ll_fmc.c ****                       ((Timing->AddressHoldTime) << 4U)          |\
 415              		.loc 1 376 5 is_stmt 1 view .LVU158
 376:./Libraries/STM32F4xx_HAL_Driver/Src/stm32f4xx_ll_fmc.c ****                       ((Timing->AddressHoldTime) << 4U)          |\
 416              		.loc 1 376 30 is_stmt 0 view .LVU159
 417 001c 0B68     		ldr	r3, [r1]
 376:./Libraries/STM32F4xx_HAL_Driver/Src/stm32f4xx_ll_fmc.c ****                       ((Timing->AddressHoldTime) << 4U)          |\
 418              		.loc 1 376 66 view .LVU160
 419 001e 4D68     		ldr	r5, [r1, #4]
 420 0020 43EA0513 		orr	r3, r3, r5, lsl #4
 377:./Libraries/STM32F4xx_HAL_Driver/Src/stm32f4xx_ll_fmc.c ****                       ((Timing->DataSetupTime) << 8U)            |\
 421              		.loc 1 377 66 view .LVU161
 422 0024 8D68     		ldr	r5, [r1, #8]
 423 0026 43EA0523 		orr	r3, r3, r5, lsl #8
 378:./Libraries/STM32F4xx_HAL_Driver/Src/stm32f4xx_ll_fmc.c ****                       ((Timing->BusTurnAroundDuration) << 16U)   |\
 424              		.loc 1 378 66 view .LVU162
 425 002a CD68     		ldr	r5, [r1, #12]
 426 002c 43EA0543 		orr	r3, r3, r5, lsl #16
 380:./Libraries/STM32F4xx_HAL_Driver/Src/stm32f4xx_ll_fmc.c **** 
ARM GAS  /tmp/cczcFqK2.s 			page 16


 427              		.loc 1 380 30 view .LVU163
 428 0030 8969     		ldr	r1, [r1, #24]
 429              	.LVL33:
 379:./Libraries/STM32F4xx_HAL_Driver/Src/stm32f4xx_ll_fmc.c ****                       (Timing->AccessMode));
 430              		.loc 1 379 66 view .LVU164
 431 0032 0B43     		orrs	r3, r3, r1
 376:./Libraries/STM32F4xx_HAL_Driver/Src/stm32f4xx_ll_fmc.c ****                       ((Timing->AddressHoldTime) << 4U)          |\
 432              		.loc 1 376 10 view .LVU165
 433 0034 2343     		orrs	r3, r3, r4
 434              	.LVL34:
 382:./Libraries/STM32F4xx_HAL_Driver/Src/stm32f4xx_ll_fmc.c ****   }
 435              		.loc 1 382 5 is_stmt 1 view .LVU166
 382:./Libraries/STM32F4xx_HAL_Driver/Src/stm32f4xx_ll_fmc.c ****   }
 436              		.loc 1 382 24 is_stmt 0 view .LVU167
 437 0036 40F82230 		str	r3, [r0, r2, lsl #2]
 389:./Libraries/STM32F4xx_HAL_Driver/Src/stm32f4xx_ll_fmc.c **** }
 438              		.loc 1 389 3 is_stmt 1 view .LVU168
 439              		.loc 1 390 1 is_stmt 0 view .LVU169
 440 003a 0020     		movs	r0, #0
 441              	.LVL35:
 442              		.loc 1 390 1 view .LVU170
 443 003c 30BC     		pop	{r4, r5}
 444              	.LCFI5:
 445              		.cfi_restore 5
 446              		.cfi_restore 4
 447              		.cfi_def_cfa_offset 0
 448 003e 7047     		bx	lr
 449              	.L24:
 450              		.align	2
 451              	.L23:
 452 0040 0000F0CF 		.word	-806354944
 453              		.cfi_endproc
 454              	.LFE129:
 456              		.section	.text.FMC_NORSRAM_WriteOperation_Enable,"ax",%progbits
 457              		.align	1
 458              		.global	FMC_NORSRAM_WriteOperation_Enable
 459              		.syntax unified
 460              		.thumb
 461              		.thumb_func
 462              		.fpu fpv4-sp-d16
 464              	FMC_NORSRAM_WriteOperation_Enable:
 465              	.LVL36:
 466              	.LFB130:
 391:./Libraries/STM32F4xx_HAL_Driver/Src/stm32f4xx_ll_fmc.c **** /**
 392:./Libraries/STM32F4xx_HAL_Driver/Src/stm32f4xx_ll_fmc.c ****   * @}
 393:./Libraries/STM32F4xx_HAL_Driver/Src/stm32f4xx_ll_fmc.c ****   */
 394:./Libraries/STM32F4xx_HAL_Driver/Src/stm32f4xx_ll_fmc.c ****   
 395:./Libraries/STM32F4xx_HAL_Driver/Src/stm32f4xx_ll_fmc.c **** /** @addtogroup FMC_LL_NORSRAM_Private_Functions_Group2
 396:./Libraries/STM32F4xx_HAL_Driver/Src/stm32f4xx_ll_fmc.c ****  *  @brief   management functions 
 397:./Libraries/STM32F4xx_HAL_Driver/Src/stm32f4xx_ll_fmc.c ****  *
 398:./Libraries/STM32F4xx_HAL_Driver/Src/stm32f4xx_ll_fmc.c **** @verbatim   
 399:./Libraries/STM32F4xx_HAL_Driver/Src/stm32f4xx_ll_fmc.c ****   ==============================================================================
 400:./Libraries/STM32F4xx_HAL_Driver/Src/stm32f4xx_ll_fmc.c ****                       ##### FMC_NORSRAM Control functions #####
 401:./Libraries/STM32F4xx_HAL_Driver/Src/stm32f4xx_ll_fmc.c ****   ==============================================================================  
 402:./Libraries/STM32F4xx_HAL_Driver/Src/stm32f4xx_ll_fmc.c ****   [..]
 403:./Libraries/STM32F4xx_HAL_Driver/Src/stm32f4xx_ll_fmc.c ****     This subsection provides a set of functions allowing to control dynamically
 404:./Libraries/STM32F4xx_HAL_Driver/Src/stm32f4xx_ll_fmc.c ****     the FMC NORSRAM interface.
ARM GAS  /tmp/cczcFqK2.s 			page 17


 405:./Libraries/STM32F4xx_HAL_Driver/Src/stm32f4xx_ll_fmc.c **** 
 406:./Libraries/STM32F4xx_HAL_Driver/Src/stm32f4xx_ll_fmc.c **** @endverbatim
 407:./Libraries/STM32F4xx_HAL_Driver/Src/stm32f4xx_ll_fmc.c ****   * @{
 408:./Libraries/STM32F4xx_HAL_Driver/Src/stm32f4xx_ll_fmc.c ****   */
 409:./Libraries/STM32F4xx_HAL_Driver/Src/stm32f4xx_ll_fmc.c **** /**
 410:./Libraries/STM32F4xx_HAL_Driver/Src/stm32f4xx_ll_fmc.c ****   * @brief  Enables dynamically FMC_NORSRAM write operation.
 411:./Libraries/STM32F4xx_HAL_Driver/Src/stm32f4xx_ll_fmc.c ****   * @param  Device Pointer to NORSRAM device instance
 412:./Libraries/STM32F4xx_HAL_Driver/Src/stm32f4xx_ll_fmc.c ****   * @param  Bank NORSRAM bank number   
 413:./Libraries/STM32F4xx_HAL_Driver/Src/stm32f4xx_ll_fmc.c ****   * @retval HAL status
 414:./Libraries/STM32F4xx_HAL_Driver/Src/stm32f4xx_ll_fmc.c ****   */
 415:./Libraries/STM32F4xx_HAL_Driver/Src/stm32f4xx_ll_fmc.c **** HAL_StatusTypeDef FMC_NORSRAM_WriteOperation_Enable(FMC_NORSRAM_TypeDef *Device, uint32_t Bank)
 416:./Libraries/STM32F4xx_HAL_Driver/Src/stm32f4xx_ll_fmc.c **** {
 467              		.loc 1 416 1 is_stmt 1 view -0
 468              		.cfi_startproc
 469              		@ args = 0, pretend = 0, frame = 0
 470              		@ frame_needed = 0, uses_anonymous_args = 0
 471              		@ link register save eliminated.
 417:./Libraries/STM32F4xx_HAL_Driver/Src/stm32f4xx_ll_fmc.c ****   /* Check the parameters */
 418:./Libraries/STM32F4xx_HAL_Driver/Src/stm32f4xx_ll_fmc.c ****   assert_param(IS_FMC_NORSRAM_DEVICE(Device));
 472              		.loc 1 418 3 view .LVU172
 419:./Libraries/STM32F4xx_HAL_Driver/Src/stm32f4xx_ll_fmc.c ****   assert_param(IS_FMC_NORSRAM_BANK(Bank));
 473              		.loc 1 419 3 view .LVU173
 420:./Libraries/STM32F4xx_HAL_Driver/Src/stm32f4xx_ll_fmc.c ****   
 421:./Libraries/STM32F4xx_HAL_Driver/Src/stm32f4xx_ll_fmc.c ****   /* Enable write operation */
 422:./Libraries/STM32F4xx_HAL_Driver/Src/stm32f4xx_ll_fmc.c ****   Device->BTCR[Bank] |= FMC_WRITE_OPERATION_ENABLE; 
 474              		.loc 1 422 3 view .LVU174
 475              		.loc 1 422 22 is_stmt 0 view .LVU175
 476 0000 50F82130 		ldr	r3, [r0, r1, lsl #2]
 477 0004 43F48053 		orr	r3, r3, #4096
 478 0008 40F82130 		str	r3, [r0, r1, lsl #2]
 423:./Libraries/STM32F4xx_HAL_Driver/Src/stm32f4xx_ll_fmc.c **** 
 424:./Libraries/STM32F4xx_HAL_Driver/Src/stm32f4xx_ll_fmc.c ****   return HAL_OK;  
 479              		.loc 1 424 3 is_stmt 1 view .LVU176
 425:./Libraries/STM32F4xx_HAL_Driver/Src/stm32f4xx_ll_fmc.c **** }
 480              		.loc 1 425 1 is_stmt 0 view .LVU177
 481 000c 0020     		movs	r0, #0
 482              	.LVL37:
 483              		.loc 1 425 1 view .LVU178
 484 000e 7047     		bx	lr
 485              		.cfi_endproc
 486              	.LFE130:
 488              		.section	.text.FMC_NORSRAM_WriteOperation_Disable,"ax",%progbits
 489              		.align	1
 490              		.global	FMC_NORSRAM_WriteOperation_Disable
 491              		.syntax unified
 492              		.thumb
 493              		.thumb_func
 494              		.fpu fpv4-sp-d16
 496              	FMC_NORSRAM_WriteOperation_Disable:
 497              	.LVL38:
 498              	.LFB131:
 426:./Libraries/STM32F4xx_HAL_Driver/Src/stm32f4xx_ll_fmc.c **** 
 427:./Libraries/STM32F4xx_HAL_Driver/Src/stm32f4xx_ll_fmc.c **** /**
 428:./Libraries/STM32F4xx_HAL_Driver/Src/stm32f4xx_ll_fmc.c ****   * @brief  Disables dynamically FMC_NORSRAM write operation.
 429:./Libraries/STM32F4xx_HAL_Driver/Src/stm32f4xx_ll_fmc.c ****   * @param  Device Pointer to NORSRAM device instance
 430:./Libraries/STM32F4xx_HAL_Driver/Src/stm32f4xx_ll_fmc.c ****   * @param  Bank NORSRAM bank number   
 431:./Libraries/STM32F4xx_HAL_Driver/Src/stm32f4xx_ll_fmc.c ****   * @retval HAL status
ARM GAS  /tmp/cczcFqK2.s 			page 18


 432:./Libraries/STM32F4xx_HAL_Driver/Src/stm32f4xx_ll_fmc.c ****   */
 433:./Libraries/STM32F4xx_HAL_Driver/Src/stm32f4xx_ll_fmc.c **** HAL_StatusTypeDef FMC_NORSRAM_WriteOperation_Disable(FMC_NORSRAM_TypeDef *Device, uint32_t Bank)
 434:./Libraries/STM32F4xx_HAL_Driver/Src/stm32f4xx_ll_fmc.c **** { 
 499              		.loc 1 434 1 is_stmt 1 view -0
 500              		.cfi_startproc
 501              		@ args = 0, pretend = 0, frame = 0
 502              		@ frame_needed = 0, uses_anonymous_args = 0
 503              		@ link register save eliminated.
 435:./Libraries/STM32F4xx_HAL_Driver/Src/stm32f4xx_ll_fmc.c ****   /* Check the parameters */
 436:./Libraries/STM32F4xx_HAL_Driver/Src/stm32f4xx_ll_fmc.c ****   assert_param(IS_FMC_NORSRAM_DEVICE(Device));
 504              		.loc 1 436 3 view .LVU180
 437:./Libraries/STM32F4xx_HAL_Driver/Src/stm32f4xx_ll_fmc.c ****   assert_param(IS_FMC_NORSRAM_BANK(Bank));
 505              		.loc 1 437 3 view .LVU181
 438:./Libraries/STM32F4xx_HAL_Driver/Src/stm32f4xx_ll_fmc.c ****     
 439:./Libraries/STM32F4xx_HAL_Driver/Src/stm32f4xx_ll_fmc.c ****   /* Disable write operation */
 440:./Libraries/STM32F4xx_HAL_Driver/Src/stm32f4xx_ll_fmc.c ****   Device->BTCR[Bank] &= ~FMC_WRITE_OPERATION_ENABLE; 
 506              		.loc 1 440 3 view .LVU182
 507              		.loc 1 440 22 is_stmt 0 view .LVU183
 508 0000 50F82130 		ldr	r3, [r0, r1, lsl #2]
 509 0004 23F48053 		bic	r3, r3, #4096
 510 0008 40F82130 		str	r3, [r0, r1, lsl #2]
 441:./Libraries/STM32F4xx_HAL_Driver/Src/stm32f4xx_ll_fmc.c **** 
 442:./Libraries/STM32F4xx_HAL_Driver/Src/stm32f4xx_ll_fmc.c ****   return HAL_OK;  
 511              		.loc 1 442 3 is_stmt 1 view .LVU184
 443:./Libraries/STM32F4xx_HAL_Driver/Src/stm32f4xx_ll_fmc.c **** }
 512              		.loc 1 443 1 is_stmt 0 view .LVU185
 513 000c 0020     		movs	r0, #0
 514              	.LVL39:
 515              		.loc 1 443 1 view .LVU186
 516 000e 7047     		bx	lr
 517              		.cfi_endproc
 518              	.LFE131:
 520              		.section	.text.FMC_NAND_Init,"ax",%progbits
 521              		.align	1
 522              		.global	FMC_NAND_Init
 523              		.syntax unified
 524              		.thumb
 525              		.thumb_func
 526              		.fpu fpv4-sp-d16
 528              	FMC_NAND_Init:
 529              	.LVL40:
 530              	.LFB132:
 444:./Libraries/STM32F4xx_HAL_Driver/Src/stm32f4xx_ll_fmc.c **** 
 445:./Libraries/STM32F4xx_HAL_Driver/Src/stm32f4xx_ll_fmc.c **** /**
 446:./Libraries/STM32F4xx_HAL_Driver/Src/stm32f4xx_ll_fmc.c ****   * @}
 447:./Libraries/STM32F4xx_HAL_Driver/Src/stm32f4xx_ll_fmc.c ****   */
 448:./Libraries/STM32F4xx_HAL_Driver/Src/stm32f4xx_ll_fmc.c **** 
 449:./Libraries/STM32F4xx_HAL_Driver/Src/stm32f4xx_ll_fmc.c **** /**
 450:./Libraries/STM32F4xx_HAL_Driver/Src/stm32f4xx_ll_fmc.c ****   * @}
 451:./Libraries/STM32F4xx_HAL_Driver/Src/stm32f4xx_ll_fmc.c ****   */
 452:./Libraries/STM32F4xx_HAL_Driver/Src/stm32f4xx_ll_fmc.c **** 
 453:./Libraries/STM32F4xx_HAL_Driver/Src/stm32f4xx_ll_fmc.c **** /** @addtogroup FMC_LL_NAND
 454:./Libraries/STM32F4xx_HAL_Driver/Src/stm32f4xx_ll_fmc.c ****   * @brief    NAND Controller functions 
 455:./Libraries/STM32F4xx_HAL_Driver/Src/stm32f4xx_ll_fmc.c ****   *
 456:./Libraries/STM32F4xx_HAL_Driver/Src/stm32f4xx_ll_fmc.c ****   @verbatim 
 457:./Libraries/STM32F4xx_HAL_Driver/Src/stm32f4xx_ll_fmc.c ****   ==============================================================================
 458:./Libraries/STM32F4xx_HAL_Driver/Src/stm32f4xx_ll_fmc.c ****                     ##### How to use NAND device driver #####
ARM GAS  /tmp/cczcFqK2.s 			page 19


 459:./Libraries/STM32F4xx_HAL_Driver/Src/stm32f4xx_ll_fmc.c ****   ==============================================================================
 460:./Libraries/STM32F4xx_HAL_Driver/Src/stm32f4xx_ll_fmc.c ****   [..]
 461:./Libraries/STM32F4xx_HAL_Driver/Src/stm32f4xx_ll_fmc.c ****     This driver contains a set of APIs to interface with the FMC NAND banks in order
 462:./Libraries/STM32F4xx_HAL_Driver/Src/stm32f4xx_ll_fmc.c ****     to run the NAND external devices.
 463:./Libraries/STM32F4xx_HAL_Driver/Src/stm32f4xx_ll_fmc.c ****   
 464:./Libraries/STM32F4xx_HAL_Driver/Src/stm32f4xx_ll_fmc.c ****     (+) FMC NAND bank reset using the function FMC_NAND_DeInit() 
 465:./Libraries/STM32F4xx_HAL_Driver/Src/stm32f4xx_ll_fmc.c ****     (+) FMC NAND bank control configuration using the function FMC_NAND_Init()
 466:./Libraries/STM32F4xx_HAL_Driver/Src/stm32f4xx_ll_fmc.c ****     (+) FMC NAND bank common space timing configuration using the function 
 467:./Libraries/STM32F4xx_HAL_Driver/Src/stm32f4xx_ll_fmc.c ****         FMC_NAND_CommonSpace_Timing_Init()
 468:./Libraries/STM32F4xx_HAL_Driver/Src/stm32f4xx_ll_fmc.c ****     (+) FMC NAND bank attribute space timing configuration using the function 
 469:./Libraries/STM32F4xx_HAL_Driver/Src/stm32f4xx_ll_fmc.c ****         FMC_NAND_AttributeSpace_Timing_Init()
 470:./Libraries/STM32F4xx_HAL_Driver/Src/stm32f4xx_ll_fmc.c ****     (+) FMC NAND bank enable/disable ECC correction feature using the functions
 471:./Libraries/STM32F4xx_HAL_Driver/Src/stm32f4xx_ll_fmc.c ****         FMC_NAND_ECC_Enable()/FMC_NAND_ECC_Disable()
 472:./Libraries/STM32F4xx_HAL_Driver/Src/stm32f4xx_ll_fmc.c ****     (+) FMC NAND bank get ECC correction code using the function FMC_NAND_GetECC()    
 473:./Libraries/STM32F4xx_HAL_Driver/Src/stm32f4xx_ll_fmc.c **** 
 474:./Libraries/STM32F4xx_HAL_Driver/Src/stm32f4xx_ll_fmc.c **** @endverbatim
 475:./Libraries/STM32F4xx_HAL_Driver/Src/stm32f4xx_ll_fmc.c ****   * @{
 476:./Libraries/STM32F4xx_HAL_Driver/Src/stm32f4xx_ll_fmc.c ****   */
 477:./Libraries/STM32F4xx_HAL_Driver/Src/stm32f4xx_ll_fmc.c ****  
 478:./Libraries/STM32F4xx_HAL_Driver/Src/stm32f4xx_ll_fmc.c **** #if defined(STM32F446xx) || defined(STM32F469xx) || defined(STM32F479xx)
 479:./Libraries/STM32F4xx_HAL_Driver/Src/stm32f4xx_ll_fmc.c **** /** @defgroup HAL_FMC_NAND_Group1 Initialization/de-initialization functions 
 480:./Libraries/STM32F4xx_HAL_Driver/Src/stm32f4xx_ll_fmc.c ****  *  @brief    Initialization and Configuration functions 
 481:./Libraries/STM32F4xx_HAL_Driver/Src/stm32f4xx_ll_fmc.c ****  *
 482:./Libraries/STM32F4xx_HAL_Driver/Src/stm32f4xx_ll_fmc.c **** @verbatim    
 483:./Libraries/STM32F4xx_HAL_Driver/Src/stm32f4xx_ll_fmc.c ****   ==============================================================================
 484:./Libraries/STM32F4xx_HAL_Driver/Src/stm32f4xx_ll_fmc.c ****               ##### Initialization and de_initialization functions #####
 485:./Libraries/STM32F4xx_HAL_Driver/Src/stm32f4xx_ll_fmc.c ****   ==============================================================================
 486:./Libraries/STM32F4xx_HAL_Driver/Src/stm32f4xx_ll_fmc.c ****   [..]  
 487:./Libraries/STM32F4xx_HAL_Driver/Src/stm32f4xx_ll_fmc.c ****     This section provides functions allowing to:
 488:./Libraries/STM32F4xx_HAL_Driver/Src/stm32f4xx_ll_fmc.c ****     (+) Initialize and configure the FMC NAND interface
 489:./Libraries/STM32F4xx_HAL_Driver/Src/stm32f4xx_ll_fmc.c ****     (+) De-initialize the FMC NAND interface 
 490:./Libraries/STM32F4xx_HAL_Driver/Src/stm32f4xx_ll_fmc.c ****     (+) Configure the FMC clock and associated GPIOs
 491:./Libraries/STM32F4xx_HAL_Driver/Src/stm32f4xx_ll_fmc.c ****         
 492:./Libraries/STM32F4xx_HAL_Driver/Src/stm32f4xx_ll_fmc.c **** @endverbatim
 493:./Libraries/STM32F4xx_HAL_Driver/Src/stm32f4xx_ll_fmc.c ****   * @{
 494:./Libraries/STM32F4xx_HAL_Driver/Src/stm32f4xx_ll_fmc.c ****   */
 495:./Libraries/STM32F4xx_HAL_Driver/Src/stm32f4xx_ll_fmc.c **** 
 496:./Libraries/STM32F4xx_HAL_Driver/Src/stm32f4xx_ll_fmc.c **** /**
 497:./Libraries/STM32F4xx_HAL_Driver/Src/stm32f4xx_ll_fmc.c ****   * @brief  Initializes the FMC_NAND device according to the specified
 498:./Libraries/STM32F4xx_HAL_Driver/Src/stm32f4xx_ll_fmc.c ****   *         control parameters in the FMC_NAND_HandleTypeDef
 499:./Libraries/STM32F4xx_HAL_Driver/Src/stm32f4xx_ll_fmc.c ****   * @param  Device Pointer to NAND device instance
 500:./Libraries/STM32F4xx_HAL_Driver/Src/stm32f4xx_ll_fmc.c ****   * @param  Init Pointer to NAND Initialization structure
 501:./Libraries/STM32F4xx_HAL_Driver/Src/stm32f4xx_ll_fmc.c ****   * @retval HAL status
 502:./Libraries/STM32F4xx_HAL_Driver/Src/stm32f4xx_ll_fmc.c ****   */
 503:./Libraries/STM32F4xx_HAL_Driver/Src/stm32f4xx_ll_fmc.c **** HAL_StatusTypeDef FMC_NAND_Init(FMC_NAND_TypeDef *Device, FMC_NAND_InitTypeDef *Init)
 504:./Libraries/STM32F4xx_HAL_Driver/Src/stm32f4xx_ll_fmc.c **** {
 505:./Libraries/STM32F4xx_HAL_Driver/Src/stm32f4xx_ll_fmc.c ****   uint32_t tmpr  = 0U; 
 506:./Libraries/STM32F4xx_HAL_Driver/Src/stm32f4xx_ll_fmc.c ****     
 507:./Libraries/STM32F4xx_HAL_Driver/Src/stm32f4xx_ll_fmc.c ****   /* Check the parameters */
 508:./Libraries/STM32F4xx_HAL_Driver/Src/stm32f4xx_ll_fmc.c ****   assert_param(IS_FMC_NAND_DEVICE(Device));
 509:./Libraries/STM32F4xx_HAL_Driver/Src/stm32f4xx_ll_fmc.c ****   assert_param(IS_FMC_NAND_BANK(Init->NandBank));
 510:./Libraries/STM32F4xx_HAL_Driver/Src/stm32f4xx_ll_fmc.c ****   assert_param(IS_FMC_WAIT_FEATURE(Init->Waitfeature));
 511:./Libraries/STM32F4xx_HAL_Driver/Src/stm32f4xx_ll_fmc.c ****   assert_param(IS_FMC_NAND_MEMORY_WIDTH(Init->MemoryDataWidth));
 512:./Libraries/STM32F4xx_HAL_Driver/Src/stm32f4xx_ll_fmc.c ****   assert_param(IS_FMC_ECC_STATE(Init->EccComputation));
 513:./Libraries/STM32F4xx_HAL_Driver/Src/stm32f4xx_ll_fmc.c ****   assert_param(IS_FMC_ECCPAGE_SIZE(Init->ECCPageSize));
 514:./Libraries/STM32F4xx_HAL_Driver/Src/stm32f4xx_ll_fmc.c ****   assert_param(IS_FMC_TCLR_TIME(Init->TCLRSetupTime));
 515:./Libraries/STM32F4xx_HAL_Driver/Src/stm32f4xx_ll_fmc.c ****   assert_param(IS_FMC_TAR_TIME(Init->TARSetupTime));   
ARM GAS  /tmp/cczcFqK2.s 			page 20


 516:./Libraries/STM32F4xx_HAL_Driver/Src/stm32f4xx_ll_fmc.c ****   
 517:./Libraries/STM32F4xx_HAL_Driver/Src/stm32f4xx_ll_fmc.c ****   /* Get the NAND bank register value */
 518:./Libraries/STM32F4xx_HAL_Driver/Src/stm32f4xx_ll_fmc.c ****   tmpr = Device->PCR;
 519:./Libraries/STM32F4xx_HAL_Driver/Src/stm32f4xx_ll_fmc.c ****   
 520:./Libraries/STM32F4xx_HAL_Driver/Src/stm32f4xx_ll_fmc.c ****   /* Clear PWAITEN, PBKEN, PTYP, PWID, ECCEN, TCLR, TAR and ECCPS bits */
 521:./Libraries/STM32F4xx_HAL_Driver/Src/stm32f4xx_ll_fmc.c ****   tmpr &= ((uint32_t)~(FMC_PCR_PWAITEN  | FMC_PCR_PBKEN | FMC_PCR_PTYP | \
 522:./Libraries/STM32F4xx_HAL_Driver/Src/stm32f4xx_ll_fmc.c ****                        FMC_PCR_PWID | FMC_PCR_ECCEN | FMC_PCR_TCLR | \
 523:./Libraries/STM32F4xx_HAL_Driver/Src/stm32f4xx_ll_fmc.c ****                        FMC_PCR_TAR | FMC_PCR_ECCPS));  
 524:./Libraries/STM32F4xx_HAL_Driver/Src/stm32f4xx_ll_fmc.c ****   
 525:./Libraries/STM32F4xx_HAL_Driver/Src/stm32f4xx_ll_fmc.c ****   /* Set NAND device control parameters */
 526:./Libraries/STM32F4xx_HAL_Driver/Src/stm32f4xx_ll_fmc.c ****   tmpr |= (uint32_t)(Init->Waitfeature                |\
 527:./Libraries/STM32F4xx_HAL_Driver/Src/stm32f4xx_ll_fmc.c ****                      FMC_PCR_MEMORY_TYPE_NAND         |\
 528:./Libraries/STM32F4xx_HAL_Driver/Src/stm32f4xx_ll_fmc.c ****                      Init->MemoryDataWidth            |\
 529:./Libraries/STM32F4xx_HAL_Driver/Src/stm32f4xx_ll_fmc.c ****                      Init->EccComputation             |\
 530:./Libraries/STM32F4xx_HAL_Driver/Src/stm32f4xx_ll_fmc.c ****                      Init->ECCPageSize                |\
 531:./Libraries/STM32F4xx_HAL_Driver/Src/stm32f4xx_ll_fmc.c ****                      ((Init->TCLRSetupTime) << 9U)    |\
 532:./Libraries/STM32F4xx_HAL_Driver/Src/stm32f4xx_ll_fmc.c ****                      ((Init->TARSetupTime) << 13U));
 533:./Libraries/STM32F4xx_HAL_Driver/Src/stm32f4xx_ll_fmc.c **** 
 534:./Libraries/STM32F4xx_HAL_Driver/Src/stm32f4xx_ll_fmc.c ****   /* NAND bank registers configuration */
 535:./Libraries/STM32F4xx_HAL_Driver/Src/stm32f4xx_ll_fmc.c ****   Device->PCR  = tmpr;
 536:./Libraries/STM32F4xx_HAL_Driver/Src/stm32f4xx_ll_fmc.c **** 
 537:./Libraries/STM32F4xx_HAL_Driver/Src/stm32f4xx_ll_fmc.c ****   return HAL_OK;
 538:./Libraries/STM32F4xx_HAL_Driver/Src/stm32f4xx_ll_fmc.c **** }
 539:./Libraries/STM32F4xx_HAL_Driver/Src/stm32f4xx_ll_fmc.c **** 
 540:./Libraries/STM32F4xx_HAL_Driver/Src/stm32f4xx_ll_fmc.c **** /**
 541:./Libraries/STM32F4xx_HAL_Driver/Src/stm32f4xx_ll_fmc.c ****   * @brief  Initializes the FMC_NAND Common space Timing according to the specified
 542:./Libraries/STM32F4xx_HAL_Driver/Src/stm32f4xx_ll_fmc.c ****   *         parameters in the FMC_NAND_PCC_TimingTypeDef
 543:./Libraries/STM32F4xx_HAL_Driver/Src/stm32f4xx_ll_fmc.c ****   * @param  Device Pointer to NAND device instance
 544:./Libraries/STM32F4xx_HAL_Driver/Src/stm32f4xx_ll_fmc.c ****   * @param  Timing Pointer to NAND timing structure
 545:./Libraries/STM32F4xx_HAL_Driver/Src/stm32f4xx_ll_fmc.c ****   * @param  Bank NAND bank number   
 546:./Libraries/STM32F4xx_HAL_Driver/Src/stm32f4xx_ll_fmc.c ****   * @retval HAL status
 547:./Libraries/STM32F4xx_HAL_Driver/Src/stm32f4xx_ll_fmc.c ****   */
 548:./Libraries/STM32F4xx_HAL_Driver/Src/stm32f4xx_ll_fmc.c **** HAL_StatusTypeDef FMC_NAND_CommonSpace_Timing_Init(FMC_NAND_TypeDef *Device, FMC_NAND_PCC_TimingTyp
 549:./Libraries/STM32F4xx_HAL_Driver/Src/stm32f4xx_ll_fmc.c **** {
 550:./Libraries/STM32F4xx_HAL_Driver/Src/stm32f4xx_ll_fmc.c ****   uint32_t tmpr = 0U;  
 551:./Libraries/STM32F4xx_HAL_Driver/Src/stm32f4xx_ll_fmc.c ****   
 552:./Libraries/STM32F4xx_HAL_Driver/Src/stm32f4xx_ll_fmc.c ****   /* Check the parameters */
 553:./Libraries/STM32F4xx_HAL_Driver/Src/stm32f4xx_ll_fmc.c ****   assert_param(IS_FMC_NAND_DEVICE(Device));
 554:./Libraries/STM32F4xx_HAL_Driver/Src/stm32f4xx_ll_fmc.c ****   assert_param(IS_FMC_SETUP_TIME(Timing->SetupTime));
 555:./Libraries/STM32F4xx_HAL_Driver/Src/stm32f4xx_ll_fmc.c ****   assert_param(IS_FMC_WAIT_TIME(Timing->WaitSetupTime));
 556:./Libraries/STM32F4xx_HAL_Driver/Src/stm32f4xx_ll_fmc.c ****   assert_param(IS_FMC_HOLD_TIME(Timing->HoldSetupTime));
 557:./Libraries/STM32F4xx_HAL_Driver/Src/stm32f4xx_ll_fmc.c ****   assert_param(IS_FMC_HIZ_TIME(Timing->HiZSetupTime));
 558:./Libraries/STM32F4xx_HAL_Driver/Src/stm32f4xx_ll_fmc.c ****   assert_param(IS_FMC_NAND_BANK(Bank));
 559:./Libraries/STM32F4xx_HAL_Driver/Src/stm32f4xx_ll_fmc.c ****   
 560:./Libraries/STM32F4xx_HAL_Driver/Src/stm32f4xx_ll_fmc.c ****   /* Get the NAND bank 2 register value */
 561:./Libraries/STM32F4xx_HAL_Driver/Src/stm32f4xx_ll_fmc.c ****   tmpr = Device->PMEM;
 562:./Libraries/STM32F4xx_HAL_Driver/Src/stm32f4xx_ll_fmc.c **** 
 563:./Libraries/STM32F4xx_HAL_Driver/Src/stm32f4xx_ll_fmc.c ****   
 564:./Libraries/STM32F4xx_HAL_Driver/Src/stm32f4xx_ll_fmc.c ****   /* Clear MEMSETx, MEMWAITx, MEMHOLDx and MEMHIZx bits */
 565:./Libraries/STM32F4xx_HAL_Driver/Src/stm32f4xx_ll_fmc.c ****   tmpr &= ((uint32_t)~(FMC_PMEM_MEMSET2  | FMC_PMEM_MEMWAIT2 | FMC_PMEM_MEMHOLD2 | \
 566:./Libraries/STM32F4xx_HAL_Driver/Src/stm32f4xx_ll_fmc.c ****                        FMC_PMEM_MEMHIZ2)); 
 567:./Libraries/STM32F4xx_HAL_Driver/Src/stm32f4xx_ll_fmc.c ****   
 568:./Libraries/STM32F4xx_HAL_Driver/Src/stm32f4xx_ll_fmc.c ****   /* Set FMC_NAND device timing parameters */
 569:./Libraries/STM32F4xx_HAL_Driver/Src/stm32f4xx_ll_fmc.c ****   tmpr |= (uint32_t)(Timing->SetupTime                     |\
 570:./Libraries/STM32F4xx_HAL_Driver/Src/stm32f4xx_ll_fmc.c ****                        ((Timing->WaitSetupTime) << 8U)     |\
 571:./Libraries/STM32F4xx_HAL_Driver/Src/stm32f4xx_ll_fmc.c ****                        ((Timing->HoldSetupTime) << 16U)    |\
 572:./Libraries/STM32F4xx_HAL_Driver/Src/stm32f4xx_ll_fmc.c ****                        ((Timing->HiZSetupTime) << 24U)
ARM GAS  /tmp/cczcFqK2.s 			page 21


 573:./Libraries/STM32F4xx_HAL_Driver/Src/stm32f4xx_ll_fmc.c ****                        );
 574:./Libraries/STM32F4xx_HAL_Driver/Src/stm32f4xx_ll_fmc.c ****                        
 575:./Libraries/STM32F4xx_HAL_Driver/Src/stm32f4xx_ll_fmc.c ****   /* NAND bank  registers configuration */
 576:./Libraries/STM32F4xx_HAL_Driver/Src/stm32f4xx_ll_fmc.c ****   Device->PMEM = tmpr;
 577:./Libraries/STM32F4xx_HAL_Driver/Src/stm32f4xx_ll_fmc.c **** 
 578:./Libraries/STM32F4xx_HAL_Driver/Src/stm32f4xx_ll_fmc.c ****   return HAL_OK;  
 579:./Libraries/STM32F4xx_HAL_Driver/Src/stm32f4xx_ll_fmc.c **** }
 580:./Libraries/STM32F4xx_HAL_Driver/Src/stm32f4xx_ll_fmc.c **** 
 581:./Libraries/STM32F4xx_HAL_Driver/Src/stm32f4xx_ll_fmc.c **** /**
 582:./Libraries/STM32F4xx_HAL_Driver/Src/stm32f4xx_ll_fmc.c ****   * @brief  Initializes the FMC_NAND Attribute space Timing according to the specified
 583:./Libraries/STM32F4xx_HAL_Driver/Src/stm32f4xx_ll_fmc.c ****   *         parameters in the FMC_NAND_PCC_TimingTypeDef
 584:./Libraries/STM32F4xx_HAL_Driver/Src/stm32f4xx_ll_fmc.c ****   * @param  Device Pointer to NAND device instance
 585:./Libraries/STM32F4xx_HAL_Driver/Src/stm32f4xx_ll_fmc.c ****   * @param  Timing Pointer to NAND timing structure
 586:./Libraries/STM32F4xx_HAL_Driver/Src/stm32f4xx_ll_fmc.c ****   * @param  Bank NAND bank number 
 587:./Libraries/STM32F4xx_HAL_Driver/Src/stm32f4xx_ll_fmc.c ****   * @retval HAL status
 588:./Libraries/STM32F4xx_HAL_Driver/Src/stm32f4xx_ll_fmc.c ****   */
 589:./Libraries/STM32F4xx_HAL_Driver/Src/stm32f4xx_ll_fmc.c **** HAL_StatusTypeDef FMC_NAND_AttributeSpace_Timing_Init(FMC_NAND_TypeDef *Device, FMC_NAND_PCC_Timing
 590:./Libraries/STM32F4xx_HAL_Driver/Src/stm32f4xx_ll_fmc.c **** {
 591:./Libraries/STM32F4xx_HAL_Driver/Src/stm32f4xx_ll_fmc.c ****   uint32_t tmpr = 0U;  
 592:./Libraries/STM32F4xx_HAL_Driver/Src/stm32f4xx_ll_fmc.c ****   
 593:./Libraries/STM32F4xx_HAL_Driver/Src/stm32f4xx_ll_fmc.c ****   /* Check the parameters */ 
 594:./Libraries/STM32F4xx_HAL_Driver/Src/stm32f4xx_ll_fmc.c ****   assert_param(IS_FMC_NAND_DEVICE(Device)); 
 595:./Libraries/STM32F4xx_HAL_Driver/Src/stm32f4xx_ll_fmc.c ****   assert_param(IS_FMC_SETUP_TIME(Timing->SetupTime));
 596:./Libraries/STM32F4xx_HAL_Driver/Src/stm32f4xx_ll_fmc.c ****   assert_param(IS_FMC_WAIT_TIME(Timing->WaitSetupTime));
 597:./Libraries/STM32F4xx_HAL_Driver/Src/stm32f4xx_ll_fmc.c ****   assert_param(IS_FMC_HOLD_TIME(Timing->HoldSetupTime));
 598:./Libraries/STM32F4xx_HAL_Driver/Src/stm32f4xx_ll_fmc.c ****   assert_param(IS_FMC_HIZ_TIME(Timing->HiZSetupTime));
 599:./Libraries/STM32F4xx_HAL_Driver/Src/stm32f4xx_ll_fmc.c ****   assert_param(IS_FMC_NAND_BANK(Bank));
 600:./Libraries/STM32F4xx_HAL_Driver/Src/stm32f4xx_ll_fmc.c **** 
 601:./Libraries/STM32F4xx_HAL_Driver/Src/stm32f4xx_ll_fmc.c ****   /* Get the NAND bank  register value */
 602:./Libraries/STM32F4xx_HAL_Driver/Src/stm32f4xx_ll_fmc.c ****   tmpr = Device->PATT;
 603:./Libraries/STM32F4xx_HAL_Driver/Src/stm32f4xx_ll_fmc.c **** 
 604:./Libraries/STM32F4xx_HAL_Driver/Src/stm32f4xx_ll_fmc.c ****   /* Clear ATTSETx, ATTWAITx, ATTHOLDx and ATTHIZx bits */
 605:./Libraries/STM32F4xx_HAL_Driver/Src/stm32f4xx_ll_fmc.c ****   tmpr &= ((uint32_t)~(FMC_PATT_ATTSET2  | FMC_PATT_ATTWAIT2 | FMC_PATT_ATTHOLD2 | \
 606:./Libraries/STM32F4xx_HAL_Driver/Src/stm32f4xx_ll_fmc.c ****                        FMC_PATT_ATTHIZ2));
 607:./Libraries/STM32F4xx_HAL_Driver/Src/stm32f4xx_ll_fmc.c ****   
 608:./Libraries/STM32F4xx_HAL_Driver/Src/stm32f4xx_ll_fmc.c ****   /* Set FMC_NAND device timing parameters */
 609:./Libraries/STM32F4xx_HAL_Driver/Src/stm32f4xx_ll_fmc.c ****   tmpr |= (uint32_t)(Timing->SetupTime                 |\
 610:./Libraries/STM32F4xx_HAL_Driver/Src/stm32f4xx_ll_fmc.c ****                    ((Timing->WaitSetupTime) << 8U)     |\
 611:./Libraries/STM32F4xx_HAL_Driver/Src/stm32f4xx_ll_fmc.c ****                    ((Timing->HoldSetupTime) << 16U)    |\
 612:./Libraries/STM32F4xx_HAL_Driver/Src/stm32f4xx_ll_fmc.c ****                    ((Timing->HiZSetupTime) << 24U));
 613:./Libraries/STM32F4xx_HAL_Driver/Src/stm32f4xx_ll_fmc.c **** 
 614:./Libraries/STM32F4xx_HAL_Driver/Src/stm32f4xx_ll_fmc.c ****   /* NAND bank registers configuration */
 615:./Libraries/STM32F4xx_HAL_Driver/Src/stm32f4xx_ll_fmc.c ****   Device->PATT = tmpr; 
 616:./Libraries/STM32F4xx_HAL_Driver/Src/stm32f4xx_ll_fmc.c ****  
 617:./Libraries/STM32F4xx_HAL_Driver/Src/stm32f4xx_ll_fmc.c ****   return HAL_OK;
 618:./Libraries/STM32F4xx_HAL_Driver/Src/stm32f4xx_ll_fmc.c **** }
 619:./Libraries/STM32F4xx_HAL_Driver/Src/stm32f4xx_ll_fmc.c **** 
 620:./Libraries/STM32F4xx_HAL_Driver/Src/stm32f4xx_ll_fmc.c **** 
 621:./Libraries/STM32F4xx_HAL_Driver/Src/stm32f4xx_ll_fmc.c **** /**
 622:./Libraries/STM32F4xx_HAL_Driver/Src/stm32f4xx_ll_fmc.c ****   * @brief  DeInitializes the FMC_NAND device 
 623:./Libraries/STM32F4xx_HAL_Driver/Src/stm32f4xx_ll_fmc.c ****   * @param  Device Pointer to NAND device instance
 624:./Libraries/STM32F4xx_HAL_Driver/Src/stm32f4xx_ll_fmc.c ****   * @param  Bank NAND bank number
 625:./Libraries/STM32F4xx_HAL_Driver/Src/stm32f4xx_ll_fmc.c ****   * @retval HAL status
 626:./Libraries/STM32F4xx_HAL_Driver/Src/stm32f4xx_ll_fmc.c ****   */
 627:./Libraries/STM32F4xx_HAL_Driver/Src/stm32f4xx_ll_fmc.c **** HAL_StatusTypeDef FMC_NAND_DeInit(FMC_NAND_TypeDef *Device, uint32_t Bank)
 628:./Libraries/STM32F4xx_HAL_Driver/Src/stm32f4xx_ll_fmc.c **** {
 629:./Libraries/STM32F4xx_HAL_Driver/Src/stm32f4xx_ll_fmc.c ****   /* Check the parameters */ 
ARM GAS  /tmp/cczcFqK2.s 			page 22


 630:./Libraries/STM32F4xx_HAL_Driver/Src/stm32f4xx_ll_fmc.c ****   assert_param(IS_FMC_NAND_DEVICE(Device)); 
 631:./Libraries/STM32F4xx_HAL_Driver/Src/stm32f4xx_ll_fmc.c ****   assert_param(IS_FMC_NAND_BANK(Bank));
 632:./Libraries/STM32F4xx_HAL_Driver/Src/stm32f4xx_ll_fmc.c ****   
 633:./Libraries/STM32F4xx_HAL_Driver/Src/stm32f4xx_ll_fmc.c ****   /* Disable the NAND Bank */
 634:./Libraries/STM32F4xx_HAL_Driver/Src/stm32f4xx_ll_fmc.c ****   __FMC_NAND_DISABLE(Device, Bank);
 635:./Libraries/STM32F4xx_HAL_Driver/Src/stm32f4xx_ll_fmc.c ****   
 636:./Libraries/STM32F4xx_HAL_Driver/Src/stm32f4xx_ll_fmc.c ****   /* De-initialize the NAND Bank */
 637:./Libraries/STM32F4xx_HAL_Driver/Src/stm32f4xx_ll_fmc.c ****   /* Set the FMC_NAND_BANK registers to their reset values */
 638:./Libraries/STM32F4xx_HAL_Driver/Src/stm32f4xx_ll_fmc.c ****   Device->PCR  = 0x00000018U;
 639:./Libraries/STM32F4xx_HAL_Driver/Src/stm32f4xx_ll_fmc.c ****   Device->SR   = 0x00000040U;
 640:./Libraries/STM32F4xx_HAL_Driver/Src/stm32f4xx_ll_fmc.c ****   Device->PMEM = 0xFCFCFCFCU;
 641:./Libraries/STM32F4xx_HAL_Driver/Src/stm32f4xx_ll_fmc.c ****   Device->PATT = 0xFCFCFCFCU;
 642:./Libraries/STM32F4xx_HAL_Driver/Src/stm32f4xx_ll_fmc.c **** 
 643:./Libraries/STM32F4xx_HAL_Driver/Src/stm32f4xx_ll_fmc.c ****   return HAL_OK;
 644:./Libraries/STM32F4xx_HAL_Driver/Src/stm32f4xx_ll_fmc.c **** }
 645:./Libraries/STM32F4xx_HAL_Driver/Src/stm32f4xx_ll_fmc.c **** 
 646:./Libraries/STM32F4xx_HAL_Driver/Src/stm32f4xx_ll_fmc.c **** /**
 647:./Libraries/STM32F4xx_HAL_Driver/Src/stm32f4xx_ll_fmc.c ****   * @}
 648:./Libraries/STM32F4xx_HAL_Driver/Src/stm32f4xx_ll_fmc.c ****   */
 649:./Libraries/STM32F4xx_HAL_Driver/Src/stm32f4xx_ll_fmc.c ****   
 650:./Libraries/STM32F4xx_HAL_Driver/Src/stm32f4xx_ll_fmc.c ****   
 651:./Libraries/STM32F4xx_HAL_Driver/Src/stm32f4xx_ll_fmc.c **** /** @defgroup HAL_FMC_NAND_Group2 Control functions 
 652:./Libraries/STM32F4xx_HAL_Driver/Src/stm32f4xx_ll_fmc.c ****  *  @brief   management functions 
 653:./Libraries/STM32F4xx_HAL_Driver/Src/stm32f4xx_ll_fmc.c ****  *
 654:./Libraries/STM32F4xx_HAL_Driver/Src/stm32f4xx_ll_fmc.c **** @verbatim   
 655:./Libraries/STM32F4xx_HAL_Driver/Src/stm32f4xx_ll_fmc.c ****   ==============================================================================
 656:./Libraries/STM32F4xx_HAL_Driver/Src/stm32f4xx_ll_fmc.c ****                        ##### FMC_NAND Control functions #####
 657:./Libraries/STM32F4xx_HAL_Driver/Src/stm32f4xx_ll_fmc.c ****   ==============================================================================  
 658:./Libraries/STM32F4xx_HAL_Driver/Src/stm32f4xx_ll_fmc.c ****   [..]
 659:./Libraries/STM32F4xx_HAL_Driver/Src/stm32f4xx_ll_fmc.c ****     This subsection provides a set of functions allowing to control dynamically
 660:./Libraries/STM32F4xx_HAL_Driver/Src/stm32f4xx_ll_fmc.c ****     the FMC NAND interface.
 661:./Libraries/STM32F4xx_HAL_Driver/Src/stm32f4xx_ll_fmc.c **** 
 662:./Libraries/STM32F4xx_HAL_Driver/Src/stm32f4xx_ll_fmc.c **** @endverbatim
 663:./Libraries/STM32F4xx_HAL_Driver/Src/stm32f4xx_ll_fmc.c ****   * @{
 664:./Libraries/STM32F4xx_HAL_Driver/Src/stm32f4xx_ll_fmc.c ****   */ 
 665:./Libraries/STM32F4xx_HAL_Driver/Src/stm32f4xx_ll_fmc.c **** 
 666:./Libraries/STM32F4xx_HAL_Driver/Src/stm32f4xx_ll_fmc.c ****     
 667:./Libraries/STM32F4xx_HAL_Driver/Src/stm32f4xx_ll_fmc.c **** /**
 668:./Libraries/STM32F4xx_HAL_Driver/Src/stm32f4xx_ll_fmc.c ****   * @brief  Enables dynamically FMC_NAND ECC feature.
 669:./Libraries/STM32F4xx_HAL_Driver/Src/stm32f4xx_ll_fmc.c ****   * @param  Device Pointer to NAND device instance
 670:./Libraries/STM32F4xx_HAL_Driver/Src/stm32f4xx_ll_fmc.c ****   * @param  Bank NAND bank number
 671:./Libraries/STM32F4xx_HAL_Driver/Src/stm32f4xx_ll_fmc.c ****   * @retval HAL status
 672:./Libraries/STM32F4xx_HAL_Driver/Src/stm32f4xx_ll_fmc.c ****   */    
 673:./Libraries/STM32F4xx_HAL_Driver/Src/stm32f4xx_ll_fmc.c **** HAL_StatusTypeDef FMC_NAND_ECC_Enable(FMC_NAND_TypeDef *Device, uint32_t Bank)
 674:./Libraries/STM32F4xx_HAL_Driver/Src/stm32f4xx_ll_fmc.c **** {
 675:./Libraries/STM32F4xx_HAL_Driver/Src/stm32f4xx_ll_fmc.c ****   /* Check the parameters */ 
 676:./Libraries/STM32F4xx_HAL_Driver/Src/stm32f4xx_ll_fmc.c ****   assert_param(IS_FMC_NAND_DEVICE(Device)); 
 677:./Libraries/STM32F4xx_HAL_Driver/Src/stm32f4xx_ll_fmc.c ****   assert_param(IS_FMC_NAND_BANK(Bank));
 678:./Libraries/STM32F4xx_HAL_Driver/Src/stm32f4xx_ll_fmc.c **** 
 679:./Libraries/STM32F4xx_HAL_Driver/Src/stm32f4xx_ll_fmc.c ****   /* Enable ECC feature */
 680:./Libraries/STM32F4xx_HAL_Driver/Src/stm32f4xx_ll_fmc.c ****   Device->PCR |= FMC_PCR_ECCEN;
 681:./Libraries/STM32F4xx_HAL_Driver/Src/stm32f4xx_ll_fmc.c **** 
 682:./Libraries/STM32F4xx_HAL_Driver/Src/stm32f4xx_ll_fmc.c ****   return HAL_OK;  
 683:./Libraries/STM32F4xx_HAL_Driver/Src/stm32f4xx_ll_fmc.c **** }
 684:./Libraries/STM32F4xx_HAL_Driver/Src/stm32f4xx_ll_fmc.c **** 
 685:./Libraries/STM32F4xx_HAL_Driver/Src/stm32f4xx_ll_fmc.c **** 
 686:./Libraries/STM32F4xx_HAL_Driver/Src/stm32f4xx_ll_fmc.c **** /**
ARM GAS  /tmp/cczcFqK2.s 			page 23


 687:./Libraries/STM32F4xx_HAL_Driver/Src/stm32f4xx_ll_fmc.c ****   * @brief  Disables dynamically FMC_NAND ECC feature.
 688:./Libraries/STM32F4xx_HAL_Driver/Src/stm32f4xx_ll_fmc.c ****   * @param  Device Pointer to NAND device instance
 689:./Libraries/STM32F4xx_HAL_Driver/Src/stm32f4xx_ll_fmc.c ****   * @param  Bank NAND bank number
 690:./Libraries/STM32F4xx_HAL_Driver/Src/stm32f4xx_ll_fmc.c ****   * @retval HAL status
 691:./Libraries/STM32F4xx_HAL_Driver/Src/stm32f4xx_ll_fmc.c ****   */  
 692:./Libraries/STM32F4xx_HAL_Driver/Src/stm32f4xx_ll_fmc.c **** HAL_StatusTypeDef FMC_NAND_ECC_Disable(FMC_NAND_TypeDef *Device, uint32_t Bank)  
 693:./Libraries/STM32F4xx_HAL_Driver/Src/stm32f4xx_ll_fmc.c **** {  
 694:./Libraries/STM32F4xx_HAL_Driver/Src/stm32f4xx_ll_fmc.c ****   /* Check the parameters */ 
 695:./Libraries/STM32F4xx_HAL_Driver/Src/stm32f4xx_ll_fmc.c ****   assert_param(IS_FMC_NAND_DEVICE(Device)); 
 696:./Libraries/STM32F4xx_HAL_Driver/Src/stm32f4xx_ll_fmc.c ****   assert_param(IS_FMC_NAND_BANK(Bank));
 697:./Libraries/STM32F4xx_HAL_Driver/Src/stm32f4xx_ll_fmc.c ****   
 698:./Libraries/STM32F4xx_HAL_Driver/Src/stm32f4xx_ll_fmc.c ****   /* Disable ECC feature */
 699:./Libraries/STM32F4xx_HAL_Driver/Src/stm32f4xx_ll_fmc.c ****   Device->PCR &= ~FMC_PCR_ECCEN;
 700:./Libraries/STM32F4xx_HAL_Driver/Src/stm32f4xx_ll_fmc.c **** 
 701:./Libraries/STM32F4xx_HAL_Driver/Src/stm32f4xx_ll_fmc.c ****   return HAL_OK;  
 702:./Libraries/STM32F4xx_HAL_Driver/Src/stm32f4xx_ll_fmc.c **** }
 703:./Libraries/STM32F4xx_HAL_Driver/Src/stm32f4xx_ll_fmc.c **** 
 704:./Libraries/STM32F4xx_HAL_Driver/Src/stm32f4xx_ll_fmc.c **** /**
 705:./Libraries/STM32F4xx_HAL_Driver/Src/stm32f4xx_ll_fmc.c ****   * @brief  Disables dynamically FMC_NAND ECC feature.
 706:./Libraries/STM32F4xx_HAL_Driver/Src/stm32f4xx_ll_fmc.c ****   * @param  Device Pointer to NAND device instance
 707:./Libraries/STM32F4xx_HAL_Driver/Src/stm32f4xx_ll_fmc.c ****   * @param  ECCval Pointer to ECC value
 708:./Libraries/STM32F4xx_HAL_Driver/Src/stm32f4xx_ll_fmc.c ****   * @param  Bank NAND bank number
 709:./Libraries/STM32F4xx_HAL_Driver/Src/stm32f4xx_ll_fmc.c ****   * @param  Timeout Timeout wait value  
 710:./Libraries/STM32F4xx_HAL_Driver/Src/stm32f4xx_ll_fmc.c ****   * @retval HAL status
 711:./Libraries/STM32F4xx_HAL_Driver/Src/stm32f4xx_ll_fmc.c ****   */
 712:./Libraries/STM32F4xx_HAL_Driver/Src/stm32f4xx_ll_fmc.c **** HAL_StatusTypeDef FMC_NAND_GetECC(FMC_NAND_TypeDef *Device, uint32_t *ECCval, uint32_t Bank, uint32
 713:./Libraries/STM32F4xx_HAL_Driver/Src/stm32f4xx_ll_fmc.c **** {
 714:./Libraries/STM32F4xx_HAL_Driver/Src/stm32f4xx_ll_fmc.c ****   uint32_t tickstart = 0U;
 715:./Libraries/STM32F4xx_HAL_Driver/Src/stm32f4xx_ll_fmc.c ****   
 716:./Libraries/STM32F4xx_HAL_Driver/Src/stm32f4xx_ll_fmc.c ****   /* Check the parameters */ 
 717:./Libraries/STM32F4xx_HAL_Driver/Src/stm32f4xx_ll_fmc.c ****   assert_param(IS_FMC_NAND_DEVICE(Device)); 
 718:./Libraries/STM32F4xx_HAL_Driver/Src/stm32f4xx_ll_fmc.c ****   assert_param(IS_FMC_NAND_BANK(Bank));
 719:./Libraries/STM32F4xx_HAL_Driver/Src/stm32f4xx_ll_fmc.c ****   
 720:./Libraries/STM32F4xx_HAL_Driver/Src/stm32f4xx_ll_fmc.c ****   /* Get tick */ 
 721:./Libraries/STM32F4xx_HAL_Driver/Src/stm32f4xx_ll_fmc.c ****   tickstart = HAL_GetTick();
 722:./Libraries/STM32F4xx_HAL_Driver/Src/stm32f4xx_ll_fmc.c ****   
 723:./Libraries/STM32F4xx_HAL_Driver/Src/stm32f4xx_ll_fmc.c ****   /* Wait until FIFO is empty */
 724:./Libraries/STM32F4xx_HAL_Driver/Src/stm32f4xx_ll_fmc.c ****   while(__FMC_NAND_GET_FLAG(Device, Bank, FMC_FLAG_FEMPT) == RESET)
 725:./Libraries/STM32F4xx_HAL_Driver/Src/stm32f4xx_ll_fmc.c ****   {
 726:./Libraries/STM32F4xx_HAL_Driver/Src/stm32f4xx_ll_fmc.c ****     /* Check for the Timeout */
 727:./Libraries/STM32F4xx_HAL_Driver/Src/stm32f4xx_ll_fmc.c ****     if(Timeout != HAL_MAX_DELAY)
 728:./Libraries/STM32F4xx_HAL_Driver/Src/stm32f4xx_ll_fmc.c ****     {
 729:./Libraries/STM32F4xx_HAL_Driver/Src/stm32f4xx_ll_fmc.c ****       if((Timeout == 0U)||((HAL_GetTick() - tickstart ) > Timeout))
 730:./Libraries/STM32F4xx_HAL_Driver/Src/stm32f4xx_ll_fmc.c ****       {
 731:./Libraries/STM32F4xx_HAL_Driver/Src/stm32f4xx_ll_fmc.c ****         return HAL_TIMEOUT;
 732:./Libraries/STM32F4xx_HAL_Driver/Src/stm32f4xx_ll_fmc.c ****       }
 733:./Libraries/STM32F4xx_HAL_Driver/Src/stm32f4xx_ll_fmc.c ****     }  
 734:./Libraries/STM32F4xx_HAL_Driver/Src/stm32f4xx_ll_fmc.c ****   }
 735:./Libraries/STM32F4xx_HAL_Driver/Src/stm32f4xx_ll_fmc.c ****   
 736:./Libraries/STM32F4xx_HAL_Driver/Src/stm32f4xx_ll_fmc.c ****   /* Get the ECCR register value */
 737:./Libraries/STM32F4xx_HAL_Driver/Src/stm32f4xx_ll_fmc.c ****   *ECCval = (uint32_t)Device->ECCR;
 738:./Libraries/STM32F4xx_HAL_Driver/Src/stm32f4xx_ll_fmc.c **** 
 739:./Libraries/STM32F4xx_HAL_Driver/Src/stm32f4xx_ll_fmc.c ****   return HAL_OK;  
 740:./Libraries/STM32F4xx_HAL_Driver/Src/stm32f4xx_ll_fmc.c **** }
 741:./Libraries/STM32F4xx_HAL_Driver/Src/stm32f4xx_ll_fmc.c **** 
 742:./Libraries/STM32F4xx_HAL_Driver/Src/stm32f4xx_ll_fmc.c **** /**
 743:./Libraries/STM32F4xx_HAL_Driver/Src/stm32f4xx_ll_fmc.c ****   * @}
ARM GAS  /tmp/cczcFqK2.s 			page 24


 744:./Libraries/STM32F4xx_HAL_Driver/Src/stm32f4xx_ll_fmc.c ****   */
 745:./Libraries/STM32F4xx_HAL_Driver/Src/stm32f4xx_ll_fmc.c **** 
 746:./Libraries/STM32F4xx_HAL_Driver/Src/stm32f4xx_ll_fmc.c **** #else /* defined(STM32F427xx) || defined(STM32F437xx) || defined(STM32F429xx) || defined(STM32F439x
 747:./Libraries/STM32F4xx_HAL_Driver/Src/stm32f4xx_ll_fmc.c **** /** @defgroup HAL_FMC_NAND_Group1 Initialization/de-initialization functions 
 748:./Libraries/STM32F4xx_HAL_Driver/Src/stm32f4xx_ll_fmc.c ****  *  @brief    Initialization and Configuration functions 
 749:./Libraries/STM32F4xx_HAL_Driver/Src/stm32f4xx_ll_fmc.c ****  *
 750:./Libraries/STM32F4xx_HAL_Driver/Src/stm32f4xx_ll_fmc.c **** @verbatim    
 751:./Libraries/STM32F4xx_HAL_Driver/Src/stm32f4xx_ll_fmc.c ****   ==============================================================================
 752:./Libraries/STM32F4xx_HAL_Driver/Src/stm32f4xx_ll_fmc.c ****               ##### Initialization and de_initialization functions #####
 753:./Libraries/STM32F4xx_HAL_Driver/Src/stm32f4xx_ll_fmc.c ****   ==============================================================================
 754:./Libraries/STM32F4xx_HAL_Driver/Src/stm32f4xx_ll_fmc.c ****   [..]  
 755:./Libraries/STM32F4xx_HAL_Driver/Src/stm32f4xx_ll_fmc.c ****     This section provides functions allowing to:
 756:./Libraries/STM32F4xx_HAL_Driver/Src/stm32f4xx_ll_fmc.c ****     (+) Initialize and configure the FMC NAND interface
 757:./Libraries/STM32F4xx_HAL_Driver/Src/stm32f4xx_ll_fmc.c ****     (+) De-initialize the FMC NAND interface 
 758:./Libraries/STM32F4xx_HAL_Driver/Src/stm32f4xx_ll_fmc.c ****     (+) Configure the FMC clock and associated GPIOs
 759:./Libraries/STM32F4xx_HAL_Driver/Src/stm32f4xx_ll_fmc.c ****         
 760:./Libraries/STM32F4xx_HAL_Driver/Src/stm32f4xx_ll_fmc.c **** @endverbatim
 761:./Libraries/STM32F4xx_HAL_Driver/Src/stm32f4xx_ll_fmc.c ****   * @{
 762:./Libraries/STM32F4xx_HAL_Driver/Src/stm32f4xx_ll_fmc.c ****   */
 763:./Libraries/STM32F4xx_HAL_Driver/Src/stm32f4xx_ll_fmc.c **** /**
 764:./Libraries/STM32F4xx_HAL_Driver/Src/stm32f4xx_ll_fmc.c ****   * @brief  Initializes the FMC_NAND device according to the specified
 765:./Libraries/STM32F4xx_HAL_Driver/Src/stm32f4xx_ll_fmc.c ****   *         control parameters in the FMC_NAND_HandleTypeDef
 766:./Libraries/STM32F4xx_HAL_Driver/Src/stm32f4xx_ll_fmc.c ****   * @param  Device Pointer to NAND device instance
 767:./Libraries/STM32F4xx_HAL_Driver/Src/stm32f4xx_ll_fmc.c ****   * @param  Init Pointer to NAND Initialization structure
 768:./Libraries/STM32F4xx_HAL_Driver/Src/stm32f4xx_ll_fmc.c ****   * @retval HAL status
 769:./Libraries/STM32F4xx_HAL_Driver/Src/stm32f4xx_ll_fmc.c ****   */
 770:./Libraries/STM32F4xx_HAL_Driver/Src/stm32f4xx_ll_fmc.c **** HAL_StatusTypeDef FMC_NAND_Init(FMC_NAND_TypeDef *Device, FMC_NAND_InitTypeDef *Init)
 771:./Libraries/STM32F4xx_HAL_Driver/Src/stm32f4xx_ll_fmc.c **** {
 531              		.loc 1 771 1 is_stmt 1 view -0
 532              		.cfi_startproc
 533              		@ args = 0, pretend = 0, frame = 0
 534              		@ frame_needed = 0, uses_anonymous_args = 0
 535              		@ link register save eliminated.
 536              		.loc 1 771 1 is_stmt 0 view .LVU188
 537 0000 30B4     		push	{r4, r5}
 538              	.LCFI6:
 539              		.cfi_def_cfa_offset 8
 540              		.cfi_offset 4, -8
 541              		.cfi_offset 5, -4
 772:./Libraries/STM32F4xx_HAL_Driver/Src/stm32f4xx_ll_fmc.c ****   uint32_t tmpr  = 0U; 
 542              		.loc 1 772 3 is_stmt 1 view .LVU189
 543              	.LVL41:
 773:./Libraries/STM32F4xx_HAL_Driver/Src/stm32f4xx_ll_fmc.c ****     
 774:./Libraries/STM32F4xx_HAL_Driver/Src/stm32f4xx_ll_fmc.c ****   /* Check the parameters */
 775:./Libraries/STM32F4xx_HAL_Driver/Src/stm32f4xx_ll_fmc.c ****   assert_param(IS_FMC_NAND_DEVICE(Device));
 544              		.loc 1 775 3 view .LVU190
 776:./Libraries/STM32F4xx_HAL_Driver/Src/stm32f4xx_ll_fmc.c ****   assert_param(IS_FMC_NAND_BANK(Init->NandBank));
 545              		.loc 1 776 3 view .LVU191
 777:./Libraries/STM32F4xx_HAL_Driver/Src/stm32f4xx_ll_fmc.c ****   assert_param(IS_FMC_WAIT_FEATURE(Init->Waitfeature));
 546              		.loc 1 777 3 view .LVU192
 778:./Libraries/STM32F4xx_HAL_Driver/Src/stm32f4xx_ll_fmc.c ****   assert_param(IS_FMC_NAND_MEMORY_WIDTH(Init->MemoryDataWidth));
 547              		.loc 1 778 3 view .LVU193
 779:./Libraries/STM32F4xx_HAL_Driver/Src/stm32f4xx_ll_fmc.c ****   assert_param(IS_FMC_ECC_STATE(Init->EccComputation));
 548              		.loc 1 779 3 view .LVU194
 780:./Libraries/STM32F4xx_HAL_Driver/Src/stm32f4xx_ll_fmc.c ****   assert_param(IS_FMC_ECCPAGE_SIZE(Init->ECCPageSize));
 549              		.loc 1 780 3 view .LVU195
 781:./Libraries/STM32F4xx_HAL_Driver/Src/stm32f4xx_ll_fmc.c ****   assert_param(IS_FMC_TCLR_TIME(Init->TCLRSetupTime));
ARM GAS  /tmp/cczcFqK2.s 			page 25


 550              		.loc 1 781 3 view .LVU196
 782:./Libraries/STM32F4xx_HAL_Driver/Src/stm32f4xx_ll_fmc.c ****   assert_param(IS_FMC_TAR_TIME(Init->TARSetupTime));   
 551              		.loc 1 782 3 view .LVU197
 783:./Libraries/STM32F4xx_HAL_Driver/Src/stm32f4xx_ll_fmc.c **** 
 784:./Libraries/STM32F4xx_HAL_Driver/Src/stm32f4xx_ll_fmc.c ****   if(Init->NandBank == FMC_NAND_BANK2)
 552              		.loc 1 784 3 view .LVU198
 553              		.loc 1 784 10 is_stmt 0 view .LVU199
 554 0002 0C68     		ldr	r4, [r1]
 555              		.loc 1 784 5 view .LVU200
 556 0004 102C     		cmp	r4, #16
 557 0006 18D0     		beq	.L33
 785:./Libraries/STM32F4xx_HAL_Driver/Src/stm32f4xx_ll_fmc.c ****   {
 786:./Libraries/STM32F4xx_HAL_Driver/Src/stm32f4xx_ll_fmc.c ****     /* Get the NAND bank 2 register value */
 787:./Libraries/STM32F4xx_HAL_Driver/Src/stm32f4xx_ll_fmc.c ****     tmpr = Device->PCR2;
 788:./Libraries/STM32F4xx_HAL_Driver/Src/stm32f4xx_ll_fmc.c ****   }
 789:./Libraries/STM32F4xx_HAL_Driver/Src/stm32f4xx_ll_fmc.c ****   else
 790:./Libraries/STM32F4xx_HAL_Driver/Src/stm32f4xx_ll_fmc.c ****   {
 791:./Libraries/STM32F4xx_HAL_Driver/Src/stm32f4xx_ll_fmc.c ****     /* Get the NAND bank 3 register value */
 792:./Libraries/STM32F4xx_HAL_Driver/Src/stm32f4xx_ll_fmc.c ****     tmpr = Device->PCR3;
 558              		.loc 1 792 5 is_stmt 1 view .LVU201
 559              		.loc 1 792 10 is_stmt 0 view .LVU202
 560 0008 036A     		ldr	r3, [r0, #32]
 561              	.LVL42:
 562              	.L29:
 793:./Libraries/STM32F4xx_HAL_Driver/Src/stm32f4xx_ll_fmc.c ****   }
 794:./Libraries/STM32F4xx_HAL_Driver/Src/stm32f4xx_ll_fmc.c ****   
 795:./Libraries/STM32F4xx_HAL_Driver/Src/stm32f4xx_ll_fmc.c ****   /* Clear PWAITEN, PBKEN, PTYP, PWID, ECCEN, TCLR, TAR and ECCPS bits */
 796:./Libraries/STM32F4xx_HAL_Driver/Src/stm32f4xx_ll_fmc.c ****   tmpr &= ((uint32_t)~(FMC_PCR2_PWAITEN  | FMC_PCR2_PBKEN | FMC_PCR2_PTYP | \
 563              		.loc 1 796 3 is_stmt 1 view .LVU203
 564              		.loc 1 796 8 is_stmt 0 view .LVU204
 565 000a 0E4A     		ldr	r2, .L35
 566 000c 1A40     		ands	r2, r2, r3
 567              	.LVL43:
 797:./Libraries/STM32F4xx_HAL_Driver/Src/stm32f4xx_ll_fmc.c ****                        FMC_PCR2_PWID | FMC_PCR2_ECCEN | FMC_PCR2_TCLR | \
 798:./Libraries/STM32F4xx_HAL_Driver/Src/stm32f4xx_ll_fmc.c ****                        FMC_PCR2_TAR | FMC_PCR2_ECCPS));  
 799:./Libraries/STM32F4xx_HAL_Driver/Src/stm32f4xx_ll_fmc.c ****   
 800:./Libraries/STM32F4xx_HAL_Driver/Src/stm32f4xx_ll_fmc.c ****   /* Set NAND device control parameters */
 801:./Libraries/STM32F4xx_HAL_Driver/Src/stm32f4xx_ll_fmc.c ****   tmpr |= (uint32_t)(Init->Waitfeature                 |\
 568              		.loc 1 801 3 is_stmt 1 view .LVU205
 569              		.loc 1 801 26 is_stmt 0 view .LVU206
 570 000e 4B68     		ldr	r3, [r1, #4]
 802:./Libraries/STM32F4xx_HAL_Driver/Src/stm32f4xx_ll_fmc.c ****                      FMC_PCR_MEMORY_TYPE_NAND          |\
 571              		.loc 1 802 56 view .LVU207
 572 0010 8D68     		ldr	r5, [r1, #8]
 573 0012 2B43     		orrs	r3, r3, r5
 803:./Libraries/STM32F4xx_HAL_Driver/Src/stm32f4xx_ll_fmc.c ****                      Init->MemoryDataWidth             |\
 574              		.loc 1 803 56 view .LVU208
 575 0014 CD68     		ldr	r5, [r1, #12]
 576 0016 2B43     		orrs	r3, r3, r5
 804:./Libraries/STM32F4xx_HAL_Driver/Src/stm32f4xx_ll_fmc.c ****                      Init->EccComputation              |\
 577              		.loc 1 804 56 view .LVU209
 578 0018 0D69     		ldr	r5, [r1, #16]
 579 001a 2B43     		orrs	r3, r3, r5
 805:./Libraries/STM32F4xx_HAL_Driver/Src/stm32f4xx_ll_fmc.c ****                      Init->ECCPageSize                 |\
 580              		.loc 1 805 56 view .LVU210
 581 001c 4D69     		ldr	r5, [r1, #20]
 582 001e 43EA4523 		orr	r3, r3, r5, lsl #9
ARM GAS  /tmp/cczcFqK2.s 			page 26


 806:./Libraries/STM32F4xx_HAL_Driver/Src/stm32f4xx_ll_fmc.c ****                      ((Init->TCLRSetupTime) << 9U)     |\
 807:./Libraries/STM32F4xx_HAL_Driver/Src/stm32f4xx_ll_fmc.c ****                      ((Init->TARSetupTime) << 13U));   
 583              		.loc 1 807 28 view .LVU211
 584 0022 8969     		ldr	r1, [r1, #24]
 585              	.LVL44:
 801:./Libraries/STM32F4xx_HAL_Driver/Src/stm32f4xx_ll_fmc.c ****                      FMC_PCR_MEMORY_TYPE_NAND          |\
 586              		.loc 1 801 11 view .LVU212
 587 0024 43EA4133 		orr	r3, r3, r1, lsl #13
 801:./Libraries/STM32F4xx_HAL_Driver/Src/stm32f4xx_ll_fmc.c ****                      FMC_PCR_MEMORY_TYPE_NAND          |\
 588              		.loc 1 801 8 view .LVU213
 589 0028 1343     		orrs	r3, r3, r2
 590 002a 43F00803 		orr	r3, r3, #8
 591              	.LVL45:
 808:./Libraries/STM32F4xx_HAL_Driver/Src/stm32f4xx_ll_fmc.c ****   
 809:./Libraries/STM32F4xx_HAL_Driver/Src/stm32f4xx_ll_fmc.c ****   if(Init->NandBank == FMC_NAND_BANK2)
 592              		.loc 1 809 3 is_stmt 1 view .LVU214
 593              		.loc 1 809 5 is_stmt 0 view .LVU215
 594 002e 102C     		cmp	r4, #16
 595 0030 05D0     		beq	.L34
 810:./Libraries/STM32F4xx_HAL_Driver/Src/stm32f4xx_ll_fmc.c ****   {
 811:./Libraries/STM32F4xx_HAL_Driver/Src/stm32f4xx_ll_fmc.c ****     /* NAND bank 2 registers configuration */
 812:./Libraries/STM32F4xx_HAL_Driver/Src/stm32f4xx_ll_fmc.c ****     Device->PCR2  = tmpr;
 813:./Libraries/STM32F4xx_HAL_Driver/Src/stm32f4xx_ll_fmc.c ****   }
 814:./Libraries/STM32F4xx_HAL_Driver/Src/stm32f4xx_ll_fmc.c ****   else
 815:./Libraries/STM32F4xx_HAL_Driver/Src/stm32f4xx_ll_fmc.c ****   {
 816:./Libraries/STM32F4xx_HAL_Driver/Src/stm32f4xx_ll_fmc.c ****     /* NAND bank 3 registers configuration */
 817:./Libraries/STM32F4xx_HAL_Driver/Src/stm32f4xx_ll_fmc.c ****     Device->PCR3  = tmpr;
 596              		.loc 1 817 5 is_stmt 1 view .LVU216
 597              		.loc 1 817 19 is_stmt 0 view .LVU217
 598 0032 0362     		str	r3, [r0, #32]
 599              	.L31:
 818:./Libraries/STM32F4xx_HAL_Driver/Src/stm32f4xx_ll_fmc.c ****   }
 819:./Libraries/STM32F4xx_HAL_Driver/Src/stm32f4xx_ll_fmc.c ****   
 820:./Libraries/STM32F4xx_HAL_Driver/Src/stm32f4xx_ll_fmc.c ****   return HAL_OK;
 600              		.loc 1 820 3 is_stmt 1 view .LVU218
 821:./Libraries/STM32F4xx_HAL_Driver/Src/stm32f4xx_ll_fmc.c **** 
 822:./Libraries/STM32F4xx_HAL_Driver/Src/stm32f4xx_ll_fmc.c **** }
 601              		.loc 1 822 1 is_stmt 0 view .LVU219
 602 0034 0020     		movs	r0, #0
 603              	.LVL46:
 604              		.loc 1 822 1 view .LVU220
 605 0036 30BC     		pop	{r4, r5}
 606              	.LCFI7:
 607              		.cfi_remember_state
 608              		.cfi_restore 5
 609              		.cfi_restore 4
 610              		.cfi_def_cfa_offset 0
 611 0038 7047     		bx	lr
 612              	.LVL47:
 613              	.L33:
 614              	.LCFI8:
 615              		.cfi_restore_state
 787:./Libraries/STM32F4xx_HAL_Driver/Src/stm32f4xx_ll_fmc.c ****   }
 616              		.loc 1 787 5 is_stmt 1 view .LVU221
 787:./Libraries/STM32F4xx_HAL_Driver/Src/stm32f4xx_ll_fmc.c ****   }
 617              		.loc 1 787 10 is_stmt 0 view .LVU222
 618 003a 0368     		ldr	r3, [r0]
ARM GAS  /tmp/cczcFqK2.s 			page 27


 619              	.LVL48:
 787:./Libraries/STM32F4xx_HAL_Driver/Src/stm32f4xx_ll_fmc.c ****   }
 620              		.loc 1 787 10 view .LVU223
 621 003c E5E7     		b	.L29
 622              	.LVL49:
 623              	.L34:
 812:./Libraries/STM32F4xx_HAL_Driver/Src/stm32f4xx_ll_fmc.c ****   }
 624              		.loc 1 812 5 is_stmt 1 view .LVU224
 812:./Libraries/STM32F4xx_HAL_Driver/Src/stm32f4xx_ll_fmc.c ****   }
 625              		.loc 1 812 19 is_stmt 0 view .LVU225
 626 003e 0360     		str	r3, [r0]
 627 0040 F8E7     		b	.L31
 628              	.L36:
 629 0042 00BF     		.align	2
 630              	.L35:
 631 0044 8101F0FF 		.word	-1048191
 632              		.cfi_endproc
 633              	.LFE132:
 635              		.section	.text.FMC_NAND_CommonSpace_Timing_Init,"ax",%progbits
 636              		.align	1
 637              		.global	FMC_NAND_CommonSpace_Timing_Init
 638              		.syntax unified
 639              		.thumb
 640              		.thumb_func
 641              		.fpu fpv4-sp-d16
 643              	FMC_NAND_CommonSpace_Timing_Init:
 644              	.LVL50:
 645              	.LFB133:
 823:./Libraries/STM32F4xx_HAL_Driver/Src/stm32f4xx_ll_fmc.c **** 
 824:./Libraries/STM32F4xx_HAL_Driver/Src/stm32f4xx_ll_fmc.c **** /**
 825:./Libraries/STM32F4xx_HAL_Driver/Src/stm32f4xx_ll_fmc.c ****   * @brief  Initializes the FMC_NAND Common space Timing according to the specified
 826:./Libraries/STM32F4xx_HAL_Driver/Src/stm32f4xx_ll_fmc.c ****   *         parameters in the FMC_NAND_PCC_TimingTypeDef
 827:./Libraries/STM32F4xx_HAL_Driver/Src/stm32f4xx_ll_fmc.c ****   * @param  Device Pointer to NAND device instance
 828:./Libraries/STM32F4xx_HAL_Driver/Src/stm32f4xx_ll_fmc.c ****   * @param  Timing Pointer to NAND timing structure
 829:./Libraries/STM32F4xx_HAL_Driver/Src/stm32f4xx_ll_fmc.c ****   * @param  Bank NAND bank number   
 830:./Libraries/STM32F4xx_HAL_Driver/Src/stm32f4xx_ll_fmc.c ****   * @retval HAL status
 831:./Libraries/STM32F4xx_HAL_Driver/Src/stm32f4xx_ll_fmc.c ****   */
 832:./Libraries/STM32F4xx_HAL_Driver/Src/stm32f4xx_ll_fmc.c **** HAL_StatusTypeDef FMC_NAND_CommonSpace_Timing_Init(FMC_NAND_TypeDef *Device, FMC_NAND_PCC_TimingTyp
 833:./Libraries/STM32F4xx_HAL_Driver/Src/stm32f4xx_ll_fmc.c **** {
 646              		.loc 1 833 1 is_stmt 1 view -0
 647              		.cfi_startproc
 648              		@ args = 0, pretend = 0, frame = 0
 649              		@ frame_needed = 0, uses_anonymous_args = 0
 650              		@ link register save eliminated.
 651              		.loc 1 833 1 is_stmt 0 view .LVU227
 652 0000 10B4     		push	{r4}
 653              	.LCFI9:
 654              		.cfi_def_cfa_offset 4
 655              		.cfi_offset 4, -4
 834:./Libraries/STM32F4xx_HAL_Driver/Src/stm32f4xx_ll_fmc.c ****   uint32_t tmpr = 0U;  
 656              		.loc 1 834 3 is_stmt 1 view .LVU228
 657              	.LVL51:
 835:./Libraries/STM32F4xx_HAL_Driver/Src/stm32f4xx_ll_fmc.c ****   
 836:./Libraries/STM32F4xx_HAL_Driver/Src/stm32f4xx_ll_fmc.c ****   /* Check the parameters */
 837:./Libraries/STM32F4xx_HAL_Driver/Src/stm32f4xx_ll_fmc.c ****   assert_param(IS_FMC_NAND_DEVICE(Device));
 658              		.loc 1 837 3 view .LVU229
 838:./Libraries/STM32F4xx_HAL_Driver/Src/stm32f4xx_ll_fmc.c ****   assert_param(IS_FMC_SETUP_TIME(Timing->SetupTime));
ARM GAS  /tmp/cczcFqK2.s 			page 28


 659              		.loc 1 838 3 view .LVU230
 839:./Libraries/STM32F4xx_HAL_Driver/Src/stm32f4xx_ll_fmc.c ****   assert_param(IS_FMC_WAIT_TIME(Timing->WaitSetupTime));
 660              		.loc 1 839 3 view .LVU231
 840:./Libraries/STM32F4xx_HAL_Driver/Src/stm32f4xx_ll_fmc.c ****   assert_param(IS_FMC_HOLD_TIME(Timing->HoldSetupTime));
 661              		.loc 1 840 3 view .LVU232
 841:./Libraries/STM32F4xx_HAL_Driver/Src/stm32f4xx_ll_fmc.c ****   assert_param(IS_FMC_HIZ_TIME(Timing->HiZSetupTime));
 662              		.loc 1 841 3 view .LVU233
 842:./Libraries/STM32F4xx_HAL_Driver/Src/stm32f4xx_ll_fmc.c ****   assert_param(IS_FMC_NAND_BANK(Bank));
 663              		.loc 1 842 3 view .LVU234
 843:./Libraries/STM32F4xx_HAL_Driver/Src/stm32f4xx_ll_fmc.c ****   
 844:./Libraries/STM32F4xx_HAL_Driver/Src/stm32f4xx_ll_fmc.c ****   if(Bank == FMC_NAND_BANK2)
 664              		.loc 1 844 3 view .LVU235
 665              		.loc 1 844 5 is_stmt 0 view .LVU236
 666 0002 102A     		cmp	r2, #16
 667 0004 11D0     		beq	.L43
 845:./Libraries/STM32F4xx_HAL_Driver/Src/stm32f4xx_ll_fmc.c ****   {
 846:./Libraries/STM32F4xx_HAL_Driver/Src/stm32f4xx_ll_fmc.c ****     /* Get the NAND bank 2 register value */
 847:./Libraries/STM32F4xx_HAL_Driver/Src/stm32f4xx_ll_fmc.c ****     tmpr = Device->PMEM2;
 848:./Libraries/STM32F4xx_HAL_Driver/Src/stm32f4xx_ll_fmc.c ****   }
 849:./Libraries/STM32F4xx_HAL_Driver/Src/stm32f4xx_ll_fmc.c ****   else
 850:./Libraries/STM32F4xx_HAL_Driver/Src/stm32f4xx_ll_fmc.c ****   {
 851:./Libraries/STM32F4xx_HAL_Driver/Src/stm32f4xx_ll_fmc.c ****     /* Get the NAND bank 3 register value */
 852:./Libraries/STM32F4xx_HAL_Driver/Src/stm32f4xx_ll_fmc.c ****     tmpr = Device->PMEM3;
 668              		.loc 1 852 5 is_stmt 1 view .LVU237
 669              		.loc 1 852 10 is_stmt 0 view .LVU238
 670 0006 836A     		ldr	r3, [r0, #40]
 671              	.LVL52:
 672              	.L39:
 853:./Libraries/STM32F4xx_HAL_Driver/Src/stm32f4xx_ll_fmc.c ****   } 
 854:./Libraries/STM32F4xx_HAL_Driver/Src/stm32f4xx_ll_fmc.c ****   
 855:./Libraries/STM32F4xx_HAL_Driver/Src/stm32f4xx_ll_fmc.c ****   /* Clear MEMSETx, MEMWAITx, MEMHOLDx and MEMHIZx bits */
 856:./Libraries/STM32F4xx_HAL_Driver/Src/stm32f4xx_ll_fmc.c ****   tmpr &= ((uint32_t)~(FMC_PMEM2_MEMSET2  | FMC_PMEM2_MEMWAIT2 | FMC_PMEM2_MEMHOLD2 | \
 673              		.loc 1 856 3 is_stmt 1 view .LVU239
 857:./Libraries/STM32F4xx_HAL_Driver/Src/stm32f4xx_ll_fmc.c ****                        FMC_PMEM2_MEMHIZ2)); 
 858:./Libraries/STM32F4xx_HAL_Driver/Src/stm32f4xx_ll_fmc.c ****   
 859:./Libraries/STM32F4xx_HAL_Driver/Src/stm32f4xx_ll_fmc.c ****   /* Set FMC_NAND device timing parameters */
 860:./Libraries/STM32F4xx_HAL_Driver/Src/stm32f4xx_ll_fmc.c ****   tmpr |= (uint32_t)(Timing->SetupTime                     |\
 674              		.loc 1 860 3 view .LVU240
 675              		.loc 1 860 28 is_stmt 0 view .LVU241
 676 0008 0B68     		ldr	r3, [r1]
 677              		.loc 1 860 60 view .LVU242
 678 000a 4C68     		ldr	r4, [r1, #4]
 679 000c 43EA0423 		orr	r3, r3, r4, lsl #8
 861:./Libraries/STM32F4xx_HAL_Driver/Src/stm32f4xx_ll_fmc.c ****                        ((Timing->WaitSetupTime) << 8U)     |\
 680              		.loc 1 861 60 view .LVU243
 681 0010 8C68     		ldr	r4, [r1, #8]
 682 0012 43EA0443 		orr	r3, r3, r4, lsl #16
 862:./Libraries/STM32F4xx_HAL_Driver/Src/stm32f4xx_ll_fmc.c ****                        ((Timing->HoldSetupTime) << 16U)    |\
 863:./Libraries/STM32F4xx_HAL_Driver/Src/stm32f4xx_ll_fmc.c ****                        ((Timing->HiZSetupTime) << 24U)
 683              		.loc 1 863 32 view .LVU244
 684 0016 C968     		ldr	r1, [r1, #12]
 685              	.LVL53:
 862:./Libraries/STM32F4xx_HAL_Driver/Src/stm32f4xx_ll_fmc.c ****                        ((Timing->HoldSetupTime) << 16U)    |\
 686              		.loc 1 862 60 view .LVU245
 687 0018 43EA0163 		orr	r3, r3, r1, lsl #24
 688              	.LVL54:
 864:./Libraries/STM32F4xx_HAL_Driver/Src/stm32f4xx_ll_fmc.c ****                        );
ARM GAS  /tmp/cczcFqK2.s 			page 29


 865:./Libraries/STM32F4xx_HAL_Driver/Src/stm32f4xx_ll_fmc.c ****                             
 866:./Libraries/STM32F4xx_HAL_Driver/Src/stm32f4xx_ll_fmc.c ****   if(Bank == FMC_NAND_BANK2)
 689              		.loc 1 866 3 is_stmt 1 view .LVU246
 690              		.loc 1 866 5 is_stmt 0 view .LVU247
 691 001c 102A     		cmp	r2, #16
 692 001e 06D0     		beq	.L44
 867:./Libraries/STM32F4xx_HAL_Driver/Src/stm32f4xx_ll_fmc.c ****   {
 868:./Libraries/STM32F4xx_HAL_Driver/Src/stm32f4xx_ll_fmc.c ****     /* NAND bank 2 registers configuration */
 869:./Libraries/STM32F4xx_HAL_Driver/Src/stm32f4xx_ll_fmc.c ****     Device->PMEM2 = tmpr;
 870:./Libraries/STM32F4xx_HAL_Driver/Src/stm32f4xx_ll_fmc.c ****   }
 871:./Libraries/STM32F4xx_HAL_Driver/Src/stm32f4xx_ll_fmc.c ****   else
 872:./Libraries/STM32F4xx_HAL_Driver/Src/stm32f4xx_ll_fmc.c ****   {
 873:./Libraries/STM32F4xx_HAL_Driver/Src/stm32f4xx_ll_fmc.c ****     /* NAND bank 3 registers configuration */
 874:./Libraries/STM32F4xx_HAL_Driver/Src/stm32f4xx_ll_fmc.c ****     Device->PMEM3 = tmpr;
 693              		.loc 1 874 5 is_stmt 1 view .LVU248
 694              		.loc 1 874 19 is_stmt 0 view .LVU249
 695 0020 8362     		str	r3, [r0, #40]
 696              	.L41:
 875:./Libraries/STM32F4xx_HAL_Driver/Src/stm32f4xx_ll_fmc.c ****   }  
 876:./Libraries/STM32F4xx_HAL_Driver/Src/stm32f4xx_ll_fmc.c ****   
 877:./Libraries/STM32F4xx_HAL_Driver/Src/stm32f4xx_ll_fmc.c ****   return HAL_OK;  
 697              		.loc 1 877 3 is_stmt 1 view .LVU250
 878:./Libraries/STM32F4xx_HAL_Driver/Src/stm32f4xx_ll_fmc.c **** }
 698              		.loc 1 878 1 is_stmt 0 view .LVU251
 699 0022 0020     		movs	r0, #0
 700              	.LVL55:
 701              		.loc 1 878 1 view .LVU252
 702 0024 5DF8044B 		ldr	r4, [sp], #4
 703              	.LCFI10:
 704              		.cfi_remember_state
 705              		.cfi_restore 4
 706              		.cfi_def_cfa_offset 0
 707 0028 7047     		bx	lr
 708              	.LVL56:
 709              	.L43:
 710              	.LCFI11:
 711              		.cfi_restore_state
 847:./Libraries/STM32F4xx_HAL_Driver/Src/stm32f4xx_ll_fmc.c ****   }
 712              		.loc 1 847 5 is_stmt 1 view .LVU253
 847:./Libraries/STM32F4xx_HAL_Driver/Src/stm32f4xx_ll_fmc.c ****   }
 713              		.loc 1 847 10 is_stmt 0 view .LVU254
 714 002a 8368     		ldr	r3, [r0, #8]
 715              	.LVL57:
 847:./Libraries/STM32F4xx_HAL_Driver/Src/stm32f4xx_ll_fmc.c ****   }
 716              		.loc 1 847 10 view .LVU255
 717 002c ECE7     		b	.L39
 718              	.LVL58:
 719              	.L44:
 869:./Libraries/STM32F4xx_HAL_Driver/Src/stm32f4xx_ll_fmc.c ****   }
 720              		.loc 1 869 5 is_stmt 1 view .LVU256
 869:./Libraries/STM32F4xx_HAL_Driver/Src/stm32f4xx_ll_fmc.c ****   }
 721              		.loc 1 869 19 is_stmt 0 view .LVU257
 722 002e 8360     		str	r3, [r0, #8]
 723 0030 F7E7     		b	.L41
 724              		.cfi_endproc
 725              	.LFE133:
 727              		.section	.text.FMC_NAND_AttributeSpace_Timing_Init,"ax",%progbits
ARM GAS  /tmp/cczcFqK2.s 			page 30


 728              		.align	1
 729              		.global	FMC_NAND_AttributeSpace_Timing_Init
 730              		.syntax unified
 731              		.thumb
 732              		.thumb_func
 733              		.fpu fpv4-sp-d16
 735              	FMC_NAND_AttributeSpace_Timing_Init:
 736              	.LVL59:
 737              	.LFB134:
 879:./Libraries/STM32F4xx_HAL_Driver/Src/stm32f4xx_ll_fmc.c **** 
 880:./Libraries/STM32F4xx_HAL_Driver/Src/stm32f4xx_ll_fmc.c **** /**
 881:./Libraries/STM32F4xx_HAL_Driver/Src/stm32f4xx_ll_fmc.c ****   * @brief  Initializes the FMC_NAND Attribute space Timing according to the specified
 882:./Libraries/STM32F4xx_HAL_Driver/Src/stm32f4xx_ll_fmc.c ****   *         parameters in the FMC_NAND_PCC_TimingTypeDef
 883:./Libraries/STM32F4xx_HAL_Driver/Src/stm32f4xx_ll_fmc.c ****   * @param  Device Pointer to NAND device instance
 884:./Libraries/STM32F4xx_HAL_Driver/Src/stm32f4xx_ll_fmc.c ****   * @param  Timing Pointer to NAND timing structure
 885:./Libraries/STM32F4xx_HAL_Driver/Src/stm32f4xx_ll_fmc.c ****   * @param  Bank NAND bank number 
 886:./Libraries/STM32F4xx_HAL_Driver/Src/stm32f4xx_ll_fmc.c ****   * @retval HAL status
 887:./Libraries/STM32F4xx_HAL_Driver/Src/stm32f4xx_ll_fmc.c ****   */
 888:./Libraries/STM32F4xx_HAL_Driver/Src/stm32f4xx_ll_fmc.c **** HAL_StatusTypeDef FMC_NAND_AttributeSpace_Timing_Init(FMC_NAND_TypeDef *Device, FMC_NAND_PCC_Timing
 889:./Libraries/STM32F4xx_HAL_Driver/Src/stm32f4xx_ll_fmc.c **** {
 738              		.loc 1 889 1 is_stmt 1 view -0
 739              		.cfi_startproc
 740              		@ args = 0, pretend = 0, frame = 0
 741              		@ frame_needed = 0, uses_anonymous_args = 0
 742              		@ link register save eliminated.
 743              		.loc 1 889 1 is_stmt 0 view .LVU259
 744 0000 10B4     		push	{r4}
 745              	.LCFI12:
 746              		.cfi_def_cfa_offset 4
 747              		.cfi_offset 4, -4
 890:./Libraries/STM32F4xx_HAL_Driver/Src/stm32f4xx_ll_fmc.c ****   uint32_t tmpr = 0U;  
 748              		.loc 1 890 3 is_stmt 1 view .LVU260
 749              	.LVL60:
 891:./Libraries/STM32F4xx_HAL_Driver/Src/stm32f4xx_ll_fmc.c ****   
 892:./Libraries/STM32F4xx_HAL_Driver/Src/stm32f4xx_ll_fmc.c ****   /* Check the parameters */ 
 893:./Libraries/STM32F4xx_HAL_Driver/Src/stm32f4xx_ll_fmc.c ****   assert_param(IS_FMC_NAND_DEVICE(Device)); 
 750              		.loc 1 893 3 view .LVU261
 894:./Libraries/STM32F4xx_HAL_Driver/Src/stm32f4xx_ll_fmc.c ****   assert_param(IS_FMC_SETUP_TIME(Timing->SetupTime));
 751              		.loc 1 894 3 view .LVU262
 895:./Libraries/STM32F4xx_HAL_Driver/Src/stm32f4xx_ll_fmc.c ****   assert_param(IS_FMC_WAIT_TIME(Timing->WaitSetupTime));
 752              		.loc 1 895 3 view .LVU263
 896:./Libraries/STM32F4xx_HAL_Driver/Src/stm32f4xx_ll_fmc.c ****   assert_param(IS_FMC_HOLD_TIME(Timing->HoldSetupTime));
 753              		.loc 1 896 3 view .LVU264
 897:./Libraries/STM32F4xx_HAL_Driver/Src/stm32f4xx_ll_fmc.c ****   assert_param(IS_FMC_HIZ_TIME(Timing->HiZSetupTime));
 754              		.loc 1 897 3 view .LVU265
 898:./Libraries/STM32F4xx_HAL_Driver/Src/stm32f4xx_ll_fmc.c ****   assert_param(IS_FMC_NAND_BANK(Bank));
 755              		.loc 1 898 3 view .LVU266
 899:./Libraries/STM32F4xx_HAL_Driver/Src/stm32f4xx_ll_fmc.c ****   
 900:./Libraries/STM32F4xx_HAL_Driver/Src/stm32f4xx_ll_fmc.c ****   if(Bank == FMC_NAND_BANK2)
 756              		.loc 1 900 3 view .LVU267
 757              		.loc 1 900 5 is_stmt 0 view .LVU268
 758 0002 102A     		cmp	r2, #16
 759 0004 11D0     		beq	.L51
 901:./Libraries/STM32F4xx_HAL_Driver/Src/stm32f4xx_ll_fmc.c ****   {
 902:./Libraries/STM32F4xx_HAL_Driver/Src/stm32f4xx_ll_fmc.c ****     /* Get the NAND bank 2 register value */
 903:./Libraries/STM32F4xx_HAL_Driver/Src/stm32f4xx_ll_fmc.c ****     tmpr = Device->PATT2;
 904:./Libraries/STM32F4xx_HAL_Driver/Src/stm32f4xx_ll_fmc.c ****   }
ARM GAS  /tmp/cczcFqK2.s 			page 31


 905:./Libraries/STM32F4xx_HAL_Driver/Src/stm32f4xx_ll_fmc.c ****   else
 906:./Libraries/STM32F4xx_HAL_Driver/Src/stm32f4xx_ll_fmc.c ****   {
 907:./Libraries/STM32F4xx_HAL_Driver/Src/stm32f4xx_ll_fmc.c ****     /* Get the NAND bank 3 register value */
 908:./Libraries/STM32F4xx_HAL_Driver/Src/stm32f4xx_ll_fmc.c ****     tmpr = Device->PATT3;
 760              		.loc 1 908 5 is_stmt 1 view .LVU269
 761              		.loc 1 908 10 is_stmt 0 view .LVU270
 762 0006 C36A     		ldr	r3, [r0, #44]
 763              	.LVL61:
 764              	.L47:
 909:./Libraries/STM32F4xx_HAL_Driver/Src/stm32f4xx_ll_fmc.c ****   } 
 910:./Libraries/STM32F4xx_HAL_Driver/Src/stm32f4xx_ll_fmc.c ****   
 911:./Libraries/STM32F4xx_HAL_Driver/Src/stm32f4xx_ll_fmc.c ****   /* Clear ATTSETx, ATTWAITx, ATTHOLDx and ATTHIZx bits */
 912:./Libraries/STM32F4xx_HAL_Driver/Src/stm32f4xx_ll_fmc.c ****   tmpr &= ((uint32_t)~(FMC_PATT2_ATTSET2  | FMC_PATT2_ATTWAIT2 | FMC_PATT2_ATTHOLD2 | \
 765              		.loc 1 912 3 is_stmt 1 view .LVU271
 913:./Libraries/STM32F4xx_HAL_Driver/Src/stm32f4xx_ll_fmc.c ****                        FMC_PATT2_ATTHIZ2));
 914:./Libraries/STM32F4xx_HAL_Driver/Src/stm32f4xx_ll_fmc.c ****   
 915:./Libraries/STM32F4xx_HAL_Driver/Src/stm32f4xx_ll_fmc.c ****   /* Set FMC_NAND device timing parameters */
 916:./Libraries/STM32F4xx_HAL_Driver/Src/stm32f4xx_ll_fmc.c ****   tmpr |= (uint32_t)(Timing->SetupTime                  |\
 766              		.loc 1 916 3 view .LVU272
 767              		.loc 1 916 28 is_stmt 0 view .LVU273
 768 0008 0B68     		ldr	r3, [r1]
 769              		.loc 1 916 57 view .LVU274
 770 000a 4C68     		ldr	r4, [r1, #4]
 771 000c 43EA0423 		orr	r3, r3, r4, lsl #8
 917:./Libraries/STM32F4xx_HAL_Driver/Src/stm32f4xx_ll_fmc.c ****                    ((Timing->WaitSetupTime) << 8U)      |\
 772              		.loc 1 917 57 view .LVU275
 773 0010 8C68     		ldr	r4, [r1, #8]
 774 0012 43EA0443 		orr	r3, r3, r4, lsl #16
 918:./Libraries/STM32F4xx_HAL_Driver/Src/stm32f4xx_ll_fmc.c ****                    ((Timing->HoldSetupTime) << 16U)     |\
 919:./Libraries/STM32F4xx_HAL_Driver/Src/stm32f4xx_ll_fmc.c ****                    ((Timing->HiZSetupTime) << 24U));
 775              		.loc 1 919 28 view .LVU276
 776 0016 C968     		ldr	r1, [r1, #12]
 777              	.LVL62:
 918:./Libraries/STM32F4xx_HAL_Driver/Src/stm32f4xx_ll_fmc.c ****                    ((Timing->HoldSetupTime) << 16U)     |\
 778              		.loc 1 918 57 view .LVU277
 779 0018 43EA0163 		orr	r3, r3, r1, lsl #24
 780              	.LVL63:
 920:./Libraries/STM32F4xx_HAL_Driver/Src/stm32f4xx_ll_fmc.c ****                        
 921:./Libraries/STM32F4xx_HAL_Driver/Src/stm32f4xx_ll_fmc.c ****   if(Bank == FMC_NAND_BANK2)
 781              		.loc 1 921 3 is_stmt 1 view .LVU278
 782              		.loc 1 921 5 is_stmt 0 view .LVU279
 783 001c 102A     		cmp	r2, #16
 784 001e 06D0     		beq	.L52
 922:./Libraries/STM32F4xx_HAL_Driver/Src/stm32f4xx_ll_fmc.c ****   {
 923:./Libraries/STM32F4xx_HAL_Driver/Src/stm32f4xx_ll_fmc.c ****     /* NAND bank 2 registers configuration */
 924:./Libraries/STM32F4xx_HAL_Driver/Src/stm32f4xx_ll_fmc.c ****     Device->PATT2 = tmpr;
 925:./Libraries/STM32F4xx_HAL_Driver/Src/stm32f4xx_ll_fmc.c ****   }
 926:./Libraries/STM32F4xx_HAL_Driver/Src/stm32f4xx_ll_fmc.c ****   else
 927:./Libraries/STM32F4xx_HAL_Driver/Src/stm32f4xx_ll_fmc.c ****   {
 928:./Libraries/STM32F4xx_HAL_Driver/Src/stm32f4xx_ll_fmc.c ****     /* NAND bank 3 registers configuration */
 929:./Libraries/STM32F4xx_HAL_Driver/Src/stm32f4xx_ll_fmc.c ****     Device->PATT3 = tmpr;
 785              		.loc 1 929 5 is_stmt 1 view .LVU280
 786              		.loc 1 929 19 is_stmt 0 view .LVU281
 787 0020 C362     		str	r3, [r0, #44]
 788              	.L49:
 930:./Libraries/STM32F4xx_HAL_Driver/Src/stm32f4xx_ll_fmc.c ****   }   
 931:./Libraries/STM32F4xx_HAL_Driver/Src/stm32f4xx_ll_fmc.c ****   
ARM GAS  /tmp/cczcFqK2.s 			page 32


 932:./Libraries/STM32F4xx_HAL_Driver/Src/stm32f4xx_ll_fmc.c ****   return HAL_OK;
 789              		.loc 1 932 3 is_stmt 1 view .LVU282
 933:./Libraries/STM32F4xx_HAL_Driver/Src/stm32f4xx_ll_fmc.c **** }
 790              		.loc 1 933 1 is_stmt 0 view .LVU283
 791 0022 0020     		movs	r0, #0
 792              	.LVL64:
 793              		.loc 1 933 1 view .LVU284
 794 0024 5DF8044B 		ldr	r4, [sp], #4
 795              	.LCFI13:
 796              		.cfi_remember_state
 797              		.cfi_restore 4
 798              		.cfi_def_cfa_offset 0
 799 0028 7047     		bx	lr
 800              	.LVL65:
 801              	.L51:
 802              	.LCFI14:
 803              		.cfi_restore_state
 903:./Libraries/STM32F4xx_HAL_Driver/Src/stm32f4xx_ll_fmc.c ****   }
 804              		.loc 1 903 5 is_stmt 1 view .LVU285
 903:./Libraries/STM32F4xx_HAL_Driver/Src/stm32f4xx_ll_fmc.c ****   }
 805              		.loc 1 903 10 is_stmt 0 view .LVU286
 806 002a C368     		ldr	r3, [r0, #12]
 807              	.LVL66:
 903:./Libraries/STM32F4xx_HAL_Driver/Src/stm32f4xx_ll_fmc.c ****   }
 808              		.loc 1 903 10 view .LVU287
 809 002c ECE7     		b	.L47
 810              	.LVL67:
 811              	.L52:
 924:./Libraries/STM32F4xx_HAL_Driver/Src/stm32f4xx_ll_fmc.c ****   }
 812              		.loc 1 924 5 is_stmt 1 view .LVU288
 924:./Libraries/STM32F4xx_HAL_Driver/Src/stm32f4xx_ll_fmc.c ****   }
 813              		.loc 1 924 19 is_stmt 0 view .LVU289
 814 002e C360     		str	r3, [r0, #12]
 815 0030 F7E7     		b	.L49
 816              		.cfi_endproc
 817              	.LFE134:
 819              		.section	.text.FMC_NAND_DeInit,"ax",%progbits
 820              		.align	1
 821              		.global	FMC_NAND_DeInit
 822              		.syntax unified
 823              		.thumb
 824              		.thumb_func
 825              		.fpu fpv4-sp-d16
 827              	FMC_NAND_DeInit:
 828              	.LVL68:
 829              	.LFB135:
 934:./Libraries/STM32F4xx_HAL_Driver/Src/stm32f4xx_ll_fmc.c **** 
 935:./Libraries/STM32F4xx_HAL_Driver/Src/stm32f4xx_ll_fmc.c **** /**
 936:./Libraries/STM32F4xx_HAL_Driver/Src/stm32f4xx_ll_fmc.c ****   * @brief  DeInitializes the FMC_NAND device 
 937:./Libraries/STM32F4xx_HAL_Driver/Src/stm32f4xx_ll_fmc.c ****   * @param  Device Pointer to NAND device instance
 938:./Libraries/STM32F4xx_HAL_Driver/Src/stm32f4xx_ll_fmc.c ****   * @param  Bank NAND bank number
 939:./Libraries/STM32F4xx_HAL_Driver/Src/stm32f4xx_ll_fmc.c ****   * @retval HAL status
 940:./Libraries/STM32F4xx_HAL_Driver/Src/stm32f4xx_ll_fmc.c ****   */
 941:./Libraries/STM32F4xx_HAL_Driver/Src/stm32f4xx_ll_fmc.c **** HAL_StatusTypeDef FMC_NAND_DeInit(FMC_NAND_TypeDef *Device, uint32_t Bank)
 942:./Libraries/STM32F4xx_HAL_Driver/Src/stm32f4xx_ll_fmc.c **** {
 830              		.loc 1 942 1 is_stmt 1 view -0
 831              		.cfi_startproc
ARM GAS  /tmp/cczcFqK2.s 			page 33


 832              		@ args = 0, pretend = 0, frame = 0
 833              		@ frame_needed = 0, uses_anonymous_args = 0
 834              		@ link register save eliminated.
 943:./Libraries/STM32F4xx_HAL_Driver/Src/stm32f4xx_ll_fmc.c ****   /* Check the parameters */ 
 944:./Libraries/STM32F4xx_HAL_Driver/Src/stm32f4xx_ll_fmc.c ****   assert_param(IS_FMC_NAND_DEVICE(Device)); 
 835              		.loc 1 944 3 view .LVU291
 945:./Libraries/STM32F4xx_HAL_Driver/Src/stm32f4xx_ll_fmc.c ****   assert_param(IS_FMC_NAND_BANK(Bank));
 836              		.loc 1 945 3 view .LVU292
 946:./Libraries/STM32F4xx_HAL_Driver/Src/stm32f4xx_ll_fmc.c ****       
 947:./Libraries/STM32F4xx_HAL_Driver/Src/stm32f4xx_ll_fmc.c ****   /* Disable the NAND Bank */
 948:./Libraries/STM32F4xx_HAL_Driver/Src/stm32f4xx_ll_fmc.c ****   __FMC_NAND_DISABLE(Device, Bank);
 837              		.loc 1 948 3 view .LVU293
 838 0000 1029     		cmp	r1, #16
 839 0002 0FD0     		beq	.L58
 840              		.loc 1 948 3 is_stmt 0 discriminator 2 view .LVU294
 841 0004 036A     		ldr	r3, [r0, #32]
 842 0006 23F00403 		bic	r3, r3, #4
 843 000a 0362     		str	r3, [r0, #32]
 844              	.L55:
 949:./Libraries/STM32F4xx_HAL_Driver/Src/stm32f4xx_ll_fmc.c ****  
 950:./Libraries/STM32F4xx_HAL_Driver/Src/stm32f4xx_ll_fmc.c ****   /* De-initialize the NAND Bank */
 951:./Libraries/STM32F4xx_HAL_Driver/Src/stm32f4xx_ll_fmc.c ****   if(Bank == FMC_NAND_BANK2)
 845              		.loc 1 951 3 is_stmt 1 view .LVU295
 846              		.loc 1 951 5 is_stmt 0 view .LVU296
 847 000c 1029     		cmp	r1, #16
 848 000e 0ED0     		beq	.L59
 952:./Libraries/STM32F4xx_HAL_Driver/Src/stm32f4xx_ll_fmc.c ****   {
 953:./Libraries/STM32F4xx_HAL_Driver/Src/stm32f4xx_ll_fmc.c ****     /* Set the FMC_NAND_BANK2 registers to their reset values */
 954:./Libraries/STM32F4xx_HAL_Driver/Src/stm32f4xx_ll_fmc.c ****     Device->PCR2  = 0x00000018U;
 955:./Libraries/STM32F4xx_HAL_Driver/Src/stm32f4xx_ll_fmc.c ****     Device->SR2   = 0x00000040U;
 956:./Libraries/STM32F4xx_HAL_Driver/Src/stm32f4xx_ll_fmc.c ****     Device->PMEM2 = 0xFCFCFCFCU;
 957:./Libraries/STM32F4xx_HAL_Driver/Src/stm32f4xx_ll_fmc.c ****     Device->PATT2 = 0xFCFCFCFCU;  
 958:./Libraries/STM32F4xx_HAL_Driver/Src/stm32f4xx_ll_fmc.c ****   }
 959:./Libraries/STM32F4xx_HAL_Driver/Src/stm32f4xx_ll_fmc.c ****   /* FMC_Bank3_NAND */  
 960:./Libraries/STM32F4xx_HAL_Driver/Src/stm32f4xx_ll_fmc.c ****   else
 961:./Libraries/STM32F4xx_HAL_Driver/Src/stm32f4xx_ll_fmc.c ****   {
 962:./Libraries/STM32F4xx_HAL_Driver/Src/stm32f4xx_ll_fmc.c ****     /* Set the FMC_NAND_BANK3 registers to their reset values */
 963:./Libraries/STM32F4xx_HAL_Driver/Src/stm32f4xx_ll_fmc.c ****     Device->PCR3  = 0x00000018U;
 849              		.loc 1 963 5 is_stmt 1 view .LVU297
 850              		.loc 1 963 19 is_stmt 0 view .LVU298
 851 0010 1823     		movs	r3, #24
 852 0012 0362     		str	r3, [r0, #32]
 964:./Libraries/STM32F4xx_HAL_Driver/Src/stm32f4xx_ll_fmc.c ****     Device->SR3   = 0x00000040U;
 853              		.loc 1 964 5 is_stmt 1 view .LVU299
 854              		.loc 1 964 19 is_stmt 0 view .LVU300
 855 0014 4023     		movs	r3, #64
 856 0016 4362     		str	r3, [r0, #36]
 965:./Libraries/STM32F4xx_HAL_Driver/Src/stm32f4xx_ll_fmc.c ****     Device->PMEM3 = 0xFCFCFCFCU;
 857              		.loc 1 965 5 is_stmt 1 view .LVU301
 858              		.loc 1 965 19 is_stmt 0 view .LVU302
 859 0018 4FF0FC33 		mov	r3, #-50529028
 860 001c 8362     		str	r3, [r0, #40]
 966:./Libraries/STM32F4xx_HAL_Driver/Src/stm32f4xx_ll_fmc.c ****     Device->PATT3 = 0xFCFCFCFCU; 
 861              		.loc 1 966 5 is_stmt 1 view .LVU303
 862              		.loc 1 966 19 is_stmt 0 view .LVU304
 863 001e C362     		str	r3, [r0, #44]
 864              	.L57:
ARM GAS  /tmp/cczcFqK2.s 			page 34


 967:./Libraries/STM32F4xx_HAL_Driver/Src/stm32f4xx_ll_fmc.c ****   }
 968:./Libraries/STM32F4xx_HAL_Driver/Src/stm32f4xx_ll_fmc.c ****   
 969:./Libraries/STM32F4xx_HAL_Driver/Src/stm32f4xx_ll_fmc.c ****   return HAL_OK;
 865              		.loc 1 969 3 is_stmt 1 view .LVU305
 970:./Libraries/STM32F4xx_HAL_Driver/Src/stm32f4xx_ll_fmc.c **** }
 866              		.loc 1 970 1 is_stmt 0 view .LVU306
 867 0020 0020     		movs	r0, #0
 868              	.LVL69:
 869              		.loc 1 970 1 view .LVU307
 870 0022 7047     		bx	lr
 871              	.LVL70:
 872              	.L58:
 948:./Libraries/STM32F4xx_HAL_Driver/Src/stm32f4xx_ll_fmc.c ****  
 873              		.loc 1 948 3 discriminator 1 view .LVU308
 874 0024 0368     		ldr	r3, [r0]
 875 0026 23F00403 		bic	r3, r3, #4
 876 002a 0360     		str	r3, [r0]
 877 002c EEE7     		b	.L55
 878              	.L59:
 954:./Libraries/STM32F4xx_HAL_Driver/Src/stm32f4xx_ll_fmc.c ****     Device->SR2   = 0x00000040U;
 879              		.loc 1 954 5 is_stmt 1 view .LVU309
 954:./Libraries/STM32F4xx_HAL_Driver/Src/stm32f4xx_ll_fmc.c ****     Device->SR2   = 0x00000040U;
 880              		.loc 1 954 19 is_stmt 0 view .LVU310
 881 002e 1823     		movs	r3, #24
 882 0030 0360     		str	r3, [r0]
 955:./Libraries/STM32F4xx_HAL_Driver/Src/stm32f4xx_ll_fmc.c ****     Device->PMEM2 = 0xFCFCFCFCU;
 883              		.loc 1 955 5 is_stmt 1 view .LVU311
 955:./Libraries/STM32F4xx_HAL_Driver/Src/stm32f4xx_ll_fmc.c ****     Device->PMEM2 = 0xFCFCFCFCU;
 884              		.loc 1 955 19 is_stmt 0 view .LVU312
 885 0032 4023     		movs	r3, #64
 886 0034 4360     		str	r3, [r0, #4]
 956:./Libraries/STM32F4xx_HAL_Driver/Src/stm32f4xx_ll_fmc.c ****     Device->PATT2 = 0xFCFCFCFCU;  
 887              		.loc 1 956 5 is_stmt 1 view .LVU313
 956:./Libraries/STM32F4xx_HAL_Driver/Src/stm32f4xx_ll_fmc.c ****     Device->PATT2 = 0xFCFCFCFCU;  
 888              		.loc 1 956 19 is_stmt 0 view .LVU314
 889 0036 4FF0FC33 		mov	r3, #-50529028
 890 003a 8360     		str	r3, [r0, #8]
 957:./Libraries/STM32F4xx_HAL_Driver/Src/stm32f4xx_ll_fmc.c ****   }
 891              		.loc 1 957 5 is_stmt 1 view .LVU315
 957:./Libraries/STM32F4xx_HAL_Driver/Src/stm32f4xx_ll_fmc.c ****   }
 892              		.loc 1 957 19 is_stmt 0 view .LVU316
 893 003c C360     		str	r3, [r0, #12]
 894 003e EFE7     		b	.L57
 895              		.cfi_endproc
 896              	.LFE135:
 898              		.section	.text.FMC_NAND_ECC_Enable,"ax",%progbits
 899              		.align	1
 900              		.global	FMC_NAND_ECC_Enable
 901              		.syntax unified
 902              		.thumb
 903              		.thumb_func
 904              		.fpu fpv4-sp-d16
 906              	FMC_NAND_ECC_Enable:
 907              	.LVL71:
 908              	.LFB136:
 971:./Libraries/STM32F4xx_HAL_Driver/Src/stm32f4xx_ll_fmc.c **** 
 972:./Libraries/STM32F4xx_HAL_Driver/Src/stm32f4xx_ll_fmc.c **** /**
ARM GAS  /tmp/cczcFqK2.s 			page 35


 973:./Libraries/STM32F4xx_HAL_Driver/Src/stm32f4xx_ll_fmc.c ****   * @}
 974:./Libraries/STM32F4xx_HAL_Driver/Src/stm32f4xx_ll_fmc.c ****   */
 975:./Libraries/STM32F4xx_HAL_Driver/Src/stm32f4xx_ll_fmc.c **** 
 976:./Libraries/STM32F4xx_HAL_Driver/Src/stm32f4xx_ll_fmc.c **** /** @addtogroup FMC_LL_NAND_Private_Functions_Group2
 977:./Libraries/STM32F4xx_HAL_Driver/Src/stm32f4xx_ll_fmc.c ****   *  @brief   management functions 
 978:./Libraries/STM32F4xx_HAL_Driver/Src/stm32f4xx_ll_fmc.c ****   *
 979:./Libraries/STM32F4xx_HAL_Driver/Src/stm32f4xx_ll_fmc.c **** @verbatim   
 980:./Libraries/STM32F4xx_HAL_Driver/Src/stm32f4xx_ll_fmc.c ****   ==============================================================================
 981:./Libraries/STM32F4xx_HAL_Driver/Src/stm32f4xx_ll_fmc.c ****                        ##### FMC_NAND Control functions #####
 982:./Libraries/STM32F4xx_HAL_Driver/Src/stm32f4xx_ll_fmc.c ****   ==============================================================================  
 983:./Libraries/STM32F4xx_HAL_Driver/Src/stm32f4xx_ll_fmc.c ****   [..]
 984:./Libraries/STM32F4xx_HAL_Driver/Src/stm32f4xx_ll_fmc.c ****     This subsection provides a set of functions allowing to control dynamically
 985:./Libraries/STM32F4xx_HAL_Driver/Src/stm32f4xx_ll_fmc.c ****     the FMC NAND interface.
 986:./Libraries/STM32F4xx_HAL_Driver/Src/stm32f4xx_ll_fmc.c **** 
 987:./Libraries/STM32F4xx_HAL_Driver/Src/stm32f4xx_ll_fmc.c **** @endverbatim
 988:./Libraries/STM32F4xx_HAL_Driver/Src/stm32f4xx_ll_fmc.c ****   * @{
 989:./Libraries/STM32F4xx_HAL_Driver/Src/stm32f4xx_ll_fmc.c ****   */ 
 990:./Libraries/STM32F4xx_HAL_Driver/Src/stm32f4xx_ll_fmc.c **** /**
 991:./Libraries/STM32F4xx_HAL_Driver/Src/stm32f4xx_ll_fmc.c ****   * @brief  Enables dynamically FMC_NAND ECC feature.
 992:./Libraries/STM32F4xx_HAL_Driver/Src/stm32f4xx_ll_fmc.c ****   * @param  Device Pointer to NAND device instance
 993:./Libraries/STM32F4xx_HAL_Driver/Src/stm32f4xx_ll_fmc.c ****   * @param  Bank NAND bank number
 994:./Libraries/STM32F4xx_HAL_Driver/Src/stm32f4xx_ll_fmc.c ****   * @retval HAL status
 995:./Libraries/STM32F4xx_HAL_Driver/Src/stm32f4xx_ll_fmc.c ****   */    
 996:./Libraries/STM32F4xx_HAL_Driver/Src/stm32f4xx_ll_fmc.c **** HAL_StatusTypeDef FMC_NAND_ECC_Enable(FMC_NAND_TypeDef *Device, uint32_t Bank)
 997:./Libraries/STM32F4xx_HAL_Driver/Src/stm32f4xx_ll_fmc.c **** {
 909              		.loc 1 997 1 is_stmt 1 view -0
 910              		.cfi_startproc
 911              		@ args = 0, pretend = 0, frame = 0
 912              		@ frame_needed = 0, uses_anonymous_args = 0
 913              		@ link register save eliminated.
 998:./Libraries/STM32F4xx_HAL_Driver/Src/stm32f4xx_ll_fmc.c ****   /* Check the parameters */ 
 999:./Libraries/STM32F4xx_HAL_Driver/Src/stm32f4xx_ll_fmc.c ****   assert_param(IS_FMC_NAND_DEVICE(Device)); 
 914              		.loc 1 999 3 view .LVU318
1000:./Libraries/STM32F4xx_HAL_Driver/Src/stm32f4xx_ll_fmc.c ****   assert_param(IS_FMC_NAND_BANK(Bank));
 915              		.loc 1 1000 3 view .LVU319
1001:./Libraries/STM32F4xx_HAL_Driver/Src/stm32f4xx_ll_fmc.c ****     
1002:./Libraries/STM32F4xx_HAL_Driver/Src/stm32f4xx_ll_fmc.c ****   /* Enable ECC feature */
1003:./Libraries/STM32F4xx_HAL_Driver/Src/stm32f4xx_ll_fmc.c ****   if(Bank == FMC_NAND_BANK2)
 916              		.loc 1 1003 3 view .LVU320
 917              		.loc 1 1003 5 is_stmt 0 view .LVU321
 918 0000 1029     		cmp	r1, #16
 919 0002 05D0     		beq	.L63
1004:./Libraries/STM32F4xx_HAL_Driver/Src/stm32f4xx_ll_fmc.c ****   {
1005:./Libraries/STM32F4xx_HAL_Driver/Src/stm32f4xx_ll_fmc.c ****     Device->PCR2 |= FMC_PCR2_ECCEN;
1006:./Libraries/STM32F4xx_HAL_Driver/Src/stm32f4xx_ll_fmc.c ****   }
1007:./Libraries/STM32F4xx_HAL_Driver/Src/stm32f4xx_ll_fmc.c ****   else
1008:./Libraries/STM32F4xx_HAL_Driver/Src/stm32f4xx_ll_fmc.c ****   {
1009:./Libraries/STM32F4xx_HAL_Driver/Src/stm32f4xx_ll_fmc.c ****     Device->PCR3 |= FMC_PCR3_ECCEN;
 920              		.loc 1 1009 5 is_stmt 1 view .LVU322
 921              		.loc 1 1009 18 is_stmt 0 view .LVU323
 922 0004 036A     		ldr	r3, [r0, #32]
 923 0006 43F04003 		orr	r3, r3, #64
 924 000a 0362     		str	r3, [r0, #32]
 925              	.L62:
1010:./Libraries/STM32F4xx_HAL_Driver/Src/stm32f4xx_ll_fmc.c ****   } 
1011:./Libraries/STM32F4xx_HAL_Driver/Src/stm32f4xx_ll_fmc.c ****   
1012:./Libraries/STM32F4xx_HAL_Driver/Src/stm32f4xx_ll_fmc.c ****   return HAL_OK;  
ARM GAS  /tmp/cczcFqK2.s 			page 36


 926              		.loc 1 1012 3 is_stmt 1 view .LVU324
1013:./Libraries/STM32F4xx_HAL_Driver/Src/stm32f4xx_ll_fmc.c **** }
 927              		.loc 1 1013 1 is_stmt 0 view .LVU325
 928 000c 0020     		movs	r0, #0
 929              	.LVL72:
 930              		.loc 1 1013 1 view .LVU326
 931 000e 7047     		bx	lr
 932              	.LVL73:
 933              	.L63:
1005:./Libraries/STM32F4xx_HAL_Driver/Src/stm32f4xx_ll_fmc.c ****   }
 934              		.loc 1 1005 5 is_stmt 1 view .LVU327
1005:./Libraries/STM32F4xx_HAL_Driver/Src/stm32f4xx_ll_fmc.c ****   }
 935              		.loc 1 1005 18 is_stmt 0 view .LVU328
 936 0010 0368     		ldr	r3, [r0]
 937 0012 43F04003 		orr	r3, r3, #64
 938 0016 0360     		str	r3, [r0]
 939 0018 F8E7     		b	.L62
 940              		.cfi_endproc
 941              	.LFE136:
 943              		.section	.text.FMC_NAND_ECC_Disable,"ax",%progbits
 944              		.align	1
 945              		.global	FMC_NAND_ECC_Disable
 946              		.syntax unified
 947              		.thumb
 948              		.thumb_func
 949              		.fpu fpv4-sp-d16
 951              	FMC_NAND_ECC_Disable:
 952              	.LVL74:
 953              	.LFB137:
1014:./Libraries/STM32F4xx_HAL_Driver/Src/stm32f4xx_ll_fmc.c **** 
1015:./Libraries/STM32F4xx_HAL_Driver/Src/stm32f4xx_ll_fmc.c **** /**
1016:./Libraries/STM32F4xx_HAL_Driver/Src/stm32f4xx_ll_fmc.c ****   * @brief  Disables dynamically FMC_NAND ECC feature.
1017:./Libraries/STM32F4xx_HAL_Driver/Src/stm32f4xx_ll_fmc.c ****   * @param  Device Pointer to NAND device instance
1018:./Libraries/STM32F4xx_HAL_Driver/Src/stm32f4xx_ll_fmc.c ****   * @param  Bank NAND bank number
1019:./Libraries/STM32F4xx_HAL_Driver/Src/stm32f4xx_ll_fmc.c ****   * @retval HAL status
1020:./Libraries/STM32F4xx_HAL_Driver/Src/stm32f4xx_ll_fmc.c ****   */  
1021:./Libraries/STM32F4xx_HAL_Driver/Src/stm32f4xx_ll_fmc.c **** HAL_StatusTypeDef FMC_NAND_ECC_Disable(FMC_NAND_TypeDef *Device, uint32_t Bank)  
1022:./Libraries/STM32F4xx_HAL_Driver/Src/stm32f4xx_ll_fmc.c **** {  
 954              		.loc 1 1022 1 is_stmt 1 view -0
 955              		.cfi_startproc
 956              		@ args = 0, pretend = 0, frame = 0
 957              		@ frame_needed = 0, uses_anonymous_args = 0
 958              		@ link register save eliminated.
1023:./Libraries/STM32F4xx_HAL_Driver/Src/stm32f4xx_ll_fmc.c ****   /* Check the parameters */ 
1024:./Libraries/STM32F4xx_HAL_Driver/Src/stm32f4xx_ll_fmc.c ****   assert_param(IS_FMC_NAND_DEVICE(Device)); 
 959              		.loc 1 1024 3 view .LVU330
1025:./Libraries/STM32F4xx_HAL_Driver/Src/stm32f4xx_ll_fmc.c ****   assert_param(IS_FMC_NAND_BANK(Bank));
 960              		.loc 1 1025 3 view .LVU331
1026:./Libraries/STM32F4xx_HAL_Driver/Src/stm32f4xx_ll_fmc.c ****     
1027:./Libraries/STM32F4xx_HAL_Driver/Src/stm32f4xx_ll_fmc.c ****   /* Disable ECC feature */
1028:./Libraries/STM32F4xx_HAL_Driver/Src/stm32f4xx_ll_fmc.c ****   if(Bank == FMC_NAND_BANK2)
 961              		.loc 1 1028 3 view .LVU332
 962              		.loc 1 1028 5 is_stmt 0 view .LVU333
 963 0000 1029     		cmp	r1, #16
 964 0002 05D0     		beq	.L67
1029:./Libraries/STM32F4xx_HAL_Driver/Src/stm32f4xx_ll_fmc.c ****   {
1030:./Libraries/STM32F4xx_HAL_Driver/Src/stm32f4xx_ll_fmc.c ****     Device->PCR2 &= ~FMC_PCR2_ECCEN;
ARM GAS  /tmp/cczcFqK2.s 			page 37


1031:./Libraries/STM32F4xx_HAL_Driver/Src/stm32f4xx_ll_fmc.c ****   }
1032:./Libraries/STM32F4xx_HAL_Driver/Src/stm32f4xx_ll_fmc.c ****   else
1033:./Libraries/STM32F4xx_HAL_Driver/Src/stm32f4xx_ll_fmc.c ****   {
1034:./Libraries/STM32F4xx_HAL_Driver/Src/stm32f4xx_ll_fmc.c ****     Device->PCR3 &= ~FMC_PCR3_ECCEN;
 965              		.loc 1 1034 5 is_stmt 1 view .LVU334
 966              		.loc 1 1034 18 is_stmt 0 view .LVU335
 967 0004 036A     		ldr	r3, [r0, #32]
 968 0006 23F04003 		bic	r3, r3, #64
 969 000a 0362     		str	r3, [r0, #32]
 970              	.L66:
1035:./Libraries/STM32F4xx_HAL_Driver/Src/stm32f4xx_ll_fmc.c ****   } 
1036:./Libraries/STM32F4xx_HAL_Driver/Src/stm32f4xx_ll_fmc.c **** 
1037:./Libraries/STM32F4xx_HAL_Driver/Src/stm32f4xx_ll_fmc.c ****   return HAL_OK;  
 971              		.loc 1 1037 3 is_stmt 1 view .LVU336
1038:./Libraries/STM32F4xx_HAL_Driver/Src/stm32f4xx_ll_fmc.c **** }
 972              		.loc 1 1038 1 is_stmt 0 view .LVU337
 973 000c 0020     		movs	r0, #0
 974              	.LVL75:
 975              		.loc 1 1038 1 view .LVU338
 976 000e 7047     		bx	lr
 977              	.LVL76:
 978              	.L67:
1030:./Libraries/STM32F4xx_HAL_Driver/Src/stm32f4xx_ll_fmc.c ****   }
 979              		.loc 1 1030 5 is_stmt 1 view .LVU339
1030:./Libraries/STM32F4xx_HAL_Driver/Src/stm32f4xx_ll_fmc.c ****   }
 980              		.loc 1 1030 18 is_stmt 0 view .LVU340
 981 0010 0368     		ldr	r3, [r0]
 982 0012 23F04003 		bic	r3, r3, #64
 983 0016 0360     		str	r3, [r0]
 984 0018 F8E7     		b	.L66
 985              		.cfi_endproc
 986              	.LFE137:
 988              		.section	.text.FMC_NAND_GetECC,"ax",%progbits
 989              		.align	1
 990              		.global	FMC_NAND_GetECC
 991              		.syntax unified
 992              		.thumb
 993              		.thumb_func
 994              		.fpu fpv4-sp-d16
 996              	FMC_NAND_GetECC:
 997              	.LVL77:
 998              	.LFB138:
1039:./Libraries/STM32F4xx_HAL_Driver/Src/stm32f4xx_ll_fmc.c **** 
1040:./Libraries/STM32F4xx_HAL_Driver/Src/stm32f4xx_ll_fmc.c **** /**
1041:./Libraries/STM32F4xx_HAL_Driver/Src/stm32f4xx_ll_fmc.c ****   * @brief  Disables dynamically FMC_NAND ECC feature.
1042:./Libraries/STM32F4xx_HAL_Driver/Src/stm32f4xx_ll_fmc.c ****   * @param  Device Pointer to NAND device instance
1043:./Libraries/STM32F4xx_HAL_Driver/Src/stm32f4xx_ll_fmc.c ****   * @param  ECCval Pointer to ECC value
1044:./Libraries/STM32F4xx_HAL_Driver/Src/stm32f4xx_ll_fmc.c ****   * @param  Bank NAND bank number
1045:./Libraries/STM32F4xx_HAL_Driver/Src/stm32f4xx_ll_fmc.c ****   * @param  Timeout Timeout wait value  
1046:./Libraries/STM32F4xx_HAL_Driver/Src/stm32f4xx_ll_fmc.c ****   * @retval HAL status
1047:./Libraries/STM32F4xx_HAL_Driver/Src/stm32f4xx_ll_fmc.c ****   */
1048:./Libraries/STM32F4xx_HAL_Driver/Src/stm32f4xx_ll_fmc.c **** HAL_StatusTypeDef FMC_NAND_GetECC(FMC_NAND_TypeDef *Device, uint32_t *ECCval, uint32_t Bank, uint32
1049:./Libraries/STM32F4xx_HAL_Driver/Src/stm32f4xx_ll_fmc.c **** {
 999              		.loc 1 1049 1 is_stmt 1 view -0
 1000              		.cfi_startproc
 1001              		@ args = 0, pretend = 0, frame = 0
 1002              		@ frame_needed = 0, uses_anonymous_args = 0
ARM GAS  /tmp/cczcFqK2.s 			page 38


 1003              		.loc 1 1049 1 is_stmt 0 view .LVU342
 1004 0000 2DE9F843 		push	{r3, r4, r5, r6, r7, r8, r9, lr}
 1005              	.LCFI15:
 1006              		.cfi_def_cfa_offset 32
 1007              		.cfi_offset 3, -32
 1008              		.cfi_offset 4, -28
 1009              		.cfi_offset 5, -24
 1010              		.cfi_offset 6, -20
 1011              		.cfi_offset 7, -16
 1012              		.cfi_offset 8, -12
 1013              		.cfi_offset 9, -8
 1014              		.cfi_offset 14, -4
 1015 0004 0646     		mov	r6, r0
 1016 0006 8846     		mov	r8, r1
 1017 0008 1546     		mov	r5, r2
 1018 000a 1F46     		mov	r7, r3
1050:./Libraries/STM32F4xx_HAL_Driver/Src/stm32f4xx_ll_fmc.c ****   uint32_t tickstart = 0U;
 1019              		.loc 1 1050 3 is_stmt 1 view .LVU343
 1020              	.LVL78:
1051:./Libraries/STM32F4xx_HAL_Driver/Src/stm32f4xx_ll_fmc.c **** 
1052:./Libraries/STM32F4xx_HAL_Driver/Src/stm32f4xx_ll_fmc.c ****   /* Check the parameters */ 
1053:./Libraries/STM32F4xx_HAL_Driver/Src/stm32f4xx_ll_fmc.c ****   assert_param(IS_FMC_NAND_DEVICE(Device)); 
 1021              		.loc 1 1053 3 view .LVU344
1054:./Libraries/STM32F4xx_HAL_Driver/Src/stm32f4xx_ll_fmc.c ****   assert_param(IS_FMC_NAND_BANK(Bank));
 1022              		.loc 1 1054 3 view .LVU345
1055:./Libraries/STM32F4xx_HAL_Driver/Src/stm32f4xx_ll_fmc.c **** 
1056:./Libraries/STM32F4xx_HAL_Driver/Src/stm32f4xx_ll_fmc.c ****   /* Get tick */ 
1057:./Libraries/STM32F4xx_HAL_Driver/Src/stm32f4xx_ll_fmc.c ****   tickstart = HAL_GetTick();
 1023              		.loc 1 1057 3 view .LVU346
 1024              		.loc 1 1057 15 is_stmt 0 view .LVU347
 1025 000c FFF7FEFF 		bl	HAL_GetTick
 1026              	.LVL79:
 1027              		.loc 1 1057 15 view .LVU348
 1028 0010 8146     		mov	r9, r0
 1029              	.LVL80:
1058:./Libraries/STM32F4xx_HAL_Driver/Src/stm32f4xx_ll_fmc.c **** 
1059:./Libraries/STM32F4xx_HAL_Driver/Src/stm32f4xx_ll_fmc.c ****   /* Wait until FIFO is empty */
1060:./Libraries/STM32F4xx_HAL_Driver/Src/stm32f4xx_ll_fmc.c ****   while(__FMC_NAND_GET_FLAG(Device, Bank, FMC_FLAG_FEMPT) == RESET)
 1030              		.loc 1 1060 3 is_stmt 1 view .LVU349
 1031              		.loc 1 1060 8 is_stmt 0 view .LVU350
 1032 0012 12E0     		b	.L70
 1033              	.LVL81:
 1034              	.L79:
1061:./Libraries/STM32F4xx_HAL_Driver/Src/stm32f4xx_ll_fmc.c ****   {
1062:./Libraries/STM32F4xx_HAL_Driver/Src/stm32f4xx_ll_fmc.c ****     /* Check for the Timeout */
1063:./Libraries/STM32F4xx_HAL_Driver/Src/stm32f4xx_ll_fmc.c ****     if(Timeout != HAL_MAX_DELAY)
1064:./Libraries/STM32F4xx_HAL_Driver/Src/stm32f4xx_ll_fmc.c ****     {
1065:./Libraries/STM32F4xx_HAL_Driver/Src/stm32f4xx_ll_fmc.c ****       if((Timeout == 0U)||((HAL_GetTick() - tickstart ) > Timeout))
 1035              		.loc 1 1065 7 is_stmt 1 view .LVU351
 1036              		.loc 1 1065 9 is_stmt 0 view .LVU352
 1037 0014 2FB1     		cbz	r7, .L71
 1038              		.loc 1 1065 29 discriminator 1 view .LVU353
 1039 0016 FFF7FEFF 		bl	HAL_GetTick
 1040              	.LVL82:
 1041              		.loc 1 1065 43 discriminator 1 view .LVU354
 1042 001a A0EB0900 		sub	r0, r0, r9
 1043              		.loc 1 1065 25 discriminator 1 view .LVU355
ARM GAS  /tmp/cczcFqK2.s 			page 39


 1044 001e B842     		cmp	r0, r7
 1045 0020 0BD9     		bls	.L70
 1046              	.L71:
1066:./Libraries/STM32F4xx_HAL_Driver/Src/stm32f4xx_ll_fmc.c ****       {
1067:./Libraries/STM32F4xx_HAL_Driver/Src/stm32f4xx_ll_fmc.c ****         return HAL_TIMEOUT;
 1047              		.loc 1 1067 9 is_stmt 1 view .LVU356
 1048              		.loc 1 1067 16 is_stmt 0 view .LVU357
 1049 0022 0320     		movs	r0, #3
 1050 0024 18E0     		b	.L72
 1051              	.L73:
1060:./Libraries/STM32F4xx_HAL_Driver/Src/stm32f4xx_ll_fmc.c ****   {
 1052              		.loc 1 1060 9 discriminator 2 view .LVU358
 1053 0026 746A     		ldr	r4, [r6, #36]
1060:./Libraries/STM32F4xx_HAL_Driver/Src/stm32f4xx_ll_fmc.c ****   {
 1054              		.loc 1 1060 59 discriminator 2 view .LVU359
 1055 0028 14F0400F 		tst	r4, #64
 1056 002c 0CBF     		ite	eq
 1057 002e 0124     		moveq	r4, #1
 1058 0030 0024     		movne	r4, #0
 1059              	.L74:
1060:./Libraries/STM32F4xx_HAL_Driver/Src/stm32f4xx_ll_fmc.c ****   {
 1060              		.loc 1 1060 8 discriminator 4 view .LVU360
 1061 0032 5CB1     		cbz	r4, .L78
1063:./Libraries/STM32F4xx_HAL_Driver/Src/stm32f4xx_ll_fmc.c ****     {
 1062              		.loc 1 1063 5 is_stmt 1 view .LVU361
1063:./Libraries/STM32F4xx_HAL_Driver/Src/stm32f4xx_ll_fmc.c ****     {
 1063              		.loc 1 1063 7 is_stmt 0 view .LVU362
 1064 0034 B7F1FF3F 		cmp	r7, #-1
 1065 0038 ECD1     		bne	.L79
 1066              	.L70:
1060:./Libraries/STM32F4xx_HAL_Driver/Src/stm32f4xx_ll_fmc.c ****   {
 1067              		.loc 1 1060 8 is_stmt 1 view .LVU363
1060:./Libraries/STM32F4xx_HAL_Driver/Src/stm32f4xx_ll_fmc.c ****   {
 1068              		.loc 1 1060 59 is_stmt 0 view .LVU364
 1069 003a 102D     		cmp	r5, #16
 1070 003c F3D1     		bne	.L73
1060:./Libraries/STM32F4xx_HAL_Driver/Src/stm32f4xx_ll_fmc.c ****   {
 1071              		.loc 1 1060 9 discriminator 1 view .LVU365
 1072 003e 7368     		ldr	r3, [r6, #4]
1060:./Libraries/STM32F4xx_HAL_Driver/Src/stm32f4xx_ll_fmc.c ****   {
 1073              		.loc 1 1060 59 discriminator 1 view .LVU366
 1074 0040 13F0400F 		tst	r3, #64
 1075 0044 0CBF     		ite	eq
 1076 0046 0124     		moveq	r4, #1
 1077 0048 0024     		movne	r4, #0
 1078 004a F2E7     		b	.L74
 1079              	.L78:
1068:./Libraries/STM32F4xx_HAL_Driver/Src/stm32f4xx_ll_fmc.c ****       }
1069:./Libraries/STM32F4xx_HAL_Driver/Src/stm32f4xx_ll_fmc.c ****     }  
1070:./Libraries/STM32F4xx_HAL_Driver/Src/stm32f4xx_ll_fmc.c ****   }
1071:./Libraries/STM32F4xx_HAL_Driver/Src/stm32f4xx_ll_fmc.c ****      
1072:./Libraries/STM32F4xx_HAL_Driver/Src/stm32f4xx_ll_fmc.c ****   if(Bank == FMC_NAND_BANK2)
 1080              		.loc 1 1072 3 is_stmt 1 view .LVU367
 1081              		.loc 1 1072 5 is_stmt 0 view .LVU368
 1082 004c 102D     		cmp	r5, #16
 1083 004e 05D0     		beq	.L80
1073:./Libraries/STM32F4xx_HAL_Driver/Src/stm32f4xx_ll_fmc.c ****   {    
ARM GAS  /tmp/cczcFqK2.s 			page 40


1074:./Libraries/STM32F4xx_HAL_Driver/Src/stm32f4xx_ll_fmc.c ****     /* Get the ECCR2 register value */
1075:./Libraries/STM32F4xx_HAL_Driver/Src/stm32f4xx_ll_fmc.c ****     *ECCval = (uint32_t)Device->ECCR2;
1076:./Libraries/STM32F4xx_HAL_Driver/Src/stm32f4xx_ll_fmc.c ****   }
1077:./Libraries/STM32F4xx_HAL_Driver/Src/stm32f4xx_ll_fmc.c ****   else
1078:./Libraries/STM32F4xx_HAL_Driver/Src/stm32f4xx_ll_fmc.c ****   {    
1079:./Libraries/STM32F4xx_HAL_Driver/Src/stm32f4xx_ll_fmc.c ****     /* Get the ECCR3 register value */
1080:./Libraries/STM32F4xx_HAL_Driver/Src/stm32f4xx_ll_fmc.c ****     *ECCval = (uint32_t)Device->ECCR3;
 1084              		.loc 1 1080 5 is_stmt 1 view .LVU369
 1085              		.loc 1 1080 31 is_stmt 0 view .LVU370
 1086 0050 736B     		ldr	r3, [r6, #52]
 1087              		.loc 1 1080 13 view .LVU371
 1088 0052 C8F80030 		str	r3, [r8]
1081:./Libraries/STM32F4xx_HAL_Driver/Src/stm32f4xx_ll_fmc.c ****   }
1082:./Libraries/STM32F4xx_HAL_Driver/Src/stm32f4xx_ll_fmc.c **** 
1083:./Libraries/STM32F4xx_HAL_Driver/Src/stm32f4xx_ll_fmc.c ****   return HAL_OK;  
 1089              		.loc 1 1083 10 view .LVU372
 1090 0056 0020     		movs	r0, #0
 1091              	.L72:
1084:./Libraries/STM32F4xx_HAL_Driver/Src/stm32f4xx_ll_fmc.c **** }
 1092              		.loc 1 1084 1 view .LVU373
 1093 0058 BDE8F883 		pop	{r3, r4, r5, r6, r7, r8, r9, pc}
 1094              	.LVL83:
 1095              	.L80:
1075:./Libraries/STM32F4xx_HAL_Driver/Src/stm32f4xx_ll_fmc.c ****   }
 1096              		.loc 1 1075 5 is_stmt 1 view .LVU374
1075:./Libraries/STM32F4xx_HAL_Driver/Src/stm32f4xx_ll_fmc.c ****   }
 1097              		.loc 1 1075 31 is_stmt 0 view .LVU375
 1098 005c 7369     		ldr	r3, [r6, #20]
1075:./Libraries/STM32F4xx_HAL_Driver/Src/stm32f4xx_ll_fmc.c ****   }
 1099              		.loc 1 1075 13 view .LVU376
 1100 005e C8F80030 		str	r3, [r8]
1083:./Libraries/STM32F4xx_HAL_Driver/Src/stm32f4xx_ll_fmc.c **** }
 1101              		.loc 1 1083 10 view .LVU377
 1102 0062 0020     		movs	r0, #0
 1103 0064 F8E7     		b	.L72
 1104              		.cfi_endproc
 1105              	.LFE138:
 1107              		.section	.text.FMC_PCCARD_Init,"ax",%progbits
 1108              		.align	1
 1109              		.global	FMC_PCCARD_Init
 1110              		.syntax unified
 1111              		.thumb
 1112              		.thumb_func
 1113              		.fpu fpv4-sp-d16
 1115              	FMC_PCCARD_Init:
 1116              	.LVL84:
 1117              	.LFB139:
1085:./Libraries/STM32F4xx_HAL_Driver/Src/stm32f4xx_ll_fmc.c **** 
1086:./Libraries/STM32F4xx_HAL_Driver/Src/stm32f4xx_ll_fmc.c **** /**
1087:./Libraries/STM32F4xx_HAL_Driver/Src/stm32f4xx_ll_fmc.c ****   * @}
1088:./Libraries/STM32F4xx_HAL_Driver/Src/stm32f4xx_ll_fmc.c ****   */
1089:./Libraries/STM32F4xx_HAL_Driver/Src/stm32f4xx_ll_fmc.c **** 
1090:./Libraries/STM32F4xx_HAL_Driver/Src/stm32f4xx_ll_fmc.c **** #endif /* defined(STM32F446xx) || defined(STM32F469xx) || defined(STM32F479xx) */
1091:./Libraries/STM32F4xx_HAL_Driver/Src/stm32f4xx_ll_fmc.c **** /**
1092:./Libraries/STM32F4xx_HAL_Driver/Src/stm32f4xx_ll_fmc.c ****   * @}
1093:./Libraries/STM32F4xx_HAL_Driver/Src/stm32f4xx_ll_fmc.c ****   */
1094:./Libraries/STM32F4xx_HAL_Driver/Src/stm32f4xx_ll_fmc.c **** 
ARM GAS  /tmp/cczcFqK2.s 			page 41


1095:./Libraries/STM32F4xx_HAL_Driver/Src/stm32f4xx_ll_fmc.c **** #if defined(STM32F427xx) || defined(STM32F437xx) || defined(STM32F429xx) || defined(STM32F439xx)
1096:./Libraries/STM32F4xx_HAL_Driver/Src/stm32f4xx_ll_fmc.c **** /** @addtogroup FMC_LL_PCCARD
1097:./Libraries/STM32F4xx_HAL_Driver/Src/stm32f4xx_ll_fmc.c ****   * @brief    PCCARD Controller functions 
1098:./Libraries/STM32F4xx_HAL_Driver/Src/stm32f4xx_ll_fmc.c ****   *
1099:./Libraries/STM32F4xx_HAL_Driver/Src/stm32f4xx_ll_fmc.c ****   @verbatim 
1100:./Libraries/STM32F4xx_HAL_Driver/Src/stm32f4xx_ll_fmc.c ****   ==============================================================================  
1101:./Libraries/STM32F4xx_HAL_Driver/Src/stm32f4xx_ll_fmc.c ****                     ##### How to use PCCARD device driver #####
1102:./Libraries/STM32F4xx_HAL_Driver/Src/stm32f4xx_ll_fmc.c ****   ==============================================================================
1103:./Libraries/STM32F4xx_HAL_Driver/Src/stm32f4xx_ll_fmc.c ****   [..]
1104:./Libraries/STM32F4xx_HAL_Driver/Src/stm32f4xx_ll_fmc.c ****     This driver contains a set of APIs to interface with the FMC PCCARD bank in order
1105:./Libraries/STM32F4xx_HAL_Driver/Src/stm32f4xx_ll_fmc.c ****     to run the PCCARD/compact flash external devices.
1106:./Libraries/STM32F4xx_HAL_Driver/Src/stm32f4xx_ll_fmc.c ****   
1107:./Libraries/STM32F4xx_HAL_Driver/Src/stm32f4xx_ll_fmc.c ****     (+) FMC PCCARD bank reset using the function FMC_PCCARD_DeInit() 
1108:./Libraries/STM32F4xx_HAL_Driver/Src/stm32f4xx_ll_fmc.c ****     (+) FMC PCCARD bank control configuration using the function FMC_PCCARD_Init()
1109:./Libraries/STM32F4xx_HAL_Driver/Src/stm32f4xx_ll_fmc.c ****     (+) FMC PCCARD bank common space timing configuration using the function 
1110:./Libraries/STM32F4xx_HAL_Driver/Src/stm32f4xx_ll_fmc.c ****         FMC_PCCARD_CommonSpace_Timing_Init()
1111:./Libraries/STM32F4xx_HAL_Driver/Src/stm32f4xx_ll_fmc.c ****     (+) FMC PCCARD bank attribute space timing configuration using the function 
1112:./Libraries/STM32F4xx_HAL_Driver/Src/stm32f4xx_ll_fmc.c ****         FMC_PCCARD_AttributeSpace_Timing_Init()
1113:./Libraries/STM32F4xx_HAL_Driver/Src/stm32f4xx_ll_fmc.c ****     (+) FMC PCCARD bank IO space timing configuration using the function 
1114:./Libraries/STM32F4xx_HAL_Driver/Src/stm32f4xx_ll_fmc.c ****         FMC_PCCARD_IOSpace_Timing_Init()
1115:./Libraries/STM32F4xx_HAL_Driver/Src/stm32f4xx_ll_fmc.c **** @endverbatim
1116:./Libraries/STM32F4xx_HAL_Driver/Src/stm32f4xx_ll_fmc.c ****   * @{
1117:./Libraries/STM32F4xx_HAL_Driver/Src/stm32f4xx_ll_fmc.c ****   */
1118:./Libraries/STM32F4xx_HAL_Driver/Src/stm32f4xx_ll_fmc.c ****   
1119:./Libraries/STM32F4xx_HAL_Driver/Src/stm32f4xx_ll_fmc.c **** /** @addtogroup FMC_LL_PCCARD_Private_Functions_Group1
1120:./Libraries/STM32F4xx_HAL_Driver/Src/stm32f4xx_ll_fmc.c ****   *  @brief    Initialization and Configuration functions 
1121:./Libraries/STM32F4xx_HAL_Driver/Src/stm32f4xx_ll_fmc.c ****   *
1122:./Libraries/STM32F4xx_HAL_Driver/Src/stm32f4xx_ll_fmc.c **** @verbatim    
1123:./Libraries/STM32F4xx_HAL_Driver/Src/stm32f4xx_ll_fmc.c ****   ==============================================================================
1124:./Libraries/STM32F4xx_HAL_Driver/Src/stm32f4xx_ll_fmc.c ****               ##### Initialization and de_initialization functions #####
1125:./Libraries/STM32F4xx_HAL_Driver/Src/stm32f4xx_ll_fmc.c ****   ==============================================================================
1126:./Libraries/STM32F4xx_HAL_Driver/Src/stm32f4xx_ll_fmc.c ****   [..]  
1127:./Libraries/STM32F4xx_HAL_Driver/Src/stm32f4xx_ll_fmc.c ****     This section provides functions allowing to:
1128:./Libraries/STM32F4xx_HAL_Driver/Src/stm32f4xx_ll_fmc.c ****     (+) Initialize and configure the FMC PCCARD interface
1129:./Libraries/STM32F4xx_HAL_Driver/Src/stm32f4xx_ll_fmc.c ****     (+) De-initialize the FMC PCCARD interface 
1130:./Libraries/STM32F4xx_HAL_Driver/Src/stm32f4xx_ll_fmc.c ****     (+) Configure the FMC clock and associated GPIOs
1131:./Libraries/STM32F4xx_HAL_Driver/Src/stm32f4xx_ll_fmc.c ****         
1132:./Libraries/STM32F4xx_HAL_Driver/Src/stm32f4xx_ll_fmc.c **** @endverbatim
1133:./Libraries/STM32F4xx_HAL_Driver/Src/stm32f4xx_ll_fmc.c ****   * @{
1134:./Libraries/STM32F4xx_HAL_Driver/Src/stm32f4xx_ll_fmc.c ****   */
1135:./Libraries/STM32F4xx_HAL_Driver/Src/stm32f4xx_ll_fmc.c ****   
1136:./Libraries/STM32F4xx_HAL_Driver/Src/stm32f4xx_ll_fmc.c **** /**
1137:./Libraries/STM32F4xx_HAL_Driver/Src/stm32f4xx_ll_fmc.c ****   * @brief  Initializes the FMC_PCCARD device according to the specified
1138:./Libraries/STM32F4xx_HAL_Driver/Src/stm32f4xx_ll_fmc.c ****   *         control parameters in the FMC_PCCARD_HandleTypeDef
1139:./Libraries/STM32F4xx_HAL_Driver/Src/stm32f4xx_ll_fmc.c ****   * @param  Device Pointer to PCCARD device instance
1140:./Libraries/STM32F4xx_HAL_Driver/Src/stm32f4xx_ll_fmc.c ****   * @param  Init Pointer to PCCARD Initialization structure   
1141:./Libraries/STM32F4xx_HAL_Driver/Src/stm32f4xx_ll_fmc.c ****   * @retval HAL status
1142:./Libraries/STM32F4xx_HAL_Driver/Src/stm32f4xx_ll_fmc.c ****   */
1143:./Libraries/STM32F4xx_HAL_Driver/Src/stm32f4xx_ll_fmc.c **** HAL_StatusTypeDef FMC_PCCARD_Init(FMC_PCCARD_TypeDef *Device, FMC_PCCARD_InitTypeDef *Init)
1144:./Libraries/STM32F4xx_HAL_Driver/Src/stm32f4xx_ll_fmc.c **** {
 1118              		.loc 1 1144 1 is_stmt 1 view -0
 1119              		.cfi_startproc
 1120              		@ args = 0, pretend = 0, frame = 0
 1121              		@ frame_needed = 0, uses_anonymous_args = 0
 1122              		@ link register save eliminated.
 1123              		.loc 1 1144 1 is_stmt 0 view .LVU379
 1124 0000 10B4     		push	{r4}
ARM GAS  /tmp/cczcFqK2.s 			page 42


 1125              	.LCFI16:
 1126              		.cfi_def_cfa_offset 4
 1127              		.cfi_offset 4, -4
1145:./Libraries/STM32F4xx_HAL_Driver/Src/stm32f4xx_ll_fmc.c ****   uint32_t tmpr = 0U;
 1128              		.loc 1 1145 3 is_stmt 1 view .LVU380
 1129              	.LVL85:
1146:./Libraries/STM32F4xx_HAL_Driver/Src/stm32f4xx_ll_fmc.c **** 
1147:./Libraries/STM32F4xx_HAL_Driver/Src/stm32f4xx_ll_fmc.c ****   /* Check the parameters */ 
1148:./Libraries/STM32F4xx_HAL_Driver/Src/stm32f4xx_ll_fmc.c ****   assert_param(IS_FMC_PCCARD_DEVICE(Device));
 1130              		.loc 1 1148 3 view .LVU381
1149:./Libraries/STM32F4xx_HAL_Driver/Src/stm32f4xx_ll_fmc.c ****   assert_param(IS_FMC_WAIT_FEATURE(Init->Waitfeature));
 1131              		.loc 1 1149 3 view .LVU382
1150:./Libraries/STM32F4xx_HAL_Driver/Src/stm32f4xx_ll_fmc.c ****   assert_param(IS_FMC_TCLR_TIME(Init->TCLRSetupTime));
 1132              		.loc 1 1150 3 view .LVU383
1151:./Libraries/STM32F4xx_HAL_Driver/Src/stm32f4xx_ll_fmc.c ****   assert_param(IS_FMC_TAR_TIME(Init->TARSetupTime));     
 1133              		.loc 1 1151 3 view .LVU384
1152:./Libraries/STM32F4xx_HAL_Driver/Src/stm32f4xx_ll_fmc.c ****   
1153:./Libraries/STM32F4xx_HAL_Driver/Src/stm32f4xx_ll_fmc.c ****   /* Get PCCARD control register value */
1154:./Libraries/STM32F4xx_HAL_Driver/Src/stm32f4xx_ll_fmc.c ****   tmpr = Device->PCR4;
 1134              		.loc 1 1154 3 view .LVU385
 1135              		.loc 1 1154 8 is_stmt 0 view .LVU386
 1136 0002 0268     		ldr	r2, [r0]
 1137              	.LVL86:
1155:./Libraries/STM32F4xx_HAL_Driver/Src/stm32f4xx_ll_fmc.c ****   
1156:./Libraries/STM32F4xx_HAL_Driver/Src/stm32f4xx_ll_fmc.c ****   /* Clear TAR, TCLR, PWAITEN and PWID bits */
1157:./Libraries/STM32F4xx_HAL_Driver/Src/stm32f4xx_ll_fmc.c ****   tmpr &= ((uint32_t)~(FMC_PCR4_TAR  | FMC_PCR4_TCLR | FMC_PCR4_PWAITEN | \
 1138              		.loc 1 1157 3 is_stmt 1 view .LVU387
 1139              		.loc 1 1157 8 is_stmt 0 view .LVU388
 1140 0004 22F4FF32 		bic	r2, r2, #130560
 1141              	.LVL87:
 1142              		.loc 1 1157 8 view .LVU389
 1143 0008 22F03A02 		bic	r2, r2, #58
 1144              	.LVL88:
1158:./Libraries/STM32F4xx_HAL_Driver/Src/stm32f4xx_ll_fmc.c ****                        FMC_PCR4_PWID | FMC_PCR4_PTYP));
1159:./Libraries/STM32F4xx_HAL_Driver/Src/stm32f4xx_ll_fmc.c ****   
1160:./Libraries/STM32F4xx_HAL_Driver/Src/stm32f4xx_ll_fmc.c ****   /* Set FMC_PCCARD device control parameters */
1161:./Libraries/STM32F4xx_HAL_Driver/Src/stm32f4xx_ll_fmc.c ****   tmpr |= (uint32_t)(Init->Waitfeature              |\
 1145              		.loc 1 1161 3 is_stmt 1 view .LVU390
 1146              		.loc 1 1161 26 is_stmt 0 view .LVU391
 1147 000c 0B68     		ldr	r3, [r1]
1162:./Libraries/STM32F4xx_HAL_Driver/Src/stm32f4xx_ll_fmc.c ****                      FMC_NAND_PCC_MEM_BUS_WIDTH_16  |\
 1148              		.loc 1 1162 53 view .LVU392
 1149 000e 4C68     		ldr	r4, [r1, #4]
 1150 0010 43EA4423 		orr	r3, r3, r4, lsl #9
1163:./Libraries/STM32F4xx_HAL_Driver/Src/stm32f4xx_ll_fmc.c ****                     (Init->TCLRSetupTime << 9U)     |\
1164:./Libraries/STM32F4xx_HAL_Driver/Src/stm32f4xx_ll_fmc.c ****                     (Init->TARSetupTime << 13U));
 1151              		.loc 1 1164 26 view .LVU393
 1152 0014 8968     		ldr	r1, [r1, #8]
 1153              	.LVL89:
1161:./Libraries/STM32F4xx_HAL_Driver/Src/stm32f4xx_ll_fmc.c ****                      FMC_NAND_PCC_MEM_BUS_WIDTH_16  |\
 1154              		.loc 1 1161 11 view .LVU394
 1155 0016 43EA4133 		orr	r3, r3, r1, lsl #13
1161:./Libraries/STM32F4xx_HAL_Driver/Src/stm32f4xx_ll_fmc.c ****                      FMC_NAND_PCC_MEM_BUS_WIDTH_16  |\
 1156              		.loc 1 1161 8 view .LVU395
 1157 001a 1343     		orrs	r3, r3, r2
 1158 001c 43F01003 		orr	r3, r3, #16
 1159              	.LVL90:
ARM GAS  /tmp/cczcFqK2.s 			page 43


1165:./Libraries/STM32F4xx_HAL_Driver/Src/stm32f4xx_ll_fmc.c ****   
1166:./Libraries/STM32F4xx_HAL_Driver/Src/stm32f4xx_ll_fmc.c ****   Device->PCR4 = tmpr;
 1160              		.loc 1 1166 3 is_stmt 1 view .LVU396
 1161              		.loc 1 1166 16 is_stmt 0 view .LVU397
 1162 0020 0360     		str	r3, [r0]
1167:./Libraries/STM32F4xx_HAL_Driver/Src/stm32f4xx_ll_fmc.c ****   
1168:./Libraries/STM32F4xx_HAL_Driver/Src/stm32f4xx_ll_fmc.c ****   return HAL_OK;
 1163              		.loc 1 1168 3 is_stmt 1 view .LVU398
1169:./Libraries/STM32F4xx_HAL_Driver/Src/stm32f4xx_ll_fmc.c **** }
 1164              		.loc 1 1169 1 is_stmt 0 view .LVU399
 1165 0022 0020     		movs	r0, #0
 1166              	.LVL91:
 1167              		.loc 1 1169 1 view .LVU400
 1168 0024 5DF8044B 		ldr	r4, [sp], #4
 1169              	.LCFI17:
 1170              		.cfi_restore 4
 1171              		.cfi_def_cfa_offset 0
 1172 0028 7047     		bx	lr
 1173              		.cfi_endproc
 1174              	.LFE139:
 1176              		.section	.text.FMC_PCCARD_CommonSpace_Timing_Init,"ax",%progbits
 1177              		.align	1
 1178              		.global	FMC_PCCARD_CommonSpace_Timing_Init
 1179              		.syntax unified
 1180              		.thumb
 1181              		.thumb_func
 1182              		.fpu fpv4-sp-d16
 1184              	FMC_PCCARD_CommonSpace_Timing_Init:
 1185              	.LVL92:
 1186              	.LFB140:
1170:./Libraries/STM32F4xx_HAL_Driver/Src/stm32f4xx_ll_fmc.c **** 
1171:./Libraries/STM32F4xx_HAL_Driver/Src/stm32f4xx_ll_fmc.c **** /**
1172:./Libraries/STM32F4xx_HAL_Driver/Src/stm32f4xx_ll_fmc.c ****   * @brief  Initializes the FMC_PCCARD Common space Timing according to the specified
1173:./Libraries/STM32F4xx_HAL_Driver/Src/stm32f4xx_ll_fmc.c ****   *         parameters in the FMC_NAND_PCC_TimingTypeDef
1174:./Libraries/STM32F4xx_HAL_Driver/Src/stm32f4xx_ll_fmc.c ****   * @param  Device Pointer to PCCARD device instance
1175:./Libraries/STM32F4xx_HAL_Driver/Src/stm32f4xx_ll_fmc.c ****   * @param  Timing Pointer to PCCARD timing structure 
1176:./Libraries/STM32F4xx_HAL_Driver/Src/stm32f4xx_ll_fmc.c ****   * @retval HAL status
1177:./Libraries/STM32F4xx_HAL_Driver/Src/stm32f4xx_ll_fmc.c ****   */
1178:./Libraries/STM32F4xx_HAL_Driver/Src/stm32f4xx_ll_fmc.c **** HAL_StatusTypeDef FMC_PCCARD_CommonSpace_Timing_Init(FMC_PCCARD_TypeDef *Device, FMC_NAND_PCC_Timin
1179:./Libraries/STM32F4xx_HAL_Driver/Src/stm32f4xx_ll_fmc.c **** {
 1187              		.loc 1 1179 1 is_stmt 1 view -0
 1188              		.cfi_startproc
 1189              		@ args = 0, pretend = 0, frame = 0
 1190              		@ frame_needed = 0, uses_anonymous_args = 0
 1191              		@ link register save eliminated.
1180:./Libraries/STM32F4xx_HAL_Driver/Src/stm32f4xx_ll_fmc.c ****   uint32_t tmpr = 0U;
 1192              		.loc 1 1180 3 view .LVU402
1181:./Libraries/STM32F4xx_HAL_Driver/Src/stm32f4xx_ll_fmc.c ****   
1182:./Libraries/STM32F4xx_HAL_Driver/Src/stm32f4xx_ll_fmc.c ****   /* Check the parameters */
1183:./Libraries/STM32F4xx_HAL_Driver/Src/stm32f4xx_ll_fmc.c ****   assert_param(IS_FMC_PCCARD_DEVICE(Device));
 1193              		.loc 1 1183 3 view .LVU403
1184:./Libraries/STM32F4xx_HAL_Driver/Src/stm32f4xx_ll_fmc.c ****   assert_param(IS_FMC_SETUP_TIME(Timing->SetupTime));
 1194              		.loc 1 1184 3 view .LVU404
1185:./Libraries/STM32F4xx_HAL_Driver/Src/stm32f4xx_ll_fmc.c ****   assert_param(IS_FMC_WAIT_TIME(Timing->WaitSetupTime));
 1195              		.loc 1 1185 3 view .LVU405
1186:./Libraries/STM32F4xx_HAL_Driver/Src/stm32f4xx_ll_fmc.c ****   assert_param(IS_FMC_HOLD_TIME(Timing->HoldSetupTime));
 1196              		.loc 1 1186 3 view .LVU406
ARM GAS  /tmp/cczcFqK2.s 			page 44


1187:./Libraries/STM32F4xx_HAL_Driver/Src/stm32f4xx_ll_fmc.c ****   assert_param(IS_FMC_HIZ_TIME(Timing->HiZSetupTime));
 1197              		.loc 1 1187 3 view .LVU407
1188:./Libraries/STM32F4xx_HAL_Driver/Src/stm32f4xx_ll_fmc.c **** 
1189:./Libraries/STM32F4xx_HAL_Driver/Src/stm32f4xx_ll_fmc.c ****   /* Get PCCARD common space timing register value */
1190:./Libraries/STM32F4xx_HAL_Driver/Src/stm32f4xx_ll_fmc.c ****   tmpr = Device->PMEM4;
 1198              		.loc 1 1190 3 view .LVU408
 1199              		.loc 1 1190 8 is_stmt 0 view .LVU409
 1200 0000 8368     		ldr	r3, [r0, #8]
 1201              	.LVL93:
1191:./Libraries/STM32F4xx_HAL_Driver/Src/stm32f4xx_ll_fmc.c ****   
1192:./Libraries/STM32F4xx_HAL_Driver/Src/stm32f4xx_ll_fmc.c ****   /* Clear MEMSETx, MEMWAITx, MEMHOLDx and MEMHIZx bits */
1193:./Libraries/STM32F4xx_HAL_Driver/Src/stm32f4xx_ll_fmc.c ****   tmpr &= ((uint32_t)~(FMC_PMEM4_MEMSET4  | FMC_PMEM4_MEMWAIT4 | FMC_PMEM4_MEMHOLD4 | \
 1202              		.loc 1 1193 3 is_stmt 1 view .LVU410
1194:./Libraries/STM32F4xx_HAL_Driver/Src/stm32f4xx_ll_fmc.c ****                        FMC_PMEM4_MEMHIZ4)); 
1195:./Libraries/STM32F4xx_HAL_Driver/Src/stm32f4xx_ll_fmc.c ****   /* Set PCCARD timing parameters */
1196:./Libraries/STM32F4xx_HAL_Driver/Src/stm32f4xx_ll_fmc.c ****   tmpr |= (uint32_t)(Timing->SetupTime                  |\
 1203              		.loc 1 1196 3 view .LVU411
 1204              		.loc 1 1196 28 is_stmt 0 view .LVU412
 1205 0002 0B68     		ldr	r3, [r1]
1197:./Libraries/STM32F4xx_HAL_Driver/Src/stm32f4xx_ll_fmc.c ****                     ((Timing->WaitSetupTime) << 8U)     |\
 1206              		.loc 1 1197 29 view .LVU413
 1207 0004 4A68     		ldr	r2, [r1, #4]
1196:./Libraries/STM32F4xx_HAL_Driver/Src/stm32f4xx_ll_fmc.c ****                     ((Timing->WaitSetupTime) << 8U)     |\
 1208              		.loc 1 1196 57 view .LVU414
 1209 0006 43EA0223 		orr	r3, r3, r2, lsl #8
1198:./Libraries/STM32F4xx_HAL_Driver/Src/stm32f4xx_ll_fmc.c ****                     ((Timing->HoldSetupTime) << 16U)    |\
 1210              		.loc 1 1198 29 view .LVU415
 1211 000a 8A68     		ldr	r2, [r1, #8]
1197:./Libraries/STM32F4xx_HAL_Driver/Src/stm32f4xx_ll_fmc.c ****                     ((Timing->WaitSetupTime) << 8U)     |\
 1212              		.loc 1 1197 57 view .LVU416
 1213 000c 43EA0243 		orr	r3, r3, r2, lsl #16
1199:./Libraries/STM32F4xx_HAL_Driver/Src/stm32f4xx_ll_fmc.c ****                     ((Timing->HiZSetupTime) << 24U)); 
 1214              		.loc 1 1199 29 view .LVU417
 1215 0010 CA68     		ldr	r2, [r1, #12]
1198:./Libraries/STM32F4xx_HAL_Driver/Src/stm32f4xx_ll_fmc.c ****                     ((Timing->HoldSetupTime) << 16U)    |\
 1216              		.loc 1 1198 57 view .LVU418
 1217 0012 43EA0263 		orr	r3, r3, r2, lsl #24
 1218              	.LVL94:
1200:./Libraries/STM32F4xx_HAL_Driver/Src/stm32f4xx_ll_fmc.c **** 
1201:./Libraries/STM32F4xx_HAL_Driver/Src/stm32f4xx_ll_fmc.c ****   Device->PMEM4 = tmpr;
 1219              		.loc 1 1201 3 is_stmt 1 view .LVU419
 1220              		.loc 1 1201 17 is_stmt 0 view .LVU420
 1221 0016 8360     		str	r3, [r0, #8]
1202:./Libraries/STM32F4xx_HAL_Driver/Src/stm32f4xx_ll_fmc.c ****   
1203:./Libraries/STM32F4xx_HAL_Driver/Src/stm32f4xx_ll_fmc.c ****   return HAL_OK;  
 1222              		.loc 1 1203 3 is_stmt 1 view .LVU421
1204:./Libraries/STM32F4xx_HAL_Driver/Src/stm32f4xx_ll_fmc.c **** }
 1223              		.loc 1 1204 1 is_stmt 0 view .LVU422
 1224 0018 0020     		movs	r0, #0
 1225              	.LVL95:
 1226              		.loc 1 1204 1 view .LVU423
 1227 001a 7047     		bx	lr
 1228              		.cfi_endproc
 1229              	.LFE140:
 1231              		.section	.text.FMC_PCCARD_AttributeSpace_Timing_Init,"ax",%progbits
 1232              		.align	1
 1233              		.global	FMC_PCCARD_AttributeSpace_Timing_Init
ARM GAS  /tmp/cczcFqK2.s 			page 45


 1234              		.syntax unified
 1235              		.thumb
 1236              		.thumb_func
 1237              		.fpu fpv4-sp-d16
 1239              	FMC_PCCARD_AttributeSpace_Timing_Init:
 1240              	.LVL96:
 1241              	.LFB141:
1205:./Libraries/STM32F4xx_HAL_Driver/Src/stm32f4xx_ll_fmc.c **** 
1206:./Libraries/STM32F4xx_HAL_Driver/Src/stm32f4xx_ll_fmc.c **** /**
1207:./Libraries/STM32F4xx_HAL_Driver/Src/stm32f4xx_ll_fmc.c ****   * @brief  Initializes the FMC_PCCARD Attribute space Timing according to the specified
1208:./Libraries/STM32F4xx_HAL_Driver/Src/stm32f4xx_ll_fmc.c ****   *         parameters in the FMC_NAND_PCC_TimingTypeDef
1209:./Libraries/STM32F4xx_HAL_Driver/Src/stm32f4xx_ll_fmc.c ****   * @param  Device Pointer to PCCARD device instance
1210:./Libraries/STM32F4xx_HAL_Driver/Src/stm32f4xx_ll_fmc.c ****   * @param  Timing Pointer to PCCARD timing structure  
1211:./Libraries/STM32F4xx_HAL_Driver/Src/stm32f4xx_ll_fmc.c ****   * @retval HAL status
1212:./Libraries/STM32F4xx_HAL_Driver/Src/stm32f4xx_ll_fmc.c ****   */
1213:./Libraries/STM32F4xx_HAL_Driver/Src/stm32f4xx_ll_fmc.c **** HAL_StatusTypeDef FMC_PCCARD_AttributeSpace_Timing_Init(FMC_PCCARD_TypeDef *Device, FMC_NAND_PCC_Ti
1214:./Libraries/STM32F4xx_HAL_Driver/Src/stm32f4xx_ll_fmc.c **** {
 1242              		.loc 1 1214 1 is_stmt 1 view -0
 1243              		.cfi_startproc
 1244              		@ args = 0, pretend = 0, frame = 0
 1245              		@ frame_needed = 0, uses_anonymous_args = 0
 1246              		@ link register save eliminated.
1215:./Libraries/STM32F4xx_HAL_Driver/Src/stm32f4xx_ll_fmc.c ****   uint32_t tmpr = 0U;
 1247              		.loc 1 1215 3 view .LVU425
1216:./Libraries/STM32F4xx_HAL_Driver/Src/stm32f4xx_ll_fmc.c ****   
1217:./Libraries/STM32F4xx_HAL_Driver/Src/stm32f4xx_ll_fmc.c ****   /* Check the parameters */ 
1218:./Libraries/STM32F4xx_HAL_Driver/Src/stm32f4xx_ll_fmc.c ****   assert_param(IS_FMC_PCCARD_DEVICE(Device)); 
 1248              		.loc 1 1218 3 view .LVU426
1219:./Libraries/STM32F4xx_HAL_Driver/Src/stm32f4xx_ll_fmc.c ****   assert_param(IS_FMC_SETUP_TIME(Timing->SetupTime));
 1249              		.loc 1 1219 3 view .LVU427
1220:./Libraries/STM32F4xx_HAL_Driver/Src/stm32f4xx_ll_fmc.c ****   assert_param(IS_FMC_WAIT_TIME(Timing->WaitSetupTime));
 1250              		.loc 1 1220 3 view .LVU428
1221:./Libraries/STM32F4xx_HAL_Driver/Src/stm32f4xx_ll_fmc.c ****   assert_param(IS_FMC_HOLD_TIME(Timing->HoldSetupTime));
 1251              		.loc 1 1221 3 view .LVU429
1222:./Libraries/STM32F4xx_HAL_Driver/Src/stm32f4xx_ll_fmc.c ****   assert_param(IS_FMC_HIZ_TIME(Timing->HiZSetupTime));
 1252              		.loc 1 1222 3 view .LVU430
1223:./Libraries/STM32F4xx_HAL_Driver/Src/stm32f4xx_ll_fmc.c **** 
1224:./Libraries/STM32F4xx_HAL_Driver/Src/stm32f4xx_ll_fmc.c ****   /* Get PCCARD timing parameters */
1225:./Libraries/STM32F4xx_HAL_Driver/Src/stm32f4xx_ll_fmc.c ****   tmpr = Device->PATT4;
 1253              		.loc 1 1225 3 view .LVU431
 1254              		.loc 1 1225 8 is_stmt 0 view .LVU432
 1255 0000 C368     		ldr	r3, [r0, #12]
 1256              	.LVL97:
1226:./Libraries/STM32F4xx_HAL_Driver/Src/stm32f4xx_ll_fmc.c **** 
1227:./Libraries/STM32F4xx_HAL_Driver/Src/stm32f4xx_ll_fmc.c ****   /* Clear ATTSETx, ATTWAITx, ATTHOLDx and ATTHIZx bits */
1228:./Libraries/STM32F4xx_HAL_Driver/Src/stm32f4xx_ll_fmc.c ****   tmpr &= ((uint32_t)~(FMC_PATT4_ATTSET4  | FMC_PATT4_ATTWAIT4 | FMC_PATT4_ATTHOLD4 | \
 1257              		.loc 1 1228 3 is_stmt 1 view .LVU433
1229:./Libraries/STM32F4xx_HAL_Driver/Src/stm32f4xx_ll_fmc.c ****                        FMC_PATT4_ATTHIZ4));
1230:./Libraries/STM32F4xx_HAL_Driver/Src/stm32f4xx_ll_fmc.c ****   
1231:./Libraries/STM32F4xx_HAL_Driver/Src/stm32f4xx_ll_fmc.c ****   /* Set PCCARD timing parameters */
1232:./Libraries/STM32F4xx_HAL_Driver/Src/stm32f4xx_ll_fmc.c ****   tmpr |= (uint32_t)(Timing->SetupTime                 |\
 1258              		.loc 1 1232 3 view .LVU434
 1259              		.loc 1 1232 28 is_stmt 0 view .LVU435
 1260 0002 0B68     		ldr	r3, [r1]
1233:./Libraries/STM32F4xx_HAL_Driver/Src/stm32f4xx_ll_fmc.c ****                    ((Timing->WaitSetupTime) << 8U)     |\
 1261              		.loc 1 1233 28 view .LVU436
 1262 0004 4A68     		ldr	r2, [r1, #4]
ARM GAS  /tmp/cczcFqK2.s 			page 46


1232:./Libraries/STM32F4xx_HAL_Driver/Src/stm32f4xx_ll_fmc.c ****                    ((Timing->WaitSetupTime) << 8U)     |\
 1263              		.loc 1 1232 56 view .LVU437
 1264 0006 43EA0223 		orr	r3, r3, r2, lsl #8
1234:./Libraries/STM32F4xx_HAL_Driver/Src/stm32f4xx_ll_fmc.c ****                    ((Timing->HoldSetupTime) << 16U)    |\
 1265              		.loc 1 1234 28 view .LVU438
 1266 000a 8A68     		ldr	r2, [r1, #8]
1233:./Libraries/STM32F4xx_HAL_Driver/Src/stm32f4xx_ll_fmc.c ****                    ((Timing->WaitSetupTime) << 8U)     |\
 1267              		.loc 1 1233 56 view .LVU439
 1268 000c 43EA0243 		orr	r3, r3, r2, lsl #16
1235:./Libraries/STM32F4xx_HAL_Driver/Src/stm32f4xx_ll_fmc.c ****                    ((Timing->HiZSetupTime) << 24U));
 1269              		.loc 1 1235 28 view .LVU440
 1270 0010 CA68     		ldr	r2, [r1, #12]
1234:./Libraries/STM32F4xx_HAL_Driver/Src/stm32f4xx_ll_fmc.c ****                    ((Timing->HoldSetupTime) << 16U)    |\
 1271              		.loc 1 1234 56 view .LVU441
 1272 0012 43EA0263 		orr	r3, r3, r2, lsl #24
 1273              	.LVL98:
1236:./Libraries/STM32F4xx_HAL_Driver/Src/stm32f4xx_ll_fmc.c ****   Device->PATT4 = tmpr;
 1274              		.loc 1 1236 3 is_stmt 1 view .LVU442
 1275              		.loc 1 1236 17 is_stmt 0 view .LVU443
 1276 0016 C360     		str	r3, [r0, #12]
1237:./Libraries/STM32F4xx_HAL_Driver/Src/stm32f4xx_ll_fmc.c **** 
1238:./Libraries/STM32F4xx_HAL_Driver/Src/stm32f4xx_ll_fmc.c ****   return HAL_OK;
 1277              		.loc 1 1238 3 is_stmt 1 view .LVU444
1239:./Libraries/STM32F4xx_HAL_Driver/Src/stm32f4xx_ll_fmc.c **** }
 1278              		.loc 1 1239 1 is_stmt 0 view .LVU445
 1279 0018 0020     		movs	r0, #0
 1280              	.LVL99:
 1281              		.loc 1 1239 1 view .LVU446
 1282 001a 7047     		bx	lr
 1283              		.cfi_endproc
 1284              	.LFE141:
 1286              		.section	.text.FMC_PCCARD_IOSpace_Timing_Init,"ax",%progbits
 1287              		.align	1
 1288              		.global	FMC_PCCARD_IOSpace_Timing_Init
 1289              		.syntax unified
 1290              		.thumb
 1291              		.thumb_func
 1292              		.fpu fpv4-sp-d16
 1294              	FMC_PCCARD_IOSpace_Timing_Init:
 1295              	.LVL100:
 1296              	.LFB142:
1240:./Libraries/STM32F4xx_HAL_Driver/Src/stm32f4xx_ll_fmc.c **** 
1241:./Libraries/STM32F4xx_HAL_Driver/Src/stm32f4xx_ll_fmc.c **** /**
1242:./Libraries/STM32F4xx_HAL_Driver/Src/stm32f4xx_ll_fmc.c ****   * @brief  Initializes the FMC_PCCARD IO space Timing according to the specified
1243:./Libraries/STM32F4xx_HAL_Driver/Src/stm32f4xx_ll_fmc.c ****   *         parameters in the FMC_NAND_PCC_TimingTypeDef
1244:./Libraries/STM32F4xx_HAL_Driver/Src/stm32f4xx_ll_fmc.c ****   * @param  Device Pointer to PCCARD device instance
1245:./Libraries/STM32F4xx_HAL_Driver/Src/stm32f4xx_ll_fmc.c ****   * @param  Timing Pointer to PCCARD timing structure  
1246:./Libraries/STM32F4xx_HAL_Driver/Src/stm32f4xx_ll_fmc.c ****   * @retval HAL status
1247:./Libraries/STM32F4xx_HAL_Driver/Src/stm32f4xx_ll_fmc.c ****   */
1248:./Libraries/STM32F4xx_HAL_Driver/Src/stm32f4xx_ll_fmc.c **** HAL_StatusTypeDef FMC_PCCARD_IOSpace_Timing_Init(FMC_PCCARD_TypeDef *Device, FMC_NAND_PCC_TimingTyp
1249:./Libraries/STM32F4xx_HAL_Driver/Src/stm32f4xx_ll_fmc.c **** {
 1297              		.loc 1 1249 1 is_stmt 1 view -0
 1298              		.cfi_startproc
 1299              		@ args = 0, pretend = 0, frame = 0
 1300              		@ frame_needed = 0, uses_anonymous_args = 0
 1301              		@ link register save eliminated.
1250:./Libraries/STM32F4xx_HAL_Driver/Src/stm32f4xx_ll_fmc.c ****   uint32_t tmpr = 0;
ARM GAS  /tmp/cczcFqK2.s 			page 47


 1302              		.loc 1 1250 3 view .LVU448
1251:./Libraries/STM32F4xx_HAL_Driver/Src/stm32f4xx_ll_fmc.c ****   
1252:./Libraries/STM32F4xx_HAL_Driver/Src/stm32f4xx_ll_fmc.c ****   /* Check the parameters */  
1253:./Libraries/STM32F4xx_HAL_Driver/Src/stm32f4xx_ll_fmc.c ****   assert_param(IS_FMC_PCCARD_DEVICE(Device));
 1303              		.loc 1 1253 3 view .LVU449
1254:./Libraries/STM32F4xx_HAL_Driver/Src/stm32f4xx_ll_fmc.c ****   assert_param(IS_FMC_SETUP_TIME(Timing->SetupTime));
 1304              		.loc 1 1254 3 view .LVU450
1255:./Libraries/STM32F4xx_HAL_Driver/Src/stm32f4xx_ll_fmc.c ****   assert_param(IS_FMC_WAIT_TIME(Timing->WaitSetupTime));
 1305              		.loc 1 1255 3 view .LVU451
1256:./Libraries/STM32F4xx_HAL_Driver/Src/stm32f4xx_ll_fmc.c ****   assert_param(IS_FMC_HOLD_TIME(Timing->HoldSetupTime));
 1306              		.loc 1 1256 3 view .LVU452
1257:./Libraries/STM32F4xx_HAL_Driver/Src/stm32f4xx_ll_fmc.c ****   assert_param(IS_FMC_HIZ_TIME(Timing->HiZSetupTime));
 1307              		.loc 1 1257 3 view .LVU453
1258:./Libraries/STM32F4xx_HAL_Driver/Src/stm32f4xx_ll_fmc.c **** 
1259:./Libraries/STM32F4xx_HAL_Driver/Src/stm32f4xx_ll_fmc.c ****   /* Get FMC_PCCARD device timing parameters */
1260:./Libraries/STM32F4xx_HAL_Driver/Src/stm32f4xx_ll_fmc.c ****   tmpr = Device->PIO4;
 1308              		.loc 1 1260 3 view .LVU454
 1309              		.loc 1 1260 8 is_stmt 0 view .LVU455
 1310 0000 0369     		ldr	r3, [r0, #16]
 1311              	.LVL101:
1261:./Libraries/STM32F4xx_HAL_Driver/Src/stm32f4xx_ll_fmc.c **** 
1262:./Libraries/STM32F4xx_HAL_Driver/Src/stm32f4xx_ll_fmc.c ****   /* Clear IOSET4, IOWAIT4, IOHOLD4 and IOHIZ4 bits */
1263:./Libraries/STM32F4xx_HAL_Driver/Src/stm32f4xx_ll_fmc.c ****   tmpr &= ((uint32_t)~(FMC_PIO4_IOSET4  | FMC_PIO4_IOWAIT4 | FMC_PIO4_IOHOLD4 | \
 1312              		.loc 1 1263 3 is_stmt 1 view .LVU456
1264:./Libraries/STM32F4xx_HAL_Driver/Src/stm32f4xx_ll_fmc.c ****                        FMC_PIO4_IOHIZ4));
1265:./Libraries/STM32F4xx_HAL_Driver/Src/stm32f4xx_ll_fmc.c ****   
1266:./Libraries/STM32F4xx_HAL_Driver/Src/stm32f4xx_ll_fmc.c ****   /* Set FMC_PCCARD device timing parameters */
1267:./Libraries/STM32F4xx_HAL_Driver/Src/stm32f4xx_ll_fmc.c ****   tmpr |= (uint32_t)(Timing->SetupTime                   |\
 1313              		.loc 1 1267 3 view .LVU457
 1314              		.loc 1 1267 28 is_stmt 0 view .LVU458
 1315 0002 0B68     		ldr	r3, [r1]
1268:./Libraries/STM32F4xx_HAL_Driver/Src/stm32f4xx_ll_fmc.c ****                      ((Timing->WaitSetupTime) << 8U)     |\
 1316              		.loc 1 1268 30 view .LVU459
 1317 0004 4A68     		ldr	r2, [r1, #4]
1267:./Libraries/STM32F4xx_HAL_Driver/Src/stm32f4xx_ll_fmc.c ****                      ((Timing->WaitSetupTime) << 8U)     |\
 1318              		.loc 1 1267 58 view .LVU460
 1319 0006 43EA0223 		orr	r3, r3, r2, lsl #8
1269:./Libraries/STM32F4xx_HAL_Driver/Src/stm32f4xx_ll_fmc.c ****                      ((Timing->HoldSetupTime) << 16U)    |\
 1320              		.loc 1 1269 30 view .LVU461
 1321 000a 8A68     		ldr	r2, [r1, #8]
1268:./Libraries/STM32F4xx_HAL_Driver/Src/stm32f4xx_ll_fmc.c ****                      ((Timing->WaitSetupTime) << 8U)     |\
 1322              		.loc 1 1268 58 view .LVU462
 1323 000c 43EA0243 		orr	r3, r3, r2, lsl #16
1270:./Libraries/STM32F4xx_HAL_Driver/Src/stm32f4xx_ll_fmc.c ****                      ((Timing->HiZSetupTime) << 24U));   
 1324              		.loc 1 1270 30 view .LVU463
 1325 0010 CA68     		ldr	r2, [r1, #12]
1269:./Libraries/STM32F4xx_HAL_Driver/Src/stm32f4xx_ll_fmc.c ****                      ((Timing->HoldSetupTime) << 16U)    |\
 1326              		.loc 1 1269 58 view .LVU464
 1327 0012 43EA0263 		orr	r3, r3, r2, lsl #24
 1328              	.LVL102:
1271:./Libraries/STM32F4xx_HAL_Driver/Src/stm32f4xx_ll_fmc.c ****   
1272:./Libraries/STM32F4xx_HAL_Driver/Src/stm32f4xx_ll_fmc.c ****   Device->PIO4 = tmpr;
 1329              		.loc 1 1272 3 is_stmt 1 view .LVU465
 1330              		.loc 1 1272 16 is_stmt 0 view .LVU466
 1331 0016 0361     		str	r3, [r0, #16]
1273:./Libraries/STM32F4xx_HAL_Driver/Src/stm32f4xx_ll_fmc.c ****  
1274:./Libraries/STM32F4xx_HAL_Driver/Src/stm32f4xx_ll_fmc.c ****   return HAL_OK;
ARM GAS  /tmp/cczcFqK2.s 			page 48


 1332              		.loc 1 1274 3 is_stmt 1 view .LVU467
1275:./Libraries/STM32F4xx_HAL_Driver/Src/stm32f4xx_ll_fmc.c **** }
 1333              		.loc 1 1275 1 is_stmt 0 view .LVU468
 1334 0018 0020     		movs	r0, #0
 1335              	.LVL103:
 1336              		.loc 1 1275 1 view .LVU469
 1337 001a 7047     		bx	lr
 1338              		.cfi_endproc
 1339              	.LFE142:
 1341              		.section	.text.FMC_PCCARD_DeInit,"ax",%progbits
 1342              		.align	1
 1343              		.global	FMC_PCCARD_DeInit
 1344              		.syntax unified
 1345              		.thumb
 1346              		.thumb_func
 1347              		.fpu fpv4-sp-d16
 1349              	FMC_PCCARD_DeInit:
 1350              	.LVL104:
 1351              	.LFB143:
1276:./Libraries/STM32F4xx_HAL_Driver/Src/stm32f4xx_ll_fmc.c ****                                            
1277:./Libraries/STM32F4xx_HAL_Driver/Src/stm32f4xx_ll_fmc.c **** /**
1278:./Libraries/STM32F4xx_HAL_Driver/Src/stm32f4xx_ll_fmc.c ****   * @brief  DeInitializes the FMC_PCCARD device 
1279:./Libraries/STM32F4xx_HAL_Driver/Src/stm32f4xx_ll_fmc.c ****   * @param  Device Pointer to PCCARD device instance
1280:./Libraries/STM32F4xx_HAL_Driver/Src/stm32f4xx_ll_fmc.c ****   * @retval HAL status
1281:./Libraries/STM32F4xx_HAL_Driver/Src/stm32f4xx_ll_fmc.c ****   */
1282:./Libraries/STM32F4xx_HAL_Driver/Src/stm32f4xx_ll_fmc.c **** HAL_StatusTypeDef FMC_PCCARD_DeInit(FMC_PCCARD_TypeDef *Device)
1283:./Libraries/STM32F4xx_HAL_Driver/Src/stm32f4xx_ll_fmc.c **** {
 1352              		.loc 1 1283 1 is_stmt 1 view -0
 1353              		.cfi_startproc
 1354              		@ args = 0, pretend = 0, frame = 0
 1355              		@ frame_needed = 0, uses_anonymous_args = 0
 1356              		@ link register save eliminated.
 1357              		.loc 1 1283 1 is_stmt 0 view .LVU471
 1358 0000 0346     		mov	r3, r0
1284:./Libraries/STM32F4xx_HAL_Driver/Src/stm32f4xx_ll_fmc.c ****   /* Check the parameters */  
1285:./Libraries/STM32F4xx_HAL_Driver/Src/stm32f4xx_ll_fmc.c ****   assert_param(IS_FMC_PCCARD_DEVICE(Device));
 1359              		.loc 1 1285 3 is_stmt 1 view .LVU472
1286:./Libraries/STM32F4xx_HAL_Driver/Src/stm32f4xx_ll_fmc.c ****     
1287:./Libraries/STM32F4xx_HAL_Driver/Src/stm32f4xx_ll_fmc.c ****   /* Disable the FMC_PCCARD device */
1288:./Libraries/STM32F4xx_HAL_Driver/Src/stm32f4xx_ll_fmc.c ****   __FMC_PCCARD_DISABLE(Device);
 1360              		.loc 1 1288 3 view .LVU473
 1361 0002 0268     		ldr	r2, [r0]
 1362 0004 22F00402 		bic	r2, r2, #4
 1363 0008 0260     		str	r2, [r0]
1289:./Libraries/STM32F4xx_HAL_Driver/Src/stm32f4xx_ll_fmc.c ****   
1290:./Libraries/STM32F4xx_HAL_Driver/Src/stm32f4xx_ll_fmc.c ****   /* De-initialize the FMC_PCCARD device */
1291:./Libraries/STM32F4xx_HAL_Driver/Src/stm32f4xx_ll_fmc.c ****   Device->PCR4    = 0x00000018U; 
 1364              		.loc 1 1291 3 view .LVU474
 1365              		.loc 1 1291 19 is_stmt 0 view .LVU475
 1366 000a 1822     		movs	r2, #24
 1367 000c 0260     		str	r2, [r0]
1292:./Libraries/STM32F4xx_HAL_Driver/Src/stm32f4xx_ll_fmc.c ****   Device->SR4     = 0x00000000U;	
 1368              		.loc 1 1292 3 is_stmt 1 view .LVU476
 1369              		.loc 1 1292 19 is_stmt 0 view .LVU477
 1370 000e 0020     		movs	r0, #0
 1371              	.LVL105:
 1372              		.loc 1 1292 19 view .LVU478
ARM GAS  /tmp/cczcFqK2.s 			page 49


 1373 0010 5860     		str	r0, [r3, #4]
1293:./Libraries/STM32F4xx_HAL_Driver/Src/stm32f4xx_ll_fmc.c ****   Device->PMEM4   = 0xFCFCFCFCU;
 1374              		.loc 1 1293 3 is_stmt 1 view .LVU479
 1375              		.loc 1 1293 19 is_stmt 0 view .LVU480
 1376 0012 4FF0FC32 		mov	r2, #-50529028
 1377 0016 9A60     		str	r2, [r3, #8]
1294:./Libraries/STM32F4xx_HAL_Driver/Src/stm32f4xx_ll_fmc.c ****   Device->PATT4   = 0xFCFCFCFCU;
 1378              		.loc 1 1294 3 is_stmt 1 view .LVU481
 1379              		.loc 1 1294 19 is_stmt 0 view .LVU482
 1380 0018 DA60     		str	r2, [r3, #12]
1295:./Libraries/STM32F4xx_HAL_Driver/Src/stm32f4xx_ll_fmc.c ****   Device->PIO4    = 0xFCFCFCFCU;
 1381              		.loc 1 1295 3 is_stmt 1 view .LVU483
 1382              		.loc 1 1295 19 is_stmt 0 view .LVU484
 1383 001a 1A61     		str	r2, [r3, #16]
1296:./Libraries/STM32F4xx_HAL_Driver/Src/stm32f4xx_ll_fmc.c ****   
1297:./Libraries/STM32F4xx_HAL_Driver/Src/stm32f4xx_ll_fmc.c ****   return HAL_OK;
 1384              		.loc 1 1297 3 is_stmt 1 view .LVU485
1298:./Libraries/STM32F4xx_HAL_Driver/Src/stm32f4xx_ll_fmc.c **** }
 1385              		.loc 1 1298 1 is_stmt 0 view .LVU486
 1386 001c 7047     		bx	lr
 1387              		.cfi_endproc
 1388              	.LFE143:
 1390              		.section	.text.FMC_SDRAM_Init,"ax",%progbits
 1391              		.align	1
 1392              		.global	FMC_SDRAM_Init
 1393              		.syntax unified
 1394              		.thumb
 1395              		.thumb_func
 1396              		.fpu fpv4-sp-d16
 1398              	FMC_SDRAM_Init:
 1399              	.LVL106:
 1400              	.LFB144:
1299:./Libraries/STM32F4xx_HAL_Driver/Src/stm32f4xx_ll_fmc.c **** 
1300:./Libraries/STM32F4xx_HAL_Driver/Src/stm32f4xx_ll_fmc.c **** /**
1301:./Libraries/STM32F4xx_HAL_Driver/Src/stm32f4xx_ll_fmc.c ****   * @}
1302:./Libraries/STM32F4xx_HAL_Driver/Src/stm32f4xx_ll_fmc.c ****   */
1303:./Libraries/STM32F4xx_HAL_Driver/Src/stm32f4xx_ll_fmc.c **** #endif /* STM32F427xx || STM32F437xx || STM32F429xx || STM32F439xx */
1304:./Libraries/STM32F4xx_HAL_Driver/Src/stm32f4xx_ll_fmc.c **** 
1305:./Libraries/STM32F4xx_HAL_Driver/Src/stm32f4xx_ll_fmc.c **** 
1306:./Libraries/STM32F4xx_HAL_Driver/Src/stm32f4xx_ll_fmc.c **** /** @addtogroup FMC_LL_SDRAM
1307:./Libraries/STM32F4xx_HAL_Driver/Src/stm32f4xx_ll_fmc.c ****   * @brief    SDRAM Controller functions 
1308:./Libraries/STM32F4xx_HAL_Driver/Src/stm32f4xx_ll_fmc.c ****   *
1309:./Libraries/STM32F4xx_HAL_Driver/Src/stm32f4xx_ll_fmc.c ****   @verbatim 
1310:./Libraries/STM32F4xx_HAL_Driver/Src/stm32f4xx_ll_fmc.c ****   ==============================================================================
1311:./Libraries/STM32F4xx_HAL_Driver/Src/stm32f4xx_ll_fmc.c ****                      ##### How to use SDRAM device driver #####
1312:./Libraries/STM32F4xx_HAL_Driver/Src/stm32f4xx_ll_fmc.c ****   ==============================================================================
1313:./Libraries/STM32F4xx_HAL_Driver/Src/stm32f4xx_ll_fmc.c ****   [..] 
1314:./Libraries/STM32F4xx_HAL_Driver/Src/stm32f4xx_ll_fmc.c ****     This driver contains a set of APIs to interface with the FMC SDRAM banks in order
1315:./Libraries/STM32F4xx_HAL_Driver/Src/stm32f4xx_ll_fmc.c ****     to run the SDRAM external devices.
1316:./Libraries/STM32F4xx_HAL_Driver/Src/stm32f4xx_ll_fmc.c ****     
1317:./Libraries/STM32F4xx_HAL_Driver/Src/stm32f4xx_ll_fmc.c ****     (+) FMC SDRAM bank reset using the function FMC_SDRAM_DeInit() 
1318:./Libraries/STM32F4xx_HAL_Driver/Src/stm32f4xx_ll_fmc.c ****     (+) FMC SDRAM bank control configuration using the function FMC_SDRAM_Init()
1319:./Libraries/STM32F4xx_HAL_Driver/Src/stm32f4xx_ll_fmc.c ****     (+) FMC SDRAM bank timing configuration using the function FMC_SDRAM_Timing_Init()
1320:./Libraries/STM32F4xx_HAL_Driver/Src/stm32f4xx_ll_fmc.c ****     (+) FMC SDRAM bank enable/disable write operation using the functions
1321:./Libraries/STM32F4xx_HAL_Driver/Src/stm32f4xx_ll_fmc.c ****         FMC_SDRAM_WriteOperation_Enable()/FMC_SDRAM_WriteOperation_Disable()   
1322:./Libraries/STM32F4xx_HAL_Driver/Src/stm32f4xx_ll_fmc.c ****     (+) FMC SDRAM bank send command using the function FMC_SDRAM_SendCommand()      
1323:./Libraries/STM32F4xx_HAL_Driver/Src/stm32f4xx_ll_fmc.c ****        
ARM GAS  /tmp/cczcFqK2.s 			page 50


1324:./Libraries/STM32F4xx_HAL_Driver/Src/stm32f4xx_ll_fmc.c **** @endverbatim
1325:./Libraries/STM32F4xx_HAL_Driver/Src/stm32f4xx_ll_fmc.c ****   * @{
1326:./Libraries/STM32F4xx_HAL_Driver/Src/stm32f4xx_ll_fmc.c ****   */
1327:./Libraries/STM32F4xx_HAL_Driver/Src/stm32f4xx_ll_fmc.c ****          
1328:./Libraries/STM32F4xx_HAL_Driver/Src/stm32f4xx_ll_fmc.c **** /** @addtogroup FMC_LL_SDRAM_Private_Functions_Group1
1329:./Libraries/STM32F4xx_HAL_Driver/Src/stm32f4xx_ll_fmc.c ****   *  @brief    Initialization and Configuration functions 
1330:./Libraries/STM32F4xx_HAL_Driver/Src/stm32f4xx_ll_fmc.c ****   *
1331:./Libraries/STM32F4xx_HAL_Driver/Src/stm32f4xx_ll_fmc.c **** @verbatim    
1332:./Libraries/STM32F4xx_HAL_Driver/Src/stm32f4xx_ll_fmc.c ****   ==============================================================================
1333:./Libraries/STM32F4xx_HAL_Driver/Src/stm32f4xx_ll_fmc.c ****               ##### Initialization and de_initialization functions #####
1334:./Libraries/STM32F4xx_HAL_Driver/Src/stm32f4xx_ll_fmc.c ****   ==============================================================================
1335:./Libraries/STM32F4xx_HAL_Driver/Src/stm32f4xx_ll_fmc.c ****   [..]  
1336:./Libraries/STM32F4xx_HAL_Driver/Src/stm32f4xx_ll_fmc.c ****     This section provides functions allowing to:
1337:./Libraries/STM32F4xx_HAL_Driver/Src/stm32f4xx_ll_fmc.c ****     (+) Initialize and configure the FMC SDRAM interface
1338:./Libraries/STM32F4xx_HAL_Driver/Src/stm32f4xx_ll_fmc.c ****     (+) De-initialize the FMC SDRAM interface 
1339:./Libraries/STM32F4xx_HAL_Driver/Src/stm32f4xx_ll_fmc.c ****     (+) Configure the FMC clock and associated GPIOs
1340:./Libraries/STM32F4xx_HAL_Driver/Src/stm32f4xx_ll_fmc.c ****         
1341:./Libraries/STM32F4xx_HAL_Driver/Src/stm32f4xx_ll_fmc.c **** @endverbatim
1342:./Libraries/STM32F4xx_HAL_Driver/Src/stm32f4xx_ll_fmc.c ****   * @{
1343:./Libraries/STM32F4xx_HAL_Driver/Src/stm32f4xx_ll_fmc.c ****   */
1344:./Libraries/STM32F4xx_HAL_Driver/Src/stm32f4xx_ll_fmc.c **** 
1345:./Libraries/STM32F4xx_HAL_Driver/Src/stm32f4xx_ll_fmc.c **** /**
1346:./Libraries/STM32F4xx_HAL_Driver/Src/stm32f4xx_ll_fmc.c ****   * @brief  Initializes the FMC_SDRAM device according to the specified
1347:./Libraries/STM32F4xx_HAL_Driver/Src/stm32f4xx_ll_fmc.c ****   *         control parameters in the FMC_SDRAM_InitTypeDef
1348:./Libraries/STM32F4xx_HAL_Driver/Src/stm32f4xx_ll_fmc.c ****   * @param  Device Pointer to SDRAM device instance
1349:./Libraries/STM32F4xx_HAL_Driver/Src/stm32f4xx_ll_fmc.c ****   * @param  Init Pointer to SDRAM Initialization structure   
1350:./Libraries/STM32F4xx_HAL_Driver/Src/stm32f4xx_ll_fmc.c ****   * @retval HAL status
1351:./Libraries/STM32F4xx_HAL_Driver/Src/stm32f4xx_ll_fmc.c ****   */
1352:./Libraries/STM32F4xx_HAL_Driver/Src/stm32f4xx_ll_fmc.c **** HAL_StatusTypeDef FMC_SDRAM_Init(FMC_SDRAM_TypeDef *Device, FMC_SDRAM_InitTypeDef *Init)
1353:./Libraries/STM32F4xx_HAL_Driver/Src/stm32f4xx_ll_fmc.c **** {
 1401              		.loc 1 1353 1 is_stmt 1 view -0
 1402              		.cfi_startproc
 1403              		@ args = 0, pretend = 0, frame = 0
 1404              		@ frame_needed = 0, uses_anonymous_args = 0
 1405              		@ link register save eliminated.
 1406              		.loc 1 1353 1 is_stmt 0 view .LVU488
 1407 0000 30B4     		push	{r4, r5}
 1408              	.LCFI18:
 1409              		.cfi_def_cfa_offset 8
 1410              		.cfi_offset 4, -8
 1411              		.cfi_offset 5, -4
1354:./Libraries/STM32F4xx_HAL_Driver/Src/stm32f4xx_ll_fmc.c ****   uint32_t tmpr1 = 0U;
 1412              		.loc 1 1354 3 is_stmt 1 view .LVU489
 1413              	.LVL107:
1355:./Libraries/STM32F4xx_HAL_Driver/Src/stm32f4xx_ll_fmc.c ****   uint32_t tmpr2 = 0U;
 1414              		.loc 1 1355 3 view .LVU490
1356:./Libraries/STM32F4xx_HAL_Driver/Src/stm32f4xx_ll_fmc.c ****     
1357:./Libraries/STM32F4xx_HAL_Driver/Src/stm32f4xx_ll_fmc.c ****   /* Check the parameters */
1358:./Libraries/STM32F4xx_HAL_Driver/Src/stm32f4xx_ll_fmc.c ****   assert_param(IS_FMC_SDRAM_DEVICE(Device));
 1415              		.loc 1 1358 3 view .LVU491
1359:./Libraries/STM32F4xx_HAL_Driver/Src/stm32f4xx_ll_fmc.c ****   assert_param(IS_FMC_SDRAM_BANK(Init->SDBank));
 1416              		.loc 1 1359 3 view .LVU492
1360:./Libraries/STM32F4xx_HAL_Driver/Src/stm32f4xx_ll_fmc.c ****   assert_param(IS_FMC_COLUMNBITS_NUMBER(Init->ColumnBitsNumber));
 1417              		.loc 1 1360 3 view .LVU493
1361:./Libraries/STM32F4xx_HAL_Driver/Src/stm32f4xx_ll_fmc.c ****   assert_param(IS_FMC_ROWBITS_NUMBER(Init->RowBitsNumber));
 1418              		.loc 1 1361 3 view .LVU494
1362:./Libraries/STM32F4xx_HAL_Driver/Src/stm32f4xx_ll_fmc.c ****   assert_param(IS_FMC_SDMEMORY_WIDTH(Init->MemoryDataWidth));
ARM GAS  /tmp/cczcFqK2.s 			page 51


 1419              		.loc 1 1362 3 view .LVU495
1363:./Libraries/STM32F4xx_HAL_Driver/Src/stm32f4xx_ll_fmc.c ****   assert_param(IS_FMC_INTERNALBANK_NUMBER(Init->InternalBankNumber));
 1420              		.loc 1 1363 3 view .LVU496
1364:./Libraries/STM32F4xx_HAL_Driver/Src/stm32f4xx_ll_fmc.c ****   assert_param(IS_FMC_CAS_LATENCY(Init->CASLatency));
 1421              		.loc 1 1364 3 view .LVU497
1365:./Libraries/STM32F4xx_HAL_Driver/Src/stm32f4xx_ll_fmc.c ****   assert_param(IS_FMC_WRITE_PROTECTION(Init->WriteProtection));
 1422              		.loc 1 1365 3 view .LVU498
1366:./Libraries/STM32F4xx_HAL_Driver/Src/stm32f4xx_ll_fmc.c ****   assert_param(IS_FMC_SDCLOCK_PERIOD(Init->SDClockPeriod));
 1423              		.loc 1 1366 3 view .LVU499
1367:./Libraries/STM32F4xx_HAL_Driver/Src/stm32f4xx_ll_fmc.c ****   assert_param(IS_FMC_READ_BURST(Init->ReadBurst));
 1424              		.loc 1 1367 3 view .LVU500
1368:./Libraries/STM32F4xx_HAL_Driver/Src/stm32f4xx_ll_fmc.c ****   assert_param(IS_FMC_READPIPE_DELAY(Init->ReadPipeDelay));   
 1425              		.loc 1 1368 3 view .LVU501
1369:./Libraries/STM32F4xx_HAL_Driver/Src/stm32f4xx_ll_fmc.c **** 
1370:./Libraries/STM32F4xx_HAL_Driver/Src/stm32f4xx_ll_fmc.c ****   /* Set SDRAM bank configuration parameters */
1371:./Libraries/STM32F4xx_HAL_Driver/Src/stm32f4xx_ll_fmc.c ****   if (Init->SDBank != FMC_SDRAM_BANK2) 
 1426              		.loc 1 1371 3 view .LVU502
 1427              		.loc 1 1371 11 is_stmt 0 view .LVU503
 1428 0002 0B68     		ldr	r3, [r1]
 1429              		.loc 1 1371 6 view .LVU504
 1430 0004 012B     		cmp	r3, #1
 1431 0006 1AD0     		beq	.L88
1372:./Libraries/STM32F4xx_HAL_Driver/Src/stm32f4xx_ll_fmc.c ****   {    
1373:./Libraries/STM32F4xx_HAL_Driver/Src/stm32f4xx_ll_fmc.c ****     tmpr1 = Device->SDCR[FMC_SDRAM_BANK1];
 1432              		.loc 1 1373 5 is_stmt 1 view .LVU505
 1433              		.loc 1 1373 11 is_stmt 0 view .LVU506
 1434 0008 0268     		ldr	r2, [r0]
 1435              	.LVL108:
1374:./Libraries/STM32F4xx_HAL_Driver/Src/stm32f4xx_ll_fmc.c ****     
1375:./Libraries/STM32F4xx_HAL_Driver/Src/stm32f4xx_ll_fmc.c ****     /* Clear NC, NR, MWID, NB, CAS, WP, SDCLK, RBURST, and RPIPE bits */
1376:./Libraries/STM32F4xx_HAL_Driver/Src/stm32f4xx_ll_fmc.c ****     tmpr1 &= ((uint32_t)~(FMC_SDCR1_NC  | FMC_SDCR1_NR | FMC_SDCR1_MWID | \
 1436              		.loc 1 1376 5 is_stmt 1 view .LVU507
 1437              		.loc 1 1376 11 is_stmt 0 view .LVU508
 1438 000a 22F4FF42 		bic	r2, r2, #32640
 1439              	.LVL109:
 1440              		.loc 1 1376 11 view .LVU509
 1441 000e 22F07F02 		bic	r2, r2, #127
 1442              	.LVL110:
1377:./Libraries/STM32F4xx_HAL_Driver/Src/stm32f4xx_ll_fmc.c ****                          FMC_SDCR1_NB  | FMC_SDCR1_CAS | FMC_SDCR1_WP | \
1378:./Libraries/STM32F4xx_HAL_Driver/Src/stm32f4xx_ll_fmc.c ****                          FMC_SDCR1_SDCLK | FMC_SDCR1_RBURST | FMC_SDCR1_RPIPE));
1379:./Libraries/STM32F4xx_HAL_Driver/Src/stm32f4xx_ll_fmc.c ****   
1380:./Libraries/STM32F4xx_HAL_Driver/Src/stm32f4xx_ll_fmc.c ****   
1381:./Libraries/STM32F4xx_HAL_Driver/Src/stm32f4xx_ll_fmc.c ****     tmpr1 |= (uint32_t)(Init->ColumnBitsNumber   |\
 1443              		.loc 1 1381 5 is_stmt 1 view .LVU510
 1444              		.loc 1 1381 29 is_stmt 0 view .LVU511
 1445 0012 4B68     		ldr	r3, [r1, #4]
1382:./Libraries/STM32F4xx_HAL_Driver/Src/stm32f4xx_ll_fmc.c ****                                                Init->RowBitsNumber      |\
 1446              		.loc 1 1382 52 view .LVU512
 1447 0014 8C68     		ldr	r4, [r1, #8]
1381:./Libraries/STM32F4xx_HAL_Driver/Src/stm32f4xx_ll_fmc.c ****                                                Init->RowBitsNumber      |\
 1448              		.loc 1 1381 50 view .LVU513
 1449 0016 2343     		orrs	r3, r3, r4
1383:./Libraries/STM32F4xx_HAL_Driver/Src/stm32f4xx_ll_fmc.c ****                                                Init->MemoryDataWidth    |\
 1450              		.loc 1 1383 52 view .LVU514
 1451 0018 CC68     		ldr	r4, [r1, #12]
1382:./Libraries/STM32F4xx_HAL_Driver/Src/stm32f4xx_ll_fmc.c ****                                                Init->RowBitsNumber      |\
 1452              		.loc 1 1382 73 view .LVU515
ARM GAS  /tmp/cczcFqK2.s 			page 52


 1453 001a 2343     		orrs	r3, r3, r4
1384:./Libraries/STM32F4xx_HAL_Driver/Src/stm32f4xx_ll_fmc.c ****                                                Init->InternalBankNumber |\
 1454              		.loc 1 1384 52 view .LVU516
 1455 001c 0C69     		ldr	r4, [r1, #16]
1383:./Libraries/STM32F4xx_HAL_Driver/Src/stm32f4xx_ll_fmc.c ****                                                Init->MemoryDataWidth    |\
 1456              		.loc 1 1383 73 view .LVU517
 1457 001e 2343     		orrs	r3, r3, r4
1385:./Libraries/STM32F4xx_HAL_Driver/Src/stm32f4xx_ll_fmc.c ****                                                Init->CASLatency         |\
 1458              		.loc 1 1385 52 view .LVU518
 1459 0020 4C69     		ldr	r4, [r1, #20]
1384:./Libraries/STM32F4xx_HAL_Driver/Src/stm32f4xx_ll_fmc.c ****                                                Init->InternalBankNumber |\
 1460              		.loc 1 1384 73 view .LVU519
 1461 0022 2343     		orrs	r3, r3, r4
1386:./Libraries/STM32F4xx_HAL_Driver/Src/stm32f4xx_ll_fmc.c ****                                                Init->WriteProtection    |\
 1462              		.loc 1 1386 52 view .LVU520
 1463 0024 8C69     		ldr	r4, [r1, #24]
1385:./Libraries/STM32F4xx_HAL_Driver/Src/stm32f4xx_ll_fmc.c ****                                                Init->CASLatency         |\
 1464              		.loc 1 1385 73 view .LVU521
 1465 0026 2343     		orrs	r3, r3, r4
1387:./Libraries/STM32F4xx_HAL_Driver/Src/stm32f4xx_ll_fmc.c ****                                                Init->SDClockPeriod      |\
 1466              		.loc 1 1387 52 view .LVU522
 1467 0028 CC69     		ldr	r4, [r1, #28]
1386:./Libraries/STM32F4xx_HAL_Driver/Src/stm32f4xx_ll_fmc.c ****                                                Init->WriteProtection    |\
 1468              		.loc 1 1386 73 view .LVU523
 1469 002a 2343     		orrs	r3, r3, r4
1388:./Libraries/STM32F4xx_HAL_Driver/Src/stm32f4xx_ll_fmc.c ****                                                Init->ReadBurst          |\
 1470              		.loc 1 1388 52 view .LVU524
 1471 002c 0C6A     		ldr	r4, [r1, #32]
1387:./Libraries/STM32F4xx_HAL_Driver/Src/stm32f4xx_ll_fmc.c ****                                                Init->SDClockPeriod      |\
 1472              		.loc 1 1387 73 view .LVU525
 1473 002e 2343     		orrs	r3, r3, r4
1389:./Libraries/STM32F4xx_HAL_Driver/Src/stm32f4xx_ll_fmc.c ****                                                Init->ReadPipeDelay
 1474              		.loc 1 1389 52 view .LVU526
 1475 0030 496A     		ldr	r1, [r1, #36]
 1476              	.LVL111:
1388:./Libraries/STM32F4xx_HAL_Driver/Src/stm32f4xx_ll_fmc.c ****                                                Init->ReadBurst          |\
 1477              		.loc 1 1388 73 view .LVU527
 1478 0032 0B43     		orrs	r3, r3, r1
1381:./Libraries/STM32F4xx_HAL_Driver/Src/stm32f4xx_ll_fmc.c ****                                                Init->RowBitsNumber      |\
 1479              		.loc 1 1381 11 view .LVU528
 1480 0034 1343     		orrs	r3, r3, r2
 1481              	.LVL112:
1390:./Libraries/STM32F4xx_HAL_Driver/Src/stm32f4xx_ll_fmc.c ****                                                );
1391:./Libraries/STM32F4xx_HAL_Driver/Src/stm32f4xx_ll_fmc.c ****     Device->SDCR[FMC_SDRAM_BANK1] = tmpr1;
 1482              		.loc 1 1391 5 is_stmt 1 view .LVU529
 1483              		.loc 1 1391 35 is_stmt 0 view .LVU530
 1484 0036 0360     		str	r3, [r0]
 1485              	.LVL113:
 1486              	.L89:
1392:./Libraries/STM32F4xx_HAL_Driver/Src/stm32f4xx_ll_fmc.c ****   }
1393:./Libraries/STM32F4xx_HAL_Driver/Src/stm32f4xx_ll_fmc.c ****   else /* FMC_Bank2_SDRAM */                      
1394:./Libraries/STM32F4xx_HAL_Driver/Src/stm32f4xx_ll_fmc.c ****   {
1395:./Libraries/STM32F4xx_HAL_Driver/Src/stm32f4xx_ll_fmc.c ****     tmpr1 = Device->SDCR[FMC_SDRAM_BANK1];
1396:./Libraries/STM32F4xx_HAL_Driver/Src/stm32f4xx_ll_fmc.c ****     
1397:./Libraries/STM32F4xx_HAL_Driver/Src/stm32f4xx_ll_fmc.c ****     /* Clear NC, NR, MWID, NB, CAS, WP, SDCLK, RBURST, and RPIPE bits */
1398:./Libraries/STM32F4xx_HAL_Driver/Src/stm32f4xx_ll_fmc.c ****     tmpr1 &= ((uint32_t)~(FMC_SDCR1_SDCLK | FMC_SDCR1_RBURST | FMC_SDCR1_RPIPE));
1399:./Libraries/STM32F4xx_HAL_Driver/Src/stm32f4xx_ll_fmc.c ****     
ARM GAS  /tmp/cczcFqK2.s 			page 53


1400:./Libraries/STM32F4xx_HAL_Driver/Src/stm32f4xx_ll_fmc.c ****     tmpr1 |= (uint32_t)(Init->SDClockPeriod      |\
1401:./Libraries/STM32F4xx_HAL_Driver/Src/stm32f4xx_ll_fmc.c ****                         Init->ReadBurst          |\
1402:./Libraries/STM32F4xx_HAL_Driver/Src/stm32f4xx_ll_fmc.c ****                         Init->ReadPipeDelay);  
1403:./Libraries/STM32F4xx_HAL_Driver/Src/stm32f4xx_ll_fmc.c ****     
1404:./Libraries/STM32F4xx_HAL_Driver/Src/stm32f4xx_ll_fmc.c ****     tmpr2 = Device->SDCR[FMC_SDRAM_BANK2];
1405:./Libraries/STM32F4xx_HAL_Driver/Src/stm32f4xx_ll_fmc.c ****     
1406:./Libraries/STM32F4xx_HAL_Driver/Src/stm32f4xx_ll_fmc.c ****     /* Clear NC, NR, MWID, NB, CAS, WP, SDCLK, RBURST, and RPIPE bits */
1407:./Libraries/STM32F4xx_HAL_Driver/Src/stm32f4xx_ll_fmc.c ****     tmpr2 &= ((uint32_t)~(FMC_SDCR1_NC  | FMC_SDCR1_NR | FMC_SDCR1_MWID | \
1408:./Libraries/STM32F4xx_HAL_Driver/Src/stm32f4xx_ll_fmc.c ****                           FMC_SDCR1_NB  | FMC_SDCR1_CAS | FMC_SDCR1_WP | \
1409:./Libraries/STM32F4xx_HAL_Driver/Src/stm32f4xx_ll_fmc.c ****                           FMC_SDCR1_SDCLK | FMC_SDCR1_RBURST | FMC_SDCR1_RPIPE));
1410:./Libraries/STM32F4xx_HAL_Driver/Src/stm32f4xx_ll_fmc.c **** 
1411:./Libraries/STM32F4xx_HAL_Driver/Src/stm32f4xx_ll_fmc.c ****     tmpr2 |= (uint32_t)(Init->ColumnBitsNumber   |\
1412:./Libraries/STM32F4xx_HAL_Driver/Src/stm32f4xx_ll_fmc.c ****                        Init->RowBitsNumber      |\
1413:./Libraries/STM32F4xx_HAL_Driver/Src/stm32f4xx_ll_fmc.c ****                        Init->MemoryDataWidth    |\
1414:./Libraries/STM32F4xx_HAL_Driver/Src/stm32f4xx_ll_fmc.c ****                        Init->InternalBankNumber |\
1415:./Libraries/STM32F4xx_HAL_Driver/Src/stm32f4xx_ll_fmc.c ****                        Init->CASLatency         |\
1416:./Libraries/STM32F4xx_HAL_Driver/Src/stm32f4xx_ll_fmc.c ****                        Init->WriteProtection);
1417:./Libraries/STM32F4xx_HAL_Driver/Src/stm32f4xx_ll_fmc.c **** 
1418:./Libraries/STM32F4xx_HAL_Driver/Src/stm32f4xx_ll_fmc.c ****     Device->SDCR[FMC_SDRAM_BANK1] = tmpr1;
1419:./Libraries/STM32F4xx_HAL_Driver/Src/stm32f4xx_ll_fmc.c ****     Device->SDCR[FMC_SDRAM_BANK2] = tmpr2;
1420:./Libraries/STM32F4xx_HAL_Driver/Src/stm32f4xx_ll_fmc.c ****   }  
1421:./Libraries/STM32F4xx_HAL_Driver/Src/stm32f4xx_ll_fmc.c ****   
1422:./Libraries/STM32F4xx_HAL_Driver/Src/stm32f4xx_ll_fmc.c ****   return HAL_OK;
 1487              		.loc 1 1422 3 is_stmt 1 view .LVU531
1423:./Libraries/STM32F4xx_HAL_Driver/Src/stm32f4xx_ll_fmc.c **** }
 1488              		.loc 1 1423 1 is_stmt 0 view .LVU532
 1489 0038 0020     		movs	r0, #0
 1490              	.LVL114:
 1491              		.loc 1 1423 1 view .LVU533
 1492 003a 30BC     		pop	{r4, r5}
 1493              	.LCFI19:
 1494              		.cfi_remember_state
 1495              		.cfi_restore 5
 1496              		.cfi_restore 4
 1497              		.cfi_def_cfa_offset 0
 1498 003c 7047     		bx	lr
 1499              	.LVL115:
 1500              	.L88:
 1501              	.LCFI20:
 1502              		.cfi_restore_state
1395:./Libraries/STM32F4xx_HAL_Driver/Src/stm32f4xx_ll_fmc.c ****     
 1503              		.loc 1 1395 5 is_stmt 1 view .LVU534
1395:./Libraries/STM32F4xx_HAL_Driver/Src/stm32f4xx_ll_fmc.c ****     
 1504              		.loc 1 1395 11 is_stmt 0 view .LVU535
 1505 003e 0268     		ldr	r2, [r0]
 1506              	.LVL116:
1398:./Libraries/STM32F4xx_HAL_Driver/Src/stm32f4xx_ll_fmc.c ****     
 1507              		.loc 1 1398 5 is_stmt 1 view .LVU536
1398:./Libraries/STM32F4xx_HAL_Driver/Src/stm32f4xx_ll_fmc.c ****     
 1508              		.loc 1 1398 11 is_stmt 0 view .LVU537
 1509 0040 22F4F842 		bic	r2, r2, #31744
 1510              	.LVL117:
1400:./Libraries/STM32F4xx_HAL_Driver/Src/stm32f4xx_ll_fmc.c ****                         Init->ReadBurst          |\
 1511              		.loc 1 1400 5 is_stmt 1 view .LVU538
1400:./Libraries/STM32F4xx_HAL_Driver/Src/stm32f4xx_ll_fmc.c ****                         Init->ReadBurst          |\
 1512              		.loc 1 1400 29 is_stmt 0 view .LVU539
 1513 0044 CB69     		ldr	r3, [r1, #28]
ARM GAS  /tmp/cczcFqK2.s 			page 54


1401:./Libraries/STM32F4xx_HAL_Driver/Src/stm32f4xx_ll_fmc.c ****                         Init->ReadPipeDelay);  
 1514              		.loc 1 1401 29 view .LVU540
 1515 0046 0C6A     		ldr	r4, [r1, #32]
1400:./Libraries/STM32F4xx_HAL_Driver/Src/stm32f4xx_ll_fmc.c ****                         Init->ReadBurst          |\
 1516              		.loc 1 1400 50 view .LVU541
 1517 0048 1C43     		orrs	r4, r4, r3
1402:./Libraries/STM32F4xx_HAL_Driver/Src/stm32f4xx_ll_fmc.c ****     
 1518              		.loc 1 1402 29 view .LVU542
 1519 004a 4B6A     		ldr	r3, [r1, #36]
1401:./Libraries/STM32F4xx_HAL_Driver/Src/stm32f4xx_ll_fmc.c ****                         Init->ReadPipeDelay);  
 1520              		.loc 1 1401 50 view .LVU543
 1521 004c 1C43     		orrs	r4, r4, r3
1400:./Libraries/STM32F4xx_HAL_Driver/Src/stm32f4xx_ll_fmc.c ****                         Init->ReadBurst          |\
 1522              		.loc 1 1400 11 view .LVU544
 1523 004e 1443     		orrs	r4, r4, r2
 1524              	.LVL118:
1404:./Libraries/STM32F4xx_HAL_Driver/Src/stm32f4xx_ll_fmc.c ****     
 1525              		.loc 1 1404 5 is_stmt 1 view .LVU545
1404:./Libraries/STM32F4xx_HAL_Driver/Src/stm32f4xx_ll_fmc.c ****     
 1526              		.loc 1 1404 11 is_stmt 0 view .LVU546
 1527 0050 4268     		ldr	r2, [r0, #4]
 1528              	.LVL119:
1407:./Libraries/STM32F4xx_HAL_Driver/Src/stm32f4xx_ll_fmc.c ****                           FMC_SDCR1_NB  | FMC_SDCR1_CAS | FMC_SDCR1_WP | \
 1529              		.loc 1 1407 5 is_stmt 1 view .LVU547
1407:./Libraries/STM32F4xx_HAL_Driver/Src/stm32f4xx_ll_fmc.c ****                           FMC_SDCR1_NB  | FMC_SDCR1_CAS | FMC_SDCR1_WP | \
 1530              		.loc 1 1407 11 is_stmt 0 view .LVU548
 1531 0052 22F4FF42 		bic	r2, r2, #32640
 1532              	.LVL120:
1407:./Libraries/STM32F4xx_HAL_Driver/Src/stm32f4xx_ll_fmc.c ****                           FMC_SDCR1_NB  | FMC_SDCR1_CAS | FMC_SDCR1_WP | \
 1533              		.loc 1 1407 11 view .LVU549
 1534 0056 22F07F02 		bic	r2, r2, #127
 1535              	.LVL121:
1411:./Libraries/STM32F4xx_HAL_Driver/Src/stm32f4xx_ll_fmc.c ****                        Init->RowBitsNumber      |\
 1536              		.loc 1 1411 5 is_stmt 1 view .LVU550
1411:./Libraries/STM32F4xx_HAL_Driver/Src/stm32f4xx_ll_fmc.c ****                        Init->RowBitsNumber      |\
 1537              		.loc 1 1411 29 is_stmt 0 view .LVU551
 1538 005a 4B68     		ldr	r3, [r1, #4]
1411:./Libraries/STM32F4xx_HAL_Driver/Src/stm32f4xx_ll_fmc.c ****                        Init->RowBitsNumber      |\
 1539              		.loc 1 1411 50 view .LVU552
 1540 005c 8D68     		ldr	r5, [r1, #8]
 1541 005e 2B43     		orrs	r3, r3, r5
1412:./Libraries/STM32F4xx_HAL_Driver/Src/stm32f4xx_ll_fmc.c ****                        Init->MemoryDataWidth    |\
 1542              		.loc 1 1412 49 view .LVU553
 1543 0060 CD68     		ldr	r5, [r1, #12]
 1544 0062 2B43     		orrs	r3, r3, r5
1413:./Libraries/STM32F4xx_HAL_Driver/Src/stm32f4xx_ll_fmc.c ****                        Init->InternalBankNumber |\
 1545              		.loc 1 1413 49 view .LVU554
 1546 0064 0D69     		ldr	r5, [r1, #16]
 1547 0066 2B43     		orrs	r3, r3, r5
1414:./Libraries/STM32F4xx_HAL_Driver/Src/stm32f4xx_ll_fmc.c ****                        Init->CASLatency         |\
 1548              		.loc 1 1414 49 view .LVU555
 1549 0068 4D69     		ldr	r5, [r1, #20]
 1550 006a 2B43     		orrs	r3, r3, r5
1416:./Libraries/STM32F4xx_HAL_Driver/Src/stm32f4xx_ll_fmc.c **** 
 1551              		.loc 1 1416 28 view .LVU556
 1552 006c 8969     		ldr	r1, [r1, #24]
 1553              	.LVL122:
ARM GAS  /tmp/cczcFqK2.s 			page 55


1415:./Libraries/STM32F4xx_HAL_Driver/Src/stm32f4xx_ll_fmc.c ****                        Init->WriteProtection);
 1554              		.loc 1 1415 49 view .LVU557
 1555 006e 0B43     		orrs	r3, r3, r1
1411:./Libraries/STM32F4xx_HAL_Driver/Src/stm32f4xx_ll_fmc.c ****                        Init->RowBitsNumber      |\
 1556              		.loc 1 1411 11 view .LVU558
 1557 0070 1343     		orrs	r3, r3, r2
 1558              	.LVL123:
1418:./Libraries/STM32F4xx_HAL_Driver/Src/stm32f4xx_ll_fmc.c ****     Device->SDCR[FMC_SDRAM_BANK2] = tmpr2;
 1559              		.loc 1 1418 5 is_stmt 1 view .LVU559
1418:./Libraries/STM32F4xx_HAL_Driver/Src/stm32f4xx_ll_fmc.c ****     Device->SDCR[FMC_SDRAM_BANK2] = tmpr2;
 1560              		.loc 1 1418 35 is_stmt 0 view .LVU560
 1561 0072 0460     		str	r4, [r0]
1419:./Libraries/STM32F4xx_HAL_Driver/Src/stm32f4xx_ll_fmc.c ****   }  
 1562              		.loc 1 1419 5 is_stmt 1 view .LVU561
1419:./Libraries/STM32F4xx_HAL_Driver/Src/stm32f4xx_ll_fmc.c ****   }  
 1563              		.loc 1 1419 35 is_stmt 0 view .LVU562
 1564 0074 4360     		str	r3, [r0, #4]
 1565 0076 DFE7     		b	.L89
 1566              		.cfi_endproc
 1567              	.LFE144:
 1569              		.section	.text.FMC_SDRAM_Timing_Init,"ax",%progbits
 1570              		.align	1
 1571              		.global	FMC_SDRAM_Timing_Init
 1572              		.syntax unified
 1573              		.thumb
 1574              		.thumb_func
 1575              		.fpu fpv4-sp-d16
 1577              	FMC_SDRAM_Timing_Init:
 1578              	.LVL124:
 1579              	.LFB145:
1424:./Libraries/STM32F4xx_HAL_Driver/Src/stm32f4xx_ll_fmc.c **** 
1425:./Libraries/STM32F4xx_HAL_Driver/Src/stm32f4xx_ll_fmc.c **** /**
1426:./Libraries/STM32F4xx_HAL_Driver/Src/stm32f4xx_ll_fmc.c ****   * @brief  Initializes the FMC_SDRAM device timing according to the specified
1427:./Libraries/STM32F4xx_HAL_Driver/Src/stm32f4xx_ll_fmc.c ****   *         parameters in the FMC_SDRAM_TimingTypeDef
1428:./Libraries/STM32F4xx_HAL_Driver/Src/stm32f4xx_ll_fmc.c ****   * @param  Device Pointer to SDRAM device instance
1429:./Libraries/STM32F4xx_HAL_Driver/Src/stm32f4xx_ll_fmc.c ****   * @param  Timing Pointer to SDRAM Timing structure
1430:./Libraries/STM32F4xx_HAL_Driver/Src/stm32f4xx_ll_fmc.c ****   * @param  Bank SDRAM bank number   
1431:./Libraries/STM32F4xx_HAL_Driver/Src/stm32f4xx_ll_fmc.c ****   * @retval HAL status
1432:./Libraries/STM32F4xx_HAL_Driver/Src/stm32f4xx_ll_fmc.c ****   */
1433:./Libraries/STM32F4xx_HAL_Driver/Src/stm32f4xx_ll_fmc.c **** HAL_StatusTypeDef FMC_SDRAM_Timing_Init(FMC_SDRAM_TypeDef *Device, FMC_SDRAM_TimingTypeDef *Timing,
1434:./Libraries/STM32F4xx_HAL_Driver/Src/stm32f4xx_ll_fmc.c **** {
 1580              		.loc 1 1434 1 is_stmt 1 view -0
 1581              		.cfi_startproc
 1582              		@ args = 0, pretend = 0, frame = 0
 1583              		@ frame_needed = 0, uses_anonymous_args = 0
 1584              		.loc 1 1434 1 is_stmt 0 view .LVU564
 1585 0000 10B5     		push	{r4, lr}
 1586              	.LCFI21:
 1587              		.cfi_def_cfa_offset 8
 1588              		.cfi_offset 4, -8
 1589              		.cfi_offset 14, -4
1435:./Libraries/STM32F4xx_HAL_Driver/Src/stm32f4xx_ll_fmc.c ****   uint32_t tmpr1 = 0U;
 1590              		.loc 1 1435 3 is_stmt 1 view .LVU565
 1591              	.LVL125:
1436:./Libraries/STM32F4xx_HAL_Driver/Src/stm32f4xx_ll_fmc.c ****   uint32_t tmpr2 = 0U;
 1592              		.loc 1 1436 3 view .LVU566
1437:./Libraries/STM32F4xx_HAL_Driver/Src/stm32f4xx_ll_fmc.c ****     
ARM GAS  /tmp/cczcFqK2.s 			page 56


1438:./Libraries/STM32F4xx_HAL_Driver/Src/stm32f4xx_ll_fmc.c ****   /* Check the parameters */
1439:./Libraries/STM32F4xx_HAL_Driver/Src/stm32f4xx_ll_fmc.c ****   assert_param(IS_FMC_SDRAM_DEVICE(Device));
 1593              		.loc 1 1439 3 view .LVU567
1440:./Libraries/STM32F4xx_HAL_Driver/Src/stm32f4xx_ll_fmc.c ****   assert_param(IS_FMC_LOADTOACTIVE_DELAY(Timing->LoadToActiveDelay));
 1594              		.loc 1 1440 3 view .LVU568
1441:./Libraries/STM32F4xx_HAL_Driver/Src/stm32f4xx_ll_fmc.c ****   assert_param(IS_FMC_EXITSELFREFRESH_DELAY(Timing->ExitSelfRefreshDelay));
 1595              		.loc 1 1441 3 view .LVU569
1442:./Libraries/STM32F4xx_HAL_Driver/Src/stm32f4xx_ll_fmc.c ****   assert_param(IS_FMC_SELFREFRESH_TIME(Timing->SelfRefreshTime));
 1596              		.loc 1 1442 3 view .LVU570
1443:./Libraries/STM32F4xx_HAL_Driver/Src/stm32f4xx_ll_fmc.c ****   assert_param(IS_FMC_ROWCYCLE_DELAY(Timing->RowCycleDelay));
 1597              		.loc 1 1443 3 view .LVU571
1444:./Libraries/STM32F4xx_HAL_Driver/Src/stm32f4xx_ll_fmc.c ****   assert_param(IS_FMC_WRITE_RECOVERY_TIME(Timing->WriteRecoveryTime));
 1598              		.loc 1 1444 3 view .LVU572
1445:./Libraries/STM32F4xx_HAL_Driver/Src/stm32f4xx_ll_fmc.c ****   assert_param(IS_FMC_RP_DELAY(Timing->RPDelay));
 1599              		.loc 1 1445 3 view .LVU573
1446:./Libraries/STM32F4xx_HAL_Driver/Src/stm32f4xx_ll_fmc.c ****   assert_param(IS_FMC_RCD_DELAY(Timing->RCDDelay));
 1600              		.loc 1 1446 3 view .LVU574
1447:./Libraries/STM32F4xx_HAL_Driver/Src/stm32f4xx_ll_fmc.c ****   assert_param(IS_FMC_SDRAM_BANK(Bank));
 1601              		.loc 1 1447 3 view .LVU575
1448:./Libraries/STM32F4xx_HAL_Driver/Src/stm32f4xx_ll_fmc.c ****   
1449:./Libraries/STM32F4xx_HAL_Driver/Src/stm32f4xx_ll_fmc.c ****   /* Set SDRAM device timing parameters */ 
1450:./Libraries/STM32F4xx_HAL_Driver/Src/stm32f4xx_ll_fmc.c ****   if (Bank != FMC_SDRAM_BANK2) 
 1602              		.loc 1 1450 3 view .LVU576
 1603              		.loc 1 1450 6 is_stmt 0 view .LVU577
 1604 0002 012A     		cmp	r2, #1
 1605 0004 25D0     		beq	.L92
1451:./Libraries/STM32F4xx_HAL_Driver/Src/stm32f4xx_ll_fmc.c ****   { 
1452:./Libraries/STM32F4xx_HAL_Driver/Src/stm32f4xx_ll_fmc.c ****     tmpr1 = Device->SDTR[FMC_SDRAM_BANK1];
 1606              		.loc 1 1452 5 is_stmt 1 view .LVU578
 1607              		.loc 1 1452 11 is_stmt 0 view .LVU579
 1608 0006 8268     		ldr	r2, [r0, #8]
 1609              	.LVL126:
1453:./Libraries/STM32F4xx_HAL_Driver/Src/stm32f4xx_ll_fmc.c ****     
1454:./Libraries/STM32F4xx_HAL_Driver/Src/stm32f4xx_ll_fmc.c ****     /* Clear TMRD, TXSR, TRAS, TRC, TWR, TRP and TRCD bits */
1455:./Libraries/STM32F4xx_HAL_Driver/Src/stm32f4xx_ll_fmc.c ****     tmpr1 &= ((uint32_t)~(FMC_SDTR1_TMRD  | FMC_SDTR1_TXSR | FMC_SDTR1_TRAS | \
 1610              		.loc 1 1455 5 is_stmt 1 view .LVU580
 1611              		.loc 1 1455 11 is_stmt 0 view .LVU581
 1612 0008 02F07042 		and	r2, r2, #-268435456
 1613              	.LVL127:
1456:./Libraries/STM32F4xx_HAL_Driver/Src/stm32f4xx_ll_fmc.c ****                           FMC_SDTR1_TRC  | FMC_SDTR1_TWR | FMC_SDTR1_TRP | \
1457:./Libraries/STM32F4xx_HAL_Driver/Src/stm32f4xx_ll_fmc.c ****                           FMC_SDTR1_TRCD));
1458:./Libraries/STM32F4xx_HAL_Driver/Src/stm32f4xx_ll_fmc.c ****     
1459:./Libraries/STM32F4xx_HAL_Driver/Src/stm32f4xx_ll_fmc.c ****     tmpr1 |= (uint32_t)(((Timing->LoadToActiveDelay)-1U)           |\
 1614              		.loc 1 1459 5 is_stmt 1 view .LVU582
 1615              		.loc 1 1459 33 is_stmt 0 view .LVU583
 1616 000c 0B68     		ldr	r3, [r1]
 1617              		.loc 1 1459 53 view .LVU584
 1618 000e 013B     		subs	r3, r3, #1
1460:./Libraries/STM32F4xx_HAL_Driver/Src/stm32f4xx_ll_fmc.c ****                        (((Timing->ExitSelfRefreshDelay)-1U) << 4U) |\
 1619              		.loc 1 1460 56 view .LVU585
 1620 0010 4C68     		ldr	r4, [r1, #4]
 1621 0012 04F1FF3C 		add	ip, r4, #-1
1459:./Libraries/STM32F4xx_HAL_Driver/Src/stm32f4xx_ll_fmc.c ****                        (((Timing->ExitSelfRefreshDelay)-1U) << 4U) |\
 1622              		.loc 1 1459 68 view .LVU586
 1623 0016 43EA0C13 		orr	r3, r3, ip, lsl #4
1461:./Libraries/STM32F4xx_HAL_Driver/Src/stm32f4xx_ll_fmc.c ****                        (((Timing->SelfRefreshTime)-1U) << 8U)      |\
 1624              		.loc 1 1461 51 view .LVU587
ARM GAS  /tmp/cczcFqK2.s 			page 57


 1625 001a 8C68     		ldr	r4, [r1, #8]
 1626 001c 04F1FF3C 		add	ip, r4, #-1
1460:./Libraries/STM32F4xx_HAL_Driver/Src/stm32f4xx_ll_fmc.c ****                        (((Timing->ExitSelfRefreshDelay)-1U) << 4U) |\
 1627              		.loc 1 1460 68 view .LVU588
 1628 0020 43EA0C23 		orr	r3, r3, ip, lsl #8
1462:./Libraries/STM32F4xx_HAL_Driver/Src/stm32f4xx_ll_fmc.c ****                        (((Timing->RowCycleDelay)-1U) << 12U)       |\
 1629              		.loc 1 1462 49 view .LVU589
 1630 0024 CC68     		ldr	r4, [r1, #12]
 1631 0026 04F1FF3C 		add	ip, r4, #-1
1461:./Libraries/STM32F4xx_HAL_Driver/Src/stm32f4xx_ll_fmc.c ****                        (((Timing->SelfRefreshTime)-1U) << 8U)      |\
 1632              		.loc 1 1461 68 view .LVU590
 1633 002a 43EA0C33 		orr	r3, r3, ip, lsl #12
1463:./Libraries/STM32F4xx_HAL_Driver/Src/stm32f4xx_ll_fmc.c ****                        (((Timing->WriteRecoveryTime)-1U) <<16U)    |\
 1634              		.loc 1 1463 53 view .LVU591
 1635 002e 0C69     		ldr	r4, [r1, #16]
 1636 0030 04F1FF3C 		add	ip, r4, #-1
1462:./Libraries/STM32F4xx_HAL_Driver/Src/stm32f4xx_ll_fmc.c ****                        (((Timing->RowCycleDelay)-1U) << 12U)       |\
 1637              		.loc 1 1462 68 view .LVU592
 1638 0034 43EA0C43 		orr	r3, r3, ip, lsl #16
1464:./Libraries/STM32F4xx_HAL_Driver/Src/stm32f4xx_ll_fmc.c ****                        (((Timing->RPDelay)-1U) << 20U)             |\
 1639              		.loc 1 1464 43 view .LVU593
 1640 0038 4C69     		ldr	r4, [r1, #20]
 1641 003a 04F1FF3C 		add	ip, r4, #-1
1463:./Libraries/STM32F4xx_HAL_Driver/Src/stm32f4xx_ll_fmc.c ****                        (((Timing->WriteRecoveryTime)-1U) <<16U)    |\
 1642              		.loc 1 1463 68 view .LVU594
 1643 003e 43EA0C53 		orr	r3, r3, ip, lsl #20
1465:./Libraries/STM32F4xx_HAL_Driver/Src/stm32f4xx_ll_fmc.c ****                        (((Timing->RCDDelay)-1U) << 24U));
 1644              		.loc 1 1465 33 view .LVU595
 1645 0042 8969     		ldr	r1, [r1, #24]
 1646              	.LVL128:
 1647              		.loc 1 1465 44 view .LVU596
 1648 0044 0139     		subs	r1, r1, #1
1459:./Libraries/STM32F4xx_HAL_Driver/Src/stm32f4xx_ll_fmc.c ****                        (((Timing->ExitSelfRefreshDelay)-1U) << 4U) |\
 1649              		.loc 1 1459 14 view .LVU597
 1650 0046 43EA0163 		orr	r3, r3, r1, lsl #24
1459:./Libraries/STM32F4xx_HAL_Driver/Src/stm32f4xx_ll_fmc.c ****                        (((Timing->ExitSelfRefreshDelay)-1U) << 4U) |\
 1651              		.loc 1 1459 11 view .LVU598
 1652 004a 1343     		orrs	r3, r3, r2
 1653              	.LVL129:
1466:./Libraries/STM32F4xx_HAL_Driver/Src/stm32f4xx_ll_fmc.c ****     Device->SDTR[FMC_SDRAM_BANK1] = tmpr1;
 1654              		.loc 1 1466 5 is_stmt 1 view .LVU599
 1655              		.loc 1 1466 35 is_stmt 0 view .LVU600
 1656 004c 8360     		str	r3, [r0, #8]
 1657              	.LVL130:
 1658              	.L93:
1467:./Libraries/STM32F4xx_HAL_Driver/Src/stm32f4xx_ll_fmc.c ****   }
1468:./Libraries/STM32F4xx_HAL_Driver/Src/stm32f4xx_ll_fmc.c ****    else /* FMC_Bank2_SDRAM */
1469:./Libraries/STM32F4xx_HAL_Driver/Src/stm32f4xx_ll_fmc.c ****   {
1470:./Libraries/STM32F4xx_HAL_Driver/Src/stm32f4xx_ll_fmc.c ****     tmpr1 = Device->SDTR[FMC_SDRAM_BANK1];
1471:./Libraries/STM32F4xx_HAL_Driver/Src/stm32f4xx_ll_fmc.c ****     
1472:./Libraries/STM32F4xx_HAL_Driver/Src/stm32f4xx_ll_fmc.c ****     /* Clear TRC and TRP bits */
1473:./Libraries/STM32F4xx_HAL_Driver/Src/stm32f4xx_ll_fmc.c ****     tmpr1 &= ((uint32_t)~(FMC_SDTR1_TRC | FMC_SDTR1_TRP));
1474:./Libraries/STM32F4xx_HAL_Driver/Src/stm32f4xx_ll_fmc.c ****     
1475:./Libraries/STM32F4xx_HAL_Driver/Src/stm32f4xx_ll_fmc.c ****     tmpr1 |= (uint32_t)((((Timing->RowCycleDelay)-1U) << 12U)       |\
1476:./Libraries/STM32F4xx_HAL_Driver/Src/stm32f4xx_ll_fmc.c ****                         (((Timing->RPDelay)-1U) << 20U)); 
1477:./Libraries/STM32F4xx_HAL_Driver/Src/stm32f4xx_ll_fmc.c ****     
1478:./Libraries/STM32F4xx_HAL_Driver/Src/stm32f4xx_ll_fmc.c ****     tmpr2 = Device->SDTR[FMC_SDRAM_BANK2];
ARM GAS  /tmp/cczcFqK2.s 			page 58


1479:./Libraries/STM32F4xx_HAL_Driver/Src/stm32f4xx_ll_fmc.c ****     
1480:./Libraries/STM32F4xx_HAL_Driver/Src/stm32f4xx_ll_fmc.c ****     /* Clear TMRD, TXSR, TRAS, TRC, TWR, TRP and TRCD bits */
1481:./Libraries/STM32F4xx_HAL_Driver/Src/stm32f4xx_ll_fmc.c ****     tmpr2 &= ((uint32_t)~(FMC_SDTR1_TMRD  | FMC_SDTR1_TXSR | FMC_SDTR1_TRAS | \
1482:./Libraries/STM32F4xx_HAL_Driver/Src/stm32f4xx_ll_fmc.c ****                           FMC_SDTR1_TRC  | FMC_SDTR1_TWR | FMC_SDTR1_TRP | \
1483:./Libraries/STM32F4xx_HAL_Driver/Src/stm32f4xx_ll_fmc.c ****                           FMC_SDTR1_TRCD));
1484:./Libraries/STM32F4xx_HAL_Driver/Src/stm32f4xx_ll_fmc.c ****     
1485:./Libraries/STM32F4xx_HAL_Driver/Src/stm32f4xx_ll_fmc.c ****     tmpr2 |= (uint32_t)((((Timing->LoadToActiveDelay)-1U)           |\
1486:./Libraries/STM32F4xx_HAL_Driver/Src/stm32f4xx_ll_fmc.c ****                        (((Timing->ExitSelfRefreshDelay)-1U) << 4U)  |\
1487:./Libraries/STM32F4xx_HAL_Driver/Src/stm32f4xx_ll_fmc.c ****                        (((Timing->SelfRefreshTime)-1U) << 8U)       |\
1488:./Libraries/STM32F4xx_HAL_Driver/Src/stm32f4xx_ll_fmc.c ****                        (((Timing->WriteRecoveryTime)-1U) <<16U)     |\
1489:./Libraries/STM32F4xx_HAL_Driver/Src/stm32f4xx_ll_fmc.c ****                        (((Timing->RCDDelay)-1U) << 24U)));   
1490:./Libraries/STM32F4xx_HAL_Driver/Src/stm32f4xx_ll_fmc.c **** 
1491:./Libraries/STM32F4xx_HAL_Driver/Src/stm32f4xx_ll_fmc.c ****     Device->SDTR[FMC_SDRAM_BANK1] = tmpr1;
1492:./Libraries/STM32F4xx_HAL_Driver/Src/stm32f4xx_ll_fmc.c ****     Device->SDTR[FMC_SDRAM_BANK2] = tmpr2;
1493:./Libraries/STM32F4xx_HAL_Driver/Src/stm32f4xx_ll_fmc.c ****   }
1494:./Libraries/STM32F4xx_HAL_Driver/Src/stm32f4xx_ll_fmc.c ****   return HAL_OK;
 1659              		.loc 1 1494 3 is_stmt 1 view .LVU601
1495:./Libraries/STM32F4xx_HAL_Driver/Src/stm32f4xx_ll_fmc.c **** }
 1660              		.loc 1 1495 1 is_stmt 0 view .LVU602
 1661 004e 0020     		movs	r0, #0
 1662              	.LVL131:
 1663              		.loc 1 1495 1 view .LVU603
 1664 0050 10BD     		pop	{r4, pc}
 1665              	.LVL132:
 1666              	.L92:
1470:./Libraries/STM32F4xx_HAL_Driver/Src/stm32f4xx_ll_fmc.c ****     
 1667              		.loc 1 1470 5 is_stmt 1 view .LVU604
1470:./Libraries/STM32F4xx_HAL_Driver/Src/stm32f4xx_ll_fmc.c ****     
 1668              		.loc 1 1470 11 is_stmt 0 view .LVU605
 1669 0052 8268     		ldr	r2, [r0, #8]
 1670              	.LVL133:
1473:./Libraries/STM32F4xx_HAL_Driver/Src/stm32f4xx_ll_fmc.c ****     
 1671              		.loc 1 1473 5 is_stmt 1 view .LVU606
1473:./Libraries/STM32F4xx_HAL_Driver/Src/stm32f4xx_ll_fmc.c ****     
 1672              		.loc 1 1473 11 is_stmt 0 view .LVU607
 1673 0054 22F4700C 		bic	ip, r2, #15728640
 1674 0058 2CF4704C 		bic	ip, ip, #61440
 1675              	.LVL134:
1475:./Libraries/STM32F4xx_HAL_Driver/Src/stm32f4xx_ll_fmc.c ****                         (((Timing->RPDelay)-1U) << 20U)); 
 1676              		.loc 1 1475 5 is_stmt 1 view .LVU608
1475:./Libraries/STM32F4xx_HAL_Driver/Src/stm32f4xx_ll_fmc.c ****                         (((Timing->RPDelay)-1U) << 20U)); 
 1677              		.loc 1 1475 34 is_stmt 0 view .LVU609
 1678 005c CA68     		ldr	r2, [r1, #12]
1475:./Libraries/STM32F4xx_HAL_Driver/Src/stm32f4xx_ll_fmc.c ****                         (((Timing->RPDelay)-1U) << 20U)); 
 1679              		.loc 1 1475 50 view .LVU610
 1680 005e 02F1FF3E 		add	lr, r2, #-1
1476:./Libraries/STM32F4xx_HAL_Driver/Src/stm32f4xx_ll_fmc.c ****     
 1681              		.loc 1 1476 34 view .LVU611
 1682 0062 4B69     		ldr	r3, [r1, #20]
1476:./Libraries/STM32F4xx_HAL_Driver/Src/stm32f4xx_ll_fmc.c ****     
 1683              		.loc 1 1476 44 view .LVU612
 1684 0064 5A1E     		subs	r2, r3, #1
1476:./Libraries/STM32F4xx_HAL_Driver/Src/stm32f4xx_ll_fmc.c ****     
 1685              		.loc 1 1476 49 view .LVU613
 1686 0066 1205     		lsls	r2, r2, #20
1475:./Libraries/STM32F4xx_HAL_Driver/Src/stm32f4xx_ll_fmc.c ****                         (((Timing->RPDelay)-1U) << 20U)); 
 1687              		.loc 1 1475 14 view .LVU614
ARM GAS  /tmp/cczcFqK2.s 			page 59


 1688 0068 42EA0E32 		orr	r2, r2, lr, lsl #12
1475:./Libraries/STM32F4xx_HAL_Driver/Src/stm32f4xx_ll_fmc.c ****                         (((Timing->RPDelay)-1U) << 20U)); 
 1689              		.loc 1 1475 11 view .LVU615
 1690 006c 42EA0C02 		orr	r2, r2, ip
 1691              	.LVL135:
1478:./Libraries/STM32F4xx_HAL_Driver/Src/stm32f4xx_ll_fmc.c ****     
 1692              		.loc 1 1478 5 is_stmt 1 view .LVU616
1478:./Libraries/STM32F4xx_HAL_Driver/Src/stm32f4xx_ll_fmc.c ****     
 1693              		.loc 1 1478 11 is_stmt 0 view .LVU617
 1694 0070 C368     		ldr	r3, [r0, #12]
 1695              	.LVL136:
1481:./Libraries/STM32F4xx_HAL_Driver/Src/stm32f4xx_ll_fmc.c ****                           FMC_SDTR1_TRC  | FMC_SDTR1_TWR | FMC_SDTR1_TRP | \
 1696              		.loc 1 1481 5 is_stmt 1 view .LVU618
1481:./Libraries/STM32F4xx_HAL_Driver/Src/stm32f4xx_ll_fmc.c ****                           FMC_SDTR1_TRC  | FMC_SDTR1_TWR | FMC_SDTR1_TRP | \
 1697              		.loc 1 1481 11 is_stmt 0 view .LVU619
 1698 0072 03F0704C 		and	ip, r3, #-268435456
 1699              	.LVL137:
1485:./Libraries/STM32F4xx_HAL_Driver/Src/stm32f4xx_ll_fmc.c ****                        (((Timing->ExitSelfRefreshDelay)-1U) << 4U)  |\
 1700              		.loc 1 1485 5 is_stmt 1 view .LVU620
1485:./Libraries/STM32F4xx_HAL_Driver/Src/stm32f4xx_ll_fmc.c ****                        (((Timing->ExitSelfRefreshDelay)-1U) << 4U)  |\
 1701              		.loc 1 1485 34 is_stmt 0 view .LVU621
 1702 0076 0B68     		ldr	r3, [r1]
1485:./Libraries/STM32F4xx_HAL_Driver/Src/stm32f4xx_ll_fmc.c ****                        (((Timing->ExitSelfRefreshDelay)-1U) << 4U)  |\
 1703              		.loc 1 1485 54 view .LVU622
 1704 0078 013B     		subs	r3, r3, #1
1486:./Libraries/STM32F4xx_HAL_Driver/Src/stm32f4xx_ll_fmc.c ****                        (((Timing->SelfRefreshTime)-1U) << 8U)       |\
 1705              		.loc 1 1486 56 view .LVU623
 1706 007a 4C68     		ldr	r4, [r1, #4]
 1707 007c 04F1FF3E 		add	lr, r4, #-1
1485:./Libraries/STM32F4xx_HAL_Driver/Src/stm32f4xx_ll_fmc.c ****                        (((Timing->ExitSelfRefreshDelay)-1U) << 4U)  |\
 1708              		.loc 1 1485 69 view .LVU624
 1709 0080 43EA0E13 		orr	r3, r3, lr, lsl #4
1487:./Libraries/STM32F4xx_HAL_Driver/Src/stm32f4xx_ll_fmc.c ****                        (((Timing->WriteRecoveryTime)-1U) <<16U)     |\
 1710              		.loc 1 1487 51 view .LVU625
 1711 0084 8C68     		ldr	r4, [r1, #8]
 1712 0086 04F1FF3E 		add	lr, r4, #-1
1486:./Libraries/STM32F4xx_HAL_Driver/Src/stm32f4xx_ll_fmc.c ****                        (((Timing->SelfRefreshTime)-1U) << 8U)       |\
 1713              		.loc 1 1486 69 view .LVU626
 1714 008a 43EA0E23 		orr	r3, r3, lr, lsl #8
1488:./Libraries/STM32F4xx_HAL_Driver/Src/stm32f4xx_ll_fmc.c ****                        (((Timing->RCDDelay)-1U) << 24U)));   
 1715              		.loc 1 1488 53 view .LVU627
 1716 008e 0C69     		ldr	r4, [r1, #16]
 1717 0090 04F1FF3E 		add	lr, r4, #-1
1487:./Libraries/STM32F4xx_HAL_Driver/Src/stm32f4xx_ll_fmc.c ****                        (((Timing->WriteRecoveryTime)-1U) <<16U)     |\
 1718              		.loc 1 1487 69 view .LVU628
 1719 0094 43EA0E43 		orr	r3, r3, lr, lsl #16
1489:./Libraries/STM32F4xx_HAL_Driver/Src/stm32f4xx_ll_fmc.c **** 
 1720              		.loc 1 1489 33 view .LVU629
 1721 0098 8969     		ldr	r1, [r1, #24]
 1722              	.LVL138:
1489:./Libraries/STM32F4xx_HAL_Driver/Src/stm32f4xx_ll_fmc.c **** 
 1723              		.loc 1 1489 44 view .LVU630
 1724 009a 0139     		subs	r1, r1, #1
1485:./Libraries/STM32F4xx_HAL_Driver/Src/stm32f4xx_ll_fmc.c ****                        (((Timing->ExitSelfRefreshDelay)-1U) << 4U)  |\
 1725              		.loc 1 1485 14 view .LVU631
 1726 009c 43EA0163 		orr	r3, r3, r1, lsl #24
1485:./Libraries/STM32F4xx_HAL_Driver/Src/stm32f4xx_ll_fmc.c ****                        (((Timing->ExitSelfRefreshDelay)-1U) << 4U)  |\
ARM GAS  /tmp/cczcFqK2.s 			page 60


 1727              		.loc 1 1485 11 view .LVU632
 1728 00a0 43EA0C03 		orr	r3, r3, ip
 1729              	.LVL139:
1491:./Libraries/STM32F4xx_HAL_Driver/Src/stm32f4xx_ll_fmc.c ****     Device->SDTR[FMC_SDRAM_BANK2] = tmpr2;
 1730              		.loc 1 1491 5 is_stmt 1 view .LVU633
1491:./Libraries/STM32F4xx_HAL_Driver/Src/stm32f4xx_ll_fmc.c ****     Device->SDTR[FMC_SDRAM_BANK2] = tmpr2;
 1731              		.loc 1 1491 35 is_stmt 0 view .LVU634
 1732 00a4 8260     		str	r2, [r0, #8]
1492:./Libraries/STM32F4xx_HAL_Driver/Src/stm32f4xx_ll_fmc.c ****   }
 1733              		.loc 1 1492 5 is_stmt 1 view .LVU635
1492:./Libraries/STM32F4xx_HAL_Driver/Src/stm32f4xx_ll_fmc.c ****   }
 1734              		.loc 1 1492 35 is_stmt 0 view .LVU636
 1735 00a6 C360     		str	r3, [r0, #12]
 1736 00a8 D1E7     		b	.L93
 1737              		.cfi_endproc
 1738              	.LFE145:
 1740              		.section	.text.FMC_SDRAM_DeInit,"ax",%progbits
 1741              		.align	1
 1742              		.global	FMC_SDRAM_DeInit
 1743              		.syntax unified
 1744              		.thumb
 1745              		.thumb_func
 1746              		.fpu fpv4-sp-d16
 1748              	FMC_SDRAM_DeInit:
 1749              	.LVL140:
 1750              	.LFB146:
1496:./Libraries/STM32F4xx_HAL_Driver/Src/stm32f4xx_ll_fmc.c **** 
1497:./Libraries/STM32F4xx_HAL_Driver/Src/stm32f4xx_ll_fmc.c **** /**
1498:./Libraries/STM32F4xx_HAL_Driver/Src/stm32f4xx_ll_fmc.c ****   * @brief  DeInitializes the FMC_SDRAM peripheral 
1499:./Libraries/STM32F4xx_HAL_Driver/Src/stm32f4xx_ll_fmc.c ****   * @param  Device Pointer to SDRAM device instance
1500:./Libraries/STM32F4xx_HAL_Driver/Src/stm32f4xx_ll_fmc.c ****   * @retval HAL status
1501:./Libraries/STM32F4xx_HAL_Driver/Src/stm32f4xx_ll_fmc.c ****   */
1502:./Libraries/STM32F4xx_HAL_Driver/Src/stm32f4xx_ll_fmc.c **** HAL_StatusTypeDef FMC_SDRAM_DeInit(FMC_SDRAM_TypeDef *Device, uint32_t Bank)
1503:./Libraries/STM32F4xx_HAL_Driver/Src/stm32f4xx_ll_fmc.c **** {
 1751              		.loc 1 1503 1 is_stmt 1 view -0
 1752              		.cfi_startproc
 1753              		@ args = 0, pretend = 0, frame = 0
 1754              		@ frame_needed = 0, uses_anonymous_args = 0
 1755              		@ link register save eliminated.
 1756              		.loc 1 1503 1 is_stmt 0 view .LVU638
 1757 0000 0346     		mov	r3, r0
1504:./Libraries/STM32F4xx_HAL_Driver/Src/stm32f4xx_ll_fmc.c ****   /* Check the parameters */
1505:./Libraries/STM32F4xx_HAL_Driver/Src/stm32f4xx_ll_fmc.c ****   assert_param(IS_FMC_SDRAM_DEVICE(Device));
 1758              		.loc 1 1505 3 is_stmt 1 view .LVU639
1506:./Libraries/STM32F4xx_HAL_Driver/Src/stm32f4xx_ll_fmc.c ****   assert_param(IS_FMC_SDRAM_BANK(Bank));
 1759              		.loc 1 1506 3 view .LVU640
1507:./Libraries/STM32F4xx_HAL_Driver/Src/stm32f4xx_ll_fmc.c ****   
1508:./Libraries/STM32F4xx_HAL_Driver/Src/stm32f4xx_ll_fmc.c ****   /* De-initialize the SDRAM device */
1509:./Libraries/STM32F4xx_HAL_Driver/Src/stm32f4xx_ll_fmc.c ****   Device->SDCR[Bank] = 0x000002D0U;
 1760              		.loc 1 1509 3 view .LVU641
 1761              		.loc 1 1509 22 is_stmt 0 view .LVU642
 1762 0002 4FF43472 		mov	r2, #720
 1763 0006 40F82120 		str	r2, [r0, r1, lsl #2]
1510:./Libraries/STM32F4xx_HAL_Driver/Src/stm32f4xx_ll_fmc.c ****   Device->SDTR[Bank] = 0x0FFFFFFFU;    
 1764              		.loc 1 1510 3 is_stmt 1 view .LVU643
 1765              		.loc 1 1510 22 is_stmt 0 view .LVU644
 1766 000a 0231     		adds	r1, r1, #2
ARM GAS  /tmp/cczcFqK2.s 			page 61


 1767              	.LVL141:
 1768              		.loc 1 1510 22 view .LVU645
 1769 000c 6FF07042 		mvn	r2, #-268435456
 1770 0010 40F82120 		str	r2, [r0, r1, lsl #2]
1511:./Libraries/STM32F4xx_HAL_Driver/Src/stm32f4xx_ll_fmc.c ****   Device->SDCMR      = 0x00000000U;
 1771              		.loc 1 1511 3 is_stmt 1 view .LVU646
 1772              		.loc 1 1511 22 is_stmt 0 view .LVU647
 1773 0014 0020     		movs	r0, #0
 1774              	.LVL142:
 1775              		.loc 1 1511 22 view .LVU648
 1776 0016 1861     		str	r0, [r3, #16]
1512:./Libraries/STM32F4xx_HAL_Driver/Src/stm32f4xx_ll_fmc.c ****   Device->SDRTR      = 0x00000000U;
 1777              		.loc 1 1512 3 is_stmt 1 view .LVU649
 1778              		.loc 1 1512 22 is_stmt 0 view .LVU650
 1779 0018 5861     		str	r0, [r3, #20]
1513:./Libraries/STM32F4xx_HAL_Driver/Src/stm32f4xx_ll_fmc.c ****   Device->SDSR       = 0x00000000U;
 1780              		.loc 1 1513 3 is_stmt 1 view .LVU651
 1781              		.loc 1 1513 22 is_stmt 0 view .LVU652
 1782 001a 9861     		str	r0, [r3, #24]
