ARM GAS  /tmp/ccqyivU0.s 			page 1


   1              		.cpu cortex-m4
   2              		.eabi_attribute 27, 1
   3              		.eabi_attribute 28, 1
   4              		.eabi_attribute 20, 1
   5              		.eabi_attribute 21, 1
   6              		.eabi_attribute 23, 3
   7              		.eabi_attribute 24, 1
   8              		.eabi_attribute 25, 1
   9              		.eabi_attribute 26, 1
  10              		.eabi_attribute 30, 1
  11              		.eabi_attribute 34, 1
  12              		.eabi_attribute 18, 4
  13              		.file	"stm32f4xx_hal_adc_ex.c"
  14              		.text
  15              	.Ltext0:
  16              		.cfi_sections	.debug_frame
  17              		.section	.text.ADC_MultiModeDMAError,"ax",%progbits
  18              		.align	1
  19              		.arch armv7e-m
  20              		.syntax unified
  21              		.thumb
  22              		.thumb_func
  23              		.fpu fpv4-sp-d16
  25              	ADC_MultiModeDMAError:
  26              	.LVL0:
  27              	.LFB140:
  28              		.file 1 "./Libraries/STM32F4xx_HAL_Driver/Src/stm32f4xx_hal_adc_ex.c"
   1:./Libraries/STM32F4xx_HAL_Driver/Src/stm32f4xx_hal_adc_ex.c **** /**
   2:./Libraries/STM32F4xx_HAL_Driver/Src/stm32f4xx_hal_adc_ex.c ****   ******************************************************************************
   3:./Libraries/STM32F4xx_HAL_Driver/Src/stm32f4xx_hal_adc_ex.c ****   * @file    stm32f4xx_hal_adc_ex.c
   4:./Libraries/STM32F4xx_HAL_Driver/Src/stm32f4xx_hal_adc_ex.c ****   * @author  MCD Application Team
   5:./Libraries/STM32F4xx_HAL_Driver/Src/stm32f4xx_hal_adc_ex.c ****   * @brief   This file provides firmware functions to manage the following 
   6:./Libraries/STM32F4xx_HAL_Driver/Src/stm32f4xx_hal_adc_ex.c ****   *          functionalities of the ADC extension peripheral:
   7:./Libraries/STM32F4xx_HAL_Driver/Src/stm32f4xx_hal_adc_ex.c ****   *           + Extended features functions
   8:./Libraries/STM32F4xx_HAL_Driver/Src/stm32f4xx_hal_adc_ex.c ****   *         
   9:./Libraries/STM32F4xx_HAL_Driver/Src/stm32f4xx_hal_adc_ex.c ****   @verbatim
  10:./Libraries/STM32F4xx_HAL_Driver/Src/stm32f4xx_hal_adc_ex.c ****   ==============================================================================
  11:./Libraries/STM32F4xx_HAL_Driver/Src/stm32f4xx_hal_adc_ex.c ****                     ##### How to use this driver #####
  12:./Libraries/STM32F4xx_HAL_Driver/Src/stm32f4xx_hal_adc_ex.c ****   ==============================================================================
  13:./Libraries/STM32F4xx_HAL_Driver/Src/stm32f4xx_hal_adc_ex.c ****     [..]
  14:./Libraries/STM32F4xx_HAL_Driver/Src/stm32f4xx_hal_adc_ex.c ****     (#)Initialize the ADC low level resources by implementing the HAL_ADC_MspInit():
  15:./Libraries/STM32F4xx_HAL_Driver/Src/stm32f4xx_hal_adc_ex.c ****        (##) Enable the ADC interface clock using __HAL_RCC_ADC_CLK_ENABLE()
  16:./Libraries/STM32F4xx_HAL_Driver/Src/stm32f4xx_hal_adc_ex.c ****        (##) ADC pins configuration
  17:./Libraries/STM32F4xx_HAL_Driver/Src/stm32f4xx_hal_adc_ex.c ****              (+++) Enable the clock for the ADC GPIOs using the following function:
  18:./Libraries/STM32F4xx_HAL_Driver/Src/stm32f4xx_hal_adc_ex.c ****                    __HAL_RCC_GPIOx_CLK_ENABLE()  
  19:./Libraries/STM32F4xx_HAL_Driver/Src/stm32f4xx_hal_adc_ex.c ****              (+++) Configure these ADC pins in analog mode using HAL_GPIO_Init() 
  20:./Libraries/STM32F4xx_HAL_Driver/Src/stm32f4xx_hal_adc_ex.c ****        (##) In case of using interrupts (e.g. HAL_ADC_Start_IT())
  21:./Libraries/STM32F4xx_HAL_Driver/Src/stm32f4xx_hal_adc_ex.c ****              (+++) Configure the ADC interrupt priority using HAL_NVIC_SetPriority()
  22:./Libraries/STM32F4xx_HAL_Driver/Src/stm32f4xx_hal_adc_ex.c ****              (+++) Enable the ADC IRQ handler using HAL_NVIC_EnableIRQ()
  23:./Libraries/STM32F4xx_HAL_Driver/Src/stm32f4xx_hal_adc_ex.c ****              (+++) In ADC IRQ handler, call HAL_ADC_IRQHandler()
  24:./Libraries/STM32F4xx_HAL_Driver/Src/stm32f4xx_hal_adc_ex.c ****       (##) In case of using DMA to control data transfer (e.g. HAL_ADC_Start_DMA())
  25:./Libraries/STM32F4xx_HAL_Driver/Src/stm32f4xx_hal_adc_ex.c ****              (+++) Enable the DMAx interface clock using __HAL_RCC_DMAx_CLK_ENABLE()
  26:./Libraries/STM32F4xx_HAL_Driver/Src/stm32f4xx_hal_adc_ex.c ****              (+++) Configure and enable two DMA streams stream for managing data
  27:./Libraries/STM32F4xx_HAL_Driver/Src/stm32f4xx_hal_adc_ex.c ****                  transfer from peripheral to memory (output stream)
  28:./Libraries/STM32F4xx_HAL_Driver/Src/stm32f4xx_hal_adc_ex.c ****              (+++) Associate the initialized DMA handle to the ADC DMA handle
  29:./Libraries/STM32F4xx_HAL_Driver/Src/stm32f4xx_hal_adc_ex.c ****                  using  __HAL_LINKDMA()
  30:./Libraries/STM32F4xx_HAL_Driver/Src/stm32f4xx_hal_adc_ex.c ****              (+++) Configure the priority and enable the NVIC for the transfer complete
ARM GAS  /tmp/ccqyivU0.s 			page 2


  31:./Libraries/STM32F4xx_HAL_Driver/Src/stm32f4xx_hal_adc_ex.c ****                  interrupt on the two DMA Streams. The output stream should have higher
  32:./Libraries/STM32F4xx_HAL_Driver/Src/stm32f4xx_hal_adc_ex.c ****                  priority than the input stream.
  33:./Libraries/STM32F4xx_HAL_Driver/Src/stm32f4xx_hal_adc_ex.c ****      (#) Configure the ADC Prescaler, conversion resolution and data alignment 
  34:./Libraries/STM32F4xx_HAL_Driver/Src/stm32f4xx_hal_adc_ex.c ****          using the HAL_ADC_Init() function. 
  35:./Libraries/STM32F4xx_HAL_Driver/Src/stm32f4xx_hal_adc_ex.c ****   
  36:./Libraries/STM32F4xx_HAL_Driver/Src/stm32f4xx_hal_adc_ex.c ****      (#) Configure the ADC Injected channels group features, use HAL_ADC_Init()
  37:./Libraries/STM32F4xx_HAL_Driver/Src/stm32f4xx_hal_adc_ex.c ****          and HAL_ADC_ConfigChannel() functions.
  38:./Libraries/STM32F4xx_HAL_Driver/Src/stm32f4xx_hal_adc_ex.c ****          
  39:./Libraries/STM32F4xx_HAL_Driver/Src/stm32f4xx_hal_adc_ex.c ****      (#) Three operation modes are available within this driver :     
  40:./Libraries/STM32F4xx_HAL_Driver/Src/stm32f4xx_hal_adc_ex.c ****   
  41:./Libraries/STM32F4xx_HAL_Driver/Src/stm32f4xx_hal_adc_ex.c ****      *** Polling mode IO operation ***
  42:./Libraries/STM32F4xx_HAL_Driver/Src/stm32f4xx_hal_adc_ex.c ****      =================================
  43:./Libraries/STM32F4xx_HAL_Driver/Src/stm32f4xx_hal_adc_ex.c ****      [..]    
  44:./Libraries/STM32F4xx_HAL_Driver/Src/stm32f4xx_hal_adc_ex.c ****        (+) Start the ADC peripheral using HAL_ADCEx_InjectedStart() 
  45:./Libraries/STM32F4xx_HAL_Driver/Src/stm32f4xx_hal_adc_ex.c ****        (+) Wait for end of conversion using HAL_ADC_PollForConversion(), at this stage
  46:./Libraries/STM32F4xx_HAL_Driver/Src/stm32f4xx_hal_adc_ex.c ****            user can specify the value of timeout according to his end application      
  47:./Libraries/STM32F4xx_HAL_Driver/Src/stm32f4xx_hal_adc_ex.c ****        (+) To read the ADC converted values, use the HAL_ADCEx_InjectedGetValue() function.
  48:./Libraries/STM32F4xx_HAL_Driver/Src/stm32f4xx_hal_adc_ex.c ****        (+) Stop the ADC peripheral using HAL_ADCEx_InjectedStop()
  49:./Libraries/STM32F4xx_HAL_Driver/Src/stm32f4xx_hal_adc_ex.c ****   
  50:./Libraries/STM32F4xx_HAL_Driver/Src/stm32f4xx_hal_adc_ex.c ****      *** Interrupt mode IO operation ***    
  51:./Libraries/STM32F4xx_HAL_Driver/Src/stm32f4xx_hal_adc_ex.c ****      ===================================
  52:./Libraries/STM32F4xx_HAL_Driver/Src/stm32f4xx_hal_adc_ex.c ****      [..]    
  53:./Libraries/STM32F4xx_HAL_Driver/Src/stm32f4xx_hal_adc_ex.c ****        (+) Start the ADC peripheral using HAL_ADCEx_InjectedStart_IT() 
  54:./Libraries/STM32F4xx_HAL_Driver/Src/stm32f4xx_hal_adc_ex.c ****        (+) Use HAL_ADC_IRQHandler() called under ADC_IRQHandler() Interrupt subroutine
  55:./Libraries/STM32F4xx_HAL_Driver/Src/stm32f4xx_hal_adc_ex.c ****        (+) At ADC end of conversion HAL_ADCEx_InjectedConvCpltCallback() function is executed and u
  56:./Libraries/STM32F4xx_HAL_Driver/Src/stm32f4xx_hal_adc_ex.c ****             add his own code by customization of function pointer HAL_ADCEx_InjectedConvCpltCallbac
  57:./Libraries/STM32F4xx_HAL_Driver/Src/stm32f4xx_hal_adc_ex.c ****        (+) In case of ADC Error, HAL_ADCEx_InjectedErrorCallback() function is executed and user ca
  58:./Libraries/STM32F4xx_HAL_Driver/Src/stm32f4xx_hal_adc_ex.c ****             add his own code by customization of function pointer HAL_ADCEx_InjectedErrorCallback
  59:./Libraries/STM32F4xx_HAL_Driver/Src/stm32f4xx_hal_adc_ex.c ****        (+) Stop the ADC peripheral using HAL_ADCEx_InjectedStop_IT()
  60:./Libraries/STM32F4xx_HAL_Driver/Src/stm32f4xx_hal_adc_ex.c ****        
  61:./Libraries/STM32F4xx_HAL_Driver/Src/stm32f4xx_hal_adc_ex.c ****             
  62:./Libraries/STM32F4xx_HAL_Driver/Src/stm32f4xx_hal_adc_ex.c ****      *** DMA mode IO operation ***    
  63:./Libraries/STM32F4xx_HAL_Driver/Src/stm32f4xx_hal_adc_ex.c ****      ==============================
  64:./Libraries/STM32F4xx_HAL_Driver/Src/stm32f4xx_hal_adc_ex.c ****      [..]    
  65:./Libraries/STM32F4xx_HAL_Driver/Src/stm32f4xx_hal_adc_ex.c ****        (+) Start the ADC peripheral using HAL_ADCEx_InjectedStart_DMA(), at this stage the user spe
  66:./Libraries/STM32F4xx_HAL_Driver/Src/stm32f4xx_hal_adc_ex.c ****            of data to be transferred at each end of conversion 
  67:./Libraries/STM32F4xx_HAL_Driver/Src/stm32f4xx_hal_adc_ex.c ****        (+) At The end of data transfer ba HAL_ADCEx_InjectedConvCpltCallback() function is executed
  68:./Libraries/STM32F4xx_HAL_Driver/Src/stm32f4xx_hal_adc_ex.c ****             add his own code by customization of function pointer HAL_ADCEx_InjectedConvCpltCallbac
  69:./Libraries/STM32F4xx_HAL_Driver/Src/stm32f4xx_hal_adc_ex.c ****        (+) In case of transfer Error, HAL_ADCEx_InjectedErrorCallback() function is executed and us
  70:./Libraries/STM32F4xx_HAL_Driver/Src/stm32f4xx_hal_adc_ex.c ****             add his own code by customization of function pointer HAL_ADCEx_InjectedErrorCallback
  71:./Libraries/STM32F4xx_HAL_Driver/Src/stm32f4xx_hal_adc_ex.c ****         (+) Stop the ADC peripheral using HAL_ADCEx_InjectedStop_DMA()
  72:./Libraries/STM32F4xx_HAL_Driver/Src/stm32f4xx_hal_adc_ex.c ****         
  73:./Libraries/STM32F4xx_HAL_Driver/Src/stm32f4xx_hal_adc_ex.c ****      *** Multi mode ADCs Regular channels configuration ***
  74:./Libraries/STM32F4xx_HAL_Driver/Src/stm32f4xx_hal_adc_ex.c ****      ======================================================
  75:./Libraries/STM32F4xx_HAL_Driver/Src/stm32f4xx_hal_adc_ex.c ****      [..]        
  76:./Libraries/STM32F4xx_HAL_Driver/Src/stm32f4xx_hal_adc_ex.c ****        (+) Select the Multi mode ADC regular channels features (dual or triple mode)  
  77:./Libraries/STM32F4xx_HAL_Driver/Src/stm32f4xx_hal_adc_ex.c ****           and configure the DMA mode using HAL_ADCEx_MultiModeConfigChannel() functions. 
  78:./Libraries/STM32F4xx_HAL_Driver/Src/stm32f4xx_hal_adc_ex.c ****        (+) Start the ADC peripheral using HAL_ADCEx_MultiModeStart_DMA(), at this stage the user sp
  79:./Libraries/STM32F4xx_HAL_Driver/Src/stm32f4xx_hal_adc_ex.c ****            of data to be transferred at each end of conversion           
  80:./Libraries/STM32F4xx_HAL_Driver/Src/stm32f4xx_hal_adc_ex.c ****        (+) Read the ADCs converted values using the HAL_ADCEx_MultiModeGetValue() function.
  81:./Libraries/STM32F4xx_HAL_Driver/Src/stm32f4xx_hal_adc_ex.c ****   
  82:./Libraries/STM32F4xx_HAL_Driver/Src/stm32f4xx_hal_adc_ex.c ****   
  83:./Libraries/STM32F4xx_HAL_Driver/Src/stm32f4xx_hal_adc_ex.c ****     @endverbatim
  84:./Libraries/STM32F4xx_HAL_Driver/Src/stm32f4xx_hal_adc_ex.c ****   ******************************************************************************
  85:./Libraries/STM32F4xx_HAL_Driver/Src/stm32f4xx_hal_adc_ex.c ****   * @attention
  86:./Libraries/STM32F4xx_HAL_Driver/Src/stm32f4xx_hal_adc_ex.c ****   *
  87:./Libraries/STM32F4xx_HAL_Driver/Src/stm32f4xx_hal_adc_ex.c ****   * <h2><center>&copy; COPYRIGHT(c) 2017 STMicroelectronics</center></h2>
ARM GAS  /tmp/ccqyivU0.s 			page 3


  88:./Libraries/STM32F4xx_HAL_Driver/Src/stm32f4xx_hal_adc_ex.c ****   *
  89:./Libraries/STM32F4xx_HAL_Driver/Src/stm32f4xx_hal_adc_ex.c ****   * Redistribution and use in source and binary forms, with or without modification,
  90:./Libraries/STM32F4xx_HAL_Driver/Src/stm32f4xx_hal_adc_ex.c ****   * are permitted provided that the following conditions are met:
  91:./Libraries/STM32F4xx_HAL_Driver/Src/stm32f4xx_hal_adc_ex.c ****   *   1. Redistributions of source code must retain the above copyright notice,
  92:./Libraries/STM32F4xx_HAL_Driver/Src/stm32f4xx_hal_adc_ex.c ****   *      this list of conditions and the following disclaimer.
  93:./Libraries/STM32F4xx_HAL_Driver/Src/stm32f4xx_hal_adc_ex.c ****   *   2. Redistributions in binary form must reproduce the above copyright notice,
  94:./Libraries/STM32F4xx_HAL_Driver/Src/stm32f4xx_hal_adc_ex.c ****   *      this list of conditions and the following disclaimer in the documentation
  95:./Libraries/STM32F4xx_HAL_Driver/Src/stm32f4xx_hal_adc_ex.c ****   *      and/or other materials provided with the distribution.
  96:./Libraries/STM32F4xx_HAL_Driver/Src/stm32f4xx_hal_adc_ex.c ****   *   3. Neither the name of STMicroelectronics nor the names of its contributors
  97:./Libraries/STM32F4xx_HAL_Driver/Src/stm32f4xx_hal_adc_ex.c ****   *      may be used to endorse or promote products derived from this software
  98:./Libraries/STM32F4xx_HAL_Driver/Src/stm32f4xx_hal_adc_ex.c ****   *      without specific prior written permission.
  99:./Libraries/STM32F4xx_HAL_Driver/Src/stm32f4xx_hal_adc_ex.c ****   *
 100:./Libraries/STM32F4xx_HAL_Driver/Src/stm32f4xx_hal_adc_ex.c ****   * THIS SOFTWARE IS PROVIDED BY THE COPYRIGHT HOLDERS AND CONTRIBUTORS "AS IS"
 101:./Libraries/STM32F4xx_HAL_Driver/Src/stm32f4xx_hal_adc_ex.c ****   * AND ANY EXPRESS OR IMPLIED WARRANTIES, INCLUDING, BUT NOT LIMITED TO, THE
 102:./Libraries/STM32F4xx_HAL_Driver/Src/stm32f4xx_hal_adc_ex.c ****   * IMPLIED WARRANTIES OF MERCHANTABILITY AND FITNESS FOR A PARTICULAR PURPOSE ARE
 103:./Libraries/STM32F4xx_HAL_Driver/Src/stm32f4xx_hal_adc_ex.c ****   * DISCLAIMED. IN NO EVENT SHALL THE COPYRIGHT HOLDER OR CONTRIBUTORS BE LIABLE
 104:./Libraries/STM32F4xx_HAL_Driver/Src/stm32f4xx_hal_adc_ex.c ****   * FOR ANY DIRECT, INDIRECT, INCIDENTAL, SPECIAL, EXEMPLARY, OR CONSEQUENTIAL
 105:./Libraries/STM32F4xx_HAL_Driver/Src/stm32f4xx_hal_adc_ex.c ****   * DAMAGES (INCLUDING, BUT NOT LIMITED TO, PROCUREMENT OF SUBSTITUTE GOODS OR
 106:./Libraries/STM32F4xx_HAL_Driver/Src/stm32f4xx_hal_adc_ex.c ****   * SERVICES; LOSS OF USE, DATA, OR PROFITS; OR BUSINESS INTERRUPTION) HOWEVER
 107:./Libraries/STM32F4xx_HAL_Driver/Src/stm32f4xx_hal_adc_ex.c ****   * CAUSED AND ON ANY THEORY OF LIABILITY, WHETHER IN CONTRACT, STRICT LIABILITY,
 108:./Libraries/STM32F4xx_HAL_Driver/Src/stm32f4xx_hal_adc_ex.c ****   * OR TORT (INCLUDING NEGLIGENCE OR OTHERWISE) ARISING IN ANY WAY OUT OF THE USE
 109:./Libraries/STM32F4xx_HAL_Driver/Src/stm32f4xx_hal_adc_ex.c ****   * OF THIS SOFTWARE, EVEN IF ADVISED OF THE POSSIBILITY OF SUCH DAMAGE.
 110:./Libraries/STM32F4xx_HAL_Driver/Src/stm32f4xx_hal_adc_ex.c ****   *
 111:./Libraries/STM32F4xx_HAL_Driver/Src/stm32f4xx_hal_adc_ex.c ****   ******************************************************************************
 112:./Libraries/STM32F4xx_HAL_Driver/Src/stm32f4xx_hal_adc_ex.c ****   */ 
 113:./Libraries/STM32F4xx_HAL_Driver/Src/stm32f4xx_hal_adc_ex.c **** 
 114:./Libraries/STM32F4xx_HAL_Driver/Src/stm32f4xx_hal_adc_ex.c **** /* Includes ------------------------------------------------------------------*/
 115:./Libraries/STM32F4xx_HAL_Driver/Src/stm32f4xx_hal_adc_ex.c **** #include "stm32f4xx_hal.h"
 116:./Libraries/STM32F4xx_HAL_Driver/Src/stm32f4xx_hal_adc_ex.c **** 
 117:./Libraries/STM32F4xx_HAL_Driver/Src/stm32f4xx_hal_adc_ex.c **** /** @addtogroup STM32F4xx_HAL_Driver
 118:./Libraries/STM32F4xx_HAL_Driver/Src/stm32f4xx_hal_adc_ex.c ****   * @{
 119:./Libraries/STM32F4xx_HAL_Driver/Src/stm32f4xx_hal_adc_ex.c ****   */
 120:./Libraries/STM32F4xx_HAL_Driver/Src/stm32f4xx_hal_adc_ex.c **** 
 121:./Libraries/STM32F4xx_HAL_Driver/Src/stm32f4xx_hal_adc_ex.c **** /** @defgroup ADCEx ADCEx
 122:./Libraries/STM32F4xx_HAL_Driver/Src/stm32f4xx_hal_adc_ex.c ****   * @brief ADC Extended driver modules
 123:./Libraries/STM32F4xx_HAL_Driver/Src/stm32f4xx_hal_adc_ex.c ****   * @{
 124:./Libraries/STM32F4xx_HAL_Driver/Src/stm32f4xx_hal_adc_ex.c ****   */ 
 125:./Libraries/STM32F4xx_HAL_Driver/Src/stm32f4xx_hal_adc_ex.c **** 
 126:./Libraries/STM32F4xx_HAL_Driver/Src/stm32f4xx_hal_adc_ex.c **** #ifdef HAL_ADC_MODULE_ENABLED
 127:./Libraries/STM32F4xx_HAL_Driver/Src/stm32f4xx_hal_adc_ex.c ****     
 128:./Libraries/STM32F4xx_HAL_Driver/Src/stm32f4xx_hal_adc_ex.c **** /* Private typedef -----------------------------------------------------------*/
 129:./Libraries/STM32F4xx_HAL_Driver/Src/stm32f4xx_hal_adc_ex.c **** /* Private define ------------------------------------------------------------*/ 
 130:./Libraries/STM32F4xx_HAL_Driver/Src/stm32f4xx_hal_adc_ex.c **** /* Private macro -------------------------------------------------------------*/
 131:./Libraries/STM32F4xx_HAL_Driver/Src/stm32f4xx_hal_adc_ex.c **** /* Private variables ---------------------------------------------------------*/
 132:./Libraries/STM32F4xx_HAL_Driver/Src/stm32f4xx_hal_adc_ex.c **** /** @addtogroup ADCEx_Private_Functions
 133:./Libraries/STM32F4xx_HAL_Driver/Src/stm32f4xx_hal_adc_ex.c ****   * @{
 134:./Libraries/STM32F4xx_HAL_Driver/Src/stm32f4xx_hal_adc_ex.c ****   */
 135:./Libraries/STM32F4xx_HAL_Driver/Src/stm32f4xx_hal_adc_ex.c **** /* Private function prototypes -----------------------------------------------*/
 136:./Libraries/STM32F4xx_HAL_Driver/Src/stm32f4xx_hal_adc_ex.c **** static void ADC_MultiModeDMAConvCplt(DMA_HandleTypeDef *hdma);
 137:./Libraries/STM32F4xx_HAL_Driver/Src/stm32f4xx_hal_adc_ex.c **** static void ADC_MultiModeDMAError(DMA_HandleTypeDef *hdma);
 138:./Libraries/STM32F4xx_HAL_Driver/Src/stm32f4xx_hal_adc_ex.c **** static void ADC_MultiModeDMAHalfConvCplt(DMA_HandleTypeDef *hdma); 
 139:./Libraries/STM32F4xx_HAL_Driver/Src/stm32f4xx_hal_adc_ex.c **** /**
 140:./Libraries/STM32F4xx_HAL_Driver/Src/stm32f4xx_hal_adc_ex.c ****   * @}
 141:./Libraries/STM32F4xx_HAL_Driver/Src/stm32f4xx_hal_adc_ex.c ****   */
 142:./Libraries/STM32F4xx_HAL_Driver/Src/stm32f4xx_hal_adc_ex.c **** 
 143:./Libraries/STM32F4xx_HAL_Driver/Src/stm32f4xx_hal_adc_ex.c **** /* Exported functions --------------------------------------------------------*/
 144:./Libraries/STM32F4xx_HAL_Driver/Src/stm32f4xx_hal_adc_ex.c **** /** @defgroup ADCEx_Exported_Functions ADC Exported Functions
ARM GAS  /tmp/ccqyivU0.s 			page 4


 145:./Libraries/STM32F4xx_HAL_Driver/Src/stm32f4xx_hal_adc_ex.c ****   * @{
 146:./Libraries/STM32F4xx_HAL_Driver/Src/stm32f4xx_hal_adc_ex.c ****   */
 147:./Libraries/STM32F4xx_HAL_Driver/Src/stm32f4xx_hal_adc_ex.c **** 
 148:./Libraries/STM32F4xx_HAL_Driver/Src/stm32f4xx_hal_adc_ex.c **** /** @defgroup ADCEx_Exported_Functions_Group1  Extended features functions 
 149:./Libraries/STM32F4xx_HAL_Driver/Src/stm32f4xx_hal_adc_ex.c ****   *  @brief    Extended features functions  
 150:./Libraries/STM32F4xx_HAL_Driver/Src/stm32f4xx_hal_adc_ex.c ****   *
 151:./Libraries/STM32F4xx_HAL_Driver/Src/stm32f4xx_hal_adc_ex.c **** @verbatim   
 152:./Libraries/STM32F4xx_HAL_Driver/Src/stm32f4xx_hal_adc_ex.c ****  ===============================================================================
 153:./Libraries/STM32F4xx_HAL_Driver/Src/stm32f4xx_hal_adc_ex.c ****                  ##### Extended features functions #####
 154:./Libraries/STM32F4xx_HAL_Driver/Src/stm32f4xx_hal_adc_ex.c ****  ===============================================================================  
 155:./Libraries/STM32F4xx_HAL_Driver/Src/stm32f4xx_hal_adc_ex.c ****     [..]  This section provides functions allowing to:
 156:./Libraries/STM32F4xx_HAL_Driver/Src/stm32f4xx_hal_adc_ex.c ****       (+) Start conversion of injected channel.
 157:./Libraries/STM32F4xx_HAL_Driver/Src/stm32f4xx_hal_adc_ex.c ****       (+) Stop conversion of injected channel.
 158:./Libraries/STM32F4xx_HAL_Driver/Src/stm32f4xx_hal_adc_ex.c ****       (+) Start multimode and enable DMA transfer.
 159:./Libraries/STM32F4xx_HAL_Driver/Src/stm32f4xx_hal_adc_ex.c ****       (+) Stop multimode and disable DMA transfer.
 160:./Libraries/STM32F4xx_HAL_Driver/Src/stm32f4xx_hal_adc_ex.c ****       (+) Get result of injected channel conversion.
 161:./Libraries/STM32F4xx_HAL_Driver/Src/stm32f4xx_hal_adc_ex.c ****       (+) Get result of multimode conversion.
 162:./Libraries/STM32F4xx_HAL_Driver/Src/stm32f4xx_hal_adc_ex.c ****       (+) Configure injected channels.
 163:./Libraries/STM32F4xx_HAL_Driver/Src/stm32f4xx_hal_adc_ex.c ****       (+) Configure multimode.
 164:./Libraries/STM32F4xx_HAL_Driver/Src/stm32f4xx_hal_adc_ex.c ****                
 165:./Libraries/STM32F4xx_HAL_Driver/Src/stm32f4xx_hal_adc_ex.c **** @endverbatim
 166:./Libraries/STM32F4xx_HAL_Driver/Src/stm32f4xx_hal_adc_ex.c ****   * @{
 167:./Libraries/STM32F4xx_HAL_Driver/Src/stm32f4xx_hal_adc_ex.c ****   */
 168:./Libraries/STM32F4xx_HAL_Driver/Src/stm32f4xx_hal_adc_ex.c **** 
 169:./Libraries/STM32F4xx_HAL_Driver/Src/stm32f4xx_hal_adc_ex.c **** /**
 170:./Libraries/STM32F4xx_HAL_Driver/Src/stm32f4xx_hal_adc_ex.c ****   * @brief  Enables the selected ADC software start conversion of the injected channels.
 171:./Libraries/STM32F4xx_HAL_Driver/Src/stm32f4xx_hal_adc_ex.c ****   * @param  hadc pointer to a ADC_HandleTypeDef structure that contains
 172:./Libraries/STM32F4xx_HAL_Driver/Src/stm32f4xx_hal_adc_ex.c ****   *         the configuration information for the specified ADC.
 173:./Libraries/STM32F4xx_HAL_Driver/Src/stm32f4xx_hal_adc_ex.c ****   * @retval HAL status
 174:./Libraries/STM32F4xx_HAL_Driver/Src/stm32f4xx_hal_adc_ex.c ****   */
 175:./Libraries/STM32F4xx_HAL_Driver/Src/stm32f4xx_hal_adc_ex.c **** HAL_StatusTypeDef HAL_ADCEx_InjectedStart(ADC_HandleTypeDef* hadc)
 176:./Libraries/STM32F4xx_HAL_Driver/Src/stm32f4xx_hal_adc_ex.c **** {
 177:./Libraries/STM32F4xx_HAL_Driver/Src/stm32f4xx_hal_adc_ex.c ****   __IO uint32_t counter = 0U;
 178:./Libraries/STM32F4xx_HAL_Driver/Src/stm32f4xx_hal_adc_ex.c ****   uint32_t tmp1 = 0U, tmp2 = 0U;
 179:./Libraries/STM32F4xx_HAL_Driver/Src/stm32f4xx_hal_adc_ex.c ****   ADC_Common_TypeDef *tmpADC_Common;
 180:./Libraries/STM32F4xx_HAL_Driver/Src/stm32f4xx_hal_adc_ex.c ****   
 181:./Libraries/STM32F4xx_HAL_Driver/Src/stm32f4xx_hal_adc_ex.c ****   /* Process locked */
 182:./Libraries/STM32F4xx_HAL_Driver/Src/stm32f4xx_hal_adc_ex.c ****   __HAL_LOCK(hadc);
 183:./Libraries/STM32F4xx_HAL_Driver/Src/stm32f4xx_hal_adc_ex.c ****   
 184:./Libraries/STM32F4xx_HAL_Driver/Src/stm32f4xx_hal_adc_ex.c ****   /* Enable the ADC peripheral */
 185:./Libraries/STM32F4xx_HAL_Driver/Src/stm32f4xx_hal_adc_ex.c ****   
 186:./Libraries/STM32F4xx_HAL_Driver/Src/stm32f4xx_hal_adc_ex.c ****   /* Check if ADC peripheral is disabled in order to enable it and wait during 
 187:./Libraries/STM32F4xx_HAL_Driver/Src/stm32f4xx_hal_adc_ex.c ****      Tstab time the ADC's stabilization */
 188:./Libraries/STM32F4xx_HAL_Driver/Src/stm32f4xx_hal_adc_ex.c ****   if((hadc->Instance->CR2 & ADC_CR2_ADON) != ADC_CR2_ADON)
 189:./Libraries/STM32F4xx_HAL_Driver/Src/stm32f4xx_hal_adc_ex.c ****   {  
 190:./Libraries/STM32F4xx_HAL_Driver/Src/stm32f4xx_hal_adc_ex.c ****     /* Enable the Peripheral */
 191:./Libraries/STM32F4xx_HAL_Driver/Src/stm32f4xx_hal_adc_ex.c ****     __HAL_ADC_ENABLE(hadc);
 192:./Libraries/STM32F4xx_HAL_Driver/Src/stm32f4xx_hal_adc_ex.c ****     
 193:./Libraries/STM32F4xx_HAL_Driver/Src/stm32f4xx_hal_adc_ex.c ****     /* Delay for ADC stabilization time */
 194:./Libraries/STM32F4xx_HAL_Driver/Src/stm32f4xx_hal_adc_ex.c ****     /* Compute number of CPU cycles to wait for */
 195:./Libraries/STM32F4xx_HAL_Driver/Src/stm32f4xx_hal_adc_ex.c ****     counter = (ADC_STAB_DELAY_US * (SystemCoreClock / 1000000U));
 196:./Libraries/STM32F4xx_HAL_Driver/Src/stm32f4xx_hal_adc_ex.c ****     while(counter != 0U)
 197:./Libraries/STM32F4xx_HAL_Driver/Src/stm32f4xx_hal_adc_ex.c ****     {
 198:./Libraries/STM32F4xx_HAL_Driver/Src/stm32f4xx_hal_adc_ex.c ****       counter--;
 199:./Libraries/STM32F4xx_HAL_Driver/Src/stm32f4xx_hal_adc_ex.c ****     }
 200:./Libraries/STM32F4xx_HAL_Driver/Src/stm32f4xx_hal_adc_ex.c ****   }
 201:./Libraries/STM32F4xx_HAL_Driver/Src/stm32f4xx_hal_adc_ex.c ****   
ARM GAS  /tmp/ccqyivU0.s 			page 5


 202:./Libraries/STM32F4xx_HAL_Driver/Src/stm32f4xx_hal_adc_ex.c ****   /* Start conversion if ADC is effectively enabled */
 203:./Libraries/STM32F4xx_HAL_Driver/Src/stm32f4xx_hal_adc_ex.c ****   if(HAL_IS_BIT_SET(hadc->Instance->CR2, ADC_CR2_ADON))
 204:./Libraries/STM32F4xx_HAL_Driver/Src/stm32f4xx_hal_adc_ex.c ****   {
 205:./Libraries/STM32F4xx_HAL_Driver/Src/stm32f4xx_hal_adc_ex.c ****     /* Set ADC state                                                          */
 206:./Libraries/STM32F4xx_HAL_Driver/Src/stm32f4xx_hal_adc_ex.c ****     /* - Clear state bitfield related to injected group conversion results    */
 207:./Libraries/STM32F4xx_HAL_Driver/Src/stm32f4xx_hal_adc_ex.c ****     /* - Set state bitfield related to injected operation                     */
 208:./Libraries/STM32F4xx_HAL_Driver/Src/stm32f4xx_hal_adc_ex.c ****     ADC_STATE_CLR_SET(hadc->State,
 209:./Libraries/STM32F4xx_HAL_Driver/Src/stm32f4xx_hal_adc_ex.c ****                       HAL_ADC_STATE_READY | HAL_ADC_STATE_INJ_EOC,
 210:./Libraries/STM32F4xx_HAL_Driver/Src/stm32f4xx_hal_adc_ex.c ****                       HAL_ADC_STATE_INJ_BUSY);
 211:./Libraries/STM32F4xx_HAL_Driver/Src/stm32f4xx_hal_adc_ex.c ****     
 212:./Libraries/STM32F4xx_HAL_Driver/Src/stm32f4xx_hal_adc_ex.c ****     /* Check if a regular conversion is ongoing */
 213:./Libraries/STM32F4xx_HAL_Driver/Src/stm32f4xx_hal_adc_ex.c ****     /* Note: On this device, there is no ADC error code fields related to     */
 214:./Libraries/STM32F4xx_HAL_Driver/Src/stm32f4xx_hal_adc_ex.c ****     /*       conversions on group injected only. In case of conversion on     */
 215:./Libraries/STM32F4xx_HAL_Driver/Src/stm32f4xx_hal_adc_ex.c ****     /*       going on group regular, no error code is reset.                  */
 216:./Libraries/STM32F4xx_HAL_Driver/Src/stm32f4xx_hal_adc_ex.c ****     if (HAL_IS_BIT_CLR(hadc->State, HAL_ADC_STATE_REG_BUSY))
 217:./Libraries/STM32F4xx_HAL_Driver/Src/stm32f4xx_hal_adc_ex.c ****     {
 218:./Libraries/STM32F4xx_HAL_Driver/Src/stm32f4xx_hal_adc_ex.c ****       /* Reset ADC all error code fields */
 219:./Libraries/STM32F4xx_HAL_Driver/Src/stm32f4xx_hal_adc_ex.c ****       ADC_CLEAR_ERRORCODE(hadc);
 220:./Libraries/STM32F4xx_HAL_Driver/Src/stm32f4xx_hal_adc_ex.c ****     }
 221:./Libraries/STM32F4xx_HAL_Driver/Src/stm32f4xx_hal_adc_ex.c ****     
 222:./Libraries/STM32F4xx_HAL_Driver/Src/stm32f4xx_hal_adc_ex.c ****     /* Process unlocked */
 223:./Libraries/STM32F4xx_HAL_Driver/Src/stm32f4xx_hal_adc_ex.c ****     /* Unlock before starting ADC conversions: in case of potential           */
 224:./Libraries/STM32F4xx_HAL_Driver/Src/stm32f4xx_hal_adc_ex.c ****     /* interruption, to let the process to ADC IRQ Handler.                   */
 225:./Libraries/STM32F4xx_HAL_Driver/Src/stm32f4xx_hal_adc_ex.c ****     __HAL_UNLOCK(hadc);
 226:./Libraries/STM32F4xx_HAL_Driver/Src/stm32f4xx_hal_adc_ex.c ****     
 227:./Libraries/STM32F4xx_HAL_Driver/Src/stm32f4xx_hal_adc_ex.c ****     /* Clear injected group conversion flag */
 228:./Libraries/STM32F4xx_HAL_Driver/Src/stm32f4xx_hal_adc_ex.c ****     /* (To ensure of no unknown state from potential previous ADC operations) */
 229:./Libraries/STM32F4xx_HAL_Driver/Src/stm32f4xx_hal_adc_ex.c ****     __HAL_ADC_CLEAR_FLAG(hadc, ADC_FLAG_JEOC);
 230:./Libraries/STM32F4xx_HAL_Driver/Src/stm32f4xx_hal_adc_ex.c **** 
 231:./Libraries/STM32F4xx_HAL_Driver/Src/stm32f4xx_hal_adc_ex.c ****     /* Pointer to the common control register to which is belonging hadc    */
 232:./Libraries/STM32F4xx_HAL_Driver/Src/stm32f4xx_hal_adc_ex.c ****     /* (Depending on STM32F4 product, there may be up to 3 ADC and 1 common */
 233:./Libraries/STM32F4xx_HAL_Driver/Src/stm32f4xx_hal_adc_ex.c ****     /* control register)                                                    */
 234:./Libraries/STM32F4xx_HAL_Driver/Src/stm32f4xx_hal_adc_ex.c ****     tmpADC_Common = ADC_COMMON_REGISTER(hadc);
 235:./Libraries/STM32F4xx_HAL_Driver/Src/stm32f4xx_hal_adc_ex.c **** 
 236:./Libraries/STM32F4xx_HAL_Driver/Src/stm32f4xx_hal_adc_ex.c ****     /* Check if Multimode enabled */
 237:./Libraries/STM32F4xx_HAL_Driver/Src/stm32f4xx_hal_adc_ex.c ****     if(HAL_IS_BIT_CLR(tmpADC_Common->CCR, ADC_CCR_MULTI))
 238:./Libraries/STM32F4xx_HAL_Driver/Src/stm32f4xx_hal_adc_ex.c ****     {
 239:./Libraries/STM32F4xx_HAL_Driver/Src/stm32f4xx_hal_adc_ex.c ****       tmp1 = HAL_IS_BIT_CLR(hadc->Instance->CR2, ADC_CR2_JEXTEN);
 240:./Libraries/STM32F4xx_HAL_Driver/Src/stm32f4xx_hal_adc_ex.c ****       tmp2 = HAL_IS_BIT_CLR(hadc->Instance->CR1, ADC_CR1_JAUTO);
 241:./Libraries/STM32F4xx_HAL_Driver/Src/stm32f4xx_hal_adc_ex.c ****       if(tmp1 && tmp2)
 242:./Libraries/STM32F4xx_HAL_Driver/Src/stm32f4xx_hal_adc_ex.c ****       {
 243:./Libraries/STM32F4xx_HAL_Driver/Src/stm32f4xx_hal_adc_ex.c ****         /* Enable the selected ADC software conversion for injected group */
 244:./Libraries/STM32F4xx_HAL_Driver/Src/stm32f4xx_hal_adc_ex.c ****         hadc->Instance->CR2 |= ADC_CR2_JSWSTART;
 245:./Libraries/STM32F4xx_HAL_Driver/Src/stm32f4xx_hal_adc_ex.c ****       }
 246:./Libraries/STM32F4xx_HAL_Driver/Src/stm32f4xx_hal_adc_ex.c ****     }
 247:./Libraries/STM32F4xx_HAL_Driver/Src/stm32f4xx_hal_adc_ex.c ****     else
 248:./Libraries/STM32F4xx_HAL_Driver/Src/stm32f4xx_hal_adc_ex.c ****     {
 249:./Libraries/STM32F4xx_HAL_Driver/Src/stm32f4xx_hal_adc_ex.c ****       tmp1 = HAL_IS_BIT_CLR(hadc->Instance->CR2, ADC_CR2_JEXTEN);
 250:./Libraries/STM32F4xx_HAL_Driver/Src/stm32f4xx_hal_adc_ex.c ****       tmp2 = HAL_IS_BIT_CLR(hadc->Instance->CR1, ADC_CR1_JAUTO);
 251:./Libraries/STM32F4xx_HAL_Driver/Src/stm32f4xx_hal_adc_ex.c ****       if((hadc->Instance == ADC1) && tmp1 && tmp2)  
 252:./Libraries/STM32F4xx_HAL_Driver/Src/stm32f4xx_hal_adc_ex.c ****       {
 253:./Libraries/STM32F4xx_HAL_Driver/Src/stm32f4xx_hal_adc_ex.c ****         /* Enable the selected ADC software conversion for injected group */
 254:./Libraries/STM32F4xx_HAL_Driver/Src/stm32f4xx_hal_adc_ex.c ****         hadc->Instance->CR2 |= ADC_CR2_JSWSTART;
 255:./Libraries/STM32F4xx_HAL_Driver/Src/stm32f4xx_hal_adc_ex.c ****       }
 256:./Libraries/STM32F4xx_HAL_Driver/Src/stm32f4xx_hal_adc_ex.c ****     }
 257:./Libraries/STM32F4xx_HAL_Driver/Src/stm32f4xx_hal_adc_ex.c ****   }
 258:./Libraries/STM32F4xx_HAL_Driver/Src/stm32f4xx_hal_adc_ex.c ****   
ARM GAS  /tmp/ccqyivU0.s 			page 6


 259:./Libraries/STM32F4xx_HAL_Driver/Src/stm32f4xx_hal_adc_ex.c ****   /* Return function status */
 260:./Libraries/STM32F4xx_HAL_Driver/Src/stm32f4xx_hal_adc_ex.c ****   return HAL_OK;
 261:./Libraries/STM32F4xx_HAL_Driver/Src/stm32f4xx_hal_adc_ex.c **** }
 262:./Libraries/STM32F4xx_HAL_Driver/Src/stm32f4xx_hal_adc_ex.c **** 
 263:./Libraries/STM32F4xx_HAL_Driver/Src/stm32f4xx_hal_adc_ex.c **** /**
 264:./Libraries/STM32F4xx_HAL_Driver/Src/stm32f4xx_hal_adc_ex.c ****   * @brief  Enables the interrupt and starts ADC conversion of injected channels.
 265:./Libraries/STM32F4xx_HAL_Driver/Src/stm32f4xx_hal_adc_ex.c ****   * @param  hadc pointer to a ADC_HandleTypeDef structure that contains
 266:./Libraries/STM32F4xx_HAL_Driver/Src/stm32f4xx_hal_adc_ex.c ****   *         the configuration information for the specified ADC.
 267:./Libraries/STM32F4xx_HAL_Driver/Src/stm32f4xx_hal_adc_ex.c ****   *
 268:./Libraries/STM32F4xx_HAL_Driver/Src/stm32f4xx_hal_adc_ex.c ****   * @retval HAL status.
 269:./Libraries/STM32F4xx_HAL_Driver/Src/stm32f4xx_hal_adc_ex.c ****   */
 270:./Libraries/STM32F4xx_HAL_Driver/Src/stm32f4xx_hal_adc_ex.c **** HAL_StatusTypeDef HAL_ADCEx_InjectedStart_IT(ADC_HandleTypeDef* hadc)
 271:./Libraries/STM32F4xx_HAL_Driver/Src/stm32f4xx_hal_adc_ex.c **** {
 272:./Libraries/STM32F4xx_HAL_Driver/Src/stm32f4xx_hal_adc_ex.c ****   __IO uint32_t counter = 0U;
 273:./Libraries/STM32F4xx_HAL_Driver/Src/stm32f4xx_hal_adc_ex.c ****   uint32_t tmp1 = 0U, tmp2 = 0U;
 274:./Libraries/STM32F4xx_HAL_Driver/Src/stm32f4xx_hal_adc_ex.c ****   ADC_Common_TypeDef *tmpADC_Common;
 275:./Libraries/STM32F4xx_HAL_Driver/Src/stm32f4xx_hal_adc_ex.c ****   
 276:./Libraries/STM32F4xx_HAL_Driver/Src/stm32f4xx_hal_adc_ex.c ****   /* Process locked */
 277:./Libraries/STM32F4xx_HAL_Driver/Src/stm32f4xx_hal_adc_ex.c ****   __HAL_LOCK(hadc);
 278:./Libraries/STM32F4xx_HAL_Driver/Src/stm32f4xx_hal_adc_ex.c ****   
 279:./Libraries/STM32F4xx_HAL_Driver/Src/stm32f4xx_hal_adc_ex.c ****   /* Enable the ADC peripheral */
 280:./Libraries/STM32F4xx_HAL_Driver/Src/stm32f4xx_hal_adc_ex.c ****   
 281:./Libraries/STM32F4xx_HAL_Driver/Src/stm32f4xx_hal_adc_ex.c ****   /* Check if ADC peripheral is disabled in order to enable it and wait during 
 282:./Libraries/STM32F4xx_HAL_Driver/Src/stm32f4xx_hal_adc_ex.c ****      Tstab time the ADC's stabilization */
 283:./Libraries/STM32F4xx_HAL_Driver/Src/stm32f4xx_hal_adc_ex.c ****   if((hadc->Instance->CR2 & ADC_CR2_ADON) != ADC_CR2_ADON)
 284:./Libraries/STM32F4xx_HAL_Driver/Src/stm32f4xx_hal_adc_ex.c ****   {  
 285:./Libraries/STM32F4xx_HAL_Driver/Src/stm32f4xx_hal_adc_ex.c ****     /* Enable the Peripheral */
 286:./Libraries/STM32F4xx_HAL_Driver/Src/stm32f4xx_hal_adc_ex.c ****     __HAL_ADC_ENABLE(hadc);
 287:./Libraries/STM32F4xx_HAL_Driver/Src/stm32f4xx_hal_adc_ex.c ****     
 288:./Libraries/STM32F4xx_HAL_Driver/Src/stm32f4xx_hal_adc_ex.c ****     /* Delay for ADC stabilization time */
 289:./Libraries/STM32F4xx_HAL_Driver/Src/stm32f4xx_hal_adc_ex.c ****     /* Compute number of CPU cycles to wait for */
 290:./Libraries/STM32F4xx_HAL_Driver/Src/stm32f4xx_hal_adc_ex.c ****     counter = (ADC_STAB_DELAY_US * (SystemCoreClock / 1000000U));
 291:./Libraries/STM32F4xx_HAL_Driver/Src/stm32f4xx_hal_adc_ex.c ****     while(counter != 0U)
 292:./Libraries/STM32F4xx_HAL_Driver/Src/stm32f4xx_hal_adc_ex.c ****     {
 293:./Libraries/STM32F4xx_HAL_Driver/Src/stm32f4xx_hal_adc_ex.c ****       counter--;
 294:./Libraries/STM32F4xx_HAL_Driver/Src/stm32f4xx_hal_adc_ex.c ****     }
 295:./Libraries/STM32F4xx_HAL_Driver/Src/stm32f4xx_hal_adc_ex.c ****   }
 296:./Libraries/STM32F4xx_HAL_Driver/Src/stm32f4xx_hal_adc_ex.c ****   
 297:./Libraries/STM32F4xx_HAL_Driver/Src/stm32f4xx_hal_adc_ex.c ****   /* Start conversion if ADC is effectively enabled */
 298:./Libraries/STM32F4xx_HAL_Driver/Src/stm32f4xx_hal_adc_ex.c ****   if(HAL_IS_BIT_SET(hadc->Instance->CR2, ADC_CR2_ADON))
 299:./Libraries/STM32F4xx_HAL_Driver/Src/stm32f4xx_hal_adc_ex.c ****   {
 300:./Libraries/STM32F4xx_HAL_Driver/Src/stm32f4xx_hal_adc_ex.c ****     /* Set ADC state                                                          */
 301:./Libraries/STM32F4xx_HAL_Driver/Src/stm32f4xx_hal_adc_ex.c ****     /* - Clear state bitfield related to injected group conversion results    */
 302:./Libraries/STM32F4xx_HAL_Driver/Src/stm32f4xx_hal_adc_ex.c ****     /* - Set state bitfield related to injected operation                     */
 303:./Libraries/STM32F4xx_HAL_Driver/Src/stm32f4xx_hal_adc_ex.c ****     ADC_STATE_CLR_SET(hadc->State,
 304:./Libraries/STM32F4xx_HAL_Driver/Src/stm32f4xx_hal_adc_ex.c ****                       HAL_ADC_STATE_READY | HAL_ADC_STATE_INJ_EOC,
 305:./Libraries/STM32F4xx_HAL_Driver/Src/stm32f4xx_hal_adc_ex.c ****                       HAL_ADC_STATE_INJ_BUSY);
 306:./Libraries/STM32F4xx_HAL_Driver/Src/stm32f4xx_hal_adc_ex.c ****     
 307:./Libraries/STM32F4xx_HAL_Driver/Src/stm32f4xx_hal_adc_ex.c ****     /* Check if a regular conversion is ongoing */
 308:./Libraries/STM32F4xx_HAL_Driver/Src/stm32f4xx_hal_adc_ex.c ****     /* Note: On this device, there is no ADC error code fields related to     */
 309:./Libraries/STM32F4xx_HAL_Driver/Src/stm32f4xx_hal_adc_ex.c ****     /*       conversions on group injected only. In case of conversion on     */
 310:./Libraries/STM32F4xx_HAL_Driver/Src/stm32f4xx_hal_adc_ex.c ****     /*       going on group regular, no error code is reset.                  */
 311:./Libraries/STM32F4xx_HAL_Driver/Src/stm32f4xx_hal_adc_ex.c ****     if (HAL_IS_BIT_CLR(hadc->State, HAL_ADC_STATE_REG_BUSY))
 312:./Libraries/STM32F4xx_HAL_Driver/Src/stm32f4xx_hal_adc_ex.c ****     {
 313:./Libraries/STM32F4xx_HAL_Driver/Src/stm32f4xx_hal_adc_ex.c ****       /* Reset ADC all error code fields */
 314:./Libraries/STM32F4xx_HAL_Driver/Src/stm32f4xx_hal_adc_ex.c ****       ADC_CLEAR_ERRORCODE(hadc);
 315:./Libraries/STM32F4xx_HAL_Driver/Src/stm32f4xx_hal_adc_ex.c ****     }
ARM GAS  /tmp/ccqyivU0.s 			page 7


 316:./Libraries/STM32F4xx_HAL_Driver/Src/stm32f4xx_hal_adc_ex.c ****     
 317:./Libraries/STM32F4xx_HAL_Driver/Src/stm32f4xx_hal_adc_ex.c ****     /* Process unlocked */
 318:./Libraries/STM32F4xx_HAL_Driver/Src/stm32f4xx_hal_adc_ex.c ****     /* Unlock before starting ADC conversions: in case of potential           */
 319:./Libraries/STM32F4xx_HAL_Driver/Src/stm32f4xx_hal_adc_ex.c ****     /* interruption, to let the process to ADC IRQ Handler.                   */
 320:./Libraries/STM32F4xx_HAL_Driver/Src/stm32f4xx_hal_adc_ex.c ****     __HAL_UNLOCK(hadc);
 321:./Libraries/STM32F4xx_HAL_Driver/Src/stm32f4xx_hal_adc_ex.c ****     
 322:./Libraries/STM32F4xx_HAL_Driver/Src/stm32f4xx_hal_adc_ex.c ****     /* Clear injected group conversion flag */
 323:./Libraries/STM32F4xx_HAL_Driver/Src/stm32f4xx_hal_adc_ex.c ****     /* (To ensure of no unknown state from potential previous ADC operations) */
 324:./Libraries/STM32F4xx_HAL_Driver/Src/stm32f4xx_hal_adc_ex.c ****     __HAL_ADC_CLEAR_FLAG(hadc, ADC_FLAG_JEOC);
 325:./Libraries/STM32F4xx_HAL_Driver/Src/stm32f4xx_hal_adc_ex.c ****     
 326:./Libraries/STM32F4xx_HAL_Driver/Src/stm32f4xx_hal_adc_ex.c ****     /* Enable end of conversion interrupt for injected channels */
 327:./Libraries/STM32F4xx_HAL_Driver/Src/stm32f4xx_hal_adc_ex.c ****     __HAL_ADC_ENABLE_IT(hadc, ADC_IT_JEOC);
 328:./Libraries/STM32F4xx_HAL_Driver/Src/stm32f4xx_hal_adc_ex.c **** 
 329:./Libraries/STM32F4xx_HAL_Driver/Src/stm32f4xx_hal_adc_ex.c ****     /* Pointer to the common control register to which is belonging hadc    */
 330:./Libraries/STM32F4xx_HAL_Driver/Src/stm32f4xx_hal_adc_ex.c ****     /* (Depending on STM32F4 product, there may be up to 3 ADC and 1 common */
 331:./Libraries/STM32F4xx_HAL_Driver/Src/stm32f4xx_hal_adc_ex.c ****     /* control register)                                                    */
 332:./Libraries/STM32F4xx_HAL_Driver/Src/stm32f4xx_hal_adc_ex.c ****     tmpADC_Common = ADC_COMMON_REGISTER(hadc);
 333:./Libraries/STM32F4xx_HAL_Driver/Src/stm32f4xx_hal_adc_ex.c ****     
 334:./Libraries/STM32F4xx_HAL_Driver/Src/stm32f4xx_hal_adc_ex.c ****     /* Check if Multimode enabled */
 335:./Libraries/STM32F4xx_HAL_Driver/Src/stm32f4xx_hal_adc_ex.c ****     if(HAL_IS_BIT_CLR(tmpADC_Common->CCR, ADC_CCR_MULTI))
 336:./Libraries/STM32F4xx_HAL_Driver/Src/stm32f4xx_hal_adc_ex.c ****     {
 337:./Libraries/STM32F4xx_HAL_Driver/Src/stm32f4xx_hal_adc_ex.c ****       tmp1 = HAL_IS_BIT_CLR(hadc->Instance->CR2, ADC_CR2_JEXTEN);
 338:./Libraries/STM32F4xx_HAL_Driver/Src/stm32f4xx_hal_adc_ex.c ****       tmp2 = HAL_IS_BIT_CLR(hadc->Instance->CR1, ADC_CR1_JAUTO);
 339:./Libraries/STM32F4xx_HAL_Driver/Src/stm32f4xx_hal_adc_ex.c ****       if(tmp1 && tmp2)
 340:./Libraries/STM32F4xx_HAL_Driver/Src/stm32f4xx_hal_adc_ex.c ****       {
 341:./Libraries/STM32F4xx_HAL_Driver/Src/stm32f4xx_hal_adc_ex.c ****         /* Enable the selected ADC software conversion for injected group */
 342:./Libraries/STM32F4xx_HAL_Driver/Src/stm32f4xx_hal_adc_ex.c ****         hadc->Instance->CR2 |= ADC_CR2_JSWSTART;
 343:./Libraries/STM32F4xx_HAL_Driver/Src/stm32f4xx_hal_adc_ex.c ****       }
 344:./Libraries/STM32F4xx_HAL_Driver/Src/stm32f4xx_hal_adc_ex.c ****     }
 345:./Libraries/STM32F4xx_HAL_Driver/Src/stm32f4xx_hal_adc_ex.c ****     else
 346:./Libraries/STM32F4xx_HAL_Driver/Src/stm32f4xx_hal_adc_ex.c ****     {
 347:./Libraries/STM32F4xx_HAL_Driver/Src/stm32f4xx_hal_adc_ex.c ****       tmp1 = HAL_IS_BIT_CLR(hadc->Instance->CR2, ADC_CR2_JEXTEN);
 348:./Libraries/STM32F4xx_HAL_Driver/Src/stm32f4xx_hal_adc_ex.c ****       tmp2 = HAL_IS_BIT_CLR(hadc->Instance->CR1, ADC_CR1_JAUTO);
 349:./Libraries/STM32F4xx_HAL_Driver/Src/stm32f4xx_hal_adc_ex.c ****       if((hadc->Instance == ADC1) && tmp1 && tmp2)  
 350:./Libraries/STM32F4xx_HAL_Driver/Src/stm32f4xx_hal_adc_ex.c ****       {
 351:./Libraries/STM32F4xx_HAL_Driver/Src/stm32f4xx_hal_adc_ex.c ****         /* Enable the selected ADC software conversion for injected group */
 352:./Libraries/STM32F4xx_HAL_Driver/Src/stm32f4xx_hal_adc_ex.c ****         hadc->Instance->CR2 |= ADC_CR2_JSWSTART;
 353:./Libraries/STM32F4xx_HAL_Driver/Src/stm32f4xx_hal_adc_ex.c ****       }
 354:./Libraries/STM32F4xx_HAL_Driver/Src/stm32f4xx_hal_adc_ex.c ****     }
 355:./Libraries/STM32F4xx_HAL_Driver/Src/stm32f4xx_hal_adc_ex.c ****   }
 356:./Libraries/STM32F4xx_HAL_Driver/Src/stm32f4xx_hal_adc_ex.c ****   
 357:./Libraries/STM32F4xx_HAL_Driver/Src/stm32f4xx_hal_adc_ex.c ****   /* Return function status */
 358:./Libraries/STM32F4xx_HAL_Driver/Src/stm32f4xx_hal_adc_ex.c ****   return HAL_OK;
 359:./Libraries/STM32F4xx_HAL_Driver/Src/stm32f4xx_hal_adc_ex.c **** }
 360:./Libraries/STM32F4xx_HAL_Driver/Src/stm32f4xx_hal_adc_ex.c **** 
 361:./Libraries/STM32F4xx_HAL_Driver/Src/stm32f4xx_hal_adc_ex.c **** /**
 362:./Libraries/STM32F4xx_HAL_Driver/Src/stm32f4xx_hal_adc_ex.c ****   * @brief  Stop conversion of injected channels. Disable ADC peripheral if
 363:./Libraries/STM32F4xx_HAL_Driver/Src/stm32f4xx_hal_adc_ex.c ****   *         no regular conversion is on going.
 364:./Libraries/STM32F4xx_HAL_Driver/Src/stm32f4xx_hal_adc_ex.c ****   * @note   If ADC must be disabled and if conversion is on going on 
 365:./Libraries/STM32F4xx_HAL_Driver/Src/stm32f4xx_hal_adc_ex.c ****   *         regular group, function HAL_ADC_Stop must be used to stop both
 366:./Libraries/STM32F4xx_HAL_Driver/Src/stm32f4xx_hal_adc_ex.c ****   *         injected and regular groups, and disable the ADC.
 367:./Libraries/STM32F4xx_HAL_Driver/Src/stm32f4xx_hal_adc_ex.c ****   * @note   If injected group mode auto-injection is enabled,
 368:./Libraries/STM32F4xx_HAL_Driver/Src/stm32f4xx_hal_adc_ex.c ****   *         function HAL_ADC_Stop must be used.
 369:./Libraries/STM32F4xx_HAL_Driver/Src/stm32f4xx_hal_adc_ex.c ****   * @note   In case of auto-injection mode, HAL_ADC_Stop must be used.
 370:./Libraries/STM32F4xx_HAL_Driver/Src/stm32f4xx_hal_adc_ex.c ****   * @param  hadc ADC handle
 371:./Libraries/STM32F4xx_HAL_Driver/Src/stm32f4xx_hal_adc_ex.c ****   * @retval None
 372:./Libraries/STM32F4xx_HAL_Driver/Src/stm32f4xx_hal_adc_ex.c ****   */
ARM GAS  /tmp/ccqyivU0.s 			page 8


 373:./Libraries/STM32F4xx_HAL_Driver/Src/stm32f4xx_hal_adc_ex.c **** HAL_StatusTypeDef HAL_ADCEx_InjectedStop(ADC_HandleTypeDef* hadc)
 374:./Libraries/STM32F4xx_HAL_Driver/Src/stm32f4xx_hal_adc_ex.c **** {
 375:./Libraries/STM32F4xx_HAL_Driver/Src/stm32f4xx_hal_adc_ex.c ****   HAL_StatusTypeDef tmp_hal_status = HAL_OK;
 376:./Libraries/STM32F4xx_HAL_Driver/Src/stm32f4xx_hal_adc_ex.c ****   
 377:./Libraries/STM32F4xx_HAL_Driver/Src/stm32f4xx_hal_adc_ex.c ****   /* Check the parameters */
 378:./Libraries/STM32F4xx_HAL_Driver/Src/stm32f4xx_hal_adc_ex.c ****   assert_param(IS_ADC_ALL_INSTANCE(hadc->Instance));
 379:./Libraries/STM32F4xx_HAL_Driver/Src/stm32f4xx_hal_adc_ex.c **** 
 380:./Libraries/STM32F4xx_HAL_Driver/Src/stm32f4xx_hal_adc_ex.c ****   /* Process locked */
 381:./Libraries/STM32F4xx_HAL_Driver/Src/stm32f4xx_hal_adc_ex.c ****   __HAL_LOCK(hadc);
 382:./Libraries/STM32F4xx_HAL_Driver/Src/stm32f4xx_hal_adc_ex.c ****     
 383:./Libraries/STM32F4xx_HAL_Driver/Src/stm32f4xx_hal_adc_ex.c ****   /* Stop potential conversion and disable ADC peripheral                     */
 384:./Libraries/STM32F4xx_HAL_Driver/Src/stm32f4xx_hal_adc_ex.c ****   /* Conditioned to:                                                          */
 385:./Libraries/STM32F4xx_HAL_Driver/Src/stm32f4xx_hal_adc_ex.c ****   /* - No conversion on the other group (regular group) is intended to        */
 386:./Libraries/STM32F4xx_HAL_Driver/Src/stm32f4xx_hal_adc_ex.c ****   /*   continue (injected and regular groups stop conversion and ADC disable  */
 387:./Libraries/STM32F4xx_HAL_Driver/Src/stm32f4xx_hal_adc_ex.c ****   /*   are common)                                                            */
 388:./Libraries/STM32F4xx_HAL_Driver/Src/stm32f4xx_hal_adc_ex.c ****   /* - In case of auto-injection mode, HAL_ADC_Stop must be used.             */
 389:./Libraries/STM32F4xx_HAL_Driver/Src/stm32f4xx_hal_adc_ex.c ****   if(((hadc->State & HAL_ADC_STATE_REG_BUSY) == RESET)  &&
 390:./Libraries/STM32F4xx_HAL_Driver/Src/stm32f4xx_hal_adc_ex.c ****      HAL_IS_BIT_CLR(hadc->Instance->CR1, ADC_CR1_JAUTO)   )
 391:./Libraries/STM32F4xx_HAL_Driver/Src/stm32f4xx_hal_adc_ex.c ****   {
 392:./Libraries/STM32F4xx_HAL_Driver/Src/stm32f4xx_hal_adc_ex.c ****     /* Stop potential conversion on going, on regular and injected groups */
 393:./Libraries/STM32F4xx_HAL_Driver/Src/stm32f4xx_hal_adc_ex.c ****     /* Disable ADC peripheral */
 394:./Libraries/STM32F4xx_HAL_Driver/Src/stm32f4xx_hal_adc_ex.c ****     __HAL_ADC_DISABLE(hadc);
 395:./Libraries/STM32F4xx_HAL_Driver/Src/stm32f4xx_hal_adc_ex.c ****     
 396:./Libraries/STM32F4xx_HAL_Driver/Src/stm32f4xx_hal_adc_ex.c ****     /* Check if ADC is effectively disabled */
 397:./Libraries/STM32F4xx_HAL_Driver/Src/stm32f4xx_hal_adc_ex.c ****     if(HAL_IS_BIT_CLR(hadc->Instance->CR2, ADC_CR2_ADON))
 398:./Libraries/STM32F4xx_HAL_Driver/Src/stm32f4xx_hal_adc_ex.c ****     {
 399:./Libraries/STM32F4xx_HAL_Driver/Src/stm32f4xx_hal_adc_ex.c ****       /* Set ADC state */
 400:./Libraries/STM32F4xx_HAL_Driver/Src/stm32f4xx_hal_adc_ex.c ****       ADC_STATE_CLR_SET(hadc->State,
 401:./Libraries/STM32F4xx_HAL_Driver/Src/stm32f4xx_hal_adc_ex.c ****                         HAL_ADC_STATE_REG_BUSY | HAL_ADC_STATE_INJ_BUSY,
 402:./Libraries/STM32F4xx_HAL_Driver/Src/stm32f4xx_hal_adc_ex.c ****                         HAL_ADC_STATE_READY);
 403:./Libraries/STM32F4xx_HAL_Driver/Src/stm32f4xx_hal_adc_ex.c ****     }
 404:./Libraries/STM32F4xx_HAL_Driver/Src/stm32f4xx_hal_adc_ex.c ****   }
 405:./Libraries/STM32F4xx_HAL_Driver/Src/stm32f4xx_hal_adc_ex.c ****   else
 406:./Libraries/STM32F4xx_HAL_Driver/Src/stm32f4xx_hal_adc_ex.c ****   {
 407:./Libraries/STM32F4xx_HAL_Driver/Src/stm32f4xx_hal_adc_ex.c ****     /* Update ADC state machine to error */
 408:./Libraries/STM32F4xx_HAL_Driver/Src/stm32f4xx_hal_adc_ex.c ****     SET_BIT(hadc->State, HAL_ADC_STATE_ERROR_CONFIG);
 409:./Libraries/STM32F4xx_HAL_Driver/Src/stm32f4xx_hal_adc_ex.c ****       
 410:./Libraries/STM32F4xx_HAL_Driver/Src/stm32f4xx_hal_adc_ex.c ****     tmp_hal_status = HAL_ERROR;
 411:./Libraries/STM32F4xx_HAL_Driver/Src/stm32f4xx_hal_adc_ex.c ****   }
 412:./Libraries/STM32F4xx_HAL_Driver/Src/stm32f4xx_hal_adc_ex.c ****   
 413:./Libraries/STM32F4xx_HAL_Driver/Src/stm32f4xx_hal_adc_ex.c ****   /* Process unlocked */
 414:./Libraries/STM32F4xx_HAL_Driver/Src/stm32f4xx_hal_adc_ex.c ****   __HAL_UNLOCK(hadc);
 415:./Libraries/STM32F4xx_HAL_Driver/Src/stm32f4xx_hal_adc_ex.c ****   
 416:./Libraries/STM32F4xx_HAL_Driver/Src/stm32f4xx_hal_adc_ex.c ****   /* Return function status */
 417:./Libraries/STM32F4xx_HAL_Driver/Src/stm32f4xx_hal_adc_ex.c ****   return tmp_hal_status;
 418:./Libraries/STM32F4xx_HAL_Driver/Src/stm32f4xx_hal_adc_ex.c **** }
 419:./Libraries/STM32F4xx_HAL_Driver/Src/stm32f4xx_hal_adc_ex.c **** 
 420:./Libraries/STM32F4xx_HAL_Driver/Src/stm32f4xx_hal_adc_ex.c **** /**
 421:./Libraries/STM32F4xx_HAL_Driver/Src/stm32f4xx_hal_adc_ex.c ****   * @brief  Poll for injected conversion complete
 422:./Libraries/STM32F4xx_HAL_Driver/Src/stm32f4xx_hal_adc_ex.c ****   * @param  hadc pointer to a ADC_HandleTypeDef structure that contains
 423:./Libraries/STM32F4xx_HAL_Driver/Src/stm32f4xx_hal_adc_ex.c ****   *         the configuration information for the specified ADC.
 424:./Libraries/STM32F4xx_HAL_Driver/Src/stm32f4xx_hal_adc_ex.c ****   * @param  Timeout Timeout value in millisecond.  
 425:./Libraries/STM32F4xx_HAL_Driver/Src/stm32f4xx_hal_adc_ex.c ****   * @retval HAL status
 426:./Libraries/STM32F4xx_HAL_Driver/Src/stm32f4xx_hal_adc_ex.c ****   */
 427:./Libraries/STM32F4xx_HAL_Driver/Src/stm32f4xx_hal_adc_ex.c **** HAL_StatusTypeDef HAL_ADCEx_InjectedPollForConversion(ADC_HandleTypeDef* hadc, uint32_t Timeout)
 428:./Libraries/STM32F4xx_HAL_Driver/Src/stm32f4xx_hal_adc_ex.c **** {
 429:./Libraries/STM32F4xx_HAL_Driver/Src/stm32f4xx_hal_adc_ex.c ****   uint32_t tickstart = 0U;
ARM GAS  /tmp/ccqyivU0.s 			page 9


 430:./Libraries/STM32F4xx_HAL_Driver/Src/stm32f4xx_hal_adc_ex.c **** 
 431:./Libraries/STM32F4xx_HAL_Driver/Src/stm32f4xx_hal_adc_ex.c ****   /* Get tick */ 
 432:./Libraries/STM32F4xx_HAL_Driver/Src/stm32f4xx_hal_adc_ex.c ****   tickstart = HAL_GetTick();
 433:./Libraries/STM32F4xx_HAL_Driver/Src/stm32f4xx_hal_adc_ex.c **** 
 434:./Libraries/STM32F4xx_HAL_Driver/Src/stm32f4xx_hal_adc_ex.c ****   /* Check End of conversion flag */
 435:./Libraries/STM32F4xx_HAL_Driver/Src/stm32f4xx_hal_adc_ex.c ****   while(!(__HAL_ADC_GET_FLAG(hadc, ADC_FLAG_JEOC)))
 436:./Libraries/STM32F4xx_HAL_Driver/Src/stm32f4xx_hal_adc_ex.c ****   {
 437:./Libraries/STM32F4xx_HAL_Driver/Src/stm32f4xx_hal_adc_ex.c ****     /* Check for the Timeout */
 438:./Libraries/STM32F4xx_HAL_Driver/Src/stm32f4xx_hal_adc_ex.c ****     if(Timeout != HAL_MAX_DELAY)
 439:./Libraries/STM32F4xx_HAL_Driver/Src/stm32f4xx_hal_adc_ex.c ****     {
 440:./Libraries/STM32F4xx_HAL_Driver/Src/stm32f4xx_hal_adc_ex.c ****       if((Timeout == 0U)||((HAL_GetTick() - tickstart ) > Timeout))
 441:./Libraries/STM32F4xx_HAL_Driver/Src/stm32f4xx_hal_adc_ex.c ****       {
 442:./Libraries/STM32F4xx_HAL_Driver/Src/stm32f4xx_hal_adc_ex.c ****         hadc->State= HAL_ADC_STATE_TIMEOUT;
 443:./Libraries/STM32F4xx_HAL_Driver/Src/stm32f4xx_hal_adc_ex.c ****         /* Process unlocked */
 444:./Libraries/STM32F4xx_HAL_Driver/Src/stm32f4xx_hal_adc_ex.c ****         __HAL_UNLOCK(hadc);
 445:./Libraries/STM32F4xx_HAL_Driver/Src/stm32f4xx_hal_adc_ex.c ****         return HAL_TIMEOUT;
 446:./Libraries/STM32F4xx_HAL_Driver/Src/stm32f4xx_hal_adc_ex.c ****       }
 447:./Libraries/STM32F4xx_HAL_Driver/Src/stm32f4xx_hal_adc_ex.c ****     }
 448:./Libraries/STM32F4xx_HAL_Driver/Src/stm32f4xx_hal_adc_ex.c ****   }
 449:./Libraries/STM32F4xx_HAL_Driver/Src/stm32f4xx_hal_adc_ex.c ****   
 450:./Libraries/STM32F4xx_HAL_Driver/Src/stm32f4xx_hal_adc_ex.c ****   /* Clear injected group conversion flag */
 451:./Libraries/STM32F4xx_HAL_Driver/Src/stm32f4xx_hal_adc_ex.c ****   __HAL_ADC_CLEAR_FLAG(hadc, ADC_FLAG_JSTRT | ADC_FLAG_JEOC);
 452:./Libraries/STM32F4xx_HAL_Driver/Src/stm32f4xx_hal_adc_ex.c ****     
 453:./Libraries/STM32F4xx_HAL_Driver/Src/stm32f4xx_hal_adc_ex.c ****   /* Update ADC state machine */
 454:./Libraries/STM32F4xx_HAL_Driver/Src/stm32f4xx_hal_adc_ex.c ****   SET_BIT(hadc->State, HAL_ADC_STATE_INJ_EOC);
 455:./Libraries/STM32F4xx_HAL_Driver/Src/stm32f4xx_hal_adc_ex.c ****   
 456:./Libraries/STM32F4xx_HAL_Driver/Src/stm32f4xx_hal_adc_ex.c ****   /* Determine whether any further conversion upcoming on group injected      */
 457:./Libraries/STM32F4xx_HAL_Driver/Src/stm32f4xx_hal_adc_ex.c ****   /* by external trigger, continuous mode or scan sequence on going.          */
 458:./Libraries/STM32F4xx_HAL_Driver/Src/stm32f4xx_hal_adc_ex.c ****   /* Note: On STM32F4, there is no independent flag of end of sequence.       */
 459:./Libraries/STM32F4xx_HAL_Driver/Src/stm32f4xx_hal_adc_ex.c ****   /*       The test of scan sequence on going is done either with scan        */
 460:./Libraries/STM32F4xx_HAL_Driver/Src/stm32f4xx_hal_adc_ex.c ****   /*       sequence disabled or with end of conversion flag set to            */
 461:./Libraries/STM32F4xx_HAL_Driver/Src/stm32f4xx_hal_adc_ex.c ****   /*       of end of sequence.                                                */
 462:./Libraries/STM32F4xx_HAL_Driver/Src/stm32f4xx_hal_adc_ex.c ****   if(ADC_IS_SOFTWARE_START_INJECTED(hadc)                    &&
 463:./Libraries/STM32F4xx_HAL_Driver/Src/stm32f4xx_hal_adc_ex.c ****      (HAL_IS_BIT_CLR(hadc->Instance->JSQR, ADC_JSQR_JL)  ||
 464:./Libraries/STM32F4xx_HAL_Driver/Src/stm32f4xx_hal_adc_ex.c ****       HAL_IS_BIT_CLR(hadc->Instance->CR2, ADC_CR2_EOCS)    ) &&
 465:./Libraries/STM32F4xx_HAL_Driver/Src/stm32f4xx_hal_adc_ex.c ****      (HAL_IS_BIT_CLR(hadc->Instance->CR1, ADC_CR1_JAUTO) &&
 466:./Libraries/STM32F4xx_HAL_Driver/Src/stm32f4xx_hal_adc_ex.c ****       (ADC_IS_SOFTWARE_START_REGULAR(hadc)       &&
 467:./Libraries/STM32F4xx_HAL_Driver/Src/stm32f4xx_hal_adc_ex.c ****       (hadc->Init.ContinuousConvMode == DISABLE)   )       )   )
 468:./Libraries/STM32F4xx_HAL_Driver/Src/stm32f4xx_hal_adc_ex.c ****   {
 469:./Libraries/STM32F4xx_HAL_Driver/Src/stm32f4xx_hal_adc_ex.c ****     /* Set ADC state */
 470:./Libraries/STM32F4xx_HAL_Driver/Src/stm32f4xx_hal_adc_ex.c ****     CLEAR_BIT(hadc->State, HAL_ADC_STATE_INJ_BUSY);
 471:./Libraries/STM32F4xx_HAL_Driver/Src/stm32f4xx_hal_adc_ex.c ****     
 472:./Libraries/STM32F4xx_HAL_Driver/Src/stm32f4xx_hal_adc_ex.c ****     if (HAL_IS_BIT_CLR(hadc->State, HAL_ADC_STATE_REG_BUSY))
 473:./Libraries/STM32F4xx_HAL_Driver/Src/stm32f4xx_hal_adc_ex.c ****     { 
 474:./Libraries/STM32F4xx_HAL_Driver/Src/stm32f4xx_hal_adc_ex.c ****       SET_BIT(hadc->State, HAL_ADC_STATE_READY);
 475:./Libraries/STM32F4xx_HAL_Driver/Src/stm32f4xx_hal_adc_ex.c ****     }
 476:./Libraries/STM32F4xx_HAL_Driver/Src/stm32f4xx_hal_adc_ex.c ****   }
 477:./Libraries/STM32F4xx_HAL_Driver/Src/stm32f4xx_hal_adc_ex.c ****   
 478:./Libraries/STM32F4xx_HAL_Driver/Src/stm32f4xx_hal_adc_ex.c ****   /* Return ADC state */
 479:./Libraries/STM32F4xx_HAL_Driver/Src/stm32f4xx_hal_adc_ex.c ****   return HAL_OK;
 480:./Libraries/STM32F4xx_HAL_Driver/Src/stm32f4xx_hal_adc_ex.c **** }      
 481:./Libraries/STM32F4xx_HAL_Driver/Src/stm32f4xx_hal_adc_ex.c ****   
 482:./Libraries/STM32F4xx_HAL_Driver/Src/stm32f4xx_hal_adc_ex.c **** /**
 483:./Libraries/STM32F4xx_HAL_Driver/Src/stm32f4xx_hal_adc_ex.c ****   * @brief  Stop conversion of injected channels, disable interruption of 
 484:./Libraries/STM32F4xx_HAL_Driver/Src/stm32f4xx_hal_adc_ex.c ****   *         end-of-conversion. Disable ADC peripheral if no regular conversion
 485:./Libraries/STM32F4xx_HAL_Driver/Src/stm32f4xx_hal_adc_ex.c ****   *         is on going.
 486:./Libraries/STM32F4xx_HAL_Driver/Src/stm32f4xx_hal_adc_ex.c ****   * @note   If ADC must be disabled and if conversion is on going on 
ARM GAS  /tmp/ccqyivU0.s 			page 10


 487:./Libraries/STM32F4xx_HAL_Driver/Src/stm32f4xx_hal_adc_ex.c ****   *         regular group, function HAL_ADC_Stop must be used to stop both
 488:./Libraries/STM32F4xx_HAL_Driver/Src/stm32f4xx_hal_adc_ex.c ****   *         injected and regular groups, and disable the ADC.
 489:./Libraries/STM32F4xx_HAL_Driver/Src/stm32f4xx_hal_adc_ex.c ****   * @note   If injected group mode auto-injection is enabled,
 490:./Libraries/STM32F4xx_HAL_Driver/Src/stm32f4xx_hal_adc_ex.c ****   *         function HAL_ADC_Stop must be used.
 491:./Libraries/STM32F4xx_HAL_Driver/Src/stm32f4xx_hal_adc_ex.c ****   * @param  hadc ADC handle
 492:./Libraries/STM32F4xx_HAL_Driver/Src/stm32f4xx_hal_adc_ex.c ****   * @retval None
 493:./Libraries/STM32F4xx_HAL_Driver/Src/stm32f4xx_hal_adc_ex.c ****   */
 494:./Libraries/STM32F4xx_HAL_Driver/Src/stm32f4xx_hal_adc_ex.c **** HAL_StatusTypeDef HAL_ADCEx_InjectedStop_IT(ADC_HandleTypeDef* hadc)
 495:./Libraries/STM32F4xx_HAL_Driver/Src/stm32f4xx_hal_adc_ex.c **** {
 496:./Libraries/STM32F4xx_HAL_Driver/Src/stm32f4xx_hal_adc_ex.c ****   HAL_StatusTypeDef tmp_hal_status = HAL_OK;
 497:./Libraries/STM32F4xx_HAL_Driver/Src/stm32f4xx_hal_adc_ex.c ****   
 498:./Libraries/STM32F4xx_HAL_Driver/Src/stm32f4xx_hal_adc_ex.c ****   /* Check the parameters */
 499:./Libraries/STM32F4xx_HAL_Driver/Src/stm32f4xx_hal_adc_ex.c ****   assert_param(IS_ADC_ALL_INSTANCE(hadc->Instance));
 500:./Libraries/STM32F4xx_HAL_Driver/Src/stm32f4xx_hal_adc_ex.c **** 
 501:./Libraries/STM32F4xx_HAL_Driver/Src/stm32f4xx_hal_adc_ex.c ****   /* Process locked */
 502:./Libraries/STM32F4xx_HAL_Driver/Src/stm32f4xx_hal_adc_ex.c ****   __HAL_LOCK(hadc);
 503:./Libraries/STM32F4xx_HAL_Driver/Src/stm32f4xx_hal_adc_ex.c ****     
 504:./Libraries/STM32F4xx_HAL_Driver/Src/stm32f4xx_hal_adc_ex.c ****   /* Stop potential conversion and disable ADC peripheral                     */
 505:./Libraries/STM32F4xx_HAL_Driver/Src/stm32f4xx_hal_adc_ex.c ****   /* Conditioned to:                                                          */
 506:./Libraries/STM32F4xx_HAL_Driver/Src/stm32f4xx_hal_adc_ex.c ****   /* - No conversion on the other group (regular group) is intended to        */
 507:./Libraries/STM32F4xx_HAL_Driver/Src/stm32f4xx_hal_adc_ex.c ****   /*   continue (injected and regular groups stop conversion and ADC disable  */
 508:./Libraries/STM32F4xx_HAL_Driver/Src/stm32f4xx_hal_adc_ex.c ****   /*   are common)                                                            */
 509:./Libraries/STM32F4xx_HAL_Driver/Src/stm32f4xx_hal_adc_ex.c ****   /* - In case of auto-injection mode, HAL_ADC_Stop must be used.             */ 
 510:./Libraries/STM32F4xx_HAL_Driver/Src/stm32f4xx_hal_adc_ex.c ****   if(((hadc->State & HAL_ADC_STATE_REG_BUSY) == RESET)  &&
 511:./Libraries/STM32F4xx_HAL_Driver/Src/stm32f4xx_hal_adc_ex.c ****      HAL_IS_BIT_CLR(hadc->Instance->CR1, ADC_CR1_JAUTO)   )
 512:./Libraries/STM32F4xx_HAL_Driver/Src/stm32f4xx_hal_adc_ex.c ****   {
 513:./Libraries/STM32F4xx_HAL_Driver/Src/stm32f4xx_hal_adc_ex.c ****     /* Stop potential conversion on going, on regular and injected groups */
 514:./Libraries/STM32F4xx_HAL_Driver/Src/stm32f4xx_hal_adc_ex.c ****     /* Disable ADC peripheral */
 515:./Libraries/STM32F4xx_HAL_Driver/Src/stm32f4xx_hal_adc_ex.c ****     __HAL_ADC_DISABLE(hadc);
 516:./Libraries/STM32F4xx_HAL_Driver/Src/stm32f4xx_hal_adc_ex.c ****     
 517:./Libraries/STM32F4xx_HAL_Driver/Src/stm32f4xx_hal_adc_ex.c ****     /* Check if ADC is effectively disabled */
 518:./Libraries/STM32F4xx_HAL_Driver/Src/stm32f4xx_hal_adc_ex.c ****     if(HAL_IS_BIT_CLR(hadc->Instance->CR2, ADC_CR2_ADON))
 519:./Libraries/STM32F4xx_HAL_Driver/Src/stm32f4xx_hal_adc_ex.c ****     {
 520:./Libraries/STM32F4xx_HAL_Driver/Src/stm32f4xx_hal_adc_ex.c ****       /* Disable ADC end of conversion interrupt for injected channels */
 521:./Libraries/STM32F4xx_HAL_Driver/Src/stm32f4xx_hal_adc_ex.c ****       __HAL_ADC_DISABLE_IT(hadc, ADC_IT_JEOC);
 522:./Libraries/STM32F4xx_HAL_Driver/Src/stm32f4xx_hal_adc_ex.c ****       
 523:./Libraries/STM32F4xx_HAL_Driver/Src/stm32f4xx_hal_adc_ex.c ****       /* Set ADC state */
 524:./Libraries/STM32F4xx_HAL_Driver/Src/stm32f4xx_hal_adc_ex.c ****       ADC_STATE_CLR_SET(hadc->State,
 525:./Libraries/STM32F4xx_HAL_Driver/Src/stm32f4xx_hal_adc_ex.c ****                         HAL_ADC_STATE_REG_BUSY | HAL_ADC_STATE_INJ_BUSY,
 526:./Libraries/STM32F4xx_HAL_Driver/Src/stm32f4xx_hal_adc_ex.c ****                         HAL_ADC_STATE_READY);
 527:./Libraries/STM32F4xx_HAL_Driver/Src/stm32f4xx_hal_adc_ex.c ****     }
 528:./Libraries/STM32F4xx_HAL_Driver/Src/stm32f4xx_hal_adc_ex.c ****   }
 529:./Libraries/STM32F4xx_HAL_Driver/Src/stm32f4xx_hal_adc_ex.c ****   else
 530:./Libraries/STM32F4xx_HAL_Driver/Src/stm32f4xx_hal_adc_ex.c ****   {
 531:./Libraries/STM32F4xx_HAL_Driver/Src/stm32f4xx_hal_adc_ex.c ****     /* Update ADC state machine to error */
 532:./Libraries/STM32F4xx_HAL_Driver/Src/stm32f4xx_hal_adc_ex.c ****     SET_BIT(hadc->State, HAL_ADC_STATE_ERROR_CONFIG);
 533:./Libraries/STM32F4xx_HAL_Driver/Src/stm32f4xx_hal_adc_ex.c ****       
 534:./Libraries/STM32F4xx_HAL_Driver/Src/stm32f4xx_hal_adc_ex.c ****     tmp_hal_status = HAL_ERROR;
 535:./Libraries/STM32F4xx_HAL_Driver/Src/stm32f4xx_hal_adc_ex.c ****   }
 536:./Libraries/STM32F4xx_HAL_Driver/Src/stm32f4xx_hal_adc_ex.c ****   
 537:./Libraries/STM32F4xx_HAL_Driver/Src/stm32f4xx_hal_adc_ex.c ****   /* Process unlocked */
 538:./Libraries/STM32F4xx_HAL_Driver/Src/stm32f4xx_hal_adc_ex.c ****   __HAL_UNLOCK(hadc);
 539:./Libraries/STM32F4xx_HAL_Driver/Src/stm32f4xx_hal_adc_ex.c ****   
 540:./Libraries/STM32F4xx_HAL_Driver/Src/stm32f4xx_hal_adc_ex.c ****   /* Return function status */
 541:./Libraries/STM32F4xx_HAL_Driver/Src/stm32f4xx_hal_adc_ex.c ****   return tmp_hal_status;
 542:./Libraries/STM32F4xx_HAL_Driver/Src/stm32f4xx_hal_adc_ex.c **** }
 543:./Libraries/STM32F4xx_HAL_Driver/Src/stm32f4xx_hal_adc_ex.c **** 
ARM GAS  /tmp/ccqyivU0.s 			page 11


 544:./Libraries/STM32F4xx_HAL_Driver/Src/stm32f4xx_hal_adc_ex.c **** /**
 545:./Libraries/STM32F4xx_HAL_Driver/Src/stm32f4xx_hal_adc_ex.c ****   * @brief  Gets the converted value from data register of injected channel.
 546:./Libraries/STM32F4xx_HAL_Driver/Src/stm32f4xx_hal_adc_ex.c ****   * @param  hadc pointer to a ADC_HandleTypeDef structure that contains
 547:./Libraries/STM32F4xx_HAL_Driver/Src/stm32f4xx_hal_adc_ex.c ****   *         the configuration information for the specified ADC.
 548:./Libraries/STM32F4xx_HAL_Driver/Src/stm32f4xx_hal_adc_ex.c ****   * @param  InjectedRank the ADC injected rank.
 549:./Libraries/STM32F4xx_HAL_Driver/Src/stm32f4xx_hal_adc_ex.c ****   *          This parameter can be one of the following values:
 550:./Libraries/STM32F4xx_HAL_Driver/Src/stm32f4xx_hal_adc_ex.c ****   *            @arg ADC_INJECTED_RANK_1: Injected Channel1 selected
 551:./Libraries/STM32F4xx_HAL_Driver/Src/stm32f4xx_hal_adc_ex.c ****   *            @arg ADC_INJECTED_RANK_2: Injected Channel2 selected
 552:./Libraries/STM32F4xx_HAL_Driver/Src/stm32f4xx_hal_adc_ex.c ****   *            @arg ADC_INJECTED_RANK_3: Injected Channel3 selected
 553:./Libraries/STM32F4xx_HAL_Driver/Src/stm32f4xx_hal_adc_ex.c ****   *            @arg ADC_INJECTED_RANK_4: Injected Channel4 selected
 554:./Libraries/STM32F4xx_HAL_Driver/Src/stm32f4xx_hal_adc_ex.c ****   * @retval None
 555:./Libraries/STM32F4xx_HAL_Driver/Src/stm32f4xx_hal_adc_ex.c ****   */
 556:./Libraries/STM32F4xx_HAL_Driver/Src/stm32f4xx_hal_adc_ex.c **** uint32_t HAL_ADCEx_InjectedGetValue(ADC_HandleTypeDef* hadc, uint32_t InjectedRank)
 557:./Libraries/STM32F4xx_HAL_Driver/Src/stm32f4xx_hal_adc_ex.c **** {
 558:./Libraries/STM32F4xx_HAL_Driver/Src/stm32f4xx_hal_adc_ex.c ****   __IO uint32_t tmp = 0U;
 559:./Libraries/STM32F4xx_HAL_Driver/Src/stm32f4xx_hal_adc_ex.c ****   
 560:./Libraries/STM32F4xx_HAL_Driver/Src/stm32f4xx_hal_adc_ex.c ****   /* Check the parameters */
 561:./Libraries/STM32F4xx_HAL_Driver/Src/stm32f4xx_hal_adc_ex.c ****   assert_param(IS_ADC_INJECTED_RANK(InjectedRank));
 562:./Libraries/STM32F4xx_HAL_Driver/Src/stm32f4xx_hal_adc_ex.c ****   
 563:./Libraries/STM32F4xx_HAL_Driver/Src/stm32f4xx_hal_adc_ex.c ****   /* Clear injected group conversion flag to have similar behaviour as        */
 564:./Libraries/STM32F4xx_HAL_Driver/Src/stm32f4xx_hal_adc_ex.c ****   /* regular group: reading data register also clears end of conversion flag. */
 565:./Libraries/STM32F4xx_HAL_Driver/Src/stm32f4xx_hal_adc_ex.c ****   __HAL_ADC_CLEAR_FLAG(hadc, ADC_FLAG_JEOC);
 566:./Libraries/STM32F4xx_HAL_Driver/Src/stm32f4xx_hal_adc_ex.c ****   
 567:./Libraries/STM32F4xx_HAL_Driver/Src/stm32f4xx_hal_adc_ex.c ****   /* Return the selected ADC converted value */ 
 568:./Libraries/STM32F4xx_HAL_Driver/Src/stm32f4xx_hal_adc_ex.c ****   switch(InjectedRank)
 569:./Libraries/STM32F4xx_HAL_Driver/Src/stm32f4xx_hal_adc_ex.c ****   {  
 570:./Libraries/STM32F4xx_HAL_Driver/Src/stm32f4xx_hal_adc_ex.c ****     case ADC_INJECTED_RANK_4:
 571:./Libraries/STM32F4xx_HAL_Driver/Src/stm32f4xx_hal_adc_ex.c ****     {
 572:./Libraries/STM32F4xx_HAL_Driver/Src/stm32f4xx_hal_adc_ex.c ****       tmp =  hadc->Instance->JDR4;
 573:./Libraries/STM32F4xx_HAL_Driver/Src/stm32f4xx_hal_adc_ex.c ****     }  
 574:./Libraries/STM32F4xx_HAL_Driver/Src/stm32f4xx_hal_adc_ex.c ****     break;
 575:./Libraries/STM32F4xx_HAL_Driver/Src/stm32f4xx_hal_adc_ex.c ****     case ADC_INJECTED_RANK_3: 
 576:./Libraries/STM32F4xx_HAL_Driver/Src/stm32f4xx_hal_adc_ex.c ****     {  
 577:./Libraries/STM32F4xx_HAL_Driver/Src/stm32f4xx_hal_adc_ex.c ****       tmp =  hadc->Instance->JDR3;
 578:./Libraries/STM32F4xx_HAL_Driver/Src/stm32f4xx_hal_adc_ex.c ****     }  
 579:./Libraries/STM32F4xx_HAL_Driver/Src/stm32f4xx_hal_adc_ex.c ****     break;
 580:./Libraries/STM32F4xx_HAL_Driver/Src/stm32f4xx_hal_adc_ex.c ****     case ADC_INJECTED_RANK_2: 
 581:./Libraries/STM32F4xx_HAL_Driver/Src/stm32f4xx_hal_adc_ex.c ****     {  
 582:./Libraries/STM32F4xx_HAL_Driver/Src/stm32f4xx_hal_adc_ex.c ****       tmp =  hadc->Instance->JDR2;
 583:./Libraries/STM32F4xx_HAL_Driver/Src/stm32f4xx_hal_adc_ex.c ****     }
 584:./Libraries/STM32F4xx_HAL_Driver/Src/stm32f4xx_hal_adc_ex.c ****     break;
 585:./Libraries/STM32F4xx_HAL_Driver/Src/stm32f4xx_hal_adc_ex.c ****     case ADC_INJECTED_RANK_1:
 586:./Libraries/STM32F4xx_HAL_Driver/Src/stm32f4xx_hal_adc_ex.c ****     {
 587:./Libraries/STM32F4xx_HAL_Driver/Src/stm32f4xx_hal_adc_ex.c ****       tmp =  hadc->Instance->JDR1;
 588:./Libraries/STM32F4xx_HAL_Driver/Src/stm32f4xx_hal_adc_ex.c ****     }
 589:./Libraries/STM32F4xx_HAL_Driver/Src/stm32f4xx_hal_adc_ex.c ****     break;
 590:./Libraries/STM32F4xx_HAL_Driver/Src/stm32f4xx_hal_adc_ex.c ****     default:
 591:./Libraries/STM32F4xx_HAL_Driver/Src/stm32f4xx_hal_adc_ex.c ****     break;  
 592:./Libraries/STM32F4xx_HAL_Driver/Src/stm32f4xx_hal_adc_ex.c ****   }
 593:./Libraries/STM32F4xx_HAL_Driver/Src/stm32f4xx_hal_adc_ex.c ****   return tmp;
 594:./Libraries/STM32F4xx_HAL_Driver/Src/stm32f4xx_hal_adc_ex.c **** }
 595:./Libraries/STM32F4xx_HAL_Driver/Src/stm32f4xx_hal_adc_ex.c **** 
 596:./Libraries/STM32F4xx_HAL_Driver/Src/stm32f4xx_hal_adc_ex.c **** /**
 597:./Libraries/STM32F4xx_HAL_Driver/Src/stm32f4xx_hal_adc_ex.c ****   * @brief  Enables ADC DMA request after last transfer (Multi-ADC mode) and enables ADC peripheral
 598:./Libraries/STM32F4xx_HAL_Driver/Src/stm32f4xx_hal_adc_ex.c ****   * 
 599:./Libraries/STM32F4xx_HAL_Driver/Src/stm32f4xx_hal_adc_ex.c ****   * @note   Caution: This function must be used only with the ADC master.  
 600:./Libraries/STM32F4xx_HAL_Driver/Src/stm32f4xx_hal_adc_ex.c ****   *
ARM GAS  /tmp/ccqyivU0.s 			page 12


 601:./Libraries/STM32F4xx_HAL_Driver/Src/stm32f4xx_hal_adc_ex.c ****   * @param  hadc pointer to a ADC_HandleTypeDef structure that contains
 602:./Libraries/STM32F4xx_HAL_Driver/Src/stm32f4xx_hal_adc_ex.c ****   *         the configuration information for the specified ADC.
 603:./Libraries/STM32F4xx_HAL_Driver/Src/stm32f4xx_hal_adc_ex.c ****   * @param  pData   Pointer to buffer in which transferred from ADC peripheral to memory will be st
 604:./Libraries/STM32F4xx_HAL_Driver/Src/stm32f4xx_hal_adc_ex.c ****   * @param  Length  The length of data to be transferred from ADC peripheral to memory.  
 605:./Libraries/STM32F4xx_HAL_Driver/Src/stm32f4xx_hal_adc_ex.c ****   * @retval HAL status
 606:./Libraries/STM32F4xx_HAL_Driver/Src/stm32f4xx_hal_adc_ex.c ****   */
 607:./Libraries/STM32F4xx_HAL_Driver/Src/stm32f4xx_hal_adc_ex.c **** HAL_StatusTypeDef HAL_ADCEx_MultiModeStart_DMA(ADC_HandleTypeDef* hadc, uint32_t* pData, uint32_t L
 608:./Libraries/STM32F4xx_HAL_Driver/Src/stm32f4xx_hal_adc_ex.c **** {
 609:./Libraries/STM32F4xx_HAL_Driver/Src/stm32f4xx_hal_adc_ex.c ****   __IO uint32_t counter = 0U;
 610:./Libraries/STM32F4xx_HAL_Driver/Src/stm32f4xx_hal_adc_ex.c ****   ADC_Common_TypeDef *tmpADC_Common;
 611:./Libraries/STM32F4xx_HAL_Driver/Src/stm32f4xx_hal_adc_ex.c ****   
 612:./Libraries/STM32F4xx_HAL_Driver/Src/stm32f4xx_hal_adc_ex.c ****   /* Check the parameters */
 613:./Libraries/STM32F4xx_HAL_Driver/Src/stm32f4xx_hal_adc_ex.c ****   assert_param(IS_FUNCTIONAL_STATE(hadc->Init.ContinuousConvMode));
 614:./Libraries/STM32F4xx_HAL_Driver/Src/stm32f4xx_hal_adc_ex.c ****   assert_param(IS_ADC_EXT_TRIG_EDGE(hadc->Init.ExternalTrigConvEdge));
 615:./Libraries/STM32F4xx_HAL_Driver/Src/stm32f4xx_hal_adc_ex.c ****   assert_param(IS_FUNCTIONAL_STATE(hadc->Init.DMAContinuousRequests));
 616:./Libraries/STM32F4xx_HAL_Driver/Src/stm32f4xx_hal_adc_ex.c ****   
 617:./Libraries/STM32F4xx_HAL_Driver/Src/stm32f4xx_hal_adc_ex.c ****   /* Process locked */
 618:./Libraries/STM32F4xx_HAL_Driver/Src/stm32f4xx_hal_adc_ex.c ****   __HAL_LOCK(hadc);
 619:./Libraries/STM32F4xx_HAL_Driver/Src/stm32f4xx_hal_adc_ex.c ****   
 620:./Libraries/STM32F4xx_HAL_Driver/Src/stm32f4xx_hal_adc_ex.c ****   /* Check if ADC peripheral is disabled in order to enable it and wait during 
 621:./Libraries/STM32F4xx_HAL_Driver/Src/stm32f4xx_hal_adc_ex.c ****      Tstab time the ADC's stabilization */
 622:./Libraries/STM32F4xx_HAL_Driver/Src/stm32f4xx_hal_adc_ex.c ****   if((hadc->Instance->CR2 & ADC_CR2_ADON) != ADC_CR2_ADON)
 623:./Libraries/STM32F4xx_HAL_Driver/Src/stm32f4xx_hal_adc_ex.c ****   {  
 624:./Libraries/STM32F4xx_HAL_Driver/Src/stm32f4xx_hal_adc_ex.c ****     /* Enable the Peripheral */
 625:./Libraries/STM32F4xx_HAL_Driver/Src/stm32f4xx_hal_adc_ex.c ****     __HAL_ADC_ENABLE(hadc);
 626:./Libraries/STM32F4xx_HAL_Driver/Src/stm32f4xx_hal_adc_ex.c ****     
 627:./Libraries/STM32F4xx_HAL_Driver/Src/stm32f4xx_hal_adc_ex.c ****     /* Delay for temperature sensor stabilization time */
 628:./Libraries/STM32F4xx_HAL_Driver/Src/stm32f4xx_hal_adc_ex.c ****     /* Compute number of CPU cycles to wait for */
 629:./Libraries/STM32F4xx_HAL_Driver/Src/stm32f4xx_hal_adc_ex.c ****     counter = (ADC_STAB_DELAY_US * (SystemCoreClock / 1000000U));
 630:./Libraries/STM32F4xx_HAL_Driver/Src/stm32f4xx_hal_adc_ex.c ****     while(counter != 0U)
 631:./Libraries/STM32F4xx_HAL_Driver/Src/stm32f4xx_hal_adc_ex.c ****     {
 632:./Libraries/STM32F4xx_HAL_Driver/Src/stm32f4xx_hal_adc_ex.c ****       counter--;
 633:./Libraries/STM32F4xx_HAL_Driver/Src/stm32f4xx_hal_adc_ex.c ****     }
 634:./Libraries/STM32F4xx_HAL_Driver/Src/stm32f4xx_hal_adc_ex.c ****   }
 635:./Libraries/STM32F4xx_HAL_Driver/Src/stm32f4xx_hal_adc_ex.c ****   
 636:./Libraries/STM32F4xx_HAL_Driver/Src/stm32f4xx_hal_adc_ex.c ****   /* Start conversion if ADC is effectively enabled */
 637:./Libraries/STM32F4xx_HAL_Driver/Src/stm32f4xx_hal_adc_ex.c ****   if(HAL_IS_BIT_SET(hadc->Instance->CR2, ADC_CR2_ADON))
 638:./Libraries/STM32F4xx_HAL_Driver/Src/stm32f4xx_hal_adc_ex.c ****   {
 639:./Libraries/STM32F4xx_HAL_Driver/Src/stm32f4xx_hal_adc_ex.c ****     /* Set ADC state                                                          */
 640:./Libraries/STM32F4xx_HAL_Driver/Src/stm32f4xx_hal_adc_ex.c ****     /* - Clear state bitfield related to regular group conversion results     */
 641:./Libraries/STM32F4xx_HAL_Driver/Src/stm32f4xx_hal_adc_ex.c ****     /* - Set state bitfield related to regular group operation                */
 642:./Libraries/STM32F4xx_HAL_Driver/Src/stm32f4xx_hal_adc_ex.c ****     ADC_STATE_CLR_SET(hadc->State,
 643:./Libraries/STM32F4xx_HAL_Driver/Src/stm32f4xx_hal_adc_ex.c ****                       HAL_ADC_STATE_READY | HAL_ADC_STATE_REG_EOC | HAL_ADC_STATE_REG_OVR,
 644:./Libraries/STM32F4xx_HAL_Driver/Src/stm32f4xx_hal_adc_ex.c ****                       HAL_ADC_STATE_REG_BUSY);
 645:./Libraries/STM32F4xx_HAL_Driver/Src/stm32f4xx_hal_adc_ex.c ****     
 646:./Libraries/STM32F4xx_HAL_Driver/Src/stm32f4xx_hal_adc_ex.c ****     /* If conversions on group regular are also triggering group injected,    */
 647:./Libraries/STM32F4xx_HAL_Driver/Src/stm32f4xx_hal_adc_ex.c ****     /* update ADC state.                                                      */
 648:./Libraries/STM32F4xx_HAL_Driver/Src/stm32f4xx_hal_adc_ex.c ****     if (READ_BIT(hadc->Instance->CR1, ADC_CR1_JAUTO) != RESET)
 649:./Libraries/STM32F4xx_HAL_Driver/Src/stm32f4xx_hal_adc_ex.c ****     {
 650:./Libraries/STM32F4xx_HAL_Driver/Src/stm32f4xx_hal_adc_ex.c ****       ADC_STATE_CLR_SET(hadc->State, HAL_ADC_STATE_INJ_EOC, HAL_ADC_STATE_INJ_BUSY);  
 651:./Libraries/STM32F4xx_HAL_Driver/Src/stm32f4xx_hal_adc_ex.c ****     }
 652:./Libraries/STM32F4xx_HAL_Driver/Src/stm32f4xx_hal_adc_ex.c ****     
 653:./Libraries/STM32F4xx_HAL_Driver/Src/stm32f4xx_hal_adc_ex.c ****     /* State machine update: Check if an injected conversion is ongoing */
 654:./Libraries/STM32F4xx_HAL_Driver/Src/stm32f4xx_hal_adc_ex.c ****     if (HAL_IS_BIT_SET(hadc->State, HAL_ADC_STATE_INJ_BUSY))
 655:./Libraries/STM32F4xx_HAL_Driver/Src/stm32f4xx_hal_adc_ex.c ****     {
 656:./Libraries/STM32F4xx_HAL_Driver/Src/stm32f4xx_hal_adc_ex.c ****       /* Reset ADC error code fields related to conversions on group regular */
 657:./Libraries/STM32F4xx_HAL_Driver/Src/stm32f4xx_hal_adc_ex.c ****       CLEAR_BIT(hadc->ErrorCode, (HAL_ADC_ERROR_OVR | HAL_ADC_ERROR_DMA));         
ARM GAS  /tmp/ccqyivU0.s 			page 13


 658:./Libraries/STM32F4xx_HAL_Driver/Src/stm32f4xx_hal_adc_ex.c ****     }
 659:./Libraries/STM32F4xx_HAL_Driver/Src/stm32f4xx_hal_adc_ex.c ****     else
 660:./Libraries/STM32F4xx_HAL_Driver/Src/stm32f4xx_hal_adc_ex.c ****     {
 661:./Libraries/STM32F4xx_HAL_Driver/Src/stm32f4xx_hal_adc_ex.c ****       /* Reset ADC all error code fields */
 662:./Libraries/STM32F4xx_HAL_Driver/Src/stm32f4xx_hal_adc_ex.c ****       ADC_CLEAR_ERRORCODE(hadc);
 663:./Libraries/STM32F4xx_HAL_Driver/Src/stm32f4xx_hal_adc_ex.c ****     }
 664:./Libraries/STM32F4xx_HAL_Driver/Src/stm32f4xx_hal_adc_ex.c ****     
 665:./Libraries/STM32F4xx_HAL_Driver/Src/stm32f4xx_hal_adc_ex.c ****     /* Process unlocked */
 666:./Libraries/STM32F4xx_HAL_Driver/Src/stm32f4xx_hal_adc_ex.c ****     /* Unlock before starting ADC conversions: in case of potential           */
 667:./Libraries/STM32F4xx_HAL_Driver/Src/stm32f4xx_hal_adc_ex.c ****     /* interruption, to let the process to ADC IRQ Handler.                   */
 668:./Libraries/STM32F4xx_HAL_Driver/Src/stm32f4xx_hal_adc_ex.c ****     __HAL_UNLOCK(hadc);
 669:./Libraries/STM32F4xx_HAL_Driver/Src/stm32f4xx_hal_adc_ex.c ****     
 670:./Libraries/STM32F4xx_HAL_Driver/Src/stm32f4xx_hal_adc_ex.c ****     /* Set the DMA transfer complete callback */
 671:./Libraries/STM32F4xx_HAL_Driver/Src/stm32f4xx_hal_adc_ex.c ****     hadc->DMA_Handle->XferCpltCallback = ADC_MultiModeDMAConvCplt;
 672:./Libraries/STM32F4xx_HAL_Driver/Src/stm32f4xx_hal_adc_ex.c ****     
 673:./Libraries/STM32F4xx_HAL_Driver/Src/stm32f4xx_hal_adc_ex.c ****     /* Set the DMA half transfer complete callback */
 674:./Libraries/STM32F4xx_HAL_Driver/Src/stm32f4xx_hal_adc_ex.c ****     hadc->DMA_Handle->XferHalfCpltCallback = ADC_MultiModeDMAHalfConvCplt;
 675:./Libraries/STM32F4xx_HAL_Driver/Src/stm32f4xx_hal_adc_ex.c ****     
 676:./Libraries/STM32F4xx_HAL_Driver/Src/stm32f4xx_hal_adc_ex.c ****     /* Set the DMA error callback */
 677:./Libraries/STM32F4xx_HAL_Driver/Src/stm32f4xx_hal_adc_ex.c ****     hadc->DMA_Handle->XferErrorCallback = ADC_MultiModeDMAError ;
 678:./Libraries/STM32F4xx_HAL_Driver/Src/stm32f4xx_hal_adc_ex.c ****     
 679:./Libraries/STM32F4xx_HAL_Driver/Src/stm32f4xx_hal_adc_ex.c ****     /* Manage ADC and DMA start: ADC overrun interruption, DMA start, ADC     */
 680:./Libraries/STM32F4xx_HAL_Driver/Src/stm32f4xx_hal_adc_ex.c ****     /* start (in case of SW start):                                           */
 681:./Libraries/STM32F4xx_HAL_Driver/Src/stm32f4xx_hal_adc_ex.c ****     
 682:./Libraries/STM32F4xx_HAL_Driver/Src/stm32f4xx_hal_adc_ex.c ****     /* Clear regular group conversion flag and overrun flag */
 683:./Libraries/STM32F4xx_HAL_Driver/Src/stm32f4xx_hal_adc_ex.c ****     /* (To ensure of no unknown state from potential previous ADC operations) */
 684:./Libraries/STM32F4xx_HAL_Driver/Src/stm32f4xx_hal_adc_ex.c ****     __HAL_ADC_CLEAR_FLAG(hadc, ADC_FLAG_EOC);
 685:./Libraries/STM32F4xx_HAL_Driver/Src/stm32f4xx_hal_adc_ex.c **** 
 686:./Libraries/STM32F4xx_HAL_Driver/Src/stm32f4xx_hal_adc_ex.c ****     /* Enable ADC overrun interrupt */
 687:./Libraries/STM32F4xx_HAL_Driver/Src/stm32f4xx_hal_adc_ex.c ****     __HAL_ADC_ENABLE_IT(hadc, ADC_IT_OVR);
 688:./Libraries/STM32F4xx_HAL_Driver/Src/stm32f4xx_hal_adc_ex.c **** 
 689:./Libraries/STM32F4xx_HAL_Driver/Src/stm32f4xx_hal_adc_ex.c ****     /* Pointer to the common control register to which is belonging hadc    */
 690:./Libraries/STM32F4xx_HAL_Driver/Src/stm32f4xx_hal_adc_ex.c ****     /* (Depending on STM32F4 product, there may be up to 3 ADC and 1 common */
 691:./Libraries/STM32F4xx_HAL_Driver/Src/stm32f4xx_hal_adc_ex.c ****     /* control register)                                                    */
 692:./Libraries/STM32F4xx_HAL_Driver/Src/stm32f4xx_hal_adc_ex.c ****     tmpADC_Common = ADC_COMMON_REGISTER(hadc);
 693:./Libraries/STM32F4xx_HAL_Driver/Src/stm32f4xx_hal_adc_ex.c **** 
 694:./Libraries/STM32F4xx_HAL_Driver/Src/stm32f4xx_hal_adc_ex.c ****     if (hadc->Init.DMAContinuousRequests != DISABLE)
 695:./Libraries/STM32F4xx_HAL_Driver/Src/stm32f4xx_hal_adc_ex.c ****     {
 696:./Libraries/STM32F4xx_HAL_Driver/Src/stm32f4xx_hal_adc_ex.c ****       /* Enable the selected ADC DMA request after last transfer */
 697:./Libraries/STM32F4xx_HAL_Driver/Src/stm32f4xx_hal_adc_ex.c ****       tmpADC_Common->CCR |= ADC_CCR_DDS;
 698:./Libraries/STM32F4xx_HAL_Driver/Src/stm32f4xx_hal_adc_ex.c ****     }
 699:./Libraries/STM32F4xx_HAL_Driver/Src/stm32f4xx_hal_adc_ex.c ****     else
 700:./Libraries/STM32F4xx_HAL_Driver/Src/stm32f4xx_hal_adc_ex.c ****     {
 701:./Libraries/STM32F4xx_HAL_Driver/Src/stm32f4xx_hal_adc_ex.c ****       /* Disable the selected ADC EOC rising on each regular channel conversion */
 702:./Libraries/STM32F4xx_HAL_Driver/Src/stm32f4xx_hal_adc_ex.c ****       tmpADC_Common->CCR &= ~ADC_CCR_DDS;
 703:./Libraries/STM32F4xx_HAL_Driver/Src/stm32f4xx_hal_adc_ex.c ****     }
 704:./Libraries/STM32F4xx_HAL_Driver/Src/stm32f4xx_hal_adc_ex.c ****     
 705:./Libraries/STM32F4xx_HAL_Driver/Src/stm32f4xx_hal_adc_ex.c ****     /* Enable the DMA Stream */
 706:./Libraries/STM32F4xx_HAL_Driver/Src/stm32f4xx_hal_adc_ex.c ****     HAL_DMA_Start_IT(hadc->DMA_Handle, (uint32_t)&tmpADC_Common->CDR, (uint32_t)pData, Length);
 707:./Libraries/STM32F4xx_HAL_Driver/Src/stm32f4xx_hal_adc_ex.c ****     
 708:./Libraries/STM32F4xx_HAL_Driver/Src/stm32f4xx_hal_adc_ex.c ****     /* if no external trigger present enable software conversion of regular channels */
 709:./Libraries/STM32F4xx_HAL_Driver/Src/stm32f4xx_hal_adc_ex.c ****     if((hadc->Instance->CR2 & ADC_CR2_EXTEN) == RESET) 
 710:./Libraries/STM32F4xx_HAL_Driver/Src/stm32f4xx_hal_adc_ex.c ****     {
 711:./Libraries/STM32F4xx_HAL_Driver/Src/stm32f4xx_hal_adc_ex.c ****       /* Enable the selected ADC software conversion for regular group */
 712:./Libraries/STM32F4xx_HAL_Driver/Src/stm32f4xx_hal_adc_ex.c ****       hadc->Instance->CR2 |= (uint32_t)ADC_CR2_SWSTART;
 713:./Libraries/STM32F4xx_HAL_Driver/Src/stm32f4xx_hal_adc_ex.c ****     }
 714:./Libraries/STM32F4xx_HAL_Driver/Src/stm32f4xx_hal_adc_ex.c ****   }
ARM GAS  /tmp/ccqyivU0.s 			page 14


 715:./Libraries/STM32F4xx_HAL_Driver/Src/stm32f4xx_hal_adc_ex.c ****   
 716:./Libraries/STM32F4xx_HAL_Driver/Src/stm32f4xx_hal_adc_ex.c ****   /* Return function status */
 717:./Libraries/STM32F4xx_HAL_Driver/Src/stm32f4xx_hal_adc_ex.c ****   return HAL_OK;
 718:./Libraries/STM32F4xx_HAL_Driver/Src/stm32f4xx_hal_adc_ex.c **** }
 719:./Libraries/STM32F4xx_HAL_Driver/Src/stm32f4xx_hal_adc_ex.c **** 
 720:./Libraries/STM32F4xx_HAL_Driver/Src/stm32f4xx_hal_adc_ex.c **** /**
 721:./Libraries/STM32F4xx_HAL_Driver/Src/stm32f4xx_hal_adc_ex.c ****   * @brief  Disables ADC DMA (multi-ADC mode) and disables ADC peripheral    
 722:./Libraries/STM32F4xx_HAL_Driver/Src/stm32f4xx_hal_adc_ex.c ****   * @param  hadc pointer to a ADC_HandleTypeDef structure that contains
 723:./Libraries/STM32F4xx_HAL_Driver/Src/stm32f4xx_hal_adc_ex.c ****   *         the configuration information for the specified ADC.
 724:./Libraries/STM32F4xx_HAL_Driver/Src/stm32f4xx_hal_adc_ex.c ****   * @retval HAL status
 725:./Libraries/STM32F4xx_HAL_Driver/Src/stm32f4xx_hal_adc_ex.c ****   */
 726:./Libraries/STM32F4xx_HAL_Driver/Src/stm32f4xx_hal_adc_ex.c **** HAL_StatusTypeDef HAL_ADCEx_MultiModeStop_DMA(ADC_HandleTypeDef* hadc)
 727:./Libraries/STM32F4xx_HAL_Driver/Src/stm32f4xx_hal_adc_ex.c **** {
 728:./Libraries/STM32F4xx_HAL_Driver/Src/stm32f4xx_hal_adc_ex.c ****   HAL_StatusTypeDef tmp_hal_status = HAL_OK;
 729:./Libraries/STM32F4xx_HAL_Driver/Src/stm32f4xx_hal_adc_ex.c ****   ADC_Common_TypeDef *tmpADC_Common;
 730:./Libraries/STM32F4xx_HAL_Driver/Src/stm32f4xx_hal_adc_ex.c ****   
 731:./Libraries/STM32F4xx_HAL_Driver/Src/stm32f4xx_hal_adc_ex.c ****   /* Check the parameters */
 732:./Libraries/STM32F4xx_HAL_Driver/Src/stm32f4xx_hal_adc_ex.c ****   assert_param(IS_ADC_ALL_INSTANCE(hadc->Instance));
 733:./Libraries/STM32F4xx_HAL_Driver/Src/stm32f4xx_hal_adc_ex.c ****   
 734:./Libraries/STM32F4xx_HAL_Driver/Src/stm32f4xx_hal_adc_ex.c ****   /* Process locked */
 735:./Libraries/STM32F4xx_HAL_Driver/Src/stm32f4xx_hal_adc_ex.c ****   __HAL_LOCK(hadc);
 736:./Libraries/STM32F4xx_HAL_Driver/Src/stm32f4xx_hal_adc_ex.c ****   
 737:./Libraries/STM32F4xx_HAL_Driver/Src/stm32f4xx_hal_adc_ex.c ****   /* Stop potential conversion on going, on regular and injected groups */
 738:./Libraries/STM32F4xx_HAL_Driver/Src/stm32f4xx_hal_adc_ex.c ****   /* Disable ADC peripheral */
 739:./Libraries/STM32F4xx_HAL_Driver/Src/stm32f4xx_hal_adc_ex.c ****   __HAL_ADC_DISABLE(hadc);
 740:./Libraries/STM32F4xx_HAL_Driver/Src/stm32f4xx_hal_adc_ex.c **** 
 741:./Libraries/STM32F4xx_HAL_Driver/Src/stm32f4xx_hal_adc_ex.c ****   /* Pointer to the common control register to which is belonging hadc    */
 742:./Libraries/STM32F4xx_HAL_Driver/Src/stm32f4xx_hal_adc_ex.c ****   /* (Depending on STM32F4 product, there may be up to 3 ADC and 1 common */
 743:./Libraries/STM32F4xx_HAL_Driver/Src/stm32f4xx_hal_adc_ex.c ****   /* control register)                                                    */
 744:./Libraries/STM32F4xx_HAL_Driver/Src/stm32f4xx_hal_adc_ex.c ****   tmpADC_Common = ADC_COMMON_REGISTER(hadc);
 745:./Libraries/STM32F4xx_HAL_Driver/Src/stm32f4xx_hal_adc_ex.c **** 
 746:./Libraries/STM32F4xx_HAL_Driver/Src/stm32f4xx_hal_adc_ex.c ****   /* Check if ADC is effectively disabled */
 747:./Libraries/STM32F4xx_HAL_Driver/Src/stm32f4xx_hal_adc_ex.c ****   if(HAL_IS_BIT_CLR(hadc->Instance->CR2, ADC_CR2_ADON))
 748:./Libraries/STM32F4xx_HAL_Driver/Src/stm32f4xx_hal_adc_ex.c ****   {
 749:./Libraries/STM32F4xx_HAL_Driver/Src/stm32f4xx_hal_adc_ex.c ****     /* Disable the selected ADC DMA mode for multimode */
 750:./Libraries/STM32F4xx_HAL_Driver/Src/stm32f4xx_hal_adc_ex.c ****     tmpADC_Common->CCR &= ~ADC_CCR_DDS;
 751:./Libraries/STM32F4xx_HAL_Driver/Src/stm32f4xx_hal_adc_ex.c ****     
 752:./Libraries/STM32F4xx_HAL_Driver/Src/stm32f4xx_hal_adc_ex.c ****     /* Disable the DMA channel (in case of DMA in circular mode or stop while */
 753:./Libraries/STM32F4xx_HAL_Driver/Src/stm32f4xx_hal_adc_ex.c ****     /* DMA transfer is on going)                                              */
 754:./Libraries/STM32F4xx_HAL_Driver/Src/stm32f4xx_hal_adc_ex.c ****     tmp_hal_status = HAL_DMA_Abort(hadc->DMA_Handle);
 755:./Libraries/STM32F4xx_HAL_Driver/Src/stm32f4xx_hal_adc_ex.c ****     
 756:./Libraries/STM32F4xx_HAL_Driver/Src/stm32f4xx_hal_adc_ex.c ****     /* Disable ADC overrun interrupt */
 757:./Libraries/STM32F4xx_HAL_Driver/Src/stm32f4xx_hal_adc_ex.c ****     __HAL_ADC_DISABLE_IT(hadc, ADC_IT_OVR);
 758:./Libraries/STM32F4xx_HAL_Driver/Src/stm32f4xx_hal_adc_ex.c ****     
 759:./Libraries/STM32F4xx_HAL_Driver/Src/stm32f4xx_hal_adc_ex.c ****     /* Set ADC state */
 760:./Libraries/STM32F4xx_HAL_Driver/Src/stm32f4xx_hal_adc_ex.c ****     ADC_STATE_CLR_SET(hadc->State,
 761:./Libraries/STM32F4xx_HAL_Driver/Src/stm32f4xx_hal_adc_ex.c ****                       HAL_ADC_STATE_REG_BUSY | HAL_ADC_STATE_INJ_BUSY,
 762:./Libraries/STM32F4xx_HAL_Driver/Src/stm32f4xx_hal_adc_ex.c ****                       HAL_ADC_STATE_READY);
 763:./Libraries/STM32F4xx_HAL_Driver/Src/stm32f4xx_hal_adc_ex.c ****   }
 764:./Libraries/STM32F4xx_HAL_Driver/Src/stm32f4xx_hal_adc_ex.c ****   
 765:./Libraries/STM32F4xx_HAL_Driver/Src/stm32f4xx_hal_adc_ex.c ****   /* Process unlocked */
 766:./Libraries/STM32F4xx_HAL_Driver/Src/stm32f4xx_hal_adc_ex.c ****   __HAL_UNLOCK(hadc);
 767:./Libraries/STM32F4xx_HAL_Driver/Src/stm32f4xx_hal_adc_ex.c ****   
 768:./Libraries/STM32F4xx_HAL_Driver/Src/stm32f4xx_hal_adc_ex.c ****   /* Return function status */
 769:./Libraries/STM32F4xx_HAL_Driver/Src/stm32f4xx_hal_adc_ex.c ****   return tmp_hal_status;
 770:./Libraries/STM32F4xx_HAL_Driver/Src/stm32f4xx_hal_adc_ex.c **** }
 771:./Libraries/STM32F4xx_HAL_Driver/Src/stm32f4xx_hal_adc_ex.c **** 
ARM GAS  /tmp/ccqyivU0.s 			page 15


 772:./Libraries/STM32F4xx_HAL_Driver/Src/stm32f4xx_hal_adc_ex.c **** /**
 773:./Libraries/STM32F4xx_HAL_Driver/Src/stm32f4xx_hal_adc_ex.c ****   * @brief  Returns the last ADC1, ADC2 and ADC3 regular conversions results 
 774:./Libraries/STM32F4xx_HAL_Driver/Src/stm32f4xx_hal_adc_ex.c ****   *         data in the selected multi mode.
 775:./Libraries/STM32F4xx_HAL_Driver/Src/stm32f4xx_hal_adc_ex.c ****   * @param  hadc pointer to a ADC_HandleTypeDef structure that contains
 776:./Libraries/STM32F4xx_HAL_Driver/Src/stm32f4xx_hal_adc_ex.c ****   *         the configuration information for the specified ADC.
 777:./Libraries/STM32F4xx_HAL_Driver/Src/stm32f4xx_hal_adc_ex.c ****   * @retval The converted data value.
 778:./Libraries/STM32F4xx_HAL_Driver/Src/stm32f4xx_hal_adc_ex.c ****   */
 779:./Libraries/STM32F4xx_HAL_Driver/Src/stm32f4xx_hal_adc_ex.c **** uint32_t HAL_ADCEx_MultiModeGetValue(ADC_HandleTypeDef* hadc)
 780:./Libraries/STM32F4xx_HAL_Driver/Src/stm32f4xx_hal_adc_ex.c **** {
 781:./Libraries/STM32F4xx_HAL_Driver/Src/stm32f4xx_hal_adc_ex.c ****   ADC_Common_TypeDef *tmpADC_Common;
 782:./Libraries/STM32F4xx_HAL_Driver/Src/stm32f4xx_hal_adc_ex.c **** 
 783:./Libraries/STM32F4xx_HAL_Driver/Src/stm32f4xx_hal_adc_ex.c ****   /* Pointer to the common control register to which is belonging hadc    */
 784:./Libraries/STM32F4xx_HAL_Driver/Src/stm32f4xx_hal_adc_ex.c ****   /* (Depending on STM32F4 product, there may be up to 3 ADC and 1 common */
 785:./Libraries/STM32F4xx_HAL_Driver/Src/stm32f4xx_hal_adc_ex.c ****   /* control register)                                                    */
 786:./Libraries/STM32F4xx_HAL_Driver/Src/stm32f4xx_hal_adc_ex.c ****   tmpADC_Common = ADC_COMMON_REGISTER(hadc);
 787:./Libraries/STM32F4xx_HAL_Driver/Src/stm32f4xx_hal_adc_ex.c **** 
 788:./Libraries/STM32F4xx_HAL_Driver/Src/stm32f4xx_hal_adc_ex.c ****   /* Return the multi mode conversion value */
 789:./Libraries/STM32F4xx_HAL_Driver/Src/stm32f4xx_hal_adc_ex.c ****   return tmpADC_Common->CDR;
 790:./Libraries/STM32F4xx_HAL_Driver/Src/stm32f4xx_hal_adc_ex.c **** }
 791:./Libraries/STM32F4xx_HAL_Driver/Src/stm32f4xx_hal_adc_ex.c **** 
 792:./Libraries/STM32F4xx_HAL_Driver/Src/stm32f4xx_hal_adc_ex.c **** /**
 793:./Libraries/STM32F4xx_HAL_Driver/Src/stm32f4xx_hal_adc_ex.c ****   * @brief  Injected conversion complete callback in non blocking mode 
 794:./Libraries/STM32F4xx_HAL_Driver/Src/stm32f4xx_hal_adc_ex.c ****   * @param  hadc pointer to a ADC_HandleTypeDef structure that contains
 795:./Libraries/STM32F4xx_HAL_Driver/Src/stm32f4xx_hal_adc_ex.c ****   *         the configuration information for the specified ADC.
 796:./Libraries/STM32F4xx_HAL_Driver/Src/stm32f4xx_hal_adc_ex.c ****   * @retval None
 797:./Libraries/STM32F4xx_HAL_Driver/Src/stm32f4xx_hal_adc_ex.c ****   */
 798:./Libraries/STM32F4xx_HAL_Driver/Src/stm32f4xx_hal_adc_ex.c **** __weak void HAL_ADCEx_InjectedConvCpltCallback(ADC_HandleTypeDef* hadc)
 799:./Libraries/STM32F4xx_HAL_Driver/Src/stm32f4xx_hal_adc_ex.c **** {
 800:./Libraries/STM32F4xx_HAL_Driver/Src/stm32f4xx_hal_adc_ex.c ****   /* Prevent unused argument(s) compilation warning */
 801:./Libraries/STM32F4xx_HAL_Driver/Src/stm32f4xx_hal_adc_ex.c ****   UNUSED(hadc);
 802:./Libraries/STM32F4xx_HAL_Driver/Src/stm32f4xx_hal_adc_ex.c ****   /* NOTE : This function Should not be modified, when the callback is needed,
 803:./Libraries/STM32F4xx_HAL_Driver/Src/stm32f4xx_hal_adc_ex.c ****             the HAL_ADC_InjectedConvCpltCallback could be implemented in the user file
 804:./Libraries/STM32F4xx_HAL_Driver/Src/stm32f4xx_hal_adc_ex.c ****    */
 805:./Libraries/STM32F4xx_HAL_Driver/Src/stm32f4xx_hal_adc_ex.c **** }
 806:./Libraries/STM32F4xx_HAL_Driver/Src/stm32f4xx_hal_adc_ex.c **** 
 807:./Libraries/STM32F4xx_HAL_Driver/Src/stm32f4xx_hal_adc_ex.c **** /**
 808:./Libraries/STM32F4xx_HAL_Driver/Src/stm32f4xx_hal_adc_ex.c ****   * @brief  Configures for the selected ADC injected channel its corresponding
 809:./Libraries/STM32F4xx_HAL_Driver/Src/stm32f4xx_hal_adc_ex.c ****   *         rank in the sequencer and its sample time.
 810:./Libraries/STM32F4xx_HAL_Driver/Src/stm32f4xx_hal_adc_ex.c ****   * @param  hadc pointer to a ADC_HandleTypeDef structure that contains
 811:./Libraries/STM32F4xx_HAL_Driver/Src/stm32f4xx_hal_adc_ex.c ****   *         the configuration information for the specified ADC.
 812:./Libraries/STM32F4xx_HAL_Driver/Src/stm32f4xx_hal_adc_ex.c ****   * @param  sConfigInjected ADC configuration structure for injected channel. 
 813:./Libraries/STM32F4xx_HAL_Driver/Src/stm32f4xx_hal_adc_ex.c ****   * @retval None
 814:./Libraries/STM32F4xx_HAL_Driver/Src/stm32f4xx_hal_adc_ex.c ****   */
 815:./Libraries/STM32F4xx_HAL_Driver/Src/stm32f4xx_hal_adc_ex.c **** HAL_StatusTypeDef HAL_ADCEx_InjectedConfigChannel(ADC_HandleTypeDef* hadc, ADC_InjectionConfTypeDef
 816:./Libraries/STM32F4xx_HAL_Driver/Src/stm32f4xx_hal_adc_ex.c **** {
 817:./Libraries/STM32F4xx_HAL_Driver/Src/stm32f4xx_hal_adc_ex.c ****   
 818:./Libraries/STM32F4xx_HAL_Driver/Src/stm32f4xx_hal_adc_ex.c **** #ifdef USE_FULL_ASSERT  
 819:./Libraries/STM32F4xx_HAL_Driver/Src/stm32f4xx_hal_adc_ex.c ****   uint32_t tmp = 0U;
 820:./Libraries/STM32F4xx_HAL_Driver/Src/stm32f4xx_hal_adc_ex.c ****   
 821:./Libraries/STM32F4xx_HAL_Driver/Src/stm32f4xx_hal_adc_ex.c **** #endif /* USE_FULL_ASSERT  */
 822:./Libraries/STM32F4xx_HAL_Driver/Src/stm32f4xx_hal_adc_ex.c **** 
 823:./Libraries/STM32F4xx_HAL_Driver/Src/stm32f4xx_hal_adc_ex.c ****   ADC_Common_TypeDef *tmpADC_Common;
 824:./Libraries/STM32F4xx_HAL_Driver/Src/stm32f4xx_hal_adc_ex.c **** 
 825:./Libraries/STM32F4xx_HAL_Driver/Src/stm32f4xx_hal_adc_ex.c ****   /* Check the parameters */
 826:./Libraries/STM32F4xx_HAL_Driver/Src/stm32f4xx_hal_adc_ex.c ****   assert_param(IS_ADC_CHANNEL(sConfigInjected->InjectedChannel));
 827:./Libraries/STM32F4xx_HAL_Driver/Src/stm32f4xx_hal_adc_ex.c ****   assert_param(IS_ADC_INJECTED_RANK(sConfigInjected->InjectedRank));
 828:./Libraries/STM32F4xx_HAL_Driver/Src/stm32f4xx_hal_adc_ex.c ****   assert_param(IS_ADC_SAMPLE_TIME(sConfigInjected->InjectedSamplingTime));
ARM GAS  /tmp/ccqyivU0.s 			page 16


 829:./Libraries/STM32F4xx_HAL_Driver/Src/stm32f4xx_hal_adc_ex.c ****   assert_param(IS_ADC_EXT_INJEC_TRIG(sConfigInjected->ExternalTrigInjecConv));
 830:./Libraries/STM32F4xx_HAL_Driver/Src/stm32f4xx_hal_adc_ex.c ****   assert_param(IS_ADC_INJECTED_LENGTH(sConfigInjected->InjectedNbrOfConversion));
 831:./Libraries/STM32F4xx_HAL_Driver/Src/stm32f4xx_hal_adc_ex.c ****   assert_param(IS_FUNCTIONAL_STATE(sConfigInjected->AutoInjectedConv));
 832:./Libraries/STM32F4xx_HAL_Driver/Src/stm32f4xx_hal_adc_ex.c ****   assert_param(IS_FUNCTIONAL_STATE(sConfigInjected->InjectedDiscontinuousConvMode));
 833:./Libraries/STM32F4xx_HAL_Driver/Src/stm32f4xx_hal_adc_ex.c **** 
 834:./Libraries/STM32F4xx_HAL_Driver/Src/stm32f4xx_hal_adc_ex.c **** #ifdef USE_FULL_ASSERT
 835:./Libraries/STM32F4xx_HAL_Driver/Src/stm32f4xx_hal_adc_ex.c ****   tmp = ADC_GET_RESOLUTION(hadc);
 836:./Libraries/STM32F4xx_HAL_Driver/Src/stm32f4xx_hal_adc_ex.c ****   assert_param(IS_ADC_RANGE(tmp, sConfigInjected->InjectedOffset));
 837:./Libraries/STM32F4xx_HAL_Driver/Src/stm32f4xx_hal_adc_ex.c **** #endif /* USE_FULL_ASSERT  */
 838:./Libraries/STM32F4xx_HAL_Driver/Src/stm32f4xx_hal_adc_ex.c **** 
 839:./Libraries/STM32F4xx_HAL_Driver/Src/stm32f4xx_hal_adc_ex.c ****   if(sConfigInjected->ExternalTrigInjecConv != ADC_INJECTED_SOFTWARE_START)
 840:./Libraries/STM32F4xx_HAL_Driver/Src/stm32f4xx_hal_adc_ex.c ****   {
 841:./Libraries/STM32F4xx_HAL_Driver/Src/stm32f4xx_hal_adc_ex.c ****     assert_param(IS_ADC_EXT_INJEC_TRIG_EDGE(sConfigInjected->ExternalTrigInjecConvEdge));
 842:./Libraries/STM32F4xx_HAL_Driver/Src/stm32f4xx_hal_adc_ex.c ****   }
 843:./Libraries/STM32F4xx_HAL_Driver/Src/stm32f4xx_hal_adc_ex.c **** 
 844:./Libraries/STM32F4xx_HAL_Driver/Src/stm32f4xx_hal_adc_ex.c ****   /* Process locked */
 845:./Libraries/STM32F4xx_HAL_Driver/Src/stm32f4xx_hal_adc_ex.c ****   __HAL_LOCK(hadc);
 846:./Libraries/STM32F4xx_HAL_Driver/Src/stm32f4xx_hal_adc_ex.c ****   
 847:./Libraries/STM32F4xx_HAL_Driver/Src/stm32f4xx_hal_adc_ex.c ****   /* if ADC_Channel_10 ... ADC_Channel_18 is selected */
 848:./Libraries/STM32F4xx_HAL_Driver/Src/stm32f4xx_hal_adc_ex.c ****   if (sConfigInjected->InjectedChannel > ADC_CHANNEL_9)
 849:./Libraries/STM32F4xx_HAL_Driver/Src/stm32f4xx_hal_adc_ex.c ****   {
 850:./Libraries/STM32F4xx_HAL_Driver/Src/stm32f4xx_hal_adc_ex.c ****     /* Clear the old sample time */
 851:./Libraries/STM32F4xx_HAL_Driver/Src/stm32f4xx_hal_adc_ex.c ****     hadc->Instance->SMPR1 &= ~ADC_SMPR1(ADC_SMPR1_SMP10, sConfigInjected->InjectedChannel);
 852:./Libraries/STM32F4xx_HAL_Driver/Src/stm32f4xx_hal_adc_ex.c ****     
 853:./Libraries/STM32F4xx_HAL_Driver/Src/stm32f4xx_hal_adc_ex.c ****     /* Set the new sample time */
 854:./Libraries/STM32F4xx_HAL_Driver/Src/stm32f4xx_hal_adc_ex.c ****     hadc->Instance->SMPR1 |= ADC_SMPR1(sConfigInjected->InjectedSamplingTime, sConfigInjected->Inje
 855:./Libraries/STM32F4xx_HAL_Driver/Src/stm32f4xx_hal_adc_ex.c ****   }
 856:./Libraries/STM32F4xx_HAL_Driver/Src/stm32f4xx_hal_adc_ex.c ****   else /* ADC_Channel include in ADC_Channel_[0..9] */
 857:./Libraries/STM32F4xx_HAL_Driver/Src/stm32f4xx_hal_adc_ex.c ****   {
 858:./Libraries/STM32F4xx_HAL_Driver/Src/stm32f4xx_hal_adc_ex.c ****     /* Clear the old sample time */
 859:./Libraries/STM32F4xx_HAL_Driver/Src/stm32f4xx_hal_adc_ex.c ****     hadc->Instance->SMPR2 &= ~ADC_SMPR2(ADC_SMPR2_SMP0, sConfigInjected->InjectedChannel);
 860:./Libraries/STM32F4xx_HAL_Driver/Src/stm32f4xx_hal_adc_ex.c ****     
 861:./Libraries/STM32F4xx_HAL_Driver/Src/stm32f4xx_hal_adc_ex.c ****     /* Set the new sample time */
 862:./Libraries/STM32F4xx_HAL_Driver/Src/stm32f4xx_hal_adc_ex.c ****     hadc->Instance->SMPR2 |= ADC_SMPR2(sConfigInjected->InjectedSamplingTime, sConfigInjected->Inje
 863:./Libraries/STM32F4xx_HAL_Driver/Src/stm32f4xx_hal_adc_ex.c ****   }
 864:./Libraries/STM32F4xx_HAL_Driver/Src/stm32f4xx_hal_adc_ex.c ****   
 865:./Libraries/STM32F4xx_HAL_Driver/Src/stm32f4xx_hal_adc_ex.c ****   /*---------------------------- ADCx JSQR Configuration -----------------*/
 866:./Libraries/STM32F4xx_HAL_Driver/Src/stm32f4xx_hal_adc_ex.c ****   hadc->Instance->JSQR &= ~(ADC_JSQR_JL);
 867:./Libraries/STM32F4xx_HAL_Driver/Src/stm32f4xx_hal_adc_ex.c ****   hadc->Instance->JSQR |=  ADC_SQR1(sConfigInjected->InjectedNbrOfConversion);
 868:./Libraries/STM32F4xx_HAL_Driver/Src/stm32f4xx_hal_adc_ex.c ****   
 869:./Libraries/STM32F4xx_HAL_Driver/Src/stm32f4xx_hal_adc_ex.c ****   /* Rank configuration */
 870:./Libraries/STM32F4xx_HAL_Driver/Src/stm32f4xx_hal_adc_ex.c ****   
 871:./Libraries/STM32F4xx_HAL_Driver/Src/stm32f4xx_hal_adc_ex.c ****   /* Clear the old SQx bits for the selected rank */
 872:./Libraries/STM32F4xx_HAL_Driver/Src/stm32f4xx_hal_adc_ex.c ****   hadc->Instance->JSQR &= ~ADC_JSQR(ADC_JSQR_JSQ1, sConfigInjected->InjectedRank,sConfigInjected->I
 873:./Libraries/STM32F4xx_HAL_Driver/Src/stm32f4xx_hal_adc_ex.c ****    
 874:./Libraries/STM32F4xx_HAL_Driver/Src/stm32f4xx_hal_adc_ex.c ****   /* Set the SQx bits for the selected rank */
 875:./Libraries/STM32F4xx_HAL_Driver/Src/stm32f4xx_hal_adc_ex.c ****   hadc->Instance->JSQR |= ADC_JSQR(sConfigInjected->InjectedChannel, sConfigInjected->InjectedRank,
 876:./Libraries/STM32F4xx_HAL_Driver/Src/stm32f4xx_hal_adc_ex.c **** 
 877:./Libraries/STM32F4xx_HAL_Driver/Src/stm32f4xx_hal_adc_ex.c ****   /* Enable external trigger if trigger selection is different of software  */
 878:./Libraries/STM32F4xx_HAL_Driver/Src/stm32f4xx_hal_adc_ex.c ****   /* start.                                                                 */
 879:./Libraries/STM32F4xx_HAL_Driver/Src/stm32f4xx_hal_adc_ex.c ****   /* Note: This configuration keeps the hardware feature of parameter       */
 880:./Libraries/STM32F4xx_HAL_Driver/Src/stm32f4xx_hal_adc_ex.c ****   /*       ExternalTrigConvEdge "trigger edge none" equivalent to           */
 881:./Libraries/STM32F4xx_HAL_Driver/Src/stm32f4xx_hal_adc_ex.c ****   /*       software start.                                                  */ 
 882:./Libraries/STM32F4xx_HAL_Driver/Src/stm32f4xx_hal_adc_ex.c ****   if(sConfigInjected->ExternalTrigInjecConv != ADC_INJECTED_SOFTWARE_START)
 883:./Libraries/STM32F4xx_HAL_Driver/Src/stm32f4xx_hal_adc_ex.c ****   {  
 884:./Libraries/STM32F4xx_HAL_Driver/Src/stm32f4xx_hal_adc_ex.c ****     /* Select external trigger to start conversion */
 885:./Libraries/STM32F4xx_HAL_Driver/Src/stm32f4xx_hal_adc_ex.c ****     hadc->Instance->CR2 &= ~(ADC_CR2_JEXTSEL);
ARM GAS  /tmp/ccqyivU0.s 			page 17


 886:./Libraries/STM32F4xx_HAL_Driver/Src/stm32f4xx_hal_adc_ex.c ****     hadc->Instance->CR2 |=  sConfigInjected->ExternalTrigInjecConv;
 887:./Libraries/STM32F4xx_HAL_Driver/Src/stm32f4xx_hal_adc_ex.c ****     
 888:./Libraries/STM32F4xx_HAL_Driver/Src/stm32f4xx_hal_adc_ex.c ****     /* Select external trigger polarity */
 889:./Libraries/STM32F4xx_HAL_Driver/Src/stm32f4xx_hal_adc_ex.c ****     hadc->Instance->CR2 &= ~(ADC_CR2_JEXTEN);
 890:./Libraries/STM32F4xx_HAL_Driver/Src/stm32f4xx_hal_adc_ex.c ****     hadc->Instance->CR2 |= sConfigInjected->ExternalTrigInjecConvEdge;
 891:./Libraries/STM32F4xx_HAL_Driver/Src/stm32f4xx_hal_adc_ex.c ****   }
 892:./Libraries/STM32F4xx_HAL_Driver/Src/stm32f4xx_hal_adc_ex.c ****   else
 893:./Libraries/STM32F4xx_HAL_Driver/Src/stm32f4xx_hal_adc_ex.c ****   {
 894:./Libraries/STM32F4xx_HAL_Driver/Src/stm32f4xx_hal_adc_ex.c ****     /* Reset the external trigger */
 895:./Libraries/STM32F4xx_HAL_Driver/Src/stm32f4xx_hal_adc_ex.c ****     hadc->Instance->CR2 &= ~(ADC_CR2_JEXTSEL);
 896:./Libraries/STM32F4xx_HAL_Driver/Src/stm32f4xx_hal_adc_ex.c ****     hadc->Instance->CR2 &= ~(ADC_CR2_JEXTEN);  
 897:./Libraries/STM32F4xx_HAL_Driver/Src/stm32f4xx_hal_adc_ex.c ****   }
 898:./Libraries/STM32F4xx_HAL_Driver/Src/stm32f4xx_hal_adc_ex.c ****   
 899:./Libraries/STM32F4xx_HAL_Driver/Src/stm32f4xx_hal_adc_ex.c ****   if (sConfigInjected->AutoInjectedConv != DISABLE)
 900:./Libraries/STM32F4xx_HAL_Driver/Src/stm32f4xx_hal_adc_ex.c ****   {
 901:./Libraries/STM32F4xx_HAL_Driver/Src/stm32f4xx_hal_adc_ex.c ****     /* Enable the selected ADC automatic injected group conversion */
 902:./Libraries/STM32F4xx_HAL_Driver/Src/stm32f4xx_hal_adc_ex.c ****     hadc->Instance->CR1 |= ADC_CR1_JAUTO;
 903:./Libraries/STM32F4xx_HAL_Driver/Src/stm32f4xx_hal_adc_ex.c ****   }
 904:./Libraries/STM32F4xx_HAL_Driver/Src/stm32f4xx_hal_adc_ex.c ****   else
 905:./Libraries/STM32F4xx_HAL_Driver/Src/stm32f4xx_hal_adc_ex.c ****   {
 906:./Libraries/STM32F4xx_HAL_Driver/Src/stm32f4xx_hal_adc_ex.c ****     /* Disable the selected ADC automatic injected group conversion */
 907:./Libraries/STM32F4xx_HAL_Driver/Src/stm32f4xx_hal_adc_ex.c ****     hadc->Instance->CR1 &= ~(ADC_CR1_JAUTO);
 908:./Libraries/STM32F4xx_HAL_Driver/Src/stm32f4xx_hal_adc_ex.c ****   }
 909:./Libraries/STM32F4xx_HAL_Driver/Src/stm32f4xx_hal_adc_ex.c ****   
 910:./Libraries/STM32F4xx_HAL_Driver/Src/stm32f4xx_hal_adc_ex.c ****   if (sConfigInjected->InjectedDiscontinuousConvMode != DISABLE)
 911:./Libraries/STM32F4xx_HAL_Driver/Src/stm32f4xx_hal_adc_ex.c ****   {
 912:./Libraries/STM32F4xx_HAL_Driver/Src/stm32f4xx_hal_adc_ex.c ****     /* Enable the selected ADC injected discontinuous mode */
 913:./Libraries/STM32F4xx_HAL_Driver/Src/stm32f4xx_hal_adc_ex.c ****     hadc->Instance->CR1 |= ADC_CR1_JDISCEN;
 914:./Libraries/STM32F4xx_HAL_Driver/Src/stm32f4xx_hal_adc_ex.c ****   }
 915:./Libraries/STM32F4xx_HAL_Driver/Src/stm32f4xx_hal_adc_ex.c ****   else
 916:./Libraries/STM32F4xx_HAL_Driver/Src/stm32f4xx_hal_adc_ex.c ****   {
 917:./Libraries/STM32F4xx_HAL_Driver/Src/stm32f4xx_hal_adc_ex.c ****     /* Disable the selected ADC injected discontinuous mode */
 918:./Libraries/STM32F4xx_HAL_Driver/Src/stm32f4xx_hal_adc_ex.c ****     hadc->Instance->CR1 &= ~(ADC_CR1_JDISCEN);
 919:./Libraries/STM32F4xx_HAL_Driver/Src/stm32f4xx_hal_adc_ex.c ****   }
 920:./Libraries/STM32F4xx_HAL_Driver/Src/stm32f4xx_hal_adc_ex.c ****   
 921:./Libraries/STM32F4xx_HAL_Driver/Src/stm32f4xx_hal_adc_ex.c ****   switch(sConfigInjected->InjectedRank)
 922:./Libraries/STM32F4xx_HAL_Driver/Src/stm32f4xx_hal_adc_ex.c ****   {
 923:./Libraries/STM32F4xx_HAL_Driver/Src/stm32f4xx_hal_adc_ex.c ****     case 1U:
 924:./Libraries/STM32F4xx_HAL_Driver/Src/stm32f4xx_hal_adc_ex.c ****       /* Set injected channel 1 offset */
 925:./Libraries/STM32F4xx_HAL_Driver/Src/stm32f4xx_hal_adc_ex.c ****       hadc->Instance->JOFR1 &= ~(ADC_JOFR1_JOFFSET1);
 926:./Libraries/STM32F4xx_HAL_Driver/Src/stm32f4xx_hal_adc_ex.c ****       hadc->Instance->JOFR1 |= sConfigInjected->InjectedOffset;
 927:./Libraries/STM32F4xx_HAL_Driver/Src/stm32f4xx_hal_adc_ex.c ****       break;
 928:./Libraries/STM32F4xx_HAL_Driver/Src/stm32f4xx_hal_adc_ex.c ****     case 2U:
 929:./Libraries/STM32F4xx_HAL_Driver/Src/stm32f4xx_hal_adc_ex.c ****       /* Set injected channel 2 offset */
 930:./Libraries/STM32F4xx_HAL_Driver/Src/stm32f4xx_hal_adc_ex.c ****       hadc->Instance->JOFR2 &= ~(ADC_JOFR2_JOFFSET2);
 931:./Libraries/STM32F4xx_HAL_Driver/Src/stm32f4xx_hal_adc_ex.c ****       hadc->Instance->JOFR2 |= sConfigInjected->InjectedOffset;
 932:./Libraries/STM32F4xx_HAL_Driver/Src/stm32f4xx_hal_adc_ex.c ****       break;
 933:./Libraries/STM32F4xx_HAL_Driver/Src/stm32f4xx_hal_adc_ex.c ****     case 3U:
 934:./Libraries/STM32F4xx_HAL_Driver/Src/stm32f4xx_hal_adc_ex.c ****       /* Set injected channel 3 offset */
 935:./Libraries/STM32F4xx_HAL_Driver/Src/stm32f4xx_hal_adc_ex.c ****       hadc->Instance->JOFR3 &= ~(ADC_JOFR3_JOFFSET3);
 936:./Libraries/STM32F4xx_HAL_Driver/Src/stm32f4xx_hal_adc_ex.c ****       hadc->Instance->JOFR3 |= sConfigInjected->InjectedOffset;
 937:./Libraries/STM32F4xx_HAL_Driver/Src/stm32f4xx_hal_adc_ex.c ****       break;
 938:./Libraries/STM32F4xx_HAL_Driver/Src/stm32f4xx_hal_adc_ex.c ****     default:
 939:./Libraries/STM32F4xx_HAL_Driver/Src/stm32f4xx_hal_adc_ex.c ****       /* Set injected channel 4 offset */
 940:./Libraries/STM32F4xx_HAL_Driver/Src/stm32f4xx_hal_adc_ex.c ****       hadc->Instance->JOFR4 &= ~(ADC_JOFR4_JOFFSET4);
 941:./Libraries/STM32F4xx_HAL_Driver/Src/stm32f4xx_hal_adc_ex.c ****       hadc->Instance->JOFR4 |= sConfigInjected->InjectedOffset;
 942:./Libraries/STM32F4xx_HAL_Driver/Src/stm32f4xx_hal_adc_ex.c ****       break;
ARM GAS  /tmp/ccqyivU0.s 			page 18


 943:./Libraries/STM32F4xx_HAL_Driver/Src/stm32f4xx_hal_adc_ex.c ****   }
 944:./Libraries/STM32F4xx_HAL_Driver/Src/stm32f4xx_hal_adc_ex.c **** 
 945:./Libraries/STM32F4xx_HAL_Driver/Src/stm32f4xx_hal_adc_ex.c ****   /* Pointer to the common control register to which is belonging hadc    */
 946:./Libraries/STM32F4xx_HAL_Driver/Src/stm32f4xx_hal_adc_ex.c ****   /* (Depending on STM32F4 product, there may be up to 3 ADC and 1 common */
 947:./Libraries/STM32F4xx_HAL_Driver/Src/stm32f4xx_hal_adc_ex.c ****   /* control register)                                                    */
 948:./Libraries/STM32F4xx_HAL_Driver/Src/stm32f4xx_hal_adc_ex.c ****     tmpADC_Common = ADC_COMMON_REGISTER(hadc);
 949:./Libraries/STM32F4xx_HAL_Driver/Src/stm32f4xx_hal_adc_ex.c **** 
 950:./Libraries/STM32F4xx_HAL_Driver/Src/stm32f4xx_hal_adc_ex.c ****   /* if ADC1 Channel_18 is selected enable VBAT Channel */
 951:./Libraries/STM32F4xx_HAL_Driver/Src/stm32f4xx_hal_adc_ex.c ****   if ((hadc->Instance == ADC1) && (sConfigInjected->InjectedChannel == ADC_CHANNEL_VBAT))
 952:./Libraries/STM32F4xx_HAL_Driver/Src/stm32f4xx_hal_adc_ex.c ****   {
 953:./Libraries/STM32F4xx_HAL_Driver/Src/stm32f4xx_hal_adc_ex.c ****     /* Enable the VBAT channel*/
 954:./Libraries/STM32F4xx_HAL_Driver/Src/stm32f4xx_hal_adc_ex.c ****     tmpADC_Common->CCR |= ADC_CCR_VBATE;
 955:./Libraries/STM32F4xx_HAL_Driver/Src/stm32f4xx_hal_adc_ex.c ****   }
 956:./Libraries/STM32F4xx_HAL_Driver/Src/stm32f4xx_hal_adc_ex.c ****   
 957:./Libraries/STM32F4xx_HAL_Driver/Src/stm32f4xx_hal_adc_ex.c ****   /* if ADC1 Channel_16 or Channel_17 is selected enable TSVREFE Channel(Temperature sensor and VRE
 958:./Libraries/STM32F4xx_HAL_Driver/Src/stm32f4xx_hal_adc_ex.c ****   if ((hadc->Instance == ADC1) && ((sConfigInjected->InjectedChannel == ADC_CHANNEL_TEMPSENSOR) || 
 959:./Libraries/STM32F4xx_HAL_Driver/Src/stm32f4xx_hal_adc_ex.c ****   {
 960:./Libraries/STM32F4xx_HAL_Driver/Src/stm32f4xx_hal_adc_ex.c ****     /* Enable the TSVREFE channel*/
 961:./Libraries/STM32F4xx_HAL_Driver/Src/stm32f4xx_hal_adc_ex.c ****     tmpADC_Common->CCR |= ADC_CCR_TSVREFE;
 962:./Libraries/STM32F4xx_HAL_Driver/Src/stm32f4xx_hal_adc_ex.c ****   }
 963:./Libraries/STM32F4xx_HAL_Driver/Src/stm32f4xx_hal_adc_ex.c ****   
 964:./Libraries/STM32F4xx_HAL_Driver/Src/stm32f4xx_hal_adc_ex.c ****   /* Process unlocked */
 965:./Libraries/STM32F4xx_HAL_Driver/Src/stm32f4xx_hal_adc_ex.c ****   __HAL_UNLOCK(hadc);
 966:./Libraries/STM32F4xx_HAL_Driver/Src/stm32f4xx_hal_adc_ex.c ****   
 967:./Libraries/STM32F4xx_HAL_Driver/Src/stm32f4xx_hal_adc_ex.c ****   /* Return function status */
 968:./Libraries/STM32F4xx_HAL_Driver/Src/stm32f4xx_hal_adc_ex.c ****   return HAL_OK;
 969:./Libraries/STM32F4xx_HAL_Driver/Src/stm32f4xx_hal_adc_ex.c **** }
 970:./Libraries/STM32F4xx_HAL_Driver/Src/stm32f4xx_hal_adc_ex.c **** 
 971:./Libraries/STM32F4xx_HAL_Driver/Src/stm32f4xx_hal_adc_ex.c **** /**
 972:./Libraries/STM32F4xx_HAL_Driver/Src/stm32f4xx_hal_adc_ex.c ****   * @brief  Configures the ADC multi-mode 
 973:./Libraries/STM32F4xx_HAL_Driver/Src/stm32f4xx_hal_adc_ex.c ****   * @param  hadc       pointer to a ADC_HandleTypeDef structure that contains
 974:./Libraries/STM32F4xx_HAL_Driver/Src/stm32f4xx_hal_adc_ex.c ****   *                     the configuration information for the specified ADC.  
 975:./Libraries/STM32F4xx_HAL_Driver/Src/stm32f4xx_hal_adc_ex.c ****   * @param  multimode  pointer to an ADC_MultiModeTypeDef structure that contains 
 976:./Libraries/STM32F4xx_HAL_Driver/Src/stm32f4xx_hal_adc_ex.c ****   *                     the configuration information for  multimode.
 977:./Libraries/STM32F4xx_HAL_Driver/Src/stm32f4xx_hal_adc_ex.c ****   * @retval HAL status
 978:./Libraries/STM32F4xx_HAL_Driver/Src/stm32f4xx_hal_adc_ex.c ****   */
 979:./Libraries/STM32F4xx_HAL_Driver/Src/stm32f4xx_hal_adc_ex.c **** HAL_StatusTypeDef HAL_ADCEx_MultiModeConfigChannel(ADC_HandleTypeDef* hadc, ADC_MultiModeTypeDef* m
 980:./Libraries/STM32F4xx_HAL_Driver/Src/stm32f4xx_hal_adc_ex.c **** {
 981:./Libraries/STM32F4xx_HAL_Driver/Src/stm32f4xx_hal_adc_ex.c **** 
 982:./Libraries/STM32F4xx_HAL_Driver/Src/stm32f4xx_hal_adc_ex.c ****   ADC_Common_TypeDef *tmpADC_Common;
 983:./Libraries/STM32F4xx_HAL_Driver/Src/stm32f4xx_hal_adc_ex.c **** 
 984:./Libraries/STM32F4xx_HAL_Driver/Src/stm32f4xx_hal_adc_ex.c ****   /* Check the parameters */
 985:./Libraries/STM32F4xx_HAL_Driver/Src/stm32f4xx_hal_adc_ex.c ****   assert_param(IS_ADC_MODE(multimode->Mode));
 986:./Libraries/STM32F4xx_HAL_Driver/Src/stm32f4xx_hal_adc_ex.c ****   assert_param(IS_ADC_DMA_ACCESS_MODE(multimode->DMAAccessMode));
 987:./Libraries/STM32F4xx_HAL_Driver/Src/stm32f4xx_hal_adc_ex.c ****   assert_param(IS_ADC_SAMPLING_DELAY(multimode->TwoSamplingDelay));
 988:./Libraries/STM32F4xx_HAL_Driver/Src/stm32f4xx_hal_adc_ex.c ****   
 989:./Libraries/STM32F4xx_HAL_Driver/Src/stm32f4xx_hal_adc_ex.c ****   /* Process locked */
 990:./Libraries/STM32F4xx_HAL_Driver/Src/stm32f4xx_hal_adc_ex.c ****   __HAL_LOCK(hadc);
 991:./Libraries/STM32F4xx_HAL_Driver/Src/stm32f4xx_hal_adc_ex.c **** 
 992:./Libraries/STM32F4xx_HAL_Driver/Src/stm32f4xx_hal_adc_ex.c ****   /* Pointer to the common control register to which is belonging hadc    */
 993:./Libraries/STM32F4xx_HAL_Driver/Src/stm32f4xx_hal_adc_ex.c ****   /* (Depending on STM32F4 product, there may be up to 3 ADC and 1 common */
 994:./Libraries/STM32F4xx_HAL_Driver/Src/stm32f4xx_hal_adc_ex.c ****   /* control register)                                                    */
 995:./Libraries/STM32F4xx_HAL_Driver/Src/stm32f4xx_hal_adc_ex.c ****   tmpADC_Common = ADC_COMMON_REGISTER(hadc);
 996:./Libraries/STM32F4xx_HAL_Driver/Src/stm32f4xx_hal_adc_ex.c **** 
 997:./Libraries/STM32F4xx_HAL_Driver/Src/stm32f4xx_hal_adc_ex.c ****   /* Set ADC mode */
 998:./Libraries/STM32F4xx_HAL_Driver/Src/stm32f4xx_hal_adc_ex.c ****   tmpADC_Common->CCR &= ~(ADC_CCR_MULTI);
 999:./Libraries/STM32F4xx_HAL_Driver/Src/stm32f4xx_hal_adc_ex.c ****   tmpADC_Common->CCR |= multimode->Mode;
ARM GAS  /tmp/ccqyivU0.s 			page 19


1000:./Libraries/STM32F4xx_HAL_Driver/Src/stm32f4xx_hal_adc_ex.c ****   
1001:./Libraries/STM32F4xx_HAL_Driver/Src/stm32f4xx_hal_adc_ex.c ****   /* Set the ADC DMA access mode */
1002:./Libraries/STM32F4xx_HAL_Driver/Src/stm32f4xx_hal_adc_ex.c ****   tmpADC_Common->CCR &= ~(ADC_CCR_DMA);
1003:./Libraries/STM32F4xx_HAL_Driver/Src/stm32f4xx_hal_adc_ex.c ****   tmpADC_Common->CCR |= multimode->DMAAccessMode;
1004:./Libraries/STM32F4xx_HAL_Driver/Src/stm32f4xx_hal_adc_ex.c ****   
1005:./Libraries/STM32F4xx_HAL_Driver/Src/stm32f4xx_hal_adc_ex.c ****   /* Set delay between two sampling phases */
1006:./Libraries/STM32F4xx_HAL_Driver/Src/stm32f4xx_hal_adc_ex.c ****   tmpADC_Common->CCR &= ~(ADC_CCR_DELAY);
1007:./Libraries/STM32F4xx_HAL_Driver/Src/stm32f4xx_hal_adc_ex.c ****   tmpADC_Common->CCR |= multimode->TwoSamplingDelay;
1008:./Libraries/STM32F4xx_HAL_Driver/Src/stm32f4xx_hal_adc_ex.c ****   
1009:./Libraries/STM32F4xx_HAL_Driver/Src/stm32f4xx_hal_adc_ex.c ****   /* Process unlocked */
1010:./Libraries/STM32F4xx_HAL_Driver/Src/stm32f4xx_hal_adc_ex.c ****   __HAL_UNLOCK(hadc);
1011:./Libraries/STM32F4xx_HAL_Driver/Src/stm32f4xx_hal_adc_ex.c ****   
1012:./Libraries/STM32F4xx_HAL_Driver/Src/stm32f4xx_hal_adc_ex.c ****   /* Return function status */
1013:./Libraries/STM32F4xx_HAL_Driver/Src/stm32f4xx_hal_adc_ex.c ****   return HAL_OK;
1014:./Libraries/STM32F4xx_HAL_Driver/Src/stm32f4xx_hal_adc_ex.c **** }
1015:./Libraries/STM32F4xx_HAL_Driver/Src/stm32f4xx_hal_adc_ex.c **** 
1016:./Libraries/STM32F4xx_HAL_Driver/Src/stm32f4xx_hal_adc_ex.c **** /**
1017:./Libraries/STM32F4xx_HAL_Driver/Src/stm32f4xx_hal_adc_ex.c ****   * @}
1018:./Libraries/STM32F4xx_HAL_Driver/Src/stm32f4xx_hal_adc_ex.c ****   */
1019:./Libraries/STM32F4xx_HAL_Driver/Src/stm32f4xx_hal_adc_ex.c **** 
1020:./Libraries/STM32F4xx_HAL_Driver/Src/stm32f4xx_hal_adc_ex.c **** /**
1021:./Libraries/STM32F4xx_HAL_Driver/Src/stm32f4xx_hal_adc_ex.c ****   * @brief  DMA transfer complete callback. 
1022:./Libraries/STM32F4xx_HAL_Driver/Src/stm32f4xx_hal_adc_ex.c ****   * @param  hdma pointer to a DMA_HandleTypeDef structure that contains
1023:./Libraries/STM32F4xx_HAL_Driver/Src/stm32f4xx_hal_adc_ex.c ****   *                the configuration information for the specified DMA module.
1024:./Libraries/STM32F4xx_HAL_Driver/Src/stm32f4xx_hal_adc_ex.c ****   * @retval None
1025:./Libraries/STM32F4xx_HAL_Driver/Src/stm32f4xx_hal_adc_ex.c ****   */
1026:./Libraries/STM32F4xx_HAL_Driver/Src/stm32f4xx_hal_adc_ex.c **** static void ADC_MultiModeDMAConvCplt(DMA_HandleTypeDef *hdma)   
1027:./Libraries/STM32F4xx_HAL_Driver/Src/stm32f4xx_hal_adc_ex.c **** {
1028:./Libraries/STM32F4xx_HAL_Driver/Src/stm32f4xx_hal_adc_ex.c ****   /* Retrieve ADC handle corresponding to current DMA handle */
1029:./Libraries/STM32F4xx_HAL_Driver/Src/stm32f4xx_hal_adc_ex.c ****   ADC_HandleTypeDef* hadc = ( ADC_HandleTypeDef* )((DMA_HandleTypeDef* )hdma)->Parent;
1030:./Libraries/STM32F4xx_HAL_Driver/Src/stm32f4xx_hal_adc_ex.c ****   
1031:./Libraries/STM32F4xx_HAL_Driver/Src/stm32f4xx_hal_adc_ex.c ****   /* Update state machine on conversion status if not in error state */
1032:./Libraries/STM32F4xx_HAL_Driver/Src/stm32f4xx_hal_adc_ex.c ****   if (HAL_IS_BIT_CLR(hadc->State, HAL_ADC_STATE_ERROR_INTERNAL | HAL_ADC_STATE_ERROR_DMA))
1033:./Libraries/STM32F4xx_HAL_Driver/Src/stm32f4xx_hal_adc_ex.c ****   {
1034:./Libraries/STM32F4xx_HAL_Driver/Src/stm32f4xx_hal_adc_ex.c ****     /* Update ADC state machine */
1035:./Libraries/STM32F4xx_HAL_Driver/Src/stm32f4xx_hal_adc_ex.c ****     SET_BIT(hadc->State, HAL_ADC_STATE_REG_EOC);
1036:./Libraries/STM32F4xx_HAL_Driver/Src/stm32f4xx_hal_adc_ex.c ****     
1037:./Libraries/STM32F4xx_HAL_Driver/Src/stm32f4xx_hal_adc_ex.c ****     /* Determine whether any further conversion upcoming on group regular   */
1038:./Libraries/STM32F4xx_HAL_Driver/Src/stm32f4xx_hal_adc_ex.c ****     /* by external trigger, continuous mode or scan sequence on going.      */
1039:./Libraries/STM32F4xx_HAL_Driver/Src/stm32f4xx_hal_adc_ex.c ****     /* Note: On STM32F4, there is no independent flag of end of sequence.   */
1040:./Libraries/STM32F4xx_HAL_Driver/Src/stm32f4xx_hal_adc_ex.c ****     /*       The test of scan sequence on going is done either with scan    */
1041:./Libraries/STM32F4xx_HAL_Driver/Src/stm32f4xx_hal_adc_ex.c ****     /*       sequence disabled or with end of conversion flag set to        */
1042:./Libraries/STM32F4xx_HAL_Driver/Src/stm32f4xx_hal_adc_ex.c ****     /*       of end of sequence.                                            */
1043:./Libraries/STM32F4xx_HAL_Driver/Src/stm32f4xx_hal_adc_ex.c ****     if(ADC_IS_SOFTWARE_START_REGULAR(hadc)                   &&
1044:./Libraries/STM32F4xx_HAL_Driver/Src/stm32f4xx_hal_adc_ex.c ****        (hadc->Init.ContinuousConvMode == DISABLE)            &&
1045:./Libraries/STM32F4xx_HAL_Driver/Src/stm32f4xx_hal_adc_ex.c ****        (HAL_IS_BIT_CLR(hadc->Instance->SQR1, ADC_SQR1_L) || 
1046:./Libraries/STM32F4xx_HAL_Driver/Src/stm32f4xx_hal_adc_ex.c ****         HAL_IS_BIT_CLR(hadc->Instance->CR2, ADC_CR2_EOCS)  )   )
1047:./Libraries/STM32F4xx_HAL_Driver/Src/stm32f4xx_hal_adc_ex.c ****     {
1048:./Libraries/STM32F4xx_HAL_Driver/Src/stm32f4xx_hal_adc_ex.c ****       /* Disable ADC end of single conversion interrupt on group regular */
1049:./Libraries/STM32F4xx_HAL_Driver/Src/stm32f4xx_hal_adc_ex.c ****       /* Note: Overrun interrupt was enabled with EOC interrupt in          */
1050:./Libraries/STM32F4xx_HAL_Driver/Src/stm32f4xx_hal_adc_ex.c ****       /* HAL_ADC_Start_IT(), but is not disabled here because can be used   */
1051:./Libraries/STM32F4xx_HAL_Driver/Src/stm32f4xx_hal_adc_ex.c ****       /* by overrun IRQ process below.                                      */
1052:./Libraries/STM32F4xx_HAL_Driver/Src/stm32f4xx_hal_adc_ex.c ****       __HAL_ADC_DISABLE_IT(hadc, ADC_IT_EOC);
1053:./Libraries/STM32F4xx_HAL_Driver/Src/stm32f4xx_hal_adc_ex.c ****       
1054:./Libraries/STM32F4xx_HAL_Driver/Src/stm32f4xx_hal_adc_ex.c ****       /* Set ADC state */
1055:./Libraries/STM32F4xx_HAL_Driver/Src/stm32f4xx_hal_adc_ex.c ****       CLEAR_BIT(hadc->State, HAL_ADC_STATE_REG_BUSY);   
1056:./Libraries/STM32F4xx_HAL_Driver/Src/stm32f4xx_hal_adc_ex.c ****       
ARM GAS  /tmp/ccqyivU0.s 			page 20


1057:./Libraries/STM32F4xx_HAL_Driver/Src/stm32f4xx_hal_adc_ex.c ****       if (HAL_IS_BIT_CLR(hadc->State, HAL_ADC_STATE_INJ_BUSY))
1058:./Libraries/STM32F4xx_HAL_Driver/Src/stm32f4xx_hal_adc_ex.c ****       {
1059:./Libraries/STM32F4xx_HAL_Driver/Src/stm32f4xx_hal_adc_ex.c ****         SET_BIT(hadc->State, HAL_ADC_STATE_READY);
1060:./Libraries/STM32F4xx_HAL_Driver/Src/stm32f4xx_hal_adc_ex.c ****       }
1061:./Libraries/STM32F4xx_HAL_Driver/Src/stm32f4xx_hal_adc_ex.c ****     }
1062:./Libraries/STM32F4xx_HAL_Driver/Src/stm32f4xx_hal_adc_ex.c ****     
1063:./Libraries/STM32F4xx_HAL_Driver/Src/stm32f4xx_hal_adc_ex.c ****     /* Conversion complete callback */
1064:./Libraries/STM32F4xx_HAL_Driver/Src/stm32f4xx_hal_adc_ex.c ****     HAL_ADC_ConvCpltCallback(hadc);
1065:./Libraries/STM32F4xx_HAL_Driver/Src/stm32f4xx_hal_adc_ex.c ****   }
1066:./Libraries/STM32F4xx_HAL_Driver/Src/stm32f4xx_hal_adc_ex.c ****   else
1067:./Libraries/STM32F4xx_HAL_Driver/Src/stm32f4xx_hal_adc_ex.c ****   {
1068:./Libraries/STM32F4xx_HAL_Driver/Src/stm32f4xx_hal_adc_ex.c ****     /* Call DMA error callback */
1069:./Libraries/STM32F4xx_HAL_Driver/Src/stm32f4xx_hal_adc_ex.c ****     hadc->DMA_Handle->XferErrorCallback(hdma);
1070:./Libraries/STM32F4xx_HAL_Driver/Src/stm32f4xx_hal_adc_ex.c ****   }
1071:./Libraries/STM32F4xx_HAL_Driver/Src/stm32f4xx_hal_adc_ex.c **** }
1072:./Libraries/STM32F4xx_HAL_Driver/Src/stm32f4xx_hal_adc_ex.c **** 
1073:./Libraries/STM32F4xx_HAL_Driver/Src/stm32f4xx_hal_adc_ex.c **** /**
1074:./Libraries/STM32F4xx_HAL_Driver/Src/stm32f4xx_hal_adc_ex.c ****   * @brief  DMA half transfer complete callback. 
1075:./Libraries/STM32F4xx_HAL_Driver/Src/stm32f4xx_hal_adc_ex.c ****   * @param  hdma pointer to a DMA_HandleTypeDef structure that contains
1076:./Libraries/STM32F4xx_HAL_Driver/Src/stm32f4xx_hal_adc_ex.c ****   *                the configuration information for the specified DMA module.
1077:./Libraries/STM32F4xx_HAL_Driver/Src/stm32f4xx_hal_adc_ex.c ****   * @retval None
1078:./Libraries/STM32F4xx_HAL_Driver/Src/stm32f4xx_hal_adc_ex.c ****   */
1079:./Libraries/STM32F4xx_HAL_Driver/Src/stm32f4xx_hal_adc_ex.c **** static void ADC_MultiModeDMAHalfConvCplt(DMA_HandleTypeDef *hdma)   
1080:./Libraries/STM32F4xx_HAL_Driver/Src/stm32f4xx_hal_adc_ex.c **** {
1081:./Libraries/STM32F4xx_HAL_Driver/Src/stm32f4xx_hal_adc_ex.c ****     ADC_HandleTypeDef* hadc = ( ADC_HandleTypeDef* )((DMA_HandleTypeDef* )hdma)->Parent;
1082:./Libraries/STM32F4xx_HAL_Driver/Src/stm32f4xx_hal_adc_ex.c ****     /* Conversion complete callback */
1083:./Libraries/STM32F4xx_HAL_Driver/Src/stm32f4xx_hal_adc_ex.c ****     HAL_ADC_ConvHalfCpltCallback(hadc); 
1084:./Libraries/STM32F4xx_HAL_Driver/Src/stm32f4xx_hal_adc_ex.c **** }
1085:./Libraries/STM32F4xx_HAL_Driver/Src/stm32f4xx_hal_adc_ex.c **** 
1086:./Libraries/STM32F4xx_HAL_Driver/Src/stm32f4xx_hal_adc_ex.c **** /**
1087:./Libraries/STM32F4xx_HAL_Driver/Src/stm32f4xx_hal_adc_ex.c ****   * @brief  DMA error callback 
1088:./Libraries/STM32F4xx_HAL_Driver/Src/stm32f4xx_hal_adc_ex.c ****   * @param  hdma pointer to a DMA_HandleTypeDef structure that contains
1089:./Libraries/STM32F4xx_HAL_Driver/Src/stm32f4xx_hal_adc_ex.c ****   *                the configuration information for the specified DMA module.
1090:./Libraries/STM32F4xx_HAL_Driver/Src/stm32f4xx_hal_adc_ex.c ****   * @retval None
1091:./Libraries/STM32F4xx_HAL_Driver/Src/stm32f4xx_hal_adc_ex.c ****   */
1092:./Libraries/STM32F4xx_HAL_Driver/Src/stm32f4xx_hal_adc_ex.c **** static void ADC_MultiModeDMAError(DMA_HandleTypeDef *hdma)   
1093:./Libraries/STM32F4xx_HAL_Driver/Src/stm32f4xx_hal_adc_ex.c **** {
  29              		.loc 1 1093 1 view -0
  30              		.cfi_startproc
  31              		@ args = 0, pretend = 0, frame = 0
  32              		@ frame_needed = 0, uses_anonymous_args = 0
  33              		.loc 1 1093 1 is_stmt 0 view .LVU1
  34 0000 08B5     		push	{r3, lr}
  35              	.LCFI0:
  36              		.cfi_def_cfa_offset 8
  37              		.cfi_offset 3, -8
  38              		.cfi_offset 14, -4
1094:./Libraries/STM32F4xx_HAL_Driver/Src/stm32f4xx_hal_adc_ex.c ****     ADC_HandleTypeDef* hadc = ( ADC_HandleTypeDef* )((DMA_HandleTypeDef* )hdma)->Parent;
  39              		.loc 1 1094 5 is_stmt 1 view .LVU2
  40              		.loc 1 1094 24 is_stmt 0 view .LVU3
  41 0002 806B     		ldr	r0, [r0, #56]
  42              	.LVL1:
1095:./Libraries/STM32F4xx_HAL_Driver/Src/stm32f4xx_hal_adc_ex.c ****     hadc->State= HAL_ADC_STATE_ERROR_DMA;
  43              		.loc 1 1095 5 is_stmt 1 view .LVU4
  44              		.loc 1 1095 16 is_stmt 0 view .LVU5
  45 0004 4023     		movs	r3, #64
  46 0006 0364     		str	r3, [r0, #64]
ARM GAS  /tmp/ccqyivU0.s 			page 21


1096:./Libraries/STM32F4xx_HAL_Driver/Src/stm32f4xx_hal_adc_ex.c ****     /* Set ADC error code to DMA error */
1097:./Libraries/STM32F4xx_HAL_Driver/Src/stm32f4xx_hal_adc_ex.c ****     hadc->ErrorCode |= HAL_ADC_ERROR_DMA;
  47              		.loc 1 1097 5 is_stmt 1 view .LVU6
  48              		.loc 1 1097 21 is_stmt 0 view .LVU7
  49 0008 436C     		ldr	r3, [r0, #68]
  50 000a 43F00403 		orr	r3, r3, #4
  51 000e 4364     		str	r3, [r0, #68]
1098:./Libraries/STM32F4xx_HAL_Driver/Src/stm32f4xx_hal_adc_ex.c ****     HAL_ADC_ErrorCallback(hadc); 
  52              		.loc 1 1098 5 is_stmt 1 view .LVU8
  53 0010 FFF7FEFF 		bl	HAL_ADC_ErrorCallback
  54              	.LVL2:
1099:./Libraries/STM32F4xx_HAL_Driver/Src/stm32f4xx_hal_adc_ex.c **** }
  55              		.loc 1 1099 1 is_stmt 0 view .LVU9
  56 0014 08BD     		pop	{r3, pc}
  57              		.cfi_endproc
  58              	.LFE140:
  60              		.section	.text.ADC_MultiModeDMAHalfConvCplt,"ax",%progbits
  61              		.align	1
  62              		.syntax unified
  63              		.thumb
  64              		.thumb_func
  65              		.fpu fpv4-sp-d16
  67              	ADC_MultiModeDMAHalfConvCplt:
  68              	.LVL3:
  69              	.LFB139:
1080:./Libraries/STM32F4xx_HAL_Driver/Src/stm32f4xx_hal_adc_ex.c ****     ADC_HandleTypeDef* hadc = ( ADC_HandleTypeDef* )((DMA_HandleTypeDef* )hdma)->Parent;
  70              		.loc 1 1080 1 is_stmt 1 view -0
  71              		.cfi_startproc
  72              		@ args = 0, pretend = 0, frame = 0
  73              		@ frame_needed = 0, uses_anonymous_args = 0
1080:./Libraries/STM32F4xx_HAL_Driver/Src/stm32f4xx_hal_adc_ex.c ****     ADC_HandleTypeDef* hadc = ( ADC_HandleTypeDef* )((DMA_HandleTypeDef* )hdma)->Parent;
  74              		.loc 1 1080 1 is_stmt 0 view .LVU11
  75 0000 08B5     		push	{r3, lr}
  76              	.LCFI1:
  77              		.cfi_def_cfa_offset 8
  78              		.cfi_offset 3, -8
  79              		.cfi_offset 14, -4
1081:./Libraries/STM32F4xx_HAL_Driver/Src/stm32f4xx_hal_adc_ex.c ****     /* Conversion complete callback */
  80              		.loc 1 1081 5 is_stmt 1 view .LVU12
  81              	.LVL4:
1083:./Libraries/STM32F4xx_HAL_Driver/Src/stm32f4xx_hal_adc_ex.c **** }
  82              		.loc 1 1083 5 view .LVU13
  83 0002 806B     		ldr	r0, [r0, #56]
  84              	.LVL5:
1083:./Libraries/STM32F4xx_HAL_Driver/Src/stm32f4xx_hal_adc_ex.c **** }
  85              		.loc 1 1083 5 is_stmt 0 view .LVU14
  86 0004 FFF7FEFF 		bl	HAL_ADC_ConvHalfCpltCallback
  87              	.LVL6:
1084:./Libraries/STM32F4xx_HAL_Driver/Src/stm32f4xx_hal_adc_ex.c **** 
  88              		.loc 1 1084 1 view .LVU15
  89 0008 08BD     		pop	{r3, pc}
  90              		.cfi_endproc
  91              	.LFE139:
  93              		.section	.text.ADC_MultiModeDMAConvCplt,"ax",%progbits
  94              		.align	1
  95              		.syntax unified
  96              		.thumb
ARM GAS  /tmp/ccqyivU0.s 			page 22


  97              		.thumb_func
  98              		.fpu fpv4-sp-d16
 100              	ADC_MultiModeDMAConvCplt:
 101              	.LVL7:
 102              	.LFB138:
1027:./Libraries/STM32F4xx_HAL_Driver/Src/stm32f4xx_hal_adc_ex.c ****   /* Retrieve ADC handle corresponding to current DMA handle */
 103              		.loc 1 1027 1 is_stmt 1 view -0
 104              		.cfi_startproc
 105              		@ args = 0, pretend = 0, frame = 0
 106              		@ frame_needed = 0, uses_anonymous_args = 0
1027:./Libraries/STM32F4xx_HAL_Driver/Src/stm32f4xx_hal_adc_ex.c ****   /* Retrieve ADC handle corresponding to current DMA handle */
 107              		.loc 1 1027 1 is_stmt 0 view .LVU17
 108 0000 08B5     		push	{r3, lr}
 109              	.LCFI2:
 110              		.cfi_def_cfa_offset 8
 111              		.cfi_offset 3, -8
 112              		.cfi_offset 14, -4
1029:./Libraries/STM32F4xx_HAL_Driver/Src/stm32f4xx_hal_adc_ex.c ****   
 113              		.loc 1 1029 3 is_stmt 1 view .LVU18
1029:./Libraries/STM32F4xx_HAL_Driver/Src/stm32f4xx_hal_adc_ex.c ****   
 114              		.loc 1 1029 22 is_stmt 0 view .LVU19
 115 0002 836B     		ldr	r3, [r0, #56]
 116              	.LVL8:
1032:./Libraries/STM32F4xx_HAL_Driver/Src/stm32f4xx_hal_adc_ex.c ****   {
 117              		.loc 1 1032 3 is_stmt 1 view .LVU20
1032:./Libraries/STM32F4xx_HAL_Driver/Src/stm32f4xx_hal_adc_ex.c ****   {
 118              		.loc 1 1032 7 is_stmt 0 view .LVU21
 119 0004 1A6C     		ldr	r2, [r3, #64]
1032:./Libraries/STM32F4xx_HAL_Driver/Src/stm32f4xx_hal_adc_ex.c ****   {
 120              		.loc 1 1032 6 view .LVU22
 121 0006 12F0500F 		tst	r2, #80
 122 000a 26D1     		bne	.L6
1035:./Libraries/STM32F4xx_HAL_Driver/Src/stm32f4xx_hal_adc_ex.c ****     
 123              		.loc 1 1035 5 is_stmt 1 view .LVU23
 124 000c 1A6C     		ldr	r2, [r3, #64]
 125 000e 42F40072 		orr	r2, r2, #512
 126 0012 1A64     		str	r2, [r3, #64]
1043:./Libraries/STM32F4xx_HAL_Driver/Src/stm32f4xx_hal_adc_ex.c ****        (hadc->Init.ContinuousConvMode == DISABLE)            &&
 127              		.loc 1 1043 5 view .LVU24
1043:./Libraries/STM32F4xx_HAL_Driver/Src/stm32f4xx_hal_adc_ex.c ****        (hadc->Init.ContinuousConvMode == DISABLE)            &&
 128              		.loc 1 1043 8 is_stmt 0 view .LVU25
 129 0014 1A68     		ldr	r2, [r3]
 130 0016 9168     		ldr	r1, [r2, #8]
1043:./Libraries/STM32F4xx_HAL_Driver/Src/stm32f4xx_hal_adc_ex.c ****        (hadc->Init.ContinuousConvMode == DISABLE)            &&
 131              		.loc 1 1043 7 view .LVU26
 132 0018 11F0405F 		tst	r1, #805306368
 133 001c 19D1     		bne	.L7
1044:./Libraries/STM32F4xx_HAL_Driver/Src/stm32f4xx_hal_adc_ex.c ****        (HAL_IS_BIT_CLR(hadc->Instance->SQR1, ADC_SQR1_L) || 
 134              		.loc 1 1044 19 discriminator 1 view .LVU27
 135 001e 9969     		ldr	r1, [r3, #24]
1043:./Libraries/STM32F4xx_HAL_Driver/Src/stm32f4xx_hal_adc_ex.c ****        (hadc->Init.ContinuousConvMode == DISABLE)            &&
 136              		.loc 1 1043 62 discriminator 1 view .LVU28
 137 0020 B9B9     		cbnz	r1, .L7
1045:./Libraries/STM32F4xx_HAL_Driver/Src/stm32f4xx_hal_adc_ex.c ****         HAL_IS_BIT_CLR(hadc->Instance->CR2, ADC_CR2_EOCS)  )   )
 138              		.loc 1 1045 9 view .LVU29
 139 0022 D16A     		ldr	r1, [r2, #44]
1044:./Libraries/STM32F4xx_HAL_Driver/Src/stm32f4xx_hal_adc_ex.c ****        (HAL_IS_BIT_CLR(hadc->Instance->SQR1, ADC_SQR1_L) || 
ARM GAS  /tmp/ccqyivU0.s 			page 23


 140              		.loc 1 1044 62 view .LVU30
 141 0024 11F4700F 		tst	r1, #15728640
 142 0028 03D0     		beq	.L8
1046:./Libraries/STM32F4xx_HAL_Driver/Src/stm32f4xx_hal_adc_ex.c ****     {
 143              		.loc 1 1046 9 view .LVU31
 144 002a 9168     		ldr	r1, [r2, #8]
1045:./Libraries/STM32F4xx_HAL_Driver/Src/stm32f4xx_hal_adc_ex.c ****         HAL_IS_BIT_CLR(hadc->Instance->CR2, ADC_CR2_EOCS)  )   )
 145              		.loc 1 1045 58 view .LVU32
 146 002c 11F4806F 		tst	r1, #1024
 147 0030 0FD1     		bne	.L7
 148              	.L8:
1052:./Libraries/STM32F4xx_HAL_Driver/Src/stm32f4xx_hal_adc_ex.c ****       
 149              		.loc 1 1052 7 is_stmt 1 view .LVU33
 150 0032 5168     		ldr	r1, [r2, #4]
 151 0034 21F02001 		bic	r1, r1, #32
 152 0038 5160     		str	r1, [r2, #4]
1055:./Libraries/STM32F4xx_HAL_Driver/Src/stm32f4xx_hal_adc_ex.c ****       
 153              		.loc 1 1055 7 view .LVU34
 154 003a 1A6C     		ldr	r2, [r3, #64]
 155 003c 22F48072 		bic	r2, r2, #256
 156 0040 1A64     		str	r2, [r3, #64]
1057:./Libraries/STM32F4xx_HAL_Driver/Src/stm32f4xx_hal_adc_ex.c ****       {
 157              		.loc 1 1057 7 view .LVU35
1057:./Libraries/STM32F4xx_HAL_Driver/Src/stm32f4xx_hal_adc_ex.c ****       {
 158              		.loc 1 1057 11 is_stmt 0 view .LVU36
 159 0042 1A6C     		ldr	r2, [r3, #64]
1057:./Libraries/STM32F4xx_HAL_Driver/Src/stm32f4xx_hal_adc_ex.c ****       {
 160              		.loc 1 1057 10 view .LVU37
 161 0044 12F4805F 		tst	r2, #4096
 162 0048 03D1     		bne	.L7
1059:./Libraries/STM32F4xx_HAL_Driver/Src/stm32f4xx_hal_adc_ex.c ****       }
 163              		.loc 1 1059 9 is_stmt 1 view .LVU38
 164 004a 1A6C     		ldr	r2, [r3, #64]
 165 004c 42F00102 		orr	r2, r2, #1
 166 0050 1A64     		str	r2, [r3, #64]
 167              	.L7:
1064:./Libraries/STM32F4xx_HAL_Driver/Src/stm32f4xx_hal_adc_ex.c ****   }
 168              		.loc 1 1064 5 view .LVU39
 169 0052 1846     		mov	r0, r3
 170              	.LVL9:
1064:./Libraries/STM32F4xx_HAL_Driver/Src/stm32f4xx_hal_adc_ex.c ****   }
 171              		.loc 1 1064 5 is_stmt 0 view .LVU40
 172 0054 FFF7FEFF 		bl	HAL_ADC_ConvCpltCallback
 173              	.LVL10:
 174              	.L5:
1071:./Libraries/STM32F4xx_HAL_Driver/Src/stm32f4xx_hal_adc_ex.c **** 
 175              		.loc 1 1071 1 view .LVU41
 176 0058 08BD     		pop	{r3, pc}
 177              	.LVL11:
 178              	.L6:
1069:./Libraries/STM32F4xx_HAL_Driver/Src/stm32f4xx_hal_adc_ex.c ****   }
 179              		.loc 1 1069 5 is_stmt 1 view .LVU42
1069:./Libraries/STM32F4xx_HAL_Driver/Src/stm32f4xx_hal_adc_ex.c ****   }
 180              		.loc 1 1069 9 is_stmt 0 view .LVU43
 181 005a 9B6B     		ldr	r3, [r3, #56]
 182              	.LVL12:
1069:./Libraries/STM32F4xx_HAL_Driver/Src/stm32f4xx_hal_adc_ex.c ****   }
ARM GAS  /tmp/ccqyivU0.s 			page 24


 183              		.loc 1 1069 21 view .LVU44
 184 005c DB6C     		ldr	r3, [r3, #76]
1069:./Libraries/STM32F4xx_HAL_Driver/Src/stm32f4xx_hal_adc_ex.c ****   }
 185              		.loc 1 1069 5 view .LVU45
 186 005e 9847     		blx	r3
 187              	.LVL13:
1071:./Libraries/STM32F4xx_HAL_Driver/Src/stm32f4xx_hal_adc_ex.c **** 
 188              		.loc 1 1071 1 view .LVU46
 189 0060 FAE7     		b	.L5
 190              		.cfi_endproc
 191              	.LFE138:
 193              		.section	.text.HAL_ADCEx_InjectedStart,"ax",%progbits
 194              		.align	1
 195              		.global	HAL_ADCEx_InjectedStart
 196              		.syntax unified
 197              		.thumb
 198              		.thumb_func
 199              		.fpu fpv4-sp-d16
 201              	HAL_ADCEx_InjectedStart:
 202              	.LVL14:
 203              	.LFB126:
 176:./Libraries/STM32F4xx_HAL_Driver/Src/stm32f4xx_hal_adc_ex.c ****   __IO uint32_t counter = 0U;
 204              		.loc 1 176 1 is_stmt 1 view -0
 205              		.cfi_startproc
 206              		@ args = 0, pretend = 0, frame = 8
 207              		@ frame_needed = 0, uses_anonymous_args = 0
 208              		@ link register save eliminated.
 176:./Libraries/STM32F4xx_HAL_Driver/Src/stm32f4xx_hal_adc_ex.c ****   __IO uint32_t counter = 0U;
 209              		.loc 1 176 1 is_stmt 0 view .LVU48
 210 0000 82B0     		sub	sp, sp, #8
 211              	.LCFI3:
 212              		.cfi_def_cfa_offset 8
 177:./Libraries/STM32F4xx_HAL_Driver/Src/stm32f4xx_hal_adc_ex.c ****   uint32_t tmp1 = 0U, tmp2 = 0U;
 213              		.loc 1 177 3 is_stmt 1 view .LVU49
 177:./Libraries/STM32F4xx_HAL_Driver/Src/stm32f4xx_hal_adc_ex.c ****   uint32_t tmp1 = 0U, tmp2 = 0U;
 214              		.loc 1 177 17 is_stmt 0 view .LVU50
 215 0002 0023     		movs	r3, #0
 216 0004 0193     		str	r3, [sp, #4]
 178:./Libraries/STM32F4xx_HAL_Driver/Src/stm32f4xx_hal_adc_ex.c ****   ADC_Common_TypeDef *tmpADC_Common;
 217              		.loc 1 178 3 is_stmt 1 view .LVU51
 218              	.LVL15:
 179:./Libraries/STM32F4xx_HAL_Driver/Src/stm32f4xx_hal_adc_ex.c ****   
 219              		.loc 1 179 3 view .LVU52
 182:./Libraries/STM32F4xx_HAL_Driver/Src/stm32f4xx_hal_adc_ex.c ****   
 220              		.loc 1 182 3 view .LVU53
 182:./Libraries/STM32F4xx_HAL_Driver/Src/stm32f4xx_hal_adc_ex.c ****   
 221              		.loc 1 182 3 view .LVU54
 222 0006 90F83C30 		ldrb	r3, [r0, #60]	@ zero_extendqisi2
 223 000a 012B     		cmp	r3, #1
 224 000c 5CD0     		beq	.L18
 182:./Libraries/STM32F4xx_HAL_Driver/Src/stm32f4xx_hal_adc_ex.c ****   
 225              		.loc 1 182 3 discriminator 2 view .LVU55
 226 000e 0123     		movs	r3, #1
 227 0010 80F83C30 		strb	r3, [r0, #60]
 182:./Libraries/STM32F4xx_HAL_Driver/Src/stm32f4xx_hal_adc_ex.c ****   
 228              		.loc 1 182 3 discriminator 2 view .LVU56
 188:./Libraries/STM32F4xx_HAL_Driver/Src/stm32f4xx_hal_adc_ex.c ****   {  
ARM GAS  /tmp/ccqyivU0.s 			page 25


 229              		.loc 1 188 3 discriminator 2 view .LVU57
 188:./Libraries/STM32F4xx_HAL_Driver/Src/stm32f4xx_hal_adc_ex.c ****   {  
 230              		.loc 1 188 11 is_stmt 0 discriminator 2 view .LVU58
 231 0014 0368     		ldr	r3, [r0]
 188:./Libraries/STM32F4xx_HAL_Driver/Src/stm32f4xx_hal_adc_ex.c ****   {  
 232              		.loc 1 188 21 discriminator 2 view .LVU59
 233 0016 9A68     		ldr	r2, [r3, #8]
 188:./Libraries/STM32F4xx_HAL_Driver/Src/stm32f4xx_hal_adc_ex.c ****   {  
 234              		.loc 1 188 5 discriminator 2 view .LVU60
 235 0018 12F0010F 		tst	r2, #1
 236 001c 13D1     		bne	.L13
 191:./Libraries/STM32F4xx_HAL_Driver/Src/stm32f4xx_hal_adc_ex.c ****     
 237              		.loc 1 191 5 is_stmt 1 view .LVU61
 238 001e 9A68     		ldr	r2, [r3, #8]
 239 0020 42F00102 		orr	r2, r2, #1
 240 0024 9A60     		str	r2, [r3, #8]
 195:./Libraries/STM32F4xx_HAL_Driver/Src/stm32f4xx_hal_adc_ex.c ****     while(counter != 0U)
 241              		.loc 1 195 5 view .LVU62
 195:./Libraries/STM32F4xx_HAL_Driver/Src/stm32f4xx_hal_adc_ex.c ****     while(counter != 0U)
 242              		.loc 1 195 53 is_stmt 0 view .LVU63
 243 0026 2F4B     		ldr	r3, .L27
 244 0028 1B68     		ldr	r3, [r3]
 245 002a 2F4A     		ldr	r2, .L27+4
 246 002c A2FB0323 		umull	r2, r3, r2, r3
 247 0030 9B0C     		lsrs	r3, r3, #18
 195:./Libraries/STM32F4xx_HAL_Driver/Src/stm32f4xx_hal_adc_ex.c ****     while(counter != 0U)
 248              		.loc 1 195 34 view .LVU64
 249 0032 03EB4303 		add	r3, r3, r3, lsl #1
 195:./Libraries/STM32F4xx_HAL_Driver/Src/stm32f4xx_hal_adc_ex.c ****     while(counter != 0U)
 250              		.loc 1 195 13 view .LVU65
 251 0036 0193     		str	r3, [sp, #4]
 196:./Libraries/STM32F4xx_HAL_Driver/Src/stm32f4xx_hal_adc_ex.c ****     {
 252              		.loc 1 196 5 is_stmt 1 view .LVU66
 196:./Libraries/STM32F4xx_HAL_Driver/Src/stm32f4xx_hal_adc_ex.c ****     {
 253              		.loc 1 196 10 is_stmt 0 view .LVU67
 254 0038 02E0     		b	.L14
 255              	.L15:
 198:./Libraries/STM32F4xx_HAL_Driver/Src/stm32f4xx_hal_adc_ex.c ****     }
 256              		.loc 1 198 7 is_stmt 1 view .LVU68
 198:./Libraries/STM32F4xx_HAL_Driver/Src/stm32f4xx_hal_adc_ex.c ****     }
 257              		.loc 1 198 14 is_stmt 0 view .LVU69
 258 003a 019B     		ldr	r3, [sp, #4]
 259 003c 013B     		subs	r3, r3, #1
 260 003e 0193     		str	r3, [sp, #4]
 261              	.L14:
 196:./Libraries/STM32F4xx_HAL_Driver/Src/stm32f4xx_hal_adc_ex.c ****     {
 262              		.loc 1 196 10 is_stmt 1 view .LVU70
 196:./Libraries/STM32F4xx_HAL_Driver/Src/stm32f4xx_hal_adc_ex.c ****     {
 263              		.loc 1 196 19 is_stmt 0 view .LVU71
 264 0040 019B     		ldr	r3, [sp, #4]
 196:./Libraries/STM32F4xx_HAL_Driver/Src/stm32f4xx_hal_adc_ex.c ****     {
 265              		.loc 1 196 10 view .LVU72
 266 0042 002B     		cmp	r3, #0
 267 0044 F9D1     		bne	.L15
 268              	.L13:
 203:./Libraries/STM32F4xx_HAL_Driver/Src/stm32f4xx_hal_adc_ex.c ****   {
 269              		.loc 1 203 3 is_stmt 1 view .LVU73
ARM GAS  /tmp/ccqyivU0.s 			page 26


 203:./Libraries/STM32F4xx_HAL_Driver/Src/stm32f4xx_hal_adc_ex.c ****   {
 270              		.loc 1 203 6 is_stmt 0 view .LVU74
 271 0046 0268     		ldr	r2, [r0]
 272 0048 9368     		ldr	r3, [r2, #8]
 203:./Libraries/STM32F4xx_HAL_Driver/Src/stm32f4xx_hal_adc_ex.c ****   {
 273              		.loc 1 203 5 view .LVU75
 274 004a 13F0010F 		tst	r3, #1
 275 004e 3DD0     		beq	.L19
 208:./Libraries/STM32F4xx_HAL_Driver/Src/stm32f4xx_hal_adc_ex.c ****                       HAL_ADC_STATE_READY | HAL_ADC_STATE_INJ_EOC,
 276              		.loc 1 208 5 is_stmt 1 view .LVU76
 277 0050 036C     		ldr	r3, [r0, #64]
 278 0052 23F44053 		bic	r3, r3, #12288
 279 0056 23F00103 		bic	r3, r3, #1
 280 005a 43F48053 		orr	r3, r3, #4096
 281 005e 0364     		str	r3, [r0, #64]
 216:./Libraries/STM32F4xx_HAL_Driver/Src/stm32f4xx_hal_adc_ex.c ****     {
 282              		.loc 1 216 5 view .LVU77
 216:./Libraries/STM32F4xx_HAL_Driver/Src/stm32f4xx_hal_adc_ex.c ****     {
 283              		.loc 1 216 9 is_stmt 0 view .LVU78
 284 0060 036C     		ldr	r3, [r0, #64]
 216:./Libraries/STM32F4xx_HAL_Driver/Src/stm32f4xx_hal_adc_ex.c ****     {
 285              		.loc 1 216 8 view .LVU79
 286 0062 13F4807F 		tst	r3, #256
 287 0066 01D1     		bne	.L16
 219:./Libraries/STM32F4xx_HAL_Driver/Src/stm32f4xx_hal_adc_ex.c ****     }
 288              		.loc 1 219 7 is_stmt 1 view .LVU80
 289 0068 0023     		movs	r3, #0
 290 006a 4364     		str	r3, [r0, #68]
 291              	.L16:
 225:./Libraries/STM32F4xx_HAL_Driver/Src/stm32f4xx_hal_adc_ex.c ****     
 292              		.loc 1 225 5 view .LVU81
 225:./Libraries/STM32F4xx_HAL_Driver/Src/stm32f4xx_hal_adc_ex.c ****     
 293              		.loc 1 225 5 view .LVU82
 294 006c 0023     		movs	r3, #0
 295 006e 80F83C30 		strb	r3, [r0, #60]
 225:./Libraries/STM32F4xx_HAL_Driver/Src/stm32f4xx_hal_adc_ex.c ****     
 296              		.loc 1 225 5 view .LVU83
 229:./Libraries/STM32F4xx_HAL_Driver/Src/stm32f4xx_hal_adc_ex.c **** 
 297              		.loc 1 229 5 view .LVU84
 298 0072 6FF00403 		mvn	r3, #4
 299 0076 1360     		str	r3, [r2]
 234:./Libraries/STM32F4xx_HAL_Driver/Src/stm32f4xx_hal_adc_ex.c **** 
 300              		.loc 1 234 5 view .LVU85
 301              	.LVL16:
 237:./Libraries/STM32F4xx_HAL_Driver/Src/stm32f4xx_hal_adc_ex.c ****     {
 302              		.loc 1 237 5 view .LVU86
 237:./Libraries/STM32F4xx_HAL_Driver/Src/stm32f4xx_hal_adc_ex.c ****     {
 303              		.loc 1 237 8 is_stmt 0 view .LVU87
 304 0078 1C4B     		ldr	r3, .L27+8
 305 007a 5B68     		ldr	r3, [r3, #4]
 237:./Libraries/STM32F4xx_HAL_Driver/Src/stm32f4xx_hal_adc_ex.c ****     {
 306              		.loc 1 237 7 view .LVU88
 307 007c 13F01F0F 		tst	r3, #31
 308 0080 0ED1     		bne	.L17
 239:./Libraries/STM32F4xx_HAL_Driver/Src/stm32f4xx_hal_adc_ex.c ****       tmp2 = HAL_IS_BIT_CLR(hadc->Instance->CR1, ADC_CR1_JAUTO);
 309              		.loc 1 239 7 is_stmt 1 view .LVU89
 239:./Libraries/STM32F4xx_HAL_Driver/Src/stm32f4xx_hal_adc_ex.c ****       tmp2 = HAL_IS_BIT_CLR(hadc->Instance->CR1, ADC_CR1_JAUTO);
ARM GAS  /tmp/ccqyivU0.s 			page 27


 310              		.loc 1 239 14 is_stmt 0 view .LVU90
 311 0082 0268     		ldr	r2, [r0]
 312 0084 9168     		ldr	r1, [r2, #8]
 313              	.LVL17:
 240:./Libraries/STM32F4xx_HAL_Driver/Src/stm32f4xx_hal_adc_ex.c ****       if(tmp1 && tmp2)
 314              		.loc 1 240 7 is_stmt 1 view .LVU91
 240:./Libraries/STM32F4xx_HAL_Driver/Src/stm32f4xx_hal_adc_ex.c ****       if(tmp1 && tmp2)
 315              		.loc 1 240 14 is_stmt 0 view .LVU92
 316 0086 5368     		ldr	r3, [r2, #4]
 317 0088 03F48063 		and	r3, r3, #1024
 318              	.LVL18:
 241:./Libraries/STM32F4xx_HAL_Driver/Src/stm32f4xx_hal_adc_ex.c ****       {
 319              		.loc 1 241 7 is_stmt 1 view .LVU93
 241:./Libraries/STM32F4xx_HAL_Driver/Src/stm32f4xx_hal_adc_ex.c ****       {
 320              		.loc 1 241 9 is_stmt 0 view .LVU94
 321 008c 11F4401F 		tst	r1, #3145728
 322 0090 1FD1     		bne	.L20
 241:./Libraries/STM32F4xx_HAL_Driver/Src/stm32f4xx_hal_adc_ex.c ****       {
 323              		.loc 1 241 15 discriminator 1 view .LVU95
 324 0092 03BB     		cbnz	r3, .L21
 244:./Libraries/STM32F4xx_HAL_Driver/Src/stm32f4xx_hal_adc_ex.c ****       }
 325              		.loc 1 244 9 is_stmt 1 view .LVU96
 244:./Libraries/STM32F4xx_HAL_Driver/Src/stm32f4xx_hal_adc_ex.c ****       }
 326              		.loc 1 244 29 is_stmt 0 view .LVU97
 327 0094 9368     		ldr	r3, [r2, #8]
 328              	.LVL19:
 244:./Libraries/STM32F4xx_HAL_Driver/Src/stm32f4xx_hal_adc_ex.c ****       }
 329              		.loc 1 244 29 view .LVU98
 330 0096 43F48003 		orr	r3, r3, #4194304
 331 009a 9360     		str	r3, [r2, #8]
 260:./Libraries/STM32F4xx_HAL_Driver/Src/stm32f4xx_hal_adc_ex.c **** }
 332              		.loc 1 260 10 view .LVU99
 333 009c 0020     		movs	r0, #0
 334              	.LVL20:
 260:./Libraries/STM32F4xx_HAL_Driver/Src/stm32f4xx_hal_adc_ex.c **** }
 335              		.loc 1 260 10 view .LVU100
 336 009e 16E0     		b	.L12
 337              	.LVL21:
 338              	.L17:
 249:./Libraries/STM32F4xx_HAL_Driver/Src/stm32f4xx_hal_adc_ex.c ****       tmp2 = HAL_IS_BIT_CLR(hadc->Instance->CR1, ADC_CR1_JAUTO);
 339              		.loc 1 249 7 is_stmt 1 view .LVU101
 249:./Libraries/STM32F4xx_HAL_Driver/Src/stm32f4xx_hal_adc_ex.c ****       tmp2 = HAL_IS_BIT_CLR(hadc->Instance->CR1, ADC_CR1_JAUTO);
 340              		.loc 1 249 14 is_stmt 0 view .LVU102
 341 00a0 0368     		ldr	r3, [r0]
 342 00a2 9A68     		ldr	r2, [r3, #8]
 343 00a4 02F44012 		and	r2, r2, #3145728
 344              	.LVL22:
 250:./Libraries/STM32F4xx_HAL_Driver/Src/stm32f4xx_hal_adc_ex.c ****       if((hadc->Instance == ADC1) && tmp1 && tmp2)  
 345              		.loc 1 250 7 is_stmt 1 view .LVU103
 250:./Libraries/STM32F4xx_HAL_Driver/Src/stm32f4xx_hal_adc_ex.c ****       if((hadc->Instance == ADC1) && tmp1 && tmp2)  
 346              		.loc 1 250 14 is_stmt 0 view .LVU104
 347 00a8 5968     		ldr	r1, [r3, #4]
 348 00aa 01F48061 		and	r1, r1, #1024
 349              	.LVL23:
 251:./Libraries/STM32F4xx_HAL_Driver/Src/stm32f4xx_hal_adc_ex.c ****       {
 350              		.loc 1 251 7 is_stmt 1 view .LVU105
 251:./Libraries/STM32F4xx_HAL_Driver/Src/stm32f4xx_hal_adc_ex.c ****       {
ARM GAS  /tmp/ccqyivU0.s 			page 28


 351              		.loc 1 251 9 is_stmt 0 view .LVU106
 352 00ae 1048     		ldr	r0, .L27+12
 353              	.LVL24:
 251:./Libraries/STM32F4xx_HAL_Driver/Src/stm32f4xx_hal_adc_ex.c ****       {
 354              		.loc 1 251 9 view .LVU107
 355 00b0 8342     		cmp	r3, r0
 356 00b2 01D0     		beq	.L26
 260:./Libraries/STM32F4xx_HAL_Driver/Src/stm32f4xx_hal_adc_ex.c **** }
 357              		.loc 1 260 10 view .LVU108
 358 00b4 0020     		movs	r0, #0
 359 00b6 0AE0     		b	.L12
 360              	.L26:
 251:./Libraries/STM32F4xx_HAL_Driver/Src/stm32f4xx_hal_adc_ex.c ****       {
 361              		.loc 1 251 35 discriminator 1 view .LVU109
 362 00b8 7AB9     		cbnz	r2, .L23
 251:./Libraries/STM32F4xx_HAL_Driver/Src/stm32f4xx_hal_adc_ex.c ****       {
 363              		.loc 1 251 43 discriminator 2 view .LVU110
 364 00ba 81B9     		cbnz	r1, .L24
 254:./Libraries/STM32F4xx_HAL_Driver/Src/stm32f4xx_hal_adc_ex.c ****       }
 365              		.loc 1 254 9 is_stmt 1 view .LVU111
 254:./Libraries/STM32F4xx_HAL_Driver/Src/stm32f4xx_hal_adc_ex.c ****       }
 366              		.loc 1 254 29 is_stmt 0 view .LVU112
 367 00bc 9A68     		ldr	r2, [r3, #8]
 368              	.LVL25:
 254:./Libraries/STM32F4xx_HAL_Driver/Src/stm32f4xx_hal_adc_ex.c ****       }
 369              		.loc 1 254 29 view .LVU113
 370 00be 42F48002 		orr	r2, r2, #4194304
 371 00c2 9A60     		str	r2, [r3, #8]
 260:./Libraries/STM32F4xx_HAL_Driver/Src/stm32f4xx_hal_adc_ex.c **** }
 372              		.loc 1 260 10 view .LVU114
 373 00c4 0020     		movs	r0, #0
 374 00c6 02E0     		b	.L12
 375              	.LVL26:
 376              	.L18:
 182:./Libraries/STM32F4xx_HAL_Driver/Src/stm32f4xx_hal_adc_ex.c ****   
 377              		.loc 1 182 3 view .LVU115
 378 00c8 0220     		movs	r0, #2
 379              	.LVL27:
 182:./Libraries/STM32F4xx_HAL_Driver/Src/stm32f4xx_hal_adc_ex.c ****   
 380              		.loc 1 182 3 view .LVU116
 381 00ca 00E0     		b	.L12
 382              	.LVL28:
 383              	.L19:
 260:./Libraries/STM32F4xx_HAL_Driver/Src/stm32f4xx_hal_adc_ex.c **** }
 384              		.loc 1 260 10 view .LVU117
 385 00cc 0020     		movs	r0, #0
 386              	.LVL29:
 387              	.L12:
 261:./Libraries/STM32F4xx_HAL_Driver/Src/stm32f4xx_hal_adc_ex.c **** 
 388              		.loc 1 261 1 view .LVU118
 389 00ce 02B0     		add	sp, sp, #8
 390              	.LCFI4:
 391              		.cfi_remember_state
 392              		.cfi_def_cfa_offset 0
 393              		@ sp needed
 394 00d0 7047     		bx	lr
 395              	.LVL30:
ARM GAS  /tmp/ccqyivU0.s 			page 29


 396              	.L20:
 397              	.LCFI5:
 398              		.cfi_restore_state
 260:./Libraries/STM32F4xx_HAL_Driver/Src/stm32f4xx_hal_adc_ex.c **** }
 399              		.loc 1 260 10 view .LVU119
 400 00d2 0020     		movs	r0, #0
 401              	.LVL31:
 260:./Libraries/STM32F4xx_HAL_Driver/Src/stm32f4xx_hal_adc_ex.c **** }
 402              		.loc 1 260 10 view .LVU120
 403 00d4 FBE7     		b	.L12
 404              	.LVL32:
 405              	.L21:
 260:./Libraries/STM32F4xx_HAL_Driver/Src/stm32f4xx_hal_adc_ex.c **** }
 406              		.loc 1 260 10 view .LVU121
 407 00d6 0020     		movs	r0, #0
 408              	.LVL33:
 260:./Libraries/STM32F4xx_HAL_Driver/Src/stm32f4xx_hal_adc_ex.c **** }
 409              		.loc 1 260 10 view .LVU122
 410 00d8 F9E7     		b	.L12
 411              	.LVL34:
 412              	.L23:
 260:./Libraries/STM32F4xx_HAL_Driver/Src/stm32f4xx_hal_adc_ex.c **** }
 413              		.loc 1 260 10 view .LVU123
 414 00da 0020     		movs	r0, #0
 415 00dc F7E7     		b	.L12
 416              	.L24:
 417 00de 0020     		movs	r0, #0
 418 00e0 F5E7     		b	.L12
 419              	.L28:
 420 00e2 00BF     		.align	2
 421              	.L27:
 422 00e4 00000000 		.word	SystemCoreClock
 423 00e8 83DE1B43 		.word	1125899907
 424 00ec 00230140 		.word	1073816320
 425 00f0 00200140 		.word	1073815552
 426              		.cfi_endproc
 427              	.LFE126:
 429              		.section	.text.HAL_ADCEx_InjectedStart_IT,"ax",%progbits
 430              		.align	1
 431              		.global	HAL_ADCEx_InjectedStart_IT
 432              		.syntax unified
 433              		.thumb
 434              		.thumb_func
 435              		.fpu fpv4-sp-d16
 437              	HAL_ADCEx_InjectedStart_IT:
 438              	.LVL35:
 439              	.LFB127:
 271:./Libraries/STM32F4xx_HAL_Driver/Src/stm32f4xx_hal_adc_ex.c ****   __IO uint32_t counter = 0U;
 440              		.loc 1 271 1 is_stmt 1 view -0
 441              		.cfi_startproc
 442              		@ args = 0, pretend = 0, frame = 8
 443              		@ frame_needed = 0, uses_anonymous_args = 0
 444              		@ link register save eliminated.
 271:./Libraries/STM32F4xx_HAL_Driver/Src/stm32f4xx_hal_adc_ex.c ****   __IO uint32_t counter = 0U;
 445              		.loc 1 271 1 is_stmt 0 view .LVU125
 446 0000 82B0     		sub	sp, sp, #8
 447              	.LCFI6:
ARM GAS  /tmp/ccqyivU0.s 			page 30


 448              		.cfi_def_cfa_offset 8
 272:./Libraries/STM32F4xx_HAL_Driver/Src/stm32f4xx_hal_adc_ex.c ****   uint32_t tmp1 = 0U, tmp2 = 0U;
 449              		.loc 1 272 3 is_stmt 1 view .LVU126
 272:./Libraries/STM32F4xx_HAL_Driver/Src/stm32f4xx_hal_adc_ex.c ****   uint32_t tmp1 = 0U, tmp2 = 0U;
 450              		.loc 1 272 17 is_stmt 0 view .LVU127
 451 0002 0023     		movs	r3, #0
 452 0004 0193     		str	r3, [sp, #4]
 273:./Libraries/STM32F4xx_HAL_Driver/Src/stm32f4xx_hal_adc_ex.c ****   ADC_Common_TypeDef *tmpADC_Common;
 453              		.loc 1 273 3 is_stmt 1 view .LVU128
 454              	.LVL36:
 274:./Libraries/STM32F4xx_HAL_Driver/Src/stm32f4xx_hal_adc_ex.c ****   
 455              		.loc 1 274 3 view .LVU129
 277:./Libraries/STM32F4xx_HAL_Driver/Src/stm32f4xx_hal_adc_ex.c ****   
 456              		.loc 1 277 3 view .LVU130
 277:./Libraries/STM32F4xx_HAL_Driver/Src/stm32f4xx_hal_adc_ex.c ****   
 457              		.loc 1 277 3 view .LVU131
 458 0006 90F83C30 		ldrb	r3, [r0, #60]	@ zero_extendqisi2
 459 000a 012B     		cmp	r3, #1
 460 000c 61D0     		beq	.L36
 277:./Libraries/STM32F4xx_HAL_Driver/Src/stm32f4xx_hal_adc_ex.c ****   
 461              		.loc 1 277 3 discriminator 2 view .LVU132
 462 000e 0123     		movs	r3, #1
 463 0010 80F83C30 		strb	r3, [r0, #60]
 277:./Libraries/STM32F4xx_HAL_Driver/Src/stm32f4xx_hal_adc_ex.c ****   
 464              		.loc 1 277 3 discriminator 2 view .LVU133
 283:./Libraries/STM32F4xx_HAL_Driver/Src/stm32f4xx_hal_adc_ex.c ****   {  
 465              		.loc 1 283 3 discriminator 2 view .LVU134
 283:./Libraries/STM32F4xx_HAL_Driver/Src/stm32f4xx_hal_adc_ex.c ****   {  
 466              		.loc 1 283 11 is_stmt 0 discriminator 2 view .LVU135
 467 0014 0368     		ldr	r3, [r0]
 283:./Libraries/STM32F4xx_HAL_Driver/Src/stm32f4xx_hal_adc_ex.c ****   {  
 468              		.loc 1 283 21 discriminator 2 view .LVU136
 469 0016 9A68     		ldr	r2, [r3, #8]
 283:./Libraries/STM32F4xx_HAL_Driver/Src/stm32f4xx_hal_adc_ex.c ****   {  
 470              		.loc 1 283 5 discriminator 2 view .LVU137
 471 0018 12F0010F 		tst	r2, #1
 472 001c 13D1     		bne	.L31
 286:./Libraries/STM32F4xx_HAL_Driver/Src/stm32f4xx_hal_adc_ex.c ****     
 473              		.loc 1 286 5 is_stmt 1 view .LVU138
 474 001e 9A68     		ldr	r2, [r3, #8]
 475 0020 42F00102 		orr	r2, r2, #1
 476 0024 9A60     		str	r2, [r3, #8]
 290:./Libraries/STM32F4xx_HAL_Driver/Src/stm32f4xx_hal_adc_ex.c ****     while(counter != 0U)
 477              		.loc 1 290 5 view .LVU139
 290:./Libraries/STM32F4xx_HAL_Driver/Src/stm32f4xx_hal_adc_ex.c ****     while(counter != 0U)
 478              		.loc 1 290 53 is_stmt 0 view .LVU140
 479 0026 314B     		ldr	r3, .L45
 480 0028 1B68     		ldr	r3, [r3]
 481 002a 314A     		ldr	r2, .L45+4
 482 002c A2FB0323 		umull	r2, r3, r2, r3
 483 0030 9B0C     		lsrs	r3, r3, #18
 290:./Libraries/STM32F4xx_HAL_Driver/Src/stm32f4xx_hal_adc_ex.c ****     while(counter != 0U)
 484              		.loc 1 290 34 view .LVU141
 485 0032 03EB4303 		add	r3, r3, r3, lsl #1
 290:./Libraries/STM32F4xx_HAL_Driver/Src/stm32f4xx_hal_adc_ex.c ****     while(counter != 0U)
 486              		.loc 1 290 13 view .LVU142
 487 0036 0193     		str	r3, [sp, #4]
ARM GAS  /tmp/ccqyivU0.s 			page 31


 291:./Libraries/STM32F4xx_HAL_Driver/Src/stm32f4xx_hal_adc_ex.c ****     {
 488              		.loc 1 291 5 is_stmt 1 view .LVU143
 291:./Libraries/STM32F4xx_HAL_Driver/Src/stm32f4xx_hal_adc_ex.c ****     {
 489              		.loc 1 291 10 is_stmt 0 view .LVU144
 490 0038 02E0     		b	.L32
 491              	.L33:
 293:./Libraries/STM32F4xx_HAL_Driver/Src/stm32f4xx_hal_adc_ex.c ****     }
 492              		.loc 1 293 7 is_stmt 1 view .LVU145
 293:./Libraries/STM32F4xx_HAL_Driver/Src/stm32f4xx_hal_adc_ex.c ****     }
 493              		.loc 1 293 14 is_stmt 0 view .LVU146
 494 003a 019B     		ldr	r3, [sp, #4]
 495 003c 013B     		subs	r3, r3, #1
 496 003e 0193     		str	r3, [sp, #4]
 497              	.L32:
 291:./Libraries/STM32F4xx_HAL_Driver/Src/stm32f4xx_hal_adc_ex.c ****     {
 498              		.loc 1 291 10 is_stmt 1 view .LVU147
 291:./Libraries/STM32F4xx_HAL_Driver/Src/stm32f4xx_hal_adc_ex.c ****     {
 499              		.loc 1 291 19 is_stmt 0 view .LVU148
 500 0040 019B     		ldr	r3, [sp, #4]
 291:./Libraries/STM32F4xx_HAL_Driver/Src/stm32f4xx_hal_adc_ex.c ****     {
 501              		.loc 1 291 10 view .LVU149
 502 0042 002B     		cmp	r3, #0
 503 0044 F9D1     		bne	.L33
 504              	.L31:
 298:./Libraries/STM32F4xx_HAL_Driver/Src/stm32f4xx_hal_adc_ex.c ****   {
 505              		.loc 1 298 3 is_stmt 1 view .LVU150
 298:./Libraries/STM32F4xx_HAL_Driver/Src/stm32f4xx_hal_adc_ex.c ****   {
 506              		.loc 1 298 6 is_stmt 0 view .LVU151
 507 0046 0268     		ldr	r2, [r0]
 508 0048 9368     		ldr	r3, [r2, #8]
 298:./Libraries/STM32F4xx_HAL_Driver/Src/stm32f4xx_hal_adc_ex.c ****   {
 509              		.loc 1 298 5 view .LVU152
 510 004a 13F0010F 		tst	r3, #1
 511 004e 42D0     		beq	.L37
 303:./Libraries/STM32F4xx_HAL_Driver/Src/stm32f4xx_hal_adc_ex.c ****                       HAL_ADC_STATE_READY | HAL_ADC_STATE_INJ_EOC,
 512              		.loc 1 303 5 is_stmt 1 view .LVU153
 513 0050 036C     		ldr	r3, [r0, #64]
 514 0052 23F44053 		bic	r3, r3, #12288
 515 0056 23F00103 		bic	r3, r3, #1
 516 005a 43F48053 		orr	r3, r3, #4096
 517 005e 0364     		str	r3, [r0, #64]
 311:./Libraries/STM32F4xx_HAL_Driver/Src/stm32f4xx_hal_adc_ex.c ****     {
 518              		.loc 1 311 5 view .LVU154
 311:./Libraries/STM32F4xx_HAL_Driver/Src/stm32f4xx_hal_adc_ex.c ****     {
 519              		.loc 1 311 9 is_stmt 0 view .LVU155
 520 0060 036C     		ldr	r3, [r0, #64]
 311:./Libraries/STM32F4xx_HAL_Driver/Src/stm32f4xx_hal_adc_ex.c ****     {
 521              		.loc 1 311 8 view .LVU156
 522 0062 13F4807F 		tst	r3, #256
 523 0066 01D1     		bne	.L34
 314:./Libraries/STM32F4xx_HAL_Driver/Src/stm32f4xx_hal_adc_ex.c ****     }
 524              		.loc 1 314 7 is_stmt 1 view .LVU157
 525 0068 0023     		movs	r3, #0
 526 006a 4364     		str	r3, [r0, #68]
 527              	.L34:
 320:./Libraries/STM32F4xx_HAL_Driver/Src/stm32f4xx_hal_adc_ex.c ****     
 528              		.loc 1 320 5 view .LVU158
ARM GAS  /tmp/ccqyivU0.s 			page 32


 320:./Libraries/STM32F4xx_HAL_Driver/Src/stm32f4xx_hal_adc_ex.c ****     
 529              		.loc 1 320 5 view .LVU159
 530 006c 0023     		movs	r3, #0
 531 006e 80F83C30 		strb	r3, [r0, #60]
 320:./Libraries/STM32F4xx_HAL_Driver/Src/stm32f4xx_hal_adc_ex.c ****     
 532              		.loc 1 320 5 view .LVU160
 324:./Libraries/STM32F4xx_HAL_Driver/Src/stm32f4xx_hal_adc_ex.c ****     
 533              		.loc 1 324 5 view .LVU161
 534 0072 6FF00403 		mvn	r3, #4
 535 0076 1360     		str	r3, [r2]
 327:./Libraries/STM32F4xx_HAL_Driver/Src/stm32f4xx_hal_adc_ex.c **** 
 536              		.loc 1 327 5 view .LVU162
 537 0078 0268     		ldr	r2, [r0]
 538 007a 5368     		ldr	r3, [r2, #4]
 539 007c 43F08003 		orr	r3, r3, #128
 540 0080 5360     		str	r3, [r2, #4]
 332:./Libraries/STM32F4xx_HAL_Driver/Src/stm32f4xx_hal_adc_ex.c ****     
 541              		.loc 1 332 5 view .LVU163
 542              	.LVL37:
 335:./Libraries/STM32F4xx_HAL_Driver/Src/stm32f4xx_hal_adc_ex.c ****     {
 543              		.loc 1 335 5 view .LVU164
 335:./Libraries/STM32F4xx_HAL_Driver/Src/stm32f4xx_hal_adc_ex.c ****     {
 544              		.loc 1 335 8 is_stmt 0 view .LVU165
 545 0082 1C4B     		ldr	r3, .L45+8
 546 0084 5B68     		ldr	r3, [r3, #4]
 335:./Libraries/STM32F4xx_HAL_Driver/Src/stm32f4xx_hal_adc_ex.c ****     {
 547              		.loc 1 335 7 view .LVU166
 548 0086 13F01F0F 		tst	r3, #31
 549 008a 0ED1     		bne	.L35
 337:./Libraries/STM32F4xx_HAL_Driver/Src/stm32f4xx_hal_adc_ex.c ****       tmp2 = HAL_IS_BIT_CLR(hadc->Instance->CR1, ADC_CR1_JAUTO);
 550              		.loc 1 337 7 is_stmt 1 view .LVU167
 337:./Libraries/STM32F4xx_HAL_Driver/Src/stm32f4xx_hal_adc_ex.c ****       tmp2 = HAL_IS_BIT_CLR(hadc->Instance->CR1, ADC_CR1_JAUTO);
 551              		.loc 1 337 14 is_stmt 0 view .LVU168
 552 008c 0268     		ldr	r2, [r0]
 553 008e 9168     		ldr	r1, [r2, #8]
 554              	.LVL38:
 338:./Libraries/STM32F4xx_HAL_Driver/Src/stm32f4xx_hal_adc_ex.c ****       if(tmp1 && tmp2)
 555              		.loc 1 338 7 is_stmt 1 view .LVU169
 338:./Libraries/STM32F4xx_HAL_Driver/Src/stm32f4xx_hal_adc_ex.c ****       if(tmp1 && tmp2)
 556              		.loc 1 338 14 is_stmt 0 view .LVU170
 557 0090 5368     		ldr	r3, [r2, #4]
 558 0092 03F48063 		and	r3, r3, #1024
 559              	.LVL39:
 339:./Libraries/STM32F4xx_HAL_Driver/Src/stm32f4xx_hal_adc_ex.c ****       {
 560              		.loc 1 339 7 is_stmt 1 view .LVU171
 339:./Libraries/STM32F4xx_HAL_Driver/Src/stm32f4xx_hal_adc_ex.c ****       {
 561              		.loc 1 339 9 is_stmt 0 view .LVU172
 562 0096 11F4401F 		tst	r1, #3145728
 563 009a 1FD1     		bne	.L38
 339:./Libraries/STM32F4xx_HAL_Driver/Src/stm32f4xx_hal_adc_ex.c ****       {
 564              		.loc 1 339 15 discriminator 1 view .LVU173
 565 009c 03BB     		cbnz	r3, .L39
 342:./Libraries/STM32F4xx_HAL_Driver/Src/stm32f4xx_hal_adc_ex.c ****       }
 566              		.loc 1 342 9 is_stmt 1 view .LVU174
 342:./Libraries/STM32F4xx_HAL_Driver/Src/stm32f4xx_hal_adc_ex.c ****       }
 567              		.loc 1 342 29 is_stmt 0 view .LVU175
 568 009e 9368     		ldr	r3, [r2, #8]
ARM GAS  /tmp/ccqyivU0.s 			page 33


 569              	.LVL40:
 342:./Libraries/STM32F4xx_HAL_Driver/Src/stm32f4xx_hal_adc_ex.c ****       }
 570              		.loc 1 342 29 view .LVU176
 571 00a0 43F48003 		orr	r3, r3, #4194304
 572 00a4 9360     		str	r3, [r2, #8]
 358:./Libraries/STM32F4xx_HAL_Driver/Src/stm32f4xx_hal_adc_ex.c **** }
 573              		.loc 1 358 10 view .LVU177
 574 00a6 0020     		movs	r0, #0
 575              	.LVL41:
 358:./Libraries/STM32F4xx_HAL_Driver/Src/stm32f4xx_hal_adc_ex.c **** }
 576              		.loc 1 358 10 view .LVU178
 577 00a8 16E0     		b	.L30
 578              	.LVL42:
 579              	.L35:
 347:./Libraries/STM32F4xx_HAL_Driver/Src/stm32f4xx_hal_adc_ex.c ****       tmp2 = HAL_IS_BIT_CLR(hadc->Instance->CR1, ADC_CR1_JAUTO);
 580              		.loc 1 347 7 is_stmt 1 view .LVU179
 347:./Libraries/STM32F4xx_HAL_Driver/Src/stm32f4xx_hal_adc_ex.c ****       tmp2 = HAL_IS_BIT_CLR(hadc->Instance->CR1, ADC_CR1_JAUTO);
 581              		.loc 1 347 14 is_stmt 0 view .LVU180
 582 00aa 0368     		ldr	r3, [r0]
 583 00ac 9A68     		ldr	r2, [r3, #8]
 584 00ae 02F44012 		and	r2, r2, #3145728
 585              	.LVL43:
 348:./Libraries/STM32F4xx_HAL_Driver/Src/stm32f4xx_hal_adc_ex.c ****       if((hadc->Instance == ADC1) && tmp1 && tmp2)  
 586              		.loc 1 348 7 is_stmt 1 view .LVU181
 348:./Libraries/STM32F4xx_HAL_Driver/Src/stm32f4xx_hal_adc_ex.c ****       if((hadc->Instance == ADC1) && tmp1 && tmp2)  
 587              		.loc 1 348 14 is_stmt 0 view .LVU182
 588 00b2 5968     		ldr	r1, [r3, #4]
 589 00b4 01F48061 		and	r1, r1, #1024
 590              	.LVL44:
 349:./Libraries/STM32F4xx_HAL_Driver/Src/stm32f4xx_hal_adc_ex.c ****       {
 591              		.loc 1 349 7 is_stmt 1 view .LVU183
 349:./Libraries/STM32F4xx_HAL_Driver/Src/stm32f4xx_hal_adc_ex.c ****       {
 592              		.loc 1 349 9 is_stmt 0 view .LVU184
 593 00b8 0F48     		ldr	r0, .L45+12
 594              	.LVL45:
 349:./Libraries/STM32F4xx_HAL_Driver/Src/stm32f4xx_hal_adc_ex.c ****       {
 595              		.loc 1 349 9 view .LVU185
 596 00ba 8342     		cmp	r3, r0
 597 00bc 01D0     		beq	.L44
 358:./Libraries/STM32F4xx_HAL_Driver/Src/stm32f4xx_hal_adc_ex.c **** }
 598              		.loc 1 358 10 view .LVU186
 599 00be 0020     		movs	r0, #0
 600 00c0 0AE0     		b	.L30
 601              	.L44:
 349:./Libraries/STM32F4xx_HAL_Driver/Src/stm32f4xx_hal_adc_ex.c ****       {
 602              		.loc 1 349 35 discriminator 1 view .LVU187
 603 00c2 7AB9     		cbnz	r2, .L41
 349:./Libraries/STM32F4xx_HAL_Driver/Src/stm32f4xx_hal_adc_ex.c ****       {
 604              		.loc 1 349 43 discriminator 2 view .LVU188
 605 00c4 81B9     		cbnz	r1, .L42
 352:./Libraries/STM32F4xx_HAL_Driver/Src/stm32f4xx_hal_adc_ex.c ****       }
 606              		.loc 1 352 9 is_stmt 1 view .LVU189
 352:./Libraries/STM32F4xx_HAL_Driver/Src/stm32f4xx_hal_adc_ex.c ****       }
 607              		.loc 1 352 29 is_stmt 0 view .LVU190
 608 00c6 9A68     		ldr	r2, [r3, #8]
 609              	.LVL46:
 352:./Libraries/STM32F4xx_HAL_Driver/Src/stm32f4xx_hal_adc_ex.c ****       }
ARM GAS  /tmp/ccqyivU0.s 			page 34


 610              		.loc 1 352 29 view .LVU191
 611 00c8 42F48002 		orr	r2, r2, #4194304
 612 00cc 9A60     		str	r2, [r3, #8]
 358:./Libraries/STM32F4xx_HAL_Driver/Src/stm32f4xx_hal_adc_ex.c **** }
 613              		.loc 1 358 10 view .LVU192
 614 00ce 0020     		movs	r0, #0
 615 00d0 02E0     		b	.L30
 616              	.LVL47:
 617              	.L36:
 277:./Libraries/STM32F4xx_HAL_Driver/Src/stm32f4xx_hal_adc_ex.c ****   
 618              		.loc 1 277 3 view .LVU193
 619 00d2 0220     		movs	r0, #2
 620              	.LVL48:
 277:./Libraries/STM32F4xx_HAL_Driver/Src/stm32f4xx_hal_adc_ex.c ****   
 621              		.loc 1 277 3 view .LVU194
 622 00d4 00E0     		b	.L30
 623              	.LVL49:
 624              	.L37:
 358:./Libraries/STM32F4xx_HAL_Driver/Src/stm32f4xx_hal_adc_ex.c **** }
 625              		.loc 1 358 10 view .LVU195
 626 00d6 0020     		movs	r0, #0
 627              	.LVL50:
 628              	.L30:
 359:./Libraries/STM32F4xx_HAL_Driver/Src/stm32f4xx_hal_adc_ex.c **** 
 629              		.loc 1 359 1 view .LVU196
 630 00d8 02B0     		add	sp, sp, #8
 631              	.LCFI7:
 632              		.cfi_remember_state
 633              		.cfi_def_cfa_offset 0
 634              		@ sp needed
 635 00da 7047     		bx	lr
 636              	.LVL51:
 637              	.L38:
 638              	.LCFI8:
 639              		.cfi_restore_state
 358:./Libraries/STM32F4xx_HAL_Driver/Src/stm32f4xx_hal_adc_ex.c **** }
 640              		.loc 1 358 10 view .LVU197
 641 00dc 0020     		movs	r0, #0
 642              	.LVL52:
 358:./Libraries/STM32F4xx_HAL_Driver/Src/stm32f4xx_hal_adc_ex.c **** }
 643              		.loc 1 358 10 view .LVU198
 644 00de FBE7     		b	.L30
 645              	.LVL53:
 646              	.L39:
 358:./Libraries/STM32F4xx_HAL_Driver/Src/stm32f4xx_hal_adc_ex.c **** }
 647              		.loc 1 358 10 view .LVU199
 648 00e0 0020     		movs	r0, #0
 649              	.LVL54:
 358:./Libraries/STM32F4xx_HAL_Driver/Src/stm32f4xx_hal_adc_ex.c **** }
 650              		.loc 1 358 10 view .LVU200
 651 00e2 F9E7     		b	.L30
 652              	.LVL55:
 653              	.L41:
 358:./Libraries/STM32F4xx_HAL_Driver/Src/stm32f4xx_hal_adc_ex.c **** }
 654              		.loc 1 358 10 view .LVU201
 655 00e4 0020     		movs	r0, #0
 656 00e6 F7E7     		b	.L30
ARM GAS  /tmp/ccqyivU0.s 			page 35


 657              	.L42:
 658 00e8 0020     		movs	r0, #0
 659 00ea F5E7     		b	.L30
 660              	.L46:
 661              		.align	2
 662              	.L45:
 663 00ec 00000000 		.word	SystemCoreClock
 664 00f0 83DE1B43 		.word	1125899907
 665 00f4 00230140 		.word	1073816320
 666 00f8 00200140 		.word	1073815552
 667              		.cfi_endproc
 668              	.LFE127:
 670              		.section	.text.HAL_ADCEx_InjectedStop,"ax",%progbits
 671              		.align	1
 672              		.global	HAL_ADCEx_InjectedStop
 673              		.syntax unified
 674              		.thumb
 675              		.thumb_func
 676              		.fpu fpv4-sp-d16
 678              	HAL_ADCEx_InjectedStop:
 679              	.LVL56:
 680              	.LFB128:
 374:./Libraries/STM32F4xx_HAL_Driver/Src/stm32f4xx_hal_adc_ex.c ****   HAL_StatusTypeDef tmp_hal_status = HAL_OK;
 681              		.loc 1 374 1 is_stmt 1 view -0
 682              		.cfi_startproc
 683              		@ args = 0, pretend = 0, frame = 0
 684              		@ frame_needed = 0, uses_anonymous_args = 0
 685              		@ link register save eliminated.
 374:./Libraries/STM32F4xx_HAL_Driver/Src/stm32f4xx_hal_adc_ex.c ****   HAL_StatusTypeDef tmp_hal_status = HAL_OK;
 686              		.loc 1 374 1 is_stmt 0 view .LVU203
 687 0000 0346     		mov	r3, r0
 375:./Libraries/STM32F4xx_HAL_Driver/Src/stm32f4xx_hal_adc_ex.c ****   
 688              		.loc 1 375 3 is_stmt 1 view .LVU204
 689              	.LVL57:
 378:./Libraries/STM32F4xx_HAL_Driver/Src/stm32f4xx_hal_adc_ex.c **** 
 690              		.loc 1 378 3 view .LVU205
 381:./Libraries/STM32F4xx_HAL_Driver/Src/stm32f4xx_hal_adc_ex.c ****     
 691              		.loc 1 381 3 view .LVU206
 381:./Libraries/STM32F4xx_HAL_Driver/Src/stm32f4xx_hal_adc_ex.c ****     
 692              		.loc 1 381 3 view .LVU207
 693 0002 90F83C20 		ldrb	r2, [r0, #60]	@ zero_extendqisi2
 694 0006 012A     		cmp	r2, #1
 695 0008 29D0     		beq	.L51
 381:./Libraries/STM32F4xx_HAL_Driver/Src/stm32f4xx_hal_adc_ex.c ****     
 696              		.loc 1 381 3 discriminator 2 view .LVU208
 697 000a 0122     		movs	r2, #1
 698 000c 80F83C20 		strb	r2, [r0, #60]
 381:./Libraries/STM32F4xx_HAL_Driver/Src/stm32f4xx_hal_adc_ex.c ****     
 699              		.loc 1 381 3 discriminator 2 view .LVU209
 389:./Libraries/STM32F4xx_HAL_Driver/Src/stm32f4xx_hal_adc_ex.c ****      HAL_IS_BIT_CLR(hadc->Instance->CR1, ADC_CR1_JAUTO)   )
 700              		.loc 1 389 3 discriminator 2 view .LVU210
 389:./Libraries/STM32F4xx_HAL_Driver/Src/stm32f4xx_hal_adc_ex.c ****      HAL_IS_BIT_CLR(hadc->Instance->CR1, ADC_CR1_JAUTO)   )
 701              		.loc 1 389 12 is_stmt 0 discriminator 2 view .LVU211
 702 0010 026C     		ldr	r2, [r0, #64]
 389:./Libraries/STM32F4xx_HAL_Driver/Src/stm32f4xx_hal_adc_ex.c ****      HAL_IS_BIT_CLR(hadc->Instance->CR1, ADC_CR1_JAUTO)   )
 703              		.loc 1 389 5 discriminator 2 view .LVU212
 704 0012 12F4807F 		tst	r2, #256
ARM GAS  /tmp/ccqyivU0.s 			page 36


 705 0016 17D1     		bne	.L49
 390:./Libraries/STM32F4xx_HAL_Driver/Src/stm32f4xx_hal_adc_ex.c ****   {
 706              		.loc 1 390 6 discriminator 1 view .LVU213
 707 0018 0268     		ldr	r2, [r0]
 708 001a 5168     		ldr	r1, [r2, #4]
 389:./Libraries/STM32F4xx_HAL_Driver/Src/stm32f4xx_hal_adc_ex.c ****      HAL_IS_BIT_CLR(hadc->Instance->CR1, ADC_CR1_JAUTO)   )
 709              		.loc 1 389 57 discriminator 1 view .LVU214
 710 001c 11F4806F 		tst	r1, #1024
 711 0020 12D1     		bne	.L49
 394:./Libraries/STM32F4xx_HAL_Driver/Src/stm32f4xx_hal_adc_ex.c ****     
 712              		.loc 1 394 5 is_stmt 1 view .LVU215
 713 0022 9168     		ldr	r1, [r2, #8]
 714 0024 21F00101 		bic	r1, r1, #1
 715 0028 9160     		str	r1, [r2, #8]
 397:./Libraries/STM32F4xx_HAL_Driver/Src/stm32f4xx_hal_adc_ex.c ****     {
 716              		.loc 1 397 5 view .LVU216
 397:./Libraries/STM32F4xx_HAL_Driver/Src/stm32f4xx_hal_adc_ex.c ****     {
 717              		.loc 1 397 8 is_stmt 0 view .LVU217
 718 002a 0268     		ldr	r2, [r0]
 719 002c 9268     		ldr	r2, [r2, #8]
 397:./Libraries/STM32F4xx_HAL_Driver/Src/stm32f4xx_hal_adc_ex.c ****     {
 720              		.loc 1 397 7 view .LVU218
 721 002e 12F0010F 		tst	r2, #1
 722 0032 12D1     		bne	.L52
 400:./Libraries/STM32F4xx_HAL_Driver/Src/stm32f4xx_hal_adc_ex.c ****                         HAL_ADC_STATE_REG_BUSY | HAL_ADC_STATE_INJ_BUSY,
 723              		.loc 1 400 7 is_stmt 1 view .LVU219
 724 0034 026C     		ldr	r2, [r0, #64]
 725 0036 22F48852 		bic	r2, r2, #4352
 726 003a 22F00102 		bic	r2, r2, #1
 727 003e 42F00102 		orr	r2, r2, #1
 728 0042 0264     		str	r2, [r0, #64]
 375:./Libraries/STM32F4xx_HAL_Driver/Src/stm32f4xx_hal_adc_ex.c ****   
 729              		.loc 1 375 21 is_stmt 0 view .LVU220
 730 0044 0020     		movs	r0, #0
 731              	.LVL58:
 375:./Libraries/STM32F4xx_HAL_Driver/Src/stm32f4xx_hal_adc_ex.c ****   
 732              		.loc 1 375 21 view .LVU221
 733 0046 04E0     		b	.L50
 734              	.LVL59:
 735              	.L49:
 408:./Libraries/STM32F4xx_HAL_Driver/Src/stm32f4xx_hal_adc_ex.c ****       
 736              		.loc 1 408 5 is_stmt 1 view .LVU222
 737 0048 1A6C     		ldr	r2, [r3, #64]
 738 004a 42F02002 		orr	r2, r2, #32
 739 004e 1A64     		str	r2, [r3, #64]
 410:./Libraries/STM32F4xx_HAL_Driver/Src/stm32f4xx_hal_adc_ex.c ****   }
 740              		.loc 1 410 5 view .LVU223
 741              	.LVL60:
 410:./Libraries/STM32F4xx_HAL_Driver/Src/stm32f4xx_hal_adc_ex.c ****   }
 742              		.loc 1 410 20 is_stmt 0 view .LVU224
 743 0050 0120     		movs	r0, #1
 744              	.LVL61:
 745              	.L50:
 414:./Libraries/STM32F4xx_HAL_Driver/Src/stm32f4xx_hal_adc_ex.c ****   
 746              		.loc 1 414 3 is_stmt 1 view .LVU225
 414:./Libraries/STM32F4xx_HAL_Driver/Src/stm32f4xx_hal_adc_ex.c ****   
 747              		.loc 1 414 3 view .LVU226
ARM GAS  /tmp/ccqyivU0.s 			page 37


 748 0052 0022     		movs	r2, #0
 749 0054 83F83C20 		strb	r2, [r3, #60]
 414:./Libraries/STM32F4xx_HAL_Driver/Src/stm32f4xx_hal_adc_ex.c ****   
 750              		.loc 1 414 3 view .LVU227
 417:./Libraries/STM32F4xx_HAL_Driver/Src/stm32f4xx_hal_adc_ex.c **** }
 751              		.loc 1 417 3 view .LVU228
 417:./Libraries/STM32F4xx_HAL_Driver/Src/stm32f4xx_hal_adc_ex.c **** }
 752              		.loc 1 417 10 is_stmt 0 view .LVU229
 753 0058 7047     		bx	lr
 754              	.LVL62:
 755              	.L52:
 375:./Libraries/STM32F4xx_HAL_Driver/Src/stm32f4xx_hal_adc_ex.c ****   
 756              		.loc 1 375 21 view .LVU230
 757 005a 0020     		movs	r0, #0
 758              	.LVL63:
 375:./Libraries/STM32F4xx_HAL_Driver/Src/stm32f4xx_hal_adc_ex.c ****   
 759              		.loc 1 375 21 view .LVU231
 760 005c F9E7     		b	.L50
 761              	.LVL64:
 762              	.L51:
 381:./Libraries/STM32F4xx_HAL_Driver/Src/stm32f4xx_hal_adc_ex.c ****     
 763              		.loc 1 381 3 view .LVU232
 764 005e 0220     		movs	r0, #2
 765              	.LVL65:
 418:./Libraries/STM32F4xx_HAL_Driver/Src/stm32f4xx_hal_adc_ex.c **** 
 766              		.loc 1 418 1 view .LVU233
 767 0060 7047     		bx	lr
 768              		.cfi_endproc
 769              	.LFE128:
 771              		.section	.text.HAL_ADCEx_InjectedPollForConversion,"ax",%progbits
 772              		.align	1
 773              		.global	HAL_ADCEx_InjectedPollForConversion
 774              		.syntax unified
 775              		.thumb
 776              		.thumb_func
 777              		.fpu fpv4-sp-d16
 779              	HAL_ADCEx_InjectedPollForConversion:
 780              	.LVL66:
 781              	.LFB129:
 428:./Libraries/STM32F4xx_HAL_Driver/Src/stm32f4xx_hal_adc_ex.c ****   uint32_t tickstart = 0U;
 782              		.loc 1 428 1 is_stmt 1 view -0
 783              		.cfi_startproc
 784              		@ args = 0, pretend = 0, frame = 0
 785              		@ frame_needed = 0, uses_anonymous_args = 0
 428:./Libraries/STM32F4xx_HAL_Driver/Src/stm32f4xx_hal_adc_ex.c ****   uint32_t tickstart = 0U;
 786              		.loc 1 428 1 is_stmt 0 view .LVU235
 787 0000 70B5     		push	{r4, r5, r6, lr}
 788              	.LCFI9:
 789              		.cfi_def_cfa_offset 16
 790              		.cfi_offset 4, -16
 791              		.cfi_offset 5, -12
 792              		.cfi_offset 6, -8
 793              		.cfi_offset 14, -4
 794 0002 0446     		mov	r4, r0
 795 0004 0D46     		mov	r5, r1
 429:./Libraries/STM32F4xx_HAL_Driver/Src/stm32f4xx_hal_adc_ex.c **** 
 796              		.loc 1 429 3 is_stmt 1 view .LVU236
ARM GAS  /tmp/ccqyivU0.s 			page 38


 797              	.LVL67:
 432:./Libraries/STM32F4xx_HAL_Driver/Src/stm32f4xx_hal_adc_ex.c **** 
 798              		.loc 1 432 3 view .LVU237
 432:./Libraries/STM32F4xx_HAL_Driver/Src/stm32f4xx_hal_adc_ex.c **** 
 799              		.loc 1 432 15 is_stmt 0 view .LVU238
 800 0006 FFF7FEFF 		bl	HAL_GetTick
 801              	.LVL68:
 432:./Libraries/STM32F4xx_HAL_Driver/Src/stm32f4xx_hal_adc_ex.c **** 
 802              		.loc 1 432 15 view .LVU239
 803 000a 0646     		mov	r6, r0
 804              	.LVL69:
 435:./Libraries/STM32F4xx_HAL_Driver/Src/stm32f4xx_hal_adc_ex.c ****   {
 805              		.loc 1 435 3 is_stmt 1 view .LVU240
 806              	.L55:
 435:./Libraries/STM32F4xx_HAL_Driver/Src/stm32f4xx_hal_adc_ex.c ****   {
 807              		.loc 1 435 8 view .LVU241
 435:./Libraries/STM32F4xx_HAL_Driver/Src/stm32f4xx_hal_adc_ex.c ****   {
 808              		.loc 1 435 11 is_stmt 0 view .LVU242
 809 000c 2368     		ldr	r3, [r4]
 810 000e 1A68     		ldr	r2, [r3]
 435:./Libraries/STM32F4xx_HAL_Driver/Src/stm32f4xx_hal_adc_ex.c ****   {
 811              		.loc 1 435 8 view .LVU243
 812 0010 12F0040F 		tst	r2, #4
 813 0014 0FD1     		bne	.L67
 438:./Libraries/STM32F4xx_HAL_Driver/Src/stm32f4xx_hal_adc_ex.c ****     {
 814              		.loc 1 438 5 is_stmt 1 view .LVU244
 438:./Libraries/STM32F4xx_HAL_Driver/Src/stm32f4xx_hal_adc_ex.c ****     {
 815              		.loc 1 438 7 is_stmt 0 view .LVU245
 816 0016 B5F1FF3F 		cmp	r5, #-1
 817 001a F7D0     		beq	.L55
 440:./Libraries/STM32F4xx_HAL_Driver/Src/stm32f4xx_hal_adc_ex.c ****       {
 818              		.loc 1 440 7 is_stmt 1 view .LVU246
 440:./Libraries/STM32F4xx_HAL_Driver/Src/stm32f4xx_hal_adc_ex.c ****       {
 819              		.loc 1 440 9 is_stmt 0 view .LVU247
 820 001c 25B1     		cbz	r5, .L56
 440:./Libraries/STM32F4xx_HAL_Driver/Src/stm32f4xx_hal_adc_ex.c ****       {
 821              		.loc 1 440 29 discriminator 1 view .LVU248
 822 001e FFF7FEFF 		bl	HAL_GetTick
 823              	.LVL70:
 440:./Libraries/STM32F4xx_HAL_Driver/Src/stm32f4xx_hal_adc_ex.c ****       {
 824              		.loc 1 440 43 discriminator 1 view .LVU249
 825 0022 801B     		subs	r0, r0, r6
 440:./Libraries/STM32F4xx_HAL_Driver/Src/stm32f4xx_hal_adc_ex.c ****       {
 826              		.loc 1 440 25 discriminator 1 view .LVU250
 827 0024 A842     		cmp	r0, r5
 828 0026 F1D9     		bls	.L55
 829              	.L56:
 442:./Libraries/STM32F4xx_HAL_Driver/Src/stm32f4xx_hal_adc_ex.c ****         /* Process unlocked */
 830              		.loc 1 442 9 is_stmt 1 view .LVU251
 442:./Libraries/STM32F4xx_HAL_Driver/Src/stm32f4xx_hal_adc_ex.c ****         /* Process unlocked */
 831              		.loc 1 442 20 is_stmt 0 view .LVU252
 832 0028 0423     		movs	r3, #4
 833 002a 2364     		str	r3, [r4, #64]
 444:./Libraries/STM32F4xx_HAL_Driver/Src/stm32f4xx_hal_adc_ex.c ****         return HAL_TIMEOUT;
 834              		.loc 1 444 9 is_stmt 1 view .LVU253
 444:./Libraries/STM32F4xx_HAL_Driver/Src/stm32f4xx_hal_adc_ex.c ****         return HAL_TIMEOUT;
 835              		.loc 1 444 9 view .LVU254
ARM GAS  /tmp/ccqyivU0.s 			page 39


 836 002c 0023     		movs	r3, #0
 837 002e 84F83C30 		strb	r3, [r4, #60]
 444:./Libraries/STM32F4xx_HAL_Driver/Src/stm32f4xx_hal_adc_ex.c ****         return HAL_TIMEOUT;
 838              		.loc 1 444 9 view .LVU255
 445:./Libraries/STM32F4xx_HAL_Driver/Src/stm32f4xx_hal_adc_ex.c ****       }
 839              		.loc 1 445 9 view .LVU256
 445:./Libraries/STM32F4xx_HAL_Driver/Src/stm32f4xx_hal_adc_ex.c ****       }
 840              		.loc 1 445 16 is_stmt 0 view .LVU257
 841 0032 0320     		movs	r0, #3
 842 0034 2CE0     		b	.L57
 843              	.L67:
 451:./Libraries/STM32F4xx_HAL_Driver/Src/stm32f4xx_hal_adc_ex.c ****     
 844              		.loc 1 451 3 is_stmt 1 view .LVU258
 845 0036 6FF00C02 		mvn	r2, #12
 846 003a 1A60     		str	r2, [r3]
 454:./Libraries/STM32F4xx_HAL_Driver/Src/stm32f4xx_hal_adc_ex.c ****   
 847              		.loc 1 454 3 view .LVU259
 848 003c 236C     		ldr	r3, [r4, #64]
 849 003e 43F40053 		orr	r3, r3, #8192
 850 0042 2364     		str	r3, [r4, #64]
 462:./Libraries/STM32F4xx_HAL_Driver/Src/stm32f4xx_hal_adc_ex.c ****      (HAL_IS_BIT_CLR(hadc->Instance->JSQR, ADC_JSQR_JL)  ||
 851              		.loc 1 462 3 view .LVU260
 462:./Libraries/STM32F4xx_HAL_Driver/Src/stm32f4xx_hal_adc_ex.c ****      (HAL_IS_BIT_CLR(hadc->Instance->JSQR, ADC_JSQR_JL)  ||
 852              		.loc 1 462 6 is_stmt 0 view .LVU261
 853 0044 2368     		ldr	r3, [r4]
 854 0046 9A68     		ldr	r2, [r3, #8]
 462:./Libraries/STM32F4xx_HAL_Driver/Src/stm32f4xx_hal_adc_ex.c ****      (HAL_IS_BIT_CLR(hadc->Instance->JSQR, ADC_JSQR_JL)  ||
 855              		.loc 1 462 5 view .LVU262
 856 0048 12F4401F 		tst	r2, #3145728
 857 004c 1FD1     		bne	.L60
 463:./Libraries/STM32F4xx_HAL_Driver/Src/stm32f4xx_hal_adc_ex.c ****       HAL_IS_BIT_CLR(hadc->Instance->CR2, ADC_CR2_EOCS)    ) &&
 858              		.loc 1 463 7 discriminator 1 view .LVU263
 859 004e 9A6B     		ldr	r2, [r3, #56]
 462:./Libraries/STM32F4xx_HAL_Driver/Src/stm32f4xx_hal_adc_ex.c ****      (HAL_IS_BIT_CLR(hadc->Instance->JSQR, ADC_JSQR_JL)  ||
 860              		.loc 1 462 62 discriminator 1 view .LVU264
 861 0050 12F4401F 		tst	r2, #3145728
 862 0054 03D0     		beq	.L59
 464:./Libraries/STM32F4xx_HAL_Driver/Src/stm32f4xx_hal_adc_ex.c ****      (HAL_IS_BIT_CLR(hadc->Instance->CR1, ADC_CR1_JAUTO) &&
 863              		.loc 1 464 7 view .LVU265
 864 0056 9A68     		ldr	r2, [r3, #8]
 463:./Libraries/STM32F4xx_HAL_Driver/Src/stm32f4xx_hal_adc_ex.c ****       HAL_IS_BIT_CLR(hadc->Instance->CR2, ADC_CR2_EOCS)    ) &&
 865              		.loc 1 463 58 view .LVU266
 866 0058 12F4806F 		tst	r2, #1024
 867 005c 19D1     		bne	.L61
 868              	.L59:
 465:./Libraries/STM32F4xx_HAL_Driver/Src/stm32f4xx_hal_adc_ex.c ****       (ADC_IS_SOFTWARE_START_REGULAR(hadc)       &&
 869              		.loc 1 465 7 view .LVU267
 870 005e 5A68     		ldr	r2, [r3, #4]
 464:./Libraries/STM32F4xx_HAL_Driver/Src/stm32f4xx_hal_adc_ex.c ****      (HAL_IS_BIT_CLR(hadc->Instance->CR1, ADC_CR1_JAUTO) &&
 871              		.loc 1 464 62 view .LVU268
 872 0060 12F4806F 		tst	r2, #1024
 873 0064 17D1     		bne	.L62
 466:./Libraries/STM32F4xx_HAL_Driver/Src/stm32f4xx_hal_adc_ex.c ****       (hadc->Init.ContinuousConvMode == DISABLE)   )       )   )
 874              		.loc 1 466 8 view .LVU269
 875 0066 9B68     		ldr	r3, [r3, #8]
 465:./Libraries/STM32F4xx_HAL_Driver/Src/stm32f4xx_hal_adc_ex.c ****       (ADC_IS_SOFTWARE_START_REGULAR(hadc)       &&
 876              		.loc 1 465 58 view .LVU270
ARM GAS  /tmp/ccqyivU0.s 			page 40


 877 0068 13F0405F 		tst	r3, #805306368
 878 006c 15D1     		bne	.L63
 467:./Libraries/STM32F4xx_HAL_Driver/Src/stm32f4xx_hal_adc_ex.c ****   {
 879              		.loc 1 467 18 view .LVU271
 880 006e A369     		ldr	r3, [r4, #24]
 466:./Libraries/STM32F4xx_HAL_Driver/Src/stm32f4xx_hal_adc_ex.c ****       (hadc->Init.ContinuousConvMode == DISABLE)   )       )   )
 881              		.loc 1 466 50 view .LVU272
 882 0070 ABB9     		cbnz	r3, .L64
 470:./Libraries/STM32F4xx_HAL_Driver/Src/stm32f4xx_hal_adc_ex.c ****     
 883              		.loc 1 470 5 is_stmt 1 view .LVU273
 884 0072 236C     		ldr	r3, [r4, #64]
 885 0074 23F48053 		bic	r3, r3, #4096
 886 0078 2364     		str	r3, [r4, #64]
 472:./Libraries/STM32F4xx_HAL_Driver/Src/stm32f4xx_hal_adc_ex.c ****     { 
 887              		.loc 1 472 5 view .LVU274
 472:./Libraries/STM32F4xx_HAL_Driver/Src/stm32f4xx_hal_adc_ex.c ****     { 
 888              		.loc 1 472 9 is_stmt 0 view .LVU275
 889 007a 236C     		ldr	r3, [r4, #64]
 472:./Libraries/STM32F4xx_HAL_Driver/Src/stm32f4xx_hal_adc_ex.c ****     { 
 890              		.loc 1 472 8 view .LVU276
 891 007c 13F4807F 		tst	r3, #256
 892 0080 0FD1     		bne	.L65
 474:./Libraries/STM32F4xx_HAL_Driver/Src/stm32f4xx_hal_adc_ex.c ****     }
 893              		.loc 1 474 7 is_stmt 1 view .LVU277
 894 0082 236C     		ldr	r3, [r4, #64]
 895 0084 43F00103 		orr	r3, r3, #1
 896 0088 2364     		str	r3, [r4, #64]
 479:./Libraries/STM32F4xx_HAL_Driver/Src/stm32f4xx_hal_adc_ex.c **** }      
 897              		.loc 1 479 10 is_stmt 0 view .LVU278
 898 008a 0020     		movs	r0, #0
 899 008c 00E0     		b	.L57
 900              	.L60:
 479:./Libraries/STM32F4xx_HAL_Driver/Src/stm32f4xx_hal_adc_ex.c **** }      
 901              		.loc 1 479 10 view .LVU279
 902 008e 0020     		movs	r0, #0
 903              	.L57:
 480:./Libraries/STM32F4xx_HAL_Driver/Src/stm32f4xx_hal_adc_ex.c ****   
 904              		.loc 1 480 1 view .LVU280
 905 0090 70BD     		pop	{r4, r5, r6, pc}
 906              	.LVL71:
 907              	.L61:
 479:./Libraries/STM32F4xx_HAL_Driver/Src/stm32f4xx_hal_adc_ex.c **** }      
 908              		.loc 1 479 10 view .LVU281
 909 0092 0020     		movs	r0, #0
 910 0094 FCE7     		b	.L57
 911              	.L62:
 912 0096 0020     		movs	r0, #0
 913 0098 FAE7     		b	.L57
 914              	.L63:
 915 009a 0020     		movs	r0, #0
 916 009c F8E7     		b	.L57
 917              	.L64:
 479:./Libraries/STM32F4xx_HAL_Driver/Src/stm32f4xx_hal_adc_ex.c **** }      
 918              		.loc 1 479 10 view .LVU282
 919 009e 0020     		movs	r0, #0
 920 00a0 F6E7     		b	.L57
 921              	.L65:
ARM GAS  /tmp/ccqyivU0.s 			page 41


 922 00a2 0020     		movs	r0, #0
 923 00a4 F4E7     		b	.L57
 924              		.cfi_endproc
 925              	.LFE129:
 927              		.section	.text.HAL_ADCEx_InjectedStop_IT,"ax",%progbits
 928              		.align	1
 929              		.global	HAL_ADCEx_InjectedStop_IT
 930              		.syntax unified
 931              		.thumb
 932              		.thumb_func
 933              		.fpu fpv4-sp-d16
 935              	HAL_ADCEx_InjectedStop_IT:
 936              	.LVL72:
 937              	.LFB130:
 495:./Libraries/STM32F4xx_HAL_Driver/Src/stm32f4xx_hal_adc_ex.c ****   HAL_StatusTypeDef tmp_hal_status = HAL_OK;
 938              		.loc 1 495 1 is_stmt 1 view -0
 939              		.cfi_startproc
 940              		@ args = 0, pretend = 0, frame = 0
 941              		@ frame_needed = 0, uses_anonymous_args = 0
 942              		@ link register save eliminated.
 495:./Libraries/STM32F4xx_HAL_Driver/Src/stm32f4xx_hal_adc_ex.c ****   HAL_StatusTypeDef tmp_hal_status = HAL_OK;
 943              		.loc 1 495 1 is_stmt 0 view .LVU284
 944 0000 0346     		mov	r3, r0
 496:./Libraries/STM32F4xx_HAL_Driver/Src/stm32f4xx_hal_adc_ex.c ****   
 945              		.loc 1 496 3 is_stmt 1 view .LVU285
 946              	.LVL73:
 499:./Libraries/STM32F4xx_HAL_Driver/Src/stm32f4xx_hal_adc_ex.c **** 
 947              		.loc 1 499 3 view .LVU286
 502:./Libraries/STM32F4xx_HAL_Driver/Src/stm32f4xx_hal_adc_ex.c ****     
 948              		.loc 1 502 3 view .LVU287
 502:./Libraries/STM32F4xx_HAL_Driver/Src/stm32f4xx_hal_adc_ex.c ****     
 949              		.loc 1 502 3 view .LVU288
 950 0002 90F83C20 		ldrb	r2, [r0, #60]	@ zero_extendqisi2
 951 0006 012A     		cmp	r2, #1
 952 0008 2DD0     		beq	.L72
 502:./Libraries/STM32F4xx_HAL_Driver/Src/stm32f4xx_hal_adc_ex.c ****     
 953              		.loc 1 502 3 discriminator 2 view .LVU289
 954 000a 0122     		movs	r2, #1
 955 000c 80F83C20 		strb	r2, [r0, #60]
 502:./Libraries/STM32F4xx_HAL_Driver/Src/stm32f4xx_hal_adc_ex.c ****     
 956              		.loc 1 502 3 discriminator 2 view .LVU290
 510:./Libraries/STM32F4xx_HAL_Driver/Src/stm32f4xx_hal_adc_ex.c ****      HAL_IS_BIT_CLR(hadc->Instance->CR1, ADC_CR1_JAUTO)   )
 957              		.loc 1 510 3 discriminator 2 view .LVU291
 510:./Libraries/STM32F4xx_HAL_Driver/Src/stm32f4xx_hal_adc_ex.c ****      HAL_IS_BIT_CLR(hadc->Instance->CR1, ADC_CR1_JAUTO)   )
 958              		.loc 1 510 12 is_stmt 0 discriminator 2 view .LVU292
 959 0010 026C     		ldr	r2, [r0, #64]
 510:./Libraries/STM32F4xx_HAL_Driver/Src/stm32f4xx_hal_adc_ex.c ****      HAL_IS_BIT_CLR(hadc->Instance->CR1, ADC_CR1_JAUTO)   )
 960              		.loc 1 510 5 discriminator 2 view .LVU293
 961 0012 12F4807F 		tst	r2, #256
 962 0016 1BD1     		bne	.L70
 511:./Libraries/STM32F4xx_HAL_Driver/Src/stm32f4xx_hal_adc_ex.c ****   {
 963              		.loc 1 511 6 discriminator 1 view .LVU294
 964 0018 0268     		ldr	r2, [r0]
 965 001a 5168     		ldr	r1, [r2, #4]
 510:./Libraries/STM32F4xx_HAL_Driver/Src/stm32f4xx_hal_adc_ex.c ****      HAL_IS_BIT_CLR(hadc->Instance->CR1, ADC_CR1_JAUTO)   )
 966              		.loc 1 510 57 discriminator 1 view .LVU295
 967 001c 11F4806F 		tst	r1, #1024
ARM GAS  /tmp/ccqyivU0.s 			page 42


 968 0020 16D1     		bne	.L70
 515:./Libraries/STM32F4xx_HAL_Driver/Src/stm32f4xx_hal_adc_ex.c ****     
 969              		.loc 1 515 5 is_stmt 1 view .LVU296
 970 0022 9168     		ldr	r1, [r2, #8]
 971 0024 21F00101 		bic	r1, r1, #1
 972 0028 9160     		str	r1, [r2, #8]
 518:./Libraries/STM32F4xx_HAL_Driver/Src/stm32f4xx_hal_adc_ex.c ****     {
 973              		.loc 1 518 5 view .LVU297
 518:./Libraries/STM32F4xx_HAL_Driver/Src/stm32f4xx_hal_adc_ex.c ****     {
 974              		.loc 1 518 8 is_stmt 0 view .LVU298
 975 002a 0268     		ldr	r2, [r0]
 976 002c 9168     		ldr	r1, [r2, #8]
 518:./Libraries/STM32F4xx_HAL_Driver/Src/stm32f4xx_hal_adc_ex.c ****     {
 977              		.loc 1 518 7 view .LVU299
 978 002e 11F0010F 		tst	r1, #1
 979 0032 16D1     		bne	.L73
 521:./Libraries/STM32F4xx_HAL_Driver/Src/stm32f4xx_hal_adc_ex.c ****       
 980              		.loc 1 521 7 is_stmt 1 view .LVU300
 981 0034 5168     		ldr	r1, [r2, #4]
 982 0036 21F08001 		bic	r1, r1, #128
 983 003a 5160     		str	r1, [r2, #4]
 524:./Libraries/STM32F4xx_HAL_Driver/Src/stm32f4xx_hal_adc_ex.c ****                         HAL_ADC_STATE_REG_BUSY | HAL_ADC_STATE_INJ_BUSY,
 984              		.loc 1 524 7 view .LVU301
 985 003c 026C     		ldr	r2, [r0, #64]
 986 003e 22F48852 		bic	r2, r2, #4352
 987 0042 22F00102 		bic	r2, r2, #1
 988 0046 42F00102 		orr	r2, r2, #1
 989 004a 0264     		str	r2, [r0, #64]
 496:./Libraries/STM32F4xx_HAL_Driver/Src/stm32f4xx_hal_adc_ex.c ****   
 990              		.loc 1 496 21 is_stmt 0 view .LVU302
 991 004c 0020     		movs	r0, #0
 992              	.LVL74:
 496:./Libraries/STM32F4xx_HAL_Driver/Src/stm32f4xx_hal_adc_ex.c ****   
 993              		.loc 1 496 21 view .LVU303
 994 004e 04E0     		b	.L71
 995              	.LVL75:
 996              	.L70:
 532:./Libraries/STM32F4xx_HAL_Driver/Src/stm32f4xx_hal_adc_ex.c ****       
 997              		.loc 1 532 5 is_stmt 1 view .LVU304
 998 0050 1A6C     		ldr	r2, [r3, #64]
 999 0052 42F02002 		orr	r2, r2, #32
 1000 0056 1A64     		str	r2, [r3, #64]
 534:./Libraries/STM32F4xx_HAL_Driver/Src/stm32f4xx_hal_adc_ex.c ****   }
 1001              		.loc 1 534 5 view .LVU305
 1002              	.LVL76:
 534:./Libraries/STM32F4xx_HAL_Driver/Src/stm32f4xx_hal_adc_ex.c ****   }
 1003              		.loc 1 534 20 is_stmt 0 view .LVU306
 1004 0058 0120     		movs	r0, #1
 1005              	.LVL77:
 1006              	.L71:
 538:./Libraries/STM32F4xx_HAL_Driver/Src/stm32f4xx_hal_adc_ex.c ****   
 1007              		.loc 1 538 3 is_stmt 1 view .LVU307
 538:./Libraries/STM32F4xx_HAL_Driver/Src/stm32f4xx_hal_adc_ex.c ****   
 1008              		.loc 1 538 3 view .LVU308
 1009 005a 0022     		movs	r2, #0
 1010 005c 83F83C20 		strb	r2, [r3, #60]
 538:./Libraries/STM32F4xx_HAL_Driver/Src/stm32f4xx_hal_adc_ex.c ****   
ARM GAS  /tmp/ccqyivU0.s 			page 43


 1011              		.loc 1 538 3 view .LVU309
 541:./Libraries/STM32F4xx_HAL_Driver/Src/stm32f4xx_hal_adc_ex.c **** }
 1012              		.loc 1 541 3 view .LVU310
 541:./Libraries/STM32F4xx_HAL_Driver/Src/stm32f4xx_hal_adc_ex.c **** }
 1013              		.loc 1 541 10 is_stmt 0 view .LVU311
 1014 0060 7047     		bx	lr
 1015              	.LVL78:
 1016              	.L73:
 496:./Libraries/STM32F4xx_HAL_Driver/Src/stm32f4xx_hal_adc_ex.c ****   
 1017              		.loc 1 496 21 view .LVU312
 1018 0062 0020     		movs	r0, #0
 1019              	.LVL79:
 496:./Libraries/STM32F4xx_HAL_Driver/Src/stm32f4xx_hal_adc_ex.c ****   
 1020              		.loc 1 496 21 view .LVU313
 1021 0064 F9E7     		b	.L71
 1022              	.LVL80:
 1023              	.L72:
 502:./Libraries/STM32F4xx_HAL_Driver/Src/stm32f4xx_hal_adc_ex.c ****     
 1024              		.loc 1 502 3 view .LVU314
 1025 0066 0220     		movs	r0, #2
 1026              	.LVL81:
 542:./Libraries/STM32F4xx_HAL_Driver/Src/stm32f4xx_hal_adc_ex.c **** 
 1027              		.loc 1 542 1 view .LVU315
 1028 0068 7047     		bx	lr
 1029              		.cfi_endproc
 1030              	.LFE130:
 1032              		.section	.text.HAL_ADCEx_InjectedGetValue,"ax",%progbits
 1033              		.align	1
 1034              		.global	HAL_ADCEx_InjectedGetValue
 1035              		.syntax unified
 1036              		.thumb
 1037              		.thumb_func
 1038              		.fpu fpv4-sp-d16
 1040              	HAL_ADCEx_InjectedGetValue:
 1041              	.LVL82:
 1042              	.LFB131:
 557:./Libraries/STM32F4xx_HAL_Driver/Src/stm32f4xx_hal_adc_ex.c ****   __IO uint32_t tmp = 0U;
 1043              		.loc 1 557 1 is_stmt 1 view -0
 1044              		.cfi_startproc
 1045              		@ args = 0, pretend = 0, frame = 8
 1046              		@ frame_needed = 0, uses_anonymous_args = 0
 1047              		@ link register save eliminated.
 557:./Libraries/STM32F4xx_HAL_Driver/Src/stm32f4xx_hal_adc_ex.c ****   __IO uint32_t tmp = 0U;
 1048              		.loc 1 557 1 is_stmt 0 view .LVU317
 1049 0000 82B0     		sub	sp, sp, #8
 1050              	.LCFI10:
 1051              		.cfi_def_cfa_offset 8
 558:./Libraries/STM32F4xx_HAL_Driver/Src/stm32f4xx_hal_adc_ex.c ****   
 1052              		.loc 1 558 3 is_stmt 1 view .LVU318
 558:./Libraries/STM32F4xx_HAL_Driver/Src/stm32f4xx_hal_adc_ex.c ****   
 1053              		.loc 1 558 17 is_stmt 0 view .LVU319
 1054 0002 0023     		movs	r3, #0
 1055 0004 0193     		str	r3, [sp, #4]
 561:./Libraries/STM32F4xx_HAL_Driver/Src/stm32f4xx_hal_adc_ex.c ****   
 1056              		.loc 1 561 3 is_stmt 1 view .LVU320
 565:./Libraries/STM32F4xx_HAL_Driver/Src/stm32f4xx_hal_adc_ex.c ****   
 1057              		.loc 1 565 3 view .LVU321
ARM GAS  /tmp/ccqyivU0.s 			page 44


 1058 0006 0368     		ldr	r3, [r0]
 1059 0008 6FF00402 		mvn	r2, #4
 1060 000c 1A60     		str	r2, [r3]
 568:./Libraries/STM32F4xx_HAL_Driver/Src/stm32f4xx_hal_adc_ex.c ****   {  
 1061              		.loc 1 568 3 view .LVU322
 1062 000e 0139     		subs	r1, r1, #1
 1063              	.LVL83:
 568:./Libraries/STM32F4xx_HAL_Driver/Src/stm32f4xx_hal_adc_ex.c ****   {  
 1064              		.loc 1 568 3 is_stmt 0 view .LVU323
 1065 0010 0329     		cmp	r1, #3
 1066 0012 06D8     		bhi	.L75
 1067 0014 DFE801F0 		tbb	[pc, r1]
 1068              	.L77:
 1069 0018 10       		.byte	(.L80-.L77)/2
 1070 0019 0C       		.byte	(.L79-.L77)/2
 1071 001a 08       		.byte	(.L78-.L77)/2
 1072 001b 02       		.byte	(.L76-.L77)/2
 1073              		.p2align 1
 1074              	.L76:
 572:./Libraries/STM32F4xx_HAL_Driver/Src/stm32f4xx_hal_adc_ex.c ****     }  
 1075              		.loc 1 572 7 is_stmt 1 view .LVU324
 572:./Libraries/STM32F4xx_HAL_Driver/Src/stm32f4xx_hal_adc_ex.c ****     }  
 1076              		.loc 1 572 18 is_stmt 0 view .LVU325
 1077 001c 0368     		ldr	r3, [r0]
 572:./Libraries/STM32F4xx_HAL_Driver/Src/stm32f4xx_hal_adc_ex.c ****     }  
 1078              		.loc 1 572 28 view .LVU326
 1079 001e 9B6C     		ldr	r3, [r3, #72]
 572:./Libraries/STM32F4xx_HAL_Driver/Src/stm32f4xx_hal_adc_ex.c ****     }  
 1080              		.loc 1 572 11 view .LVU327
 1081 0020 0193     		str	r3, [sp, #4]
 574:./Libraries/STM32F4xx_HAL_Driver/Src/stm32f4xx_hal_adc_ex.c ****     case ADC_INJECTED_RANK_3: 
 1082              		.loc 1 574 5 is_stmt 1 view .LVU328
 1083              	.L75:
 593:./Libraries/STM32F4xx_HAL_Driver/Src/stm32f4xx_hal_adc_ex.c **** }
 1084              		.loc 1 593 3 view .LVU329
 593:./Libraries/STM32F4xx_HAL_Driver/Src/stm32f4xx_hal_adc_ex.c **** }
 1085              		.loc 1 593 10 is_stmt 0 view .LVU330
 1086 0022 0198     		ldr	r0, [sp, #4]
 1087              	.LVL84:
 594:./Libraries/STM32F4xx_HAL_Driver/Src/stm32f4xx_hal_adc_ex.c **** 
 1088              		.loc 1 594 1 view .LVU331
 1089 0024 02B0     		add	sp, sp, #8
 1090              	.LCFI11:
 1091              		.cfi_remember_state
 1092              		.cfi_def_cfa_offset 0
 1093              		@ sp needed
 1094 0026 7047     		bx	lr
 1095              	.LVL85:
 1096              	.L78:
 1097              	.LCFI12:
 1098              		.cfi_restore_state
 577:./Libraries/STM32F4xx_HAL_Driver/Src/stm32f4xx_hal_adc_ex.c ****     }  
 1099              		.loc 1 577 7 is_stmt 1 view .LVU332
 577:./Libraries/STM32F4xx_HAL_Driver/Src/stm32f4xx_hal_adc_ex.c ****     }  
 1100              		.loc 1 577 18 is_stmt 0 view .LVU333
 1101 0028 0368     		ldr	r3, [r0]
 577:./Libraries/STM32F4xx_HAL_Driver/Src/stm32f4xx_hal_adc_ex.c ****     }  
ARM GAS  /tmp/ccqyivU0.s 			page 45


 1102              		.loc 1 577 28 view .LVU334
 1103 002a 5B6C     		ldr	r3, [r3, #68]
 577:./Libraries/STM32F4xx_HAL_Driver/Src/stm32f4xx_hal_adc_ex.c ****     }  
 1104              		.loc 1 577 11 view .LVU335
 1105 002c 0193     		str	r3, [sp, #4]
 579:./Libraries/STM32F4xx_HAL_Driver/Src/stm32f4xx_hal_adc_ex.c ****     case ADC_INJECTED_RANK_2: 
 1106              		.loc 1 579 5 is_stmt 1 view .LVU336
 1107 002e F8E7     		b	.L75
 1108              	.L79:
 582:./Libraries/STM32F4xx_HAL_Driver/Src/stm32f4xx_hal_adc_ex.c ****     }
 1109              		.loc 1 582 7 view .LVU337
 582:./Libraries/STM32F4xx_HAL_Driver/Src/stm32f4xx_hal_adc_ex.c ****     }
 1110              		.loc 1 582 18 is_stmt 0 view .LVU338
 1111 0030 0368     		ldr	r3, [r0]
 582:./Libraries/STM32F4xx_HAL_Driver/Src/stm32f4xx_hal_adc_ex.c ****     }
 1112              		.loc 1 582 28 view .LVU339
 1113 0032 1B6C     		ldr	r3, [r3, #64]
 582:./Libraries/STM32F4xx_HAL_Driver/Src/stm32f4xx_hal_adc_ex.c ****     }
 1114              		.loc 1 582 11 view .LVU340
 1115 0034 0193     		str	r3, [sp, #4]
 584:./Libraries/STM32F4xx_HAL_Driver/Src/stm32f4xx_hal_adc_ex.c ****     case ADC_INJECTED_RANK_1:
 1116              		.loc 1 584 5 is_stmt 1 view .LVU341
 1117 0036 F4E7     		b	.L75
 1118              	.L80:
 587:./Libraries/STM32F4xx_HAL_Driver/Src/stm32f4xx_hal_adc_ex.c ****     }
 1119              		.loc 1 587 7 view .LVU342
 587:./Libraries/STM32F4xx_HAL_Driver/Src/stm32f4xx_hal_adc_ex.c ****     }
 1120              		.loc 1 587 18 is_stmt 0 view .LVU343
 1121 0038 0368     		ldr	r3, [r0]
 587:./Libraries/STM32F4xx_HAL_Driver/Src/stm32f4xx_hal_adc_ex.c ****     }
 1122              		.loc 1 587 28 view .LVU344
 1123 003a DB6B     		ldr	r3, [r3, #60]
 587:./Libraries/STM32F4xx_HAL_Driver/Src/stm32f4xx_hal_adc_ex.c ****     }
 1124              		.loc 1 587 11 view .LVU345
 1125 003c 0193     		str	r3, [sp, #4]
 589:./Libraries/STM32F4xx_HAL_Driver/Src/stm32f4xx_hal_adc_ex.c ****     default:
 1126              		.loc 1 589 5 is_stmt 1 view .LVU346
 1127 003e F0E7     		b	.L75
 1128              		.cfi_endproc
 1129              	.LFE131:
 1131              		.section	.text.HAL_ADCEx_MultiModeStart_DMA,"ax",%progbits
 1132              		.align	1
 1133              		.global	HAL_ADCEx_MultiModeStart_DMA
 1134              		.syntax unified
 1135              		.thumb
 1136              		.thumb_func
 1137              		.fpu fpv4-sp-d16
 1139              	HAL_ADCEx_MultiModeStart_DMA:
 1140              	.LVL86:
 1141              	.LFB132:
 608:./Libraries/STM32F4xx_HAL_Driver/Src/stm32f4xx_hal_adc_ex.c ****   __IO uint32_t counter = 0U;
 1142              		.loc 1 608 1 view -0
 1143              		.cfi_startproc
 1144              		@ args = 0, pretend = 0, frame = 8
 1145              		@ frame_needed = 0, uses_anonymous_args = 0
 608:./Libraries/STM32F4xx_HAL_Driver/Src/stm32f4xx_hal_adc_ex.c ****   __IO uint32_t counter = 0U;
 1146              		.loc 1 608 1 is_stmt 0 view .LVU348
ARM GAS  /tmp/ccqyivU0.s 			page 46


 1147 0000 30B5     		push	{r4, r5, lr}
 1148              	.LCFI13:
 1149              		.cfi_def_cfa_offset 12
 1150              		.cfi_offset 4, -12
 1151              		.cfi_offset 5, -8
 1152              		.cfi_offset 14, -4
 1153 0002 83B0     		sub	sp, sp, #12
 1154              	.LCFI14:
 1155              		.cfi_def_cfa_offset 24
 1156 0004 1346     		mov	r3, r2
 609:./Libraries/STM32F4xx_HAL_Driver/Src/stm32f4xx_hal_adc_ex.c ****   ADC_Common_TypeDef *tmpADC_Common;
 1157              		.loc 1 609 3 is_stmt 1 view .LVU349
 609:./Libraries/STM32F4xx_HAL_Driver/Src/stm32f4xx_hal_adc_ex.c ****   ADC_Common_TypeDef *tmpADC_Common;
 1158              		.loc 1 609 17 is_stmt 0 view .LVU350
 1159 0006 0022     		movs	r2, #0
 1160              	.LVL87:
 609:./Libraries/STM32F4xx_HAL_Driver/Src/stm32f4xx_hal_adc_ex.c ****   ADC_Common_TypeDef *tmpADC_Common;
 1161              		.loc 1 609 17 view .LVU351
 1162 0008 0192     		str	r2, [sp, #4]
 610:./Libraries/STM32F4xx_HAL_Driver/Src/stm32f4xx_hal_adc_ex.c ****   
 1163              		.loc 1 610 3 is_stmt 1 view .LVU352
 613:./Libraries/STM32F4xx_HAL_Driver/Src/stm32f4xx_hal_adc_ex.c ****   assert_param(IS_ADC_EXT_TRIG_EDGE(hadc->Init.ExternalTrigConvEdge));
 1164              		.loc 1 613 3 view .LVU353
 614:./Libraries/STM32F4xx_HAL_Driver/Src/stm32f4xx_hal_adc_ex.c ****   assert_param(IS_FUNCTIONAL_STATE(hadc->Init.DMAContinuousRequests));
 1165              		.loc 1 614 3 view .LVU354
 615:./Libraries/STM32F4xx_HAL_Driver/Src/stm32f4xx_hal_adc_ex.c ****   
 1166              		.loc 1 615 3 view .LVU355
 618:./Libraries/STM32F4xx_HAL_Driver/Src/stm32f4xx_hal_adc_ex.c ****   
 1167              		.loc 1 618 3 view .LVU356
 618:./Libraries/STM32F4xx_HAL_Driver/Src/stm32f4xx_hal_adc_ex.c ****   
 1168              		.loc 1 618 3 view .LVU357
 1169 000a 90F83C20 		ldrb	r2, [r0, #60]	@ zero_extendqisi2
 1170 000e 012A     		cmp	r2, #1
 1171 0010 70D0     		beq	.L92
 1172 0012 0546     		mov	r5, r0
 618:./Libraries/STM32F4xx_HAL_Driver/Src/stm32f4xx_hal_adc_ex.c ****   
 1173              		.loc 1 618 3 discriminator 2 view .LVU358
 1174 0014 0122     		movs	r2, #1
 1175 0016 80F83C20 		strb	r2, [r0, #60]
 618:./Libraries/STM32F4xx_HAL_Driver/Src/stm32f4xx_hal_adc_ex.c ****   
 1176              		.loc 1 618 3 discriminator 2 view .LVU359
 622:./Libraries/STM32F4xx_HAL_Driver/Src/stm32f4xx_hal_adc_ex.c ****   {  
 1177              		.loc 1 622 3 discriminator 2 view .LVU360
 622:./Libraries/STM32F4xx_HAL_Driver/Src/stm32f4xx_hal_adc_ex.c ****   {  
 1178              		.loc 1 622 11 is_stmt 0 discriminator 2 view .LVU361
 1179 001a 0268     		ldr	r2, [r0]
 622:./Libraries/STM32F4xx_HAL_Driver/Src/stm32f4xx_hal_adc_ex.c ****   {  
 1180              		.loc 1 622 21 discriminator 2 view .LVU362
 1181 001c 9068     		ldr	r0, [r2, #8]
 1182              	.LVL88:
 622:./Libraries/STM32F4xx_HAL_Driver/Src/stm32f4xx_hal_adc_ex.c ****   {  
 1183              		.loc 1 622 5 discriminator 2 view .LVU363
 1184 001e 10F0010F 		tst	r0, #1
 1185 0022 13D1     		bne	.L84
 625:./Libraries/STM32F4xx_HAL_Driver/Src/stm32f4xx_hal_adc_ex.c ****     
 1186              		.loc 1 625 5 is_stmt 1 view .LVU364
 1187 0024 9068     		ldr	r0, [r2, #8]
ARM GAS  /tmp/ccqyivU0.s 			page 47


 1188 0026 40F00100 		orr	r0, r0, #1
 1189 002a 9060     		str	r0, [r2, #8]
 629:./Libraries/STM32F4xx_HAL_Driver/Src/stm32f4xx_hal_adc_ex.c ****     while(counter != 0U)
 1190              		.loc 1 629 5 view .LVU365
 629:./Libraries/STM32F4xx_HAL_Driver/Src/stm32f4xx_hal_adc_ex.c ****     while(counter != 0U)
 1191              		.loc 1 629 53 is_stmt 0 view .LVU366
 1192 002c 354A     		ldr	r2, .L96
 1193 002e 1068     		ldr	r0, [r2]
 1194 0030 354A     		ldr	r2, .L96+4
 1195 0032 A2FB0020 		umull	r2, r0, r2, r0
 1196 0036 800C     		lsrs	r0, r0, #18
 629:./Libraries/STM32F4xx_HAL_Driver/Src/stm32f4xx_hal_adc_ex.c ****     while(counter != 0U)
 1197              		.loc 1 629 34 view .LVU367
 1198 0038 00EB4000 		add	r0, r0, r0, lsl #1
 629:./Libraries/STM32F4xx_HAL_Driver/Src/stm32f4xx_hal_adc_ex.c ****     while(counter != 0U)
 1199              		.loc 1 629 13 view .LVU368
 1200 003c 0190     		str	r0, [sp, #4]
 630:./Libraries/STM32F4xx_HAL_Driver/Src/stm32f4xx_hal_adc_ex.c ****     {
 1201              		.loc 1 630 5 is_stmt 1 view .LVU369
 630:./Libraries/STM32F4xx_HAL_Driver/Src/stm32f4xx_hal_adc_ex.c ****     {
 1202              		.loc 1 630 10 is_stmt 0 view .LVU370
 1203 003e 02E0     		b	.L85
 1204              	.L86:
 632:./Libraries/STM32F4xx_HAL_Driver/Src/stm32f4xx_hal_adc_ex.c ****     }
 1205              		.loc 1 632 7 is_stmt 1 view .LVU371
 632:./Libraries/STM32F4xx_HAL_Driver/Src/stm32f4xx_hal_adc_ex.c ****     }
 1206              		.loc 1 632 14 is_stmt 0 view .LVU372
 1207 0040 019C     		ldr	r4, [sp, #4]
 1208 0042 013C     		subs	r4, r4, #1
 1209 0044 0194     		str	r4, [sp, #4]
 1210              	.L85:
 630:./Libraries/STM32F4xx_HAL_Driver/Src/stm32f4xx_hal_adc_ex.c ****     {
 1211              		.loc 1 630 10 is_stmt 1 view .LVU373
 630:./Libraries/STM32F4xx_HAL_Driver/Src/stm32f4xx_hal_adc_ex.c ****     {
 1212              		.loc 1 630 19 is_stmt 0 view .LVU374
 1213 0046 0198     		ldr	r0, [sp, #4]
 630:./Libraries/STM32F4xx_HAL_Driver/Src/stm32f4xx_hal_adc_ex.c ****     {
 1214              		.loc 1 630 10 view .LVU375
 1215 0048 0028     		cmp	r0, #0
 1216 004a F9D1     		bne	.L86
 1217              	.L84:
 637:./Libraries/STM32F4xx_HAL_Driver/Src/stm32f4xx_hal_adc_ex.c ****   {
 1218              		.loc 1 637 3 is_stmt 1 view .LVU376
 637:./Libraries/STM32F4xx_HAL_Driver/Src/stm32f4xx_hal_adc_ex.c ****   {
 1219              		.loc 1 637 6 is_stmt 0 view .LVU377
 1220 004c 2A68     		ldr	r2, [r5]
 1221 004e 9068     		ldr	r0, [r2, #8]
 637:./Libraries/STM32F4xx_HAL_Driver/Src/stm32f4xx_hal_adc_ex.c ****   {
 1222              		.loc 1 637 5 view .LVU378
 1223 0050 10F0010F 		tst	r0, #1
 1224 0054 50D0     		beq	.L93
 642:./Libraries/STM32F4xx_HAL_Driver/Src/stm32f4xx_hal_adc_ex.c ****                       HAL_ADC_STATE_READY | HAL_ADC_STATE_REG_EOC | HAL_ADC_STATE_REG_OVR,
 1225              		.loc 1 642 5 is_stmt 1 view .LVU379
 1226 0056 286C     		ldr	r0, [r5, #64]
 1227 0058 20F4E060 		bic	r0, r0, #1792
 1228 005c 20F00100 		bic	r0, r0, #1
 1229 0060 40F48070 		orr	r0, r0, #256
ARM GAS  /tmp/ccqyivU0.s 			page 48


 1230 0064 2864     		str	r0, [r5, #64]
 648:./Libraries/STM32F4xx_HAL_Driver/Src/stm32f4xx_hal_adc_ex.c ****     {
 1231              		.loc 1 648 5 view .LVU380
 648:./Libraries/STM32F4xx_HAL_Driver/Src/stm32f4xx_hal_adc_ex.c ****     {
 1232              		.loc 1 648 9 is_stmt 0 view .LVU381
 1233 0066 5268     		ldr	r2, [r2, #4]
 648:./Libraries/STM32F4xx_HAL_Driver/Src/stm32f4xx_hal_adc_ex.c ****     {
 1234              		.loc 1 648 8 view .LVU382
 1235 0068 12F4806F 		tst	r2, #1024
 1236 006c 05D0     		beq	.L87
 650:./Libraries/STM32F4xx_HAL_Driver/Src/stm32f4xx_hal_adc_ex.c ****     }
 1237              		.loc 1 650 7 is_stmt 1 view .LVU383
 1238 006e 2A6C     		ldr	r2, [r5, #64]
 1239 0070 22F44052 		bic	r2, r2, #12288
 1240 0074 42F48052 		orr	r2, r2, #4096
 1241 0078 2A64     		str	r2, [r5, #64]
 1242              	.L87:
 654:./Libraries/STM32F4xx_HAL_Driver/Src/stm32f4xx_hal_adc_ex.c ****     {
 1243              		.loc 1 654 5 view .LVU384
 654:./Libraries/STM32F4xx_HAL_Driver/Src/stm32f4xx_hal_adc_ex.c ****     {
 1244              		.loc 1 654 9 is_stmt 0 view .LVU385
 1245 007a 2A6C     		ldr	r2, [r5, #64]
 654:./Libraries/STM32F4xx_HAL_Driver/Src/stm32f4xx_hal_adc_ex.c ****     {
 1246              		.loc 1 654 8 view .LVU386
 1247 007c 12F4805F 		tst	r2, #4096
 1248 0080 2FD0     		beq	.L88
 657:./Libraries/STM32F4xx_HAL_Driver/Src/stm32f4xx_hal_adc_ex.c ****     }
 1249              		.loc 1 657 7 is_stmt 1 view .LVU387
 1250 0082 6A6C     		ldr	r2, [r5, #68]
 1251 0084 22F00602 		bic	r2, r2, #6
 1252 0088 6A64     		str	r2, [r5, #68]
 1253              	.L89:
 668:./Libraries/STM32F4xx_HAL_Driver/Src/stm32f4xx_hal_adc_ex.c ****     
 1254              		.loc 1 668 5 view .LVU388
 668:./Libraries/STM32F4xx_HAL_Driver/Src/stm32f4xx_hal_adc_ex.c ****     
 1255              		.loc 1 668 5 view .LVU389
 1256 008a 0022     		movs	r2, #0
 1257 008c 85F83C20 		strb	r2, [r5, #60]
 668:./Libraries/STM32F4xx_HAL_Driver/Src/stm32f4xx_hal_adc_ex.c ****     
 1258              		.loc 1 668 5 view .LVU390
 671:./Libraries/STM32F4xx_HAL_Driver/Src/stm32f4xx_hal_adc_ex.c ****     
 1259              		.loc 1 671 5 view .LVU391
 671:./Libraries/STM32F4xx_HAL_Driver/Src/stm32f4xx_hal_adc_ex.c ****     
 1260              		.loc 1 671 9 is_stmt 0 view .LVU392
 1261 0090 AA6B     		ldr	r2, [r5, #56]
 671:./Libraries/STM32F4xx_HAL_Driver/Src/stm32f4xx_hal_adc_ex.c ****     
 1262              		.loc 1 671 40 view .LVU393
 1263 0092 1E48     		ldr	r0, .L96+8
 1264 0094 D063     		str	r0, [r2, #60]
 674:./Libraries/STM32F4xx_HAL_Driver/Src/stm32f4xx_hal_adc_ex.c ****     
 1265              		.loc 1 674 5 is_stmt 1 view .LVU394
 674:./Libraries/STM32F4xx_HAL_Driver/Src/stm32f4xx_hal_adc_ex.c ****     
 1266              		.loc 1 674 9 is_stmt 0 view .LVU395
 1267 0096 AA6B     		ldr	r2, [r5, #56]
 674:./Libraries/STM32F4xx_HAL_Driver/Src/stm32f4xx_hal_adc_ex.c ****     
 1268              		.loc 1 674 44 view .LVU396
 1269 0098 1D48     		ldr	r0, .L96+12
ARM GAS  /tmp/ccqyivU0.s 			page 49


 1270 009a 1064     		str	r0, [r2, #64]
 677:./Libraries/STM32F4xx_HAL_Driver/Src/stm32f4xx_hal_adc_ex.c ****     
 1271              		.loc 1 677 5 is_stmt 1 view .LVU397
 677:./Libraries/STM32F4xx_HAL_Driver/Src/stm32f4xx_hal_adc_ex.c ****     
 1272              		.loc 1 677 9 is_stmt 0 view .LVU398
 1273 009c AA6B     		ldr	r2, [r5, #56]
 677:./Libraries/STM32F4xx_HAL_Driver/Src/stm32f4xx_hal_adc_ex.c ****     
 1274              		.loc 1 677 41 view .LVU399
 1275 009e 1D48     		ldr	r0, .L96+16
 1276 00a0 D064     		str	r0, [r2, #76]
 684:./Libraries/STM32F4xx_HAL_Driver/Src/stm32f4xx_hal_adc_ex.c **** 
 1277              		.loc 1 684 5 is_stmt 1 view .LVU400
 1278 00a2 2A68     		ldr	r2, [r5]
 1279 00a4 6FF00200 		mvn	r0, #2
 1280 00a8 1060     		str	r0, [r2]
 687:./Libraries/STM32F4xx_HAL_Driver/Src/stm32f4xx_hal_adc_ex.c **** 
 1281              		.loc 1 687 5 view .LVU401
 1282 00aa 2868     		ldr	r0, [r5]
 1283 00ac 4268     		ldr	r2, [r0, #4]
 1284 00ae 42F08062 		orr	r2, r2, #67108864
 1285 00b2 4260     		str	r2, [r0, #4]
 692:./Libraries/STM32F4xx_HAL_Driver/Src/stm32f4xx_hal_adc_ex.c **** 
 1286              		.loc 1 692 5 view .LVU402
 1287              	.LVL89:
 694:./Libraries/STM32F4xx_HAL_Driver/Src/stm32f4xx_hal_adc_ex.c ****     {
 1288              		.loc 1 694 5 view .LVU403
 694:./Libraries/STM32F4xx_HAL_Driver/Src/stm32f4xx_hal_adc_ex.c ****     {
 1289              		.loc 1 694 19 is_stmt 0 view .LVU404
 1290 00b4 2A6B     		ldr	r2, [r5, #48]
 694:./Libraries/STM32F4xx_HAL_Driver/Src/stm32f4xx_hal_adc_ex.c ****     {
 1291              		.loc 1 694 8 view .LVU405
 1292 00b6 BAB1     		cbz	r2, .L90
 697:./Libraries/STM32F4xx_HAL_Driver/Src/stm32f4xx_hal_adc_ex.c ****     }
 1293              		.loc 1 697 7 is_stmt 1 view .LVU406
 697:./Libraries/STM32F4xx_HAL_Driver/Src/stm32f4xx_hal_adc_ex.c ****     }
 1294              		.loc 1 697 26 is_stmt 0 view .LVU407
 1295 00b8 1748     		ldr	r0, .L96+20
 1296 00ba 4268     		ldr	r2, [r0, #4]
 1297 00bc 42F40052 		orr	r2, r2, #8192
 1298 00c0 4260     		str	r2, [r0, #4]
 1299              	.L91:
 706:./Libraries/STM32F4xx_HAL_Driver/Src/stm32f4xx_hal_adc_ex.c ****     
 1300              		.loc 1 706 5 is_stmt 1 view .LVU408
 1301 00c2 0A46     		mov	r2, r1
 1302 00c4 1549     		ldr	r1, .L96+24
 1303              	.LVL90:
 706:./Libraries/STM32F4xx_HAL_Driver/Src/stm32f4xx_hal_adc_ex.c ****     
 1304              		.loc 1 706 5 is_stmt 0 view .LVU409
 1305 00c6 A86B     		ldr	r0, [r5, #56]
 1306 00c8 FFF7FEFF 		bl	HAL_DMA_Start_IT
 1307              	.LVL91:
 709:./Libraries/STM32F4xx_HAL_Driver/Src/stm32f4xx_hal_adc_ex.c ****     {
 1308              		.loc 1 709 5 is_stmt 1 view .LVU410
 709:./Libraries/STM32F4xx_HAL_Driver/Src/stm32f4xx_hal_adc_ex.c ****     {
 1309              		.loc 1 709 13 is_stmt 0 view .LVU411
 1310 00cc 2B68     		ldr	r3, [r5]
 709:./Libraries/STM32F4xx_HAL_Driver/Src/stm32f4xx_hal_adc_ex.c ****     {
ARM GAS  /tmp/ccqyivU0.s 			page 50


 1311              		.loc 1 709 23 view .LVU412
 1312 00ce 9A68     		ldr	r2, [r3, #8]
 709:./Libraries/STM32F4xx_HAL_Driver/Src/stm32f4xx_hal_adc_ex.c ****     {
 1313              		.loc 1 709 7 view .LVU413
 1314 00d0 12F0405F 		tst	r2, #805306368
 1315 00d4 13D1     		bne	.L94
 712:./Libraries/STM32F4xx_HAL_Driver/Src/stm32f4xx_hal_adc_ex.c ****     }
 1316              		.loc 1 712 7 is_stmt 1 view .LVU414
 712:./Libraries/STM32F4xx_HAL_Driver/Src/stm32f4xx_hal_adc_ex.c ****     }
 1317              		.loc 1 712 27 is_stmt 0 view .LVU415
 1318 00d6 9A68     		ldr	r2, [r3, #8]
 1319 00d8 42F08042 		orr	r2, r2, #1073741824
 1320 00dc 9A60     		str	r2, [r3, #8]
 717:./Libraries/STM32F4xx_HAL_Driver/Src/stm32f4xx_hal_adc_ex.c **** }
 1321              		.loc 1 717 10 view .LVU416
 1322 00de 0020     		movs	r0, #0
 1323 00e0 0BE0     		b	.L83
 1324              	.LVL92:
 1325              	.L88:
 662:./Libraries/STM32F4xx_HAL_Driver/Src/stm32f4xx_hal_adc_ex.c ****     }
 1326              		.loc 1 662 7 is_stmt 1 view .LVU417
 1327 00e2 0022     		movs	r2, #0
 1328 00e4 6A64     		str	r2, [r5, #68]
 1329 00e6 D0E7     		b	.L89
 1330              	.LVL93:
 1331              	.L90:
 702:./Libraries/STM32F4xx_HAL_Driver/Src/stm32f4xx_hal_adc_ex.c ****     }
 1332              		.loc 1 702 7 view .LVU418
 702:./Libraries/STM32F4xx_HAL_Driver/Src/stm32f4xx_hal_adc_ex.c ****     }
 1333              		.loc 1 702 26 is_stmt 0 view .LVU419
 1334 00e8 0B48     		ldr	r0, .L96+20
 1335 00ea 4268     		ldr	r2, [r0, #4]
 1336 00ec 22F40052 		bic	r2, r2, #8192
 1337 00f0 4260     		str	r2, [r0, #4]
 1338 00f2 E6E7     		b	.L91
 1339              	.LVL94:
 1340              	.L92:
 618:./Libraries/STM32F4xx_HAL_Driver/Src/stm32f4xx_hal_adc_ex.c ****   
 1341              		.loc 1 618 3 view .LVU420
 1342 00f4 0220     		movs	r0, #2
 1343              	.LVL95:
 618:./Libraries/STM32F4xx_HAL_Driver/Src/stm32f4xx_hal_adc_ex.c ****   
 1344              		.loc 1 618 3 view .LVU421
 1345 00f6 00E0     		b	.L83
 1346              	.LVL96:
 1347              	.L93:
 717:./Libraries/STM32F4xx_HAL_Driver/Src/stm32f4xx_hal_adc_ex.c **** }
 1348              		.loc 1 717 10 view .LVU422
 1349 00f8 0020     		movs	r0, #0
 1350              	.LVL97:
 1351              	.L83:
 718:./Libraries/STM32F4xx_HAL_Driver/Src/stm32f4xx_hal_adc_ex.c **** 
 1352              		.loc 1 718 1 view .LVU423
 1353 00fa 03B0     		add	sp, sp, #12
 1354              	.LCFI15:
 1355              		.cfi_remember_state
 1356              		.cfi_def_cfa_offset 12
ARM GAS  /tmp/ccqyivU0.s 			page 51


 1357              		@ sp needed
 1358 00fc 30BD     		pop	{r4, r5, pc}
 1359              	.LVL98:
 1360              	.L94:
 1361              	.LCFI16:
 1362              		.cfi_restore_state
 717:./Libraries/STM32F4xx_HAL_Driver/Src/stm32f4xx_hal_adc_ex.c **** }
 1363              		.loc 1 717 10 view .LVU424
 1364 00fe 0020     		movs	r0, #0
 1365 0100 FBE7     		b	.L83
 1366              	.L97:
 1367 0102 00BF     		.align	2
 1368              	.L96:
 1369 0104 00000000 		.word	SystemCoreClock
 1370 0108 83DE1B43 		.word	1125899907
 1371 010c 00000000 		.word	ADC_MultiModeDMAConvCplt
 1372 0110 00000000 		.word	ADC_MultiModeDMAHalfConvCplt
 1373 0114 00000000 		.word	ADC_MultiModeDMAError
 1374 0118 00230140 		.word	1073816320
 1375 011c 08230140 		.word	1073816328
 1376              		.cfi_endproc
 1377              	.LFE132:
 1379              		.section	.text.HAL_ADCEx_MultiModeStop_DMA,"ax",%progbits
 1380              		.align	1
 1381              		.global	HAL_ADCEx_MultiModeStop_DMA
 1382              		.syntax unified
 1383              		.thumb
 1384              		.thumb_func
 1385              		.fpu fpv4-sp-d16
 1387              	HAL_ADCEx_MultiModeStop_DMA:
 1388              	.LVL99:
 1389              	.LFB133:
 727:./Libraries/STM32F4xx_HAL_Driver/Src/stm32f4xx_hal_adc_ex.c ****   HAL_StatusTypeDef tmp_hal_status = HAL_OK;
 1390              		.loc 1 727 1 is_stmt 1 view -0
 1391              		.cfi_startproc
 1392              		@ args = 0, pretend = 0, frame = 0
 1393              		@ frame_needed = 0, uses_anonymous_args = 0
 728:./Libraries/STM32F4xx_HAL_Driver/Src/stm32f4xx_hal_adc_ex.c ****   ADC_Common_TypeDef *tmpADC_Common;
 1394              		.loc 1 728 3 view .LVU426
 729:./Libraries/STM32F4xx_HAL_Driver/Src/stm32f4xx_hal_adc_ex.c ****   
 1395              		.loc 1 729 3 view .LVU427
 732:./Libraries/STM32F4xx_HAL_Driver/Src/stm32f4xx_hal_adc_ex.c ****   
 1396              		.loc 1 732 3 view .LVU428
 735:./Libraries/STM32F4xx_HAL_Driver/Src/stm32f4xx_hal_adc_ex.c ****   
 1397              		.loc 1 735 3 view .LVU429
 735:./Libraries/STM32F4xx_HAL_Driver/Src/stm32f4xx_hal_adc_ex.c ****   
 1398              		.loc 1 735 3 view .LVU430
 1399 0000 90F83C30 		ldrb	r3, [r0, #60]	@ zero_extendqisi2
 1400 0004 012B     		cmp	r3, #1
 1401 0006 29D0     		beq	.L101
 727:./Libraries/STM32F4xx_HAL_Driver/Src/stm32f4xx_hal_adc_ex.c ****   HAL_StatusTypeDef tmp_hal_status = HAL_OK;
 1402              		.loc 1 727 1 is_stmt 0 discriminator 2 view .LVU431
 1403 0008 10B5     		push	{r4, lr}
 1404              	.LCFI17:
 1405              		.cfi_def_cfa_offset 8
 1406              		.cfi_offset 4, -8
 1407              		.cfi_offset 14, -4
ARM GAS  /tmp/ccqyivU0.s 			page 52


 1408 000a 0446     		mov	r4, r0
 735:./Libraries/STM32F4xx_HAL_Driver/Src/stm32f4xx_hal_adc_ex.c ****   
 1409              		.loc 1 735 3 is_stmt 1 discriminator 2 view .LVU432
 1410 000c 0123     		movs	r3, #1
 1411 000e 80F83C30 		strb	r3, [r0, #60]
 735:./Libraries/STM32F4xx_HAL_Driver/Src/stm32f4xx_hal_adc_ex.c ****   
 1412              		.loc 1 735 3 discriminator 2 view .LVU433
 739:./Libraries/STM32F4xx_HAL_Driver/Src/stm32f4xx_hal_adc_ex.c **** 
 1413              		.loc 1 739 3 discriminator 2 view .LVU434
 1414 0012 0268     		ldr	r2, [r0]
 1415 0014 9368     		ldr	r3, [r2, #8]
 1416 0016 23F00103 		bic	r3, r3, #1
 1417 001a 9360     		str	r3, [r2, #8]
 744:./Libraries/STM32F4xx_HAL_Driver/Src/stm32f4xx_hal_adc_ex.c **** 
 1418              		.loc 1 744 3 discriminator 2 view .LVU435
 1419              	.LVL100:
 747:./Libraries/STM32F4xx_HAL_Driver/Src/stm32f4xx_hal_adc_ex.c ****   {
 1420              		.loc 1 747 3 discriminator 2 view .LVU436
 747:./Libraries/STM32F4xx_HAL_Driver/Src/stm32f4xx_hal_adc_ex.c ****   {
 1421              		.loc 1 747 6 is_stmt 0 discriminator 2 view .LVU437
 1422 001c 0368     		ldr	r3, [r0]
 1423 001e 9B68     		ldr	r3, [r3, #8]
 747:./Libraries/STM32F4xx_HAL_Driver/Src/stm32f4xx_hal_adc_ex.c ****   {
 1424              		.loc 1 747 5 discriminator 2 view .LVU438
 1425 0020 13F0010F 		tst	r3, #1
 1426 0024 04D0     		beq	.L107
 728:./Libraries/STM32F4xx_HAL_Driver/Src/stm32f4xx_hal_adc_ex.c ****   ADC_Common_TypeDef *tmpADC_Common;
 1427              		.loc 1 728 21 view .LVU439
 1428 0026 0020     		movs	r0, #0
 1429              	.LVL101:
 1430              	.L100:
 766:./Libraries/STM32F4xx_HAL_Driver/Src/stm32f4xx_hal_adc_ex.c ****   
 1431              		.loc 1 766 3 is_stmt 1 view .LVU440
 766:./Libraries/STM32F4xx_HAL_Driver/Src/stm32f4xx_hal_adc_ex.c ****   
 1432              		.loc 1 766 3 view .LVU441
 1433 0028 0023     		movs	r3, #0
 1434 002a 84F83C30 		strb	r3, [r4, #60]
 766:./Libraries/STM32F4xx_HAL_Driver/Src/stm32f4xx_hal_adc_ex.c ****   
 1435              		.loc 1 766 3 view .LVU442
 769:./Libraries/STM32F4xx_HAL_Driver/Src/stm32f4xx_hal_adc_ex.c **** }
 1436              		.loc 1 769 3 view .LVU443
 770:./Libraries/STM32F4xx_HAL_Driver/Src/stm32f4xx_hal_adc_ex.c **** 
 1437              		.loc 1 770 1 is_stmt 0 view .LVU444
 1438 002e 10BD     		pop	{r4, pc}
 1439              	.LVL102:
 1440              	.L107:
 750:./Libraries/STM32F4xx_HAL_Driver/Src/stm32f4xx_hal_adc_ex.c ****     
 1441              		.loc 1 750 5 is_stmt 1 view .LVU445
 750:./Libraries/STM32F4xx_HAL_Driver/Src/stm32f4xx_hal_adc_ex.c ****     
 1442              		.loc 1 750 24 is_stmt 0 view .LVU446
 1443 0030 0B4A     		ldr	r2, .L108
 1444 0032 5368     		ldr	r3, [r2, #4]
 1445 0034 23F40053 		bic	r3, r3, #8192
 1446 0038 5360     		str	r3, [r2, #4]
 754:./Libraries/STM32F4xx_HAL_Driver/Src/stm32f4xx_hal_adc_ex.c ****     
 1447              		.loc 1 754 5 is_stmt 1 view .LVU447
 754:./Libraries/STM32F4xx_HAL_Driver/Src/stm32f4xx_hal_adc_ex.c ****     
ARM GAS  /tmp/ccqyivU0.s 			page 53


 1448              		.loc 1 754 22 is_stmt 0 view .LVU448
 1449 003a 806B     		ldr	r0, [r0, #56]
 1450              	.LVL103:
 754:./Libraries/STM32F4xx_HAL_Driver/Src/stm32f4xx_hal_adc_ex.c ****     
 1451              		.loc 1 754 22 view .LVU449
 1452 003c FFF7FEFF 		bl	HAL_DMA_Abort
 1453              	.LVL104:
 757:./Libraries/STM32F4xx_HAL_Driver/Src/stm32f4xx_hal_adc_ex.c ****     
 1454              		.loc 1 757 5 is_stmt 1 view .LVU450
 1455 0040 2268     		ldr	r2, [r4]
 1456 0042 5368     		ldr	r3, [r2, #4]
 1457 0044 23F08063 		bic	r3, r3, #67108864
 1458 0048 5360     		str	r3, [r2, #4]
 760:./Libraries/STM32F4xx_HAL_Driver/Src/stm32f4xx_hal_adc_ex.c ****                       HAL_ADC_STATE_REG_BUSY | HAL_ADC_STATE_INJ_BUSY,
 1459              		.loc 1 760 5 view .LVU451
 1460 004a 236C     		ldr	r3, [r4, #64]
 1461 004c 23F48853 		bic	r3, r3, #4352
 1462 0050 23F00103 		bic	r3, r3, #1
 1463 0054 43F00103 		orr	r3, r3, #1
 1464 0058 2364     		str	r3, [r4, #64]
 1465 005a E5E7     		b	.L100
 1466              	.LVL105:
 1467              	.L101:
 1468              	.LCFI18:
 1469              		.cfi_def_cfa_offset 0
 1470              		.cfi_restore 4
 1471              		.cfi_restore 14
 735:./Libraries/STM32F4xx_HAL_Driver/Src/stm32f4xx_hal_adc_ex.c ****   
 1472              		.loc 1 735 3 is_stmt 0 view .LVU452
 1473 005c 0220     		movs	r0, #2
 1474              	.LVL106:
 770:./Libraries/STM32F4xx_HAL_Driver/Src/stm32f4xx_hal_adc_ex.c **** 
 1475              		.loc 1 770 1 view .LVU453
 1476 005e 7047     		bx	lr
 1477              	.L109:
 1478              		.align	2
 1479              	.L108:
 1480 0060 00230140 		.word	1073816320
 1481              		.cfi_endproc
 1482              	.LFE133:
 1484              		.section	.text.HAL_ADCEx_MultiModeGetValue,"ax",%progbits
 1485              		.align	1
 1486              		.global	HAL_ADCEx_MultiModeGetValue
 1487              		.syntax unified
 1488              		.thumb
 1489              		.thumb_func
 1490              		.fpu fpv4-sp-d16
 1492              	HAL_ADCEx_MultiModeGetValue:
 1493              	.LVL107:
 1494              	.LFB134:
 780:./Libraries/STM32F4xx_HAL_Driver/Src/stm32f4xx_hal_adc_ex.c ****   ADC_Common_TypeDef *tmpADC_Common;
 1495              		.loc 1 780 1 is_stmt 1 view -0
 1496              		.cfi_startproc
 1497              		@ args = 0, pretend = 0, frame = 0
 1498              		@ frame_needed = 0, uses_anonymous_args = 0
 1499              		@ link register save eliminated.
 781:./Libraries/STM32F4xx_HAL_Driver/Src/stm32f4xx_hal_adc_ex.c **** 
ARM GAS  /tmp/ccqyivU0.s 			page 54


 1500              		.loc 1 781 3 view .LVU455
 786:./Libraries/STM32F4xx_HAL_Driver/Src/stm32f4xx_hal_adc_ex.c **** 
 1501              		.loc 1 786 3 view .LVU456
 789:./Libraries/STM32F4xx_HAL_Driver/Src/stm32f4xx_hal_adc_ex.c **** }
 1502              		.loc 1 789 3 view .LVU457
 789:./Libraries/STM32F4xx_HAL_Driver/Src/stm32f4xx_hal_adc_ex.c **** }
 1503              		.loc 1 789 23 is_stmt 0 view .LVU458
 1504 0000 014B     		ldr	r3, .L111
 1505 0002 9868     		ldr	r0, [r3, #8]
 1506              	.LVL108:
 790:./Libraries/STM32F4xx_HAL_Driver/Src/stm32f4xx_hal_adc_ex.c **** 
 1507              		.loc 1 790 1 view .LVU459
 1508 0004 7047     		bx	lr
 1509              	.L112:
 1510 0006 00BF     		.align	2
 1511              	.L111:
 1512 0008 00230140 		.word	1073816320
 1513              		.cfi_endproc
 1514              	.LFE134:
 1516              		.section	.text.HAL_ADCEx_InjectedConvCpltCallback,"ax",%progbits
 1517              		.align	1
 1518              		.weak	HAL_ADCEx_InjectedConvCpltCallback
 1519              		.syntax unified
 1520              		.thumb
 1521              		.thumb_func
 1522              		.fpu fpv4-sp-d16
 1524              	HAL_ADCEx_InjectedConvCpltCallback:
 1525              	.LVL109:
 1526              	.LFB135:
 799:./Libraries/STM32F4xx_HAL_Driver/Src/stm32f4xx_hal_adc_ex.c ****   /* Prevent unused argument(s) compilation warning */
 1527              		.loc 1 799 1 is_stmt 1 view -0
 1528              		.cfi_startproc
 1529              		@ args = 0, pretend = 0, frame = 0
 1530              		@ frame_needed = 0, uses_anonymous_args = 0
 1531              		@ link register save eliminated.
 801:./Libraries/STM32F4xx_HAL_Driver/Src/stm32f4xx_hal_adc_ex.c ****   /* NOTE : This function Should not be modified, when the callback is needed,
 1532              		.loc 1 801 3 view .LVU461
 805:./Libraries/STM32F4xx_HAL_Driver/Src/stm32f4xx_hal_adc_ex.c **** 
 1533              		.loc 1 805 1 is_stmt 0 view .LVU462
 1534 0000 7047     		bx	lr
 1535              		.cfi_endproc
 1536              	.LFE135:
 1538              		.section	.text.HAL_ADCEx_InjectedConfigChannel,"ax",%progbits
 1539              		.align	1
 1540              		.global	HAL_ADCEx_InjectedConfigChannel
 1541              		.syntax unified
 1542              		.thumb
 1543              		.thumb_func
 1544              		.fpu fpv4-sp-d16
 1546              	HAL_ADCEx_InjectedConfigChannel:
 1547              	.LVL110:
 1548              	.LFB136:
 816:./Libraries/STM32F4xx_HAL_Driver/Src/stm32f4xx_hal_adc_ex.c ****   
 1549              		.loc 1 816 1 is_stmt 1 view -0
 1550              		.cfi_startproc
 1551              		@ args = 0, pretend = 0, frame = 0
 1552              		@ frame_needed = 0, uses_anonymous_args = 0
ARM GAS  /tmp/ccqyivU0.s 			page 55


 1553              		@ link register save eliminated.
 823:./Libraries/STM32F4xx_HAL_Driver/Src/stm32f4xx_hal_adc_ex.c **** 
 1554              		.loc 1 823 3 view .LVU464
 826:./Libraries/STM32F4xx_HAL_Driver/Src/stm32f4xx_hal_adc_ex.c ****   assert_param(IS_ADC_INJECTED_RANK(sConfigInjected->InjectedRank));
 1555              		.loc 1 826 3 view .LVU465
 827:./Libraries/STM32F4xx_HAL_Driver/Src/stm32f4xx_hal_adc_ex.c ****   assert_param(IS_ADC_SAMPLE_TIME(sConfigInjected->InjectedSamplingTime));
 1556              		.loc 1 827 3 view .LVU466
 828:./Libraries/STM32F4xx_HAL_Driver/Src/stm32f4xx_hal_adc_ex.c ****   assert_param(IS_ADC_EXT_INJEC_TRIG(sConfigInjected->ExternalTrigInjecConv));
 1557              		.loc 1 828 3 view .LVU467
 829:./Libraries/STM32F4xx_HAL_Driver/Src/stm32f4xx_hal_adc_ex.c ****   assert_param(IS_ADC_INJECTED_LENGTH(sConfigInjected->InjectedNbrOfConversion));
 1558              		.loc 1 829 3 view .LVU468
 830:./Libraries/STM32F4xx_HAL_Driver/Src/stm32f4xx_hal_adc_ex.c ****   assert_param(IS_FUNCTIONAL_STATE(sConfigInjected->AutoInjectedConv));
 1559              		.loc 1 830 3 view .LVU469
 831:./Libraries/STM32F4xx_HAL_Driver/Src/stm32f4xx_hal_adc_ex.c ****   assert_param(IS_FUNCTIONAL_STATE(sConfigInjected->InjectedDiscontinuousConvMode));
 1560              		.loc 1 831 3 view .LVU470
 832:./Libraries/STM32F4xx_HAL_Driver/Src/stm32f4xx_hal_adc_ex.c **** 
 1561              		.loc 1 832 3 view .LVU471
 839:./Libraries/STM32F4xx_HAL_Driver/Src/stm32f4xx_hal_adc_ex.c ****   {
 1562              		.loc 1 839 3 view .LVU472
 841:./Libraries/STM32F4xx_HAL_Driver/Src/stm32f4xx_hal_adc_ex.c ****   }
 1563              		.loc 1 841 5 view .LVU473
 845:./Libraries/STM32F4xx_HAL_Driver/Src/stm32f4xx_hal_adc_ex.c ****   
 1564              		.loc 1 845 3 view .LVU474
 845:./Libraries/STM32F4xx_HAL_Driver/Src/stm32f4xx_hal_adc_ex.c ****   
 1565              		.loc 1 845 3 view .LVU475
 1566 0000 90F83C30 		ldrb	r3, [r0, #60]	@ zero_extendqisi2
 1567 0004 012B     		cmp	r3, #1
 1568 0006 00F0FD80 		beq	.L131
 816:./Libraries/STM32F4xx_HAL_Driver/Src/stm32f4xx_hal_adc_ex.c ****   
 1569              		.loc 1 816 1 is_stmt 0 discriminator 2 view .LVU476
 1570 000a 30B4     		push	{r4, r5}
 1571              	.LCFI19:
 1572              		.cfi_def_cfa_offset 8
 1573              		.cfi_offset 4, -8
 1574              		.cfi_offset 5, -4
 845:./Libraries/STM32F4xx_HAL_Driver/Src/stm32f4xx_hal_adc_ex.c ****   
 1575              		.loc 1 845 3 is_stmt 1 discriminator 2 view .LVU477
 1576 000c 0123     		movs	r3, #1
 1577 000e 80F83C30 		strb	r3, [r0, #60]
 845:./Libraries/STM32F4xx_HAL_Driver/Src/stm32f4xx_hal_adc_ex.c ****   
 1578              		.loc 1 845 3 discriminator 2 view .LVU478
 848:./Libraries/STM32F4xx_HAL_Driver/Src/stm32f4xx_hal_adc_ex.c ****   {
 1579              		.loc 1 848 3 discriminator 2 view .LVU479
 848:./Libraries/STM32F4xx_HAL_Driver/Src/stm32f4xx_hal_adc_ex.c ****   {
 1580              		.loc 1 848 22 is_stmt 0 discriminator 2 view .LVU480
 1581 0012 0B68     		ldr	r3, [r1]
 848:./Libraries/STM32F4xx_HAL_Driver/Src/stm32f4xx_hal_adc_ex.c ****   {
 1582              		.loc 1 848 6 discriminator 2 view .LVU481
 1583 0014 092B     		cmp	r3, #9
 1584 0016 7FD9     		bls	.L116
 851:./Libraries/STM32F4xx_HAL_Driver/Src/stm32f4xx_hal_adc_ex.c ****     
 1585              		.loc 1 851 5 is_stmt 1 view .LVU482
 851:./Libraries/STM32F4xx_HAL_Driver/Src/stm32f4xx_hal_adc_ex.c ****     
 1586              		.loc 1 851 9 is_stmt 0 view .LVU483
 1587 0018 0568     		ldr	r5, [r0]
 851:./Libraries/STM32F4xx_HAL_Driver/Src/stm32f4xx_hal_adc_ex.c ****     
 1588              		.loc 1 851 27 view .LVU484
ARM GAS  /tmp/ccqyivU0.s 			page 56


 1589 001a EA68     		ldr	r2, [r5, #12]
 851:./Libraries/STM32F4xx_HAL_Driver/Src/stm32f4xx_hal_adc_ex.c ****     
 1590              		.loc 1 851 31 view .LVU485
 1591 001c 9BB2     		uxth	r3, r3
 1592 001e 03EB4303 		add	r3, r3, r3, lsl #1
 1593 0022 1E3B     		subs	r3, r3, #30
 1594 0024 0724     		movs	r4, #7
 1595 0026 04FA03F3 		lsl	r3, r4, r3
 851:./Libraries/STM32F4xx_HAL_Driver/Src/stm32f4xx_hal_adc_ex.c ****     
 1596              		.loc 1 851 27 view .LVU486
 1597 002a 22EA0303 		bic	r3, r2, r3
 1598 002e EB60     		str	r3, [r5, #12]
 854:./Libraries/STM32F4xx_HAL_Driver/Src/stm32f4xx_hal_adc_ex.c ****   }
 1599              		.loc 1 854 5 is_stmt 1 view .LVU487
 854:./Libraries/STM32F4xx_HAL_Driver/Src/stm32f4xx_hal_adc_ex.c ****   }
 1600              		.loc 1 854 9 is_stmt 0 view .LVU488
 1601 0030 0568     		ldr	r5, [r0]
 854:./Libraries/STM32F4xx_HAL_Driver/Src/stm32f4xx_hal_adc_ex.c ****   }
 1602              		.loc 1 854 27 view .LVU489
 1603 0032 EA68     		ldr	r2, [r5, #12]
 854:./Libraries/STM32F4xx_HAL_Driver/Src/stm32f4xx_hal_adc_ex.c ****   }
 1604              		.loc 1 854 30 view .LVU490
 1605 0034 8C68     		ldr	r4, [r1, #8]
 1606 0036 0B88     		ldrh	r3, [r1]
 1607 0038 03EB4303 		add	r3, r3, r3, lsl #1
 1608 003c 1E3B     		subs	r3, r3, #30
 1609 003e 04FA03F3 		lsl	r3, r4, r3
 854:./Libraries/STM32F4xx_HAL_Driver/Src/stm32f4xx_hal_adc_ex.c ****   }
 1610              		.loc 1 854 27 view .LVU491
 1611 0042 1343     		orrs	r3, r3, r2
 1612 0044 EB60     		str	r3, [r5, #12]
 1613              	.L117:
 866:./Libraries/STM32F4xx_HAL_Driver/Src/stm32f4xx_hal_adc_ex.c ****   hadc->Instance->JSQR |=  ADC_SQR1(sConfigInjected->InjectedNbrOfConversion);
 1614              		.loc 1 866 3 is_stmt 1 view .LVU492
 866:./Libraries/STM32F4xx_HAL_Driver/Src/stm32f4xx_hal_adc_ex.c ****   hadc->Instance->JSQR |=  ADC_SQR1(sConfigInjected->InjectedNbrOfConversion);
 1615              		.loc 1 866 7 is_stmt 0 view .LVU493
 1616 0046 0268     		ldr	r2, [r0]
 866:./Libraries/STM32F4xx_HAL_Driver/Src/stm32f4xx_hal_adc_ex.c ****   hadc->Instance->JSQR |=  ADC_SQR1(sConfigInjected->InjectedNbrOfConversion);
 1617              		.loc 1 866 24 view .LVU494
 1618 0048 936B     		ldr	r3, [r2, #56]
 1619 004a 23F44013 		bic	r3, r3, #3145728
 1620 004e 9363     		str	r3, [r2, #56]
 867:./Libraries/STM32F4xx_HAL_Driver/Src/stm32f4xx_hal_adc_ex.c ****   
 1621              		.loc 1 867 3 is_stmt 1 view .LVU495
 867:./Libraries/STM32F4xx_HAL_Driver/Src/stm32f4xx_hal_adc_ex.c ****   
 1622              		.loc 1 867 7 is_stmt 0 view .LVU496
 1623 0050 0468     		ldr	r4, [r0]
 867:./Libraries/STM32F4xx_HAL_Driver/Src/stm32f4xx_hal_adc_ex.c ****   
 1624              		.loc 1 867 24 view .LVU497
 1625 0052 A36B     		ldr	r3, [r4, #56]
 867:./Libraries/STM32F4xx_HAL_Driver/Src/stm32f4xx_hal_adc_ex.c ****   
 1626              		.loc 1 867 28 view .LVU498
 1627 0054 0A69     		ldr	r2, [r1, #16]
 1628 0056 013A     		subs	r2, r2, #1
 867:./Libraries/STM32F4xx_HAL_Driver/Src/stm32f4xx_hal_adc_ex.c ****   
 1629              		.loc 1 867 24 view .LVU499
 1630 0058 43EA0253 		orr	r3, r3, r2, lsl #20
ARM GAS  /tmp/ccqyivU0.s 			page 57


 1631 005c A363     		str	r3, [r4, #56]
 872:./Libraries/STM32F4xx_HAL_Driver/Src/stm32f4xx_hal_adc_ex.c ****    
 1632              		.loc 1 872 3 is_stmt 1 view .LVU500
 872:./Libraries/STM32F4xx_HAL_Driver/Src/stm32f4xx_hal_adc_ex.c ****    
 1633              		.loc 1 872 7 is_stmt 0 view .LVU501
 1634 005e 0468     		ldr	r4, [r0]
 872:./Libraries/STM32F4xx_HAL_Driver/Src/stm32f4xx_hal_adc_ex.c ****    
 1635              		.loc 1 872 24 view .LVU502
 1636 0060 A26B     		ldr	r2, [r4, #56]
 872:./Libraries/STM32F4xx_HAL_Driver/Src/stm32f4xx_hal_adc_ex.c ****    
 1637              		.loc 1 872 28 view .LVU503
 1638 0062 4B68     		ldr	r3, [r1, #4]
 1639 0064 0D69     		ldr	r5, [r1, #16]
 1640 0066 5B1B     		subs	r3, r3, r5
 1641 0068 DBB2     		uxtb	r3, r3
 1642 006a 0333     		adds	r3, r3, #3
 1643 006c DBB2     		uxtb	r3, r3
 1644 006e 03EB8303 		add	r3, r3, r3, lsl #2
 1645 0072 4FF01F0C 		mov	ip, #31
 1646 0076 0CFA03F3 		lsl	r3, ip, r3
 872:./Libraries/STM32F4xx_HAL_Driver/Src/stm32f4xx_hal_adc_ex.c ****    
 1647              		.loc 1 872 24 view .LVU504
 1648 007a 22EA0303 		bic	r3, r2, r3
 1649 007e A363     		str	r3, [r4, #56]
 875:./Libraries/STM32F4xx_HAL_Driver/Src/stm32f4xx_hal_adc_ex.c **** 
 1650              		.loc 1 875 3 is_stmt 1 view .LVU505
 875:./Libraries/STM32F4xx_HAL_Driver/Src/stm32f4xx_hal_adc_ex.c **** 
 1651              		.loc 1 875 7 is_stmt 0 view .LVU506
 1652 0080 0468     		ldr	r4, [r0]
 875:./Libraries/STM32F4xx_HAL_Driver/Src/stm32f4xx_hal_adc_ex.c **** 
 1653              		.loc 1 875 24 view .LVU507
 1654 0082 A26B     		ldr	r2, [r4, #56]
 875:./Libraries/STM32F4xx_HAL_Driver/Src/stm32f4xx_hal_adc_ex.c **** 
 1655              		.loc 1 875 27 view .LVU508
 1656 0084 4B68     		ldr	r3, [r1, #4]
 1657 0086 0D69     		ldr	r5, [r1, #16]
 1658 0088 5B1B     		subs	r3, r3, r5
 1659 008a DBB2     		uxtb	r3, r3
 1660 008c 0333     		adds	r3, r3, #3
 1661 008e DBB2     		uxtb	r3, r3
 1662 0090 03EB8303 		add	r3, r3, r3, lsl #2
 1663 0094 B1F800C0 		ldrh	ip, [r1]
 1664 0098 0CFA03F3 		lsl	r3, ip, r3
 875:./Libraries/STM32F4xx_HAL_Driver/Src/stm32f4xx_hal_adc_ex.c **** 
 1665              		.loc 1 875 24 view .LVU509
 1666 009c 1343     		orrs	r3, r3, r2
 1667 009e A363     		str	r3, [r4, #56]
 882:./Libraries/STM32F4xx_HAL_Driver/Src/stm32f4xx_hal_adc_ex.c ****   {  
 1668              		.loc 1 882 3 is_stmt 1 view .LVU510
 882:./Libraries/STM32F4xx_HAL_Driver/Src/stm32f4xx_hal_adc_ex.c ****   {  
 1669              		.loc 1 882 21 is_stmt 0 view .LVU511
 1670 00a0 CA69     		ldr	r2, [r1, #28]
 882:./Libraries/STM32F4xx_HAL_Driver/Src/stm32f4xx_hal_adc_ex.c ****   {  
 1671              		.loc 1 882 5 view .LVU512
 1672 00a2 594B     		ldr	r3, .L139
 1673 00a4 9A42     		cmp	r2, r3
 1674 00a6 4DD0     		beq	.L118
ARM GAS  /tmp/ccqyivU0.s 			page 58


 885:./Libraries/STM32F4xx_HAL_Driver/Src/stm32f4xx_hal_adc_ex.c ****     hadc->Instance->CR2 |=  sConfigInjected->ExternalTrigInjecConv;
 1675              		.loc 1 885 5 is_stmt 1 view .LVU513
 885:./Libraries/STM32F4xx_HAL_Driver/Src/stm32f4xx_hal_adc_ex.c ****     hadc->Instance->CR2 |=  sConfigInjected->ExternalTrigInjecConv;
 1676              		.loc 1 885 9 is_stmt 0 view .LVU514
 1677 00a8 0268     		ldr	r2, [r0]
 885:./Libraries/STM32F4xx_HAL_Driver/Src/stm32f4xx_hal_adc_ex.c ****     hadc->Instance->CR2 |=  sConfigInjected->ExternalTrigInjecConv;
 1678              		.loc 1 885 25 view .LVU515
 1679 00aa 9368     		ldr	r3, [r2, #8]
 1680 00ac 23F47023 		bic	r3, r3, #983040
 1681 00b0 9360     		str	r3, [r2, #8]
 886:./Libraries/STM32F4xx_HAL_Driver/Src/stm32f4xx_hal_adc_ex.c ****     
 1682              		.loc 1 886 5 is_stmt 1 view .LVU516
 886:./Libraries/STM32F4xx_HAL_Driver/Src/stm32f4xx_hal_adc_ex.c ****     
 1683              		.loc 1 886 9 is_stmt 0 view .LVU517
 1684 00b2 0268     		ldr	r2, [r0]
 886:./Libraries/STM32F4xx_HAL_Driver/Src/stm32f4xx_hal_adc_ex.c ****     
 1685              		.loc 1 886 25 view .LVU518
 1686 00b4 9368     		ldr	r3, [r2, #8]
 886:./Libraries/STM32F4xx_HAL_Driver/Src/stm32f4xx_hal_adc_ex.c ****     
 1687              		.loc 1 886 44 view .LVU519
 1688 00b6 CC69     		ldr	r4, [r1, #28]
 886:./Libraries/STM32F4xx_HAL_Driver/Src/stm32f4xx_hal_adc_ex.c ****     
 1689              		.loc 1 886 25 view .LVU520
 1690 00b8 2343     		orrs	r3, r3, r4
 1691 00ba 9360     		str	r3, [r2, #8]
 889:./Libraries/STM32F4xx_HAL_Driver/Src/stm32f4xx_hal_adc_ex.c ****     hadc->Instance->CR2 |= sConfigInjected->ExternalTrigInjecConvEdge;
 1692              		.loc 1 889 5 is_stmt 1 view .LVU521
 889:./Libraries/STM32F4xx_HAL_Driver/Src/stm32f4xx_hal_adc_ex.c ****     hadc->Instance->CR2 |= sConfigInjected->ExternalTrigInjecConvEdge;
 1693              		.loc 1 889 9 is_stmt 0 view .LVU522
 1694 00bc 0268     		ldr	r2, [r0]
 889:./Libraries/STM32F4xx_HAL_Driver/Src/stm32f4xx_hal_adc_ex.c ****     hadc->Instance->CR2 |= sConfigInjected->ExternalTrigInjecConvEdge;
 1695              		.loc 1 889 25 view .LVU523
 1696 00be 9368     		ldr	r3, [r2, #8]
 1697 00c0 23F44013 		bic	r3, r3, #3145728
 1698 00c4 9360     		str	r3, [r2, #8]
 890:./Libraries/STM32F4xx_HAL_Driver/Src/stm32f4xx_hal_adc_ex.c ****   }
 1699              		.loc 1 890 5 is_stmt 1 view .LVU524
 890:./Libraries/STM32F4xx_HAL_Driver/Src/stm32f4xx_hal_adc_ex.c ****   }
 1700              		.loc 1 890 9 is_stmt 0 view .LVU525
 1701 00c6 0268     		ldr	r2, [r0]
 890:./Libraries/STM32F4xx_HAL_Driver/Src/stm32f4xx_hal_adc_ex.c ****   }
 1702              		.loc 1 890 25 view .LVU526
 1703 00c8 9368     		ldr	r3, [r2, #8]
 890:./Libraries/STM32F4xx_HAL_Driver/Src/stm32f4xx_hal_adc_ex.c ****   }
 1704              		.loc 1 890 43 view .LVU527
 1705 00ca 0C6A     		ldr	r4, [r1, #32]
 890:./Libraries/STM32F4xx_HAL_Driver/Src/stm32f4xx_hal_adc_ex.c ****   }
 1706              		.loc 1 890 25 view .LVU528
 1707 00cc 2343     		orrs	r3, r3, r4
 1708 00ce 9360     		str	r3, [r2, #8]
 1709              	.L119:
 899:./Libraries/STM32F4xx_HAL_Driver/Src/stm32f4xx_hal_adc_ex.c ****   {
 1710              		.loc 1 899 3 is_stmt 1 view .LVU529
 899:./Libraries/STM32F4xx_HAL_Driver/Src/stm32f4xx_hal_adc_ex.c ****   {
 1711              		.loc 1 899 22 is_stmt 0 view .LVU530
 1712 00d0 8B69     		ldr	r3, [r1, #24]
 899:./Libraries/STM32F4xx_HAL_Driver/Src/stm32f4xx_hal_adc_ex.c ****   {
ARM GAS  /tmp/ccqyivU0.s 			page 59


 1713              		.loc 1 899 6 view .LVU531
 1714 00d2 002B     		cmp	r3, #0
 1715 00d4 41D0     		beq	.L120
 902:./Libraries/STM32F4xx_HAL_Driver/Src/stm32f4xx_hal_adc_ex.c ****   }
 1716              		.loc 1 902 5 is_stmt 1 view .LVU532
 902:./Libraries/STM32F4xx_HAL_Driver/Src/stm32f4xx_hal_adc_ex.c ****   }
 1717              		.loc 1 902 9 is_stmt 0 view .LVU533
 1718 00d6 0268     		ldr	r2, [r0]
 902:./Libraries/STM32F4xx_HAL_Driver/Src/stm32f4xx_hal_adc_ex.c ****   }
 1719              		.loc 1 902 25 view .LVU534
 1720 00d8 5368     		ldr	r3, [r2, #4]
 1721 00da 43F48063 		orr	r3, r3, #1024
 1722 00de 5360     		str	r3, [r2, #4]
 1723              	.L121:
 910:./Libraries/STM32F4xx_HAL_Driver/Src/stm32f4xx_hal_adc_ex.c ****   {
 1724              		.loc 1 910 3 is_stmt 1 view .LVU535
 910:./Libraries/STM32F4xx_HAL_Driver/Src/stm32f4xx_hal_adc_ex.c ****   {
 1725              		.loc 1 910 22 is_stmt 0 view .LVU536
 1726 00e0 4B69     		ldr	r3, [r1, #20]
 910:./Libraries/STM32F4xx_HAL_Driver/Src/stm32f4xx_hal_adc_ex.c ****   {
 1727              		.loc 1 910 6 view .LVU537
 1728 00e2 002B     		cmp	r3, #0
 1729 00e4 3FD0     		beq	.L122
 913:./Libraries/STM32F4xx_HAL_Driver/Src/stm32f4xx_hal_adc_ex.c ****   }
 1730              		.loc 1 913 5 is_stmt 1 view .LVU538
 913:./Libraries/STM32F4xx_HAL_Driver/Src/stm32f4xx_hal_adc_ex.c ****   }
 1731              		.loc 1 913 9 is_stmt 0 view .LVU539
 1732 00e6 0268     		ldr	r2, [r0]
 913:./Libraries/STM32F4xx_HAL_Driver/Src/stm32f4xx_hal_adc_ex.c ****   }
 1733              		.loc 1 913 25 view .LVU540
 1734 00e8 5368     		ldr	r3, [r2, #4]
 1735 00ea 43F48053 		orr	r3, r3, #4096
 1736 00ee 5360     		str	r3, [r2, #4]
 1737              	.L123:
 921:./Libraries/STM32F4xx_HAL_Driver/Src/stm32f4xx_hal_adc_ex.c ****   {
 1738              		.loc 1 921 3 is_stmt 1 view .LVU541
 921:./Libraries/STM32F4xx_HAL_Driver/Src/stm32f4xx_hal_adc_ex.c ****   {
 1739              		.loc 1 921 25 is_stmt 0 view .LVU542
 1740 00f0 4B68     		ldr	r3, [r1, #4]
 921:./Libraries/STM32F4xx_HAL_Driver/Src/stm32f4xx_hal_adc_ex.c ****   {
 1741              		.loc 1 921 3 view .LVU543
 1742 00f2 022B     		cmp	r3, #2
 1743 00f4 57D0     		beq	.L124
 1744 00f6 032B     		cmp	r3, #3
 1745 00f8 62D0     		beq	.L125
 1746 00fa 012B     		cmp	r3, #1
 1747 00fc 39D0     		beq	.L136
 940:./Libraries/STM32F4xx_HAL_Driver/Src/stm32f4xx_hal_adc_ex.c ****       hadc->Instance->JOFR4 |= sConfigInjected->InjectedOffset;
 1748              		.loc 1 940 7 is_stmt 1 view .LVU544
 940:./Libraries/STM32F4xx_HAL_Driver/Src/stm32f4xx_hal_adc_ex.c ****       hadc->Instance->JOFR4 |= sConfigInjected->InjectedOffset;
 1749              		.loc 1 940 11 is_stmt 0 view .LVU545
 1750 00fe 0268     		ldr	r2, [r0]
 940:./Libraries/STM32F4xx_HAL_Driver/Src/stm32f4xx_hal_adc_ex.c ****       hadc->Instance->JOFR4 |= sConfigInjected->InjectedOffset;
 1751              		.loc 1 940 29 view .LVU546
 1752 0100 136A     		ldr	r3, [r2, #32]
 1753 0102 23F47F63 		bic	r3, r3, #4080
 1754 0106 23F00F03 		bic	r3, r3, #15
ARM GAS  /tmp/ccqyivU0.s 			page 60


 1755 010a 1362     		str	r3, [r2, #32]
 941:./Libraries/STM32F4xx_HAL_Driver/Src/stm32f4xx_hal_adc_ex.c ****       break;
 1756              		.loc 1 941 7 is_stmt 1 view .LVU547
 941:./Libraries/STM32F4xx_HAL_Driver/Src/stm32f4xx_hal_adc_ex.c ****       break;
 1757              		.loc 1 941 11 is_stmt 0 view .LVU548
 1758 010c 0268     		ldr	r2, [r0]
 941:./Libraries/STM32F4xx_HAL_Driver/Src/stm32f4xx_hal_adc_ex.c ****       break;
 1759              		.loc 1 941 29 view .LVU549
 1760 010e 136A     		ldr	r3, [r2, #32]
 941:./Libraries/STM32F4xx_HAL_Driver/Src/stm32f4xx_hal_adc_ex.c ****       break;
 1761              		.loc 1 941 47 view .LVU550
 1762 0110 CC68     		ldr	r4, [r1, #12]
 941:./Libraries/STM32F4xx_HAL_Driver/Src/stm32f4xx_hal_adc_ex.c ****       break;
 1763              		.loc 1 941 29 view .LVU551
 1764 0112 2343     		orrs	r3, r3, r4
 1765 0114 1362     		str	r3, [r2, #32]
 942:./Libraries/STM32F4xx_HAL_Driver/Src/stm32f4xx_hal_adc_ex.c ****   }
 1766              		.loc 1 942 7 is_stmt 1 view .LVU552
 1767 0116 38E0     		b	.L127
 1768              	.L116:
 859:./Libraries/STM32F4xx_HAL_Driver/Src/stm32f4xx_hal_adc_ex.c ****     
 1769              		.loc 1 859 5 view .LVU553
 859:./Libraries/STM32F4xx_HAL_Driver/Src/stm32f4xx_hal_adc_ex.c ****     
 1770              		.loc 1 859 9 is_stmt 0 view .LVU554
 1771 0118 0568     		ldr	r5, [r0]
 859:./Libraries/STM32F4xx_HAL_Driver/Src/stm32f4xx_hal_adc_ex.c ****     
 1772              		.loc 1 859 27 view .LVU555
 1773 011a 2A69     		ldr	r2, [r5, #16]
 859:./Libraries/STM32F4xx_HAL_Driver/Src/stm32f4xx_hal_adc_ex.c ****     
 1774              		.loc 1 859 31 view .LVU556
 1775 011c 9BB2     		uxth	r3, r3
 1776 011e 03EB4303 		add	r3, r3, r3, lsl #1
 1777 0122 0724     		movs	r4, #7
 1778 0124 04FA03F3 		lsl	r3, r4, r3
 859:./Libraries/STM32F4xx_HAL_Driver/Src/stm32f4xx_hal_adc_ex.c ****     
 1779              		.loc 1 859 27 view .LVU557
 1780 0128 22EA0303 		bic	r3, r2, r3
 1781 012c 2B61     		str	r3, [r5, #16]
 862:./Libraries/STM32F4xx_HAL_Driver/Src/stm32f4xx_hal_adc_ex.c ****   }
 1782              		.loc 1 862 5 is_stmt 1 view .LVU558
 862:./Libraries/STM32F4xx_HAL_Driver/Src/stm32f4xx_hal_adc_ex.c ****   }
 1783              		.loc 1 862 9 is_stmt 0 view .LVU559
 1784 012e 0568     		ldr	r5, [r0]
 862:./Libraries/STM32F4xx_HAL_Driver/Src/stm32f4xx_hal_adc_ex.c ****   }
 1785              		.loc 1 862 27 view .LVU560
 1786 0130 2A69     		ldr	r2, [r5, #16]
 862:./Libraries/STM32F4xx_HAL_Driver/Src/stm32f4xx_hal_adc_ex.c ****   }
 1787              		.loc 1 862 30 view .LVU561
 1788 0132 8C68     		ldr	r4, [r1, #8]
 1789 0134 0B88     		ldrh	r3, [r1]
 1790 0136 03EB4303 		add	r3, r3, r3, lsl #1
 1791 013a 04FA03F3 		lsl	r3, r4, r3
 862:./Libraries/STM32F4xx_HAL_Driver/Src/stm32f4xx_hal_adc_ex.c ****   }
 1792              		.loc 1 862 27 view .LVU562
 1793 013e 1343     		orrs	r3, r3, r2
 1794 0140 2B61     		str	r3, [r5, #16]
 1795 0142 80E7     		b	.L117
ARM GAS  /tmp/ccqyivU0.s 			page 61


 1796              	.L118:
 895:./Libraries/STM32F4xx_HAL_Driver/Src/stm32f4xx_hal_adc_ex.c ****     hadc->Instance->CR2 &= ~(ADC_CR2_JEXTEN);  
 1797              		.loc 1 895 5 is_stmt 1 view .LVU563
 895:./Libraries/STM32F4xx_HAL_Driver/Src/stm32f4xx_hal_adc_ex.c ****     hadc->Instance->CR2 &= ~(ADC_CR2_JEXTEN);  
 1798              		.loc 1 895 9 is_stmt 0 view .LVU564
 1799 0144 0268     		ldr	r2, [r0]
 895:./Libraries/STM32F4xx_HAL_Driver/Src/stm32f4xx_hal_adc_ex.c ****     hadc->Instance->CR2 &= ~(ADC_CR2_JEXTEN);  
 1800              		.loc 1 895 25 view .LVU565
 1801 0146 9368     		ldr	r3, [r2, #8]
 1802 0148 23F47023 		bic	r3, r3, #983040
 1803 014c 9360     		str	r3, [r2, #8]
 896:./Libraries/STM32F4xx_HAL_Driver/Src/stm32f4xx_hal_adc_ex.c ****   }
 1804              		.loc 1 896 5 is_stmt 1 view .LVU566
 896:./Libraries/STM32F4xx_HAL_Driver/Src/stm32f4xx_hal_adc_ex.c ****   }
 1805              		.loc 1 896 9 is_stmt 0 view .LVU567
 1806 014e 0268     		ldr	r2, [r0]
 896:./Libraries/STM32F4xx_HAL_Driver/Src/stm32f4xx_hal_adc_ex.c ****   }
 1807              		.loc 1 896 25 view .LVU568
 1808 0150 9368     		ldr	r3, [r2, #8]
 1809 0152 23F44013 		bic	r3, r3, #3145728
 1810 0156 9360     		str	r3, [r2, #8]
 1811 0158 BAE7     		b	.L119
 1812              	.L120:
 907:./Libraries/STM32F4xx_HAL_Driver/Src/stm32f4xx_hal_adc_ex.c ****   }
 1813              		.loc 1 907 5 is_stmt 1 view .LVU569
 907:./Libraries/STM32F4xx_HAL_Driver/Src/stm32f4xx_hal_adc_ex.c ****   }
 1814              		.loc 1 907 9 is_stmt 0 view .LVU570
 1815 015a 0268     		ldr	r2, [r0]
 907:./Libraries/STM32F4xx_HAL_Driver/Src/stm32f4xx_hal_adc_ex.c ****   }
 1816              		.loc 1 907 25 view .LVU571
 1817 015c 5368     		ldr	r3, [r2, #4]
 1818 015e 23F48063 		bic	r3, r3, #1024
 1819 0162 5360     		str	r3, [r2, #4]
 1820 0164 BCE7     		b	.L121
 1821              	.L122:
 918:./Libraries/STM32F4xx_HAL_Driver/Src/stm32f4xx_hal_adc_ex.c ****   }
 1822              		.loc 1 918 5 is_stmt 1 view .LVU572
 918:./Libraries/STM32F4xx_HAL_Driver/Src/stm32f4xx_hal_adc_ex.c ****   }
 1823              		.loc 1 918 9 is_stmt 0 view .LVU573
 1824 0166 0268     		ldr	r2, [r0]
 918:./Libraries/STM32F4xx_HAL_Driver/Src/stm32f4xx_hal_adc_ex.c ****   }
 1825              		.loc 1 918 25 view .LVU574
 1826 0168 5368     		ldr	r3, [r2, #4]
 1827 016a 23F48053 		bic	r3, r3, #4096
 1828 016e 5360     		str	r3, [r2, #4]
 1829 0170 BEE7     		b	.L123
 1830              	.L136:
 925:./Libraries/STM32F4xx_HAL_Driver/Src/stm32f4xx_hal_adc_ex.c ****       hadc->Instance->JOFR1 |= sConfigInjected->InjectedOffset;
 1831              		.loc 1 925 7 is_stmt 1 view .LVU575
 925:./Libraries/STM32F4xx_HAL_Driver/Src/stm32f4xx_hal_adc_ex.c ****       hadc->Instance->JOFR1 |= sConfigInjected->InjectedOffset;
 1832              		.loc 1 925 11 is_stmt 0 view .LVU576
 1833 0172 0268     		ldr	r2, [r0]
 925:./Libraries/STM32F4xx_HAL_Driver/Src/stm32f4xx_hal_adc_ex.c ****       hadc->Instance->JOFR1 |= sConfigInjected->InjectedOffset;
 1834              		.loc 1 925 29 view .LVU577
 1835 0174 5369     		ldr	r3, [r2, #20]
 1836 0176 23F47F63 		bic	r3, r3, #4080
 1837 017a 23F00F03 		bic	r3, r3, #15
ARM GAS  /tmp/ccqyivU0.s 			page 62


 1838 017e 5361     		str	r3, [r2, #20]
 926:./Libraries/STM32F4xx_HAL_Driver/Src/stm32f4xx_hal_adc_ex.c ****       break;
 1839              		.loc 1 926 7 is_stmt 1 view .LVU578
 926:./Libraries/STM32F4xx_HAL_Driver/Src/stm32f4xx_hal_adc_ex.c ****       break;
 1840              		.loc 1 926 11 is_stmt 0 view .LVU579
 1841 0180 0268     		ldr	r2, [r0]
 926:./Libraries/STM32F4xx_HAL_Driver/Src/stm32f4xx_hal_adc_ex.c ****       break;
 1842              		.loc 1 926 29 view .LVU580
 1843 0182 5369     		ldr	r3, [r2, #20]
 926:./Libraries/STM32F4xx_HAL_Driver/Src/stm32f4xx_hal_adc_ex.c ****       break;
 1844              		.loc 1 926 47 view .LVU581
 1845 0184 CC68     		ldr	r4, [r1, #12]
 926:./Libraries/STM32F4xx_HAL_Driver/Src/stm32f4xx_hal_adc_ex.c ****       break;
 1846              		.loc 1 926 29 view .LVU582
 1847 0186 2343     		orrs	r3, r3, r4
 1848 0188 5361     		str	r3, [r2, #20]
 927:./Libraries/STM32F4xx_HAL_Driver/Src/stm32f4xx_hal_adc_ex.c ****     case 2U:
 1849              		.loc 1 927 7 is_stmt 1 view .LVU583
 1850              	.L127:
 948:./Libraries/STM32F4xx_HAL_Driver/Src/stm32f4xx_hal_adc_ex.c **** 
 1851              		.loc 1 948 5 view .LVU584
 1852              	.LVL111:
 951:./Libraries/STM32F4xx_HAL_Driver/Src/stm32f4xx_hal_adc_ex.c ****   {
 1853              		.loc 1 951 3 view .LVU585
 951:./Libraries/STM32F4xx_HAL_Driver/Src/stm32f4xx_hal_adc_ex.c ****   {
 1854              		.loc 1 951 12 is_stmt 0 view .LVU586
 1855 018a 0268     		ldr	r2, [r0]
 951:./Libraries/STM32F4xx_HAL_Driver/Src/stm32f4xx_hal_adc_ex.c ****   {
 1856              		.loc 1 951 6 view .LVU587
 1857 018c 1F4B     		ldr	r3, .L139+4
 1858 018e 9A42     		cmp	r2, r3
 1859 0190 23D0     		beq	.L137
 1860              	.L128:
 958:./Libraries/STM32F4xx_HAL_Driver/Src/stm32f4xx_hal_adc_ex.c ****   {
 1861              		.loc 1 958 3 is_stmt 1 view .LVU588
 958:./Libraries/STM32F4xx_HAL_Driver/Src/stm32f4xx_hal_adc_ex.c ****   {
 1862              		.loc 1 958 12 is_stmt 0 view .LVU589
 1863 0192 0268     		ldr	r2, [r0]
 958:./Libraries/STM32F4xx_HAL_Driver/Src/stm32f4xx_hal_adc_ex.c ****   {
 1864              		.loc 1 958 6 view .LVU590
 1865 0194 1D4B     		ldr	r3, .L139+4
 1866 0196 9A42     		cmp	r2, r3
 1867 0198 28D0     		beq	.L138
 1868              	.L129:
 965:./Libraries/STM32F4xx_HAL_Driver/Src/stm32f4xx_hal_adc_ex.c ****   
 1869              		.loc 1 965 3 is_stmt 1 view .LVU591
 965:./Libraries/STM32F4xx_HAL_Driver/Src/stm32f4xx_hal_adc_ex.c ****   
 1870              		.loc 1 965 3 view .LVU592
 1871 019a 0023     		movs	r3, #0
 1872 019c 80F83C30 		strb	r3, [r0, #60]
 965:./Libraries/STM32F4xx_HAL_Driver/Src/stm32f4xx_hal_adc_ex.c ****   
 1873              		.loc 1 965 3 view .LVU593
 968:./Libraries/STM32F4xx_HAL_Driver/Src/stm32f4xx_hal_adc_ex.c **** }
 1874              		.loc 1 968 3 view .LVU594
 968:./Libraries/STM32F4xx_HAL_Driver/Src/stm32f4xx_hal_adc_ex.c **** }
 1875              		.loc 1 968 10 is_stmt 0 view .LVU595
 1876 01a0 1846     		mov	r0, r3
ARM GAS  /tmp/ccqyivU0.s 			page 63


 1877              	.LVL112:
 969:./Libraries/STM32F4xx_HAL_Driver/Src/stm32f4xx_hal_adc_ex.c **** 
 1878              		.loc 1 969 1 view .LVU596
 1879 01a2 30BC     		pop	{r4, r5}
 1880              	.LCFI20:
 1881              		.cfi_remember_state
 1882              		.cfi_restore 5
 1883              		.cfi_restore 4
 1884              		.cfi_def_cfa_offset 0
 1885 01a4 7047     		bx	lr
 1886              	.LVL113:
 1887              	.L124:
 1888              	.LCFI21:
 1889              		.cfi_restore_state
 930:./Libraries/STM32F4xx_HAL_Driver/Src/stm32f4xx_hal_adc_ex.c ****       hadc->Instance->JOFR2 |= sConfigInjected->InjectedOffset;
 1890              		.loc 1 930 7 is_stmt 1 view .LVU597
 930:./Libraries/STM32F4xx_HAL_Driver/Src/stm32f4xx_hal_adc_ex.c ****       hadc->Instance->JOFR2 |= sConfigInjected->InjectedOffset;
 1891              		.loc 1 930 11 is_stmt 0 view .LVU598
 1892 01a6 0268     		ldr	r2, [r0]
 930:./Libraries/STM32F4xx_HAL_Driver/Src/stm32f4xx_hal_adc_ex.c ****       hadc->Instance->JOFR2 |= sConfigInjected->InjectedOffset;
 1893              		.loc 1 930 29 view .LVU599
 1894 01a8 9369     		ldr	r3, [r2, #24]
 1895 01aa 23F47F63 		bic	r3, r3, #4080
 1896 01ae 23F00F03 		bic	r3, r3, #15
 1897 01b2 9361     		str	r3, [r2, #24]
 931:./Libraries/STM32F4xx_HAL_Driver/Src/stm32f4xx_hal_adc_ex.c ****       break;
 1898              		.loc 1 931 7 is_stmt 1 view .LVU600
 931:./Libraries/STM32F4xx_HAL_Driver/Src/stm32f4xx_hal_adc_ex.c ****       break;
 1899              		.loc 1 931 11 is_stmt 0 view .LVU601
 1900 01b4 0268     		ldr	r2, [r0]
 931:./Libraries/STM32F4xx_HAL_Driver/Src/stm32f4xx_hal_adc_ex.c ****       break;
 1901              		.loc 1 931 29 view .LVU602
 1902 01b6 9369     		ldr	r3, [r2, #24]
 931:./Libraries/STM32F4xx_HAL_Driver/Src/stm32f4xx_hal_adc_ex.c ****       break;
 1903              		.loc 1 931 47 view .LVU603
 1904 01b8 CC68     		ldr	r4, [r1, #12]
 931:./Libraries/STM32F4xx_HAL_Driver/Src/stm32f4xx_hal_adc_ex.c ****       break;
 1905              		.loc 1 931 29 view .LVU604
 1906 01ba 2343     		orrs	r3, r3, r4
 1907 01bc 9361     		str	r3, [r2, #24]
 932:./Libraries/STM32F4xx_HAL_Driver/Src/stm32f4xx_hal_adc_ex.c ****     case 3U:
 1908              		.loc 1 932 7 is_stmt 1 view .LVU605
 1909 01be E4E7     		b	.L127
 1910              	.L125:
 935:./Libraries/STM32F4xx_HAL_Driver/Src/stm32f4xx_hal_adc_ex.c ****       hadc->Instance->JOFR3 |= sConfigInjected->InjectedOffset;
 1911              		.loc 1 935 7 view .LVU606
 935:./Libraries/STM32F4xx_HAL_Driver/Src/stm32f4xx_hal_adc_ex.c ****       hadc->Instance->JOFR3 |= sConfigInjected->InjectedOffset;
 1912              		.loc 1 935 11 is_stmt 0 view .LVU607
 1913 01c0 0268     		ldr	r2, [r0]
 935:./Libraries/STM32F4xx_HAL_Driver/Src/stm32f4xx_hal_adc_ex.c ****       hadc->Instance->JOFR3 |= sConfigInjected->InjectedOffset;
 1914              		.loc 1 935 29 view .LVU608
 1915 01c2 D369     		ldr	r3, [r2, #28]
 1916 01c4 23F47F63 		bic	r3, r3, #4080
 1917 01c8 23F00F03 		bic	r3, r3, #15
 1918 01cc D361     		str	r3, [r2, #28]
 936:./Libraries/STM32F4xx_HAL_Driver/Src/stm32f4xx_hal_adc_ex.c ****       break;
 1919              		.loc 1 936 7 is_stmt 1 view .LVU609
ARM GAS  /tmp/ccqyivU0.s 			page 64


 936:./Libraries/STM32F4xx_HAL_Driver/Src/stm32f4xx_hal_adc_ex.c ****       break;
 1920              		.loc 1 936 11 is_stmt 0 view .LVU610
 1921 01ce 0268     		ldr	r2, [r0]
 936:./Libraries/STM32F4xx_HAL_Driver/Src/stm32f4xx_hal_adc_ex.c ****       break;
 1922              		.loc 1 936 29 view .LVU611
 1923 01d0 D369     		ldr	r3, [r2, #28]
 936:./Libraries/STM32F4xx_HAL_Driver/Src/stm32f4xx_hal_adc_ex.c ****       break;
 1924              		.loc 1 936 47 view .LVU612
 1925 01d2 CC68     		ldr	r4, [r1, #12]
 936:./Libraries/STM32F4xx_HAL_Driver/Src/stm32f4xx_hal_adc_ex.c ****       break;
 1926              		.loc 1 936 29 view .LVU613
 1927 01d4 2343     		orrs	r3, r3, r4
 1928 01d6 D361     		str	r3, [r2, #28]
 937:./Libraries/STM32F4xx_HAL_Driver/Src/stm32f4xx_hal_adc_ex.c ****     default:
 1929              		.loc 1 937 7 is_stmt 1 view .LVU614
 1930 01d8 D7E7     		b	.L127
 1931              	.LVL114:
 1932              	.L137:
 951:./Libraries/STM32F4xx_HAL_Driver/Src/stm32f4xx_hal_adc_ex.c ****   {
 1933              		.loc 1 951 51 is_stmt 0 discriminator 1 view .LVU615
 1934 01da 0B68     		ldr	r3, [r1]
 951:./Libraries/STM32F4xx_HAL_Driver/Src/stm32f4xx_hal_adc_ex.c ****   {
 1935              		.loc 1 951 32 discriminator 1 view .LVU616
 1936 01dc 122B     		cmp	r3, #18
 1937 01de D8D1     		bne	.L128
 954:./Libraries/STM32F4xx_HAL_Driver/Src/stm32f4xx_hal_adc_ex.c ****   }
 1938              		.loc 1 954 5 is_stmt 1 view .LVU617
 954:./Libraries/STM32F4xx_HAL_Driver/Src/stm32f4xx_hal_adc_ex.c ****   }
 1939              		.loc 1 954 24 is_stmt 0 view .LVU618
 1940 01e0 0B4A     		ldr	r2, .L139+8
 1941 01e2 5368     		ldr	r3, [r2, #4]
 1942 01e4 43F48003 		orr	r3, r3, #4194304
 1943 01e8 5360     		str	r3, [r2, #4]
 1944 01ea D2E7     		b	.L128
 1945              	.L138:
 958:./Libraries/STM32F4xx_HAL_Driver/Src/stm32f4xx_hal_adc_ex.c ****   {
 1946              		.loc 1 958 52 discriminator 1 view .LVU619
 1947 01ec 0B68     		ldr	r3, [r1]
 958:./Libraries/STM32F4xx_HAL_Driver/Src/stm32f4xx_hal_adc_ex.c ****   {
 1948              		.loc 1 958 32 discriminator 1 view .LVU620
 1949 01ee 094A     		ldr	r2, .L139+12
 1950 01f0 9342     		cmp	r3, r2
 1951 01f2 01D0     		beq	.L130
 958:./Libraries/STM32F4xx_HAL_Driver/Src/stm32f4xx_hal_adc_ex.c ****   {
 1952              		.loc 1 958 97 discriminator 2 view .LVU621
 1953 01f4 112B     		cmp	r3, #17
 1954 01f6 D0D1     		bne	.L129
 1955              	.L130:
 961:./Libraries/STM32F4xx_HAL_Driver/Src/stm32f4xx_hal_adc_ex.c ****   }
 1956              		.loc 1 961 5 is_stmt 1 view .LVU622
 961:./Libraries/STM32F4xx_HAL_Driver/Src/stm32f4xx_hal_adc_ex.c ****   }
 1957              		.loc 1 961 24 is_stmt 0 view .LVU623
 1958 01f8 054A     		ldr	r2, .L139+8
 1959 01fa 5368     		ldr	r3, [r2, #4]
 1960 01fc 43F40003 		orr	r3, r3, #8388608
 1961 0200 5360     		str	r3, [r2, #4]
 1962 0202 CAE7     		b	.L129
ARM GAS  /tmp/ccqyivU0.s 			page 65


 1963              	.LVL115:
 1964              	.L131:
 1965              	.LCFI22:
 1966              		.cfi_def_cfa_offset 0
 1967              		.cfi_restore 4
 1968              		.cfi_restore 5
 845:./Libraries/STM32F4xx_HAL_Driver/Src/stm32f4xx_hal_adc_ex.c ****   
 1969              		.loc 1 845 3 view .LVU624
 1970 0204 0220     		movs	r0, #2
 1971              	.LVL116:
 969:./Libraries/STM32F4xx_HAL_Driver/Src/stm32f4xx_hal_adc_ex.c **** 
 1972              		.loc 1 969 1 view .LVU625
 1973 0206 7047     		bx	lr
 1974              	.L140:
 1975              		.align	2
 1976              	.L139:
 1977 0208 01000F00 		.word	983041
 1978 020c 00200140 		.word	1073815552
 1979 0210 00230140 		.word	1073816320
 1980 0214 12000010 		.word	268435474
 1981              		.cfi_endproc
 1982              	.LFE136:
 1984              		.section	.text.HAL_ADCEx_MultiModeConfigChannel,"ax",%progbits
 1985              		.align	1
 1986              		.global	HAL_ADCEx_MultiModeConfigChannel
 1987              		.syntax unified
 1988              		.thumb
 1989              		.thumb_func
 1990              		.fpu fpv4-sp-d16
 1992              	HAL_ADCEx_MultiModeConfigChannel:
 1993              	.LVL117:
 1994              	.LFB137:
 980:./Libraries/STM32F4xx_HAL_Driver/Src/stm32f4xx_hal_adc_ex.c **** 
 1995              		.loc 1 980 1 is_stmt 1 view -0
 1996              		.cfi_startproc
 1997              		@ args = 0, pretend = 0, frame = 0
 1998              		@ frame_needed = 0, uses_anonymous_args = 0
 1999              		@ link register save eliminated.
 982:./Libraries/STM32F4xx_HAL_Driver/Src/stm32f4xx_hal_adc_ex.c **** 
 2000              		.loc 1 982 3 view .LVU627
 985:./Libraries/STM32F4xx_HAL_Driver/Src/stm32f4xx_hal_adc_ex.c ****   assert_param(IS_ADC_DMA_ACCESS_MODE(multimode->DMAAccessMode));
 2001              		.loc 1 985 3 view .LVU628
 986:./Libraries/STM32F4xx_HAL_Driver/Src/stm32f4xx_hal_adc_ex.c ****   assert_param(IS_ADC_SAMPLING_DELAY(multimode->TwoSamplingDelay));
 2002              		.loc 1 986 3 view .LVU629
 987:./Libraries/STM32F4xx_HAL_Driver/Src/stm32f4xx_hal_adc_ex.c ****   
 2003              		.loc 1 987 3 view .LVU630
 990:./Libraries/STM32F4xx_HAL_Driver/Src/stm32f4xx_hal_adc_ex.c **** 
 2004              		.loc 1 990 3 view .LVU631
 990:./Libraries/STM32F4xx_HAL_Driver/Src/stm32f4xx_hal_adc_ex.c **** 
 2005              		.loc 1 990 3 view .LVU632
 2006 0000 90F83C30 		ldrb	r3, [r0, #60]	@ zero_extendqisi2
 2007 0004 012B     		cmp	r3, #1
 2008 0006 23D0     		beq	.L143
 980:./Libraries/STM32F4xx_HAL_Driver/Src/stm32f4xx_hal_adc_ex.c **** 
 2009              		.loc 1 980 1 is_stmt 0 discriminator 2 view .LVU633
 2010 0008 10B4     		push	{r4}
 2011              	.LCFI23:
ARM GAS  /tmp/ccqyivU0.s 			page 66


 2012              		.cfi_def_cfa_offset 4
 2013              		.cfi_offset 4, -4
 990:./Libraries/STM32F4xx_HAL_Driver/Src/stm32f4xx_hal_adc_ex.c **** 
 2014              		.loc 1 990 3 is_stmt 1 discriminator 2 view .LVU634
 2015 000a 0123     		movs	r3, #1
 2016 000c 80F83C30 		strb	r3, [r0, #60]
 990:./Libraries/STM32F4xx_HAL_Driver/Src/stm32f4xx_hal_adc_ex.c **** 
 2017              		.loc 1 990 3 discriminator 2 view .LVU635
 995:./Libraries/STM32F4xx_HAL_Driver/Src/stm32f4xx_hal_adc_ex.c **** 
 2018              		.loc 1 995 3 discriminator 2 view .LVU636
 2019              	.LVL118:
 998:./Libraries/STM32F4xx_HAL_Driver/Src/stm32f4xx_hal_adc_ex.c ****   tmpADC_Common->CCR |= multimode->Mode;
 2020              		.loc 1 998 3 discriminator 2 view .LVU637
 998:./Libraries/STM32F4xx_HAL_Driver/Src/stm32f4xx_hal_adc_ex.c ****   tmpADC_Common->CCR |= multimode->Mode;
 2021              		.loc 1 998 22 is_stmt 0 discriminator 2 view .LVU638
 2022 0010 104B     		ldr	r3, .L148
 2023 0012 5A68     		ldr	r2, [r3, #4]
 2024 0014 22F01F02 		bic	r2, r2, #31
 2025 0018 5A60     		str	r2, [r3, #4]
 999:./Libraries/STM32F4xx_HAL_Driver/Src/stm32f4xx_hal_adc_ex.c ****   
 2026              		.loc 1 999 3 is_stmt 1 discriminator 2 view .LVU639
 999:./Libraries/STM32F4xx_HAL_Driver/Src/stm32f4xx_hal_adc_ex.c ****   
 2027              		.loc 1 999 22 is_stmt 0 discriminator 2 view .LVU640
 2028 001a 5A68     		ldr	r2, [r3, #4]
 2029 001c 0C68     		ldr	r4, [r1]
 2030 001e 2243     		orrs	r2, r2, r4
 2031 0020 5A60     		str	r2, [r3, #4]
1002:./Libraries/STM32F4xx_HAL_Driver/Src/stm32f4xx_hal_adc_ex.c ****   tmpADC_Common->CCR |= multimode->DMAAccessMode;
 2032              		.loc 1 1002 3 is_stmt 1 discriminator 2 view .LVU641
1002:./Libraries/STM32F4xx_HAL_Driver/Src/stm32f4xx_hal_adc_ex.c ****   tmpADC_Common->CCR |= multimode->DMAAccessMode;
 2033              		.loc 1 1002 22 is_stmt 0 discriminator 2 view .LVU642
 2034 0022 5A68     		ldr	r2, [r3, #4]
 2035 0024 22F44042 		bic	r2, r2, #49152
 2036 0028 5A60     		str	r2, [r3, #4]
1003:./Libraries/STM32F4xx_HAL_Driver/Src/stm32f4xx_hal_adc_ex.c ****   
 2037              		.loc 1 1003 3 is_stmt 1 discriminator 2 view .LVU643
1003:./Libraries/STM32F4xx_HAL_Driver/Src/stm32f4xx_hal_adc_ex.c ****   
 2038              		.loc 1 1003 22 is_stmt 0 discriminator 2 view .LVU644
 2039 002a 5A68     		ldr	r2, [r3, #4]
 2040 002c 4C68     		ldr	r4, [r1, #4]
 2041 002e 2243     		orrs	r2, r2, r4
 2042 0030 5A60     		str	r2, [r3, #4]
1006:./Libraries/STM32F4xx_HAL_Driver/Src/stm32f4xx_hal_adc_ex.c ****   tmpADC_Common->CCR |= multimode->TwoSamplingDelay;
 2043              		.loc 1 1006 3 is_stmt 1 discriminator 2 view .LVU645
1006:./Libraries/STM32F4xx_HAL_Driver/Src/stm32f4xx_hal_adc_ex.c ****   tmpADC_Common->CCR |= multimode->TwoSamplingDelay;
 2044              		.loc 1 1006 22 is_stmt 0 discriminator 2 view .LVU646
 2045 0032 5A68     		ldr	r2, [r3, #4]
 2046 0034 22F47062 		bic	r2, r2, #3840
 2047 0038 5A60     		str	r2, [r3, #4]
1007:./Libraries/STM32F4xx_HAL_Driver/Src/stm32f4xx_hal_adc_ex.c ****   
 2048              		.loc 1 1007 3 is_stmt 1 discriminator 2 view .LVU647
1007:./Libraries/STM32F4xx_HAL_Driver/Src/stm32f4xx_hal_adc_ex.c ****   
 2049              		.loc 1 1007 22 is_stmt 0 discriminator 2 view .LVU648
 2050 003a 5A68     		ldr	r2, [r3, #4]
1007:./Libraries/STM32F4xx_HAL_Driver/Src/stm32f4xx_hal_adc_ex.c ****   
 2051              		.loc 1 1007 34 discriminator 2 view .LVU649
 2052 003c 8968     		ldr	r1, [r1, #8]
ARM GAS  /tmp/ccqyivU0.s 			page 67


 2053              	.LVL119:
1007:./Libraries/STM32F4xx_HAL_Driver/Src/stm32f4xx_hal_adc_ex.c ****   
 2054              		.loc 1 1007 22 discriminator 2 view .LVU650
 2055 003e 0A43     		orrs	r2, r2, r1
 2056 0040 5A60     		str	r2, [r3, #4]
1010:./Libraries/STM32F4xx_HAL_Driver/Src/stm32f4xx_hal_adc_ex.c ****   
 2057              		.loc 1 1010 3 is_stmt 1 discriminator 2 view .LVU651
1010:./Libraries/STM32F4xx_HAL_Driver/Src/stm32f4xx_hal_adc_ex.c ****   
 2058              		.loc 1 1010 3 discriminator 2 view .LVU652
 2059 0042 0023     		movs	r3, #0
 2060 0044 80F83C30 		strb	r3, [r0, #60]
1010:./Libraries/STM32F4xx_HAL_Driver/Src/stm32f4xx_hal_adc_ex.c ****   
 2061              		.loc 1 1010 3 discriminator 2 view .LVU653
1013:./Libraries/STM32F4xx_HAL_Driver/Src/stm32f4xx_hal_adc_ex.c **** }
 2062              		.loc 1 1013 3 discriminator 2 view .LVU654
1013:./Libraries/STM32F4xx_HAL_Driver/Src/stm32f4xx_hal_adc_ex.c **** }
 2063              		.loc 1 1013 10 is_stmt 0 discriminator 2 view .LVU655
 2064 0048 1846     		mov	r0, r3
 2065              	.LVL120:
1014:./Libraries/STM32F4xx_HAL_Driver/Src/stm32f4xx_hal_adc_ex.c **** 
 2066              		.loc 1 1014 1 discriminator 2 view .LVU656
 2067 004a 5DF8044B 		ldr	r4, [sp], #4
 2068              	.LCFI24:
 2069              		.cfi_restore 4
 2070              		.cfi_def_cfa_offset 0
 2071 004e 7047     		bx	lr
 2072              	.LVL121:
 2073              	.L143:
 990:./Libraries/STM32F4xx_HAL_Driver/Src/stm32f4xx_hal_adc_ex.c **** 
 2074              		.loc 1 990 3 view .LVU657
 2075 0050 0220     		movs	r0, #2
 2076              	.LVL122:
1014:./Libraries/STM32F4xx_HAL_Driver/Src/stm32f4xx_hal_adc_ex.c **** 
 2077              		.loc 1 1014 1 view .LVU658
 2078 0052 7047     		bx	lr
 2079              	.L149:
 2080              		.align	2
 2081              	.L148:
 2082 0054 00230140 		.word	1073816320
 2083              		.cfi_endproc
 2084              	.LFE137:
 2086              		.text
 2087              	.Letext0:
 2088              		.file 2 "/home/hao/Documents/gcc-arm-none-eabi/arm-none-eabi/include/machine/_default_types.h"
 2089              		.file 3 "/home/hao/Documents/gcc-arm-none-eabi/arm-none-eabi/include/sys/_stdint.h"
 2090              		.file 4 "./Libraries/CMSIS/Device/ST/STM32F4xx/Include/stm32f429xx.h"
 2091              		.file 5 "./Libraries/CMSIS/Device/ST/STM32F4xx/Include/stm32f4xx.h"
 2092              		.file 6 "./Libraries/STM32F4xx_HAL_Driver/Inc/stm32f4xx_hal_def.h"
 2093              		.file 7 "./Libraries/STM32F4xx_HAL_Driver/Inc/stm32f4xx_hal_dma.h"
 2094              		.file 8 "./Libraries/STM32F4xx_HAL_Driver/Inc/stm32f4xx_hal_adc.h"
 2095              		.file 9 "./Libraries/STM32F4xx_HAL_Driver/Inc/stm32f4xx_hal_adc_ex.h"
 2096              		.file 10 "./Libraries/CMSIS/Device/ST/STM32F4xx/Include/system_stm32f4xx.h"
 2097              		.file 11 "./Libraries/STM32F4xx_HAL_Driver/Inc/stm32f4xx_hal.h"
ARM GAS  /tmp/ccqyivU0.s 			page 68


DEFINED SYMBOLS
                            *ABS*:0000000000000000 stm32f4xx_hal_adc_ex.c
     /tmp/ccqyivU0.s:18     .text.ADC_MultiModeDMAError:0000000000000000 $t
     /tmp/ccqyivU0.s:25     .text.ADC_MultiModeDMAError:0000000000000000 ADC_MultiModeDMAError
     /tmp/ccqyivU0.s:61     .text.ADC_MultiModeDMAHalfConvCplt:0000000000000000 $t
     /tmp/ccqyivU0.s:67     .text.ADC_MultiModeDMAHalfConvCplt:0000000000000000 ADC_MultiModeDMAHalfConvCplt
     /tmp/ccqyivU0.s:94     .text.ADC_MultiModeDMAConvCplt:0000000000000000 $t
     /tmp/ccqyivU0.s:100    .text.ADC_MultiModeDMAConvCplt:0000000000000000 ADC_MultiModeDMAConvCplt
     /tmp/ccqyivU0.s:194    .text.HAL_ADCEx_InjectedStart:0000000000000000 $t
     /tmp/ccqyivU0.s:201    .text.HAL_ADCEx_InjectedStart:0000000000000000 HAL_ADCEx_InjectedStart
     /tmp/ccqyivU0.s:422    .text.HAL_ADCEx_InjectedStart:00000000000000e4 $d
     /tmp/ccqyivU0.s:430    .text.HAL_ADCEx_InjectedStart_IT:0000000000000000 $t
     /tmp/ccqyivU0.s:437    .text.HAL_ADCEx_InjectedStart_IT:0000000000000000 HAL_ADCEx_InjectedStart_IT
     /tmp/ccqyivU0.s:663    .text.HAL_ADCEx_InjectedStart_IT:00000000000000ec $d
     /tmp/ccqyivU0.s:671    .text.HAL_ADCEx_InjectedStop:0000000000000000 $t
     /tmp/ccqyivU0.s:678    .text.HAL_ADCEx_InjectedStop:0000000000000000 HAL_ADCEx_InjectedStop
     /tmp/ccqyivU0.s:772    .text.HAL_ADCEx_InjectedPollForConversion:0000000000000000 $t
     /tmp/ccqyivU0.s:779    .text.HAL_ADCEx_InjectedPollForConversion:0000000000000000 HAL_ADCEx_InjectedPollForConversion
     /tmp/ccqyivU0.s:928    .text.HAL_ADCEx_InjectedStop_IT:0000000000000000 $t
     /tmp/ccqyivU0.s:935    .text.HAL_ADCEx_InjectedStop_IT:0000000000000000 HAL_ADCEx_InjectedStop_IT
     /tmp/ccqyivU0.s:1033   .text.HAL_ADCEx_InjectedGetValue:0000000000000000 $t
     /tmp/ccqyivU0.s:1040   .text.HAL_ADCEx_InjectedGetValue:0000000000000000 HAL_ADCEx_InjectedGetValue
     /tmp/ccqyivU0.s:1069   .text.HAL_ADCEx_InjectedGetValue:0000000000000018 $d
     /tmp/ccqyivU0.s:1073   .text.HAL_ADCEx_InjectedGetValue:000000000000001c $t
     /tmp/ccqyivU0.s:1132   .text.HAL_ADCEx_MultiModeStart_DMA:0000000000000000 $t
     /tmp/ccqyivU0.s:1139   .text.HAL_ADCEx_MultiModeStart_DMA:0000000000000000 HAL_ADCEx_MultiModeStart_DMA
     /tmp/ccqyivU0.s:1369   .text.HAL_ADCEx_MultiModeStart_DMA:0000000000000104 $d
     /tmp/ccqyivU0.s:1380   .text.HAL_ADCEx_MultiModeStop_DMA:0000000000000000 $t
     /tmp/ccqyivU0.s:1387   .text.HAL_ADCEx_MultiModeStop_DMA:0000000000000000 HAL_ADCEx_MultiModeStop_DMA
     /tmp/ccqyivU0.s:1480   .text.HAL_ADCEx_MultiModeStop_DMA:0000000000000060 $d
     /tmp/ccqyivU0.s:1485   .text.HAL_ADCEx_MultiModeGetValue:0000000000000000 $t
     /tmp/ccqyivU0.s:1492   .text.HAL_ADCEx_MultiModeGetValue:0000000000000000 HAL_ADCEx_MultiModeGetValue
     /tmp/ccqyivU0.s:1512   .text.HAL_ADCEx_MultiModeGetValue:0000000000000008 $d
     /tmp/ccqyivU0.s:1517   .text.HAL_ADCEx_InjectedConvCpltCallback:0000000000000000 $t
     /tmp/ccqyivU0.s:1524   .text.HAL_ADCEx_InjectedConvCpltCallback:0000000000000000 HAL_ADCEx_InjectedConvCpltCallback
     /tmp/ccqyivU0.s:1539   .text.HAL_ADCEx_InjectedConfigChannel:0000000000000000 $t
     /tmp/ccqyivU0.s:1546   .text.HAL_ADCEx_InjectedConfigChannel:0000000000000000 HAL_ADCEx_InjectedConfigChannel
     /tmp/ccqyivU0.s:1977   .text.HAL_ADCEx_InjectedConfigChannel:0000000000000208 $d
     /tmp/ccqyivU0.s:1985   .text.HAL_ADCEx_MultiModeConfigChannel:0000000000000000 $t
     /tmp/ccqyivU0.s:1992   .text.HAL_ADCEx_MultiModeConfigChannel:0000000000000000 HAL_ADCEx_MultiModeConfigChannel
     /tmp/ccqyivU0.s:2082   .text.HAL_ADCEx_MultiModeConfigChannel:0000000000000054 $d

UNDEFINED SYMBOLS
HAL_ADC_ErrorCallback
HAL_ADC_ConvHalfCpltCallback
HAL_ADC_ConvCpltCallback
SystemCoreClock
HAL_GetTick
HAL_DMA_Start_IT
HAL_DMA_Abort
