ARM GAS  /tmp/ccfbD6Jk.s 			page 1


   1              		.cpu cortex-m4
   2              		.eabi_attribute 27, 1
   3              		.eabi_attribute 28, 1
   4              		.eabi_attribute 20, 1
   5              		.eabi_attribute 21, 1
   6              		.eabi_attribute 23, 3
   7              		.eabi_attribute 24, 1
   8              		.eabi_attribute 25, 1
   9              		.eabi_attribute 26, 1
  10              		.eabi_attribute 30, 1
  11              		.eabi_attribute 34, 1
  12              		.eabi_attribute 18, 4
  13              		.file	"stm32f4xx_hal_i2s_ex.c"
  14              		.text
  15              	.Ltext0:
  16              		.cfi_sections	.debug_frame
  17              		.section	.text.I2SEx_TxRxDMAError,"ax",%progbits
  18              		.align	1
  19              		.arch armv7e-m
  20              		.syntax unified
  21              		.thumb
  22              		.thumb_func
  23              		.fpu fpv4-sp-d16
  25              	I2SEx_TxRxDMAError:
  26              	.LVL0:
  27              	.LFB134:
  28              		.file 1 "./Libraries/STM32F4xx_HAL_Driver/Src/stm32f4xx_hal_i2s_ex.c"
   1:./Libraries/STM32F4xx_HAL_Driver/Src/stm32f4xx_hal_i2s_ex.c **** /**
   2:./Libraries/STM32F4xx_HAL_Driver/Src/stm32f4xx_hal_i2s_ex.c ****   ******************************************************************************
   3:./Libraries/STM32F4xx_HAL_Driver/Src/stm32f4xx_hal_i2s_ex.c ****   * @file    stm32f4xx_hal_i2s_ex.c
   4:./Libraries/STM32F4xx_HAL_Driver/Src/stm32f4xx_hal_i2s_ex.c ****   * @author  MCD Application Team
   5:./Libraries/STM32F4xx_HAL_Driver/Src/stm32f4xx_hal_i2s_ex.c ****   * @brief   I2S HAL module driver.
   6:./Libraries/STM32F4xx_HAL_Driver/Src/stm32f4xx_hal_i2s_ex.c ****   *          This file provides firmware functions to manage the following
   7:./Libraries/STM32F4xx_HAL_Driver/Src/stm32f4xx_hal_i2s_ex.c ****   *          functionalities of I2S extension peripheral:
   8:./Libraries/STM32F4xx_HAL_Driver/Src/stm32f4xx_hal_i2s_ex.c ****   *           + Extension features Functions
   9:./Libraries/STM32F4xx_HAL_Driver/Src/stm32f4xx_hal_i2s_ex.c ****   *
  10:./Libraries/STM32F4xx_HAL_Driver/Src/stm32f4xx_hal_i2s_ex.c ****   @verbatim
  11:./Libraries/STM32F4xx_HAL_Driver/Src/stm32f4xx_hal_i2s_ex.c ****   ==============================================================================
  12:./Libraries/STM32F4xx_HAL_Driver/Src/stm32f4xx_hal_i2s_ex.c ****                     ##### I2S Extension features #####
  13:./Libraries/STM32F4xx_HAL_Driver/Src/stm32f4xx_hal_i2s_ex.c ****   ==============================================================================
  14:./Libraries/STM32F4xx_HAL_Driver/Src/stm32f4xx_hal_i2s_ex.c ****   [..]
  15:./Libraries/STM32F4xx_HAL_Driver/Src/stm32f4xx_hal_i2s_ex.c ****      (#) In I2S full duplex mode, each SPI peripheral is able to manage sending and receiving
  16:./Libraries/STM32F4xx_HAL_Driver/Src/stm32f4xx_hal_i2s_ex.c ****          data simultaneously using two data lines. Each SPI peripheral has an extended block
  17:./Libraries/STM32F4xx_HAL_Driver/Src/stm32f4xx_hal_i2s_ex.c ****          called I2Sxext (i.e I2S2ext for SPI2 and I2S3ext for SPI3).
  18:./Libraries/STM32F4xx_HAL_Driver/Src/stm32f4xx_hal_i2s_ex.c ****      (#) The extension block is not a full SPI IP, it is used only as I2S slave to
  19:./Libraries/STM32F4xx_HAL_Driver/Src/stm32f4xx_hal_i2s_ex.c ****          implement full duplex mode. The extension block uses the same clock sources
  20:./Libraries/STM32F4xx_HAL_Driver/Src/stm32f4xx_hal_i2s_ex.c ****          as its master.
  21:./Libraries/STM32F4xx_HAL_Driver/Src/stm32f4xx_hal_i2s_ex.c **** 
  22:./Libraries/STM32F4xx_HAL_Driver/Src/stm32f4xx_hal_i2s_ex.c ****      (#) Both I2Sx and I2Sx_ext can be configured as transmitters or receivers.
  23:./Libraries/STM32F4xx_HAL_Driver/Src/stm32f4xx_hal_i2s_ex.c **** 
  24:./Libraries/STM32F4xx_HAL_Driver/Src/stm32f4xx_hal_i2s_ex.c ****      [..]
  25:./Libraries/STM32F4xx_HAL_Driver/Src/stm32f4xx_hal_i2s_ex.c ****        (@) Only I2Sx can deliver SCK and WS to I2Sx_ext in full duplex mode, where
  26:./Libraries/STM32F4xx_HAL_Driver/Src/stm32f4xx_hal_i2s_ex.c ****          I2Sx can be I2S2 or I2S3.
  27:./Libraries/STM32F4xx_HAL_Driver/Src/stm32f4xx_hal_i2s_ex.c **** 
  28:./Libraries/STM32F4xx_HAL_Driver/Src/stm32f4xx_hal_i2s_ex.c ****                   ##### How to use this driver #####
  29:./Libraries/STM32F4xx_HAL_Driver/Src/stm32f4xx_hal_i2s_ex.c ****  ===============================================================================
  30:./Libraries/STM32F4xx_HAL_Driver/Src/stm32f4xx_hal_i2s_ex.c ****  [..]
ARM GAS  /tmp/ccfbD6Jk.s 			page 2


  31:./Libraries/STM32F4xx_HAL_Driver/Src/stm32f4xx_hal_i2s_ex.c ****    Three operation modes are available within this driver :
  32:./Libraries/STM32F4xx_HAL_Driver/Src/stm32f4xx_hal_i2s_ex.c **** 
  33:./Libraries/STM32F4xx_HAL_Driver/Src/stm32f4xx_hal_i2s_ex.c ****    *** Polling mode IO operation ***
  34:./Libraries/STM32F4xx_HAL_Driver/Src/stm32f4xx_hal_i2s_ex.c ****    =================================
  35:./Libraries/STM32F4xx_HAL_Driver/Src/stm32f4xx_hal_i2s_ex.c ****    [..]
  36:./Libraries/STM32F4xx_HAL_Driver/Src/stm32f4xx_hal_i2s_ex.c ****      (+) Send and receive in the same time an amount of data in blocking mode using HAL_I2SEx_Trans
  37:./Libraries/STM32F4xx_HAL_Driver/Src/stm32f4xx_hal_i2s_ex.c **** 
  38:./Libraries/STM32F4xx_HAL_Driver/Src/stm32f4xx_hal_i2s_ex.c ****    *** Interrupt mode IO operation ***
  39:./Libraries/STM32F4xx_HAL_Driver/Src/stm32f4xx_hal_i2s_ex.c ****    ===================================
  40:./Libraries/STM32F4xx_HAL_Driver/Src/stm32f4xx_hal_i2s_ex.c ****    [..]
  41:./Libraries/STM32F4xx_HAL_Driver/Src/stm32f4xx_hal_i2s_ex.c ****      (+) Send and receive in the same time an amount of data in non blocking mode using HAL_I2SEx_T
  42:./Libraries/STM32F4xx_HAL_Driver/Src/stm32f4xx_hal_i2s_ex.c ****      (+) At transmission/reception end of transfer HAL_I2SEx_TxRxCpltCallback is executed and user 
  43:./Libraries/STM32F4xx_HAL_Driver/Src/stm32f4xx_hal_i2s_ex.c ****          add his own code by customization of function pointer HAL_I2SEx_TxRxCpltCallback
  44:./Libraries/STM32F4xx_HAL_Driver/Src/stm32f4xx_hal_i2s_ex.c ****      (+) In case of transfer Error, HAL_I2S_ErrorCallback() function is executed and user can
  45:./Libraries/STM32F4xx_HAL_Driver/Src/stm32f4xx_hal_i2s_ex.c ****          add his own code by customization of function pointer HAL_I2S_ErrorCallback
  46:./Libraries/STM32F4xx_HAL_Driver/Src/stm32f4xx_hal_i2s_ex.c **** 
  47:./Libraries/STM32F4xx_HAL_Driver/Src/stm32f4xx_hal_i2s_ex.c ****    *** DMA mode IO operation ***
  48:./Libraries/STM32F4xx_HAL_Driver/Src/stm32f4xx_hal_i2s_ex.c ****    ==============================
  49:./Libraries/STM32F4xx_HAL_Driver/Src/stm32f4xx_hal_i2s_ex.c ****    [..]
  50:./Libraries/STM32F4xx_HAL_Driver/Src/stm32f4xx_hal_i2s_ex.c ****      (+) Send and receive an amount of data in non blocking mode (DMA) using HAL_I2SEx_TransmitRece
  51:./Libraries/STM32F4xx_HAL_Driver/Src/stm32f4xx_hal_i2s_ex.c ****      (+) At transmission/reception end of transfer HAL_I2SEx_TxRxCpltCallback is executed and user 
  52:./Libraries/STM32F4xx_HAL_Driver/Src/stm32f4xx_hal_i2s_ex.c ****          add his own code by customization of function pointer HAL_I2S_TxRxCpltCallback
  53:./Libraries/STM32F4xx_HAL_Driver/Src/stm32f4xx_hal_i2s_ex.c ****      (+) In case of transfer Error, HAL_I2S_ErrorCallback() function is executed and user can
  54:./Libraries/STM32F4xx_HAL_Driver/Src/stm32f4xx_hal_i2s_ex.c ****          add his own code by customization of function pointer HAL_I2S_ErrorCallback
  55:./Libraries/STM32F4xx_HAL_Driver/Src/stm32f4xx_hal_i2s_ex.c ****   @endverbatim
  56:./Libraries/STM32F4xx_HAL_Driver/Src/stm32f4xx_hal_i2s_ex.c **** 
  57:./Libraries/STM32F4xx_HAL_Driver/Src/stm32f4xx_hal_i2s_ex.c ****  Additional Figure: The Extended block uses the same clock sources as its master.
  58:./Libraries/STM32F4xx_HAL_Driver/Src/stm32f4xx_hal_i2s_ex.c **** 
  59:./Libraries/STM32F4xx_HAL_Driver/Src/stm32f4xx_hal_i2s_ex.c ****                 +-----------------------+
  60:./Libraries/STM32F4xx_HAL_Driver/Src/stm32f4xx_hal_i2s_ex.c ****     I2Sx_SCK    |                       |
  61:./Libraries/STM32F4xx_HAL_Driver/Src/stm32f4xx_hal_i2s_ex.c ****  ----------+-->|          I2Sx         |------------------->I2Sx_SD(in/out)
  62:./Libraries/STM32F4xx_HAL_Driver/Src/stm32f4xx_hal_i2s_ex.c ****          +--|-->|                       |
  63:./Libraries/STM32F4xx_HAL_Driver/Src/stm32f4xx_hal_i2s_ex.c ****         |   |   +-----------------------+
  64:./Libraries/STM32F4xx_HAL_Driver/Src/stm32f4xx_hal_i2s_ex.c ****         |   |
  65:./Libraries/STM32F4xx_HAL_Driver/Src/stm32f4xx_hal_i2s_ex.c ****  I2S_WS |   |
  66:./Libraries/STM32F4xx_HAL_Driver/Src/stm32f4xx_hal_i2s_ex.c ****  ------>|   |
  67:./Libraries/STM32F4xx_HAL_Driver/Src/stm32f4xx_hal_i2s_ex.c ****         |   |   +-----------------------+
  68:./Libraries/STM32F4xx_HAL_Driver/Src/stm32f4xx_hal_i2s_ex.c ****         |   +-->|                       |
  69:./Libraries/STM32F4xx_HAL_Driver/Src/stm32f4xx_hal_i2s_ex.c ****         |       |       I2Sx_ext        |------------------->I2Sx_extSD(in/out)
  70:./Libraries/STM32F4xx_HAL_Driver/Src/stm32f4xx_hal_i2s_ex.c ****          +----->|                       |
  71:./Libraries/STM32F4xx_HAL_Driver/Src/stm32f4xx_hal_i2s_ex.c ****                 +-----------------------+
  72:./Libraries/STM32F4xx_HAL_Driver/Src/stm32f4xx_hal_i2s_ex.c ****   ******************************************************************************
  73:./Libraries/STM32F4xx_HAL_Driver/Src/stm32f4xx_hal_i2s_ex.c ****   * @attention
  74:./Libraries/STM32F4xx_HAL_Driver/Src/stm32f4xx_hal_i2s_ex.c ****   *
  75:./Libraries/STM32F4xx_HAL_Driver/Src/stm32f4xx_hal_i2s_ex.c ****   * <h2><center>&copy; COPYRIGHT(c) 2017 STMicroelectronics</center></h2>
  76:./Libraries/STM32F4xx_HAL_Driver/Src/stm32f4xx_hal_i2s_ex.c ****   *
  77:./Libraries/STM32F4xx_HAL_Driver/Src/stm32f4xx_hal_i2s_ex.c ****   * Redistribution and use in source and binary forms, with or without modification,
  78:./Libraries/STM32F4xx_HAL_Driver/Src/stm32f4xx_hal_i2s_ex.c ****   * are permitted provided that the following conditions are met:
  79:./Libraries/STM32F4xx_HAL_Driver/Src/stm32f4xx_hal_i2s_ex.c ****   *   1. Redistributions of source code must retain the above copyright notice,
  80:./Libraries/STM32F4xx_HAL_Driver/Src/stm32f4xx_hal_i2s_ex.c ****   *      this list of conditions and the following disclaimer.
  81:./Libraries/STM32F4xx_HAL_Driver/Src/stm32f4xx_hal_i2s_ex.c ****   *   2. Redistributions in binary form must reproduce the above copyright notice,
  82:./Libraries/STM32F4xx_HAL_Driver/Src/stm32f4xx_hal_i2s_ex.c ****   *      this list of conditions and the following disclaimer in the documentation
  83:./Libraries/STM32F4xx_HAL_Driver/Src/stm32f4xx_hal_i2s_ex.c ****   *      and/or other materials provided with the distribution.
  84:./Libraries/STM32F4xx_HAL_Driver/Src/stm32f4xx_hal_i2s_ex.c ****   *   3. Neither the name of STMicroelectronics nor the names of its contributors
  85:./Libraries/STM32F4xx_HAL_Driver/Src/stm32f4xx_hal_i2s_ex.c ****   *      may be used to endorse or promote products derived from this software
  86:./Libraries/STM32F4xx_HAL_Driver/Src/stm32f4xx_hal_i2s_ex.c ****   *      without specific prior written permission.
  87:./Libraries/STM32F4xx_HAL_Driver/Src/stm32f4xx_hal_i2s_ex.c ****   *
ARM GAS  /tmp/ccfbD6Jk.s 			page 3


  88:./Libraries/STM32F4xx_HAL_Driver/Src/stm32f4xx_hal_i2s_ex.c ****   * THIS SOFTWARE IS PROVIDED BY THE COPYRIGHT HOLDERS AND CONTRIBUTORS "AS IS"
  89:./Libraries/STM32F4xx_HAL_Driver/Src/stm32f4xx_hal_i2s_ex.c ****   * AND ANY EXPRESS OR IMPLIED WARRANTIES, INCLUDING, BUT NOT LIMITED TO, THE
  90:./Libraries/STM32F4xx_HAL_Driver/Src/stm32f4xx_hal_i2s_ex.c ****   * IMPLIED WARRANTIES OF MERCHANTABILITY AND FITNESS FOR A PARTICULAR PURPOSE ARE
  91:./Libraries/STM32F4xx_HAL_Driver/Src/stm32f4xx_hal_i2s_ex.c ****   * DISCLAIMED. IN NO EVENT SHALL THE COPYRIGHT HOLDER OR CONTRIBUTORS BE LIABLE
  92:./Libraries/STM32F4xx_HAL_Driver/Src/stm32f4xx_hal_i2s_ex.c ****   * FOR ANY DIRECT, INDIRECT, INCIDENTAL, SPECIAL, EXEMPLARY, OR CONSEQUENTIAL
  93:./Libraries/STM32F4xx_HAL_Driver/Src/stm32f4xx_hal_i2s_ex.c ****   * DAMAGES (INCLUDING, BUT NOT LIMITED TO, PROCUREMENT OF SUBSTITUTE GOODS OR
  94:./Libraries/STM32F4xx_HAL_Driver/Src/stm32f4xx_hal_i2s_ex.c ****   * SERVICES; LOSS OF USE, DATA, OR PROFITS; OR BUSINESS INTERRUPTION) HOWEVER
  95:./Libraries/STM32F4xx_HAL_Driver/Src/stm32f4xx_hal_i2s_ex.c ****   * CAUSED AND ON ANY THEORY OF LIABILITY, WHETHER IN CONTRACT, STRICT LIABILITY,
  96:./Libraries/STM32F4xx_HAL_Driver/Src/stm32f4xx_hal_i2s_ex.c ****   * OR TORT (INCLUDING NEGLIGENCE OR OTHERWISE) ARISING IN ANY WAY OUT OF THE USE
  97:./Libraries/STM32F4xx_HAL_Driver/Src/stm32f4xx_hal_i2s_ex.c ****   * OF THIS SOFTWARE, EVEN IF ADVISED OF THE POSSIBILITY OF SUCH DAMAGE.
  98:./Libraries/STM32F4xx_HAL_Driver/Src/stm32f4xx_hal_i2s_ex.c ****   *
  99:./Libraries/STM32F4xx_HAL_Driver/Src/stm32f4xx_hal_i2s_ex.c ****   ******************************************************************************
 100:./Libraries/STM32F4xx_HAL_Driver/Src/stm32f4xx_hal_i2s_ex.c ****   */
 101:./Libraries/STM32F4xx_HAL_Driver/Src/stm32f4xx_hal_i2s_ex.c **** 
 102:./Libraries/STM32F4xx_HAL_Driver/Src/stm32f4xx_hal_i2s_ex.c **** /* Includes ------------------------------------------------------------------*/
 103:./Libraries/STM32F4xx_HAL_Driver/Src/stm32f4xx_hal_i2s_ex.c **** #include "stm32f4xx_hal.h"
 104:./Libraries/STM32F4xx_HAL_Driver/Src/stm32f4xx_hal_i2s_ex.c **** 
 105:./Libraries/STM32F4xx_HAL_Driver/Src/stm32f4xx_hal_i2s_ex.c **** /** @addtogroup STM32F4xx_HAL_Driver
 106:./Libraries/STM32F4xx_HAL_Driver/Src/stm32f4xx_hal_i2s_ex.c ****   * @{
 107:./Libraries/STM32F4xx_HAL_Driver/Src/stm32f4xx_hal_i2s_ex.c ****   */
 108:./Libraries/STM32F4xx_HAL_Driver/Src/stm32f4xx_hal_i2s_ex.c **** 
 109:./Libraries/STM32F4xx_HAL_Driver/Src/stm32f4xx_hal_i2s_ex.c **** #ifdef HAL_I2S_MODULE_ENABLED
 110:./Libraries/STM32F4xx_HAL_Driver/Src/stm32f4xx_hal_i2s_ex.c **** 
 111:./Libraries/STM32F4xx_HAL_Driver/Src/stm32f4xx_hal_i2s_ex.c **** /** @defgroup I2SEx I2SEx
 112:./Libraries/STM32F4xx_HAL_Driver/Src/stm32f4xx_hal_i2s_ex.c ****   * @brief I2S Extended HAL module driver
 113:./Libraries/STM32F4xx_HAL_Driver/Src/stm32f4xx_hal_i2s_ex.c ****   * @{
 114:./Libraries/STM32F4xx_HAL_Driver/Src/stm32f4xx_hal_i2s_ex.c ****   */
 115:./Libraries/STM32F4xx_HAL_Driver/Src/stm32f4xx_hal_i2s_ex.c **** 
 116:./Libraries/STM32F4xx_HAL_Driver/Src/stm32f4xx_hal_i2s_ex.c **** #if defined (SPI_I2S_FULLDUPLEX_SUPPORT)
 117:./Libraries/STM32F4xx_HAL_Driver/Src/stm32f4xx_hal_i2s_ex.c **** 
 118:./Libraries/STM32F4xx_HAL_Driver/Src/stm32f4xx_hal_i2s_ex.c **** /* Private typedef -----------------------------------------------------------*/
 119:./Libraries/STM32F4xx_HAL_Driver/Src/stm32f4xx_hal_i2s_ex.c **** /** @defgroup I2SEx_Private_Typedef I2S Extended Private Typedef
 120:./Libraries/STM32F4xx_HAL_Driver/Src/stm32f4xx_hal_i2s_ex.c ****   * @{
 121:./Libraries/STM32F4xx_HAL_Driver/Src/stm32f4xx_hal_i2s_ex.c ****   */
 122:./Libraries/STM32F4xx_HAL_Driver/Src/stm32f4xx_hal_i2s_ex.c **** typedef enum
 123:./Libraries/STM32F4xx_HAL_Driver/Src/stm32f4xx_hal_i2s_ex.c **** {
 124:./Libraries/STM32F4xx_HAL_Driver/Src/stm32f4xx_hal_i2s_ex.c ****   I2S_USE_I2S      = 0x00U,   /*!< I2Sx should be used      */
 125:./Libraries/STM32F4xx_HAL_Driver/Src/stm32f4xx_hal_i2s_ex.c ****   I2S_USE_I2SEXT   = 0x01U,   /*!< I2Sx_ext should be used  */
 126:./Libraries/STM32F4xx_HAL_Driver/Src/stm32f4xx_hal_i2s_ex.c **** }I2S_UseTypeDef;
 127:./Libraries/STM32F4xx_HAL_Driver/Src/stm32f4xx_hal_i2s_ex.c **** /**
 128:./Libraries/STM32F4xx_HAL_Driver/Src/stm32f4xx_hal_i2s_ex.c ****   * @}
 129:./Libraries/STM32F4xx_HAL_Driver/Src/stm32f4xx_hal_i2s_ex.c ****   */
 130:./Libraries/STM32F4xx_HAL_Driver/Src/stm32f4xx_hal_i2s_ex.c **** /* Private define ------------------------------------------------------------*/
 131:./Libraries/STM32F4xx_HAL_Driver/Src/stm32f4xx_hal_i2s_ex.c **** /* Private macro -------------------------------------------------------------*/
 132:./Libraries/STM32F4xx_HAL_Driver/Src/stm32f4xx_hal_i2s_ex.c **** /* Private variables ---------------------------------------------------------*/
 133:./Libraries/STM32F4xx_HAL_Driver/Src/stm32f4xx_hal_i2s_ex.c **** /* Private function prototypes -----------------------------------------------*/
 134:./Libraries/STM32F4xx_HAL_Driver/Src/stm32f4xx_hal_i2s_ex.c **** /** @defgroup I2SEx_Private_Functions I2S Extended Private Functions
 135:./Libraries/STM32F4xx_HAL_Driver/Src/stm32f4xx_hal_i2s_ex.c ****   * @{
 136:./Libraries/STM32F4xx_HAL_Driver/Src/stm32f4xx_hal_i2s_ex.c ****   */
 137:./Libraries/STM32F4xx_HAL_Driver/Src/stm32f4xx_hal_i2s_ex.c **** static void I2SEx_TxRxDMAHalfCplt(DMA_HandleTypeDef *hdma);
 138:./Libraries/STM32F4xx_HAL_Driver/Src/stm32f4xx_hal_i2s_ex.c **** static void I2SEx_TxRxDMACplt(DMA_HandleTypeDef *hdma);
 139:./Libraries/STM32F4xx_HAL_Driver/Src/stm32f4xx_hal_i2s_ex.c **** static void I2SEx_TxRxDMAError(DMA_HandleTypeDef *hdma);
 140:./Libraries/STM32F4xx_HAL_Driver/Src/stm32f4xx_hal_i2s_ex.c **** static void I2SEx_FullDuplexTx_IT(I2S_HandleTypeDef *hi2s, I2S_UseTypeDef i2sUsed);
 141:./Libraries/STM32F4xx_HAL_Driver/Src/stm32f4xx_hal_i2s_ex.c **** static void I2SEx_FullDuplexRx_IT(I2S_HandleTypeDef *hi2s, I2S_UseTypeDef i2sUsed);
 142:./Libraries/STM32F4xx_HAL_Driver/Src/stm32f4xx_hal_i2s_ex.c **** static HAL_StatusTypeDef I2SEx_FullDuplexWaitFlagStateUntilTimeout(I2S_HandleTypeDef *hi2s, uint32_
 143:./Libraries/STM32F4xx_HAL_Driver/Src/stm32f4xx_hal_i2s_ex.c ****                                                                    uint32_t State, uint32_t Timeout
 144:./Libraries/STM32F4xx_HAL_Driver/Src/stm32f4xx_hal_i2s_ex.c **** /**
ARM GAS  /tmp/ccfbD6Jk.s 			page 4


 145:./Libraries/STM32F4xx_HAL_Driver/Src/stm32f4xx_hal_i2s_ex.c ****   * @}
 146:./Libraries/STM32F4xx_HAL_Driver/Src/stm32f4xx_hal_i2s_ex.c ****   */
 147:./Libraries/STM32F4xx_HAL_Driver/Src/stm32f4xx_hal_i2s_ex.c **** 
 148:./Libraries/STM32F4xx_HAL_Driver/Src/stm32f4xx_hal_i2s_ex.c **** /**
 149:./Libraries/STM32F4xx_HAL_Driver/Src/stm32f4xx_hal_i2s_ex.c ****   * @}
 150:./Libraries/STM32F4xx_HAL_Driver/Src/stm32f4xx_hal_i2s_ex.c ****   */
 151:./Libraries/STM32F4xx_HAL_Driver/Src/stm32f4xx_hal_i2s_ex.c **** 
 152:./Libraries/STM32F4xx_HAL_Driver/Src/stm32f4xx_hal_i2s_ex.c **** /* Private functions ---------------------------------------------------------*/
 153:./Libraries/STM32F4xx_HAL_Driver/Src/stm32f4xx_hal_i2s_ex.c **** /* Exported functions --------------------------------------------------------*/
 154:./Libraries/STM32F4xx_HAL_Driver/Src/stm32f4xx_hal_i2s_ex.c **** 
 155:./Libraries/STM32F4xx_HAL_Driver/Src/stm32f4xx_hal_i2s_ex.c **** /** @addtogroup I2SEx I2SEx
 156:./Libraries/STM32F4xx_HAL_Driver/Src/stm32f4xx_hal_i2s_ex.c ****   * @{
 157:./Libraries/STM32F4xx_HAL_Driver/Src/stm32f4xx_hal_i2s_ex.c ****   */
 158:./Libraries/STM32F4xx_HAL_Driver/Src/stm32f4xx_hal_i2s_ex.c **** 
 159:./Libraries/STM32F4xx_HAL_Driver/Src/stm32f4xx_hal_i2s_ex.c **** /** @addtogroup I2SEx_Exported_Functions I2S Extended Exported Functions
 160:./Libraries/STM32F4xx_HAL_Driver/Src/stm32f4xx_hal_i2s_ex.c ****   * @{
 161:./Libraries/STM32F4xx_HAL_Driver/Src/stm32f4xx_hal_i2s_ex.c ****   */
 162:./Libraries/STM32F4xx_HAL_Driver/Src/stm32f4xx_hal_i2s_ex.c **** 
 163:./Libraries/STM32F4xx_HAL_Driver/Src/stm32f4xx_hal_i2s_ex.c **** /** @defgroup I2SEx_Exported_Functions_Group1 I2S Extended IO operation functions
 164:./Libraries/STM32F4xx_HAL_Driver/Src/stm32f4xx_hal_i2s_ex.c ****   *  @brief   I2SEx IO operation functions
 165:./Libraries/STM32F4xx_HAL_Driver/Src/stm32f4xx_hal_i2s_ex.c ****   *
 166:./Libraries/STM32F4xx_HAL_Driver/Src/stm32f4xx_hal_i2s_ex.c **** @verbatim
 167:./Libraries/STM32F4xx_HAL_Driver/Src/stm32f4xx_hal_i2s_ex.c ****  ===============================================================================
 168:./Libraries/STM32F4xx_HAL_Driver/Src/stm32f4xx_hal_i2s_ex.c ****                        ##### IO operation functions#####
 169:./Libraries/STM32F4xx_HAL_Driver/Src/stm32f4xx_hal_i2s_ex.c ****  ===============================================================================
 170:./Libraries/STM32F4xx_HAL_Driver/Src/stm32f4xx_hal_i2s_ex.c ****     [..]
 171:./Libraries/STM32F4xx_HAL_Driver/Src/stm32f4xx_hal_i2s_ex.c ****     This subsection provides a set of functions allowing to manage the I2S data
 172:./Libraries/STM32F4xx_HAL_Driver/Src/stm32f4xx_hal_i2s_ex.c ****     transfers.
 173:./Libraries/STM32F4xx_HAL_Driver/Src/stm32f4xx_hal_i2s_ex.c **** 
 174:./Libraries/STM32F4xx_HAL_Driver/Src/stm32f4xx_hal_i2s_ex.c ****     (#) There are two modes of transfer:
 175:./Libraries/STM32F4xx_HAL_Driver/Src/stm32f4xx_hal_i2s_ex.c ****        (++) Blocking mode : The communication is performed in the polling mode.
 176:./Libraries/STM32F4xx_HAL_Driver/Src/stm32f4xx_hal_i2s_ex.c ****             The status of all data processing is returned by the same function
 177:./Libraries/STM32F4xx_HAL_Driver/Src/stm32f4xx_hal_i2s_ex.c ****             after finishing transfer.
 178:./Libraries/STM32F4xx_HAL_Driver/Src/stm32f4xx_hal_i2s_ex.c ****        (++) No-Blocking mode : The communication is performed using Interrupts
 179:./Libraries/STM32F4xx_HAL_Driver/Src/stm32f4xx_hal_i2s_ex.c ****             or DMA. These functions return the status of the transfer startup.
 180:./Libraries/STM32F4xx_HAL_Driver/Src/stm32f4xx_hal_i2s_ex.c ****             The end of the data processing will be indicated through the
 181:./Libraries/STM32F4xx_HAL_Driver/Src/stm32f4xx_hal_i2s_ex.c ****             dedicated I2S IRQ when using Interrupt mode or the DMA IRQ when
 182:./Libraries/STM32F4xx_HAL_Driver/Src/stm32f4xx_hal_i2s_ex.c ****             using DMA mode.
 183:./Libraries/STM32F4xx_HAL_Driver/Src/stm32f4xx_hal_i2s_ex.c **** 
 184:./Libraries/STM32F4xx_HAL_Driver/Src/stm32f4xx_hal_i2s_ex.c ****     (#) Blocking mode functions are :
 185:./Libraries/STM32F4xx_HAL_Driver/Src/stm32f4xx_hal_i2s_ex.c ****         (++) HAL_I2SEx_TransmitReceive()
 186:./Libraries/STM32F4xx_HAL_Driver/Src/stm32f4xx_hal_i2s_ex.c **** 
 187:./Libraries/STM32F4xx_HAL_Driver/Src/stm32f4xx_hal_i2s_ex.c ****     (#) No-Blocking mode functions with Interrupt are :
 188:./Libraries/STM32F4xx_HAL_Driver/Src/stm32f4xx_hal_i2s_ex.c ****         (++) HAL_I2SEx_TransmitReceive_IT()
 189:./Libraries/STM32F4xx_HAL_Driver/Src/stm32f4xx_hal_i2s_ex.c ****         (++) HAL_I2SEx_FullDuplex_IRQHandler()
 190:./Libraries/STM32F4xx_HAL_Driver/Src/stm32f4xx_hal_i2s_ex.c **** 
 191:./Libraries/STM32F4xx_HAL_Driver/Src/stm32f4xx_hal_i2s_ex.c ****     (#) No-Blocking mode functions with DMA are :
 192:./Libraries/STM32F4xx_HAL_Driver/Src/stm32f4xx_hal_i2s_ex.c ****         (++) HAL_I2SEx_TransmitReceive_DMA()
 193:./Libraries/STM32F4xx_HAL_Driver/Src/stm32f4xx_hal_i2s_ex.c **** 
 194:./Libraries/STM32F4xx_HAL_Driver/Src/stm32f4xx_hal_i2s_ex.c ****     (#) A set of Transfer Complete Callback are provided in non Blocking mode:
 195:./Libraries/STM32F4xx_HAL_Driver/Src/stm32f4xx_hal_i2s_ex.c ****         (++) HAL_I2SEx_TxRxCpltCallback()
 196:./Libraries/STM32F4xx_HAL_Driver/Src/stm32f4xx_hal_i2s_ex.c **** @endverbatim
 197:./Libraries/STM32F4xx_HAL_Driver/Src/stm32f4xx_hal_i2s_ex.c ****   * @{
 198:./Libraries/STM32F4xx_HAL_Driver/Src/stm32f4xx_hal_i2s_ex.c ****   */
 199:./Libraries/STM32F4xx_HAL_Driver/Src/stm32f4xx_hal_i2s_ex.c **** /**
 200:./Libraries/STM32F4xx_HAL_Driver/Src/stm32f4xx_hal_i2s_ex.c ****   * @brief Full-Duplex Transmit/Receive data in blocking mode.
 201:./Libraries/STM32F4xx_HAL_Driver/Src/stm32f4xx_hal_i2s_ex.c ****   * @param  hi2s pointer to a I2S_HandleTypeDef structure that contains
ARM GAS  /tmp/ccfbD6Jk.s 			page 5


 202:./Libraries/STM32F4xx_HAL_Driver/Src/stm32f4xx_hal_i2s_ex.c ****   *         the configuration information for I2S module
 203:./Libraries/STM32F4xx_HAL_Driver/Src/stm32f4xx_hal_i2s_ex.c ****   * @param pTxData a 16-bit pointer to the Transmit data buffer.
 204:./Libraries/STM32F4xx_HAL_Driver/Src/stm32f4xx_hal_i2s_ex.c ****   * @param pRxData a 16-bit pointer to the Receive data buffer.
 205:./Libraries/STM32F4xx_HAL_Driver/Src/stm32f4xx_hal_i2s_ex.c ****   * @param Size number of data sample to be sent:
 206:./Libraries/STM32F4xx_HAL_Driver/Src/stm32f4xx_hal_i2s_ex.c ****   * @note When a 16-bit data frame or a 16-bit data frame extended is selected during the I2S
 207:./Libraries/STM32F4xx_HAL_Driver/Src/stm32f4xx_hal_i2s_ex.c ****   *       configuration phase, the Size parameter means the number of 16-bit data length
 208:./Libraries/STM32F4xx_HAL_Driver/Src/stm32f4xx_hal_i2s_ex.c ****   *       in the transaction and when a 24-bit data frame or a 32-bit data frame is selected
 209:./Libraries/STM32F4xx_HAL_Driver/Src/stm32f4xx_hal_i2s_ex.c ****   *       the Size parameter means the number of 16-bit data length.
 210:./Libraries/STM32F4xx_HAL_Driver/Src/stm32f4xx_hal_i2s_ex.c ****   * @param Timeout Timeout duration
 211:./Libraries/STM32F4xx_HAL_Driver/Src/stm32f4xx_hal_i2s_ex.c ****   * @note The I2S is kept enabled at the end of transaction to avoid the clock de-synchronization
 212:./Libraries/STM32F4xx_HAL_Driver/Src/stm32f4xx_hal_i2s_ex.c ****   *       between Master and Slave(example: audio streaming).
 213:./Libraries/STM32F4xx_HAL_Driver/Src/stm32f4xx_hal_i2s_ex.c ****   * @retval HAL status
 214:./Libraries/STM32F4xx_HAL_Driver/Src/stm32f4xx_hal_i2s_ex.c ****   */
 215:./Libraries/STM32F4xx_HAL_Driver/Src/stm32f4xx_hal_i2s_ex.c **** HAL_StatusTypeDef HAL_I2SEx_TransmitReceive(I2S_HandleTypeDef *hi2s, uint16_t *pTxData, uint16_t *p
 216:./Libraries/STM32F4xx_HAL_Driver/Src/stm32f4xx_hal_i2s_ex.c ****                                             uint16_t Size, uint32_t Timeout)
 217:./Libraries/STM32F4xx_HAL_Driver/Src/stm32f4xx_hal_i2s_ex.c **** {
 218:./Libraries/STM32F4xx_HAL_Driver/Src/stm32f4xx_hal_i2s_ex.c ****   uint32_t tmp1 = 0U;
 219:./Libraries/STM32F4xx_HAL_Driver/Src/stm32f4xx_hal_i2s_ex.c **** 
 220:./Libraries/STM32F4xx_HAL_Driver/Src/stm32f4xx_hal_i2s_ex.c ****   if((pTxData == NULL ) || (pRxData == NULL ) || (Size == 0U))
 221:./Libraries/STM32F4xx_HAL_Driver/Src/stm32f4xx_hal_i2s_ex.c ****   {
 222:./Libraries/STM32F4xx_HAL_Driver/Src/stm32f4xx_hal_i2s_ex.c ****     return  HAL_ERROR;
 223:./Libraries/STM32F4xx_HAL_Driver/Src/stm32f4xx_hal_i2s_ex.c ****   }
 224:./Libraries/STM32F4xx_HAL_Driver/Src/stm32f4xx_hal_i2s_ex.c **** 
 225:./Libraries/STM32F4xx_HAL_Driver/Src/stm32f4xx_hal_i2s_ex.c ****   /* Check the I2S State */
 226:./Libraries/STM32F4xx_HAL_Driver/Src/stm32f4xx_hal_i2s_ex.c ****   if(hi2s->State == HAL_I2S_STATE_READY)
 227:./Libraries/STM32F4xx_HAL_Driver/Src/stm32f4xx_hal_i2s_ex.c ****   {
 228:./Libraries/STM32F4xx_HAL_Driver/Src/stm32f4xx_hal_i2s_ex.c ****     tmp1 = hi2s->Instance->I2SCFGR & (SPI_I2SCFGR_DATLEN | SPI_I2SCFGR_CHLEN);
 229:./Libraries/STM32F4xx_HAL_Driver/Src/stm32f4xx_hal_i2s_ex.c ****     /* Check the Data format: When a 16-bit data frame or a 16-bit data frame extended
 230:./Libraries/STM32F4xx_HAL_Driver/Src/stm32f4xx_hal_i2s_ex.c ****        is selected during the I2S configuration phase, the Size parameter means the number
 231:./Libraries/STM32F4xx_HAL_Driver/Src/stm32f4xx_hal_i2s_ex.c ****        of 16-bit data length in the transaction and when a 24-bit data frame or a 32-bit data
 232:./Libraries/STM32F4xx_HAL_Driver/Src/stm32f4xx_hal_i2s_ex.c ****        frame is selected the Size parameter means the number of 16-bit data length. */
 233:./Libraries/STM32F4xx_HAL_Driver/Src/stm32f4xx_hal_i2s_ex.c ****     if((tmp1 == I2S_DATAFORMAT_24B) || (tmp1 == I2S_DATAFORMAT_32B))
 234:./Libraries/STM32F4xx_HAL_Driver/Src/stm32f4xx_hal_i2s_ex.c ****     {
 235:./Libraries/STM32F4xx_HAL_Driver/Src/stm32f4xx_hal_i2s_ex.c ****       hi2s->TxXferSize  = (Size << 1U);
 236:./Libraries/STM32F4xx_HAL_Driver/Src/stm32f4xx_hal_i2s_ex.c ****       hi2s->TxXferCount = (Size << 1U);
 237:./Libraries/STM32F4xx_HAL_Driver/Src/stm32f4xx_hal_i2s_ex.c ****       hi2s->RxXferSize  = (Size << 1U);
 238:./Libraries/STM32F4xx_HAL_Driver/Src/stm32f4xx_hal_i2s_ex.c ****       hi2s->RxXferCount = (Size << 1U);
 239:./Libraries/STM32F4xx_HAL_Driver/Src/stm32f4xx_hal_i2s_ex.c ****     }
 240:./Libraries/STM32F4xx_HAL_Driver/Src/stm32f4xx_hal_i2s_ex.c ****     else
 241:./Libraries/STM32F4xx_HAL_Driver/Src/stm32f4xx_hal_i2s_ex.c ****     {
 242:./Libraries/STM32F4xx_HAL_Driver/Src/stm32f4xx_hal_i2s_ex.c ****       hi2s->TxXferSize  = Size;
 243:./Libraries/STM32F4xx_HAL_Driver/Src/stm32f4xx_hal_i2s_ex.c ****       hi2s->TxXferCount = Size;
 244:./Libraries/STM32F4xx_HAL_Driver/Src/stm32f4xx_hal_i2s_ex.c ****       hi2s->RxXferSize  = Size;
 245:./Libraries/STM32F4xx_HAL_Driver/Src/stm32f4xx_hal_i2s_ex.c ****       hi2s->RxXferCount = Size;
 246:./Libraries/STM32F4xx_HAL_Driver/Src/stm32f4xx_hal_i2s_ex.c ****     }
 247:./Libraries/STM32F4xx_HAL_Driver/Src/stm32f4xx_hal_i2s_ex.c **** 
 248:./Libraries/STM32F4xx_HAL_Driver/Src/stm32f4xx_hal_i2s_ex.c ****     /* Process Locked */
 249:./Libraries/STM32F4xx_HAL_Driver/Src/stm32f4xx_hal_i2s_ex.c ****     __HAL_LOCK(hi2s);
 250:./Libraries/STM32F4xx_HAL_Driver/Src/stm32f4xx_hal_i2s_ex.c **** 
 251:./Libraries/STM32F4xx_HAL_Driver/Src/stm32f4xx_hal_i2s_ex.c ****     hi2s->ErrorCode = HAL_I2S_ERROR_NONE;
 252:./Libraries/STM32F4xx_HAL_Driver/Src/stm32f4xx_hal_i2s_ex.c **** 
 253:./Libraries/STM32F4xx_HAL_Driver/Src/stm32f4xx_hal_i2s_ex.c ****     /* Set the I2S State busy TX/RX */
 254:./Libraries/STM32F4xx_HAL_Driver/Src/stm32f4xx_hal_i2s_ex.c ****     hi2s->State = HAL_I2S_STATE_BUSY_TX_RX;
 255:./Libraries/STM32F4xx_HAL_Driver/Src/stm32f4xx_hal_i2s_ex.c **** 
 256:./Libraries/STM32F4xx_HAL_Driver/Src/stm32f4xx_hal_i2s_ex.c ****     tmp1 = hi2s->Instance->I2SCFGR & SPI_I2SCFGR_I2SCFG;
 257:./Libraries/STM32F4xx_HAL_Driver/Src/stm32f4xx_hal_i2s_ex.c ****     /* Check if the I2S_MODE_MASTER_TX or I2S_MODE_SLAVE_TX Mode is selected */
 258:./Libraries/STM32F4xx_HAL_Driver/Src/stm32f4xx_hal_i2s_ex.c ****     if((tmp1 == I2S_MODE_MASTER_TX) || (tmp1 == I2S_MODE_SLAVE_TX))
ARM GAS  /tmp/ccfbD6Jk.s 			page 6


 259:./Libraries/STM32F4xx_HAL_Driver/Src/stm32f4xx_hal_i2s_ex.c ****     {
 260:./Libraries/STM32F4xx_HAL_Driver/Src/stm32f4xx_hal_i2s_ex.c ****       /* Prepare the First Data before enabling the I2S */
 261:./Libraries/STM32F4xx_HAL_Driver/Src/stm32f4xx_hal_i2s_ex.c ****       hi2s->Instance->DR = (*pTxData++);
 262:./Libraries/STM32F4xx_HAL_Driver/Src/stm32f4xx_hal_i2s_ex.c ****       hi2s->TxXferCount--;
 263:./Libraries/STM32F4xx_HAL_Driver/Src/stm32f4xx_hal_i2s_ex.c **** 
 264:./Libraries/STM32F4xx_HAL_Driver/Src/stm32f4xx_hal_i2s_ex.c ****       /* Enable I2Sext(receiver) before enabling I2Sx peripheral */
 265:./Libraries/STM32F4xx_HAL_Driver/Src/stm32f4xx_hal_i2s_ex.c ****       __HAL_I2SEXT_ENABLE(hi2s);
 266:./Libraries/STM32F4xx_HAL_Driver/Src/stm32f4xx_hal_i2s_ex.c **** 
 267:./Libraries/STM32F4xx_HAL_Driver/Src/stm32f4xx_hal_i2s_ex.c ****       /* Enable I2Sx peripheral */
 268:./Libraries/STM32F4xx_HAL_Driver/Src/stm32f4xx_hal_i2s_ex.c ****       __HAL_I2S_ENABLE(hi2s);
 269:./Libraries/STM32F4xx_HAL_Driver/Src/stm32f4xx_hal_i2s_ex.c **** 
 270:./Libraries/STM32F4xx_HAL_Driver/Src/stm32f4xx_hal_i2s_ex.c ****       /* Check if Master Receiver mode is selected */
 271:./Libraries/STM32F4xx_HAL_Driver/Src/stm32f4xx_hal_i2s_ex.c ****       if((hi2s->Instance->I2SCFGR & SPI_I2SCFGR_I2SCFG) == I2S_MODE_MASTER_TX)
 272:./Libraries/STM32F4xx_HAL_Driver/Src/stm32f4xx_hal_i2s_ex.c ****       {
 273:./Libraries/STM32F4xx_HAL_Driver/Src/stm32f4xx_hal_i2s_ex.c ****         /* Clear the Overrun Flag by a read operation on the SPI_DR register followed by a read
 274:./Libraries/STM32F4xx_HAL_Driver/Src/stm32f4xx_hal_i2s_ex.c ****         access to the SPI_SR register. */
 275:./Libraries/STM32F4xx_HAL_Driver/Src/stm32f4xx_hal_i2s_ex.c ****         __HAL_I2SEXT_CLEAR_OVRFLAG(hi2s);
 276:./Libraries/STM32F4xx_HAL_Driver/Src/stm32f4xx_hal_i2s_ex.c ****       }
 277:./Libraries/STM32F4xx_HAL_Driver/Src/stm32f4xx_hal_i2s_ex.c **** 
 278:./Libraries/STM32F4xx_HAL_Driver/Src/stm32f4xx_hal_i2s_ex.c ****       while((hi2s->RxXferCount > 0U) || (hi2s->TxXferCount > 0U))
 279:./Libraries/STM32F4xx_HAL_Driver/Src/stm32f4xx_hal_i2s_ex.c ****       {
 280:./Libraries/STM32F4xx_HAL_Driver/Src/stm32f4xx_hal_i2s_ex.c ****         if(hi2s->TxXferCount > 0U)
 281:./Libraries/STM32F4xx_HAL_Driver/Src/stm32f4xx_hal_i2s_ex.c ****         {
 282:./Libraries/STM32F4xx_HAL_Driver/Src/stm32f4xx_hal_i2s_ex.c ****           /* Wait until TXE flag is set */
 283:./Libraries/STM32F4xx_HAL_Driver/Src/stm32f4xx_hal_i2s_ex.c ****           if (I2SEx_FullDuplexWaitFlagStateUntilTimeout(hi2s, I2S_FLAG_TXE, SET, Timeout, I2S_USE_I
 284:./Libraries/STM32F4xx_HAL_Driver/Src/stm32f4xx_hal_i2s_ex.c ****           {
 285:./Libraries/STM32F4xx_HAL_Driver/Src/stm32f4xx_hal_i2s_ex.c ****             /* Set the error code and execute error callback*/
 286:./Libraries/STM32F4xx_HAL_Driver/Src/stm32f4xx_hal_i2s_ex.c ****             SET_BIT(hi2s->ErrorCode, HAL_I2S_ERROR_TIMEOUT);
 287:./Libraries/STM32F4xx_HAL_Driver/Src/stm32f4xx_hal_i2s_ex.c ****             HAL_I2S_ErrorCallback(hi2s);
 288:./Libraries/STM32F4xx_HAL_Driver/Src/stm32f4xx_hal_i2s_ex.c ****             return HAL_TIMEOUT;
 289:./Libraries/STM32F4xx_HAL_Driver/Src/stm32f4xx_hal_i2s_ex.c ****           }
 290:./Libraries/STM32F4xx_HAL_Driver/Src/stm32f4xx_hal_i2s_ex.c ****           /* Write Data on DR register */
 291:./Libraries/STM32F4xx_HAL_Driver/Src/stm32f4xx_hal_i2s_ex.c ****           hi2s->Instance->DR = (*pTxData++);
 292:./Libraries/STM32F4xx_HAL_Driver/Src/stm32f4xx_hal_i2s_ex.c ****           hi2s->TxXferCount--;
 293:./Libraries/STM32F4xx_HAL_Driver/Src/stm32f4xx_hal_i2s_ex.c **** 
 294:./Libraries/STM32F4xx_HAL_Driver/Src/stm32f4xx_hal_i2s_ex.c ****           /* Check if an underrun occurs */
 295:./Libraries/STM32F4xx_HAL_Driver/Src/stm32f4xx_hal_i2s_ex.c ****           if((__HAL_I2S_GET_FLAG(hi2s, I2S_FLAG_UDR) == SET) && (tmp1 == I2S_MODE_SLAVE_TX))
 296:./Libraries/STM32F4xx_HAL_Driver/Src/stm32f4xx_hal_i2s_ex.c ****           {
 297:./Libraries/STM32F4xx_HAL_Driver/Src/stm32f4xx_hal_i2s_ex.c ****             /* Clear Underrun flag */
 298:./Libraries/STM32F4xx_HAL_Driver/Src/stm32f4xx_hal_i2s_ex.c ****             __HAL_I2S_CLEAR_UDRFLAG(hi2s);
 299:./Libraries/STM32F4xx_HAL_Driver/Src/stm32f4xx_hal_i2s_ex.c **** 
 300:./Libraries/STM32F4xx_HAL_Driver/Src/stm32f4xx_hal_i2s_ex.c ****             /* Set the I2S State ready */
 301:./Libraries/STM32F4xx_HAL_Driver/Src/stm32f4xx_hal_i2s_ex.c ****             hi2s->State = HAL_I2S_STATE_READY;
 302:./Libraries/STM32F4xx_HAL_Driver/Src/stm32f4xx_hal_i2s_ex.c **** 
 303:./Libraries/STM32F4xx_HAL_Driver/Src/stm32f4xx_hal_i2s_ex.c ****             /* Process Unlocked */
 304:./Libraries/STM32F4xx_HAL_Driver/Src/stm32f4xx_hal_i2s_ex.c ****             __HAL_UNLOCK(hi2s);
 305:./Libraries/STM32F4xx_HAL_Driver/Src/stm32f4xx_hal_i2s_ex.c **** 
 306:./Libraries/STM32F4xx_HAL_Driver/Src/stm32f4xx_hal_i2s_ex.c ****             /* Set the error code and execute error callback*/
 307:./Libraries/STM32F4xx_HAL_Driver/Src/stm32f4xx_hal_i2s_ex.c ****             SET_BIT(hi2s->ErrorCode,HAL_I2S_ERROR_UDR);
 308:./Libraries/STM32F4xx_HAL_Driver/Src/stm32f4xx_hal_i2s_ex.c ****             HAL_I2S_ErrorCallback(hi2s);
 309:./Libraries/STM32F4xx_HAL_Driver/Src/stm32f4xx_hal_i2s_ex.c **** 
 310:./Libraries/STM32F4xx_HAL_Driver/Src/stm32f4xx_hal_i2s_ex.c ****             return HAL_ERROR;
 311:./Libraries/STM32F4xx_HAL_Driver/Src/stm32f4xx_hal_i2s_ex.c ****           }
 312:./Libraries/STM32F4xx_HAL_Driver/Src/stm32f4xx_hal_i2s_ex.c ****         }
 313:./Libraries/STM32F4xx_HAL_Driver/Src/stm32f4xx_hal_i2s_ex.c ****         if(hi2s->RxXferCount > 0U)
 314:./Libraries/STM32F4xx_HAL_Driver/Src/stm32f4xx_hal_i2s_ex.c ****         {
 315:./Libraries/STM32F4xx_HAL_Driver/Src/stm32f4xx_hal_i2s_ex.c ****           /* Wait until RXNE flag is set */
ARM GAS  /tmp/ccfbD6Jk.s 			page 7


 316:./Libraries/STM32F4xx_HAL_Driver/Src/stm32f4xx_hal_i2s_ex.c ****           if (I2SEx_FullDuplexWaitFlagStateUntilTimeout(hi2s, I2S_FLAG_RXNE, SET, Timeout, I2S_USE_
 317:./Libraries/STM32F4xx_HAL_Driver/Src/stm32f4xx_hal_i2s_ex.c ****           {
 318:./Libraries/STM32F4xx_HAL_Driver/Src/stm32f4xx_hal_i2s_ex.c ****             /* Set the error code and execute error callback*/
 319:./Libraries/STM32F4xx_HAL_Driver/Src/stm32f4xx_hal_i2s_ex.c ****             SET_BIT(hi2s->ErrorCode,HAL_I2S_ERROR_TIMEOUT);
 320:./Libraries/STM32F4xx_HAL_Driver/Src/stm32f4xx_hal_i2s_ex.c ****             HAL_I2S_ErrorCallback(hi2s);
 321:./Libraries/STM32F4xx_HAL_Driver/Src/stm32f4xx_hal_i2s_ex.c ****             return HAL_TIMEOUT;
 322:./Libraries/STM32F4xx_HAL_Driver/Src/stm32f4xx_hal_i2s_ex.c ****           }
 323:./Libraries/STM32F4xx_HAL_Driver/Src/stm32f4xx_hal_i2s_ex.c ****           /* Read Data from DR register */
 324:./Libraries/STM32F4xx_HAL_Driver/Src/stm32f4xx_hal_i2s_ex.c ****           (*pRxData++) = I2SxEXT(hi2s->Instance)->DR;
 325:./Libraries/STM32F4xx_HAL_Driver/Src/stm32f4xx_hal_i2s_ex.c ****           hi2s->RxXferCount--;
 326:./Libraries/STM32F4xx_HAL_Driver/Src/stm32f4xx_hal_i2s_ex.c **** 
 327:./Libraries/STM32F4xx_HAL_Driver/Src/stm32f4xx_hal_i2s_ex.c ****           /* Check if an overrun occurs */
 328:./Libraries/STM32F4xx_HAL_Driver/Src/stm32f4xx_hal_i2s_ex.c ****           if(__HAL_I2SEXT_GET_FLAG(hi2s, I2S_FLAG_OVR) == SET)
 329:./Libraries/STM32F4xx_HAL_Driver/Src/stm32f4xx_hal_i2s_ex.c ****           {
 330:./Libraries/STM32F4xx_HAL_Driver/Src/stm32f4xx_hal_i2s_ex.c ****             /* Clear Overrun flag */
 331:./Libraries/STM32F4xx_HAL_Driver/Src/stm32f4xx_hal_i2s_ex.c ****             __HAL_I2S_CLEAR_OVRFLAG(hi2s);
 332:./Libraries/STM32F4xx_HAL_Driver/Src/stm32f4xx_hal_i2s_ex.c **** 
 333:./Libraries/STM32F4xx_HAL_Driver/Src/stm32f4xx_hal_i2s_ex.c ****             /* Set the I2S State ready */
 334:./Libraries/STM32F4xx_HAL_Driver/Src/stm32f4xx_hal_i2s_ex.c ****             hi2s->State = HAL_I2S_STATE_READY;
 335:./Libraries/STM32F4xx_HAL_Driver/Src/stm32f4xx_hal_i2s_ex.c **** 
 336:./Libraries/STM32F4xx_HAL_Driver/Src/stm32f4xx_hal_i2s_ex.c ****             /* Process Unlocked */
 337:./Libraries/STM32F4xx_HAL_Driver/Src/stm32f4xx_hal_i2s_ex.c ****             __HAL_UNLOCK(hi2s);
 338:./Libraries/STM32F4xx_HAL_Driver/Src/stm32f4xx_hal_i2s_ex.c **** 
 339:./Libraries/STM32F4xx_HAL_Driver/Src/stm32f4xx_hal_i2s_ex.c ****             /* Set the error code and execute error callback*/
 340:./Libraries/STM32F4xx_HAL_Driver/Src/stm32f4xx_hal_i2s_ex.c ****             SET_BIT(hi2s->ErrorCode,HAL_I2S_ERROR_OVR);
 341:./Libraries/STM32F4xx_HAL_Driver/Src/stm32f4xx_hal_i2s_ex.c ****             HAL_I2S_ErrorCallback(hi2s);
 342:./Libraries/STM32F4xx_HAL_Driver/Src/stm32f4xx_hal_i2s_ex.c **** 
 343:./Libraries/STM32F4xx_HAL_Driver/Src/stm32f4xx_hal_i2s_ex.c ****             return HAL_ERROR;
 344:./Libraries/STM32F4xx_HAL_Driver/Src/stm32f4xx_hal_i2s_ex.c ****           }
 345:./Libraries/STM32F4xx_HAL_Driver/Src/stm32f4xx_hal_i2s_ex.c ****         }
 346:./Libraries/STM32F4xx_HAL_Driver/Src/stm32f4xx_hal_i2s_ex.c ****       }
 347:./Libraries/STM32F4xx_HAL_Driver/Src/stm32f4xx_hal_i2s_ex.c ****     }
 348:./Libraries/STM32F4xx_HAL_Driver/Src/stm32f4xx_hal_i2s_ex.c ****     /* The I2S_MODE_MASTER_RX or I2S_MODE_SLAVE_RX Mode is selected */
 349:./Libraries/STM32F4xx_HAL_Driver/Src/stm32f4xx_hal_i2s_ex.c ****     else
 350:./Libraries/STM32F4xx_HAL_Driver/Src/stm32f4xx_hal_i2s_ex.c ****     {
 351:./Libraries/STM32F4xx_HAL_Driver/Src/stm32f4xx_hal_i2s_ex.c ****       /* Prepare the First Data before enabling the I2S */
 352:./Libraries/STM32F4xx_HAL_Driver/Src/stm32f4xx_hal_i2s_ex.c ****       I2SxEXT(hi2s->Instance)->DR = (*pTxData++);
 353:./Libraries/STM32F4xx_HAL_Driver/Src/stm32f4xx_hal_i2s_ex.c ****       hi2s->TxXferCount--;
 354:./Libraries/STM32F4xx_HAL_Driver/Src/stm32f4xx_hal_i2s_ex.c **** 
 355:./Libraries/STM32F4xx_HAL_Driver/Src/stm32f4xx_hal_i2s_ex.c ****       /* Enable I2Sext(transmitter) after enabling I2Sx peripheral */
 356:./Libraries/STM32F4xx_HAL_Driver/Src/stm32f4xx_hal_i2s_ex.c ****       __HAL_I2SEXT_ENABLE(hi2s);
 357:./Libraries/STM32F4xx_HAL_Driver/Src/stm32f4xx_hal_i2s_ex.c ****       
 358:./Libraries/STM32F4xx_HAL_Driver/Src/stm32f4xx_hal_i2s_ex.c ****       /* Enable I2S peripheral before the I2Sext*/
 359:./Libraries/STM32F4xx_HAL_Driver/Src/stm32f4xx_hal_i2s_ex.c ****       __HAL_I2S_ENABLE(hi2s);
 360:./Libraries/STM32F4xx_HAL_Driver/Src/stm32f4xx_hal_i2s_ex.c **** 
 361:./Libraries/STM32F4xx_HAL_Driver/Src/stm32f4xx_hal_i2s_ex.c ****       /* Check if Master Receiver mode is selected */
 362:./Libraries/STM32F4xx_HAL_Driver/Src/stm32f4xx_hal_i2s_ex.c ****       if((hi2s->Instance->I2SCFGR & SPI_I2SCFGR_I2SCFG) == I2S_MODE_MASTER_RX)
 363:./Libraries/STM32F4xx_HAL_Driver/Src/stm32f4xx_hal_i2s_ex.c ****       {
 364:./Libraries/STM32F4xx_HAL_Driver/Src/stm32f4xx_hal_i2s_ex.c ****         /* Clear the Overrun Flag by a read operation on the SPI_DR register followed by a read
 365:./Libraries/STM32F4xx_HAL_Driver/Src/stm32f4xx_hal_i2s_ex.c ****         access to the SPI_SR register. */
 366:./Libraries/STM32F4xx_HAL_Driver/Src/stm32f4xx_hal_i2s_ex.c ****         __HAL_I2S_CLEAR_OVRFLAG(hi2s);
 367:./Libraries/STM32F4xx_HAL_Driver/Src/stm32f4xx_hal_i2s_ex.c ****       }
 368:./Libraries/STM32F4xx_HAL_Driver/Src/stm32f4xx_hal_i2s_ex.c **** 
 369:./Libraries/STM32F4xx_HAL_Driver/Src/stm32f4xx_hal_i2s_ex.c ****       while((hi2s->RxXferCount > 0U) || (hi2s->TxXferCount > 0U))
 370:./Libraries/STM32F4xx_HAL_Driver/Src/stm32f4xx_hal_i2s_ex.c ****       {
 371:./Libraries/STM32F4xx_HAL_Driver/Src/stm32f4xx_hal_i2s_ex.c ****         if(hi2s->TxXferCount > 0U)
 372:./Libraries/STM32F4xx_HAL_Driver/Src/stm32f4xx_hal_i2s_ex.c ****         {
ARM GAS  /tmp/ccfbD6Jk.s 			page 8


 373:./Libraries/STM32F4xx_HAL_Driver/Src/stm32f4xx_hal_i2s_ex.c ****           /* Wait until TXE flag is set */
 374:./Libraries/STM32F4xx_HAL_Driver/Src/stm32f4xx_hal_i2s_ex.c ****           if (I2SEx_FullDuplexWaitFlagStateUntilTimeout(hi2s, I2S_FLAG_TXE, SET, Timeout, I2S_USE_I
 375:./Libraries/STM32F4xx_HAL_Driver/Src/stm32f4xx_hal_i2s_ex.c ****           {
 376:./Libraries/STM32F4xx_HAL_Driver/Src/stm32f4xx_hal_i2s_ex.c ****             /* Set the error code and execute error callback*/
 377:./Libraries/STM32F4xx_HAL_Driver/Src/stm32f4xx_hal_i2s_ex.c ****             SET_BIT(hi2s->ErrorCode,HAL_I2S_ERROR_TIMEOUT);
 378:./Libraries/STM32F4xx_HAL_Driver/Src/stm32f4xx_hal_i2s_ex.c ****             HAL_I2S_ErrorCallback(hi2s);
 379:./Libraries/STM32F4xx_HAL_Driver/Src/stm32f4xx_hal_i2s_ex.c ****             return HAL_TIMEOUT;
 380:./Libraries/STM32F4xx_HAL_Driver/Src/stm32f4xx_hal_i2s_ex.c ****           }
 381:./Libraries/STM32F4xx_HAL_Driver/Src/stm32f4xx_hal_i2s_ex.c ****           /* Write Data on DR register */
 382:./Libraries/STM32F4xx_HAL_Driver/Src/stm32f4xx_hal_i2s_ex.c ****           I2SxEXT(hi2s->Instance)->DR = (*pTxData++);
 383:./Libraries/STM32F4xx_HAL_Driver/Src/stm32f4xx_hal_i2s_ex.c ****           hi2s->TxXferCount--;
 384:./Libraries/STM32F4xx_HAL_Driver/Src/stm32f4xx_hal_i2s_ex.c **** 
 385:./Libraries/STM32F4xx_HAL_Driver/Src/stm32f4xx_hal_i2s_ex.c ****           /* Check if an underrun occurs */
 386:./Libraries/STM32F4xx_HAL_Driver/Src/stm32f4xx_hal_i2s_ex.c ****           if((__HAL_I2SEXT_GET_FLAG(hi2s, I2S_FLAG_UDR) == SET) && (tmp1 == I2S_MODE_SLAVE_RX))
 387:./Libraries/STM32F4xx_HAL_Driver/Src/stm32f4xx_hal_i2s_ex.c ****           {
 388:./Libraries/STM32F4xx_HAL_Driver/Src/stm32f4xx_hal_i2s_ex.c ****             /* Clear Underrun flag */
 389:./Libraries/STM32F4xx_HAL_Driver/Src/stm32f4xx_hal_i2s_ex.c ****             __HAL_I2S_CLEAR_UDRFLAG(hi2s);
 390:./Libraries/STM32F4xx_HAL_Driver/Src/stm32f4xx_hal_i2s_ex.c **** 
 391:./Libraries/STM32F4xx_HAL_Driver/Src/stm32f4xx_hal_i2s_ex.c ****             /* Set the I2S State ready */
 392:./Libraries/STM32F4xx_HAL_Driver/Src/stm32f4xx_hal_i2s_ex.c ****             hi2s->State = HAL_I2S_STATE_READY;
 393:./Libraries/STM32F4xx_HAL_Driver/Src/stm32f4xx_hal_i2s_ex.c **** 
 394:./Libraries/STM32F4xx_HAL_Driver/Src/stm32f4xx_hal_i2s_ex.c ****             /* Process Unlocked */
 395:./Libraries/STM32F4xx_HAL_Driver/Src/stm32f4xx_hal_i2s_ex.c ****             __HAL_UNLOCK(hi2s);
 396:./Libraries/STM32F4xx_HAL_Driver/Src/stm32f4xx_hal_i2s_ex.c **** 
 397:./Libraries/STM32F4xx_HAL_Driver/Src/stm32f4xx_hal_i2s_ex.c ****             /* Set the error code and execute error callback*/
 398:./Libraries/STM32F4xx_HAL_Driver/Src/stm32f4xx_hal_i2s_ex.c ****             SET_BIT(hi2s->ErrorCode,HAL_I2S_ERROR_UDR);
 399:./Libraries/STM32F4xx_HAL_Driver/Src/stm32f4xx_hal_i2s_ex.c ****             HAL_I2S_ErrorCallback(hi2s);
 400:./Libraries/STM32F4xx_HAL_Driver/Src/stm32f4xx_hal_i2s_ex.c **** 
 401:./Libraries/STM32F4xx_HAL_Driver/Src/stm32f4xx_hal_i2s_ex.c ****             return HAL_ERROR;
 402:./Libraries/STM32F4xx_HAL_Driver/Src/stm32f4xx_hal_i2s_ex.c ****           }
 403:./Libraries/STM32F4xx_HAL_Driver/Src/stm32f4xx_hal_i2s_ex.c ****         }
 404:./Libraries/STM32F4xx_HAL_Driver/Src/stm32f4xx_hal_i2s_ex.c ****         if(hi2s->RxXferCount > 0U)
 405:./Libraries/STM32F4xx_HAL_Driver/Src/stm32f4xx_hal_i2s_ex.c ****         {
 406:./Libraries/STM32F4xx_HAL_Driver/Src/stm32f4xx_hal_i2s_ex.c ****           /* Wait until RXNE flag is set */
 407:./Libraries/STM32F4xx_HAL_Driver/Src/stm32f4xx_hal_i2s_ex.c ****           if (I2SEx_FullDuplexWaitFlagStateUntilTimeout(hi2s, I2S_FLAG_RXNE, SET, Timeout, I2S_USE_
 408:./Libraries/STM32F4xx_HAL_Driver/Src/stm32f4xx_hal_i2s_ex.c ****           {
 409:./Libraries/STM32F4xx_HAL_Driver/Src/stm32f4xx_hal_i2s_ex.c ****             /* Set the error code and execute error callback*/
 410:./Libraries/STM32F4xx_HAL_Driver/Src/stm32f4xx_hal_i2s_ex.c ****             SET_BIT(hi2s->ErrorCode,HAL_I2S_ERROR_TIMEOUT);
 411:./Libraries/STM32F4xx_HAL_Driver/Src/stm32f4xx_hal_i2s_ex.c ****             HAL_I2S_ErrorCallback(hi2s);
 412:./Libraries/STM32F4xx_HAL_Driver/Src/stm32f4xx_hal_i2s_ex.c ****             return HAL_TIMEOUT;
 413:./Libraries/STM32F4xx_HAL_Driver/Src/stm32f4xx_hal_i2s_ex.c ****           }
 414:./Libraries/STM32F4xx_HAL_Driver/Src/stm32f4xx_hal_i2s_ex.c ****           /* Read Data from DR register */
 415:./Libraries/STM32F4xx_HAL_Driver/Src/stm32f4xx_hal_i2s_ex.c ****           (*pRxData++) = hi2s->Instance->DR;
 416:./Libraries/STM32F4xx_HAL_Driver/Src/stm32f4xx_hal_i2s_ex.c ****           hi2s->RxXferCount--;
 417:./Libraries/STM32F4xx_HAL_Driver/Src/stm32f4xx_hal_i2s_ex.c **** 
 418:./Libraries/STM32F4xx_HAL_Driver/Src/stm32f4xx_hal_i2s_ex.c ****           /* Check if an overrun occurs */
 419:./Libraries/STM32F4xx_HAL_Driver/Src/stm32f4xx_hal_i2s_ex.c ****           if(__HAL_I2S_GET_FLAG(hi2s, I2S_FLAG_OVR) == SET)
 420:./Libraries/STM32F4xx_HAL_Driver/Src/stm32f4xx_hal_i2s_ex.c ****           {
 421:./Libraries/STM32F4xx_HAL_Driver/Src/stm32f4xx_hal_i2s_ex.c ****             /* Clear Overrun flag */
 422:./Libraries/STM32F4xx_HAL_Driver/Src/stm32f4xx_hal_i2s_ex.c ****             __HAL_I2S_CLEAR_OVRFLAG(hi2s);
 423:./Libraries/STM32F4xx_HAL_Driver/Src/stm32f4xx_hal_i2s_ex.c **** 
 424:./Libraries/STM32F4xx_HAL_Driver/Src/stm32f4xx_hal_i2s_ex.c ****             /* Set the I2S State ready */
 425:./Libraries/STM32F4xx_HAL_Driver/Src/stm32f4xx_hal_i2s_ex.c ****             hi2s->State = HAL_I2S_STATE_READY;
 426:./Libraries/STM32F4xx_HAL_Driver/Src/stm32f4xx_hal_i2s_ex.c **** 
 427:./Libraries/STM32F4xx_HAL_Driver/Src/stm32f4xx_hal_i2s_ex.c ****             /* Process Unlocked */
 428:./Libraries/STM32F4xx_HAL_Driver/Src/stm32f4xx_hal_i2s_ex.c ****             __HAL_UNLOCK(hi2s);
 429:./Libraries/STM32F4xx_HAL_Driver/Src/stm32f4xx_hal_i2s_ex.c **** 
ARM GAS  /tmp/ccfbD6Jk.s 			page 9


 430:./Libraries/STM32F4xx_HAL_Driver/Src/stm32f4xx_hal_i2s_ex.c ****             /* Set the error code and execute error callback*/
 431:./Libraries/STM32F4xx_HAL_Driver/Src/stm32f4xx_hal_i2s_ex.c ****             SET_BIT(hi2s->ErrorCode,HAL_I2S_ERROR_OVR);
 432:./Libraries/STM32F4xx_HAL_Driver/Src/stm32f4xx_hal_i2s_ex.c ****             HAL_I2S_ErrorCallback(hi2s);
 433:./Libraries/STM32F4xx_HAL_Driver/Src/stm32f4xx_hal_i2s_ex.c **** 
 434:./Libraries/STM32F4xx_HAL_Driver/Src/stm32f4xx_hal_i2s_ex.c ****             return HAL_ERROR;
 435:./Libraries/STM32F4xx_HAL_Driver/Src/stm32f4xx_hal_i2s_ex.c ****           }
 436:./Libraries/STM32F4xx_HAL_Driver/Src/stm32f4xx_hal_i2s_ex.c ****         }
 437:./Libraries/STM32F4xx_HAL_Driver/Src/stm32f4xx_hal_i2s_ex.c ****       }
 438:./Libraries/STM32F4xx_HAL_Driver/Src/stm32f4xx_hal_i2s_ex.c ****     }
 439:./Libraries/STM32F4xx_HAL_Driver/Src/stm32f4xx_hal_i2s_ex.c **** 
 440:./Libraries/STM32F4xx_HAL_Driver/Src/stm32f4xx_hal_i2s_ex.c ****     /* Set the I2S State ready */
 441:./Libraries/STM32F4xx_HAL_Driver/Src/stm32f4xx_hal_i2s_ex.c ****     hi2s->State = HAL_I2S_STATE_READY;
 442:./Libraries/STM32F4xx_HAL_Driver/Src/stm32f4xx_hal_i2s_ex.c **** 
 443:./Libraries/STM32F4xx_HAL_Driver/Src/stm32f4xx_hal_i2s_ex.c ****     /* Process Unlocked */
 444:./Libraries/STM32F4xx_HAL_Driver/Src/stm32f4xx_hal_i2s_ex.c ****     __HAL_UNLOCK(hi2s);
 445:./Libraries/STM32F4xx_HAL_Driver/Src/stm32f4xx_hal_i2s_ex.c **** 
 446:./Libraries/STM32F4xx_HAL_Driver/Src/stm32f4xx_hal_i2s_ex.c ****     return HAL_OK;
 447:./Libraries/STM32F4xx_HAL_Driver/Src/stm32f4xx_hal_i2s_ex.c ****   }
 448:./Libraries/STM32F4xx_HAL_Driver/Src/stm32f4xx_hal_i2s_ex.c ****   else
 449:./Libraries/STM32F4xx_HAL_Driver/Src/stm32f4xx_hal_i2s_ex.c ****   {
 450:./Libraries/STM32F4xx_HAL_Driver/Src/stm32f4xx_hal_i2s_ex.c ****     return HAL_BUSY;
 451:./Libraries/STM32F4xx_HAL_Driver/Src/stm32f4xx_hal_i2s_ex.c ****   }
 452:./Libraries/STM32F4xx_HAL_Driver/Src/stm32f4xx_hal_i2s_ex.c **** }
 453:./Libraries/STM32F4xx_HAL_Driver/Src/stm32f4xx_hal_i2s_ex.c **** 
 454:./Libraries/STM32F4xx_HAL_Driver/Src/stm32f4xx_hal_i2s_ex.c **** /**
 455:./Libraries/STM32F4xx_HAL_Driver/Src/stm32f4xx_hal_i2s_ex.c ****   * @brief Full-Duplex Transmit/Receive data in non-blocking mode using Interrupt
 456:./Libraries/STM32F4xx_HAL_Driver/Src/stm32f4xx_hal_i2s_ex.c ****   * @param  hi2s pointer to a I2S_HandleTypeDef structure that contains
 457:./Libraries/STM32F4xx_HAL_Driver/Src/stm32f4xx_hal_i2s_ex.c ****   *         the configuration information for I2S module
 458:./Libraries/STM32F4xx_HAL_Driver/Src/stm32f4xx_hal_i2s_ex.c ****   * @param pTxData a 16-bit pointer to the Transmit data buffer.
 459:./Libraries/STM32F4xx_HAL_Driver/Src/stm32f4xx_hal_i2s_ex.c ****   * @param pRxData a 16-bit pointer to the Receive data buffer.
 460:./Libraries/STM32F4xx_HAL_Driver/Src/stm32f4xx_hal_i2s_ex.c ****   * @param Size number of data sample to be sent:
 461:./Libraries/STM32F4xx_HAL_Driver/Src/stm32f4xx_hal_i2s_ex.c ****   * @note When a 16-bit data frame or a 16-bit data frame extended is selected during the I2S
 462:./Libraries/STM32F4xx_HAL_Driver/Src/stm32f4xx_hal_i2s_ex.c ****   *       configuration phase, the Size parameter means the number of 16-bit data length
 463:./Libraries/STM32F4xx_HAL_Driver/Src/stm32f4xx_hal_i2s_ex.c ****   *       in the transaction and when a 24-bit data frame or a 32-bit data frame is selected
 464:./Libraries/STM32F4xx_HAL_Driver/Src/stm32f4xx_hal_i2s_ex.c ****   *       the Size parameter means the number of 16-bit data length.
 465:./Libraries/STM32F4xx_HAL_Driver/Src/stm32f4xx_hal_i2s_ex.c ****   * @note The I2S is kept enabled at the end of transaction to avoid the clock de-synchronization
 466:./Libraries/STM32F4xx_HAL_Driver/Src/stm32f4xx_hal_i2s_ex.c ****   *       between Master and Slave(example: audio streaming).
 467:./Libraries/STM32F4xx_HAL_Driver/Src/stm32f4xx_hal_i2s_ex.c ****   * @retval HAL status
 468:./Libraries/STM32F4xx_HAL_Driver/Src/stm32f4xx_hal_i2s_ex.c ****   */
 469:./Libraries/STM32F4xx_HAL_Driver/Src/stm32f4xx_hal_i2s_ex.c **** HAL_StatusTypeDef HAL_I2SEx_TransmitReceive_IT(I2S_HandleTypeDef *hi2s, uint16_t *pTxData, uint16_t
 470:./Libraries/STM32F4xx_HAL_Driver/Src/stm32f4xx_hal_i2s_ex.c ****                                                uint16_t Size)
 471:./Libraries/STM32F4xx_HAL_Driver/Src/stm32f4xx_hal_i2s_ex.c **** {
 472:./Libraries/STM32F4xx_HAL_Driver/Src/stm32f4xx_hal_i2s_ex.c ****   uint32_t tmp1 = 0U;
 473:./Libraries/STM32F4xx_HAL_Driver/Src/stm32f4xx_hal_i2s_ex.c **** 
 474:./Libraries/STM32F4xx_HAL_Driver/Src/stm32f4xx_hal_i2s_ex.c ****   if(hi2s->State == HAL_I2S_STATE_READY)
 475:./Libraries/STM32F4xx_HAL_Driver/Src/stm32f4xx_hal_i2s_ex.c ****   {
 476:./Libraries/STM32F4xx_HAL_Driver/Src/stm32f4xx_hal_i2s_ex.c ****     if((pTxData == NULL ) || (pRxData == NULL ) || (Size == 0U))
 477:./Libraries/STM32F4xx_HAL_Driver/Src/stm32f4xx_hal_i2s_ex.c ****     {
 478:./Libraries/STM32F4xx_HAL_Driver/Src/stm32f4xx_hal_i2s_ex.c ****       return  HAL_ERROR;
 479:./Libraries/STM32F4xx_HAL_Driver/Src/stm32f4xx_hal_i2s_ex.c ****     }
 480:./Libraries/STM32F4xx_HAL_Driver/Src/stm32f4xx_hal_i2s_ex.c **** 
 481:./Libraries/STM32F4xx_HAL_Driver/Src/stm32f4xx_hal_i2s_ex.c ****     hi2s->pTxBuffPtr = pTxData;
 482:./Libraries/STM32F4xx_HAL_Driver/Src/stm32f4xx_hal_i2s_ex.c ****     hi2s->pRxBuffPtr = pRxData;
 483:./Libraries/STM32F4xx_HAL_Driver/Src/stm32f4xx_hal_i2s_ex.c **** 
 484:./Libraries/STM32F4xx_HAL_Driver/Src/stm32f4xx_hal_i2s_ex.c ****     tmp1 = hi2s->Instance->I2SCFGR & (SPI_I2SCFGR_DATLEN | SPI_I2SCFGR_CHLEN);
 485:./Libraries/STM32F4xx_HAL_Driver/Src/stm32f4xx_hal_i2s_ex.c ****     /* Check the Data format: When a 16-bit data frame or a 16-bit data frame extended
 486:./Libraries/STM32F4xx_HAL_Driver/Src/stm32f4xx_hal_i2s_ex.c ****     is selected during the I2S configuration phase, the Size parameter means the number
ARM GAS  /tmp/ccfbD6Jk.s 			page 10


 487:./Libraries/STM32F4xx_HAL_Driver/Src/stm32f4xx_hal_i2s_ex.c ****     of 16-bit data length in the transaction and when a 24-bit data frame or a 32-bit data
 488:./Libraries/STM32F4xx_HAL_Driver/Src/stm32f4xx_hal_i2s_ex.c ****     frame is selected the Size parameter means the number of 16-bit data length. */
 489:./Libraries/STM32F4xx_HAL_Driver/Src/stm32f4xx_hal_i2s_ex.c ****     if((tmp1 == I2S_DATAFORMAT_24B) || (tmp1 == I2S_DATAFORMAT_32B))
 490:./Libraries/STM32F4xx_HAL_Driver/Src/stm32f4xx_hal_i2s_ex.c ****     {
 491:./Libraries/STM32F4xx_HAL_Driver/Src/stm32f4xx_hal_i2s_ex.c ****       hi2s->TxXferSize  = (Size << 1U);
 492:./Libraries/STM32F4xx_HAL_Driver/Src/stm32f4xx_hal_i2s_ex.c ****       hi2s->TxXferCount = (Size << 1U);
 493:./Libraries/STM32F4xx_HAL_Driver/Src/stm32f4xx_hal_i2s_ex.c ****       hi2s->RxXferSize  = (Size << 1U);
 494:./Libraries/STM32F4xx_HAL_Driver/Src/stm32f4xx_hal_i2s_ex.c ****       hi2s->RxXferCount = (Size << 1U);
 495:./Libraries/STM32F4xx_HAL_Driver/Src/stm32f4xx_hal_i2s_ex.c ****     }
 496:./Libraries/STM32F4xx_HAL_Driver/Src/stm32f4xx_hal_i2s_ex.c ****     else
 497:./Libraries/STM32F4xx_HAL_Driver/Src/stm32f4xx_hal_i2s_ex.c ****     {
 498:./Libraries/STM32F4xx_HAL_Driver/Src/stm32f4xx_hal_i2s_ex.c ****       hi2s->TxXferSize  = Size;
 499:./Libraries/STM32F4xx_HAL_Driver/Src/stm32f4xx_hal_i2s_ex.c ****       hi2s->TxXferCount = Size;
 500:./Libraries/STM32F4xx_HAL_Driver/Src/stm32f4xx_hal_i2s_ex.c ****       hi2s->RxXferSize  = Size;
 501:./Libraries/STM32F4xx_HAL_Driver/Src/stm32f4xx_hal_i2s_ex.c ****       hi2s->RxXferCount = Size;
 502:./Libraries/STM32F4xx_HAL_Driver/Src/stm32f4xx_hal_i2s_ex.c ****     }
 503:./Libraries/STM32F4xx_HAL_Driver/Src/stm32f4xx_hal_i2s_ex.c **** 
 504:./Libraries/STM32F4xx_HAL_Driver/Src/stm32f4xx_hal_i2s_ex.c ****     /* Process Locked */
 505:./Libraries/STM32F4xx_HAL_Driver/Src/stm32f4xx_hal_i2s_ex.c ****     __HAL_LOCK(hi2s);
 506:./Libraries/STM32F4xx_HAL_Driver/Src/stm32f4xx_hal_i2s_ex.c **** 
 507:./Libraries/STM32F4xx_HAL_Driver/Src/stm32f4xx_hal_i2s_ex.c ****     hi2s->ErrorCode = HAL_I2S_ERROR_NONE;
 508:./Libraries/STM32F4xx_HAL_Driver/Src/stm32f4xx_hal_i2s_ex.c ****     hi2s->State     = HAL_I2S_STATE_BUSY_TX_RX;
 509:./Libraries/STM32F4xx_HAL_Driver/Src/stm32f4xx_hal_i2s_ex.c **** 
 510:./Libraries/STM32F4xx_HAL_Driver/Src/stm32f4xx_hal_i2s_ex.c ****     tmp1 = hi2s->Instance->I2SCFGR & SPI_I2SCFGR_I2SCFG;
 511:./Libraries/STM32F4xx_HAL_Driver/Src/stm32f4xx_hal_i2s_ex.c ****     /* Check if the I2S_MODE_MASTER_TX or I2S_MODE_SLAVE_TX Mode is selected */
 512:./Libraries/STM32F4xx_HAL_Driver/Src/stm32f4xx_hal_i2s_ex.c ****     if((tmp1 == I2S_MODE_MASTER_TX) || (tmp1 == I2S_MODE_SLAVE_TX))
 513:./Libraries/STM32F4xx_HAL_Driver/Src/stm32f4xx_hal_i2s_ex.c ****     {
 514:./Libraries/STM32F4xx_HAL_Driver/Src/stm32f4xx_hal_i2s_ex.c ****       /* Enable I2Sext RXNE and ERR interrupts */
 515:./Libraries/STM32F4xx_HAL_Driver/Src/stm32f4xx_hal_i2s_ex.c ****       __HAL_I2SEXT_ENABLE_IT(hi2s, (I2S_IT_RXNE | I2S_IT_ERR));
 516:./Libraries/STM32F4xx_HAL_Driver/Src/stm32f4xx_hal_i2s_ex.c **** 
 517:./Libraries/STM32F4xx_HAL_Driver/Src/stm32f4xx_hal_i2s_ex.c ****       /* Enable I2Sx TXE and ERR interrupts */
 518:./Libraries/STM32F4xx_HAL_Driver/Src/stm32f4xx_hal_i2s_ex.c ****       __HAL_I2S_ENABLE_IT(hi2s, (I2S_IT_TXE | I2S_IT_ERR));
 519:./Libraries/STM32F4xx_HAL_Driver/Src/stm32f4xx_hal_i2s_ex.c **** 
 520:./Libraries/STM32F4xx_HAL_Driver/Src/stm32f4xx_hal_i2s_ex.c ****       /* Check if the I2S is already enabled */
 521:./Libraries/STM32F4xx_HAL_Driver/Src/stm32f4xx_hal_i2s_ex.c ****       if((hi2s->Instance->I2SCFGR &SPI_I2SCFGR_I2SE) != SPI_I2SCFGR_I2SE)
 522:./Libraries/STM32F4xx_HAL_Driver/Src/stm32f4xx_hal_i2s_ex.c ****       {
 523:./Libraries/STM32F4xx_HAL_Driver/Src/stm32f4xx_hal_i2s_ex.c ****         if((hi2s->Instance->I2SCFGR & SPI_I2SCFGR_I2SCFG) == I2S_MODE_SLAVE_TX)
 524:./Libraries/STM32F4xx_HAL_Driver/Src/stm32f4xx_hal_i2s_ex.c ****         {
 525:./Libraries/STM32F4xx_HAL_Driver/Src/stm32f4xx_hal_i2s_ex.c ****           /* Prepare the First Data before enabling the I2S */
 526:./Libraries/STM32F4xx_HAL_Driver/Src/stm32f4xx_hal_i2s_ex.c ****           if(hi2s->TxXferCount != 0U)
 527:./Libraries/STM32F4xx_HAL_Driver/Src/stm32f4xx_hal_i2s_ex.c ****           {
 528:./Libraries/STM32F4xx_HAL_Driver/Src/stm32f4xx_hal_i2s_ex.c ****             /* Transmit First data */
 529:./Libraries/STM32F4xx_HAL_Driver/Src/stm32f4xx_hal_i2s_ex.c ****             hi2s->Instance->DR = (*hi2s->pTxBuffPtr++);
 530:./Libraries/STM32F4xx_HAL_Driver/Src/stm32f4xx_hal_i2s_ex.c ****             hi2s->TxXferCount--;
 531:./Libraries/STM32F4xx_HAL_Driver/Src/stm32f4xx_hal_i2s_ex.c **** 
 532:./Libraries/STM32F4xx_HAL_Driver/Src/stm32f4xx_hal_i2s_ex.c ****             if(hi2s->TxXferCount == 0U)
 533:./Libraries/STM32F4xx_HAL_Driver/Src/stm32f4xx_hal_i2s_ex.c ****             {
 534:./Libraries/STM32F4xx_HAL_Driver/Src/stm32f4xx_hal_i2s_ex.c ****               /* Disable TXE and ERR interrupt */
 535:./Libraries/STM32F4xx_HAL_Driver/Src/stm32f4xx_hal_i2s_ex.c ****               __HAL_I2S_DISABLE_IT(hi2s, (I2S_IT_TXE | I2S_IT_ERR));
 536:./Libraries/STM32F4xx_HAL_Driver/Src/stm32f4xx_hal_i2s_ex.c **** 
 537:./Libraries/STM32F4xx_HAL_Driver/Src/stm32f4xx_hal_i2s_ex.c ****               if(hi2s->RxXferCount == 0U)
 538:./Libraries/STM32F4xx_HAL_Driver/Src/stm32f4xx_hal_i2s_ex.c ****               {
 539:./Libraries/STM32F4xx_HAL_Driver/Src/stm32f4xx_hal_i2s_ex.c ****                 /* Disable I2Sext RXNE and ERR interrupt */
 540:./Libraries/STM32F4xx_HAL_Driver/Src/stm32f4xx_hal_i2s_ex.c ****                 __HAL_I2SEXT_DISABLE_IT(hi2s, (I2S_IT_RXNE| I2S_IT_ERR));
 541:./Libraries/STM32F4xx_HAL_Driver/Src/stm32f4xx_hal_i2s_ex.c **** 
 542:./Libraries/STM32F4xx_HAL_Driver/Src/stm32f4xx_hal_i2s_ex.c ****                 hi2s->State = HAL_I2S_STATE_READY;
 543:./Libraries/STM32F4xx_HAL_Driver/Src/stm32f4xx_hal_i2s_ex.c ****                 HAL_I2SEx_TxRxCpltCallback(hi2s);
ARM GAS  /tmp/ccfbD6Jk.s 			page 11


 544:./Libraries/STM32F4xx_HAL_Driver/Src/stm32f4xx_hal_i2s_ex.c ****               }
 545:./Libraries/STM32F4xx_HAL_Driver/Src/stm32f4xx_hal_i2s_ex.c ****             }
 546:./Libraries/STM32F4xx_HAL_Driver/Src/stm32f4xx_hal_i2s_ex.c ****           }
 547:./Libraries/STM32F4xx_HAL_Driver/Src/stm32f4xx_hal_i2s_ex.c ****         }
 548:./Libraries/STM32F4xx_HAL_Driver/Src/stm32f4xx_hal_i2s_ex.c ****         /* Enable I2Sext(receiver) before enabling I2Sx peripheral */
 549:./Libraries/STM32F4xx_HAL_Driver/Src/stm32f4xx_hal_i2s_ex.c ****         __HAL_I2SEXT_ENABLE(hi2s);
 550:./Libraries/STM32F4xx_HAL_Driver/Src/stm32f4xx_hal_i2s_ex.c **** 
 551:./Libraries/STM32F4xx_HAL_Driver/Src/stm32f4xx_hal_i2s_ex.c ****         /* Enable I2Sx peripheral */
 552:./Libraries/STM32F4xx_HAL_Driver/Src/stm32f4xx_hal_i2s_ex.c ****         __HAL_I2S_ENABLE(hi2s);
 553:./Libraries/STM32F4xx_HAL_Driver/Src/stm32f4xx_hal_i2s_ex.c ****       }
 554:./Libraries/STM32F4xx_HAL_Driver/Src/stm32f4xx_hal_i2s_ex.c ****     }
 555:./Libraries/STM32F4xx_HAL_Driver/Src/stm32f4xx_hal_i2s_ex.c ****     /* The I2S_MODE_MASTER_RX or I2S_MODE_SLAVE_RX Mode is selected */
 556:./Libraries/STM32F4xx_HAL_Driver/Src/stm32f4xx_hal_i2s_ex.c ****     else
 557:./Libraries/STM32F4xx_HAL_Driver/Src/stm32f4xx_hal_i2s_ex.c ****     {
 558:./Libraries/STM32F4xx_HAL_Driver/Src/stm32f4xx_hal_i2s_ex.c ****       /* Enable I2Sext TXE and ERR interrupts */
 559:./Libraries/STM32F4xx_HAL_Driver/Src/stm32f4xx_hal_i2s_ex.c ****       __HAL_I2SEXT_ENABLE_IT(hi2s, (I2S_IT_TXE | I2S_IT_ERR));
 560:./Libraries/STM32F4xx_HAL_Driver/Src/stm32f4xx_hal_i2s_ex.c **** 
 561:./Libraries/STM32F4xx_HAL_Driver/Src/stm32f4xx_hal_i2s_ex.c ****       /* Enable I2Sext RXNE and ERR interrupts */
 562:./Libraries/STM32F4xx_HAL_Driver/Src/stm32f4xx_hal_i2s_ex.c ****       __HAL_I2S_ENABLE_IT(hi2s, (I2S_IT_RXNE | I2S_IT_ERR));
 563:./Libraries/STM32F4xx_HAL_Driver/Src/stm32f4xx_hal_i2s_ex.c **** 
 564:./Libraries/STM32F4xx_HAL_Driver/Src/stm32f4xx_hal_i2s_ex.c ****       /* Check if the I2S is already enabled */
 565:./Libraries/STM32F4xx_HAL_Driver/Src/stm32f4xx_hal_i2s_ex.c ****       if((hi2s->Instance->I2SCFGR &SPI_I2SCFGR_I2SE) != SPI_I2SCFGR_I2SE)
 566:./Libraries/STM32F4xx_HAL_Driver/Src/stm32f4xx_hal_i2s_ex.c ****       {
 567:./Libraries/STM32F4xx_HAL_Driver/Src/stm32f4xx_hal_i2s_ex.c ****         /* Check if the I2S_MODE_MASTER_RX is selected */
 568:./Libraries/STM32F4xx_HAL_Driver/Src/stm32f4xx_hal_i2s_ex.c ****         if((hi2s->Instance->I2SCFGR & SPI_I2SCFGR_I2SCFG) == I2S_MODE_MASTER_RX)
 569:./Libraries/STM32F4xx_HAL_Driver/Src/stm32f4xx_hal_i2s_ex.c ****         {
 570:./Libraries/STM32F4xx_HAL_Driver/Src/stm32f4xx_hal_i2s_ex.c ****           /* Prepare the First Data before enabling the I2S */
 571:./Libraries/STM32F4xx_HAL_Driver/Src/stm32f4xx_hal_i2s_ex.c ****           if(hi2s->TxXferCount != 0U)
 572:./Libraries/STM32F4xx_HAL_Driver/Src/stm32f4xx_hal_i2s_ex.c ****           {
 573:./Libraries/STM32F4xx_HAL_Driver/Src/stm32f4xx_hal_i2s_ex.c ****             /* Transmit First data */
 574:./Libraries/STM32F4xx_HAL_Driver/Src/stm32f4xx_hal_i2s_ex.c ****             I2SxEXT(hi2s->Instance)->DR = (*hi2s->pTxBuffPtr++);
 575:./Libraries/STM32F4xx_HAL_Driver/Src/stm32f4xx_hal_i2s_ex.c ****             hi2s->TxXferCount--;
 576:./Libraries/STM32F4xx_HAL_Driver/Src/stm32f4xx_hal_i2s_ex.c **** 
 577:./Libraries/STM32F4xx_HAL_Driver/Src/stm32f4xx_hal_i2s_ex.c ****             if(hi2s->TxXferCount == 0U)
 578:./Libraries/STM32F4xx_HAL_Driver/Src/stm32f4xx_hal_i2s_ex.c ****             {
 579:./Libraries/STM32F4xx_HAL_Driver/Src/stm32f4xx_hal_i2s_ex.c ****               /* Disable I2Sext TXE and ERR interrupt */
 580:./Libraries/STM32F4xx_HAL_Driver/Src/stm32f4xx_hal_i2s_ex.c ****               __HAL_I2SEXT_DISABLE_IT(hi2s, (I2S_IT_TXE | I2S_IT_ERR));
 581:./Libraries/STM32F4xx_HAL_Driver/Src/stm32f4xx_hal_i2s_ex.c ****               if(hi2s->RxXferCount == 0U)
 582:./Libraries/STM32F4xx_HAL_Driver/Src/stm32f4xx_hal_i2s_ex.c ****               {
 583:./Libraries/STM32F4xx_HAL_Driver/Src/stm32f4xx_hal_i2s_ex.c ****                 /* Disable RXNE and ERR interrupt */
 584:./Libraries/STM32F4xx_HAL_Driver/Src/stm32f4xx_hal_i2s_ex.c ****                 __HAL_I2S_DISABLE_IT(hi2s, (I2S_IT_RXNE| I2S_IT_ERR));
 585:./Libraries/STM32F4xx_HAL_Driver/Src/stm32f4xx_hal_i2s_ex.c **** 
 586:./Libraries/STM32F4xx_HAL_Driver/Src/stm32f4xx_hal_i2s_ex.c ****                 hi2s->State = HAL_I2S_STATE_READY;
 587:./Libraries/STM32F4xx_HAL_Driver/Src/stm32f4xx_hal_i2s_ex.c ****                 HAL_I2SEx_TxRxCpltCallback(hi2s);
 588:./Libraries/STM32F4xx_HAL_Driver/Src/stm32f4xx_hal_i2s_ex.c ****               }
 589:./Libraries/STM32F4xx_HAL_Driver/Src/stm32f4xx_hal_i2s_ex.c ****             }
 590:./Libraries/STM32F4xx_HAL_Driver/Src/stm32f4xx_hal_i2s_ex.c ****           }
 591:./Libraries/STM32F4xx_HAL_Driver/Src/stm32f4xx_hal_i2s_ex.c ****         }
 592:./Libraries/STM32F4xx_HAL_Driver/Src/stm32f4xx_hal_i2s_ex.c ****         /* Enable I2Sext(transmitter) after enabling I2Sx peripheral */
 593:./Libraries/STM32F4xx_HAL_Driver/Src/stm32f4xx_hal_i2s_ex.c ****         __HAL_I2SEXT_ENABLE(hi2s);
 594:./Libraries/STM32F4xx_HAL_Driver/Src/stm32f4xx_hal_i2s_ex.c **** 
 595:./Libraries/STM32F4xx_HAL_Driver/Src/stm32f4xx_hal_i2s_ex.c ****         /* Enable I2S peripheral */
 596:./Libraries/STM32F4xx_HAL_Driver/Src/stm32f4xx_hal_i2s_ex.c ****         __HAL_I2S_ENABLE(hi2s);
 597:./Libraries/STM32F4xx_HAL_Driver/Src/stm32f4xx_hal_i2s_ex.c ****       }
 598:./Libraries/STM32F4xx_HAL_Driver/Src/stm32f4xx_hal_i2s_ex.c ****     }
 599:./Libraries/STM32F4xx_HAL_Driver/Src/stm32f4xx_hal_i2s_ex.c ****     /* Process Unlocked */
 600:./Libraries/STM32F4xx_HAL_Driver/Src/stm32f4xx_hal_i2s_ex.c ****     __HAL_UNLOCK(hi2s);
ARM GAS  /tmp/ccfbD6Jk.s 			page 12


 601:./Libraries/STM32F4xx_HAL_Driver/Src/stm32f4xx_hal_i2s_ex.c **** 
 602:./Libraries/STM32F4xx_HAL_Driver/Src/stm32f4xx_hal_i2s_ex.c ****     return HAL_OK;
 603:./Libraries/STM32F4xx_HAL_Driver/Src/stm32f4xx_hal_i2s_ex.c ****   }
 604:./Libraries/STM32F4xx_HAL_Driver/Src/stm32f4xx_hal_i2s_ex.c ****   else
 605:./Libraries/STM32F4xx_HAL_Driver/Src/stm32f4xx_hal_i2s_ex.c ****   {
 606:./Libraries/STM32F4xx_HAL_Driver/Src/stm32f4xx_hal_i2s_ex.c ****     return HAL_BUSY;
 607:./Libraries/STM32F4xx_HAL_Driver/Src/stm32f4xx_hal_i2s_ex.c ****   }
 608:./Libraries/STM32F4xx_HAL_Driver/Src/stm32f4xx_hal_i2s_ex.c **** }
 609:./Libraries/STM32F4xx_HAL_Driver/Src/stm32f4xx_hal_i2s_ex.c **** 
 610:./Libraries/STM32F4xx_HAL_Driver/Src/stm32f4xx_hal_i2s_ex.c **** /**
 611:./Libraries/STM32F4xx_HAL_Driver/Src/stm32f4xx_hal_i2s_ex.c ****   * @brief Full-Duplex Transmit/Receive data in non-blocking mode using DMA
 612:./Libraries/STM32F4xx_HAL_Driver/Src/stm32f4xx_hal_i2s_ex.c ****   * @param  hi2s pointer to a I2S_HandleTypeDef structure that contains
 613:./Libraries/STM32F4xx_HAL_Driver/Src/stm32f4xx_hal_i2s_ex.c ****   *         the configuration information for I2S module
 614:./Libraries/STM32F4xx_HAL_Driver/Src/stm32f4xx_hal_i2s_ex.c ****   * @param pTxData a 16-bit pointer to the Transmit data buffer.
 615:./Libraries/STM32F4xx_HAL_Driver/Src/stm32f4xx_hal_i2s_ex.c ****   * @param pRxData a 16-bit pointer to the Receive data buffer.
 616:./Libraries/STM32F4xx_HAL_Driver/Src/stm32f4xx_hal_i2s_ex.c ****   * @param Size number of data sample to be sent:
 617:./Libraries/STM32F4xx_HAL_Driver/Src/stm32f4xx_hal_i2s_ex.c ****   * @note When a 16-bit data frame or a 16-bit data frame extended is selected during the I2S
 618:./Libraries/STM32F4xx_HAL_Driver/Src/stm32f4xx_hal_i2s_ex.c ****   *       configuration phase, the Size parameter means the number of 16-bit data length
 619:./Libraries/STM32F4xx_HAL_Driver/Src/stm32f4xx_hal_i2s_ex.c ****   *       in the transaction and when a 24-bit data frame or a 32-bit data frame is selected
 620:./Libraries/STM32F4xx_HAL_Driver/Src/stm32f4xx_hal_i2s_ex.c ****   *       the Size parameter means the number of 16-bit data length.
 621:./Libraries/STM32F4xx_HAL_Driver/Src/stm32f4xx_hal_i2s_ex.c ****   * @note The I2S is kept enabled at the end of transaction to avoid the clock de-synchronization
 622:./Libraries/STM32F4xx_HAL_Driver/Src/stm32f4xx_hal_i2s_ex.c ****   *       between Master and Slave(example: audio streaming).
 623:./Libraries/STM32F4xx_HAL_Driver/Src/stm32f4xx_hal_i2s_ex.c ****   * @retval HAL status
 624:./Libraries/STM32F4xx_HAL_Driver/Src/stm32f4xx_hal_i2s_ex.c ****   */
 625:./Libraries/STM32F4xx_HAL_Driver/Src/stm32f4xx_hal_i2s_ex.c **** HAL_StatusTypeDef HAL_I2SEx_TransmitReceive_DMA(I2S_HandleTypeDef *hi2s, uint16_t *pTxData, uint16_
 626:./Libraries/STM32F4xx_HAL_Driver/Src/stm32f4xx_hal_i2s_ex.c ****                                                 uint16_t Size)
 627:./Libraries/STM32F4xx_HAL_Driver/Src/stm32f4xx_hal_i2s_ex.c **** {
 628:./Libraries/STM32F4xx_HAL_Driver/Src/stm32f4xx_hal_i2s_ex.c ****   uint32_t *tmp = NULL;
 629:./Libraries/STM32F4xx_HAL_Driver/Src/stm32f4xx_hal_i2s_ex.c ****   uint32_t tmp1 = 0U;
 630:./Libraries/STM32F4xx_HAL_Driver/Src/stm32f4xx_hal_i2s_ex.c **** 
 631:./Libraries/STM32F4xx_HAL_Driver/Src/stm32f4xx_hal_i2s_ex.c ****   if((pTxData == NULL ) || (pRxData == NULL ) || (Size == 0U))
 632:./Libraries/STM32F4xx_HAL_Driver/Src/stm32f4xx_hal_i2s_ex.c ****   {
 633:./Libraries/STM32F4xx_HAL_Driver/Src/stm32f4xx_hal_i2s_ex.c ****     return  HAL_ERROR;
 634:./Libraries/STM32F4xx_HAL_Driver/Src/stm32f4xx_hal_i2s_ex.c ****   }
 635:./Libraries/STM32F4xx_HAL_Driver/Src/stm32f4xx_hal_i2s_ex.c **** 
 636:./Libraries/STM32F4xx_HAL_Driver/Src/stm32f4xx_hal_i2s_ex.c ****   if(hi2s->State == HAL_I2S_STATE_READY)
 637:./Libraries/STM32F4xx_HAL_Driver/Src/stm32f4xx_hal_i2s_ex.c ****   {
 638:./Libraries/STM32F4xx_HAL_Driver/Src/stm32f4xx_hal_i2s_ex.c ****     hi2s->pTxBuffPtr = pTxData;
 639:./Libraries/STM32F4xx_HAL_Driver/Src/stm32f4xx_hal_i2s_ex.c ****     hi2s->pRxBuffPtr = pRxData;
 640:./Libraries/STM32F4xx_HAL_Driver/Src/stm32f4xx_hal_i2s_ex.c **** 
 641:./Libraries/STM32F4xx_HAL_Driver/Src/stm32f4xx_hal_i2s_ex.c ****     tmp1 = hi2s->Instance->I2SCFGR & (SPI_I2SCFGR_DATLEN | SPI_I2SCFGR_CHLEN);
 642:./Libraries/STM32F4xx_HAL_Driver/Src/stm32f4xx_hal_i2s_ex.c ****     /* Check the Data format: When a 16-bit data frame or a 16-bit data frame extended
 643:./Libraries/STM32F4xx_HAL_Driver/Src/stm32f4xx_hal_i2s_ex.c ****     is selected during the I2S configuration phase, the Size parameter means the number
 644:./Libraries/STM32F4xx_HAL_Driver/Src/stm32f4xx_hal_i2s_ex.c ****     of 16-bit data length in the transaction and when a 24-bit data frame or a 32-bit data
 645:./Libraries/STM32F4xx_HAL_Driver/Src/stm32f4xx_hal_i2s_ex.c ****     frame is selected the Size parameter means the number of 16-bit data length. */
 646:./Libraries/STM32F4xx_HAL_Driver/Src/stm32f4xx_hal_i2s_ex.c ****     if((tmp1 == I2S_DATAFORMAT_24B) || (tmp1 == I2S_DATAFORMAT_32B))
 647:./Libraries/STM32F4xx_HAL_Driver/Src/stm32f4xx_hal_i2s_ex.c ****     {
 648:./Libraries/STM32F4xx_HAL_Driver/Src/stm32f4xx_hal_i2s_ex.c ****       hi2s->TxXferSize  = (Size << 1U);
 649:./Libraries/STM32F4xx_HAL_Driver/Src/stm32f4xx_hal_i2s_ex.c ****       hi2s->TxXferCount = (Size << 1U);
 650:./Libraries/STM32F4xx_HAL_Driver/Src/stm32f4xx_hal_i2s_ex.c ****       hi2s->RxXferSize  = (Size << 1U);
 651:./Libraries/STM32F4xx_HAL_Driver/Src/stm32f4xx_hal_i2s_ex.c ****       hi2s->RxXferCount = (Size << 1U);
 652:./Libraries/STM32F4xx_HAL_Driver/Src/stm32f4xx_hal_i2s_ex.c ****     }
 653:./Libraries/STM32F4xx_HAL_Driver/Src/stm32f4xx_hal_i2s_ex.c ****     else
 654:./Libraries/STM32F4xx_HAL_Driver/Src/stm32f4xx_hal_i2s_ex.c ****     {
 655:./Libraries/STM32F4xx_HAL_Driver/Src/stm32f4xx_hal_i2s_ex.c ****       hi2s->TxXferSize  = Size;
 656:./Libraries/STM32F4xx_HAL_Driver/Src/stm32f4xx_hal_i2s_ex.c ****       hi2s->TxXferCount = Size;
 657:./Libraries/STM32F4xx_HAL_Driver/Src/stm32f4xx_hal_i2s_ex.c ****       hi2s->RxXferSize  = Size;
ARM GAS  /tmp/ccfbD6Jk.s 			page 13


 658:./Libraries/STM32F4xx_HAL_Driver/Src/stm32f4xx_hal_i2s_ex.c ****       hi2s->RxXferCount = Size;
 659:./Libraries/STM32F4xx_HAL_Driver/Src/stm32f4xx_hal_i2s_ex.c ****     }
 660:./Libraries/STM32F4xx_HAL_Driver/Src/stm32f4xx_hal_i2s_ex.c **** 
 661:./Libraries/STM32F4xx_HAL_Driver/Src/stm32f4xx_hal_i2s_ex.c ****     /* Process Locked */
 662:./Libraries/STM32F4xx_HAL_Driver/Src/stm32f4xx_hal_i2s_ex.c ****     __HAL_LOCK(hi2s);
 663:./Libraries/STM32F4xx_HAL_Driver/Src/stm32f4xx_hal_i2s_ex.c **** 
 664:./Libraries/STM32F4xx_HAL_Driver/Src/stm32f4xx_hal_i2s_ex.c ****     hi2s->ErrorCode = HAL_I2S_ERROR_NONE;
 665:./Libraries/STM32F4xx_HAL_Driver/Src/stm32f4xx_hal_i2s_ex.c ****     hi2s->State     = HAL_I2S_STATE_BUSY_TX_RX;
 666:./Libraries/STM32F4xx_HAL_Driver/Src/stm32f4xx_hal_i2s_ex.c **** 
 667:./Libraries/STM32F4xx_HAL_Driver/Src/stm32f4xx_hal_i2s_ex.c ****     /* Set the I2S Rx DMA Half transfer complete callback */
 668:./Libraries/STM32F4xx_HAL_Driver/Src/stm32f4xx_hal_i2s_ex.c ****     hi2s->hdmarx->XferHalfCpltCallback = I2SEx_TxRxDMAHalfCplt;
 669:./Libraries/STM32F4xx_HAL_Driver/Src/stm32f4xx_hal_i2s_ex.c **** 
 670:./Libraries/STM32F4xx_HAL_Driver/Src/stm32f4xx_hal_i2s_ex.c ****     /* Set the I2S Rx DMA transfer complete callback */
 671:./Libraries/STM32F4xx_HAL_Driver/Src/stm32f4xx_hal_i2s_ex.c ****     hi2s->hdmarx->XferCpltCallback  = I2SEx_TxRxDMACplt;
 672:./Libraries/STM32F4xx_HAL_Driver/Src/stm32f4xx_hal_i2s_ex.c **** 
 673:./Libraries/STM32F4xx_HAL_Driver/Src/stm32f4xx_hal_i2s_ex.c ****     /* Set the I2S Rx DMA error callback */
 674:./Libraries/STM32F4xx_HAL_Driver/Src/stm32f4xx_hal_i2s_ex.c ****     hi2s->hdmarx->XferErrorCallback = I2SEx_TxRxDMAError;
 675:./Libraries/STM32F4xx_HAL_Driver/Src/stm32f4xx_hal_i2s_ex.c **** 
 676:./Libraries/STM32F4xx_HAL_Driver/Src/stm32f4xx_hal_i2s_ex.c ****     /* Set the I2S Tx DMA Half transfer complete callback */
 677:./Libraries/STM32F4xx_HAL_Driver/Src/stm32f4xx_hal_i2s_ex.c ****     hi2s->hdmatx->XferHalfCpltCallback  = I2SEx_TxRxDMAHalfCplt;
 678:./Libraries/STM32F4xx_HAL_Driver/Src/stm32f4xx_hal_i2s_ex.c **** 
 679:./Libraries/STM32F4xx_HAL_Driver/Src/stm32f4xx_hal_i2s_ex.c ****     /* Set the I2S Tx DMA transfer complete callback */
 680:./Libraries/STM32F4xx_HAL_Driver/Src/stm32f4xx_hal_i2s_ex.c ****     hi2s->hdmatx->XferCpltCallback  = I2SEx_TxRxDMACplt;
 681:./Libraries/STM32F4xx_HAL_Driver/Src/stm32f4xx_hal_i2s_ex.c **** 
 682:./Libraries/STM32F4xx_HAL_Driver/Src/stm32f4xx_hal_i2s_ex.c ****     /* Set the I2S Tx DMA error callback */
 683:./Libraries/STM32F4xx_HAL_Driver/Src/stm32f4xx_hal_i2s_ex.c ****     hi2s->hdmatx->XferErrorCallback = I2SEx_TxRxDMAError;
 684:./Libraries/STM32F4xx_HAL_Driver/Src/stm32f4xx_hal_i2s_ex.c **** 
 685:./Libraries/STM32F4xx_HAL_Driver/Src/stm32f4xx_hal_i2s_ex.c ****     tmp1 = hi2s->Instance->I2SCFGR & SPI_I2SCFGR_I2SCFG;
 686:./Libraries/STM32F4xx_HAL_Driver/Src/stm32f4xx_hal_i2s_ex.c ****     /* Check if the I2S_MODE_MASTER_TX or I2S_MODE_SLAVE_TX Mode is selected */
 687:./Libraries/STM32F4xx_HAL_Driver/Src/stm32f4xx_hal_i2s_ex.c ****     if((tmp1 == I2S_MODE_MASTER_TX) || (tmp1 == I2S_MODE_SLAVE_TX))
 688:./Libraries/STM32F4xx_HAL_Driver/Src/stm32f4xx_hal_i2s_ex.c ****     {
 689:./Libraries/STM32F4xx_HAL_Driver/Src/stm32f4xx_hal_i2s_ex.c ****       /* Enable the Rx DMA Stream */
 690:./Libraries/STM32F4xx_HAL_Driver/Src/stm32f4xx_hal_i2s_ex.c ****       tmp = (uint32_t*)&pRxData;
 691:./Libraries/STM32F4xx_HAL_Driver/Src/stm32f4xx_hal_i2s_ex.c ****       HAL_DMA_Start_IT(hi2s->hdmarx, (uint32_t)&I2SxEXT(hi2s->Instance)->DR, *(uint32_t*)tmp, hi2s-
 692:./Libraries/STM32F4xx_HAL_Driver/Src/stm32f4xx_hal_i2s_ex.c **** 
 693:./Libraries/STM32F4xx_HAL_Driver/Src/stm32f4xx_hal_i2s_ex.c ****       /* Enable Rx DMA Request */
 694:./Libraries/STM32F4xx_HAL_Driver/Src/stm32f4xx_hal_i2s_ex.c ****       SET_BIT(I2SxEXT(hi2s->Instance)->CR2,SPI_CR2_RXDMAEN);
 695:./Libraries/STM32F4xx_HAL_Driver/Src/stm32f4xx_hal_i2s_ex.c **** 
 696:./Libraries/STM32F4xx_HAL_Driver/Src/stm32f4xx_hal_i2s_ex.c ****       /* Enable the Tx DMA Stream */
 697:./Libraries/STM32F4xx_HAL_Driver/Src/stm32f4xx_hal_i2s_ex.c ****       tmp = (uint32_t*)&pTxData;
 698:./Libraries/STM32F4xx_HAL_Driver/Src/stm32f4xx_hal_i2s_ex.c ****       HAL_DMA_Start_IT(hi2s->hdmatx, *(uint32_t*)tmp, (uint32_t)&hi2s->Instance->DR, hi2s->TxXferSi
 699:./Libraries/STM32F4xx_HAL_Driver/Src/stm32f4xx_hal_i2s_ex.c **** 
 700:./Libraries/STM32F4xx_HAL_Driver/Src/stm32f4xx_hal_i2s_ex.c ****       /* Enable Tx DMA Request */
 701:./Libraries/STM32F4xx_HAL_Driver/Src/stm32f4xx_hal_i2s_ex.c ****       SET_BIT(hi2s->Instance->CR2,SPI_CR2_TXDMAEN);
 702:./Libraries/STM32F4xx_HAL_Driver/Src/stm32f4xx_hal_i2s_ex.c **** 
 703:./Libraries/STM32F4xx_HAL_Driver/Src/stm32f4xx_hal_i2s_ex.c ****       /* Check if the I2S is already enabled */
 704:./Libraries/STM32F4xx_HAL_Driver/Src/stm32f4xx_hal_i2s_ex.c ****       if((hi2s->Instance->I2SCFGR &SPI_I2SCFGR_I2SE) != SPI_I2SCFGR_I2SE)
 705:./Libraries/STM32F4xx_HAL_Driver/Src/stm32f4xx_hal_i2s_ex.c ****       {
 706:./Libraries/STM32F4xx_HAL_Driver/Src/stm32f4xx_hal_i2s_ex.c ****         /* Enable I2Sext(receiver) before enabling I2Sx peripheral */
 707:./Libraries/STM32F4xx_HAL_Driver/Src/stm32f4xx_hal_i2s_ex.c ****         __HAL_I2SEXT_ENABLE(hi2s);
 708:./Libraries/STM32F4xx_HAL_Driver/Src/stm32f4xx_hal_i2s_ex.c **** 
 709:./Libraries/STM32F4xx_HAL_Driver/Src/stm32f4xx_hal_i2s_ex.c ****         /* Enable I2S peripheral after the I2Sext */
 710:./Libraries/STM32F4xx_HAL_Driver/Src/stm32f4xx_hal_i2s_ex.c ****         __HAL_I2S_ENABLE(hi2s);
 711:./Libraries/STM32F4xx_HAL_Driver/Src/stm32f4xx_hal_i2s_ex.c ****       }
 712:./Libraries/STM32F4xx_HAL_Driver/Src/stm32f4xx_hal_i2s_ex.c ****     }
 713:./Libraries/STM32F4xx_HAL_Driver/Src/stm32f4xx_hal_i2s_ex.c ****     else
 714:./Libraries/STM32F4xx_HAL_Driver/Src/stm32f4xx_hal_i2s_ex.c ****     {
ARM GAS  /tmp/ccfbD6Jk.s 			page 14


 715:./Libraries/STM32F4xx_HAL_Driver/Src/stm32f4xx_hal_i2s_ex.c ****       /* Check if Master Receiver mode is selected */
 716:./Libraries/STM32F4xx_HAL_Driver/Src/stm32f4xx_hal_i2s_ex.c ****       if((hi2s->Instance->I2SCFGR & SPI_I2SCFGR_I2SCFG) == I2S_MODE_MASTER_RX)
 717:./Libraries/STM32F4xx_HAL_Driver/Src/stm32f4xx_hal_i2s_ex.c ****       {
 718:./Libraries/STM32F4xx_HAL_Driver/Src/stm32f4xx_hal_i2s_ex.c ****         /* Clear the Overrun Flag by a read operation on the SPI_DR register followed by a read
 719:./Libraries/STM32F4xx_HAL_Driver/Src/stm32f4xx_hal_i2s_ex.c ****         access to the SPI_SR register. */
 720:./Libraries/STM32F4xx_HAL_Driver/Src/stm32f4xx_hal_i2s_ex.c ****         __HAL_I2S_CLEAR_OVRFLAG(hi2s);
 721:./Libraries/STM32F4xx_HAL_Driver/Src/stm32f4xx_hal_i2s_ex.c ****       }
 722:./Libraries/STM32F4xx_HAL_Driver/Src/stm32f4xx_hal_i2s_ex.c ****       /* Enable the Tx DMA Stream */
 723:./Libraries/STM32F4xx_HAL_Driver/Src/stm32f4xx_hal_i2s_ex.c ****       tmp = (uint32_t*)&pTxData;
 724:./Libraries/STM32F4xx_HAL_Driver/Src/stm32f4xx_hal_i2s_ex.c ****       HAL_DMA_Start_IT(hi2s->hdmatx, *(uint32_t*)tmp, (uint32_t)&I2SxEXT(hi2s->Instance)->DR, hi2s-
 725:./Libraries/STM32F4xx_HAL_Driver/Src/stm32f4xx_hal_i2s_ex.c **** 
 726:./Libraries/STM32F4xx_HAL_Driver/Src/stm32f4xx_hal_i2s_ex.c ****       /* Enable Tx DMA Request */
 727:./Libraries/STM32F4xx_HAL_Driver/Src/stm32f4xx_hal_i2s_ex.c ****       SET_BIT(I2SxEXT(hi2s->Instance)->CR2,SPI_CR2_TXDMAEN);
 728:./Libraries/STM32F4xx_HAL_Driver/Src/stm32f4xx_hal_i2s_ex.c **** 
 729:./Libraries/STM32F4xx_HAL_Driver/Src/stm32f4xx_hal_i2s_ex.c ****       /* Enable the Rx DMA Stream */
 730:./Libraries/STM32F4xx_HAL_Driver/Src/stm32f4xx_hal_i2s_ex.c ****       tmp = (uint32_t*)&pRxData;
 731:./Libraries/STM32F4xx_HAL_Driver/Src/stm32f4xx_hal_i2s_ex.c ****       HAL_DMA_Start_IT(hi2s->hdmarx, (uint32_t)&hi2s->Instance->DR, *(uint32_t*)tmp, hi2s->RxXferSi
 732:./Libraries/STM32F4xx_HAL_Driver/Src/stm32f4xx_hal_i2s_ex.c **** 
 733:./Libraries/STM32F4xx_HAL_Driver/Src/stm32f4xx_hal_i2s_ex.c ****       /* Enable Rx DMA Request */
 734:./Libraries/STM32F4xx_HAL_Driver/Src/stm32f4xx_hal_i2s_ex.c ****       SET_BIT(hi2s->Instance->CR2,SPI_CR2_RXDMAEN);
 735:./Libraries/STM32F4xx_HAL_Driver/Src/stm32f4xx_hal_i2s_ex.c **** 
 736:./Libraries/STM32F4xx_HAL_Driver/Src/stm32f4xx_hal_i2s_ex.c ****       /* Check if the I2S is already enabled */
 737:./Libraries/STM32F4xx_HAL_Driver/Src/stm32f4xx_hal_i2s_ex.c ****       if((hi2s->Instance->I2SCFGR &SPI_I2SCFGR_I2SE) != SPI_I2SCFGR_I2SE)
 738:./Libraries/STM32F4xx_HAL_Driver/Src/stm32f4xx_hal_i2s_ex.c ****       {
 739:./Libraries/STM32F4xx_HAL_Driver/Src/stm32f4xx_hal_i2s_ex.c ****         /* Enable I2Sext(transmitter) before enabling I2Sx peripheral */
 740:./Libraries/STM32F4xx_HAL_Driver/Src/stm32f4xx_hal_i2s_ex.c ****         __HAL_I2SEXT_ENABLE(hi2s);
 741:./Libraries/STM32F4xx_HAL_Driver/Src/stm32f4xx_hal_i2s_ex.c ****         /* Enable I2S peripheral before the I2Sext */
 742:./Libraries/STM32F4xx_HAL_Driver/Src/stm32f4xx_hal_i2s_ex.c ****         __HAL_I2S_ENABLE(hi2s);
 743:./Libraries/STM32F4xx_HAL_Driver/Src/stm32f4xx_hal_i2s_ex.c ****       }
 744:./Libraries/STM32F4xx_HAL_Driver/Src/stm32f4xx_hal_i2s_ex.c ****     }
 745:./Libraries/STM32F4xx_HAL_Driver/Src/stm32f4xx_hal_i2s_ex.c **** 
 746:./Libraries/STM32F4xx_HAL_Driver/Src/stm32f4xx_hal_i2s_ex.c ****     /* Process Unlocked */
 747:./Libraries/STM32F4xx_HAL_Driver/Src/stm32f4xx_hal_i2s_ex.c ****     __HAL_UNLOCK(hi2s);
 748:./Libraries/STM32F4xx_HAL_Driver/Src/stm32f4xx_hal_i2s_ex.c **** 
 749:./Libraries/STM32F4xx_HAL_Driver/Src/stm32f4xx_hal_i2s_ex.c ****     return HAL_OK;
 750:./Libraries/STM32F4xx_HAL_Driver/Src/stm32f4xx_hal_i2s_ex.c ****   }
 751:./Libraries/STM32F4xx_HAL_Driver/Src/stm32f4xx_hal_i2s_ex.c ****   else
 752:./Libraries/STM32F4xx_HAL_Driver/Src/stm32f4xx_hal_i2s_ex.c ****   {
 753:./Libraries/STM32F4xx_HAL_Driver/Src/stm32f4xx_hal_i2s_ex.c ****     return HAL_BUSY;
 754:./Libraries/STM32F4xx_HAL_Driver/Src/stm32f4xx_hal_i2s_ex.c ****   }
 755:./Libraries/STM32F4xx_HAL_Driver/Src/stm32f4xx_hal_i2s_ex.c **** }
 756:./Libraries/STM32F4xx_HAL_Driver/Src/stm32f4xx_hal_i2s_ex.c **** 
 757:./Libraries/STM32F4xx_HAL_Driver/Src/stm32f4xx_hal_i2s_ex.c **** /**
 758:./Libraries/STM32F4xx_HAL_Driver/Src/stm32f4xx_hal_i2s_ex.c ****   * @brief  This function handles I2S/I2Sext interrupt requests in full-duplex mode.
 759:./Libraries/STM32F4xx_HAL_Driver/Src/stm32f4xx_hal_i2s_ex.c ****   * @param  hi2s I2S handle
 760:./Libraries/STM32F4xx_HAL_Driver/Src/stm32f4xx_hal_i2s_ex.c ****   * @retval HAL status
 761:./Libraries/STM32F4xx_HAL_Driver/Src/stm32f4xx_hal_i2s_ex.c ****   */
 762:./Libraries/STM32F4xx_HAL_Driver/Src/stm32f4xx_hal_i2s_ex.c **** void HAL_I2SEx_FullDuplex_IRQHandler(I2S_HandleTypeDef *hi2s)
 763:./Libraries/STM32F4xx_HAL_Driver/Src/stm32f4xx_hal_i2s_ex.c **** {
 764:./Libraries/STM32F4xx_HAL_Driver/Src/stm32f4xx_hal_i2s_ex.c ****   __IO uint32_t i2ssr    = hi2s->Instance->SR ;
 765:./Libraries/STM32F4xx_HAL_Driver/Src/stm32f4xx_hal_i2s_ex.c ****   __IO uint32_t i2sextsr = I2SxEXT(hi2s->Instance)->SR;
 766:./Libraries/STM32F4xx_HAL_Driver/Src/stm32f4xx_hal_i2s_ex.c **** 
 767:./Libraries/STM32F4xx_HAL_Driver/Src/stm32f4xx_hal_i2s_ex.c ****   /* Check if the I2S_MODE_MASTER_TX or I2S_MODE_SLAVE_TX Mode is selected */
 768:./Libraries/STM32F4xx_HAL_Driver/Src/stm32f4xx_hal_i2s_ex.c ****   if (((hi2s->Instance->I2SCFGR & SPI_I2SCFGR_I2SCFG) == I2S_MODE_MASTER_TX)
 769:./Libraries/STM32F4xx_HAL_Driver/Src/stm32f4xx_hal_i2s_ex.c ****       || ((hi2s->Instance->I2SCFGR & SPI_I2SCFGR_I2SCFG) == I2S_MODE_SLAVE_TX))
 770:./Libraries/STM32F4xx_HAL_Driver/Src/stm32f4xx_hal_i2s_ex.c ****   {
 771:./Libraries/STM32F4xx_HAL_Driver/Src/stm32f4xx_hal_i2s_ex.c ****     /* I2S in mode Transmitter -------------------------------------------------*/
ARM GAS  /tmp/ccfbD6Jk.s 			page 15


 772:./Libraries/STM32F4xx_HAL_Driver/Src/stm32f4xx_hal_i2s_ex.c ****     if(((i2ssr & I2S_FLAG_TXE) == I2S_FLAG_TXE) && (__HAL_I2S_GET_IT_SOURCE(hi2s, I2S_IT_TXE) != RE
 773:./Libraries/STM32F4xx_HAL_Driver/Src/stm32f4xx_hal_i2s_ex.c ****     {
 774:./Libraries/STM32F4xx_HAL_Driver/Src/stm32f4xx_hal_i2s_ex.c ****       /* When the I2S mode is configured as I2S_MODE_MASTER_TX or I2S_MODE_SLAVE_TX,
 775:./Libraries/STM32F4xx_HAL_Driver/Src/stm32f4xx_hal_i2s_ex.c ****       the I2S TXE interrupt will be generated to manage the full-duplex transmit phase. */
 776:./Libraries/STM32F4xx_HAL_Driver/Src/stm32f4xx_hal_i2s_ex.c ****       I2SEx_FullDuplexTx_IT(hi2s, I2S_USE_I2S);
 777:./Libraries/STM32F4xx_HAL_Driver/Src/stm32f4xx_hal_i2s_ex.c ****     }
 778:./Libraries/STM32F4xx_HAL_Driver/Src/stm32f4xx_hal_i2s_ex.c **** 
 779:./Libraries/STM32F4xx_HAL_Driver/Src/stm32f4xx_hal_i2s_ex.c ****     /* I2Sext in mode Receiver -----------------------------------------------*/
 780:./Libraries/STM32F4xx_HAL_Driver/Src/stm32f4xx_hal_i2s_ex.c ****     if(((i2sextsr & I2S_FLAG_RXNE) == I2S_FLAG_RXNE) && (__HAL_I2SEXT_GET_IT_SOURCE(hi2s, I2S_IT_RX
 781:./Libraries/STM32F4xx_HAL_Driver/Src/stm32f4xx_hal_i2s_ex.c ****     {
 782:./Libraries/STM32F4xx_HAL_Driver/Src/stm32f4xx_hal_i2s_ex.c ****       /* When the I2S mode is configured as I2S_MODE_MASTER_TX or I2S_MODE_SLAVE_TX,
 783:./Libraries/STM32F4xx_HAL_Driver/Src/stm32f4xx_hal_i2s_ex.c ****       the I2Sext RXNE interrupt will be generated to manage the full-duplex receive phase. */
 784:./Libraries/STM32F4xx_HAL_Driver/Src/stm32f4xx_hal_i2s_ex.c ****       I2SEx_FullDuplexRx_IT(hi2s, I2S_USE_I2SEXT);
 785:./Libraries/STM32F4xx_HAL_Driver/Src/stm32f4xx_hal_i2s_ex.c ****     }
 786:./Libraries/STM32F4xx_HAL_Driver/Src/stm32f4xx_hal_i2s_ex.c **** 
 787:./Libraries/STM32F4xx_HAL_Driver/Src/stm32f4xx_hal_i2s_ex.c ****     /* I2Sext Overrun error interrupt occured --------------------------------*/
 788:./Libraries/STM32F4xx_HAL_Driver/Src/stm32f4xx_hal_i2s_ex.c ****     if(((i2sextsr & I2S_FLAG_OVR) == I2S_FLAG_OVR) && (__HAL_I2SEXT_GET_IT_SOURCE(hi2s, I2S_IT_ERR)
 789:./Libraries/STM32F4xx_HAL_Driver/Src/stm32f4xx_hal_i2s_ex.c ****     {
 790:./Libraries/STM32F4xx_HAL_Driver/Src/stm32f4xx_hal_i2s_ex.c ****       /* Disable RXNE and ERR interrupt */
 791:./Libraries/STM32F4xx_HAL_Driver/Src/stm32f4xx_hal_i2s_ex.c ****       __HAL_I2SEXT_DISABLE_IT(hi2s, (I2S_IT_RXNE | I2S_IT_ERR));
 792:./Libraries/STM32F4xx_HAL_Driver/Src/stm32f4xx_hal_i2s_ex.c **** 
 793:./Libraries/STM32F4xx_HAL_Driver/Src/stm32f4xx_hal_i2s_ex.c ****       /* Disable TXE and ERR interrupt */
 794:./Libraries/STM32F4xx_HAL_Driver/Src/stm32f4xx_hal_i2s_ex.c ****       __HAL_I2S_DISABLE_IT(hi2s, (I2S_IT_TXE | I2S_IT_ERR));
 795:./Libraries/STM32F4xx_HAL_Driver/Src/stm32f4xx_hal_i2s_ex.c **** 
 796:./Libraries/STM32F4xx_HAL_Driver/Src/stm32f4xx_hal_i2s_ex.c ****       /* Clear Overrun flag */
 797:./Libraries/STM32F4xx_HAL_Driver/Src/stm32f4xx_hal_i2s_ex.c ****       __HAL_I2S_CLEAR_OVRFLAG(hi2s);
 798:./Libraries/STM32F4xx_HAL_Driver/Src/stm32f4xx_hal_i2s_ex.c **** 
 799:./Libraries/STM32F4xx_HAL_Driver/Src/stm32f4xx_hal_i2s_ex.c ****       /* Set the I2S State ready */
 800:./Libraries/STM32F4xx_HAL_Driver/Src/stm32f4xx_hal_i2s_ex.c ****       hi2s->State = HAL_I2S_STATE_READY;
 801:./Libraries/STM32F4xx_HAL_Driver/Src/stm32f4xx_hal_i2s_ex.c **** 
 802:./Libraries/STM32F4xx_HAL_Driver/Src/stm32f4xx_hal_i2s_ex.c ****       /* Set the error code and execute error callback*/
 803:./Libraries/STM32F4xx_HAL_Driver/Src/stm32f4xx_hal_i2s_ex.c ****       SET_BIT(hi2s->ErrorCode,HAL_I2S_ERROR_OVR);
 804:./Libraries/STM32F4xx_HAL_Driver/Src/stm32f4xx_hal_i2s_ex.c ****       HAL_I2S_ErrorCallback(hi2s);
 805:./Libraries/STM32F4xx_HAL_Driver/Src/stm32f4xx_hal_i2s_ex.c ****     }
 806:./Libraries/STM32F4xx_HAL_Driver/Src/stm32f4xx_hal_i2s_ex.c **** 
 807:./Libraries/STM32F4xx_HAL_Driver/Src/stm32f4xx_hal_i2s_ex.c ****     /* I2S Underrun error interrupt occured ----------------------------------*/
 808:./Libraries/STM32F4xx_HAL_Driver/Src/stm32f4xx_hal_i2s_ex.c ****     if(((i2ssr & I2S_FLAG_UDR) == I2S_FLAG_UDR) && (__HAL_I2S_GET_IT_SOURCE(hi2s, I2S_IT_ERR) != RE
 809:./Libraries/STM32F4xx_HAL_Driver/Src/stm32f4xx_hal_i2s_ex.c ****     {
 810:./Libraries/STM32F4xx_HAL_Driver/Src/stm32f4xx_hal_i2s_ex.c ****       /* Disable TXE and ERR interrupt */
 811:./Libraries/STM32F4xx_HAL_Driver/Src/stm32f4xx_hal_i2s_ex.c ****       __HAL_I2S_DISABLE_IT(hi2s, (I2S_IT_TXE | I2S_IT_ERR));
 812:./Libraries/STM32F4xx_HAL_Driver/Src/stm32f4xx_hal_i2s_ex.c **** 
 813:./Libraries/STM32F4xx_HAL_Driver/Src/stm32f4xx_hal_i2s_ex.c ****       /* Disable RXNE and ERR interrupt */
 814:./Libraries/STM32F4xx_HAL_Driver/Src/stm32f4xx_hal_i2s_ex.c ****       __HAL_I2SEXT_DISABLE_IT(hi2s, (I2S_IT_RXNE | I2S_IT_ERR));
 815:./Libraries/STM32F4xx_HAL_Driver/Src/stm32f4xx_hal_i2s_ex.c **** 
 816:./Libraries/STM32F4xx_HAL_Driver/Src/stm32f4xx_hal_i2s_ex.c ****       /* Clear underrun flag */
 817:./Libraries/STM32F4xx_HAL_Driver/Src/stm32f4xx_hal_i2s_ex.c ****       __HAL_I2S_CLEAR_UDRFLAG(hi2s);
 818:./Libraries/STM32F4xx_HAL_Driver/Src/stm32f4xx_hal_i2s_ex.c **** 
 819:./Libraries/STM32F4xx_HAL_Driver/Src/stm32f4xx_hal_i2s_ex.c ****       /* Set the I2S State ready */
 820:./Libraries/STM32F4xx_HAL_Driver/Src/stm32f4xx_hal_i2s_ex.c ****       hi2s->State = HAL_I2S_STATE_READY;
 821:./Libraries/STM32F4xx_HAL_Driver/Src/stm32f4xx_hal_i2s_ex.c **** 
 822:./Libraries/STM32F4xx_HAL_Driver/Src/stm32f4xx_hal_i2s_ex.c ****       /* Set the error code and execute error callback*/
 823:./Libraries/STM32F4xx_HAL_Driver/Src/stm32f4xx_hal_i2s_ex.c ****       SET_BIT(hi2s->ErrorCode,HAL_I2S_ERROR_UDR);
 824:./Libraries/STM32F4xx_HAL_Driver/Src/stm32f4xx_hal_i2s_ex.c ****       HAL_I2S_ErrorCallback(hi2s);
 825:./Libraries/STM32F4xx_HAL_Driver/Src/stm32f4xx_hal_i2s_ex.c ****     }
 826:./Libraries/STM32F4xx_HAL_Driver/Src/stm32f4xx_hal_i2s_ex.c ****   }
 827:./Libraries/STM32F4xx_HAL_Driver/Src/stm32f4xx_hal_i2s_ex.c ****   /* The I2S_MODE_MASTER_RX or I2S_MODE_SLAVE_RX Mode is selected */
 828:./Libraries/STM32F4xx_HAL_Driver/Src/stm32f4xx_hal_i2s_ex.c ****   else
ARM GAS  /tmp/ccfbD6Jk.s 			page 16


 829:./Libraries/STM32F4xx_HAL_Driver/Src/stm32f4xx_hal_i2s_ex.c ****   {
 830:./Libraries/STM32F4xx_HAL_Driver/Src/stm32f4xx_hal_i2s_ex.c ****     /* I2Sext in mode Transmitter ----------------------------------------------*/
 831:./Libraries/STM32F4xx_HAL_Driver/Src/stm32f4xx_hal_i2s_ex.c ****     if(((i2sextsr & I2S_FLAG_TXE) == I2S_FLAG_TXE) && (__HAL_I2SEXT_GET_IT_SOURCE(hi2s, I2S_IT_TXE)
 832:./Libraries/STM32F4xx_HAL_Driver/Src/stm32f4xx_hal_i2s_ex.c ****     {
 833:./Libraries/STM32F4xx_HAL_Driver/Src/stm32f4xx_hal_i2s_ex.c ****       /* When the I2S mode is configured as I2S_MODE_MASTER_RX or I2S_MODE_SLAVE_RX,
 834:./Libraries/STM32F4xx_HAL_Driver/Src/stm32f4xx_hal_i2s_ex.c ****       the I2Sext TXE interrupt will be generated to manage the full-duplex transmit phase. */
 835:./Libraries/STM32F4xx_HAL_Driver/Src/stm32f4xx_hal_i2s_ex.c ****       I2SEx_FullDuplexTx_IT(hi2s, I2S_USE_I2SEXT);
 836:./Libraries/STM32F4xx_HAL_Driver/Src/stm32f4xx_hal_i2s_ex.c ****     }
 837:./Libraries/STM32F4xx_HAL_Driver/Src/stm32f4xx_hal_i2s_ex.c **** 
 838:./Libraries/STM32F4xx_HAL_Driver/Src/stm32f4xx_hal_i2s_ex.c ****     /* I2S in mode Receiver --------------------------------------------------*/
 839:./Libraries/STM32F4xx_HAL_Driver/Src/stm32f4xx_hal_i2s_ex.c ****     if(((i2ssr & I2S_FLAG_RXNE) == I2S_FLAG_RXNE) && (__HAL_I2S_GET_IT_SOURCE(hi2s, I2S_IT_RXNE) !=
 840:./Libraries/STM32F4xx_HAL_Driver/Src/stm32f4xx_hal_i2s_ex.c ****     {
 841:./Libraries/STM32F4xx_HAL_Driver/Src/stm32f4xx_hal_i2s_ex.c ****       /* When the I2S mode is configured as I2S_MODE_MASTER_RX or I2S_MODE_SLAVE_RX,
 842:./Libraries/STM32F4xx_HAL_Driver/Src/stm32f4xx_hal_i2s_ex.c ****       the I2S RXNE interrupt will be generated to manage the full-duplex receive phase. */
 843:./Libraries/STM32F4xx_HAL_Driver/Src/stm32f4xx_hal_i2s_ex.c ****       I2SEx_FullDuplexRx_IT(hi2s, I2S_USE_I2S);
 844:./Libraries/STM32F4xx_HAL_Driver/Src/stm32f4xx_hal_i2s_ex.c ****     }
 845:./Libraries/STM32F4xx_HAL_Driver/Src/stm32f4xx_hal_i2s_ex.c **** 
 846:./Libraries/STM32F4xx_HAL_Driver/Src/stm32f4xx_hal_i2s_ex.c ****     /* I2S Overrun error interrupt occured -------------------------------------*/
 847:./Libraries/STM32F4xx_HAL_Driver/Src/stm32f4xx_hal_i2s_ex.c ****     if(((i2ssr & I2S_FLAG_OVR) == I2S_FLAG_OVR) && (__HAL_I2S_GET_IT_SOURCE(hi2s, I2S_IT_ERR) != RE
 848:./Libraries/STM32F4xx_HAL_Driver/Src/stm32f4xx_hal_i2s_ex.c ****     {
 849:./Libraries/STM32F4xx_HAL_Driver/Src/stm32f4xx_hal_i2s_ex.c ****       /* Disable RXNE and ERR interrupt */
 850:./Libraries/STM32F4xx_HAL_Driver/Src/stm32f4xx_hal_i2s_ex.c ****       __HAL_I2S_DISABLE_IT(hi2s, (I2S_IT_RXNE | I2S_IT_ERR));
 851:./Libraries/STM32F4xx_HAL_Driver/Src/stm32f4xx_hal_i2s_ex.c **** 
 852:./Libraries/STM32F4xx_HAL_Driver/Src/stm32f4xx_hal_i2s_ex.c ****       /* Disable TXE and ERR interrupt */
 853:./Libraries/STM32F4xx_HAL_Driver/Src/stm32f4xx_hal_i2s_ex.c ****       __HAL_I2SEXT_DISABLE_IT(hi2s, (I2S_IT_TXE | I2S_IT_ERR));
 854:./Libraries/STM32F4xx_HAL_Driver/Src/stm32f4xx_hal_i2s_ex.c **** 
 855:./Libraries/STM32F4xx_HAL_Driver/Src/stm32f4xx_hal_i2s_ex.c ****       /* Set the I2S State ready */
 856:./Libraries/STM32F4xx_HAL_Driver/Src/stm32f4xx_hal_i2s_ex.c ****       hi2s->State = HAL_I2S_STATE_READY;
 857:./Libraries/STM32F4xx_HAL_Driver/Src/stm32f4xx_hal_i2s_ex.c **** 
 858:./Libraries/STM32F4xx_HAL_Driver/Src/stm32f4xx_hal_i2s_ex.c ****       /* Set the error code and execute error callback*/
 859:./Libraries/STM32F4xx_HAL_Driver/Src/stm32f4xx_hal_i2s_ex.c ****       SET_BIT(hi2s->ErrorCode,HAL_I2S_ERROR_OVR);
 860:./Libraries/STM32F4xx_HAL_Driver/Src/stm32f4xx_hal_i2s_ex.c ****       HAL_I2S_ErrorCallback(hi2s);
 861:./Libraries/STM32F4xx_HAL_Driver/Src/stm32f4xx_hal_i2s_ex.c ****     }
 862:./Libraries/STM32F4xx_HAL_Driver/Src/stm32f4xx_hal_i2s_ex.c **** 
 863:./Libraries/STM32F4xx_HAL_Driver/Src/stm32f4xx_hal_i2s_ex.c ****     /* I2Sext Underrun error interrupt occured -------------------------------*/
 864:./Libraries/STM32F4xx_HAL_Driver/Src/stm32f4xx_hal_i2s_ex.c ****     if(((i2sextsr & I2S_FLAG_UDR) == I2S_FLAG_UDR) && (__HAL_I2SEXT_GET_IT_SOURCE(hi2s, I2S_IT_ERR)
 865:./Libraries/STM32F4xx_HAL_Driver/Src/stm32f4xx_hal_i2s_ex.c ****     {
 866:./Libraries/STM32F4xx_HAL_Driver/Src/stm32f4xx_hal_i2s_ex.c ****       /* Disable TXE and ERR interrupt */
 867:./Libraries/STM32F4xx_HAL_Driver/Src/stm32f4xx_hal_i2s_ex.c ****       __HAL_I2SEXT_DISABLE_IT(hi2s, (I2S_IT_TXE | I2S_IT_ERR));
 868:./Libraries/STM32F4xx_HAL_Driver/Src/stm32f4xx_hal_i2s_ex.c **** 
 869:./Libraries/STM32F4xx_HAL_Driver/Src/stm32f4xx_hal_i2s_ex.c ****       /* Disable RXNE and ERR interrupt */
 870:./Libraries/STM32F4xx_HAL_Driver/Src/stm32f4xx_hal_i2s_ex.c ****       __HAL_I2S_DISABLE_IT(hi2s, (I2S_IT_RXNE | I2S_IT_ERR));
 871:./Libraries/STM32F4xx_HAL_Driver/Src/stm32f4xx_hal_i2s_ex.c **** 
 872:./Libraries/STM32F4xx_HAL_Driver/Src/stm32f4xx_hal_i2s_ex.c ****       /* Set the I2S State ready */
 873:./Libraries/STM32F4xx_HAL_Driver/Src/stm32f4xx_hal_i2s_ex.c ****       hi2s->State = HAL_I2S_STATE_READY;
 874:./Libraries/STM32F4xx_HAL_Driver/Src/stm32f4xx_hal_i2s_ex.c **** 
 875:./Libraries/STM32F4xx_HAL_Driver/Src/stm32f4xx_hal_i2s_ex.c ****       /* Set the error code and execute error callback*/
 876:./Libraries/STM32F4xx_HAL_Driver/Src/stm32f4xx_hal_i2s_ex.c ****       SET_BIT(hi2s->ErrorCode,HAL_I2S_ERROR_UDR);
 877:./Libraries/STM32F4xx_HAL_Driver/Src/stm32f4xx_hal_i2s_ex.c ****       HAL_I2S_ErrorCallback(hi2s);
 878:./Libraries/STM32F4xx_HAL_Driver/Src/stm32f4xx_hal_i2s_ex.c ****     }
 879:./Libraries/STM32F4xx_HAL_Driver/Src/stm32f4xx_hal_i2s_ex.c ****   }
 880:./Libraries/STM32F4xx_HAL_Driver/Src/stm32f4xx_hal_i2s_ex.c **** }
 881:./Libraries/STM32F4xx_HAL_Driver/Src/stm32f4xx_hal_i2s_ex.c **** 
 882:./Libraries/STM32F4xx_HAL_Driver/Src/stm32f4xx_hal_i2s_ex.c **** /**
 883:./Libraries/STM32F4xx_HAL_Driver/Src/stm32f4xx_hal_i2s_ex.c ****   * @brief Tx and Rx Transfer half completed callback
 884:./Libraries/STM32F4xx_HAL_Driver/Src/stm32f4xx_hal_i2s_ex.c ****   * @param hi2s I2S handle
 885:./Libraries/STM32F4xx_HAL_Driver/Src/stm32f4xx_hal_i2s_ex.c ****   * @retval None
ARM GAS  /tmp/ccfbD6Jk.s 			page 17


 886:./Libraries/STM32F4xx_HAL_Driver/Src/stm32f4xx_hal_i2s_ex.c ****   */
 887:./Libraries/STM32F4xx_HAL_Driver/Src/stm32f4xx_hal_i2s_ex.c **** __weak void HAL_I2SEx_TxRxHalfCpltCallback(I2S_HandleTypeDef *hi2s)
 888:./Libraries/STM32F4xx_HAL_Driver/Src/stm32f4xx_hal_i2s_ex.c **** {
 889:./Libraries/STM32F4xx_HAL_Driver/Src/stm32f4xx_hal_i2s_ex.c ****   /* Prevent unused argument(s) compilation warning */
 890:./Libraries/STM32F4xx_HAL_Driver/Src/stm32f4xx_hal_i2s_ex.c ****   UNUSED(hi2s);
 891:./Libraries/STM32F4xx_HAL_Driver/Src/stm32f4xx_hal_i2s_ex.c **** 
 892:./Libraries/STM32F4xx_HAL_Driver/Src/stm32f4xx_hal_i2s_ex.c ****   /* NOTE : This function Should not be modified, when the callback is needed,
 893:./Libraries/STM32F4xx_HAL_Driver/Src/stm32f4xx_hal_i2s_ex.c ****             the HAL_I2SEx_TxRxHalfCpltCallback could be implemented in the user file
 894:./Libraries/STM32F4xx_HAL_Driver/Src/stm32f4xx_hal_i2s_ex.c ****    */
 895:./Libraries/STM32F4xx_HAL_Driver/Src/stm32f4xx_hal_i2s_ex.c **** }
 896:./Libraries/STM32F4xx_HAL_Driver/Src/stm32f4xx_hal_i2s_ex.c **** 
 897:./Libraries/STM32F4xx_HAL_Driver/Src/stm32f4xx_hal_i2s_ex.c **** /**
 898:./Libraries/STM32F4xx_HAL_Driver/Src/stm32f4xx_hal_i2s_ex.c ****   * @brief Tx and Rx Transfer completed callback
 899:./Libraries/STM32F4xx_HAL_Driver/Src/stm32f4xx_hal_i2s_ex.c ****   * @param hi2s I2S handle
 900:./Libraries/STM32F4xx_HAL_Driver/Src/stm32f4xx_hal_i2s_ex.c ****   * @retval None
 901:./Libraries/STM32F4xx_HAL_Driver/Src/stm32f4xx_hal_i2s_ex.c ****   */
 902:./Libraries/STM32F4xx_HAL_Driver/Src/stm32f4xx_hal_i2s_ex.c **** __weak void HAL_I2SEx_TxRxCpltCallback(I2S_HandleTypeDef *hi2s)
 903:./Libraries/STM32F4xx_HAL_Driver/Src/stm32f4xx_hal_i2s_ex.c **** {
 904:./Libraries/STM32F4xx_HAL_Driver/Src/stm32f4xx_hal_i2s_ex.c ****   /* Prevent unused argument(s) compilation warning */
 905:./Libraries/STM32F4xx_HAL_Driver/Src/stm32f4xx_hal_i2s_ex.c ****   UNUSED(hi2s);
 906:./Libraries/STM32F4xx_HAL_Driver/Src/stm32f4xx_hal_i2s_ex.c **** 
 907:./Libraries/STM32F4xx_HAL_Driver/Src/stm32f4xx_hal_i2s_ex.c ****   /* NOTE : This function Should not be modified, when the callback is needed,
 908:./Libraries/STM32F4xx_HAL_Driver/Src/stm32f4xx_hal_i2s_ex.c ****             the HAL_I2SEx_TxRxCpltCallback could be implemented in the user file
 909:./Libraries/STM32F4xx_HAL_Driver/Src/stm32f4xx_hal_i2s_ex.c ****    */
 910:./Libraries/STM32F4xx_HAL_Driver/Src/stm32f4xx_hal_i2s_ex.c **** }
 911:./Libraries/STM32F4xx_HAL_Driver/Src/stm32f4xx_hal_i2s_ex.c **** 
 912:./Libraries/STM32F4xx_HAL_Driver/Src/stm32f4xx_hal_i2s_ex.c **** /**
 913:./Libraries/STM32F4xx_HAL_Driver/Src/stm32f4xx_hal_i2s_ex.c ****   * @}
 914:./Libraries/STM32F4xx_HAL_Driver/Src/stm32f4xx_hal_i2s_ex.c ****   */
 915:./Libraries/STM32F4xx_HAL_Driver/Src/stm32f4xx_hal_i2s_ex.c **** 
 916:./Libraries/STM32F4xx_HAL_Driver/Src/stm32f4xx_hal_i2s_ex.c **** /**
 917:./Libraries/STM32F4xx_HAL_Driver/Src/stm32f4xx_hal_i2s_ex.c ****   * @}
 918:./Libraries/STM32F4xx_HAL_Driver/Src/stm32f4xx_hal_i2s_ex.c ****   */
 919:./Libraries/STM32F4xx_HAL_Driver/Src/stm32f4xx_hal_i2s_ex.c **** 
 920:./Libraries/STM32F4xx_HAL_Driver/Src/stm32f4xx_hal_i2s_ex.c **** /** @addtogroup I2SEx_Private_Functions I2S Extended Private Functions
 921:./Libraries/STM32F4xx_HAL_Driver/Src/stm32f4xx_hal_i2s_ex.c ****   * @{
 922:./Libraries/STM32F4xx_HAL_Driver/Src/stm32f4xx_hal_i2s_ex.c ****   */
 923:./Libraries/STM32F4xx_HAL_Driver/Src/stm32f4xx_hal_i2s_ex.c **** 
 924:./Libraries/STM32F4xx_HAL_Driver/Src/stm32f4xx_hal_i2s_ex.c **** /**
 925:./Libraries/STM32F4xx_HAL_Driver/Src/stm32f4xx_hal_i2s_ex.c ****   * @brief DMA I2S transmit receive process half complete callback
 926:./Libraries/STM32F4xx_HAL_Driver/Src/stm32f4xx_hal_i2s_ex.c ****   * @param  hdma pointer to a DMA_HandleTypeDef structure that contains
 927:./Libraries/STM32F4xx_HAL_Driver/Src/stm32f4xx_hal_i2s_ex.c ****   *               the configuration information for the specified DMA module.
 928:./Libraries/STM32F4xx_HAL_Driver/Src/stm32f4xx_hal_i2s_ex.c ****   * @retval None
 929:./Libraries/STM32F4xx_HAL_Driver/Src/stm32f4xx_hal_i2s_ex.c ****   */
 930:./Libraries/STM32F4xx_HAL_Driver/Src/stm32f4xx_hal_i2s_ex.c **** static void I2SEx_TxRxDMAHalfCplt(DMA_HandleTypeDef *hdma)
 931:./Libraries/STM32F4xx_HAL_Driver/Src/stm32f4xx_hal_i2s_ex.c **** {
 932:./Libraries/STM32F4xx_HAL_Driver/Src/stm32f4xx_hal_i2s_ex.c ****   I2S_HandleTypeDef* hi2s = (I2S_HandleTypeDef*)((DMA_HandleTypeDef*)hdma)->Parent;
 933:./Libraries/STM32F4xx_HAL_Driver/Src/stm32f4xx_hal_i2s_ex.c **** 
 934:./Libraries/STM32F4xx_HAL_Driver/Src/stm32f4xx_hal_i2s_ex.c ****    HAL_I2SEx_TxRxHalfCpltCallback(hi2s);
 935:./Libraries/STM32F4xx_HAL_Driver/Src/stm32f4xx_hal_i2s_ex.c **** }
 936:./Libraries/STM32F4xx_HAL_Driver/Src/stm32f4xx_hal_i2s_ex.c **** 
 937:./Libraries/STM32F4xx_HAL_Driver/Src/stm32f4xx_hal_i2s_ex.c **** /**
 938:./Libraries/STM32F4xx_HAL_Driver/Src/stm32f4xx_hal_i2s_ex.c ****   * @brief DMA I2S transmit receive process complete callback
 939:./Libraries/STM32F4xx_HAL_Driver/Src/stm32f4xx_hal_i2s_ex.c ****   * @param  hdma pointer to a DMA_HandleTypeDef structure that contains
 940:./Libraries/STM32F4xx_HAL_Driver/Src/stm32f4xx_hal_i2s_ex.c ****   *               the configuration information for the specified DMA module.
 941:./Libraries/STM32F4xx_HAL_Driver/Src/stm32f4xx_hal_i2s_ex.c ****   * @retval None
 942:./Libraries/STM32F4xx_HAL_Driver/Src/stm32f4xx_hal_i2s_ex.c ****   */
ARM GAS  /tmp/ccfbD6Jk.s 			page 18


 943:./Libraries/STM32F4xx_HAL_Driver/Src/stm32f4xx_hal_i2s_ex.c **** static void I2SEx_TxRxDMACplt(DMA_HandleTypeDef *hdma)
 944:./Libraries/STM32F4xx_HAL_Driver/Src/stm32f4xx_hal_i2s_ex.c **** {
 945:./Libraries/STM32F4xx_HAL_Driver/Src/stm32f4xx_hal_i2s_ex.c ****   I2S_HandleTypeDef* hi2s = (I2S_HandleTypeDef*)((DMA_HandleTypeDef*)hdma)->Parent;
 946:./Libraries/STM32F4xx_HAL_Driver/Src/stm32f4xx_hal_i2s_ex.c **** 
 947:./Libraries/STM32F4xx_HAL_Driver/Src/stm32f4xx_hal_i2s_ex.c ****   /* if DMA is not configured in DMA_CIRCULAR mode */
 948:./Libraries/STM32F4xx_HAL_Driver/Src/stm32f4xx_hal_i2s_ex.c ****   if((hdma->Instance->CR & DMA_SxCR_CIRC) == 0U)
 949:./Libraries/STM32F4xx_HAL_Driver/Src/stm32f4xx_hal_i2s_ex.c ****   {
 950:./Libraries/STM32F4xx_HAL_Driver/Src/stm32f4xx_hal_i2s_ex.c ****     if (hi2s->hdmarx == hdma)
 951:./Libraries/STM32F4xx_HAL_Driver/Src/stm32f4xx_hal_i2s_ex.c ****     {
 952:./Libraries/STM32F4xx_HAL_Driver/Src/stm32f4xx_hal_i2s_ex.c ****       /* Disable Rx DMA Request */
 953:./Libraries/STM32F4xx_HAL_Driver/Src/stm32f4xx_hal_i2s_ex.c ****       if (((hi2s->Instance->I2SCFGR & SPI_I2SCFGR_I2SCFG) == I2S_MODE_MASTER_TX) ||\
 954:./Libraries/STM32F4xx_HAL_Driver/Src/stm32f4xx_hal_i2s_ex.c ****           ((hi2s->Instance->I2SCFGR & SPI_I2SCFGR_I2SCFG) == I2S_MODE_SLAVE_TX))
 955:./Libraries/STM32F4xx_HAL_Driver/Src/stm32f4xx_hal_i2s_ex.c ****       {
 956:./Libraries/STM32F4xx_HAL_Driver/Src/stm32f4xx_hal_i2s_ex.c ****         CLEAR_BIT(I2SxEXT(hi2s->Instance)->CR2,SPI_CR2_RXDMAEN);
 957:./Libraries/STM32F4xx_HAL_Driver/Src/stm32f4xx_hal_i2s_ex.c ****       }
 958:./Libraries/STM32F4xx_HAL_Driver/Src/stm32f4xx_hal_i2s_ex.c ****       else
 959:./Libraries/STM32F4xx_HAL_Driver/Src/stm32f4xx_hal_i2s_ex.c ****       {
 960:./Libraries/STM32F4xx_HAL_Driver/Src/stm32f4xx_hal_i2s_ex.c ****         CLEAR_BIT(hi2s->Instance->CR2,SPI_CR2_RXDMAEN);
 961:./Libraries/STM32F4xx_HAL_Driver/Src/stm32f4xx_hal_i2s_ex.c ****       }
 962:./Libraries/STM32F4xx_HAL_Driver/Src/stm32f4xx_hal_i2s_ex.c **** 
 963:./Libraries/STM32F4xx_HAL_Driver/Src/stm32f4xx_hal_i2s_ex.c ****       hi2s->RxXferCount = 0U;
 964:./Libraries/STM32F4xx_HAL_Driver/Src/stm32f4xx_hal_i2s_ex.c **** 
 965:./Libraries/STM32F4xx_HAL_Driver/Src/stm32f4xx_hal_i2s_ex.c ****       if (hi2s->TxXferCount == 0U)
 966:./Libraries/STM32F4xx_HAL_Driver/Src/stm32f4xx_hal_i2s_ex.c ****       {
 967:./Libraries/STM32F4xx_HAL_Driver/Src/stm32f4xx_hal_i2s_ex.c ****         hi2s->State = HAL_I2S_STATE_READY;
 968:./Libraries/STM32F4xx_HAL_Driver/Src/stm32f4xx_hal_i2s_ex.c **** 
 969:./Libraries/STM32F4xx_HAL_Driver/Src/stm32f4xx_hal_i2s_ex.c ****         HAL_I2SEx_TxRxCpltCallback(hi2s);
 970:./Libraries/STM32F4xx_HAL_Driver/Src/stm32f4xx_hal_i2s_ex.c ****       }
 971:./Libraries/STM32F4xx_HAL_Driver/Src/stm32f4xx_hal_i2s_ex.c ****     }
 972:./Libraries/STM32F4xx_HAL_Driver/Src/stm32f4xx_hal_i2s_ex.c **** 
 973:./Libraries/STM32F4xx_HAL_Driver/Src/stm32f4xx_hal_i2s_ex.c ****     if (hi2s->hdmatx == hdma)
 974:./Libraries/STM32F4xx_HAL_Driver/Src/stm32f4xx_hal_i2s_ex.c ****     {
 975:./Libraries/STM32F4xx_HAL_Driver/Src/stm32f4xx_hal_i2s_ex.c ****       /* Disable Tx DMA Request */
 976:./Libraries/STM32F4xx_HAL_Driver/Src/stm32f4xx_hal_i2s_ex.c ****       if (((hi2s->Instance->I2SCFGR & SPI_I2SCFGR_I2SCFG) == I2S_MODE_MASTER_TX) ||\
 977:./Libraries/STM32F4xx_HAL_Driver/Src/stm32f4xx_hal_i2s_ex.c ****           ((hi2s->Instance->I2SCFGR & SPI_I2SCFGR_I2SCFG) == I2S_MODE_SLAVE_TX))
 978:./Libraries/STM32F4xx_HAL_Driver/Src/stm32f4xx_hal_i2s_ex.c ****       {
 979:./Libraries/STM32F4xx_HAL_Driver/Src/stm32f4xx_hal_i2s_ex.c ****         CLEAR_BIT(hi2s->Instance->CR2,SPI_CR2_TXDMAEN);
 980:./Libraries/STM32F4xx_HAL_Driver/Src/stm32f4xx_hal_i2s_ex.c ****       }
 981:./Libraries/STM32F4xx_HAL_Driver/Src/stm32f4xx_hal_i2s_ex.c ****       else
 982:./Libraries/STM32F4xx_HAL_Driver/Src/stm32f4xx_hal_i2s_ex.c ****       {
 983:./Libraries/STM32F4xx_HAL_Driver/Src/stm32f4xx_hal_i2s_ex.c ****         CLEAR_BIT(I2SxEXT(hi2s->Instance)->CR2,SPI_CR2_TXDMAEN);
 984:./Libraries/STM32F4xx_HAL_Driver/Src/stm32f4xx_hal_i2s_ex.c ****       }
 985:./Libraries/STM32F4xx_HAL_Driver/Src/stm32f4xx_hal_i2s_ex.c **** 
 986:./Libraries/STM32F4xx_HAL_Driver/Src/stm32f4xx_hal_i2s_ex.c ****       hi2s->TxXferCount = 0U;
 987:./Libraries/STM32F4xx_HAL_Driver/Src/stm32f4xx_hal_i2s_ex.c **** 
 988:./Libraries/STM32F4xx_HAL_Driver/Src/stm32f4xx_hal_i2s_ex.c ****       if (hi2s->RxXferCount == 0U)
 989:./Libraries/STM32F4xx_HAL_Driver/Src/stm32f4xx_hal_i2s_ex.c ****       {
 990:./Libraries/STM32F4xx_HAL_Driver/Src/stm32f4xx_hal_i2s_ex.c ****         hi2s->State = HAL_I2S_STATE_READY;
 991:./Libraries/STM32F4xx_HAL_Driver/Src/stm32f4xx_hal_i2s_ex.c **** 
 992:./Libraries/STM32F4xx_HAL_Driver/Src/stm32f4xx_hal_i2s_ex.c ****         HAL_I2SEx_TxRxCpltCallback(hi2s);
 993:./Libraries/STM32F4xx_HAL_Driver/Src/stm32f4xx_hal_i2s_ex.c ****       }
 994:./Libraries/STM32F4xx_HAL_Driver/Src/stm32f4xx_hal_i2s_ex.c ****     }
 995:./Libraries/STM32F4xx_HAL_Driver/Src/stm32f4xx_hal_i2s_ex.c ****   }
 996:./Libraries/STM32F4xx_HAL_Driver/Src/stm32f4xx_hal_i2s_ex.c **** }
 997:./Libraries/STM32F4xx_HAL_Driver/Src/stm32f4xx_hal_i2s_ex.c **** 
 998:./Libraries/STM32F4xx_HAL_Driver/Src/stm32f4xx_hal_i2s_ex.c **** /**
 999:./Libraries/STM32F4xx_HAL_Driver/Src/stm32f4xx_hal_i2s_ex.c ****   * @brief DMA I2S communication error callback
ARM GAS  /tmp/ccfbD6Jk.s 			page 19


1000:./Libraries/STM32F4xx_HAL_Driver/Src/stm32f4xx_hal_i2s_ex.c ****   * @param hdma  DMA handle
1001:./Libraries/STM32F4xx_HAL_Driver/Src/stm32f4xx_hal_i2s_ex.c ****   * @retval None
1002:./Libraries/STM32F4xx_HAL_Driver/Src/stm32f4xx_hal_i2s_ex.c ****   */
1003:./Libraries/STM32F4xx_HAL_Driver/Src/stm32f4xx_hal_i2s_ex.c **** static void I2SEx_TxRxDMAError(DMA_HandleTypeDef *hdma)
1004:./Libraries/STM32F4xx_HAL_Driver/Src/stm32f4xx_hal_i2s_ex.c **** {
  29              		.loc 1 1004 1 view -0
  30              		.cfi_startproc
  31              		@ args = 0, pretend = 0, frame = 0
  32              		@ frame_needed = 0, uses_anonymous_args = 0
  33              		.loc 1 1004 1 is_stmt 0 view .LVU1
  34 0000 08B5     		push	{r3, lr}
  35              	.LCFI0:
  36              		.cfi_def_cfa_offset 8
  37              		.cfi_offset 3, -8
  38              		.cfi_offset 14, -4
1005:./Libraries/STM32F4xx_HAL_Driver/Src/stm32f4xx_hal_i2s_ex.c ****   I2S_HandleTypeDef* hi2s = ( I2S_HandleTypeDef* )((DMA_HandleTypeDef* )hdma)->Parent;
  39              		.loc 1 1005 3 is_stmt 1 view .LVU2
  40              		.loc 1 1005 22 is_stmt 0 view .LVU3
  41 0002 806B     		ldr	r0, [r0, #56]
  42              	.LVL1:
1006:./Libraries/STM32F4xx_HAL_Driver/Src/stm32f4xx_hal_i2s_ex.c **** 
1007:./Libraries/STM32F4xx_HAL_Driver/Src/stm32f4xx_hal_i2s_ex.c ****   /* Disable Rx and Tx DMA Request */
1008:./Libraries/STM32F4xx_HAL_Driver/Src/stm32f4xx_hal_i2s_ex.c ****   CLEAR_BIT(hi2s->Instance->CR2,(SPI_CR2_RXDMAEN | SPI_CR2_TXDMAEN));
  43              		.loc 1 1008 3 is_stmt 1 view .LVU4
  44 0004 0268     		ldr	r2, [r0]
  45 0006 5368     		ldr	r3, [r2, #4]
  46 0008 23F00303 		bic	r3, r3, #3
  47 000c 5360     		str	r3, [r2, #4]
1009:./Libraries/STM32F4xx_HAL_Driver/Src/stm32f4xx_hal_i2s_ex.c ****   CLEAR_BIT(I2SxEXT(hi2s->Instance)->CR2,(SPI_CR2_RXDMAEN | SPI_CR2_TXDMAEN));
  48              		.loc 1 1009 3 view .LVU5
  49 000e 0268     		ldr	r2, [r0]
  50 0010 0B4B     		ldr	r3, .L6
  51 0012 9A42     		cmp	r2, r3
  52 0014 12D0     		beq	.L5
  53 0016 4FF04022 		mov	r2, #1073758208
  54              	.L2:
  55              		.loc 1 1009 3 is_stmt 0 discriminator 4 view .LVU6
  56 001a 5368     		ldr	r3, [r2, #4]
  57 001c 23F00303 		bic	r3, r3, #3
  58 0020 5360     		str	r3, [r2, #4]
1010:./Libraries/STM32F4xx_HAL_Driver/Src/stm32f4xx_hal_i2s_ex.c **** 
1011:./Libraries/STM32F4xx_HAL_Driver/Src/stm32f4xx_hal_i2s_ex.c ****   hi2s->TxXferCount = 0U;
  59              		.loc 1 1011 3 is_stmt 1 discriminator 4 view .LVU7
  60              		.loc 1 1011 21 is_stmt 0 discriminator 4 view .LVU8
  61 0022 0023     		movs	r3, #0
  62 0024 4385     		strh	r3, [r0, #42]	@ movhi
1012:./Libraries/STM32F4xx_HAL_Driver/Src/stm32f4xx_hal_i2s_ex.c ****   hi2s->RxXferCount = 0U;
  63              		.loc 1 1012 3 is_stmt 1 discriminator 4 view .LVU9
  64              		.loc 1 1012 21 is_stmt 0 discriminator 4 view .LVU10
  65 0026 4386     		strh	r3, [r0, #50]	@ movhi
1013:./Libraries/STM32F4xx_HAL_Driver/Src/stm32f4xx_hal_i2s_ex.c **** 
1014:./Libraries/STM32F4xx_HAL_Driver/Src/stm32f4xx_hal_i2s_ex.c ****   hi2s->State= HAL_I2S_STATE_READY;
  66              		.loc 1 1014 3 is_stmt 1 discriminator 4 view .LVU11
  67              		.loc 1 1014 14 is_stmt 0 discriminator 4 view .LVU12
  68 0028 0123     		movs	r3, #1
  69 002a 80F84130 		strb	r3, [r0, #65]
1015:./Libraries/STM32F4xx_HAL_Driver/Src/stm32f4xx_hal_i2s_ex.c **** 
ARM GAS  /tmp/ccfbD6Jk.s 			page 20


1016:./Libraries/STM32F4xx_HAL_Driver/Src/stm32f4xx_hal_i2s_ex.c ****   /* Set the error code and execute error callback*/
1017:./Libraries/STM32F4xx_HAL_Driver/Src/stm32f4xx_hal_i2s_ex.c ****   SET_BIT(hi2s->ErrorCode,HAL_I2S_ERROR_DMA);
  70              		.loc 1 1017 3 is_stmt 1 discriminator 4 view .LVU13
  71 002e 436C     		ldr	r3, [r0, #68]
  72 0030 43F00803 		orr	r3, r3, #8
  73 0034 4364     		str	r3, [r0, #68]
1018:./Libraries/STM32F4xx_HAL_Driver/Src/stm32f4xx_hal_i2s_ex.c ****   HAL_I2S_ErrorCallback(hi2s);
  74              		.loc 1 1018 3 discriminator 4 view .LVU14
  75 0036 FFF7FEFF 		bl	HAL_I2S_ErrorCallback
  76              	.LVL2:
1019:./Libraries/STM32F4xx_HAL_Driver/Src/stm32f4xx_hal_i2s_ex.c **** }
  77              		.loc 1 1019 1 is_stmt 0 discriminator 4 view .LVU15
  78 003a 08BD     		pop	{r3, pc}
  79              	.LVL3:
  80              	.L5:
1009:./Libraries/STM32F4xx_HAL_Driver/Src/stm32f4xx_hal_i2s_ex.c **** 
  81              		.loc 1 1009 3 view .LVU16
  82 003c 014A     		ldr	r2, .L6+4
  83 003e ECE7     		b	.L2
  84              	.L7:
  85              		.align	2
  86              	.L6:
  87 0040 00380040 		.word	1073756160
  88 0044 00340040 		.word	1073755136
  89              		.cfi_endproc
  90              	.LFE134:
  92              		.section	.text.I2SEx_FullDuplexWaitFlagStateUntilTimeout,"ax",%progbits
  93              		.align	1
  94              		.syntax unified
  95              		.thumb
  96              		.thumb_func
  97              		.fpu fpv4-sp-d16
  99              	I2SEx_FullDuplexWaitFlagStateUntilTimeout:
 100              	.LVL4:
 101              	.LFB137:
1020:./Libraries/STM32F4xx_HAL_Driver/Src/stm32f4xx_hal_i2s_ex.c **** 
1021:./Libraries/STM32F4xx_HAL_Driver/Src/stm32f4xx_hal_i2s_ex.c **** /**
1022:./Libraries/STM32F4xx_HAL_Driver/Src/stm32f4xx_hal_i2s_ex.c ****   * @brief Full-Duplex IT handler transmit function
1023:./Libraries/STM32F4xx_HAL_Driver/Src/stm32f4xx_hal_i2s_ex.c ****   * @param hi2s I2S handle
1024:./Libraries/STM32F4xx_HAL_Driver/Src/stm32f4xx_hal_i2s_ex.c ****   * @param i2sUsed indicate if I2Sx or I2Sx_ext is concerned
1025:./Libraries/STM32F4xx_HAL_Driver/Src/stm32f4xx_hal_i2s_ex.c ****   * @retval None
1026:./Libraries/STM32F4xx_HAL_Driver/Src/stm32f4xx_hal_i2s_ex.c ****   */
1027:./Libraries/STM32F4xx_HAL_Driver/Src/stm32f4xx_hal_i2s_ex.c **** static void I2SEx_FullDuplexTx_IT(I2S_HandleTypeDef *hi2s, I2S_UseTypeDef i2sUsed)
1028:./Libraries/STM32F4xx_HAL_Driver/Src/stm32f4xx_hal_i2s_ex.c **** {
1029:./Libraries/STM32F4xx_HAL_Driver/Src/stm32f4xx_hal_i2s_ex.c ****   if(i2sUsed == I2S_USE_I2S)
1030:./Libraries/STM32F4xx_HAL_Driver/Src/stm32f4xx_hal_i2s_ex.c ****   {
1031:./Libraries/STM32F4xx_HAL_Driver/Src/stm32f4xx_hal_i2s_ex.c ****     /* Write Data on DR register */
1032:./Libraries/STM32F4xx_HAL_Driver/Src/stm32f4xx_hal_i2s_ex.c ****     hi2s->Instance->DR = (*hi2s->pTxBuffPtr++);
1033:./Libraries/STM32F4xx_HAL_Driver/Src/stm32f4xx_hal_i2s_ex.c ****     hi2s->TxXferCount--;
1034:./Libraries/STM32F4xx_HAL_Driver/Src/stm32f4xx_hal_i2s_ex.c **** 
1035:./Libraries/STM32F4xx_HAL_Driver/Src/stm32f4xx_hal_i2s_ex.c ****     if(hi2s->TxXferCount == 0U)
1036:./Libraries/STM32F4xx_HAL_Driver/Src/stm32f4xx_hal_i2s_ex.c ****     {
1037:./Libraries/STM32F4xx_HAL_Driver/Src/stm32f4xx_hal_i2s_ex.c ****       /* Disable TXE and ERR interrupt */
1038:./Libraries/STM32F4xx_HAL_Driver/Src/stm32f4xx_hal_i2s_ex.c ****       __HAL_I2S_DISABLE_IT(hi2s, (I2S_IT_TXE | I2S_IT_ERR));
1039:./Libraries/STM32F4xx_HAL_Driver/Src/stm32f4xx_hal_i2s_ex.c **** 
1040:./Libraries/STM32F4xx_HAL_Driver/Src/stm32f4xx_hal_i2s_ex.c ****       if(hi2s->RxXferCount == 0U)
1041:./Libraries/STM32F4xx_HAL_Driver/Src/stm32f4xx_hal_i2s_ex.c ****       {
ARM GAS  /tmp/ccfbD6Jk.s 			page 21


1042:./Libraries/STM32F4xx_HAL_Driver/Src/stm32f4xx_hal_i2s_ex.c ****         hi2s->State = HAL_I2S_STATE_READY;
1043:./Libraries/STM32F4xx_HAL_Driver/Src/stm32f4xx_hal_i2s_ex.c ****         HAL_I2SEx_TxRxCpltCallback(hi2s);
1044:./Libraries/STM32F4xx_HAL_Driver/Src/stm32f4xx_hal_i2s_ex.c ****       }
1045:./Libraries/STM32F4xx_HAL_Driver/Src/stm32f4xx_hal_i2s_ex.c ****     }
1046:./Libraries/STM32F4xx_HAL_Driver/Src/stm32f4xx_hal_i2s_ex.c ****   }
1047:./Libraries/STM32F4xx_HAL_Driver/Src/stm32f4xx_hal_i2s_ex.c ****   else
1048:./Libraries/STM32F4xx_HAL_Driver/Src/stm32f4xx_hal_i2s_ex.c ****   {
1049:./Libraries/STM32F4xx_HAL_Driver/Src/stm32f4xx_hal_i2s_ex.c ****     /* Write Data on DR register */
1050:./Libraries/STM32F4xx_HAL_Driver/Src/stm32f4xx_hal_i2s_ex.c ****     I2SxEXT(hi2s->Instance)->DR = (*hi2s->pTxBuffPtr++);
1051:./Libraries/STM32F4xx_HAL_Driver/Src/stm32f4xx_hal_i2s_ex.c ****     hi2s->TxXferCount--;
1052:./Libraries/STM32F4xx_HAL_Driver/Src/stm32f4xx_hal_i2s_ex.c **** 
1053:./Libraries/STM32F4xx_HAL_Driver/Src/stm32f4xx_hal_i2s_ex.c ****     if(hi2s->TxXferCount == 0U)
1054:./Libraries/STM32F4xx_HAL_Driver/Src/stm32f4xx_hal_i2s_ex.c ****     {
1055:./Libraries/STM32F4xx_HAL_Driver/Src/stm32f4xx_hal_i2s_ex.c ****       /* Disable I2Sext TXE and ERR interrupt */
1056:./Libraries/STM32F4xx_HAL_Driver/Src/stm32f4xx_hal_i2s_ex.c ****       __HAL_I2SEXT_DISABLE_IT(hi2s, (I2S_IT_TXE | I2S_IT_ERR));
1057:./Libraries/STM32F4xx_HAL_Driver/Src/stm32f4xx_hal_i2s_ex.c **** 
1058:./Libraries/STM32F4xx_HAL_Driver/Src/stm32f4xx_hal_i2s_ex.c ****       if(hi2s->RxXferCount == 0U)
1059:./Libraries/STM32F4xx_HAL_Driver/Src/stm32f4xx_hal_i2s_ex.c ****       {
1060:./Libraries/STM32F4xx_HAL_Driver/Src/stm32f4xx_hal_i2s_ex.c ****         hi2s->State = HAL_I2S_STATE_READY;
1061:./Libraries/STM32F4xx_HAL_Driver/Src/stm32f4xx_hal_i2s_ex.c ****         HAL_I2SEx_TxRxCpltCallback(hi2s);
1062:./Libraries/STM32F4xx_HAL_Driver/Src/stm32f4xx_hal_i2s_ex.c ****       }
1063:./Libraries/STM32F4xx_HAL_Driver/Src/stm32f4xx_hal_i2s_ex.c ****     }
1064:./Libraries/STM32F4xx_HAL_Driver/Src/stm32f4xx_hal_i2s_ex.c ****   }
1065:./Libraries/STM32F4xx_HAL_Driver/Src/stm32f4xx_hal_i2s_ex.c **** }
1066:./Libraries/STM32F4xx_HAL_Driver/Src/stm32f4xx_hal_i2s_ex.c **** 
1067:./Libraries/STM32F4xx_HAL_Driver/Src/stm32f4xx_hal_i2s_ex.c **** /**
1068:./Libraries/STM32F4xx_HAL_Driver/Src/stm32f4xx_hal_i2s_ex.c ****   * @brief Full-Duplex IT handler receive function
1069:./Libraries/STM32F4xx_HAL_Driver/Src/stm32f4xx_hal_i2s_ex.c ****   * @param hi2s I2S handle
1070:./Libraries/STM32F4xx_HAL_Driver/Src/stm32f4xx_hal_i2s_ex.c ****   * @param i2sUsed indicate if I2Sx or I2Sx_ext is concerned
1071:./Libraries/STM32F4xx_HAL_Driver/Src/stm32f4xx_hal_i2s_ex.c ****   * @retval None
1072:./Libraries/STM32F4xx_HAL_Driver/Src/stm32f4xx_hal_i2s_ex.c ****   */
1073:./Libraries/STM32F4xx_HAL_Driver/Src/stm32f4xx_hal_i2s_ex.c **** static void I2SEx_FullDuplexRx_IT(I2S_HandleTypeDef *hi2s, I2S_UseTypeDef i2sUsed)
1074:./Libraries/STM32F4xx_HAL_Driver/Src/stm32f4xx_hal_i2s_ex.c **** {
1075:./Libraries/STM32F4xx_HAL_Driver/Src/stm32f4xx_hal_i2s_ex.c ****   if(i2sUsed == I2S_USE_I2S)
1076:./Libraries/STM32F4xx_HAL_Driver/Src/stm32f4xx_hal_i2s_ex.c ****   {
1077:./Libraries/STM32F4xx_HAL_Driver/Src/stm32f4xx_hal_i2s_ex.c ****     /* Read Data from DR register */
1078:./Libraries/STM32F4xx_HAL_Driver/Src/stm32f4xx_hal_i2s_ex.c ****     (*hi2s->pRxBuffPtr++) = hi2s->Instance->DR;
1079:./Libraries/STM32F4xx_HAL_Driver/Src/stm32f4xx_hal_i2s_ex.c ****     hi2s->RxXferCount--;
1080:./Libraries/STM32F4xx_HAL_Driver/Src/stm32f4xx_hal_i2s_ex.c **** 
1081:./Libraries/STM32F4xx_HAL_Driver/Src/stm32f4xx_hal_i2s_ex.c ****     if(hi2s->RxXferCount == 0U)
1082:./Libraries/STM32F4xx_HAL_Driver/Src/stm32f4xx_hal_i2s_ex.c ****     {
1083:./Libraries/STM32F4xx_HAL_Driver/Src/stm32f4xx_hal_i2s_ex.c ****       /* Disable RXNE and ERR interrupt */
1084:./Libraries/STM32F4xx_HAL_Driver/Src/stm32f4xx_hal_i2s_ex.c ****       __HAL_I2S_DISABLE_IT(hi2s, (I2S_IT_RXNE | I2S_IT_ERR));
1085:./Libraries/STM32F4xx_HAL_Driver/Src/stm32f4xx_hal_i2s_ex.c **** 
1086:./Libraries/STM32F4xx_HAL_Driver/Src/stm32f4xx_hal_i2s_ex.c ****       if(hi2s->TxXferCount == 0U)
1087:./Libraries/STM32F4xx_HAL_Driver/Src/stm32f4xx_hal_i2s_ex.c ****       {
1088:./Libraries/STM32F4xx_HAL_Driver/Src/stm32f4xx_hal_i2s_ex.c ****         hi2s->State = HAL_I2S_STATE_READY;
1089:./Libraries/STM32F4xx_HAL_Driver/Src/stm32f4xx_hal_i2s_ex.c ****         HAL_I2SEx_TxRxCpltCallback(hi2s);
1090:./Libraries/STM32F4xx_HAL_Driver/Src/stm32f4xx_hal_i2s_ex.c ****       }
1091:./Libraries/STM32F4xx_HAL_Driver/Src/stm32f4xx_hal_i2s_ex.c ****     }
1092:./Libraries/STM32F4xx_HAL_Driver/Src/stm32f4xx_hal_i2s_ex.c ****   }
1093:./Libraries/STM32F4xx_HAL_Driver/Src/stm32f4xx_hal_i2s_ex.c ****   else
1094:./Libraries/STM32F4xx_HAL_Driver/Src/stm32f4xx_hal_i2s_ex.c ****   {
1095:./Libraries/STM32F4xx_HAL_Driver/Src/stm32f4xx_hal_i2s_ex.c ****     /* Read Data from DR register */
1096:./Libraries/STM32F4xx_HAL_Driver/Src/stm32f4xx_hal_i2s_ex.c ****     (*hi2s->pRxBuffPtr++) = I2SxEXT(hi2s->Instance)->DR;
1097:./Libraries/STM32F4xx_HAL_Driver/Src/stm32f4xx_hal_i2s_ex.c ****     hi2s->RxXferCount--;
1098:./Libraries/STM32F4xx_HAL_Driver/Src/stm32f4xx_hal_i2s_ex.c **** 
ARM GAS  /tmp/ccfbD6Jk.s 			page 22


1099:./Libraries/STM32F4xx_HAL_Driver/Src/stm32f4xx_hal_i2s_ex.c ****     if(hi2s->RxXferCount == 0U)
1100:./Libraries/STM32F4xx_HAL_Driver/Src/stm32f4xx_hal_i2s_ex.c ****     {
1101:./Libraries/STM32F4xx_HAL_Driver/Src/stm32f4xx_hal_i2s_ex.c ****       /* Disable I2Sext RXNE and ERR interrupt */
1102:./Libraries/STM32F4xx_HAL_Driver/Src/stm32f4xx_hal_i2s_ex.c ****       __HAL_I2SEXT_DISABLE_IT(hi2s, (I2S_IT_RXNE | I2S_IT_ERR));
1103:./Libraries/STM32F4xx_HAL_Driver/Src/stm32f4xx_hal_i2s_ex.c **** 
1104:./Libraries/STM32F4xx_HAL_Driver/Src/stm32f4xx_hal_i2s_ex.c ****       if(hi2s->TxXferCount == 0U)
1105:./Libraries/STM32F4xx_HAL_Driver/Src/stm32f4xx_hal_i2s_ex.c ****       {
1106:./Libraries/STM32F4xx_HAL_Driver/Src/stm32f4xx_hal_i2s_ex.c ****         hi2s->State = HAL_I2S_STATE_READY;
1107:./Libraries/STM32F4xx_HAL_Driver/Src/stm32f4xx_hal_i2s_ex.c ****         HAL_I2SEx_TxRxCpltCallback(hi2s);
1108:./Libraries/STM32F4xx_HAL_Driver/Src/stm32f4xx_hal_i2s_ex.c ****       }
1109:./Libraries/STM32F4xx_HAL_Driver/Src/stm32f4xx_hal_i2s_ex.c ****     }
1110:./Libraries/STM32F4xx_HAL_Driver/Src/stm32f4xx_hal_i2s_ex.c ****   }
1111:./Libraries/STM32F4xx_HAL_Driver/Src/stm32f4xx_hal_i2s_ex.c **** }
1112:./Libraries/STM32F4xx_HAL_Driver/Src/stm32f4xx_hal_i2s_ex.c **** 
1113:./Libraries/STM32F4xx_HAL_Driver/Src/stm32f4xx_hal_i2s_ex.c **** /**
1114:./Libraries/STM32F4xx_HAL_Driver/Src/stm32f4xx_hal_i2s_ex.c ****   * @brief This function handles I2S Communication Timeout.
1115:./Libraries/STM32F4xx_HAL_Driver/Src/stm32f4xx_hal_i2s_ex.c ****   * @param hi2s I2S handle
1116:./Libraries/STM32F4xx_HAL_Driver/Src/stm32f4xx_hal_i2s_ex.c ****   * @param Flag Flag checked
1117:./Libraries/STM32F4xx_HAL_Driver/Src/stm32f4xx_hal_i2s_ex.c ****   * @param State Value of the flag expected
1118:./Libraries/STM32F4xx_HAL_Driver/Src/stm32f4xx_hal_i2s_ex.c ****   * @param Timeout Duration of the timeout
1119:./Libraries/STM32F4xx_HAL_Driver/Src/stm32f4xx_hal_i2s_ex.c ****   * @param i2sUsed I2S instance reference
1120:./Libraries/STM32F4xx_HAL_Driver/Src/stm32f4xx_hal_i2s_ex.c ****   * @retval HAL status
1121:./Libraries/STM32F4xx_HAL_Driver/Src/stm32f4xx_hal_i2s_ex.c ****   */
1122:./Libraries/STM32F4xx_HAL_Driver/Src/stm32f4xx_hal_i2s_ex.c **** static HAL_StatusTypeDef I2SEx_FullDuplexWaitFlagStateUntilTimeout(I2S_HandleTypeDef *hi2s, uint32_
1123:./Libraries/STM32F4xx_HAL_Driver/Src/stm32f4xx_hal_i2s_ex.c ****                                                                  uint32_t State, uint32_t Timeout, 
1124:./Libraries/STM32F4xx_HAL_Driver/Src/stm32f4xx_hal_i2s_ex.c **** {
 102              		.loc 1 1124 1 is_stmt 1 view -0
 103              		.cfi_startproc
 104              		@ args = 4, pretend = 0, frame = 0
 105              		@ frame_needed = 0, uses_anonymous_args = 0
 106              		.loc 1 1124 1 is_stmt 0 view .LVU18
 107 0000 2DE9F843 		push	{r3, r4, r5, r6, r7, r8, r9, lr}
 108              	.LCFI1:
 109              		.cfi_def_cfa_offset 32
 110              		.cfi_offset 3, -32
 111              		.cfi_offset 4, -28
 112              		.cfi_offset 5, -24
 113              		.cfi_offset 6, -20
 114              		.cfi_offset 7, -16
 115              		.cfi_offset 8, -12
 116              		.cfi_offset 9, -8
 117              		.cfi_offset 14, -4
 118 0004 0546     		mov	r5, r0
 119 0006 0E46     		mov	r6, r1
 120 0008 1746     		mov	r7, r2
 121 000a 1C46     		mov	r4, r3
 122 000c 9DF82090 		ldrb	r9, [sp, #32]	@ zero_extendqisi2
1125:./Libraries/STM32F4xx_HAL_Driver/Src/stm32f4xx_hal_i2s_ex.c ****   uint32_t tickstart = HAL_GetTick();
 123              		.loc 1 1125 3 is_stmt 1 view .LVU19
 124              		.loc 1 1125 24 is_stmt 0 view .LVU20
 125 0010 FFF7FEFF 		bl	HAL_GetTick
 126              	.LVL5:
 127              		.loc 1 1125 24 view .LVU21
 128 0014 8046     		mov	r8, r0
 129              	.LVL6:
1126:./Libraries/STM32F4xx_HAL_Driver/Src/stm32f4xx_hal_i2s_ex.c **** 
1127:./Libraries/STM32F4xx_HAL_Driver/Src/stm32f4xx_hal_i2s_ex.c ****   if(i2sUsed == I2S_USE_I2S)
ARM GAS  /tmp/ccfbD6Jk.s 			page 23


 130              		.loc 1 1127 3 is_stmt 1 view .LVU22
 131              		.loc 1 1127 5 is_stmt 0 view .LVU23
 132 0016 B9F1000F 		cmp	r9, #0
 133 001a 15D0     		beq	.L11
 134 001c 36E0     		b	.L16
 135              	.LVL7:
 136              	.L26:
1128:./Libraries/STM32F4xx_HAL_Driver/Src/stm32f4xx_hal_i2s_ex.c ****   {
1129:./Libraries/STM32F4xx_HAL_Driver/Src/stm32f4xx_hal_i2s_ex.c ****     /* Wait until flag is reset */
1130:./Libraries/STM32F4xx_HAL_Driver/Src/stm32f4xx_hal_i2s_ex.c ****     while(((__HAL_I2S_GET_FLAG(hi2s, Flag)) ? SET : RESET) != State)
1131:./Libraries/STM32F4xx_HAL_Driver/Src/stm32f4xx_hal_i2s_ex.c ****     {
1132:./Libraries/STM32F4xx_HAL_Driver/Src/stm32f4xx_hal_i2s_ex.c ****       if(Timeout != HAL_MAX_DELAY)
1133:./Libraries/STM32F4xx_HAL_Driver/Src/stm32f4xx_hal_i2s_ex.c ****       {
1134:./Libraries/STM32F4xx_HAL_Driver/Src/stm32f4xx_hal_i2s_ex.c ****         if((Timeout == 0U) || ((HAL_GetTick()-tickstart) > Timeout))
 137              		.loc 1 1134 9 is_stmt 1 view .LVU24
 138              		.loc 1 1134 11 is_stmt 0 view .LVU25
 139 001e 2CB1     		cbz	r4, .L12
 140              		.loc 1 1134 33 discriminator 1 view .LVU26
 141 0020 FFF7FEFF 		bl	HAL_GetTick
 142              	.LVL8:
 143              		.loc 1 1134 46 discriminator 1 view .LVU27
 144 0024 A0EB0800 		sub	r0, r0, r8
 145              		.loc 1 1134 28 discriminator 1 view .LVU28
 146 0028 A042     		cmp	r0, r4
 147 002a 0DD9     		bls	.L11
 148              	.L12:
1135:./Libraries/STM32F4xx_HAL_Driver/Src/stm32f4xx_hal_i2s_ex.c ****         {
1136:./Libraries/STM32F4xx_HAL_Driver/Src/stm32f4xx_hal_i2s_ex.c ****           /* Set the I2S State ready */
1137:./Libraries/STM32F4xx_HAL_Driver/Src/stm32f4xx_hal_i2s_ex.c ****           hi2s->State= HAL_I2S_STATE_READY;
 149              		.loc 1 1137 11 is_stmt 1 view .LVU29
 150              		.loc 1 1137 22 is_stmt 0 view .LVU30
 151 002c 0123     		movs	r3, #1
 152 002e 85F84130 		strb	r3, [r5, #65]
1138:./Libraries/STM32F4xx_HAL_Driver/Src/stm32f4xx_hal_i2s_ex.c **** 
1139:./Libraries/STM32F4xx_HAL_Driver/Src/stm32f4xx_hal_i2s_ex.c ****           /* Process Unlocked */
1140:./Libraries/STM32F4xx_HAL_Driver/Src/stm32f4xx_hal_i2s_ex.c ****           __HAL_UNLOCK(hi2s);
 153              		.loc 1 1140 11 is_stmt 1 view .LVU31
 154              		.loc 1 1140 11 view .LVU32
 155 0032 0023     		movs	r3, #0
 156 0034 85F84030 		strb	r3, [r5, #64]
 157              		.loc 1 1140 11 view .LVU33
1141:./Libraries/STM32F4xx_HAL_Driver/Src/stm32f4xx_hal_i2s_ex.c **** 
1142:./Libraries/STM32F4xx_HAL_Driver/Src/stm32f4xx_hal_i2s_ex.c ****           return HAL_TIMEOUT;
 158              		.loc 1 1142 11 view .LVU34
 159              		.loc 1 1142 18 is_stmt 0 view .LVU35
 160 0038 0320     		movs	r0, #3
 161 003a 0DE0     		b	.L13
 162              	.L27:
1130:./Libraries/STM32F4xx_HAL_Driver/Src/stm32f4xx_hal_i2s_ex.c ****     {
 163              		.loc 1 1130 51 view .LVU36
 164 003c 0123     		movs	r3, #1
 165              	.L14:
1130:./Libraries/STM32F4xx_HAL_Driver/Src/stm32f4xx_hal_i2s_ex.c ****     {
 166              		.loc 1 1130 10 discriminator 4 view .LVU37
 167 003e BB42     		cmp	r3, r7
 168 0040 09D0     		beq	.L25
1132:./Libraries/STM32F4xx_HAL_Driver/Src/stm32f4xx_hal_i2s_ex.c ****       {
ARM GAS  /tmp/ccfbD6Jk.s 			page 24


 169              		.loc 1 1132 7 is_stmt 1 view .LVU38
1132:./Libraries/STM32F4xx_HAL_Driver/Src/stm32f4xx_hal_i2s_ex.c ****       {
 170              		.loc 1 1132 9 is_stmt 0 view .LVU39
 171 0042 B4F1FF3F 		cmp	r4, #-1
 172 0046 EAD1     		bne	.L26
 173              	.L11:
1130:./Libraries/STM32F4xx_HAL_Driver/Src/stm32f4xx_hal_i2s_ex.c ****     {
 174              		.loc 1 1130 10 is_stmt 1 view .LVU40
1130:./Libraries/STM32F4xx_HAL_Driver/Src/stm32f4xx_hal_i2s_ex.c ****     {
 175              		.loc 1 1130 13 is_stmt 0 view .LVU41
 176 0048 2B68     		ldr	r3, [r5]
 177 004a 9B68     		ldr	r3, [r3, #8]
1130:./Libraries/STM32F4xx_HAL_Driver/Src/stm32f4xx_hal_i2s_ex.c ****     {
 178              		.loc 1 1130 51 view .LVU42
 179 004c 36EA0303 		bics	r3, r6, r3
 180 0050 F4D0     		beq	.L27
 181 0052 0023     		movs	r3, #0
 182 0054 F3E7     		b	.L14
 183              	.L25:
1143:./Libraries/STM32F4xx_HAL_Driver/Src/stm32f4xx_hal_i2s_ex.c ****         }
1144:./Libraries/STM32F4xx_HAL_Driver/Src/stm32f4xx_hal_i2s_ex.c ****       }
1145:./Libraries/STM32F4xx_HAL_Driver/Src/stm32f4xx_hal_i2s_ex.c ****     }
1146:./Libraries/STM32F4xx_HAL_Driver/Src/stm32f4xx_hal_i2s_ex.c ****   }
1147:./Libraries/STM32F4xx_HAL_Driver/Src/stm32f4xx_hal_i2s_ex.c ****   else /* i2sUsed == I2S_USE_I2SEXT */
1148:./Libraries/STM32F4xx_HAL_Driver/Src/stm32f4xx_hal_i2s_ex.c ****   {
1149:./Libraries/STM32F4xx_HAL_Driver/Src/stm32f4xx_hal_i2s_ex.c ****     /* Wait until flag is reset */
1150:./Libraries/STM32F4xx_HAL_Driver/Src/stm32f4xx_hal_i2s_ex.c ****     while(((__HAL_I2SEXT_GET_FLAG(hi2s, Flag)) ? SET : RESET) != State)
1151:./Libraries/STM32F4xx_HAL_Driver/Src/stm32f4xx_hal_i2s_ex.c ****     {
1152:./Libraries/STM32F4xx_HAL_Driver/Src/stm32f4xx_hal_i2s_ex.c ****       if(Timeout != HAL_MAX_DELAY)
1153:./Libraries/STM32F4xx_HAL_Driver/Src/stm32f4xx_hal_i2s_ex.c ****       {
1154:./Libraries/STM32F4xx_HAL_Driver/Src/stm32f4xx_hal_i2s_ex.c ****         if((Timeout == 0U) || ((HAL_GetTick()-tickstart) > Timeout))
1155:./Libraries/STM32F4xx_HAL_Driver/Src/stm32f4xx_hal_i2s_ex.c ****         {
1156:./Libraries/STM32F4xx_HAL_Driver/Src/stm32f4xx_hal_i2s_ex.c ****           /* Set the I2S State ready */
1157:./Libraries/STM32F4xx_HAL_Driver/Src/stm32f4xx_hal_i2s_ex.c ****           hi2s->State= HAL_I2S_STATE_READY;
1158:./Libraries/STM32F4xx_HAL_Driver/Src/stm32f4xx_hal_i2s_ex.c **** 
1159:./Libraries/STM32F4xx_HAL_Driver/Src/stm32f4xx_hal_i2s_ex.c ****           /* Process Unlocked */
1160:./Libraries/STM32F4xx_HAL_Driver/Src/stm32f4xx_hal_i2s_ex.c ****           __HAL_UNLOCK(hi2s);
1161:./Libraries/STM32F4xx_HAL_Driver/Src/stm32f4xx_hal_i2s_ex.c **** 
1162:./Libraries/STM32F4xx_HAL_Driver/Src/stm32f4xx_hal_i2s_ex.c ****           return HAL_TIMEOUT;
1163:./Libraries/STM32F4xx_HAL_Driver/Src/stm32f4xx_hal_i2s_ex.c ****         }
1164:./Libraries/STM32F4xx_HAL_Driver/Src/stm32f4xx_hal_i2s_ex.c ****       }
1165:./Libraries/STM32F4xx_HAL_Driver/Src/stm32f4xx_hal_i2s_ex.c ****     }
1166:./Libraries/STM32F4xx_HAL_Driver/Src/stm32f4xx_hal_i2s_ex.c ****   }
1167:./Libraries/STM32F4xx_HAL_Driver/Src/stm32f4xx_hal_i2s_ex.c ****   return HAL_OK;
 184              		.loc 1 1167 10 view .LVU43
 185 0056 4846     		mov	r0, r9
 186              	.L13:
1168:./Libraries/STM32F4xx_HAL_Driver/Src/stm32f4xx_hal_i2s_ex.c **** }
 187              		.loc 1 1168 1 view .LVU44
 188 0058 BDE8F883 		pop	{r3, r4, r5, r6, r7, r8, r9, pc}
 189              	.LVL9:
 190              	.L29:
1154:./Libraries/STM32F4xx_HAL_Driver/Src/stm32f4xx_hal_i2s_ex.c ****         {
 191              		.loc 1 1154 9 is_stmt 1 view .LVU45
1154:./Libraries/STM32F4xx_HAL_Driver/Src/stm32f4xx_hal_i2s_ex.c ****         {
 192              		.loc 1 1154 11 is_stmt 0 view .LVU46
 193 005c 2CB1     		cbz	r4, .L17
ARM GAS  /tmp/ccfbD6Jk.s 			page 25


1154:./Libraries/STM32F4xx_HAL_Driver/Src/stm32f4xx_hal_i2s_ex.c ****         {
 194              		.loc 1 1154 33 discriminator 1 view .LVU47
 195 005e FFF7FEFF 		bl	HAL_GetTick
 196              	.LVL10:
1154:./Libraries/STM32F4xx_HAL_Driver/Src/stm32f4xx_hal_i2s_ex.c ****         {
 197              		.loc 1 1154 46 discriminator 1 view .LVU48
 198 0062 A0EB0800 		sub	r0, r0, r8
1154:./Libraries/STM32F4xx_HAL_Driver/Src/stm32f4xx_hal_i2s_ex.c ****         {
 199              		.loc 1 1154 28 discriminator 1 view .LVU49
 200 0066 A042     		cmp	r0, r4
 201 0068 10D9     		bls	.L16
 202              	.L17:
1157:./Libraries/STM32F4xx_HAL_Driver/Src/stm32f4xx_hal_i2s_ex.c **** 
 203              		.loc 1 1157 11 is_stmt 1 view .LVU50
1157:./Libraries/STM32F4xx_HAL_Driver/Src/stm32f4xx_hal_i2s_ex.c **** 
 204              		.loc 1 1157 22 is_stmt 0 view .LVU51
 205 006a 0123     		movs	r3, #1
 206 006c 85F84130 		strb	r3, [r5, #65]
1160:./Libraries/STM32F4xx_HAL_Driver/Src/stm32f4xx_hal_i2s_ex.c **** 
 207              		.loc 1 1160 11 is_stmt 1 view .LVU52
1160:./Libraries/STM32F4xx_HAL_Driver/Src/stm32f4xx_hal_i2s_ex.c **** 
 208              		.loc 1 1160 11 view .LVU53
 209 0070 0023     		movs	r3, #0
 210 0072 85F84030 		strb	r3, [r5, #64]
1160:./Libraries/STM32F4xx_HAL_Driver/Src/stm32f4xx_hal_i2s_ex.c **** 
 211              		.loc 1 1160 11 view .LVU54
1162:./Libraries/STM32F4xx_HAL_Driver/Src/stm32f4xx_hal_i2s_ex.c ****         }
 212              		.loc 1 1162 11 view .LVU55
1162:./Libraries/STM32F4xx_HAL_Driver/Src/stm32f4xx_hal_i2s_ex.c ****         }
 213              		.loc 1 1162 18 is_stmt 0 view .LVU56
 214 0076 0320     		movs	r0, #3
 215 0078 EEE7     		b	.L13
 216              	.L30:
1150:./Libraries/STM32F4xx_HAL_Driver/Src/stm32f4xx_hal_i2s_ex.c ****     {
 217              		.loc 1 1150 13 view .LVU57
 218 007a A3F58063 		sub	r3, r3, #1024
 219 007e 0BE0     		b	.L18
 220              	.L31:
1150:./Libraries/STM32F4xx_HAL_Driver/Src/stm32f4xx_hal_i2s_ex.c ****     {
 221              		.loc 1 1150 54 view .LVU58
 222 0080 0123     		movs	r3, #1
 223              	.L19:
1150:./Libraries/STM32F4xx_HAL_Driver/Src/stm32f4xx_hal_i2s_ex.c ****     {
 224              		.loc 1 1150 10 discriminator 8 view .LVU59
 225 0082 BB42     		cmp	r3, r7
 226 0084 0ED0     		beq	.L28
1152:./Libraries/STM32F4xx_HAL_Driver/Src/stm32f4xx_hal_i2s_ex.c ****       {
 227              		.loc 1 1152 7 is_stmt 1 view .LVU60
1152:./Libraries/STM32F4xx_HAL_Driver/Src/stm32f4xx_hal_i2s_ex.c ****       {
 228              		.loc 1 1152 9 is_stmt 0 view .LVU61
 229 0086 B4F1FF3F 		cmp	r4, #-1
 230 008a E7D1     		bne	.L29
 231              	.L16:
1150:./Libraries/STM32F4xx_HAL_Driver/Src/stm32f4xx_hal_i2s_ex.c ****     {
 232              		.loc 1 1150 10 is_stmt 1 view .LVU62
1150:./Libraries/STM32F4xx_HAL_Driver/Src/stm32f4xx_hal_i2s_ex.c ****     {
 233              		.loc 1 1150 13 is_stmt 0 view .LVU63
ARM GAS  /tmp/ccfbD6Jk.s 			page 26


 234 008c 2A68     		ldr	r2, [r5]
 235 008e 064B     		ldr	r3, .L32
 236 0090 9A42     		cmp	r2, r3
 237 0092 F2D0     		beq	.L30
 238 0094 4FF04023 		mov	r3, #1073758208
 239              	.L18:
1150:./Libraries/STM32F4xx_HAL_Driver/Src/stm32f4xx_hal_i2s_ex.c ****     {
 240              		.loc 1 1150 13 discriminator 4 view .LVU64
 241 0098 9B68     		ldr	r3, [r3, #8]
1150:./Libraries/STM32F4xx_HAL_Driver/Src/stm32f4xx_hal_i2s_ex.c ****     {
 242              		.loc 1 1150 54 discriminator 4 view .LVU65
 243 009a 36EA0303 		bics	r3, r6, r3
 244 009e EFD0     		beq	.L31
1150:./Libraries/STM32F4xx_HAL_Driver/Src/stm32f4xx_hal_i2s_ex.c ****     {
 245              		.loc 1 1150 54 view .LVU66
 246 00a0 0023     		movs	r3, #0
 247 00a2 EEE7     		b	.L19
 248              	.L28:
1167:./Libraries/STM32F4xx_HAL_Driver/Src/stm32f4xx_hal_i2s_ex.c **** }
 249              		.loc 1 1167 10 view .LVU67
 250 00a4 0020     		movs	r0, #0
 251 00a6 D7E7     		b	.L13
 252              	.L33:
 253              		.align	2
 254              	.L32:
 255 00a8 00380040 		.word	1073756160
 256              		.cfi_endproc
 257              	.LFE137:
 259              		.section	.text.HAL_I2SEx_TransmitReceive,"ax",%progbits
 260              		.align	1
 261              		.global	HAL_I2SEx_TransmitReceive
 262              		.syntax unified
 263              		.thumb
 264              		.thumb_func
 265              		.fpu fpv4-sp-d16
 267              	HAL_I2SEx_TransmitReceive:
 268              	.LVL11:
 269              	.LFB126:
 217:./Libraries/STM32F4xx_HAL_Driver/Src/stm32f4xx_hal_i2s_ex.c ****   uint32_t tmp1 = 0U;
 270              		.loc 1 217 1 is_stmt 1 view -0
 271              		.cfi_startproc
 272              		@ args = 4, pretend = 0, frame = 24
 273              		@ frame_needed = 0, uses_anonymous_args = 0
 217:./Libraries/STM32F4xx_HAL_Driver/Src/stm32f4xx_hal_i2s_ex.c ****   uint32_t tmp1 = 0U;
 274              		.loc 1 217 1 is_stmt 0 view .LVU69
 275 0000 2DE9F043 		push	{r4, r5, r6, r7, r8, r9, lr}
 276              	.LCFI2:
 277              		.cfi_def_cfa_offset 28
 278              		.cfi_offset 4, -28
 279              		.cfi_offset 5, -24
 280              		.cfi_offset 6, -20
 281              		.cfi_offset 7, -16
 282              		.cfi_offset 8, -12
 283              		.cfi_offset 9, -8
 284              		.cfi_offset 14, -4
 285 0004 89B0     		sub	sp, sp, #36
 286              	.LCFI3:
ARM GAS  /tmp/ccfbD6Jk.s 			page 27


 287              		.cfi_def_cfa_offset 64
 288 0006 109F     		ldr	r7, [sp, #64]
 218:./Libraries/STM32F4xx_HAL_Driver/Src/stm32f4xx_hal_i2s_ex.c **** 
 289              		.loc 1 218 3 is_stmt 1 view .LVU70
 290              	.LVL12:
 220:./Libraries/STM32F4xx_HAL_Driver/Src/stm32f4xx_hal_i2s_ex.c ****   {
 291              		.loc 1 220 3 view .LVU71
 220:./Libraries/STM32F4xx_HAL_Driver/Src/stm32f4xx_hal_i2s_ex.c ****   {
 292              		.loc 1 220 5 is_stmt 0 view .LVU72
 293 0008 0029     		cmp	r1, #0
 294 000a 00F0BC81 		beq	.L64
 295 000e 0446     		mov	r4, r0
 296 0010 1546     		mov	r5, r2
 297 0012 0E46     		mov	r6, r1
 220:./Libraries/STM32F4xx_HAL_Driver/Src/stm32f4xx_hal_i2s_ex.c ****   {
 298              		.loc 1 220 25 discriminator 1 view .LVU73
 299 0014 002A     		cmp	r2, #0
 300 0016 00F0B981 		beq	.L65
 220:./Libraries/STM32F4xx_HAL_Driver/Src/stm32f4xx_hal_i2s_ex.c ****   {
 301              		.loc 1 220 47 discriminator 2 view .LVU74
 302 001a 002B     		cmp	r3, #0
 303 001c 00F0B981 		beq	.L66
 226:./Libraries/STM32F4xx_HAL_Driver/Src/stm32f4xx_hal_i2s_ex.c ****   {
 304              		.loc 1 226 3 is_stmt 1 view .LVU75
 226:./Libraries/STM32F4xx_HAL_Driver/Src/stm32f4xx_hal_i2s_ex.c ****   {
 305              		.loc 1 226 10 is_stmt 0 view .LVU76
 306 0020 90F84180 		ldrb	r8, [r0, #65]	@ zero_extendqisi2
 307 0024 5FFA88F8 		uxtb	r8, r8
 226:./Libraries/STM32F4xx_HAL_Driver/Src/stm32f4xx_hal_i2s_ex.c ****   {
 308              		.loc 1 226 5 view .LVU77
 309 0028 B8F1010F 		cmp	r8, #1
 310 002c 40F0B781 		bne	.L67
 228:./Libraries/STM32F4xx_HAL_Driver/Src/stm32f4xx_hal_i2s_ex.c ****     /* Check the Data format: When a 16-bit data frame or a 16-bit data frame extended
 311              		.loc 1 228 5 is_stmt 1 view .LVU78
 228:./Libraries/STM32F4xx_HAL_Driver/Src/stm32f4xx_hal_i2s_ex.c ****     /* Check the Data format: When a 16-bit data frame or a 16-bit data frame extended
 312              		.loc 1 228 16 is_stmt 0 view .LVU79
 313 0030 0168     		ldr	r1, [r0]
 314              	.LVL13:
 228:./Libraries/STM32F4xx_HAL_Driver/Src/stm32f4xx_hal_i2s_ex.c ****     /* Check the Data format: When a 16-bit data frame or a 16-bit data frame extended
 315              		.loc 1 228 26 view .LVU80
 316 0032 CA69     		ldr	r2, [r1, #28]
 317              	.LVL14:
 228:./Libraries/STM32F4xx_HAL_Driver/Src/stm32f4xx_hal_i2s_ex.c ****     /* Check the Data format: When a 16-bit data frame or a 16-bit data frame extended
 318              		.loc 1 228 10 view .LVU81
 319 0034 02F00702 		and	r2, r2, #7
 320              	.LVL15:
 233:./Libraries/STM32F4xx_HAL_Driver/Src/stm32f4xx_hal_i2s_ex.c ****     {
 321              		.loc 1 233 5 is_stmt 1 view .LVU82
 233:./Libraries/STM32F4xx_HAL_Driver/Src/stm32f4xx_hal_i2s_ex.c ****     {
 322              		.loc 1 233 7 is_stmt 0 view .LVU83
 323 0038 032A     		cmp	r2, #3
 324 003a 06D0     		beq	.L36
 233:./Libraries/STM32F4xx_HAL_Driver/Src/stm32f4xx_hal_i2s_ex.c ****     {
 325              		.loc 1 233 37 discriminator 1 view .LVU84
 326 003c 052A     		cmp	r2, #5
 327 003e 04D0     		beq	.L36
 242:./Libraries/STM32F4xx_HAL_Driver/Src/stm32f4xx_hal_i2s_ex.c ****       hi2s->TxXferCount = Size;
ARM GAS  /tmp/ccfbD6Jk.s 			page 28


 328              		.loc 1 242 7 is_stmt 1 view .LVU85
 242:./Libraries/STM32F4xx_HAL_Driver/Src/stm32f4xx_hal_i2s_ex.c ****       hi2s->TxXferCount = Size;
 329              		.loc 1 242 25 is_stmt 0 view .LVU86
 330 0040 0385     		strh	r3, [r0, #40]	@ movhi
 243:./Libraries/STM32F4xx_HAL_Driver/Src/stm32f4xx_hal_i2s_ex.c ****       hi2s->RxXferSize  = Size;
 331              		.loc 1 243 7 is_stmt 1 view .LVU87
 243:./Libraries/STM32F4xx_HAL_Driver/Src/stm32f4xx_hal_i2s_ex.c ****       hi2s->RxXferSize  = Size;
 332              		.loc 1 243 25 is_stmt 0 view .LVU88
 333 0042 4385     		strh	r3, [r0, #42]	@ movhi
 244:./Libraries/STM32F4xx_HAL_Driver/Src/stm32f4xx_hal_i2s_ex.c ****       hi2s->RxXferCount = Size;
 334              		.loc 1 244 7 is_stmt 1 view .LVU89
 244:./Libraries/STM32F4xx_HAL_Driver/Src/stm32f4xx_hal_i2s_ex.c ****       hi2s->RxXferCount = Size;
 335              		.loc 1 244 25 is_stmt 0 view .LVU90
 336 0044 0386     		strh	r3, [r0, #48]	@ movhi
 245:./Libraries/STM32F4xx_HAL_Driver/Src/stm32f4xx_hal_i2s_ex.c ****     }
 337              		.loc 1 245 7 is_stmt 1 view .LVU91
 245:./Libraries/STM32F4xx_HAL_Driver/Src/stm32f4xx_hal_i2s_ex.c ****     }
 338              		.loc 1 245 25 is_stmt 0 view .LVU92
 339 0046 4386     		strh	r3, [r0, #50]	@ movhi
 340 0048 05E0     		b	.L38
 341              	.L36:
 235:./Libraries/STM32F4xx_HAL_Driver/Src/stm32f4xx_hal_i2s_ex.c ****       hi2s->TxXferCount = (Size << 1U);
 342              		.loc 1 235 7 is_stmt 1 view .LVU93
 235:./Libraries/STM32F4xx_HAL_Driver/Src/stm32f4xx_hal_i2s_ex.c ****       hi2s->TxXferCount = (Size << 1U);
 343              		.loc 1 235 33 is_stmt 0 view .LVU94
 344 004a 5B00     		lsls	r3, r3, #1
 345              	.LVL16:
 235:./Libraries/STM32F4xx_HAL_Driver/Src/stm32f4xx_hal_i2s_ex.c ****       hi2s->TxXferCount = (Size << 1U);
 346              		.loc 1 235 33 view .LVU95
 347 004c 9BB2     		uxth	r3, r3
 235:./Libraries/STM32F4xx_HAL_Driver/Src/stm32f4xx_hal_i2s_ex.c ****       hi2s->TxXferCount = (Size << 1U);
 348              		.loc 1 235 25 view .LVU96
 349 004e 2385     		strh	r3, [r4, #40]	@ movhi
 236:./Libraries/STM32F4xx_HAL_Driver/Src/stm32f4xx_hal_i2s_ex.c ****       hi2s->RxXferSize  = (Size << 1U);
 350              		.loc 1 236 7 is_stmt 1 view .LVU97
 236:./Libraries/STM32F4xx_HAL_Driver/Src/stm32f4xx_hal_i2s_ex.c ****       hi2s->RxXferSize  = (Size << 1U);
 351              		.loc 1 236 25 is_stmt 0 view .LVU98
 352 0050 6385     		strh	r3, [r4, #42]	@ movhi
 237:./Libraries/STM32F4xx_HAL_Driver/Src/stm32f4xx_hal_i2s_ex.c ****       hi2s->RxXferCount = (Size << 1U);
 353              		.loc 1 237 7 is_stmt 1 view .LVU99
 237:./Libraries/STM32F4xx_HAL_Driver/Src/stm32f4xx_hal_i2s_ex.c ****       hi2s->RxXferCount = (Size << 1U);
 354              		.loc 1 237 25 is_stmt 0 view .LVU100
 355 0052 2386     		strh	r3, [r4, #48]	@ movhi
 238:./Libraries/STM32F4xx_HAL_Driver/Src/stm32f4xx_hal_i2s_ex.c ****     }
 356              		.loc 1 238 7 is_stmt 1 view .LVU101
 238:./Libraries/STM32F4xx_HAL_Driver/Src/stm32f4xx_hal_i2s_ex.c ****     }
 357              		.loc 1 238 25 is_stmt 0 view .LVU102
 358 0054 6386     		strh	r3, [r4, #50]	@ movhi
 359              	.L38:
 249:./Libraries/STM32F4xx_HAL_Driver/Src/stm32f4xx_hal_i2s_ex.c **** 
 360              		.loc 1 249 5 is_stmt 1 view .LVU103
 249:./Libraries/STM32F4xx_HAL_Driver/Src/stm32f4xx_hal_i2s_ex.c **** 
 361              		.loc 1 249 5 view .LVU104
 362 0056 94F84030 		ldrb	r3, [r4, #64]	@ zero_extendqisi2
 363 005a DBB2     		uxtb	r3, r3
 364 005c 012B     		cmp	r3, #1
 365 005e 00F0A181 		beq	.L68
ARM GAS  /tmp/ccfbD6Jk.s 			page 29


 249:./Libraries/STM32F4xx_HAL_Driver/Src/stm32f4xx_hal_i2s_ex.c **** 
 366              		.loc 1 249 5 discriminator 2 view .LVU105
 367 0062 0123     		movs	r3, #1
 368 0064 84F84030 		strb	r3, [r4, #64]
 249:./Libraries/STM32F4xx_HAL_Driver/Src/stm32f4xx_hal_i2s_ex.c **** 
 369              		.loc 1 249 5 discriminator 2 view .LVU106
 251:./Libraries/STM32F4xx_HAL_Driver/Src/stm32f4xx_hal_i2s_ex.c **** 
 370              		.loc 1 251 5 discriminator 2 view .LVU107
 251:./Libraries/STM32F4xx_HAL_Driver/Src/stm32f4xx_hal_i2s_ex.c **** 
 371              		.loc 1 251 21 is_stmt 0 discriminator 2 view .LVU108
 372 0068 0023     		movs	r3, #0
 373 006a 6364     		str	r3, [r4, #68]
 254:./Libraries/STM32F4xx_HAL_Driver/Src/stm32f4xx_hal_i2s_ex.c **** 
 374              		.loc 1 254 5 is_stmt 1 discriminator 2 view .LVU109
 254:./Libraries/STM32F4xx_HAL_Driver/Src/stm32f4xx_hal_i2s_ex.c **** 
 375              		.loc 1 254 17 is_stmt 0 discriminator 2 view .LVU110
 376 006c 0523     		movs	r3, #5
 377 006e 84F84130 		strb	r3, [r4, #65]
 256:./Libraries/STM32F4xx_HAL_Driver/Src/stm32f4xx_hal_i2s_ex.c ****     /* Check if the I2S_MODE_MASTER_TX or I2S_MODE_SLAVE_TX Mode is selected */
 378              		.loc 1 256 5 is_stmt 1 discriminator 2 view .LVU111
 256:./Libraries/STM32F4xx_HAL_Driver/Src/stm32f4xx_hal_i2s_ex.c ****     /* Check if the I2S_MODE_MASTER_TX or I2S_MODE_SLAVE_TX Mode is selected */
 379              		.loc 1 256 26 is_stmt 0 discriminator 2 view .LVU112
 380 0072 CB69     		ldr	r3, [r1, #28]
 256:./Libraries/STM32F4xx_HAL_Driver/Src/stm32f4xx_hal_i2s_ex.c ****     /* Check if the I2S_MODE_MASTER_TX or I2S_MODE_SLAVE_TX Mode is selected */
 381              		.loc 1 256 10 discriminator 2 view .LVU113
 382 0074 03F44079 		and	r9, r3, #768
 383              	.LVL17:
 258:./Libraries/STM32F4xx_HAL_Driver/Src/stm32f4xx_hal_i2s_ex.c ****     {
 384              		.loc 1 258 5 is_stmt 1 discriminator 2 view .LVU114
 258:./Libraries/STM32F4xx_HAL_Driver/Src/stm32f4xx_hal_i2s_ex.c ****     {
 385              		.loc 1 258 7 is_stmt 0 discriminator 2 view .LVU115
 386 0078 B9F5007F 		cmp	r9, #512
 387 007c 03D0     		beq	.L39
 258:./Libraries/STM32F4xx_HAL_Driver/Src/stm32f4xx_hal_i2s_ex.c ****     {
 388              		.loc 1 258 37 discriminator 1 view .LVU116
 389 007e B9F1000F 		cmp	r9, #0
 390 0082 40F0C180 		bne	.L40
 391              	.L39:
 261:./Libraries/STM32F4xx_HAL_Driver/Src/stm32f4xx_hal_i2s_ex.c ****       hi2s->TxXferCount--;
 392              		.loc 1 261 7 is_stmt 1 view .LVU117
 393              	.LVL18:
 261:./Libraries/STM32F4xx_HAL_Driver/Src/stm32f4xx_hal_i2s_ex.c ****       hi2s->TxXferCount--;
 394              		.loc 1 261 29 is_stmt 0 view .LVU118
 395 0086 36F8023B 		ldrh	r3, [r6], #2
 396              	.LVL19:
 261:./Libraries/STM32F4xx_HAL_Driver/Src/stm32f4xx_hal_i2s_ex.c ****       hi2s->TxXferCount--;
 397              		.loc 1 261 26 view .LVU119
 398 008a CB60     		str	r3, [r1, #12]
 262:./Libraries/STM32F4xx_HAL_Driver/Src/stm32f4xx_hal_i2s_ex.c **** 
 399              		.loc 1 262 7 is_stmt 1 view .LVU120
 262:./Libraries/STM32F4xx_HAL_Driver/Src/stm32f4xx_hal_i2s_ex.c **** 
 400              		.loc 1 262 11 is_stmt 0 view .LVU121
 401 008c 638D     		ldrh	r3, [r4, #42]
 402 008e 9BB2     		uxth	r3, r3
 262:./Libraries/STM32F4xx_HAL_Driver/Src/stm32f4xx_hal_i2s_ex.c **** 
 403              		.loc 1 262 24 view .LVU122
 404 0090 013B     		subs	r3, r3, #1
ARM GAS  /tmp/ccfbD6Jk.s 			page 30


 405 0092 9BB2     		uxth	r3, r3
 406 0094 6385     		strh	r3, [r4, #42]	@ movhi
 265:./Libraries/STM32F4xx_HAL_Driver/Src/stm32f4xx_hal_i2s_ex.c **** 
 407              		.loc 1 265 7 is_stmt 1 view .LVU123
 408 0096 2268     		ldr	r2, [r4]
 409 0098 9E4B     		ldr	r3, .L100
 410 009a 9A42     		cmp	r2, r3
 411 009c 1ED0     		beq	.L84
 412 009e 4FF04022 		mov	r2, #1073758208
 413              	.L41:
 265:./Libraries/STM32F4xx_HAL_Driver/Src/stm32f4xx_hal_i2s_ex.c **** 
 414              		.loc 1 265 7 is_stmt 0 discriminator 4 view .LVU124
 415 00a2 D369     		ldr	r3, [r2, #28]
 416 00a4 43F48063 		orr	r3, r3, #1024
 417 00a8 D361     		str	r3, [r2, #28]
 268:./Libraries/STM32F4xx_HAL_Driver/Src/stm32f4xx_hal_i2s_ex.c **** 
 418              		.loc 1 268 7 is_stmt 1 discriminator 4 view .LVU125
 419 00aa 2268     		ldr	r2, [r4]
 420 00ac D369     		ldr	r3, [r2, #28]
 421 00ae 43F48063 		orr	r3, r3, #1024
 422 00b2 D361     		str	r3, [r2, #28]
 271:./Libraries/STM32F4xx_HAL_Driver/Src/stm32f4xx_hal_i2s_ex.c ****       {
 423              		.loc 1 271 7 discriminator 4 view .LVU126
 271:./Libraries/STM32F4xx_HAL_Driver/Src/stm32f4xx_hal_i2s_ex.c ****       {
 424              		.loc 1 271 15 is_stmt 0 discriminator 4 view .LVU127
 425 00b4 2268     		ldr	r2, [r4]
 271:./Libraries/STM32F4xx_HAL_Driver/Src/stm32f4xx_hal_i2s_ex.c ****       {
 426              		.loc 1 271 25 discriminator 4 view .LVU128
 427 00b6 D369     		ldr	r3, [r2, #28]
 271:./Libraries/STM32F4xx_HAL_Driver/Src/stm32f4xx_hal_i2s_ex.c ****       {
 428              		.loc 1 271 35 discriminator 4 view .LVU129
 429 00b8 03F44073 		and	r3, r3, #768
 271:./Libraries/STM32F4xx_HAL_Driver/Src/stm32f4xx_hal_i2s_ex.c ****       {
 430              		.loc 1 271 9 discriminator 4 view .LVU130
 431 00bc B3F5007F 		cmp	r3, #512
 432 00c0 18D1     		bne	.L44
 275:./Libraries/STM32F4xx_HAL_Driver/Src/stm32f4xx_hal_i2s_ex.c ****       }
 433              		.loc 1 275 9 is_stmt 1 view .LVU131
 434              	.LBB2:
 275:./Libraries/STM32F4xx_HAL_Driver/Src/stm32f4xx_hal_i2s_ex.c ****       }
 435              		.loc 1 275 9 view .LVU132
 436 00c2 0023     		movs	r3, #0
 437 00c4 0293     		str	r3, [sp, #8]
 275:./Libraries/STM32F4xx_HAL_Driver/Src/stm32f4xx_hal_i2s_ex.c ****       }
 438              		.loc 1 275 9 view .LVU133
 439 00c6 934B     		ldr	r3, .L100
 440 00c8 9A42     		cmp	r2, r3
 441 00ca 09D0     		beq	.L85
 442 00cc 4FF04023 		mov	r3, #1073758208
 443              	.L43:
 275:./Libraries/STM32F4xx_HAL_Driver/Src/stm32f4xx_hal_i2s_ex.c ****       }
 444              		.loc 1 275 9 is_stmt 0 discriminator 4 view .LVU134
 445 00d0 DA68     		ldr	r2, [r3, #12]
 446 00d2 0292     		str	r2, [sp, #8]
 275:./Libraries/STM32F4xx_HAL_Driver/Src/stm32f4xx_hal_i2s_ex.c ****       }
 447              		.loc 1 275 9 is_stmt 1 discriminator 4 view .LVU135
 448 00d4 9B68     		ldr	r3, [r3, #8]
ARM GAS  /tmp/ccfbD6Jk.s 			page 31


 449 00d6 0293     		str	r3, [sp, #8]
 275:./Libraries/STM32F4xx_HAL_Driver/Src/stm32f4xx_hal_i2s_ex.c ****       }
 450              		.loc 1 275 9 discriminator 4 view .LVU136
 451 00d8 029B     		ldr	r3, [sp, #8]
 452 00da 0BE0     		b	.L44
 453              	.L84:
 275:./Libraries/STM32F4xx_HAL_Driver/Src/stm32f4xx_hal_i2s_ex.c ****       }
 454              		.loc 1 275 9 is_stmt 0 discriminator 4 view .LVU137
 455              	.LBE2:
 265:./Libraries/STM32F4xx_HAL_Driver/Src/stm32f4xx_hal_i2s_ex.c **** 
 456              		.loc 1 265 7 view .LVU138
 457 00dc 8E4A     		ldr	r2, .L100+4
 458 00de E0E7     		b	.L41
 459              	.L85:
 460              	.LBB3:
 275:./Libraries/STM32F4xx_HAL_Driver/Src/stm32f4xx_hal_i2s_ex.c ****       }
 461              		.loc 1 275 9 view .LVU139
 462 00e0 A3F58063 		sub	r3, r3, #1024
 463 00e4 F4E7     		b	.L43
 464              	.LVL20:
 465              	.L51:
 275:./Libraries/STM32F4xx_HAL_Driver/Src/stm32f4xx_hal_i2s_ex.c ****       }
 466              		.loc 1 275 9 view .LVU140
 467              	.LBE3:
 280:./Libraries/STM32F4xx_HAL_Driver/Src/stm32f4xx_hal_i2s_ex.c ****         {
 468              		.loc 1 280 9 is_stmt 1 view .LVU141
 280:./Libraries/STM32F4xx_HAL_Driver/Src/stm32f4xx_hal_i2s_ex.c ****         {
 469              		.loc 1 280 16 is_stmt 0 view .LVU142
 470 00e6 638D     		ldrh	r3, [r4, #42]
 471 00e8 9BB2     		uxth	r3, r3
 280:./Libraries/STM32F4xx_HAL_Driver/Src/stm32f4xx_hal_i2s_ex.c ****         {
 472              		.loc 1 280 11 view .LVU143
 473 00ea 9BB9     		cbnz	r3, .L86
 474              	.L45:
 313:./Libraries/STM32F4xx_HAL_Driver/Src/stm32f4xx_hal_i2s_ex.c ****         {
 475              		.loc 1 313 9 is_stmt 1 view .LVU144
 313:./Libraries/STM32F4xx_HAL_Driver/Src/stm32f4xx_hal_i2s_ex.c ****         {
 476              		.loc 1 313 16 is_stmt 0 view .LVU145
 477 00ec 638E     		ldrh	r3, [r4, #50]
 478 00ee 9BB2     		uxth	r3, r3
 313:./Libraries/STM32F4xx_HAL_Driver/Src/stm32f4xx_hal_i2s_ex.c ****         {
 479              		.loc 1 313 11 view .LVU146
 480 00f0 002B     		cmp	r3, #0
 481 00f2 45D1     		bne	.L87
 482              	.L44:
 278:./Libraries/STM32F4xx_HAL_Driver/Src/stm32f4xx_hal_i2s_ex.c ****       {
 483              		.loc 1 278 12 is_stmt 1 view .LVU147
 278:./Libraries/STM32F4xx_HAL_Driver/Src/stm32f4xx_hal_i2s_ex.c ****       {
 484              		.loc 1 278 18 is_stmt 0 view .LVU148
 485 00f4 638E     		ldrh	r3, [r4, #50]
 486 00f6 9BB2     		uxth	r3, r3
 278:./Libraries/STM32F4xx_HAL_Driver/Src/stm32f4xx_hal_i2s_ex.c ****       {
 487              		.loc 1 278 12 view .LVU149
 488 00f8 002B     		cmp	r3, #0
 489 00fa F4D1     		bne	.L51
 278:./Libraries/STM32F4xx_HAL_Driver/Src/stm32f4xx_hal_i2s_ex.c ****       {
 490              		.loc 1 278 46 discriminator 1 view .LVU150
ARM GAS  /tmp/ccfbD6Jk.s 			page 32


 491 00fc 638D     		ldrh	r3, [r4, #42]
 492 00fe 9BB2     		uxth	r3, r3
 278:./Libraries/STM32F4xx_HAL_Driver/Src/stm32f4xx_hal_i2s_ex.c ****       {
 493              		.loc 1 278 38 discriminator 1 view .LVU151
 494 0100 002B     		cmp	r3, #0
 495 0102 F0D1     		bne	.L51
 496              	.L52:
 441:./Libraries/STM32F4xx_HAL_Driver/Src/stm32f4xx_hal_i2s_ex.c **** 
 497              		.loc 1 441 5 is_stmt 1 view .LVU152
 441:./Libraries/STM32F4xx_HAL_Driver/Src/stm32f4xx_hal_i2s_ex.c **** 
 498              		.loc 1 441 17 is_stmt 0 view .LVU153
 499 0104 0123     		movs	r3, #1
 500 0106 84F84130 		strb	r3, [r4, #65]
 444:./Libraries/STM32F4xx_HAL_Driver/Src/stm32f4xx_hal_i2s_ex.c **** 
 501              		.loc 1 444 5 is_stmt 1 view .LVU154
 444:./Libraries/STM32F4xx_HAL_Driver/Src/stm32f4xx_hal_i2s_ex.c **** 
 502              		.loc 1 444 5 view .LVU155
 503 010a 4FF00008 		mov	r8, #0
 504 010e 84F84080 		strb	r8, [r4, #64]
 444:./Libraries/STM32F4xx_HAL_Driver/Src/stm32f4xx_hal_i2s_ex.c **** 
 505              		.loc 1 444 5 view .LVU156
 446:./Libraries/STM32F4xx_HAL_Driver/Src/stm32f4xx_hal_i2s_ex.c ****   }
 506              		.loc 1 446 5 view .LVU157
 446:./Libraries/STM32F4xx_HAL_Driver/Src/stm32f4xx_hal_i2s_ex.c ****   }
 507              		.loc 1 446 12 is_stmt 0 view .LVU158
 508 0112 40E1     		b	.L35
 509              	.L86:
 283:./Libraries/STM32F4xx_HAL_Driver/Src/stm32f4xx_hal_i2s_ex.c ****           {
 510              		.loc 1 283 11 is_stmt 1 view .LVU159
 283:./Libraries/STM32F4xx_HAL_Driver/Src/stm32f4xx_hal_i2s_ex.c ****           {
 511              		.loc 1 283 15 is_stmt 0 view .LVU160
 512 0114 0023     		movs	r3, #0
 513 0116 0093     		str	r3, [sp]
 514 0118 3B46     		mov	r3, r7
 515 011a 0122     		movs	r2, #1
 516 011c 0221     		movs	r1, #2
 517 011e 2046     		mov	r0, r4
 518 0120 FFF7FEFF 		bl	I2SEx_FullDuplexWaitFlagStateUntilTimeout
 519              	.LVL21:
 283:./Libraries/STM32F4xx_HAL_Driver/Src/stm32f4xx_hal_i2s_ex.c ****           {
 520              		.loc 1 283 14 view .LVU161
 521 0124 10BB     		cbnz	r0, .L88
 291:./Libraries/STM32F4xx_HAL_Driver/Src/stm32f4xx_hal_i2s_ex.c ****           hi2s->TxXferCount--;
 522              		.loc 1 291 11 is_stmt 1 view .LVU162
 523              	.LVL22:
 291:./Libraries/STM32F4xx_HAL_Driver/Src/stm32f4xx_hal_i2s_ex.c ****           hi2s->TxXferCount--;
 524              		.loc 1 291 15 is_stmt 0 view .LVU163
 525 0126 2368     		ldr	r3, [r4]
 291:./Libraries/STM32F4xx_HAL_Driver/Src/stm32f4xx_hal_i2s_ex.c ****           hi2s->TxXferCount--;
 526              		.loc 1 291 33 view .LVU164
 527 0128 36F8022B 		ldrh	r2, [r6], #2
 528              	.LVL23:
 291:./Libraries/STM32F4xx_HAL_Driver/Src/stm32f4xx_hal_i2s_ex.c ****           hi2s->TxXferCount--;
 529              		.loc 1 291 30 view .LVU165
 530 012c DA60     		str	r2, [r3, #12]
 292:./Libraries/STM32F4xx_HAL_Driver/Src/stm32f4xx_hal_i2s_ex.c **** 
 531              		.loc 1 292 11 is_stmt 1 view .LVU166
ARM GAS  /tmp/ccfbD6Jk.s 			page 33


 292:./Libraries/STM32F4xx_HAL_Driver/Src/stm32f4xx_hal_i2s_ex.c **** 
 532              		.loc 1 292 15 is_stmt 0 view .LVU167
 533 012e 638D     		ldrh	r3, [r4, #42]
 534 0130 9BB2     		uxth	r3, r3
 292:./Libraries/STM32F4xx_HAL_Driver/Src/stm32f4xx_hal_i2s_ex.c **** 
 535              		.loc 1 292 28 view .LVU168
 536 0132 013B     		subs	r3, r3, #1
 537 0134 9BB2     		uxth	r3, r3
 538 0136 6385     		strh	r3, [r4, #42]	@ movhi
 295:./Libraries/STM32F4xx_HAL_Driver/Src/stm32f4xx_hal_i2s_ex.c ****           {
 539              		.loc 1 295 11 is_stmt 1 view .LVU169
 295:./Libraries/STM32F4xx_HAL_Driver/Src/stm32f4xx_hal_i2s_ex.c ****           {
 540              		.loc 1 295 15 is_stmt 0 view .LVU170
 541 0138 2368     		ldr	r3, [r4]
 542 013a 9A68     		ldr	r2, [r3, #8]
 295:./Libraries/STM32F4xx_HAL_Driver/Src/stm32f4xx_hal_i2s_ex.c ****           {
 543              		.loc 1 295 13 view .LVU171
 544 013c 12F0080F 		tst	r2, #8
 545 0140 D4D0     		beq	.L45
 295:./Libraries/STM32F4xx_HAL_Driver/Src/stm32f4xx_hal_i2s_ex.c ****           {
 546              		.loc 1 295 62 discriminator 1 view .LVU172
 547 0142 B9F1000F 		cmp	r9, #0
 548 0146 D1D1     		bne	.L45
 298:./Libraries/STM32F4xx_HAL_Driver/Src/stm32f4xx_hal_i2s_ex.c **** 
 549              		.loc 1 298 13 is_stmt 1 view .LVU173
 550              	.LBB4:
 298:./Libraries/STM32F4xx_HAL_Driver/Src/stm32f4xx_hal_i2s_ex.c **** 
 551              		.loc 1 298 13 view .LVU174
 552 0148 0022     		movs	r2, #0
 553 014a 0392     		str	r2, [sp, #12]
 298:./Libraries/STM32F4xx_HAL_Driver/Src/stm32f4xx_hal_i2s_ex.c **** 
 554              		.loc 1 298 13 view .LVU175
 555 014c 9B68     		ldr	r3, [r3, #8]
 556 014e 0393     		str	r3, [sp, #12]
 298:./Libraries/STM32F4xx_HAL_Driver/Src/stm32f4xx_hal_i2s_ex.c **** 
 557              		.loc 1 298 13 view .LVU176
 558 0150 039B     		ldr	r3, [sp, #12]
 559              	.LBE4:
 298:./Libraries/STM32F4xx_HAL_Driver/Src/stm32f4xx_hal_i2s_ex.c **** 
 560              		.loc 1 298 13 view .LVU177
 301:./Libraries/STM32F4xx_HAL_Driver/Src/stm32f4xx_hal_i2s_ex.c **** 
 561              		.loc 1 301 13 view .LVU178
 301:./Libraries/STM32F4xx_HAL_Driver/Src/stm32f4xx_hal_i2s_ex.c **** 
 562              		.loc 1 301 25 is_stmt 0 view .LVU179
 563 0152 0123     		movs	r3, #1
 564 0154 84F84130 		strb	r3, [r4, #65]
 304:./Libraries/STM32F4xx_HAL_Driver/Src/stm32f4xx_hal_i2s_ex.c **** 
 565              		.loc 1 304 13 is_stmt 1 view .LVU180
 304:./Libraries/STM32F4xx_HAL_Driver/Src/stm32f4xx_hal_i2s_ex.c **** 
 566              		.loc 1 304 13 view .LVU181
 567 0158 84F84020 		strb	r2, [r4, #64]
 304:./Libraries/STM32F4xx_HAL_Driver/Src/stm32f4xx_hal_i2s_ex.c **** 
 568              		.loc 1 304 13 view .LVU182
 307:./Libraries/STM32F4xx_HAL_Driver/Src/stm32f4xx_hal_i2s_ex.c ****             HAL_I2S_ErrorCallback(hi2s);
 569              		.loc 1 307 13 view .LVU183
 570 015c 636C     		ldr	r3, [r4, #68]
 571 015e 43F00403 		orr	r3, r3, #4
ARM GAS  /tmp/ccfbD6Jk.s 			page 34


 572 0162 6364     		str	r3, [r4, #68]
 308:./Libraries/STM32F4xx_HAL_Driver/Src/stm32f4xx_hal_i2s_ex.c **** 
 573              		.loc 1 308 13 view .LVU184
 574 0164 2046     		mov	r0, r4
 575 0166 FFF7FEFF 		bl	HAL_I2S_ErrorCallback
 576              	.LVL24:
 310:./Libraries/STM32F4xx_HAL_Driver/Src/stm32f4xx_hal_i2s_ex.c ****           }
 577              		.loc 1 310 13 view .LVU185
 310:./Libraries/STM32F4xx_HAL_Driver/Src/stm32f4xx_hal_i2s_ex.c ****           }
 578              		.loc 1 310 20 is_stmt 0 view .LVU186
 579 016a 14E1     		b	.L35
 580              	.L88:
 286:./Libraries/STM32F4xx_HAL_Driver/Src/stm32f4xx_hal_i2s_ex.c ****             HAL_I2S_ErrorCallback(hi2s);
 581              		.loc 1 286 13 is_stmt 1 view .LVU187
 582 016c 636C     		ldr	r3, [r4, #68]
 583 016e 43F00103 		orr	r3, r3, #1
 584 0172 6364     		str	r3, [r4, #68]
 287:./Libraries/STM32F4xx_HAL_Driver/Src/stm32f4xx_hal_i2s_ex.c ****             return HAL_TIMEOUT;
 585              		.loc 1 287 13 view .LVU188
 586 0174 2046     		mov	r0, r4
 587 0176 FFF7FEFF 		bl	HAL_I2S_ErrorCallback
 588              	.LVL25:
 288:./Libraries/STM32F4xx_HAL_Driver/Src/stm32f4xx_hal_i2s_ex.c ****           }
 589              		.loc 1 288 13 view .LVU189
 288:./Libraries/STM32F4xx_HAL_Driver/Src/stm32f4xx_hal_i2s_ex.c ****           }
 590              		.loc 1 288 20 is_stmt 0 view .LVU190
 591 017a 4FF00308 		mov	r8, #3
 592 017e 0AE1     		b	.L35
 593              	.L87:
 316:./Libraries/STM32F4xx_HAL_Driver/Src/stm32f4xx_hal_i2s_ex.c ****           {
 594              		.loc 1 316 11 is_stmt 1 view .LVU191
 316:./Libraries/STM32F4xx_HAL_Driver/Src/stm32f4xx_hal_i2s_ex.c ****           {
 595              		.loc 1 316 15 is_stmt 0 view .LVU192
 596 0180 0121     		movs	r1, #1
 597 0182 0091     		str	r1, [sp]
 598 0184 3B46     		mov	r3, r7
 599 0186 0A46     		mov	r2, r1
 600 0188 2046     		mov	r0, r4
 601 018a FFF7FEFF 		bl	I2SEx_FullDuplexWaitFlagStateUntilTimeout
 602              	.LVL26:
 316:./Libraries/STM32F4xx_HAL_Driver/Src/stm32f4xx_hal_i2s_ex.c ****           {
 603              		.loc 1 316 14 view .LVU193
 604 018e 58BB     		cbnz	r0, .L89
 324:./Libraries/STM32F4xx_HAL_Driver/Src/stm32f4xx_hal_i2s_ex.c ****           hi2s->RxXferCount--;
 605              		.loc 1 324 11 is_stmt 1 view .LVU194
 324:./Libraries/STM32F4xx_HAL_Driver/Src/stm32f4xx_hal_i2s_ex.c ****           hi2s->RxXferCount--;
 606              		.loc 1 324 26 is_stmt 0 view .LVU195
 607 0190 2268     		ldr	r2, [r4]
 608 0192 604B     		ldr	r3, .L100
 609 0194 9A42     		cmp	r2, r3
 610 0196 31D0     		beq	.L90
 611 0198 4FF04023 		mov	r3, #1073758208
 612              	.L49:
 324:./Libraries/STM32F4xx_HAL_Driver/Src/stm32f4xx_hal_i2s_ex.c ****           hi2s->RxXferCount--;
 613              		.loc 1 324 49 discriminator 4 view .LVU196
 614 019c DB68     		ldr	r3, [r3, #12]
 615              	.LVL27:
ARM GAS  /tmp/ccfbD6Jk.s 			page 35


 324:./Libraries/STM32F4xx_HAL_Driver/Src/stm32f4xx_hal_i2s_ex.c ****           hi2s->RxXferCount--;
 616              		.loc 1 324 24 discriminator 4 view .LVU197
 617 019e 25F8023B 		strh	r3, [r5], #2	@ movhi
 618              	.LVL28:
 325:./Libraries/STM32F4xx_HAL_Driver/Src/stm32f4xx_hal_i2s_ex.c **** 
 619              		.loc 1 325 11 is_stmt 1 discriminator 4 view .LVU198
 325:./Libraries/STM32F4xx_HAL_Driver/Src/stm32f4xx_hal_i2s_ex.c **** 
 620              		.loc 1 325 15 is_stmt 0 discriminator 4 view .LVU199
 621 01a2 638E     		ldrh	r3, [r4, #50]
 622 01a4 9BB2     		uxth	r3, r3
 325:./Libraries/STM32F4xx_HAL_Driver/Src/stm32f4xx_hal_i2s_ex.c **** 
 623              		.loc 1 325 28 discriminator 4 view .LVU200
 624 01a6 013B     		subs	r3, r3, #1
 625 01a8 9BB2     		uxth	r3, r3
 626 01aa 6386     		strh	r3, [r4, #50]	@ movhi
 328:./Libraries/STM32F4xx_HAL_Driver/Src/stm32f4xx_hal_i2s_ex.c ****           {
 627              		.loc 1 328 11 is_stmt 1 discriminator 4 view .LVU201
 328:./Libraries/STM32F4xx_HAL_Driver/Src/stm32f4xx_hal_i2s_ex.c ****           {
 628              		.loc 1 328 14 is_stmt 0 discriminator 4 view .LVU202
 629 01ac 2368     		ldr	r3, [r4]
 630 01ae 594A     		ldr	r2, .L100
 631 01b0 9342     		cmp	r3, r2
 632 01b2 26D0     		beq	.L91
 328:./Libraries/STM32F4xx_HAL_Driver/Src/stm32f4xx_hal_i2s_ex.c ****           {
 633              		.loc 1 328 14 view .LVU203
 634 01b4 4FF04022 		mov	r2, #1073758208
 635              	.L50:
 328:./Libraries/STM32F4xx_HAL_Driver/Src/stm32f4xx_hal_i2s_ex.c ****           {
 636              		.loc 1 328 14 discriminator 4 view .LVU204
 637 01b8 9268     		ldr	r2, [r2, #8]
 328:./Libraries/STM32F4xx_HAL_Driver/Src/stm32f4xx_hal_i2s_ex.c ****           {
 638              		.loc 1 328 13 discriminator 4 view .LVU205
 639 01ba 12F0400F 		tst	r2, #64
 640 01be 99D0     		beq	.L44
 331:./Libraries/STM32F4xx_HAL_Driver/Src/stm32f4xx_hal_i2s_ex.c **** 
 641              		.loc 1 331 13 is_stmt 1 view .LVU206
 642              	.LBB5:
 331:./Libraries/STM32F4xx_HAL_Driver/Src/stm32f4xx_hal_i2s_ex.c **** 
 643              		.loc 1 331 13 view .LVU207
 644 01c0 0022     		movs	r2, #0
 645 01c2 0492     		str	r2, [sp, #16]
 331:./Libraries/STM32F4xx_HAL_Driver/Src/stm32f4xx_hal_i2s_ex.c **** 
 646              		.loc 1 331 13 view .LVU208
 647 01c4 D968     		ldr	r1, [r3, #12]
 648 01c6 0491     		str	r1, [sp, #16]
 331:./Libraries/STM32F4xx_HAL_Driver/Src/stm32f4xx_hal_i2s_ex.c **** 
 649              		.loc 1 331 13 view .LVU209
 650 01c8 9B68     		ldr	r3, [r3, #8]
 651 01ca 0493     		str	r3, [sp, #16]
 331:./Libraries/STM32F4xx_HAL_Driver/Src/stm32f4xx_hal_i2s_ex.c **** 
 652              		.loc 1 331 13 view .LVU210
 653 01cc 049B     		ldr	r3, [sp, #16]
 654              	.LBE5:
 331:./Libraries/STM32F4xx_HAL_Driver/Src/stm32f4xx_hal_i2s_ex.c **** 
 655              		.loc 1 331 13 view .LVU211
 334:./Libraries/STM32F4xx_HAL_Driver/Src/stm32f4xx_hal_i2s_ex.c **** 
 656              		.loc 1 334 13 view .LVU212
ARM GAS  /tmp/ccfbD6Jk.s 			page 36


 334:./Libraries/STM32F4xx_HAL_Driver/Src/stm32f4xx_hal_i2s_ex.c **** 
 657              		.loc 1 334 25 is_stmt 0 view .LVU213
 658 01ce 0123     		movs	r3, #1
 659 01d0 84F84130 		strb	r3, [r4, #65]
 337:./Libraries/STM32F4xx_HAL_Driver/Src/stm32f4xx_hal_i2s_ex.c **** 
 660              		.loc 1 337 13 is_stmt 1 view .LVU214
 337:./Libraries/STM32F4xx_HAL_Driver/Src/stm32f4xx_hal_i2s_ex.c **** 
 661              		.loc 1 337 13 view .LVU215
 662 01d4 84F84020 		strb	r2, [r4, #64]
 337:./Libraries/STM32F4xx_HAL_Driver/Src/stm32f4xx_hal_i2s_ex.c **** 
 663              		.loc 1 337 13 view .LVU216
 340:./Libraries/STM32F4xx_HAL_Driver/Src/stm32f4xx_hal_i2s_ex.c ****             HAL_I2S_ErrorCallback(hi2s);
 664              		.loc 1 340 13 view .LVU217
 665 01d8 636C     		ldr	r3, [r4, #68]
 666 01da 43F00203 		orr	r3, r3, #2
 667 01de 6364     		str	r3, [r4, #68]
 341:./Libraries/STM32F4xx_HAL_Driver/Src/stm32f4xx_hal_i2s_ex.c **** 
 668              		.loc 1 341 13 view .LVU218
 669 01e0 2046     		mov	r0, r4
 670 01e2 FFF7FEFF 		bl	HAL_I2S_ErrorCallback
 671              	.LVL29:
 343:./Libraries/STM32F4xx_HAL_Driver/Src/stm32f4xx_hal_i2s_ex.c ****           }
 672              		.loc 1 343 13 view .LVU219
 343:./Libraries/STM32F4xx_HAL_Driver/Src/stm32f4xx_hal_i2s_ex.c ****           }
 673              		.loc 1 343 20 is_stmt 0 view .LVU220
 674 01e6 D6E0     		b	.L35
 675              	.L89:
 319:./Libraries/STM32F4xx_HAL_Driver/Src/stm32f4xx_hal_i2s_ex.c ****             HAL_I2S_ErrorCallback(hi2s);
 676              		.loc 1 319 13 is_stmt 1 view .LVU221
 677 01e8 636C     		ldr	r3, [r4, #68]
 678 01ea 43F00103 		orr	r3, r3, #1
 679 01ee 6364     		str	r3, [r4, #68]
 320:./Libraries/STM32F4xx_HAL_Driver/Src/stm32f4xx_hal_i2s_ex.c ****             return HAL_TIMEOUT;
 680              		.loc 1 320 13 view .LVU222
 681 01f0 2046     		mov	r0, r4
 682 01f2 FFF7FEFF 		bl	HAL_I2S_ErrorCallback
 683              	.LVL30:
 321:./Libraries/STM32F4xx_HAL_Driver/Src/stm32f4xx_hal_i2s_ex.c ****           }
 684              		.loc 1 321 13 view .LVU223
 321:./Libraries/STM32F4xx_HAL_Driver/Src/stm32f4xx_hal_i2s_ex.c ****           }
 685              		.loc 1 321 20 is_stmt 0 view .LVU224
 686 01f6 4FF00308 		mov	r8, #3
 687 01fa CCE0     		b	.L35
 688              	.L90:
 324:./Libraries/STM32F4xx_HAL_Driver/Src/stm32f4xx_hal_i2s_ex.c ****           hi2s->RxXferCount--;
 689              		.loc 1 324 26 view .LVU225
 690 01fc A3F58063 		sub	r3, r3, #1024
 691 0200 CCE7     		b	.L49
 692              	.L91:
 328:./Libraries/STM32F4xx_HAL_Driver/Src/stm32f4xx_hal_i2s_ex.c ****           {
 693              		.loc 1 328 14 view .LVU226
 694 0202 A2F58062 		sub	r2, r2, #1024
 695 0206 D7E7     		b	.L50
 696              	.LVL31:
 697              	.L40:
 352:./Libraries/STM32F4xx_HAL_Driver/Src/stm32f4xx_hal_i2s_ex.c ****       hi2s->TxXferCount--;
 698              		.loc 1 352 7 is_stmt 1 view .LVU227
ARM GAS  /tmp/ccfbD6Jk.s 			page 37


 352:./Libraries/STM32F4xx_HAL_Driver/Src/stm32f4xx_hal_i2s_ex.c ****       hi2s->TxXferCount--;
 699              		.loc 1 352 38 is_stmt 0 view .LVU228
 700 0208 36F8022B 		ldrh	r2, [r6], #2
 701              	.LVL32:
 352:./Libraries/STM32F4xx_HAL_Driver/Src/stm32f4xx_hal_i2s_ex.c ****       hi2s->TxXferCount--;
 702              		.loc 1 352 7 view .LVU229
 703 020c 414B     		ldr	r3, .L100
 704 020e 9942     		cmp	r1, r3
 705 0210 25D0     		beq	.L92
 706 0212 4FF04023 		mov	r3, #1073758208
 707              	.L53:
 352:./Libraries/STM32F4xx_HAL_Driver/Src/stm32f4xx_hal_i2s_ex.c ****       hi2s->TxXferCount--;
 708              		.loc 1 352 35 discriminator 4 view .LVU230
 709 0216 DA60     		str	r2, [r3, #12]
 353:./Libraries/STM32F4xx_HAL_Driver/Src/stm32f4xx_hal_i2s_ex.c **** 
 710              		.loc 1 353 7 is_stmt 1 discriminator 4 view .LVU231
 353:./Libraries/STM32F4xx_HAL_Driver/Src/stm32f4xx_hal_i2s_ex.c **** 
 711              		.loc 1 353 11 is_stmt 0 discriminator 4 view .LVU232
 712 0218 638D     		ldrh	r3, [r4, #42]
 713 021a 9BB2     		uxth	r3, r3
 353:./Libraries/STM32F4xx_HAL_Driver/Src/stm32f4xx_hal_i2s_ex.c **** 
 714              		.loc 1 353 24 discriminator 4 view .LVU233
 715 021c 013B     		subs	r3, r3, #1
 716 021e 9BB2     		uxth	r3, r3
 717 0220 6385     		strh	r3, [r4, #42]	@ movhi
 356:./Libraries/STM32F4xx_HAL_Driver/Src/stm32f4xx_hal_i2s_ex.c ****       
 718              		.loc 1 356 7 is_stmt 1 discriminator 4 view .LVU234
 719 0222 2268     		ldr	r2, [r4]
 720 0224 3B4B     		ldr	r3, .L100
 721 0226 9A42     		cmp	r2, r3
 722 0228 1CD0     		beq	.L93
 356:./Libraries/STM32F4xx_HAL_Driver/Src/stm32f4xx_hal_i2s_ex.c ****       
 723              		.loc 1 356 7 is_stmt 0 view .LVU235
 724 022a 4FF04022 		mov	r2, #1073758208
 725              	.L54:
 356:./Libraries/STM32F4xx_HAL_Driver/Src/stm32f4xx_hal_i2s_ex.c ****       
 726              		.loc 1 356 7 discriminator 4 view .LVU236
 727 022e D369     		ldr	r3, [r2, #28]
 728 0230 43F48063 		orr	r3, r3, #1024
 729 0234 D361     		str	r3, [r2, #28]
 359:./Libraries/STM32F4xx_HAL_Driver/Src/stm32f4xx_hal_i2s_ex.c **** 
 730              		.loc 1 359 7 is_stmt 1 discriminator 4 view .LVU237
 731 0236 2268     		ldr	r2, [r4]
 732 0238 D369     		ldr	r3, [r2, #28]
 733 023a 43F48063 		orr	r3, r3, #1024
 734 023e D361     		str	r3, [r2, #28]
 362:./Libraries/STM32F4xx_HAL_Driver/Src/stm32f4xx_hal_i2s_ex.c ****       {
 735              		.loc 1 362 7 discriminator 4 view .LVU238
 362:./Libraries/STM32F4xx_HAL_Driver/Src/stm32f4xx_hal_i2s_ex.c ****       {
 736              		.loc 1 362 15 is_stmt 0 discriminator 4 view .LVU239
 737 0240 2268     		ldr	r2, [r4]
 362:./Libraries/STM32F4xx_HAL_Driver/Src/stm32f4xx_hal_i2s_ex.c ****       {
 738              		.loc 1 362 25 discriminator 4 view .LVU240
 739 0242 D369     		ldr	r3, [r2, #28]
 362:./Libraries/STM32F4xx_HAL_Driver/Src/stm32f4xx_hal_i2s_ex.c ****       {
 740              		.loc 1 362 35 discriminator 4 view .LVU241
 741 0244 03F44073 		and	r3, r3, #768
ARM GAS  /tmp/ccfbD6Jk.s 			page 38


 362:./Libraries/STM32F4xx_HAL_Driver/Src/stm32f4xx_hal_i2s_ex.c ****       {
 742              		.loc 1 362 9 discriminator 4 view .LVU242
 743 0248 B3F5407F 		cmp	r3, #768
 744 024c 13D1     		bne	.L56
 366:./Libraries/STM32F4xx_HAL_Driver/Src/stm32f4xx_hal_i2s_ex.c ****       }
 745              		.loc 1 366 9 is_stmt 1 view .LVU243
 746              	.LBB6:
 366:./Libraries/STM32F4xx_HAL_Driver/Src/stm32f4xx_hal_i2s_ex.c ****       }
 747              		.loc 1 366 9 view .LVU244
 748 024e 0023     		movs	r3, #0
 749 0250 0593     		str	r3, [sp, #20]
 366:./Libraries/STM32F4xx_HAL_Driver/Src/stm32f4xx_hal_i2s_ex.c ****       }
 750              		.loc 1 366 9 view .LVU245
 751 0252 D368     		ldr	r3, [r2, #12]
 752 0254 0593     		str	r3, [sp, #20]
 366:./Libraries/STM32F4xx_HAL_Driver/Src/stm32f4xx_hal_i2s_ex.c ****       }
 753              		.loc 1 366 9 view .LVU246
 754 0256 9368     		ldr	r3, [r2, #8]
 755 0258 0593     		str	r3, [sp, #20]
 366:./Libraries/STM32F4xx_HAL_Driver/Src/stm32f4xx_hal_i2s_ex.c ****       }
 756              		.loc 1 366 9 view .LVU247
 757 025a 059B     		ldr	r3, [sp, #20]
 758 025c 0BE0     		b	.L56
 759              	.L92:
 366:./Libraries/STM32F4xx_HAL_Driver/Src/stm32f4xx_hal_i2s_ex.c ****       }
 760              		.loc 1 366 9 is_stmt 0 view .LVU248
 761              	.LBE6:
 352:./Libraries/STM32F4xx_HAL_Driver/Src/stm32f4xx_hal_i2s_ex.c ****       hi2s->TxXferCount--;
 762              		.loc 1 352 7 view .LVU249
 763 025e A3F58063 		sub	r3, r3, #1024
 764 0262 D8E7     		b	.L53
 765              	.L93:
 356:./Libraries/STM32F4xx_HAL_Driver/Src/stm32f4xx_hal_i2s_ex.c ****       
 766              		.loc 1 356 7 view .LVU250
 767 0264 2C4A     		ldr	r2, .L100+4
 768 0266 E2E7     		b	.L54
 769              	.LVL33:
 770              	.L63:
 371:./Libraries/STM32F4xx_HAL_Driver/Src/stm32f4xx_hal_i2s_ex.c ****         {
 771              		.loc 1 371 9 is_stmt 1 view .LVU251
 371:./Libraries/STM32F4xx_HAL_Driver/Src/stm32f4xx_hal_i2s_ex.c ****         {
 772              		.loc 1 371 16 is_stmt 0 view .LVU252
 773 0268 638D     		ldrh	r3, [r4, #42]
 774 026a 9BB2     		uxth	r3, r3
 371:./Libraries/STM32F4xx_HAL_Driver/Src/stm32f4xx_hal_i2s_ex.c ****         {
 775              		.loc 1 371 11 view .LVU253
 776 026c 63B9     		cbnz	r3, .L94
 777              	.L57:
 404:./Libraries/STM32F4xx_HAL_Driver/Src/stm32f4xx_hal_i2s_ex.c ****         {
 778              		.loc 1 404 9 is_stmt 1 view .LVU254
 404:./Libraries/STM32F4xx_HAL_Driver/Src/stm32f4xx_hal_i2s_ex.c ****         {
 779              		.loc 1 404 16 is_stmt 0 view .LVU255
 780 026e 638E     		ldrh	r3, [r4, #50]
 781 0270 9BB2     		uxth	r3, r3
 404:./Libraries/STM32F4xx_HAL_Driver/Src/stm32f4xx_hal_i2s_ex.c ****         {
 782              		.loc 1 404 11 view .LVU256
 783 0272 002B     		cmp	r3, #0
ARM GAS  /tmp/ccfbD6Jk.s 			page 39


 784 0274 52D1     		bne	.L95
 785              	.L56:
 369:./Libraries/STM32F4xx_HAL_Driver/Src/stm32f4xx_hal_i2s_ex.c ****       {
 786              		.loc 1 369 12 is_stmt 1 view .LVU257
 369:./Libraries/STM32F4xx_HAL_Driver/Src/stm32f4xx_hal_i2s_ex.c ****       {
 787              		.loc 1 369 18 is_stmt 0 view .LVU258
 788 0276 638E     		ldrh	r3, [r4, #50]
 789 0278 9BB2     		uxth	r3, r3
 369:./Libraries/STM32F4xx_HAL_Driver/Src/stm32f4xx_hal_i2s_ex.c ****       {
 790              		.loc 1 369 12 view .LVU259
 791 027a 002B     		cmp	r3, #0
 792 027c F4D1     		bne	.L63
 369:./Libraries/STM32F4xx_HAL_Driver/Src/stm32f4xx_hal_i2s_ex.c ****       {
 793              		.loc 1 369 46 discriminator 1 view .LVU260
 794 027e 638D     		ldrh	r3, [r4, #42]
 795 0280 9BB2     		uxth	r3, r3
 369:./Libraries/STM32F4xx_HAL_Driver/Src/stm32f4xx_hal_i2s_ex.c ****       {
 796              		.loc 1 369 38 discriminator 1 view .LVU261
 797 0282 002B     		cmp	r3, #0
 798 0284 F0D1     		bne	.L63
 799 0286 3DE7     		b	.L52
 800              	.L94:
 374:./Libraries/STM32F4xx_HAL_Driver/Src/stm32f4xx_hal_i2s_ex.c ****           {
 801              		.loc 1 374 11 is_stmt 1 view .LVU262
 374:./Libraries/STM32F4xx_HAL_Driver/Src/stm32f4xx_hal_i2s_ex.c ****           {
 802              		.loc 1 374 15 is_stmt 0 view .LVU263
 803 0288 0122     		movs	r2, #1
 804 028a 0092     		str	r2, [sp]
 805 028c 3B46     		mov	r3, r7
 806 028e 0221     		movs	r1, #2
 807 0290 2046     		mov	r0, r4
 808 0292 FFF7FEFF 		bl	I2SEx_FullDuplexWaitFlagStateUntilTimeout
 809              	.LVL34:
 374:./Libraries/STM32F4xx_HAL_Driver/Src/stm32f4xx_hal_i2s_ex.c ****           {
 810              		.loc 1 374 14 view .LVU264
 811 0296 60BB     		cbnz	r0, .L96
 382:./Libraries/STM32F4xx_HAL_Driver/Src/stm32f4xx_hal_i2s_ex.c ****           hi2s->TxXferCount--;
 812              		.loc 1 382 11 is_stmt 1 view .LVU265
 813              	.LVL35:
 382:./Libraries/STM32F4xx_HAL_Driver/Src/stm32f4xx_hal_i2s_ex.c ****           hi2s->TxXferCount--;
 814              		.loc 1 382 42 is_stmt 0 view .LVU266
 815 0298 36F8022B 		ldrh	r2, [r6], #2
 816              	.LVL36:
 382:./Libraries/STM32F4xx_HAL_Driver/Src/stm32f4xx_hal_i2s_ex.c ****           hi2s->TxXferCount--;
 817              		.loc 1 382 11 view .LVU267
 818 029c 2168     		ldr	r1, [r4]
 819 029e 1D4B     		ldr	r3, .L100
 820 02a0 9942     		cmp	r1, r3
 821 02a2 30D0     		beq	.L97
 822 02a4 4FF04023 		mov	r3, #1073758208
 823              	.L59:
 382:./Libraries/STM32F4xx_HAL_Driver/Src/stm32f4xx_hal_i2s_ex.c ****           hi2s->TxXferCount--;
 824              		.loc 1 382 39 discriminator 4 view .LVU268
 825 02a8 DA60     		str	r2, [r3, #12]
 383:./Libraries/STM32F4xx_HAL_Driver/Src/stm32f4xx_hal_i2s_ex.c **** 
 826              		.loc 1 383 11 is_stmt 1 discriminator 4 view .LVU269
 383:./Libraries/STM32F4xx_HAL_Driver/Src/stm32f4xx_hal_i2s_ex.c **** 
ARM GAS  /tmp/ccfbD6Jk.s 			page 40


 827              		.loc 1 383 15 is_stmt 0 discriminator 4 view .LVU270
 828 02aa 638D     		ldrh	r3, [r4, #42]
 829 02ac 9BB2     		uxth	r3, r3
 383:./Libraries/STM32F4xx_HAL_Driver/Src/stm32f4xx_hal_i2s_ex.c **** 
 830              		.loc 1 383 28 discriminator 4 view .LVU271
 831 02ae 013B     		subs	r3, r3, #1
 832 02b0 9BB2     		uxth	r3, r3
 833 02b2 6385     		strh	r3, [r4, #42]	@ movhi
 386:./Libraries/STM32F4xx_HAL_Driver/Src/stm32f4xx_hal_i2s_ex.c ****           {
 834              		.loc 1 386 11 is_stmt 1 discriminator 4 view .LVU272
 386:./Libraries/STM32F4xx_HAL_Driver/Src/stm32f4xx_hal_i2s_ex.c ****           {
 835              		.loc 1 386 15 is_stmt 0 discriminator 4 view .LVU273
 836 02b4 2368     		ldr	r3, [r4]
 837 02b6 174A     		ldr	r2, .L100
 838 02b8 9342     		cmp	r3, r2
 839 02ba 27D0     		beq	.L98
 386:./Libraries/STM32F4xx_HAL_Driver/Src/stm32f4xx_hal_i2s_ex.c ****           {
 840              		.loc 1 386 15 view .LVU274
 841 02bc 4FF04022 		mov	r2, #1073758208
 842              	.L60:
 386:./Libraries/STM32F4xx_HAL_Driver/Src/stm32f4xx_hal_i2s_ex.c ****           {
 843              		.loc 1 386 15 discriminator 4 view .LVU275
 844 02c0 9268     		ldr	r2, [r2, #8]
 386:./Libraries/STM32F4xx_HAL_Driver/Src/stm32f4xx_hal_i2s_ex.c ****           {
 845              		.loc 1 386 13 discriminator 4 view .LVU276
 846 02c2 12F0080F 		tst	r2, #8
 847 02c6 D2D0     		beq	.L57
 386:./Libraries/STM32F4xx_HAL_Driver/Src/stm32f4xx_hal_i2s_ex.c ****           {
 848              		.loc 1 386 65 discriminator 5 view .LVU277
 849 02c8 B9F5807F 		cmp	r9, #256
 850 02cc CFD1     		bne	.L57
 389:./Libraries/STM32F4xx_HAL_Driver/Src/stm32f4xx_hal_i2s_ex.c **** 
 851              		.loc 1 389 13 is_stmt 1 view .LVU278
 852              	.LBB7:
 389:./Libraries/STM32F4xx_HAL_Driver/Src/stm32f4xx_hal_i2s_ex.c **** 
 853              		.loc 1 389 13 view .LVU279
 854 02ce 0022     		movs	r2, #0
 855 02d0 0692     		str	r2, [sp, #24]
 389:./Libraries/STM32F4xx_HAL_Driver/Src/stm32f4xx_hal_i2s_ex.c **** 
 856              		.loc 1 389 13 view .LVU280
 857 02d2 9B68     		ldr	r3, [r3, #8]
 858 02d4 0693     		str	r3, [sp, #24]
 389:./Libraries/STM32F4xx_HAL_Driver/Src/stm32f4xx_hal_i2s_ex.c **** 
 859              		.loc 1 389 13 view .LVU281
 860 02d6 069B     		ldr	r3, [sp, #24]
 861              	.LBE7:
 389:./Libraries/STM32F4xx_HAL_Driver/Src/stm32f4xx_hal_i2s_ex.c **** 
 862              		.loc 1 389 13 view .LVU282
 392:./Libraries/STM32F4xx_HAL_Driver/Src/stm32f4xx_hal_i2s_ex.c **** 
 863              		.loc 1 392 13 view .LVU283
 392:./Libraries/STM32F4xx_HAL_Driver/Src/stm32f4xx_hal_i2s_ex.c **** 
 864              		.loc 1 392 25 is_stmt 0 view .LVU284
 865 02d8 0123     		movs	r3, #1
 866 02da 84F84130 		strb	r3, [r4, #65]
 395:./Libraries/STM32F4xx_HAL_Driver/Src/stm32f4xx_hal_i2s_ex.c **** 
 867              		.loc 1 395 13 is_stmt 1 view .LVU285
 395:./Libraries/STM32F4xx_HAL_Driver/Src/stm32f4xx_hal_i2s_ex.c **** 
ARM GAS  /tmp/ccfbD6Jk.s 			page 41


 868              		.loc 1 395 13 view .LVU286
 869 02de 84F84020 		strb	r2, [r4, #64]
 395:./Libraries/STM32F4xx_HAL_Driver/Src/stm32f4xx_hal_i2s_ex.c **** 
 870              		.loc 1 395 13 view .LVU287
 398:./Libraries/STM32F4xx_HAL_Driver/Src/stm32f4xx_hal_i2s_ex.c ****             HAL_I2S_ErrorCallback(hi2s);
 871              		.loc 1 398 13 view .LVU288
 872 02e2 636C     		ldr	r3, [r4, #68]
 873 02e4 43F00403 		orr	r3, r3, #4
 874 02e8 6364     		str	r3, [r4, #68]
 399:./Libraries/STM32F4xx_HAL_Driver/Src/stm32f4xx_hal_i2s_ex.c **** 
 875              		.loc 1 399 13 view .LVU289
 876 02ea 2046     		mov	r0, r4
 877 02ec FFF7FEFF 		bl	HAL_I2S_ErrorCallback
 878              	.LVL37:
 401:./Libraries/STM32F4xx_HAL_Driver/Src/stm32f4xx_hal_i2s_ex.c ****           }
 879              		.loc 1 401 13 view .LVU290
 401:./Libraries/STM32F4xx_HAL_Driver/Src/stm32f4xx_hal_i2s_ex.c ****           }
 880              		.loc 1 401 20 is_stmt 0 view .LVU291
 881 02f0 51E0     		b	.L35
 882              	.L96:
 377:./Libraries/STM32F4xx_HAL_Driver/Src/stm32f4xx_hal_i2s_ex.c ****             HAL_I2S_ErrorCallback(hi2s);
 883              		.loc 1 377 13 is_stmt 1 view .LVU292
 884 02f2 636C     		ldr	r3, [r4, #68]
 885 02f4 43F00103 		orr	r3, r3, #1
 886 02f8 6364     		str	r3, [r4, #68]
 378:./Libraries/STM32F4xx_HAL_Driver/Src/stm32f4xx_hal_i2s_ex.c ****             return HAL_TIMEOUT;
 887              		.loc 1 378 13 view .LVU293
 888 02fa 2046     		mov	r0, r4
 889 02fc FFF7FEFF 		bl	HAL_I2S_ErrorCallback
 890              	.LVL38:
 379:./Libraries/STM32F4xx_HAL_Driver/Src/stm32f4xx_hal_i2s_ex.c ****           }
 891              		.loc 1 379 13 view .LVU294
 379:./Libraries/STM32F4xx_HAL_Driver/Src/stm32f4xx_hal_i2s_ex.c ****           }
 892              		.loc 1 379 20 is_stmt 0 view .LVU295
 893 0300 4FF00308 		mov	r8, #3
 894 0304 47E0     		b	.L35
 895              	.L97:
 382:./Libraries/STM32F4xx_HAL_Driver/Src/stm32f4xx_hal_i2s_ex.c ****           hi2s->TxXferCount--;
 896              		.loc 1 382 11 view .LVU296
 897 0306 A3F58063 		sub	r3, r3, #1024
 898 030a CDE7     		b	.L59
 899              	.L98:
 386:./Libraries/STM32F4xx_HAL_Driver/Src/stm32f4xx_hal_i2s_ex.c ****           {
 900              		.loc 1 386 15 view .LVU297
 901 030c A2F58062 		sub	r2, r2, #1024
 902 0310 D6E7     		b	.L60
 903              	.L101:
 904 0312 00BF     		.align	2
 905              	.L100:
 906 0314 00380040 		.word	1073756160
 907 0318 00340040 		.word	1073755136
 908              	.L95:
 407:./Libraries/STM32F4xx_HAL_Driver/Src/stm32f4xx_hal_i2s_ex.c ****           {
 909              		.loc 1 407 11 is_stmt 1 view .LVU298
 407:./Libraries/STM32F4xx_HAL_Driver/Src/stm32f4xx_hal_i2s_ex.c ****           {
 910              		.loc 1 407 15 is_stmt 0 view .LVU299
 911 031c 0023     		movs	r3, #0
ARM GAS  /tmp/ccfbD6Jk.s 			page 42


 912 031e 0093     		str	r3, [sp]
 913 0320 3B46     		mov	r3, r7
 914 0322 0122     		movs	r2, #1
 915 0324 1146     		mov	r1, r2
 916 0326 2046     		mov	r0, r4
 917 0328 FFF7FEFF 		bl	I2SEx_FullDuplexWaitFlagStateUntilTimeout
 918              	.LVL39:
 407:./Libraries/STM32F4xx_HAL_Driver/Src/stm32f4xx_hal_i2s_ex.c ****           {
 919              		.loc 1 407 14 view .LVU300
 920 032c 08BB     		cbnz	r0, .L99
 415:./Libraries/STM32F4xx_HAL_Driver/Src/stm32f4xx_hal_i2s_ex.c ****           hi2s->RxXferCount--;
 921              		.loc 1 415 11 is_stmt 1 view .LVU301
 415:./Libraries/STM32F4xx_HAL_Driver/Src/stm32f4xx_hal_i2s_ex.c ****           hi2s->RxXferCount--;
 922              		.loc 1 415 30 is_stmt 0 view .LVU302
 923 032e 2368     		ldr	r3, [r4]
 415:./Libraries/STM32F4xx_HAL_Driver/Src/stm32f4xx_hal_i2s_ex.c ****           hi2s->RxXferCount--;
 924              		.loc 1 415 40 view .LVU303
 925 0330 DB68     		ldr	r3, [r3, #12]
 926              	.LVL40:
 415:./Libraries/STM32F4xx_HAL_Driver/Src/stm32f4xx_hal_i2s_ex.c ****           hi2s->RxXferCount--;
 927              		.loc 1 415 24 view .LVU304
 928 0332 25F8023B 		strh	r3, [r5], #2	@ movhi
 929              	.LVL41:
 416:./Libraries/STM32F4xx_HAL_Driver/Src/stm32f4xx_hal_i2s_ex.c **** 
 930              		.loc 1 416 11 is_stmt 1 view .LVU305
 416:./Libraries/STM32F4xx_HAL_Driver/Src/stm32f4xx_hal_i2s_ex.c **** 
 931              		.loc 1 416 15 is_stmt 0 view .LVU306
 932 0336 638E     		ldrh	r3, [r4, #50]
 933 0338 9BB2     		uxth	r3, r3
 416:./Libraries/STM32F4xx_HAL_Driver/Src/stm32f4xx_hal_i2s_ex.c **** 
 934              		.loc 1 416 28 view .LVU307
 935 033a 013B     		subs	r3, r3, #1
 936 033c 9BB2     		uxth	r3, r3
 937 033e 6386     		strh	r3, [r4, #50]	@ movhi
 419:./Libraries/STM32F4xx_HAL_Driver/Src/stm32f4xx_hal_i2s_ex.c ****           {
 938              		.loc 1 419 11 is_stmt 1 view .LVU308
 419:./Libraries/STM32F4xx_HAL_Driver/Src/stm32f4xx_hal_i2s_ex.c ****           {
 939              		.loc 1 419 14 is_stmt 0 view .LVU309
 940 0340 2368     		ldr	r3, [r4]
 941 0342 9A68     		ldr	r2, [r3, #8]
 419:./Libraries/STM32F4xx_HAL_Driver/Src/stm32f4xx_hal_i2s_ex.c ****           {
 942              		.loc 1 419 13 view .LVU310
 943 0344 12F0400F 		tst	r2, #64
 944 0348 95D0     		beq	.L56
 422:./Libraries/STM32F4xx_HAL_Driver/Src/stm32f4xx_hal_i2s_ex.c **** 
 945              		.loc 1 422 13 is_stmt 1 view .LVU311
 946              	.LBB8:
 422:./Libraries/STM32F4xx_HAL_Driver/Src/stm32f4xx_hal_i2s_ex.c **** 
 947              		.loc 1 422 13 view .LVU312
 948 034a 0022     		movs	r2, #0
 949 034c 0792     		str	r2, [sp, #28]
 422:./Libraries/STM32F4xx_HAL_Driver/Src/stm32f4xx_hal_i2s_ex.c **** 
 950              		.loc 1 422 13 view .LVU313
 951 034e D968     		ldr	r1, [r3, #12]
 952 0350 0791     		str	r1, [sp, #28]
 422:./Libraries/STM32F4xx_HAL_Driver/Src/stm32f4xx_hal_i2s_ex.c **** 
 953              		.loc 1 422 13 view .LVU314
ARM GAS  /tmp/ccfbD6Jk.s 			page 43


 954 0352 9B68     		ldr	r3, [r3, #8]
 955 0354 0793     		str	r3, [sp, #28]
 422:./Libraries/STM32F4xx_HAL_Driver/Src/stm32f4xx_hal_i2s_ex.c **** 
 956              		.loc 1 422 13 view .LVU315
 957 0356 079B     		ldr	r3, [sp, #28]
 958              	.LBE8:
 422:./Libraries/STM32F4xx_HAL_Driver/Src/stm32f4xx_hal_i2s_ex.c **** 
 959              		.loc 1 422 13 view .LVU316
 425:./Libraries/STM32F4xx_HAL_Driver/Src/stm32f4xx_hal_i2s_ex.c **** 
 960              		.loc 1 425 13 view .LVU317
 425:./Libraries/STM32F4xx_HAL_Driver/Src/stm32f4xx_hal_i2s_ex.c **** 
 961              		.loc 1 425 25 is_stmt 0 view .LVU318
 962 0358 0123     		movs	r3, #1
 963 035a 84F84130 		strb	r3, [r4, #65]
 428:./Libraries/STM32F4xx_HAL_Driver/Src/stm32f4xx_hal_i2s_ex.c **** 
 964              		.loc 1 428 13 is_stmt 1 view .LVU319
 428:./Libraries/STM32F4xx_HAL_Driver/Src/stm32f4xx_hal_i2s_ex.c **** 
 965              		.loc 1 428 13 view .LVU320
 966 035e 84F84020 		strb	r2, [r4, #64]
 428:./Libraries/STM32F4xx_HAL_Driver/Src/stm32f4xx_hal_i2s_ex.c **** 
 967              		.loc 1 428 13 view .LVU321
 431:./Libraries/STM32F4xx_HAL_Driver/Src/stm32f4xx_hal_i2s_ex.c ****             HAL_I2S_ErrorCallback(hi2s);
 968              		.loc 1 431 13 view .LVU322
 969 0362 636C     		ldr	r3, [r4, #68]
 970 0364 43F00203 		orr	r3, r3, #2
 971 0368 6364     		str	r3, [r4, #68]
 432:./Libraries/STM32F4xx_HAL_Driver/Src/stm32f4xx_hal_i2s_ex.c **** 
 972              		.loc 1 432 13 view .LVU323
 973 036a 2046     		mov	r0, r4
 974 036c FFF7FEFF 		bl	HAL_I2S_ErrorCallback
 975              	.LVL42:
 434:./Libraries/STM32F4xx_HAL_Driver/Src/stm32f4xx_hal_i2s_ex.c ****           }
 976              		.loc 1 434 13 view .LVU324
 434:./Libraries/STM32F4xx_HAL_Driver/Src/stm32f4xx_hal_i2s_ex.c ****           }
 977              		.loc 1 434 20 is_stmt 0 view .LVU325
 978 0370 11E0     		b	.L35
 979              	.L99:
 410:./Libraries/STM32F4xx_HAL_Driver/Src/stm32f4xx_hal_i2s_ex.c ****             HAL_I2S_ErrorCallback(hi2s);
 980              		.loc 1 410 13 is_stmt 1 view .LVU326
 981 0372 636C     		ldr	r3, [r4, #68]
 982 0374 43F00103 		orr	r3, r3, #1
 983 0378 6364     		str	r3, [r4, #68]
 411:./Libraries/STM32F4xx_HAL_Driver/Src/stm32f4xx_hal_i2s_ex.c ****             return HAL_TIMEOUT;
 984              		.loc 1 411 13 view .LVU327
 985 037a 2046     		mov	r0, r4
 986 037c FFF7FEFF 		bl	HAL_I2S_ErrorCallback
 987              	.LVL43:
 412:./Libraries/STM32F4xx_HAL_Driver/Src/stm32f4xx_hal_i2s_ex.c ****           }
 988              		.loc 1 412 13 view .LVU328
 412:./Libraries/STM32F4xx_HAL_Driver/Src/stm32f4xx_hal_i2s_ex.c ****           }
 989              		.loc 1 412 20 is_stmt 0 view .LVU329
 990 0380 4FF00308 		mov	r8, #3
 991 0384 07E0     		b	.L35
 992              	.LVL44:
 993              	.L64:
 222:./Libraries/STM32F4xx_HAL_Driver/Src/stm32f4xx_hal_i2s_ex.c ****   }
 994              		.loc 1 222 13 view .LVU330
ARM GAS  /tmp/ccfbD6Jk.s 			page 44


 995 0386 4FF00108 		mov	r8, #1
 996 038a 04E0     		b	.L35
 997              	.L65:
 222:./Libraries/STM32F4xx_HAL_Driver/Src/stm32f4xx_hal_i2s_ex.c ****   }
 998              		.loc 1 222 13 view .LVU331
 999 038c 4FF00108 		mov	r8, #1
 1000 0390 01E0     		b	.L35
 1001              	.L66:
 1002 0392 4FF00108 		mov	r8, #1
 1003              	.LVL45:
 1004              	.L35:
 452:./Libraries/STM32F4xx_HAL_Driver/Src/stm32f4xx_hal_i2s_ex.c **** 
 1005              		.loc 1 452 1 view .LVU332
 1006 0396 4046     		mov	r0, r8
 1007 0398 09B0     		add	sp, sp, #36
 1008              	.LCFI4:
 1009              		.cfi_remember_state
 1010              		.cfi_def_cfa_offset 28
 1011              		@ sp needed
 1012 039a BDE8F083 		pop	{r4, r5, r6, r7, r8, r9, pc}
 1013              	.LVL46:
 1014              	.L67:
 1015              	.LCFI5:
 1016              		.cfi_restore_state
 450:./Libraries/STM32F4xx_HAL_Driver/Src/stm32f4xx_hal_i2s_ex.c ****   }
 1017              		.loc 1 450 12 view .LVU333
 1018 039e 4FF00208 		mov	r8, #2
 1019 03a2 F8E7     		b	.L35
 1020              	.LVL47:
 1021              	.L68:
 249:./Libraries/STM32F4xx_HAL_Driver/Src/stm32f4xx_hal_i2s_ex.c **** 
 1022              		.loc 1 249 5 view .LVU334
 1023 03a4 4FF00208 		mov	r8, #2
 1024 03a8 F5E7     		b	.L35
 1025              		.cfi_endproc
 1026              	.LFE126:
 1028 03aa 00BF     		.section	.text.HAL_I2SEx_TransmitReceive_DMA,"ax",%progbits
 1029              		.align	1
 1030              		.global	HAL_I2SEx_TransmitReceive_DMA
 1031              		.syntax unified
 1032              		.thumb
 1033              		.thumb_func
 1034              		.fpu fpv4-sp-d16
 1036              	HAL_I2SEx_TransmitReceive_DMA:
 1037              	.LVL48:
 1038              	.LFB128:
 627:./Libraries/STM32F4xx_HAL_Driver/Src/stm32f4xx_hal_i2s_ex.c ****   uint32_t *tmp = NULL;
 1039              		.loc 1 627 1 is_stmt 1 view -0
 1040              		.cfi_startproc
 1041              		@ args = 0, pretend = 0, frame = 8
 1042              		@ frame_needed = 0, uses_anonymous_args = 0
 628:./Libraries/STM32F4xx_HAL_Driver/Src/stm32f4xx_hal_i2s_ex.c ****   uint32_t tmp1 = 0U;
 1043              		.loc 1 628 3 view .LVU336
 629:./Libraries/STM32F4xx_HAL_Driver/Src/stm32f4xx_hal_i2s_ex.c **** 
 1044              		.loc 1 629 3 view .LVU337
 631:./Libraries/STM32F4xx_HAL_Driver/Src/stm32f4xx_hal_i2s_ex.c ****   {
 1045              		.loc 1 631 3 view .LVU338
ARM GAS  /tmp/ccfbD6Jk.s 			page 45


 631:./Libraries/STM32F4xx_HAL_Driver/Src/stm32f4xx_hal_i2s_ex.c ****   {
 1046              		.loc 1 631 5 is_stmt 0 view .LVU339
 1047 0000 0029     		cmp	r1, #0
 1048 0002 00F0D980 		beq	.L117
 627:./Libraries/STM32F4xx_HAL_Driver/Src/stm32f4xx_hal_i2s_ex.c ****   uint32_t *tmp = NULL;
 1049              		.loc 1 627 1 discriminator 1 view .LVU340
 1050 0006 70B5     		push	{r4, r5, r6, lr}
 1051              	.LCFI6:
 1052              		.cfi_def_cfa_offset 16
 1053              		.cfi_offset 4, -16
 1054              		.cfi_offset 5, -12
 1055              		.cfi_offset 6, -8
 1056              		.cfi_offset 14, -4
 1057 0008 82B0     		sub	sp, sp, #8
 1058              	.LCFI7:
 1059              		.cfi_def_cfa_offset 24
 1060 000a 0446     		mov	r4, r0
 1061 000c 1546     		mov	r5, r2
 1062 000e 0E46     		mov	r6, r1
 631:./Libraries/STM32F4xx_HAL_Driver/Src/stm32f4xx_hal_i2s_ex.c ****   {
 1063              		.loc 1 631 25 discriminator 1 view .LVU341
 1064 0010 002A     		cmp	r2, #0
 1065 0012 00F0D380 		beq	.L118
 631:./Libraries/STM32F4xx_HAL_Driver/Src/stm32f4xx_hal_i2s_ex.c ****   {
 1066              		.loc 1 631 47 discriminator 2 view .LVU342
 1067 0016 002B     		cmp	r3, #0
 1068 0018 00F0D280 		beq	.L119
 636:./Libraries/STM32F4xx_HAL_Driver/Src/stm32f4xx_hal_i2s_ex.c ****   {
 1069              		.loc 1 636 3 is_stmt 1 view .LVU343
 636:./Libraries/STM32F4xx_HAL_Driver/Src/stm32f4xx_hal_i2s_ex.c ****   {
 1070              		.loc 1 636 10 is_stmt 0 view .LVU344
 1071 001c 90F84120 		ldrb	r2, [r0, #65]	@ zero_extendqisi2
 1072              	.LVL49:
 636:./Libraries/STM32F4xx_HAL_Driver/Src/stm32f4xx_hal_i2s_ex.c ****   {
 1073              		.loc 1 636 10 view .LVU345
 1074 0020 D2B2     		uxtb	r2, r2
 636:./Libraries/STM32F4xx_HAL_Driver/Src/stm32f4xx_hal_i2s_ex.c ****   {
 1075              		.loc 1 636 5 view .LVU346
 1076 0022 012A     		cmp	r2, #1
 1077 0024 40F0CF80 		bne	.L120
 638:./Libraries/STM32F4xx_HAL_Driver/Src/stm32f4xx_hal_i2s_ex.c ****     hi2s->pRxBuffPtr = pRxData;
 1078              		.loc 1 638 5 is_stmt 1 view .LVU347
 638:./Libraries/STM32F4xx_HAL_Driver/Src/stm32f4xx_hal_i2s_ex.c ****     hi2s->pRxBuffPtr = pRxData;
 1079              		.loc 1 638 22 is_stmt 0 view .LVU348
 1080 0028 6162     		str	r1, [r4, #36]
 639:./Libraries/STM32F4xx_HAL_Driver/Src/stm32f4xx_hal_i2s_ex.c **** 
 1081              		.loc 1 639 5 is_stmt 1 view .LVU349
 639:./Libraries/STM32F4xx_HAL_Driver/Src/stm32f4xx_hal_i2s_ex.c **** 
 1082              		.loc 1 639 22 is_stmt 0 view .LVU350
 1083 002a C562     		str	r5, [r0, #44]
 641:./Libraries/STM32F4xx_HAL_Driver/Src/stm32f4xx_hal_i2s_ex.c ****     /* Check the Data format: When a 16-bit data frame or a 16-bit data frame extended
 1084              		.loc 1 641 5 is_stmt 1 view .LVU351
 641:./Libraries/STM32F4xx_HAL_Driver/Src/stm32f4xx_hal_i2s_ex.c ****     /* Check the Data format: When a 16-bit data frame or a 16-bit data frame extended
 1085              		.loc 1 641 16 is_stmt 0 view .LVU352
 1086 002c 0268     		ldr	r2, [r0]
 641:./Libraries/STM32F4xx_HAL_Driver/Src/stm32f4xx_hal_i2s_ex.c ****     /* Check the Data format: When a 16-bit data frame or a 16-bit data frame extended
 1087              		.loc 1 641 26 view .LVU353
ARM GAS  /tmp/ccfbD6Jk.s 			page 46


 1088 002e D269     		ldr	r2, [r2, #28]
 641:./Libraries/STM32F4xx_HAL_Driver/Src/stm32f4xx_hal_i2s_ex.c ****     /* Check the Data format: When a 16-bit data frame or a 16-bit data frame extended
 1089              		.loc 1 641 10 view .LVU354
 1090 0030 02F00702 		and	r2, r2, #7
 1091              	.LVL50:
 646:./Libraries/STM32F4xx_HAL_Driver/Src/stm32f4xx_hal_i2s_ex.c ****     {
 1092              		.loc 1 646 5 is_stmt 1 view .LVU355
 646:./Libraries/STM32F4xx_HAL_Driver/Src/stm32f4xx_hal_i2s_ex.c ****     {
 1093              		.loc 1 646 7 is_stmt 0 view .LVU356
 1094 0034 032A     		cmp	r2, #3
 1095 0036 06D0     		beq	.L104
 646:./Libraries/STM32F4xx_HAL_Driver/Src/stm32f4xx_hal_i2s_ex.c ****     {
 1096              		.loc 1 646 37 discriminator 1 view .LVU357
 1097 0038 052A     		cmp	r2, #5
 1098 003a 04D0     		beq	.L104
 655:./Libraries/STM32F4xx_HAL_Driver/Src/stm32f4xx_hal_i2s_ex.c ****       hi2s->TxXferCount = Size;
 1099              		.loc 1 655 7 is_stmt 1 view .LVU358
 655:./Libraries/STM32F4xx_HAL_Driver/Src/stm32f4xx_hal_i2s_ex.c ****       hi2s->TxXferCount = Size;
 1100              		.loc 1 655 25 is_stmt 0 view .LVU359
 1101 003c 0385     		strh	r3, [r0, #40]	@ movhi
 656:./Libraries/STM32F4xx_HAL_Driver/Src/stm32f4xx_hal_i2s_ex.c ****       hi2s->RxXferSize  = Size;
 1102              		.loc 1 656 7 is_stmt 1 view .LVU360
 656:./Libraries/STM32F4xx_HAL_Driver/Src/stm32f4xx_hal_i2s_ex.c ****       hi2s->RxXferSize  = Size;
 1103              		.loc 1 656 25 is_stmt 0 view .LVU361
 1104 003e 4385     		strh	r3, [r0, #42]	@ movhi
 657:./Libraries/STM32F4xx_HAL_Driver/Src/stm32f4xx_hal_i2s_ex.c ****       hi2s->RxXferCount = Size;
 1105              		.loc 1 657 7 is_stmt 1 view .LVU362
 657:./Libraries/STM32F4xx_HAL_Driver/Src/stm32f4xx_hal_i2s_ex.c ****       hi2s->RxXferCount = Size;
 1106              		.loc 1 657 25 is_stmt 0 view .LVU363
 1107 0040 0386     		strh	r3, [r0, #48]	@ movhi
 658:./Libraries/STM32F4xx_HAL_Driver/Src/stm32f4xx_hal_i2s_ex.c ****     }
 1108              		.loc 1 658 7 is_stmt 1 view .LVU364
 658:./Libraries/STM32F4xx_HAL_Driver/Src/stm32f4xx_hal_i2s_ex.c ****     }
 1109              		.loc 1 658 25 is_stmt 0 view .LVU365
 1110 0042 4386     		strh	r3, [r0, #50]	@ movhi
 1111 0044 05E0     		b	.L106
 1112              	.L104:
 648:./Libraries/STM32F4xx_HAL_Driver/Src/stm32f4xx_hal_i2s_ex.c ****       hi2s->TxXferCount = (Size << 1U);
 1113              		.loc 1 648 7 is_stmt 1 view .LVU366
 648:./Libraries/STM32F4xx_HAL_Driver/Src/stm32f4xx_hal_i2s_ex.c ****       hi2s->TxXferCount = (Size << 1U);
 1114              		.loc 1 648 33 is_stmt 0 view .LVU367
 1115 0046 5B00     		lsls	r3, r3, #1
 1116              	.LVL51:
 648:./Libraries/STM32F4xx_HAL_Driver/Src/stm32f4xx_hal_i2s_ex.c ****       hi2s->TxXferCount = (Size << 1U);
 1117              		.loc 1 648 33 view .LVU368
 1118 0048 9BB2     		uxth	r3, r3
 648:./Libraries/STM32F4xx_HAL_Driver/Src/stm32f4xx_hal_i2s_ex.c ****       hi2s->TxXferCount = (Size << 1U);
 1119              		.loc 1 648 25 view .LVU369
 1120 004a 2385     		strh	r3, [r4, #40]	@ movhi
 649:./Libraries/STM32F4xx_HAL_Driver/Src/stm32f4xx_hal_i2s_ex.c ****       hi2s->RxXferSize  = (Size << 1U);
 1121              		.loc 1 649 7 is_stmt 1 view .LVU370
 649:./Libraries/STM32F4xx_HAL_Driver/Src/stm32f4xx_hal_i2s_ex.c ****       hi2s->RxXferSize  = (Size << 1U);
 1122              		.loc 1 649 25 is_stmt 0 view .LVU371
 1123 004c 6385     		strh	r3, [r4, #42]	@ movhi
 650:./Libraries/STM32F4xx_HAL_Driver/Src/stm32f4xx_hal_i2s_ex.c ****       hi2s->RxXferCount = (Size << 1U);
 1124              		.loc 1 650 7 is_stmt 1 view .LVU372
 650:./Libraries/STM32F4xx_HAL_Driver/Src/stm32f4xx_hal_i2s_ex.c ****       hi2s->RxXferCount = (Size << 1U);
ARM GAS  /tmp/ccfbD6Jk.s 			page 47


 1125              		.loc 1 650 25 is_stmt 0 view .LVU373
 1126 004e 2386     		strh	r3, [r4, #48]	@ movhi
 651:./Libraries/STM32F4xx_HAL_Driver/Src/stm32f4xx_hal_i2s_ex.c ****     }
 1127              		.loc 1 651 7 is_stmt 1 view .LVU374
 651:./Libraries/STM32F4xx_HAL_Driver/Src/stm32f4xx_hal_i2s_ex.c ****     }
 1128              		.loc 1 651 25 is_stmt 0 view .LVU375
 1129 0050 6386     		strh	r3, [r4, #50]	@ movhi
 1130              	.L106:
 662:./Libraries/STM32F4xx_HAL_Driver/Src/stm32f4xx_hal_i2s_ex.c **** 
 1131              		.loc 1 662 5 is_stmt 1 view .LVU376
 662:./Libraries/STM32F4xx_HAL_Driver/Src/stm32f4xx_hal_i2s_ex.c **** 
 1132              		.loc 1 662 5 view .LVU377
 1133 0052 94F84030 		ldrb	r3, [r4, #64]	@ zero_extendqisi2
 1134 0056 DBB2     		uxtb	r3, r3
 1135 0058 012B     		cmp	r3, #1
 1136 005a 00F0B680 		beq	.L121
 662:./Libraries/STM32F4xx_HAL_Driver/Src/stm32f4xx_hal_i2s_ex.c **** 
 1137              		.loc 1 662 5 discriminator 2 view .LVU378
 1138 005e 0123     		movs	r3, #1
 1139 0060 84F84030 		strb	r3, [r4, #64]
 662:./Libraries/STM32F4xx_HAL_Driver/Src/stm32f4xx_hal_i2s_ex.c **** 
 1140              		.loc 1 662 5 discriminator 2 view .LVU379
 664:./Libraries/STM32F4xx_HAL_Driver/Src/stm32f4xx_hal_i2s_ex.c ****     hi2s->State     = HAL_I2S_STATE_BUSY_TX_RX;
 1141              		.loc 1 664 5 discriminator 2 view .LVU380
 664:./Libraries/STM32F4xx_HAL_Driver/Src/stm32f4xx_hal_i2s_ex.c ****     hi2s->State     = HAL_I2S_STATE_BUSY_TX_RX;
 1142              		.loc 1 664 21 is_stmt 0 discriminator 2 view .LVU381
 1143 0064 0023     		movs	r3, #0
 1144 0066 6364     		str	r3, [r4, #68]
 665:./Libraries/STM32F4xx_HAL_Driver/Src/stm32f4xx_hal_i2s_ex.c **** 
 1145              		.loc 1 665 5 is_stmt 1 discriminator 2 view .LVU382
 665:./Libraries/STM32F4xx_HAL_Driver/Src/stm32f4xx_hal_i2s_ex.c **** 
 1146              		.loc 1 665 21 is_stmt 0 discriminator 2 view .LVU383
 1147 0068 0523     		movs	r3, #5
 1148 006a 84F84130 		strb	r3, [r4, #65]
 668:./Libraries/STM32F4xx_HAL_Driver/Src/stm32f4xx_hal_i2s_ex.c **** 
 1149              		.loc 1 668 5 is_stmt 1 discriminator 2 view .LVU384
 668:./Libraries/STM32F4xx_HAL_Driver/Src/stm32f4xx_hal_i2s_ex.c **** 
 1150              		.loc 1 668 9 is_stmt 0 discriminator 2 view .LVU385
 1151 006e E36B     		ldr	r3, [r4, #60]
 668:./Libraries/STM32F4xx_HAL_Driver/Src/stm32f4xx_hal_i2s_ex.c **** 
 1152              		.loc 1 668 40 discriminator 2 view .LVU386
 1153 0070 5749     		ldr	r1, .L139
 1154              	.LVL52:
 668:./Libraries/STM32F4xx_HAL_Driver/Src/stm32f4xx_hal_i2s_ex.c **** 
 1155              		.loc 1 668 40 discriminator 2 view .LVU387
 1156 0072 1964     		str	r1, [r3, #64]
 671:./Libraries/STM32F4xx_HAL_Driver/Src/stm32f4xx_hal_i2s_ex.c **** 
 1157              		.loc 1 671 5 is_stmt 1 discriminator 2 view .LVU388
 671:./Libraries/STM32F4xx_HAL_Driver/Src/stm32f4xx_hal_i2s_ex.c **** 
 1158              		.loc 1 671 9 is_stmt 0 discriminator 2 view .LVU389
 1159 0074 E36B     		ldr	r3, [r4, #60]
 671:./Libraries/STM32F4xx_HAL_Driver/Src/stm32f4xx_hal_i2s_ex.c **** 
 1160              		.loc 1 671 37 discriminator 2 view .LVU390
 1161 0076 574A     		ldr	r2, .L139+4
 1162              	.LVL53:
 671:./Libraries/STM32F4xx_HAL_Driver/Src/stm32f4xx_hal_i2s_ex.c **** 
 1163              		.loc 1 671 37 discriminator 2 view .LVU391
ARM GAS  /tmp/ccfbD6Jk.s 			page 48


 1164 0078 DA63     		str	r2, [r3, #60]
 674:./Libraries/STM32F4xx_HAL_Driver/Src/stm32f4xx_hal_i2s_ex.c **** 
 1165              		.loc 1 674 5 is_stmt 1 discriminator 2 view .LVU392
 674:./Libraries/STM32F4xx_HAL_Driver/Src/stm32f4xx_hal_i2s_ex.c **** 
 1166              		.loc 1 674 9 is_stmt 0 discriminator 2 view .LVU393
 1167 007a E06B     		ldr	r0, [r4, #60]
 1168              	.LVL54:
 674:./Libraries/STM32F4xx_HAL_Driver/Src/stm32f4xx_hal_i2s_ex.c **** 
 1169              		.loc 1 674 37 discriminator 2 view .LVU394
 1170 007c 564B     		ldr	r3, .L139+8
 1171 007e C364     		str	r3, [r0, #76]
 677:./Libraries/STM32F4xx_HAL_Driver/Src/stm32f4xx_hal_i2s_ex.c **** 
 1172              		.loc 1 677 5 is_stmt 1 discriminator 2 view .LVU395
 677:./Libraries/STM32F4xx_HAL_Driver/Src/stm32f4xx_hal_i2s_ex.c **** 
 1173              		.loc 1 677 9 is_stmt 0 discriminator 2 view .LVU396
 1174 0080 A06B     		ldr	r0, [r4, #56]
 677:./Libraries/STM32F4xx_HAL_Driver/Src/stm32f4xx_hal_i2s_ex.c **** 
 1175              		.loc 1 677 41 discriminator 2 view .LVU397
 1176 0082 0164     		str	r1, [r0, #64]
 680:./Libraries/STM32F4xx_HAL_Driver/Src/stm32f4xx_hal_i2s_ex.c **** 
 1177              		.loc 1 680 5 is_stmt 1 discriminator 2 view .LVU398
 680:./Libraries/STM32F4xx_HAL_Driver/Src/stm32f4xx_hal_i2s_ex.c **** 
 1178              		.loc 1 680 9 is_stmt 0 discriminator 2 view .LVU399
 1179 0084 A16B     		ldr	r1, [r4, #56]
 680:./Libraries/STM32F4xx_HAL_Driver/Src/stm32f4xx_hal_i2s_ex.c **** 
 1180              		.loc 1 680 37 discriminator 2 view .LVU400
 1181 0086 CA63     		str	r2, [r1, #60]
 683:./Libraries/STM32F4xx_HAL_Driver/Src/stm32f4xx_hal_i2s_ex.c **** 
 1182              		.loc 1 683 5 is_stmt 1 discriminator 2 view .LVU401
 683:./Libraries/STM32F4xx_HAL_Driver/Src/stm32f4xx_hal_i2s_ex.c **** 
 1183              		.loc 1 683 9 is_stmt 0 discriminator 2 view .LVU402
 1184 0088 A26B     		ldr	r2, [r4, #56]
 683:./Libraries/STM32F4xx_HAL_Driver/Src/stm32f4xx_hal_i2s_ex.c **** 
 1185              		.loc 1 683 37 discriminator 2 view .LVU403
 1186 008a D364     		str	r3, [r2, #76]
 685:./Libraries/STM32F4xx_HAL_Driver/Src/stm32f4xx_hal_i2s_ex.c ****     /* Check if the I2S_MODE_MASTER_TX or I2S_MODE_SLAVE_TX Mode is selected */
 1187              		.loc 1 685 5 is_stmt 1 discriminator 2 view .LVU404
 685:./Libraries/STM32F4xx_HAL_Driver/Src/stm32f4xx_hal_i2s_ex.c ****     /* Check if the I2S_MODE_MASTER_TX or I2S_MODE_SLAVE_TX Mode is selected */
 1188              		.loc 1 685 16 is_stmt 0 discriminator 2 view .LVU405
 1189 008c 2268     		ldr	r2, [r4]
 685:./Libraries/STM32F4xx_HAL_Driver/Src/stm32f4xx_hal_i2s_ex.c ****     /* Check if the I2S_MODE_MASTER_TX or I2S_MODE_SLAVE_TX Mode is selected */
 1190              		.loc 1 685 26 discriminator 2 view .LVU406
 1191 008e D369     		ldr	r3, [r2, #28]
 685:./Libraries/STM32F4xx_HAL_Driver/Src/stm32f4xx_hal_i2s_ex.c ****     /* Check if the I2S_MODE_MASTER_TX or I2S_MODE_SLAVE_TX Mode is selected */
 1192              		.loc 1 685 10 discriminator 2 view .LVU407
 1193 0090 03F44073 		and	r3, r3, #768
 1194              	.LVL55:
 687:./Libraries/STM32F4xx_HAL_Driver/Src/stm32f4xx_hal_i2s_ex.c ****     {
 1195              		.loc 1 687 5 is_stmt 1 discriminator 2 view .LVU408
 687:./Libraries/STM32F4xx_HAL_Driver/Src/stm32f4xx_hal_i2s_ex.c ****     {
 1196              		.loc 1 687 7 is_stmt 0 discriminator 2 view .LVU409
 1197 0094 B3F5007F 		cmp	r3, #512
 1198 0098 01D0     		beq	.L107
 687:./Libraries/STM32F4xx_HAL_Driver/Src/stm32f4xx_hal_i2s_ex.c ****     {
 1199              		.loc 1 687 37 discriminator 1 view .LVU410
 1200 009a 002B     		cmp	r3, #0
 1201 009c 40D1     		bne	.L108
ARM GAS  /tmp/ccfbD6Jk.s 			page 49


 1202              	.L107:
 690:./Libraries/STM32F4xx_HAL_Driver/Src/stm32f4xx_hal_i2s_ex.c ****       HAL_DMA_Start_IT(hi2s->hdmarx, (uint32_t)&I2SxEXT(hi2s->Instance)->DR, *(uint32_t*)tmp, hi2s-
 1203              		.loc 1 690 7 is_stmt 1 view .LVU411
 1204              	.LVL56:
 691:./Libraries/STM32F4xx_HAL_Driver/Src/stm32f4xx_hal_i2s_ex.c **** 
 1205              		.loc 1 691 7 view .LVU412
 1206 009e E06B     		ldr	r0, [r4, #60]
 691:./Libraries/STM32F4xx_HAL_Driver/Src/stm32f4xx_hal_i2s_ex.c **** 
 1207              		.loc 1 691 49 is_stmt 0 view .LVU413
 1208 00a0 4E4B     		ldr	r3, .L139+12
 1209              	.LVL57:
 691:./Libraries/STM32F4xx_HAL_Driver/Src/stm32f4xx_hal_i2s_ex.c **** 
 1210              		.loc 1 691 49 view .LVU414
 1211 00a2 9A42     		cmp	r2, r3
 1212 00a4 35D0     		beq	.L132
 1213 00a6 4FF04021 		mov	r1, #1073758208
 1214              	.L109:
 691:./Libraries/STM32F4xx_HAL_Driver/Src/stm32f4xx_hal_i2s_ex.c **** 
 1215              		.loc 1 691 99 discriminator 4 view .LVU415
 1216 00aa 238E     		ldrh	r3, [r4, #48]
 691:./Libraries/STM32F4xx_HAL_Driver/Src/stm32f4xx_hal_i2s_ex.c **** 
 1217              		.loc 1 691 7 discriminator 4 view .LVU416
 1218 00ac 9BB2     		uxth	r3, r3
 1219 00ae 2A46     		mov	r2, r5
 1220 00b0 0C31     		adds	r1, r1, #12
 1221 00b2 FFF7FEFF 		bl	HAL_DMA_Start_IT
 1222              	.LVL58:
 694:./Libraries/STM32F4xx_HAL_Driver/Src/stm32f4xx_hal_i2s_ex.c **** 
 1223              		.loc 1 694 7 is_stmt 1 discriminator 4 view .LVU417
 1224 00b6 2268     		ldr	r2, [r4]
 1225 00b8 484B     		ldr	r3, .L139+12
 1226 00ba 9A42     		cmp	r2, r3
 1227 00bc 2BD0     		beq	.L133
 694:./Libraries/STM32F4xx_HAL_Driver/Src/stm32f4xx_hal_i2s_ex.c **** 
 1228              		.loc 1 694 7 is_stmt 0 view .LVU418
 1229 00be 4FF04022 		mov	r2, #1073758208
 1230              	.L110:
 694:./Libraries/STM32F4xx_HAL_Driver/Src/stm32f4xx_hal_i2s_ex.c **** 
 1231              		.loc 1 694 7 discriminator 4 view .LVU419
 1232 00c2 5368     		ldr	r3, [r2, #4]
 1233 00c4 43F00103 		orr	r3, r3, #1
 1234 00c8 5360     		str	r3, [r2, #4]
 697:./Libraries/STM32F4xx_HAL_Driver/Src/stm32f4xx_hal_i2s_ex.c ****       HAL_DMA_Start_IT(hi2s->hdmatx, *(uint32_t*)tmp, (uint32_t)&hi2s->Instance->DR, hi2s->TxXferSi
 1235              		.loc 1 697 7 is_stmt 1 discriminator 4 view .LVU420
 1236              	.LVL59:
 698:./Libraries/STM32F4xx_HAL_Driver/Src/stm32f4xx_hal_i2s_ex.c **** 
 1237              		.loc 1 698 7 discriminator 4 view .LVU421
 698:./Libraries/STM32F4xx_HAL_Driver/Src/stm32f4xx_hal_i2s_ex.c **** 
 1238              		.loc 1 698 70 is_stmt 0 discriminator 4 view .LVU422
 1239 00ca 2268     		ldr	r2, [r4]
 698:./Libraries/STM32F4xx_HAL_Driver/Src/stm32f4xx_hal_i2s_ex.c **** 
 1240              		.loc 1 698 90 discriminator 4 view .LVU423
 1241 00cc 238D     		ldrh	r3, [r4, #40]
 698:./Libraries/STM32F4xx_HAL_Driver/Src/stm32f4xx_hal_i2s_ex.c **** 
 1242              		.loc 1 698 7 discriminator 4 view .LVU424
 1243 00ce 9BB2     		uxth	r3, r3
 1244 00d0 0C32     		adds	r2, r2, #12
ARM GAS  /tmp/ccfbD6Jk.s 			page 50


 1245 00d2 3146     		mov	r1, r6
 1246 00d4 A06B     		ldr	r0, [r4, #56]
 1247 00d6 FFF7FEFF 		bl	HAL_DMA_Start_IT
 1248              	.LVL60:
 701:./Libraries/STM32F4xx_HAL_Driver/Src/stm32f4xx_hal_i2s_ex.c **** 
 1249              		.loc 1 701 7 is_stmt 1 discriminator 4 view .LVU425
 1250 00da 2268     		ldr	r2, [r4]
 1251 00dc 5368     		ldr	r3, [r2, #4]
 1252 00de 43F00203 		orr	r3, r3, #2
 1253 00e2 5360     		str	r3, [r2, #4]
 704:./Libraries/STM32F4xx_HAL_Driver/Src/stm32f4xx_hal_i2s_ex.c ****       {
 1254              		.loc 1 704 7 discriminator 4 view .LVU426
 704:./Libraries/STM32F4xx_HAL_Driver/Src/stm32f4xx_hal_i2s_ex.c ****       {
 1255              		.loc 1 704 15 is_stmt 0 discriminator 4 view .LVU427
 1256 00e4 2368     		ldr	r3, [r4]
 704:./Libraries/STM32F4xx_HAL_Driver/Src/stm32f4xx_hal_i2s_ex.c ****       {
 1257              		.loc 1 704 25 discriminator 4 view .LVU428
 1258 00e6 DA69     		ldr	r2, [r3, #28]
 704:./Libraries/STM32F4xx_HAL_Driver/Src/stm32f4xx_hal_i2s_ex.c ****       {
 1259              		.loc 1 704 9 discriminator 4 view .LVU429
 1260 00e8 12F4806F 		tst	r2, #1024
 1261 00ec 0DD1     		bne	.L111
 707:./Libraries/STM32F4xx_HAL_Driver/Src/stm32f4xx_hal_i2s_ex.c **** 
 1262              		.loc 1 707 9 is_stmt 1 view .LVU430
 1263 00ee 3B4A     		ldr	r2, .L139+12
 1264 00f0 9342     		cmp	r3, r2
 1265 00f2 12D0     		beq	.L134
 1266 00f4 4FF04022 		mov	r2, #1073758208
 1267              	.L112:
 707:./Libraries/STM32F4xx_HAL_Driver/Src/stm32f4xx_hal_i2s_ex.c **** 
 1268              		.loc 1 707 9 is_stmt 0 discriminator 4 view .LVU431
 1269 00f8 D369     		ldr	r3, [r2, #28]
 1270 00fa 43F48063 		orr	r3, r3, #1024
 1271 00fe D361     		str	r3, [r2, #28]
 710:./Libraries/STM32F4xx_HAL_Driver/Src/stm32f4xx_hal_i2s_ex.c ****       }
 1272              		.loc 1 710 9 is_stmt 1 discriminator 4 view .LVU432
 1273 0100 2268     		ldr	r2, [r4]
 1274 0102 D369     		ldr	r3, [r2, #28]
 1275 0104 43F48063 		orr	r3, r3, #1024
 1276 0108 D361     		str	r3, [r2, #28]
 1277              	.LVL61:
 1278              	.L111:
 747:./Libraries/STM32F4xx_HAL_Driver/Src/stm32f4xx_hal_i2s_ex.c **** 
 1279              		.loc 1 747 5 view .LVU433
 747:./Libraries/STM32F4xx_HAL_Driver/Src/stm32f4xx_hal_i2s_ex.c **** 
 1280              		.loc 1 747 5 view .LVU434
 1281 010a 0020     		movs	r0, #0
 1282 010c 84F84000 		strb	r0, [r4, #64]
 747:./Libraries/STM32F4xx_HAL_Driver/Src/stm32f4xx_hal_i2s_ex.c **** 
 1283              		.loc 1 747 5 view .LVU435
 749:./Libraries/STM32F4xx_HAL_Driver/Src/stm32f4xx_hal_i2s_ex.c ****   }
 1284              		.loc 1 749 5 view .LVU436
 749:./Libraries/STM32F4xx_HAL_Driver/Src/stm32f4xx_hal_i2s_ex.c ****   }
 1285              		.loc 1 749 12 is_stmt 0 view .LVU437
 1286 0110 57E0     		b	.L103
 1287              	.LVL62:
 1288              	.L132:
ARM GAS  /tmp/ccfbD6Jk.s 			page 51


 691:./Libraries/STM32F4xx_HAL_Driver/Src/stm32f4xx_hal_i2s_ex.c **** 
 1289              		.loc 1 691 49 view .LVU438
 1290 0112 3349     		ldr	r1, .L139+16
 1291 0114 C9E7     		b	.L109
 1292              	.L133:
 694:./Libraries/STM32F4xx_HAL_Driver/Src/stm32f4xx_hal_i2s_ex.c **** 
 1293              		.loc 1 694 7 view .LVU439
 1294 0116 324A     		ldr	r2, .L139+16
 1295 0118 D3E7     		b	.L110
 1296              	.LVL63:
 1297              	.L134:
 707:./Libraries/STM32F4xx_HAL_Driver/Src/stm32f4xx_hal_i2s_ex.c **** 
 1298              		.loc 1 707 9 view .LVU440
 1299 011a A2F58062 		sub	r2, r2, #1024
 1300 011e EBE7     		b	.L112
 1301              	.LVL64:
 1302              	.L108:
 716:./Libraries/STM32F4xx_HAL_Driver/Src/stm32f4xx_hal_i2s_ex.c ****       {
 1303              		.loc 1 716 7 is_stmt 1 view .LVU441
 716:./Libraries/STM32F4xx_HAL_Driver/Src/stm32f4xx_hal_i2s_ex.c ****       {
 1304              		.loc 1 716 25 is_stmt 0 view .LVU442
 1305 0120 D369     		ldr	r3, [r2, #28]
 1306              	.LVL65:
 716:./Libraries/STM32F4xx_HAL_Driver/Src/stm32f4xx_hal_i2s_ex.c ****       {
 1307              		.loc 1 716 35 view .LVU443
 1308 0122 03F44073 		and	r3, r3, #768
 716:./Libraries/STM32F4xx_HAL_Driver/Src/stm32f4xx_hal_i2s_ex.c ****       {
 1309              		.loc 1 716 9 view .LVU444
 1310 0126 B3F5407F 		cmp	r3, #768
 1311 012a 36D0     		beq	.L135
 1312              	.L113:
 720:./Libraries/STM32F4xx_HAL_Driver/Src/stm32f4xx_hal_i2s_ex.c ****       }
 1313              		.loc 1 720 9 is_stmt 1 discriminator 1 view .LVU445
 723:./Libraries/STM32F4xx_HAL_Driver/Src/stm32f4xx_hal_i2s_ex.c ****       HAL_DMA_Start_IT(hi2s->hdmatx, *(uint32_t*)tmp, (uint32_t)&I2SxEXT(hi2s->Instance)->DR, hi2s-
 1314              		.loc 1 723 7 discriminator 1 view .LVU446
 1315              	.LVL66:
 724:./Libraries/STM32F4xx_HAL_Driver/Src/stm32f4xx_hal_i2s_ex.c **** 
 1316              		.loc 1 724 7 discriminator 1 view .LVU447
 1317 012c A06B     		ldr	r0, [r4, #56]
 724:./Libraries/STM32F4xx_HAL_Driver/Src/stm32f4xx_hal_i2s_ex.c **** 
 1318              		.loc 1 724 66 is_stmt 0 discriminator 1 view .LVU448
 1319 012e 2B4B     		ldr	r3, .L139+12
 1320 0130 9A42     		cmp	r2, r3
 1321 0132 3AD0     		beq	.L136
 724:./Libraries/STM32F4xx_HAL_Driver/Src/stm32f4xx_hal_i2s_ex.c **** 
 1322              		.loc 1 724 66 view .LVU449
 1323 0134 4FF04022 		mov	r2, #1073758208
 1324              	.L114:
 724:./Libraries/STM32F4xx_HAL_Driver/Src/stm32f4xx_hal_i2s_ex.c **** 
 1325              		.loc 1 724 99 discriminator 4 view .LVU450
 1326 0138 238D     		ldrh	r3, [r4, #40]
 724:./Libraries/STM32F4xx_HAL_Driver/Src/stm32f4xx_hal_i2s_ex.c **** 
 1327              		.loc 1 724 7 discriminator 4 view .LVU451
 1328 013a 9BB2     		uxth	r3, r3
 1329 013c 0C32     		adds	r2, r2, #12
 1330 013e 3146     		mov	r1, r6
 1331 0140 FFF7FEFF 		bl	HAL_DMA_Start_IT
ARM GAS  /tmp/ccfbD6Jk.s 			page 52


 1332              	.LVL67:
 727:./Libraries/STM32F4xx_HAL_Driver/Src/stm32f4xx_hal_i2s_ex.c **** 
 1333              		.loc 1 727 7 is_stmt 1 discriminator 4 view .LVU452
 1334 0144 2268     		ldr	r2, [r4]
 1335 0146 254B     		ldr	r3, .L139+12
 1336 0148 9A42     		cmp	r2, r3
 1337 014a 30D0     		beq	.L137
 727:./Libraries/STM32F4xx_HAL_Driver/Src/stm32f4xx_hal_i2s_ex.c **** 
 1338              		.loc 1 727 7 is_stmt 0 view .LVU453
 1339 014c 4FF04022 		mov	r2, #1073758208
 1340              	.L115:
 727:./Libraries/STM32F4xx_HAL_Driver/Src/stm32f4xx_hal_i2s_ex.c **** 
 1341              		.loc 1 727 7 discriminator 4 view .LVU454
 1342 0150 5368     		ldr	r3, [r2, #4]
 1343 0152 43F00203 		orr	r3, r3, #2
 1344 0156 5360     		str	r3, [r2, #4]
 730:./Libraries/STM32F4xx_HAL_Driver/Src/stm32f4xx_hal_i2s_ex.c ****       HAL_DMA_Start_IT(hi2s->hdmarx, (uint32_t)&hi2s->Instance->DR, *(uint32_t*)tmp, hi2s->RxXferSi
 1345              		.loc 1 730 7 is_stmt 1 discriminator 4 view .LVU455
 1346              	.LVL68:
 731:./Libraries/STM32F4xx_HAL_Driver/Src/stm32f4xx_hal_i2s_ex.c **** 
 1347              		.loc 1 731 7 discriminator 4 view .LVU456
 731:./Libraries/STM32F4xx_HAL_Driver/Src/stm32f4xx_hal_i2s_ex.c **** 
 1348              		.loc 1 731 53 is_stmt 0 discriminator 4 view .LVU457
 1349 0158 2168     		ldr	r1, [r4]
 731:./Libraries/STM32F4xx_HAL_Driver/Src/stm32f4xx_hal_i2s_ex.c **** 
 1350              		.loc 1 731 90 discriminator 4 view .LVU458
 1351 015a 238E     		ldrh	r3, [r4, #48]
 731:./Libraries/STM32F4xx_HAL_Driver/Src/stm32f4xx_hal_i2s_ex.c **** 
 1352              		.loc 1 731 7 discriminator 4 view .LVU459
 1353 015c 9BB2     		uxth	r3, r3
 1354 015e 2A46     		mov	r2, r5
 1355 0160 0C31     		adds	r1, r1, #12
 1356 0162 E06B     		ldr	r0, [r4, #60]
 1357 0164 FFF7FEFF 		bl	HAL_DMA_Start_IT
 1358              	.LVL69:
 734:./Libraries/STM32F4xx_HAL_Driver/Src/stm32f4xx_hal_i2s_ex.c **** 
 1359              		.loc 1 734 7 is_stmt 1 discriminator 4 view .LVU460
 1360 0168 2268     		ldr	r2, [r4]
 1361 016a 5368     		ldr	r3, [r2, #4]
 1362 016c 43F00103 		orr	r3, r3, #1
 1363 0170 5360     		str	r3, [r2, #4]
 737:./Libraries/STM32F4xx_HAL_Driver/Src/stm32f4xx_hal_i2s_ex.c ****       {
 1364              		.loc 1 737 7 discriminator 4 view .LVU461
 737:./Libraries/STM32F4xx_HAL_Driver/Src/stm32f4xx_hal_i2s_ex.c ****       {
 1365              		.loc 1 737 15 is_stmt 0 discriminator 4 view .LVU462
 1366 0172 2368     		ldr	r3, [r4]
 737:./Libraries/STM32F4xx_HAL_Driver/Src/stm32f4xx_hal_i2s_ex.c ****       {
 1367              		.loc 1 737 25 discriminator 4 view .LVU463
 1368 0174 DA69     		ldr	r2, [r3, #28]
 737:./Libraries/STM32F4xx_HAL_Driver/Src/stm32f4xx_hal_i2s_ex.c ****       {
 1369              		.loc 1 737 9 discriminator 4 view .LVU464
 1370 0176 12F4806F 		tst	r2, #1024
 1371 017a C6D1     		bne	.L111
 740:./Libraries/STM32F4xx_HAL_Driver/Src/stm32f4xx_hal_i2s_ex.c ****         /* Enable I2S peripheral before the I2Sext */
 1372              		.loc 1 740 9 is_stmt 1 view .LVU465
 1373 017c 174A     		ldr	r2, .L139+12
 1374 017e 9342     		cmp	r3, r2
ARM GAS  /tmp/ccfbD6Jk.s 			page 53


 1375 0180 17D0     		beq	.L138
 1376 0182 4FF04022 		mov	r2, #1073758208
 1377              	.L116:
 740:./Libraries/STM32F4xx_HAL_Driver/Src/stm32f4xx_hal_i2s_ex.c ****         /* Enable I2S peripheral before the I2Sext */
 1378              		.loc 1 740 9 is_stmt 0 discriminator 4 view .LVU466
 1379 0186 D369     		ldr	r3, [r2, #28]
 1380 0188 43F48063 		orr	r3, r3, #1024
 1381 018c D361     		str	r3, [r2, #28]
 742:./Libraries/STM32F4xx_HAL_Driver/Src/stm32f4xx_hal_i2s_ex.c ****       }
 1382              		.loc 1 742 9 is_stmt 1 discriminator 4 view .LVU467
 1383 018e 2268     		ldr	r2, [r4]
 1384 0190 D369     		ldr	r3, [r2, #28]
 1385 0192 43F48063 		orr	r3, r3, #1024
 1386 0196 D361     		str	r3, [r2, #28]
 1387 0198 B7E7     		b	.L111
 1388              	.LVL70:
 1389              	.L135:
 720:./Libraries/STM32F4xx_HAL_Driver/Src/stm32f4xx_hal_i2s_ex.c ****       }
 1390              		.loc 1 720 9 view .LVU468
 1391              	.LBB9:
 720:./Libraries/STM32F4xx_HAL_Driver/Src/stm32f4xx_hal_i2s_ex.c ****       }
 1392              		.loc 1 720 9 view .LVU469
 1393 019a 0023     		movs	r3, #0
 1394 019c 0193     		str	r3, [sp, #4]
 720:./Libraries/STM32F4xx_HAL_Driver/Src/stm32f4xx_hal_i2s_ex.c ****       }
 1395              		.loc 1 720 9 view .LVU470
 1396 019e D368     		ldr	r3, [r2, #12]
 1397 01a0 0193     		str	r3, [sp, #4]
 720:./Libraries/STM32F4xx_HAL_Driver/Src/stm32f4xx_hal_i2s_ex.c ****       }
 1398              		.loc 1 720 9 view .LVU471
 1399 01a2 9368     		ldr	r3, [r2, #8]
 1400 01a4 0193     		str	r3, [sp, #4]
 720:./Libraries/STM32F4xx_HAL_Driver/Src/stm32f4xx_hal_i2s_ex.c ****       }
 1401              		.loc 1 720 9 view .LVU472
 1402 01a6 019B     		ldr	r3, [sp, #4]
 1403 01a8 C0E7     		b	.L113
 1404              	.LVL71:
 1405              	.L136:
 720:./Libraries/STM32F4xx_HAL_Driver/Src/stm32f4xx_hal_i2s_ex.c ****       }
 1406              		.loc 1 720 9 is_stmt 0 view .LVU473
 1407              	.LBE9:
 724:./Libraries/STM32F4xx_HAL_Driver/Src/stm32f4xx_hal_i2s_ex.c **** 
 1408              		.loc 1 724 66 view .LVU474
 1409 01aa 0D4A     		ldr	r2, .L139+16
 1410 01ac C4E7     		b	.L114
 1411              	.L137:
 727:./Libraries/STM32F4xx_HAL_Driver/Src/stm32f4xx_hal_i2s_ex.c **** 
 1412              		.loc 1 727 7 view .LVU475
 1413 01ae 0C4A     		ldr	r2, .L139+16
 1414 01b0 CEE7     		b	.L115
 1415              	.LVL72:
 1416              	.L138:
 740:./Libraries/STM32F4xx_HAL_Driver/Src/stm32f4xx_hal_i2s_ex.c ****         /* Enable I2S peripheral before the I2Sext */
 1417              		.loc 1 740 9 view .LVU476
 1418 01b2 A2F58062 		sub	r2, r2, #1024
 1419 01b6 E6E7     		b	.L116
 1420              	.LVL73:
ARM GAS  /tmp/ccfbD6Jk.s 			page 54


 1421              	.L117:
 1422              	.LCFI8:
 1423              		.cfi_def_cfa_offset 0
 1424              		.cfi_restore 4
 1425              		.cfi_restore 5
 1426              		.cfi_restore 6
 1427              		.cfi_restore 14
 633:./Libraries/STM32F4xx_HAL_Driver/Src/stm32f4xx_hal_i2s_ex.c ****   }
 1428              		.loc 1 633 13 view .LVU477
 1429 01b8 0120     		movs	r0, #1
 1430              	.LVL74:
 755:./Libraries/STM32F4xx_HAL_Driver/Src/stm32f4xx_hal_i2s_ex.c **** 
 1431              		.loc 1 755 1 view .LVU478
 1432 01ba 7047     		bx	lr
 1433              	.LVL75:
 1434              	.L118:
 1435              	.LCFI9:
 1436              		.cfi_def_cfa_offset 24
 1437              		.cfi_offset 4, -16
 1438              		.cfi_offset 5, -12
 1439              		.cfi_offset 6, -8
 1440              		.cfi_offset 14, -4
 633:./Libraries/STM32F4xx_HAL_Driver/Src/stm32f4xx_hal_i2s_ex.c ****   }
 1441              		.loc 1 633 13 view .LVU479
 1442 01bc 0120     		movs	r0, #1
 1443              	.LVL76:
 633:./Libraries/STM32F4xx_HAL_Driver/Src/stm32f4xx_hal_i2s_ex.c ****   }
 1444              		.loc 1 633 13 view .LVU480
 1445 01be 00E0     		b	.L103
 1446              	.LVL77:
 1447              	.L119:
 633:./Libraries/STM32F4xx_HAL_Driver/Src/stm32f4xx_hal_i2s_ex.c ****   }
 1448              		.loc 1 633 13 view .LVU481
 1449 01c0 0120     		movs	r0, #1
 1450              	.LVL78:
 1451              	.L103:
 755:./Libraries/STM32F4xx_HAL_Driver/Src/stm32f4xx_hal_i2s_ex.c **** 
 1452              		.loc 1 755 1 view .LVU482
 1453 01c2 02B0     		add	sp, sp, #8
 1454              	.LCFI10:
 1455              		.cfi_remember_state
 1456              		.cfi_def_cfa_offset 16
 1457              		@ sp needed
 1458 01c4 70BD     		pop	{r4, r5, r6, pc}
 1459              	.LVL79:
 1460              	.L120:
 1461              	.LCFI11:
 1462              		.cfi_restore_state
 753:./Libraries/STM32F4xx_HAL_Driver/Src/stm32f4xx_hal_i2s_ex.c ****   }
 1463              		.loc 1 753 12 view .LVU483
 1464 01c6 0220     		movs	r0, #2
 1465              	.LVL80:
 753:./Libraries/STM32F4xx_HAL_Driver/Src/stm32f4xx_hal_i2s_ex.c ****   }
 1466              		.loc 1 753 12 view .LVU484
 1467 01c8 FBE7     		b	.L103
 1468              	.LVL81:
 1469              	.L121:
ARM GAS  /tmp/ccfbD6Jk.s 			page 55


 662:./Libraries/STM32F4xx_HAL_Driver/Src/stm32f4xx_hal_i2s_ex.c **** 
 1470              		.loc 1 662 5 view .LVU485
 1471 01ca 0220     		movs	r0, #2
 1472              	.LVL82:
 662:./Libraries/STM32F4xx_HAL_Driver/Src/stm32f4xx_hal_i2s_ex.c **** 
 1473              		.loc 1 662 5 view .LVU486
 1474 01cc F9E7     		b	.L103
 1475              	.L140:
 1476 01ce 00BF     		.align	2
 1477              	.L139:
 1478 01d0 00000000 		.word	I2SEx_TxRxDMAHalfCplt
 1479 01d4 00000000 		.word	I2SEx_TxRxDMACplt
 1480 01d8 00000000 		.word	I2SEx_TxRxDMAError
 1481 01dc 00380040 		.word	1073756160
 1482 01e0 00340040 		.word	1073755136
 1483              		.cfi_endproc
 1484              	.LFE128:
 1486              		.section	.text.HAL_I2SEx_TxRxHalfCpltCallback,"ax",%progbits
 1487              		.align	1
 1488              		.weak	HAL_I2SEx_TxRxHalfCpltCallback
 1489              		.syntax unified
 1490              		.thumb
 1491              		.thumb_func
 1492              		.fpu fpv4-sp-d16
 1494              	HAL_I2SEx_TxRxHalfCpltCallback:
 1495              	.LVL83:
 1496              	.LFB130:
 888:./Libraries/STM32F4xx_HAL_Driver/Src/stm32f4xx_hal_i2s_ex.c ****   /* Prevent unused argument(s) compilation warning */
 1497              		.loc 1 888 1 is_stmt 1 view -0
 1498              		.cfi_startproc
 1499              		@ args = 0, pretend = 0, frame = 0
 1500              		@ frame_needed = 0, uses_anonymous_args = 0
 1501              		@ link register save eliminated.
 890:./Libraries/STM32F4xx_HAL_Driver/Src/stm32f4xx_hal_i2s_ex.c **** 
 1502              		.loc 1 890 3 view .LVU488
 895:./Libraries/STM32F4xx_HAL_Driver/Src/stm32f4xx_hal_i2s_ex.c **** 
 1503              		.loc 1 895 1 is_stmt 0 view .LVU489
 1504 0000 7047     		bx	lr
 1505              		.cfi_endproc
 1506              	.LFE130:
 1508              		.section	.text.I2SEx_TxRxDMAHalfCplt,"ax",%progbits
 1509              		.align	1
 1510              		.syntax unified
 1511              		.thumb
 1512              		.thumb_func
 1513              		.fpu fpv4-sp-d16
 1515              	I2SEx_TxRxDMAHalfCplt:
 1516              	.LVL84:
 1517              	.LFB132:
 931:./Libraries/STM32F4xx_HAL_Driver/Src/stm32f4xx_hal_i2s_ex.c ****   I2S_HandleTypeDef* hi2s = (I2S_HandleTypeDef*)((DMA_HandleTypeDef*)hdma)->Parent;
 1518              		.loc 1 931 1 is_stmt 1 view -0
 1519              		.cfi_startproc
 1520              		@ args = 0, pretend = 0, frame = 0
 1521              		@ frame_needed = 0, uses_anonymous_args = 0
 931:./Libraries/STM32F4xx_HAL_Driver/Src/stm32f4xx_hal_i2s_ex.c ****   I2S_HandleTypeDef* hi2s = (I2S_HandleTypeDef*)((DMA_HandleTypeDef*)hdma)->Parent;
 1522              		.loc 1 931 1 is_stmt 0 view .LVU491
 1523 0000 08B5     		push	{r3, lr}
ARM GAS  /tmp/ccfbD6Jk.s 			page 56


 1524              	.LCFI12:
 1525              		.cfi_def_cfa_offset 8
 1526              		.cfi_offset 3, -8
 1527              		.cfi_offset 14, -4
 932:./Libraries/STM32F4xx_HAL_Driver/Src/stm32f4xx_hal_i2s_ex.c **** 
 1528              		.loc 1 932 3 is_stmt 1 view .LVU492
 1529              	.LVL85:
 934:./Libraries/STM32F4xx_HAL_Driver/Src/stm32f4xx_hal_i2s_ex.c **** }
 1530              		.loc 1 934 4 view .LVU493
 1531 0002 806B     		ldr	r0, [r0, #56]
 1532              	.LVL86:
 934:./Libraries/STM32F4xx_HAL_Driver/Src/stm32f4xx_hal_i2s_ex.c **** }
 1533              		.loc 1 934 4 is_stmt 0 view .LVU494
 1534 0004 FFF7FEFF 		bl	HAL_I2SEx_TxRxHalfCpltCallback
 1535              	.LVL87:
 935:./Libraries/STM32F4xx_HAL_Driver/Src/stm32f4xx_hal_i2s_ex.c **** 
 1536              		.loc 1 935 1 view .LVU495
 1537 0008 08BD     		pop	{r3, pc}
 1538              		.cfi_endproc
 1539              	.LFE132:
 1541              		.section	.text.HAL_I2SEx_TxRxCpltCallback,"ax",%progbits
 1542              		.align	1
 1543              		.weak	HAL_I2SEx_TxRxCpltCallback
 1544              		.syntax unified
 1545              		.thumb
 1546              		.thumb_func
 1547              		.fpu fpv4-sp-d16
 1549              	HAL_I2SEx_TxRxCpltCallback:
 1550              	.LVL88:
 1551              	.LFB131:
 903:./Libraries/STM32F4xx_HAL_Driver/Src/stm32f4xx_hal_i2s_ex.c ****   /* Prevent unused argument(s) compilation warning */
 1552              		.loc 1 903 1 is_stmt 1 view -0
 1553              		.cfi_startproc
 1554              		@ args = 0, pretend = 0, frame = 0
 1555              		@ frame_needed = 0, uses_anonymous_args = 0
 1556              		@ link register save eliminated.
 905:./Libraries/STM32F4xx_HAL_Driver/Src/stm32f4xx_hal_i2s_ex.c **** 
 1557              		.loc 1 905 3 view .LVU497
 910:./Libraries/STM32F4xx_HAL_Driver/Src/stm32f4xx_hal_i2s_ex.c **** 
 1558              		.loc 1 910 1 is_stmt 0 view .LVU498
 1559 0000 7047     		bx	lr
 1560              		.cfi_endproc
 1561              	.LFE131:
 1563              		.section	.text.HAL_I2SEx_TransmitReceive_IT,"ax",%progbits
 1564              		.align	1
 1565              		.global	HAL_I2SEx_TransmitReceive_IT
 1566              		.syntax unified
 1567              		.thumb
 1568              		.thumb_func
 1569              		.fpu fpv4-sp-d16
 1571              	HAL_I2SEx_TransmitReceive_IT:
 1572              	.LVL89:
 1573              	.LFB127:
 471:./Libraries/STM32F4xx_HAL_Driver/Src/stm32f4xx_hal_i2s_ex.c ****   uint32_t tmp1 = 0U;
 1574              		.loc 1 471 1 is_stmt 1 view -0
 1575              		.cfi_startproc
 1576              		@ args = 0, pretend = 0, frame = 0
ARM GAS  /tmp/ccfbD6Jk.s 			page 57


 1577              		@ frame_needed = 0, uses_anonymous_args = 0
 471:./Libraries/STM32F4xx_HAL_Driver/Src/stm32f4xx_hal_i2s_ex.c ****   uint32_t tmp1 = 0U;
 1578              		.loc 1 471 1 is_stmt 0 view .LVU500
 1579 0000 10B5     		push	{r4, lr}
 1580              	.LCFI13:
 1581              		.cfi_def_cfa_offset 8
 1582              		.cfi_offset 4, -8
 1583              		.cfi_offset 14, -4
 1584 0002 0446     		mov	r4, r0
 472:./Libraries/STM32F4xx_HAL_Driver/Src/stm32f4xx_hal_i2s_ex.c **** 
 1585              		.loc 1 472 3 is_stmt 1 view .LVU501
 1586              	.LVL90:
 474:./Libraries/STM32F4xx_HAL_Driver/Src/stm32f4xx_hal_i2s_ex.c ****   {
 1587              		.loc 1 474 3 view .LVU502
 474:./Libraries/STM32F4xx_HAL_Driver/Src/stm32f4xx_hal_i2s_ex.c ****   {
 1588              		.loc 1 474 10 is_stmt 0 view .LVU503
 1589 0004 90F84100 		ldrb	r0, [r0, #65]	@ zero_extendqisi2
 1590              	.LVL91:
 474:./Libraries/STM32F4xx_HAL_Driver/Src/stm32f4xx_hal_i2s_ex.c ****   {
 1591              		.loc 1 474 10 view .LVU504
 1592 0008 C0B2     		uxtb	r0, r0
 474:./Libraries/STM32F4xx_HAL_Driver/Src/stm32f4xx_hal_i2s_ex.c ****   {
 1593              		.loc 1 474 5 view .LVU505
 1594 000a 0128     		cmp	r0, #1
 1595 000c 40F0F280 		bne	.L162
 476:./Libraries/STM32F4xx_HAL_Driver/Src/stm32f4xx_hal_i2s_ex.c ****     {
 1596              		.loc 1 476 5 is_stmt 1 view .LVU506
 476:./Libraries/STM32F4xx_HAL_Driver/Src/stm32f4xx_hal_i2s_ex.c ****     {
 1597              		.loc 1 476 7 is_stmt 0 view .LVU507
 1598 0010 0029     		cmp	r1, #0
 1599 0012 00F0F080 		beq	.L146
 476:./Libraries/STM32F4xx_HAL_Driver/Src/stm32f4xx_hal_i2s_ex.c ****     {
 1600              		.loc 1 476 27 discriminator 1 view .LVU508
 1601 0016 002A     		cmp	r2, #0
 1602 0018 00F0ED80 		beq	.L146
 476:./Libraries/STM32F4xx_HAL_Driver/Src/stm32f4xx_hal_i2s_ex.c ****     {
 1603              		.loc 1 476 49 discriminator 2 view .LVU509
 1604 001c 002B     		cmp	r3, #0
 1605 001e 00F0EA80 		beq	.L146
 481:./Libraries/STM32F4xx_HAL_Driver/Src/stm32f4xx_hal_i2s_ex.c ****     hi2s->pRxBuffPtr = pRxData;
 1606              		.loc 1 481 5 is_stmt 1 view .LVU510
 481:./Libraries/STM32F4xx_HAL_Driver/Src/stm32f4xx_hal_i2s_ex.c ****     hi2s->pRxBuffPtr = pRxData;
 1607              		.loc 1 481 22 is_stmt 0 view .LVU511
 1608 0022 6162     		str	r1, [r4, #36]
 482:./Libraries/STM32F4xx_HAL_Driver/Src/stm32f4xx_hal_i2s_ex.c **** 
 1609              		.loc 1 482 5 is_stmt 1 view .LVU512
 482:./Libraries/STM32F4xx_HAL_Driver/Src/stm32f4xx_hal_i2s_ex.c **** 
 1610              		.loc 1 482 22 is_stmt 0 view .LVU513
 1611 0024 E262     		str	r2, [r4, #44]
 484:./Libraries/STM32F4xx_HAL_Driver/Src/stm32f4xx_hal_i2s_ex.c ****     /* Check the Data format: When a 16-bit data frame or a 16-bit data frame extended
 1612              		.loc 1 484 5 is_stmt 1 view .LVU514
 484:./Libraries/STM32F4xx_HAL_Driver/Src/stm32f4xx_hal_i2s_ex.c ****     /* Check the Data format: When a 16-bit data frame or a 16-bit data frame extended
 1613              		.loc 1 484 16 is_stmt 0 view .LVU515
 1614 0026 2168     		ldr	r1, [r4]
 1615              	.LVL92:
 484:./Libraries/STM32F4xx_HAL_Driver/Src/stm32f4xx_hal_i2s_ex.c ****     /* Check the Data format: When a 16-bit data frame or a 16-bit data frame extended
 1616              		.loc 1 484 26 view .LVU516
ARM GAS  /tmp/ccfbD6Jk.s 			page 58


 1617 0028 CA69     		ldr	r2, [r1, #28]
 1618              	.LVL93:
 484:./Libraries/STM32F4xx_HAL_Driver/Src/stm32f4xx_hal_i2s_ex.c ****     /* Check the Data format: When a 16-bit data frame or a 16-bit data frame extended
 1619              		.loc 1 484 10 view .LVU517
 1620 002a 02F00702 		and	r2, r2, #7
 1621              	.LVL94:
 489:./Libraries/STM32F4xx_HAL_Driver/Src/stm32f4xx_hal_i2s_ex.c ****     {
 1622              		.loc 1 489 5 is_stmt 1 view .LVU518
 489:./Libraries/STM32F4xx_HAL_Driver/Src/stm32f4xx_hal_i2s_ex.c ****     {
 1623              		.loc 1 489 7 is_stmt 0 view .LVU519
 1624 002e 032A     		cmp	r2, #3
 1625 0030 06D0     		beq	.L147
 489:./Libraries/STM32F4xx_HAL_Driver/Src/stm32f4xx_hal_i2s_ex.c ****     {
 1626              		.loc 1 489 37 discriminator 1 view .LVU520
 1627 0032 052A     		cmp	r2, #5
 1628 0034 04D0     		beq	.L147
 498:./Libraries/STM32F4xx_HAL_Driver/Src/stm32f4xx_hal_i2s_ex.c ****       hi2s->TxXferCount = Size;
 1629              		.loc 1 498 7 is_stmt 1 view .LVU521
 498:./Libraries/STM32F4xx_HAL_Driver/Src/stm32f4xx_hal_i2s_ex.c ****       hi2s->TxXferCount = Size;
 1630              		.loc 1 498 25 is_stmt 0 view .LVU522
 1631 0036 2385     		strh	r3, [r4, #40]	@ movhi
 499:./Libraries/STM32F4xx_HAL_Driver/Src/stm32f4xx_hal_i2s_ex.c ****       hi2s->RxXferSize  = Size;
 1632              		.loc 1 499 7 is_stmt 1 view .LVU523
 499:./Libraries/STM32F4xx_HAL_Driver/Src/stm32f4xx_hal_i2s_ex.c ****       hi2s->RxXferSize  = Size;
 1633              		.loc 1 499 25 is_stmt 0 view .LVU524
 1634 0038 6385     		strh	r3, [r4, #42]	@ movhi
 500:./Libraries/STM32F4xx_HAL_Driver/Src/stm32f4xx_hal_i2s_ex.c ****       hi2s->RxXferCount = Size;
 1635              		.loc 1 500 7 is_stmt 1 view .LVU525
 500:./Libraries/STM32F4xx_HAL_Driver/Src/stm32f4xx_hal_i2s_ex.c ****       hi2s->RxXferCount = Size;
 1636              		.loc 1 500 25 is_stmt 0 view .LVU526
 1637 003a 2386     		strh	r3, [r4, #48]	@ movhi
 501:./Libraries/STM32F4xx_HAL_Driver/Src/stm32f4xx_hal_i2s_ex.c ****     }
 1638              		.loc 1 501 7 is_stmt 1 view .LVU527
 501:./Libraries/STM32F4xx_HAL_Driver/Src/stm32f4xx_hal_i2s_ex.c ****     }
 1639              		.loc 1 501 25 is_stmt 0 view .LVU528
 1640 003c 6386     		strh	r3, [r4, #50]	@ movhi
 1641 003e 05E0     		b	.L149
 1642              	.L147:
 491:./Libraries/STM32F4xx_HAL_Driver/Src/stm32f4xx_hal_i2s_ex.c ****       hi2s->TxXferCount = (Size << 1U);
 1643              		.loc 1 491 7 is_stmt 1 view .LVU529
 491:./Libraries/STM32F4xx_HAL_Driver/Src/stm32f4xx_hal_i2s_ex.c ****       hi2s->TxXferCount = (Size << 1U);
 1644              		.loc 1 491 33 is_stmt 0 view .LVU530
 1645 0040 5B00     		lsls	r3, r3, #1
 1646              	.LVL95:
 491:./Libraries/STM32F4xx_HAL_Driver/Src/stm32f4xx_hal_i2s_ex.c ****       hi2s->TxXferCount = (Size << 1U);
 1647              		.loc 1 491 33 view .LVU531
 1648 0042 9BB2     		uxth	r3, r3
 491:./Libraries/STM32F4xx_HAL_Driver/Src/stm32f4xx_hal_i2s_ex.c ****       hi2s->TxXferCount = (Size << 1U);
 1649              		.loc 1 491 25 view .LVU532
 1650 0044 2385     		strh	r3, [r4, #40]	@ movhi
 492:./Libraries/STM32F4xx_HAL_Driver/Src/stm32f4xx_hal_i2s_ex.c ****       hi2s->RxXferSize  = (Size << 1U);
 1651              		.loc 1 492 7 is_stmt 1 view .LVU533
 492:./Libraries/STM32F4xx_HAL_Driver/Src/stm32f4xx_hal_i2s_ex.c ****       hi2s->RxXferSize  = (Size << 1U);
 1652              		.loc 1 492 25 is_stmt 0 view .LVU534
 1653 0046 6385     		strh	r3, [r4, #42]	@ movhi
 493:./Libraries/STM32F4xx_HAL_Driver/Src/stm32f4xx_hal_i2s_ex.c ****       hi2s->RxXferCount = (Size << 1U);
 1654              		.loc 1 493 7 is_stmt 1 view .LVU535
ARM GAS  /tmp/ccfbD6Jk.s 			page 59


 493:./Libraries/STM32F4xx_HAL_Driver/Src/stm32f4xx_hal_i2s_ex.c ****       hi2s->RxXferCount = (Size << 1U);
 1655              		.loc 1 493 25 is_stmt 0 view .LVU536
 1656 0048 2386     		strh	r3, [r4, #48]	@ movhi
 494:./Libraries/STM32F4xx_HAL_Driver/Src/stm32f4xx_hal_i2s_ex.c ****     }
 1657              		.loc 1 494 7 is_stmt 1 view .LVU537
 494:./Libraries/STM32F4xx_HAL_Driver/Src/stm32f4xx_hal_i2s_ex.c ****     }
 1658              		.loc 1 494 25 is_stmt 0 view .LVU538
 1659 004a 6386     		strh	r3, [r4, #50]	@ movhi
 1660              	.L149:
 505:./Libraries/STM32F4xx_HAL_Driver/Src/stm32f4xx_hal_i2s_ex.c **** 
 1661              		.loc 1 505 5 is_stmt 1 view .LVU539
 505:./Libraries/STM32F4xx_HAL_Driver/Src/stm32f4xx_hal_i2s_ex.c **** 
 1662              		.loc 1 505 5 view .LVU540
 1663 004c 94F84030 		ldrb	r3, [r4, #64]	@ zero_extendqisi2
 1664 0050 DBB2     		uxtb	r3, r3
 1665 0052 012B     		cmp	r3, #1
 1666 0054 00F0D080 		beq	.L163
 505:./Libraries/STM32F4xx_HAL_Driver/Src/stm32f4xx_hal_i2s_ex.c **** 
 1667              		.loc 1 505 5 discriminator 2 view .LVU541
 1668 0058 0123     		movs	r3, #1
 1669 005a 84F84030 		strb	r3, [r4, #64]
 505:./Libraries/STM32F4xx_HAL_Driver/Src/stm32f4xx_hal_i2s_ex.c **** 
 1670              		.loc 1 505 5 discriminator 2 view .LVU542
 507:./Libraries/STM32F4xx_HAL_Driver/Src/stm32f4xx_hal_i2s_ex.c ****     hi2s->State     = HAL_I2S_STATE_BUSY_TX_RX;
 1671              		.loc 1 507 5 discriminator 2 view .LVU543
 507:./Libraries/STM32F4xx_HAL_Driver/Src/stm32f4xx_hal_i2s_ex.c ****     hi2s->State     = HAL_I2S_STATE_BUSY_TX_RX;
 1672              		.loc 1 507 21 is_stmt 0 discriminator 2 view .LVU544
 1673 005e 0023     		movs	r3, #0
 1674 0060 6364     		str	r3, [r4, #68]
 508:./Libraries/STM32F4xx_HAL_Driver/Src/stm32f4xx_hal_i2s_ex.c **** 
 1675              		.loc 1 508 5 is_stmt 1 discriminator 2 view .LVU545
 508:./Libraries/STM32F4xx_HAL_Driver/Src/stm32f4xx_hal_i2s_ex.c **** 
 1676              		.loc 1 508 21 is_stmt 0 discriminator 2 view .LVU546
 1677 0062 0523     		movs	r3, #5
 1678 0064 84F84130 		strb	r3, [r4, #65]
 510:./Libraries/STM32F4xx_HAL_Driver/Src/stm32f4xx_hal_i2s_ex.c ****     /* Check if the I2S_MODE_MASTER_TX or I2S_MODE_SLAVE_TX Mode is selected */
 1679              		.loc 1 510 5 is_stmt 1 discriminator 2 view .LVU547
 510:./Libraries/STM32F4xx_HAL_Driver/Src/stm32f4xx_hal_i2s_ex.c ****     /* Check if the I2S_MODE_MASTER_TX or I2S_MODE_SLAVE_TX Mode is selected */
 1680              		.loc 1 510 26 is_stmt 0 discriminator 2 view .LVU548
 1681 0068 CB69     		ldr	r3, [r1, #28]
 510:./Libraries/STM32F4xx_HAL_Driver/Src/stm32f4xx_hal_i2s_ex.c ****     /* Check if the I2S_MODE_MASTER_TX or I2S_MODE_SLAVE_TX Mode is selected */
 1682              		.loc 1 510 10 discriminator 2 view .LVU549
 1683 006a 03F44073 		and	r3, r3, #768
 1684              	.LVL96:
 512:./Libraries/STM32F4xx_HAL_Driver/Src/stm32f4xx_hal_i2s_ex.c ****     {
 1685              		.loc 1 512 5 is_stmt 1 discriminator 2 view .LVU550
 512:./Libraries/STM32F4xx_HAL_Driver/Src/stm32f4xx_hal_i2s_ex.c ****     {
 1686              		.loc 1 512 7 is_stmt 0 discriminator 2 view .LVU551
 1687 006e B3F5007F 		cmp	r3, #512
 1688 0072 01D0     		beq	.L150
 512:./Libraries/STM32F4xx_HAL_Driver/Src/stm32f4xx_hal_i2s_ex.c ****     {
 1689              		.loc 1 512 37 discriminator 1 view .LVU552
 1690 0074 002B     		cmp	r3, #0
 1691 0076 59D1     		bne	.L151
 1692              	.L150:
 515:./Libraries/STM32F4xx_HAL_Driver/Src/stm32f4xx_hal_i2s_ex.c **** 
 1693              		.loc 1 515 7 is_stmt 1 view .LVU553
ARM GAS  /tmp/ccfbD6Jk.s 			page 60


 1694 0078 604B     		ldr	r3, .L180
 1695              	.LVL97:
 515:./Libraries/STM32F4xx_HAL_Driver/Src/stm32f4xx_hal_i2s_ex.c **** 
 1696              		.loc 1 515 7 is_stmt 0 view .LVU554
 1697 007a 9942     		cmp	r1, r3
 1698 007c 50D0     		beq	.L172
 1699 007e 4FF04022 		mov	r2, #1073758208
 1700              	.L152:
 515:./Libraries/STM32F4xx_HAL_Driver/Src/stm32f4xx_hal_i2s_ex.c **** 
 1701              		.loc 1 515 7 discriminator 4 view .LVU555
 1702 0082 5368     		ldr	r3, [r2, #4]
 1703 0084 43F06003 		orr	r3, r3, #96
 1704 0088 5360     		str	r3, [r2, #4]
 1705              	.LVL98:
 518:./Libraries/STM32F4xx_HAL_Driver/Src/stm32f4xx_hal_i2s_ex.c **** 
 1706              		.loc 1 518 7 is_stmt 1 discriminator 4 view .LVU556
 1707 008a 2268     		ldr	r2, [r4]
 1708 008c 5368     		ldr	r3, [r2, #4]
 1709 008e 43F0A003 		orr	r3, r3, #160
 1710 0092 5360     		str	r3, [r2, #4]
 521:./Libraries/STM32F4xx_HAL_Driver/Src/stm32f4xx_hal_i2s_ex.c ****       {
 1711              		.loc 1 521 7 discriminator 4 view .LVU557
 521:./Libraries/STM32F4xx_HAL_Driver/Src/stm32f4xx_hal_i2s_ex.c ****       {
 1712              		.loc 1 521 15 is_stmt 0 discriminator 4 view .LVU558
 1713 0094 2368     		ldr	r3, [r4]
 521:./Libraries/STM32F4xx_HAL_Driver/Src/stm32f4xx_hal_i2s_ex.c ****       {
 1714              		.loc 1 521 25 discriminator 4 view .LVU559
 1715 0096 DA69     		ldr	r2, [r3, #28]
 521:./Libraries/STM32F4xx_HAL_Driver/Src/stm32f4xx_hal_i2s_ex.c ****       {
 1716              		.loc 1 521 9 discriminator 4 view .LVU560
 1717 0098 12F4806F 		tst	r2, #1024
 1718 009c 3CD1     		bne	.L153
 523:./Libraries/STM32F4xx_HAL_Driver/Src/stm32f4xx_hal_i2s_ex.c ****         {
 1719              		.loc 1 523 9 is_stmt 1 view .LVU561
 523:./Libraries/STM32F4xx_HAL_Driver/Src/stm32f4xx_hal_i2s_ex.c ****         {
 1720              		.loc 1 523 27 is_stmt 0 view .LVU562
 1721 009e DA69     		ldr	r2, [r3, #28]
 523:./Libraries/STM32F4xx_HAL_Driver/Src/stm32f4xx_hal_i2s_ex.c ****         {
 1722              		.loc 1 523 11 view .LVU563
 1723 00a0 12F4407F 		tst	r2, #768
 1724 00a4 29D1     		bne	.L154
 526:./Libraries/STM32F4xx_HAL_Driver/Src/stm32f4xx_hal_i2s_ex.c ****           {
 1725              		.loc 1 526 11 is_stmt 1 view .LVU564
 526:./Libraries/STM32F4xx_HAL_Driver/Src/stm32f4xx_hal_i2s_ex.c ****           {
 1726              		.loc 1 526 18 is_stmt 0 view .LVU565
 1727 00a6 628D     		ldrh	r2, [r4, #42]
 1728 00a8 92B2     		uxth	r2, r2
 526:./Libraries/STM32F4xx_HAL_Driver/Src/stm32f4xx_hal_i2s_ex.c ****           {
 1729              		.loc 1 526 13 view .LVU566
 1730 00aa 32B3     		cbz	r2, .L154
 529:./Libraries/STM32F4xx_HAL_Driver/Src/stm32f4xx_hal_i2s_ex.c ****             hi2s->TxXferCount--;
 1731              		.loc 1 529 13 is_stmt 1 view .LVU567
 529:./Libraries/STM32F4xx_HAL_Driver/Src/stm32f4xx_hal_i2s_ex.c ****             hi2s->TxXferCount--;
 1732              		.loc 1 529 40 is_stmt 0 view .LVU568
 1733 00ac 626A     		ldr	r2, [r4, #36]
 529:./Libraries/STM32F4xx_HAL_Driver/Src/stm32f4xx_hal_i2s_ex.c ****             hi2s->TxXferCount--;
 1734              		.loc 1 529 52 view .LVU569
ARM GAS  /tmp/ccfbD6Jk.s 			page 61


 1735 00ae 911C     		adds	r1, r2, #2
 1736 00b0 6162     		str	r1, [r4, #36]
 529:./Libraries/STM32F4xx_HAL_Driver/Src/stm32f4xx_hal_i2s_ex.c ****             hi2s->TxXferCount--;
 1737              		.loc 1 529 35 view .LVU570
 1738 00b2 1288     		ldrh	r2, [r2]
 529:./Libraries/STM32F4xx_HAL_Driver/Src/stm32f4xx_hal_i2s_ex.c ****             hi2s->TxXferCount--;
 1739              		.loc 1 529 32 view .LVU571
 1740 00b4 DA60     		str	r2, [r3, #12]
 530:./Libraries/STM32F4xx_HAL_Driver/Src/stm32f4xx_hal_i2s_ex.c **** 
 1741              		.loc 1 530 13 is_stmt 1 view .LVU572
 530:./Libraries/STM32F4xx_HAL_Driver/Src/stm32f4xx_hal_i2s_ex.c **** 
 1742              		.loc 1 530 17 is_stmt 0 view .LVU573
 1743 00b6 638D     		ldrh	r3, [r4, #42]
 1744 00b8 9BB2     		uxth	r3, r3
 530:./Libraries/STM32F4xx_HAL_Driver/Src/stm32f4xx_hal_i2s_ex.c **** 
 1745              		.loc 1 530 30 view .LVU574
 1746 00ba 013B     		subs	r3, r3, #1
 1747 00bc 9BB2     		uxth	r3, r3
 1748 00be 6385     		strh	r3, [r4, #42]	@ movhi
 532:./Libraries/STM32F4xx_HAL_Driver/Src/stm32f4xx_hal_i2s_ex.c ****             {
 1749              		.loc 1 532 13 is_stmt 1 view .LVU575
 532:./Libraries/STM32F4xx_HAL_Driver/Src/stm32f4xx_hal_i2s_ex.c ****             {
 1750              		.loc 1 532 20 is_stmt 0 view .LVU576
 1751 00c0 638D     		ldrh	r3, [r4, #42]
 1752 00c2 9BB2     		uxth	r3, r3
 532:./Libraries/STM32F4xx_HAL_Driver/Src/stm32f4xx_hal_i2s_ex.c ****             {
 1753              		.loc 1 532 15 view .LVU577
 1754 00c4 CBB9     		cbnz	r3, .L154
 535:./Libraries/STM32F4xx_HAL_Driver/Src/stm32f4xx_hal_i2s_ex.c **** 
 1755              		.loc 1 535 15 is_stmt 1 view .LVU578
 1756 00c6 2268     		ldr	r2, [r4]
 1757 00c8 5368     		ldr	r3, [r2, #4]
 1758 00ca 23F0A003 		bic	r3, r3, #160
 1759 00ce 1B04     		lsls	r3, r3, #16
 1760 00d0 1B0C     		lsrs	r3, r3, #16
 1761 00d2 5360     		str	r3, [r2, #4]
 537:./Libraries/STM32F4xx_HAL_Driver/Src/stm32f4xx_hal_i2s_ex.c ****               {
 1762              		.loc 1 537 15 view .LVU579
 537:./Libraries/STM32F4xx_HAL_Driver/Src/stm32f4xx_hal_i2s_ex.c ****               {
 1763              		.loc 1 537 22 is_stmt 0 view .LVU580
 1764 00d4 638E     		ldrh	r3, [r4, #50]
 1765 00d6 9BB2     		uxth	r3, r3
 537:./Libraries/STM32F4xx_HAL_Driver/Src/stm32f4xx_hal_i2s_ex.c ****               {
 1766              		.loc 1 537 17 view .LVU581
 1767 00d8 7BB9     		cbnz	r3, .L154
 540:./Libraries/STM32F4xx_HAL_Driver/Src/stm32f4xx_hal_i2s_ex.c **** 
 1768              		.loc 1 540 17 is_stmt 1 view .LVU582
 1769 00da 2268     		ldr	r2, [r4]
 1770 00dc 474B     		ldr	r3, .L180
 1771 00de 9A42     		cmp	r2, r3
 1772 00e0 20D0     		beq	.L173
 1773 00e2 4FF04022 		mov	r2, #1073758208
 1774              	.L155:
 540:./Libraries/STM32F4xx_HAL_Driver/Src/stm32f4xx_hal_i2s_ex.c **** 
 1775              		.loc 1 540 17 is_stmt 0 discriminator 4 view .LVU583
 1776 00e6 5368     		ldr	r3, [r2, #4]
 1777 00e8 23F06003 		bic	r3, r3, #96
ARM GAS  /tmp/ccfbD6Jk.s 			page 62


 1778 00ec 5360     		str	r3, [r2, #4]
 542:./Libraries/STM32F4xx_HAL_Driver/Src/stm32f4xx_hal_i2s_ex.c ****                 HAL_I2SEx_TxRxCpltCallback(hi2s);
 1779              		.loc 1 542 17 is_stmt 1 discriminator 4 view .LVU584
 542:./Libraries/STM32F4xx_HAL_Driver/Src/stm32f4xx_hal_i2s_ex.c ****                 HAL_I2SEx_TxRxCpltCallback(hi2s);
 1780              		.loc 1 542 29 is_stmt 0 discriminator 4 view .LVU585
 1781 00ee 0123     		movs	r3, #1
 1782 00f0 84F84130 		strb	r3, [r4, #65]
 543:./Libraries/STM32F4xx_HAL_Driver/Src/stm32f4xx_hal_i2s_ex.c ****               }
 1783              		.loc 1 543 17 is_stmt 1 discriminator 4 view .LVU586
 1784 00f4 2046     		mov	r0, r4
 1785 00f6 FFF7FEFF 		bl	HAL_I2SEx_TxRxCpltCallback
 1786              	.LVL99:
 1787              	.L154:
 549:./Libraries/STM32F4xx_HAL_Driver/Src/stm32f4xx_hal_i2s_ex.c **** 
 1788              		.loc 1 549 9 view .LVU587
 1789 00fa 2268     		ldr	r2, [r4]
 1790 00fc 3F4B     		ldr	r3, .L180
 1791 00fe 9A42     		cmp	r2, r3
 1792 0100 12D0     		beq	.L174
 1793 0102 4FF04022 		mov	r2, #1073758208
 1794              	.L156:
 549:./Libraries/STM32F4xx_HAL_Driver/Src/stm32f4xx_hal_i2s_ex.c **** 
 1795              		.loc 1 549 9 is_stmt 0 discriminator 4 view .LVU588
 1796 0106 D369     		ldr	r3, [r2, #28]
 1797 0108 43F48063 		orr	r3, r3, #1024
 1798 010c D361     		str	r3, [r2, #28]
 552:./Libraries/STM32F4xx_HAL_Driver/Src/stm32f4xx_hal_i2s_ex.c ****       }
 1799              		.loc 1 552 9 is_stmt 1 discriminator 4 view .LVU589
 1800 010e 2268     		ldr	r2, [r4]
 1801 0110 D369     		ldr	r3, [r2, #28]
 1802 0112 43F48063 		orr	r3, r3, #1024
 1803 0116 D361     		str	r3, [r2, #28]
 1804              	.L153:
 600:./Libraries/STM32F4xx_HAL_Driver/Src/stm32f4xx_hal_i2s_ex.c **** 
 1805              		.loc 1 600 5 view .LVU590
 600:./Libraries/STM32F4xx_HAL_Driver/Src/stm32f4xx_hal_i2s_ex.c **** 
 1806              		.loc 1 600 5 view .LVU591
 1807 0118 0020     		movs	r0, #0
 1808 011a 84F84000 		strb	r0, [r4, #64]
 600:./Libraries/STM32F4xx_HAL_Driver/Src/stm32f4xx_hal_i2s_ex.c **** 
 1809              		.loc 1 600 5 view .LVU592
 602:./Libraries/STM32F4xx_HAL_Driver/Src/stm32f4xx_hal_i2s_ex.c ****   }
 1810              		.loc 1 602 5 view .LVU593
 602:./Libraries/STM32F4xx_HAL_Driver/Src/stm32f4xx_hal_i2s_ex.c ****   }
 1811              		.loc 1 602 12 is_stmt 0 view .LVU594
 1812 011e 6AE0     		b	.L146
 1813              	.LVL100:
 1814              	.L172:
 515:./Libraries/STM32F4xx_HAL_Driver/Src/stm32f4xx_hal_i2s_ex.c **** 
 1815              		.loc 1 515 7 view .LVU595
 1816 0120 374A     		ldr	r2, .L180+4
 1817 0122 AEE7     		b	.L152
 1818              	.LVL101:
 1819              	.L173:
 540:./Libraries/STM32F4xx_HAL_Driver/Src/stm32f4xx_hal_i2s_ex.c **** 
 1820              		.loc 1 540 17 view .LVU596
 1821 0124 364A     		ldr	r2, .L180+4
ARM GAS  /tmp/ccfbD6Jk.s 			page 63


 1822 0126 DEE7     		b	.L155
 1823              	.L174:
 549:./Libraries/STM32F4xx_HAL_Driver/Src/stm32f4xx_hal_i2s_ex.c **** 
 1824              		.loc 1 549 9 view .LVU597
 1825 0128 354A     		ldr	r2, .L180+4
 1826 012a ECE7     		b	.L156
 1827              	.LVL102:
 1828              	.L151:
 559:./Libraries/STM32F4xx_HAL_Driver/Src/stm32f4xx_hal_i2s_ex.c **** 
 1829              		.loc 1 559 7 is_stmt 1 view .LVU598
 1830 012c 334B     		ldr	r3, .L180
 1831              	.LVL103:
 559:./Libraries/STM32F4xx_HAL_Driver/Src/stm32f4xx_hal_i2s_ex.c **** 
 1832              		.loc 1 559 7 is_stmt 0 view .LVU599
 1833 012e 9942     		cmp	r1, r3
 1834 0130 25D0     		beq	.L175
 1835 0132 4FF04022 		mov	r2, #1073758208
 1836              	.L157:
 559:./Libraries/STM32F4xx_HAL_Driver/Src/stm32f4xx_hal_i2s_ex.c **** 
 1837              		.loc 1 559 7 discriminator 4 view .LVU600
 1838 0136 5368     		ldr	r3, [r2, #4]
 1839 0138 43F0A003 		orr	r3, r3, #160
 1840 013c 5360     		str	r3, [r2, #4]
 1841              	.LVL104:
 562:./Libraries/STM32F4xx_HAL_Driver/Src/stm32f4xx_hal_i2s_ex.c **** 
 1842              		.loc 1 562 7 is_stmt 1 discriminator 4 view .LVU601
 1843 013e 2268     		ldr	r2, [r4]
 1844 0140 5368     		ldr	r3, [r2, #4]
 1845 0142 43F06003 		orr	r3, r3, #96
 1846 0146 5360     		str	r3, [r2, #4]
 565:./Libraries/STM32F4xx_HAL_Driver/Src/stm32f4xx_hal_i2s_ex.c ****       {
 1847              		.loc 1 565 7 discriminator 4 view .LVU602
 565:./Libraries/STM32F4xx_HAL_Driver/Src/stm32f4xx_hal_i2s_ex.c ****       {
 1848              		.loc 1 565 15 is_stmt 0 discriminator 4 view .LVU603
 1849 0148 2368     		ldr	r3, [r4]
 565:./Libraries/STM32F4xx_HAL_Driver/Src/stm32f4xx_hal_i2s_ex.c ****       {
 1850              		.loc 1 565 25 discriminator 4 view .LVU604
 1851 014a DA69     		ldr	r2, [r3, #28]
 565:./Libraries/STM32F4xx_HAL_Driver/Src/stm32f4xx_hal_i2s_ex.c ****       {
 1852              		.loc 1 565 9 discriminator 4 view .LVU605
 1853 014c 12F4806F 		tst	r2, #1024
 1854 0150 E2D1     		bne	.L153
 568:./Libraries/STM32F4xx_HAL_Driver/Src/stm32f4xx_hal_i2s_ex.c ****         {
 1855              		.loc 1 568 9 is_stmt 1 view .LVU606
 568:./Libraries/STM32F4xx_HAL_Driver/Src/stm32f4xx_hal_i2s_ex.c ****         {
 1856              		.loc 1 568 27 is_stmt 0 view .LVU607
 1857 0152 DA69     		ldr	r2, [r3, #28]
 568:./Libraries/STM32F4xx_HAL_Driver/Src/stm32f4xx_hal_i2s_ex.c ****         {
 1858              		.loc 1 568 37 view .LVU608
 1859 0154 02F44072 		and	r2, r2, #768
 568:./Libraries/STM32F4xx_HAL_Driver/Src/stm32f4xx_hal_i2s_ex.c ****         {
 1860              		.loc 1 568 11 view .LVU609
 1861 0158 B2F5407F 		cmp	r2, #768
 1862 015c 11D0     		beq	.L176
 1863              	.L158:
 593:./Libraries/STM32F4xx_HAL_Driver/Src/stm32f4xx_hal_i2s_ex.c **** 
 1864              		.loc 1 593 9 is_stmt 1 view .LVU610
ARM GAS  /tmp/ccfbD6Jk.s 			page 64


 1865 015e 2268     		ldr	r2, [r4]
 1866 0160 264B     		ldr	r3, .L180
 1867 0162 9A42     		cmp	r2, r3
 1868 0164 44D0     		beq	.L177
 1869 0166 4FF04022 		mov	r2, #1073758208
 1870              	.L161:
 593:./Libraries/STM32F4xx_HAL_Driver/Src/stm32f4xx_hal_i2s_ex.c **** 
 1871              		.loc 1 593 9 is_stmt 0 discriminator 4 view .LVU611
 1872 016a D369     		ldr	r3, [r2, #28]
 1873 016c 43F48063 		orr	r3, r3, #1024
 1874 0170 D361     		str	r3, [r2, #28]
 596:./Libraries/STM32F4xx_HAL_Driver/Src/stm32f4xx_hal_i2s_ex.c ****       }
 1875              		.loc 1 596 9 is_stmt 1 discriminator 4 view .LVU612
 1876 0172 2268     		ldr	r2, [r4]
 1877 0174 D369     		ldr	r3, [r2, #28]
 1878 0176 43F48063 		orr	r3, r3, #1024
 1879 017a D361     		str	r3, [r2, #28]
 1880 017c CCE7     		b	.L153
 1881              	.LVL105:
 1882              	.L175:
 559:./Libraries/STM32F4xx_HAL_Driver/Src/stm32f4xx_hal_i2s_ex.c **** 
 1883              		.loc 1 559 7 is_stmt 0 view .LVU613
 1884 017e 204A     		ldr	r2, .L180+4
 1885 0180 D9E7     		b	.L157
 1886              	.LVL106:
 1887              	.L176:
 571:./Libraries/STM32F4xx_HAL_Driver/Src/stm32f4xx_hal_i2s_ex.c ****           {
 1888              		.loc 1 571 11 is_stmt 1 view .LVU614
 571:./Libraries/STM32F4xx_HAL_Driver/Src/stm32f4xx_hal_i2s_ex.c ****           {
 1889              		.loc 1 571 18 is_stmt 0 view .LVU615
 1890 0182 628D     		ldrh	r2, [r4, #42]
 1891 0184 92B2     		uxth	r2, r2
 571:./Libraries/STM32F4xx_HAL_Driver/Src/stm32f4xx_hal_i2s_ex.c ****           {
 1892              		.loc 1 571 13 view .LVU616
 1893 0186 002A     		cmp	r2, #0
 1894 0188 E9D0     		beq	.L158
 574:./Libraries/STM32F4xx_HAL_Driver/Src/stm32f4xx_hal_i2s_ex.c ****             hi2s->TxXferCount--;
 1895              		.loc 1 574 13 is_stmt 1 view .LVU617
 574:./Libraries/STM32F4xx_HAL_Driver/Src/stm32f4xx_hal_i2s_ex.c ****             hi2s->TxXferCount--;
 1896              		.loc 1 574 49 is_stmt 0 view .LVU618
 1897 018a 626A     		ldr	r2, [r4, #36]
 574:./Libraries/STM32F4xx_HAL_Driver/Src/stm32f4xx_hal_i2s_ex.c ****             hi2s->TxXferCount--;
 1898              		.loc 1 574 61 view .LVU619
 1899 018c 911C     		adds	r1, r2, #2
 1900 018e 6162     		str	r1, [r4, #36]
 574:./Libraries/STM32F4xx_HAL_Driver/Src/stm32f4xx_hal_i2s_ex.c ****             hi2s->TxXferCount--;
 1901              		.loc 1 574 44 view .LVU620
 1902 0190 1288     		ldrh	r2, [r2]
 574:./Libraries/STM32F4xx_HAL_Driver/Src/stm32f4xx_hal_i2s_ex.c ****             hi2s->TxXferCount--;
 1903              		.loc 1 574 13 view .LVU621
 1904 0192 1A49     		ldr	r1, .L180
 1905 0194 8B42     		cmp	r3, r1
 1906 0196 27D0     		beq	.L178
 1907 0198 4FF04023 		mov	r3, #1073758208
 1908              	.L159:
 574:./Libraries/STM32F4xx_HAL_Driver/Src/stm32f4xx_hal_i2s_ex.c ****             hi2s->TxXferCount--;
 1909              		.loc 1 574 41 discriminator 4 view .LVU622
ARM GAS  /tmp/ccfbD6Jk.s 			page 65


 1910 019c DA60     		str	r2, [r3, #12]
 575:./Libraries/STM32F4xx_HAL_Driver/Src/stm32f4xx_hal_i2s_ex.c **** 
 1911              		.loc 1 575 13 is_stmt 1 discriminator 4 view .LVU623
 575:./Libraries/STM32F4xx_HAL_Driver/Src/stm32f4xx_hal_i2s_ex.c **** 
 1912              		.loc 1 575 17 is_stmt 0 discriminator 4 view .LVU624
 1913 019e 638D     		ldrh	r3, [r4, #42]
 1914 01a0 9BB2     		uxth	r3, r3
 575:./Libraries/STM32F4xx_HAL_Driver/Src/stm32f4xx_hal_i2s_ex.c **** 
 1915              		.loc 1 575 30 discriminator 4 view .LVU625
 1916 01a2 013B     		subs	r3, r3, #1
 1917 01a4 9BB2     		uxth	r3, r3
 1918 01a6 6385     		strh	r3, [r4, #42]	@ movhi
 577:./Libraries/STM32F4xx_HAL_Driver/Src/stm32f4xx_hal_i2s_ex.c ****             {
 1919              		.loc 1 577 13 is_stmt 1 discriminator 4 view .LVU626
 577:./Libraries/STM32F4xx_HAL_Driver/Src/stm32f4xx_hal_i2s_ex.c ****             {
 1920              		.loc 1 577 20 is_stmt 0 discriminator 4 view .LVU627
 1921 01a8 638D     		ldrh	r3, [r4, #42]
 1922 01aa 9BB2     		uxth	r3, r3
 577:./Libraries/STM32F4xx_HAL_Driver/Src/stm32f4xx_hal_i2s_ex.c ****             {
 1923              		.loc 1 577 15 discriminator 4 view .LVU628
 1924 01ac 002B     		cmp	r3, #0
 1925 01ae D6D1     		bne	.L158
 580:./Libraries/STM32F4xx_HAL_Driver/Src/stm32f4xx_hal_i2s_ex.c ****               if(hi2s->RxXferCount == 0U)
 1926              		.loc 1 580 15 is_stmt 1 view .LVU629
 1927 01b0 2268     		ldr	r2, [r4]
 1928 01b2 124B     		ldr	r3, .L180
 1929 01b4 9A42     		cmp	r2, r3
 1930 01b6 19D0     		beq	.L179
 1931 01b8 4FF04022 		mov	r2, #1073758208
 1932              	.L160:
 580:./Libraries/STM32F4xx_HAL_Driver/Src/stm32f4xx_hal_i2s_ex.c ****               if(hi2s->RxXferCount == 0U)
 1933              		.loc 1 580 15 is_stmt 0 discriminator 4 view .LVU630
 1934 01bc 5368     		ldr	r3, [r2, #4]
 1935 01be 23F0A003 		bic	r3, r3, #160
 1936 01c2 5360     		str	r3, [r2, #4]
 581:./Libraries/STM32F4xx_HAL_Driver/Src/stm32f4xx_hal_i2s_ex.c ****               {
 1937              		.loc 1 581 15 is_stmt 1 discriminator 4 view .LVU631
 581:./Libraries/STM32F4xx_HAL_Driver/Src/stm32f4xx_hal_i2s_ex.c ****               {
 1938              		.loc 1 581 22 is_stmt 0 discriminator 4 view .LVU632
 1939 01c4 638E     		ldrh	r3, [r4, #50]
 1940 01c6 9BB2     		uxth	r3, r3
 581:./Libraries/STM32F4xx_HAL_Driver/Src/stm32f4xx_hal_i2s_ex.c ****               {
 1941              		.loc 1 581 17 discriminator 4 view .LVU633
 1942 01c8 002B     		cmp	r3, #0
 1943 01ca C8D1     		bne	.L158
 584:./Libraries/STM32F4xx_HAL_Driver/Src/stm32f4xx_hal_i2s_ex.c **** 
 1944              		.loc 1 584 17 is_stmt 1 view .LVU634
 1945 01cc 2268     		ldr	r2, [r4]
 1946 01ce 5368     		ldr	r3, [r2, #4]
 1947 01d0 23F06003 		bic	r3, r3, #96
 1948 01d4 1B04     		lsls	r3, r3, #16
 1949 01d6 1B0C     		lsrs	r3, r3, #16
 1950 01d8 5360     		str	r3, [r2, #4]
 586:./Libraries/STM32F4xx_HAL_Driver/Src/stm32f4xx_hal_i2s_ex.c ****                 HAL_I2SEx_TxRxCpltCallback(hi2s);
 1951              		.loc 1 586 17 view .LVU635
 586:./Libraries/STM32F4xx_HAL_Driver/Src/stm32f4xx_hal_i2s_ex.c ****                 HAL_I2SEx_TxRxCpltCallback(hi2s);
 1952              		.loc 1 586 29 is_stmt 0 view .LVU636
ARM GAS  /tmp/ccfbD6Jk.s 			page 66


 1953 01da 0123     		movs	r3, #1
 1954 01dc 84F84130 		strb	r3, [r4, #65]
 587:./Libraries/STM32F4xx_HAL_Driver/Src/stm32f4xx_hal_i2s_ex.c ****               }
 1955              		.loc 1 587 17 is_stmt 1 view .LVU637
 1956 01e0 2046     		mov	r0, r4
 1957 01e2 FFF7FEFF 		bl	HAL_I2SEx_TxRxCpltCallback
 1958              	.LVL107:
 1959 01e6 BAE7     		b	.L158
 1960              	.L178:
 574:./Libraries/STM32F4xx_HAL_Driver/Src/stm32f4xx_hal_i2s_ex.c ****             hi2s->TxXferCount--;
 1961              		.loc 1 574 13 is_stmt 0 view .LVU638
 1962 01e8 054B     		ldr	r3, .L180+4
 1963 01ea D7E7     		b	.L159
 1964              	.L179:
 580:./Libraries/STM32F4xx_HAL_Driver/Src/stm32f4xx_hal_i2s_ex.c ****               if(hi2s->RxXferCount == 0U)
 1965              		.loc 1 580 15 view .LVU639
 1966 01ec 044A     		ldr	r2, .L180+4
 1967 01ee E5E7     		b	.L160
 1968              	.L177:
 593:./Libraries/STM32F4xx_HAL_Driver/Src/stm32f4xx_hal_i2s_ex.c **** 
 1969              		.loc 1 593 9 view .LVU640
 1970 01f0 034A     		ldr	r2, .L180+4
 1971 01f2 BAE7     		b	.L161
 1972              	.LVL108:
 1973              	.L162:
 606:./Libraries/STM32F4xx_HAL_Driver/Src/stm32f4xx_hal_i2s_ex.c ****   }
 1974              		.loc 1 606 12 view .LVU641
 1975 01f4 0220     		movs	r0, #2
 1976              	.LVL109:
 1977              	.L146:
 608:./Libraries/STM32F4xx_HAL_Driver/Src/stm32f4xx_hal_i2s_ex.c **** 
 1978              		.loc 1 608 1 view .LVU642
 1979 01f6 10BD     		pop	{r4, pc}
 1980              	.LVL110:
 1981              	.L163:
 505:./Libraries/STM32F4xx_HAL_Driver/Src/stm32f4xx_hal_i2s_ex.c **** 
 1982              		.loc 1 505 5 view .LVU643
 1983 01f8 0220     		movs	r0, #2
 1984 01fa FCE7     		b	.L146
 1985              	.L181:
 1986              		.align	2
 1987              	.L180:
 1988 01fc 00380040 		.word	1073756160
 1989 0200 00340040 		.word	1073755136
 1990              		.cfi_endproc
 1991              	.LFE127:
 1993              		.section	.text.I2SEx_TxRxDMACplt,"ax",%progbits
 1994              		.align	1
 1995              		.syntax unified
 1996              		.thumb
 1997              		.thumb_func
 1998              		.fpu fpv4-sp-d16
 2000              	I2SEx_TxRxDMACplt:
 2001              	.LVL111:
 2002              	.LFB133:
 944:./Libraries/STM32F4xx_HAL_Driver/Src/stm32f4xx_hal_i2s_ex.c ****   I2S_HandleTypeDef* hi2s = (I2S_HandleTypeDef*)((DMA_HandleTypeDef*)hdma)->Parent;
 2003              		.loc 1 944 1 is_stmt 1 view -0
ARM GAS  /tmp/ccfbD6Jk.s 			page 67


 2004              		.cfi_startproc
 2005              		@ args = 0, pretend = 0, frame = 0
 2006              		@ frame_needed = 0, uses_anonymous_args = 0
 944:./Libraries/STM32F4xx_HAL_Driver/Src/stm32f4xx_hal_i2s_ex.c ****   I2S_HandleTypeDef* hi2s = (I2S_HandleTypeDef*)((DMA_HandleTypeDef*)hdma)->Parent;
 2007              		.loc 1 944 1 is_stmt 0 view .LVU645
 2008 0000 38B5     		push	{r3, r4, r5, lr}
 2009              	.LCFI14:
 2010              		.cfi_def_cfa_offset 16
 2011              		.cfi_offset 3, -16
 2012              		.cfi_offset 4, -12
 2013              		.cfi_offset 5, -8
 2014              		.cfi_offset 14, -4
 945:./Libraries/STM32F4xx_HAL_Driver/Src/stm32f4xx_hal_i2s_ex.c **** 
 2015              		.loc 1 945 3 is_stmt 1 view .LVU646
 945:./Libraries/STM32F4xx_HAL_Driver/Src/stm32f4xx_hal_i2s_ex.c **** 
 2016              		.loc 1 945 22 is_stmt 0 view .LVU647
 2017 0002 856B     		ldr	r5, [r0, #56]
 2018              	.LVL112:
 948:./Libraries/STM32F4xx_HAL_Driver/Src/stm32f4xx_hal_i2s_ex.c ****   {
 2019              		.loc 1 948 3 is_stmt 1 view .LVU648
 948:./Libraries/STM32F4xx_HAL_Driver/Src/stm32f4xx_hal_i2s_ex.c ****   {
 2020              		.loc 1 948 11 is_stmt 0 view .LVU649
 2021 0004 0368     		ldr	r3, [r0]
 948:./Libraries/STM32F4xx_HAL_Driver/Src/stm32f4xx_hal_i2s_ex.c ****   {
 2022              		.loc 1 948 21 view .LVU650
 2023 0006 1B68     		ldr	r3, [r3]
 948:./Libraries/STM32F4xx_HAL_Driver/Src/stm32f4xx_hal_i2s_ex.c ****   {
 2024              		.loc 1 948 5 view .LVU651
 2025 0008 13F4807F 		tst	r3, #256
 2026 000c 06D1     		bne	.L182
 2027 000e 0446     		mov	r4, r0
 950:./Libraries/STM32F4xx_HAL_Driver/Src/stm32f4xx_hal_i2s_ex.c ****     {
 2028              		.loc 1 950 5 is_stmt 1 view .LVU652
 950:./Libraries/STM32F4xx_HAL_Driver/Src/stm32f4xx_hal_i2s_ex.c ****     {
 2029              		.loc 1 950 13 is_stmt 0 view .LVU653
 2030 0010 EB6B     		ldr	r3, [r5, #60]
 950:./Libraries/STM32F4xx_HAL_Driver/Src/stm32f4xx_hal_i2s_ex.c ****     {
 2031              		.loc 1 950 8 view .LVU654
 2032 0012 8342     		cmp	r3, r0
 2033 0014 03D0     		beq	.L196
 2034              	.LVL113:
 2035              	.L184:
 973:./Libraries/STM32F4xx_HAL_Driver/Src/stm32f4xx_hal_i2s_ex.c ****     {
 2036              		.loc 1 973 5 is_stmt 1 view .LVU655
 973:./Libraries/STM32F4xx_HAL_Driver/Src/stm32f4xx_hal_i2s_ex.c ****     {
 2037              		.loc 1 973 13 is_stmt 0 view .LVU656
 2038 0016 AB6B     		ldr	r3, [r5, #56]
 973:./Libraries/STM32F4xx_HAL_Driver/Src/stm32f4xx_hal_i2s_ex.c ****     {
 2039              		.loc 1 973 8 view .LVU657
 2040 0018 A342     		cmp	r3, r4
 2041 001a 28D0     		beq	.L197
 2042              	.LVL114:
 2043              	.L182:
 996:./Libraries/STM32F4xx_HAL_Driver/Src/stm32f4xx_hal_i2s_ex.c **** 
 2044              		.loc 1 996 1 view .LVU658
 2045 001c 38BD     		pop	{r3, r4, r5, pc}
 2046              	.LVL115:
ARM GAS  /tmp/ccfbD6Jk.s 			page 68


 2047              	.L196:
 953:./Libraries/STM32F4xx_HAL_Driver/Src/stm32f4xx_hal_i2s_ex.c ****           ((hi2s->Instance->I2SCFGR & SPI_I2SCFGR_I2SCFG) == I2S_MODE_SLAVE_TX))
 2048              		.loc 1 953 7 is_stmt 1 view .LVU659
 953:./Libraries/STM32F4xx_HAL_Driver/Src/stm32f4xx_hal_i2s_ex.c ****           ((hi2s->Instance->I2SCFGR & SPI_I2SCFGR_I2SCFG) == I2S_MODE_SLAVE_TX))
 2049              		.loc 1 953 17 is_stmt 0 view .LVU660
 2050 001e 2A68     		ldr	r2, [r5]
 953:./Libraries/STM32F4xx_HAL_Driver/Src/stm32f4xx_hal_i2s_ex.c ****           ((hi2s->Instance->I2SCFGR & SPI_I2SCFGR_I2SCFG) == I2S_MODE_SLAVE_TX))
 2051              		.loc 1 953 27 view .LVU661
 2052 0020 D369     		ldr	r3, [r2, #28]
 953:./Libraries/STM32F4xx_HAL_Driver/Src/stm32f4xx_hal_i2s_ex.c ****           ((hi2s->Instance->I2SCFGR & SPI_I2SCFGR_I2SCFG) == I2S_MODE_SLAVE_TX))
 2053              		.loc 1 953 37 view .LVU662
 2054 0022 03F44073 		and	r3, r3, #768
 953:./Libraries/STM32F4xx_HAL_Driver/Src/stm32f4xx_hal_i2s_ex.c ****           ((hi2s->Instance->I2SCFGR & SPI_I2SCFGR_I2SCFG) == I2S_MODE_SLAVE_TX))
 2055              		.loc 1 953 10 view .LVU663
 2056 0026 B3F5007F 		cmp	r3, #512
 2057 002a 03D0     		beq	.L185
 954:./Libraries/STM32F4xx_HAL_Driver/Src/stm32f4xx_hal_i2s_ex.c ****       {
 2058              		.loc 1 954 27 discriminator 1 view .LVU664
 2059 002c D369     		ldr	r3, [r2, #28]
 953:./Libraries/STM32F4xx_HAL_Driver/Src/stm32f4xx_hal_i2s_ex.c ****           ((hi2s->Instance->I2SCFGR & SPI_I2SCFGR_I2SCFG) == I2S_MODE_SLAVE_TX))
 2060              		.loc 1 953 82 discriminator 1 view .LVU665
 2061 002e 13F4407F 		tst	r3, #768
 2062 0032 17D1     		bne	.L186
 2063              	.L185:
 956:./Libraries/STM32F4xx_HAL_Driver/Src/stm32f4xx_hal_i2s_ex.c ****       }
 2064              		.loc 1 956 9 is_stmt 1 view .LVU666
 2065 0034 224B     		ldr	r3, .L200
 2066 0036 9A42     		cmp	r2, r3
 2067 0038 12D0     		beq	.L198
 2068 003a 4FF04022 		mov	r2, #1073758208
 2069              	.L187:
 956:./Libraries/STM32F4xx_HAL_Driver/Src/stm32f4xx_hal_i2s_ex.c ****       }
 2070              		.loc 1 956 9 is_stmt 0 discriminator 4 view .LVU667
 2071 003e 5368     		ldr	r3, [r2, #4]
 2072 0040 23F00103 		bic	r3, r3, #1
 2073 0044 5360     		str	r3, [r2, #4]
 2074              	.L188:
 963:./Libraries/STM32F4xx_HAL_Driver/Src/stm32f4xx_hal_i2s_ex.c **** 
 2075              		.loc 1 963 7 is_stmt 1 view .LVU668
 963:./Libraries/STM32F4xx_HAL_Driver/Src/stm32f4xx_hal_i2s_ex.c **** 
 2076              		.loc 1 963 25 is_stmt 0 view .LVU669
 2077 0046 0023     		movs	r3, #0
 2078 0048 6B86     		strh	r3, [r5, #50]	@ movhi
 965:./Libraries/STM32F4xx_HAL_Driver/Src/stm32f4xx_hal_i2s_ex.c ****       {
 2079              		.loc 1 965 7 is_stmt 1 view .LVU670
 965:./Libraries/STM32F4xx_HAL_Driver/Src/stm32f4xx_hal_i2s_ex.c ****       {
 2080              		.loc 1 965 15 is_stmt 0 view .LVU671
 2081 004a 6B8D     		ldrh	r3, [r5, #42]
 2082 004c 9BB2     		uxth	r3, r3
 965:./Libraries/STM32F4xx_HAL_Driver/Src/stm32f4xx_hal_i2s_ex.c ****       {
 2083              		.loc 1 965 10 view .LVU672
 2084 004e 002B     		cmp	r3, #0
 2085 0050 E1D1     		bne	.L184
 967:./Libraries/STM32F4xx_HAL_Driver/Src/stm32f4xx_hal_i2s_ex.c **** 
 2086              		.loc 1 967 9 is_stmt 1 view .LVU673
 967:./Libraries/STM32F4xx_HAL_Driver/Src/stm32f4xx_hal_i2s_ex.c **** 
 2087              		.loc 1 967 21 is_stmt 0 view .LVU674
ARM GAS  /tmp/ccfbD6Jk.s 			page 69


 2088 0052 0123     		movs	r3, #1
 2089 0054 85F84130 		strb	r3, [r5, #65]
 969:./Libraries/STM32F4xx_HAL_Driver/Src/stm32f4xx_hal_i2s_ex.c ****       }
 2090              		.loc 1 969 9 is_stmt 1 view .LVU675
 2091 0058 2846     		mov	r0, r5
 2092              	.LVL116:
 969:./Libraries/STM32F4xx_HAL_Driver/Src/stm32f4xx_hal_i2s_ex.c ****       }
 2093              		.loc 1 969 9 is_stmt 0 view .LVU676
 2094 005a FFF7FEFF 		bl	HAL_I2SEx_TxRxCpltCallback
 2095              	.LVL117:
 2096 005e DAE7     		b	.L184
 2097              	.LVL118:
 2098              	.L198:
 956:./Libraries/STM32F4xx_HAL_Driver/Src/stm32f4xx_hal_i2s_ex.c ****       }
 2099              		.loc 1 956 9 view .LVU677
 2100 0060 184A     		ldr	r2, .L200+4
 2101 0062 ECE7     		b	.L187
 2102              	.L186:
 960:./Libraries/STM32F4xx_HAL_Driver/Src/stm32f4xx_hal_i2s_ex.c ****       }
 2103              		.loc 1 960 9 is_stmt 1 view .LVU678
 2104 0064 5368     		ldr	r3, [r2, #4]
 2105 0066 23F00103 		bic	r3, r3, #1
 2106 006a 5360     		str	r3, [r2, #4]
 2107 006c EBE7     		b	.L188
 2108              	.LVL119:
 2109              	.L197:
 976:./Libraries/STM32F4xx_HAL_Driver/Src/stm32f4xx_hal_i2s_ex.c ****           ((hi2s->Instance->I2SCFGR & SPI_I2SCFGR_I2SCFG) == I2S_MODE_SLAVE_TX))
 2110              		.loc 1 976 7 view .LVU679
 976:./Libraries/STM32F4xx_HAL_Driver/Src/stm32f4xx_hal_i2s_ex.c ****           ((hi2s->Instance->I2SCFGR & SPI_I2SCFGR_I2SCFG) == I2S_MODE_SLAVE_TX))
 2111              		.loc 1 976 17 is_stmt 0 view .LVU680
 2112 006e 2B68     		ldr	r3, [r5]
 976:./Libraries/STM32F4xx_HAL_Driver/Src/stm32f4xx_hal_i2s_ex.c ****           ((hi2s->Instance->I2SCFGR & SPI_I2SCFGR_I2SCFG) == I2S_MODE_SLAVE_TX))
 2113              		.loc 1 976 27 view .LVU681
 2114 0070 DA69     		ldr	r2, [r3, #28]
 976:./Libraries/STM32F4xx_HAL_Driver/Src/stm32f4xx_hal_i2s_ex.c ****           ((hi2s->Instance->I2SCFGR & SPI_I2SCFGR_I2SCFG) == I2S_MODE_SLAVE_TX))
 2115              		.loc 1 976 37 view .LVU682
 2116 0072 02F44072 		and	r2, r2, #768
 976:./Libraries/STM32F4xx_HAL_Driver/Src/stm32f4xx_hal_i2s_ex.c ****           ((hi2s->Instance->I2SCFGR & SPI_I2SCFGR_I2SCFG) == I2S_MODE_SLAVE_TX))
 2117              		.loc 1 976 10 view .LVU683
 2118 0076 B2F5007F 		cmp	r2, #512
 2119 007a 03D0     		beq	.L189
 977:./Libraries/STM32F4xx_HAL_Driver/Src/stm32f4xx_hal_i2s_ex.c ****       {
 2120              		.loc 1 977 27 discriminator 1 view .LVU684
 2121 007c DA69     		ldr	r2, [r3, #28]
 976:./Libraries/STM32F4xx_HAL_Driver/Src/stm32f4xx_hal_i2s_ex.c ****           ((hi2s->Instance->I2SCFGR & SPI_I2SCFGR_I2SCFG) == I2S_MODE_SLAVE_TX))
 2122              		.loc 1 976 82 discriminator 1 view .LVU685
 2123 007e 12F4407F 		tst	r2, #768
 2124 0082 10D1     		bne	.L190
 2125              	.L189:
 979:./Libraries/STM32F4xx_HAL_Driver/Src/stm32f4xx_hal_i2s_ex.c ****       }
 2126              		.loc 1 979 9 is_stmt 1 view .LVU686
 2127 0084 5A68     		ldr	r2, [r3, #4]
 2128 0086 22F00202 		bic	r2, r2, #2
 2129 008a 5A60     		str	r2, [r3, #4]
 2130              	.L191:
 986:./Libraries/STM32F4xx_HAL_Driver/Src/stm32f4xx_hal_i2s_ex.c **** 
 2131              		.loc 1 986 7 view .LVU687
ARM GAS  /tmp/ccfbD6Jk.s 			page 70


 986:./Libraries/STM32F4xx_HAL_Driver/Src/stm32f4xx_hal_i2s_ex.c **** 
 2132              		.loc 1 986 25 is_stmt 0 view .LVU688
 2133 008c 0023     		movs	r3, #0
 2134 008e 6B85     		strh	r3, [r5, #42]	@ movhi
 988:./Libraries/STM32F4xx_HAL_Driver/Src/stm32f4xx_hal_i2s_ex.c ****       {
 2135              		.loc 1 988 7 is_stmt 1 view .LVU689
 988:./Libraries/STM32F4xx_HAL_Driver/Src/stm32f4xx_hal_i2s_ex.c ****       {
 2136              		.loc 1 988 15 is_stmt 0 view .LVU690
 2137 0090 6B8E     		ldrh	r3, [r5, #50]
 2138 0092 9BB2     		uxth	r3, r3
 988:./Libraries/STM32F4xx_HAL_Driver/Src/stm32f4xx_hal_i2s_ex.c ****       {
 2139              		.loc 1 988 10 view .LVU691
 2140 0094 002B     		cmp	r3, #0
 2141 0096 C1D1     		bne	.L182
 990:./Libraries/STM32F4xx_HAL_Driver/Src/stm32f4xx_hal_i2s_ex.c **** 
 2142              		.loc 1 990 9 is_stmt 1 view .LVU692
 990:./Libraries/STM32F4xx_HAL_Driver/Src/stm32f4xx_hal_i2s_ex.c **** 
 2143              		.loc 1 990 21 is_stmt 0 view .LVU693
 2144 0098 0123     		movs	r3, #1
 2145 009a 85F84130 		strb	r3, [r5, #65]
 992:./Libraries/STM32F4xx_HAL_Driver/Src/stm32f4xx_hal_i2s_ex.c ****       }
 2146              		.loc 1 992 9 is_stmt 1 view .LVU694
 2147 009e 2846     		mov	r0, r5
 2148 00a0 FFF7FEFF 		bl	HAL_I2SEx_TxRxCpltCallback
 2149              	.LVL120:
 996:./Libraries/STM32F4xx_HAL_Driver/Src/stm32f4xx_hal_i2s_ex.c **** 
 2150              		.loc 1 996 1 is_stmt 0 view .LVU695
 2151 00a4 BAE7     		b	.L182
 2152              	.L190:
 983:./Libraries/STM32F4xx_HAL_Driver/Src/stm32f4xx_hal_i2s_ex.c ****       }
 2153              		.loc 1 983 9 is_stmt 1 view .LVU696
 2154 00a6 064A     		ldr	r2, .L200
 2155 00a8 9342     		cmp	r3, r2
 2156 00aa 06D0     		beq	.L199
 2157 00ac 4FF04022 		mov	r2, #1073758208
 2158              	.L192:
 983:./Libraries/STM32F4xx_HAL_Driver/Src/stm32f4xx_hal_i2s_ex.c ****       }
 2159              		.loc 1 983 9 is_stmt 0 discriminator 4 view .LVU697
 2160 00b0 5368     		ldr	r3, [r2, #4]
 2161 00b2 23F00203 		bic	r3, r3, #2
 2162 00b6 5360     		str	r3, [r2, #4]
 2163 00b8 E8E7     		b	.L191
 2164              	.L199:
 983:./Libraries/STM32F4xx_HAL_Driver/Src/stm32f4xx_hal_i2s_ex.c ****       }
 2165              		.loc 1 983 9 view .LVU698
 2166 00ba A2F58062 		sub	r2, r2, #1024
 2167 00be F7E7     		b	.L192
 2168              	.L201:
 2169              		.align	2
 2170              	.L200:
 2171 00c0 00380040 		.word	1073756160
 2172 00c4 00340040 		.word	1073755136
 2173              		.cfi_endproc
 2174              	.LFE133:
 2176              		.section	.text.I2SEx_FullDuplexTx_IT,"ax",%progbits
 2177              		.align	1
 2178              		.syntax unified
ARM GAS  /tmp/ccfbD6Jk.s 			page 71


 2179              		.thumb
 2180              		.thumb_func
 2181              		.fpu fpv4-sp-d16
 2183              	I2SEx_FullDuplexTx_IT:
 2184              	.LVL121:
 2185              	.LFB135:
1028:./Libraries/STM32F4xx_HAL_Driver/Src/stm32f4xx_hal_i2s_ex.c ****   if(i2sUsed == I2S_USE_I2S)
 2186              		.loc 1 1028 1 is_stmt 1 view -0
 2187              		.cfi_startproc
 2188              		@ args = 0, pretend = 0, frame = 0
 2189              		@ frame_needed = 0, uses_anonymous_args = 0
1028:./Libraries/STM32F4xx_HAL_Driver/Src/stm32f4xx_hal_i2s_ex.c ****   if(i2sUsed == I2S_USE_I2S)
 2190              		.loc 1 1028 1 is_stmt 0 view .LVU700
 2191 0000 08B5     		push	{r3, lr}
 2192              	.LCFI15:
 2193              		.cfi_def_cfa_offset 8
 2194              		.cfi_offset 3, -8
 2195              		.cfi_offset 14, -4
1029:./Libraries/STM32F4xx_HAL_Driver/Src/stm32f4xx_hal_i2s_ex.c ****   {
 2196              		.loc 1 1029 3 is_stmt 1 view .LVU701
1029:./Libraries/STM32F4xx_HAL_Driver/Src/stm32f4xx_hal_i2s_ex.c ****   {
 2197              		.loc 1 1029 5 is_stmt 0 view .LVU702
 2198 0002 F1B9     		cbnz	r1, .L203
1032:./Libraries/STM32F4xx_HAL_Driver/Src/stm32f4xx_hal_i2s_ex.c ****     hi2s->TxXferCount--;
 2199              		.loc 1 1032 5 is_stmt 1 view .LVU703
1032:./Libraries/STM32F4xx_HAL_Driver/Src/stm32f4xx_hal_i2s_ex.c ****     hi2s->TxXferCount--;
 2200              		.loc 1 1032 32 is_stmt 0 view .LVU704
 2201 0004 436A     		ldr	r3, [r0, #36]
1032:./Libraries/STM32F4xx_HAL_Driver/Src/stm32f4xx_hal_i2s_ex.c ****     hi2s->TxXferCount--;
 2202              		.loc 1 1032 44 view .LVU705
 2203 0006 9A1C     		adds	r2, r3, #2
 2204 0008 4262     		str	r2, [r0, #36]
1032:./Libraries/STM32F4xx_HAL_Driver/Src/stm32f4xx_hal_i2s_ex.c ****     hi2s->TxXferCount--;
 2205              		.loc 1 1032 9 view .LVU706
 2206 000a 0268     		ldr	r2, [r0]
1032:./Libraries/STM32F4xx_HAL_Driver/Src/stm32f4xx_hal_i2s_ex.c ****     hi2s->TxXferCount--;
 2207              		.loc 1 1032 27 view .LVU707
 2208 000c 1B88     		ldrh	r3, [r3]
1032:./Libraries/STM32F4xx_HAL_Driver/Src/stm32f4xx_hal_i2s_ex.c ****     hi2s->TxXferCount--;
 2209              		.loc 1 1032 24 view .LVU708
 2210 000e D360     		str	r3, [r2, #12]
1033:./Libraries/STM32F4xx_HAL_Driver/Src/stm32f4xx_hal_i2s_ex.c **** 
 2211              		.loc 1 1033 5 is_stmt 1 view .LVU709
1033:./Libraries/STM32F4xx_HAL_Driver/Src/stm32f4xx_hal_i2s_ex.c **** 
 2212              		.loc 1 1033 9 is_stmt 0 view .LVU710
 2213 0010 438D     		ldrh	r3, [r0, #42]
 2214 0012 9BB2     		uxth	r3, r3
1033:./Libraries/STM32F4xx_HAL_Driver/Src/stm32f4xx_hal_i2s_ex.c **** 
 2215              		.loc 1 1033 22 view .LVU711
 2216 0014 013B     		subs	r3, r3, #1
 2217 0016 9BB2     		uxth	r3, r3
 2218 0018 4385     		strh	r3, [r0, #42]	@ movhi
1035:./Libraries/STM32F4xx_HAL_Driver/Src/stm32f4xx_hal_i2s_ex.c ****     {
 2219              		.loc 1 1035 5 is_stmt 1 view .LVU712
1035:./Libraries/STM32F4xx_HAL_Driver/Src/stm32f4xx_hal_i2s_ex.c ****     {
 2220              		.loc 1 1035 12 is_stmt 0 view .LVU713
 2221 001a 438D     		ldrh	r3, [r0, #42]
ARM GAS  /tmp/ccfbD6Jk.s 			page 72


 2222 001c 9BB2     		uxth	r3, r3
1035:./Libraries/STM32F4xx_HAL_Driver/Src/stm32f4xx_hal_i2s_ex.c ****     {
 2223              		.loc 1 1035 7 view .LVU714
 2224 001e 4BB9     		cbnz	r3, .L202
1038:./Libraries/STM32F4xx_HAL_Driver/Src/stm32f4xx_hal_i2s_ex.c **** 
 2225              		.loc 1 1038 7 is_stmt 1 view .LVU715
 2226 0020 0268     		ldr	r2, [r0]
 2227 0022 5368     		ldr	r3, [r2, #4]
 2228 0024 23F0A003 		bic	r3, r3, #160
 2229 0028 1B04     		lsls	r3, r3, #16
 2230 002a 1B0C     		lsrs	r3, r3, #16
 2231 002c 5360     		str	r3, [r2, #4]
1040:./Libraries/STM32F4xx_HAL_Driver/Src/stm32f4xx_hal_i2s_ex.c ****       {
 2232              		.loc 1 1040 7 view .LVU716
1040:./Libraries/STM32F4xx_HAL_Driver/Src/stm32f4xx_hal_i2s_ex.c ****       {
 2233              		.loc 1 1040 14 is_stmt 0 view .LVU717
 2234 002e 438E     		ldrh	r3, [r0, #50]
 2235 0030 9BB2     		uxth	r3, r3
1040:./Libraries/STM32F4xx_HAL_Driver/Src/stm32f4xx_hal_i2s_ex.c ****       {
 2236              		.loc 1 1040 9 view .LVU718
 2237 0032 03B1     		cbz	r3, .L210
 2238              	.LVL122:
 2239              	.L202:
1065:./Libraries/STM32F4xx_HAL_Driver/Src/stm32f4xx_hal_i2s_ex.c **** 
 2240              		.loc 1 1065 1 view .LVU719
 2241 0034 08BD     		pop	{r3, pc}
 2242              	.LVL123:
 2243              	.L210:
1042:./Libraries/STM32F4xx_HAL_Driver/Src/stm32f4xx_hal_i2s_ex.c ****         HAL_I2SEx_TxRxCpltCallback(hi2s);
 2244              		.loc 1 1042 9 is_stmt 1 view .LVU720
1042:./Libraries/STM32F4xx_HAL_Driver/Src/stm32f4xx_hal_i2s_ex.c ****         HAL_I2SEx_TxRxCpltCallback(hi2s);
 2245              		.loc 1 1042 21 is_stmt 0 view .LVU721
 2246 0036 0123     		movs	r3, #1
 2247 0038 80F84130 		strb	r3, [r0, #65]
1043:./Libraries/STM32F4xx_HAL_Driver/Src/stm32f4xx_hal_i2s_ex.c ****       }
 2248              		.loc 1 1043 9 is_stmt 1 view .LVU722
 2249 003c FFF7FEFF 		bl	HAL_I2SEx_TxRxCpltCallback
 2250              	.LVL124:
1043:./Libraries/STM32F4xx_HAL_Driver/Src/stm32f4xx_hal_i2s_ex.c ****       }
 2251              		.loc 1 1043 9 is_stmt 0 view .LVU723
 2252 0040 F8E7     		b	.L202
 2253              	.LVL125:
 2254              	.L203:
1050:./Libraries/STM32F4xx_HAL_Driver/Src/stm32f4xx_hal_i2s_ex.c ****     hi2s->TxXferCount--;
 2255              		.loc 1 1050 5 is_stmt 1 view .LVU724
1050:./Libraries/STM32F4xx_HAL_Driver/Src/stm32f4xx_hal_i2s_ex.c ****     hi2s->TxXferCount--;
 2256              		.loc 1 1050 41 is_stmt 0 view .LVU725
 2257 0042 436A     		ldr	r3, [r0, #36]
1050:./Libraries/STM32F4xx_HAL_Driver/Src/stm32f4xx_hal_i2s_ex.c ****     hi2s->TxXferCount--;
 2258              		.loc 1 1050 53 view .LVU726
 2259 0044 9A1C     		adds	r2, r3, #2
 2260 0046 4262     		str	r2, [r0, #36]
1050:./Libraries/STM32F4xx_HAL_Driver/Src/stm32f4xx_hal_i2s_ex.c ****     hi2s->TxXferCount--;
 2261              		.loc 1 1050 36 view .LVU727
 2262 0048 1A88     		ldrh	r2, [r3]
1050:./Libraries/STM32F4xx_HAL_Driver/Src/stm32f4xx_hal_i2s_ex.c ****     hi2s->TxXferCount--;
 2263              		.loc 1 1050 5 view .LVU728
ARM GAS  /tmp/ccfbD6Jk.s 			page 73


 2264 004a 0168     		ldr	r1, [r0]
 2265              	.LVL126:
1050:./Libraries/STM32F4xx_HAL_Driver/Src/stm32f4xx_hal_i2s_ex.c ****     hi2s->TxXferCount--;
 2266              		.loc 1 1050 5 view .LVU729
 2267 004c 134B     		ldr	r3, .L213
 2268 004e 9942     		cmp	r1, r3
 2269 0050 1FD0     		beq	.L211
 2270 0052 4FF04023 		mov	r3, #1073758208
 2271              	.L205:
1050:./Libraries/STM32F4xx_HAL_Driver/Src/stm32f4xx_hal_i2s_ex.c ****     hi2s->TxXferCount--;
 2272              		.loc 1 1050 33 discriminator 4 view .LVU730
 2273 0056 DA60     		str	r2, [r3, #12]
1051:./Libraries/STM32F4xx_HAL_Driver/Src/stm32f4xx_hal_i2s_ex.c **** 
 2274              		.loc 1 1051 5 is_stmt 1 discriminator 4 view .LVU731
1051:./Libraries/STM32F4xx_HAL_Driver/Src/stm32f4xx_hal_i2s_ex.c **** 
 2275              		.loc 1 1051 9 is_stmt 0 discriminator 4 view .LVU732
 2276 0058 438D     		ldrh	r3, [r0, #42]
 2277 005a 9BB2     		uxth	r3, r3
1051:./Libraries/STM32F4xx_HAL_Driver/Src/stm32f4xx_hal_i2s_ex.c **** 
 2278              		.loc 1 1051 22 discriminator 4 view .LVU733
 2279 005c 013B     		subs	r3, r3, #1
 2280 005e 9BB2     		uxth	r3, r3
 2281 0060 4385     		strh	r3, [r0, #42]	@ movhi
1053:./Libraries/STM32F4xx_HAL_Driver/Src/stm32f4xx_hal_i2s_ex.c ****     {
 2282              		.loc 1 1053 5 is_stmt 1 discriminator 4 view .LVU734
1053:./Libraries/STM32F4xx_HAL_Driver/Src/stm32f4xx_hal_i2s_ex.c ****     {
 2283              		.loc 1 1053 12 is_stmt 0 discriminator 4 view .LVU735
 2284 0062 438D     		ldrh	r3, [r0, #42]
 2285 0064 9BB2     		uxth	r3, r3
1053:./Libraries/STM32F4xx_HAL_Driver/Src/stm32f4xx_hal_i2s_ex.c ****     {
 2286              		.loc 1 1053 7 discriminator 4 view .LVU736
 2287 0066 002B     		cmp	r3, #0
 2288 0068 E4D1     		bne	.L202
1056:./Libraries/STM32F4xx_HAL_Driver/Src/stm32f4xx_hal_i2s_ex.c **** 
 2289              		.loc 1 1056 7 is_stmt 1 view .LVU737
 2290 006a 0268     		ldr	r2, [r0]
 2291 006c 0B4B     		ldr	r3, .L213
 2292 006e 9A42     		cmp	r2, r3
 2293 0070 12D0     		beq	.L212
 2294 0072 4FF04022 		mov	r2, #1073758208
 2295              	.L206:
1056:./Libraries/STM32F4xx_HAL_Driver/Src/stm32f4xx_hal_i2s_ex.c **** 
 2296              		.loc 1 1056 7 is_stmt 0 discriminator 4 view .LVU738
 2297 0076 5368     		ldr	r3, [r2, #4]
 2298 0078 23F0A003 		bic	r3, r3, #160
 2299 007c 5360     		str	r3, [r2, #4]
1058:./Libraries/STM32F4xx_HAL_Driver/Src/stm32f4xx_hal_i2s_ex.c ****       {
 2300              		.loc 1 1058 7 is_stmt 1 discriminator 4 view .LVU739
1058:./Libraries/STM32F4xx_HAL_Driver/Src/stm32f4xx_hal_i2s_ex.c ****       {
 2301              		.loc 1 1058 14 is_stmt 0 discriminator 4 view .LVU740
 2302 007e 438E     		ldrh	r3, [r0, #50]
 2303 0080 9BB2     		uxth	r3, r3
1058:./Libraries/STM32F4xx_HAL_Driver/Src/stm32f4xx_hal_i2s_ex.c ****       {
 2304              		.loc 1 1058 9 discriminator 4 view .LVU741
 2305 0082 002B     		cmp	r3, #0
 2306 0084 D6D1     		bne	.L202
1060:./Libraries/STM32F4xx_HAL_Driver/Src/stm32f4xx_hal_i2s_ex.c ****         HAL_I2SEx_TxRxCpltCallback(hi2s);
ARM GAS  /tmp/ccfbD6Jk.s 			page 74


 2307              		.loc 1 1060 9 is_stmt 1 view .LVU742
1060:./Libraries/STM32F4xx_HAL_Driver/Src/stm32f4xx_hal_i2s_ex.c ****         HAL_I2SEx_TxRxCpltCallback(hi2s);
 2308              		.loc 1 1060 21 is_stmt 0 view .LVU743
 2309 0086 0123     		movs	r3, #1
 2310 0088 80F84130 		strb	r3, [r0, #65]
1061:./Libraries/STM32F4xx_HAL_Driver/Src/stm32f4xx_hal_i2s_ex.c ****       }
 2311              		.loc 1 1061 9 is_stmt 1 view .LVU744
 2312 008c FFF7FEFF 		bl	HAL_I2SEx_TxRxCpltCallback
 2313              	.LVL127:
1065:./Libraries/STM32F4xx_HAL_Driver/Src/stm32f4xx_hal_i2s_ex.c **** 
 2314              		.loc 1 1065 1 is_stmt 0 view .LVU745
 2315 0090 D0E7     		b	.L202
 2316              	.LVL128:
 2317              	.L211:
1050:./Libraries/STM32F4xx_HAL_Driver/Src/stm32f4xx_hal_i2s_ex.c ****     hi2s->TxXferCount--;
 2318              		.loc 1 1050 5 view .LVU746
 2319 0092 A3F58063 		sub	r3, r3, #1024
 2320 0096 DEE7     		b	.L205
 2321              	.L212:
1056:./Libraries/STM32F4xx_HAL_Driver/Src/stm32f4xx_hal_i2s_ex.c **** 
 2322              		.loc 1 1056 7 view .LVU747
 2323 0098 014A     		ldr	r2, .L213+4
 2324 009a ECE7     		b	.L206
 2325              	.L214:
 2326              		.align	2
 2327              	.L213:
 2328 009c 00380040 		.word	1073756160
 2329 00a0 00340040 		.word	1073755136
 2330              		.cfi_endproc
 2331              	.LFE135:
 2333              		.section	.text.I2SEx_FullDuplexRx_IT,"ax",%progbits
 2334              		.align	1
 2335              		.syntax unified
 2336              		.thumb
 2337              		.thumb_func
 2338              		.fpu fpv4-sp-d16
 2340              	I2SEx_FullDuplexRx_IT:
 2341              	.LVL129:
 2342              	.LFB136:
1074:./Libraries/STM32F4xx_HAL_Driver/Src/stm32f4xx_hal_i2s_ex.c ****   if(i2sUsed == I2S_USE_I2S)
 2343              		.loc 1 1074 1 is_stmt 1 view -0
 2344              		.cfi_startproc
 2345              		@ args = 0, pretend = 0, frame = 0
 2346              		@ frame_needed = 0, uses_anonymous_args = 0
1074:./Libraries/STM32F4xx_HAL_Driver/Src/stm32f4xx_hal_i2s_ex.c ****   if(i2sUsed == I2S_USE_I2S)
 2347              		.loc 1 1074 1 is_stmt 0 view .LVU749
 2348 0000 08B5     		push	{r3, lr}
 2349              	.LCFI16:
 2350              		.cfi_def_cfa_offset 8
 2351              		.cfi_offset 3, -8
 2352              		.cfi_offset 14, -4
1075:./Libraries/STM32F4xx_HAL_Driver/Src/stm32f4xx_hal_i2s_ex.c ****   {
 2353              		.loc 1 1075 3 is_stmt 1 view .LVU750
1075:./Libraries/STM32F4xx_HAL_Driver/Src/stm32f4xx_hal_i2s_ex.c ****   {
 2354              		.loc 1 1075 5 is_stmt 0 view .LVU751
 2355 0002 F1B9     		cbnz	r1, .L216
1078:./Libraries/STM32F4xx_HAL_Driver/Src/stm32f4xx_hal_i2s_ex.c ****     hi2s->RxXferCount--;
ARM GAS  /tmp/ccfbD6Jk.s 			page 75


 2356              		.loc 1 1078 5 is_stmt 1 view .LVU752
1078:./Libraries/STM32F4xx_HAL_Driver/Src/stm32f4xx_hal_i2s_ex.c ****     hi2s->RxXferCount--;
 2357              		.loc 1 1078 33 is_stmt 0 view .LVU753
 2358 0004 0368     		ldr	r3, [r0]
1078:./Libraries/STM32F4xx_HAL_Driver/Src/stm32f4xx_hal_i2s_ex.c ****     hi2s->RxXferCount--;
 2359              		.loc 1 1078 43 view .LVU754
 2360 0006 DA68     		ldr	r2, [r3, #12]
1078:./Libraries/STM32F4xx_HAL_Driver/Src/stm32f4xx_hal_i2s_ex.c ****     hi2s->RxXferCount--;
 2361              		.loc 1 1078 11 view .LVU755
 2362 0008 C36A     		ldr	r3, [r0, #44]
1078:./Libraries/STM32F4xx_HAL_Driver/Src/stm32f4xx_hal_i2s_ex.c ****     hi2s->RxXferCount--;
 2363              		.loc 1 1078 23 view .LVU756
 2364 000a 991C     		adds	r1, r3, #2
 2365              	.LVL130:
1078:./Libraries/STM32F4xx_HAL_Driver/Src/stm32f4xx_hal_i2s_ex.c ****     hi2s->RxXferCount--;
 2366              		.loc 1 1078 23 view .LVU757
 2367 000c C162     		str	r1, [r0, #44]
1078:./Libraries/STM32F4xx_HAL_Driver/Src/stm32f4xx_hal_i2s_ex.c ****     hi2s->RxXferCount--;
 2368              		.loc 1 1078 27 view .LVU758
 2369 000e 1A80     		strh	r2, [r3]	@ movhi
1079:./Libraries/STM32F4xx_HAL_Driver/Src/stm32f4xx_hal_i2s_ex.c **** 
 2370              		.loc 1 1079 5 is_stmt 1 view .LVU759
1079:./Libraries/STM32F4xx_HAL_Driver/Src/stm32f4xx_hal_i2s_ex.c **** 
 2371              		.loc 1 1079 9 is_stmt 0 view .LVU760
 2372 0010 438E     		ldrh	r3, [r0, #50]
 2373 0012 9BB2     		uxth	r3, r3
1079:./Libraries/STM32F4xx_HAL_Driver/Src/stm32f4xx_hal_i2s_ex.c **** 
 2374              		.loc 1 1079 22 view .LVU761
 2375 0014 013B     		subs	r3, r3, #1
 2376 0016 9BB2     		uxth	r3, r3
 2377 0018 4386     		strh	r3, [r0, #50]	@ movhi
1081:./Libraries/STM32F4xx_HAL_Driver/Src/stm32f4xx_hal_i2s_ex.c ****     {
 2378              		.loc 1 1081 5 is_stmt 1 view .LVU762
1081:./Libraries/STM32F4xx_HAL_Driver/Src/stm32f4xx_hal_i2s_ex.c ****     {
 2379              		.loc 1 1081 12 is_stmt 0 view .LVU763
 2380 001a 438E     		ldrh	r3, [r0, #50]
 2381 001c 9BB2     		uxth	r3, r3
1081:./Libraries/STM32F4xx_HAL_Driver/Src/stm32f4xx_hal_i2s_ex.c ****     {
 2382              		.loc 1 1081 7 view .LVU764
 2383 001e 4BB9     		cbnz	r3, .L215
1084:./Libraries/STM32F4xx_HAL_Driver/Src/stm32f4xx_hal_i2s_ex.c **** 
 2384              		.loc 1 1084 7 is_stmt 1 view .LVU765
 2385 0020 0268     		ldr	r2, [r0]
 2386 0022 5368     		ldr	r3, [r2, #4]
 2387 0024 23F06003 		bic	r3, r3, #96
 2388 0028 1B04     		lsls	r3, r3, #16
 2389 002a 1B0C     		lsrs	r3, r3, #16
 2390 002c 5360     		str	r3, [r2, #4]
1086:./Libraries/STM32F4xx_HAL_Driver/Src/stm32f4xx_hal_i2s_ex.c ****       {
 2391              		.loc 1 1086 7 view .LVU766
1086:./Libraries/STM32F4xx_HAL_Driver/Src/stm32f4xx_hal_i2s_ex.c ****       {
 2392              		.loc 1 1086 14 is_stmt 0 view .LVU767
 2393 002e 438D     		ldrh	r3, [r0, #42]
 2394 0030 9BB2     		uxth	r3, r3
1086:./Libraries/STM32F4xx_HAL_Driver/Src/stm32f4xx_hal_i2s_ex.c ****       {
 2395              		.loc 1 1086 9 view .LVU768
 2396 0032 03B1     		cbz	r3, .L223
ARM GAS  /tmp/ccfbD6Jk.s 			page 76


 2397              	.LVL131:
 2398              	.L215:
1111:./Libraries/STM32F4xx_HAL_Driver/Src/stm32f4xx_hal_i2s_ex.c **** 
 2399              		.loc 1 1111 1 view .LVU769
 2400 0034 08BD     		pop	{r3, pc}
 2401              	.LVL132:
 2402              	.L223:
1088:./Libraries/STM32F4xx_HAL_Driver/Src/stm32f4xx_hal_i2s_ex.c ****         HAL_I2SEx_TxRxCpltCallback(hi2s);
 2403              		.loc 1 1088 9 is_stmt 1 view .LVU770
1088:./Libraries/STM32F4xx_HAL_Driver/Src/stm32f4xx_hal_i2s_ex.c ****         HAL_I2SEx_TxRxCpltCallback(hi2s);
 2404              		.loc 1 1088 21 is_stmt 0 view .LVU771
 2405 0036 0123     		movs	r3, #1
 2406 0038 80F84130 		strb	r3, [r0, #65]
1089:./Libraries/STM32F4xx_HAL_Driver/Src/stm32f4xx_hal_i2s_ex.c ****       }
 2407              		.loc 1 1089 9 is_stmt 1 view .LVU772
 2408 003c FFF7FEFF 		bl	HAL_I2SEx_TxRxCpltCallback
 2409              	.LVL133:
1089:./Libraries/STM32F4xx_HAL_Driver/Src/stm32f4xx_hal_i2s_ex.c ****       }
 2410              		.loc 1 1089 9 is_stmt 0 view .LVU773
 2411 0040 F8E7     		b	.L215
 2412              	.LVL134:
 2413              	.L216:
1096:./Libraries/STM32F4xx_HAL_Driver/Src/stm32f4xx_hal_i2s_ex.c ****     hi2s->RxXferCount--;
 2414              		.loc 1 1096 5 is_stmt 1 view .LVU774
1096:./Libraries/STM32F4xx_HAL_Driver/Src/stm32f4xx_hal_i2s_ex.c ****     hi2s->RxXferCount--;
 2415              		.loc 1 1096 29 is_stmt 0 view .LVU775
 2416 0042 0268     		ldr	r2, [r0]
 2417 0044 154B     		ldr	r3, .L226
 2418 0046 9A42     		cmp	r2, r3
 2419 0048 23D0     		beq	.L224
 2420 004a 4FF04023 		mov	r3, #1073758208
 2421              	.L218:
1096:./Libraries/STM32F4xx_HAL_Driver/Src/stm32f4xx_hal_i2s_ex.c ****     hi2s->RxXferCount--;
 2422              		.loc 1 1096 52 discriminator 4 view .LVU776
 2423 004e DA68     		ldr	r2, [r3, #12]
1096:./Libraries/STM32F4xx_HAL_Driver/Src/stm32f4xx_hal_i2s_ex.c ****     hi2s->RxXferCount--;
 2424              		.loc 1 1096 11 discriminator 4 view .LVU777
 2425 0050 C36A     		ldr	r3, [r0, #44]
1096:./Libraries/STM32F4xx_HAL_Driver/Src/stm32f4xx_hal_i2s_ex.c ****     hi2s->RxXferCount--;
 2426              		.loc 1 1096 23 discriminator 4 view .LVU778
 2427 0052 991C     		adds	r1, r3, #2
 2428              	.LVL135:
1096:./Libraries/STM32F4xx_HAL_Driver/Src/stm32f4xx_hal_i2s_ex.c ****     hi2s->RxXferCount--;
 2429              		.loc 1 1096 23 discriminator 4 view .LVU779
 2430 0054 C162     		str	r1, [r0, #44]
1096:./Libraries/STM32F4xx_HAL_Driver/Src/stm32f4xx_hal_i2s_ex.c ****     hi2s->RxXferCount--;
 2431              		.loc 1 1096 27 discriminator 4 view .LVU780
 2432 0056 1A80     		strh	r2, [r3]	@ movhi
1097:./Libraries/STM32F4xx_HAL_Driver/Src/stm32f4xx_hal_i2s_ex.c **** 
 2433              		.loc 1 1097 5 is_stmt 1 discriminator 4 view .LVU781
1097:./Libraries/STM32F4xx_HAL_Driver/Src/stm32f4xx_hal_i2s_ex.c **** 
 2434              		.loc 1 1097 9 is_stmt 0 discriminator 4 view .LVU782
 2435 0058 438E     		ldrh	r3, [r0, #50]
 2436 005a 9BB2     		uxth	r3, r3
1097:./Libraries/STM32F4xx_HAL_Driver/Src/stm32f4xx_hal_i2s_ex.c **** 
 2437              		.loc 1 1097 22 discriminator 4 view .LVU783
 2438 005c 013B     		subs	r3, r3, #1
ARM GAS  /tmp/ccfbD6Jk.s 			page 77


 2439 005e 9BB2     		uxth	r3, r3
 2440 0060 4386     		strh	r3, [r0, #50]	@ movhi
1099:./Libraries/STM32F4xx_HAL_Driver/Src/stm32f4xx_hal_i2s_ex.c ****     {
 2441              		.loc 1 1099 5 is_stmt 1 discriminator 4 view .LVU784
1099:./Libraries/STM32F4xx_HAL_Driver/Src/stm32f4xx_hal_i2s_ex.c ****     {
 2442              		.loc 1 1099 12 is_stmt 0 discriminator 4 view .LVU785
 2443 0062 438E     		ldrh	r3, [r0, #50]
 2444 0064 9BB2     		uxth	r3, r3
1099:./Libraries/STM32F4xx_HAL_Driver/Src/stm32f4xx_hal_i2s_ex.c ****     {
 2445              		.loc 1 1099 7 discriminator 4 view .LVU786
 2446 0066 002B     		cmp	r3, #0
 2447 0068 E4D1     		bne	.L215
1102:./Libraries/STM32F4xx_HAL_Driver/Src/stm32f4xx_hal_i2s_ex.c **** 
 2448              		.loc 1 1102 7 is_stmt 1 view .LVU787
 2449 006a 0268     		ldr	r2, [r0]
 2450 006c 0B4B     		ldr	r3, .L226
 2451 006e 9A42     		cmp	r2, r3
 2452 0070 12D0     		beq	.L225
 2453 0072 4FF04022 		mov	r2, #1073758208
 2454              	.L219:
1102:./Libraries/STM32F4xx_HAL_Driver/Src/stm32f4xx_hal_i2s_ex.c **** 
 2455              		.loc 1 1102 7 is_stmt 0 discriminator 4 view .LVU788
 2456 0076 5368     		ldr	r3, [r2, #4]
 2457 0078 23F06003 		bic	r3, r3, #96
 2458 007c 5360     		str	r3, [r2, #4]
1104:./Libraries/STM32F4xx_HAL_Driver/Src/stm32f4xx_hal_i2s_ex.c ****       {
 2459              		.loc 1 1104 7 is_stmt 1 discriminator 4 view .LVU789
1104:./Libraries/STM32F4xx_HAL_Driver/Src/stm32f4xx_hal_i2s_ex.c ****       {
 2460              		.loc 1 1104 14 is_stmt 0 discriminator 4 view .LVU790
 2461 007e 438D     		ldrh	r3, [r0, #42]
 2462 0080 9BB2     		uxth	r3, r3
1104:./Libraries/STM32F4xx_HAL_Driver/Src/stm32f4xx_hal_i2s_ex.c ****       {
 2463              		.loc 1 1104 9 discriminator 4 view .LVU791
 2464 0082 002B     		cmp	r3, #0
 2465 0084 D6D1     		bne	.L215
1106:./Libraries/STM32F4xx_HAL_Driver/Src/stm32f4xx_hal_i2s_ex.c ****         HAL_I2SEx_TxRxCpltCallback(hi2s);
 2466              		.loc 1 1106 9 is_stmt 1 view .LVU792
1106:./Libraries/STM32F4xx_HAL_Driver/Src/stm32f4xx_hal_i2s_ex.c ****         HAL_I2SEx_TxRxCpltCallback(hi2s);
 2467              		.loc 1 1106 21 is_stmt 0 view .LVU793
 2468 0086 0123     		movs	r3, #1
 2469 0088 80F84130 		strb	r3, [r0, #65]
1107:./Libraries/STM32F4xx_HAL_Driver/Src/stm32f4xx_hal_i2s_ex.c ****       }
 2470              		.loc 1 1107 9 is_stmt 1 view .LVU794
 2471 008c FFF7FEFF 		bl	HAL_I2SEx_TxRxCpltCallback
 2472              	.LVL136:
1111:./Libraries/STM32F4xx_HAL_Driver/Src/stm32f4xx_hal_i2s_ex.c **** 
 2473              		.loc 1 1111 1 is_stmt 0 view .LVU795
 2474 0090 D0E7     		b	.L215
 2475              	.LVL137:
 2476              	.L224:
1096:./Libraries/STM32F4xx_HAL_Driver/Src/stm32f4xx_hal_i2s_ex.c ****     hi2s->RxXferCount--;
 2477              		.loc 1 1096 29 view .LVU796
 2478 0092 A3F58063 		sub	r3, r3, #1024
 2479 0096 DAE7     		b	.L218
 2480              	.LVL138:
 2481              	.L225:
1102:./Libraries/STM32F4xx_HAL_Driver/Src/stm32f4xx_hal_i2s_ex.c **** 
ARM GAS  /tmp/ccfbD6Jk.s 			page 78


 2482              		.loc 1 1102 7 view .LVU797
 2483 0098 014A     		ldr	r2, .L226+4
 2484 009a ECE7     		b	.L219
 2485              	.L227:
 2486              		.align	2
 2487              	.L226:
 2488 009c 00380040 		.word	1073756160
 2489 00a0 00340040 		.word	1073755136
 2490              		.cfi_endproc
 2491              	.LFE136:
 2493              		.section	.text.HAL_I2SEx_FullDuplex_IRQHandler,"ax",%progbits
 2494              		.align	1
 2495              		.global	HAL_I2SEx_FullDuplex_IRQHandler
 2496              		.syntax unified
 2497              		.thumb
 2498              		.thumb_func
 2499              		.fpu fpv4-sp-d16
 2501              	HAL_I2SEx_FullDuplex_IRQHandler:
 2502              	.LVL139:
 2503              	.LFB129:
 763:./Libraries/STM32F4xx_HAL_Driver/Src/stm32f4xx_hal_i2s_ex.c ****   __IO uint32_t i2ssr    = hi2s->Instance->SR ;
 2504              		.loc 1 763 1 is_stmt 1 view -0
 2505              		.cfi_startproc
 2506              		@ args = 0, pretend = 0, frame = 16
 2507              		@ frame_needed = 0, uses_anonymous_args = 0
 763:./Libraries/STM32F4xx_HAL_Driver/Src/stm32f4xx_hal_i2s_ex.c ****   __IO uint32_t i2ssr    = hi2s->Instance->SR ;
 2508              		.loc 1 763 1 is_stmt 0 view .LVU799
 2509 0000 10B5     		push	{r4, lr}
 2510              	.LCFI17:
 2511              		.cfi_def_cfa_offset 8
 2512              		.cfi_offset 4, -8
 2513              		.cfi_offset 14, -4
 2514 0002 84B0     		sub	sp, sp, #16
 2515              	.LCFI18:
 2516              		.cfi_def_cfa_offset 24
 2517 0004 0446     		mov	r4, r0
 764:./Libraries/STM32F4xx_HAL_Driver/Src/stm32f4xx_hal_i2s_ex.c ****   __IO uint32_t i2sextsr = I2SxEXT(hi2s->Instance)->SR;
 2518              		.loc 1 764 3 is_stmt 1 view .LVU800
 764:./Libraries/STM32F4xx_HAL_Driver/Src/stm32f4xx_hal_i2s_ex.c ****   __IO uint32_t i2sextsr = I2SxEXT(hi2s->Instance)->SR;
 2519              		.loc 1 764 32 is_stmt 0 view .LVU801
 2520 0006 0368     		ldr	r3, [r0]
 764:./Libraries/STM32F4xx_HAL_Driver/Src/stm32f4xx_hal_i2s_ex.c ****   __IO uint32_t i2sextsr = I2SxEXT(hi2s->Instance)->SR;
 2521              		.loc 1 764 42 view .LVU802
 2522 0008 9A68     		ldr	r2, [r3, #8]
 764:./Libraries/STM32F4xx_HAL_Driver/Src/stm32f4xx_hal_i2s_ex.c ****   __IO uint32_t i2sextsr = I2SxEXT(hi2s->Instance)->SR;
 2523              		.loc 1 764 17 view .LVU803
 2524 000a 0392     		str	r2, [sp, #12]
 765:./Libraries/STM32F4xx_HAL_Driver/Src/stm32f4xx_hal_i2s_ex.c **** 
 2525              		.loc 1 765 3 is_stmt 1 view .LVU804
 765:./Libraries/STM32F4xx_HAL_Driver/Src/stm32f4xx_hal_i2s_ex.c **** 
 2526              		.loc 1 765 28 is_stmt 0 view .LVU805
 2527 000c 7C4A     		ldr	r2, .L262
 2528 000e 9342     		cmp	r3, r2
 2529 0010 5DD0     		beq	.L251
 2530 0012 4FF04021 		mov	r1, #1073758208
 2531              	.L229:
 765:./Libraries/STM32F4xx_HAL_Driver/Src/stm32f4xx_hal_i2s_ex.c **** 
ARM GAS  /tmp/ccfbD6Jk.s 			page 79


 2532              		.loc 1 765 51 discriminator 4 view .LVU806
 2533 0016 8A68     		ldr	r2, [r1, #8]
 765:./Libraries/STM32F4xx_HAL_Driver/Src/stm32f4xx_hal_i2s_ex.c **** 
 2534              		.loc 1 765 17 discriminator 4 view .LVU807
 2535 0018 0292     		str	r2, [sp, #8]
 768:./Libraries/STM32F4xx_HAL_Driver/Src/stm32f4xx_hal_i2s_ex.c ****       || ((hi2s->Instance->I2SCFGR & SPI_I2SCFGR_I2SCFG) == I2S_MODE_SLAVE_TX))
 2536              		.loc 1 768 3 is_stmt 1 discriminator 4 view .LVU808
 768:./Libraries/STM32F4xx_HAL_Driver/Src/stm32f4xx_hal_i2s_ex.c ****       || ((hi2s->Instance->I2SCFGR & SPI_I2SCFGR_I2SCFG) == I2S_MODE_SLAVE_TX))
 2537              		.loc 1 768 23 is_stmt 0 discriminator 4 view .LVU809
 2538 001a DA69     		ldr	r2, [r3, #28]
 768:./Libraries/STM32F4xx_HAL_Driver/Src/stm32f4xx_hal_i2s_ex.c ****       || ((hi2s->Instance->I2SCFGR & SPI_I2SCFGR_I2SCFG) == I2S_MODE_SLAVE_TX))
 2539              		.loc 1 768 33 discriminator 4 view .LVU810
 2540 001c 02F44072 		and	r2, r2, #768
 768:./Libraries/STM32F4xx_HAL_Driver/Src/stm32f4xx_hal_i2s_ex.c ****       || ((hi2s->Instance->I2SCFGR & SPI_I2SCFGR_I2SCFG) == I2S_MODE_SLAVE_TX))
 2541              		.loc 1 768 6 discriminator 4 view .LVU811
 2542 0020 B2F5007F 		cmp	r2, #512
 2543 0024 04D0     		beq	.L230
 769:./Libraries/STM32F4xx_HAL_Driver/Src/stm32f4xx_hal_i2s_ex.c ****   {
 2544              		.loc 1 769 26 view .LVU812
 2545 0026 DA69     		ldr	r2, [r3, #28]
 769:./Libraries/STM32F4xx_HAL_Driver/Src/stm32f4xx_hal_i2s_ex.c ****   {
 2546              		.loc 1 769 7 view .LVU813
 2547 0028 12F4407F 		tst	r2, #768
 2548 002c 40F08180 		bne	.L231
 2549              	.L230:
 772:./Libraries/STM32F4xx_HAL_Driver/Src/stm32f4xx_hal_i2s_ex.c ****     {
 2550              		.loc 1 772 5 is_stmt 1 view .LVU814
 772:./Libraries/STM32F4xx_HAL_Driver/Src/stm32f4xx_hal_i2s_ex.c ****     {
 2551              		.loc 1 772 16 is_stmt 0 view .LVU815
 2552 0030 039A     		ldr	r2, [sp, #12]
 772:./Libraries/STM32F4xx_HAL_Driver/Src/stm32f4xx_hal_i2s_ex.c ****     {
 2553              		.loc 1 772 7 view .LVU816
 2554 0032 12F0020F 		tst	r2, #2
 2555 0036 03D0     		beq	.L232
 772:./Libraries/STM32F4xx_HAL_Driver/Src/stm32f4xx_hal_i2s_ex.c ****     {
 2556              		.loc 1 772 53 discriminator 1 view .LVU817
 2557 0038 5B68     		ldr	r3, [r3, #4]
 772:./Libraries/STM32F4xx_HAL_Driver/Src/stm32f4xx_hal_i2s_ex.c ****     {
 2558              		.loc 1 772 49 discriminator 1 view .LVU818
 2559 003a 13F0800F 		tst	r3, #128
 2560 003e 48D1     		bne	.L252
 2561              	.LVL140:
 2562              	.L232:
 780:./Libraries/STM32F4xx_HAL_Driver/Src/stm32f4xx_hal_i2s_ex.c ****     {
 2563              		.loc 1 780 5 is_stmt 1 view .LVU819
 780:./Libraries/STM32F4xx_HAL_Driver/Src/stm32f4xx_hal_i2s_ex.c ****     {
 2564              		.loc 1 780 19 is_stmt 0 view .LVU820
 2565 0040 029B     		ldr	r3, [sp, #8]
 780:./Libraries/STM32F4xx_HAL_Driver/Src/stm32f4xx_hal_i2s_ex.c ****     {
 2566              		.loc 1 780 7 view .LVU821
 2567 0042 13F0010F 		tst	r3, #1
 2568 0046 09D0     		beq	.L233
 780:./Libraries/STM32F4xx_HAL_Driver/Src/stm32f4xx_hal_i2s_ex.c ****     {
 2569              		.loc 1 780 58 discriminator 1 view .LVU822
 2570 0048 2268     		ldr	r2, [r4]
 2571 004a 6D4B     		ldr	r3, .L262
 2572 004c 9A42     		cmp	r2, r3
ARM GAS  /tmp/ccfbD6Jk.s 			page 80


 2573 004e 45D0     		beq	.L253
 780:./Libraries/STM32F4xx_HAL_Driver/Src/stm32f4xx_hal_i2s_ex.c ****     {
 2574              		.loc 1 780 58 view .LVU823
 2575 0050 4FF04023 		mov	r3, #1073758208
 2576              	.L234:
 780:./Libraries/STM32F4xx_HAL_Driver/Src/stm32f4xx_hal_i2s_ex.c ****     {
 2577              		.loc 1 780 58 discriminator 5 view .LVU824
 2578 0054 5B68     		ldr	r3, [r3, #4]
 780:./Libraries/STM32F4xx_HAL_Driver/Src/stm32f4xx_hal_i2s_ex.c ****     {
 2579              		.loc 1 780 54 discriminator 5 view .LVU825
 2580 0056 13F0400F 		tst	r3, #64
 2581 005a 42D1     		bne	.L254
 2582              	.L233:
 788:./Libraries/STM32F4xx_HAL_Driver/Src/stm32f4xx_hal_i2s_ex.c ****     {
 2583              		.loc 1 788 5 is_stmt 1 view .LVU826
 788:./Libraries/STM32F4xx_HAL_Driver/Src/stm32f4xx_hal_i2s_ex.c ****     {
 2584              		.loc 1 788 19 is_stmt 0 view .LVU827
 2585 005c 029B     		ldr	r3, [sp, #8]
 788:./Libraries/STM32F4xx_HAL_Driver/Src/stm32f4xx_hal_i2s_ex.c ****     {
 2586              		.loc 1 788 7 view .LVU828
 2587 005e 13F0400F 		tst	r3, #64
 2588 0062 09D0     		beq	.L235
 788:./Libraries/STM32F4xx_HAL_Driver/Src/stm32f4xx_hal_i2s_ex.c ****     {
 2589              		.loc 1 788 56 discriminator 1 view .LVU829
 2590 0064 2268     		ldr	r2, [r4]
 2591 0066 664B     		ldr	r3, .L262
 2592 0068 9A42     		cmp	r2, r3
 2593 006a 3FD0     		beq	.L255
 788:./Libraries/STM32F4xx_HAL_Driver/Src/stm32f4xx_hal_i2s_ex.c ****     {
 2594              		.loc 1 788 56 view .LVU830
 2595 006c 4FF04023 		mov	r3, #1073758208
 2596              	.L236:
 788:./Libraries/STM32F4xx_HAL_Driver/Src/stm32f4xx_hal_i2s_ex.c ****     {
 2597              		.loc 1 788 56 discriminator 5 view .LVU831
 2598 0070 5A68     		ldr	r2, [r3, #4]
 788:./Libraries/STM32F4xx_HAL_Driver/Src/stm32f4xx_hal_i2s_ex.c ****     {
 2599              		.loc 1 788 52 discriminator 5 view .LVU832
 2600 0072 12F0200F 		tst	r2, #32
 2601 0076 3CD1     		bne	.L256
 2602              	.L235:
 808:./Libraries/STM32F4xx_HAL_Driver/Src/stm32f4xx_hal_i2s_ex.c ****     {
 2603              		.loc 1 808 5 is_stmt 1 view .LVU833
 808:./Libraries/STM32F4xx_HAL_Driver/Src/stm32f4xx_hal_i2s_ex.c ****     {
 2604              		.loc 1 808 16 is_stmt 0 view .LVU834
 2605 0078 039B     		ldr	r3, [sp, #12]
 808:./Libraries/STM32F4xx_HAL_Driver/Src/stm32f4xx_hal_i2s_ex.c ****     {
 2606              		.loc 1 808 7 view .LVU835
 2607 007a 13F0080F 		tst	r3, #8
 2608 007e 24D0     		beq	.L228
 808:./Libraries/STM32F4xx_HAL_Driver/Src/stm32f4xx_hal_i2s_ex.c ****     {
 2609              		.loc 1 808 53 discriminator 1 view .LVU836
 2610 0080 2368     		ldr	r3, [r4]
 2611 0082 5A68     		ldr	r2, [r3, #4]
 808:./Libraries/STM32F4xx_HAL_Driver/Src/stm32f4xx_hal_i2s_ex.c ****     {
 2612              		.loc 1 808 49 discriminator 1 view .LVU837
 2613 0084 12F0200F 		tst	r2, #32
 2614 0088 1FD0     		beq	.L228
ARM GAS  /tmp/ccfbD6Jk.s 			page 81


 811:./Libraries/STM32F4xx_HAL_Driver/Src/stm32f4xx_hal_i2s_ex.c **** 
 2615              		.loc 1 811 7 is_stmt 1 view .LVU838
 2616 008a 5A68     		ldr	r2, [r3, #4]
 2617 008c 22F0A002 		bic	r2, r2, #160
 2618 0090 1204     		lsls	r2, r2, #16
 2619 0092 120C     		lsrs	r2, r2, #16
 2620 0094 5A60     		str	r2, [r3, #4]
 814:./Libraries/STM32F4xx_HAL_Driver/Src/stm32f4xx_hal_i2s_ex.c **** 
 2621              		.loc 1 814 7 view .LVU839
 2622 0096 2268     		ldr	r2, [r4]
 2623 0098 594B     		ldr	r3, .L262
 2624 009a 9A42     		cmp	r2, r3
 2625 009c 47D0     		beq	.L257
 2626 009e 4FF04022 		mov	r2, #1073758208
 2627              	.L238:
 814:./Libraries/STM32F4xx_HAL_Driver/Src/stm32f4xx_hal_i2s_ex.c **** 
 2628              		.loc 1 814 7 is_stmt 0 discriminator 4 view .LVU840
 2629 00a2 5368     		ldr	r3, [r2, #4]
 2630 00a4 23F06003 		bic	r3, r3, #96
 2631 00a8 5360     		str	r3, [r2, #4]
 817:./Libraries/STM32F4xx_HAL_Driver/Src/stm32f4xx_hal_i2s_ex.c **** 
 2632              		.loc 1 817 7 is_stmt 1 discriminator 4 view .LVU841
 2633              	.LBB10:
 817:./Libraries/STM32F4xx_HAL_Driver/Src/stm32f4xx_hal_i2s_ex.c **** 
 2634              		.loc 1 817 7 discriminator 4 view .LVU842
 2635 00aa 0023     		movs	r3, #0
 2636 00ac 0193     		str	r3, [sp, #4]
 817:./Libraries/STM32F4xx_HAL_Driver/Src/stm32f4xx_hal_i2s_ex.c **** 
 2637              		.loc 1 817 7 discriminator 4 view .LVU843
 2638 00ae 2368     		ldr	r3, [r4]
 2639 00b0 9B68     		ldr	r3, [r3, #8]
 2640 00b2 0193     		str	r3, [sp, #4]
 817:./Libraries/STM32F4xx_HAL_Driver/Src/stm32f4xx_hal_i2s_ex.c **** 
 2641              		.loc 1 817 7 discriminator 4 view .LVU844
 2642 00b4 019B     		ldr	r3, [sp, #4]
 2643              	.LBE10:
 817:./Libraries/STM32F4xx_HAL_Driver/Src/stm32f4xx_hal_i2s_ex.c **** 
 2644              		.loc 1 817 7 discriminator 4 view .LVU845
 820:./Libraries/STM32F4xx_HAL_Driver/Src/stm32f4xx_hal_i2s_ex.c **** 
 2645              		.loc 1 820 7 discriminator 4 view .LVU846
 820:./Libraries/STM32F4xx_HAL_Driver/Src/stm32f4xx_hal_i2s_ex.c **** 
 2646              		.loc 1 820 19 is_stmt 0 discriminator 4 view .LVU847
 2647 00b6 0123     		movs	r3, #1
 2648 00b8 84F84130 		strb	r3, [r4, #65]
 823:./Libraries/STM32F4xx_HAL_Driver/Src/stm32f4xx_hal_i2s_ex.c ****       HAL_I2S_ErrorCallback(hi2s);
 2649              		.loc 1 823 7 is_stmt 1 discriminator 4 view .LVU848
 2650 00bc 636C     		ldr	r3, [r4, #68]
 2651 00be 43F00403 		orr	r3, r3, #4
 2652 00c2 6364     		str	r3, [r4, #68]
 824:./Libraries/STM32F4xx_HAL_Driver/Src/stm32f4xx_hal_i2s_ex.c ****     }
 2653              		.loc 1 824 7 discriminator 4 view .LVU849
 2654 00c4 2046     		mov	r0, r4
 2655 00c6 FFF7FEFF 		bl	HAL_I2S_ErrorCallback
 2656              	.LVL141:
 2657              	.L228:
 880:./Libraries/STM32F4xx_HAL_Driver/Src/stm32f4xx_hal_i2s_ex.c **** 
 2658              		.loc 1 880 1 is_stmt 0 view .LVU850
ARM GAS  /tmp/ccfbD6Jk.s 			page 82


 2659 00ca 04B0     		add	sp, sp, #16
 2660              	.LCFI19:
 2661              		.cfi_remember_state
 2662              		.cfi_def_cfa_offset 8
 2663              		@ sp needed
 2664 00cc 10BD     		pop	{r4, pc}
 2665              	.LVL142:
 2666              	.L251:
 2667              	.LCFI20:
 2668              		.cfi_restore_state
 765:./Libraries/STM32F4xx_HAL_Driver/Src/stm32f4xx_hal_i2s_ex.c **** 
 2669              		.loc 1 765 28 view .LVU851
 2670 00ce 4D49     		ldr	r1, .L262+4
 2671 00d0 A1E7     		b	.L229
 2672              	.L252:
 776:./Libraries/STM32F4xx_HAL_Driver/Src/stm32f4xx_hal_i2s_ex.c ****     }
 2673              		.loc 1 776 7 is_stmt 1 view .LVU852
 2674 00d2 0021     		movs	r1, #0
 2675 00d4 2046     		mov	r0, r4
 2676              	.LVL143:
 776:./Libraries/STM32F4xx_HAL_Driver/Src/stm32f4xx_hal_i2s_ex.c ****     }
 2677              		.loc 1 776 7 is_stmt 0 view .LVU853
 2678 00d6 FFF7FEFF 		bl	I2SEx_FullDuplexTx_IT
 2679              	.LVL144:
 2680 00da B1E7     		b	.L232
 2681              	.L253:
 780:./Libraries/STM32F4xx_HAL_Driver/Src/stm32f4xx_hal_i2s_ex.c ****     {
 2682              		.loc 1 780 58 view .LVU854
 2683 00dc A3F58063 		sub	r3, r3, #1024
 2684 00e0 B8E7     		b	.L234
 2685              	.L254:
 784:./Libraries/STM32F4xx_HAL_Driver/Src/stm32f4xx_hal_i2s_ex.c ****     }
 2686              		.loc 1 784 7 is_stmt 1 view .LVU855
 2687 00e2 0121     		movs	r1, #1
 2688 00e4 2046     		mov	r0, r4
 2689 00e6 FFF7FEFF 		bl	I2SEx_FullDuplexRx_IT
 2690              	.LVL145:
 2691 00ea B7E7     		b	.L233
 2692              	.L255:
 788:./Libraries/STM32F4xx_HAL_Driver/Src/stm32f4xx_hal_i2s_ex.c ****     {
 2693              		.loc 1 788 56 is_stmt 0 view .LVU856
 2694 00ec A3F58063 		sub	r3, r3, #1024
 2695 00f0 BEE7     		b	.L236
 2696              	.L256:
 791:./Libraries/STM32F4xx_HAL_Driver/Src/stm32f4xx_hal_i2s_ex.c **** 
 2697              		.loc 1 791 7 is_stmt 1 discriminator 4 view .LVU857
 2698 00f2 5A68     		ldr	r2, [r3, #4]
 2699 00f4 22F06002 		bic	r2, r2, #96
 2700 00f8 5A60     		str	r2, [r3, #4]
 794:./Libraries/STM32F4xx_HAL_Driver/Src/stm32f4xx_hal_i2s_ex.c **** 
 2701              		.loc 1 794 7 discriminator 4 view .LVU858
 2702 00fa 2268     		ldr	r2, [r4]
 2703 00fc 5368     		ldr	r3, [r2, #4]
 2704 00fe 23F0A003 		bic	r3, r3, #160
 2705 0102 1B04     		lsls	r3, r3, #16
 2706 0104 1B0C     		lsrs	r3, r3, #16
 2707 0106 5360     		str	r3, [r2, #4]
ARM GAS  /tmp/ccfbD6Jk.s 			page 83


 797:./Libraries/STM32F4xx_HAL_Driver/Src/stm32f4xx_hal_i2s_ex.c **** 
 2708              		.loc 1 797 7 discriminator 4 view .LVU859
 2709              	.LBB11:
 797:./Libraries/STM32F4xx_HAL_Driver/Src/stm32f4xx_hal_i2s_ex.c **** 
 2710              		.loc 1 797 7 discriminator 4 view .LVU860
 2711 0108 0023     		movs	r3, #0
 2712 010a 0093     		str	r3, [sp]
 797:./Libraries/STM32F4xx_HAL_Driver/Src/stm32f4xx_hal_i2s_ex.c **** 
 2713              		.loc 1 797 7 discriminator 4 view .LVU861
 2714 010c 2368     		ldr	r3, [r4]
 2715 010e DA68     		ldr	r2, [r3, #12]
 2716 0110 0092     		str	r2, [sp]
 797:./Libraries/STM32F4xx_HAL_Driver/Src/stm32f4xx_hal_i2s_ex.c **** 
 2717              		.loc 1 797 7 discriminator 4 view .LVU862
 2718 0112 9B68     		ldr	r3, [r3, #8]
 2719 0114 0093     		str	r3, [sp]
 797:./Libraries/STM32F4xx_HAL_Driver/Src/stm32f4xx_hal_i2s_ex.c **** 
 2720              		.loc 1 797 7 discriminator 4 view .LVU863
 2721 0116 009B     		ldr	r3, [sp]
 2722              	.LBE11:
 797:./Libraries/STM32F4xx_HAL_Driver/Src/stm32f4xx_hal_i2s_ex.c **** 
 2723              		.loc 1 797 7 discriminator 4 view .LVU864
 800:./Libraries/STM32F4xx_HAL_Driver/Src/stm32f4xx_hal_i2s_ex.c **** 
 2724              		.loc 1 800 7 discriminator 4 view .LVU865
 800:./Libraries/STM32F4xx_HAL_Driver/Src/stm32f4xx_hal_i2s_ex.c **** 
 2725              		.loc 1 800 19 is_stmt 0 discriminator 4 view .LVU866
 2726 0118 0123     		movs	r3, #1
 2727 011a 84F84130 		strb	r3, [r4, #65]
 803:./Libraries/STM32F4xx_HAL_Driver/Src/stm32f4xx_hal_i2s_ex.c ****       HAL_I2S_ErrorCallback(hi2s);
 2728              		.loc 1 803 7 is_stmt 1 discriminator 4 view .LVU867
 2729 011e 636C     		ldr	r3, [r4, #68]
 2730 0120 43F00203 		orr	r3, r3, #2
 2731 0124 6364     		str	r3, [r4, #68]
 804:./Libraries/STM32F4xx_HAL_Driver/Src/stm32f4xx_hal_i2s_ex.c ****     }
 2732              		.loc 1 804 7 discriminator 4 view .LVU868
 2733 0126 2046     		mov	r0, r4
 2734 0128 FFF7FEFF 		bl	HAL_I2S_ErrorCallback
 2735              	.LVL146:
 2736 012c A4E7     		b	.L235
 2737              	.L257:
 814:./Libraries/STM32F4xx_HAL_Driver/Src/stm32f4xx_hal_i2s_ex.c **** 
 2738              		.loc 1 814 7 is_stmt 0 view .LVU869
 2739 012e 354A     		ldr	r2, .L262+4
 2740 0130 B7E7     		b	.L238
 2741              	.LVL147:
 2742              	.L231:
 831:./Libraries/STM32F4xx_HAL_Driver/Src/stm32f4xx_hal_i2s_ex.c ****     {
 2743              		.loc 1 831 5 is_stmt 1 view .LVU870
 831:./Libraries/STM32F4xx_HAL_Driver/Src/stm32f4xx_hal_i2s_ex.c ****     {
 2744              		.loc 1 831 19 is_stmt 0 view .LVU871
 2745 0132 029B     		ldr	r3, [sp, #8]
 831:./Libraries/STM32F4xx_HAL_Driver/Src/stm32f4xx_hal_i2s_ex.c ****     {
 2746              		.loc 1 831 7 view .LVU872
 2747 0134 13F0020F 		tst	r3, #2
 2748 0138 03D0     		beq	.L239
 831:./Libraries/STM32F4xx_HAL_Driver/Src/stm32f4xx_hal_i2s_ex.c ****     {
 2749              		.loc 1 831 56 discriminator 5 view .LVU873
ARM GAS  /tmp/ccfbD6Jk.s 			page 84


 2750 013a 4B68     		ldr	r3, [r1, #4]
 831:./Libraries/STM32F4xx_HAL_Driver/Src/stm32f4xx_hal_i2s_ex.c ****     {
 2751              		.loc 1 831 52 discriminator 5 view .LVU874
 2752 013c 13F0800F 		tst	r3, #128
 2753 0140 4FD1     		bne	.L258
 2754              	.LVL148:
 2755              	.L239:
 839:./Libraries/STM32F4xx_HAL_Driver/Src/stm32f4xx_hal_i2s_ex.c ****     {
 2756              		.loc 1 839 5 is_stmt 1 view .LVU875
 839:./Libraries/STM32F4xx_HAL_Driver/Src/stm32f4xx_hal_i2s_ex.c ****     {
 2757              		.loc 1 839 16 is_stmt 0 view .LVU876
 2758 0142 039B     		ldr	r3, [sp, #12]
 839:./Libraries/STM32F4xx_HAL_Driver/Src/stm32f4xx_hal_i2s_ex.c ****     {
 2759              		.loc 1 839 7 view .LVU877
 2760 0144 13F0010F 		tst	r3, #1
 2761 0148 04D0     		beq	.L240
 839:./Libraries/STM32F4xx_HAL_Driver/Src/stm32f4xx_hal_i2s_ex.c ****     {
 2762              		.loc 1 839 55 discriminator 1 view .LVU878
 2763 014a 2368     		ldr	r3, [r4]
 2764 014c 5B68     		ldr	r3, [r3, #4]
 839:./Libraries/STM32F4xx_HAL_Driver/Src/stm32f4xx_hal_i2s_ex.c ****     {
 2765              		.loc 1 839 51 discriminator 1 view .LVU879
 2766 014e 13F0400F 		tst	r3, #64
 2767 0152 4BD1     		bne	.L259
 2768              	.L240:
 847:./Libraries/STM32F4xx_HAL_Driver/Src/stm32f4xx_hal_i2s_ex.c ****     {
 2769              		.loc 1 847 5 is_stmt 1 view .LVU880
 847:./Libraries/STM32F4xx_HAL_Driver/Src/stm32f4xx_hal_i2s_ex.c ****     {
 2770              		.loc 1 847 16 is_stmt 0 view .LVU881
 2771 0154 039B     		ldr	r3, [sp, #12]
 847:./Libraries/STM32F4xx_HAL_Driver/Src/stm32f4xx_hal_i2s_ex.c ****     {
 2772              		.loc 1 847 7 view .LVU882
 2773 0156 13F0400F 		tst	r3, #64
 2774 015a 1ED0     		beq	.L241
 847:./Libraries/STM32F4xx_HAL_Driver/Src/stm32f4xx_hal_i2s_ex.c ****     {
 2775              		.loc 1 847 53 discriminator 1 view .LVU883
 2776 015c 2368     		ldr	r3, [r4]
 2777 015e 5A68     		ldr	r2, [r3, #4]
 847:./Libraries/STM32F4xx_HAL_Driver/Src/stm32f4xx_hal_i2s_ex.c ****     {
 2778              		.loc 1 847 49 discriminator 1 view .LVU884
 2779 0160 12F0200F 		tst	r2, #32
 2780 0164 19D0     		beq	.L241
 850:./Libraries/STM32F4xx_HAL_Driver/Src/stm32f4xx_hal_i2s_ex.c **** 
 2781              		.loc 1 850 7 is_stmt 1 view .LVU885
 2782 0166 5A68     		ldr	r2, [r3, #4]
 2783 0168 22F06002 		bic	r2, r2, #96
 2784 016c 1204     		lsls	r2, r2, #16
 2785 016e 120C     		lsrs	r2, r2, #16
 2786 0170 5A60     		str	r2, [r3, #4]
 853:./Libraries/STM32F4xx_HAL_Driver/Src/stm32f4xx_hal_i2s_ex.c **** 
 2787              		.loc 1 853 7 view .LVU886
 2788 0172 2268     		ldr	r2, [r4]
 2789 0174 224B     		ldr	r3, .L262
 2790 0176 9A42     		cmp	r2, r3
 2791 0178 3DD0     		beq	.L260
 2792 017a 4FF04022 		mov	r2, #1073758208
 2793              	.L242:
ARM GAS  /tmp/ccfbD6Jk.s 			page 85


 853:./Libraries/STM32F4xx_HAL_Driver/Src/stm32f4xx_hal_i2s_ex.c **** 
 2794              		.loc 1 853 7 is_stmt 0 discriminator 4 view .LVU887
 2795 017e 5368     		ldr	r3, [r2, #4]
 2796 0180 23F0A003 		bic	r3, r3, #160
 2797 0184 5360     		str	r3, [r2, #4]
 856:./Libraries/STM32F4xx_HAL_Driver/Src/stm32f4xx_hal_i2s_ex.c **** 
 2798              		.loc 1 856 7 is_stmt 1 discriminator 4 view .LVU888
 856:./Libraries/STM32F4xx_HAL_Driver/Src/stm32f4xx_hal_i2s_ex.c **** 
 2799              		.loc 1 856 19 is_stmt 0 discriminator 4 view .LVU889
 2800 0186 0123     		movs	r3, #1
 2801 0188 84F84130 		strb	r3, [r4, #65]
 859:./Libraries/STM32F4xx_HAL_Driver/Src/stm32f4xx_hal_i2s_ex.c ****       HAL_I2S_ErrorCallback(hi2s);
 2802              		.loc 1 859 7 is_stmt 1 discriminator 4 view .LVU890
 2803 018c 636C     		ldr	r3, [r4, #68]
 2804 018e 43F00203 		orr	r3, r3, #2
 2805 0192 6364     		str	r3, [r4, #68]
 860:./Libraries/STM32F4xx_HAL_Driver/Src/stm32f4xx_hal_i2s_ex.c ****     }
 2806              		.loc 1 860 7 discriminator 4 view .LVU891
 2807 0194 2046     		mov	r0, r4
 2808 0196 FFF7FEFF 		bl	HAL_I2S_ErrorCallback
 2809              	.LVL149:
 2810              	.L241:
 864:./Libraries/STM32F4xx_HAL_Driver/Src/stm32f4xx_hal_i2s_ex.c ****     {
 2811              		.loc 1 864 5 view .LVU892
 864:./Libraries/STM32F4xx_HAL_Driver/Src/stm32f4xx_hal_i2s_ex.c ****     {
 2812              		.loc 1 864 19 is_stmt 0 view .LVU893
 2813 019a 029B     		ldr	r3, [sp, #8]
 864:./Libraries/STM32F4xx_HAL_Driver/Src/stm32f4xx_hal_i2s_ex.c ****     {
 2814              		.loc 1 864 7 view .LVU894
 2815 019c 13F0080F 		tst	r3, #8
 2816 01a0 93D0     		beq	.L228
 864:./Libraries/STM32F4xx_HAL_Driver/Src/stm32f4xx_hal_i2s_ex.c ****     {
 2817              		.loc 1 864 56 discriminator 1 view .LVU895
 2818 01a2 2268     		ldr	r2, [r4]
 2819 01a4 164B     		ldr	r3, .L262
 2820 01a6 9A42     		cmp	r2, r3
 2821 01a8 27D0     		beq	.L261
 864:./Libraries/STM32F4xx_HAL_Driver/Src/stm32f4xx_hal_i2s_ex.c ****     {
 2822              		.loc 1 864 56 view .LVU896
 2823 01aa 4FF04023 		mov	r3, #1073758208
 2824              	.L243:
 864:./Libraries/STM32F4xx_HAL_Driver/Src/stm32f4xx_hal_i2s_ex.c ****     {
 2825              		.loc 1 864 56 discriminator 5 view .LVU897
 2826 01ae 5A68     		ldr	r2, [r3, #4]
 864:./Libraries/STM32F4xx_HAL_Driver/Src/stm32f4xx_hal_i2s_ex.c ****     {
 2827              		.loc 1 864 52 discriminator 5 view .LVU898
 2828 01b0 12F0200F 		tst	r2, #32
 2829 01b4 89D0     		beq	.L228
 867:./Libraries/STM32F4xx_HAL_Driver/Src/stm32f4xx_hal_i2s_ex.c **** 
 2830              		.loc 1 867 7 is_stmt 1 discriminator 4 view .LVU899
 2831 01b6 5A68     		ldr	r2, [r3, #4]
 2832 01b8 22F0A002 		bic	r2, r2, #160
 2833 01bc 5A60     		str	r2, [r3, #4]
 870:./Libraries/STM32F4xx_HAL_Driver/Src/stm32f4xx_hal_i2s_ex.c **** 
 2834              		.loc 1 870 7 discriminator 4 view .LVU900
 2835 01be 2268     		ldr	r2, [r4]
 2836 01c0 5368     		ldr	r3, [r2, #4]
ARM GAS  /tmp/ccfbD6Jk.s 			page 86


 2837 01c2 23F06003 		bic	r3, r3, #96
 2838 01c6 1B04     		lsls	r3, r3, #16
 2839 01c8 1B0C     		lsrs	r3, r3, #16
 2840 01ca 5360     		str	r3, [r2, #4]
 873:./Libraries/STM32F4xx_HAL_Driver/Src/stm32f4xx_hal_i2s_ex.c **** 
 2841              		.loc 1 873 7 discriminator 4 view .LVU901
 873:./Libraries/STM32F4xx_HAL_Driver/Src/stm32f4xx_hal_i2s_ex.c **** 
 2842              		.loc 1 873 19 is_stmt 0 discriminator 4 view .LVU902
 2843 01cc 0123     		movs	r3, #1
 2844 01ce 84F84130 		strb	r3, [r4, #65]
 876:./Libraries/STM32F4xx_HAL_Driver/Src/stm32f4xx_hal_i2s_ex.c ****       HAL_I2S_ErrorCallback(hi2s);
 2845              		.loc 1 876 7 is_stmt 1 discriminator 4 view .LVU903
 2846 01d2 636C     		ldr	r3, [r4, #68]
 2847 01d4 43F00403 		orr	r3, r3, #4
 2848 01d8 6364     		str	r3, [r4, #68]
 877:./Libraries/STM32F4xx_HAL_Driver/Src/stm32f4xx_hal_i2s_ex.c ****     }
 2849              		.loc 1 877 7 discriminator 4 view .LVU904
 2850 01da 2046     		mov	r0, r4
 2851 01dc FFF7FEFF 		bl	HAL_I2S_ErrorCallback
 2852              	.LVL150:
 880:./Libraries/STM32F4xx_HAL_Driver/Src/stm32f4xx_hal_i2s_ex.c **** 
 2853              		.loc 1 880 1 is_stmt 0 discriminator 4 view .LVU905
 2854 01e0 73E7     		b	.L228
 2855              	.LVL151:
 2856              	.L258:
 835:./Libraries/STM32F4xx_HAL_Driver/Src/stm32f4xx_hal_i2s_ex.c ****     }
 2857              		.loc 1 835 7 is_stmt 1 view .LVU906
 2858 01e2 0121     		movs	r1, #1
 2859 01e4 2046     		mov	r0, r4
 2860              	.LVL152:
 835:./Libraries/STM32F4xx_HAL_Driver/Src/stm32f4xx_hal_i2s_ex.c ****     }
 2861              		.loc 1 835 7 is_stmt 0 view .LVU907
 2862 01e6 FFF7FEFF 		bl	I2SEx_FullDuplexTx_IT
 2863              	.LVL153:
 2864 01ea AAE7     		b	.L239
 2865              	.L259:
 843:./Libraries/STM32F4xx_HAL_Driver/Src/stm32f4xx_hal_i2s_ex.c ****     }
 2866              		.loc 1 843 7 is_stmt 1 view .LVU908
 2867 01ec 0021     		movs	r1, #0
 2868 01ee 2046     		mov	r0, r4
 2869 01f0 FFF7FEFF 		bl	I2SEx_FullDuplexRx_IT
 2870              	.LVL154:
 2871 01f4 AEE7     		b	.L240
 2872              	.L260:
 853:./Libraries/STM32F4xx_HAL_Driver/Src/stm32f4xx_hal_i2s_ex.c **** 
 2873              		.loc 1 853 7 is_stmt 0 view .LVU909
 2874 01f6 034A     		ldr	r2, .L262+4
 2875 01f8 C1E7     		b	.L242
 2876              	.L261:
 864:./Libraries/STM32F4xx_HAL_Driver/Src/stm32f4xx_hal_i2s_ex.c ****     {
 2877              		.loc 1 864 56 view .LVU910
 2878 01fa A3F58063 		sub	r3, r3, #1024
 2879 01fe D6E7     		b	.L243
 2880              	.L263:
 2881              		.align	2
 2882              	.L262:
 2883 0200 00380040 		.word	1073756160
ARM GAS  /tmp/ccfbD6Jk.s 			page 87


 2884 0204 00340040 		.word	1073755136
 2885              		.cfi_endproc
 2886              	.LFE129:
 2888              		.text
 2889              	.Letext0:
 2890              		.file 2 "/home/hao/Documents/gcc-arm-none-eabi/arm-none-eabi/include/machine/_default_types.h"
 2891              		.file 3 "/home/hao/Documents/gcc-arm-none-eabi/arm-none-eabi/include/sys/_stdint.h"
 2892              		.file 4 "./Libraries/CMSIS/Device/ST/STM32F4xx/Include/stm32f429xx.h"
 2893              		.file 5 "./Libraries/CMSIS/Device/ST/STM32F4xx/Include/stm32f4xx.h"
 2894              		.file 6 "./Libraries/STM32F4xx_HAL_Driver/Inc/stm32f4xx_hal_def.h"
 2895              		.file 7 "./Libraries/STM32F4xx_HAL_Driver/Inc/stm32f4xx_hal_dma.h"
 2896              		.file 8 "./Libraries/STM32F4xx_HAL_Driver/Inc/stm32f4xx_hal_i2s.h"
 2897              		.file 9 "./Libraries/STM32F4xx_HAL_Driver/Inc/stm32f4xx_hal.h"
ARM GAS  /tmp/ccfbD6Jk.s 			page 88


DEFINED SYMBOLS
                            *ABS*:0000000000000000 stm32f4xx_hal_i2s_ex.c
     /tmp/ccfbD6Jk.s:18     .text.I2SEx_TxRxDMAError:0000000000000000 $t
     /tmp/ccfbD6Jk.s:25     .text.I2SEx_TxRxDMAError:0000000000000000 I2SEx_TxRxDMAError
     /tmp/ccfbD6Jk.s:87     .text.I2SEx_TxRxDMAError:0000000000000040 $d
     /tmp/ccfbD6Jk.s:93     .text.I2SEx_FullDuplexWaitFlagStateUntilTimeout:0000000000000000 $t
     /tmp/ccfbD6Jk.s:99     .text.I2SEx_FullDuplexWaitFlagStateUntilTimeout:0000000000000000 I2SEx_FullDuplexWaitFlagStateUntilTimeout
     /tmp/ccfbD6Jk.s:255    .text.I2SEx_FullDuplexWaitFlagStateUntilTimeout:00000000000000a8 $d
     /tmp/ccfbD6Jk.s:260    .text.HAL_I2SEx_TransmitReceive:0000000000000000 $t
     /tmp/ccfbD6Jk.s:267    .text.HAL_I2SEx_TransmitReceive:0000000000000000 HAL_I2SEx_TransmitReceive
     /tmp/ccfbD6Jk.s:906    .text.HAL_I2SEx_TransmitReceive:0000000000000314 $d
     /tmp/ccfbD6Jk.s:911    .text.HAL_I2SEx_TransmitReceive:000000000000031c $t
     /tmp/ccfbD6Jk.s:1029   .text.HAL_I2SEx_TransmitReceive_DMA:0000000000000000 $t
     /tmp/ccfbD6Jk.s:1036   .text.HAL_I2SEx_TransmitReceive_DMA:0000000000000000 HAL_I2SEx_TransmitReceive_DMA
     /tmp/ccfbD6Jk.s:1478   .text.HAL_I2SEx_TransmitReceive_DMA:00000000000001d0 $d
     /tmp/ccfbD6Jk.s:1515   .text.I2SEx_TxRxDMAHalfCplt:0000000000000000 I2SEx_TxRxDMAHalfCplt
     /tmp/ccfbD6Jk.s:2000   .text.I2SEx_TxRxDMACplt:0000000000000000 I2SEx_TxRxDMACplt
     /tmp/ccfbD6Jk.s:1487   .text.HAL_I2SEx_TxRxHalfCpltCallback:0000000000000000 $t
     /tmp/ccfbD6Jk.s:1494   .text.HAL_I2SEx_TxRxHalfCpltCallback:0000000000000000 HAL_I2SEx_TxRxHalfCpltCallback
     /tmp/ccfbD6Jk.s:1509   .text.I2SEx_TxRxDMAHalfCplt:0000000000000000 $t
     /tmp/ccfbD6Jk.s:1542   .text.HAL_I2SEx_TxRxCpltCallback:0000000000000000 $t
     /tmp/ccfbD6Jk.s:1549   .text.HAL_I2SEx_TxRxCpltCallback:0000000000000000 HAL_I2SEx_TxRxCpltCallback
     /tmp/ccfbD6Jk.s:1564   .text.HAL_I2SEx_TransmitReceive_IT:0000000000000000 $t
     /tmp/ccfbD6Jk.s:1571   .text.HAL_I2SEx_TransmitReceive_IT:0000000000000000 HAL_I2SEx_TransmitReceive_IT
     /tmp/ccfbD6Jk.s:1988   .text.HAL_I2SEx_TransmitReceive_IT:00000000000001fc $d
     /tmp/ccfbD6Jk.s:1994   .text.I2SEx_TxRxDMACplt:0000000000000000 $t
     /tmp/ccfbD6Jk.s:2171   .text.I2SEx_TxRxDMACplt:00000000000000c0 $d
     /tmp/ccfbD6Jk.s:2177   .text.I2SEx_FullDuplexTx_IT:0000000000000000 $t
     /tmp/ccfbD6Jk.s:2183   .text.I2SEx_FullDuplexTx_IT:0000000000000000 I2SEx_FullDuplexTx_IT
     /tmp/ccfbD6Jk.s:2328   .text.I2SEx_FullDuplexTx_IT:000000000000009c $d
     /tmp/ccfbD6Jk.s:2334   .text.I2SEx_FullDuplexRx_IT:0000000000000000 $t
     /tmp/ccfbD6Jk.s:2340   .text.I2SEx_FullDuplexRx_IT:0000000000000000 I2SEx_FullDuplexRx_IT
     /tmp/ccfbD6Jk.s:2488   .text.I2SEx_FullDuplexRx_IT:000000000000009c $d
     /tmp/ccfbD6Jk.s:2494   .text.HAL_I2SEx_FullDuplex_IRQHandler:0000000000000000 $t
     /tmp/ccfbD6Jk.s:2501   .text.HAL_I2SEx_FullDuplex_IRQHandler:0000000000000000 HAL_I2SEx_FullDuplex_IRQHandler
     /tmp/ccfbD6Jk.s:2883   .text.HAL_I2SEx_FullDuplex_IRQHandler:0000000000000200 $d

UNDEFINED SYMBOLS
HAL_I2S_ErrorCallback
HAL_GetTick
HAL_DMA_Start_IT
