ARM GAS  /tmp/ccWA8y1M.s 			page 1


   1              		.cpu cortex-m4
   2              		.eabi_attribute 27, 1
   3              		.eabi_attribute 28, 1
   4              		.eabi_attribute 20, 1
   5              		.eabi_attribute 21, 1
   6              		.eabi_attribute 23, 3
   7              		.eabi_attribute 24, 1
   8              		.eabi_attribute 25, 1
   9              		.eabi_attribute 26, 1
  10              		.eabi_attribute 30, 1
  11              		.eabi_attribute 34, 1
  12              		.eabi_attribute 18, 4
  13              		.file	"stm32f4xx_hal_dac_ex.c"
  14              		.text
  15              	.Ltext0:
  16              		.cfi_sections	.debug_frame
  17              		.section	.text.HAL_DACEx_DualGetValue,"ax",%progbits
  18              		.align	1
  19              		.global	HAL_DACEx_DualGetValue
  20              		.arch armv7e-m
  21              		.syntax unified
  22              		.thumb
  23              		.thumb_func
  24              		.fpu fpv4-sp-d16
  26              	HAL_DACEx_DualGetValue:
  27              	.LVL0:
  28              	.LFB126:
  29              		.file 1 "./Libraries/STM32F4xx_HAL_Driver/Src/stm32f4xx_hal_dac_ex.c"
   1:./Libraries/STM32F4xx_HAL_Driver/Src/stm32f4xx_hal_dac_ex.c **** /**
   2:./Libraries/STM32F4xx_HAL_Driver/Src/stm32f4xx_hal_dac_ex.c ****   ******************************************************************************
   3:./Libraries/STM32F4xx_HAL_Driver/Src/stm32f4xx_hal_dac_ex.c ****   * @file    stm32f4xx_hal_dac_ex.c
   4:./Libraries/STM32F4xx_HAL_Driver/Src/stm32f4xx_hal_dac_ex.c ****   * @author  MCD Application Team
   5:./Libraries/STM32F4xx_HAL_Driver/Src/stm32f4xx_hal_dac_ex.c ****   * @brief   DAC HAL module driver.
   6:./Libraries/STM32F4xx_HAL_Driver/Src/stm32f4xx_hal_dac_ex.c ****   *         This file provides firmware functions to manage the following 
   7:./Libraries/STM32F4xx_HAL_Driver/Src/stm32f4xx_hal_dac_ex.c ****   *         functionalities of DAC extension peripheral:
   8:./Libraries/STM32F4xx_HAL_Driver/Src/stm32f4xx_hal_dac_ex.c ****   *           + Extended features functions
   9:./Libraries/STM32F4xx_HAL_Driver/Src/stm32f4xx_hal_dac_ex.c ****   *     
  10:./Libraries/STM32F4xx_HAL_Driver/Src/stm32f4xx_hal_dac_ex.c ****   *
  11:./Libraries/STM32F4xx_HAL_Driver/Src/stm32f4xx_hal_dac_ex.c ****   @verbatim      
  12:./Libraries/STM32F4xx_HAL_Driver/Src/stm32f4xx_hal_dac_ex.c ****   ==============================================================================
  13:./Libraries/STM32F4xx_HAL_Driver/Src/stm32f4xx_hal_dac_ex.c ****                       ##### How to use this driver #####
  14:./Libraries/STM32F4xx_HAL_Driver/Src/stm32f4xx_hal_dac_ex.c ****   ==============================================================================
  15:./Libraries/STM32F4xx_HAL_Driver/Src/stm32f4xx_hal_dac_ex.c ****     [..]          
  16:./Libraries/STM32F4xx_HAL_Driver/Src/stm32f4xx_hal_dac_ex.c ****       (+) When Dual mode is enabled (i.e DAC Channel1 and Channel2 are used simultaneously) :
  17:./Libraries/STM32F4xx_HAL_Driver/Src/stm32f4xx_hal_dac_ex.c ****           Use HAL_DACEx_DualGetValue() to get digital data to be converted and use
  18:./Libraries/STM32F4xx_HAL_Driver/Src/stm32f4xx_hal_dac_ex.c ****           HAL_DACEx_DualSetValue() to set digital value to converted simultaneously in Channel 1 an
  19:./Libraries/STM32F4xx_HAL_Driver/Src/stm32f4xx_hal_dac_ex.c ****       (+) Use HAL_DACEx_TriangleWaveGenerate() to generate Triangle signal.
  20:./Libraries/STM32F4xx_HAL_Driver/Src/stm32f4xx_hal_dac_ex.c ****       (+) Use HAL_DACEx_NoiseWaveGenerate() to generate Noise signal.
  21:./Libraries/STM32F4xx_HAL_Driver/Src/stm32f4xx_hal_dac_ex.c ****    
  22:./Libraries/STM32F4xx_HAL_Driver/Src/stm32f4xx_hal_dac_ex.c ****  @endverbatim    
  23:./Libraries/STM32F4xx_HAL_Driver/Src/stm32f4xx_hal_dac_ex.c ****   ******************************************************************************
  24:./Libraries/STM32F4xx_HAL_Driver/Src/stm32f4xx_hal_dac_ex.c ****   * @attention
  25:./Libraries/STM32F4xx_HAL_Driver/Src/stm32f4xx_hal_dac_ex.c ****   *
  26:./Libraries/STM32F4xx_HAL_Driver/Src/stm32f4xx_hal_dac_ex.c ****   * <h2><center>&copy; COPYRIGHT(c) 2017 STMicroelectronics</center></h2>
  27:./Libraries/STM32F4xx_HAL_Driver/Src/stm32f4xx_hal_dac_ex.c ****   *
  28:./Libraries/STM32F4xx_HAL_Driver/Src/stm32f4xx_hal_dac_ex.c ****   * Redistribution and use in source and binary forms, with or without modification,
  29:./Libraries/STM32F4xx_HAL_Driver/Src/stm32f4xx_hal_dac_ex.c ****   * are permitted provided that the following conditions are met:
ARM GAS  /tmp/ccWA8y1M.s 			page 2


  30:./Libraries/STM32F4xx_HAL_Driver/Src/stm32f4xx_hal_dac_ex.c ****   *   1. Redistributions of source code must retain the above copyright notice,
  31:./Libraries/STM32F4xx_HAL_Driver/Src/stm32f4xx_hal_dac_ex.c ****   *      this list of conditions and the following disclaimer.
  32:./Libraries/STM32F4xx_HAL_Driver/Src/stm32f4xx_hal_dac_ex.c ****   *   2. Redistributions in binary form must reproduce the above copyright notice,
  33:./Libraries/STM32F4xx_HAL_Driver/Src/stm32f4xx_hal_dac_ex.c ****   *      this list of conditions and the following disclaimer in the documentation
  34:./Libraries/STM32F4xx_HAL_Driver/Src/stm32f4xx_hal_dac_ex.c ****   *      and/or other materials provided with the distribution.
  35:./Libraries/STM32F4xx_HAL_Driver/Src/stm32f4xx_hal_dac_ex.c ****   *   3. Neither the name of STMicroelectronics nor the names of its contributors
  36:./Libraries/STM32F4xx_HAL_Driver/Src/stm32f4xx_hal_dac_ex.c ****   *      may be used to endorse or promote products derived from this software
  37:./Libraries/STM32F4xx_HAL_Driver/Src/stm32f4xx_hal_dac_ex.c ****   *      without specific prior written permission.
  38:./Libraries/STM32F4xx_HAL_Driver/Src/stm32f4xx_hal_dac_ex.c ****   *
  39:./Libraries/STM32F4xx_HAL_Driver/Src/stm32f4xx_hal_dac_ex.c ****   * THIS SOFTWARE IS PROVIDED BY THE COPYRIGHT HOLDERS AND CONTRIBUTORS "AS IS"
  40:./Libraries/STM32F4xx_HAL_Driver/Src/stm32f4xx_hal_dac_ex.c ****   * AND ANY EXPRESS OR IMPLIED WARRANTIES, INCLUDING, BUT NOT LIMITED TO, THE
  41:./Libraries/STM32F4xx_HAL_Driver/Src/stm32f4xx_hal_dac_ex.c ****   * IMPLIED WARRANTIES OF MERCHANTABILITY AND FITNESS FOR A PARTICULAR PURPOSE ARE
  42:./Libraries/STM32F4xx_HAL_Driver/Src/stm32f4xx_hal_dac_ex.c ****   * DISCLAIMED. IN NO EVENT SHALL THE COPYRIGHT HOLDER OR CONTRIBUTORS BE LIABLE
  43:./Libraries/STM32F4xx_HAL_Driver/Src/stm32f4xx_hal_dac_ex.c ****   * FOR ANY DIRECT, INDIRECT, INCIDENTAL, SPECIAL, EXEMPLARY, OR CONSEQUENTIAL
  44:./Libraries/STM32F4xx_HAL_Driver/Src/stm32f4xx_hal_dac_ex.c ****   * DAMAGES (INCLUDING, BUT NOT LIMITED TO, PROCUREMENT OF SUBSTITUTE GOODS OR
  45:./Libraries/STM32F4xx_HAL_Driver/Src/stm32f4xx_hal_dac_ex.c ****   * SERVICES; LOSS OF USE, DATA, OR PROFITS; OR BUSINESS INTERRUPTION) HOWEVER
  46:./Libraries/STM32F4xx_HAL_Driver/Src/stm32f4xx_hal_dac_ex.c ****   * CAUSED AND ON ANY THEORY OF LIABILITY, WHETHER IN CONTRACT, STRICT LIABILITY,
  47:./Libraries/STM32F4xx_HAL_Driver/Src/stm32f4xx_hal_dac_ex.c ****   * OR TORT (INCLUDING NEGLIGENCE OR OTHERWISE) ARISING IN ANY WAY OUT OF THE USE
  48:./Libraries/STM32F4xx_HAL_Driver/Src/stm32f4xx_hal_dac_ex.c ****   * OF THIS SOFTWARE, EVEN IF ADVISED OF THE POSSIBILITY OF SUCH DAMAGE.
  49:./Libraries/STM32F4xx_HAL_Driver/Src/stm32f4xx_hal_dac_ex.c ****   *
  50:./Libraries/STM32F4xx_HAL_Driver/Src/stm32f4xx_hal_dac_ex.c ****   ******************************************************************************
  51:./Libraries/STM32F4xx_HAL_Driver/Src/stm32f4xx_hal_dac_ex.c ****   */ 
  52:./Libraries/STM32F4xx_HAL_Driver/Src/stm32f4xx_hal_dac_ex.c **** 
  53:./Libraries/STM32F4xx_HAL_Driver/Src/stm32f4xx_hal_dac_ex.c **** 
  54:./Libraries/STM32F4xx_HAL_Driver/Src/stm32f4xx_hal_dac_ex.c **** /* Includes ------------------------------------------------------------------*/
  55:./Libraries/STM32F4xx_HAL_Driver/Src/stm32f4xx_hal_dac_ex.c **** #include "stm32f4xx_hal.h"
  56:./Libraries/STM32F4xx_HAL_Driver/Src/stm32f4xx_hal_dac_ex.c **** 
  57:./Libraries/STM32F4xx_HAL_Driver/Src/stm32f4xx_hal_dac_ex.c **** /** @addtogroup STM32F4xx_HAL_Driver
  58:./Libraries/STM32F4xx_HAL_Driver/Src/stm32f4xx_hal_dac_ex.c ****   * @{
  59:./Libraries/STM32F4xx_HAL_Driver/Src/stm32f4xx_hal_dac_ex.c ****   */
  60:./Libraries/STM32F4xx_HAL_Driver/Src/stm32f4xx_hal_dac_ex.c **** 
  61:./Libraries/STM32F4xx_HAL_Driver/Src/stm32f4xx_hal_dac_ex.c **** /** @defgroup DACEx DACEx
  62:./Libraries/STM32F4xx_HAL_Driver/Src/stm32f4xx_hal_dac_ex.c ****   * @brief DAC driver modules
  63:./Libraries/STM32F4xx_HAL_Driver/Src/stm32f4xx_hal_dac_ex.c ****   * @{
  64:./Libraries/STM32F4xx_HAL_Driver/Src/stm32f4xx_hal_dac_ex.c ****   */ 
  65:./Libraries/STM32F4xx_HAL_Driver/Src/stm32f4xx_hal_dac_ex.c **** 
  66:./Libraries/STM32F4xx_HAL_Driver/Src/stm32f4xx_hal_dac_ex.c **** #ifdef HAL_DAC_MODULE_ENABLED
  67:./Libraries/STM32F4xx_HAL_Driver/Src/stm32f4xx_hal_dac_ex.c **** 
  68:./Libraries/STM32F4xx_HAL_Driver/Src/stm32f4xx_hal_dac_ex.c **** #if defined(STM32F405xx) || defined(STM32F415xx) || defined(STM32F407xx) || defined(STM32F417xx) ||
  69:./Libraries/STM32F4xx_HAL_Driver/Src/stm32f4xx_hal_dac_ex.c ****     defined(STM32F427xx) || defined(STM32F437xx) || defined(STM32F429xx) || defined(STM32F439xx) ||
  70:./Libraries/STM32F4xx_HAL_Driver/Src/stm32f4xx_hal_dac_ex.c ****     defined(STM32F410Tx) || defined(STM32F410Cx) || defined(STM32F410Rx) || defined(STM32F446xx) ||
  71:./Libraries/STM32F4xx_HAL_Driver/Src/stm32f4xx_hal_dac_ex.c ****     defined(STM32F469xx) || defined(STM32F479xx) || defined(STM32F413xx) || defined(STM32F423xx)
  72:./Libraries/STM32F4xx_HAL_Driver/Src/stm32f4xx_hal_dac_ex.c **** /* Private typedef -----------------------------------------------------------*/
  73:./Libraries/STM32F4xx_HAL_Driver/Src/stm32f4xx_hal_dac_ex.c **** /* Private define ------------------------------------------------------------*/
  74:./Libraries/STM32F4xx_HAL_Driver/Src/stm32f4xx_hal_dac_ex.c **** /* Private macro -------------------------------------------------------------*/
  75:./Libraries/STM32F4xx_HAL_Driver/Src/stm32f4xx_hal_dac_ex.c **** /* Private variables ---------------------------------------------------------*/
  76:./Libraries/STM32F4xx_HAL_Driver/Src/stm32f4xx_hal_dac_ex.c **** /* Private function prototypes -----------------------------------------------*/
  77:./Libraries/STM32F4xx_HAL_Driver/Src/stm32f4xx_hal_dac_ex.c **** /* Private functions ---------------------------------------------------------*/
  78:./Libraries/STM32F4xx_HAL_Driver/Src/stm32f4xx_hal_dac_ex.c **** /* Exported functions --------------------------------------------------------*/
  79:./Libraries/STM32F4xx_HAL_Driver/Src/stm32f4xx_hal_dac_ex.c **** /** @defgroup DACEx_Exported_Functions DAC Exported Functions
  80:./Libraries/STM32F4xx_HAL_Driver/Src/stm32f4xx_hal_dac_ex.c ****   * @{
  81:./Libraries/STM32F4xx_HAL_Driver/Src/stm32f4xx_hal_dac_ex.c ****   */
  82:./Libraries/STM32F4xx_HAL_Driver/Src/stm32f4xx_hal_dac_ex.c **** 
  83:./Libraries/STM32F4xx_HAL_Driver/Src/stm32f4xx_hal_dac_ex.c **** /** @defgroup DACEx_Exported_Functions_Group1 Extended features functions
  84:./Libraries/STM32F4xx_HAL_Driver/Src/stm32f4xx_hal_dac_ex.c ****  *  @brief    Extended features functions 
  85:./Libraries/STM32F4xx_HAL_Driver/Src/stm32f4xx_hal_dac_ex.c ****  *
  86:./Libraries/STM32F4xx_HAL_Driver/Src/stm32f4xx_hal_dac_ex.c **** @verbatim   
ARM GAS  /tmp/ccWA8y1M.s 			page 3


  87:./Libraries/STM32F4xx_HAL_Driver/Src/stm32f4xx_hal_dac_ex.c ****   ==============================================================================
  88:./Libraries/STM32F4xx_HAL_Driver/Src/stm32f4xx_hal_dac_ex.c ****                  ##### Extended features functions #####
  89:./Libraries/STM32F4xx_HAL_Driver/Src/stm32f4xx_hal_dac_ex.c ****   ==============================================================================  
  90:./Libraries/STM32F4xx_HAL_Driver/Src/stm32f4xx_hal_dac_ex.c ****     [..]  This section provides functions allowing to:
  91:./Libraries/STM32F4xx_HAL_Driver/Src/stm32f4xx_hal_dac_ex.c ****       (+) Start conversion.
  92:./Libraries/STM32F4xx_HAL_Driver/Src/stm32f4xx_hal_dac_ex.c ****       (+) Stop conversion.
  93:./Libraries/STM32F4xx_HAL_Driver/Src/stm32f4xx_hal_dac_ex.c ****       (+) Start conversion and enable DMA transfer.
  94:./Libraries/STM32F4xx_HAL_Driver/Src/stm32f4xx_hal_dac_ex.c ****       (+) Stop conversion and disable DMA transfer.
  95:./Libraries/STM32F4xx_HAL_Driver/Src/stm32f4xx_hal_dac_ex.c ****       (+) Get result of conversion.
  96:./Libraries/STM32F4xx_HAL_Driver/Src/stm32f4xx_hal_dac_ex.c ****       (+) Get result of dual mode conversion.
  97:./Libraries/STM32F4xx_HAL_Driver/Src/stm32f4xx_hal_dac_ex.c ****                      
  98:./Libraries/STM32F4xx_HAL_Driver/Src/stm32f4xx_hal_dac_ex.c **** @endverbatim
  99:./Libraries/STM32F4xx_HAL_Driver/Src/stm32f4xx_hal_dac_ex.c ****   * @{
 100:./Libraries/STM32F4xx_HAL_Driver/Src/stm32f4xx_hal_dac_ex.c ****   */
 101:./Libraries/STM32F4xx_HAL_Driver/Src/stm32f4xx_hal_dac_ex.c **** 
 102:./Libraries/STM32F4xx_HAL_Driver/Src/stm32f4xx_hal_dac_ex.c **** /**
 103:./Libraries/STM32F4xx_HAL_Driver/Src/stm32f4xx_hal_dac_ex.c ****   * @brief  Returns the last data output value of the selected DAC channel.
 104:./Libraries/STM32F4xx_HAL_Driver/Src/stm32f4xx_hal_dac_ex.c ****   * @param  hdac pointer to a DAC_HandleTypeDef structure that contains
 105:./Libraries/STM32F4xx_HAL_Driver/Src/stm32f4xx_hal_dac_ex.c ****   *         the configuration information for the specified DAC.
 106:./Libraries/STM32F4xx_HAL_Driver/Src/stm32f4xx_hal_dac_ex.c ****   * @retval The selected DAC channel data output value.
 107:./Libraries/STM32F4xx_HAL_Driver/Src/stm32f4xx_hal_dac_ex.c ****   */
 108:./Libraries/STM32F4xx_HAL_Driver/Src/stm32f4xx_hal_dac_ex.c **** uint32_t HAL_DACEx_DualGetValue(DAC_HandleTypeDef* hdac)
 109:./Libraries/STM32F4xx_HAL_Driver/Src/stm32f4xx_hal_dac_ex.c **** {
  30              		.loc 1 109 1 view -0
  31              		.cfi_startproc
  32              		@ args = 0, pretend = 0, frame = 0
  33              		@ frame_needed = 0, uses_anonymous_args = 0
  34              		@ link register save eliminated.
 110:./Libraries/STM32F4xx_HAL_Driver/Src/stm32f4xx_hal_dac_ex.c ****   uint32_t tmp = 0U;
  35              		.loc 1 110 3 view .LVU1
 111:./Libraries/STM32F4xx_HAL_Driver/Src/stm32f4xx_hal_dac_ex.c ****   
 112:./Libraries/STM32F4xx_HAL_Driver/Src/stm32f4xx_hal_dac_ex.c ****   tmp |= hdac->Instance->DOR1;
  36              		.loc 1 112 3 view .LVU2
  37              		.loc 1 112 14 is_stmt 0 view .LVU3
  38 0000 0368     		ldr	r3, [r0]
  39              		.loc 1 112 24 view .LVU4
  40 0002 DA6A     		ldr	r2, [r3, #44]
  41              	.LVL1:
 113:./Libraries/STM32F4xx_HAL_Driver/Src/stm32f4xx_hal_dac_ex.c ****   
 114:./Libraries/STM32F4xx_HAL_Driver/Src/stm32f4xx_hal_dac_ex.c ****   tmp |= hdac->Instance->DOR2 << 16U;
  42              		.loc 1 114 3 is_stmt 1 view .LVU5
  43              		.loc 1 114 24 is_stmt 0 view .LVU6
  44 0004 186B     		ldr	r0, [r3, #48]
  45              	.LVL2:
 115:./Libraries/STM32F4xx_HAL_Driver/Src/stm32f4xx_hal_dac_ex.c ****   
 116:./Libraries/STM32F4xx_HAL_Driver/Src/stm32f4xx_hal_dac_ex.c ****   /* Returns the DAC channel data output register value */
 117:./Libraries/STM32F4xx_HAL_Driver/Src/stm32f4xx_hal_dac_ex.c ****   return tmp;
  46              		.loc 1 117 3 is_stmt 1 view .LVU7
 118:./Libraries/STM32F4xx_HAL_Driver/Src/stm32f4xx_hal_dac_ex.c **** }
  47              		.loc 1 118 1 is_stmt 0 view .LVU8
  48 0006 42EA0040 		orr	r0, r2, r0, lsl #16
  49              	.LVL3:
  50              		.loc 1 118 1 view .LVU9
  51 000a 7047     		bx	lr
  52              		.cfi_endproc
  53              	.LFE126:
  55              		.section	.text.HAL_DACEx_TriangleWaveGenerate,"ax",%progbits
ARM GAS  /tmp/ccWA8y1M.s 			page 4


  56              		.align	1
  57              		.global	HAL_DACEx_TriangleWaveGenerate
  58              		.syntax unified
  59              		.thumb
  60              		.thumb_func
  61              		.fpu fpv4-sp-d16
  63              	HAL_DACEx_TriangleWaveGenerate:
  64              	.LVL4:
  65              	.LFB127:
 119:./Libraries/STM32F4xx_HAL_Driver/Src/stm32f4xx_hal_dac_ex.c **** 
 120:./Libraries/STM32F4xx_HAL_Driver/Src/stm32f4xx_hal_dac_ex.c **** /**
 121:./Libraries/STM32F4xx_HAL_Driver/Src/stm32f4xx_hal_dac_ex.c ****   * @brief  Enables or disables the selected DAC channel wave generation.
 122:./Libraries/STM32F4xx_HAL_Driver/Src/stm32f4xx_hal_dac_ex.c ****   * @param  hdac pointer to a DAC_HandleTypeDef structure that contains
 123:./Libraries/STM32F4xx_HAL_Driver/Src/stm32f4xx_hal_dac_ex.c ****   *         the configuration information for the specified DAC.
 124:./Libraries/STM32F4xx_HAL_Driver/Src/stm32f4xx_hal_dac_ex.c ****   * @param  Channel The selected DAC channel. 
 125:./Libraries/STM32F4xx_HAL_Driver/Src/stm32f4xx_hal_dac_ex.c ****   *          This parameter can be one of the following values:
 126:./Libraries/STM32F4xx_HAL_Driver/Src/stm32f4xx_hal_dac_ex.c ****   *            DAC_CHANNEL_1 / DAC_CHANNEL_2
 127:./Libraries/STM32F4xx_HAL_Driver/Src/stm32f4xx_hal_dac_ex.c ****   * @param  Amplitude Select max triangle amplitude. 
 128:./Libraries/STM32F4xx_HAL_Driver/Src/stm32f4xx_hal_dac_ex.c ****   *          This parameter can be one of the following values:
 129:./Libraries/STM32F4xx_HAL_Driver/Src/stm32f4xx_hal_dac_ex.c ****   *            @arg DAC_TRIANGLEAMPLITUDE_1: Select max triangle amplitude of 1
 130:./Libraries/STM32F4xx_HAL_Driver/Src/stm32f4xx_hal_dac_ex.c ****   *            @arg DAC_TRIANGLEAMPLITUDE_3: Select max triangle amplitude of 3
 131:./Libraries/STM32F4xx_HAL_Driver/Src/stm32f4xx_hal_dac_ex.c ****   *            @arg DAC_TRIANGLEAMPLITUDE_7: Select max triangle amplitude of 7
 132:./Libraries/STM32F4xx_HAL_Driver/Src/stm32f4xx_hal_dac_ex.c ****   *            @arg DAC_TRIANGLEAMPLITUDE_15: Select max triangle amplitude of 15
 133:./Libraries/STM32F4xx_HAL_Driver/Src/stm32f4xx_hal_dac_ex.c ****   *            @arg DAC_TRIANGLEAMPLITUDE_31: Select max triangle amplitude of 31
 134:./Libraries/STM32F4xx_HAL_Driver/Src/stm32f4xx_hal_dac_ex.c ****   *            @arg DAC_TRIANGLEAMPLITUDE_63: Select max triangle amplitude of 63
 135:./Libraries/STM32F4xx_HAL_Driver/Src/stm32f4xx_hal_dac_ex.c ****   *            @arg DAC_TRIANGLEAMPLITUDE_127: Select max triangle amplitude of 127
 136:./Libraries/STM32F4xx_HAL_Driver/Src/stm32f4xx_hal_dac_ex.c ****   *            @arg DAC_TRIANGLEAMPLITUDE_255: Select max triangle amplitude of 255
 137:./Libraries/STM32F4xx_HAL_Driver/Src/stm32f4xx_hal_dac_ex.c ****   *            @arg DAC_TRIANGLEAMPLITUDE_511: Select max triangle amplitude of 511
 138:./Libraries/STM32F4xx_HAL_Driver/Src/stm32f4xx_hal_dac_ex.c ****   *            @arg DAC_TRIANGLEAMPLITUDE_1023: Select max triangle amplitude of 1023
 139:./Libraries/STM32F4xx_HAL_Driver/Src/stm32f4xx_hal_dac_ex.c ****   *            @arg DAC_TRIANGLEAMPLITUDE_2047: Select max triangle amplitude of 2047
 140:./Libraries/STM32F4xx_HAL_Driver/Src/stm32f4xx_hal_dac_ex.c ****   *            @arg DAC_TRIANGLEAMPLITUDE_4095: Select max triangle amplitude of 4095              
 141:./Libraries/STM32F4xx_HAL_Driver/Src/stm32f4xx_hal_dac_ex.c ****   * @retval HAL status
 142:./Libraries/STM32F4xx_HAL_Driver/Src/stm32f4xx_hal_dac_ex.c ****   */
 143:./Libraries/STM32F4xx_HAL_Driver/Src/stm32f4xx_hal_dac_ex.c **** HAL_StatusTypeDef HAL_DACEx_TriangleWaveGenerate(DAC_HandleTypeDef* hdac, uint32_t Channel, uint32_
 144:./Libraries/STM32F4xx_HAL_Driver/Src/stm32f4xx_hal_dac_ex.c **** {  
  66              		.loc 1 144 1 is_stmt 1 view -0
  67              		.cfi_startproc
  68              		@ args = 0, pretend = 0, frame = 0
  69              		@ frame_needed = 0, uses_anonymous_args = 0
 145:./Libraries/STM32F4xx_HAL_Driver/Src/stm32f4xx_hal_dac_ex.c ****   /* Check the parameters */
 146:./Libraries/STM32F4xx_HAL_Driver/Src/stm32f4xx_hal_dac_ex.c ****   assert_param(IS_DAC_CHANNEL(Channel));
  70              		.loc 1 146 3 view .LVU11
 147:./Libraries/STM32F4xx_HAL_Driver/Src/stm32f4xx_hal_dac_ex.c ****   assert_param(IS_DAC_LFSR_UNMASK_TRIANGLE_AMPLITUDE(Amplitude));
  71              		.loc 1 147 3 view .LVU12
 148:./Libraries/STM32F4xx_HAL_Driver/Src/stm32f4xx_hal_dac_ex.c ****   
 149:./Libraries/STM32F4xx_HAL_Driver/Src/stm32f4xx_hal_dac_ex.c ****   /* Process locked */
 150:./Libraries/STM32F4xx_HAL_Driver/Src/stm32f4xx_hal_dac_ex.c ****   __HAL_LOCK(hdac);
  72              		.loc 1 150 3 view .LVU13
  73              		.loc 1 150 3 view .LVU14
  74 0000 4379     		ldrb	r3, [r0, #5]	@ zero_extendqisi2
  75 0002 012B     		cmp	r3, #1
  76 0004 19D0     		beq	.L4
 144:./Libraries/STM32F4xx_HAL_Driver/Src/stm32f4xx_hal_dac_ex.c ****   /* Check the parameters */
  77              		.loc 1 144 1 is_stmt 0 discriminator 2 view .LVU15
  78 0006 10B5     		push	{r4, lr}
  79              	.LCFI0:
  80              		.cfi_def_cfa_offset 8
ARM GAS  /tmp/ccWA8y1M.s 			page 5


  81              		.cfi_offset 4, -8
  82              		.cfi_offset 14, -4
  83              		.loc 1 150 3 is_stmt 1 discriminator 2 view .LVU16
  84 0008 4FF0010E 		mov	lr, #1
  85 000c 80F805E0 		strb	lr, [r0, #5]
  86              		.loc 1 150 3 discriminator 2 view .LVU17
 151:./Libraries/STM32F4xx_HAL_Driver/Src/stm32f4xx_hal_dac_ex.c ****   
 152:./Libraries/STM32F4xx_HAL_Driver/Src/stm32f4xx_hal_dac_ex.c ****   /* Change DAC state */
 153:./Libraries/STM32F4xx_HAL_Driver/Src/stm32f4xx_hal_dac_ex.c ****   hdac->State = HAL_DAC_STATE_BUSY;
  87              		.loc 1 153 3 discriminator 2 view .LVU18
  88              		.loc 1 153 15 is_stmt 0 discriminator 2 view .LVU19
  89 0010 0223     		movs	r3, #2
  90 0012 0371     		strb	r3, [r0, #4]
 154:./Libraries/STM32F4xx_HAL_Driver/Src/stm32f4xx_hal_dac_ex.c ****   
 155:./Libraries/STM32F4xx_HAL_Driver/Src/stm32f4xx_hal_dac_ex.c ****   /* Enable the selected wave generation for the selected DAC channel */
 156:./Libraries/STM32F4xx_HAL_Driver/Src/stm32f4xx_hal_dac_ex.c ****   MODIFY_REG(hdac->Instance->CR, (DAC_CR_WAVE1 | DAC_CR_MAMP1) << Channel, (DAC_CR_WAVE1_1 | Amplit
  91              		.loc 1 156 3 is_stmt 1 discriminator 2 view .LVU20
  92 0014 0468     		ldr	r4, [r0]
  93 0016 2368     		ldr	r3, [r4]
  94 0018 4FF47C6C 		mov	ip, #4032
  95 001c 0CFA01FC 		lsl	ip, ip, r1
  96 0020 23EA0C03 		bic	r3, r3, ip
  97 0024 42F08002 		orr	r2, r2, #128
  98              	.LVL5:
  99              		.loc 1 156 3 is_stmt 0 discriminator 2 view .LVU21
 100 0028 8A40     		lsls	r2, r2, r1
 101 002a 1A43     		orrs	r2, r2, r3
 102 002c 2260     		str	r2, [r4]
 157:./Libraries/STM32F4xx_HAL_Driver/Src/stm32f4xx_hal_dac_ex.c ****   
 158:./Libraries/STM32F4xx_HAL_Driver/Src/stm32f4xx_hal_dac_ex.c ****   /* Change DAC state */
 159:./Libraries/STM32F4xx_HAL_Driver/Src/stm32f4xx_hal_dac_ex.c ****   hdac->State = HAL_DAC_STATE_READY;
 103              		.loc 1 159 3 is_stmt 1 discriminator 2 view .LVU22
 104              		.loc 1 159 15 is_stmt 0 discriminator 2 view .LVU23
 105 002e 80F804E0 		strb	lr, [r0, #4]
 160:./Libraries/STM32F4xx_HAL_Driver/Src/stm32f4xx_hal_dac_ex.c ****   
 161:./Libraries/STM32F4xx_HAL_Driver/Src/stm32f4xx_hal_dac_ex.c ****   /* Process unlocked */
 162:./Libraries/STM32F4xx_HAL_Driver/Src/stm32f4xx_hal_dac_ex.c ****   __HAL_UNLOCK(hdac);
 106              		.loc 1 162 3 is_stmt 1 discriminator 2 view .LVU24
 107              		.loc 1 162 3 discriminator 2 view .LVU25
 108 0032 0023     		movs	r3, #0
 109 0034 4371     		strb	r3, [r0, #5]
 110              		.loc 1 162 3 discriminator 2 view .LVU26
 163:./Libraries/STM32F4xx_HAL_Driver/Src/stm32f4xx_hal_dac_ex.c ****   
 164:./Libraries/STM32F4xx_HAL_Driver/Src/stm32f4xx_hal_dac_ex.c ****   /* Return function status */
 165:./Libraries/STM32F4xx_HAL_Driver/Src/stm32f4xx_hal_dac_ex.c ****   return HAL_OK;
 111              		.loc 1 165 3 discriminator 2 view .LVU27
 112              		.loc 1 165 10 is_stmt 0 discriminator 2 view .LVU28
 113 0036 1846     		mov	r0, r3
 114              	.LVL6:
 166:./Libraries/STM32F4xx_HAL_Driver/Src/stm32f4xx_hal_dac_ex.c **** }
 115              		.loc 1 166 1 discriminator 2 view .LVU29
 116 0038 10BD     		pop	{r4, pc}
 117              	.LVL7:
 118              	.L4:
 119              	.LCFI1:
 120              		.cfi_def_cfa_offset 0
 121              		.cfi_restore 4
ARM GAS  /tmp/ccWA8y1M.s 			page 6


 122              		.cfi_restore 14
 150:./Libraries/STM32F4xx_HAL_Driver/Src/stm32f4xx_hal_dac_ex.c ****   
 123              		.loc 1 150 3 view .LVU30
 124 003a 0220     		movs	r0, #2
 125              	.LVL8:
 126              		.loc 1 166 1 view .LVU31
 127 003c 7047     		bx	lr
 128              		.cfi_endproc
 129              	.LFE127:
 131              		.section	.text.HAL_DACEx_NoiseWaveGenerate,"ax",%progbits
 132              		.align	1
 133              		.global	HAL_DACEx_NoiseWaveGenerate
 134              		.syntax unified
 135              		.thumb
 136              		.thumb_func
 137              		.fpu fpv4-sp-d16
 139              	HAL_DACEx_NoiseWaveGenerate:
 140              	.LVL9:
 141              	.LFB128:
 167:./Libraries/STM32F4xx_HAL_Driver/Src/stm32f4xx_hal_dac_ex.c **** 
 168:./Libraries/STM32F4xx_HAL_Driver/Src/stm32f4xx_hal_dac_ex.c **** /**
 169:./Libraries/STM32F4xx_HAL_Driver/Src/stm32f4xx_hal_dac_ex.c ****   * @brief  Enables or disables the selected DAC channel wave generation.
 170:./Libraries/STM32F4xx_HAL_Driver/Src/stm32f4xx_hal_dac_ex.c ****   * @param  hdac pointer to a DAC_HandleTypeDef structure that contains
 171:./Libraries/STM32F4xx_HAL_Driver/Src/stm32f4xx_hal_dac_ex.c ****   *         the configuration information for the specified DAC. 
 172:./Libraries/STM32F4xx_HAL_Driver/Src/stm32f4xx_hal_dac_ex.c ****   * @param  Channel The selected DAC channel. 
 173:./Libraries/STM32F4xx_HAL_Driver/Src/stm32f4xx_hal_dac_ex.c ****   *          This parameter can be one of the following values:
 174:./Libraries/STM32F4xx_HAL_Driver/Src/stm32f4xx_hal_dac_ex.c ****   *            DAC_CHANNEL_1 / DAC_CHANNEL_2
 175:./Libraries/STM32F4xx_HAL_Driver/Src/stm32f4xx_hal_dac_ex.c ****   * @param  Amplitude Unmask DAC channel LFSR for noise wave generation. 
 176:./Libraries/STM32F4xx_HAL_Driver/Src/stm32f4xx_hal_dac_ex.c ****   *          This parameter can be one of the following values: 
 177:./Libraries/STM32F4xx_HAL_Driver/Src/stm32f4xx_hal_dac_ex.c ****   *            @arg DAC_LFSRUNMASK_BIT0: Unmask DAC channel LFSR bit0 for noise wave generation
 178:./Libraries/STM32F4xx_HAL_Driver/Src/stm32f4xx_hal_dac_ex.c ****   *            @arg DAC_LFSRUNMASK_BITS1_0: Unmask DAC channel LFSR bit[1:0] for noise wave generat
 179:./Libraries/STM32F4xx_HAL_Driver/Src/stm32f4xx_hal_dac_ex.c ****   *            @arg DAC_LFSRUNMASK_BITS2_0: Unmask DAC channel LFSR bit[2:0] for noise wave generat
 180:./Libraries/STM32F4xx_HAL_Driver/Src/stm32f4xx_hal_dac_ex.c ****   *            @arg DAC_LFSRUNMASK_BITS3_0: Unmask DAC channel LFSR bit[3:0] for noise wave generat
 181:./Libraries/STM32F4xx_HAL_Driver/Src/stm32f4xx_hal_dac_ex.c ****   *            @arg DAC_LFSRUNMASK_BITS4_0: Unmask DAC channel LFSR bit[4:0] for noise wave generat
 182:./Libraries/STM32F4xx_HAL_Driver/Src/stm32f4xx_hal_dac_ex.c ****   *            @arg DAC_LFSRUNMASK_BITS5_0: Unmask DAC channel LFSR bit[5:0] for noise wave generat
 183:./Libraries/STM32F4xx_HAL_Driver/Src/stm32f4xx_hal_dac_ex.c ****   *            @arg DAC_LFSRUNMASK_BITS6_0: Unmask DAC channel LFSR bit[6:0] for noise wave generat
 184:./Libraries/STM32F4xx_HAL_Driver/Src/stm32f4xx_hal_dac_ex.c ****   *            @arg DAC_LFSRUNMASK_BITS7_0: Unmask DAC channel LFSR bit[7:0] for noise wave generat
 185:./Libraries/STM32F4xx_HAL_Driver/Src/stm32f4xx_hal_dac_ex.c ****   *            @arg DAC_LFSRUNMASK_BITS8_0: Unmask DAC channel LFSR bit[8:0] for noise wave generat
 186:./Libraries/STM32F4xx_HAL_Driver/Src/stm32f4xx_hal_dac_ex.c ****   *            @arg DAC_LFSRUNMASK_BITS9_0: Unmask DAC channel LFSR bit[9:0] for noise wave generat
 187:./Libraries/STM32F4xx_HAL_Driver/Src/stm32f4xx_hal_dac_ex.c ****   *            @arg DAC_LFSRUNMASK_BITS10_0: Unmask DAC channel LFSR bit[10:0] for noise wave gener
 188:./Libraries/STM32F4xx_HAL_Driver/Src/stm32f4xx_hal_dac_ex.c ****   *            @arg DAC_LFSRUNMASK_BITS11_0: Unmask DAC channel LFSR bit[11:0] for noise wave gener
 189:./Libraries/STM32F4xx_HAL_Driver/Src/stm32f4xx_hal_dac_ex.c ****   * @retval HAL status
 190:./Libraries/STM32F4xx_HAL_Driver/Src/stm32f4xx_hal_dac_ex.c ****   */
 191:./Libraries/STM32F4xx_HAL_Driver/Src/stm32f4xx_hal_dac_ex.c **** HAL_StatusTypeDef HAL_DACEx_NoiseWaveGenerate(DAC_HandleTypeDef* hdac, uint32_t Channel, uint32_t A
 192:./Libraries/STM32F4xx_HAL_Driver/Src/stm32f4xx_hal_dac_ex.c **** {  
 142              		.loc 1 192 1 is_stmt 1 view -0
 143              		.cfi_startproc
 144              		@ args = 0, pretend = 0, frame = 0
 145              		@ frame_needed = 0, uses_anonymous_args = 0
 193:./Libraries/STM32F4xx_HAL_Driver/Src/stm32f4xx_hal_dac_ex.c ****   /* Check the parameters */
 194:./Libraries/STM32F4xx_HAL_Driver/Src/stm32f4xx_hal_dac_ex.c ****   assert_param(IS_DAC_CHANNEL(Channel));
 146              		.loc 1 194 3 view .LVU33
 195:./Libraries/STM32F4xx_HAL_Driver/Src/stm32f4xx_hal_dac_ex.c ****   assert_param(IS_DAC_LFSR_UNMASK_TRIANGLE_AMPLITUDE(Amplitude));
 147              		.loc 1 195 3 view .LVU34
 196:./Libraries/STM32F4xx_HAL_Driver/Src/stm32f4xx_hal_dac_ex.c ****   
 197:./Libraries/STM32F4xx_HAL_Driver/Src/stm32f4xx_hal_dac_ex.c ****   /* Process locked */
 198:./Libraries/STM32F4xx_HAL_Driver/Src/stm32f4xx_hal_dac_ex.c ****   __HAL_LOCK(hdac);
ARM GAS  /tmp/ccWA8y1M.s 			page 7


 148              		.loc 1 198 3 view .LVU35
 149              		.loc 1 198 3 view .LVU36
 150 0000 4379     		ldrb	r3, [r0, #5]	@ zero_extendqisi2
 151 0002 012B     		cmp	r3, #1
 152 0004 19D0     		beq	.L11
 192:./Libraries/STM32F4xx_HAL_Driver/Src/stm32f4xx_hal_dac_ex.c ****   /* Check the parameters */
 153              		.loc 1 192 1 is_stmt 0 discriminator 2 view .LVU37
 154 0006 10B5     		push	{r4, lr}
 155              	.LCFI2:
 156              		.cfi_def_cfa_offset 8
 157              		.cfi_offset 4, -8
 158              		.cfi_offset 14, -4
 159              		.loc 1 198 3 is_stmt 1 discriminator 2 view .LVU38
 160 0008 4FF0010E 		mov	lr, #1
 161 000c 80F805E0 		strb	lr, [r0, #5]
 162              		.loc 1 198 3 discriminator 2 view .LVU39
 199:./Libraries/STM32F4xx_HAL_Driver/Src/stm32f4xx_hal_dac_ex.c ****   
 200:./Libraries/STM32F4xx_HAL_Driver/Src/stm32f4xx_hal_dac_ex.c ****   /* Change DAC state */
 201:./Libraries/STM32F4xx_HAL_Driver/Src/stm32f4xx_hal_dac_ex.c ****   hdac->State = HAL_DAC_STATE_BUSY;
 163              		.loc 1 201 3 discriminator 2 view .LVU40
 164              		.loc 1 201 15 is_stmt 0 discriminator 2 view .LVU41
 165 0010 0223     		movs	r3, #2
 166 0012 0371     		strb	r3, [r0, #4]
 202:./Libraries/STM32F4xx_HAL_Driver/Src/stm32f4xx_hal_dac_ex.c ****   
 203:./Libraries/STM32F4xx_HAL_Driver/Src/stm32f4xx_hal_dac_ex.c ****   /* Enable the selected wave generation for the selected DAC channel */
 204:./Libraries/STM32F4xx_HAL_Driver/Src/stm32f4xx_hal_dac_ex.c ****   MODIFY_REG(hdac->Instance->CR, (DAC_CR_WAVE1 | DAC_CR_MAMP1) << Channel, (DAC_CR_WAVE1_0 | Amplit
 167              		.loc 1 204 3 is_stmt 1 discriminator 2 view .LVU42
 168 0014 0468     		ldr	r4, [r0]
 169 0016 2368     		ldr	r3, [r4]
 170 0018 4FF47C6C 		mov	ip, #4032
 171 001c 0CFA01FC 		lsl	ip, ip, r1
 172 0020 23EA0C03 		bic	r3, r3, ip
 173 0024 42F04002 		orr	r2, r2, #64
 174              	.LVL10:
 175              		.loc 1 204 3 is_stmt 0 discriminator 2 view .LVU43
 176 0028 8A40     		lsls	r2, r2, r1
 177 002a 1A43     		orrs	r2, r2, r3
 178 002c 2260     		str	r2, [r4]
 205:./Libraries/STM32F4xx_HAL_Driver/Src/stm32f4xx_hal_dac_ex.c ****   
 206:./Libraries/STM32F4xx_HAL_Driver/Src/stm32f4xx_hal_dac_ex.c ****   /* Change DAC state */
 207:./Libraries/STM32F4xx_HAL_Driver/Src/stm32f4xx_hal_dac_ex.c ****   hdac->State = HAL_DAC_STATE_READY;
 179              		.loc 1 207 3 is_stmt 1 discriminator 2 view .LVU44
 180              		.loc 1 207 15 is_stmt 0 discriminator 2 view .LVU45
 181 002e 80F804E0 		strb	lr, [r0, #4]
 208:./Libraries/STM32F4xx_HAL_Driver/Src/stm32f4xx_hal_dac_ex.c ****   
 209:./Libraries/STM32F4xx_HAL_Driver/Src/stm32f4xx_hal_dac_ex.c ****   /* Process unlocked */
 210:./Libraries/STM32F4xx_HAL_Driver/Src/stm32f4xx_hal_dac_ex.c ****   __HAL_UNLOCK(hdac);
 182              		.loc 1 210 3 is_stmt 1 discriminator 2 view .LVU46
 183              		.loc 1 210 3 discriminator 2 view .LVU47
 184 0032 0023     		movs	r3, #0
 185 0034 4371     		strb	r3, [r0, #5]
 186              		.loc 1 210 3 discriminator 2 view .LVU48
 211:./Libraries/STM32F4xx_HAL_Driver/Src/stm32f4xx_hal_dac_ex.c ****   
 212:./Libraries/STM32F4xx_HAL_Driver/Src/stm32f4xx_hal_dac_ex.c ****   /* Return function status */
 213:./Libraries/STM32F4xx_HAL_Driver/Src/stm32f4xx_hal_dac_ex.c ****   return HAL_OK;
 187              		.loc 1 213 3 discriminator 2 view .LVU49
 188              		.loc 1 213 10 is_stmt 0 discriminator 2 view .LVU50
ARM GAS  /tmp/ccWA8y1M.s 			page 8


 189 0036 1846     		mov	r0, r3
 190              	.LVL11:
 214:./Libraries/STM32F4xx_HAL_Driver/Src/stm32f4xx_hal_dac_ex.c **** }
 191              		.loc 1 214 1 discriminator 2 view .LVU51
 192 0038 10BD     		pop	{r4, pc}
 193              	.LVL12:
 194              	.L11:
 195              	.LCFI3:
 196              		.cfi_def_cfa_offset 0
 197              		.cfi_restore 4
 198              		.cfi_restore 14
 198:./Libraries/STM32F4xx_HAL_Driver/Src/stm32f4xx_hal_dac_ex.c ****   
 199              		.loc 1 198 3 view .LVU52
 200 003a 0220     		movs	r0, #2
 201              	.LVL13:
 202              		.loc 1 214 1 view .LVU53
 203 003c 7047     		bx	lr
 204              		.cfi_endproc
 205              	.LFE128:
 207              		.section	.text.HAL_DACEx_DualSetValue,"ax",%progbits
 208              		.align	1
 209              		.global	HAL_DACEx_DualSetValue
 210              		.syntax unified
 211              		.thumb
 212              		.thumb_func
 213              		.fpu fpv4-sp-d16
 215              	HAL_DACEx_DualSetValue:
 216              	.LVL14:
 217              	.LFB129:
 215:./Libraries/STM32F4xx_HAL_Driver/Src/stm32f4xx_hal_dac_ex.c **** 
 216:./Libraries/STM32F4xx_HAL_Driver/Src/stm32f4xx_hal_dac_ex.c **** /**
 217:./Libraries/STM32F4xx_HAL_Driver/Src/stm32f4xx_hal_dac_ex.c ****   * @brief  Set the specified data holding register value for dual DAC channel.
 218:./Libraries/STM32F4xx_HAL_Driver/Src/stm32f4xx_hal_dac_ex.c ****   * @param  hdac pointer to a DAC_HandleTypeDef structure that contains
 219:./Libraries/STM32F4xx_HAL_Driver/Src/stm32f4xx_hal_dac_ex.c ****   *               the configuration information for the specified DAC.
 220:./Libraries/STM32F4xx_HAL_Driver/Src/stm32f4xx_hal_dac_ex.c ****   * @param  Alignment Specifies the data alignment for dual channel DAC.
 221:./Libraries/STM32F4xx_HAL_Driver/Src/stm32f4xx_hal_dac_ex.c ****   *          This parameter can be one of the following values:
 222:./Libraries/STM32F4xx_HAL_Driver/Src/stm32f4xx_hal_dac_ex.c ****   *            DAC_ALIGN_8B_R: 8bit right data alignment selected
 223:./Libraries/STM32F4xx_HAL_Driver/Src/stm32f4xx_hal_dac_ex.c ****   *            DAC_ALIGN_12B_L: 12bit left data alignment selected
 224:./Libraries/STM32F4xx_HAL_Driver/Src/stm32f4xx_hal_dac_ex.c ****   *            DAC_ALIGN_12B_R: 12bit right data alignment selected
 225:./Libraries/STM32F4xx_HAL_Driver/Src/stm32f4xx_hal_dac_ex.c ****   * @param  Data1 Data for DAC Channel2 to be loaded in the selected data holding register.
 226:./Libraries/STM32F4xx_HAL_Driver/Src/stm32f4xx_hal_dac_ex.c ****   * @param  Data2 Data for DAC Channel1 to be loaded in the selected data  holding register.
 227:./Libraries/STM32F4xx_HAL_Driver/Src/stm32f4xx_hal_dac_ex.c ****   * @note   In dual mode, a unique register access is required to write in both
 228:./Libraries/STM32F4xx_HAL_Driver/Src/stm32f4xx_hal_dac_ex.c ****   *          DAC channels at the same time.
 229:./Libraries/STM32F4xx_HAL_Driver/Src/stm32f4xx_hal_dac_ex.c ****   * @retval HAL status
 230:./Libraries/STM32F4xx_HAL_Driver/Src/stm32f4xx_hal_dac_ex.c ****   */
 231:./Libraries/STM32F4xx_HAL_Driver/Src/stm32f4xx_hal_dac_ex.c **** HAL_StatusTypeDef HAL_DACEx_DualSetValue(DAC_HandleTypeDef* hdac, uint32_t Alignment, uint32_t Data
 232:./Libraries/STM32F4xx_HAL_Driver/Src/stm32f4xx_hal_dac_ex.c **** {  
 218              		.loc 1 232 1 is_stmt 1 view -0
 219              		.cfi_startproc
 220              		@ args = 0, pretend = 0, frame = 0
 221              		@ frame_needed = 0, uses_anonymous_args = 0
 222              		@ link register save eliminated.
 233:./Libraries/STM32F4xx_HAL_Driver/Src/stm32f4xx_hal_dac_ex.c ****   uint32_t data = 0U, tmp = 0U;
 223              		.loc 1 233 3 view .LVU55
 234:./Libraries/STM32F4xx_HAL_Driver/Src/stm32f4xx_hal_dac_ex.c ****   
 235:./Libraries/STM32F4xx_HAL_Driver/Src/stm32f4xx_hal_dac_ex.c ****   /* Check the parameters */
 236:./Libraries/STM32F4xx_HAL_Driver/Src/stm32f4xx_hal_dac_ex.c ****   assert_param(IS_DAC_ALIGN(Alignment));
ARM GAS  /tmp/ccWA8y1M.s 			page 9


 224              		.loc 1 236 3 view .LVU56
 237:./Libraries/STM32F4xx_HAL_Driver/Src/stm32f4xx_hal_dac_ex.c ****   assert_param(IS_DAC_DATA(Data1));
 225              		.loc 1 237 3 view .LVU57
 238:./Libraries/STM32F4xx_HAL_Driver/Src/stm32f4xx_hal_dac_ex.c ****   assert_param(IS_DAC_DATA(Data2));
 226              		.loc 1 238 3 view .LVU58
 239:./Libraries/STM32F4xx_HAL_Driver/Src/stm32f4xx_hal_dac_ex.c ****   
 240:./Libraries/STM32F4xx_HAL_Driver/Src/stm32f4xx_hal_dac_ex.c ****   /* Calculate and set dual DAC data holding register value */
 241:./Libraries/STM32F4xx_HAL_Driver/Src/stm32f4xx_hal_dac_ex.c ****   if (Alignment == DAC_ALIGN_8B_R)
 227              		.loc 1 241 3 view .LVU59
 228              		.loc 1 241 6 is_stmt 0 view .LVU60
 229 0000 0829     		cmp	r1, #8
 230 0002 06D0     		beq	.L19
 242:./Libraries/STM32F4xx_HAL_Driver/Src/stm32f4xx_hal_dac_ex.c ****   {
 243:./Libraries/STM32F4xx_HAL_Driver/Src/stm32f4xx_hal_dac_ex.c ****     data = ((uint32_t)Data2 << 8U) | Data1; 
 244:./Libraries/STM32F4xx_HAL_Driver/Src/stm32f4xx_hal_dac_ex.c ****   }
 245:./Libraries/STM32F4xx_HAL_Driver/Src/stm32f4xx_hal_dac_ex.c ****   else
 246:./Libraries/STM32F4xx_HAL_Driver/Src/stm32f4xx_hal_dac_ex.c ****   {
 247:./Libraries/STM32F4xx_HAL_Driver/Src/stm32f4xx_hal_dac_ex.c ****     data = ((uint32_t)Data2 << 16U) | Data1;
 231              		.loc 1 247 5 is_stmt 1 view .LVU61
 232              		.loc 1 247 10 is_stmt 0 view .LVU62
 233 0004 42EA0342 		orr	r2, r2, r3, lsl #16
 234              	.LVL15:
 235              	.L18:
 248:./Libraries/STM32F4xx_HAL_Driver/Src/stm32f4xx_hal_dac_ex.c ****   }
 249:./Libraries/STM32F4xx_HAL_Driver/Src/stm32f4xx_hal_dac_ex.c ****   
 250:./Libraries/STM32F4xx_HAL_Driver/Src/stm32f4xx_hal_dac_ex.c ****   tmp = (uint32_t)hdac->Instance;
 236              		.loc 1 250 3 is_stmt 1 view .LVU63
 237              		.loc 1 250 23 is_stmt 0 view .LVU64
 238 0008 0368     		ldr	r3, [r0]
 239              	.LVL16:
 251:./Libraries/STM32F4xx_HAL_Driver/Src/stm32f4xx_hal_dac_ex.c ****   tmp += DAC_DHR12RD_ALIGNMENT(Alignment);
 240              		.loc 1 251 3 is_stmt 1 view .LVU65
 241              		.loc 1 251 7 is_stmt 0 view .LVU66
 242 000a 1944     		add	r1, r1, r3
 243              	.LVL17:
 252:./Libraries/STM32F4xx_HAL_Driver/Src/stm32f4xx_hal_dac_ex.c **** 
 253:./Libraries/STM32F4xx_HAL_Driver/Src/stm32f4xx_hal_dac_ex.c ****   /* Set the dual DAC selected data holding register */
 254:./Libraries/STM32F4xx_HAL_Driver/Src/stm32f4xx_hal_dac_ex.c ****   *(__IO uint32_t *)tmp = data;
 244              		.loc 1 254 3 is_stmt 1 view .LVU67
 245              		.loc 1 254 25 is_stmt 0 view .LVU68
 246 000c 0A62     		str	r2, [r1, #32]
 255:./Libraries/STM32F4xx_HAL_Driver/Src/stm32f4xx_hal_dac_ex.c ****   
 256:./Libraries/STM32F4xx_HAL_Driver/Src/stm32f4xx_hal_dac_ex.c ****   /* Return function status */
 257:./Libraries/STM32F4xx_HAL_Driver/Src/stm32f4xx_hal_dac_ex.c ****   return HAL_OK;
 247              		.loc 1 257 3 is_stmt 1 view .LVU69
 258:./Libraries/STM32F4xx_HAL_Driver/Src/stm32f4xx_hal_dac_ex.c **** }
 248              		.loc 1 258 1 is_stmt 0 view .LVU70
 249 000e 0020     		movs	r0, #0
 250              	.LVL18:
 251              		.loc 1 258 1 view .LVU71
 252 0010 7047     		bx	lr
 253              	.LVL19:
 254              	.L19:
 243:./Libraries/STM32F4xx_HAL_Driver/Src/stm32f4xx_hal_dac_ex.c ****   }
 255              		.loc 1 243 5 is_stmt 1 view .LVU72
 243:./Libraries/STM32F4xx_HAL_Driver/Src/stm32f4xx_hal_dac_ex.c ****   }
 256              		.loc 1 243 10 is_stmt 0 view .LVU73
ARM GAS  /tmp/ccWA8y1M.s 			page 10


 257 0012 42EA0322 		orr	r2, r2, r3, lsl #8
 258              	.LVL20:
 243:./Libraries/STM32F4xx_HAL_Driver/Src/stm32f4xx_hal_dac_ex.c ****   }
 259              		.loc 1 243 10 view .LVU74
 260 0016 F7E7     		b	.L18
 261              		.cfi_endproc
 262              	.LFE129:
 264              		.section	.text.HAL_DACEx_ConvCpltCallbackCh2,"ax",%progbits
 265              		.align	1
 266              		.weak	HAL_DACEx_ConvCpltCallbackCh2
 267              		.syntax unified
 268              		.thumb
 269              		.thumb_func
 270              		.fpu fpv4-sp-d16
 272              	HAL_DACEx_ConvCpltCallbackCh2:
 273              	.LVL21:
 274              	.LFB130:
 259:./Libraries/STM32F4xx_HAL_Driver/Src/stm32f4xx_hal_dac_ex.c **** 
 260:./Libraries/STM32F4xx_HAL_Driver/Src/stm32f4xx_hal_dac_ex.c **** /**
 261:./Libraries/STM32F4xx_HAL_Driver/Src/stm32f4xx_hal_dac_ex.c ****   * @}
 262:./Libraries/STM32F4xx_HAL_Driver/Src/stm32f4xx_hal_dac_ex.c ****   */
 263:./Libraries/STM32F4xx_HAL_Driver/Src/stm32f4xx_hal_dac_ex.c **** 
 264:./Libraries/STM32F4xx_HAL_Driver/Src/stm32f4xx_hal_dac_ex.c **** /**
 265:./Libraries/STM32F4xx_HAL_Driver/Src/stm32f4xx_hal_dac_ex.c ****   * @brief  Conversion complete callback in non blocking mode for Channel2 
 266:./Libraries/STM32F4xx_HAL_Driver/Src/stm32f4xx_hal_dac_ex.c ****   * @param  hdac pointer to a DAC_HandleTypeDef structure that contains
 267:./Libraries/STM32F4xx_HAL_Driver/Src/stm32f4xx_hal_dac_ex.c ****   *         the configuration information for the specified DAC.
 268:./Libraries/STM32F4xx_HAL_Driver/Src/stm32f4xx_hal_dac_ex.c ****   * @retval None
 269:./Libraries/STM32F4xx_HAL_Driver/Src/stm32f4xx_hal_dac_ex.c ****   */
 270:./Libraries/STM32F4xx_HAL_Driver/Src/stm32f4xx_hal_dac_ex.c **** __weak void HAL_DACEx_ConvCpltCallbackCh2(DAC_HandleTypeDef* hdac)
 271:./Libraries/STM32F4xx_HAL_Driver/Src/stm32f4xx_hal_dac_ex.c **** {
 275              		.loc 1 271 1 is_stmt 1 view -0
 276              		.cfi_startproc
 277              		@ args = 0, pretend = 0, frame = 0
 278              		@ frame_needed = 0, uses_anonymous_args = 0
 279              		@ link register save eliminated.
 272:./Libraries/STM32F4xx_HAL_Driver/Src/stm32f4xx_hal_dac_ex.c ****   /* Prevent unused argument(s) compilation warning */
 273:./Libraries/STM32F4xx_HAL_Driver/Src/stm32f4xx_hal_dac_ex.c ****   UNUSED(hdac);
 280              		.loc 1 273 3 view .LVU76
 274:./Libraries/STM32F4xx_HAL_Driver/Src/stm32f4xx_hal_dac_ex.c ****   /* NOTE : This function Should not be modified, when the callback is needed,
 275:./Libraries/STM32F4xx_HAL_Driver/Src/stm32f4xx_hal_dac_ex.c ****             the HAL_DAC_ConvCpltCallback could be implemented in the user file
 276:./Libraries/STM32F4xx_HAL_Driver/Src/stm32f4xx_hal_dac_ex.c ****    */
 277:./Libraries/STM32F4xx_HAL_Driver/Src/stm32f4xx_hal_dac_ex.c **** }
 281              		.loc 1 277 1 is_stmt 0 view .LVU77
 282 0000 7047     		bx	lr
 283              		.cfi_endproc
 284              	.LFE130:
 286              		.section	.text.HAL_DACEx_ConvHalfCpltCallbackCh2,"ax",%progbits
 287              		.align	1
 288              		.weak	HAL_DACEx_ConvHalfCpltCallbackCh2
 289              		.syntax unified
 290              		.thumb
 291              		.thumb_func
 292              		.fpu fpv4-sp-d16
 294              	HAL_DACEx_ConvHalfCpltCallbackCh2:
 295              	.LVL22:
 296              	.LFB131:
 278:./Libraries/STM32F4xx_HAL_Driver/Src/stm32f4xx_hal_dac_ex.c **** 
ARM GAS  /tmp/ccWA8y1M.s 			page 11


 279:./Libraries/STM32F4xx_HAL_Driver/Src/stm32f4xx_hal_dac_ex.c **** /**
 280:./Libraries/STM32F4xx_HAL_Driver/Src/stm32f4xx_hal_dac_ex.c ****   * @brief  Conversion half DMA transfer callback in non blocking mode for Channel2 
 281:./Libraries/STM32F4xx_HAL_Driver/Src/stm32f4xx_hal_dac_ex.c ****   * @param  hdac pointer to a DAC_HandleTypeDef structure that contains
 282:./Libraries/STM32F4xx_HAL_Driver/Src/stm32f4xx_hal_dac_ex.c ****   *         the configuration information for the specified DAC.
 283:./Libraries/STM32F4xx_HAL_Driver/Src/stm32f4xx_hal_dac_ex.c ****   * @retval None
 284:./Libraries/STM32F4xx_HAL_Driver/Src/stm32f4xx_hal_dac_ex.c ****   */
 285:./Libraries/STM32F4xx_HAL_Driver/Src/stm32f4xx_hal_dac_ex.c **** __weak void HAL_DACEx_ConvHalfCpltCallbackCh2(DAC_HandleTypeDef* hdac)
 286:./Libraries/STM32F4xx_HAL_Driver/Src/stm32f4xx_hal_dac_ex.c **** {
 297              		.loc 1 286 1 is_stmt 1 view -0
 298              		.cfi_startproc
 299              		@ args = 0, pretend = 0, frame = 0
 300              		@ frame_needed = 0, uses_anonymous_args = 0
 301              		@ link register save eliminated.
 287:./Libraries/STM32F4xx_HAL_Driver/Src/stm32f4xx_hal_dac_ex.c ****   /* Prevent unused argument(s) compilation warning */
 288:./Libraries/STM32F4xx_HAL_Driver/Src/stm32f4xx_hal_dac_ex.c ****   UNUSED(hdac);
 302              		.loc 1 288 3 view .LVU79
 289:./Libraries/STM32F4xx_HAL_Driver/Src/stm32f4xx_hal_dac_ex.c ****   /* NOTE : This function Should not be modified, when the callback is needed,
 290:./Libraries/STM32F4xx_HAL_Driver/Src/stm32f4xx_hal_dac_ex.c ****             the HAL_DAC_ConvHalfCpltCallbackCh2 could be implemented in the user file
 291:./Libraries/STM32F4xx_HAL_Driver/Src/stm32f4xx_hal_dac_ex.c ****    */
 292:./Libraries/STM32F4xx_HAL_Driver/Src/stm32f4xx_hal_dac_ex.c **** }
 303              		.loc 1 292 1 is_stmt 0 view .LVU80
 304 0000 7047     		bx	lr
 305              		.cfi_endproc
 306              	.LFE131:
 308              		.section	.text.HAL_DACEx_ErrorCallbackCh2,"ax",%progbits
 309              		.align	1
 310              		.weak	HAL_DACEx_ErrorCallbackCh2
 311              		.syntax unified
 312              		.thumb
 313              		.thumb_func
 314              		.fpu fpv4-sp-d16
 316              	HAL_DACEx_ErrorCallbackCh2:
 317              	.LVL23:
 318              	.LFB132:
 293:./Libraries/STM32F4xx_HAL_Driver/Src/stm32f4xx_hal_dac_ex.c **** 
 294:./Libraries/STM32F4xx_HAL_Driver/Src/stm32f4xx_hal_dac_ex.c **** /**
 295:./Libraries/STM32F4xx_HAL_Driver/Src/stm32f4xx_hal_dac_ex.c ****   * @brief  Error DAC callback for Channel2.
 296:./Libraries/STM32F4xx_HAL_Driver/Src/stm32f4xx_hal_dac_ex.c ****   * @param  hdac pointer to a DAC_HandleTypeDef structure that contains
 297:./Libraries/STM32F4xx_HAL_Driver/Src/stm32f4xx_hal_dac_ex.c ****   *         the configuration information for the specified DAC.
 298:./Libraries/STM32F4xx_HAL_Driver/Src/stm32f4xx_hal_dac_ex.c ****   * @retval None
 299:./Libraries/STM32F4xx_HAL_Driver/Src/stm32f4xx_hal_dac_ex.c ****   */
 300:./Libraries/STM32F4xx_HAL_Driver/Src/stm32f4xx_hal_dac_ex.c **** __weak void HAL_DACEx_ErrorCallbackCh2(DAC_HandleTypeDef *hdac)
 301:./Libraries/STM32F4xx_HAL_Driver/Src/stm32f4xx_hal_dac_ex.c **** {
 319              		.loc 1 301 1 is_stmt 1 view -0
 320              		.cfi_startproc
 321              		@ args = 0, pretend = 0, frame = 0
 322              		@ frame_needed = 0, uses_anonymous_args = 0
 323              		@ link register save eliminated.
 302:./Libraries/STM32F4xx_HAL_Driver/Src/stm32f4xx_hal_dac_ex.c ****   /* Prevent unused argument(s) compilation warning */
 303:./Libraries/STM32F4xx_HAL_Driver/Src/stm32f4xx_hal_dac_ex.c ****   UNUSED(hdac);
 324              		.loc 1 303 3 view .LVU82
 304:./Libraries/STM32F4xx_HAL_Driver/Src/stm32f4xx_hal_dac_ex.c ****   /* NOTE : This function Should not be modified, when the callback is needed,
 305:./Libraries/STM32F4xx_HAL_Driver/Src/stm32f4xx_hal_dac_ex.c ****             the HAL_DAC_ErrorCallback could be implemented in the user file
 306:./Libraries/STM32F4xx_HAL_Driver/Src/stm32f4xx_hal_dac_ex.c ****    */
 307:./Libraries/STM32F4xx_HAL_Driver/Src/stm32f4xx_hal_dac_ex.c **** }
 325              		.loc 1 307 1 is_stmt 0 view .LVU83
 326 0000 7047     		bx	lr
ARM GAS  /tmp/ccWA8y1M.s 			page 12


 327              		.cfi_endproc
 328              	.LFE132:
 330              		.section	.text.HAL_DACEx_DMAUnderrunCallbackCh2,"ax",%progbits
 331              		.align	1
 332              		.weak	HAL_DACEx_DMAUnderrunCallbackCh2
 333              		.syntax unified
 334              		.thumb
 335              		.thumb_func
 336              		.fpu fpv4-sp-d16
 338              	HAL_DACEx_DMAUnderrunCallbackCh2:
 339              	.LVL24:
 340              	.LFB133:
 308:./Libraries/STM32F4xx_HAL_Driver/Src/stm32f4xx_hal_dac_ex.c **** 
 309:./Libraries/STM32F4xx_HAL_Driver/Src/stm32f4xx_hal_dac_ex.c **** /**
 310:./Libraries/STM32F4xx_HAL_Driver/Src/stm32f4xx_hal_dac_ex.c ****   * @brief  DMA underrun DAC callback for channel2.
 311:./Libraries/STM32F4xx_HAL_Driver/Src/stm32f4xx_hal_dac_ex.c ****   * @param  hdac pointer to a DAC_HandleTypeDef structure that contains
 312:./Libraries/STM32F4xx_HAL_Driver/Src/stm32f4xx_hal_dac_ex.c ****   *         the configuration information for the specified DAC.
 313:./Libraries/STM32F4xx_HAL_Driver/Src/stm32f4xx_hal_dac_ex.c ****   * @retval None
 314:./Libraries/STM32F4xx_HAL_Driver/Src/stm32f4xx_hal_dac_ex.c ****   */
 315:./Libraries/STM32F4xx_HAL_Driver/Src/stm32f4xx_hal_dac_ex.c **** __weak void HAL_DACEx_DMAUnderrunCallbackCh2(DAC_HandleTypeDef *hdac)
 316:./Libraries/STM32F4xx_HAL_Driver/Src/stm32f4xx_hal_dac_ex.c **** {
 341              		.loc 1 316 1 is_stmt 1 view -0
 342              		.cfi_startproc
 343              		@ args = 0, pretend = 0, frame = 0
 344              		@ frame_needed = 0, uses_anonymous_args = 0
 345              		@ link register save eliminated.
 317:./Libraries/STM32F4xx_HAL_Driver/Src/stm32f4xx_hal_dac_ex.c ****   /* Prevent unused argument(s) compilation warning */
 318:./Libraries/STM32F4xx_HAL_Driver/Src/stm32f4xx_hal_dac_ex.c ****   UNUSED(hdac);
 346              		.loc 1 318 3 view .LVU85
 319:./Libraries/STM32F4xx_HAL_Driver/Src/stm32f4xx_hal_dac_ex.c ****   /* NOTE : This function Should not be modified, when the callback is needed,
 320:./Libraries/STM32F4xx_HAL_Driver/Src/stm32f4xx_hal_dac_ex.c ****             the HAL_DAC_DMAUnderrunCallbackCh2 could be implemented in the user file
 321:./Libraries/STM32F4xx_HAL_Driver/Src/stm32f4xx_hal_dac_ex.c ****    */
 322:./Libraries/STM32F4xx_HAL_Driver/Src/stm32f4xx_hal_dac_ex.c **** }
 347              		.loc 1 322 1 is_stmt 0 view .LVU86
 348 0000 7047     		bx	lr
 349              		.cfi_endproc
 350              	.LFE133:
 352              		.section	.text.DAC_DMAConvCpltCh2,"ax",%progbits
 353              		.align	1
 354              		.global	DAC_DMAConvCpltCh2
 355              		.syntax unified
 356              		.thumb
 357              		.thumb_func
 358              		.fpu fpv4-sp-d16
 360              	DAC_DMAConvCpltCh2:
 361              	.LVL25:
 362              	.LFB134:
 323:./Libraries/STM32F4xx_HAL_Driver/Src/stm32f4xx_hal_dac_ex.c **** 
 324:./Libraries/STM32F4xx_HAL_Driver/Src/stm32f4xx_hal_dac_ex.c **** /**
 325:./Libraries/STM32F4xx_HAL_Driver/Src/stm32f4xx_hal_dac_ex.c ****   * @brief  DMA conversion complete callback. 
 326:./Libraries/STM32F4xx_HAL_Driver/Src/stm32f4xx_hal_dac_ex.c ****   * @param  hdma pointer to a DMA_HandleTypeDef structure that contains
 327:./Libraries/STM32F4xx_HAL_Driver/Src/stm32f4xx_hal_dac_ex.c ****   *                the configuration information for the specified DMA module.
 328:./Libraries/STM32F4xx_HAL_Driver/Src/stm32f4xx_hal_dac_ex.c ****   * @retval None
 329:./Libraries/STM32F4xx_HAL_Driver/Src/stm32f4xx_hal_dac_ex.c ****   */
 330:./Libraries/STM32F4xx_HAL_Driver/Src/stm32f4xx_hal_dac_ex.c **** void DAC_DMAConvCpltCh2(DMA_HandleTypeDef *hdma)   
 331:./Libraries/STM32F4xx_HAL_Driver/Src/stm32f4xx_hal_dac_ex.c **** {
 363              		.loc 1 331 1 is_stmt 1 view -0
ARM GAS  /tmp/ccWA8y1M.s 			page 13


 364              		.cfi_startproc
 365              		@ args = 0, pretend = 0, frame = 0
 366              		@ frame_needed = 0, uses_anonymous_args = 0
 367              		.loc 1 331 1 is_stmt 0 view .LVU88
 368 0000 10B5     		push	{r4, lr}
 369              	.LCFI4:
 370              		.cfi_def_cfa_offset 8
 371              		.cfi_offset 4, -8
 372              		.cfi_offset 14, -4
 332:./Libraries/STM32F4xx_HAL_Driver/Src/stm32f4xx_hal_dac_ex.c ****   DAC_HandleTypeDef* hdac = ( DAC_HandleTypeDef* )((DMA_HandleTypeDef* )hdma)->Parent;
 373              		.loc 1 332 3 is_stmt 1 view .LVU89
 374              		.loc 1 332 22 is_stmt 0 view .LVU90
 375 0002 846B     		ldr	r4, [r0, #56]
 376              	.LVL26:
 333:./Libraries/STM32F4xx_HAL_Driver/Src/stm32f4xx_hal_dac_ex.c ****   
 334:./Libraries/STM32F4xx_HAL_Driver/Src/stm32f4xx_hal_dac_ex.c ****   HAL_DACEx_ConvCpltCallbackCh2(hdac); 
 377              		.loc 1 334 3 is_stmt 1 view .LVU91
 378 0004 2046     		mov	r0, r4
 379              	.LVL27:
 380              		.loc 1 334 3 is_stmt 0 view .LVU92
 381 0006 FFF7FEFF 		bl	HAL_DACEx_ConvCpltCallbackCh2
 382              	.LVL28:
 335:./Libraries/STM32F4xx_HAL_Driver/Src/stm32f4xx_hal_dac_ex.c ****   
 336:./Libraries/STM32F4xx_HAL_Driver/Src/stm32f4xx_hal_dac_ex.c ****   hdac->State= HAL_DAC_STATE_READY;
 383              		.loc 1 336 3 is_stmt 1 view .LVU93
 384              		.loc 1 336 14 is_stmt 0 view .LVU94
 385 000a 0123     		movs	r3, #1
 386 000c 2371     		strb	r3, [r4, #4]
 337:./Libraries/STM32F4xx_HAL_Driver/Src/stm32f4xx_hal_dac_ex.c **** }
 387              		.loc 1 337 1 view .LVU95
 388 000e 10BD     		pop	{r4, pc}
 389              		.loc 1 337 1 view .LVU96
 390              		.cfi_endproc
 391              	.LFE134:
 393              		.section	.text.DAC_DMAHalfConvCpltCh2,"ax",%progbits
 394              		.align	1
 395              		.global	DAC_DMAHalfConvCpltCh2
 396              		.syntax unified
 397              		.thumb
 398              		.thumb_func
 399              		.fpu fpv4-sp-d16
 401              	DAC_DMAHalfConvCpltCh2:
 402              	.LVL29:
 403              	.LFB135:
 338:./Libraries/STM32F4xx_HAL_Driver/Src/stm32f4xx_hal_dac_ex.c **** 
 339:./Libraries/STM32F4xx_HAL_Driver/Src/stm32f4xx_hal_dac_ex.c **** /**
 340:./Libraries/STM32F4xx_HAL_Driver/Src/stm32f4xx_hal_dac_ex.c ****   * @brief  DMA half transfer complete callback. 
 341:./Libraries/STM32F4xx_HAL_Driver/Src/stm32f4xx_hal_dac_ex.c ****   * @param  hdma pointer to a DMA_HandleTypeDef structure that contains
 342:./Libraries/STM32F4xx_HAL_Driver/Src/stm32f4xx_hal_dac_ex.c ****   *                the configuration information for the specified DMA module.
 343:./Libraries/STM32F4xx_HAL_Driver/Src/stm32f4xx_hal_dac_ex.c ****   * @retval None
 344:./Libraries/STM32F4xx_HAL_Driver/Src/stm32f4xx_hal_dac_ex.c ****   */
 345:./Libraries/STM32F4xx_HAL_Driver/Src/stm32f4xx_hal_dac_ex.c **** void DAC_DMAHalfConvCpltCh2(DMA_HandleTypeDef *hdma)   
 346:./Libraries/STM32F4xx_HAL_Driver/Src/stm32f4xx_hal_dac_ex.c **** {
 404              		.loc 1 346 1 is_stmt 1 view -0
 405              		.cfi_startproc
 406              		@ args = 0, pretend = 0, frame = 0
 407              		@ frame_needed = 0, uses_anonymous_args = 0
ARM GAS  /tmp/ccWA8y1M.s 			page 14


 408              		.loc 1 346 1 is_stmt 0 view .LVU98
 409 0000 08B5     		push	{r3, lr}
 410              	.LCFI5:
 411              		.cfi_def_cfa_offset 8
 412              		.cfi_offset 3, -8
 413              		.cfi_offset 14, -4
 347:./Libraries/STM32F4xx_HAL_Driver/Src/stm32f4xx_hal_dac_ex.c ****     DAC_HandleTypeDef* hdac = ( DAC_HandleTypeDef* )((DMA_HandleTypeDef* )hdma)->Parent;
 414              		.loc 1 347 5 is_stmt 1 view .LVU99
 415              	.LVL30:
 348:./Libraries/STM32F4xx_HAL_Driver/Src/stm32f4xx_hal_dac_ex.c ****     /* Conversion complete callback */
 349:./Libraries/STM32F4xx_HAL_Driver/Src/stm32f4xx_hal_dac_ex.c ****     HAL_DACEx_ConvHalfCpltCallbackCh2(hdac); 
 416              		.loc 1 349 5 view .LVU100
 417 0002 806B     		ldr	r0, [r0, #56]
 418              	.LVL31:
 419              		.loc 1 349 5 is_stmt 0 view .LVU101
 420 0004 FFF7FEFF 		bl	HAL_DACEx_ConvHalfCpltCallbackCh2
 421              	.LVL32:
 350:./Libraries/STM32F4xx_HAL_Driver/Src/stm32f4xx_hal_dac_ex.c **** }
 422              		.loc 1 350 1 view .LVU102
 423 0008 08BD     		pop	{r3, pc}
 424              		.cfi_endproc
 425              	.LFE135:
 427              		.section	.text.DAC_DMAErrorCh2,"ax",%progbits
 428              		.align	1
 429              		.global	DAC_DMAErrorCh2
 430              		.syntax unified
 431              		.thumb
 432              		.thumb_func
 433              		.fpu fpv4-sp-d16
 435              	DAC_DMAErrorCh2:
 436              	.LVL33:
 437              	.LFB136:
 351:./Libraries/STM32F4xx_HAL_Driver/Src/stm32f4xx_hal_dac_ex.c **** 
 352:./Libraries/STM32F4xx_HAL_Driver/Src/stm32f4xx_hal_dac_ex.c **** /**
 353:./Libraries/STM32F4xx_HAL_Driver/Src/stm32f4xx_hal_dac_ex.c ****   * @brief  DMA error callback 
 354:./Libraries/STM32F4xx_HAL_Driver/Src/stm32f4xx_hal_dac_ex.c ****   * @param  hdma pointer to a DMA_HandleTypeDef structure that contains
 355:./Libraries/STM32F4xx_HAL_Driver/Src/stm32f4xx_hal_dac_ex.c ****   *                the configuration information for the specified DMA module.
 356:./Libraries/STM32F4xx_HAL_Driver/Src/stm32f4xx_hal_dac_ex.c ****   * @retval None
 357:./Libraries/STM32F4xx_HAL_Driver/Src/stm32f4xx_hal_dac_ex.c ****   */
 358:./Libraries/STM32F4xx_HAL_Driver/Src/stm32f4xx_hal_dac_ex.c **** void DAC_DMAErrorCh2(DMA_HandleTypeDef *hdma)   
 359:./Libraries/STM32F4xx_HAL_Driver/Src/stm32f4xx_hal_dac_ex.c **** {
 438              		.loc 1 359 1 is_stmt 1 view -0
 439              		.cfi_startproc
 440              		@ args = 0, pretend = 0, frame = 0
 441              		@ frame_needed = 0, uses_anonymous_args = 0
 442              		.loc 1 359 1 is_stmt 0 view .LVU104
 443 0000 10B5     		push	{r4, lr}
 444              	.LCFI6:
 445              		.cfi_def_cfa_offset 8
 446              		.cfi_offset 4, -8
 447              		.cfi_offset 14, -4
 360:./Libraries/STM32F4xx_HAL_Driver/Src/stm32f4xx_hal_dac_ex.c ****   DAC_HandleTypeDef* hdac = ( DAC_HandleTypeDef* )((DMA_HandleTypeDef* )hdma)->Parent;
 448              		.loc 1 360 3 is_stmt 1 view .LVU105
 449              		.loc 1 360 22 is_stmt 0 view .LVU106
 450 0002 846B     		ldr	r4, [r0, #56]
 451              	.LVL34:
 361:./Libraries/STM32F4xx_HAL_Driver/Src/stm32f4xx_hal_dac_ex.c ****     
ARM GAS  /tmp/ccWA8y1M.s 			page 15


 362:./Libraries/STM32F4xx_HAL_Driver/Src/stm32f4xx_hal_dac_ex.c ****   /* Set DAC error code to DMA error */
 363:./Libraries/STM32F4xx_HAL_Driver/Src/stm32f4xx_hal_dac_ex.c ****   hdac->ErrorCode |= HAL_DAC_ERROR_DMA;
 452              		.loc 1 363 3 is_stmt 1 view .LVU107
 453              		.loc 1 363 19 is_stmt 0 view .LVU108
 454 0004 2369     		ldr	r3, [r4, #16]
 455 0006 43F00403 		orr	r3, r3, #4
 456 000a 2361     		str	r3, [r4, #16]
 364:./Libraries/STM32F4xx_HAL_Driver/Src/stm32f4xx_hal_dac_ex.c ****     
 365:./Libraries/STM32F4xx_HAL_Driver/Src/stm32f4xx_hal_dac_ex.c ****   HAL_DACEx_ErrorCallbackCh2(hdac); 
 457              		.loc 1 365 3 is_stmt 1 view .LVU109
 458 000c 2046     		mov	r0, r4
 459              	.LVL35:
 460              		.loc 1 365 3 is_stmt 0 view .LVU110
 461 000e FFF7FEFF 		bl	HAL_DACEx_ErrorCallbackCh2
 462              	.LVL36:
 366:./Libraries/STM32F4xx_HAL_Driver/Src/stm32f4xx_hal_dac_ex.c ****     
 367:./Libraries/STM32F4xx_HAL_Driver/Src/stm32f4xx_hal_dac_ex.c ****   hdac->State= HAL_DAC_STATE_READY;
 463              		.loc 1 367 3 is_stmt 1 view .LVU111
 464              		.loc 1 367 14 is_stmt 0 view .LVU112
 465 0012 0123     		movs	r3, #1
 466 0014 2371     		strb	r3, [r4, #4]
 368:./Libraries/STM32F4xx_HAL_Driver/Src/stm32f4xx_hal_dac_ex.c **** }
 467              		.loc 1 368 1 view .LVU113
 468 0016 10BD     		pop	{r4, pc}
 469              		.loc 1 368 1 view .LVU114
 470              		.cfi_endproc
 471              	.LFE136:
 473              		.text
 474              	.Letext0:
 475              		.file 2 "/home/hao/Documents/gcc-arm-none-eabi/arm-none-eabi/include/machine/_default_types.h"
 476              		.file 3 "/home/hao/Documents/gcc-arm-none-eabi/arm-none-eabi/include/sys/_stdint.h"
 477              		.file 4 "./Libraries/CMSIS/Device/ST/STM32F4xx/Include/stm32f429xx.h"
 478              		.file 5 "./Libraries/STM32F4xx_HAL_Driver/Inc/stm32f4xx_hal_def.h"
 479              		.file 6 "./Libraries/STM32F4xx_HAL_Driver/Inc/stm32f4xx_hal_dma.h"
 480              		.file 7 "./Libraries/STM32F4xx_HAL_Driver/Inc/stm32f4xx_hal_dac.h"
ARM GAS  /tmp/ccWA8y1M.s 			page 16

