ARM GAS  /tmp/ccuOvNEu.s 			page 1


   1              		.cpu cortex-m4
   2              		.eabi_attribute 27, 1
   3              		.eabi_attribute 28, 1
   4              		.eabi_attribute 20, 1
   5              		.eabi_attribute 21, 1
   6              		.eabi_attribute 23, 3
   7              		.eabi_attribute 24, 1
   8              		.eabi_attribute 25, 1
   9              		.eabi_attribute 26, 1
  10              		.eabi_attribute 30, 1
  11              		.eabi_attribute 34, 1
  12              		.eabi_attribute 18, 4
  13              		.file	"stm32f4xx_hal_flash_ex.c"
  14              		.text
  15              	.Ltext0:
  16              		.cfi_sections	.debug_frame
  17              		.section	.text.FLASH_MassErase,"ax",%progbits
  18              		.align	1
  19              		.arch armv7e-m
  20              		.syntax unified
  21              		.thumb
  22              		.thumb_func
  23              		.fpu fpv4-sp-d16
  25              	FLASH_MassErase:
  26              	.LVL0:
  27              	.LFB135:
  28              		.file 1 "./Libraries/STM32F4xx_HAL_Driver/Src/stm32f4xx_hal_flash_ex.c"
   1:./Libraries/STM32F4xx_HAL_Driver/Src/stm32f4xx_hal_flash_ex.c **** /**
   2:./Libraries/STM32F4xx_HAL_Driver/Src/stm32f4xx_hal_flash_ex.c ****   ******************************************************************************
   3:./Libraries/STM32F4xx_HAL_Driver/Src/stm32f4xx_hal_flash_ex.c ****   * @file    stm32f4xx_hal_flash_ex.c
   4:./Libraries/STM32F4xx_HAL_Driver/Src/stm32f4xx_hal_flash_ex.c ****   * @author  MCD Application Team
   5:./Libraries/STM32F4xx_HAL_Driver/Src/stm32f4xx_hal_flash_ex.c ****   * @brief   Extended FLASH HAL module driver.
   6:./Libraries/STM32F4xx_HAL_Driver/Src/stm32f4xx_hal_flash_ex.c ****   *          This file provides firmware functions to manage the following 
   7:./Libraries/STM32F4xx_HAL_Driver/Src/stm32f4xx_hal_flash_ex.c ****   *          functionalities of the FLASH extension peripheral:
   8:./Libraries/STM32F4xx_HAL_Driver/Src/stm32f4xx_hal_flash_ex.c ****   *           + Extended programming operations functions
   9:./Libraries/STM32F4xx_HAL_Driver/Src/stm32f4xx_hal_flash_ex.c ****   *  
  10:./Libraries/STM32F4xx_HAL_Driver/Src/stm32f4xx_hal_flash_ex.c ****   @verbatim
  11:./Libraries/STM32F4xx_HAL_Driver/Src/stm32f4xx_hal_flash_ex.c ****   ==============================================================================
  12:./Libraries/STM32F4xx_HAL_Driver/Src/stm32f4xx_hal_flash_ex.c ****                    ##### Flash Extension features #####
  13:./Libraries/STM32F4xx_HAL_Driver/Src/stm32f4xx_hal_flash_ex.c ****   ==============================================================================
  14:./Libraries/STM32F4xx_HAL_Driver/Src/stm32f4xx_hal_flash_ex.c ****            
  15:./Libraries/STM32F4xx_HAL_Driver/Src/stm32f4xx_hal_flash_ex.c ****   [..] Comparing to other previous devices, the FLASH interface for STM32F427xx/437xx and 
  16:./Libraries/STM32F4xx_HAL_Driver/Src/stm32f4xx_hal_flash_ex.c ****        STM32F429xx/439xx devices contains the following additional features 
  17:./Libraries/STM32F4xx_HAL_Driver/Src/stm32f4xx_hal_flash_ex.c ****        
  18:./Libraries/STM32F4xx_HAL_Driver/Src/stm32f4xx_hal_flash_ex.c ****        (+) Capacity up to 2 Mbyte with dual bank architecture supporting read-while-write
  19:./Libraries/STM32F4xx_HAL_Driver/Src/stm32f4xx_hal_flash_ex.c ****            capability (RWW)
  20:./Libraries/STM32F4xx_HAL_Driver/Src/stm32f4xx_hal_flash_ex.c ****        (+) Dual bank memory organization       
  21:./Libraries/STM32F4xx_HAL_Driver/Src/stm32f4xx_hal_flash_ex.c ****        (+) PCROP protection for all banks
  22:./Libraries/STM32F4xx_HAL_Driver/Src/stm32f4xx_hal_flash_ex.c ****    
  23:./Libraries/STM32F4xx_HAL_Driver/Src/stm32f4xx_hal_flash_ex.c ****                       ##### How to use this driver #####
  24:./Libraries/STM32F4xx_HAL_Driver/Src/stm32f4xx_hal_flash_ex.c ****   ==============================================================================
  25:./Libraries/STM32F4xx_HAL_Driver/Src/stm32f4xx_hal_flash_ex.c ****   [..] This driver provides functions to configure and program the FLASH memory 
  26:./Libraries/STM32F4xx_HAL_Driver/Src/stm32f4xx_hal_flash_ex.c ****        of all STM32F427xx/437xx, STM32F429xx/439xx, STM32F469xx/479xx and STM32F446xx 
  27:./Libraries/STM32F4xx_HAL_Driver/Src/stm32f4xx_hal_flash_ex.c ****        devices. It includes
  28:./Libraries/STM32F4xx_HAL_Driver/Src/stm32f4xx_hal_flash_ex.c ****       (#) FLASH Memory Erase functions: 
  29:./Libraries/STM32F4xx_HAL_Driver/Src/stm32f4xx_hal_flash_ex.c ****            (++) Lock and Unlock the FLASH interface using HAL_FLASH_Unlock() and 
  30:./Libraries/STM32F4xx_HAL_Driver/Src/stm32f4xx_hal_flash_ex.c ****                 HAL_FLASH_Lock() functions
ARM GAS  /tmp/ccuOvNEu.s 			page 2


  31:./Libraries/STM32F4xx_HAL_Driver/Src/stm32f4xx_hal_flash_ex.c ****            (++) Erase function: Erase sector, erase all sectors
  32:./Libraries/STM32F4xx_HAL_Driver/Src/stm32f4xx_hal_flash_ex.c ****            (++) There are two modes of erase :
  33:./Libraries/STM32F4xx_HAL_Driver/Src/stm32f4xx_hal_flash_ex.c ****              (+++) Polling Mode using HAL_FLASHEx_Erase()
  34:./Libraries/STM32F4xx_HAL_Driver/Src/stm32f4xx_hal_flash_ex.c ****              (+++) Interrupt Mode using HAL_FLASHEx_Erase_IT()
  35:./Libraries/STM32F4xx_HAL_Driver/Src/stm32f4xx_hal_flash_ex.c ****              
  36:./Libraries/STM32F4xx_HAL_Driver/Src/stm32f4xx_hal_flash_ex.c ****       (#) Option Bytes Programming functions: Use HAL_FLASHEx_OBProgram() to :
  37:./Libraries/STM32F4xx_HAL_Driver/Src/stm32f4xx_hal_flash_ex.c ****            (++) Set/Reset the write protection
  38:./Libraries/STM32F4xx_HAL_Driver/Src/stm32f4xx_hal_flash_ex.c ****            (++) Set the Read protection Level
  39:./Libraries/STM32F4xx_HAL_Driver/Src/stm32f4xx_hal_flash_ex.c ****            (++) Set the BOR level
  40:./Libraries/STM32F4xx_HAL_Driver/Src/stm32f4xx_hal_flash_ex.c ****            (++) Program the user Option Bytes
  41:./Libraries/STM32F4xx_HAL_Driver/Src/stm32f4xx_hal_flash_ex.c ****       (#) Advanced Option Bytes Programming functions: Use HAL_FLASHEx_AdvOBProgram() to :  
  42:./Libraries/STM32F4xx_HAL_Driver/Src/stm32f4xx_hal_flash_ex.c ****        (++) Extended space (bank 2) erase function
  43:./Libraries/STM32F4xx_HAL_Driver/Src/stm32f4xx_hal_flash_ex.c ****        (++) Full FLASH space (2 Mo) erase (bank 1 and bank 2)
  44:./Libraries/STM32F4xx_HAL_Driver/Src/stm32f4xx_hal_flash_ex.c ****        (++) Dual Boot activation
  45:./Libraries/STM32F4xx_HAL_Driver/Src/stm32f4xx_hal_flash_ex.c ****        (++) Write protection configuration for bank 2
  46:./Libraries/STM32F4xx_HAL_Driver/Src/stm32f4xx_hal_flash_ex.c ****        (++) PCROP protection configuration and control for both banks
  47:./Libraries/STM32F4xx_HAL_Driver/Src/stm32f4xx_hal_flash_ex.c ****   
  48:./Libraries/STM32F4xx_HAL_Driver/Src/stm32f4xx_hal_flash_ex.c ****   @endverbatim
  49:./Libraries/STM32F4xx_HAL_Driver/Src/stm32f4xx_hal_flash_ex.c ****   ******************************************************************************
  50:./Libraries/STM32F4xx_HAL_Driver/Src/stm32f4xx_hal_flash_ex.c ****   * @attention
  51:./Libraries/STM32F4xx_HAL_Driver/Src/stm32f4xx_hal_flash_ex.c ****   *
  52:./Libraries/STM32F4xx_HAL_Driver/Src/stm32f4xx_hal_flash_ex.c ****   * <h2><center>&copy; COPYRIGHT(c) 2017 STMicroelectronics</center></h2>
  53:./Libraries/STM32F4xx_HAL_Driver/Src/stm32f4xx_hal_flash_ex.c ****   *
  54:./Libraries/STM32F4xx_HAL_Driver/Src/stm32f4xx_hal_flash_ex.c ****   * Redistribution and use in source and binary forms, with or without modification,
  55:./Libraries/STM32F4xx_HAL_Driver/Src/stm32f4xx_hal_flash_ex.c ****   * are permitted provided that the following conditions are met:
  56:./Libraries/STM32F4xx_HAL_Driver/Src/stm32f4xx_hal_flash_ex.c ****   *   1. Redistributions of source code must retain the above copyright notice,
  57:./Libraries/STM32F4xx_HAL_Driver/Src/stm32f4xx_hal_flash_ex.c ****   *      this list of conditions and the following disclaimer.
  58:./Libraries/STM32F4xx_HAL_Driver/Src/stm32f4xx_hal_flash_ex.c ****   *   2. Redistributions in binary form must reproduce the above copyright notice,
  59:./Libraries/STM32F4xx_HAL_Driver/Src/stm32f4xx_hal_flash_ex.c ****   *      this list of conditions and the following disclaimer in the documentation
  60:./Libraries/STM32F4xx_HAL_Driver/Src/stm32f4xx_hal_flash_ex.c ****   *      and/or other materials provided with the distribution.
  61:./Libraries/STM32F4xx_HAL_Driver/Src/stm32f4xx_hal_flash_ex.c ****   *   3. Neither the name of STMicroelectronics nor the names of its contributors
  62:./Libraries/STM32F4xx_HAL_Driver/Src/stm32f4xx_hal_flash_ex.c ****   *      may be used to endorse or promote products derived from this software
  63:./Libraries/STM32F4xx_HAL_Driver/Src/stm32f4xx_hal_flash_ex.c ****   *      without specific prior written permission.
  64:./Libraries/STM32F4xx_HAL_Driver/Src/stm32f4xx_hal_flash_ex.c ****   *
  65:./Libraries/STM32F4xx_HAL_Driver/Src/stm32f4xx_hal_flash_ex.c ****   * THIS SOFTWARE IS PROVIDED BY THE COPYRIGHT HOLDERS AND CONTRIBUTORS "AS IS"
  66:./Libraries/STM32F4xx_HAL_Driver/Src/stm32f4xx_hal_flash_ex.c ****   * AND ANY EXPRESS OR IMPLIED WARRANTIES, INCLUDING, BUT NOT LIMITED TO, THE
  67:./Libraries/STM32F4xx_HAL_Driver/Src/stm32f4xx_hal_flash_ex.c ****   * IMPLIED WARRANTIES OF MERCHANTABILITY AND FITNESS FOR A PARTICULAR PURPOSE ARE
  68:./Libraries/STM32F4xx_HAL_Driver/Src/stm32f4xx_hal_flash_ex.c ****   * DISCLAIMED. IN NO EVENT SHALL THE COPYRIGHT HOLDER OR CONTRIBUTORS BE LIABLE
  69:./Libraries/STM32F4xx_HAL_Driver/Src/stm32f4xx_hal_flash_ex.c ****   * FOR ANY DIRECT, INDIRECT, INCIDENTAL, SPECIAL, EXEMPLARY, OR CONSEQUENTIAL
  70:./Libraries/STM32F4xx_HAL_Driver/Src/stm32f4xx_hal_flash_ex.c ****   * DAMAGES (INCLUDING, BUT NOT LIMITED TO, PROCUREMENT OF SUBSTITUTE GOODS OR
  71:./Libraries/STM32F4xx_HAL_Driver/Src/stm32f4xx_hal_flash_ex.c ****   * SERVICES; LOSS OF USE, DATA, OR PROFITS; OR BUSINESS INTERRUPTION) HOWEVER
  72:./Libraries/STM32F4xx_HAL_Driver/Src/stm32f4xx_hal_flash_ex.c ****   * CAUSED AND ON ANY THEORY OF LIABILITY, WHETHER IN CONTRACT, STRICT LIABILITY,
  73:./Libraries/STM32F4xx_HAL_Driver/Src/stm32f4xx_hal_flash_ex.c ****   * OR TORT (INCLUDING NEGLIGENCE OR OTHERWISE) ARISING IN ANY WAY OUT OF THE USE
  74:./Libraries/STM32F4xx_HAL_Driver/Src/stm32f4xx_hal_flash_ex.c ****   * OF THIS SOFTWARE, EVEN IF ADVISED OF THE POSSIBILITY OF SUCH DAMAGE.
  75:./Libraries/STM32F4xx_HAL_Driver/Src/stm32f4xx_hal_flash_ex.c ****   *
  76:./Libraries/STM32F4xx_HAL_Driver/Src/stm32f4xx_hal_flash_ex.c ****   ******************************************************************************
  77:./Libraries/STM32F4xx_HAL_Driver/Src/stm32f4xx_hal_flash_ex.c ****   */ 
  78:./Libraries/STM32F4xx_HAL_Driver/Src/stm32f4xx_hal_flash_ex.c **** 
  79:./Libraries/STM32F4xx_HAL_Driver/Src/stm32f4xx_hal_flash_ex.c **** /* Includes ------------------------------------------------------------------*/
  80:./Libraries/STM32F4xx_HAL_Driver/Src/stm32f4xx_hal_flash_ex.c **** #include "stm32f4xx_hal.h"
  81:./Libraries/STM32F4xx_HAL_Driver/Src/stm32f4xx_hal_flash_ex.c **** 
  82:./Libraries/STM32F4xx_HAL_Driver/Src/stm32f4xx_hal_flash_ex.c **** /** @addtogroup STM32F4xx_HAL_Driver
  83:./Libraries/STM32F4xx_HAL_Driver/Src/stm32f4xx_hal_flash_ex.c ****   * @{
  84:./Libraries/STM32F4xx_HAL_Driver/Src/stm32f4xx_hal_flash_ex.c ****   */
  85:./Libraries/STM32F4xx_HAL_Driver/Src/stm32f4xx_hal_flash_ex.c **** 
  86:./Libraries/STM32F4xx_HAL_Driver/Src/stm32f4xx_hal_flash_ex.c **** /** @defgroup FLASHEx FLASHEx
  87:./Libraries/STM32F4xx_HAL_Driver/Src/stm32f4xx_hal_flash_ex.c ****   * @brief FLASH HAL Extension module driver
ARM GAS  /tmp/ccuOvNEu.s 			page 3


  88:./Libraries/STM32F4xx_HAL_Driver/Src/stm32f4xx_hal_flash_ex.c ****   * @{
  89:./Libraries/STM32F4xx_HAL_Driver/Src/stm32f4xx_hal_flash_ex.c ****   */
  90:./Libraries/STM32F4xx_HAL_Driver/Src/stm32f4xx_hal_flash_ex.c **** 
  91:./Libraries/STM32F4xx_HAL_Driver/Src/stm32f4xx_hal_flash_ex.c **** #ifdef HAL_FLASH_MODULE_ENABLED
  92:./Libraries/STM32F4xx_HAL_Driver/Src/stm32f4xx_hal_flash_ex.c **** 
  93:./Libraries/STM32F4xx_HAL_Driver/Src/stm32f4xx_hal_flash_ex.c **** /* Private typedef -----------------------------------------------------------*/
  94:./Libraries/STM32F4xx_HAL_Driver/Src/stm32f4xx_hal_flash_ex.c **** /* Private define ------------------------------------------------------------*/
  95:./Libraries/STM32F4xx_HAL_Driver/Src/stm32f4xx_hal_flash_ex.c **** /** @addtogroup FLASHEx_Private_Constants
  96:./Libraries/STM32F4xx_HAL_Driver/Src/stm32f4xx_hal_flash_ex.c ****   * @{
  97:./Libraries/STM32F4xx_HAL_Driver/Src/stm32f4xx_hal_flash_ex.c ****   */    
  98:./Libraries/STM32F4xx_HAL_Driver/Src/stm32f4xx_hal_flash_ex.c **** #define FLASH_TIMEOUT_VALUE       50000U /* 50 s */
  99:./Libraries/STM32F4xx_HAL_Driver/Src/stm32f4xx_hal_flash_ex.c **** /**
 100:./Libraries/STM32F4xx_HAL_Driver/Src/stm32f4xx_hal_flash_ex.c ****   * @}
 101:./Libraries/STM32F4xx_HAL_Driver/Src/stm32f4xx_hal_flash_ex.c ****   */
 102:./Libraries/STM32F4xx_HAL_Driver/Src/stm32f4xx_hal_flash_ex.c ****     
 103:./Libraries/STM32F4xx_HAL_Driver/Src/stm32f4xx_hal_flash_ex.c **** /* Private macro -------------------------------------------------------------*/
 104:./Libraries/STM32F4xx_HAL_Driver/Src/stm32f4xx_hal_flash_ex.c **** /* Private variables ---------------------------------------------------------*/
 105:./Libraries/STM32F4xx_HAL_Driver/Src/stm32f4xx_hal_flash_ex.c **** /** @addtogroup FLASHEx_Private_Variables
 106:./Libraries/STM32F4xx_HAL_Driver/Src/stm32f4xx_hal_flash_ex.c ****   * @{
 107:./Libraries/STM32F4xx_HAL_Driver/Src/stm32f4xx_hal_flash_ex.c ****   */    
 108:./Libraries/STM32F4xx_HAL_Driver/Src/stm32f4xx_hal_flash_ex.c **** extern FLASH_ProcessTypeDef pFlash;
 109:./Libraries/STM32F4xx_HAL_Driver/Src/stm32f4xx_hal_flash_ex.c **** /**
 110:./Libraries/STM32F4xx_HAL_Driver/Src/stm32f4xx_hal_flash_ex.c ****   * @}
 111:./Libraries/STM32F4xx_HAL_Driver/Src/stm32f4xx_hal_flash_ex.c ****   */
 112:./Libraries/STM32F4xx_HAL_Driver/Src/stm32f4xx_hal_flash_ex.c **** 
 113:./Libraries/STM32F4xx_HAL_Driver/Src/stm32f4xx_hal_flash_ex.c **** /* Private function prototypes -----------------------------------------------*/
 114:./Libraries/STM32F4xx_HAL_Driver/Src/stm32f4xx_hal_flash_ex.c **** /** @addtogroup FLASHEx_Private_Functions
 115:./Libraries/STM32F4xx_HAL_Driver/Src/stm32f4xx_hal_flash_ex.c ****   * @{
 116:./Libraries/STM32F4xx_HAL_Driver/Src/stm32f4xx_hal_flash_ex.c ****   */
 117:./Libraries/STM32F4xx_HAL_Driver/Src/stm32f4xx_hal_flash_ex.c **** /* Option bytes control */
 118:./Libraries/STM32F4xx_HAL_Driver/Src/stm32f4xx_hal_flash_ex.c **** static void               FLASH_MassErase(uint8_t VoltageRange, uint32_t Banks);
 119:./Libraries/STM32F4xx_HAL_Driver/Src/stm32f4xx_hal_flash_ex.c **** static HAL_StatusTypeDef  FLASH_OB_EnableWRP(uint32_t WRPSector, uint32_t Banks);
 120:./Libraries/STM32F4xx_HAL_Driver/Src/stm32f4xx_hal_flash_ex.c **** static HAL_StatusTypeDef  FLASH_OB_DisableWRP(uint32_t WRPSector, uint32_t Banks);
 121:./Libraries/STM32F4xx_HAL_Driver/Src/stm32f4xx_hal_flash_ex.c **** static HAL_StatusTypeDef  FLASH_OB_RDP_LevelConfig(uint8_t Level);
 122:./Libraries/STM32F4xx_HAL_Driver/Src/stm32f4xx_hal_flash_ex.c **** static HAL_StatusTypeDef  FLASH_OB_UserConfig(uint8_t Iwdg, uint8_t Stop, uint8_t Stdby);
 123:./Libraries/STM32F4xx_HAL_Driver/Src/stm32f4xx_hal_flash_ex.c **** static HAL_StatusTypeDef  FLASH_OB_BOR_LevelConfig(uint8_t Level);
 124:./Libraries/STM32F4xx_HAL_Driver/Src/stm32f4xx_hal_flash_ex.c **** static uint8_t            FLASH_OB_GetUser(void);
 125:./Libraries/STM32F4xx_HAL_Driver/Src/stm32f4xx_hal_flash_ex.c **** static uint16_t           FLASH_OB_GetWRP(void);
 126:./Libraries/STM32F4xx_HAL_Driver/Src/stm32f4xx_hal_flash_ex.c **** static uint8_t            FLASH_OB_GetRDP(void);
 127:./Libraries/STM32F4xx_HAL_Driver/Src/stm32f4xx_hal_flash_ex.c **** static uint8_t            FLASH_OB_GetBOR(void);
 128:./Libraries/STM32F4xx_HAL_Driver/Src/stm32f4xx_hal_flash_ex.c **** 
 129:./Libraries/STM32F4xx_HAL_Driver/Src/stm32f4xx_hal_flash_ex.c **** #if defined(STM32F401xC) || defined(STM32F401xE) || defined(STM32F410Tx) || defined(STM32F410Cx) ||
 130:./Libraries/STM32F4xx_HAL_Driver/Src/stm32f4xx_hal_flash_ex.c ****     defined(STM32F446xx) || defined(STM32F412Zx) || defined(STM32F412Vx) || defined(STM32F412Rx) ||
 131:./Libraries/STM32F4xx_HAL_Driver/Src/stm32f4xx_hal_flash_ex.c ****     defined(STM32F423xx)
 132:./Libraries/STM32F4xx_HAL_Driver/Src/stm32f4xx_hal_flash_ex.c **** static HAL_StatusTypeDef  FLASH_OB_EnablePCROP(uint32_t Sector);
 133:./Libraries/STM32F4xx_HAL_Driver/Src/stm32f4xx_hal_flash_ex.c **** static HAL_StatusTypeDef  FLASH_OB_DisablePCROP(uint32_t Sector);
 134:./Libraries/STM32F4xx_HAL_Driver/Src/stm32f4xx_hal_flash_ex.c **** #endif /* STM32F401xC || STM32F401xE || STM32F410xx || STM32F411xE || STM32F446xx || STM32F412Zx ||
 135:./Libraries/STM32F4xx_HAL_Driver/Src/stm32f4xx_hal_flash_ex.c ****           STM32F413xx || STM32F423xx */
 136:./Libraries/STM32F4xx_HAL_Driver/Src/stm32f4xx_hal_flash_ex.c **** 
 137:./Libraries/STM32F4xx_HAL_Driver/Src/stm32f4xx_hal_flash_ex.c **** #if defined(STM32F427xx) || defined(STM32F437xx) || defined(STM32F429xx)|| defined(STM32F439xx) || 
 138:./Libraries/STM32F4xx_HAL_Driver/Src/stm32f4xx_hal_flash_ex.c **** static HAL_StatusTypeDef FLASH_OB_EnablePCROP(uint32_t SectorBank1, uint32_t SectorBank2, uint32_t 
 139:./Libraries/STM32F4xx_HAL_Driver/Src/stm32f4xx_hal_flash_ex.c **** static HAL_StatusTypeDef FLASH_OB_DisablePCROP(uint32_t SectorBank1, uint32_t SectorBank2, uint32_t
 140:./Libraries/STM32F4xx_HAL_Driver/Src/stm32f4xx_hal_flash_ex.c **** static HAL_StatusTypeDef FLASH_OB_BootConfig(uint8_t BootConfig);
 141:./Libraries/STM32F4xx_HAL_Driver/Src/stm32f4xx_hal_flash_ex.c **** #endif /* STM32F427xx || STM32F437xx || STM32F429xx || STM32F439xx || STM32F469xx || STM32F479xx */
 142:./Libraries/STM32F4xx_HAL_Driver/Src/stm32f4xx_hal_flash_ex.c **** 
 143:./Libraries/STM32F4xx_HAL_Driver/Src/stm32f4xx_hal_flash_ex.c **** extern HAL_StatusTypeDef         FLASH_WaitForLastOperation(uint32_t Timeout);
 144:./Libraries/STM32F4xx_HAL_Driver/Src/stm32f4xx_hal_flash_ex.c **** /**
ARM GAS  /tmp/ccuOvNEu.s 			page 4


 145:./Libraries/STM32F4xx_HAL_Driver/Src/stm32f4xx_hal_flash_ex.c ****   * @}
 146:./Libraries/STM32F4xx_HAL_Driver/Src/stm32f4xx_hal_flash_ex.c ****   */
 147:./Libraries/STM32F4xx_HAL_Driver/Src/stm32f4xx_hal_flash_ex.c **** 
 148:./Libraries/STM32F4xx_HAL_Driver/Src/stm32f4xx_hal_flash_ex.c **** /* Exported functions --------------------------------------------------------*/
 149:./Libraries/STM32F4xx_HAL_Driver/Src/stm32f4xx_hal_flash_ex.c **** /** @defgroup FLASHEx_Exported_Functions FLASHEx Exported Functions
 150:./Libraries/STM32F4xx_HAL_Driver/Src/stm32f4xx_hal_flash_ex.c ****   * @{
 151:./Libraries/STM32F4xx_HAL_Driver/Src/stm32f4xx_hal_flash_ex.c ****   */
 152:./Libraries/STM32F4xx_HAL_Driver/Src/stm32f4xx_hal_flash_ex.c **** 
 153:./Libraries/STM32F4xx_HAL_Driver/Src/stm32f4xx_hal_flash_ex.c **** /** @defgroup FLASHEx_Exported_Functions_Group1 Extended IO operation functions
 154:./Libraries/STM32F4xx_HAL_Driver/Src/stm32f4xx_hal_flash_ex.c ****  *  @brief   Extended IO operation functions 
 155:./Libraries/STM32F4xx_HAL_Driver/Src/stm32f4xx_hal_flash_ex.c ****  *
 156:./Libraries/STM32F4xx_HAL_Driver/Src/stm32f4xx_hal_flash_ex.c **** @verbatim   
 157:./Libraries/STM32F4xx_HAL_Driver/Src/stm32f4xx_hal_flash_ex.c ****  ===============================================================================
 158:./Libraries/STM32F4xx_HAL_Driver/Src/stm32f4xx_hal_flash_ex.c ****                 ##### Extended programming operation functions #####
 159:./Libraries/STM32F4xx_HAL_Driver/Src/stm32f4xx_hal_flash_ex.c ****  ===============================================================================  
 160:./Libraries/STM32F4xx_HAL_Driver/Src/stm32f4xx_hal_flash_ex.c ****     [..]
 161:./Libraries/STM32F4xx_HAL_Driver/Src/stm32f4xx_hal_flash_ex.c ****     This subsection provides a set of functions allowing to manage the Extension FLASH 
 162:./Libraries/STM32F4xx_HAL_Driver/Src/stm32f4xx_hal_flash_ex.c ****     programming operations.
 163:./Libraries/STM32F4xx_HAL_Driver/Src/stm32f4xx_hal_flash_ex.c **** 
 164:./Libraries/STM32F4xx_HAL_Driver/Src/stm32f4xx_hal_flash_ex.c **** @endverbatim
 165:./Libraries/STM32F4xx_HAL_Driver/Src/stm32f4xx_hal_flash_ex.c ****   * @{
 166:./Libraries/STM32F4xx_HAL_Driver/Src/stm32f4xx_hal_flash_ex.c ****   */
 167:./Libraries/STM32F4xx_HAL_Driver/Src/stm32f4xx_hal_flash_ex.c **** /**
 168:./Libraries/STM32F4xx_HAL_Driver/Src/stm32f4xx_hal_flash_ex.c ****   * @brief  Perform a mass erase or erase the specified FLASH memory sectors 
 169:./Libraries/STM32F4xx_HAL_Driver/Src/stm32f4xx_hal_flash_ex.c ****   * @param[in]  pEraseInit pointer to an FLASH_EraseInitTypeDef structure that
 170:./Libraries/STM32F4xx_HAL_Driver/Src/stm32f4xx_hal_flash_ex.c ****   *         contains the configuration information for the erasing.
 171:./Libraries/STM32F4xx_HAL_Driver/Src/stm32f4xx_hal_flash_ex.c ****   * 
 172:./Libraries/STM32F4xx_HAL_Driver/Src/stm32f4xx_hal_flash_ex.c ****   * @param[out]  SectorError pointer to variable  that
 173:./Libraries/STM32F4xx_HAL_Driver/Src/stm32f4xx_hal_flash_ex.c ****   *         contains the configuration information on faulty sector in case of error 
 174:./Libraries/STM32F4xx_HAL_Driver/Src/stm32f4xx_hal_flash_ex.c ****   *         (0xFFFFFFFFU means that all the sectors have been correctly erased)
 175:./Libraries/STM32F4xx_HAL_Driver/Src/stm32f4xx_hal_flash_ex.c ****   * 
 176:./Libraries/STM32F4xx_HAL_Driver/Src/stm32f4xx_hal_flash_ex.c ****   * @retval HAL Status
 177:./Libraries/STM32F4xx_HAL_Driver/Src/stm32f4xx_hal_flash_ex.c ****   */
 178:./Libraries/STM32F4xx_HAL_Driver/Src/stm32f4xx_hal_flash_ex.c **** HAL_StatusTypeDef HAL_FLASHEx_Erase(FLASH_EraseInitTypeDef *pEraseInit, uint32_t *SectorError)
 179:./Libraries/STM32F4xx_HAL_Driver/Src/stm32f4xx_hal_flash_ex.c **** {
 180:./Libraries/STM32F4xx_HAL_Driver/Src/stm32f4xx_hal_flash_ex.c ****   HAL_StatusTypeDef status = HAL_ERROR;
 181:./Libraries/STM32F4xx_HAL_Driver/Src/stm32f4xx_hal_flash_ex.c ****   uint32_t index = 0U;
 182:./Libraries/STM32F4xx_HAL_Driver/Src/stm32f4xx_hal_flash_ex.c ****   
 183:./Libraries/STM32F4xx_HAL_Driver/Src/stm32f4xx_hal_flash_ex.c ****   /* Process Locked */
 184:./Libraries/STM32F4xx_HAL_Driver/Src/stm32f4xx_hal_flash_ex.c ****   __HAL_LOCK(&pFlash);
 185:./Libraries/STM32F4xx_HAL_Driver/Src/stm32f4xx_hal_flash_ex.c **** 
 186:./Libraries/STM32F4xx_HAL_Driver/Src/stm32f4xx_hal_flash_ex.c ****   /* Check the parameters */
 187:./Libraries/STM32F4xx_HAL_Driver/Src/stm32f4xx_hal_flash_ex.c ****   assert_param(IS_FLASH_TYPEERASE(pEraseInit->TypeErase));
 188:./Libraries/STM32F4xx_HAL_Driver/Src/stm32f4xx_hal_flash_ex.c **** 
 189:./Libraries/STM32F4xx_HAL_Driver/Src/stm32f4xx_hal_flash_ex.c ****   /* Wait for last operation to be completed */
 190:./Libraries/STM32F4xx_HAL_Driver/Src/stm32f4xx_hal_flash_ex.c ****   status = FLASH_WaitForLastOperation((uint32_t)FLASH_TIMEOUT_VALUE);
 191:./Libraries/STM32F4xx_HAL_Driver/Src/stm32f4xx_hal_flash_ex.c **** 
 192:./Libraries/STM32F4xx_HAL_Driver/Src/stm32f4xx_hal_flash_ex.c ****   if(status == HAL_OK)
 193:./Libraries/STM32F4xx_HAL_Driver/Src/stm32f4xx_hal_flash_ex.c ****   {
 194:./Libraries/STM32F4xx_HAL_Driver/Src/stm32f4xx_hal_flash_ex.c ****     /*Initialization of SectorError variable*/
 195:./Libraries/STM32F4xx_HAL_Driver/Src/stm32f4xx_hal_flash_ex.c ****     *SectorError = 0xFFFFFFFFU;
 196:./Libraries/STM32F4xx_HAL_Driver/Src/stm32f4xx_hal_flash_ex.c ****     
 197:./Libraries/STM32F4xx_HAL_Driver/Src/stm32f4xx_hal_flash_ex.c ****     if(pEraseInit->TypeErase == FLASH_TYPEERASE_MASSERASE)
 198:./Libraries/STM32F4xx_HAL_Driver/Src/stm32f4xx_hal_flash_ex.c ****     {
 199:./Libraries/STM32F4xx_HAL_Driver/Src/stm32f4xx_hal_flash_ex.c ****       /*Mass erase to be done*/
 200:./Libraries/STM32F4xx_HAL_Driver/Src/stm32f4xx_hal_flash_ex.c ****       FLASH_MassErase((uint8_t) pEraseInit->VoltageRange, pEraseInit->Banks);
 201:./Libraries/STM32F4xx_HAL_Driver/Src/stm32f4xx_hal_flash_ex.c **** 
ARM GAS  /tmp/ccuOvNEu.s 			page 5


 202:./Libraries/STM32F4xx_HAL_Driver/Src/stm32f4xx_hal_flash_ex.c ****       /* Wait for last operation to be completed */
 203:./Libraries/STM32F4xx_HAL_Driver/Src/stm32f4xx_hal_flash_ex.c ****       status = FLASH_WaitForLastOperation((uint32_t)FLASH_TIMEOUT_VALUE);
 204:./Libraries/STM32F4xx_HAL_Driver/Src/stm32f4xx_hal_flash_ex.c ****       
 205:./Libraries/STM32F4xx_HAL_Driver/Src/stm32f4xx_hal_flash_ex.c ****       /* if the erase operation is completed, disable the MER Bit */
 206:./Libraries/STM32F4xx_HAL_Driver/Src/stm32f4xx_hal_flash_ex.c ****       FLASH->CR &= (~FLASH_MER_BIT);
 207:./Libraries/STM32F4xx_HAL_Driver/Src/stm32f4xx_hal_flash_ex.c ****     }
 208:./Libraries/STM32F4xx_HAL_Driver/Src/stm32f4xx_hal_flash_ex.c ****     else
 209:./Libraries/STM32F4xx_HAL_Driver/Src/stm32f4xx_hal_flash_ex.c ****     {
 210:./Libraries/STM32F4xx_HAL_Driver/Src/stm32f4xx_hal_flash_ex.c ****       /* Check the parameters */
 211:./Libraries/STM32F4xx_HAL_Driver/Src/stm32f4xx_hal_flash_ex.c ****       assert_param(IS_FLASH_NBSECTORS(pEraseInit->NbSectors + pEraseInit->Sector));
 212:./Libraries/STM32F4xx_HAL_Driver/Src/stm32f4xx_hal_flash_ex.c **** 
 213:./Libraries/STM32F4xx_HAL_Driver/Src/stm32f4xx_hal_flash_ex.c ****       /* Erase by sector by sector to be done*/
 214:./Libraries/STM32F4xx_HAL_Driver/Src/stm32f4xx_hal_flash_ex.c ****       for(index = pEraseInit->Sector; index < (pEraseInit->NbSectors + pEraseInit->Sector); index++
 215:./Libraries/STM32F4xx_HAL_Driver/Src/stm32f4xx_hal_flash_ex.c ****       {
 216:./Libraries/STM32F4xx_HAL_Driver/Src/stm32f4xx_hal_flash_ex.c ****         FLASH_Erase_Sector(index, (uint8_t) pEraseInit->VoltageRange);
 217:./Libraries/STM32F4xx_HAL_Driver/Src/stm32f4xx_hal_flash_ex.c **** 
 218:./Libraries/STM32F4xx_HAL_Driver/Src/stm32f4xx_hal_flash_ex.c ****         /* Wait for last operation to be completed */
 219:./Libraries/STM32F4xx_HAL_Driver/Src/stm32f4xx_hal_flash_ex.c ****         status = FLASH_WaitForLastOperation((uint32_t)FLASH_TIMEOUT_VALUE);
 220:./Libraries/STM32F4xx_HAL_Driver/Src/stm32f4xx_hal_flash_ex.c ****         
 221:./Libraries/STM32F4xx_HAL_Driver/Src/stm32f4xx_hal_flash_ex.c ****         /* If the erase operation is completed, disable the SER and SNB Bits */
 222:./Libraries/STM32F4xx_HAL_Driver/Src/stm32f4xx_hal_flash_ex.c ****         CLEAR_BIT(FLASH->CR, (FLASH_CR_SER | FLASH_CR_SNB));
 223:./Libraries/STM32F4xx_HAL_Driver/Src/stm32f4xx_hal_flash_ex.c **** 
 224:./Libraries/STM32F4xx_HAL_Driver/Src/stm32f4xx_hal_flash_ex.c ****         if(status != HAL_OK) 
 225:./Libraries/STM32F4xx_HAL_Driver/Src/stm32f4xx_hal_flash_ex.c ****         {
 226:./Libraries/STM32F4xx_HAL_Driver/Src/stm32f4xx_hal_flash_ex.c ****           /* In case of error, stop erase procedure and return the faulty sector*/
 227:./Libraries/STM32F4xx_HAL_Driver/Src/stm32f4xx_hal_flash_ex.c ****           *SectorError = index;
 228:./Libraries/STM32F4xx_HAL_Driver/Src/stm32f4xx_hal_flash_ex.c ****           break;
 229:./Libraries/STM32F4xx_HAL_Driver/Src/stm32f4xx_hal_flash_ex.c ****         }
 230:./Libraries/STM32F4xx_HAL_Driver/Src/stm32f4xx_hal_flash_ex.c ****       }
 231:./Libraries/STM32F4xx_HAL_Driver/Src/stm32f4xx_hal_flash_ex.c ****     }
 232:./Libraries/STM32F4xx_HAL_Driver/Src/stm32f4xx_hal_flash_ex.c ****     /* Flush the caches to be sure of the data consistency */
 233:./Libraries/STM32F4xx_HAL_Driver/Src/stm32f4xx_hal_flash_ex.c ****     FLASH_FlushCaches();    
 234:./Libraries/STM32F4xx_HAL_Driver/Src/stm32f4xx_hal_flash_ex.c ****   }
 235:./Libraries/STM32F4xx_HAL_Driver/Src/stm32f4xx_hal_flash_ex.c **** 
 236:./Libraries/STM32F4xx_HAL_Driver/Src/stm32f4xx_hal_flash_ex.c ****   /* Process Unlocked */
 237:./Libraries/STM32F4xx_HAL_Driver/Src/stm32f4xx_hal_flash_ex.c ****   __HAL_UNLOCK(&pFlash);
 238:./Libraries/STM32F4xx_HAL_Driver/Src/stm32f4xx_hal_flash_ex.c **** 
 239:./Libraries/STM32F4xx_HAL_Driver/Src/stm32f4xx_hal_flash_ex.c ****   return status;
 240:./Libraries/STM32F4xx_HAL_Driver/Src/stm32f4xx_hal_flash_ex.c **** }
 241:./Libraries/STM32F4xx_HAL_Driver/Src/stm32f4xx_hal_flash_ex.c **** 
 242:./Libraries/STM32F4xx_HAL_Driver/Src/stm32f4xx_hal_flash_ex.c **** /**
 243:./Libraries/STM32F4xx_HAL_Driver/Src/stm32f4xx_hal_flash_ex.c ****   * @brief  Perform a mass erase or erase the specified FLASH memory sectors  with interrupt enable
 244:./Libraries/STM32F4xx_HAL_Driver/Src/stm32f4xx_hal_flash_ex.c ****   * @param  pEraseInit pointer to an FLASH_EraseInitTypeDef structure that
 245:./Libraries/STM32F4xx_HAL_Driver/Src/stm32f4xx_hal_flash_ex.c ****   *         contains the configuration information for the erasing.
 246:./Libraries/STM32F4xx_HAL_Driver/Src/stm32f4xx_hal_flash_ex.c ****   * 
 247:./Libraries/STM32F4xx_HAL_Driver/Src/stm32f4xx_hal_flash_ex.c ****   * @retval HAL Status
 248:./Libraries/STM32F4xx_HAL_Driver/Src/stm32f4xx_hal_flash_ex.c ****   */
 249:./Libraries/STM32F4xx_HAL_Driver/Src/stm32f4xx_hal_flash_ex.c **** HAL_StatusTypeDef HAL_FLASHEx_Erase_IT(FLASH_EraseInitTypeDef *pEraseInit)
 250:./Libraries/STM32F4xx_HAL_Driver/Src/stm32f4xx_hal_flash_ex.c **** {
 251:./Libraries/STM32F4xx_HAL_Driver/Src/stm32f4xx_hal_flash_ex.c ****   HAL_StatusTypeDef status = HAL_OK;
 252:./Libraries/STM32F4xx_HAL_Driver/Src/stm32f4xx_hal_flash_ex.c **** 
 253:./Libraries/STM32F4xx_HAL_Driver/Src/stm32f4xx_hal_flash_ex.c ****   /* Process Locked */
 254:./Libraries/STM32F4xx_HAL_Driver/Src/stm32f4xx_hal_flash_ex.c ****   __HAL_LOCK(&pFlash);
 255:./Libraries/STM32F4xx_HAL_Driver/Src/stm32f4xx_hal_flash_ex.c **** 
 256:./Libraries/STM32F4xx_HAL_Driver/Src/stm32f4xx_hal_flash_ex.c ****   /* Check the parameters */
 257:./Libraries/STM32F4xx_HAL_Driver/Src/stm32f4xx_hal_flash_ex.c ****   assert_param(IS_FLASH_TYPEERASE(pEraseInit->TypeErase));
 258:./Libraries/STM32F4xx_HAL_Driver/Src/stm32f4xx_hal_flash_ex.c **** 
ARM GAS  /tmp/ccuOvNEu.s 			page 6


 259:./Libraries/STM32F4xx_HAL_Driver/Src/stm32f4xx_hal_flash_ex.c ****   /* Enable End of FLASH Operation interrupt */
 260:./Libraries/STM32F4xx_HAL_Driver/Src/stm32f4xx_hal_flash_ex.c ****   __HAL_FLASH_ENABLE_IT(FLASH_IT_EOP);
 261:./Libraries/STM32F4xx_HAL_Driver/Src/stm32f4xx_hal_flash_ex.c ****   
 262:./Libraries/STM32F4xx_HAL_Driver/Src/stm32f4xx_hal_flash_ex.c ****   /* Enable Error source interrupt */
 263:./Libraries/STM32F4xx_HAL_Driver/Src/stm32f4xx_hal_flash_ex.c ****   __HAL_FLASH_ENABLE_IT(FLASH_IT_ERR);
 264:./Libraries/STM32F4xx_HAL_Driver/Src/stm32f4xx_hal_flash_ex.c ****   
 265:./Libraries/STM32F4xx_HAL_Driver/Src/stm32f4xx_hal_flash_ex.c ****   /* Clear pending flags (if any) */  
 266:./Libraries/STM32F4xx_HAL_Driver/Src/stm32f4xx_hal_flash_ex.c ****   __HAL_FLASH_CLEAR_FLAG(FLASH_FLAG_EOP    | FLASH_FLAG_OPERR | FLASH_FLAG_WRPERR |\
 267:./Libraries/STM32F4xx_HAL_Driver/Src/stm32f4xx_hal_flash_ex.c ****                          FLASH_FLAG_PGAERR | FLASH_FLAG_PGPERR| FLASH_FLAG_PGSERR);  
 268:./Libraries/STM32F4xx_HAL_Driver/Src/stm32f4xx_hal_flash_ex.c ****   
 269:./Libraries/STM32F4xx_HAL_Driver/Src/stm32f4xx_hal_flash_ex.c ****   if(pEraseInit->TypeErase == FLASH_TYPEERASE_MASSERASE)
 270:./Libraries/STM32F4xx_HAL_Driver/Src/stm32f4xx_hal_flash_ex.c ****   {
 271:./Libraries/STM32F4xx_HAL_Driver/Src/stm32f4xx_hal_flash_ex.c ****     /*Mass erase to be done*/
 272:./Libraries/STM32F4xx_HAL_Driver/Src/stm32f4xx_hal_flash_ex.c ****     pFlash.ProcedureOnGoing = FLASH_PROC_MASSERASE;
 273:./Libraries/STM32F4xx_HAL_Driver/Src/stm32f4xx_hal_flash_ex.c ****     pFlash.Bank = pEraseInit->Banks;
 274:./Libraries/STM32F4xx_HAL_Driver/Src/stm32f4xx_hal_flash_ex.c ****     FLASH_MassErase((uint8_t) pEraseInit->VoltageRange, pEraseInit->Banks);
 275:./Libraries/STM32F4xx_HAL_Driver/Src/stm32f4xx_hal_flash_ex.c ****   }
 276:./Libraries/STM32F4xx_HAL_Driver/Src/stm32f4xx_hal_flash_ex.c ****   else
 277:./Libraries/STM32F4xx_HAL_Driver/Src/stm32f4xx_hal_flash_ex.c ****   {
 278:./Libraries/STM32F4xx_HAL_Driver/Src/stm32f4xx_hal_flash_ex.c ****     /* Erase by sector to be done*/
 279:./Libraries/STM32F4xx_HAL_Driver/Src/stm32f4xx_hal_flash_ex.c **** 
 280:./Libraries/STM32F4xx_HAL_Driver/Src/stm32f4xx_hal_flash_ex.c ****     /* Check the parameters */
 281:./Libraries/STM32F4xx_HAL_Driver/Src/stm32f4xx_hal_flash_ex.c ****     assert_param(IS_FLASH_NBSECTORS(pEraseInit->NbSectors + pEraseInit->Sector));
 282:./Libraries/STM32F4xx_HAL_Driver/Src/stm32f4xx_hal_flash_ex.c **** 
 283:./Libraries/STM32F4xx_HAL_Driver/Src/stm32f4xx_hal_flash_ex.c ****     pFlash.ProcedureOnGoing = FLASH_PROC_SECTERASE;
 284:./Libraries/STM32F4xx_HAL_Driver/Src/stm32f4xx_hal_flash_ex.c ****     pFlash.NbSectorsToErase = pEraseInit->NbSectors;
 285:./Libraries/STM32F4xx_HAL_Driver/Src/stm32f4xx_hal_flash_ex.c ****     pFlash.Sector = pEraseInit->Sector;
 286:./Libraries/STM32F4xx_HAL_Driver/Src/stm32f4xx_hal_flash_ex.c ****     pFlash.VoltageForErase = (uint8_t)pEraseInit->VoltageRange;
 287:./Libraries/STM32F4xx_HAL_Driver/Src/stm32f4xx_hal_flash_ex.c **** 
 288:./Libraries/STM32F4xx_HAL_Driver/Src/stm32f4xx_hal_flash_ex.c ****     /*Erase 1st sector and wait for IT*/
 289:./Libraries/STM32F4xx_HAL_Driver/Src/stm32f4xx_hal_flash_ex.c ****     FLASH_Erase_Sector(pEraseInit->Sector, pEraseInit->VoltageRange);
 290:./Libraries/STM32F4xx_HAL_Driver/Src/stm32f4xx_hal_flash_ex.c ****   }
 291:./Libraries/STM32F4xx_HAL_Driver/Src/stm32f4xx_hal_flash_ex.c **** 
 292:./Libraries/STM32F4xx_HAL_Driver/Src/stm32f4xx_hal_flash_ex.c ****   return status;
 293:./Libraries/STM32F4xx_HAL_Driver/Src/stm32f4xx_hal_flash_ex.c **** }
 294:./Libraries/STM32F4xx_HAL_Driver/Src/stm32f4xx_hal_flash_ex.c **** 
 295:./Libraries/STM32F4xx_HAL_Driver/Src/stm32f4xx_hal_flash_ex.c **** /**
 296:./Libraries/STM32F4xx_HAL_Driver/Src/stm32f4xx_hal_flash_ex.c ****   * @brief   Program option bytes
 297:./Libraries/STM32F4xx_HAL_Driver/Src/stm32f4xx_hal_flash_ex.c ****   * @param  pOBInit pointer to an FLASH_OBInitStruct structure that
 298:./Libraries/STM32F4xx_HAL_Driver/Src/stm32f4xx_hal_flash_ex.c ****   *         contains the configuration information for the programming.
 299:./Libraries/STM32F4xx_HAL_Driver/Src/stm32f4xx_hal_flash_ex.c ****   * 
 300:./Libraries/STM32F4xx_HAL_Driver/Src/stm32f4xx_hal_flash_ex.c ****   * @retval HAL Status
 301:./Libraries/STM32F4xx_HAL_Driver/Src/stm32f4xx_hal_flash_ex.c ****   */
 302:./Libraries/STM32F4xx_HAL_Driver/Src/stm32f4xx_hal_flash_ex.c **** HAL_StatusTypeDef HAL_FLASHEx_OBProgram(FLASH_OBProgramInitTypeDef *pOBInit)
 303:./Libraries/STM32F4xx_HAL_Driver/Src/stm32f4xx_hal_flash_ex.c **** {
 304:./Libraries/STM32F4xx_HAL_Driver/Src/stm32f4xx_hal_flash_ex.c ****   HAL_StatusTypeDef status = HAL_ERROR;
 305:./Libraries/STM32F4xx_HAL_Driver/Src/stm32f4xx_hal_flash_ex.c ****   
 306:./Libraries/STM32F4xx_HAL_Driver/Src/stm32f4xx_hal_flash_ex.c ****   /* Process Locked */
 307:./Libraries/STM32F4xx_HAL_Driver/Src/stm32f4xx_hal_flash_ex.c ****   __HAL_LOCK(&pFlash);
 308:./Libraries/STM32F4xx_HAL_Driver/Src/stm32f4xx_hal_flash_ex.c **** 
 309:./Libraries/STM32F4xx_HAL_Driver/Src/stm32f4xx_hal_flash_ex.c ****   /* Check the parameters */
 310:./Libraries/STM32F4xx_HAL_Driver/Src/stm32f4xx_hal_flash_ex.c ****   assert_param(IS_OPTIONBYTE(pOBInit->OptionType));
 311:./Libraries/STM32F4xx_HAL_Driver/Src/stm32f4xx_hal_flash_ex.c **** 
 312:./Libraries/STM32F4xx_HAL_Driver/Src/stm32f4xx_hal_flash_ex.c ****   /*Write protection configuration*/
 313:./Libraries/STM32F4xx_HAL_Driver/Src/stm32f4xx_hal_flash_ex.c ****   if((pOBInit->OptionType & OPTIONBYTE_WRP) == OPTIONBYTE_WRP)
 314:./Libraries/STM32F4xx_HAL_Driver/Src/stm32f4xx_hal_flash_ex.c ****   {
 315:./Libraries/STM32F4xx_HAL_Driver/Src/stm32f4xx_hal_flash_ex.c ****     assert_param(IS_WRPSTATE(pOBInit->WRPState));
ARM GAS  /tmp/ccuOvNEu.s 			page 7


 316:./Libraries/STM32F4xx_HAL_Driver/Src/stm32f4xx_hal_flash_ex.c ****     if(pOBInit->WRPState == OB_WRPSTATE_ENABLE)
 317:./Libraries/STM32F4xx_HAL_Driver/Src/stm32f4xx_hal_flash_ex.c ****     {
 318:./Libraries/STM32F4xx_HAL_Driver/Src/stm32f4xx_hal_flash_ex.c ****       /*Enable of Write protection on the selected Sector*/
 319:./Libraries/STM32F4xx_HAL_Driver/Src/stm32f4xx_hal_flash_ex.c ****       status = FLASH_OB_EnableWRP(pOBInit->WRPSector, pOBInit->Banks);
 320:./Libraries/STM32F4xx_HAL_Driver/Src/stm32f4xx_hal_flash_ex.c ****     }
 321:./Libraries/STM32F4xx_HAL_Driver/Src/stm32f4xx_hal_flash_ex.c ****     else
 322:./Libraries/STM32F4xx_HAL_Driver/Src/stm32f4xx_hal_flash_ex.c ****     {
 323:./Libraries/STM32F4xx_HAL_Driver/Src/stm32f4xx_hal_flash_ex.c ****       /*Disable of Write protection on the selected Sector*/
 324:./Libraries/STM32F4xx_HAL_Driver/Src/stm32f4xx_hal_flash_ex.c ****       status = FLASH_OB_DisableWRP(pOBInit->WRPSector, pOBInit->Banks);
 325:./Libraries/STM32F4xx_HAL_Driver/Src/stm32f4xx_hal_flash_ex.c ****     }
 326:./Libraries/STM32F4xx_HAL_Driver/Src/stm32f4xx_hal_flash_ex.c ****   }
 327:./Libraries/STM32F4xx_HAL_Driver/Src/stm32f4xx_hal_flash_ex.c **** 
 328:./Libraries/STM32F4xx_HAL_Driver/Src/stm32f4xx_hal_flash_ex.c ****   /*Read protection configuration*/
 329:./Libraries/STM32F4xx_HAL_Driver/Src/stm32f4xx_hal_flash_ex.c ****   if((pOBInit->OptionType & OPTIONBYTE_RDP) == OPTIONBYTE_RDP)
 330:./Libraries/STM32F4xx_HAL_Driver/Src/stm32f4xx_hal_flash_ex.c ****   {
 331:./Libraries/STM32F4xx_HAL_Driver/Src/stm32f4xx_hal_flash_ex.c ****     status = FLASH_OB_RDP_LevelConfig(pOBInit->RDPLevel);
 332:./Libraries/STM32F4xx_HAL_Driver/Src/stm32f4xx_hal_flash_ex.c ****   }
 333:./Libraries/STM32F4xx_HAL_Driver/Src/stm32f4xx_hal_flash_ex.c **** 
 334:./Libraries/STM32F4xx_HAL_Driver/Src/stm32f4xx_hal_flash_ex.c ****   /*USER  configuration*/
 335:./Libraries/STM32F4xx_HAL_Driver/Src/stm32f4xx_hal_flash_ex.c ****   if((pOBInit->OptionType & OPTIONBYTE_USER) == OPTIONBYTE_USER)
 336:./Libraries/STM32F4xx_HAL_Driver/Src/stm32f4xx_hal_flash_ex.c ****   {
 337:./Libraries/STM32F4xx_HAL_Driver/Src/stm32f4xx_hal_flash_ex.c ****     status = FLASH_OB_UserConfig(pOBInit->USERConfig&OB_IWDG_SW, 
 338:./Libraries/STM32F4xx_HAL_Driver/Src/stm32f4xx_hal_flash_ex.c ****                                      pOBInit->USERConfig&OB_STOP_NO_RST,
 339:./Libraries/STM32F4xx_HAL_Driver/Src/stm32f4xx_hal_flash_ex.c ****                                      pOBInit->USERConfig&OB_STDBY_NO_RST);
 340:./Libraries/STM32F4xx_HAL_Driver/Src/stm32f4xx_hal_flash_ex.c ****   }
 341:./Libraries/STM32F4xx_HAL_Driver/Src/stm32f4xx_hal_flash_ex.c **** 
 342:./Libraries/STM32F4xx_HAL_Driver/Src/stm32f4xx_hal_flash_ex.c ****   /*BOR Level  configuration*/
 343:./Libraries/STM32F4xx_HAL_Driver/Src/stm32f4xx_hal_flash_ex.c ****   if((pOBInit->OptionType & OPTIONBYTE_BOR) == OPTIONBYTE_BOR)
 344:./Libraries/STM32F4xx_HAL_Driver/Src/stm32f4xx_hal_flash_ex.c ****   {
 345:./Libraries/STM32F4xx_HAL_Driver/Src/stm32f4xx_hal_flash_ex.c ****     status = FLASH_OB_BOR_LevelConfig(pOBInit->BORLevel);
 346:./Libraries/STM32F4xx_HAL_Driver/Src/stm32f4xx_hal_flash_ex.c ****   }
 347:./Libraries/STM32F4xx_HAL_Driver/Src/stm32f4xx_hal_flash_ex.c **** 
 348:./Libraries/STM32F4xx_HAL_Driver/Src/stm32f4xx_hal_flash_ex.c ****   /* Process Unlocked */
 349:./Libraries/STM32F4xx_HAL_Driver/Src/stm32f4xx_hal_flash_ex.c ****   __HAL_UNLOCK(&pFlash);
 350:./Libraries/STM32F4xx_HAL_Driver/Src/stm32f4xx_hal_flash_ex.c **** 
 351:./Libraries/STM32F4xx_HAL_Driver/Src/stm32f4xx_hal_flash_ex.c ****   return status;
 352:./Libraries/STM32F4xx_HAL_Driver/Src/stm32f4xx_hal_flash_ex.c **** }
 353:./Libraries/STM32F4xx_HAL_Driver/Src/stm32f4xx_hal_flash_ex.c **** 
 354:./Libraries/STM32F4xx_HAL_Driver/Src/stm32f4xx_hal_flash_ex.c **** /**
 355:./Libraries/STM32F4xx_HAL_Driver/Src/stm32f4xx_hal_flash_ex.c ****   * @brief   Get the Option byte configuration
 356:./Libraries/STM32F4xx_HAL_Driver/Src/stm32f4xx_hal_flash_ex.c ****   * @param  pOBInit pointer to an FLASH_OBInitStruct structure that
 357:./Libraries/STM32F4xx_HAL_Driver/Src/stm32f4xx_hal_flash_ex.c ****   *         contains the configuration information for the programming.
 358:./Libraries/STM32F4xx_HAL_Driver/Src/stm32f4xx_hal_flash_ex.c ****   * 
 359:./Libraries/STM32F4xx_HAL_Driver/Src/stm32f4xx_hal_flash_ex.c ****   * @retval None
 360:./Libraries/STM32F4xx_HAL_Driver/Src/stm32f4xx_hal_flash_ex.c ****   */
 361:./Libraries/STM32F4xx_HAL_Driver/Src/stm32f4xx_hal_flash_ex.c **** void HAL_FLASHEx_OBGetConfig(FLASH_OBProgramInitTypeDef *pOBInit)
 362:./Libraries/STM32F4xx_HAL_Driver/Src/stm32f4xx_hal_flash_ex.c **** {
 363:./Libraries/STM32F4xx_HAL_Driver/Src/stm32f4xx_hal_flash_ex.c ****   pOBInit->OptionType = OPTIONBYTE_WRP | OPTIONBYTE_RDP | OPTIONBYTE_USER | OPTIONBYTE_BOR;
 364:./Libraries/STM32F4xx_HAL_Driver/Src/stm32f4xx_hal_flash_ex.c **** 
 365:./Libraries/STM32F4xx_HAL_Driver/Src/stm32f4xx_hal_flash_ex.c ****   /*Get WRP*/
 366:./Libraries/STM32F4xx_HAL_Driver/Src/stm32f4xx_hal_flash_ex.c ****   pOBInit->WRPSector = (uint32_t)FLASH_OB_GetWRP();
 367:./Libraries/STM32F4xx_HAL_Driver/Src/stm32f4xx_hal_flash_ex.c **** 
 368:./Libraries/STM32F4xx_HAL_Driver/Src/stm32f4xx_hal_flash_ex.c ****   /*Get RDP Level*/
 369:./Libraries/STM32F4xx_HAL_Driver/Src/stm32f4xx_hal_flash_ex.c ****   pOBInit->RDPLevel = (uint32_t)FLASH_OB_GetRDP();
 370:./Libraries/STM32F4xx_HAL_Driver/Src/stm32f4xx_hal_flash_ex.c **** 
 371:./Libraries/STM32F4xx_HAL_Driver/Src/stm32f4xx_hal_flash_ex.c ****   /*Get USER*/
 372:./Libraries/STM32F4xx_HAL_Driver/Src/stm32f4xx_hal_flash_ex.c ****   pOBInit->USERConfig = (uint8_t)FLASH_OB_GetUser();
ARM GAS  /tmp/ccuOvNEu.s 			page 8


 373:./Libraries/STM32F4xx_HAL_Driver/Src/stm32f4xx_hal_flash_ex.c **** 
 374:./Libraries/STM32F4xx_HAL_Driver/Src/stm32f4xx_hal_flash_ex.c ****   /*Get BOR Level*/
 375:./Libraries/STM32F4xx_HAL_Driver/Src/stm32f4xx_hal_flash_ex.c ****   pOBInit->BORLevel = (uint32_t)FLASH_OB_GetBOR();
 376:./Libraries/STM32F4xx_HAL_Driver/Src/stm32f4xx_hal_flash_ex.c **** }
 377:./Libraries/STM32F4xx_HAL_Driver/Src/stm32f4xx_hal_flash_ex.c **** 
 378:./Libraries/STM32F4xx_HAL_Driver/Src/stm32f4xx_hal_flash_ex.c **** #if defined(STM32F427xx) || defined(STM32F437xx) || defined(STM32F429xx) || defined(STM32F439xx) ||
 379:./Libraries/STM32F4xx_HAL_Driver/Src/stm32f4xx_hal_flash_ex.c ****     defined(STM32F401xC) || defined(STM32F401xE) || defined(STM32F410Tx) || defined(STM32F410Cx) ||
 380:./Libraries/STM32F4xx_HAL_Driver/Src/stm32f4xx_hal_flash_ex.c ****     defined(STM32F410Rx) || defined(STM32F411xE) || defined(STM32F446xx) || defined(STM32F469xx) ||
 381:./Libraries/STM32F4xx_HAL_Driver/Src/stm32f4xx_hal_flash_ex.c ****     defined(STM32F479xx) || defined(STM32F412Zx) || defined(STM32F412Vx) || defined(STM32F412Rx) ||
 382:./Libraries/STM32F4xx_HAL_Driver/Src/stm32f4xx_hal_flash_ex.c ****     defined(STM32F412Cx) || defined(STM32F413xx) || defined(STM32F423xx)
 383:./Libraries/STM32F4xx_HAL_Driver/Src/stm32f4xx_hal_flash_ex.c **** /**
 384:./Libraries/STM32F4xx_HAL_Driver/Src/stm32f4xx_hal_flash_ex.c ****   * @brief   Program option bytes
 385:./Libraries/STM32F4xx_HAL_Driver/Src/stm32f4xx_hal_flash_ex.c ****   * @param  pAdvOBInit pointer to an FLASH_AdvOBProgramInitTypeDef structure that
 386:./Libraries/STM32F4xx_HAL_Driver/Src/stm32f4xx_hal_flash_ex.c ****   *         contains the configuration information for the programming.
 387:./Libraries/STM32F4xx_HAL_Driver/Src/stm32f4xx_hal_flash_ex.c ****   * 
 388:./Libraries/STM32F4xx_HAL_Driver/Src/stm32f4xx_hal_flash_ex.c ****   * @retval HAL Status
 389:./Libraries/STM32F4xx_HAL_Driver/Src/stm32f4xx_hal_flash_ex.c ****   */
 390:./Libraries/STM32F4xx_HAL_Driver/Src/stm32f4xx_hal_flash_ex.c **** HAL_StatusTypeDef HAL_FLASHEx_AdvOBProgram (FLASH_AdvOBProgramInitTypeDef *pAdvOBInit)
 391:./Libraries/STM32F4xx_HAL_Driver/Src/stm32f4xx_hal_flash_ex.c **** {
 392:./Libraries/STM32F4xx_HAL_Driver/Src/stm32f4xx_hal_flash_ex.c ****   HAL_StatusTypeDef status = HAL_ERROR;
 393:./Libraries/STM32F4xx_HAL_Driver/Src/stm32f4xx_hal_flash_ex.c ****   
 394:./Libraries/STM32F4xx_HAL_Driver/Src/stm32f4xx_hal_flash_ex.c ****   /* Check the parameters */
 395:./Libraries/STM32F4xx_HAL_Driver/Src/stm32f4xx_hal_flash_ex.c ****   assert_param(IS_OBEX(pAdvOBInit->OptionType));
 396:./Libraries/STM32F4xx_HAL_Driver/Src/stm32f4xx_hal_flash_ex.c **** 
 397:./Libraries/STM32F4xx_HAL_Driver/Src/stm32f4xx_hal_flash_ex.c ****   /*Program PCROP option byte*/
 398:./Libraries/STM32F4xx_HAL_Driver/Src/stm32f4xx_hal_flash_ex.c ****   if(((pAdvOBInit->OptionType) & OPTIONBYTE_PCROP) == OPTIONBYTE_PCROP)
 399:./Libraries/STM32F4xx_HAL_Driver/Src/stm32f4xx_hal_flash_ex.c ****   {
 400:./Libraries/STM32F4xx_HAL_Driver/Src/stm32f4xx_hal_flash_ex.c ****     /* Check the parameters */
 401:./Libraries/STM32F4xx_HAL_Driver/Src/stm32f4xx_hal_flash_ex.c ****     assert_param(IS_PCROPSTATE(pAdvOBInit->PCROPState));
 402:./Libraries/STM32F4xx_HAL_Driver/Src/stm32f4xx_hal_flash_ex.c ****     if((pAdvOBInit->PCROPState) == OB_PCROP_STATE_ENABLE)
 403:./Libraries/STM32F4xx_HAL_Driver/Src/stm32f4xx_hal_flash_ex.c ****     {
 404:./Libraries/STM32F4xx_HAL_Driver/Src/stm32f4xx_hal_flash_ex.c ****       /*Enable of Write protection on the selected Sector*/
 405:./Libraries/STM32F4xx_HAL_Driver/Src/stm32f4xx_hal_flash_ex.c **** #if defined(STM32F401xC) || defined(STM32F401xE) || defined(STM32F410Tx) || defined(STM32F410Cx) ||
 406:./Libraries/STM32F4xx_HAL_Driver/Src/stm32f4xx_hal_flash_ex.c ****     defined(STM32F411xE) || defined(STM32F446xx) || defined(STM32F412Zx) || defined(STM32F412Vx) ||
 407:./Libraries/STM32F4xx_HAL_Driver/Src/stm32f4xx_hal_flash_ex.c ****     defined(STM32F412Cx) || defined(STM32F413xx) || defined(STM32F423xx)
 408:./Libraries/STM32F4xx_HAL_Driver/Src/stm32f4xx_hal_flash_ex.c ****       status = FLASH_OB_EnablePCROP(pAdvOBInit->Sectors);
 409:./Libraries/STM32F4xx_HAL_Driver/Src/stm32f4xx_hal_flash_ex.c **** #else  /* STM32F427xx || STM32F437xx || STM32F429xx|| STM32F439xx || STM32F469xx || STM32F479xx */
 410:./Libraries/STM32F4xx_HAL_Driver/Src/stm32f4xx_hal_flash_ex.c ****       status = FLASH_OB_EnablePCROP(pAdvOBInit->SectorsBank1, pAdvOBInit->SectorsBank2, pAdvOBInit-
 411:./Libraries/STM32F4xx_HAL_Driver/Src/stm32f4xx_hal_flash_ex.c **** #endif /* STM32F401xC || STM32F401xE || STM32F410xx || STM32F411xE || STM32F446xx || STM32F412Zx ||
 412:./Libraries/STM32F4xx_HAL_Driver/Src/stm32f4xx_hal_flash_ex.c ****           STM32F413xx || STM32F423xx */
 413:./Libraries/STM32F4xx_HAL_Driver/Src/stm32f4xx_hal_flash_ex.c ****     }
 414:./Libraries/STM32F4xx_HAL_Driver/Src/stm32f4xx_hal_flash_ex.c ****     else
 415:./Libraries/STM32F4xx_HAL_Driver/Src/stm32f4xx_hal_flash_ex.c ****     {
 416:./Libraries/STM32F4xx_HAL_Driver/Src/stm32f4xx_hal_flash_ex.c ****       /*Disable of Write protection on the selected Sector*/
 417:./Libraries/STM32F4xx_HAL_Driver/Src/stm32f4xx_hal_flash_ex.c **** #if defined(STM32F401xC) || defined(STM32F401xE) || defined(STM32F410Tx) || defined(STM32F410Cx) ||
 418:./Libraries/STM32F4xx_HAL_Driver/Src/stm32f4xx_hal_flash_ex.c ****     defined(STM32F411xE) || defined(STM32F446xx) || defined(STM32F412Zx) || defined(STM32F412Vx) ||
 419:./Libraries/STM32F4xx_HAL_Driver/Src/stm32f4xx_hal_flash_ex.c ****     defined(STM32F412Cx) || defined(STM32F413xx) || defined(STM32F423xx)
 420:./Libraries/STM32F4xx_HAL_Driver/Src/stm32f4xx_hal_flash_ex.c ****       status = FLASH_OB_DisablePCROP(pAdvOBInit->Sectors);
 421:./Libraries/STM32F4xx_HAL_Driver/Src/stm32f4xx_hal_flash_ex.c **** #else /* STM32F427xx || STM32F437xx || STM32F429xx|| STM32F439xx || STM32F469xx || STM32F479xx */
 422:./Libraries/STM32F4xx_HAL_Driver/Src/stm32f4xx_hal_flash_ex.c ****       status = FLASH_OB_DisablePCROP(pAdvOBInit->SectorsBank1, pAdvOBInit->SectorsBank2, pAdvOBInit
 423:./Libraries/STM32F4xx_HAL_Driver/Src/stm32f4xx_hal_flash_ex.c **** #endif /* STM32F401xC || STM32F401xE || STM32F410xx || STM32F411xE || STM32F446xx || STM32F412Zx ||
 424:./Libraries/STM32F4xx_HAL_Driver/Src/stm32f4xx_hal_flash_ex.c ****           STM32F413xx || STM32F423xx */
 425:./Libraries/STM32F4xx_HAL_Driver/Src/stm32f4xx_hal_flash_ex.c ****     }
 426:./Libraries/STM32F4xx_HAL_Driver/Src/stm32f4xx_hal_flash_ex.c ****   }
 427:./Libraries/STM32F4xx_HAL_Driver/Src/stm32f4xx_hal_flash_ex.c ****    
 428:./Libraries/STM32F4xx_HAL_Driver/Src/stm32f4xx_hal_flash_ex.c **** #if defined(STM32F427xx) || defined(STM32F437xx) || defined(STM32F429xx) || defined(STM32F439xx) ||
 429:./Libraries/STM32F4xx_HAL_Driver/Src/stm32f4xx_hal_flash_ex.c ****   /*Program BOOT config option byte*/
ARM GAS  /tmp/ccuOvNEu.s 			page 9


 430:./Libraries/STM32F4xx_HAL_Driver/Src/stm32f4xx_hal_flash_ex.c ****   if(((pAdvOBInit->OptionType) & OPTIONBYTE_BOOTCONFIG) == OPTIONBYTE_BOOTCONFIG)
 431:./Libraries/STM32F4xx_HAL_Driver/Src/stm32f4xx_hal_flash_ex.c ****   {
 432:./Libraries/STM32F4xx_HAL_Driver/Src/stm32f4xx_hal_flash_ex.c ****     status = FLASH_OB_BootConfig(pAdvOBInit->BootConfig);
 433:./Libraries/STM32F4xx_HAL_Driver/Src/stm32f4xx_hal_flash_ex.c ****   }
 434:./Libraries/STM32F4xx_HAL_Driver/Src/stm32f4xx_hal_flash_ex.c **** #endif /* STM32F427xx || STM32F437xx || STM32F429xx || STM32F439xx || STM32F469xx || STM32F479xx */
 435:./Libraries/STM32F4xx_HAL_Driver/Src/stm32f4xx_hal_flash_ex.c **** 
 436:./Libraries/STM32F4xx_HAL_Driver/Src/stm32f4xx_hal_flash_ex.c ****   return status;
 437:./Libraries/STM32F4xx_HAL_Driver/Src/stm32f4xx_hal_flash_ex.c **** }
 438:./Libraries/STM32F4xx_HAL_Driver/Src/stm32f4xx_hal_flash_ex.c **** 
 439:./Libraries/STM32F4xx_HAL_Driver/Src/stm32f4xx_hal_flash_ex.c **** /**
 440:./Libraries/STM32F4xx_HAL_Driver/Src/stm32f4xx_hal_flash_ex.c ****   * @brief   Get the OBEX byte configuration
 441:./Libraries/STM32F4xx_HAL_Driver/Src/stm32f4xx_hal_flash_ex.c ****   * @param  pAdvOBInit pointer to an FLASH_AdvOBProgramInitTypeDef structure that
 442:./Libraries/STM32F4xx_HAL_Driver/Src/stm32f4xx_hal_flash_ex.c ****   *         contains the configuration information for the programming.
 443:./Libraries/STM32F4xx_HAL_Driver/Src/stm32f4xx_hal_flash_ex.c ****   * 
 444:./Libraries/STM32F4xx_HAL_Driver/Src/stm32f4xx_hal_flash_ex.c ****   * @retval None
 445:./Libraries/STM32F4xx_HAL_Driver/Src/stm32f4xx_hal_flash_ex.c ****   */
 446:./Libraries/STM32F4xx_HAL_Driver/Src/stm32f4xx_hal_flash_ex.c **** void HAL_FLASHEx_AdvOBGetConfig(FLASH_AdvOBProgramInitTypeDef *pAdvOBInit)
 447:./Libraries/STM32F4xx_HAL_Driver/Src/stm32f4xx_hal_flash_ex.c **** {
 448:./Libraries/STM32F4xx_HAL_Driver/Src/stm32f4xx_hal_flash_ex.c **** #if defined(STM32F401xC) || defined(STM32F401xE) || defined(STM32F410Tx) || defined(STM32F410Cx) ||
 449:./Libraries/STM32F4xx_HAL_Driver/Src/stm32f4xx_hal_flash_ex.c ****     defined(STM32F411xE) || defined(STM32F446xx) || defined(STM32F412Zx) || defined(STM32F412Vx) ||
 450:./Libraries/STM32F4xx_HAL_Driver/Src/stm32f4xx_hal_flash_ex.c ****     defined(STM32F412Cx) || defined(STM32F413xx) || defined(STM32F423xx)
 451:./Libraries/STM32F4xx_HAL_Driver/Src/stm32f4xx_hal_flash_ex.c ****   /*Get Sector*/
 452:./Libraries/STM32F4xx_HAL_Driver/Src/stm32f4xx_hal_flash_ex.c ****   pAdvOBInit->Sectors = (*(__IO uint16_t *)(OPTCR_BYTE2_ADDRESS));
 453:./Libraries/STM32F4xx_HAL_Driver/Src/stm32f4xx_hal_flash_ex.c **** #else  /* STM32F427xx || STM32F437xx || STM32F429xx|| STM32F439xx || STM32F469xx || STM32F479xx */
 454:./Libraries/STM32F4xx_HAL_Driver/Src/stm32f4xx_hal_flash_ex.c ****   /*Get Sector for Bank1*/
 455:./Libraries/STM32F4xx_HAL_Driver/Src/stm32f4xx_hal_flash_ex.c ****   pAdvOBInit->SectorsBank1 = (*(__IO uint16_t *)(OPTCR_BYTE2_ADDRESS));
 456:./Libraries/STM32F4xx_HAL_Driver/Src/stm32f4xx_hal_flash_ex.c **** 
 457:./Libraries/STM32F4xx_HAL_Driver/Src/stm32f4xx_hal_flash_ex.c ****   /*Get Sector for Bank2*/
 458:./Libraries/STM32F4xx_HAL_Driver/Src/stm32f4xx_hal_flash_ex.c ****   pAdvOBInit->SectorsBank2 = (*(__IO uint16_t *)(OPTCR1_BYTE2_ADDRESS));
 459:./Libraries/STM32F4xx_HAL_Driver/Src/stm32f4xx_hal_flash_ex.c **** 
 460:./Libraries/STM32F4xx_HAL_Driver/Src/stm32f4xx_hal_flash_ex.c ****   /*Get Boot config OB*/
 461:./Libraries/STM32F4xx_HAL_Driver/Src/stm32f4xx_hal_flash_ex.c ****   pAdvOBInit->BootConfig = *(__IO uint8_t *)OPTCR_BYTE0_ADDRESS;
 462:./Libraries/STM32F4xx_HAL_Driver/Src/stm32f4xx_hal_flash_ex.c **** #endif /* STM32F401xC || STM32F401xE || STM32F410xx || STM32F411xE || STM32F446xx || STM32F412Zx ||
 463:./Libraries/STM32F4xx_HAL_Driver/Src/stm32f4xx_hal_flash_ex.c ****           STM32F413xx || STM32F423xx */
 464:./Libraries/STM32F4xx_HAL_Driver/Src/stm32f4xx_hal_flash_ex.c **** }
 465:./Libraries/STM32F4xx_HAL_Driver/Src/stm32f4xx_hal_flash_ex.c **** 
 466:./Libraries/STM32F4xx_HAL_Driver/Src/stm32f4xx_hal_flash_ex.c **** /**
 467:./Libraries/STM32F4xx_HAL_Driver/Src/stm32f4xx_hal_flash_ex.c ****   * @brief  Select the Protection Mode 
 468:./Libraries/STM32F4xx_HAL_Driver/Src/stm32f4xx_hal_flash_ex.c ****   * 
 469:./Libraries/STM32F4xx_HAL_Driver/Src/stm32f4xx_hal_flash_ex.c ****   * @note   After PCROP activated Option Byte modification NOT POSSIBLE! excepted 
 470:./Libraries/STM32F4xx_HAL_Driver/Src/stm32f4xx_hal_flash_ex.c ****   *         Global Read Out Protection modification (from level1 to level0) 
 471:./Libraries/STM32F4xx_HAL_Driver/Src/stm32f4xx_hal_flash_ex.c ****   * @note   Once SPRMOD bit is active unprotection of a protected sector is not possible 
 472:./Libraries/STM32F4xx_HAL_Driver/Src/stm32f4xx_hal_flash_ex.c ****   * @note   Read a protected sector will set RDERR Flag and write a protected sector will set WRPER
 473:./Libraries/STM32F4xx_HAL_Driver/Src/stm32f4xx_hal_flash_ex.c ****   * @note   This function can be used only for STM32F42xxx/STM32F43xxx/STM32F401xx/STM32F411xx/STM3
 474:./Libraries/STM32F4xx_HAL_Driver/Src/stm32f4xx_hal_flash_ex.c ****   *         STM32F469xx/STM32F479xx/STM32F412xx/STM32F413xx devices.
 475:./Libraries/STM32F4xx_HAL_Driver/Src/stm32f4xx_hal_flash_ex.c ****   * 
 476:./Libraries/STM32F4xx_HAL_Driver/Src/stm32f4xx_hal_flash_ex.c ****   * @retval HAL Status
 477:./Libraries/STM32F4xx_HAL_Driver/Src/stm32f4xx_hal_flash_ex.c ****   */
 478:./Libraries/STM32F4xx_HAL_Driver/Src/stm32f4xx_hal_flash_ex.c **** HAL_StatusTypeDef HAL_FLASHEx_OB_SelectPCROP(void)
 479:./Libraries/STM32F4xx_HAL_Driver/Src/stm32f4xx_hal_flash_ex.c **** {
 480:./Libraries/STM32F4xx_HAL_Driver/Src/stm32f4xx_hal_flash_ex.c ****   uint8_t optiontmp = 0xFF;
 481:./Libraries/STM32F4xx_HAL_Driver/Src/stm32f4xx_hal_flash_ex.c **** 
 482:./Libraries/STM32F4xx_HAL_Driver/Src/stm32f4xx_hal_flash_ex.c ****   /* Mask SPRMOD bit */
 483:./Libraries/STM32F4xx_HAL_Driver/Src/stm32f4xx_hal_flash_ex.c ****   optiontmp =  (uint8_t)((*(__IO uint8_t *)OPTCR_BYTE3_ADDRESS) & (uint8_t)0x7F); 
 484:./Libraries/STM32F4xx_HAL_Driver/Src/stm32f4xx_hal_flash_ex.c ****   
 485:./Libraries/STM32F4xx_HAL_Driver/Src/stm32f4xx_hal_flash_ex.c ****   /* Update Option Byte */
 486:./Libraries/STM32F4xx_HAL_Driver/Src/stm32f4xx_hal_flash_ex.c ****   *(__IO uint8_t *)OPTCR_BYTE3_ADDRESS = (uint8_t)(OB_PCROP_SELECTED | optiontmp); 
ARM GAS  /tmp/ccuOvNEu.s 			page 10


 487:./Libraries/STM32F4xx_HAL_Driver/Src/stm32f4xx_hal_flash_ex.c ****   
 488:./Libraries/STM32F4xx_HAL_Driver/Src/stm32f4xx_hal_flash_ex.c ****   return HAL_OK;
 489:./Libraries/STM32F4xx_HAL_Driver/Src/stm32f4xx_hal_flash_ex.c **** }
 490:./Libraries/STM32F4xx_HAL_Driver/Src/stm32f4xx_hal_flash_ex.c **** 
 491:./Libraries/STM32F4xx_HAL_Driver/Src/stm32f4xx_hal_flash_ex.c **** /**
 492:./Libraries/STM32F4xx_HAL_Driver/Src/stm32f4xx_hal_flash_ex.c ****   * @brief  Deselect the Protection Mode 
 493:./Libraries/STM32F4xx_HAL_Driver/Src/stm32f4xx_hal_flash_ex.c ****   * 
 494:./Libraries/STM32F4xx_HAL_Driver/Src/stm32f4xx_hal_flash_ex.c ****   * @note   After PCROP activated Option Byte modification NOT POSSIBLE! excepted 
 495:./Libraries/STM32F4xx_HAL_Driver/Src/stm32f4xx_hal_flash_ex.c ****   *         Global Read Out Protection modification (from level1 to level0) 
 496:./Libraries/STM32F4xx_HAL_Driver/Src/stm32f4xx_hal_flash_ex.c ****   * @note   Once SPRMOD bit is active unprotection of a protected sector is not possible 
 497:./Libraries/STM32F4xx_HAL_Driver/Src/stm32f4xx_hal_flash_ex.c ****   * @note   Read a protected sector will set RDERR Flag and write a protected sector will set WRPER
 498:./Libraries/STM32F4xx_HAL_Driver/Src/stm32f4xx_hal_flash_ex.c ****   * @note   This function can be used only for STM32F42xxx/STM32F43xxx/STM32F401xx/STM32F411xx/STM3
 499:./Libraries/STM32F4xx_HAL_Driver/Src/stm32f4xx_hal_flash_ex.c ****   *         STM32F469xx/STM32F479xx/STM32F412xx/STM32F413xx devices.
 500:./Libraries/STM32F4xx_HAL_Driver/Src/stm32f4xx_hal_flash_ex.c ****   * 
 501:./Libraries/STM32F4xx_HAL_Driver/Src/stm32f4xx_hal_flash_ex.c ****   * @retval HAL Status
 502:./Libraries/STM32F4xx_HAL_Driver/Src/stm32f4xx_hal_flash_ex.c ****   */
 503:./Libraries/STM32F4xx_HAL_Driver/Src/stm32f4xx_hal_flash_ex.c **** HAL_StatusTypeDef HAL_FLASHEx_OB_DeSelectPCROP(void)
 504:./Libraries/STM32F4xx_HAL_Driver/Src/stm32f4xx_hal_flash_ex.c **** {
 505:./Libraries/STM32F4xx_HAL_Driver/Src/stm32f4xx_hal_flash_ex.c ****   uint8_t optiontmp = 0xFF;
 506:./Libraries/STM32F4xx_HAL_Driver/Src/stm32f4xx_hal_flash_ex.c ****   
 507:./Libraries/STM32F4xx_HAL_Driver/Src/stm32f4xx_hal_flash_ex.c ****   /* Mask SPRMOD bit */
 508:./Libraries/STM32F4xx_HAL_Driver/Src/stm32f4xx_hal_flash_ex.c ****   optiontmp =  (uint8_t)((*(__IO uint8_t *)OPTCR_BYTE3_ADDRESS) & (uint8_t)0x7F); 
 509:./Libraries/STM32F4xx_HAL_Driver/Src/stm32f4xx_hal_flash_ex.c ****   
 510:./Libraries/STM32F4xx_HAL_Driver/Src/stm32f4xx_hal_flash_ex.c ****   /* Update Option Byte */
 511:./Libraries/STM32F4xx_HAL_Driver/Src/stm32f4xx_hal_flash_ex.c ****   *(__IO uint8_t *)OPTCR_BYTE3_ADDRESS = (uint8_t)(OB_PCROP_DESELECTED | optiontmp);  
 512:./Libraries/STM32F4xx_HAL_Driver/Src/stm32f4xx_hal_flash_ex.c ****   
 513:./Libraries/STM32F4xx_HAL_Driver/Src/stm32f4xx_hal_flash_ex.c ****   return HAL_OK;
 514:./Libraries/STM32F4xx_HAL_Driver/Src/stm32f4xx_hal_flash_ex.c **** }
 515:./Libraries/STM32F4xx_HAL_Driver/Src/stm32f4xx_hal_flash_ex.c **** #endif /* STM32F427xx || STM32F437xx || STM32F429xx || STM32F439xx || STM32F401xC || STM32F401xE ||
 516:./Libraries/STM32F4xx_HAL_Driver/Src/stm32f4xx_hal_flash_ex.c ****           STM32F411xE || STM32F469xx || STM32F479xx || STM32F412Zx || STM32F412Vx || STM32F412Rx ||
 517:./Libraries/STM32F4xx_HAL_Driver/Src/stm32f4xx_hal_flash_ex.c ****           STM32F413xx || STM32F423xx */
 518:./Libraries/STM32F4xx_HAL_Driver/Src/stm32f4xx_hal_flash_ex.c **** 
 519:./Libraries/STM32F4xx_HAL_Driver/Src/stm32f4xx_hal_flash_ex.c **** #if defined(STM32F427xx) || defined(STM32F437xx) || defined(STM32F429xx)|| defined(STM32F439xx) || 
 520:./Libraries/STM32F4xx_HAL_Driver/Src/stm32f4xx_hal_flash_ex.c **** /**
 521:./Libraries/STM32F4xx_HAL_Driver/Src/stm32f4xx_hal_flash_ex.c ****   * @brief  Returns the FLASH Write Protection Option Bytes value for Bank 2
 522:./Libraries/STM32F4xx_HAL_Driver/Src/stm32f4xx_hal_flash_ex.c ****   * @note   This function can be used only for STM32F42xxx/STM32F43xxx/STM32F469xx/STM32F479xx devi
 523:./Libraries/STM32F4xx_HAL_Driver/Src/stm32f4xx_hal_flash_ex.c ****   * @retval The FLASH Write Protection  Option Bytes value
 524:./Libraries/STM32F4xx_HAL_Driver/Src/stm32f4xx_hal_flash_ex.c ****   */
 525:./Libraries/STM32F4xx_HAL_Driver/Src/stm32f4xx_hal_flash_ex.c **** uint16_t HAL_FLASHEx_OB_GetBank2WRP(void)
 526:./Libraries/STM32F4xx_HAL_Driver/Src/stm32f4xx_hal_flash_ex.c **** {                            
 527:./Libraries/STM32F4xx_HAL_Driver/Src/stm32f4xx_hal_flash_ex.c ****   /* Return the FLASH write protection Register value */
 528:./Libraries/STM32F4xx_HAL_Driver/Src/stm32f4xx_hal_flash_ex.c ****   return (*(__IO uint16_t *)(OPTCR1_BYTE2_ADDRESS));
 529:./Libraries/STM32F4xx_HAL_Driver/Src/stm32f4xx_hal_flash_ex.c **** }
 530:./Libraries/STM32F4xx_HAL_Driver/Src/stm32f4xx_hal_flash_ex.c **** #endif /* STM32F427xx || STM32F437xx || STM32F429xx || STM32F439xx || STM32F469xx || STM32F479xx */
 531:./Libraries/STM32F4xx_HAL_Driver/Src/stm32f4xx_hal_flash_ex.c **** 
 532:./Libraries/STM32F4xx_HAL_Driver/Src/stm32f4xx_hal_flash_ex.c **** /**
 533:./Libraries/STM32F4xx_HAL_Driver/Src/stm32f4xx_hal_flash_ex.c ****   * @}
 534:./Libraries/STM32F4xx_HAL_Driver/Src/stm32f4xx_hal_flash_ex.c ****   */
 535:./Libraries/STM32F4xx_HAL_Driver/Src/stm32f4xx_hal_flash_ex.c ****   
 536:./Libraries/STM32F4xx_HAL_Driver/Src/stm32f4xx_hal_flash_ex.c **** #if defined(STM32F427xx) || defined(STM32F437xx) || defined(STM32F429xx) || defined(STM32F439xx) ||
 537:./Libraries/STM32F4xx_HAL_Driver/Src/stm32f4xx_hal_flash_ex.c **** /**
 538:./Libraries/STM32F4xx_HAL_Driver/Src/stm32f4xx_hal_flash_ex.c ****   * @brief  Full erase of FLASH memory sectors 
 539:./Libraries/STM32F4xx_HAL_Driver/Src/stm32f4xx_hal_flash_ex.c ****   * @param  VoltageRange The device voltage range which defines the erase parallelism.  
 540:./Libraries/STM32F4xx_HAL_Driver/Src/stm32f4xx_hal_flash_ex.c ****   *          This parameter can be one of the following values:
 541:./Libraries/STM32F4xx_HAL_Driver/Src/stm32f4xx_hal_flash_ex.c ****   *            @arg FLASH_VOLTAGE_RANGE_1: when the device voltage range is 1.8V to 2.1V, 
 542:./Libraries/STM32F4xx_HAL_Driver/Src/stm32f4xx_hal_flash_ex.c ****   *                                  the operation will be done by byte (8-bit) 
 543:./Libraries/STM32F4xx_HAL_Driver/Src/stm32f4xx_hal_flash_ex.c ****   *            @arg FLASH_VOLTAGE_RANGE_2: when the device voltage range is 2.1V to 2.7V,
ARM GAS  /tmp/ccuOvNEu.s 			page 11


 544:./Libraries/STM32F4xx_HAL_Driver/Src/stm32f4xx_hal_flash_ex.c ****   *                                  the operation will be done by half word (16-bit)
 545:./Libraries/STM32F4xx_HAL_Driver/Src/stm32f4xx_hal_flash_ex.c ****   *            @arg FLASH_VOLTAGE_RANGE_3: when the device voltage range is 2.7V to 3.6V,
 546:./Libraries/STM32F4xx_HAL_Driver/Src/stm32f4xx_hal_flash_ex.c ****   *                                  the operation will be done by word (32-bit)
 547:./Libraries/STM32F4xx_HAL_Driver/Src/stm32f4xx_hal_flash_ex.c ****   *            @arg FLASH_VOLTAGE_RANGE_4: when the device voltage range is 2.7V to 3.6V + External
 548:./Libraries/STM32F4xx_HAL_Driver/Src/stm32f4xx_hal_flash_ex.c ****   *                                  the operation will be done by double word (64-bit)
 549:./Libraries/STM32F4xx_HAL_Driver/Src/stm32f4xx_hal_flash_ex.c ****   * 
 550:./Libraries/STM32F4xx_HAL_Driver/Src/stm32f4xx_hal_flash_ex.c ****   * @param  Banks Banks to be erased
 551:./Libraries/STM32F4xx_HAL_Driver/Src/stm32f4xx_hal_flash_ex.c ****   *          This parameter can be one of the following values:
 552:./Libraries/STM32F4xx_HAL_Driver/Src/stm32f4xx_hal_flash_ex.c ****   *            @arg FLASH_BANK_1: Bank1 to be erased
 553:./Libraries/STM32F4xx_HAL_Driver/Src/stm32f4xx_hal_flash_ex.c ****   *            @arg FLASH_BANK_2: Bank2 to be erased
 554:./Libraries/STM32F4xx_HAL_Driver/Src/stm32f4xx_hal_flash_ex.c ****   *            @arg FLASH_BANK_BOTH: Bank1 and Bank2 to be erased
 555:./Libraries/STM32F4xx_HAL_Driver/Src/stm32f4xx_hal_flash_ex.c ****   *
 556:./Libraries/STM32F4xx_HAL_Driver/Src/stm32f4xx_hal_flash_ex.c ****   * @retval HAL Status
 557:./Libraries/STM32F4xx_HAL_Driver/Src/stm32f4xx_hal_flash_ex.c ****   */
 558:./Libraries/STM32F4xx_HAL_Driver/Src/stm32f4xx_hal_flash_ex.c **** static void FLASH_MassErase(uint8_t VoltageRange, uint32_t Banks)
 559:./Libraries/STM32F4xx_HAL_Driver/Src/stm32f4xx_hal_flash_ex.c **** {
  29              		.loc 1 559 1 view -0
  30              		.cfi_startproc
  31              		@ args = 0, pretend = 0, frame = 0
  32              		@ frame_needed = 0, uses_anonymous_args = 0
  33              		@ link register save eliminated.
 560:./Libraries/STM32F4xx_HAL_Driver/Src/stm32f4xx_hal_flash_ex.c ****   /* Check the parameters */
 561:./Libraries/STM32F4xx_HAL_Driver/Src/stm32f4xx_hal_flash_ex.c ****   assert_param(IS_VOLTAGERANGE(VoltageRange));
  34              		.loc 1 561 3 view .LVU1
 562:./Libraries/STM32F4xx_HAL_Driver/Src/stm32f4xx_hal_flash_ex.c ****   assert_param(IS_FLASH_BANK(Banks));
  35              		.loc 1 562 3 view .LVU2
 563:./Libraries/STM32F4xx_HAL_Driver/Src/stm32f4xx_hal_flash_ex.c **** 
 564:./Libraries/STM32F4xx_HAL_Driver/Src/stm32f4xx_hal_flash_ex.c ****   /* if the previous operation is completed, proceed to erase all sectors */
 565:./Libraries/STM32F4xx_HAL_Driver/Src/stm32f4xx_hal_flash_ex.c ****   CLEAR_BIT(FLASH->CR, FLASH_CR_PSIZE);
  36              		.loc 1 565 3 view .LVU3
  37 0000 114A     		ldr	r2, .L7
  38 0002 1369     		ldr	r3, [r2, #16]
  39 0004 23F44073 		bic	r3, r3, #768
  40 0008 1361     		str	r3, [r2, #16]
 566:./Libraries/STM32F4xx_HAL_Driver/Src/stm32f4xx_hal_flash_ex.c **** 
 567:./Libraries/STM32F4xx_HAL_Driver/Src/stm32f4xx_hal_flash_ex.c ****   if(Banks == FLASH_BANK_BOTH)
  41              		.loc 1 567 3 view .LVU4
  42              		.loc 1 567 5 is_stmt 0 view .LVU5
  43 000a 0329     		cmp	r1, #3
  44 000c 0ED0     		beq	.L5
 568:./Libraries/STM32F4xx_HAL_Driver/Src/stm32f4xx_hal_flash_ex.c ****   {
 569:./Libraries/STM32F4xx_HAL_Driver/Src/stm32f4xx_hal_flash_ex.c ****     /* bank1 & bank2 will be erased*/
 570:./Libraries/STM32F4xx_HAL_Driver/Src/stm32f4xx_hal_flash_ex.c ****     FLASH->CR |= FLASH_MER_BIT;
 571:./Libraries/STM32F4xx_HAL_Driver/Src/stm32f4xx_hal_flash_ex.c ****   }
 572:./Libraries/STM32F4xx_HAL_Driver/Src/stm32f4xx_hal_flash_ex.c ****   else if(Banks == FLASH_BANK_1)
  45              		.loc 1 572 8 is_stmt 1 view .LVU6
  46              		.loc 1 572 10 is_stmt 0 view .LVU7
  47 000e 0129     		cmp	r1, #1
  48 0010 13D0     		beq	.L6
 573:./Libraries/STM32F4xx_HAL_Driver/Src/stm32f4xx_hal_flash_ex.c ****   {
 574:./Libraries/STM32F4xx_HAL_Driver/Src/stm32f4xx_hal_flash_ex.c ****     /*Only bank1 will be erased*/
 575:./Libraries/STM32F4xx_HAL_Driver/Src/stm32f4xx_hal_flash_ex.c ****     FLASH->CR |= FLASH_CR_MER1;
 576:./Libraries/STM32F4xx_HAL_Driver/Src/stm32f4xx_hal_flash_ex.c ****   }
 577:./Libraries/STM32F4xx_HAL_Driver/Src/stm32f4xx_hal_flash_ex.c ****   else
 578:./Libraries/STM32F4xx_HAL_Driver/Src/stm32f4xx_hal_flash_ex.c ****   {
 579:./Libraries/STM32F4xx_HAL_Driver/Src/stm32f4xx_hal_flash_ex.c ****     /*Only bank2 will be erased*/
 580:./Libraries/STM32F4xx_HAL_Driver/Src/stm32f4xx_hal_flash_ex.c ****     FLASH->CR |= FLASH_CR_MER2;
ARM GAS  /tmp/ccuOvNEu.s 			page 12


  49              		.loc 1 580 5 is_stmt 1 view .LVU8
  50              		.loc 1 580 15 is_stmt 0 view .LVU9
  51 0012 0D4A     		ldr	r2, .L7
  52 0014 1369     		ldr	r3, [r2, #16]
  53 0016 43F40043 		orr	r3, r3, #32768
  54 001a 1361     		str	r3, [r2, #16]
  55              	.L3:
 581:./Libraries/STM32F4xx_HAL_Driver/Src/stm32f4xx_hal_flash_ex.c ****   }
 582:./Libraries/STM32F4xx_HAL_Driver/Src/stm32f4xx_hal_flash_ex.c ****   FLASH->CR |= FLASH_CR_STRT | ((uint32_t)VoltageRange <<8U);
  56              		.loc 1 582 3 is_stmt 1 view .LVU10
  57              		.loc 1 582 13 is_stmt 0 view .LVU11
  58 001c 0A4A     		ldr	r2, .L7
  59 001e 1369     		ldr	r3, [r2, #16]
  60 0020 43EA0020 		orr	r0, r3, r0, lsl #8
  61              	.LVL1:
  62              		.loc 1 582 13 view .LVU12
  63 0024 40F48030 		orr	r0, r0, #65536
  64 0028 1061     		str	r0, [r2, #16]
 583:./Libraries/STM32F4xx_HAL_Driver/Src/stm32f4xx_hal_flash_ex.c **** }
  65              		.loc 1 583 1 view .LVU13
  66 002a 7047     		bx	lr
  67              	.LVL2:
  68              	.L5:
 570:./Libraries/STM32F4xx_HAL_Driver/Src/stm32f4xx_hal_flash_ex.c ****   }
  69              		.loc 1 570 5 is_stmt 1 view .LVU14
 570:./Libraries/STM32F4xx_HAL_Driver/Src/stm32f4xx_hal_flash_ex.c ****   }
  70              		.loc 1 570 15 is_stmt 0 view .LVU15
  71 002c 1369     		ldr	r3, [r2, #16]
  72 002e 43F40043 		orr	r3, r3, #32768
  73 0032 43F00403 		orr	r3, r3, #4
  74 0036 1361     		str	r3, [r2, #16]
  75 0038 F0E7     		b	.L3
  76              	.L6:
 575:./Libraries/STM32F4xx_HAL_Driver/Src/stm32f4xx_hal_flash_ex.c ****   }
  77              		.loc 1 575 5 is_stmt 1 view .LVU16
 575:./Libraries/STM32F4xx_HAL_Driver/Src/stm32f4xx_hal_flash_ex.c ****   }
  78              		.loc 1 575 15 is_stmt 0 view .LVU17
  79 003a 034A     		ldr	r2, .L7
  80 003c 1369     		ldr	r3, [r2, #16]
  81 003e 43F00403 		orr	r3, r3, #4
  82 0042 1361     		str	r3, [r2, #16]
  83 0044 EAE7     		b	.L3
  84              	.L8:
  85 0046 00BF     		.align	2
  86              	.L7:
  87 0048 003C0240 		.word	1073888256
  88              		.cfi_endproc
  89              	.LFE135:
  91              		.section	.text.FLASH_OB_BOR_LevelConfig,"ax",%progbits
  92              		.align	1
  93              		.syntax unified
  94              		.thumb
  95              		.thumb_func
  96              		.fpu fpv4-sp-d16
  98              	FLASH_OB_BOR_LevelConfig:
  99              	.LVL3:
 100              	.LFB144:
ARM GAS  /tmp/ccuOvNEu.s 			page 13


 584:./Libraries/STM32F4xx_HAL_Driver/Src/stm32f4xx_hal_flash_ex.c **** 
 585:./Libraries/STM32F4xx_HAL_Driver/Src/stm32f4xx_hal_flash_ex.c **** /**
 586:./Libraries/STM32F4xx_HAL_Driver/Src/stm32f4xx_hal_flash_ex.c ****   * @brief  Erase the specified FLASH memory sector
 587:./Libraries/STM32F4xx_HAL_Driver/Src/stm32f4xx_hal_flash_ex.c ****   * @param  Sector FLASH sector to erase
 588:./Libraries/STM32F4xx_HAL_Driver/Src/stm32f4xx_hal_flash_ex.c ****   *         The value of this parameter depend on device used within the same series      
 589:./Libraries/STM32F4xx_HAL_Driver/Src/stm32f4xx_hal_flash_ex.c ****   * @param  VoltageRange The device voltage range which defines the erase parallelism.  
 590:./Libraries/STM32F4xx_HAL_Driver/Src/stm32f4xx_hal_flash_ex.c ****   *          This parameter can be one of the following values:
 591:./Libraries/STM32F4xx_HAL_Driver/Src/stm32f4xx_hal_flash_ex.c ****   *            @arg FLASH_VOLTAGE_RANGE_1: when the device voltage range is 1.8V to 2.1V, 
 592:./Libraries/STM32F4xx_HAL_Driver/Src/stm32f4xx_hal_flash_ex.c ****   *                                  the operation will be done by byte (8-bit) 
 593:./Libraries/STM32F4xx_HAL_Driver/Src/stm32f4xx_hal_flash_ex.c ****   *            @arg FLASH_VOLTAGE_RANGE_2: when the device voltage range is 2.1V to 2.7V,
 594:./Libraries/STM32F4xx_HAL_Driver/Src/stm32f4xx_hal_flash_ex.c ****   *                                  the operation will be done by half word (16-bit)
 595:./Libraries/STM32F4xx_HAL_Driver/Src/stm32f4xx_hal_flash_ex.c ****   *            @arg FLASH_VOLTAGE_RANGE_3: when the device voltage range is 2.7V to 3.6V,
 596:./Libraries/STM32F4xx_HAL_Driver/Src/stm32f4xx_hal_flash_ex.c ****   *                                  the operation will be done by word (32-bit)
 597:./Libraries/STM32F4xx_HAL_Driver/Src/stm32f4xx_hal_flash_ex.c ****   *            @arg FLASH_VOLTAGE_RANGE_4: when the device voltage range is 2.7V to 3.6V + External
 598:./Libraries/STM32F4xx_HAL_Driver/Src/stm32f4xx_hal_flash_ex.c ****   *                                  the operation will be done by double word (64-bit)
 599:./Libraries/STM32F4xx_HAL_Driver/Src/stm32f4xx_hal_flash_ex.c ****   * 
 600:./Libraries/STM32F4xx_HAL_Driver/Src/stm32f4xx_hal_flash_ex.c ****   * @retval None
 601:./Libraries/STM32F4xx_HAL_Driver/Src/stm32f4xx_hal_flash_ex.c ****   */
 602:./Libraries/STM32F4xx_HAL_Driver/Src/stm32f4xx_hal_flash_ex.c **** void FLASH_Erase_Sector(uint32_t Sector, uint8_t VoltageRange)
 603:./Libraries/STM32F4xx_HAL_Driver/Src/stm32f4xx_hal_flash_ex.c **** {
 604:./Libraries/STM32F4xx_HAL_Driver/Src/stm32f4xx_hal_flash_ex.c ****   uint32_t tmp_psize = 0U;
 605:./Libraries/STM32F4xx_HAL_Driver/Src/stm32f4xx_hal_flash_ex.c **** 
 606:./Libraries/STM32F4xx_HAL_Driver/Src/stm32f4xx_hal_flash_ex.c ****   /* Check the parameters */
 607:./Libraries/STM32F4xx_HAL_Driver/Src/stm32f4xx_hal_flash_ex.c ****   assert_param(IS_FLASH_SECTOR(Sector));
 608:./Libraries/STM32F4xx_HAL_Driver/Src/stm32f4xx_hal_flash_ex.c ****   assert_param(IS_VOLTAGERANGE(VoltageRange));
 609:./Libraries/STM32F4xx_HAL_Driver/Src/stm32f4xx_hal_flash_ex.c ****   
 610:./Libraries/STM32F4xx_HAL_Driver/Src/stm32f4xx_hal_flash_ex.c ****   if(VoltageRange == FLASH_VOLTAGE_RANGE_1)
 611:./Libraries/STM32F4xx_HAL_Driver/Src/stm32f4xx_hal_flash_ex.c ****   {
 612:./Libraries/STM32F4xx_HAL_Driver/Src/stm32f4xx_hal_flash_ex.c ****      tmp_psize = FLASH_PSIZE_BYTE;
 613:./Libraries/STM32F4xx_HAL_Driver/Src/stm32f4xx_hal_flash_ex.c ****   }
 614:./Libraries/STM32F4xx_HAL_Driver/Src/stm32f4xx_hal_flash_ex.c ****   else if(VoltageRange == FLASH_VOLTAGE_RANGE_2)
 615:./Libraries/STM32F4xx_HAL_Driver/Src/stm32f4xx_hal_flash_ex.c ****   {
 616:./Libraries/STM32F4xx_HAL_Driver/Src/stm32f4xx_hal_flash_ex.c ****     tmp_psize = FLASH_PSIZE_HALF_WORD;
 617:./Libraries/STM32F4xx_HAL_Driver/Src/stm32f4xx_hal_flash_ex.c ****   }
 618:./Libraries/STM32F4xx_HAL_Driver/Src/stm32f4xx_hal_flash_ex.c ****   else if(VoltageRange == FLASH_VOLTAGE_RANGE_3)
 619:./Libraries/STM32F4xx_HAL_Driver/Src/stm32f4xx_hal_flash_ex.c ****   {
 620:./Libraries/STM32F4xx_HAL_Driver/Src/stm32f4xx_hal_flash_ex.c ****     tmp_psize = FLASH_PSIZE_WORD;
 621:./Libraries/STM32F4xx_HAL_Driver/Src/stm32f4xx_hal_flash_ex.c ****   }
 622:./Libraries/STM32F4xx_HAL_Driver/Src/stm32f4xx_hal_flash_ex.c ****   else
 623:./Libraries/STM32F4xx_HAL_Driver/Src/stm32f4xx_hal_flash_ex.c ****   {
 624:./Libraries/STM32F4xx_HAL_Driver/Src/stm32f4xx_hal_flash_ex.c ****     tmp_psize = FLASH_PSIZE_DOUBLE_WORD;
 625:./Libraries/STM32F4xx_HAL_Driver/Src/stm32f4xx_hal_flash_ex.c ****   }
 626:./Libraries/STM32F4xx_HAL_Driver/Src/stm32f4xx_hal_flash_ex.c **** 
 627:./Libraries/STM32F4xx_HAL_Driver/Src/stm32f4xx_hal_flash_ex.c ****   /* Need to add offset of 4 when sector higher than FLASH_SECTOR_11 */
 628:./Libraries/STM32F4xx_HAL_Driver/Src/stm32f4xx_hal_flash_ex.c ****   if(Sector > FLASH_SECTOR_11) 
 629:./Libraries/STM32F4xx_HAL_Driver/Src/stm32f4xx_hal_flash_ex.c ****   {
 630:./Libraries/STM32F4xx_HAL_Driver/Src/stm32f4xx_hal_flash_ex.c ****     Sector += 4U;
 631:./Libraries/STM32F4xx_HAL_Driver/Src/stm32f4xx_hal_flash_ex.c ****   }
 632:./Libraries/STM32F4xx_HAL_Driver/Src/stm32f4xx_hal_flash_ex.c ****   /* If the previous operation is completed, proceed to erase the sector */
 633:./Libraries/STM32F4xx_HAL_Driver/Src/stm32f4xx_hal_flash_ex.c ****   CLEAR_BIT(FLASH->CR, FLASH_CR_PSIZE);
 634:./Libraries/STM32F4xx_HAL_Driver/Src/stm32f4xx_hal_flash_ex.c ****   FLASH->CR |= tmp_psize;
 635:./Libraries/STM32F4xx_HAL_Driver/Src/stm32f4xx_hal_flash_ex.c ****   CLEAR_BIT(FLASH->CR, FLASH_CR_SNB);
 636:./Libraries/STM32F4xx_HAL_Driver/Src/stm32f4xx_hal_flash_ex.c ****   FLASH->CR |= FLASH_CR_SER | (Sector << FLASH_CR_SNB_Pos);
 637:./Libraries/STM32F4xx_HAL_Driver/Src/stm32f4xx_hal_flash_ex.c ****   FLASH->CR |= FLASH_CR_STRT;
 638:./Libraries/STM32F4xx_HAL_Driver/Src/stm32f4xx_hal_flash_ex.c **** }
 639:./Libraries/STM32F4xx_HAL_Driver/Src/stm32f4xx_hal_flash_ex.c **** 
 640:./Libraries/STM32F4xx_HAL_Driver/Src/stm32f4xx_hal_flash_ex.c **** /**
ARM GAS  /tmp/ccuOvNEu.s 			page 14


 641:./Libraries/STM32F4xx_HAL_Driver/Src/stm32f4xx_hal_flash_ex.c ****   * @brief  Enable the write protection of the desired bank1 or bank 2 sectors
 642:./Libraries/STM32F4xx_HAL_Driver/Src/stm32f4xx_hal_flash_ex.c ****   *
 643:./Libraries/STM32F4xx_HAL_Driver/Src/stm32f4xx_hal_flash_ex.c ****   * @note   When the memory read protection level is selected (RDP level = 1), 
 644:./Libraries/STM32F4xx_HAL_Driver/Src/stm32f4xx_hal_flash_ex.c ****   *         it is not possible to program or erase the flash sector i if CortexM4  
 645:./Libraries/STM32F4xx_HAL_Driver/Src/stm32f4xx_hal_flash_ex.c ****   *         debug features are connected or boot code is executed in RAM, even if nWRPi = 1 
 646:./Libraries/STM32F4xx_HAL_Driver/Src/stm32f4xx_hal_flash_ex.c ****   * @note   Active value of nWRPi bits is inverted when PCROP mode is active (SPRMOD =1).   
 647:./Libraries/STM32F4xx_HAL_Driver/Src/stm32f4xx_hal_flash_ex.c ****   * 
 648:./Libraries/STM32F4xx_HAL_Driver/Src/stm32f4xx_hal_flash_ex.c ****   * @param  WRPSector specifies the sector(s) to be write protected.
 649:./Libraries/STM32F4xx_HAL_Driver/Src/stm32f4xx_hal_flash_ex.c ****   *          This parameter can be one of the following values:
 650:./Libraries/STM32F4xx_HAL_Driver/Src/stm32f4xx_hal_flash_ex.c ****   *            @arg WRPSector: A value between OB_WRP_SECTOR_0 and OB_WRP_SECTOR_23
 651:./Libraries/STM32F4xx_HAL_Driver/Src/stm32f4xx_hal_flash_ex.c ****   *            @arg OB_WRP_SECTOR_All
 652:./Libraries/STM32F4xx_HAL_Driver/Src/stm32f4xx_hal_flash_ex.c ****   * @note   BANK2 starts from OB_WRP_SECTOR_12
 653:./Libraries/STM32F4xx_HAL_Driver/Src/stm32f4xx_hal_flash_ex.c ****   *
 654:./Libraries/STM32F4xx_HAL_Driver/Src/stm32f4xx_hal_flash_ex.c ****   * @param  Banks Enable write protection on all the sectors for the specific bank
 655:./Libraries/STM32F4xx_HAL_Driver/Src/stm32f4xx_hal_flash_ex.c ****   *          This parameter can be one of the following values:
 656:./Libraries/STM32F4xx_HAL_Driver/Src/stm32f4xx_hal_flash_ex.c ****   *            @arg FLASH_BANK_1: WRP on all sectors of bank1
 657:./Libraries/STM32F4xx_HAL_Driver/Src/stm32f4xx_hal_flash_ex.c ****   *            @arg FLASH_BANK_2: WRP on all sectors of bank2
 658:./Libraries/STM32F4xx_HAL_Driver/Src/stm32f4xx_hal_flash_ex.c ****   *            @arg FLASH_BANK_BOTH: WRP on all sectors of bank1 & bank2
 659:./Libraries/STM32F4xx_HAL_Driver/Src/stm32f4xx_hal_flash_ex.c ****   *
 660:./Libraries/STM32F4xx_HAL_Driver/Src/stm32f4xx_hal_flash_ex.c ****   * @retval HAL FLASH State   
 661:./Libraries/STM32F4xx_HAL_Driver/Src/stm32f4xx_hal_flash_ex.c ****   */
 662:./Libraries/STM32F4xx_HAL_Driver/Src/stm32f4xx_hal_flash_ex.c **** static HAL_StatusTypeDef FLASH_OB_EnableWRP(uint32_t WRPSector, uint32_t Banks)
 663:./Libraries/STM32F4xx_HAL_Driver/Src/stm32f4xx_hal_flash_ex.c **** {
 664:./Libraries/STM32F4xx_HAL_Driver/Src/stm32f4xx_hal_flash_ex.c ****   HAL_StatusTypeDef status = HAL_OK;
 665:./Libraries/STM32F4xx_HAL_Driver/Src/stm32f4xx_hal_flash_ex.c ****   
 666:./Libraries/STM32F4xx_HAL_Driver/Src/stm32f4xx_hal_flash_ex.c ****   /* Check the parameters */
 667:./Libraries/STM32F4xx_HAL_Driver/Src/stm32f4xx_hal_flash_ex.c ****   assert_param(IS_OB_WRP_SECTOR(WRPSector));
 668:./Libraries/STM32F4xx_HAL_Driver/Src/stm32f4xx_hal_flash_ex.c ****   assert_param(IS_FLASH_BANK(Banks));
 669:./Libraries/STM32F4xx_HAL_Driver/Src/stm32f4xx_hal_flash_ex.c ****     
 670:./Libraries/STM32F4xx_HAL_Driver/Src/stm32f4xx_hal_flash_ex.c ****   /* Wait for last operation to be completed */
 671:./Libraries/STM32F4xx_HAL_Driver/Src/stm32f4xx_hal_flash_ex.c ****   status = FLASH_WaitForLastOperation((uint32_t)FLASH_TIMEOUT_VALUE);
 672:./Libraries/STM32F4xx_HAL_Driver/Src/stm32f4xx_hal_flash_ex.c **** 
 673:./Libraries/STM32F4xx_HAL_Driver/Src/stm32f4xx_hal_flash_ex.c ****   if(status == HAL_OK)
 674:./Libraries/STM32F4xx_HAL_Driver/Src/stm32f4xx_hal_flash_ex.c ****   {
 675:./Libraries/STM32F4xx_HAL_Driver/Src/stm32f4xx_hal_flash_ex.c ****     if(((WRPSector == OB_WRP_SECTOR_All) && ((Banks == FLASH_BANK_1) || (Banks == FLASH_BANK_BOTH))
 676:./Libraries/STM32F4xx_HAL_Driver/Src/stm32f4xx_hal_flash_ex.c ****          (WRPSector < OB_WRP_SECTOR_12))
 677:./Libraries/STM32F4xx_HAL_Driver/Src/stm32f4xx_hal_flash_ex.c ****     {
 678:./Libraries/STM32F4xx_HAL_Driver/Src/stm32f4xx_hal_flash_ex.c ****        if(WRPSector == OB_WRP_SECTOR_All)
 679:./Libraries/STM32F4xx_HAL_Driver/Src/stm32f4xx_hal_flash_ex.c ****        {
 680:./Libraries/STM32F4xx_HAL_Driver/Src/stm32f4xx_hal_flash_ex.c ****           /*Write protection on all sector of BANK1*/
 681:./Libraries/STM32F4xx_HAL_Driver/Src/stm32f4xx_hal_flash_ex.c ****           *(__IO uint16_t*)OPTCR_BYTE2_ADDRESS &= (~(WRPSector>>12));  
 682:./Libraries/STM32F4xx_HAL_Driver/Src/stm32f4xx_hal_flash_ex.c ****        }
 683:./Libraries/STM32F4xx_HAL_Driver/Src/stm32f4xx_hal_flash_ex.c ****        else
 684:./Libraries/STM32F4xx_HAL_Driver/Src/stm32f4xx_hal_flash_ex.c ****        {
 685:./Libraries/STM32F4xx_HAL_Driver/Src/stm32f4xx_hal_flash_ex.c ****           /*Write protection done on sectors of BANK1*/
 686:./Libraries/STM32F4xx_HAL_Driver/Src/stm32f4xx_hal_flash_ex.c ****           *(__IO uint16_t*)OPTCR_BYTE2_ADDRESS &= (~WRPSector);  
 687:./Libraries/STM32F4xx_HAL_Driver/Src/stm32f4xx_hal_flash_ex.c ****        }
 688:./Libraries/STM32F4xx_HAL_Driver/Src/stm32f4xx_hal_flash_ex.c ****     }
 689:./Libraries/STM32F4xx_HAL_Driver/Src/stm32f4xx_hal_flash_ex.c ****     else 
 690:./Libraries/STM32F4xx_HAL_Driver/Src/stm32f4xx_hal_flash_ex.c ****     {
 691:./Libraries/STM32F4xx_HAL_Driver/Src/stm32f4xx_hal_flash_ex.c ****       /*Write protection done on sectors of BANK2*/
 692:./Libraries/STM32F4xx_HAL_Driver/Src/stm32f4xx_hal_flash_ex.c ****       *(__IO uint16_t*)OPTCR1_BYTE2_ADDRESS &= (~(WRPSector>>12));  
 693:./Libraries/STM32F4xx_HAL_Driver/Src/stm32f4xx_hal_flash_ex.c ****     }
 694:./Libraries/STM32F4xx_HAL_Driver/Src/stm32f4xx_hal_flash_ex.c **** 
 695:./Libraries/STM32F4xx_HAL_Driver/Src/stm32f4xx_hal_flash_ex.c ****     /*Write protection on all sector of BANK2*/
 696:./Libraries/STM32F4xx_HAL_Driver/Src/stm32f4xx_hal_flash_ex.c ****     if((WRPSector == OB_WRP_SECTOR_All) && (Banks == FLASH_BANK_BOTH))
 697:./Libraries/STM32F4xx_HAL_Driver/Src/stm32f4xx_hal_flash_ex.c ****     {
ARM GAS  /tmp/ccuOvNEu.s 			page 15


 698:./Libraries/STM32F4xx_HAL_Driver/Src/stm32f4xx_hal_flash_ex.c ****       /* Wait for last operation to be completed */
 699:./Libraries/STM32F4xx_HAL_Driver/Src/stm32f4xx_hal_flash_ex.c ****       status = FLASH_WaitForLastOperation((uint32_t)FLASH_TIMEOUT_VALUE);
 700:./Libraries/STM32F4xx_HAL_Driver/Src/stm32f4xx_hal_flash_ex.c ****       
 701:./Libraries/STM32F4xx_HAL_Driver/Src/stm32f4xx_hal_flash_ex.c ****       if(status == HAL_OK)
 702:./Libraries/STM32F4xx_HAL_Driver/Src/stm32f4xx_hal_flash_ex.c ****       { 
 703:./Libraries/STM32F4xx_HAL_Driver/Src/stm32f4xx_hal_flash_ex.c ****         *(__IO uint16_t*)OPTCR1_BYTE2_ADDRESS &= (~(WRPSector>>12));  
 704:./Libraries/STM32F4xx_HAL_Driver/Src/stm32f4xx_hal_flash_ex.c ****       }
 705:./Libraries/STM32F4xx_HAL_Driver/Src/stm32f4xx_hal_flash_ex.c ****     }
 706:./Libraries/STM32F4xx_HAL_Driver/Src/stm32f4xx_hal_flash_ex.c ****     
 707:./Libraries/STM32F4xx_HAL_Driver/Src/stm32f4xx_hal_flash_ex.c ****   }
 708:./Libraries/STM32F4xx_HAL_Driver/Src/stm32f4xx_hal_flash_ex.c ****   return status;
 709:./Libraries/STM32F4xx_HAL_Driver/Src/stm32f4xx_hal_flash_ex.c **** }
 710:./Libraries/STM32F4xx_HAL_Driver/Src/stm32f4xx_hal_flash_ex.c **** 
 711:./Libraries/STM32F4xx_HAL_Driver/Src/stm32f4xx_hal_flash_ex.c **** /**
 712:./Libraries/STM32F4xx_HAL_Driver/Src/stm32f4xx_hal_flash_ex.c ****   * @brief  Disable the write protection of the desired bank1 or bank 2 sectors
 713:./Libraries/STM32F4xx_HAL_Driver/Src/stm32f4xx_hal_flash_ex.c ****   *
 714:./Libraries/STM32F4xx_HAL_Driver/Src/stm32f4xx_hal_flash_ex.c ****   * @note   When the memory read protection level is selected (RDP level = 1), 
 715:./Libraries/STM32F4xx_HAL_Driver/Src/stm32f4xx_hal_flash_ex.c ****   *         it is not possible to program or erase the flash sector i if CortexM4  
 716:./Libraries/STM32F4xx_HAL_Driver/Src/stm32f4xx_hal_flash_ex.c ****   *         debug features are connected or boot code is executed in RAM, even if nWRPi = 1 
 717:./Libraries/STM32F4xx_HAL_Driver/Src/stm32f4xx_hal_flash_ex.c ****   * @note   Active value of nWRPi bits is inverted when PCROP mode is active (SPRMOD =1).   
 718:./Libraries/STM32F4xx_HAL_Driver/Src/stm32f4xx_hal_flash_ex.c ****   * 
 719:./Libraries/STM32F4xx_HAL_Driver/Src/stm32f4xx_hal_flash_ex.c ****   * @param  WRPSector specifies the sector(s) to be write protected.
 720:./Libraries/STM32F4xx_HAL_Driver/Src/stm32f4xx_hal_flash_ex.c ****   *          This parameter can be one of the following values:
 721:./Libraries/STM32F4xx_HAL_Driver/Src/stm32f4xx_hal_flash_ex.c ****   *            @arg WRPSector: A value between OB_WRP_SECTOR_0 and OB_WRP_SECTOR_23
 722:./Libraries/STM32F4xx_HAL_Driver/Src/stm32f4xx_hal_flash_ex.c ****   *            @arg OB_WRP_Sector_All
 723:./Libraries/STM32F4xx_HAL_Driver/Src/stm32f4xx_hal_flash_ex.c ****   * @note   BANK2 starts from OB_WRP_SECTOR_12
 724:./Libraries/STM32F4xx_HAL_Driver/Src/stm32f4xx_hal_flash_ex.c ****   *
 725:./Libraries/STM32F4xx_HAL_Driver/Src/stm32f4xx_hal_flash_ex.c ****   * @param  Banks Disable write protection on all the sectors for the specific bank
 726:./Libraries/STM32F4xx_HAL_Driver/Src/stm32f4xx_hal_flash_ex.c ****   *          This parameter can be one of the following values:
 727:./Libraries/STM32F4xx_HAL_Driver/Src/stm32f4xx_hal_flash_ex.c ****   *            @arg FLASH_BANK_1: Bank1 to be erased
 728:./Libraries/STM32F4xx_HAL_Driver/Src/stm32f4xx_hal_flash_ex.c ****   *            @arg FLASH_BANK_2: Bank2 to be erased
 729:./Libraries/STM32F4xx_HAL_Driver/Src/stm32f4xx_hal_flash_ex.c ****   *            @arg FLASH_BANK_BOTH: Bank1 and Bank2 to be erased
 730:./Libraries/STM32F4xx_HAL_Driver/Src/stm32f4xx_hal_flash_ex.c ****   *
 731:./Libraries/STM32F4xx_HAL_Driver/Src/stm32f4xx_hal_flash_ex.c ****   * @retval HAL Status   
 732:./Libraries/STM32F4xx_HAL_Driver/Src/stm32f4xx_hal_flash_ex.c ****   */
 733:./Libraries/STM32F4xx_HAL_Driver/Src/stm32f4xx_hal_flash_ex.c **** static HAL_StatusTypeDef FLASH_OB_DisableWRP(uint32_t WRPSector, uint32_t Banks)
 734:./Libraries/STM32F4xx_HAL_Driver/Src/stm32f4xx_hal_flash_ex.c **** {
 735:./Libraries/STM32F4xx_HAL_Driver/Src/stm32f4xx_hal_flash_ex.c ****   HAL_StatusTypeDef status = HAL_OK;
 736:./Libraries/STM32F4xx_HAL_Driver/Src/stm32f4xx_hal_flash_ex.c ****   
 737:./Libraries/STM32F4xx_HAL_Driver/Src/stm32f4xx_hal_flash_ex.c ****   /* Check the parameters */
 738:./Libraries/STM32F4xx_HAL_Driver/Src/stm32f4xx_hal_flash_ex.c ****   assert_param(IS_OB_WRP_SECTOR(WRPSector));
 739:./Libraries/STM32F4xx_HAL_Driver/Src/stm32f4xx_hal_flash_ex.c ****   assert_param(IS_FLASH_BANK(Banks));
 740:./Libraries/STM32F4xx_HAL_Driver/Src/stm32f4xx_hal_flash_ex.c ****     
 741:./Libraries/STM32F4xx_HAL_Driver/Src/stm32f4xx_hal_flash_ex.c ****   /* Wait for last operation to be completed */
 742:./Libraries/STM32F4xx_HAL_Driver/Src/stm32f4xx_hal_flash_ex.c ****   status = FLASH_WaitForLastOperation((uint32_t)FLASH_TIMEOUT_VALUE);
 743:./Libraries/STM32F4xx_HAL_Driver/Src/stm32f4xx_hal_flash_ex.c **** 
 744:./Libraries/STM32F4xx_HAL_Driver/Src/stm32f4xx_hal_flash_ex.c ****   if(status == HAL_OK)
 745:./Libraries/STM32F4xx_HAL_Driver/Src/stm32f4xx_hal_flash_ex.c ****   {
 746:./Libraries/STM32F4xx_HAL_Driver/Src/stm32f4xx_hal_flash_ex.c ****     if(((WRPSector == OB_WRP_SECTOR_All) && ((Banks == FLASH_BANK_1) || (Banks == FLASH_BANK_BOTH))
 747:./Libraries/STM32F4xx_HAL_Driver/Src/stm32f4xx_hal_flash_ex.c ****          (WRPSector < OB_WRP_SECTOR_12))
 748:./Libraries/STM32F4xx_HAL_Driver/Src/stm32f4xx_hal_flash_ex.c ****     {
 749:./Libraries/STM32F4xx_HAL_Driver/Src/stm32f4xx_hal_flash_ex.c ****        if(WRPSector == OB_WRP_SECTOR_All)
 750:./Libraries/STM32F4xx_HAL_Driver/Src/stm32f4xx_hal_flash_ex.c ****        {
 751:./Libraries/STM32F4xx_HAL_Driver/Src/stm32f4xx_hal_flash_ex.c ****           /*Write protection on all sector of BANK1*/
 752:./Libraries/STM32F4xx_HAL_Driver/Src/stm32f4xx_hal_flash_ex.c ****           *(__IO uint16_t*)OPTCR_BYTE2_ADDRESS |= (uint16_t)(WRPSector>>12); 
 753:./Libraries/STM32F4xx_HAL_Driver/Src/stm32f4xx_hal_flash_ex.c ****        }
 754:./Libraries/STM32F4xx_HAL_Driver/Src/stm32f4xx_hal_flash_ex.c ****        else
ARM GAS  /tmp/ccuOvNEu.s 			page 16


 755:./Libraries/STM32F4xx_HAL_Driver/Src/stm32f4xx_hal_flash_ex.c ****        {
 756:./Libraries/STM32F4xx_HAL_Driver/Src/stm32f4xx_hal_flash_ex.c ****           /*Write protection done on sectors of BANK1*/
 757:./Libraries/STM32F4xx_HAL_Driver/Src/stm32f4xx_hal_flash_ex.c ****           *(__IO uint16_t*)OPTCR_BYTE2_ADDRESS |= (uint16_t)WRPSector; 
 758:./Libraries/STM32F4xx_HAL_Driver/Src/stm32f4xx_hal_flash_ex.c ****        }
 759:./Libraries/STM32F4xx_HAL_Driver/Src/stm32f4xx_hal_flash_ex.c ****     }
 760:./Libraries/STM32F4xx_HAL_Driver/Src/stm32f4xx_hal_flash_ex.c ****     else 
 761:./Libraries/STM32F4xx_HAL_Driver/Src/stm32f4xx_hal_flash_ex.c ****     {
 762:./Libraries/STM32F4xx_HAL_Driver/Src/stm32f4xx_hal_flash_ex.c ****       /*Write protection done on sectors of BANK2*/
 763:./Libraries/STM32F4xx_HAL_Driver/Src/stm32f4xx_hal_flash_ex.c ****       *(__IO uint16_t*)OPTCR1_BYTE2_ADDRESS |= (uint16_t)(WRPSector>>12); 
 764:./Libraries/STM32F4xx_HAL_Driver/Src/stm32f4xx_hal_flash_ex.c ****     }
 765:./Libraries/STM32F4xx_HAL_Driver/Src/stm32f4xx_hal_flash_ex.c **** 
 766:./Libraries/STM32F4xx_HAL_Driver/Src/stm32f4xx_hal_flash_ex.c ****     /*Write protection on all sector  of BANK2*/
 767:./Libraries/STM32F4xx_HAL_Driver/Src/stm32f4xx_hal_flash_ex.c ****     if((WRPSector == OB_WRP_SECTOR_All) && (Banks == FLASH_BANK_BOTH))
 768:./Libraries/STM32F4xx_HAL_Driver/Src/stm32f4xx_hal_flash_ex.c ****     {
 769:./Libraries/STM32F4xx_HAL_Driver/Src/stm32f4xx_hal_flash_ex.c ****       /* Wait for last operation to be completed */
 770:./Libraries/STM32F4xx_HAL_Driver/Src/stm32f4xx_hal_flash_ex.c ****       status = FLASH_WaitForLastOperation((uint32_t)FLASH_TIMEOUT_VALUE);
 771:./Libraries/STM32F4xx_HAL_Driver/Src/stm32f4xx_hal_flash_ex.c ****       
 772:./Libraries/STM32F4xx_HAL_Driver/Src/stm32f4xx_hal_flash_ex.c ****       if(status == HAL_OK)
 773:./Libraries/STM32F4xx_HAL_Driver/Src/stm32f4xx_hal_flash_ex.c ****       { 
 774:./Libraries/STM32F4xx_HAL_Driver/Src/stm32f4xx_hal_flash_ex.c ****         *(__IO uint16_t*)OPTCR1_BYTE2_ADDRESS |= (uint16_t)(WRPSector>>12); 
 775:./Libraries/STM32F4xx_HAL_Driver/Src/stm32f4xx_hal_flash_ex.c ****       }
 776:./Libraries/STM32F4xx_HAL_Driver/Src/stm32f4xx_hal_flash_ex.c ****     }
 777:./Libraries/STM32F4xx_HAL_Driver/Src/stm32f4xx_hal_flash_ex.c ****     
 778:./Libraries/STM32F4xx_HAL_Driver/Src/stm32f4xx_hal_flash_ex.c ****   }
 779:./Libraries/STM32F4xx_HAL_Driver/Src/stm32f4xx_hal_flash_ex.c **** 
 780:./Libraries/STM32F4xx_HAL_Driver/Src/stm32f4xx_hal_flash_ex.c ****   return status;
 781:./Libraries/STM32F4xx_HAL_Driver/Src/stm32f4xx_hal_flash_ex.c **** }
 782:./Libraries/STM32F4xx_HAL_Driver/Src/stm32f4xx_hal_flash_ex.c **** 
 783:./Libraries/STM32F4xx_HAL_Driver/Src/stm32f4xx_hal_flash_ex.c **** /**
 784:./Libraries/STM32F4xx_HAL_Driver/Src/stm32f4xx_hal_flash_ex.c ****   * @brief  Configure the Dual Bank Boot.
 785:./Libraries/STM32F4xx_HAL_Driver/Src/stm32f4xx_hal_flash_ex.c ****   *   
 786:./Libraries/STM32F4xx_HAL_Driver/Src/stm32f4xx_hal_flash_ex.c ****   * @note   This function can be used only for STM32F42xxx/43xxx devices.
 787:./Libraries/STM32F4xx_HAL_Driver/Src/stm32f4xx_hal_flash_ex.c ****   *      
 788:./Libraries/STM32F4xx_HAL_Driver/Src/stm32f4xx_hal_flash_ex.c ****   * @param  BootConfig specifies the Dual Bank Boot Option byte.
 789:./Libraries/STM32F4xx_HAL_Driver/Src/stm32f4xx_hal_flash_ex.c ****   *          This parameter can be one of the following values:
 790:./Libraries/STM32F4xx_HAL_Driver/Src/stm32f4xx_hal_flash_ex.c ****   *            @arg OB_Dual_BootEnabled: Dual Bank Boot Enable
 791:./Libraries/STM32F4xx_HAL_Driver/Src/stm32f4xx_hal_flash_ex.c ****   *            @arg OB_Dual_BootDisabled: Dual Bank Boot Disabled
 792:./Libraries/STM32F4xx_HAL_Driver/Src/stm32f4xx_hal_flash_ex.c ****   * @retval None
 793:./Libraries/STM32F4xx_HAL_Driver/Src/stm32f4xx_hal_flash_ex.c ****   */
 794:./Libraries/STM32F4xx_HAL_Driver/Src/stm32f4xx_hal_flash_ex.c **** static HAL_StatusTypeDef FLASH_OB_BootConfig(uint8_t BootConfig)
 795:./Libraries/STM32F4xx_HAL_Driver/Src/stm32f4xx_hal_flash_ex.c **** {
 796:./Libraries/STM32F4xx_HAL_Driver/Src/stm32f4xx_hal_flash_ex.c ****   HAL_StatusTypeDef status = HAL_OK;
 797:./Libraries/STM32F4xx_HAL_Driver/Src/stm32f4xx_hal_flash_ex.c **** 
 798:./Libraries/STM32F4xx_HAL_Driver/Src/stm32f4xx_hal_flash_ex.c ****   /* Check the parameters */
 799:./Libraries/STM32F4xx_HAL_Driver/Src/stm32f4xx_hal_flash_ex.c ****   assert_param(IS_OB_BOOT(BootConfig));
 800:./Libraries/STM32F4xx_HAL_Driver/Src/stm32f4xx_hal_flash_ex.c **** 
 801:./Libraries/STM32F4xx_HAL_Driver/Src/stm32f4xx_hal_flash_ex.c ****   /* Wait for last operation to be completed */  
 802:./Libraries/STM32F4xx_HAL_Driver/Src/stm32f4xx_hal_flash_ex.c ****   status = FLASH_WaitForLastOperation((uint32_t)FLASH_TIMEOUT_VALUE);
 803:./Libraries/STM32F4xx_HAL_Driver/Src/stm32f4xx_hal_flash_ex.c **** 
 804:./Libraries/STM32F4xx_HAL_Driver/Src/stm32f4xx_hal_flash_ex.c ****   if(status == HAL_OK)
 805:./Libraries/STM32F4xx_HAL_Driver/Src/stm32f4xx_hal_flash_ex.c ****   { 
 806:./Libraries/STM32F4xx_HAL_Driver/Src/stm32f4xx_hal_flash_ex.c ****     /* Set Dual Bank Boot */
 807:./Libraries/STM32F4xx_HAL_Driver/Src/stm32f4xx_hal_flash_ex.c ****     *(__IO uint8_t *)OPTCR_BYTE0_ADDRESS &= (~FLASH_OPTCR_BFB2);
 808:./Libraries/STM32F4xx_HAL_Driver/Src/stm32f4xx_hal_flash_ex.c ****     *(__IO uint8_t *)OPTCR_BYTE0_ADDRESS |= BootConfig;
 809:./Libraries/STM32F4xx_HAL_Driver/Src/stm32f4xx_hal_flash_ex.c ****   }
 810:./Libraries/STM32F4xx_HAL_Driver/Src/stm32f4xx_hal_flash_ex.c ****   
 811:./Libraries/STM32F4xx_HAL_Driver/Src/stm32f4xx_hal_flash_ex.c ****   return status;
ARM GAS  /tmp/ccuOvNEu.s 			page 17


 812:./Libraries/STM32F4xx_HAL_Driver/Src/stm32f4xx_hal_flash_ex.c **** }
 813:./Libraries/STM32F4xx_HAL_Driver/Src/stm32f4xx_hal_flash_ex.c **** 
 814:./Libraries/STM32F4xx_HAL_Driver/Src/stm32f4xx_hal_flash_ex.c **** /**
 815:./Libraries/STM32F4xx_HAL_Driver/Src/stm32f4xx_hal_flash_ex.c ****   * @brief  Enable the read/write protection (PCROP) of the desired 
 816:./Libraries/STM32F4xx_HAL_Driver/Src/stm32f4xx_hal_flash_ex.c ****   *         sectors of Bank 1 and/or Bank 2.
 817:./Libraries/STM32F4xx_HAL_Driver/Src/stm32f4xx_hal_flash_ex.c ****   * @note   This function can be used only for STM32F42xxx/43xxx devices.
 818:./Libraries/STM32F4xx_HAL_Driver/Src/stm32f4xx_hal_flash_ex.c ****   * @param  SectorBank1 Specifies the sector(s) to be read/write protected or unprotected for bank1
 819:./Libraries/STM32F4xx_HAL_Driver/Src/stm32f4xx_hal_flash_ex.c ****   *          This parameter can be one of the following values:
 820:./Libraries/STM32F4xx_HAL_Driver/Src/stm32f4xx_hal_flash_ex.c ****   *            @arg OB_PCROP: A value between OB_PCROP_SECTOR_0 and OB_PCROP_SECTOR_11
 821:./Libraries/STM32F4xx_HAL_Driver/Src/stm32f4xx_hal_flash_ex.c ****   *            @arg OB_PCROP_SECTOR__All                         
 822:./Libraries/STM32F4xx_HAL_Driver/Src/stm32f4xx_hal_flash_ex.c ****   * @param  SectorBank2 Specifies the sector(s) to be read/write protected or unprotected for bank2
 823:./Libraries/STM32F4xx_HAL_Driver/Src/stm32f4xx_hal_flash_ex.c ****   *          This parameter can be one of the following values:
 824:./Libraries/STM32F4xx_HAL_Driver/Src/stm32f4xx_hal_flash_ex.c ****   *            @arg OB_PCROP: A value between OB_PCROP_SECTOR_12 and OB_PCROP_SECTOR_23
 825:./Libraries/STM32F4xx_HAL_Driver/Src/stm32f4xx_hal_flash_ex.c ****   *            @arg OB_PCROP_SECTOR__All                         
 826:./Libraries/STM32F4xx_HAL_Driver/Src/stm32f4xx_hal_flash_ex.c ****   * @param  Banks Enable PCROP protection on all the sectors for the specific bank
 827:./Libraries/STM32F4xx_HAL_Driver/Src/stm32f4xx_hal_flash_ex.c ****   *          This parameter can be one of the following values:
 828:./Libraries/STM32F4xx_HAL_Driver/Src/stm32f4xx_hal_flash_ex.c ****   *            @arg FLASH_BANK_1: WRP on all sectors of bank1
 829:./Libraries/STM32F4xx_HAL_Driver/Src/stm32f4xx_hal_flash_ex.c ****   *            @arg FLASH_BANK_2: WRP on all sectors of bank2
 830:./Libraries/STM32F4xx_HAL_Driver/Src/stm32f4xx_hal_flash_ex.c ****   *            @arg FLASH_BANK_BOTH: WRP on all sectors of bank1 & bank2
 831:./Libraries/STM32F4xx_HAL_Driver/Src/stm32f4xx_hal_flash_ex.c ****   *
 832:./Libraries/STM32F4xx_HAL_Driver/Src/stm32f4xx_hal_flash_ex.c ****   * @retval HAL Status  
 833:./Libraries/STM32F4xx_HAL_Driver/Src/stm32f4xx_hal_flash_ex.c ****   */
 834:./Libraries/STM32F4xx_HAL_Driver/Src/stm32f4xx_hal_flash_ex.c **** static HAL_StatusTypeDef FLASH_OB_EnablePCROP(uint32_t SectorBank1, uint32_t SectorBank2, uint32_t 
 835:./Libraries/STM32F4xx_HAL_Driver/Src/stm32f4xx_hal_flash_ex.c **** {
 836:./Libraries/STM32F4xx_HAL_Driver/Src/stm32f4xx_hal_flash_ex.c ****   HAL_StatusTypeDef status = HAL_OK;
 837:./Libraries/STM32F4xx_HAL_Driver/Src/stm32f4xx_hal_flash_ex.c ****   
 838:./Libraries/STM32F4xx_HAL_Driver/Src/stm32f4xx_hal_flash_ex.c ****   assert_param(IS_FLASH_BANK(Banks));
 839:./Libraries/STM32F4xx_HAL_Driver/Src/stm32f4xx_hal_flash_ex.c ****     
 840:./Libraries/STM32F4xx_HAL_Driver/Src/stm32f4xx_hal_flash_ex.c ****   /* Wait for last operation to be completed */
 841:./Libraries/STM32F4xx_HAL_Driver/Src/stm32f4xx_hal_flash_ex.c ****   status = FLASH_WaitForLastOperation((uint32_t)FLASH_TIMEOUT_VALUE);
 842:./Libraries/STM32F4xx_HAL_Driver/Src/stm32f4xx_hal_flash_ex.c **** 
 843:./Libraries/STM32F4xx_HAL_Driver/Src/stm32f4xx_hal_flash_ex.c ****   if(status == HAL_OK)
 844:./Libraries/STM32F4xx_HAL_Driver/Src/stm32f4xx_hal_flash_ex.c ****   {
 845:./Libraries/STM32F4xx_HAL_Driver/Src/stm32f4xx_hal_flash_ex.c ****     if((Banks == FLASH_BANK_1) || (Banks == FLASH_BANK_BOTH))
 846:./Libraries/STM32F4xx_HAL_Driver/Src/stm32f4xx_hal_flash_ex.c ****     {
 847:./Libraries/STM32F4xx_HAL_Driver/Src/stm32f4xx_hal_flash_ex.c ****       assert_param(IS_OB_PCROP(SectorBank1));
 848:./Libraries/STM32F4xx_HAL_Driver/Src/stm32f4xx_hal_flash_ex.c ****       /*Write protection done on sectors of BANK1*/
 849:./Libraries/STM32F4xx_HAL_Driver/Src/stm32f4xx_hal_flash_ex.c ****       *(__IO uint16_t*)OPTCR_BYTE2_ADDRESS |= (uint16_t)SectorBank1; 
 850:./Libraries/STM32F4xx_HAL_Driver/Src/stm32f4xx_hal_flash_ex.c ****     }
 851:./Libraries/STM32F4xx_HAL_Driver/Src/stm32f4xx_hal_flash_ex.c ****     else 
 852:./Libraries/STM32F4xx_HAL_Driver/Src/stm32f4xx_hal_flash_ex.c ****     {
 853:./Libraries/STM32F4xx_HAL_Driver/Src/stm32f4xx_hal_flash_ex.c ****       assert_param(IS_OB_PCROP(SectorBank2));
 854:./Libraries/STM32F4xx_HAL_Driver/Src/stm32f4xx_hal_flash_ex.c ****       /*Write protection done on sectors of BANK2*/
 855:./Libraries/STM32F4xx_HAL_Driver/Src/stm32f4xx_hal_flash_ex.c ****       *(__IO uint16_t*)OPTCR1_BYTE2_ADDRESS |= (uint16_t)SectorBank2; 
 856:./Libraries/STM32F4xx_HAL_Driver/Src/stm32f4xx_hal_flash_ex.c ****     }
 857:./Libraries/STM32F4xx_HAL_Driver/Src/stm32f4xx_hal_flash_ex.c **** 
 858:./Libraries/STM32F4xx_HAL_Driver/Src/stm32f4xx_hal_flash_ex.c ****     /*Write protection on all sector  of BANK2*/
 859:./Libraries/STM32F4xx_HAL_Driver/Src/stm32f4xx_hal_flash_ex.c ****     if(Banks == FLASH_BANK_BOTH)
 860:./Libraries/STM32F4xx_HAL_Driver/Src/stm32f4xx_hal_flash_ex.c ****     {
 861:./Libraries/STM32F4xx_HAL_Driver/Src/stm32f4xx_hal_flash_ex.c ****       assert_param(IS_OB_PCROP(SectorBank2));
 862:./Libraries/STM32F4xx_HAL_Driver/Src/stm32f4xx_hal_flash_ex.c ****       /* Wait for last operation to be completed */
 863:./Libraries/STM32F4xx_HAL_Driver/Src/stm32f4xx_hal_flash_ex.c ****       status = FLASH_WaitForLastOperation((uint32_t)FLASH_TIMEOUT_VALUE);
 864:./Libraries/STM32F4xx_HAL_Driver/Src/stm32f4xx_hal_flash_ex.c ****       
 865:./Libraries/STM32F4xx_HAL_Driver/Src/stm32f4xx_hal_flash_ex.c ****       if(status == HAL_OK)
 866:./Libraries/STM32F4xx_HAL_Driver/Src/stm32f4xx_hal_flash_ex.c ****       { 
 867:./Libraries/STM32F4xx_HAL_Driver/Src/stm32f4xx_hal_flash_ex.c ****         /*Write protection done on sectors of BANK2*/
 868:./Libraries/STM32F4xx_HAL_Driver/Src/stm32f4xx_hal_flash_ex.c ****         *(__IO uint16_t*)OPTCR1_BYTE2_ADDRESS |= (uint16_t)SectorBank2; 
ARM GAS  /tmp/ccuOvNEu.s 			page 18


 869:./Libraries/STM32F4xx_HAL_Driver/Src/stm32f4xx_hal_flash_ex.c ****       }
 870:./Libraries/STM32F4xx_HAL_Driver/Src/stm32f4xx_hal_flash_ex.c ****     }
 871:./Libraries/STM32F4xx_HAL_Driver/Src/stm32f4xx_hal_flash_ex.c ****     
 872:./Libraries/STM32F4xx_HAL_Driver/Src/stm32f4xx_hal_flash_ex.c ****   }
 873:./Libraries/STM32F4xx_HAL_Driver/Src/stm32f4xx_hal_flash_ex.c **** 
 874:./Libraries/STM32F4xx_HAL_Driver/Src/stm32f4xx_hal_flash_ex.c ****   return status;
 875:./Libraries/STM32F4xx_HAL_Driver/Src/stm32f4xx_hal_flash_ex.c **** }
 876:./Libraries/STM32F4xx_HAL_Driver/Src/stm32f4xx_hal_flash_ex.c **** 
 877:./Libraries/STM32F4xx_HAL_Driver/Src/stm32f4xx_hal_flash_ex.c **** 
 878:./Libraries/STM32F4xx_HAL_Driver/Src/stm32f4xx_hal_flash_ex.c **** /**
 879:./Libraries/STM32F4xx_HAL_Driver/Src/stm32f4xx_hal_flash_ex.c ****   * @brief  Disable the read/write protection (PCROP) of the desired 
 880:./Libraries/STM32F4xx_HAL_Driver/Src/stm32f4xx_hal_flash_ex.c ****   *         sectors  of Bank 1 and/or Bank 2.
 881:./Libraries/STM32F4xx_HAL_Driver/Src/stm32f4xx_hal_flash_ex.c ****   * @note   This function can be used only for STM32F42xxx/43xxx devices.
 882:./Libraries/STM32F4xx_HAL_Driver/Src/stm32f4xx_hal_flash_ex.c ****   * @param  SectorBank1 specifies the sector(s) to be read/write protected or unprotected for bank1
 883:./Libraries/STM32F4xx_HAL_Driver/Src/stm32f4xx_hal_flash_ex.c ****   *          This parameter can be one of the following values:
 884:./Libraries/STM32F4xx_HAL_Driver/Src/stm32f4xx_hal_flash_ex.c ****   *            @arg OB_PCROP: A value between OB_PCROP_SECTOR_0 and OB_PCROP_SECTOR_11
 885:./Libraries/STM32F4xx_HAL_Driver/Src/stm32f4xx_hal_flash_ex.c ****   *            @arg OB_PCROP_SECTOR__All                         
 886:./Libraries/STM32F4xx_HAL_Driver/Src/stm32f4xx_hal_flash_ex.c ****   * @param  SectorBank2 Specifies the sector(s) to be read/write protected or unprotected for bank2
 887:./Libraries/STM32F4xx_HAL_Driver/Src/stm32f4xx_hal_flash_ex.c ****   *          This parameter can be one of the following values:
 888:./Libraries/STM32F4xx_HAL_Driver/Src/stm32f4xx_hal_flash_ex.c ****   *            @arg OB_PCROP: A value between OB_PCROP_SECTOR_12 and OB_PCROP_SECTOR_23
 889:./Libraries/STM32F4xx_HAL_Driver/Src/stm32f4xx_hal_flash_ex.c ****   *            @arg OB_PCROP_SECTOR__All                         
 890:./Libraries/STM32F4xx_HAL_Driver/Src/stm32f4xx_hal_flash_ex.c ****   * @param  Banks Disable PCROP protection on all the sectors for the specific bank
 891:./Libraries/STM32F4xx_HAL_Driver/Src/stm32f4xx_hal_flash_ex.c ****   *          This parameter can be one of the following values:
 892:./Libraries/STM32F4xx_HAL_Driver/Src/stm32f4xx_hal_flash_ex.c ****   *            @arg FLASH_BANK_1: WRP on all sectors of bank1
 893:./Libraries/STM32F4xx_HAL_Driver/Src/stm32f4xx_hal_flash_ex.c ****   *            @arg FLASH_BANK_2: WRP on all sectors of bank2
 894:./Libraries/STM32F4xx_HAL_Driver/Src/stm32f4xx_hal_flash_ex.c ****   *            @arg FLASH_BANK_BOTH: WRP on all sectors of bank1 & bank2
 895:./Libraries/STM32F4xx_HAL_Driver/Src/stm32f4xx_hal_flash_ex.c ****   *
 896:./Libraries/STM32F4xx_HAL_Driver/Src/stm32f4xx_hal_flash_ex.c ****   * @retval HAL Status  
 897:./Libraries/STM32F4xx_HAL_Driver/Src/stm32f4xx_hal_flash_ex.c ****   */
 898:./Libraries/STM32F4xx_HAL_Driver/Src/stm32f4xx_hal_flash_ex.c **** static HAL_StatusTypeDef FLASH_OB_DisablePCROP(uint32_t SectorBank1, uint32_t SectorBank2, uint32_t
 899:./Libraries/STM32F4xx_HAL_Driver/Src/stm32f4xx_hal_flash_ex.c **** {  
 900:./Libraries/STM32F4xx_HAL_Driver/Src/stm32f4xx_hal_flash_ex.c ****   HAL_StatusTypeDef status = HAL_OK;
 901:./Libraries/STM32F4xx_HAL_Driver/Src/stm32f4xx_hal_flash_ex.c ****   
 902:./Libraries/STM32F4xx_HAL_Driver/Src/stm32f4xx_hal_flash_ex.c ****   /* Check the parameters */
 903:./Libraries/STM32F4xx_HAL_Driver/Src/stm32f4xx_hal_flash_ex.c ****   assert_param(IS_FLASH_BANK(Banks));
 904:./Libraries/STM32F4xx_HAL_Driver/Src/stm32f4xx_hal_flash_ex.c ****     
 905:./Libraries/STM32F4xx_HAL_Driver/Src/stm32f4xx_hal_flash_ex.c ****   /* Wait for last operation to be completed */
 906:./Libraries/STM32F4xx_HAL_Driver/Src/stm32f4xx_hal_flash_ex.c ****   status = FLASH_WaitForLastOperation((uint32_t)FLASH_TIMEOUT_VALUE);
 907:./Libraries/STM32F4xx_HAL_Driver/Src/stm32f4xx_hal_flash_ex.c **** 
 908:./Libraries/STM32F4xx_HAL_Driver/Src/stm32f4xx_hal_flash_ex.c ****   if(status == HAL_OK)
 909:./Libraries/STM32F4xx_HAL_Driver/Src/stm32f4xx_hal_flash_ex.c ****   {
 910:./Libraries/STM32F4xx_HAL_Driver/Src/stm32f4xx_hal_flash_ex.c ****     if((Banks == FLASH_BANK_1) || (Banks == FLASH_BANK_BOTH))
 911:./Libraries/STM32F4xx_HAL_Driver/Src/stm32f4xx_hal_flash_ex.c ****     {
 912:./Libraries/STM32F4xx_HAL_Driver/Src/stm32f4xx_hal_flash_ex.c ****       assert_param(IS_OB_PCROP(SectorBank1));
 913:./Libraries/STM32F4xx_HAL_Driver/Src/stm32f4xx_hal_flash_ex.c ****       /*Write protection done on sectors of BANK1*/
 914:./Libraries/STM32F4xx_HAL_Driver/Src/stm32f4xx_hal_flash_ex.c ****       *(__IO uint16_t*)OPTCR_BYTE2_ADDRESS &= (~SectorBank1); 
 915:./Libraries/STM32F4xx_HAL_Driver/Src/stm32f4xx_hal_flash_ex.c ****     }
 916:./Libraries/STM32F4xx_HAL_Driver/Src/stm32f4xx_hal_flash_ex.c ****     else 
 917:./Libraries/STM32F4xx_HAL_Driver/Src/stm32f4xx_hal_flash_ex.c ****     {
 918:./Libraries/STM32F4xx_HAL_Driver/Src/stm32f4xx_hal_flash_ex.c ****       /*Write protection done on sectors of BANK2*/
 919:./Libraries/STM32F4xx_HAL_Driver/Src/stm32f4xx_hal_flash_ex.c ****       assert_param(IS_OB_PCROP(SectorBank2));
 920:./Libraries/STM32F4xx_HAL_Driver/Src/stm32f4xx_hal_flash_ex.c ****       *(__IO uint16_t*)OPTCR1_BYTE2_ADDRESS &= (~SectorBank2); 
 921:./Libraries/STM32F4xx_HAL_Driver/Src/stm32f4xx_hal_flash_ex.c ****     }
 922:./Libraries/STM32F4xx_HAL_Driver/Src/stm32f4xx_hal_flash_ex.c **** 
 923:./Libraries/STM32F4xx_HAL_Driver/Src/stm32f4xx_hal_flash_ex.c ****     /*Write protection on all sector  of BANK2*/
 924:./Libraries/STM32F4xx_HAL_Driver/Src/stm32f4xx_hal_flash_ex.c ****     if(Banks == FLASH_BANK_BOTH)
 925:./Libraries/STM32F4xx_HAL_Driver/Src/stm32f4xx_hal_flash_ex.c ****     {
ARM GAS  /tmp/ccuOvNEu.s 			page 19


 926:./Libraries/STM32F4xx_HAL_Driver/Src/stm32f4xx_hal_flash_ex.c ****       assert_param(IS_OB_PCROP(SectorBank2));
 927:./Libraries/STM32F4xx_HAL_Driver/Src/stm32f4xx_hal_flash_ex.c ****      /* Wait for last operation to be completed */
 928:./Libraries/STM32F4xx_HAL_Driver/Src/stm32f4xx_hal_flash_ex.c ****       status = FLASH_WaitForLastOperation((uint32_t)FLASH_TIMEOUT_VALUE);
 929:./Libraries/STM32F4xx_HAL_Driver/Src/stm32f4xx_hal_flash_ex.c ****       
 930:./Libraries/STM32F4xx_HAL_Driver/Src/stm32f4xx_hal_flash_ex.c ****       if(status == HAL_OK)
 931:./Libraries/STM32F4xx_HAL_Driver/Src/stm32f4xx_hal_flash_ex.c ****       { 
 932:./Libraries/STM32F4xx_HAL_Driver/Src/stm32f4xx_hal_flash_ex.c ****         /*Write protection done on sectors of BANK2*/
 933:./Libraries/STM32F4xx_HAL_Driver/Src/stm32f4xx_hal_flash_ex.c ****         *(__IO uint16_t*)OPTCR1_BYTE2_ADDRESS &= (~SectorBank2); 
 934:./Libraries/STM32F4xx_HAL_Driver/Src/stm32f4xx_hal_flash_ex.c ****       }
 935:./Libraries/STM32F4xx_HAL_Driver/Src/stm32f4xx_hal_flash_ex.c ****     }
 936:./Libraries/STM32F4xx_HAL_Driver/Src/stm32f4xx_hal_flash_ex.c ****     
 937:./Libraries/STM32F4xx_HAL_Driver/Src/stm32f4xx_hal_flash_ex.c ****   }
 938:./Libraries/STM32F4xx_HAL_Driver/Src/stm32f4xx_hal_flash_ex.c ****   
 939:./Libraries/STM32F4xx_HAL_Driver/Src/stm32f4xx_hal_flash_ex.c ****   return status;
 940:./Libraries/STM32F4xx_HAL_Driver/Src/stm32f4xx_hal_flash_ex.c **** 
 941:./Libraries/STM32F4xx_HAL_Driver/Src/stm32f4xx_hal_flash_ex.c **** }
 942:./Libraries/STM32F4xx_HAL_Driver/Src/stm32f4xx_hal_flash_ex.c **** 
 943:./Libraries/STM32F4xx_HAL_Driver/Src/stm32f4xx_hal_flash_ex.c **** #endif /* STM32F427xx || STM32F437xx || STM32F429xx || STM32F439xx || STM32F469xx || STM32F479xx */
 944:./Libraries/STM32F4xx_HAL_Driver/Src/stm32f4xx_hal_flash_ex.c **** 
 945:./Libraries/STM32F4xx_HAL_Driver/Src/stm32f4xx_hal_flash_ex.c **** #if defined(STM32F405xx) || defined(STM32F415xx) || defined(STM32F407xx) || defined(STM32F417xx) ||
 946:./Libraries/STM32F4xx_HAL_Driver/Src/stm32f4xx_hal_flash_ex.c ****     defined(STM32F401xC) || defined(STM32F401xE) || defined(STM32F410Tx) || defined(STM32F410Cx) ||
 947:./Libraries/STM32F4xx_HAL_Driver/Src/stm32f4xx_hal_flash_ex.c ****     defined(STM32F410Rx) || defined(STM32F411xE) || defined(STM32F446xx) || defined(STM32F412Zx) ||
 948:./Libraries/STM32F4xx_HAL_Driver/Src/stm32f4xx_hal_flash_ex.c ****     defined(STM32F412Vx) || defined(STM32F412Rx) || defined(STM32F412Cx) || defined(STM32F413xx) ||
 949:./Libraries/STM32F4xx_HAL_Driver/Src/stm32f4xx_hal_flash_ex.c ****     defined(STM32F423xx)
 950:./Libraries/STM32F4xx_HAL_Driver/Src/stm32f4xx_hal_flash_ex.c **** /**
 951:./Libraries/STM32F4xx_HAL_Driver/Src/stm32f4xx_hal_flash_ex.c ****   * @brief  Mass erase of FLASH memory
 952:./Libraries/STM32F4xx_HAL_Driver/Src/stm32f4xx_hal_flash_ex.c ****   * @param  VoltageRange The device voltage range which defines the erase parallelism.  
 953:./Libraries/STM32F4xx_HAL_Driver/Src/stm32f4xx_hal_flash_ex.c ****   *          This parameter can be one of the following values:
 954:./Libraries/STM32F4xx_HAL_Driver/Src/stm32f4xx_hal_flash_ex.c ****   *            @arg FLASH_VOLTAGE_RANGE_1: when the device voltage range is 1.8V to 2.1V, 
 955:./Libraries/STM32F4xx_HAL_Driver/Src/stm32f4xx_hal_flash_ex.c ****   *                                  the operation will be done by byte (8-bit) 
 956:./Libraries/STM32F4xx_HAL_Driver/Src/stm32f4xx_hal_flash_ex.c ****   *            @arg FLASH_VOLTAGE_RANGE_2: when the device voltage range is 2.1V to 2.7V,
 957:./Libraries/STM32F4xx_HAL_Driver/Src/stm32f4xx_hal_flash_ex.c ****   *                                  the operation will be done by half word (16-bit)
 958:./Libraries/STM32F4xx_HAL_Driver/Src/stm32f4xx_hal_flash_ex.c ****   *            @arg FLASH_VOLTAGE_RANGE_3: when the device voltage range is 2.7V to 3.6V,
 959:./Libraries/STM32F4xx_HAL_Driver/Src/stm32f4xx_hal_flash_ex.c ****   *                                  the operation will be done by word (32-bit)
 960:./Libraries/STM32F4xx_HAL_Driver/Src/stm32f4xx_hal_flash_ex.c ****   *            @arg FLASH_VOLTAGE_RANGE_4: when the device voltage range is 2.7V to 3.6V + External
 961:./Libraries/STM32F4xx_HAL_Driver/Src/stm32f4xx_hal_flash_ex.c ****   *                                  the operation will be done by double word (64-bit)
 962:./Libraries/STM32F4xx_HAL_Driver/Src/stm32f4xx_hal_flash_ex.c ****   * 
 963:./Libraries/STM32F4xx_HAL_Driver/Src/stm32f4xx_hal_flash_ex.c ****   * @param  Banks Banks to be erased
 964:./Libraries/STM32F4xx_HAL_Driver/Src/stm32f4xx_hal_flash_ex.c ****   *          This parameter can be one of the following values:
 965:./Libraries/STM32F4xx_HAL_Driver/Src/stm32f4xx_hal_flash_ex.c ****   *            @arg FLASH_BANK_1: Bank1 to be erased
 966:./Libraries/STM32F4xx_HAL_Driver/Src/stm32f4xx_hal_flash_ex.c ****   *
 967:./Libraries/STM32F4xx_HAL_Driver/Src/stm32f4xx_hal_flash_ex.c ****   * @retval None
 968:./Libraries/STM32F4xx_HAL_Driver/Src/stm32f4xx_hal_flash_ex.c ****   */
 969:./Libraries/STM32F4xx_HAL_Driver/Src/stm32f4xx_hal_flash_ex.c **** static void FLASH_MassErase(uint8_t VoltageRange, uint32_t Banks)
 970:./Libraries/STM32F4xx_HAL_Driver/Src/stm32f4xx_hal_flash_ex.c **** {
 971:./Libraries/STM32F4xx_HAL_Driver/Src/stm32f4xx_hal_flash_ex.c ****   /* Check the parameters */
 972:./Libraries/STM32F4xx_HAL_Driver/Src/stm32f4xx_hal_flash_ex.c ****   assert_param(IS_VOLTAGERANGE(VoltageRange));
 973:./Libraries/STM32F4xx_HAL_Driver/Src/stm32f4xx_hal_flash_ex.c ****   assert_param(IS_FLASH_BANK(Banks));
 974:./Libraries/STM32F4xx_HAL_Driver/Src/stm32f4xx_hal_flash_ex.c ****   
 975:./Libraries/STM32F4xx_HAL_Driver/Src/stm32f4xx_hal_flash_ex.c ****   /* If the previous operation is completed, proceed to erase all sectors */
 976:./Libraries/STM32F4xx_HAL_Driver/Src/stm32f4xx_hal_flash_ex.c ****   CLEAR_BIT(FLASH->CR, FLASH_CR_PSIZE);
 977:./Libraries/STM32F4xx_HAL_Driver/Src/stm32f4xx_hal_flash_ex.c ****   FLASH->CR |= FLASH_CR_MER;
 978:./Libraries/STM32F4xx_HAL_Driver/Src/stm32f4xx_hal_flash_ex.c ****   FLASH->CR |= FLASH_CR_STRT | ((uint32_t)VoltageRange <<8U);
 979:./Libraries/STM32F4xx_HAL_Driver/Src/stm32f4xx_hal_flash_ex.c **** }
 980:./Libraries/STM32F4xx_HAL_Driver/Src/stm32f4xx_hal_flash_ex.c **** 
 981:./Libraries/STM32F4xx_HAL_Driver/Src/stm32f4xx_hal_flash_ex.c **** /**
 982:./Libraries/STM32F4xx_HAL_Driver/Src/stm32f4xx_hal_flash_ex.c ****   * @brief  Erase the specified FLASH memory sector
ARM GAS  /tmp/ccuOvNEu.s 			page 20


 983:./Libraries/STM32F4xx_HAL_Driver/Src/stm32f4xx_hal_flash_ex.c ****   * @param  Sector FLASH sector to erase
 984:./Libraries/STM32F4xx_HAL_Driver/Src/stm32f4xx_hal_flash_ex.c ****   *         The value of this parameter depend on device used within the same series      
 985:./Libraries/STM32F4xx_HAL_Driver/Src/stm32f4xx_hal_flash_ex.c ****   * @param  VoltageRange The device voltage range which defines the erase parallelism.  
 986:./Libraries/STM32F4xx_HAL_Driver/Src/stm32f4xx_hal_flash_ex.c ****   *          This parameter can be one of the following values:
 987:./Libraries/STM32F4xx_HAL_Driver/Src/stm32f4xx_hal_flash_ex.c ****   *            @arg FLASH_VOLTAGE_RANGE_1: when the device voltage range is 1.8V to 2.1V, 
 988:./Libraries/STM32F4xx_HAL_Driver/Src/stm32f4xx_hal_flash_ex.c ****   *                                  the operation will be done by byte (8-bit) 
 989:./Libraries/STM32F4xx_HAL_Driver/Src/stm32f4xx_hal_flash_ex.c ****   *            @arg FLASH_VOLTAGE_RANGE_2: when the device voltage range is 2.1V to 2.7V,
 990:./Libraries/STM32F4xx_HAL_Driver/Src/stm32f4xx_hal_flash_ex.c ****   *                                  the operation will be done by half word (16-bit)
 991:./Libraries/STM32F4xx_HAL_Driver/Src/stm32f4xx_hal_flash_ex.c ****   *            @arg FLASH_VOLTAGE_RANGE_3: when the device voltage range is 2.7V to 3.6V,
 992:./Libraries/STM32F4xx_HAL_Driver/Src/stm32f4xx_hal_flash_ex.c ****   *                                  the operation will be done by word (32-bit)
 993:./Libraries/STM32F4xx_HAL_Driver/Src/stm32f4xx_hal_flash_ex.c ****   *            @arg FLASH_VOLTAGE_RANGE_4: when the device voltage range is 2.7V to 3.6V + External
 994:./Libraries/STM32F4xx_HAL_Driver/Src/stm32f4xx_hal_flash_ex.c ****   *                                  the operation will be done by double word (64-bit)
 995:./Libraries/STM32F4xx_HAL_Driver/Src/stm32f4xx_hal_flash_ex.c ****   * 
 996:./Libraries/STM32F4xx_HAL_Driver/Src/stm32f4xx_hal_flash_ex.c ****   * @retval None
 997:./Libraries/STM32F4xx_HAL_Driver/Src/stm32f4xx_hal_flash_ex.c ****   */
 998:./Libraries/STM32F4xx_HAL_Driver/Src/stm32f4xx_hal_flash_ex.c **** void FLASH_Erase_Sector(uint32_t Sector, uint8_t VoltageRange)
 999:./Libraries/STM32F4xx_HAL_Driver/Src/stm32f4xx_hal_flash_ex.c **** {
1000:./Libraries/STM32F4xx_HAL_Driver/Src/stm32f4xx_hal_flash_ex.c ****   uint32_t tmp_psize = 0U;
1001:./Libraries/STM32F4xx_HAL_Driver/Src/stm32f4xx_hal_flash_ex.c **** 
1002:./Libraries/STM32F4xx_HAL_Driver/Src/stm32f4xx_hal_flash_ex.c ****   /* Check the parameters */
1003:./Libraries/STM32F4xx_HAL_Driver/Src/stm32f4xx_hal_flash_ex.c ****   assert_param(IS_FLASH_SECTOR(Sector));
1004:./Libraries/STM32F4xx_HAL_Driver/Src/stm32f4xx_hal_flash_ex.c ****   assert_param(IS_VOLTAGERANGE(VoltageRange));
1005:./Libraries/STM32F4xx_HAL_Driver/Src/stm32f4xx_hal_flash_ex.c ****   
1006:./Libraries/STM32F4xx_HAL_Driver/Src/stm32f4xx_hal_flash_ex.c ****   if(VoltageRange == FLASH_VOLTAGE_RANGE_1)
1007:./Libraries/STM32F4xx_HAL_Driver/Src/stm32f4xx_hal_flash_ex.c ****   {
1008:./Libraries/STM32F4xx_HAL_Driver/Src/stm32f4xx_hal_flash_ex.c ****      tmp_psize = FLASH_PSIZE_BYTE;
1009:./Libraries/STM32F4xx_HAL_Driver/Src/stm32f4xx_hal_flash_ex.c ****   }
1010:./Libraries/STM32F4xx_HAL_Driver/Src/stm32f4xx_hal_flash_ex.c ****   else if(VoltageRange == FLASH_VOLTAGE_RANGE_2)
1011:./Libraries/STM32F4xx_HAL_Driver/Src/stm32f4xx_hal_flash_ex.c ****   {
1012:./Libraries/STM32F4xx_HAL_Driver/Src/stm32f4xx_hal_flash_ex.c ****     tmp_psize = FLASH_PSIZE_HALF_WORD;
1013:./Libraries/STM32F4xx_HAL_Driver/Src/stm32f4xx_hal_flash_ex.c ****   }
1014:./Libraries/STM32F4xx_HAL_Driver/Src/stm32f4xx_hal_flash_ex.c ****   else if(VoltageRange == FLASH_VOLTAGE_RANGE_3)
1015:./Libraries/STM32F4xx_HAL_Driver/Src/stm32f4xx_hal_flash_ex.c ****   {
1016:./Libraries/STM32F4xx_HAL_Driver/Src/stm32f4xx_hal_flash_ex.c ****     tmp_psize = FLASH_PSIZE_WORD;
1017:./Libraries/STM32F4xx_HAL_Driver/Src/stm32f4xx_hal_flash_ex.c ****   }
1018:./Libraries/STM32F4xx_HAL_Driver/Src/stm32f4xx_hal_flash_ex.c ****   else
1019:./Libraries/STM32F4xx_HAL_Driver/Src/stm32f4xx_hal_flash_ex.c ****   {
1020:./Libraries/STM32F4xx_HAL_Driver/Src/stm32f4xx_hal_flash_ex.c ****     tmp_psize = FLASH_PSIZE_DOUBLE_WORD;
1021:./Libraries/STM32F4xx_HAL_Driver/Src/stm32f4xx_hal_flash_ex.c ****   }
1022:./Libraries/STM32F4xx_HAL_Driver/Src/stm32f4xx_hal_flash_ex.c **** 
1023:./Libraries/STM32F4xx_HAL_Driver/Src/stm32f4xx_hal_flash_ex.c ****   /* If the previous operation is completed, proceed to erase the sector */
1024:./Libraries/STM32F4xx_HAL_Driver/Src/stm32f4xx_hal_flash_ex.c ****   CLEAR_BIT(FLASH->CR, FLASH_CR_PSIZE);
1025:./Libraries/STM32F4xx_HAL_Driver/Src/stm32f4xx_hal_flash_ex.c ****   FLASH->CR |= tmp_psize;
1026:./Libraries/STM32F4xx_HAL_Driver/Src/stm32f4xx_hal_flash_ex.c ****   CLEAR_BIT(FLASH->CR, FLASH_CR_SNB);
1027:./Libraries/STM32F4xx_HAL_Driver/Src/stm32f4xx_hal_flash_ex.c ****   FLASH->CR |= FLASH_CR_SER | (Sector << FLASH_CR_SNB_Pos);
1028:./Libraries/STM32F4xx_HAL_Driver/Src/stm32f4xx_hal_flash_ex.c ****   FLASH->CR |= FLASH_CR_STRT;
1029:./Libraries/STM32F4xx_HAL_Driver/Src/stm32f4xx_hal_flash_ex.c **** }
1030:./Libraries/STM32F4xx_HAL_Driver/Src/stm32f4xx_hal_flash_ex.c **** 
1031:./Libraries/STM32F4xx_HAL_Driver/Src/stm32f4xx_hal_flash_ex.c **** /**
1032:./Libraries/STM32F4xx_HAL_Driver/Src/stm32f4xx_hal_flash_ex.c ****   * @brief  Enable the write protection of the desired bank 1 sectors
1033:./Libraries/STM32F4xx_HAL_Driver/Src/stm32f4xx_hal_flash_ex.c ****   *
1034:./Libraries/STM32F4xx_HAL_Driver/Src/stm32f4xx_hal_flash_ex.c ****   * @note   When the memory read protection level is selected (RDP level = 1), 
1035:./Libraries/STM32F4xx_HAL_Driver/Src/stm32f4xx_hal_flash_ex.c ****   *         it is not possible to program or erase the flash sector i if CortexM4  
1036:./Libraries/STM32F4xx_HAL_Driver/Src/stm32f4xx_hal_flash_ex.c ****   *         debug features are connected or boot code is executed in RAM, even if nWRPi = 1 
1037:./Libraries/STM32F4xx_HAL_Driver/Src/stm32f4xx_hal_flash_ex.c ****   * @note   Active value of nWRPi bits is inverted when PCROP mode is active (SPRMOD =1).   
1038:./Libraries/STM32F4xx_HAL_Driver/Src/stm32f4xx_hal_flash_ex.c ****   * 
1039:./Libraries/STM32F4xx_HAL_Driver/Src/stm32f4xx_hal_flash_ex.c ****   * @param  WRPSector specifies the sector(s) to be write protected.
ARM GAS  /tmp/ccuOvNEu.s 			page 21


1040:./Libraries/STM32F4xx_HAL_Driver/Src/stm32f4xx_hal_flash_ex.c ****   *         The value of this parameter depend on device used within the same series 
1041:./Libraries/STM32F4xx_HAL_Driver/Src/stm32f4xx_hal_flash_ex.c ****   * 
1042:./Libraries/STM32F4xx_HAL_Driver/Src/stm32f4xx_hal_flash_ex.c ****   * @param  Banks Enable write protection on all the sectors for the specific bank
1043:./Libraries/STM32F4xx_HAL_Driver/Src/stm32f4xx_hal_flash_ex.c ****   *          This parameter can be one of the following values:
1044:./Libraries/STM32F4xx_HAL_Driver/Src/stm32f4xx_hal_flash_ex.c ****   *            @arg FLASH_BANK_1: WRP on all sectors of bank1
1045:./Libraries/STM32F4xx_HAL_Driver/Src/stm32f4xx_hal_flash_ex.c ****   *
1046:./Libraries/STM32F4xx_HAL_Driver/Src/stm32f4xx_hal_flash_ex.c ****   * @retval HAL Status 
1047:./Libraries/STM32F4xx_HAL_Driver/Src/stm32f4xx_hal_flash_ex.c ****   */
1048:./Libraries/STM32F4xx_HAL_Driver/Src/stm32f4xx_hal_flash_ex.c **** static HAL_StatusTypeDef FLASH_OB_EnableWRP(uint32_t WRPSector, uint32_t Banks)
1049:./Libraries/STM32F4xx_HAL_Driver/Src/stm32f4xx_hal_flash_ex.c **** {
1050:./Libraries/STM32F4xx_HAL_Driver/Src/stm32f4xx_hal_flash_ex.c ****   HAL_StatusTypeDef status = HAL_OK;
1051:./Libraries/STM32F4xx_HAL_Driver/Src/stm32f4xx_hal_flash_ex.c ****   
1052:./Libraries/STM32F4xx_HAL_Driver/Src/stm32f4xx_hal_flash_ex.c ****   /* Check the parameters */
1053:./Libraries/STM32F4xx_HAL_Driver/Src/stm32f4xx_hal_flash_ex.c ****   assert_param(IS_OB_WRP_SECTOR(WRPSector));
1054:./Libraries/STM32F4xx_HAL_Driver/Src/stm32f4xx_hal_flash_ex.c ****   assert_param(IS_FLASH_BANK(Banks));
1055:./Libraries/STM32F4xx_HAL_Driver/Src/stm32f4xx_hal_flash_ex.c ****     
1056:./Libraries/STM32F4xx_HAL_Driver/Src/stm32f4xx_hal_flash_ex.c ****   /* Wait for last operation to be completed */
1057:./Libraries/STM32F4xx_HAL_Driver/Src/stm32f4xx_hal_flash_ex.c ****   status = FLASH_WaitForLastOperation((uint32_t)FLASH_TIMEOUT_VALUE);
1058:./Libraries/STM32F4xx_HAL_Driver/Src/stm32f4xx_hal_flash_ex.c **** 
1059:./Libraries/STM32F4xx_HAL_Driver/Src/stm32f4xx_hal_flash_ex.c ****   if(status == HAL_OK)
1060:./Libraries/STM32F4xx_HAL_Driver/Src/stm32f4xx_hal_flash_ex.c ****   { 
1061:./Libraries/STM32F4xx_HAL_Driver/Src/stm32f4xx_hal_flash_ex.c ****     *(__IO uint16_t*)OPTCR_BYTE2_ADDRESS &= (~WRPSector);  
1062:./Libraries/STM32F4xx_HAL_Driver/Src/stm32f4xx_hal_flash_ex.c ****   }
1063:./Libraries/STM32F4xx_HAL_Driver/Src/stm32f4xx_hal_flash_ex.c ****   
1064:./Libraries/STM32F4xx_HAL_Driver/Src/stm32f4xx_hal_flash_ex.c ****   return status;
1065:./Libraries/STM32F4xx_HAL_Driver/Src/stm32f4xx_hal_flash_ex.c **** }
1066:./Libraries/STM32F4xx_HAL_Driver/Src/stm32f4xx_hal_flash_ex.c **** 
1067:./Libraries/STM32F4xx_HAL_Driver/Src/stm32f4xx_hal_flash_ex.c **** /**
1068:./Libraries/STM32F4xx_HAL_Driver/Src/stm32f4xx_hal_flash_ex.c ****   * @brief  Disable the write protection of the desired bank 1 sectors
1069:./Libraries/STM32F4xx_HAL_Driver/Src/stm32f4xx_hal_flash_ex.c ****   *
1070:./Libraries/STM32F4xx_HAL_Driver/Src/stm32f4xx_hal_flash_ex.c ****   * @note   When the memory read protection level is selected (RDP level = 1), 
1071:./Libraries/STM32F4xx_HAL_Driver/Src/stm32f4xx_hal_flash_ex.c ****   *         it is not possible to program or erase the flash sector i if CortexM4  
1072:./Libraries/STM32F4xx_HAL_Driver/Src/stm32f4xx_hal_flash_ex.c ****   *         debug features are connected or boot code is executed in RAM, even if nWRPi = 1 
1073:./Libraries/STM32F4xx_HAL_Driver/Src/stm32f4xx_hal_flash_ex.c ****   * @note   Active value of nWRPi bits is inverted when PCROP mode is active (SPRMOD =1).   
1074:./Libraries/STM32F4xx_HAL_Driver/Src/stm32f4xx_hal_flash_ex.c ****   * 
1075:./Libraries/STM32F4xx_HAL_Driver/Src/stm32f4xx_hal_flash_ex.c ****   * @param  WRPSector specifies the sector(s) to be write protected.
1076:./Libraries/STM32F4xx_HAL_Driver/Src/stm32f4xx_hal_flash_ex.c ****   *         The value of this parameter depend on device used within the same series 
1077:./Libraries/STM32F4xx_HAL_Driver/Src/stm32f4xx_hal_flash_ex.c ****   * 
1078:./Libraries/STM32F4xx_HAL_Driver/Src/stm32f4xx_hal_flash_ex.c ****   * @param  Banks Enable write protection on all the sectors for the specific bank
1079:./Libraries/STM32F4xx_HAL_Driver/Src/stm32f4xx_hal_flash_ex.c ****   *          This parameter can be one of the following values:
1080:./Libraries/STM32F4xx_HAL_Driver/Src/stm32f4xx_hal_flash_ex.c ****   *            @arg FLASH_BANK_1: WRP on all sectors of bank1
1081:./Libraries/STM32F4xx_HAL_Driver/Src/stm32f4xx_hal_flash_ex.c ****   *
1082:./Libraries/STM32F4xx_HAL_Driver/Src/stm32f4xx_hal_flash_ex.c ****   * @retval HAL Status 
1083:./Libraries/STM32F4xx_HAL_Driver/Src/stm32f4xx_hal_flash_ex.c ****   */
1084:./Libraries/STM32F4xx_HAL_Driver/Src/stm32f4xx_hal_flash_ex.c **** static HAL_StatusTypeDef FLASH_OB_DisableWRP(uint32_t WRPSector, uint32_t Banks)
1085:./Libraries/STM32F4xx_HAL_Driver/Src/stm32f4xx_hal_flash_ex.c **** {
1086:./Libraries/STM32F4xx_HAL_Driver/Src/stm32f4xx_hal_flash_ex.c ****   HAL_StatusTypeDef status = HAL_OK;
1087:./Libraries/STM32F4xx_HAL_Driver/Src/stm32f4xx_hal_flash_ex.c ****   
1088:./Libraries/STM32F4xx_HAL_Driver/Src/stm32f4xx_hal_flash_ex.c ****   /* Check the parameters */
1089:./Libraries/STM32F4xx_HAL_Driver/Src/stm32f4xx_hal_flash_ex.c ****   assert_param(IS_OB_WRP_SECTOR(WRPSector));
1090:./Libraries/STM32F4xx_HAL_Driver/Src/stm32f4xx_hal_flash_ex.c ****   assert_param(IS_FLASH_BANK(Banks));
1091:./Libraries/STM32F4xx_HAL_Driver/Src/stm32f4xx_hal_flash_ex.c ****     
1092:./Libraries/STM32F4xx_HAL_Driver/Src/stm32f4xx_hal_flash_ex.c ****   /* Wait for last operation to be completed */
1093:./Libraries/STM32F4xx_HAL_Driver/Src/stm32f4xx_hal_flash_ex.c ****   status = FLASH_WaitForLastOperation((uint32_t)FLASH_TIMEOUT_VALUE);
1094:./Libraries/STM32F4xx_HAL_Driver/Src/stm32f4xx_hal_flash_ex.c **** 
1095:./Libraries/STM32F4xx_HAL_Driver/Src/stm32f4xx_hal_flash_ex.c ****   if(status == HAL_OK)
1096:./Libraries/STM32F4xx_HAL_Driver/Src/stm32f4xx_hal_flash_ex.c ****   { 
ARM GAS  /tmp/ccuOvNEu.s 			page 22


1097:./Libraries/STM32F4xx_HAL_Driver/Src/stm32f4xx_hal_flash_ex.c ****     *(__IO uint16_t*)OPTCR_BYTE2_ADDRESS |= (uint16_t)WRPSector; 
1098:./Libraries/STM32F4xx_HAL_Driver/Src/stm32f4xx_hal_flash_ex.c ****   }
1099:./Libraries/STM32F4xx_HAL_Driver/Src/stm32f4xx_hal_flash_ex.c ****   
1100:./Libraries/STM32F4xx_HAL_Driver/Src/stm32f4xx_hal_flash_ex.c ****   return status;
1101:./Libraries/STM32F4xx_HAL_Driver/Src/stm32f4xx_hal_flash_ex.c **** }
1102:./Libraries/STM32F4xx_HAL_Driver/Src/stm32f4xx_hal_flash_ex.c **** #endif /* STM32F40xxx || STM32F41xxx || STM32F401xx || STM32F410xx || STM32F411xE || STM32F446xx ||
1103:./Libraries/STM32F4xx_HAL_Driver/Src/stm32f4xx_hal_flash_ex.c ****           STM32F413xx || STM32F423xx */
1104:./Libraries/STM32F4xx_HAL_Driver/Src/stm32f4xx_hal_flash_ex.c **** 
1105:./Libraries/STM32F4xx_HAL_Driver/Src/stm32f4xx_hal_flash_ex.c **** #if defined(STM32F401xC) || defined(STM32F401xE) || defined(STM32F410Tx) || defined(STM32F410Cx) ||
1106:./Libraries/STM32F4xx_HAL_Driver/Src/stm32f4xx_hal_flash_ex.c ****     defined(STM32F411xE) || defined(STM32F446xx) || defined(STM32F412Zx) || defined(STM32F412Vx) ||
1107:./Libraries/STM32F4xx_HAL_Driver/Src/stm32f4xx_hal_flash_ex.c ****     defined(STM32F412Cx) || defined(STM32F413xx) || defined(STM32F423xx)
1108:./Libraries/STM32F4xx_HAL_Driver/Src/stm32f4xx_hal_flash_ex.c **** /**
1109:./Libraries/STM32F4xx_HAL_Driver/Src/stm32f4xx_hal_flash_ex.c ****   * @brief  Enable the read/write protection (PCROP) of the desired sectors.
1110:./Libraries/STM32F4xx_HAL_Driver/Src/stm32f4xx_hal_flash_ex.c ****   * @note   This function can be used only for STM32F401xx devices.
1111:./Libraries/STM32F4xx_HAL_Driver/Src/stm32f4xx_hal_flash_ex.c ****   * @param  Sector specifies the sector(s) to be read/write protected or unprotected.
1112:./Libraries/STM32F4xx_HAL_Driver/Src/stm32f4xx_hal_flash_ex.c ****   *          This parameter can be one of the following values:
1113:./Libraries/STM32F4xx_HAL_Driver/Src/stm32f4xx_hal_flash_ex.c ****   *            @arg OB_PCROP: A value between OB_PCROP_Sector0 and OB_PCROP_Sector5
1114:./Libraries/STM32F4xx_HAL_Driver/Src/stm32f4xx_hal_flash_ex.c ****   *            @arg OB_PCROP_Sector_All                         
1115:./Libraries/STM32F4xx_HAL_Driver/Src/stm32f4xx_hal_flash_ex.c ****   * @retval HAL Status  
1116:./Libraries/STM32F4xx_HAL_Driver/Src/stm32f4xx_hal_flash_ex.c ****   */
1117:./Libraries/STM32F4xx_HAL_Driver/Src/stm32f4xx_hal_flash_ex.c **** static HAL_StatusTypeDef FLASH_OB_EnablePCROP(uint32_t Sector)
1118:./Libraries/STM32F4xx_HAL_Driver/Src/stm32f4xx_hal_flash_ex.c **** {
1119:./Libraries/STM32F4xx_HAL_Driver/Src/stm32f4xx_hal_flash_ex.c ****   HAL_StatusTypeDef status = HAL_OK;
1120:./Libraries/STM32F4xx_HAL_Driver/Src/stm32f4xx_hal_flash_ex.c ****   
1121:./Libraries/STM32F4xx_HAL_Driver/Src/stm32f4xx_hal_flash_ex.c ****   /* Check the parameters */
1122:./Libraries/STM32F4xx_HAL_Driver/Src/stm32f4xx_hal_flash_ex.c ****   assert_param(IS_OB_PCROP(Sector));
1123:./Libraries/STM32F4xx_HAL_Driver/Src/stm32f4xx_hal_flash_ex.c ****     
1124:./Libraries/STM32F4xx_HAL_Driver/Src/stm32f4xx_hal_flash_ex.c ****   /* Wait for last operation to be completed */  
1125:./Libraries/STM32F4xx_HAL_Driver/Src/stm32f4xx_hal_flash_ex.c ****   status = FLASH_WaitForLastOperation((uint32_t)FLASH_TIMEOUT_VALUE);
1126:./Libraries/STM32F4xx_HAL_Driver/Src/stm32f4xx_hal_flash_ex.c **** 
1127:./Libraries/STM32F4xx_HAL_Driver/Src/stm32f4xx_hal_flash_ex.c ****   if(status == HAL_OK)
1128:./Libraries/STM32F4xx_HAL_Driver/Src/stm32f4xx_hal_flash_ex.c ****   { 
1129:./Libraries/STM32F4xx_HAL_Driver/Src/stm32f4xx_hal_flash_ex.c ****     *(__IO uint16_t*)OPTCR_BYTE2_ADDRESS |= (uint16_t)Sector;
1130:./Libraries/STM32F4xx_HAL_Driver/Src/stm32f4xx_hal_flash_ex.c ****   }
1131:./Libraries/STM32F4xx_HAL_Driver/Src/stm32f4xx_hal_flash_ex.c ****   
1132:./Libraries/STM32F4xx_HAL_Driver/Src/stm32f4xx_hal_flash_ex.c ****   return status;
1133:./Libraries/STM32F4xx_HAL_Driver/Src/stm32f4xx_hal_flash_ex.c **** }
1134:./Libraries/STM32F4xx_HAL_Driver/Src/stm32f4xx_hal_flash_ex.c **** 
1135:./Libraries/STM32F4xx_HAL_Driver/Src/stm32f4xx_hal_flash_ex.c **** 
1136:./Libraries/STM32F4xx_HAL_Driver/Src/stm32f4xx_hal_flash_ex.c **** /**
1137:./Libraries/STM32F4xx_HAL_Driver/Src/stm32f4xx_hal_flash_ex.c ****   * @brief  Disable the read/write protection (PCROP) of the desired sectors.
1138:./Libraries/STM32F4xx_HAL_Driver/Src/stm32f4xx_hal_flash_ex.c ****   * @note   This function can be used only for STM32F401xx devices.
1139:./Libraries/STM32F4xx_HAL_Driver/Src/stm32f4xx_hal_flash_ex.c ****   * @param  Sector specifies the sector(s) to be read/write protected or unprotected.
1140:./Libraries/STM32F4xx_HAL_Driver/Src/stm32f4xx_hal_flash_ex.c ****   *          This parameter can be one of the following values:
1141:./Libraries/STM32F4xx_HAL_Driver/Src/stm32f4xx_hal_flash_ex.c ****   *            @arg OB_PCROP: A value between OB_PCROP_Sector0 and OB_PCROP_Sector5
1142:./Libraries/STM32F4xx_HAL_Driver/Src/stm32f4xx_hal_flash_ex.c ****   *            @arg OB_PCROP_Sector_All                         
1143:./Libraries/STM32F4xx_HAL_Driver/Src/stm32f4xx_hal_flash_ex.c ****   * @retval HAL Status  
1144:./Libraries/STM32F4xx_HAL_Driver/Src/stm32f4xx_hal_flash_ex.c ****   */
1145:./Libraries/STM32F4xx_HAL_Driver/Src/stm32f4xx_hal_flash_ex.c **** static HAL_StatusTypeDef FLASH_OB_DisablePCROP(uint32_t Sector)
1146:./Libraries/STM32F4xx_HAL_Driver/Src/stm32f4xx_hal_flash_ex.c **** {  
1147:./Libraries/STM32F4xx_HAL_Driver/Src/stm32f4xx_hal_flash_ex.c ****   HAL_StatusTypeDef status = HAL_OK;
1148:./Libraries/STM32F4xx_HAL_Driver/Src/stm32f4xx_hal_flash_ex.c ****   
1149:./Libraries/STM32F4xx_HAL_Driver/Src/stm32f4xx_hal_flash_ex.c ****   /* Check the parameters */
1150:./Libraries/STM32F4xx_HAL_Driver/Src/stm32f4xx_hal_flash_ex.c ****   assert_param(IS_OB_PCROP(Sector));
1151:./Libraries/STM32F4xx_HAL_Driver/Src/stm32f4xx_hal_flash_ex.c ****     
1152:./Libraries/STM32F4xx_HAL_Driver/Src/stm32f4xx_hal_flash_ex.c ****   /* Wait for last operation to be completed */  
1153:./Libraries/STM32F4xx_HAL_Driver/Src/stm32f4xx_hal_flash_ex.c ****   status = FLASH_WaitForLastOperation((uint32_t)FLASH_TIMEOUT_VALUE);
ARM GAS  /tmp/ccuOvNEu.s 			page 23


1154:./Libraries/STM32F4xx_HAL_Driver/Src/stm32f4xx_hal_flash_ex.c **** 
1155:./Libraries/STM32F4xx_HAL_Driver/Src/stm32f4xx_hal_flash_ex.c ****   if(status == HAL_OK)
1156:./Libraries/STM32F4xx_HAL_Driver/Src/stm32f4xx_hal_flash_ex.c ****   { 
1157:./Libraries/STM32F4xx_HAL_Driver/Src/stm32f4xx_hal_flash_ex.c ****     *(__IO uint16_t*)OPTCR_BYTE2_ADDRESS &= (~Sector);
1158:./Libraries/STM32F4xx_HAL_Driver/Src/stm32f4xx_hal_flash_ex.c ****   }
1159:./Libraries/STM32F4xx_HAL_Driver/Src/stm32f4xx_hal_flash_ex.c ****   
1160:./Libraries/STM32F4xx_HAL_Driver/Src/stm32f4xx_hal_flash_ex.c ****   return status;
1161:./Libraries/STM32F4xx_HAL_Driver/Src/stm32f4xx_hal_flash_ex.c **** 
1162:./Libraries/STM32F4xx_HAL_Driver/Src/stm32f4xx_hal_flash_ex.c **** }
1163:./Libraries/STM32F4xx_HAL_Driver/Src/stm32f4xx_hal_flash_ex.c **** #endif /* STM32F401xC || STM32F401xE || STM32F411xE || STM32F446xx || STM32F412Zx || STM32F412Vx ||
1164:./Libraries/STM32F4xx_HAL_Driver/Src/stm32f4xx_hal_flash_ex.c ****           STM32F413xx || STM32F423xx */
1165:./Libraries/STM32F4xx_HAL_Driver/Src/stm32f4xx_hal_flash_ex.c **** 
1166:./Libraries/STM32F4xx_HAL_Driver/Src/stm32f4xx_hal_flash_ex.c **** /**
1167:./Libraries/STM32F4xx_HAL_Driver/Src/stm32f4xx_hal_flash_ex.c ****   * @brief  Set the read protection level.
1168:./Libraries/STM32F4xx_HAL_Driver/Src/stm32f4xx_hal_flash_ex.c ****   * @param  Level specifies the read protection level.
1169:./Libraries/STM32F4xx_HAL_Driver/Src/stm32f4xx_hal_flash_ex.c ****   *          This parameter can be one of the following values:
1170:./Libraries/STM32F4xx_HAL_Driver/Src/stm32f4xx_hal_flash_ex.c ****   *            @arg OB_RDP_LEVEL_0: No protection
1171:./Libraries/STM32F4xx_HAL_Driver/Src/stm32f4xx_hal_flash_ex.c ****   *            @arg OB_RDP_LEVEL_1: Read protection of the memory
1172:./Libraries/STM32F4xx_HAL_Driver/Src/stm32f4xx_hal_flash_ex.c ****   *            @arg OB_RDP_LEVEL_2: Full chip protection
1173:./Libraries/STM32F4xx_HAL_Driver/Src/stm32f4xx_hal_flash_ex.c ****   *   
1174:./Libraries/STM32F4xx_HAL_Driver/Src/stm32f4xx_hal_flash_ex.c ****   * @note WARNING: When enabling OB_RDP level 2 it's no more possible to go back to level 1 or 0
1175:./Libraries/STM32F4xx_HAL_Driver/Src/stm32f4xx_hal_flash_ex.c ****   *    
1176:./Libraries/STM32F4xx_HAL_Driver/Src/stm32f4xx_hal_flash_ex.c ****   * @retval HAL Status
1177:./Libraries/STM32F4xx_HAL_Driver/Src/stm32f4xx_hal_flash_ex.c ****   */
1178:./Libraries/STM32F4xx_HAL_Driver/Src/stm32f4xx_hal_flash_ex.c **** static HAL_StatusTypeDef FLASH_OB_RDP_LevelConfig(uint8_t Level)
1179:./Libraries/STM32F4xx_HAL_Driver/Src/stm32f4xx_hal_flash_ex.c **** {
1180:./Libraries/STM32F4xx_HAL_Driver/Src/stm32f4xx_hal_flash_ex.c ****   HAL_StatusTypeDef status = HAL_OK;
1181:./Libraries/STM32F4xx_HAL_Driver/Src/stm32f4xx_hal_flash_ex.c ****   
1182:./Libraries/STM32F4xx_HAL_Driver/Src/stm32f4xx_hal_flash_ex.c ****   /* Check the parameters */
1183:./Libraries/STM32F4xx_HAL_Driver/Src/stm32f4xx_hal_flash_ex.c ****   assert_param(IS_OB_RDP_LEVEL(Level));
1184:./Libraries/STM32F4xx_HAL_Driver/Src/stm32f4xx_hal_flash_ex.c ****     
1185:./Libraries/STM32F4xx_HAL_Driver/Src/stm32f4xx_hal_flash_ex.c ****   /* Wait for last operation to be completed */
1186:./Libraries/STM32F4xx_HAL_Driver/Src/stm32f4xx_hal_flash_ex.c ****   status = FLASH_WaitForLastOperation((uint32_t)FLASH_TIMEOUT_VALUE);
1187:./Libraries/STM32F4xx_HAL_Driver/Src/stm32f4xx_hal_flash_ex.c **** 
1188:./Libraries/STM32F4xx_HAL_Driver/Src/stm32f4xx_hal_flash_ex.c ****   if(status == HAL_OK)
1189:./Libraries/STM32F4xx_HAL_Driver/Src/stm32f4xx_hal_flash_ex.c ****   { 
1190:./Libraries/STM32F4xx_HAL_Driver/Src/stm32f4xx_hal_flash_ex.c ****     *(__IO uint8_t*)OPTCR_BYTE1_ADDRESS = Level;
1191:./Libraries/STM32F4xx_HAL_Driver/Src/stm32f4xx_hal_flash_ex.c ****   }
1192:./Libraries/STM32F4xx_HAL_Driver/Src/stm32f4xx_hal_flash_ex.c ****   
1193:./Libraries/STM32F4xx_HAL_Driver/Src/stm32f4xx_hal_flash_ex.c ****   return status;
1194:./Libraries/STM32F4xx_HAL_Driver/Src/stm32f4xx_hal_flash_ex.c **** }
1195:./Libraries/STM32F4xx_HAL_Driver/Src/stm32f4xx_hal_flash_ex.c **** 
1196:./Libraries/STM32F4xx_HAL_Driver/Src/stm32f4xx_hal_flash_ex.c **** /**
1197:./Libraries/STM32F4xx_HAL_Driver/Src/stm32f4xx_hal_flash_ex.c ****   * @brief  Program the FLASH User Option Byte: IWDG_SW / RST_STOP / RST_STDBY.    
1198:./Libraries/STM32F4xx_HAL_Driver/Src/stm32f4xx_hal_flash_ex.c ****   * @param  Iwdg Selects the IWDG mode
1199:./Libraries/STM32F4xx_HAL_Driver/Src/stm32f4xx_hal_flash_ex.c ****   *          This parameter can be one of the following values:
1200:./Libraries/STM32F4xx_HAL_Driver/Src/stm32f4xx_hal_flash_ex.c ****   *            @arg OB_IWDG_SW: Software IWDG selected
1201:./Libraries/STM32F4xx_HAL_Driver/Src/stm32f4xx_hal_flash_ex.c ****   *            @arg OB_IWDG_HW: Hardware IWDG selected
1202:./Libraries/STM32F4xx_HAL_Driver/Src/stm32f4xx_hal_flash_ex.c ****   * @param  Stop Reset event when entering STOP mode.
1203:./Libraries/STM32F4xx_HAL_Driver/Src/stm32f4xx_hal_flash_ex.c ****   *          This parameter  can be one of the following values:
1204:./Libraries/STM32F4xx_HAL_Driver/Src/stm32f4xx_hal_flash_ex.c ****   *            @arg OB_STOP_NO_RST: No reset generated when entering in STOP
1205:./Libraries/STM32F4xx_HAL_Driver/Src/stm32f4xx_hal_flash_ex.c ****   *            @arg OB_STOP_RST: Reset generated when entering in STOP
1206:./Libraries/STM32F4xx_HAL_Driver/Src/stm32f4xx_hal_flash_ex.c ****   * @param  Stdby Reset event when entering Standby mode.
1207:./Libraries/STM32F4xx_HAL_Driver/Src/stm32f4xx_hal_flash_ex.c ****   *          This parameter  can be one of the following values:
1208:./Libraries/STM32F4xx_HAL_Driver/Src/stm32f4xx_hal_flash_ex.c ****   *            @arg OB_STDBY_NO_RST: No reset generated when entering in STANDBY
1209:./Libraries/STM32F4xx_HAL_Driver/Src/stm32f4xx_hal_flash_ex.c ****   *            @arg OB_STDBY_RST: Reset generated when entering in STANDBY
1210:./Libraries/STM32F4xx_HAL_Driver/Src/stm32f4xx_hal_flash_ex.c ****   * @retval HAL Status
ARM GAS  /tmp/ccuOvNEu.s 			page 24


1211:./Libraries/STM32F4xx_HAL_Driver/Src/stm32f4xx_hal_flash_ex.c ****   */
1212:./Libraries/STM32F4xx_HAL_Driver/Src/stm32f4xx_hal_flash_ex.c **** static HAL_StatusTypeDef FLASH_OB_UserConfig(uint8_t Iwdg, uint8_t Stop, uint8_t Stdby)
1213:./Libraries/STM32F4xx_HAL_Driver/Src/stm32f4xx_hal_flash_ex.c **** {
1214:./Libraries/STM32F4xx_HAL_Driver/Src/stm32f4xx_hal_flash_ex.c ****   uint8_t optiontmp = 0xFF;
1215:./Libraries/STM32F4xx_HAL_Driver/Src/stm32f4xx_hal_flash_ex.c ****   HAL_StatusTypeDef status = HAL_OK;
1216:./Libraries/STM32F4xx_HAL_Driver/Src/stm32f4xx_hal_flash_ex.c **** 
1217:./Libraries/STM32F4xx_HAL_Driver/Src/stm32f4xx_hal_flash_ex.c ****   /* Check the parameters */
1218:./Libraries/STM32F4xx_HAL_Driver/Src/stm32f4xx_hal_flash_ex.c ****   assert_param(IS_OB_IWDG_SOURCE(Iwdg));
1219:./Libraries/STM32F4xx_HAL_Driver/Src/stm32f4xx_hal_flash_ex.c ****   assert_param(IS_OB_STOP_SOURCE(Stop));
1220:./Libraries/STM32F4xx_HAL_Driver/Src/stm32f4xx_hal_flash_ex.c ****   assert_param(IS_OB_STDBY_SOURCE(Stdby));
1221:./Libraries/STM32F4xx_HAL_Driver/Src/stm32f4xx_hal_flash_ex.c **** 
1222:./Libraries/STM32F4xx_HAL_Driver/Src/stm32f4xx_hal_flash_ex.c ****   /* Wait for last operation to be completed */
1223:./Libraries/STM32F4xx_HAL_Driver/Src/stm32f4xx_hal_flash_ex.c ****   status = FLASH_WaitForLastOperation((uint32_t)FLASH_TIMEOUT_VALUE);
1224:./Libraries/STM32F4xx_HAL_Driver/Src/stm32f4xx_hal_flash_ex.c ****   
1225:./Libraries/STM32F4xx_HAL_Driver/Src/stm32f4xx_hal_flash_ex.c ****   if(status == HAL_OK)
1226:./Libraries/STM32F4xx_HAL_Driver/Src/stm32f4xx_hal_flash_ex.c ****   {     
1227:./Libraries/STM32F4xx_HAL_Driver/Src/stm32f4xx_hal_flash_ex.c ****     /* Mask OPTLOCK, OPTSTRT, BOR_LEV and BFB2 bits */
1228:./Libraries/STM32F4xx_HAL_Driver/Src/stm32f4xx_hal_flash_ex.c ****     optiontmp =  (uint8_t)((*(__IO uint8_t *)OPTCR_BYTE0_ADDRESS) & (uint8_t)0x1F);
1229:./Libraries/STM32F4xx_HAL_Driver/Src/stm32f4xx_hal_flash_ex.c **** 
1230:./Libraries/STM32F4xx_HAL_Driver/Src/stm32f4xx_hal_flash_ex.c ****     /* Update User Option Byte */
1231:./Libraries/STM32F4xx_HAL_Driver/Src/stm32f4xx_hal_flash_ex.c ****     *(__IO uint8_t *)OPTCR_BYTE0_ADDRESS = Iwdg | (uint8_t)(Stdby | (uint8_t)(Stop | ((uint8_t)opti
1232:./Libraries/STM32F4xx_HAL_Driver/Src/stm32f4xx_hal_flash_ex.c ****   }
1233:./Libraries/STM32F4xx_HAL_Driver/Src/stm32f4xx_hal_flash_ex.c ****   
1234:./Libraries/STM32F4xx_HAL_Driver/Src/stm32f4xx_hal_flash_ex.c ****   return status; 
1235:./Libraries/STM32F4xx_HAL_Driver/Src/stm32f4xx_hal_flash_ex.c **** }
1236:./Libraries/STM32F4xx_HAL_Driver/Src/stm32f4xx_hal_flash_ex.c **** 
1237:./Libraries/STM32F4xx_HAL_Driver/Src/stm32f4xx_hal_flash_ex.c **** /**
1238:./Libraries/STM32F4xx_HAL_Driver/Src/stm32f4xx_hal_flash_ex.c ****   * @brief  Set the BOR Level. 
1239:./Libraries/STM32F4xx_HAL_Driver/Src/stm32f4xx_hal_flash_ex.c ****   * @param  Level specifies the Option Bytes BOR Reset Level.
1240:./Libraries/STM32F4xx_HAL_Driver/Src/stm32f4xx_hal_flash_ex.c ****   *          This parameter can be one of the following values:
1241:./Libraries/STM32F4xx_HAL_Driver/Src/stm32f4xx_hal_flash_ex.c ****   *            @arg OB_BOR_LEVEL3: Supply voltage ranges from 2.7 to 3.6 V
1242:./Libraries/STM32F4xx_HAL_Driver/Src/stm32f4xx_hal_flash_ex.c ****   *            @arg OB_BOR_LEVEL2: Supply voltage ranges from 2.4 to 2.7 V
1243:./Libraries/STM32F4xx_HAL_Driver/Src/stm32f4xx_hal_flash_ex.c ****   *            @arg OB_BOR_LEVEL1: Supply voltage ranges from 2.1 to 2.4 V
1244:./Libraries/STM32F4xx_HAL_Driver/Src/stm32f4xx_hal_flash_ex.c ****   *            @arg OB_BOR_OFF: Supply voltage ranges from 1.62 to 2.1 V
1245:./Libraries/STM32F4xx_HAL_Driver/Src/stm32f4xx_hal_flash_ex.c ****   * @retval HAL Status
1246:./Libraries/STM32F4xx_HAL_Driver/Src/stm32f4xx_hal_flash_ex.c ****   */
1247:./Libraries/STM32F4xx_HAL_Driver/Src/stm32f4xx_hal_flash_ex.c **** static HAL_StatusTypeDef FLASH_OB_BOR_LevelConfig(uint8_t Level)
1248:./Libraries/STM32F4xx_HAL_Driver/Src/stm32f4xx_hal_flash_ex.c **** {
 101              		.loc 1 1248 1 is_stmt 1 view -0
 102              		.cfi_startproc
 103              		@ args = 0, pretend = 0, frame = 0
 104              		@ frame_needed = 0, uses_anonymous_args = 0
 105              		@ link register save eliminated.
1249:./Libraries/STM32F4xx_HAL_Driver/Src/stm32f4xx_hal_flash_ex.c ****   /* Check the parameters */
1250:./Libraries/STM32F4xx_HAL_Driver/Src/stm32f4xx_hal_flash_ex.c ****   assert_param(IS_OB_BOR_LEVEL(Level));
 106              		.loc 1 1250 3 view .LVU19
1251:./Libraries/STM32F4xx_HAL_Driver/Src/stm32f4xx_hal_flash_ex.c **** 
1252:./Libraries/STM32F4xx_HAL_Driver/Src/stm32f4xx_hal_flash_ex.c ****   /* Set the BOR Level */
1253:./Libraries/STM32F4xx_HAL_Driver/Src/stm32f4xx_hal_flash_ex.c ****   *(__IO uint8_t *)OPTCR_BYTE0_ADDRESS &= (~FLASH_OPTCR_BOR_LEV);
 107              		.loc 1 1253 3 view .LVU20
 108              		.loc 1 1253 40 is_stmt 0 view .LVU21
 109 0000 044B     		ldr	r3, .L10
 110 0002 197D     		ldrb	r1, [r3, #20]	@ zero_extendqisi2
 111 0004 01F0F301 		and	r1, r1, #243
 112 0008 1975     		strb	r1, [r3, #20]
1254:./Libraries/STM32F4xx_HAL_Driver/Src/stm32f4xx_hal_flash_ex.c ****   *(__IO uint8_t *)OPTCR_BYTE0_ADDRESS |= Level;
 113              		.loc 1 1254 3 is_stmt 1 view .LVU22
ARM GAS  /tmp/ccuOvNEu.s 			page 25


 114              		.loc 1 1254 40 is_stmt 0 view .LVU23
 115 000a 1A7D     		ldrb	r2, [r3, #20]	@ zero_extendqisi2
 116 000c 0243     		orrs	r2, r2, r0
 117 000e 1A75     		strb	r2, [r3, #20]
1255:./Libraries/STM32F4xx_HAL_Driver/Src/stm32f4xx_hal_flash_ex.c ****   
1256:./Libraries/STM32F4xx_HAL_Driver/Src/stm32f4xx_hal_flash_ex.c ****   return HAL_OK;
 118              		.loc 1 1256 3 is_stmt 1 view .LVU24
1257:./Libraries/STM32F4xx_HAL_Driver/Src/stm32f4xx_hal_flash_ex.c ****   
1258:./Libraries/STM32F4xx_HAL_Driver/Src/stm32f4xx_hal_flash_ex.c **** }
 119              		.loc 1 1258 1 is_stmt 0 view .LVU25
 120 0010 0020     		movs	r0, #0
 121              	.LVL4:
 122              		.loc 1 1258 1 view .LVU26
 123 0012 7047     		bx	lr
 124              	.L11:
 125              		.align	2
 126              	.L10:
 127 0014 003C0240 		.word	1073888256
 128              		.cfi_endproc
 129              	.LFE144:
 131              		.section	.text.FLASH_OB_GetUser,"ax",%progbits
 132              		.align	1
 133              		.syntax unified
 134              		.thumb
 135              		.thumb_func
 136              		.fpu fpv4-sp-d16
 138              	FLASH_OB_GetUser:
 139              	.LFB145:
1259:./Libraries/STM32F4xx_HAL_Driver/Src/stm32f4xx_hal_flash_ex.c **** 
1260:./Libraries/STM32F4xx_HAL_Driver/Src/stm32f4xx_hal_flash_ex.c **** /**
1261:./Libraries/STM32F4xx_HAL_Driver/Src/stm32f4xx_hal_flash_ex.c ****   * @brief  Return the FLASH User Option Byte value.
1262:./Libraries/STM32F4xx_HAL_Driver/Src/stm32f4xx_hal_flash_ex.c ****   * @retval uint8_t FLASH User Option Bytes values: IWDG_SW(Bit0), RST_STOP(Bit1)
1263:./Libraries/STM32F4xx_HAL_Driver/Src/stm32f4xx_hal_flash_ex.c ****   *         and RST_STDBY(Bit2).
1264:./Libraries/STM32F4xx_HAL_Driver/Src/stm32f4xx_hal_flash_ex.c ****   */
1265:./Libraries/STM32F4xx_HAL_Driver/Src/stm32f4xx_hal_flash_ex.c **** static uint8_t FLASH_OB_GetUser(void)
1266:./Libraries/STM32F4xx_HAL_Driver/Src/stm32f4xx_hal_flash_ex.c **** {
 140              		.loc 1 1266 1 is_stmt 1 view -0
 141              		.cfi_startproc
 142              		@ args = 0, pretend = 0, frame = 0
 143              		@ frame_needed = 0, uses_anonymous_args = 0
 144              		@ link register save eliminated.
1267:./Libraries/STM32F4xx_HAL_Driver/Src/stm32f4xx_hal_flash_ex.c ****   /* Return the User Option Byte */
1268:./Libraries/STM32F4xx_HAL_Driver/Src/stm32f4xx_hal_flash_ex.c ****   return ((uint8_t)(FLASH->OPTCR & 0xE0));
 145              		.loc 1 1268 3 view .LVU28
 146              		.loc 1 1268 26 is_stmt 0 view .LVU29
 147 0000 024B     		ldr	r3, .L13
 148 0002 5869     		ldr	r0, [r3, #20]
1269:./Libraries/STM32F4xx_HAL_Driver/Src/stm32f4xx_hal_flash_ex.c **** }
 149              		.loc 1 1269 1 view .LVU30
 150 0004 00F0E000 		and	r0, r0, #224
 151 0008 7047     		bx	lr
 152              	.L14:
 153 000a 00BF     		.align	2
 154              	.L13:
 155 000c 003C0240 		.word	1073888256
 156              		.cfi_endproc
 157              	.LFE145:
ARM GAS  /tmp/ccuOvNEu.s 			page 26


 159              		.section	.text.FLASH_OB_GetWRP,"ax",%progbits
 160              		.align	1
 161              		.syntax unified
 162              		.thumb
 163              		.thumb_func
 164              		.fpu fpv4-sp-d16
 166              	FLASH_OB_GetWRP:
 167              	.LFB146:
1270:./Libraries/STM32F4xx_HAL_Driver/Src/stm32f4xx_hal_flash_ex.c **** 
1271:./Libraries/STM32F4xx_HAL_Driver/Src/stm32f4xx_hal_flash_ex.c **** /**
1272:./Libraries/STM32F4xx_HAL_Driver/Src/stm32f4xx_hal_flash_ex.c ****   * @brief  Return the FLASH Write Protection Option Bytes value.
1273:./Libraries/STM32F4xx_HAL_Driver/Src/stm32f4xx_hal_flash_ex.c ****   * @retval uint16_t FLASH Write Protection Option Bytes value
1274:./Libraries/STM32F4xx_HAL_Driver/Src/stm32f4xx_hal_flash_ex.c ****   */
1275:./Libraries/STM32F4xx_HAL_Driver/Src/stm32f4xx_hal_flash_ex.c **** static uint16_t FLASH_OB_GetWRP(void)
1276:./Libraries/STM32F4xx_HAL_Driver/Src/stm32f4xx_hal_flash_ex.c **** {
 168              		.loc 1 1276 1 is_stmt 1 view -0
 169              		.cfi_startproc
 170              		@ args = 0, pretend = 0, frame = 0
 171              		@ frame_needed = 0, uses_anonymous_args = 0
 172              		@ link register save eliminated.
1277:./Libraries/STM32F4xx_HAL_Driver/Src/stm32f4xx_hal_flash_ex.c ****   /* Return the FLASH write protection Register value */
1278:./Libraries/STM32F4xx_HAL_Driver/Src/stm32f4xx_hal_flash_ex.c ****   return (*(__IO uint16_t *)(OPTCR_BYTE2_ADDRESS));
 173              		.loc 1 1278 3 view .LVU32
 174              		.loc 1 1278 11 is_stmt 0 view .LVU33
 175 0000 014B     		ldr	r3, .L16
 176 0002 D88A     		ldrh	r0, [r3, #22]
1279:./Libraries/STM32F4xx_HAL_Driver/Src/stm32f4xx_hal_flash_ex.c **** }
 177              		.loc 1 1279 1 view .LVU34
 178 0004 80B2     		uxth	r0, r0
 179 0006 7047     		bx	lr
 180              	.L17:
 181              		.align	2
 182              	.L16:
 183 0008 003C0240 		.word	1073888256
 184              		.cfi_endproc
 185              	.LFE146:
 187              		.section	.text.FLASH_OB_GetRDP,"ax",%progbits
 188              		.align	1
 189              		.syntax unified
 190              		.thumb
 191              		.thumb_func
 192              		.fpu fpv4-sp-d16
 194              	FLASH_OB_GetRDP:
 195              	.LFB147:
1280:./Libraries/STM32F4xx_HAL_Driver/Src/stm32f4xx_hal_flash_ex.c **** 
1281:./Libraries/STM32F4xx_HAL_Driver/Src/stm32f4xx_hal_flash_ex.c **** /**
1282:./Libraries/STM32F4xx_HAL_Driver/Src/stm32f4xx_hal_flash_ex.c ****   * @brief  Returns the FLASH Read Protection level.
1283:./Libraries/STM32F4xx_HAL_Driver/Src/stm32f4xx_hal_flash_ex.c ****   * @retval FLASH ReadOut Protection Status:
1284:./Libraries/STM32F4xx_HAL_Driver/Src/stm32f4xx_hal_flash_ex.c ****   *         This parameter can be one of the following values:
1285:./Libraries/STM32F4xx_HAL_Driver/Src/stm32f4xx_hal_flash_ex.c ****   *            @arg OB_RDP_LEVEL_0: No protection
1286:./Libraries/STM32F4xx_HAL_Driver/Src/stm32f4xx_hal_flash_ex.c ****   *            @arg OB_RDP_LEVEL_1: Read protection of the memory
1287:./Libraries/STM32F4xx_HAL_Driver/Src/stm32f4xx_hal_flash_ex.c ****   *            @arg OB_RDP_LEVEL_2: Full chip protection
1288:./Libraries/STM32F4xx_HAL_Driver/Src/stm32f4xx_hal_flash_ex.c ****   */
1289:./Libraries/STM32F4xx_HAL_Driver/Src/stm32f4xx_hal_flash_ex.c **** static uint8_t FLASH_OB_GetRDP(void)
1290:./Libraries/STM32F4xx_HAL_Driver/Src/stm32f4xx_hal_flash_ex.c **** {
 196              		.loc 1 1290 1 is_stmt 1 view -0
 197              		.cfi_startproc
ARM GAS  /tmp/ccuOvNEu.s 			page 27


 198              		@ args = 0, pretend = 0, frame = 0
 199              		@ frame_needed = 0, uses_anonymous_args = 0
 200              		@ link register save eliminated.
1291:./Libraries/STM32F4xx_HAL_Driver/Src/stm32f4xx_hal_flash_ex.c ****   uint8_t readstatus = OB_RDP_LEVEL_0;
 201              		.loc 1 1291 3 view .LVU36
 202              	.LVL5:
1292:./Libraries/STM32F4xx_HAL_Driver/Src/stm32f4xx_hal_flash_ex.c **** 
1293:./Libraries/STM32F4xx_HAL_Driver/Src/stm32f4xx_hal_flash_ex.c ****   if((*(__IO uint8_t*)(OPTCR_BYTE1_ADDRESS) == (uint8_t)OB_RDP_LEVEL_2))
 203              		.loc 1 1293 3 view .LVU37
 204              		.loc 1 1293 7 is_stmt 0 view .LVU38
 205 0000 054B     		ldr	r3, .L21
 206 0002 587D     		ldrb	r0, [r3, #21]	@ zero_extendqisi2
 207 0004 C0B2     		uxtb	r0, r0
 208              		.loc 1 1293 5 view .LVU39
 209 0006 CC28     		cmp	r0, #204
 210 0008 04D0     		beq	.L19
1294:./Libraries/STM32F4xx_HAL_Driver/Src/stm32f4xx_hal_flash_ex.c ****   {
1295:./Libraries/STM32F4xx_HAL_Driver/Src/stm32f4xx_hal_flash_ex.c ****     readstatus = OB_RDP_LEVEL_2;
1296:./Libraries/STM32F4xx_HAL_Driver/Src/stm32f4xx_hal_flash_ex.c ****   }
1297:./Libraries/STM32F4xx_HAL_Driver/Src/stm32f4xx_hal_flash_ex.c ****   else if((*(__IO uint8_t*)(OPTCR_BYTE1_ADDRESS) == (uint8_t)OB_RDP_LEVEL_1))
 211              		.loc 1 1297 8 is_stmt 1 view .LVU40
 212              		.loc 1 1297 12 is_stmt 0 view .LVU41
 213 000a 587D     		ldrb	r0, [r3, #21]	@ zero_extendqisi2
 214 000c C0B2     		uxtb	r0, r0
 215              		.loc 1 1297 10 view .LVU42
 216 000e 5528     		cmp	r0, #85
 217 0010 00D0     		beq	.L19
1298:./Libraries/STM32F4xx_HAL_Driver/Src/stm32f4xx_hal_flash_ex.c ****   {
1299:./Libraries/STM32F4xx_HAL_Driver/Src/stm32f4xx_hal_flash_ex.c ****     readstatus = OB_RDP_LEVEL_1;
1300:./Libraries/STM32F4xx_HAL_Driver/Src/stm32f4xx_hal_flash_ex.c ****   }
1301:./Libraries/STM32F4xx_HAL_Driver/Src/stm32f4xx_hal_flash_ex.c ****   else 
1302:./Libraries/STM32F4xx_HAL_Driver/Src/stm32f4xx_hal_flash_ex.c ****   {
1303:./Libraries/STM32F4xx_HAL_Driver/Src/stm32f4xx_hal_flash_ex.c ****     readstatus = OB_RDP_LEVEL_0;
 218              		.loc 1 1303 16 view .LVU43
 219 0012 AA20     		movs	r0, #170
 220              	.L19:
 221              	.LVL6:
1304:./Libraries/STM32F4xx_HAL_Driver/Src/stm32f4xx_hal_flash_ex.c ****   }
1305:./Libraries/STM32F4xx_HAL_Driver/Src/stm32f4xx_hal_flash_ex.c **** 
1306:./Libraries/STM32F4xx_HAL_Driver/Src/stm32f4xx_hal_flash_ex.c ****   return readstatus;
 222              		.loc 1 1306 3 is_stmt 1 view .LVU44
1307:./Libraries/STM32F4xx_HAL_Driver/Src/stm32f4xx_hal_flash_ex.c **** }
 223              		.loc 1 1307 1 is_stmt 0 view .LVU45
 224 0014 7047     		bx	lr
 225              	.L22:
 226 0016 00BF     		.align	2
 227              	.L21:
 228 0018 003C0240 		.word	1073888256
 229              		.cfi_endproc
 230              	.LFE147:
 232              		.section	.text.FLASH_OB_GetBOR,"ax",%progbits
 233              		.align	1
 234              		.syntax unified
 235              		.thumb
 236              		.thumb_func
 237              		.fpu fpv4-sp-d16
 239              	FLASH_OB_GetBOR:
ARM GAS  /tmp/ccuOvNEu.s 			page 28


 240              	.LFB148:
1308:./Libraries/STM32F4xx_HAL_Driver/Src/stm32f4xx_hal_flash_ex.c **** 
1309:./Libraries/STM32F4xx_HAL_Driver/Src/stm32f4xx_hal_flash_ex.c **** /**
1310:./Libraries/STM32F4xx_HAL_Driver/Src/stm32f4xx_hal_flash_ex.c ****   * @brief  Returns the FLASH BOR level.
1311:./Libraries/STM32F4xx_HAL_Driver/Src/stm32f4xx_hal_flash_ex.c ****   * @retval uint8_t The FLASH BOR level:
1312:./Libraries/STM32F4xx_HAL_Driver/Src/stm32f4xx_hal_flash_ex.c ****   *           - OB_BOR_LEVEL3: Supply voltage ranges from 2.7 to 3.6 V
1313:./Libraries/STM32F4xx_HAL_Driver/Src/stm32f4xx_hal_flash_ex.c ****   *           - OB_BOR_LEVEL2: Supply voltage ranges from 2.4 to 2.7 V
1314:./Libraries/STM32F4xx_HAL_Driver/Src/stm32f4xx_hal_flash_ex.c ****   *           - OB_BOR_LEVEL1: Supply voltage ranges from 2.1 to 2.4 V
1315:./Libraries/STM32F4xx_HAL_Driver/Src/stm32f4xx_hal_flash_ex.c ****   *           - OB_BOR_OFF   : Supply voltage ranges from 1.62 to 2.1 V  
1316:./Libraries/STM32F4xx_HAL_Driver/Src/stm32f4xx_hal_flash_ex.c ****   */
1317:./Libraries/STM32F4xx_HAL_Driver/Src/stm32f4xx_hal_flash_ex.c **** static uint8_t FLASH_OB_GetBOR(void)
1318:./Libraries/STM32F4xx_HAL_Driver/Src/stm32f4xx_hal_flash_ex.c **** {
 241              		.loc 1 1318 1 is_stmt 1 view -0
 242              		.cfi_startproc
 243              		@ args = 0, pretend = 0, frame = 0
 244              		@ frame_needed = 0, uses_anonymous_args = 0
 245              		@ link register save eliminated.
1319:./Libraries/STM32F4xx_HAL_Driver/Src/stm32f4xx_hal_flash_ex.c ****   /* Return the FLASH BOR level */
1320:./Libraries/STM32F4xx_HAL_Driver/Src/stm32f4xx_hal_flash_ex.c ****   return (uint8_t)(*(__IO uint8_t *)(OPTCR_BYTE0_ADDRESS) & (uint8_t)0x0C);
 246              		.loc 1 1320 3 view .LVU47
 247              		.loc 1 1320 10 is_stmt 0 view .LVU48
 248 0000 024B     		ldr	r3, .L24
 249 0002 187D     		ldrb	r0, [r3, #20]	@ zero_extendqisi2
1321:./Libraries/STM32F4xx_HAL_Driver/Src/stm32f4xx_hal_flash_ex.c **** }
 250              		.loc 1 1321 1 view .LVU49
 251 0004 00F00C00 		and	r0, r0, #12
 252 0008 7047     		bx	lr
 253              	.L25:
 254 000a 00BF     		.align	2
 255              	.L24:
 256 000c 003C0240 		.word	1073888256
 257              		.cfi_endproc
 258              	.LFE148:
 260              		.section	.text.FLASH_OB_EnableWRP,"ax",%progbits
 261              		.align	1
 262              		.syntax unified
 263              		.thumb
 264              		.thumb_func
 265              		.fpu fpv4-sp-d16
 267              	FLASH_OB_EnableWRP:
 268              	.LVL7:
 269              	.LFB137:
 663:./Libraries/STM32F4xx_HAL_Driver/Src/stm32f4xx_hal_flash_ex.c ****   HAL_StatusTypeDef status = HAL_OK;
 270              		.loc 1 663 1 is_stmt 1 view -0
 271              		.cfi_startproc
 272              		@ args = 0, pretend = 0, frame = 0
 273              		@ frame_needed = 0, uses_anonymous_args = 0
 663:./Libraries/STM32F4xx_HAL_Driver/Src/stm32f4xx_hal_flash_ex.c ****   HAL_StatusTypeDef status = HAL_OK;
 274              		.loc 1 663 1 is_stmt 0 view .LVU51
 275 0000 38B5     		push	{r3, r4, r5, lr}
 276              	.LCFI0:
 277              		.cfi_def_cfa_offset 16
 278              		.cfi_offset 3, -16
 279              		.cfi_offset 4, -12
 280              		.cfi_offset 5, -8
 281              		.cfi_offset 14, -4
 282 0002 0446     		mov	r4, r0
ARM GAS  /tmp/ccuOvNEu.s 			page 29


 283 0004 0D46     		mov	r5, r1
 664:./Libraries/STM32F4xx_HAL_Driver/Src/stm32f4xx_hal_flash_ex.c ****   
 284              		.loc 1 664 3 is_stmt 1 view .LVU52
 285              	.LVL8:
 667:./Libraries/STM32F4xx_HAL_Driver/Src/stm32f4xx_hal_flash_ex.c ****   assert_param(IS_FLASH_BANK(Banks));
 286              		.loc 1 667 3 view .LVU53
 668:./Libraries/STM32F4xx_HAL_Driver/Src/stm32f4xx_hal_flash_ex.c ****     
 287              		.loc 1 668 3 view .LVU54
 671:./Libraries/STM32F4xx_HAL_Driver/Src/stm32f4xx_hal_flash_ex.c **** 
 288              		.loc 1 671 3 view .LVU55
 671:./Libraries/STM32F4xx_HAL_Driver/Src/stm32f4xx_hal_flash_ex.c **** 
 289              		.loc 1 671 12 is_stmt 0 view .LVU56
 290 0006 4CF25030 		movw	r0, #50000
 291              	.LVL9:
 671:./Libraries/STM32F4xx_HAL_Driver/Src/stm32f4xx_hal_flash_ex.c **** 
 292              		.loc 1 671 12 view .LVU57
 293 000a FFF7FEFF 		bl	FLASH_WaitForLastOperation
 294              	.LVL10:
 673:./Libraries/STM32F4xx_HAL_Driver/Src/stm32f4xx_hal_flash_ex.c ****   {
 295              		.loc 1 673 3 is_stmt 1 view .LVU58
 673:./Libraries/STM32F4xx_HAL_Driver/Src/stm32f4xx_hal_flash_ex.c ****   {
 296              		.loc 1 673 5 is_stmt 0 view .LVU59
 297 000e 20BB     		cbnz	r0, .L27
 675:./Libraries/STM32F4xx_HAL_Driver/Src/stm32f4xx_hal_flash_ex.c ****          (WRPSector < OB_WRP_SECTOR_12))
 298              		.loc 1 675 5 is_stmt 1 view .LVU60
 675:./Libraries/STM32F4xx_HAL_Driver/Src/stm32f4xx_hal_flash_ex.c ****          (WRPSector < OB_WRP_SECTOR_12))
 299              		.loc 1 675 7 is_stmt 0 view .LVU61
 300 0010 1A4B     		ldr	r3, .L37
 301 0012 9C42     		cmp	r4, r3
 302 0014 0CD0     		beq	.L34
 303              	.L28:
 675:./Libraries/STM32F4xx_HAL_Driver/Src/stm32f4xx_hal_flash_ex.c ****          (WRPSector < OB_WRP_SECTOR_12))
 304              		.loc 1 675 102 discriminator 4 view .LVU62
 305 0016 B4F5805F 		cmp	r4, #4096
 306 001a 15D2     		bcs	.L30
 307              	.L29:
 678:./Libraries/STM32F4xx_HAL_Driver/Src/stm32f4xx_hal_flash_ex.c ****        {
 308              		.loc 1 678 8 is_stmt 1 view .LVU63
 678:./Libraries/STM32F4xx_HAL_Driver/Src/stm32f4xx_hal_flash_ex.c ****        {
 309              		.loc 1 678 10 is_stmt 0 view .LVU64
 310 001c 174B     		ldr	r3, .L37
 311 001e 9C42     		cmp	r4, r3
 312 0020 0BD0     		beq	.L35
 686:./Libraries/STM32F4xx_HAL_Driver/Src/stm32f4xx_hal_flash_ex.c ****        }
 313              		.loc 1 686 11 is_stmt 1 view .LVU65
 686:./Libraries/STM32F4xx_HAL_Driver/Src/stm32f4xx_hal_flash_ex.c ****        }
 314              		.loc 1 686 48 is_stmt 0 view .LVU66
 315 0022 174A     		ldr	r2, .L37+4
 316 0024 D38A     		ldrh	r3, [r2, #22]
 317 0026 9BB2     		uxth	r3, r3
 318 0028 23EA0403 		bic	r3, r3, r4
 319 002c D382     		strh	r3, [r2, #22]	@ movhi
 320 002e 11E0     		b	.L32
 321              	.L34:
 675:./Libraries/STM32F4xx_HAL_Driver/Src/stm32f4xx_hal_flash_ex.c ****          (WRPSector < OB_WRP_SECTOR_12))
 322              		.loc 1 675 42 discriminator 1 view .LVU67
 323 0030 012D     		cmp	r5, #1
ARM GAS  /tmp/ccuOvNEu.s 			page 30


 324 0032 F3D0     		beq	.L29
 675:./Libraries/STM32F4xx_HAL_Driver/Src/stm32f4xx_hal_flash_ex.c ****          (WRPSector < OB_WRP_SECTOR_12))
 325              		.loc 1 675 70 discriminator 3 view .LVU68
 326 0034 032D     		cmp	r5, #3
 327 0036 EED1     		bne	.L28
 328 0038 F0E7     		b	.L29
 329              	.L35:
 681:./Libraries/STM32F4xx_HAL_Driver/Src/stm32f4xx_hal_flash_ex.c ****        }
 330              		.loc 1 681 11 is_stmt 1 view .LVU69
 681:./Libraries/STM32F4xx_HAL_Driver/Src/stm32f4xx_hal_flash_ex.c ****        }
 331              		.loc 1 681 48 is_stmt 0 view .LVU70
 332 003a 114A     		ldr	r2, .L37+4
 333 003c D38A     		ldrh	r3, [r2, #22]
 334 003e 9BB2     		uxth	r3, r3
 335 0040 23EA1433 		bic	r3, r3, r4, lsr #12
 336 0044 D382     		strh	r3, [r2, #22]	@ movhi
 337 0046 05E0     		b	.L32
 338              	.L30:
 692:./Libraries/STM32F4xx_HAL_Driver/Src/stm32f4xx_hal_flash_ex.c ****     }
 339              		.loc 1 692 7 is_stmt 1 view .LVU71
 692:./Libraries/STM32F4xx_HAL_Driver/Src/stm32f4xx_hal_flash_ex.c ****     }
 340              		.loc 1 692 45 is_stmt 0 view .LVU72
 341 0048 0D4A     		ldr	r2, .L37+4
 342 004a 538B     		ldrh	r3, [r2, #26]
 343 004c 9BB2     		uxth	r3, r3
 344 004e 23EA1433 		bic	r3, r3, r4, lsr #12
 345 0052 5383     		strh	r3, [r2, #26]	@ movhi
 346              	.L32:
 696:./Libraries/STM32F4xx_HAL_Driver/Src/stm32f4xx_hal_flash_ex.c ****     {
 347              		.loc 1 696 5 is_stmt 1 view .LVU73
 696:./Libraries/STM32F4xx_HAL_Driver/Src/stm32f4xx_hal_flash_ex.c ****     {
 348              		.loc 1 696 7 is_stmt 0 view .LVU74
 349 0054 094B     		ldr	r3, .L37
 350 0056 9C42     		cmp	r4, r3
 351 0058 00D0     		beq	.L36
 352              	.LVL11:
 353              	.L27:
 708:./Libraries/STM32F4xx_HAL_Driver/Src/stm32f4xx_hal_flash_ex.c **** }
 354              		.loc 1 708 3 is_stmt 1 view .LVU75
 709:./Libraries/STM32F4xx_HAL_Driver/Src/stm32f4xx_hal_flash_ex.c **** 
 355              		.loc 1 709 1 is_stmt 0 view .LVU76
 356 005a 38BD     		pop	{r3, r4, r5, pc}
 357              	.LVL12:
 358              	.L36:
 696:./Libraries/STM32F4xx_HAL_Driver/Src/stm32f4xx_hal_flash_ex.c ****     {
 359              		.loc 1 696 41 discriminator 1 view .LVU77
 360 005c 032D     		cmp	r5, #3
 361 005e FCD1     		bne	.L27
 699:./Libraries/STM32F4xx_HAL_Driver/Src/stm32f4xx_hal_flash_ex.c ****       
 362              		.loc 1 699 7 is_stmt 1 view .LVU78
 699:./Libraries/STM32F4xx_HAL_Driver/Src/stm32f4xx_hal_flash_ex.c ****       
 363              		.loc 1 699 16 is_stmt 0 view .LVU79
 364 0060 4CF25030 		movw	r0, #50000
 365 0064 FFF7FEFF 		bl	FLASH_WaitForLastOperation
 366              	.LVL13:
 701:./Libraries/STM32F4xx_HAL_Driver/Src/stm32f4xx_hal_flash_ex.c ****       { 
 367              		.loc 1 701 7 is_stmt 1 view .LVU80
ARM GAS  /tmp/ccuOvNEu.s 			page 31


 701:./Libraries/STM32F4xx_HAL_Driver/Src/stm32f4xx_hal_flash_ex.c ****       { 
 368              		.loc 1 701 9 is_stmt 0 view .LVU81
 369 0068 0028     		cmp	r0, #0
 370 006a F6D1     		bne	.L27
 703:./Libraries/STM32F4xx_HAL_Driver/Src/stm32f4xx_hal_flash_ex.c ****       }
 371              		.loc 1 703 9 is_stmt 1 view .LVU82
 703:./Libraries/STM32F4xx_HAL_Driver/Src/stm32f4xx_hal_flash_ex.c ****       }
 372              		.loc 1 703 47 is_stmt 0 view .LVU83
 373 006c 044A     		ldr	r2, .L37+4
 374 006e 538B     		ldrh	r3, [r2, #26]
 375 0070 9BB2     		uxth	r3, r3
 376 0072 23EA1434 		bic	r4, r3, r4, lsr #12
 377              	.LVL14:
 703:./Libraries/STM32F4xx_HAL_Driver/Src/stm32f4xx_hal_flash_ex.c ****       }
 378              		.loc 1 703 47 view .LVU84
 379 0076 5483     		strh	r4, [r2, #26]	@ movhi
 380 0078 EFE7     		b	.L27
 381              	.L38:
 382 007a 00BF     		.align	2
 383              	.L37:
 384 007c 00F0FF00 		.word	16773120
 385 0080 003C0240 		.word	1073888256
 386              		.cfi_endproc
 387              	.LFE137:
 389              		.section	.text.FLASH_OB_DisableWRP,"ax",%progbits
 390              		.align	1
 391              		.syntax unified
 392              		.thumb
 393              		.thumb_func
 394              		.fpu fpv4-sp-d16
 396              	FLASH_OB_DisableWRP:
 397              	.LVL15:
 398              	.LFB138:
 734:./Libraries/STM32F4xx_HAL_Driver/Src/stm32f4xx_hal_flash_ex.c ****   HAL_StatusTypeDef status = HAL_OK;
 399              		.loc 1 734 1 is_stmt 1 view -0
 400              		.cfi_startproc
 401              		@ args = 0, pretend = 0, frame = 0
 402              		@ frame_needed = 0, uses_anonymous_args = 0
 734:./Libraries/STM32F4xx_HAL_Driver/Src/stm32f4xx_hal_flash_ex.c ****   HAL_StatusTypeDef status = HAL_OK;
 403              		.loc 1 734 1 is_stmt 0 view .LVU86
 404 0000 38B5     		push	{r3, r4, r5, lr}
 405              	.LCFI1:
 406              		.cfi_def_cfa_offset 16
 407              		.cfi_offset 3, -16
 408              		.cfi_offset 4, -12
 409              		.cfi_offset 5, -8
 410              		.cfi_offset 14, -4
 411 0002 0446     		mov	r4, r0
 412 0004 0D46     		mov	r5, r1
 735:./Libraries/STM32F4xx_HAL_Driver/Src/stm32f4xx_hal_flash_ex.c ****   
 413              		.loc 1 735 3 is_stmt 1 view .LVU87
 414              	.LVL16:
 738:./Libraries/STM32F4xx_HAL_Driver/Src/stm32f4xx_hal_flash_ex.c ****   assert_param(IS_FLASH_BANK(Banks));
 415              		.loc 1 738 3 view .LVU88
 739:./Libraries/STM32F4xx_HAL_Driver/Src/stm32f4xx_hal_flash_ex.c ****     
 416              		.loc 1 739 3 view .LVU89
 742:./Libraries/STM32F4xx_HAL_Driver/Src/stm32f4xx_hal_flash_ex.c **** 
ARM GAS  /tmp/ccuOvNEu.s 			page 32


 417              		.loc 1 742 3 view .LVU90
 742:./Libraries/STM32F4xx_HAL_Driver/Src/stm32f4xx_hal_flash_ex.c **** 
 418              		.loc 1 742 12 is_stmt 0 view .LVU91
 419 0006 4CF25030 		movw	r0, #50000
 420              	.LVL17:
 742:./Libraries/STM32F4xx_HAL_Driver/Src/stm32f4xx_hal_flash_ex.c **** 
 421              		.loc 1 742 12 view .LVU92
 422 000a FFF7FEFF 		bl	FLASH_WaitForLastOperation
 423              	.LVL18:
 744:./Libraries/STM32F4xx_HAL_Driver/Src/stm32f4xx_hal_flash_ex.c ****   {
 424              		.loc 1 744 3 is_stmt 1 view .LVU93
 744:./Libraries/STM32F4xx_HAL_Driver/Src/stm32f4xx_hal_flash_ex.c ****   {
 425              		.loc 1 744 5 is_stmt 0 view .LVU94
 426 000e 30BB     		cbnz	r0, .L40
 746:./Libraries/STM32F4xx_HAL_Driver/Src/stm32f4xx_hal_flash_ex.c ****          (WRPSector < OB_WRP_SECTOR_12))
 427              		.loc 1 746 5 is_stmt 1 view .LVU95
 746:./Libraries/STM32F4xx_HAL_Driver/Src/stm32f4xx_hal_flash_ex.c ****          (WRPSector < OB_WRP_SECTOR_12))
 428              		.loc 1 746 7 is_stmt 0 view .LVU96
 429 0010 1B4B     		ldr	r3, .L50
 430 0012 9C42     		cmp	r4, r3
 431 0014 0CD0     		beq	.L47
 432              	.L41:
 746:./Libraries/STM32F4xx_HAL_Driver/Src/stm32f4xx_hal_flash_ex.c ****          (WRPSector < OB_WRP_SECTOR_12))
 433              		.loc 1 746 102 discriminator 4 view .LVU97
 434 0016 B4F5805F 		cmp	r4, #4096
 435 001a 16D2     		bcs	.L43
 436              	.L42:
 749:./Libraries/STM32F4xx_HAL_Driver/Src/stm32f4xx_hal_flash_ex.c ****        {
 437              		.loc 1 749 8 is_stmt 1 view .LVU98
 749:./Libraries/STM32F4xx_HAL_Driver/Src/stm32f4xx_hal_flash_ex.c ****        {
 438              		.loc 1 749 10 is_stmt 0 view .LVU99
 439 001c 184B     		ldr	r3, .L50
 440 001e 9C42     		cmp	r4, r3
 441 0020 0BD0     		beq	.L48
 757:./Libraries/STM32F4xx_HAL_Driver/Src/stm32f4xx_hal_flash_ex.c ****        }
 442              		.loc 1 757 11 is_stmt 1 view .LVU100
 757:./Libraries/STM32F4xx_HAL_Driver/Src/stm32f4xx_hal_flash_ex.c ****        }
 443              		.loc 1 757 48 is_stmt 0 view .LVU101
 444 0022 184A     		ldr	r2, .L50+4
 445 0024 D38A     		ldrh	r3, [r2, #22]
 446 0026 9BB2     		uxth	r3, r3
 757:./Libraries/STM32F4xx_HAL_Driver/Src/stm32f4xx_hal_flash_ex.c ****        }
 447              		.loc 1 757 51 view .LVU102
 448 0028 A1B2     		uxth	r1, r4
 757:./Libraries/STM32F4xx_HAL_Driver/Src/stm32f4xx_hal_flash_ex.c ****        }
 449              		.loc 1 757 48 view .LVU103
 450 002a 0B43     		orrs	r3, r3, r1
 451 002c D382     		strh	r3, [r2, #22]	@ movhi
 452 002e 13E0     		b	.L45
 453              	.L47:
 746:./Libraries/STM32F4xx_HAL_Driver/Src/stm32f4xx_hal_flash_ex.c ****          (WRPSector < OB_WRP_SECTOR_12))
 454              		.loc 1 746 42 discriminator 1 view .LVU104
 455 0030 012D     		cmp	r5, #1
 456 0032 F3D0     		beq	.L42
 746:./Libraries/STM32F4xx_HAL_Driver/Src/stm32f4xx_hal_flash_ex.c ****          (WRPSector < OB_WRP_SECTOR_12))
 457              		.loc 1 746 70 discriminator 3 view .LVU105
 458 0034 032D     		cmp	r5, #3
ARM GAS  /tmp/ccuOvNEu.s 			page 33


 459 0036 EED1     		bne	.L41
 460 0038 F0E7     		b	.L42
 461              	.L48:
 752:./Libraries/STM32F4xx_HAL_Driver/Src/stm32f4xx_hal_flash_ex.c ****        }
 462              		.loc 1 752 11 is_stmt 1 view .LVU106
 752:./Libraries/STM32F4xx_HAL_Driver/Src/stm32f4xx_hal_flash_ex.c ****        }
 463              		.loc 1 752 48 is_stmt 0 view .LVU107
 464 003a 124A     		ldr	r2, .L50+4
 465 003c D38A     		ldrh	r3, [r2, #22]
 466 003e 9BB2     		uxth	r3, r3
 752:./Libraries/STM32F4xx_HAL_Driver/Src/stm32f4xx_hal_flash_ex.c ****        }
 467              		.loc 1 752 51 view .LVU108
 468 0040 C4F30F31 		ubfx	r1, r4, #12, #16
 752:./Libraries/STM32F4xx_HAL_Driver/Src/stm32f4xx_hal_flash_ex.c ****        }
 469              		.loc 1 752 48 view .LVU109
 470 0044 0B43     		orrs	r3, r3, r1
 471 0046 D382     		strh	r3, [r2, #22]	@ movhi
 472 0048 06E0     		b	.L45
 473              	.L43:
 763:./Libraries/STM32F4xx_HAL_Driver/Src/stm32f4xx_hal_flash_ex.c ****     }
 474              		.loc 1 763 7 is_stmt 1 view .LVU110
 763:./Libraries/STM32F4xx_HAL_Driver/Src/stm32f4xx_hal_flash_ex.c ****     }
 475              		.loc 1 763 45 is_stmt 0 view .LVU111
 476 004a 0E4A     		ldr	r2, .L50+4
 477 004c 538B     		ldrh	r3, [r2, #26]
 478 004e 9BB2     		uxth	r3, r3
 763:./Libraries/STM32F4xx_HAL_Driver/Src/stm32f4xx_hal_flash_ex.c ****     }
 479              		.loc 1 763 48 view .LVU112
 480 0050 C4F30F31 		ubfx	r1, r4, #12, #16
 763:./Libraries/STM32F4xx_HAL_Driver/Src/stm32f4xx_hal_flash_ex.c ****     }
 481              		.loc 1 763 45 view .LVU113
 482 0054 0B43     		orrs	r3, r3, r1
 483 0056 5383     		strh	r3, [r2, #26]	@ movhi
 484              	.L45:
 767:./Libraries/STM32F4xx_HAL_Driver/Src/stm32f4xx_hal_flash_ex.c ****     {
 485              		.loc 1 767 5 is_stmt 1 view .LVU114
 767:./Libraries/STM32F4xx_HAL_Driver/Src/stm32f4xx_hal_flash_ex.c ****     {
 486              		.loc 1 767 7 is_stmt 0 view .LVU115
 487 0058 094B     		ldr	r3, .L50
 488 005a 9C42     		cmp	r4, r3
 489 005c 00D0     		beq	.L49
 490              	.LVL19:
 491              	.L40:
 780:./Libraries/STM32F4xx_HAL_Driver/Src/stm32f4xx_hal_flash_ex.c **** }
 492              		.loc 1 780 3 is_stmt 1 view .LVU116
 781:./Libraries/STM32F4xx_HAL_Driver/Src/stm32f4xx_hal_flash_ex.c **** 
 493              		.loc 1 781 1 is_stmt 0 view .LVU117
 494 005e 38BD     		pop	{r3, r4, r5, pc}
 495              	.LVL20:
 496              	.L49:
 767:./Libraries/STM32F4xx_HAL_Driver/Src/stm32f4xx_hal_flash_ex.c ****     {
 497              		.loc 1 767 41 discriminator 1 view .LVU118
 498 0060 032D     		cmp	r5, #3
 499 0062 FCD1     		bne	.L40
 770:./Libraries/STM32F4xx_HAL_Driver/Src/stm32f4xx_hal_flash_ex.c ****       
 500              		.loc 1 770 7 is_stmt 1 view .LVU119
 770:./Libraries/STM32F4xx_HAL_Driver/Src/stm32f4xx_hal_flash_ex.c ****       
ARM GAS  /tmp/ccuOvNEu.s 			page 34


 501              		.loc 1 770 16 is_stmt 0 view .LVU120
 502 0064 4CF25030 		movw	r0, #50000
 503 0068 FFF7FEFF 		bl	FLASH_WaitForLastOperation
 504              	.LVL21:
 772:./Libraries/STM32F4xx_HAL_Driver/Src/stm32f4xx_hal_flash_ex.c ****       { 
 505              		.loc 1 772 7 is_stmt 1 view .LVU121
 772:./Libraries/STM32F4xx_HAL_Driver/Src/stm32f4xx_hal_flash_ex.c ****       { 
 506              		.loc 1 772 9 is_stmt 0 view .LVU122
 507 006c 0028     		cmp	r0, #0
 508 006e F6D1     		bne	.L40
 774:./Libraries/STM32F4xx_HAL_Driver/Src/stm32f4xx_hal_flash_ex.c ****       }
 509              		.loc 1 774 9 is_stmt 1 view .LVU123
 774:./Libraries/STM32F4xx_HAL_Driver/Src/stm32f4xx_hal_flash_ex.c ****       }
 510              		.loc 1 774 47 is_stmt 0 view .LVU124
 511 0070 044A     		ldr	r2, .L50+4
 512 0072 538B     		ldrh	r3, [r2, #26]
 513 0074 9BB2     		uxth	r3, r3
 774:./Libraries/STM32F4xx_HAL_Driver/Src/stm32f4xx_hal_flash_ex.c ****       }
 514              		.loc 1 774 50 view .LVU125
 515 0076 C4F30F34 		ubfx	r4, r4, #12, #16
 516              	.LVL22:
 774:./Libraries/STM32F4xx_HAL_Driver/Src/stm32f4xx_hal_flash_ex.c ****       }
 517              		.loc 1 774 47 view .LVU126
 518 007a 1C43     		orrs	r4, r4, r3
 519 007c 5483     		strh	r4, [r2, #26]	@ movhi
 520 007e EEE7     		b	.L40
 521              	.L51:
 522              		.align	2
 523              	.L50:
 524 0080 00F0FF00 		.word	16773120
 525 0084 003C0240 		.word	1073888256
 526              		.cfi_endproc
 527              	.LFE138:
 529              		.section	.text.FLASH_OB_RDP_LevelConfig,"ax",%progbits
 530              		.align	1
 531              		.syntax unified
 532              		.thumb
 533              		.thumb_func
 534              		.fpu fpv4-sp-d16
 536              	FLASH_OB_RDP_LevelConfig:
 537              	.LVL23:
 538              	.LFB142:
1179:./Libraries/STM32F4xx_HAL_Driver/Src/stm32f4xx_hal_flash_ex.c ****   HAL_StatusTypeDef status = HAL_OK;
 539              		.loc 1 1179 1 is_stmt 1 view -0
 540              		.cfi_startproc
 541              		@ args = 0, pretend = 0, frame = 0
 542              		@ frame_needed = 0, uses_anonymous_args = 0
1179:./Libraries/STM32F4xx_HAL_Driver/Src/stm32f4xx_hal_flash_ex.c ****   HAL_StatusTypeDef status = HAL_OK;
 543              		.loc 1 1179 1 is_stmt 0 view .LVU128
 544 0000 10B5     		push	{r4, lr}
 545              	.LCFI2:
 546              		.cfi_def_cfa_offset 8
 547              		.cfi_offset 4, -8
 548              		.cfi_offset 14, -4
 549 0002 0446     		mov	r4, r0
1180:./Libraries/STM32F4xx_HAL_Driver/Src/stm32f4xx_hal_flash_ex.c ****   
 550              		.loc 1 1180 3 is_stmt 1 view .LVU129
ARM GAS  /tmp/ccuOvNEu.s 			page 35


 551              	.LVL24:
1183:./Libraries/STM32F4xx_HAL_Driver/Src/stm32f4xx_hal_flash_ex.c ****     
 552              		.loc 1 1183 3 view .LVU130
1186:./Libraries/STM32F4xx_HAL_Driver/Src/stm32f4xx_hal_flash_ex.c **** 
 553              		.loc 1 1186 3 view .LVU131
1186:./Libraries/STM32F4xx_HAL_Driver/Src/stm32f4xx_hal_flash_ex.c **** 
 554              		.loc 1 1186 12 is_stmt 0 view .LVU132
 555 0004 4CF25030 		movw	r0, #50000
 556              	.LVL25:
1186:./Libraries/STM32F4xx_HAL_Driver/Src/stm32f4xx_hal_flash_ex.c **** 
 557              		.loc 1 1186 12 view .LVU133
 558 0008 FFF7FEFF 		bl	FLASH_WaitForLastOperation
 559              	.LVL26:
1188:./Libraries/STM32F4xx_HAL_Driver/Src/stm32f4xx_hal_flash_ex.c ****   { 
 560              		.loc 1 1188 3 is_stmt 1 view .LVU134
1188:./Libraries/STM32F4xx_HAL_Driver/Src/stm32f4xx_hal_flash_ex.c ****   { 
 561              		.loc 1 1188 5 is_stmt 0 view .LVU135
 562 000c 08B9     		cbnz	r0, .L53
1190:./Libraries/STM32F4xx_HAL_Driver/Src/stm32f4xx_hal_flash_ex.c ****   }
 563              		.loc 1 1190 5 is_stmt 1 view .LVU136
1190:./Libraries/STM32F4xx_HAL_Driver/Src/stm32f4xx_hal_flash_ex.c ****   }
 564              		.loc 1 1190 41 is_stmt 0 view .LVU137
 565 000e 014B     		ldr	r3, .L55
 566 0010 5C75     		strb	r4, [r3, #21]
 567              	.L53:
1193:./Libraries/STM32F4xx_HAL_Driver/Src/stm32f4xx_hal_flash_ex.c **** }
 568              		.loc 1 1193 3 is_stmt 1 view .LVU138
1194:./Libraries/STM32F4xx_HAL_Driver/Src/stm32f4xx_hal_flash_ex.c **** 
 569              		.loc 1 1194 1 is_stmt 0 view .LVU139
 570 0012 10BD     		pop	{r4, pc}
 571              	.L56:
 572              		.align	2
 573              	.L55:
 574 0014 003C0240 		.word	1073888256
 575              		.cfi_endproc
 576              	.LFE142:
 578              		.section	.text.FLASH_OB_UserConfig,"ax",%progbits
 579              		.align	1
 580              		.syntax unified
 581              		.thumb
 582              		.thumb_func
 583              		.fpu fpv4-sp-d16
 585              	FLASH_OB_UserConfig:
 586              	.LVL27:
 587              	.LFB143:
1213:./Libraries/STM32F4xx_HAL_Driver/Src/stm32f4xx_hal_flash_ex.c ****   uint8_t optiontmp = 0xFF;
 588              		.loc 1 1213 1 is_stmt 1 view -0
 589              		.cfi_startproc
 590              		@ args = 0, pretend = 0, frame = 0
 591              		@ frame_needed = 0, uses_anonymous_args = 0
1213:./Libraries/STM32F4xx_HAL_Driver/Src/stm32f4xx_hal_flash_ex.c ****   uint8_t optiontmp = 0xFF;
 592              		.loc 1 1213 1 is_stmt 0 view .LVU141
 593 0000 F8B5     		push	{r3, r4, r5, r6, r7, lr}
 594              	.LCFI3:
 595              		.cfi_def_cfa_offset 24
 596              		.cfi_offset 3, -24
 597              		.cfi_offset 4, -20
ARM GAS  /tmp/ccuOvNEu.s 			page 36


 598              		.cfi_offset 5, -16
 599              		.cfi_offset 6, -12
 600              		.cfi_offset 7, -8
 601              		.cfi_offset 14, -4
 602 0002 0446     		mov	r4, r0
 603 0004 0E46     		mov	r6, r1
 604 0006 1546     		mov	r5, r2
1214:./Libraries/STM32F4xx_HAL_Driver/Src/stm32f4xx_hal_flash_ex.c ****   HAL_StatusTypeDef status = HAL_OK;
 605              		.loc 1 1214 3 is_stmt 1 view .LVU142
 606              	.LVL28:
1215:./Libraries/STM32F4xx_HAL_Driver/Src/stm32f4xx_hal_flash_ex.c **** 
 607              		.loc 1 1215 3 view .LVU143
1218:./Libraries/STM32F4xx_HAL_Driver/Src/stm32f4xx_hal_flash_ex.c ****   assert_param(IS_OB_STOP_SOURCE(Stop));
 608              		.loc 1 1218 3 view .LVU144
1219:./Libraries/STM32F4xx_HAL_Driver/Src/stm32f4xx_hal_flash_ex.c ****   assert_param(IS_OB_STDBY_SOURCE(Stdby));
 609              		.loc 1 1219 3 view .LVU145
1220:./Libraries/STM32F4xx_HAL_Driver/Src/stm32f4xx_hal_flash_ex.c **** 
 610              		.loc 1 1220 3 view .LVU146
1223:./Libraries/STM32F4xx_HAL_Driver/Src/stm32f4xx_hal_flash_ex.c ****   
 611              		.loc 1 1223 3 view .LVU147
1223:./Libraries/STM32F4xx_HAL_Driver/Src/stm32f4xx_hal_flash_ex.c ****   
 612              		.loc 1 1223 12 is_stmt 0 view .LVU148
 613 0008 4CF25030 		movw	r0, #50000
 614              	.LVL29:
1223:./Libraries/STM32F4xx_HAL_Driver/Src/stm32f4xx_hal_flash_ex.c ****   
 615              		.loc 1 1223 12 view .LVU149
 616 000c FFF7FEFF 		bl	FLASH_WaitForLastOperation
 617              	.LVL30:
1225:./Libraries/STM32F4xx_HAL_Driver/Src/stm32f4xx_hal_flash_ex.c ****   {     
 618              		.loc 1 1225 3 is_stmt 1 view .LVU150
1225:./Libraries/STM32F4xx_HAL_Driver/Src/stm32f4xx_hal_flash_ex.c ****   {     
 619              		.loc 1 1225 5 is_stmt 0 view .LVU151
 620 0010 48B9     		cbnz	r0, .L58
1228:./Libraries/STM32F4xx_HAL_Driver/Src/stm32f4xx_hal_flash_ex.c **** 
 621              		.loc 1 1228 5 is_stmt 1 view .LVU152
1228:./Libraries/STM32F4xx_HAL_Driver/Src/stm32f4xx_hal_flash_ex.c **** 
 622              		.loc 1 1228 67 is_stmt 0 view .LVU153
 623 0012 054F     		ldr	r7, .L60
 624 0014 3B7D     		ldrb	r3, [r7, #20]	@ zero_extendqisi2
1228:./Libraries/STM32F4xx_HAL_Driver/Src/stm32f4xx_hal_flash_ex.c **** 
 625              		.loc 1 1228 15 view .LVU154
 626 0016 03F01F03 		and	r3, r3, #31
 627              	.LVL31:
1231:./Libraries/STM32F4xx_HAL_Driver/Src/stm32f4xx_hal_flash_ex.c ****   }
 628              		.loc 1 1231 5 is_stmt 1 view .LVU155
1231:./Libraries/STM32F4xx_HAL_Driver/Src/stm32f4xx_hal_flash_ex.c ****   }
 629              		.loc 1 1231 69 is_stmt 0 view .LVU156
 630 001a 43EA0601 		orr	r1, r3, r6
1231:./Libraries/STM32F4xx_HAL_Driver/Src/stm32f4xx_hal_flash_ex.c ****   }
 631              		.loc 1 1231 51 view .LVU157
 632 001e 41EA0502 		orr	r2, r1, r5
1231:./Libraries/STM32F4xx_HAL_Driver/Src/stm32f4xx_hal_flash_ex.c ****   }
 633              		.loc 1 1231 42 view .LVU158
 634 0022 2243     		orrs	r2, r2, r4
 635 0024 3A75     		strb	r2, [r7, #20]
 636              	.LVL32:
 637              	.L58:
ARM GAS  /tmp/ccuOvNEu.s 			page 37


1234:./Libraries/STM32F4xx_HAL_Driver/Src/stm32f4xx_hal_flash_ex.c **** }
 638              		.loc 1 1234 3 is_stmt 1 view .LVU159
1235:./Libraries/STM32F4xx_HAL_Driver/Src/stm32f4xx_hal_flash_ex.c **** 
 639              		.loc 1 1235 1 is_stmt 0 view .LVU160
 640 0026 F8BD     		pop	{r3, r4, r5, r6, r7, pc}
 641              	.L61:
 642              		.align	2
 643              	.L60:
 644 0028 003C0240 		.word	1073888256
 645              		.cfi_endproc
 646              	.LFE143:
 648              		.section	.text.FLASH_OB_EnablePCROP,"ax",%progbits
 649              		.align	1
 650              		.syntax unified
 651              		.thumb
 652              		.thumb_func
 653              		.fpu fpv4-sp-d16
 655              	FLASH_OB_EnablePCROP:
 656              	.LVL33:
 657              	.LFB140:
 835:./Libraries/STM32F4xx_HAL_Driver/Src/stm32f4xx_hal_flash_ex.c ****   HAL_StatusTypeDef status = HAL_OK;
 658              		.loc 1 835 1 is_stmt 1 view -0
 659              		.cfi_startproc
 660              		@ args = 0, pretend = 0, frame = 0
 661              		@ frame_needed = 0, uses_anonymous_args = 0
 835:./Libraries/STM32F4xx_HAL_Driver/Src/stm32f4xx_hal_flash_ex.c ****   HAL_StatusTypeDef status = HAL_OK;
 662              		.loc 1 835 1 is_stmt 0 view .LVU162
 663 0000 70B5     		push	{r4, r5, r6, lr}
 664              	.LCFI4:
 665              		.cfi_def_cfa_offset 16
 666              		.cfi_offset 4, -16
 667              		.cfi_offset 5, -12
 668              		.cfi_offset 6, -8
 669              		.cfi_offset 14, -4
 670 0002 0546     		mov	r5, r0
 671 0004 0E46     		mov	r6, r1
 672 0006 1446     		mov	r4, r2
 836:./Libraries/STM32F4xx_HAL_Driver/Src/stm32f4xx_hal_flash_ex.c ****   
 673              		.loc 1 836 3 is_stmt 1 view .LVU163
 674              	.LVL34:
 838:./Libraries/STM32F4xx_HAL_Driver/Src/stm32f4xx_hal_flash_ex.c ****     
 675              		.loc 1 838 3 view .LVU164
 841:./Libraries/STM32F4xx_HAL_Driver/Src/stm32f4xx_hal_flash_ex.c **** 
 676              		.loc 1 841 3 view .LVU165
 841:./Libraries/STM32F4xx_HAL_Driver/Src/stm32f4xx_hal_flash_ex.c **** 
 677              		.loc 1 841 12 is_stmt 0 view .LVU166
 678 0008 4CF25030 		movw	r0, #50000
 679              	.LVL35:
 841:./Libraries/STM32F4xx_HAL_Driver/Src/stm32f4xx_hal_flash_ex.c **** 
 680              		.loc 1 841 12 view .LVU167
 681 000c FFF7FEFF 		bl	FLASH_WaitForLastOperation
 682              	.LVL36:
 843:./Libraries/STM32F4xx_HAL_Driver/Src/stm32f4xx_hal_flash_ex.c ****   {
 683              		.loc 1 843 3 is_stmt 1 view .LVU168
 843:./Libraries/STM32F4xx_HAL_Driver/Src/stm32f4xx_hal_flash_ex.c ****   {
 684              		.loc 1 843 5 is_stmt 0 view .LVU169
 685 0010 90B9     		cbnz	r0, .L63
ARM GAS  /tmp/ccuOvNEu.s 			page 38


 845:./Libraries/STM32F4xx_HAL_Driver/Src/stm32f4xx_hal_flash_ex.c ****     {
 686              		.loc 1 845 5 is_stmt 1 view .LVU170
 845:./Libraries/STM32F4xx_HAL_Driver/Src/stm32f4xx_hal_flash_ex.c ****     {
 687              		.loc 1 845 7 is_stmt 0 view .LVU171
 688 0012 012C     		cmp	r4, #1
 689 0014 08D0     		beq	.L64
 845:./Libraries/STM32F4xx_HAL_Driver/Src/stm32f4xx_hal_flash_ex.c ****     {
 690              		.loc 1 845 32 discriminator 1 view .LVU172
 691 0016 032C     		cmp	r4, #3
 692 0018 06D0     		beq	.L64
 853:./Libraries/STM32F4xx_HAL_Driver/Src/stm32f4xx_hal_flash_ex.c ****       /*Write protection done on sectors of BANK2*/
 693              		.loc 1 853 7 is_stmt 1 view .LVU173
 855:./Libraries/STM32F4xx_HAL_Driver/Src/stm32f4xx_hal_flash_ex.c ****     }
 694              		.loc 1 855 7 view .LVU174
 855:./Libraries/STM32F4xx_HAL_Driver/Src/stm32f4xx_hal_flash_ex.c ****     }
 695              		.loc 1 855 45 is_stmt 0 view .LVU175
 696 001a 0E4A     		ldr	r2, .L69
 697 001c 538B     		ldrh	r3, [r2, #26]
 698 001e 9BB2     		uxth	r3, r3
 855:./Libraries/STM32F4xx_HAL_Driver/Src/stm32f4xx_hal_flash_ex.c ****     }
 699              		.loc 1 855 48 view .LVU176
 700 0020 B1B2     		uxth	r1, r6
 855:./Libraries/STM32F4xx_HAL_Driver/Src/stm32f4xx_hal_flash_ex.c ****     }
 701              		.loc 1 855 45 view .LVU177
 702 0022 0B43     		orrs	r3, r3, r1
 703 0024 5383     		strh	r3, [r2, #26]	@ movhi
 704 0026 05E0     		b	.L66
 705              	.L64:
 847:./Libraries/STM32F4xx_HAL_Driver/Src/stm32f4xx_hal_flash_ex.c ****       /*Write protection done on sectors of BANK1*/
 706              		.loc 1 847 7 is_stmt 1 view .LVU178
 849:./Libraries/STM32F4xx_HAL_Driver/Src/stm32f4xx_hal_flash_ex.c ****     }
 707              		.loc 1 849 7 view .LVU179
 849:./Libraries/STM32F4xx_HAL_Driver/Src/stm32f4xx_hal_flash_ex.c ****     }
 708              		.loc 1 849 44 is_stmt 0 view .LVU180
 709 0028 0A4A     		ldr	r2, .L69
 710 002a D38A     		ldrh	r3, [r2, #22]
 711 002c 9BB2     		uxth	r3, r3
 849:./Libraries/STM32F4xx_HAL_Driver/Src/stm32f4xx_hal_flash_ex.c ****     }
 712              		.loc 1 849 47 view .LVU181
 713 002e ADB2     		uxth	r5, r5
 714              	.LVL37:
 849:./Libraries/STM32F4xx_HAL_Driver/Src/stm32f4xx_hal_flash_ex.c ****     }
 715              		.loc 1 849 44 view .LVU182
 716 0030 1D43     		orrs	r5, r5, r3
 717 0032 D582     		strh	r5, [r2, #22]	@ movhi
 718              	.L66:
 859:./Libraries/STM32F4xx_HAL_Driver/Src/stm32f4xx_hal_flash_ex.c ****     {
 719              		.loc 1 859 5 is_stmt 1 view .LVU183
 859:./Libraries/STM32F4xx_HAL_Driver/Src/stm32f4xx_hal_flash_ex.c ****     {
 720              		.loc 1 859 7 is_stmt 0 view .LVU184
 721 0034 032C     		cmp	r4, #3
 722 0036 00D0     		beq	.L68
 723              	.L63:
 724              	.LVL38:
 874:./Libraries/STM32F4xx_HAL_Driver/Src/stm32f4xx_hal_flash_ex.c **** }
 725              		.loc 1 874 3 is_stmt 1 view .LVU185
 875:./Libraries/STM32F4xx_HAL_Driver/Src/stm32f4xx_hal_flash_ex.c **** 
ARM GAS  /tmp/ccuOvNEu.s 			page 39


 726              		.loc 1 875 1 is_stmt 0 view .LVU186
 727 0038 70BD     		pop	{r4, r5, r6, pc}
 728              	.LVL39:
 729              	.L68:
 861:./Libraries/STM32F4xx_HAL_Driver/Src/stm32f4xx_hal_flash_ex.c ****       /* Wait for last operation to be completed */
 730              		.loc 1 861 7 is_stmt 1 view .LVU187
 863:./Libraries/STM32F4xx_HAL_Driver/Src/stm32f4xx_hal_flash_ex.c ****       
 731              		.loc 1 863 7 view .LVU188
 863:./Libraries/STM32F4xx_HAL_Driver/Src/stm32f4xx_hal_flash_ex.c ****       
 732              		.loc 1 863 16 is_stmt 0 view .LVU189
 733 003a 4CF25030 		movw	r0, #50000
 734 003e FFF7FEFF 		bl	FLASH_WaitForLastOperation
 735              	.LVL40:
 865:./Libraries/STM32F4xx_HAL_Driver/Src/stm32f4xx_hal_flash_ex.c ****       { 
 736              		.loc 1 865 7 is_stmt 1 view .LVU190
 865:./Libraries/STM32F4xx_HAL_Driver/Src/stm32f4xx_hal_flash_ex.c ****       { 
 737              		.loc 1 865 9 is_stmt 0 view .LVU191
 738 0042 0028     		cmp	r0, #0
 739 0044 F8D1     		bne	.L63
 868:./Libraries/STM32F4xx_HAL_Driver/Src/stm32f4xx_hal_flash_ex.c ****       }
 740              		.loc 1 868 9 is_stmt 1 view .LVU192
 868:./Libraries/STM32F4xx_HAL_Driver/Src/stm32f4xx_hal_flash_ex.c ****       }
 741              		.loc 1 868 47 is_stmt 0 view .LVU193
 742 0046 034A     		ldr	r2, .L69
 743 0048 518B     		ldrh	r1, [r2, #26]
 744 004a 8BB2     		uxth	r3, r1
 868:./Libraries/STM32F4xx_HAL_Driver/Src/stm32f4xx_hal_flash_ex.c ****       }
 745              		.loc 1 868 50 view .LVU194
 746 004c B1B2     		uxth	r1, r6
 868:./Libraries/STM32F4xx_HAL_Driver/Src/stm32f4xx_hal_flash_ex.c ****       }
 747              		.loc 1 868 47 view .LVU195
 748 004e 1943     		orrs	r1, r1, r3
 749 0050 5183     		strh	r1, [r2, #26]	@ movhi
 750 0052 F1E7     		b	.L63
 751              	.L70:
 752              		.align	2
 753              	.L69:
 754 0054 003C0240 		.word	1073888256
 755              		.cfi_endproc
 756              	.LFE140:
 758              		.section	.text.FLASH_OB_DisablePCROP,"ax",%progbits
 759              		.align	1
 760              		.syntax unified
 761              		.thumb
 762              		.thumb_func
 763              		.fpu fpv4-sp-d16
 765              	FLASH_OB_DisablePCROP:
 766              	.LVL41:
 767              	.LFB141:
 899:./Libraries/STM32F4xx_HAL_Driver/Src/stm32f4xx_hal_flash_ex.c ****   HAL_StatusTypeDef status = HAL_OK;
 768              		.loc 1 899 1 is_stmt 1 view -0
 769              		.cfi_startproc
 770              		@ args = 0, pretend = 0, frame = 0
 771              		@ frame_needed = 0, uses_anonymous_args = 0
 899:./Libraries/STM32F4xx_HAL_Driver/Src/stm32f4xx_hal_flash_ex.c ****   HAL_StatusTypeDef status = HAL_OK;
 772              		.loc 1 899 1 is_stmt 0 view .LVU197
 773 0000 70B5     		push	{r4, r5, r6, lr}
ARM GAS  /tmp/ccuOvNEu.s 			page 40


 774              	.LCFI5:
 775              		.cfi_def_cfa_offset 16
 776              		.cfi_offset 4, -16
 777              		.cfi_offset 5, -12
 778              		.cfi_offset 6, -8
 779              		.cfi_offset 14, -4
 780 0002 0646     		mov	r6, r0
 781 0004 0D46     		mov	r5, r1
 782 0006 1446     		mov	r4, r2
 900:./Libraries/STM32F4xx_HAL_Driver/Src/stm32f4xx_hal_flash_ex.c ****   
 783              		.loc 1 900 3 is_stmt 1 view .LVU198
 784              	.LVL42:
 903:./Libraries/STM32F4xx_HAL_Driver/Src/stm32f4xx_hal_flash_ex.c ****     
 785              		.loc 1 903 3 view .LVU199
 906:./Libraries/STM32F4xx_HAL_Driver/Src/stm32f4xx_hal_flash_ex.c **** 
 786              		.loc 1 906 3 view .LVU200
 906:./Libraries/STM32F4xx_HAL_Driver/Src/stm32f4xx_hal_flash_ex.c **** 
 787              		.loc 1 906 12 is_stmt 0 view .LVU201
 788 0008 4CF25030 		movw	r0, #50000
 789              	.LVL43:
 906:./Libraries/STM32F4xx_HAL_Driver/Src/stm32f4xx_hal_flash_ex.c **** 
 790              		.loc 1 906 12 view .LVU202
 791 000c FFF7FEFF 		bl	FLASH_WaitForLastOperation
 792              	.LVL44:
 908:./Libraries/STM32F4xx_HAL_Driver/Src/stm32f4xx_hal_flash_ex.c ****   {
 793              		.loc 1 908 3 is_stmt 1 view .LVU203
 908:./Libraries/STM32F4xx_HAL_Driver/Src/stm32f4xx_hal_flash_ex.c ****   {
 794              		.loc 1 908 5 is_stmt 0 view .LVU204
 795 0010 90B9     		cbnz	r0, .L72
 910:./Libraries/STM32F4xx_HAL_Driver/Src/stm32f4xx_hal_flash_ex.c ****     {
 796              		.loc 1 910 5 is_stmt 1 view .LVU205
 910:./Libraries/STM32F4xx_HAL_Driver/Src/stm32f4xx_hal_flash_ex.c ****     {
 797              		.loc 1 910 7 is_stmt 0 view .LVU206
 798 0012 012C     		cmp	r4, #1
 799 0014 08D0     		beq	.L73
 910:./Libraries/STM32F4xx_HAL_Driver/Src/stm32f4xx_hal_flash_ex.c ****     {
 800              		.loc 1 910 32 discriminator 1 view .LVU207
 801 0016 032C     		cmp	r4, #3
 802 0018 06D0     		beq	.L73
 919:./Libraries/STM32F4xx_HAL_Driver/Src/stm32f4xx_hal_flash_ex.c ****       *(__IO uint16_t*)OPTCR1_BYTE2_ADDRESS &= (~SectorBank2); 
 803              		.loc 1 919 7 is_stmt 1 view .LVU208
 920:./Libraries/STM32F4xx_HAL_Driver/Src/stm32f4xx_hal_flash_ex.c ****     }
 804              		.loc 1 920 7 view .LVU209
 920:./Libraries/STM32F4xx_HAL_Driver/Src/stm32f4xx_hal_flash_ex.c ****     }
 805              		.loc 1 920 45 is_stmt 0 view .LVU210
 806 001a 0E4A     		ldr	r2, .L78
 807 001c 538B     		ldrh	r3, [r2, #26]
 808 001e 9BB2     		uxth	r3, r3
 809 0020 23EA0503 		bic	r3, r3, r5
 810 0024 5383     		strh	r3, [r2, #26]	@ movhi
 811 0026 05E0     		b	.L75
 812              	.L73:
 912:./Libraries/STM32F4xx_HAL_Driver/Src/stm32f4xx_hal_flash_ex.c ****       /*Write protection done on sectors of BANK1*/
 813              		.loc 1 912 7 is_stmt 1 view .LVU211
 914:./Libraries/STM32F4xx_HAL_Driver/Src/stm32f4xx_hal_flash_ex.c ****     }
 814              		.loc 1 914 7 view .LVU212
 914:./Libraries/STM32F4xx_HAL_Driver/Src/stm32f4xx_hal_flash_ex.c ****     }
ARM GAS  /tmp/ccuOvNEu.s 			page 41


 815              		.loc 1 914 44 is_stmt 0 view .LVU213
 816 0028 0A4A     		ldr	r2, .L78
 817 002a D38A     		ldrh	r3, [r2, #22]
 818 002c 9BB2     		uxth	r3, r3
 819 002e 23EA0606 		bic	r6, r3, r6
 820              	.LVL45:
 914:./Libraries/STM32F4xx_HAL_Driver/Src/stm32f4xx_hal_flash_ex.c ****     }
 821              		.loc 1 914 44 view .LVU214
 822 0032 D682     		strh	r6, [r2, #22]	@ movhi
 823              	.L75:
 924:./Libraries/STM32F4xx_HAL_Driver/Src/stm32f4xx_hal_flash_ex.c ****     {
 824              		.loc 1 924 5 is_stmt 1 view .LVU215
 924:./Libraries/STM32F4xx_HAL_Driver/Src/stm32f4xx_hal_flash_ex.c ****     {
 825              		.loc 1 924 7 is_stmt 0 view .LVU216
 826 0034 032C     		cmp	r4, #3
 827 0036 00D0     		beq	.L77
 828              	.L72:
 829              	.LVL46:
 939:./Libraries/STM32F4xx_HAL_Driver/Src/stm32f4xx_hal_flash_ex.c **** 
 830              		.loc 1 939 3 is_stmt 1 view .LVU217
 941:./Libraries/STM32F4xx_HAL_Driver/Src/stm32f4xx_hal_flash_ex.c **** 
 831              		.loc 1 941 1 is_stmt 0 view .LVU218
 832 0038 70BD     		pop	{r4, r5, r6, pc}
 833              	.LVL47:
 834              	.L77:
 926:./Libraries/STM32F4xx_HAL_Driver/Src/stm32f4xx_hal_flash_ex.c ****      /* Wait for last operation to be completed */
 835              		.loc 1 926 7 is_stmt 1 view .LVU219
 928:./Libraries/STM32F4xx_HAL_Driver/Src/stm32f4xx_hal_flash_ex.c ****       
 836              		.loc 1 928 7 view .LVU220
 928:./Libraries/STM32F4xx_HAL_Driver/Src/stm32f4xx_hal_flash_ex.c ****       
 837              		.loc 1 928 16 is_stmt 0 view .LVU221
 838 003a 4CF25030 		movw	r0, #50000
 839 003e FFF7FEFF 		bl	FLASH_WaitForLastOperation
 840              	.LVL48:
 930:./Libraries/STM32F4xx_HAL_Driver/Src/stm32f4xx_hal_flash_ex.c ****       { 
 841              		.loc 1 930 7 is_stmt 1 view .LVU222
 930:./Libraries/STM32F4xx_HAL_Driver/Src/stm32f4xx_hal_flash_ex.c ****       { 
 842              		.loc 1 930 9 is_stmt 0 view .LVU223
 843 0042 0028     		cmp	r0, #0
 844 0044 F8D1     		bne	.L72
 933:./Libraries/STM32F4xx_HAL_Driver/Src/stm32f4xx_hal_flash_ex.c ****       }
 845              		.loc 1 933 9 is_stmt 1 view .LVU224
 933:./Libraries/STM32F4xx_HAL_Driver/Src/stm32f4xx_hal_flash_ex.c ****       }
 846              		.loc 1 933 47 is_stmt 0 view .LVU225
 847 0046 034B     		ldr	r3, .L78
 848 0048 598B     		ldrh	r1, [r3, #26]
 849 004a 89B2     		uxth	r1, r1
 850 004c 21EA0501 		bic	r1, r1, r5
 851 0050 5983     		strh	r1, [r3, #26]	@ movhi
 852 0052 F1E7     		b	.L72
 853              	.L79:
 854              		.align	2
 855              	.L78:
 856 0054 003C0240 		.word	1073888256
 857              		.cfi_endproc
 858              	.LFE141:
 860              		.section	.text.FLASH_OB_BootConfig,"ax",%progbits
ARM GAS  /tmp/ccuOvNEu.s 			page 42


 861              		.align	1
 862              		.syntax unified
 863              		.thumb
 864              		.thumb_func
 865              		.fpu fpv4-sp-d16
 867              	FLASH_OB_BootConfig:
 868              	.LVL49:
 869              	.LFB139:
 795:./Libraries/STM32F4xx_HAL_Driver/Src/stm32f4xx_hal_flash_ex.c ****   HAL_StatusTypeDef status = HAL_OK;
 870              		.loc 1 795 1 is_stmt 1 view -0
 871              		.cfi_startproc
 872              		@ args = 0, pretend = 0, frame = 0
 873              		@ frame_needed = 0, uses_anonymous_args = 0
 795:./Libraries/STM32F4xx_HAL_Driver/Src/stm32f4xx_hal_flash_ex.c ****   HAL_StatusTypeDef status = HAL_OK;
 874              		.loc 1 795 1 is_stmt 0 view .LVU227
 875 0000 10B5     		push	{r4, lr}
 876              	.LCFI6:
 877              		.cfi_def_cfa_offset 8
 878              		.cfi_offset 4, -8
 879              		.cfi_offset 14, -4
 880 0002 0446     		mov	r4, r0
 796:./Libraries/STM32F4xx_HAL_Driver/Src/stm32f4xx_hal_flash_ex.c **** 
 881              		.loc 1 796 3 is_stmt 1 view .LVU228
 882              	.LVL50:
 799:./Libraries/STM32F4xx_HAL_Driver/Src/stm32f4xx_hal_flash_ex.c **** 
 883              		.loc 1 799 3 view .LVU229
 802:./Libraries/STM32F4xx_HAL_Driver/Src/stm32f4xx_hal_flash_ex.c **** 
 884              		.loc 1 802 3 view .LVU230
 802:./Libraries/STM32F4xx_HAL_Driver/Src/stm32f4xx_hal_flash_ex.c **** 
 885              		.loc 1 802 12 is_stmt 0 view .LVU231
 886 0004 4CF25030 		movw	r0, #50000
 887              	.LVL51:
 802:./Libraries/STM32F4xx_HAL_Driver/Src/stm32f4xx_hal_flash_ex.c **** 
 888              		.loc 1 802 12 view .LVU232
 889 0008 FFF7FEFF 		bl	FLASH_WaitForLastOperation
 890              	.LVL52:
 804:./Libraries/STM32F4xx_HAL_Driver/Src/stm32f4xx_hal_flash_ex.c ****   { 
 891              		.loc 1 804 3 is_stmt 1 view .LVU233
 804:./Libraries/STM32F4xx_HAL_Driver/Src/stm32f4xx_hal_flash_ex.c ****   { 
 892              		.loc 1 804 5 is_stmt 0 view .LVU234
 893 000c 38B9     		cbnz	r0, .L81
 807:./Libraries/STM32F4xx_HAL_Driver/Src/stm32f4xx_hal_flash_ex.c ****     *(__IO uint8_t *)OPTCR_BYTE0_ADDRESS |= BootConfig;
 894              		.loc 1 807 5 is_stmt 1 view .LVU235
 807:./Libraries/STM32F4xx_HAL_Driver/Src/stm32f4xx_hal_flash_ex.c ****     *(__IO uint8_t *)OPTCR_BYTE0_ADDRESS |= BootConfig;
 895              		.loc 1 807 42 is_stmt 0 view .LVU236
 896 000e 044B     		ldr	r3, .L83
 897 0010 1A7D     		ldrb	r2, [r3, #20]	@ zero_extendqisi2
 898 0012 02F0EF02 		and	r2, r2, #239
 899 0016 1A75     		strb	r2, [r3, #20]
 808:./Libraries/STM32F4xx_HAL_Driver/Src/stm32f4xx_hal_flash_ex.c ****   }
 900              		.loc 1 808 5 is_stmt 1 view .LVU237
 808:./Libraries/STM32F4xx_HAL_Driver/Src/stm32f4xx_hal_flash_ex.c ****   }
 901              		.loc 1 808 42 is_stmt 0 view .LVU238
 902 0018 1A7D     		ldrb	r2, [r3, #20]	@ zero_extendqisi2
 903 001a 1443     		orrs	r4, r4, r2
 904 001c 1C75     		strb	r4, [r3, #20]
 905              	.L81:
ARM GAS  /tmp/ccuOvNEu.s 			page 43


 811:./Libraries/STM32F4xx_HAL_Driver/Src/stm32f4xx_hal_flash_ex.c **** }
 906              		.loc 1 811 3 is_stmt 1 view .LVU239
 812:./Libraries/STM32F4xx_HAL_Driver/Src/stm32f4xx_hal_flash_ex.c **** 
 907              		.loc 1 812 1 is_stmt 0 view .LVU240
 908 001e 10BD     		pop	{r4, pc}
 909              	.L84:
 910              		.align	2
 911              	.L83:
 912 0020 003C0240 		.word	1073888256
 913              		.cfi_endproc
 914              	.LFE139:
 916              		.section	.text.HAL_FLASHEx_OBProgram,"ax",%progbits
 917              		.align	1
 918              		.global	HAL_FLASHEx_OBProgram
 919              		.syntax unified
 920              		.thumb
 921              		.thumb_func
 922              		.fpu fpv4-sp-d16
 924              	HAL_FLASHEx_OBProgram:
 925              	.LVL53:
 926              	.LFB128:
 303:./Libraries/STM32F4xx_HAL_Driver/Src/stm32f4xx_hal_flash_ex.c ****   HAL_StatusTypeDef status = HAL_ERROR;
 927              		.loc 1 303 1 is_stmt 1 view -0
 928              		.cfi_startproc
 929              		@ args = 0, pretend = 0, frame = 0
 930              		@ frame_needed = 0, uses_anonymous_args = 0
 304:./Libraries/STM32F4xx_HAL_Driver/Src/stm32f4xx_hal_flash_ex.c ****   
 931              		.loc 1 304 3 view .LVU242
 307:./Libraries/STM32F4xx_HAL_Driver/Src/stm32f4xx_hal_flash_ex.c **** 
 932              		.loc 1 307 3 view .LVU243
 307:./Libraries/STM32F4xx_HAL_Driver/Src/stm32f4xx_hal_flash_ex.c **** 
 933              		.loc 1 307 3 view .LVU244
 934 0000 1F4B     		ldr	r3, .L102
 935 0002 1B7E     		ldrb	r3, [r3, #24]	@ zero_extendqisi2
 936 0004 012B     		cmp	r3, #1
 937 0006 38D0     		beq	.L92
 303:./Libraries/STM32F4xx_HAL_Driver/Src/stm32f4xx_hal_flash_ex.c ****   HAL_StatusTypeDef status = HAL_ERROR;
 938              		.loc 1 303 1 is_stmt 0 discriminator 2 view .LVU245
 939 0008 10B5     		push	{r4, lr}
 940              	.LCFI7:
 941              		.cfi_def_cfa_offset 8
 942              		.cfi_offset 4, -8
 943              		.cfi_offset 14, -4
 944 000a 0446     		mov	r4, r0
 307:./Libraries/STM32F4xx_HAL_Driver/Src/stm32f4xx_hal_flash_ex.c **** 
 945              		.loc 1 307 3 is_stmt 1 discriminator 2 view .LVU246
 946 000c 1C4B     		ldr	r3, .L102
 947 000e 0122     		movs	r2, #1
 948 0010 1A76     		strb	r2, [r3, #24]
 307:./Libraries/STM32F4xx_HAL_Driver/Src/stm32f4xx_hal_flash_ex.c **** 
 949              		.loc 1 307 3 discriminator 2 view .LVU247
 310:./Libraries/STM32F4xx_HAL_Driver/Src/stm32f4xx_hal_flash_ex.c **** 
 950              		.loc 1 310 3 discriminator 2 view .LVU248
 313:./Libraries/STM32F4xx_HAL_Driver/Src/stm32f4xx_hal_flash_ex.c ****   {
 951              		.loc 1 313 3 discriminator 2 view .LVU249
 313:./Libraries/STM32F4xx_HAL_Driver/Src/stm32f4xx_hal_flash_ex.c ****   {
 952              		.loc 1 313 14 is_stmt 0 discriminator 2 view .LVU250
ARM GAS  /tmp/ccuOvNEu.s 			page 44


 953 0012 0368     		ldr	r3, [r0]
 313:./Libraries/STM32F4xx_HAL_Driver/Src/stm32f4xx_hal_flash_ex.c ****   {
 954              		.loc 1 313 5 discriminator 2 view .LVU251
 955 0014 13F0010F 		tst	r3, #1
 956 0018 0CD0     		beq	.L93
 315:./Libraries/STM32F4xx_HAL_Driver/Src/stm32f4xx_hal_flash_ex.c ****     if(pOBInit->WRPState == OB_WRPSTATE_ENABLE)
 957              		.loc 1 315 5 is_stmt 1 view .LVU252
 316:./Libraries/STM32F4xx_HAL_Driver/Src/stm32f4xx_hal_flash_ex.c ****     {
 958              		.loc 1 316 5 view .LVU253
 316:./Libraries/STM32F4xx_HAL_Driver/Src/stm32f4xx_hal_flash_ex.c ****     {
 959              		.loc 1 316 15 is_stmt 0 view .LVU254
 960 001a 4368     		ldr	r3, [r0, #4]
 316:./Libraries/STM32F4xx_HAL_Driver/Src/stm32f4xx_hal_flash_ex.c ****     {
 961              		.loc 1 316 7 view .LVU255
 962 001c 9342     		cmp	r3, r2
 963 001e 04D0     		beq	.L98
 324:./Libraries/STM32F4xx_HAL_Driver/Src/stm32f4xx_hal_flash_ex.c ****     }
 964              		.loc 1 324 7 is_stmt 1 view .LVU256
 324:./Libraries/STM32F4xx_HAL_Driver/Src/stm32f4xx_hal_flash_ex.c ****     }
 965              		.loc 1 324 16 is_stmt 0 view .LVU257
 966 0020 C168     		ldr	r1, [r0, #12]
 967 0022 8068     		ldr	r0, [r0, #8]
 968              	.LVL54:
 324:./Libraries/STM32F4xx_HAL_Driver/Src/stm32f4xx_hal_flash_ex.c ****     }
 969              		.loc 1 324 16 view .LVU258
 970 0024 FFF7FEFF 		bl	FLASH_OB_DisableWRP
 971              	.LVL55:
 324:./Libraries/STM32F4xx_HAL_Driver/Src/stm32f4xx_hal_flash_ex.c ****     }
 972              		.loc 1 324 16 view .LVU259
 973 0028 05E0     		b	.L87
 974              	.LVL56:
 975              	.L98:
 319:./Libraries/STM32F4xx_HAL_Driver/Src/stm32f4xx_hal_flash_ex.c ****     }
 976              		.loc 1 319 7 is_stmt 1 view .LVU260
 319:./Libraries/STM32F4xx_HAL_Driver/Src/stm32f4xx_hal_flash_ex.c ****     }
 977              		.loc 1 319 16 is_stmt 0 view .LVU261
 978 002a C168     		ldr	r1, [r0, #12]
 979 002c 8068     		ldr	r0, [r0, #8]
 980              	.LVL57:
 319:./Libraries/STM32F4xx_HAL_Driver/Src/stm32f4xx_hal_flash_ex.c ****     }
 981              		.loc 1 319 16 view .LVU262
 982 002e FFF7FEFF 		bl	FLASH_OB_EnableWRP
 983              	.LVL58:
 319:./Libraries/STM32F4xx_HAL_Driver/Src/stm32f4xx_hal_flash_ex.c ****     }
 984              		.loc 1 319 16 view .LVU263
 985 0032 00E0     		b	.L87
 986              	.LVL59:
 987              	.L93:
 304:./Libraries/STM32F4xx_HAL_Driver/Src/stm32f4xx_hal_flash_ex.c ****   
 988              		.loc 1 304 21 view .LVU264
 989 0034 0120     		movs	r0, #1
 990              	.LVL60:
 991              	.L87:
 329:./Libraries/STM32F4xx_HAL_Driver/Src/stm32f4xx_hal_flash_ex.c ****   {
 992              		.loc 1 329 3 is_stmt 1 view .LVU265
 329:./Libraries/STM32F4xx_HAL_Driver/Src/stm32f4xx_hal_flash_ex.c ****   {
 993              		.loc 1 329 14 is_stmt 0 view .LVU266
ARM GAS  /tmp/ccuOvNEu.s 			page 45


 994 0036 2368     		ldr	r3, [r4]
 329:./Libraries/STM32F4xx_HAL_Driver/Src/stm32f4xx_hal_flash_ex.c ****   {
 995              		.loc 1 329 5 view .LVU267
 996 0038 13F0020F 		tst	r3, #2
 997 003c 0BD1     		bne	.L99
 998              	.L89:
 335:./Libraries/STM32F4xx_HAL_Driver/Src/stm32f4xx_hal_flash_ex.c ****   {
 999              		.loc 1 335 3 is_stmt 1 view .LVU268
 335:./Libraries/STM32F4xx_HAL_Driver/Src/stm32f4xx_hal_flash_ex.c ****   {
 1000              		.loc 1 335 14 is_stmt 0 view .LVU269
 1001 003e 2368     		ldr	r3, [r4]
 335:./Libraries/STM32F4xx_HAL_Driver/Src/stm32f4xx_hal_flash_ex.c ****   {
 1002              		.loc 1 335 5 view .LVU270
 1003 0040 13F0040F 		tst	r3, #4
 1004 0044 0BD1     		bne	.L100
 1005              	.L90:
 343:./Libraries/STM32F4xx_HAL_Driver/Src/stm32f4xx_hal_flash_ex.c ****   {
 1006              		.loc 1 343 3 is_stmt 1 view .LVU271
 343:./Libraries/STM32F4xx_HAL_Driver/Src/stm32f4xx_hal_flash_ex.c ****   {
 1007              		.loc 1 343 14 is_stmt 0 view .LVU272
 1008 0046 2368     		ldr	r3, [r4]
 343:./Libraries/STM32F4xx_HAL_Driver/Src/stm32f4xx_hal_flash_ex.c ****   {
 1009              		.loc 1 343 5 view .LVU273
 1010 0048 13F0080F 		tst	r3, #8
 1011 004c 11D1     		bne	.L101
 1012              	.L91:
 349:./Libraries/STM32F4xx_HAL_Driver/Src/stm32f4xx_hal_flash_ex.c **** 
 1013              		.loc 1 349 3 is_stmt 1 view .LVU274
 349:./Libraries/STM32F4xx_HAL_Driver/Src/stm32f4xx_hal_flash_ex.c **** 
 1014              		.loc 1 349 3 view .LVU275
 1015 004e 0C4B     		ldr	r3, .L102
 1016 0050 0022     		movs	r2, #0
 1017 0052 1A76     		strb	r2, [r3, #24]
 349:./Libraries/STM32F4xx_HAL_Driver/Src/stm32f4xx_hal_flash_ex.c **** 
 1018              		.loc 1 349 3 view .LVU276
 351:./Libraries/STM32F4xx_HAL_Driver/Src/stm32f4xx_hal_flash_ex.c **** }
 1019              		.loc 1 351 3 view .LVU277
 352:./Libraries/STM32F4xx_HAL_Driver/Src/stm32f4xx_hal_flash_ex.c **** 
 1020              		.loc 1 352 1 is_stmt 0 view .LVU278
 1021 0054 10BD     		pop	{r4, pc}
 1022              	.LVL61:
 1023              	.L99:
 331:./Libraries/STM32F4xx_HAL_Driver/Src/stm32f4xx_hal_flash_ex.c ****   }
 1024              		.loc 1 331 5 is_stmt 1 view .LVU279
 331:./Libraries/STM32F4xx_HAL_Driver/Src/stm32f4xx_hal_flash_ex.c ****   }
 1025              		.loc 1 331 14 is_stmt 0 view .LVU280
 1026 0056 207C     		ldrb	r0, [r4, #16]	@ zero_extendqisi2
 1027              	.LVL62:
 331:./Libraries/STM32F4xx_HAL_Driver/Src/stm32f4xx_hal_flash_ex.c ****   }
 1028              		.loc 1 331 14 view .LVU281
 1029 0058 FFF7FEFF 		bl	FLASH_OB_RDP_LevelConfig
 1030              	.LVL63:
 331:./Libraries/STM32F4xx_HAL_Driver/Src/stm32f4xx_hal_flash_ex.c ****   }
 1031              		.loc 1 331 14 view .LVU282
 1032 005c EFE7     		b	.L89
 1033              	.L100:
 337:./Libraries/STM32F4xx_HAL_Driver/Src/stm32f4xx_hal_flash_ex.c ****                                      pOBInit->USERConfig&OB_STOP_NO_RST,
ARM GAS  /tmp/ccuOvNEu.s 			page 46


 1034              		.loc 1 337 5 is_stmt 1 view .LVU283
 337:./Libraries/STM32F4xx_HAL_Driver/Src/stm32f4xx_hal_flash_ex.c ****                                      pOBInit->USERConfig&OB_STOP_NO_RST,
 1035              		.loc 1 337 41 is_stmt 0 view .LVU284
 1036 005e 207E     		ldrb	r0, [r4, #24]	@ zero_extendqisi2
 1037              	.LVL64:
 337:./Libraries/STM32F4xx_HAL_Driver/Src/stm32f4xx_hal_flash_ex.c ****                                      pOBInit->USERConfig&OB_STOP_NO_RST,
 1038              		.loc 1 337 14 view .LVU285
 1039 0060 00F08002 		and	r2, r0, #128
 1040 0064 00F04001 		and	r1, r0, #64
 1041 0068 00F02000 		and	r0, r0, #32
 1042 006c FFF7FEFF 		bl	FLASH_OB_UserConfig
 1043              	.LVL65:
 337:./Libraries/STM32F4xx_HAL_Driver/Src/stm32f4xx_hal_flash_ex.c ****                                      pOBInit->USERConfig&OB_STOP_NO_RST,
 1044              		.loc 1 337 14 view .LVU286
 1045 0070 E9E7     		b	.L90
 1046              	.L101:
 345:./Libraries/STM32F4xx_HAL_Driver/Src/stm32f4xx_hal_flash_ex.c ****   }
 1047              		.loc 1 345 5 is_stmt 1 view .LVU287
 345:./Libraries/STM32F4xx_HAL_Driver/Src/stm32f4xx_hal_flash_ex.c ****   }
 1048              		.loc 1 345 14 is_stmt 0 view .LVU288
 1049 0072 207D     		ldrb	r0, [r4, #20]	@ zero_extendqisi2
 1050              	.LVL66:
 345:./Libraries/STM32F4xx_HAL_Driver/Src/stm32f4xx_hal_flash_ex.c ****   }
 1051              		.loc 1 345 14 view .LVU289
 1052 0074 FFF7FEFF 		bl	FLASH_OB_BOR_LevelConfig
 1053              	.LVL67:
 345:./Libraries/STM32F4xx_HAL_Driver/Src/stm32f4xx_hal_flash_ex.c ****   }
 1054              		.loc 1 345 14 view .LVU290
 1055 0078 E9E7     		b	.L91
 1056              	.LVL68:
 1057              	.L92:
 1058              	.LCFI8:
 1059              		.cfi_def_cfa_offset 0
 1060              		.cfi_restore 4
 1061              		.cfi_restore 14
 307:./Libraries/STM32F4xx_HAL_Driver/Src/stm32f4xx_hal_flash_ex.c **** 
 1062              		.loc 1 307 3 view .LVU291
 1063 007a 0220     		movs	r0, #2
 1064              	.LVL69:
 352:./Libraries/STM32F4xx_HAL_Driver/Src/stm32f4xx_hal_flash_ex.c **** 
 1065              		.loc 1 352 1 view .LVU292
 1066 007c 7047     		bx	lr
 1067              	.L103:
 1068 007e 00BF     		.align	2
 1069              	.L102:
 1070 0080 00000000 		.word	pFlash
 1071              		.cfi_endproc
 1072              	.LFE128:
 1074              		.section	.text.HAL_FLASHEx_OBGetConfig,"ax",%progbits
 1075              		.align	1
 1076              		.global	HAL_FLASHEx_OBGetConfig
 1077              		.syntax unified
 1078              		.thumb
 1079              		.thumb_func
 1080              		.fpu fpv4-sp-d16
 1082              	HAL_FLASHEx_OBGetConfig:
 1083              	.LVL70:
ARM GAS  /tmp/ccuOvNEu.s 			page 47


 1084              	.LFB129:
 362:./Libraries/STM32F4xx_HAL_Driver/Src/stm32f4xx_hal_flash_ex.c ****   pOBInit->OptionType = OPTIONBYTE_WRP | OPTIONBYTE_RDP | OPTIONBYTE_USER | OPTIONBYTE_BOR;
 1085              		.loc 1 362 1 is_stmt 1 view -0
 1086              		.cfi_startproc
 1087              		@ args = 0, pretend = 0, frame = 0
 1088              		@ frame_needed = 0, uses_anonymous_args = 0
 362:./Libraries/STM32F4xx_HAL_Driver/Src/stm32f4xx_hal_flash_ex.c ****   pOBInit->OptionType = OPTIONBYTE_WRP | OPTIONBYTE_RDP | OPTIONBYTE_USER | OPTIONBYTE_BOR;
 1089              		.loc 1 362 1 is_stmt 0 view .LVU294
 1090 0000 10B5     		push	{r4, lr}
 1091              	.LCFI9:
 1092              		.cfi_def_cfa_offset 8
 1093              		.cfi_offset 4, -8
 1094              		.cfi_offset 14, -4
 1095 0002 0446     		mov	r4, r0
 363:./Libraries/STM32F4xx_HAL_Driver/Src/stm32f4xx_hal_flash_ex.c **** 
 1096              		.loc 1 363 3 is_stmt 1 view .LVU295
 363:./Libraries/STM32F4xx_HAL_Driver/Src/stm32f4xx_hal_flash_ex.c **** 
 1097              		.loc 1 363 23 is_stmt 0 view .LVU296
 1098 0004 0F23     		movs	r3, #15
 1099 0006 0360     		str	r3, [r0]
 366:./Libraries/STM32F4xx_HAL_Driver/Src/stm32f4xx_hal_flash_ex.c **** 
 1100              		.loc 1 366 3 is_stmt 1 view .LVU297
 366:./Libraries/STM32F4xx_HAL_Driver/Src/stm32f4xx_hal_flash_ex.c **** 
 1101              		.loc 1 366 34 is_stmt 0 view .LVU298
 1102 0008 FFF7FEFF 		bl	FLASH_OB_GetWRP
 1103              	.LVL71:
 366:./Libraries/STM32F4xx_HAL_Driver/Src/stm32f4xx_hal_flash_ex.c **** 
 1104              		.loc 1 366 22 view .LVU299
 1105 000c A060     		str	r0, [r4, #8]
 369:./Libraries/STM32F4xx_HAL_Driver/Src/stm32f4xx_hal_flash_ex.c **** 
 1106              		.loc 1 369 3 is_stmt 1 view .LVU300
 369:./Libraries/STM32F4xx_HAL_Driver/Src/stm32f4xx_hal_flash_ex.c **** 
 1107              		.loc 1 369 33 is_stmt 0 view .LVU301
 1108 000e FFF7FEFF 		bl	FLASH_OB_GetRDP
 1109              	.LVL72:
 369:./Libraries/STM32F4xx_HAL_Driver/Src/stm32f4xx_hal_flash_ex.c **** 
 1110              		.loc 1 369 21 view .LVU302
 1111 0012 2061     		str	r0, [r4, #16]
 372:./Libraries/STM32F4xx_HAL_Driver/Src/stm32f4xx_hal_flash_ex.c **** 
 1112              		.loc 1 372 3 is_stmt 1 view .LVU303
 372:./Libraries/STM32F4xx_HAL_Driver/Src/stm32f4xx_hal_flash_ex.c **** 
 1113              		.loc 1 372 34 is_stmt 0 view .LVU304
 1114 0014 FFF7FEFF 		bl	FLASH_OB_GetUser
 1115              	.LVL73:
 372:./Libraries/STM32F4xx_HAL_Driver/Src/stm32f4xx_hal_flash_ex.c **** 
 1116              		.loc 1 372 23 view .LVU305
 1117 0018 2076     		strb	r0, [r4, #24]
 375:./Libraries/STM32F4xx_HAL_Driver/Src/stm32f4xx_hal_flash_ex.c **** }
 1118              		.loc 1 375 3 is_stmt 1 view .LVU306
 375:./Libraries/STM32F4xx_HAL_Driver/Src/stm32f4xx_hal_flash_ex.c **** }
 1119              		.loc 1 375 33 is_stmt 0 view .LVU307
 1120 001a FFF7FEFF 		bl	FLASH_OB_GetBOR
 1121              	.LVL74:
 375:./Libraries/STM32F4xx_HAL_Driver/Src/stm32f4xx_hal_flash_ex.c **** }
 1122              		.loc 1 375 21 view .LVU308
 1123 001e 6061     		str	r0, [r4, #20]
 376:./Libraries/STM32F4xx_HAL_Driver/Src/stm32f4xx_hal_flash_ex.c **** 
ARM GAS  /tmp/ccuOvNEu.s 			page 48


 1124              		.loc 1 376 1 view .LVU309
 1125 0020 10BD     		pop	{r4, pc}
 376:./Libraries/STM32F4xx_HAL_Driver/Src/stm32f4xx_hal_flash_ex.c **** 
 1126              		.loc 1 376 1 view .LVU310
 1127              		.cfi_endproc
 1128              	.LFE129:
 1130              		.section	.text.HAL_FLASHEx_AdvOBProgram,"ax",%progbits
 1131              		.align	1
 1132              		.global	HAL_FLASHEx_AdvOBProgram
 1133              		.syntax unified
 1134              		.thumb
 1135              		.thumb_func
 1136              		.fpu fpv4-sp-d16
 1138              	HAL_FLASHEx_AdvOBProgram:
 1139              	.LVL75:
 1140              	.LFB130:
 391:./Libraries/STM32F4xx_HAL_Driver/Src/stm32f4xx_hal_flash_ex.c ****   HAL_StatusTypeDef status = HAL_ERROR;
 1141              		.loc 1 391 1 is_stmt 1 view -0
 1142              		.cfi_startproc
 1143              		@ args = 0, pretend = 0, frame = 0
 1144              		@ frame_needed = 0, uses_anonymous_args = 0
 391:./Libraries/STM32F4xx_HAL_Driver/Src/stm32f4xx_hal_flash_ex.c ****   HAL_StatusTypeDef status = HAL_ERROR;
 1145              		.loc 1 391 1 is_stmt 0 view .LVU312
 1146 0000 10B5     		push	{r4, lr}
 1147              	.LCFI10:
 1148              		.cfi_def_cfa_offset 8
 1149              		.cfi_offset 4, -8
 1150              		.cfi_offset 14, -4
 1151 0002 0446     		mov	r4, r0
 392:./Libraries/STM32F4xx_HAL_Driver/Src/stm32f4xx_hal_flash_ex.c ****   
 1152              		.loc 1 392 3 is_stmt 1 view .LVU313
 1153              	.LVL76:
 395:./Libraries/STM32F4xx_HAL_Driver/Src/stm32f4xx_hal_flash_ex.c **** 
 1154              		.loc 1 395 3 view .LVU314
 398:./Libraries/STM32F4xx_HAL_Driver/Src/stm32f4xx_hal_flash_ex.c ****   {
 1155              		.loc 1 398 3 view .LVU315
 398:./Libraries/STM32F4xx_HAL_Driver/Src/stm32f4xx_hal_flash_ex.c ****   {
 1156              		.loc 1 398 18 is_stmt 0 view .LVU316
 1157 0004 0368     		ldr	r3, [r0]
 398:./Libraries/STM32F4xx_HAL_Driver/Src/stm32f4xx_hal_flash_ex.c ****   {
 1158              		.loc 1 398 5 view .LVU317
 1159 0006 13F0010F 		tst	r3, #1
 1160 000a 0ED0     		beq	.L110
 401:./Libraries/STM32F4xx_HAL_Driver/Src/stm32f4xx_hal_flash_ex.c ****     if((pAdvOBInit->PCROPState) == OB_PCROP_STATE_ENABLE)
 1161              		.loc 1 401 5 is_stmt 1 view .LVU318
 402:./Libraries/STM32F4xx_HAL_Driver/Src/stm32f4xx_hal_flash_ex.c ****     {
 1162              		.loc 1 402 5 view .LVU319
 402:./Libraries/STM32F4xx_HAL_Driver/Src/stm32f4xx_hal_flash_ex.c ****     {
 1163              		.loc 1 402 19 is_stmt 0 view .LVU320
 1164 000c 4368     		ldr	r3, [r0, #4]
 402:./Libraries/STM32F4xx_HAL_Driver/Src/stm32f4xx_hal_flash_ex.c ****     {
 1165              		.loc 1 402 7 view .LVU321
 1166 000e 012B     		cmp	r3, #1
 1167 0010 05D0     		beq	.L112
 422:./Libraries/STM32F4xx_HAL_Driver/Src/stm32f4xx_hal_flash_ex.c **** #endif /* STM32F401xC || STM32F401xE || STM32F410xx || STM32F411xE || STM32F446xx || STM32F412Zx ||
 1168              		.loc 1 422 7 is_stmt 1 view .LVU322
 422:./Libraries/STM32F4xx_HAL_Driver/Src/stm32f4xx_hal_flash_ex.c **** #endif /* STM32F401xC || STM32F401xE || STM32F410xx || STM32F411xE || STM32F446xx || STM32F412Zx ||
ARM GAS  /tmp/ccuOvNEu.s 			page 49


 1169              		.loc 1 422 16 is_stmt 0 view .LVU323
 1170 0012 8268     		ldr	r2, [r0, #8]
 1171 0014 C189     		ldrh	r1, [r0, #14]
 1172 0016 8089     		ldrh	r0, [r0, #12]
 1173              	.LVL77:
 422:./Libraries/STM32F4xx_HAL_Driver/Src/stm32f4xx_hal_flash_ex.c **** #endif /* STM32F401xC || STM32F401xE || STM32F410xx || STM32F411xE || STM32F446xx || STM32F412Zx ||
 1174              		.loc 1 422 16 view .LVU324
 1175 0018 FFF7FEFF 		bl	FLASH_OB_DisablePCROP
 1176              	.LVL78:
 422:./Libraries/STM32F4xx_HAL_Driver/Src/stm32f4xx_hal_flash_ex.c **** #endif /* STM32F401xC || STM32F401xE || STM32F410xx || STM32F411xE || STM32F446xx || STM32F412Zx ||
 1177              		.loc 1 422 16 view .LVU325
 1178 001c 06E0     		b	.L107
 1179              	.LVL79:
 1180              	.L112:
 410:./Libraries/STM32F4xx_HAL_Driver/Src/stm32f4xx_hal_flash_ex.c **** #endif /* STM32F401xC || STM32F401xE || STM32F410xx || STM32F411xE || STM32F446xx || STM32F412Zx ||
 1181              		.loc 1 410 7 is_stmt 1 view .LVU326
 410:./Libraries/STM32F4xx_HAL_Driver/Src/stm32f4xx_hal_flash_ex.c **** #endif /* STM32F401xC || STM32F401xE || STM32F410xx || STM32F411xE || STM32F446xx || STM32F412Zx ||
 1182              		.loc 1 410 16 is_stmt 0 view .LVU327
 1183 001e 8268     		ldr	r2, [r0, #8]
 1184 0020 C189     		ldrh	r1, [r0, #14]
 1185 0022 8089     		ldrh	r0, [r0, #12]
 1186              	.LVL80:
 410:./Libraries/STM32F4xx_HAL_Driver/Src/stm32f4xx_hal_flash_ex.c **** #endif /* STM32F401xC || STM32F401xE || STM32F410xx || STM32F411xE || STM32F446xx || STM32F412Zx ||
 1187              		.loc 1 410 16 view .LVU328
 1188 0024 FFF7FEFF 		bl	FLASH_OB_EnablePCROP
 1189              	.LVL81:
 410:./Libraries/STM32F4xx_HAL_Driver/Src/stm32f4xx_hal_flash_ex.c **** #endif /* STM32F401xC || STM32F401xE || STM32F410xx || STM32F411xE || STM32F446xx || STM32F412Zx ||
 1190              		.loc 1 410 16 view .LVU329
 1191 0028 00E0     		b	.L107
 1192              	.LVL82:
 1193              	.L110:
 392:./Libraries/STM32F4xx_HAL_Driver/Src/stm32f4xx_hal_flash_ex.c ****   
 1194              		.loc 1 392 21 view .LVU330
 1195 002a 0120     		movs	r0, #1
 1196              	.LVL83:
 1197              	.L107:
 430:./Libraries/STM32F4xx_HAL_Driver/Src/stm32f4xx_hal_flash_ex.c ****   {
 1198              		.loc 1 430 3 is_stmt 1 view .LVU331
 430:./Libraries/STM32F4xx_HAL_Driver/Src/stm32f4xx_hal_flash_ex.c ****   {
 1199              		.loc 1 430 18 is_stmt 0 view .LVU332
 1200 002c 2368     		ldr	r3, [r4]
 430:./Libraries/STM32F4xx_HAL_Driver/Src/stm32f4xx_hal_flash_ex.c ****   {
 1201              		.loc 1 430 5 view .LVU333
 1202 002e 13F0020F 		tst	r3, #2
 1203 0032 00D1     		bne	.L113
 1204              	.L109:
 436:./Libraries/STM32F4xx_HAL_Driver/Src/stm32f4xx_hal_flash_ex.c **** }
 1205              		.loc 1 436 3 is_stmt 1 view .LVU334
 437:./Libraries/STM32F4xx_HAL_Driver/Src/stm32f4xx_hal_flash_ex.c **** 
 1206              		.loc 1 437 1 is_stmt 0 view .LVU335
 1207 0034 10BD     		pop	{r4, pc}
 1208              	.LVL84:
 1209              	.L113:
 432:./Libraries/STM32F4xx_HAL_Driver/Src/stm32f4xx_hal_flash_ex.c ****   }
 1210              		.loc 1 432 5 is_stmt 1 view .LVU336
 432:./Libraries/STM32F4xx_HAL_Driver/Src/stm32f4xx_hal_flash_ex.c ****   }
 1211              		.loc 1 432 14 is_stmt 0 view .LVU337
ARM GAS  /tmp/ccuOvNEu.s 			page 50


 1212 0036 207C     		ldrb	r0, [r4, #16]	@ zero_extendqisi2
 1213              	.LVL85:
 432:./Libraries/STM32F4xx_HAL_Driver/Src/stm32f4xx_hal_flash_ex.c ****   }
 1214              		.loc 1 432 14 view .LVU338
 1215 0038 FFF7FEFF 		bl	FLASH_OB_BootConfig
 1216              	.LVL86:
 432:./Libraries/STM32F4xx_HAL_Driver/Src/stm32f4xx_hal_flash_ex.c ****   }
 1217              		.loc 1 432 14 view .LVU339
 1218 003c FAE7     		b	.L109
 1219              		.cfi_endproc
 1220              	.LFE130:
 1222              		.section	.text.HAL_FLASHEx_AdvOBGetConfig,"ax",%progbits
 1223              		.align	1
 1224              		.global	HAL_FLASHEx_AdvOBGetConfig
 1225              		.syntax unified
 1226              		.thumb
 1227              		.thumb_func
 1228              		.fpu fpv4-sp-d16
 1230              	HAL_FLASHEx_AdvOBGetConfig:
 1231              	.LVL87:
 1232              	.LFB131:
 447:./Libraries/STM32F4xx_HAL_Driver/Src/stm32f4xx_hal_flash_ex.c **** #if defined(STM32F401xC) || defined(STM32F401xE) || defined(STM32F410Tx) || defined(STM32F410Cx) ||
 1233              		.loc 1 447 1 is_stmt 1 view -0
 1234              		.cfi_startproc
 1235              		@ args = 0, pretend = 0, frame = 0
 1236              		@ frame_needed = 0, uses_anonymous_args = 0
 1237              		@ link register save eliminated.
 455:./Libraries/STM32F4xx_HAL_Driver/Src/stm32f4xx_hal_flash_ex.c **** 
 1238              		.loc 1 455 3 view .LVU341
 455:./Libraries/STM32F4xx_HAL_Driver/Src/stm32f4xx_hal_flash_ex.c **** 
 1239              		.loc 1 455 31 is_stmt 0 view .LVU342
 1240 0000 034B     		ldr	r3, .L115
 1241 0002 DA8A     		ldrh	r2, [r3, #22]
 455:./Libraries/STM32F4xx_HAL_Driver/Src/stm32f4xx_hal_flash_ex.c **** 
 1242              		.loc 1 455 28 view .LVU343
 1243 0004 8281     		strh	r2, [r0, #12]	@ movhi
 458:./Libraries/STM32F4xx_HAL_Driver/Src/stm32f4xx_hal_flash_ex.c **** 
 1244              		.loc 1 458 3 is_stmt 1 view .LVU344
 458:./Libraries/STM32F4xx_HAL_Driver/Src/stm32f4xx_hal_flash_ex.c **** 
 1245              		.loc 1 458 31 is_stmt 0 view .LVU345
 1246 0006 5A8B     		ldrh	r2, [r3, #26]
 458:./Libraries/STM32F4xx_HAL_Driver/Src/stm32f4xx_hal_flash_ex.c **** 
 1247              		.loc 1 458 28 view .LVU346
 1248 0008 C281     		strh	r2, [r0, #14]	@ movhi
 461:./Libraries/STM32F4xx_HAL_Driver/Src/stm32f4xx_hal_flash_ex.c **** #endif /* STM32F401xC || STM32F401xE || STM32F410xx || STM32F411xE || STM32F446xx || STM32F412Zx ||
 1249              		.loc 1 461 3 is_stmt 1 view .LVU347
 461:./Libraries/STM32F4xx_HAL_Driver/Src/stm32f4xx_hal_flash_ex.c **** #endif /* STM32F401xC || STM32F401xE || STM32F410xx || STM32F411xE || STM32F446xx || STM32F412Zx ||
 1250              		.loc 1 461 28 is_stmt 0 view .LVU348
 1251 000a 1B7D     		ldrb	r3, [r3, #20]	@ zero_extendqisi2
 461:./Libraries/STM32F4xx_HAL_Driver/Src/stm32f4xx_hal_flash_ex.c **** #endif /* STM32F401xC || STM32F401xE || STM32F410xx || STM32F411xE || STM32F446xx || STM32F412Zx ||
 1252              		.loc 1 461 26 view .LVU349
 1253 000c 0374     		strb	r3, [r0, #16]
 464:./Libraries/STM32F4xx_HAL_Driver/Src/stm32f4xx_hal_flash_ex.c **** 
 1254              		.loc 1 464 1 view .LVU350
 1255 000e 7047     		bx	lr
 1256              	.L116:
 1257              		.align	2
ARM GAS  /tmp/ccuOvNEu.s 			page 51


 1258              	.L115:
 1259 0010 003C0240 		.word	1073888256
 1260              		.cfi_endproc
 1261              	.LFE131:
 1263              		.section	.text.HAL_FLASHEx_OB_SelectPCROP,"ax",%progbits
 1264              		.align	1
 1265              		.global	HAL_FLASHEx_OB_SelectPCROP
 1266              		.syntax unified
 1267              		.thumb
 1268              		.thumb_func
 1269              		.fpu fpv4-sp-d16
 1271              	HAL_FLASHEx_OB_SelectPCROP:
 1272              	.LFB132:
 479:./Libraries/STM32F4xx_HAL_Driver/Src/stm32f4xx_hal_flash_ex.c ****   uint8_t optiontmp = 0xFF;
 1273              		.loc 1 479 1 is_stmt 1 view -0
 1274              		.cfi_startproc
 1275              		@ args = 0, pretend = 0, frame = 0
 1276              		@ frame_needed = 0, uses_anonymous_args = 0
 1277              		@ link register save eliminated.
 480:./Libraries/STM32F4xx_HAL_Driver/Src/stm32f4xx_hal_flash_ex.c **** 
 1278              		.loc 1 480 3 view .LVU352
 1279              	.LVL88:
 483:./Libraries/STM32F4xx_HAL_Driver/Src/stm32f4xx_hal_flash_ex.c ****   
 1280              		.loc 1 483 3 view .LVU353
 483:./Libraries/STM32F4xx_HAL_Driver/Src/stm32f4xx_hal_flash_ex.c ****   
 1281              		.loc 1 483 65 is_stmt 0 view .LVU354
 1282 0000 034A     		ldr	r2, .L118
 1283 0002 D37D     		ldrb	r3, [r2, #23]	@ zero_extendqisi2
 1284              	.LVL89:
 486:./Libraries/STM32F4xx_HAL_Driver/Src/stm32f4xx_hal_flash_ex.c ****   
 1285              		.loc 1 486 3 is_stmt 1 view .LVU355
 486:./Libraries/STM32F4xx_HAL_Driver/Src/stm32f4xx_hal_flash_ex.c ****   
 1286              		.loc 1 486 42 is_stmt 0 view .LVU356
 1287 0004 43F08003 		orr	r3, r3, #128
 1288              	.LVL90:
 486:./Libraries/STM32F4xx_HAL_Driver/Src/stm32f4xx_hal_flash_ex.c ****   
 1289              		.loc 1 486 40 view .LVU357
 1290 0008 D375     		strb	r3, [r2, #23]
 488:./Libraries/STM32F4xx_HAL_Driver/Src/stm32f4xx_hal_flash_ex.c **** }
 1291              		.loc 1 488 3 is_stmt 1 view .LVU358
 489:./Libraries/STM32F4xx_HAL_Driver/Src/stm32f4xx_hal_flash_ex.c **** 
 1292              		.loc 1 489 1 is_stmt 0 view .LVU359
 1293 000a 0020     		movs	r0, #0
 1294 000c 7047     		bx	lr
 1295              	.L119:
 1296 000e 00BF     		.align	2
 1297              	.L118:
 1298 0010 003C0240 		.word	1073888256
 1299              		.cfi_endproc
 1300              	.LFE132:
 1302              		.section	.text.HAL_FLASHEx_OB_DeSelectPCROP,"ax",%progbits
 1303              		.align	1
 1304              		.global	HAL_FLASHEx_OB_DeSelectPCROP
 1305              		.syntax unified
 1306              		.thumb
 1307              		.thumb_func
 1308              		.fpu fpv4-sp-d16
ARM GAS  /tmp/ccuOvNEu.s 			page 52


 1310              	HAL_FLASHEx_OB_DeSelectPCROP:
 1311              	.LFB133:
 504:./Libraries/STM32F4xx_HAL_Driver/Src/stm32f4xx_hal_flash_ex.c ****   uint8_t optiontmp = 0xFF;
 1312              		.loc 1 504 1 is_stmt 1 view -0
 1313              		.cfi_startproc
 1314              		@ args = 0, pretend = 0, frame = 0
 1315              		@ frame_needed = 0, uses_anonymous_args = 0
 1316              		@ link register save eliminated.
 505:./Libraries/STM32F4xx_HAL_Driver/Src/stm32f4xx_hal_flash_ex.c ****   
 1317              		.loc 1 505 3 view .LVU361
 1318              	.LVL91:
 508:./Libraries/STM32F4xx_HAL_Driver/Src/stm32f4xx_hal_flash_ex.c ****   
 1319              		.loc 1 508 3 view .LVU362
 508:./Libraries/STM32F4xx_HAL_Driver/Src/stm32f4xx_hal_flash_ex.c ****   
 1320              		.loc 1 508 65 is_stmt 0 view .LVU363
 1321 0000 034A     		ldr	r2, .L121
 1322 0002 D37D     		ldrb	r3, [r2, #23]	@ zero_extendqisi2
 508:./Libraries/STM32F4xx_HAL_Driver/Src/stm32f4xx_hal_flash_ex.c ****   
 1323              		.loc 1 508 13 view .LVU364
 1324 0004 03F07F03 		and	r3, r3, #127
 1325              	.LVL92:
 511:./Libraries/STM32F4xx_HAL_Driver/Src/stm32f4xx_hal_flash_ex.c ****   
 1326              		.loc 1 511 3 is_stmt 1 view .LVU365
 511:./Libraries/STM32F4xx_HAL_Driver/Src/stm32f4xx_hal_flash_ex.c ****   
 1327              		.loc 1 511 40 is_stmt 0 view .LVU366
 1328 0008 D375     		strb	r3, [r2, #23]
 513:./Libraries/STM32F4xx_HAL_Driver/Src/stm32f4xx_hal_flash_ex.c **** }
 1329              		.loc 1 513 3 is_stmt 1 view .LVU367
 514:./Libraries/STM32F4xx_HAL_Driver/Src/stm32f4xx_hal_flash_ex.c **** #endif /* STM32F427xx || STM32F437xx || STM32F429xx || STM32F439xx || STM32F401xC || STM32F401xE ||
 1330              		.loc 1 514 1 is_stmt 0 view .LVU368
 1331 000a 0020     		movs	r0, #0
 1332 000c 7047     		bx	lr
 1333              	.L122:
 1334 000e 00BF     		.align	2
 1335              	.L121:
 1336 0010 003C0240 		.word	1073888256
 1337              		.cfi_endproc
 1338              	.LFE133:
 1340              		.section	.text.HAL_FLASHEx_OB_GetBank2WRP,"ax",%progbits
 1341              		.align	1
 1342              		.global	HAL_FLASHEx_OB_GetBank2WRP
 1343              		.syntax unified
 1344              		.thumb
 1345              		.thumb_func
 1346              		.fpu fpv4-sp-d16
 1348              	HAL_FLASHEx_OB_GetBank2WRP:
 1349              	.LFB134:
 526:./Libraries/STM32F4xx_HAL_Driver/Src/stm32f4xx_hal_flash_ex.c ****   /* Return the FLASH write protection Register value */
 1350              		.loc 1 526 1 is_stmt 1 view -0
 1351              		.cfi_startproc
 1352              		@ args = 0, pretend = 0, frame = 0
 1353              		@ frame_needed = 0, uses_anonymous_args = 0
 1354              		@ link register save eliminated.
 528:./Libraries/STM32F4xx_HAL_Driver/Src/stm32f4xx_hal_flash_ex.c **** }
 1355              		.loc 1 528 3 view .LVU370
 528:./Libraries/STM32F4xx_HAL_Driver/Src/stm32f4xx_hal_flash_ex.c **** }
 1356              		.loc 1 528 11 is_stmt 0 view .LVU371
ARM GAS  /tmp/ccuOvNEu.s 			page 53


 1357 0000 014B     		ldr	r3, .L124
 1358 0002 588B     		ldrh	r0, [r3, #26]
 529:./Libraries/STM32F4xx_HAL_Driver/Src/stm32f4xx_hal_flash_ex.c **** #endif /* STM32F427xx || STM32F437xx || STM32F429xx || STM32F439xx || STM32F469xx || STM32F479xx */
 1359              		.loc 1 529 1 view .LVU372
 1360 0004 80B2     		uxth	r0, r0
 1361 0006 7047     		bx	lr
 1362              	.L125:
 1363              		.align	2
 1364              	.L124:
 1365 0008 003C0240 		.word	1073888256
 1366              		.cfi_endproc
 1367              	.LFE134:
 1369              		.section	.text.FLASH_Erase_Sector,"ax",%progbits
 1370              		.align	1
 1371              		.global	FLASH_Erase_Sector
 1372              		.syntax unified
 1373              		.thumb
 1374              		.thumb_func
 1375              		.fpu fpv4-sp-d16
 1377              	FLASH_Erase_Sector:
 1378              	.LVL93:
 1379              	.LFB136:
 603:./Libraries/STM32F4xx_HAL_Driver/Src/stm32f4xx_hal_flash_ex.c ****   uint32_t tmp_psize = 0U;
 1380              		.loc 1 603 1 is_stmt 1 view -0
 1381              		.cfi_startproc
 1382              		@ args = 0, pretend = 0, frame = 0
 1383              		@ frame_needed = 0, uses_anonymous_args = 0
 1384              		@ link register save eliminated.
 604:./Libraries/STM32F4xx_HAL_Driver/Src/stm32f4xx_hal_flash_ex.c **** 
 1385              		.loc 1 604 3 view .LVU374
 607:./Libraries/STM32F4xx_HAL_Driver/Src/stm32f4xx_hal_flash_ex.c ****   assert_param(IS_VOLTAGERANGE(VoltageRange));
 1386              		.loc 1 607 3 view .LVU375
 608:./Libraries/STM32F4xx_HAL_Driver/Src/stm32f4xx_hal_flash_ex.c ****   
 1387              		.loc 1 608 3 view .LVU376
 610:./Libraries/STM32F4xx_HAL_Driver/Src/stm32f4xx_hal_flash_ex.c ****   {
 1388              		.loc 1 610 3 view .LVU377
 610:./Libraries/STM32F4xx_HAL_Driver/Src/stm32f4xx_hal_flash_ex.c ****   {
 1389              		.loc 1 610 5 is_stmt 0 view .LVU378
 1390 0000 49B1     		cbz	r1, .L129
 614:./Libraries/STM32F4xx_HAL_Driver/Src/stm32f4xx_hal_flash_ex.c ****   {
 1391              		.loc 1 614 8 is_stmt 1 view .LVU379
 614:./Libraries/STM32F4xx_HAL_Driver/Src/stm32f4xx_hal_flash_ex.c ****   {
 1392              		.loc 1 614 10 is_stmt 0 view .LVU380
 1393 0002 0129     		cmp	r1, #1
 1394 0004 24D0     		beq	.L130
 618:./Libraries/STM32F4xx_HAL_Driver/Src/stm32f4xx_hal_flash_ex.c ****   {
 1395              		.loc 1 618 8 is_stmt 1 view .LVU381
 618:./Libraries/STM32F4xx_HAL_Driver/Src/stm32f4xx_hal_flash_ex.c ****   {
 1396              		.loc 1 618 10 is_stmt 0 view .LVU382
 1397 0006 0229     		cmp	r1, #2
 1398 0008 02D0     		beq	.L132
 624:./Libraries/STM32F4xx_HAL_Driver/Src/stm32f4xx_hal_flash_ex.c ****   }
 1399              		.loc 1 624 15 view .LVU383
 1400 000a 4FF4407C 		mov	ip, #768
 1401 000e 04E0     		b	.L127
 1402              	.L132:
 620:./Libraries/STM32F4xx_HAL_Driver/Src/stm32f4xx_hal_flash_ex.c ****   }
ARM GAS  /tmp/ccuOvNEu.s 			page 54


 1403              		.loc 1 620 15 view .LVU384
 1404 0010 4FF4007C 		mov	ip, #512
 1405 0014 01E0     		b	.L127
 1406              	.L129:
 612:./Libraries/STM32F4xx_HAL_Driver/Src/stm32f4xx_hal_flash_ex.c ****   }
 1407              		.loc 1 612 16 view .LVU385
 1408 0016 4FF0000C 		mov	ip, #0
 1409              	.L127:
 1410              	.LVL94:
 628:./Libraries/STM32F4xx_HAL_Driver/Src/stm32f4xx_hal_flash_ex.c ****   {
 1411              		.loc 1 628 3 is_stmt 1 view .LVU386
 628:./Libraries/STM32F4xx_HAL_Driver/Src/stm32f4xx_hal_flash_ex.c ****   {
 1412              		.loc 1 628 5 is_stmt 0 view .LVU387
 1413 001a 0B28     		cmp	r0, #11
 1414 001c 00D9     		bls	.L128
 630:./Libraries/STM32F4xx_HAL_Driver/Src/stm32f4xx_hal_flash_ex.c ****   }
 1415              		.loc 1 630 5 is_stmt 1 view .LVU388
 630:./Libraries/STM32F4xx_HAL_Driver/Src/stm32f4xx_hal_flash_ex.c ****   }
 1416              		.loc 1 630 12 is_stmt 0 view .LVU389
 1417 001e 0430     		adds	r0, r0, #4
 1418              	.LVL95:
 1419              	.L128:
 633:./Libraries/STM32F4xx_HAL_Driver/Src/stm32f4xx_hal_flash_ex.c ****   FLASH->CR |= tmp_psize;
 1420              		.loc 1 633 3 is_stmt 1 view .LVU390
 1421 0020 0D4B     		ldr	r3, .L133
 1422 0022 1969     		ldr	r1, [r3, #16]
 1423              	.LVL96:
 633:./Libraries/STM32F4xx_HAL_Driver/Src/stm32f4xx_hal_flash_ex.c ****   FLASH->CR |= tmp_psize;
 1424              		.loc 1 633 3 is_stmt 0 view .LVU391
 1425 0024 21F44071 		bic	r1, r1, #768
 1426 0028 1961     		str	r1, [r3, #16]
 634:./Libraries/STM32F4xx_HAL_Driver/Src/stm32f4xx_hal_flash_ex.c ****   CLEAR_BIT(FLASH->CR, FLASH_CR_SNB);
 1427              		.loc 1 634 3 is_stmt 1 view .LVU392
 634:./Libraries/STM32F4xx_HAL_Driver/Src/stm32f4xx_hal_flash_ex.c ****   CLEAR_BIT(FLASH->CR, FLASH_CR_SNB);
 1428              		.loc 1 634 13 is_stmt 0 view .LVU393
 1429 002a 1A69     		ldr	r2, [r3, #16]
 1430 002c 42EA0C02 		orr	r2, r2, ip
 1431 0030 1A61     		str	r2, [r3, #16]
 635:./Libraries/STM32F4xx_HAL_Driver/Src/stm32f4xx_hal_flash_ex.c ****   FLASH->CR |= FLASH_CR_SER | (Sector << FLASH_CR_SNB_Pos);
 1432              		.loc 1 635 3 is_stmt 1 view .LVU394
 1433 0032 1A69     		ldr	r2, [r3, #16]
 1434 0034 22F0F802 		bic	r2, r2, #248
 1435 0038 1A61     		str	r2, [r3, #16]
 636:./Libraries/STM32F4xx_HAL_Driver/Src/stm32f4xx_hal_flash_ex.c ****   FLASH->CR |= FLASH_CR_STRT;
 1436              		.loc 1 636 3 view .LVU395
 636:./Libraries/STM32F4xx_HAL_Driver/Src/stm32f4xx_hal_flash_ex.c ****   FLASH->CR |= FLASH_CR_STRT;
 1437              		.loc 1 636 13 is_stmt 0 view .LVU396
 1438 003a 1A69     		ldr	r2, [r3, #16]
 1439 003c 42EAC000 		orr	r0, r2, r0, lsl #3
 1440              	.LVL97:
 636:./Libraries/STM32F4xx_HAL_Driver/Src/stm32f4xx_hal_flash_ex.c ****   FLASH->CR |= FLASH_CR_STRT;
 1441              		.loc 1 636 13 view .LVU397
 1442 0040 40F00200 		orr	r0, r0, #2
 1443 0044 1861     		str	r0, [r3, #16]
 637:./Libraries/STM32F4xx_HAL_Driver/Src/stm32f4xx_hal_flash_ex.c **** }
 1444              		.loc 1 637 3 is_stmt 1 view .LVU398
 637:./Libraries/STM32F4xx_HAL_Driver/Src/stm32f4xx_hal_flash_ex.c **** }
ARM GAS  /tmp/ccuOvNEu.s 			page 55


 1445              		.loc 1 637 13 is_stmt 0 view .LVU399
 1446 0046 1A69     		ldr	r2, [r3, #16]
 1447 0048 42F48032 		orr	r2, r2, #65536
 1448 004c 1A61     		str	r2, [r3, #16]
 638:./Libraries/STM32F4xx_HAL_Driver/Src/stm32f4xx_hal_flash_ex.c **** 
 1449              		.loc 1 638 1 view .LVU400
 1450 004e 7047     		bx	lr
 1451              	.LVL98:
 1452              	.L130:
 616:./Libraries/STM32F4xx_HAL_Driver/Src/stm32f4xx_hal_flash_ex.c ****   }
 1453              		.loc 1 616 15 view .LVU401
 1454 0050 4FF4807C 		mov	ip, #256
 1455 0054 E1E7     		b	.L127
 1456              	.L134:
 1457 0056 00BF     		.align	2
 1458              	.L133:
 1459 0058 003C0240 		.word	1073888256
 1460              		.cfi_endproc
 1461              	.LFE136:
 1463              		.section	.text.HAL_FLASHEx_Erase_IT,"ax",%progbits
 1464              		.align	1
 1465              		.global	HAL_FLASHEx_Erase_IT
 1466              		.syntax unified
 1467              		.thumb
 1468              		.thumb_func
 1469              		.fpu fpv4-sp-d16
 1471              	HAL_FLASHEx_Erase_IT:
 1472              	.LVL99:
 1473              	.LFB127:
 250:./Libraries/STM32F4xx_HAL_Driver/Src/stm32f4xx_hal_flash_ex.c ****   HAL_StatusTypeDef status = HAL_OK;
 1474              		.loc 1 250 1 is_stmt 1 view -0
 1475              		.cfi_startproc
 1476              		@ args = 0, pretend = 0, frame = 0
 1477              		@ frame_needed = 0, uses_anonymous_args = 0
 250:./Libraries/STM32F4xx_HAL_Driver/Src/stm32f4xx_hal_flash_ex.c ****   HAL_StatusTypeDef status = HAL_OK;
 1478              		.loc 1 250 1 is_stmt 0 view .LVU403
 1479 0000 08B5     		push	{r3, lr}
 1480              	.LCFI11:
 1481              		.cfi_def_cfa_offset 8
 1482              		.cfi_offset 3, -8
 1483              		.cfi_offset 14, -4
 251:./Libraries/STM32F4xx_HAL_Driver/Src/stm32f4xx_hal_flash_ex.c **** 
 1484              		.loc 1 251 3 is_stmt 1 view .LVU404
 1485              	.LVL100:
 254:./Libraries/STM32F4xx_HAL_Driver/Src/stm32f4xx_hal_flash_ex.c **** 
 1486              		.loc 1 254 3 view .LVU405
 254:./Libraries/STM32F4xx_HAL_Driver/Src/stm32f4xx_hal_flash_ex.c **** 
 1487              		.loc 1 254 3 view .LVU406
 1488 0002 184B     		ldr	r3, .L141
 1489 0004 1B7E     		ldrb	r3, [r3, #24]	@ zero_extendqisi2
 1490 0006 012B     		cmp	r3, #1
 1491 0008 29D0     		beq	.L138
 254:./Libraries/STM32F4xx_HAL_Driver/Src/stm32f4xx_hal_flash_ex.c **** 
 1492              		.loc 1 254 3 discriminator 2 view .LVU407
 1493 000a 164B     		ldr	r3, .L141
 1494 000c 0122     		movs	r2, #1
 1495 000e 1A76     		strb	r2, [r3, #24]
ARM GAS  /tmp/ccuOvNEu.s 			page 56


 254:./Libraries/STM32F4xx_HAL_Driver/Src/stm32f4xx_hal_flash_ex.c **** 
 1496              		.loc 1 254 3 discriminator 2 view .LVU408
 257:./Libraries/STM32F4xx_HAL_Driver/Src/stm32f4xx_hal_flash_ex.c **** 
 1497              		.loc 1 257 3 discriminator 2 view .LVU409
 260:./Libraries/STM32F4xx_HAL_Driver/Src/stm32f4xx_hal_flash_ex.c ****   
 1498              		.loc 1 260 3 discriminator 2 view .LVU410
 1499 0010 154B     		ldr	r3, .L141+4
 1500 0012 1A69     		ldr	r2, [r3, #16]
 1501 0014 42F08072 		orr	r2, r2, #16777216
 1502 0018 1A61     		str	r2, [r3, #16]
 263:./Libraries/STM32F4xx_HAL_Driver/Src/stm32f4xx_hal_flash_ex.c ****   
 1503              		.loc 1 263 3 discriminator 2 view .LVU411
 1504 001a 1A69     		ldr	r2, [r3, #16]
 1505 001c 42F00072 		orr	r2, r2, #33554432
 1506 0020 1A61     		str	r2, [r3, #16]
 266:./Libraries/STM32F4xx_HAL_Driver/Src/stm32f4xx_hal_flash_ex.c ****                          FLASH_FLAG_PGAERR | FLASH_FLAG_PGPERR| FLASH_FLAG_PGSERR);  
 1507              		.loc 1 266 3 discriminator 2 view .LVU412
 1508 0022 F322     		movs	r2, #243
 1509 0024 DA60     		str	r2, [r3, #12]
 269:./Libraries/STM32F4xx_HAL_Driver/Src/stm32f4xx_hal_flash_ex.c ****   {
 1510              		.loc 1 269 3 discriminator 2 view .LVU413
 269:./Libraries/STM32F4xx_HAL_Driver/Src/stm32f4xx_hal_flash_ex.c ****   {
 1511              		.loc 1 269 16 is_stmt 0 discriminator 2 view .LVU414
 1512 0026 0368     		ldr	r3, [r0]
 269:./Libraries/STM32F4xx_HAL_Driver/Src/stm32f4xx_hal_flash_ex.c ****   {
 1513              		.loc 1 269 5 discriminator 2 view .LVU415
 1514 0028 012B     		cmp	r3, #1
 1515 002a 0DD0     		beq	.L140
 281:./Libraries/STM32F4xx_HAL_Driver/Src/stm32f4xx_hal_flash_ex.c **** 
 1516              		.loc 1 281 5 is_stmt 1 view .LVU416
 283:./Libraries/STM32F4xx_HAL_Driver/Src/stm32f4xx_hal_flash_ex.c ****     pFlash.NbSectorsToErase = pEraseInit->NbSectors;
 1517              		.loc 1 283 5 view .LVU417
 283:./Libraries/STM32F4xx_HAL_Driver/Src/stm32f4xx_hal_flash_ex.c ****     pFlash.NbSectorsToErase = pEraseInit->NbSectors;
 1518              		.loc 1 283 29 is_stmt 0 view .LVU418
 1519 002c 0D4B     		ldr	r3, .L141
 1520 002e 0122     		movs	r2, #1
 1521 0030 1A70     		strb	r2, [r3]
 284:./Libraries/STM32F4xx_HAL_Driver/Src/stm32f4xx_hal_flash_ex.c ****     pFlash.Sector = pEraseInit->Sector;
 1522              		.loc 1 284 5 is_stmt 1 view .LVU419
 284:./Libraries/STM32F4xx_HAL_Driver/Src/stm32f4xx_hal_flash_ex.c ****     pFlash.Sector = pEraseInit->Sector;
 1523              		.loc 1 284 41 is_stmt 0 view .LVU420
 1524 0032 C268     		ldr	r2, [r0, #12]
 284:./Libraries/STM32F4xx_HAL_Driver/Src/stm32f4xx_hal_flash_ex.c ****     pFlash.Sector = pEraseInit->Sector;
 1525              		.loc 1 284 29 view .LVU421
 1526 0034 5A60     		str	r2, [r3, #4]
 285:./Libraries/STM32F4xx_HAL_Driver/Src/stm32f4xx_hal_flash_ex.c ****     pFlash.VoltageForErase = (uint8_t)pEraseInit->VoltageRange;
 1527              		.loc 1 285 5 is_stmt 1 view .LVU422
 285:./Libraries/STM32F4xx_HAL_Driver/Src/stm32f4xx_hal_flash_ex.c ****     pFlash.VoltageForErase = (uint8_t)pEraseInit->VoltageRange;
 1528              		.loc 1 285 31 is_stmt 0 view .LVU423
 1529 0036 8268     		ldr	r2, [r0, #8]
 285:./Libraries/STM32F4xx_HAL_Driver/Src/stm32f4xx_hal_flash_ex.c ****     pFlash.VoltageForErase = (uint8_t)pEraseInit->VoltageRange;
 1530              		.loc 1 285 19 view .LVU424
 1531 0038 DA60     		str	r2, [r3, #12]
 286:./Libraries/STM32F4xx_HAL_Driver/Src/stm32f4xx_hal_flash_ex.c **** 
 1532              		.loc 1 286 5 is_stmt 1 view .LVU425
 286:./Libraries/STM32F4xx_HAL_Driver/Src/stm32f4xx_hal_flash_ex.c **** 
 1533              		.loc 1 286 30 is_stmt 0 view .LVU426
ARM GAS  /tmp/ccuOvNEu.s 			page 57


 1534 003a 017C     		ldrb	r1, [r0, #16]	@ zero_extendqisi2
 286:./Libraries/STM32F4xx_HAL_Driver/Src/stm32f4xx_hal_flash_ex.c **** 
 1535              		.loc 1 286 28 view .LVU427
 1536 003c 1972     		strb	r1, [r3, #8]
 289:./Libraries/STM32F4xx_HAL_Driver/Src/stm32f4xx_hal_flash_ex.c ****   }
 1537              		.loc 1 289 5 is_stmt 1 view .LVU428
 1538 003e 8068     		ldr	r0, [r0, #8]
 1539              	.LVL101:
 289:./Libraries/STM32F4xx_HAL_Driver/Src/stm32f4xx_hal_flash_ex.c ****   }
 1540              		.loc 1 289 5 is_stmt 0 view .LVU429
 1541 0040 FFF7FEFF 		bl	FLASH_Erase_Sector
 1542              	.LVL102:
 292:./Libraries/STM32F4xx_HAL_Driver/Src/stm32f4xx_hal_flash_ex.c **** }
 1543              		.loc 1 292 10 view .LVU430
 1544 0044 0020     		movs	r0, #0
 1545              	.L136:
 293:./Libraries/STM32F4xx_HAL_Driver/Src/stm32f4xx_hal_flash_ex.c **** 
 1546              		.loc 1 293 1 view .LVU431
 1547 0046 08BD     		pop	{r3, pc}
 1548              	.LVL103:
 1549              	.L140:
 272:./Libraries/STM32F4xx_HAL_Driver/Src/stm32f4xx_hal_flash_ex.c ****     pFlash.Bank = pEraseInit->Banks;
 1550              		.loc 1 272 5 is_stmt 1 view .LVU432
 272:./Libraries/STM32F4xx_HAL_Driver/Src/stm32f4xx_hal_flash_ex.c ****     pFlash.Bank = pEraseInit->Banks;
 1551              		.loc 1 272 29 is_stmt 0 view .LVU433
 1552 0048 064B     		ldr	r3, .L141
 1553 004a 0222     		movs	r2, #2
 1554 004c 1A70     		strb	r2, [r3]
 273:./Libraries/STM32F4xx_HAL_Driver/Src/stm32f4xx_hal_flash_ex.c ****     FLASH_MassErase((uint8_t) pEraseInit->VoltageRange, pEraseInit->Banks);
 1555              		.loc 1 273 5 is_stmt 1 view .LVU434
 273:./Libraries/STM32F4xx_HAL_Driver/Src/stm32f4xx_hal_flash_ex.c ****     FLASH_MassErase((uint8_t) pEraseInit->VoltageRange, pEraseInit->Banks);
 1556              		.loc 1 273 29 is_stmt 0 view .LVU435
 1557 004e 4268     		ldr	r2, [r0, #4]
 273:./Libraries/STM32F4xx_HAL_Driver/Src/stm32f4xx_hal_flash_ex.c ****     FLASH_MassErase((uint8_t) pEraseInit->VoltageRange, pEraseInit->Banks);
 1558              		.loc 1 273 17 view .LVU436
 1559 0050 1A61     		str	r2, [r3, #16]
 274:./Libraries/STM32F4xx_HAL_Driver/Src/stm32f4xx_hal_flash_ex.c ****   }
 1560              		.loc 1 274 5 is_stmt 1 view .LVU437
 1561 0052 4168     		ldr	r1, [r0, #4]
 1562 0054 007C     		ldrb	r0, [r0, #16]	@ zero_extendqisi2
 1563              	.LVL104:
 274:./Libraries/STM32F4xx_HAL_Driver/Src/stm32f4xx_hal_flash_ex.c ****   }
 1564              		.loc 1 274 5 is_stmt 0 view .LVU438
 1565 0056 FFF7FEFF 		bl	FLASH_MassErase
 1566              	.LVL105:
 292:./Libraries/STM32F4xx_HAL_Driver/Src/stm32f4xx_hal_flash_ex.c **** }
 1567              		.loc 1 292 10 view .LVU439
 1568 005a 0020     		movs	r0, #0
 1569 005c F3E7     		b	.L136
 1570              	.LVL106:
 1571              	.L138:
 254:./Libraries/STM32F4xx_HAL_Driver/Src/stm32f4xx_hal_flash_ex.c **** 
 1572              		.loc 1 254 3 view .LVU440
 1573 005e 0220     		movs	r0, #2
 1574              	.LVL107:
 254:./Libraries/STM32F4xx_HAL_Driver/Src/stm32f4xx_hal_flash_ex.c **** 
 1575              		.loc 1 254 3 view .LVU441
ARM GAS  /tmp/ccuOvNEu.s 			page 58


 1576 0060 F1E7     		b	.L136
 1577              	.L142:
 1578 0062 00BF     		.align	2
 1579              	.L141:
 1580 0064 00000000 		.word	pFlash
 1581 0068 003C0240 		.word	1073888256
 1582              		.cfi_endproc
 1583              	.LFE127:
 1585              		.section	.text.FLASH_FlushCaches,"ax",%progbits
 1586              		.align	1
 1587              		.global	FLASH_FlushCaches
 1588              		.syntax unified
 1589              		.thumb
 1590              		.thumb_func
 1591              		.fpu fpv4-sp-d16
 1593              	FLASH_FlushCaches:
 1594              	.LFB149:
1322:./Libraries/STM32F4xx_HAL_Driver/Src/stm32f4xx_hal_flash_ex.c **** 
1323:./Libraries/STM32F4xx_HAL_Driver/Src/stm32f4xx_hal_flash_ex.c **** /**
1324:./Libraries/STM32F4xx_HAL_Driver/Src/stm32f4xx_hal_flash_ex.c ****   * @brief  Flush the instruction and data caches
1325:./Libraries/STM32F4xx_HAL_Driver/Src/stm32f4xx_hal_flash_ex.c ****   * @retval None
1326:./Libraries/STM32F4xx_HAL_Driver/Src/stm32f4xx_hal_flash_ex.c ****   */
1327:./Libraries/STM32F4xx_HAL_Driver/Src/stm32f4xx_hal_flash_ex.c **** void FLASH_FlushCaches(void)
1328:./Libraries/STM32F4xx_HAL_Driver/Src/stm32f4xx_hal_flash_ex.c **** {
 1595              		.loc 1 1328 1 is_stmt 1 view -0
 1596              		.cfi_startproc
 1597              		@ args = 0, pretend = 0, frame = 0
 1598              		@ frame_needed = 0, uses_anonymous_args = 0
 1599              		@ link register save eliminated.
1329:./Libraries/STM32F4xx_HAL_Driver/Src/stm32f4xx_hal_flash_ex.c ****   /* Flush instruction cache  */
1330:./Libraries/STM32F4xx_HAL_Driver/Src/stm32f4xx_hal_flash_ex.c ****   if(READ_BIT(FLASH->ACR, FLASH_ACR_ICEN)!= RESET)
 1600              		.loc 1 1330 3 view .LVU443
 1601              		.loc 1 1330 6 is_stmt 0 view .LVU444
 1602 0000 164B     		ldr	r3, .L146
 1603 0002 1B68     		ldr	r3, [r3]
 1604              		.loc 1 1330 5 view .LVU445
 1605 0004 13F4007F 		tst	r3, #512
 1606 0008 10D0     		beq	.L144
1331:./Libraries/STM32F4xx_HAL_Driver/Src/stm32f4xx_hal_flash_ex.c ****   {
1332:./Libraries/STM32F4xx_HAL_Driver/Src/stm32f4xx_hal_flash_ex.c ****     /* Disable instruction cache  */
1333:./Libraries/STM32F4xx_HAL_Driver/Src/stm32f4xx_hal_flash_ex.c ****     __HAL_FLASH_INSTRUCTION_CACHE_DISABLE();
 1607              		.loc 1 1333 5 is_stmt 1 view .LVU446
 1608 000a 144B     		ldr	r3, .L146
 1609 000c 1A68     		ldr	r2, [r3]
 1610 000e 22F40072 		bic	r2, r2, #512
 1611 0012 1A60     		str	r2, [r3]
1334:./Libraries/STM32F4xx_HAL_Driver/Src/stm32f4xx_hal_flash_ex.c ****     /* Reset instruction cache */
1335:./Libraries/STM32F4xx_HAL_Driver/Src/stm32f4xx_hal_flash_ex.c ****     __HAL_FLASH_INSTRUCTION_CACHE_RESET();
 1612              		.loc 1 1335 5 view .LVU447
 1613              		.loc 1 1335 5 view .LVU448
 1614 0014 1A68     		ldr	r2, [r3]
 1615 0016 42F40062 		orr	r2, r2, #2048
 1616 001a 1A60     		str	r2, [r3]
 1617              		.loc 1 1335 5 view .LVU449
 1618 001c 1A68     		ldr	r2, [r3]
 1619 001e 22F40062 		bic	r2, r2, #2048
 1620 0022 1A60     		str	r2, [r3]
ARM GAS  /tmp/ccuOvNEu.s 			page 59


 1621              		.loc 1 1335 5 view .LVU450
1336:./Libraries/STM32F4xx_HAL_Driver/Src/stm32f4xx_hal_flash_ex.c ****     /* Enable instruction cache */
1337:./Libraries/STM32F4xx_HAL_Driver/Src/stm32f4xx_hal_flash_ex.c ****     __HAL_FLASH_INSTRUCTION_CACHE_ENABLE();
 1622              		.loc 1 1337 5 view .LVU451
 1623 0024 1A68     		ldr	r2, [r3]
 1624 0026 42F40072 		orr	r2, r2, #512
 1625 002a 1A60     		str	r2, [r3]
 1626              	.L144:
1338:./Libraries/STM32F4xx_HAL_Driver/Src/stm32f4xx_hal_flash_ex.c ****   }
1339:./Libraries/STM32F4xx_HAL_Driver/Src/stm32f4xx_hal_flash_ex.c ****   
1340:./Libraries/STM32F4xx_HAL_Driver/Src/stm32f4xx_hal_flash_ex.c ****   /* Flush data cache */
1341:./Libraries/STM32F4xx_HAL_Driver/Src/stm32f4xx_hal_flash_ex.c ****   if(READ_BIT(FLASH->ACR, FLASH_ACR_DCEN) != RESET)
 1627              		.loc 1 1341 3 view .LVU452
 1628              		.loc 1 1341 6 is_stmt 0 view .LVU453
 1629 002c 0B4B     		ldr	r3, .L146
 1630 002e 1B68     		ldr	r3, [r3]
 1631              		.loc 1 1341 5 view .LVU454
 1632 0030 13F4806F 		tst	r3, #1024
 1633 0034 10D0     		beq	.L143
1342:./Libraries/STM32F4xx_HAL_Driver/Src/stm32f4xx_hal_flash_ex.c ****   {
1343:./Libraries/STM32F4xx_HAL_Driver/Src/stm32f4xx_hal_flash_ex.c ****     /* Disable data cache  */
1344:./Libraries/STM32F4xx_HAL_Driver/Src/stm32f4xx_hal_flash_ex.c ****     __HAL_FLASH_DATA_CACHE_DISABLE();
 1634              		.loc 1 1344 5 is_stmt 1 view .LVU455
 1635 0036 094B     		ldr	r3, .L146
 1636 0038 1A68     		ldr	r2, [r3]
 1637 003a 22F48062 		bic	r2, r2, #1024
 1638 003e 1A60     		str	r2, [r3]
1345:./Libraries/STM32F4xx_HAL_Driver/Src/stm32f4xx_hal_flash_ex.c ****     /* Reset data cache */
1346:./Libraries/STM32F4xx_HAL_Driver/Src/stm32f4xx_hal_flash_ex.c ****     __HAL_FLASH_DATA_CACHE_RESET();
 1639              		.loc 1 1346 5 view .LVU456
 1640              		.loc 1 1346 5 view .LVU457
 1641 0040 1A68     		ldr	r2, [r3]
 1642 0042 42F48052 		orr	r2, r2, #4096
 1643 0046 1A60     		str	r2, [r3]
 1644              		.loc 1 1346 5 view .LVU458
 1645 0048 1A68     		ldr	r2, [r3]
 1646 004a 22F48052 		bic	r2, r2, #4096
 1647 004e 1A60     		str	r2, [r3]
 1648              		.loc 1 1346 5 view .LVU459
1347:./Libraries/STM32F4xx_HAL_Driver/Src/stm32f4xx_hal_flash_ex.c ****     /* Enable data cache */
1348:./Libraries/STM32F4xx_HAL_Driver/Src/stm32f4xx_hal_flash_ex.c ****     __HAL_FLASH_DATA_CACHE_ENABLE();
 1649              		.loc 1 1348 5 view .LVU460
 1650 0050 1A68     		ldr	r2, [r3]
 1651 0052 42F48062 		orr	r2, r2, #1024
 1652 0056 1A60     		str	r2, [r3]
 1653              	.L143:
1349:./Libraries/STM32F4xx_HAL_Driver/Src/stm32f4xx_hal_flash_ex.c ****   }
1350:./Libraries/STM32F4xx_HAL_Driver/Src/stm32f4xx_hal_flash_ex.c **** }
 1654              		.loc 1 1350 1 is_stmt 0 view .LVU461
 1655 0058 7047     		bx	lr
 1656              	.L147:
 1657 005a 00BF     		.align	2
 1658              	.L146:
 1659 005c 003C0240 		.word	1073888256
 1660              		.cfi_endproc
 1661              	.LFE149:
 1663              		.section	.text.HAL_FLASHEx_Erase,"ax",%progbits
ARM GAS  /tmp/ccuOvNEu.s 			page 60


 1664              		.align	1
 1665              		.global	HAL_FLASHEx_Erase
 1666              		.syntax unified
 1667              		.thumb
 1668              		.thumb_func
 1669              		.fpu fpv4-sp-d16
 1671              	HAL_FLASHEx_Erase:
 1672              	.LVL108:
 1673              	.LFB126:
 179:./Libraries/STM32F4xx_HAL_Driver/Src/stm32f4xx_hal_flash_ex.c ****   HAL_StatusTypeDef status = HAL_ERROR;
 1674              		.loc 1 179 1 is_stmt 1 view -0
 1675              		.cfi_startproc
 1676              		@ args = 0, pretend = 0, frame = 0
 1677              		@ frame_needed = 0, uses_anonymous_args = 0
 179:./Libraries/STM32F4xx_HAL_Driver/Src/stm32f4xx_hal_flash_ex.c ****   HAL_StatusTypeDef status = HAL_ERROR;
 1678              		.loc 1 179 1 is_stmt 0 view .LVU463
 1679 0000 F8B5     		push	{r3, r4, r5, r6, r7, lr}
 1680              	.LCFI12:
 1681              		.cfi_def_cfa_offset 24
 1682              		.cfi_offset 3, -24
 1683              		.cfi_offset 4, -20
 1684              		.cfi_offset 5, -16
 1685              		.cfi_offset 6, -12
 1686              		.cfi_offset 7, -8
 1687              		.cfi_offset 14, -4
 180:./Libraries/STM32F4xx_HAL_Driver/Src/stm32f4xx_hal_flash_ex.c ****   uint32_t index = 0U;
 1688              		.loc 1 180 3 is_stmt 1 view .LVU464
 1689              	.LVL109:
 181:./Libraries/STM32F4xx_HAL_Driver/Src/stm32f4xx_hal_flash_ex.c ****   
 1690              		.loc 1 181 3 view .LVU465
 184:./Libraries/STM32F4xx_HAL_Driver/Src/stm32f4xx_hal_flash_ex.c **** 
 1691              		.loc 1 184 3 view .LVU466
 184:./Libraries/STM32F4xx_HAL_Driver/Src/stm32f4xx_hal_flash_ex.c **** 
 1692              		.loc 1 184 3 view .LVU467
 1693 0002 234B     		ldr	r3, .L160
 1694 0004 1B7E     		ldrb	r3, [r3, #24]	@ zero_extendqisi2
 1695 0006 012B     		cmp	r3, #1
 1696 0008 40D0     		beq	.L156
 1697 000a 0446     		mov	r4, r0
 1698 000c 0E46     		mov	r6, r1
 184:./Libraries/STM32F4xx_HAL_Driver/Src/stm32f4xx_hal_flash_ex.c **** 
 1699              		.loc 1 184 3 discriminator 2 view .LVU468
 1700 000e 204B     		ldr	r3, .L160
 1701 0010 0122     		movs	r2, #1
 1702 0012 1A76     		strb	r2, [r3, #24]
 184:./Libraries/STM32F4xx_HAL_Driver/Src/stm32f4xx_hal_flash_ex.c **** 
 1703              		.loc 1 184 3 discriminator 2 view .LVU469
 187:./Libraries/STM32F4xx_HAL_Driver/Src/stm32f4xx_hal_flash_ex.c **** 
 1704              		.loc 1 187 3 discriminator 2 view .LVU470
 190:./Libraries/STM32F4xx_HAL_Driver/Src/stm32f4xx_hal_flash_ex.c **** 
 1705              		.loc 1 190 3 discriminator 2 view .LVU471
 190:./Libraries/STM32F4xx_HAL_Driver/Src/stm32f4xx_hal_flash_ex.c **** 
 1706              		.loc 1 190 12 is_stmt 0 discriminator 2 view .LVU472
 1707 0014 4CF25030 		movw	r0, #50000
 1708              	.LVL110:
 190:./Libraries/STM32F4xx_HAL_Driver/Src/stm32f4xx_hal_flash_ex.c **** 
 1709              		.loc 1 190 12 discriminator 2 view .LVU473
ARM GAS  /tmp/ccuOvNEu.s 			page 61


 1710 0018 FFF7FEFF 		bl	FLASH_WaitForLastOperation
 1711              	.LVL111:
 192:./Libraries/STM32F4xx_HAL_Driver/Src/stm32f4xx_hal_flash_ex.c ****   {
 1712              		.loc 1 192 3 is_stmt 1 discriminator 2 view .LVU474
 192:./Libraries/STM32F4xx_HAL_Driver/Src/stm32f4xx_hal_flash_ex.c ****   {
 1713              		.loc 1 192 5 is_stmt 0 discriminator 2 view .LVU475
 1714 001c 0746     		mov	r7, r0
 1715 001e 80BB     		cbnz	r0, .L150
 195:./Libraries/STM32F4xx_HAL_Driver/Src/stm32f4xx_hal_flash_ex.c ****     
 1716              		.loc 1 195 5 is_stmt 1 view .LVU476
 195:./Libraries/STM32F4xx_HAL_Driver/Src/stm32f4xx_hal_flash_ex.c ****     
 1717              		.loc 1 195 18 is_stmt 0 view .LVU477
 1718 0020 4FF0FF33 		mov	r3, #-1
 1719 0024 3360     		str	r3, [r6]
 197:./Libraries/STM32F4xx_HAL_Driver/Src/stm32f4xx_hal_flash_ex.c ****     {
 1720              		.loc 1 197 5 is_stmt 1 view .LVU478
 197:./Libraries/STM32F4xx_HAL_Driver/Src/stm32f4xx_hal_flash_ex.c ****     {
 1721              		.loc 1 197 18 is_stmt 0 view .LVU479
 1722 0026 2368     		ldr	r3, [r4]
 197:./Libraries/STM32F4xx_HAL_Driver/Src/stm32f4xx_hal_flash_ex.c ****     {
 1723              		.loc 1 197 7 view .LVU480
 1724 0028 012B     		cmp	r3, #1
 1725 002a 16D0     		beq	.L158
 211:./Libraries/STM32F4xx_HAL_Driver/Src/stm32f4xx_hal_flash_ex.c **** 
 1726              		.loc 1 211 7 is_stmt 1 view .LVU481
 214:./Libraries/STM32F4xx_HAL_Driver/Src/stm32f4xx_hal_flash_ex.c ****       {
 1727              		.loc 1 214 7 view .LVU482
 214:./Libraries/STM32F4xx_HAL_Driver/Src/stm32f4xx_hal_flash_ex.c ****       {
 1728              		.loc 1 214 17 is_stmt 0 view .LVU483
 1729 002c A568     		ldr	r5, [r4, #8]
 1730              	.LVL112:
 1731              	.L153:
 214:./Libraries/STM32F4xx_HAL_Driver/Src/stm32f4xx_hal_flash_ex.c ****       {
 1732              		.loc 1 214 39 is_stmt 1 discriminator 1 view .LVU484
 214:./Libraries/STM32F4xx_HAL_Driver/Src/stm32f4xx_hal_flash_ex.c ****       {
 1733              		.loc 1 214 58 is_stmt 0 discriminator 1 view .LVU485
 1734 002e E368     		ldr	r3, [r4, #12]
 214:./Libraries/STM32F4xx_HAL_Driver/Src/stm32f4xx_hal_flash_ex.c ****       {
 1735              		.loc 1 214 82 discriminator 1 view .LVU486
 1736 0030 A268     		ldr	r2, [r4, #8]
 214:./Libraries/STM32F4xx_HAL_Driver/Src/stm32f4xx_hal_flash_ex.c ****       {
 1737              		.loc 1 214 70 discriminator 1 view .LVU487
 1738 0032 1344     		add	r3, r3, r2
 214:./Libraries/STM32F4xx_HAL_Driver/Src/stm32f4xx_hal_flash_ex.c ****       {
 1739              		.loc 1 214 7 discriminator 1 view .LVU488
 1740 0034 AB42     		cmp	r3, r5
 1741 0036 22D9     		bls	.L152
 216:./Libraries/STM32F4xx_HAL_Driver/Src/stm32f4xx_hal_flash_ex.c **** 
 1742              		.loc 1 216 9 is_stmt 1 view .LVU489
 1743 0038 217C     		ldrb	r1, [r4, #16]	@ zero_extendqisi2
 1744 003a 2846     		mov	r0, r5
 1745 003c FFF7FEFF 		bl	FLASH_Erase_Sector
 1746              	.LVL113:
 219:./Libraries/STM32F4xx_HAL_Driver/Src/stm32f4xx_hal_flash_ex.c ****         
 1747              		.loc 1 219 9 view .LVU490
 219:./Libraries/STM32F4xx_HAL_Driver/Src/stm32f4xx_hal_flash_ex.c ****         
 1748              		.loc 1 219 18 is_stmt 0 view .LVU491
ARM GAS  /tmp/ccuOvNEu.s 			page 62


 1749 0040 4CF25030 		movw	r0, #50000
 1750 0044 FFF7FEFF 		bl	FLASH_WaitForLastOperation
 1751              	.LVL114:
 222:./Libraries/STM32F4xx_HAL_Driver/Src/stm32f4xx_hal_flash_ex.c **** 
 1752              		.loc 1 222 9 is_stmt 1 view .LVU492
 1753 0048 124A     		ldr	r2, .L160+4
 1754 004a 1369     		ldr	r3, [r2, #16]
 1755 004c 23F0FA03 		bic	r3, r3, #250
 1756 0050 1361     		str	r3, [r2, #16]
 224:./Libraries/STM32F4xx_HAL_Driver/Src/stm32f4xx_hal_flash_ex.c ****         {
 1757              		.loc 1 224 9 view .LVU493
 224:./Libraries/STM32F4xx_HAL_Driver/Src/stm32f4xx_hal_flash_ex.c ****         {
 1758              		.loc 1 224 11 is_stmt 0 view .LVU494
 1759 0052 0746     		mov	r7, r0
 1760 0054 90B9     		cbnz	r0, .L159
 214:./Libraries/STM32F4xx_HAL_Driver/Src/stm32f4xx_hal_flash_ex.c ****       {
 1761              		.loc 1 214 93 is_stmt 1 discriminator 2 view .LVU495
 214:./Libraries/STM32F4xx_HAL_Driver/Src/stm32f4xx_hal_flash_ex.c ****       {
 1762              		.loc 1 214 98 is_stmt 0 discriminator 2 view .LVU496
 1763 0056 0135     		adds	r5, r5, #1
 1764              	.LVL115:
 214:./Libraries/STM32F4xx_HAL_Driver/Src/stm32f4xx_hal_flash_ex.c ****       {
 1765              		.loc 1 214 98 discriminator 2 view .LVU497
 1766 0058 E9E7     		b	.L153
 1767              	.LVL116:
 1768              	.L158:
 200:./Libraries/STM32F4xx_HAL_Driver/Src/stm32f4xx_hal_flash_ex.c **** 
 1769              		.loc 1 200 7 is_stmt 1 view .LVU498
 1770 005a 6168     		ldr	r1, [r4, #4]
 1771 005c 207C     		ldrb	r0, [r4, #16]	@ zero_extendqisi2
 1772              	.LVL117:
 200:./Libraries/STM32F4xx_HAL_Driver/Src/stm32f4xx_hal_flash_ex.c **** 
 1773              		.loc 1 200 7 is_stmt 0 view .LVU499
 1774 005e FFF7FEFF 		bl	FLASH_MassErase
 1775              	.LVL118:
 203:./Libraries/STM32F4xx_HAL_Driver/Src/stm32f4xx_hal_flash_ex.c ****       
 1776              		.loc 1 203 7 is_stmt 1 view .LVU500
 203:./Libraries/STM32F4xx_HAL_Driver/Src/stm32f4xx_hal_flash_ex.c ****       
 1777              		.loc 1 203 16 is_stmt 0 view .LVU501
 1778 0062 4CF25030 		movw	r0, #50000
 1779 0066 FFF7FEFF 		bl	FLASH_WaitForLastOperation
 1780              	.LVL119:
 1781 006a 0746     		mov	r7, r0
 1782              	.LVL120:
 206:./Libraries/STM32F4xx_HAL_Driver/Src/stm32f4xx_hal_flash_ex.c ****     }
 1783              		.loc 1 206 7 is_stmt 1 view .LVU502
 206:./Libraries/STM32F4xx_HAL_Driver/Src/stm32f4xx_hal_flash_ex.c ****     }
 1784              		.loc 1 206 17 is_stmt 0 view .LVU503
 1785 006c 094A     		ldr	r2, .L160+4
 1786 006e 1369     		ldr	r3, [r2, #16]
 1787 0070 23F40043 		bic	r3, r3, #32768
 1788 0074 23F00403 		bic	r3, r3, #4
 1789 0078 1361     		str	r3, [r2, #16]
 1790 007a 00E0     		b	.L152
 1791              	.LVL121:
 1792              	.L159:
 227:./Libraries/STM32F4xx_HAL_Driver/Src/stm32f4xx_hal_flash_ex.c ****           break;
ARM GAS  /tmp/ccuOvNEu.s 			page 63


 1793              		.loc 1 227 11 is_stmt 1 view .LVU504
 227:./Libraries/STM32F4xx_HAL_Driver/Src/stm32f4xx_hal_flash_ex.c ****           break;
 1794              		.loc 1 227 24 is_stmt 0 view .LVU505
 1795 007c 3560     		str	r5, [r6]
 228:./Libraries/STM32F4xx_HAL_Driver/Src/stm32f4xx_hal_flash_ex.c ****         }
 1796              		.loc 1 228 11 is_stmt 1 view .LVU506
 1797              	.LVL122:
 1798              	.L152:
 233:./Libraries/STM32F4xx_HAL_Driver/Src/stm32f4xx_hal_flash_ex.c ****   }
 1799              		.loc 1 233 5 view .LVU507
 1800 007e FFF7FEFF 		bl	FLASH_FlushCaches
 1801              	.LVL123:
 1802              	.L150:
 237:./Libraries/STM32F4xx_HAL_Driver/Src/stm32f4xx_hal_flash_ex.c **** 
 1803              		.loc 1 237 3 view .LVU508
 237:./Libraries/STM32F4xx_HAL_Driver/Src/stm32f4xx_hal_flash_ex.c **** 
 1804              		.loc 1 237 3 view .LVU509
 1805 0082 034B     		ldr	r3, .L160
 1806 0084 0022     		movs	r2, #0
 1807 0086 1A76     		strb	r2, [r3, #24]
 237:./Libraries/STM32F4xx_HAL_Driver/Src/stm32f4xx_hal_flash_ex.c **** 
 1808              		.loc 1 237 3 view .LVU510
 239:./Libraries/STM32F4xx_HAL_Driver/Src/stm32f4xx_hal_flash_ex.c **** }
 1809              		.loc 1 239 3 view .LVU511
 1810              	.LVL124:
 1811              	.L149:
 240:./Libraries/STM32F4xx_HAL_Driver/Src/stm32f4xx_hal_flash_ex.c **** 
 1812              		.loc 1 240 1 is_stmt 0 view .LVU512
 1813 0088 3846     		mov	r0, r7
 1814 008a F8BD     		pop	{r3, r4, r5, r6, r7, pc}
 1815              	.LVL125:
 1816              	.L156:
 184:./Libraries/STM32F4xx_HAL_Driver/Src/stm32f4xx_hal_flash_ex.c **** 
 1817              		.loc 1 184 3 view .LVU513
 1818 008c 0227     		movs	r7, #2
 1819 008e FBE7     		b	.L149
 1820              	.L161:
 1821              		.align	2
 1822              	.L160:
 1823 0090 00000000 		.word	pFlash
 1824 0094 003C0240 		.word	1073888256
 1825              		.cfi_endproc
 1826              	.LFE126:
 1828              		.text
 1829              	.Letext0:
 1830              		.file 2 "/home/hao/Documents/gcc-arm-none-eabi/arm-none-eabi/include/machine/_default_types.h"
 1831              		.file 3 "/home/hao/Documents/gcc-arm-none-eabi/arm-none-eabi/include/sys/_stdint.h"
 1832              		.file 4 "./Libraries/CMSIS/Device/ST/STM32F4xx/Include/stm32f429xx.h"
 1833              		.file 5 "./Libraries/CMSIS/Device/ST/STM32F4xx/Include/stm32f4xx.h"
 1834              		.file 6 "./Libraries/STM32F4xx_HAL_Driver/Inc/stm32f4xx_hal_def.h"
 1835              		.file 7 "./Libraries/STM32F4xx_HAL_Driver/Inc/stm32f4xx_hal_flash.h"
 1836              		.file 8 "./Libraries/STM32F4xx_HAL_Driver/Inc/stm32f4xx_hal_flash_ex.h"
ARM GAS  /tmp/ccuOvNEu.s 			page 64


DEFINED SYMBOLS
                            *ABS*:0000000000000000 stm32f4xx_hal_flash_ex.c
     /tmp/ccuOvNEu.s:18     .text.FLASH_MassErase:0000000000000000 $t
     /tmp/ccuOvNEu.s:25     .text.FLASH_MassErase:0000000000000000 FLASH_MassErase
     /tmp/ccuOvNEu.s:87     .text.FLASH_MassErase:0000000000000048 $d
     /tmp/ccuOvNEu.s:92     .text.FLASH_OB_BOR_LevelConfig:0000000000000000 $t
     /tmp/ccuOvNEu.s:98     .text.FLASH_OB_BOR_LevelConfig:0000000000000000 FLASH_OB_BOR_LevelConfig
     /tmp/ccuOvNEu.s:127    .text.FLASH_OB_BOR_LevelConfig:0000000000000014 $d
     /tmp/ccuOvNEu.s:132    .text.FLASH_OB_GetUser:0000000000000000 $t
     /tmp/ccuOvNEu.s:138    .text.FLASH_OB_GetUser:0000000000000000 FLASH_OB_GetUser
     /tmp/ccuOvNEu.s:155    .text.FLASH_OB_GetUser:000000000000000c $d
     /tmp/ccuOvNEu.s:160    .text.FLASH_OB_GetWRP:0000000000000000 $t
     /tmp/ccuOvNEu.s:166    .text.FLASH_OB_GetWRP:0000000000000000 FLASH_OB_GetWRP
     /tmp/ccuOvNEu.s:183    .text.FLASH_OB_GetWRP:0000000000000008 $d
     /tmp/ccuOvNEu.s:188    .text.FLASH_OB_GetRDP:0000000000000000 $t
     /tmp/ccuOvNEu.s:194    .text.FLASH_OB_GetRDP:0000000000000000 FLASH_OB_GetRDP
     /tmp/ccuOvNEu.s:228    .text.FLASH_OB_GetRDP:0000000000000018 $d
     /tmp/ccuOvNEu.s:233    .text.FLASH_OB_GetBOR:0000000000000000 $t
     /tmp/ccuOvNEu.s:239    .text.FLASH_OB_GetBOR:0000000000000000 FLASH_OB_GetBOR
     /tmp/ccuOvNEu.s:256    .text.FLASH_OB_GetBOR:000000000000000c $d
     /tmp/ccuOvNEu.s:261    .text.FLASH_OB_EnableWRP:0000000000000000 $t
     /tmp/ccuOvNEu.s:267    .text.FLASH_OB_EnableWRP:0000000000000000 FLASH_OB_EnableWRP
     /tmp/ccuOvNEu.s:384    .text.FLASH_OB_EnableWRP:000000000000007c $d
     /tmp/ccuOvNEu.s:390    .text.FLASH_OB_DisableWRP:0000000000000000 $t
     /tmp/ccuOvNEu.s:396    .text.FLASH_OB_DisableWRP:0000000000000000 FLASH_OB_DisableWRP
     /tmp/ccuOvNEu.s:524    .text.FLASH_OB_DisableWRP:0000000000000080 $d
     /tmp/ccuOvNEu.s:530    .text.FLASH_OB_RDP_LevelConfig:0000000000000000 $t
     /tmp/ccuOvNEu.s:536    .text.FLASH_OB_RDP_LevelConfig:0000000000000000 FLASH_OB_RDP_LevelConfig
     /tmp/ccuOvNEu.s:574    .text.FLASH_OB_RDP_LevelConfig:0000000000000014 $d
     /tmp/ccuOvNEu.s:579    .text.FLASH_OB_UserConfig:0000000000000000 $t
     /tmp/ccuOvNEu.s:585    .text.FLASH_OB_UserConfig:0000000000000000 FLASH_OB_UserConfig
     /tmp/ccuOvNEu.s:644    .text.FLASH_OB_UserConfig:0000000000000028 $d
     /tmp/ccuOvNEu.s:649    .text.FLASH_OB_EnablePCROP:0000000000000000 $t
     /tmp/ccuOvNEu.s:655    .text.FLASH_OB_EnablePCROP:0000000000000000 FLASH_OB_EnablePCROP
     /tmp/ccuOvNEu.s:754    .text.FLASH_OB_EnablePCROP:0000000000000054 $d
     /tmp/ccuOvNEu.s:759    .text.FLASH_OB_DisablePCROP:0000000000000000 $t
     /tmp/ccuOvNEu.s:765    .text.FLASH_OB_DisablePCROP:0000000000000000 FLASH_OB_DisablePCROP
     /tmp/ccuOvNEu.s:856    .text.FLASH_OB_DisablePCROP:0000000000000054 $d
     /tmp/ccuOvNEu.s:861    .text.FLASH_OB_BootConfig:0000000000000000 $t
     /tmp/ccuOvNEu.s:867    .text.FLASH_OB_BootConfig:0000000000000000 FLASH_OB_BootConfig
     /tmp/ccuOvNEu.s:912    .text.FLASH_OB_BootConfig:0000000000000020 $d
     /tmp/ccuOvNEu.s:917    .text.HAL_FLASHEx_OBProgram:0000000000000000 $t
     /tmp/ccuOvNEu.s:924    .text.HAL_FLASHEx_OBProgram:0000000000000000 HAL_FLASHEx_OBProgram
     /tmp/ccuOvNEu.s:1070   .text.HAL_FLASHEx_OBProgram:0000000000000080 $d
     /tmp/ccuOvNEu.s:1075   .text.HAL_FLASHEx_OBGetConfig:0000000000000000 $t
     /tmp/ccuOvNEu.s:1082   .text.HAL_FLASHEx_OBGetConfig:0000000000000000 HAL_FLASHEx_OBGetConfig
     /tmp/ccuOvNEu.s:1131   .text.HAL_FLASHEx_AdvOBProgram:0000000000000000 $t
     /tmp/ccuOvNEu.s:1138   .text.HAL_FLASHEx_AdvOBProgram:0000000000000000 HAL_FLASHEx_AdvOBProgram
     /tmp/ccuOvNEu.s:1223   .text.HAL_FLASHEx_AdvOBGetConfig:0000000000000000 $t
     /tmp/ccuOvNEu.s:1230   .text.HAL_FLASHEx_AdvOBGetConfig:0000000000000000 HAL_FLASHEx_AdvOBGetConfig
     /tmp/ccuOvNEu.s:1259   .text.HAL_FLASHEx_AdvOBGetConfig:0000000000000010 $d
     /tmp/ccuOvNEu.s:1264   .text.HAL_FLASHEx_OB_SelectPCROP:0000000000000000 $t
     /tmp/ccuOvNEu.s:1271   .text.HAL_FLASHEx_OB_SelectPCROP:0000000000000000 HAL_FLASHEx_OB_SelectPCROP
     /tmp/ccuOvNEu.s:1298   .text.HAL_FLASHEx_OB_SelectPCROP:0000000000000010 $d
     /tmp/ccuOvNEu.s:1303   .text.HAL_FLASHEx_OB_DeSelectPCROP:0000000000000000 $t
     /tmp/ccuOvNEu.s:1310   .text.HAL_FLASHEx_OB_DeSelectPCROP:0000000000000000 HAL_FLASHEx_OB_DeSelectPCROP
     /tmp/ccuOvNEu.s:1336   .text.HAL_FLASHEx_OB_DeSelectPCROP:0000000000000010 $d
ARM GAS  /tmp/ccuOvNEu.s 			page 65


     /tmp/ccuOvNEu.s:1341   .text.HAL_FLASHEx_OB_GetBank2WRP:0000000000000000 $t
     /tmp/ccuOvNEu.s:1348   .text.HAL_FLASHEx_OB_GetBank2WRP:0000000000000000 HAL_FLASHEx_OB_GetBank2WRP
     /tmp/ccuOvNEu.s:1365   .text.HAL_FLASHEx_OB_GetBank2WRP:0000000000000008 $d
     /tmp/ccuOvNEu.s:1370   .text.FLASH_Erase_Sector:0000000000000000 $t
     /tmp/ccuOvNEu.s:1377   .text.FLASH_Erase_Sector:0000000000000000 FLASH_Erase_Sector
     /tmp/ccuOvNEu.s:1459   .text.FLASH_Erase_Sector:0000000000000058 $d
     /tmp/ccuOvNEu.s:1464   .text.HAL_FLASHEx_Erase_IT:0000000000000000 $t
     /tmp/ccuOvNEu.s:1471   .text.HAL_FLASHEx_Erase_IT:0000000000000000 HAL_FLASHEx_Erase_IT
     /tmp/ccuOvNEu.s:1580   .text.HAL_FLASHEx_Erase_IT:0000000000000064 $d
     /tmp/ccuOvNEu.s:1586   .text.FLASH_FlushCaches:0000000000000000 $t
     /tmp/ccuOvNEu.s:1593   .text.FLASH_FlushCaches:0000000000000000 FLASH_FlushCaches
     /tmp/ccuOvNEu.s:1659   .text.FLASH_FlushCaches:000000000000005c $d
     /tmp/ccuOvNEu.s:1664   .text.HAL_FLASHEx_Erase:0000000000000000 $t
     /tmp/ccuOvNEu.s:1671   .text.HAL_FLASHEx_Erase:0000000000000000 HAL_FLASHEx_Erase
     /tmp/ccuOvNEu.s:1823   .text.HAL_FLASHEx_Erase:0000000000000090 $d

UNDEFINED SYMBOLS
FLASH_WaitForLastOperation
pFlash
