ARM GAS  /tmp/ccLT17et.s 			page 1


   1              		.cpu cortex-m4
   2              		.eabi_attribute 27, 1
   3              		.eabi_attribute 28, 1
   4              		.eabi_attribute 20, 1
   5              		.eabi_attribute 21, 1
   6              		.eabi_attribute 23, 3
   7              		.eabi_attribute 24, 1
   8              		.eabi_attribute 25, 1
   9              		.eabi_attribute 26, 1
  10              		.eabi_attribute 30, 1
  11              		.eabi_attribute 34, 1
  12              		.eabi_attribute 18, 4
  13              		.file	"stm32f4xx_hal_rcc.c"
  14              		.text
  15              	.Ltext0:
  16              		.cfi_sections	.debug_frame
  17              		.section	.text.HAL_RCC_DeInit,"ax",%progbits
  18              		.align	1
  19              		.weak	HAL_RCC_DeInit
  20              		.arch armv7e-m
  21              		.syntax unified
  22              		.thumb
  23              		.thumb_func
  24              		.fpu fpv4-sp-d16
  26              	HAL_RCC_DeInit:
  27              	.LFB126:
  28              		.file 1 "./Libraries/STM32F4xx_HAL_Driver/Src/stm32f4xx_hal_rcc.c"
   1:./Libraries/STM32F4xx_HAL_Driver/Src/stm32f4xx_hal_rcc.c **** /**
   2:./Libraries/STM32F4xx_HAL_Driver/Src/stm32f4xx_hal_rcc.c ****   ******************************************************************************
   3:./Libraries/STM32F4xx_HAL_Driver/Src/stm32f4xx_hal_rcc.c ****   * @file    stm32f4xx_hal_rcc.c
   4:./Libraries/STM32F4xx_HAL_Driver/Src/stm32f4xx_hal_rcc.c ****   * @author  MCD Application Team
   5:./Libraries/STM32F4xx_HAL_Driver/Src/stm32f4xx_hal_rcc.c ****   * @brief   RCC HAL module driver.
   6:./Libraries/STM32F4xx_HAL_Driver/Src/stm32f4xx_hal_rcc.c ****   *          This file provides firmware functions to manage the following
   7:./Libraries/STM32F4xx_HAL_Driver/Src/stm32f4xx_hal_rcc.c ****   *          functionalities of the Reset and Clock Control (RCC) peripheral:
   8:./Libraries/STM32F4xx_HAL_Driver/Src/stm32f4xx_hal_rcc.c ****   *           + Initialization and de-initialization functions
   9:./Libraries/STM32F4xx_HAL_Driver/Src/stm32f4xx_hal_rcc.c ****   *           + Peripheral Control functions
  10:./Libraries/STM32F4xx_HAL_Driver/Src/stm32f4xx_hal_rcc.c ****   *
  11:./Libraries/STM32F4xx_HAL_Driver/Src/stm32f4xx_hal_rcc.c ****   @verbatim
  12:./Libraries/STM32F4xx_HAL_Driver/Src/stm32f4xx_hal_rcc.c ****   ==============================================================================
  13:./Libraries/STM32F4xx_HAL_Driver/Src/stm32f4xx_hal_rcc.c ****                       ##### RCC specific features #####
  14:./Libraries/STM32F4xx_HAL_Driver/Src/stm32f4xx_hal_rcc.c ****   ==============================================================================
  15:./Libraries/STM32F4xx_HAL_Driver/Src/stm32f4xx_hal_rcc.c ****     [..]
  16:./Libraries/STM32F4xx_HAL_Driver/Src/stm32f4xx_hal_rcc.c ****       After reset the device is running from Internal High Speed oscillator
  17:./Libraries/STM32F4xx_HAL_Driver/Src/stm32f4xx_hal_rcc.c ****       (HSI 16MHz) with Flash 0 wait state, Flash prefetch buffer, D-Cache
  18:./Libraries/STM32F4xx_HAL_Driver/Src/stm32f4xx_hal_rcc.c ****       and I-Cache are disabled, and all peripherals are off except internal
  19:./Libraries/STM32F4xx_HAL_Driver/Src/stm32f4xx_hal_rcc.c ****       SRAM, Flash and JTAG.
  20:./Libraries/STM32F4xx_HAL_Driver/Src/stm32f4xx_hal_rcc.c ****       (+) There is no prescaler on High speed (AHB) and Low speed (APB) busses;
  21:./Libraries/STM32F4xx_HAL_Driver/Src/stm32f4xx_hal_rcc.c ****           all peripherals mapped on these busses are running at HSI speed.
  22:./Libraries/STM32F4xx_HAL_Driver/Src/stm32f4xx_hal_rcc.c ****       (+) The clock for all peripherals is switched off, except the SRAM and FLASH.
  23:./Libraries/STM32F4xx_HAL_Driver/Src/stm32f4xx_hal_rcc.c ****       (+) All GPIOs are in input floating state, except the JTAG pins which
  24:./Libraries/STM32F4xx_HAL_Driver/Src/stm32f4xx_hal_rcc.c ****           are assigned to be used for debug purpose.
  25:./Libraries/STM32F4xx_HAL_Driver/Src/stm32f4xx_hal_rcc.c **** 
  26:./Libraries/STM32F4xx_HAL_Driver/Src/stm32f4xx_hal_rcc.c ****     [..]
  27:./Libraries/STM32F4xx_HAL_Driver/Src/stm32f4xx_hal_rcc.c ****       Once the device started from reset, the user application has to:
  28:./Libraries/STM32F4xx_HAL_Driver/Src/stm32f4xx_hal_rcc.c ****       (+) Configure the clock source to be used to drive the System clock
  29:./Libraries/STM32F4xx_HAL_Driver/Src/stm32f4xx_hal_rcc.c ****           (if the application needs higher frequency/performance)
  30:./Libraries/STM32F4xx_HAL_Driver/Src/stm32f4xx_hal_rcc.c ****       (+) Configure the System clock frequency and Flash settings
ARM GAS  /tmp/ccLT17et.s 			page 2


  31:./Libraries/STM32F4xx_HAL_Driver/Src/stm32f4xx_hal_rcc.c ****       (+) Configure the AHB and APB busses prescalers
  32:./Libraries/STM32F4xx_HAL_Driver/Src/stm32f4xx_hal_rcc.c ****       (+) Enable the clock for the peripheral(s) to be used
  33:./Libraries/STM32F4xx_HAL_Driver/Src/stm32f4xx_hal_rcc.c ****       (+) Configure the clock source(s) for peripherals which clocks are not
  34:./Libraries/STM32F4xx_HAL_Driver/Src/stm32f4xx_hal_rcc.c ****           derived from the System clock (I2S, RTC, ADC, USB OTG FS/SDIO/RNG)
  35:./Libraries/STM32F4xx_HAL_Driver/Src/stm32f4xx_hal_rcc.c **** 
  36:./Libraries/STM32F4xx_HAL_Driver/Src/stm32f4xx_hal_rcc.c ****                       ##### RCC Limitations #####
  37:./Libraries/STM32F4xx_HAL_Driver/Src/stm32f4xx_hal_rcc.c ****   ==============================================================================
  38:./Libraries/STM32F4xx_HAL_Driver/Src/stm32f4xx_hal_rcc.c ****     [..]
  39:./Libraries/STM32F4xx_HAL_Driver/Src/stm32f4xx_hal_rcc.c ****       A delay between an RCC peripheral clock enable and the effective peripheral
  40:./Libraries/STM32F4xx_HAL_Driver/Src/stm32f4xx_hal_rcc.c ****       enabling should be taken into account in order to manage the peripheral read/write
  41:./Libraries/STM32F4xx_HAL_Driver/Src/stm32f4xx_hal_rcc.c ****       from/to registers.
  42:./Libraries/STM32F4xx_HAL_Driver/Src/stm32f4xx_hal_rcc.c ****       (+) This delay depends on the peripheral mapping.
  43:./Libraries/STM32F4xx_HAL_Driver/Src/stm32f4xx_hal_rcc.c ****       (+) If peripheral is mapped on AHB: the delay is 2 AHB clock cycle
  44:./Libraries/STM32F4xx_HAL_Driver/Src/stm32f4xx_hal_rcc.c ****           after the clock enable bit is set on the hardware register
  45:./Libraries/STM32F4xx_HAL_Driver/Src/stm32f4xx_hal_rcc.c ****       (+) If peripheral is mapped on APB: the delay is 2 APB clock cycle
  46:./Libraries/STM32F4xx_HAL_Driver/Src/stm32f4xx_hal_rcc.c ****           after the clock enable bit is set on the hardware register
  47:./Libraries/STM32F4xx_HAL_Driver/Src/stm32f4xx_hal_rcc.c **** 
  48:./Libraries/STM32F4xx_HAL_Driver/Src/stm32f4xx_hal_rcc.c ****     [..]
  49:./Libraries/STM32F4xx_HAL_Driver/Src/stm32f4xx_hal_rcc.c ****       Implemented Workaround:
  50:./Libraries/STM32F4xx_HAL_Driver/Src/stm32f4xx_hal_rcc.c ****       (+) For AHB & APB peripherals, a dummy read to the peripheral register has been
  51:./Libraries/STM32F4xx_HAL_Driver/Src/stm32f4xx_hal_rcc.c ****           inserted in each __HAL_RCC_PPP_CLK_ENABLE() macro.
  52:./Libraries/STM32F4xx_HAL_Driver/Src/stm32f4xx_hal_rcc.c **** 
  53:./Libraries/STM32F4xx_HAL_Driver/Src/stm32f4xx_hal_rcc.c ****   @endverbatim
  54:./Libraries/STM32F4xx_HAL_Driver/Src/stm32f4xx_hal_rcc.c ****   ******************************************************************************
  55:./Libraries/STM32F4xx_HAL_Driver/Src/stm32f4xx_hal_rcc.c ****   * @attention
  56:./Libraries/STM32F4xx_HAL_Driver/Src/stm32f4xx_hal_rcc.c ****   *
  57:./Libraries/STM32F4xx_HAL_Driver/Src/stm32f4xx_hal_rcc.c ****   * <h2><center>&copy; COPYRIGHT(c) 2017 STMicroelectronics</center></h2>
  58:./Libraries/STM32F4xx_HAL_Driver/Src/stm32f4xx_hal_rcc.c ****   *
  59:./Libraries/STM32F4xx_HAL_Driver/Src/stm32f4xx_hal_rcc.c ****   * Redistribution and use in source and binary forms, with or without modification,
  60:./Libraries/STM32F4xx_HAL_Driver/Src/stm32f4xx_hal_rcc.c ****   * are permitted provided that the following conditions are met:
  61:./Libraries/STM32F4xx_HAL_Driver/Src/stm32f4xx_hal_rcc.c ****   *   1. Redistributions of source code must retain the above copyright notice,
  62:./Libraries/STM32F4xx_HAL_Driver/Src/stm32f4xx_hal_rcc.c ****   *      this list of conditions and the following disclaimer.
  63:./Libraries/STM32F4xx_HAL_Driver/Src/stm32f4xx_hal_rcc.c ****   *   2. Redistributions in binary form must reproduce the above copyright notice,
  64:./Libraries/STM32F4xx_HAL_Driver/Src/stm32f4xx_hal_rcc.c ****   *      this list of conditions and the following disclaimer in the documentation
  65:./Libraries/STM32F4xx_HAL_Driver/Src/stm32f4xx_hal_rcc.c ****   *      and/or other materials provided with the distribution.
  66:./Libraries/STM32F4xx_HAL_Driver/Src/stm32f4xx_hal_rcc.c ****   *   3. Neither the name of STMicroelectronics nor the names of its contributors
  67:./Libraries/STM32F4xx_HAL_Driver/Src/stm32f4xx_hal_rcc.c ****   *      may be used to endorse or promote products derived from this software
  68:./Libraries/STM32F4xx_HAL_Driver/Src/stm32f4xx_hal_rcc.c ****   *      without specific prior written permission.
  69:./Libraries/STM32F4xx_HAL_Driver/Src/stm32f4xx_hal_rcc.c ****   *
  70:./Libraries/STM32F4xx_HAL_Driver/Src/stm32f4xx_hal_rcc.c ****   * THIS SOFTWARE IS PROVIDED BY THE COPYRIGHT HOLDERS AND CONTRIBUTORS "AS IS"
  71:./Libraries/STM32F4xx_HAL_Driver/Src/stm32f4xx_hal_rcc.c ****   * AND ANY EXPRESS OR IMPLIED WARRANTIES, INCLUDING, BUT NOT LIMITED TO, THE
  72:./Libraries/STM32F4xx_HAL_Driver/Src/stm32f4xx_hal_rcc.c ****   * IMPLIED WARRANTIES OF MERCHANTABILITY AND FITNESS FOR A PARTICULAR PURPOSE ARE
  73:./Libraries/STM32F4xx_HAL_Driver/Src/stm32f4xx_hal_rcc.c ****   * DISCLAIMED. IN NO EVENT SHALL THE COPYRIGHT HOLDER OR CONTRIBUTORS BE LIABLE
  74:./Libraries/STM32F4xx_HAL_Driver/Src/stm32f4xx_hal_rcc.c ****   * FOR ANY DIRECT, INDIRECT, INCIDENTAL, SPECIAL, EXEMPLARY, OR CONSEQUENTIAL
  75:./Libraries/STM32F4xx_HAL_Driver/Src/stm32f4xx_hal_rcc.c ****   * DAMAGES (INCLUDING, BUT NOT LIMITED TO, PROCUREMENT OF SUBSTITUTE GOODS OR
  76:./Libraries/STM32F4xx_HAL_Driver/Src/stm32f4xx_hal_rcc.c ****   * SERVICES; LOSS OF USE, DATA, OR PROFITS; OR BUSINESS INTERRUPTION) HOWEVER
  77:./Libraries/STM32F4xx_HAL_Driver/Src/stm32f4xx_hal_rcc.c ****   * CAUSED AND ON ANY THEORY OF LIABILITY, WHETHER IN CONTRACT, STRICT LIABILITY,
  78:./Libraries/STM32F4xx_HAL_Driver/Src/stm32f4xx_hal_rcc.c ****   * OR TORT (INCLUDING NEGLIGENCE OR OTHERWISE) ARISING IN ANY WAY OUT OF THE USE
  79:./Libraries/STM32F4xx_HAL_Driver/Src/stm32f4xx_hal_rcc.c ****   * OF THIS SOFTWARE, EVEN IF ADVISED OF THE POSSIBILITY OF SUCH DAMAGE.
  80:./Libraries/STM32F4xx_HAL_Driver/Src/stm32f4xx_hal_rcc.c ****   *
  81:./Libraries/STM32F4xx_HAL_Driver/Src/stm32f4xx_hal_rcc.c ****   ******************************************************************************
  82:./Libraries/STM32F4xx_HAL_Driver/Src/stm32f4xx_hal_rcc.c ****   */
  83:./Libraries/STM32F4xx_HAL_Driver/Src/stm32f4xx_hal_rcc.c **** 
  84:./Libraries/STM32F4xx_HAL_Driver/Src/stm32f4xx_hal_rcc.c **** /* Includes ------------------------------------------------------------------*/
  85:./Libraries/STM32F4xx_HAL_Driver/Src/stm32f4xx_hal_rcc.c **** #include "stm32f4xx_hal.h"
  86:./Libraries/STM32F4xx_HAL_Driver/Src/stm32f4xx_hal_rcc.c **** 
  87:./Libraries/STM32F4xx_HAL_Driver/Src/stm32f4xx_hal_rcc.c **** /** @addtogroup STM32F4xx_HAL_Driver
ARM GAS  /tmp/ccLT17et.s 			page 3


  88:./Libraries/STM32F4xx_HAL_Driver/Src/stm32f4xx_hal_rcc.c ****   * @{
  89:./Libraries/STM32F4xx_HAL_Driver/Src/stm32f4xx_hal_rcc.c ****   */
  90:./Libraries/STM32F4xx_HAL_Driver/Src/stm32f4xx_hal_rcc.c **** 
  91:./Libraries/STM32F4xx_HAL_Driver/Src/stm32f4xx_hal_rcc.c **** /** @defgroup RCC RCC
  92:./Libraries/STM32F4xx_HAL_Driver/Src/stm32f4xx_hal_rcc.c ****   * @brief RCC HAL module driver
  93:./Libraries/STM32F4xx_HAL_Driver/Src/stm32f4xx_hal_rcc.c ****   * @{
  94:./Libraries/STM32F4xx_HAL_Driver/Src/stm32f4xx_hal_rcc.c ****   */
  95:./Libraries/STM32F4xx_HAL_Driver/Src/stm32f4xx_hal_rcc.c **** 
  96:./Libraries/STM32F4xx_HAL_Driver/Src/stm32f4xx_hal_rcc.c **** #ifdef HAL_RCC_MODULE_ENABLED
  97:./Libraries/STM32F4xx_HAL_Driver/Src/stm32f4xx_hal_rcc.c **** 
  98:./Libraries/STM32F4xx_HAL_Driver/Src/stm32f4xx_hal_rcc.c **** /* Private typedef -----------------------------------------------------------*/
  99:./Libraries/STM32F4xx_HAL_Driver/Src/stm32f4xx_hal_rcc.c **** /* Private define ------------------------------------------------------------*/
 100:./Libraries/STM32F4xx_HAL_Driver/Src/stm32f4xx_hal_rcc.c **** /** @addtogroup RCC_Private_Constants
 101:./Libraries/STM32F4xx_HAL_Driver/Src/stm32f4xx_hal_rcc.c ****   * @{
 102:./Libraries/STM32F4xx_HAL_Driver/Src/stm32f4xx_hal_rcc.c ****   */
 103:./Libraries/STM32F4xx_HAL_Driver/Src/stm32f4xx_hal_rcc.c **** 
 104:./Libraries/STM32F4xx_HAL_Driver/Src/stm32f4xx_hal_rcc.c **** /* Private macro -------------------------------------------------------------*/
 105:./Libraries/STM32F4xx_HAL_Driver/Src/stm32f4xx_hal_rcc.c **** #define __MCO1_CLK_ENABLE()   __HAL_RCC_GPIOA_CLK_ENABLE()
 106:./Libraries/STM32F4xx_HAL_Driver/Src/stm32f4xx_hal_rcc.c **** #define MCO1_GPIO_PORT        GPIOA
 107:./Libraries/STM32F4xx_HAL_Driver/Src/stm32f4xx_hal_rcc.c **** #define MCO1_PIN              GPIO_PIN_8
 108:./Libraries/STM32F4xx_HAL_Driver/Src/stm32f4xx_hal_rcc.c **** 
 109:./Libraries/STM32F4xx_HAL_Driver/Src/stm32f4xx_hal_rcc.c **** #define __MCO2_CLK_ENABLE()   __HAL_RCC_GPIOC_CLK_ENABLE()
 110:./Libraries/STM32F4xx_HAL_Driver/Src/stm32f4xx_hal_rcc.c **** #define MCO2_GPIO_PORT         GPIOC
 111:./Libraries/STM32F4xx_HAL_Driver/Src/stm32f4xx_hal_rcc.c **** #define MCO2_PIN               GPIO_PIN_9
 112:./Libraries/STM32F4xx_HAL_Driver/Src/stm32f4xx_hal_rcc.c **** /**
 113:./Libraries/STM32F4xx_HAL_Driver/Src/stm32f4xx_hal_rcc.c ****   * @}
 114:./Libraries/STM32F4xx_HAL_Driver/Src/stm32f4xx_hal_rcc.c ****   */
 115:./Libraries/STM32F4xx_HAL_Driver/Src/stm32f4xx_hal_rcc.c **** 
 116:./Libraries/STM32F4xx_HAL_Driver/Src/stm32f4xx_hal_rcc.c **** /* Private variables ---------------------------------------------------------*/
 117:./Libraries/STM32F4xx_HAL_Driver/Src/stm32f4xx_hal_rcc.c **** /** @defgroup RCC_Private_Variables RCC Private Variables
 118:./Libraries/STM32F4xx_HAL_Driver/Src/stm32f4xx_hal_rcc.c ****   * @{
 119:./Libraries/STM32F4xx_HAL_Driver/Src/stm32f4xx_hal_rcc.c ****   */
 120:./Libraries/STM32F4xx_HAL_Driver/Src/stm32f4xx_hal_rcc.c **** /**
 121:./Libraries/STM32F4xx_HAL_Driver/Src/stm32f4xx_hal_rcc.c ****   * @}
 122:./Libraries/STM32F4xx_HAL_Driver/Src/stm32f4xx_hal_rcc.c ****   */
 123:./Libraries/STM32F4xx_HAL_Driver/Src/stm32f4xx_hal_rcc.c **** /* Private function prototypes -----------------------------------------------*/
 124:./Libraries/STM32F4xx_HAL_Driver/Src/stm32f4xx_hal_rcc.c **** /* Private functions ---------------------------------------------------------*/
 125:./Libraries/STM32F4xx_HAL_Driver/Src/stm32f4xx_hal_rcc.c **** 
 126:./Libraries/STM32F4xx_HAL_Driver/Src/stm32f4xx_hal_rcc.c **** /** @defgroup RCC_Exported_Functions RCC Exported Functions
 127:./Libraries/STM32F4xx_HAL_Driver/Src/stm32f4xx_hal_rcc.c ****   *  @{
 128:./Libraries/STM32F4xx_HAL_Driver/Src/stm32f4xx_hal_rcc.c ****   */
 129:./Libraries/STM32F4xx_HAL_Driver/Src/stm32f4xx_hal_rcc.c **** 
 130:./Libraries/STM32F4xx_HAL_Driver/Src/stm32f4xx_hal_rcc.c **** /** @defgroup RCC_Exported_Functions_Group1 Initialization and de-initialization functions
 131:./Libraries/STM32F4xx_HAL_Driver/Src/stm32f4xx_hal_rcc.c ****  *  @brief    Initialization and Configuration functions
 132:./Libraries/STM32F4xx_HAL_Driver/Src/stm32f4xx_hal_rcc.c ****  *
 133:./Libraries/STM32F4xx_HAL_Driver/Src/stm32f4xx_hal_rcc.c **** @verbatim
 134:./Libraries/STM32F4xx_HAL_Driver/Src/stm32f4xx_hal_rcc.c ****  ===============================================================================
 135:./Libraries/STM32F4xx_HAL_Driver/Src/stm32f4xx_hal_rcc.c ****            ##### Initialization and de-initialization functions #####
 136:./Libraries/STM32F4xx_HAL_Driver/Src/stm32f4xx_hal_rcc.c ****  ===============================================================================
 137:./Libraries/STM32F4xx_HAL_Driver/Src/stm32f4xx_hal_rcc.c ****     [..]
 138:./Libraries/STM32F4xx_HAL_Driver/Src/stm32f4xx_hal_rcc.c ****       This section provides functions allowing to configure the internal/external oscillators
 139:./Libraries/STM32F4xx_HAL_Driver/Src/stm32f4xx_hal_rcc.c ****       (HSE, HSI, LSE, LSI, PLL, CSS and MCO) and the System busses clocks (SYSCLK, AHB, APB1
 140:./Libraries/STM32F4xx_HAL_Driver/Src/stm32f4xx_hal_rcc.c ****        and APB2).
 141:./Libraries/STM32F4xx_HAL_Driver/Src/stm32f4xx_hal_rcc.c **** 
 142:./Libraries/STM32F4xx_HAL_Driver/Src/stm32f4xx_hal_rcc.c ****     [..] Internal/external clock and PLL configuration
 143:./Libraries/STM32F4xx_HAL_Driver/Src/stm32f4xx_hal_rcc.c ****          (#) HSI (high-speed internal), 16 MHz factory-trimmed RC used directly or through
 144:./Libraries/STM32F4xx_HAL_Driver/Src/stm32f4xx_hal_rcc.c ****              the PLL as System clock source.
ARM GAS  /tmp/ccLT17et.s 			page 4


 145:./Libraries/STM32F4xx_HAL_Driver/Src/stm32f4xx_hal_rcc.c **** 
 146:./Libraries/STM32F4xx_HAL_Driver/Src/stm32f4xx_hal_rcc.c ****          (#) LSI (low-speed internal), 32 KHz low consumption RC used as IWDG and/or RTC
 147:./Libraries/STM32F4xx_HAL_Driver/Src/stm32f4xx_hal_rcc.c ****              clock source.
 148:./Libraries/STM32F4xx_HAL_Driver/Src/stm32f4xx_hal_rcc.c **** 
 149:./Libraries/STM32F4xx_HAL_Driver/Src/stm32f4xx_hal_rcc.c ****          (#) HSE (high-speed external), 4 to 26 MHz crystal oscillator used directly or
 150:./Libraries/STM32F4xx_HAL_Driver/Src/stm32f4xx_hal_rcc.c ****              through the PLL as System clock source. Can be used also as RTC clock source.
 151:./Libraries/STM32F4xx_HAL_Driver/Src/stm32f4xx_hal_rcc.c **** 
 152:./Libraries/STM32F4xx_HAL_Driver/Src/stm32f4xx_hal_rcc.c ****          (#) LSE (low-speed external), 32 KHz oscillator used as RTC clock source.
 153:./Libraries/STM32F4xx_HAL_Driver/Src/stm32f4xx_hal_rcc.c **** 
 154:./Libraries/STM32F4xx_HAL_Driver/Src/stm32f4xx_hal_rcc.c ****          (#) PLL (clocked by HSI or HSE), featuring two different output clocks:
 155:./Libraries/STM32F4xx_HAL_Driver/Src/stm32f4xx_hal_rcc.c ****            (++) The first output is used to generate the high speed system clock (up to 168 MHz)
 156:./Libraries/STM32F4xx_HAL_Driver/Src/stm32f4xx_hal_rcc.c ****            (++) The second output is used to generate the clock for the USB OTG FS (48 MHz),
 157:./Libraries/STM32F4xx_HAL_Driver/Src/stm32f4xx_hal_rcc.c ****                 the random analog generator (<=48 MHz) and the SDIO (<= 48 MHz).
 158:./Libraries/STM32F4xx_HAL_Driver/Src/stm32f4xx_hal_rcc.c **** 
 159:./Libraries/STM32F4xx_HAL_Driver/Src/stm32f4xx_hal_rcc.c ****          (#) CSS (Clock security system), once enable using the macro __HAL_RCC_CSS_ENABLE()
 160:./Libraries/STM32F4xx_HAL_Driver/Src/stm32f4xx_hal_rcc.c ****              and if a HSE clock failure occurs(HSE used directly or through PLL as System
 161:./Libraries/STM32F4xx_HAL_Driver/Src/stm32f4xx_hal_rcc.c ****              clock source), the System clocks automatically switched to HSI and an interrupt
 162:./Libraries/STM32F4xx_HAL_Driver/Src/stm32f4xx_hal_rcc.c ****              is generated if enabled. The interrupt is linked to the Cortex-M4 NMI
 163:./Libraries/STM32F4xx_HAL_Driver/Src/stm32f4xx_hal_rcc.c ****              (Non-Maskable Interrupt) exception vector.
 164:./Libraries/STM32F4xx_HAL_Driver/Src/stm32f4xx_hal_rcc.c **** 
 165:./Libraries/STM32F4xx_HAL_Driver/Src/stm32f4xx_hal_rcc.c ****          (#) MCO1 (microcontroller clock output), used to output HSI, LSE, HSE or PLL
 166:./Libraries/STM32F4xx_HAL_Driver/Src/stm32f4xx_hal_rcc.c ****              clock (through a configurable prescaler) on PA8 pin.
 167:./Libraries/STM32F4xx_HAL_Driver/Src/stm32f4xx_hal_rcc.c **** 
 168:./Libraries/STM32F4xx_HAL_Driver/Src/stm32f4xx_hal_rcc.c ****          (#) MCO2 (microcontroller clock output), used to output HSE, PLL, SYSCLK or PLLI2S
 169:./Libraries/STM32F4xx_HAL_Driver/Src/stm32f4xx_hal_rcc.c ****              clock (through a configurable prescaler) on PC9 pin.
 170:./Libraries/STM32F4xx_HAL_Driver/Src/stm32f4xx_hal_rcc.c **** 
 171:./Libraries/STM32F4xx_HAL_Driver/Src/stm32f4xx_hal_rcc.c ****     [..] System, AHB and APB busses clocks configuration
 172:./Libraries/STM32F4xx_HAL_Driver/Src/stm32f4xx_hal_rcc.c ****          (#) Several clock sources can be used to drive the System clock (SYSCLK): HSI,
 173:./Libraries/STM32F4xx_HAL_Driver/Src/stm32f4xx_hal_rcc.c ****              HSE and PLL.
 174:./Libraries/STM32F4xx_HAL_Driver/Src/stm32f4xx_hal_rcc.c ****              The AHB clock (HCLK) is derived from System clock through configurable
 175:./Libraries/STM32F4xx_HAL_Driver/Src/stm32f4xx_hal_rcc.c ****              prescaler and used to clock the CPU, memory and peripherals mapped
 176:./Libraries/STM32F4xx_HAL_Driver/Src/stm32f4xx_hal_rcc.c ****              on AHB bus (DMA, GPIO...). APB1 (PCLK1) and APB2 (PCLK2) clocks are derived
 177:./Libraries/STM32F4xx_HAL_Driver/Src/stm32f4xx_hal_rcc.c ****              from AHB clock through configurable prescalers and used to clock
 178:./Libraries/STM32F4xx_HAL_Driver/Src/stm32f4xx_hal_rcc.c ****              the peripherals mapped on these busses. You can use
 179:./Libraries/STM32F4xx_HAL_Driver/Src/stm32f4xx_hal_rcc.c ****              "HAL_RCC_GetSysClockFreq()" function to retrieve the frequencies of these clocks.
 180:./Libraries/STM32F4xx_HAL_Driver/Src/stm32f4xx_hal_rcc.c **** 
 181:./Libraries/STM32F4xx_HAL_Driver/Src/stm32f4xx_hal_rcc.c ****          (#) For the STM32F405xx/07xx and STM32F415xx/17xx devices, the maximum
 182:./Libraries/STM32F4xx_HAL_Driver/Src/stm32f4xx_hal_rcc.c ****              frequency of the SYSCLK and HCLK is 168 MHz, PCLK2 84 MHz and PCLK1 42 MHz.
 183:./Libraries/STM32F4xx_HAL_Driver/Src/stm32f4xx_hal_rcc.c ****              Depending on the device voltage range, the maximum frequency should
 184:./Libraries/STM32F4xx_HAL_Driver/Src/stm32f4xx_hal_rcc.c ****              be adapted accordingly (refer to the product datasheets for more details).
 185:./Libraries/STM32F4xx_HAL_Driver/Src/stm32f4xx_hal_rcc.c **** 
 186:./Libraries/STM32F4xx_HAL_Driver/Src/stm32f4xx_hal_rcc.c ****          (#) For the STM32F42xxx, STM32F43xxx, STM32F446xx, STM32F469xx and STM32F479xx devices,
 187:./Libraries/STM32F4xx_HAL_Driver/Src/stm32f4xx_hal_rcc.c ****              the maximum frequency of the SYSCLK and HCLK is 180 MHz, PCLK2 90 MHz and PCLK1 45 MHz
 188:./Libraries/STM32F4xx_HAL_Driver/Src/stm32f4xx_hal_rcc.c ****              Depending on the device voltage range, the maximum frequency should
 189:./Libraries/STM32F4xx_HAL_Driver/Src/stm32f4xx_hal_rcc.c ****              be adapted accordingly (refer to the product datasheets for more details).
 190:./Libraries/STM32F4xx_HAL_Driver/Src/stm32f4xx_hal_rcc.c **** 
 191:./Libraries/STM32F4xx_HAL_Driver/Src/stm32f4xx_hal_rcc.c ****          (#) For the STM32F401xx, the maximum frequency of the SYSCLK and HCLK is 84 MHz,
 192:./Libraries/STM32F4xx_HAL_Driver/Src/stm32f4xx_hal_rcc.c ****              PCLK2 84 MHz and PCLK1 42 MHz.
 193:./Libraries/STM32F4xx_HAL_Driver/Src/stm32f4xx_hal_rcc.c ****              Depending on the device voltage range, the maximum frequency should
 194:./Libraries/STM32F4xx_HAL_Driver/Src/stm32f4xx_hal_rcc.c ****              be adapted accordingly (refer to the product datasheets for more details).
 195:./Libraries/STM32F4xx_HAL_Driver/Src/stm32f4xx_hal_rcc.c **** 
 196:./Libraries/STM32F4xx_HAL_Driver/Src/stm32f4xx_hal_rcc.c ****          (#) For the STM32F41xxx, the maximum frequency of the SYSCLK and HCLK is 100 MHz,
 197:./Libraries/STM32F4xx_HAL_Driver/Src/stm32f4xx_hal_rcc.c ****              PCLK2 100 MHz and PCLK1 50 MHz.
 198:./Libraries/STM32F4xx_HAL_Driver/Src/stm32f4xx_hal_rcc.c ****              Depending on the device voltage range, the maximum frequency should
 199:./Libraries/STM32F4xx_HAL_Driver/Src/stm32f4xx_hal_rcc.c ****              be adapted accordingly (refer to the product datasheets for more details).
 200:./Libraries/STM32F4xx_HAL_Driver/Src/stm32f4xx_hal_rcc.c **** 
 201:./Libraries/STM32F4xx_HAL_Driver/Src/stm32f4xx_hal_rcc.c **** @endverbatim
ARM GAS  /tmp/ccLT17et.s 			page 5


 202:./Libraries/STM32F4xx_HAL_Driver/Src/stm32f4xx_hal_rcc.c ****   * @{
 203:./Libraries/STM32F4xx_HAL_Driver/Src/stm32f4xx_hal_rcc.c ****   */
 204:./Libraries/STM32F4xx_HAL_Driver/Src/stm32f4xx_hal_rcc.c **** 
 205:./Libraries/STM32F4xx_HAL_Driver/Src/stm32f4xx_hal_rcc.c **** /**
 206:./Libraries/STM32F4xx_HAL_Driver/Src/stm32f4xx_hal_rcc.c ****   * @brief  Resets the RCC clock configuration to the default reset state.
 207:./Libraries/STM32F4xx_HAL_Driver/Src/stm32f4xx_hal_rcc.c ****   * @note   The default reset state of the clock configuration is given below:
 208:./Libraries/STM32F4xx_HAL_Driver/Src/stm32f4xx_hal_rcc.c ****   *            - HSI ON and used as system clock source
 209:./Libraries/STM32F4xx_HAL_Driver/Src/stm32f4xx_hal_rcc.c ****   *            - HSE and PLL OFF
 210:./Libraries/STM32F4xx_HAL_Driver/Src/stm32f4xx_hal_rcc.c ****   *            - AHB, APB1 and APB2 prescaler set to 1.
 211:./Libraries/STM32F4xx_HAL_Driver/Src/stm32f4xx_hal_rcc.c ****   *            - CSS, MCO1 and MCO2 OFF
 212:./Libraries/STM32F4xx_HAL_Driver/Src/stm32f4xx_hal_rcc.c ****   *            - All interrupts disabled
 213:./Libraries/STM32F4xx_HAL_Driver/Src/stm32f4xx_hal_rcc.c ****   * @note   This function doesn't modify the configuration of the
 214:./Libraries/STM32F4xx_HAL_Driver/Src/stm32f4xx_hal_rcc.c ****   *            - Peripheral clocks
 215:./Libraries/STM32F4xx_HAL_Driver/Src/stm32f4xx_hal_rcc.c ****   *            - LSI, LSE and RTC clocks
 216:./Libraries/STM32F4xx_HAL_Driver/Src/stm32f4xx_hal_rcc.c ****   * @retval HAL status
 217:./Libraries/STM32F4xx_HAL_Driver/Src/stm32f4xx_hal_rcc.c ****   */
 218:./Libraries/STM32F4xx_HAL_Driver/Src/stm32f4xx_hal_rcc.c **** __weak HAL_StatusTypeDef HAL_RCC_DeInit(void)
 219:./Libraries/STM32F4xx_HAL_Driver/Src/stm32f4xx_hal_rcc.c **** {
  29              		.loc 1 219 1 view -0
  30              		.cfi_startproc
  31              		@ args = 0, pretend = 0, frame = 0
  32              		@ frame_needed = 0, uses_anonymous_args = 0
  33              		@ link register save eliminated.
 220:./Libraries/STM32F4xx_HAL_Driver/Src/stm32f4xx_hal_rcc.c ****   return HAL_OK;
  34              		.loc 1 220 3 view .LVU1
 221:./Libraries/STM32F4xx_HAL_Driver/Src/stm32f4xx_hal_rcc.c **** }
  35              		.loc 1 221 1 is_stmt 0 view .LVU2
  36 0000 0020     		movs	r0, #0
  37 0002 7047     		bx	lr
  38              		.cfi_endproc
  39              	.LFE126:
  41              		.section	.text.HAL_RCC_OscConfig,"ax",%progbits
  42              		.align	1
  43              		.weak	HAL_RCC_OscConfig
  44              		.syntax unified
  45              		.thumb
  46              		.thumb_func
  47              		.fpu fpv4-sp-d16
  49              	HAL_RCC_OscConfig:
  50              	.LVL0:
  51              	.LFB127:
 222:./Libraries/STM32F4xx_HAL_Driver/Src/stm32f4xx_hal_rcc.c **** 
 223:./Libraries/STM32F4xx_HAL_Driver/Src/stm32f4xx_hal_rcc.c **** /**
 224:./Libraries/STM32F4xx_HAL_Driver/Src/stm32f4xx_hal_rcc.c ****   * @brief  Initializes the RCC Oscillators according to the specified parameters in the
 225:./Libraries/STM32F4xx_HAL_Driver/Src/stm32f4xx_hal_rcc.c ****   *         RCC_OscInitTypeDef.
 226:./Libraries/STM32F4xx_HAL_Driver/Src/stm32f4xx_hal_rcc.c ****   * @param  RCC_OscInitStruct pointer to an RCC_OscInitTypeDef structure that
 227:./Libraries/STM32F4xx_HAL_Driver/Src/stm32f4xx_hal_rcc.c ****   *         contains the configuration information for the RCC Oscillators.
 228:./Libraries/STM32F4xx_HAL_Driver/Src/stm32f4xx_hal_rcc.c ****   * @note   The PLL is not disabled when used as system clock.
 229:./Libraries/STM32F4xx_HAL_Driver/Src/stm32f4xx_hal_rcc.c ****   * @note   Transitions LSE Bypass to LSE On and LSE On to LSE Bypass are not
 230:./Libraries/STM32F4xx_HAL_Driver/Src/stm32f4xx_hal_rcc.c ****   *         supported by this API. User should request a transition to LSE Off
 231:./Libraries/STM32F4xx_HAL_Driver/Src/stm32f4xx_hal_rcc.c ****   *         first and then LSE On or LSE Bypass.
 232:./Libraries/STM32F4xx_HAL_Driver/Src/stm32f4xx_hal_rcc.c ****   * @note   Transition HSE Bypass to HSE On and HSE On to HSE Bypass are not
 233:./Libraries/STM32F4xx_HAL_Driver/Src/stm32f4xx_hal_rcc.c ****   *         supported by this API. User should request a transition to HSE Off
 234:./Libraries/STM32F4xx_HAL_Driver/Src/stm32f4xx_hal_rcc.c ****   *         first and then HSE On or HSE Bypass.
 235:./Libraries/STM32F4xx_HAL_Driver/Src/stm32f4xx_hal_rcc.c ****   * @retval HAL status
 236:./Libraries/STM32F4xx_HAL_Driver/Src/stm32f4xx_hal_rcc.c ****   */
 237:./Libraries/STM32F4xx_HAL_Driver/Src/stm32f4xx_hal_rcc.c **** __weak HAL_StatusTypeDef HAL_RCC_OscConfig(RCC_OscInitTypeDef  *RCC_OscInitStruct)
ARM GAS  /tmp/ccLT17et.s 			page 6


 238:./Libraries/STM32F4xx_HAL_Driver/Src/stm32f4xx_hal_rcc.c **** {
  52              		.loc 1 238 1 is_stmt 1 view -0
  53              		.cfi_startproc
  54              		@ args = 0, pretend = 0, frame = 8
  55              		@ frame_needed = 0, uses_anonymous_args = 0
 239:./Libraries/STM32F4xx_HAL_Driver/Src/stm32f4xx_hal_rcc.c ****   uint32_t tickstart;
  56              		.loc 1 239 3 view .LVU4
 240:./Libraries/STM32F4xx_HAL_Driver/Src/stm32f4xx_hal_rcc.c **** 
 241:./Libraries/STM32F4xx_HAL_Driver/Src/stm32f4xx_hal_rcc.c ****   /* Check Null pointer */
 242:./Libraries/STM32F4xx_HAL_Driver/Src/stm32f4xx_hal_rcc.c ****   if(RCC_OscInitStruct == NULL)
  57              		.loc 1 242 3 view .LVU5
  58              		.loc 1 242 5 is_stmt 0 view .LVU6
  59 0000 0028     		cmp	r0, #0
  60 0002 00F0BA81 		beq	.L51
 238:./Libraries/STM32F4xx_HAL_Driver/Src/stm32f4xx_hal_rcc.c ****   uint32_t tickstart;
  61              		.loc 1 238 1 view .LVU7
  62 0006 70B5     		push	{r4, r5, r6, lr}
  63              	.LCFI0:
  64              		.cfi_def_cfa_offset 16
  65              		.cfi_offset 4, -16
  66              		.cfi_offset 5, -12
  67              		.cfi_offset 6, -8
  68              		.cfi_offset 14, -4
  69 0008 82B0     		sub	sp, sp, #8
  70              	.LCFI1:
  71              		.cfi_def_cfa_offset 24
  72 000a 0446     		mov	r4, r0
 243:./Libraries/STM32F4xx_HAL_Driver/Src/stm32f4xx_hal_rcc.c ****   {
 244:./Libraries/STM32F4xx_HAL_Driver/Src/stm32f4xx_hal_rcc.c ****     return HAL_ERROR;
 245:./Libraries/STM32F4xx_HAL_Driver/Src/stm32f4xx_hal_rcc.c ****   }
 246:./Libraries/STM32F4xx_HAL_Driver/Src/stm32f4xx_hal_rcc.c **** 
 247:./Libraries/STM32F4xx_HAL_Driver/Src/stm32f4xx_hal_rcc.c ****   /* Check the parameters */
 248:./Libraries/STM32F4xx_HAL_Driver/Src/stm32f4xx_hal_rcc.c ****   assert_param(IS_RCC_OSCILLATORTYPE(RCC_OscInitStruct->OscillatorType));
  73              		.loc 1 248 3 is_stmt 1 view .LVU8
 249:./Libraries/STM32F4xx_HAL_Driver/Src/stm32f4xx_hal_rcc.c ****   /*------------------------------- HSE Configuration ------------------------*/
 250:./Libraries/STM32F4xx_HAL_Driver/Src/stm32f4xx_hal_rcc.c ****   if(((RCC_OscInitStruct->OscillatorType) & RCC_OSCILLATORTYPE_HSE) == RCC_OSCILLATORTYPE_HSE)
  74              		.loc 1 250 3 view .LVU9
  75              		.loc 1 250 25 is_stmt 0 view .LVU10
  76 000c 0368     		ldr	r3, [r0]
  77              		.loc 1 250 5 view .LVU11
  78 000e 13F0010F 		tst	r3, #1
  79 0012 3BD0     		beq	.L4
 251:./Libraries/STM32F4xx_HAL_Driver/Src/stm32f4xx_hal_rcc.c ****   {
 252:./Libraries/STM32F4xx_HAL_Driver/Src/stm32f4xx_hal_rcc.c ****     /* Check the parameters */
 253:./Libraries/STM32F4xx_HAL_Driver/Src/stm32f4xx_hal_rcc.c ****     assert_param(IS_RCC_HSE(RCC_OscInitStruct->HSEState));
  80              		.loc 1 253 5 is_stmt 1 view .LVU12
 254:./Libraries/STM32F4xx_HAL_Driver/Src/stm32f4xx_hal_rcc.c ****     /* When the HSE is used as system clock or clock source for PLL in these cases HSE will not dis
 255:./Libraries/STM32F4xx_HAL_Driver/Src/stm32f4xx_hal_rcc.c ****     if((__HAL_RCC_GET_SYSCLK_SOURCE() == RCC_CFGR_SWS_HSE) ||\
  81              		.loc 1 255 5 view .LVU13
  82              		.loc 1 255 9 is_stmt 0 view .LVU14
  83 0014 9F4B     		ldr	r3, .L87
  84 0016 9B68     		ldr	r3, [r3, #8]
  85 0018 03F00C03 		and	r3, r3, #12
  86              		.loc 1 255 7 view .LVU15
  87 001c 042B     		cmp	r3, #4
  88 001e 2CD0     		beq	.L5
 256:./Libraries/STM32F4xx_HAL_Driver/Src/stm32f4xx_hal_rcc.c ****       ((__HAL_RCC_GET_SYSCLK_SOURCE() == RCC_CFGR_SWS_PLL) && ((RCC->PLLCFGR & RCC_PLLCFGR_PLLSRC) 
ARM GAS  /tmp/ccLT17et.s 			page 7


  89              		.loc 1 256 9 discriminator 1 view .LVU16
  90 0020 9C4B     		ldr	r3, .L87
  91 0022 9B68     		ldr	r3, [r3, #8]
  92 0024 03F00C03 		and	r3, r3, #12
 255:./Libraries/STM32F4xx_HAL_Driver/Src/stm32f4xx_hal_rcc.c ****       ((__HAL_RCC_GET_SYSCLK_SOURCE() == RCC_CFGR_SWS_PLL) && ((RCC->PLLCFGR & RCC_PLLCFGR_PLLSRC) 
  93              		.loc 1 255 60 discriminator 1 view .LVU17
  94 0028 082B     		cmp	r3, #8
  95 002a 21D0     		beq	.L73
  96              	.L6:
 257:./Libraries/STM32F4xx_HAL_Driver/Src/stm32f4xx_hal_rcc.c ****     {
 258:./Libraries/STM32F4xx_HAL_Driver/Src/stm32f4xx_hal_rcc.c ****       if((__HAL_RCC_GET_FLAG(RCC_FLAG_HSERDY) != RESET) && (RCC_OscInitStruct->HSEState == RCC_HSE_
 259:./Libraries/STM32F4xx_HAL_Driver/Src/stm32f4xx_hal_rcc.c ****       {
 260:./Libraries/STM32F4xx_HAL_Driver/Src/stm32f4xx_hal_rcc.c ****         return HAL_ERROR;
 261:./Libraries/STM32F4xx_HAL_Driver/Src/stm32f4xx_hal_rcc.c ****       }
 262:./Libraries/STM32F4xx_HAL_Driver/Src/stm32f4xx_hal_rcc.c ****     }
 263:./Libraries/STM32F4xx_HAL_Driver/Src/stm32f4xx_hal_rcc.c ****     else
 264:./Libraries/STM32F4xx_HAL_Driver/Src/stm32f4xx_hal_rcc.c ****     {
 265:./Libraries/STM32F4xx_HAL_Driver/Src/stm32f4xx_hal_rcc.c ****       /* Set the new HSE configuration ---------------------------------------*/
 266:./Libraries/STM32F4xx_HAL_Driver/Src/stm32f4xx_hal_rcc.c ****       __HAL_RCC_HSE_CONFIG(RCC_OscInitStruct->HSEState);
  97              		.loc 1 266 7 is_stmt 1 view .LVU18
  98              		.loc 1 266 7 view .LVU19
  99 002c 6368     		ldr	r3, [r4, #4]
 100 002e B3F5803F 		cmp	r3, #65536
 101 0032 4FD0     		beq	.L74
 102              		.loc 1 266 7 discriminator 2 view .LVU20
 103 0034 B3F5A02F 		cmp	r3, #327680
 104 0038 52D0     		beq	.L75
 105              		.loc 1 266 7 discriminator 5 view .LVU21
 106 003a 964B     		ldr	r3, .L87
 107 003c 1A68     		ldr	r2, [r3]
 108 003e 22F48032 		bic	r2, r2, #65536
 109 0042 1A60     		str	r2, [r3]
 110              		.loc 1 266 7 discriminator 5 view .LVU22
 111 0044 1A68     		ldr	r2, [r3]
 112 0046 22F48022 		bic	r2, r2, #262144
 113 004a 1A60     		str	r2, [r3]
 114              	.L8:
 115              		.loc 1 266 7 discriminator 7 view .LVU23
 267:./Libraries/STM32F4xx_HAL_Driver/Src/stm32f4xx_hal_rcc.c **** 
 268:./Libraries/STM32F4xx_HAL_Driver/Src/stm32f4xx_hal_rcc.c ****       /* Check the HSE State */
 269:./Libraries/STM32F4xx_HAL_Driver/Src/stm32f4xx_hal_rcc.c ****       if((RCC_OscInitStruct->HSEState) != RCC_HSE_OFF)
 116              		.loc 1 269 7 discriminator 7 view .LVU24
 117              		.loc 1 269 28 is_stmt 0 discriminator 7 view .LVU25
 118 004c 6368     		ldr	r3, [r4, #4]
 119              		.loc 1 269 9 discriminator 7 view .LVU26
 120 004e 002B     		cmp	r3, #0
 121 0050 50D0     		beq	.L10
 270:./Libraries/STM32F4xx_HAL_Driver/Src/stm32f4xx_hal_rcc.c ****       {
 271:./Libraries/STM32F4xx_HAL_Driver/Src/stm32f4xx_hal_rcc.c ****         /* Get Start Tick */
 272:./Libraries/STM32F4xx_HAL_Driver/Src/stm32f4xx_hal_rcc.c ****         tickstart = HAL_GetTick();
 122              		.loc 1 272 9 is_stmt 1 view .LVU27
 123              		.loc 1 272 21 is_stmt 0 view .LVU28
 124 0052 FFF7FEFF 		bl	HAL_GetTick
 125              	.LVL1:
 126              		.loc 1 272 21 view .LVU29
 127 0056 0546     		mov	r5, r0
 128              	.LVL2:
ARM GAS  /tmp/ccLT17et.s 			page 8


 273:./Libraries/STM32F4xx_HAL_Driver/Src/stm32f4xx_hal_rcc.c **** 
 274:./Libraries/STM32F4xx_HAL_Driver/Src/stm32f4xx_hal_rcc.c ****         /* Wait till HSE is ready */
 275:./Libraries/STM32F4xx_HAL_Driver/Src/stm32f4xx_hal_rcc.c ****         while(__HAL_RCC_GET_FLAG(RCC_FLAG_HSERDY) == RESET)
 129              		.loc 1 275 9 is_stmt 1 view .LVU30
 130              	.L11:
 131              		.loc 1 275 14 view .LVU31
 132              		.loc 1 275 15 is_stmt 0 view .LVU32
 133 0058 8E4B     		ldr	r3, .L87
 134 005a 1B68     		ldr	r3, [r3]
 135              		.loc 1 275 14 view .LVU33
 136 005c 13F4003F 		tst	r3, #131072
 137 0060 14D1     		bne	.L4
 276:./Libraries/STM32F4xx_HAL_Driver/Src/stm32f4xx_hal_rcc.c ****         {
 277:./Libraries/STM32F4xx_HAL_Driver/Src/stm32f4xx_hal_rcc.c ****           if((HAL_GetTick() - tickstart ) > HSE_TIMEOUT_VALUE)
 138              		.loc 1 277 11 is_stmt 1 view .LVU34
 139              		.loc 1 277 15 is_stmt 0 view .LVU35
 140 0062 FFF7FEFF 		bl	HAL_GetTick
 141              	.LVL3:
 142              		.loc 1 277 29 view .LVU36
 143 0066 401B     		subs	r0, r0, r5
 144              		.loc 1 277 13 view .LVU37
 145 0068 6428     		cmp	r0, #100
 146 006a F5D9     		bls	.L11
 278:./Libraries/STM32F4xx_HAL_Driver/Src/stm32f4xx_hal_rcc.c ****           {
 279:./Libraries/STM32F4xx_HAL_Driver/Src/stm32f4xx_hal_rcc.c ****             return HAL_TIMEOUT;
 147              		.loc 1 279 20 view .LVU38
 148 006c 0320     		movs	r0, #3
 149 006e 8BE1     		b	.L3
 150              	.LVL4:
 151              	.L73:
 256:./Libraries/STM32F4xx_HAL_Driver/Src/stm32f4xx_hal_rcc.c ****     {
 152              		.loc 1 256 68 view .LVU39
 153 0070 884B     		ldr	r3, .L87
 154 0072 5B68     		ldr	r3, [r3, #4]
 256:./Libraries/STM32F4xx_HAL_Driver/Src/stm32f4xx_hal_rcc.c ****     {
 155              		.loc 1 256 60 view .LVU40
 156 0074 13F4800F 		tst	r3, #4194304
 157 0078 D8D0     		beq	.L6
 158              	.L5:
 258:./Libraries/STM32F4xx_HAL_Driver/Src/stm32f4xx_hal_rcc.c ****       {
 159              		.loc 1 258 7 is_stmt 1 view .LVU41
 258:./Libraries/STM32F4xx_HAL_Driver/Src/stm32f4xx_hal_rcc.c ****       {
 160              		.loc 1 258 11 is_stmt 0 view .LVU42
 161 007a 864B     		ldr	r3, .L87
 162 007c 1B68     		ldr	r3, [r3]
 258:./Libraries/STM32F4xx_HAL_Driver/Src/stm32f4xx_hal_rcc.c ****       {
 163              		.loc 1 258 9 view .LVU43
 164 007e 13F4003F 		tst	r3, #131072
 165 0082 03D0     		beq	.L4
 258:./Libraries/STM32F4xx_HAL_Driver/Src/stm32f4xx_hal_rcc.c ****       {
 166              		.loc 1 258 78 discriminator 1 view .LVU44
 167 0084 6368     		ldr	r3, [r4, #4]
 258:./Libraries/STM32F4xx_HAL_Driver/Src/stm32f4xx_hal_rcc.c ****       {
 168              		.loc 1 258 57 discriminator 1 view .LVU45
 169 0086 002B     		cmp	r3, #0
 170 0088 00F07981 		beq	.L76
 171              	.LVL5:
ARM GAS  /tmp/ccLT17et.s 			page 9


 172              	.L4:
 280:./Libraries/STM32F4xx_HAL_Driver/Src/stm32f4xx_hal_rcc.c ****           }
 281:./Libraries/STM32F4xx_HAL_Driver/Src/stm32f4xx_hal_rcc.c ****         }
 282:./Libraries/STM32F4xx_HAL_Driver/Src/stm32f4xx_hal_rcc.c ****       }
 283:./Libraries/STM32F4xx_HAL_Driver/Src/stm32f4xx_hal_rcc.c ****       else
 284:./Libraries/STM32F4xx_HAL_Driver/Src/stm32f4xx_hal_rcc.c ****       {
 285:./Libraries/STM32F4xx_HAL_Driver/Src/stm32f4xx_hal_rcc.c ****         /* Get Start Tick */
 286:./Libraries/STM32F4xx_HAL_Driver/Src/stm32f4xx_hal_rcc.c ****         tickstart = HAL_GetTick();
 287:./Libraries/STM32F4xx_HAL_Driver/Src/stm32f4xx_hal_rcc.c **** 
 288:./Libraries/STM32F4xx_HAL_Driver/Src/stm32f4xx_hal_rcc.c ****         /* Wait till HSE is bypassed or disabled */
 289:./Libraries/STM32F4xx_HAL_Driver/Src/stm32f4xx_hal_rcc.c ****         while(__HAL_RCC_GET_FLAG(RCC_FLAG_HSERDY) != RESET)
 290:./Libraries/STM32F4xx_HAL_Driver/Src/stm32f4xx_hal_rcc.c ****         {
 291:./Libraries/STM32F4xx_HAL_Driver/Src/stm32f4xx_hal_rcc.c ****           if((HAL_GetTick() - tickstart ) > HSE_TIMEOUT_VALUE)
 292:./Libraries/STM32F4xx_HAL_Driver/Src/stm32f4xx_hal_rcc.c ****           {
 293:./Libraries/STM32F4xx_HAL_Driver/Src/stm32f4xx_hal_rcc.c ****             return HAL_TIMEOUT;
 294:./Libraries/STM32F4xx_HAL_Driver/Src/stm32f4xx_hal_rcc.c ****           }
 295:./Libraries/STM32F4xx_HAL_Driver/Src/stm32f4xx_hal_rcc.c ****         }
 296:./Libraries/STM32F4xx_HAL_Driver/Src/stm32f4xx_hal_rcc.c ****       }
 297:./Libraries/STM32F4xx_HAL_Driver/Src/stm32f4xx_hal_rcc.c ****     }
 298:./Libraries/STM32F4xx_HAL_Driver/Src/stm32f4xx_hal_rcc.c ****   }
 299:./Libraries/STM32F4xx_HAL_Driver/Src/stm32f4xx_hal_rcc.c ****   /*----------------------------- HSI Configuration --------------------------*/
 300:./Libraries/STM32F4xx_HAL_Driver/Src/stm32f4xx_hal_rcc.c ****   if(((RCC_OscInitStruct->OscillatorType) & RCC_OSCILLATORTYPE_HSI) == RCC_OSCILLATORTYPE_HSI)
 173              		.loc 1 300 3 is_stmt 1 view .LVU46
 174              		.loc 1 300 25 is_stmt 0 view .LVU47
 175 008c 2368     		ldr	r3, [r4]
 176              		.loc 1 300 5 view .LVU48
 177 008e 13F0020F 		tst	r3, #2
 178 0092 54D0     		beq	.L15
 301:./Libraries/STM32F4xx_HAL_Driver/Src/stm32f4xx_hal_rcc.c ****   {
 302:./Libraries/STM32F4xx_HAL_Driver/Src/stm32f4xx_hal_rcc.c ****     /* Check the parameters */
 303:./Libraries/STM32F4xx_HAL_Driver/Src/stm32f4xx_hal_rcc.c ****     assert_param(IS_RCC_HSI(RCC_OscInitStruct->HSIState));
 179              		.loc 1 303 5 is_stmt 1 view .LVU49
 304:./Libraries/STM32F4xx_HAL_Driver/Src/stm32f4xx_hal_rcc.c ****     assert_param(IS_RCC_CALIBRATION_VALUE(RCC_OscInitStruct->HSICalibrationValue));
 180              		.loc 1 304 5 view .LVU50
 305:./Libraries/STM32F4xx_HAL_Driver/Src/stm32f4xx_hal_rcc.c **** 
 306:./Libraries/STM32F4xx_HAL_Driver/Src/stm32f4xx_hal_rcc.c ****     /* Check if HSI is used as system clock or as PLL source when PLL is selected as system clock *
 307:./Libraries/STM32F4xx_HAL_Driver/Src/stm32f4xx_hal_rcc.c ****     if((__HAL_RCC_GET_SYSCLK_SOURCE() == RCC_CFGR_SWS_HSI) ||\
 181              		.loc 1 307 5 view .LVU51
 182              		.loc 1 307 9 is_stmt 0 view .LVU52
 183 0094 7F4B     		ldr	r3, .L87
 184 0096 9B68     		ldr	r3, [r3, #8]
 185              		.loc 1 307 7 view .LVU53
 186 0098 13F00C0F 		tst	r3, #12
 187 009c 3ED0     		beq	.L16
 308:./Libraries/STM32F4xx_HAL_Driver/Src/stm32f4xx_hal_rcc.c ****       ((__HAL_RCC_GET_SYSCLK_SOURCE() == RCC_CFGR_SWS_PLL) && ((RCC->PLLCFGR & RCC_PLLCFGR_PLLSRC) 
 188              		.loc 1 308 9 discriminator 1 view .LVU54
 189 009e 7D4B     		ldr	r3, .L87
 190 00a0 9B68     		ldr	r3, [r3, #8]
 191 00a2 03F00C03 		and	r3, r3, #12
 307:./Libraries/STM32F4xx_HAL_Driver/Src/stm32f4xx_hal_rcc.c ****       ((__HAL_RCC_GET_SYSCLK_SOURCE() == RCC_CFGR_SWS_PLL) && ((RCC->PLLCFGR & RCC_PLLCFGR_PLLSRC) 
 192              		.loc 1 307 60 discriminator 1 view .LVU55
 193 00a6 082B     		cmp	r3, #8
 194 00a8 33D0     		beq	.L77
 195              	.L17:
 309:./Libraries/STM32F4xx_HAL_Driver/Src/stm32f4xx_hal_rcc.c ****     {
 310:./Libraries/STM32F4xx_HAL_Driver/Src/stm32f4xx_hal_rcc.c ****       /* When HSI is used as system clock it will not disabled */
 311:./Libraries/STM32F4xx_HAL_Driver/Src/stm32f4xx_hal_rcc.c ****       if((__HAL_RCC_GET_FLAG(RCC_FLAG_HSIRDY) != RESET) && (RCC_OscInitStruct->HSIState != RCC_HSI_
ARM GAS  /tmp/ccLT17et.s 			page 10


 312:./Libraries/STM32F4xx_HAL_Driver/Src/stm32f4xx_hal_rcc.c ****       {
 313:./Libraries/STM32F4xx_HAL_Driver/Src/stm32f4xx_hal_rcc.c ****         return HAL_ERROR;
 314:./Libraries/STM32F4xx_HAL_Driver/Src/stm32f4xx_hal_rcc.c ****       }
 315:./Libraries/STM32F4xx_HAL_Driver/Src/stm32f4xx_hal_rcc.c ****       /* Otherwise, just the calibration is allowed */
 316:./Libraries/STM32F4xx_HAL_Driver/Src/stm32f4xx_hal_rcc.c ****       else
 317:./Libraries/STM32F4xx_HAL_Driver/Src/stm32f4xx_hal_rcc.c ****       {
 318:./Libraries/STM32F4xx_HAL_Driver/Src/stm32f4xx_hal_rcc.c ****         /* Adjusts the Internal High Speed oscillator (HSI) calibration value.*/
 319:./Libraries/STM32F4xx_HAL_Driver/Src/stm32f4xx_hal_rcc.c ****         __HAL_RCC_HSI_CALIBRATIONVALUE_ADJUST(RCC_OscInitStruct->HSICalibrationValue);
 320:./Libraries/STM32F4xx_HAL_Driver/Src/stm32f4xx_hal_rcc.c ****       }
 321:./Libraries/STM32F4xx_HAL_Driver/Src/stm32f4xx_hal_rcc.c ****     }
 322:./Libraries/STM32F4xx_HAL_Driver/Src/stm32f4xx_hal_rcc.c ****     else
 323:./Libraries/STM32F4xx_HAL_Driver/Src/stm32f4xx_hal_rcc.c ****     {
 324:./Libraries/STM32F4xx_HAL_Driver/Src/stm32f4xx_hal_rcc.c ****       /* Check the HSI State */
 325:./Libraries/STM32F4xx_HAL_Driver/Src/stm32f4xx_hal_rcc.c ****       if((RCC_OscInitStruct->HSIState)!= RCC_HSI_OFF)
 196              		.loc 1 325 7 is_stmt 1 view .LVU56
 197              		.loc 1 325 28 is_stmt 0 view .LVU57
 198 00aa E368     		ldr	r3, [r4, #12]
 199              		.loc 1 325 9 view .LVU58
 200 00ac 002B     		cmp	r3, #0
 201 00ae 68D0     		beq	.L19
 326:./Libraries/STM32F4xx_HAL_Driver/Src/stm32f4xx_hal_rcc.c ****       {
 327:./Libraries/STM32F4xx_HAL_Driver/Src/stm32f4xx_hal_rcc.c ****         /* Enable the Internal High Speed oscillator (HSI). */
 328:./Libraries/STM32F4xx_HAL_Driver/Src/stm32f4xx_hal_rcc.c ****         __HAL_RCC_HSI_ENABLE();
 202              		.loc 1 328 9 is_stmt 1 view .LVU59
 203 00b0 794B     		ldr	r3, .L87+4
 204 00b2 0122     		movs	r2, #1
 205 00b4 1A60     		str	r2, [r3]
 329:./Libraries/STM32F4xx_HAL_Driver/Src/stm32f4xx_hal_rcc.c **** 
 330:./Libraries/STM32F4xx_HAL_Driver/Src/stm32f4xx_hal_rcc.c ****         /* Get Start Tick*/
 331:./Libraries/STM32F4xx_HAL_Driver/Src/stm32f4xx_hal_rcc.c ****         tickstart = HAL_GetTick();
 206              		.loc 1 331 9 view .LVU60
 207              		.loc 1 331 21 is_stmt 0 view .LVU61
 208 00b6 FFF7FEFF 		bl	HAL_GetTick
 209              	.LVL6:
 210 00ba 0546     		mov	r5, r0
 211              	.LVL7:
 332:./Libraries/STM32F4xx_HAL_Driver/Src/stm32f4xx_hal_rcc.c **** 
 333:./Libraries/STM32F4xx_HAL_Driver/Src/stm32f4xx_hal_rcc.c ****         /* Wait till HSI is ready */
 334:./Libraries/STM32F4xx_HAL_Driver/Src/stm32f4xx_hal_rcc.c ****         while(__HAL_RCC_GET_FLAG(RCC_FLAG_HSIRDY) == RESET)
 212              		.loc 1 334 9 is_stmt 1 view .LVU62
 213              	.L20:
 214              		.loc 1 334 14 view .LVU63
 215              		.loc 1 334 15 is_stmt 0 view .LVU64
 216 00bc 754B     		ldr	r3, .L87
 217 00be 1B68     		ldr	r3, [r3]
 218              		.loc 1 334 14 view .LVU65
 219 00c0 13F0020F 		tst	r3, #2
 220 00c4 54D1     		bne	.L78
 335:./Libraries/STM32F4xx_HAL_Driver/Src/stm32f4xx_hal_rcc.c ****         {
 336:./Libraries/STM32F4xx_HAL_Driver/Src/stm32f4xx_hal_rcc.c ****           if((HAL_GetTick() - tickstart ) > HSI_TIMEOUT_VALUE)
 221              		.loc 1 336 11 is_stmt 1 view .LVU66
 222              		.loc 1 336 15 is_stmt 0 view .LVU67
 223 00c6 FFF7FEFF 		bl	HAL_GetTick
 224              	.LVL8:
 225              		.loc 1 336 29 view .LVU68
 226 00ca 401B     		subs	r0, r0, r5
 227              		.loc 1 336 13 view .LVU69
ARM GAS  /tmp/ccLT17et.s 			page 11


 228 00cc 0228     		cmp	r0, #2
 229 00ce F5D9     		bls	.L20
 337:./Libraries/STM32F4xx_HAL_Driver/Src/stm32f4xx_hal_rcc.c ****           {
 338:./Libraries/STM32F4xx_HAL_Driver/Src/stm32f4xx_hal_rcc.c ****             return HAL_TIMEOUT;
 230              		.loc 1 338 20 view .LVU70
 231 00d0 0320     		movs	r0, #3
 232 00d2 59E1     		b	.L3
 233              	.LVL9:
 234              	.L74:
 266:./Libraries/STM32F4xx_HAL_Driver/Src/stm32f4xx_hal_rcc.c **** 
 235              		.loc 1 266 7 is_stmt 1 discriminator 1 view .LVU71
 236 00d4 6F4A     		ldr	r2, .L87
 237 00d6 1368     		ldr	r3, [r2]
 238 00d8 43F48033 		orr	r3, r3, #65536
 239 00dc 1360     		str	r3, [r2]
 240 00de B5E7     		b	.L8
 241              	.L75:
 266:./Libraries/STM32F4xx_HAL_Driver/Src/stm32f4xx_hal_rcc.c **** 
 242              		.loc 1 266 7 discriminator 4 view .LVU72
 243 00e0 6C4B     		ldr	r3, .L87
 244 00e2 1A68     		ldr	r2, [r3]
 245 00e4 42F48022 		orr	r2, r2, #262144
 246 00e8 1A60     		str	r2, [r3]
 266:./Libraries/STM32F4xx_HAL_Driver/Src/stm32f4xx_hal_rcc.c **** 
 247              		.loc 1 266 7 discriminator 4 view .LVU73
 248 00ea 1A68     		ldr	r2, [r3]
 249 00ec 42F48032 		orr	r2, r2, #65536
 250 00f0 1A60     		str	r2, [r3]
 251 00f2 ABE7     		b	.L8
 252              	.L10:
 286:./Libraries/STM32F4xx_HAL_Driver/Src/stm32f4xx_hal_rcc.c **** 
 253              		.loc 1 286 9 view .LVU74
 286:./Libraries/STM32F4xx_HAL_Driver/Src/stm32f4xx_hal_rcc.c **** 
 254              		.loc 1 286 21 is_stmt 0 view .LVU75
 255 00f4 FFF7FEFF 		bl	HAL_GetTick
 256              	.LVL10:
 286:./Libraries/STM32F4xx_HAL_Driver/Src/stm32f4xx_hal_rcc.c **** 
 257              		.loc 1 286 21 view .LVU76
 258 00f8 0546     		mov	r5, r0
 259              	.LVL11:
 289:./Libraries/STM32F4xx_HAL_Driver/Src/stm32f4xx_hal_rcc.c ****         {
 260              		.loc 1 289 9 is_stmt 1 view .LVU77
 261              	.L13:
 289:./Libraries/STM32F4xx_HAL_Driver/Src/stm32f4xx_hal_rcc.c ****         {
 262              		.loc 1 289 14 view .LVU78
 289:./Libraries/STM32F4xx_HAL_Driver/Src/stm32f4xx_hal_rcc.c ****         {
 263              		.loc 1 289 15 is_stmt 0 view .LVU79
 264 00fa 664B     		ldr	r3, .L87
 265 00fc 1B68     		ldr	r3, [r3]
 289:./Libraries/STM32F4xx_HAL_Driver/Src/stm32f4xx_hal_rcc.c ****         {
 266              		.loc 1 289 14 view .LVU80
 267 00fe 13F4003F 		tst	r3, #131072
 268 0102 C3D0     		beq	.L4
 291:./Libraries/STM32F4xx_HAL_Driver/Src/stm32f4xx_hal_rcc.c ****           {
 269              		.loc 1 291 11 is_stmt 1 view .LVU81
 291:./Libraries/STM32F4xx_HAL_Driver/Src/stm32f4xx_hal_rcc.c ****           {
 270              		.loc 1 291 15 is_stmt 0 view .LVU82
ARM GAS  /tmp/ccLT17et.s 			page 12


 271 0104 FFF7FEFF 		bl	HAL_GetTick
 272              	.LVL12:
 291:./Libraries/STM32F4xx_HAL_Driver/Src/stm32f4xx_hal_rcc.c ****           {
 273              		.loc 1 291 29 view .LVU83
 274 0108 401B     		subs	r0, r0, r5
 291:./Libraries/STM32F4xx_HAL_Driver/Src/stm32f4xx_hal_rcc.c ****           {
 275              		.loc 1 291 13 view .LVU84
 276 010a 6428     		cmp	r0, #100
 277 010c F5D9     		bls	.L13
 293:./Libraries/STM32F4xx_HAL_Driver/Src/stm32f4xx_hal_rcc.c ****           }
 278              		.loc 1 293 20 view .LVU85
 279 010e 0320     		movs	r0, #3
 280 0110 3AE1     		b	.L3
 281              	.LVL13:
 282              	.L77:
 308:./Libraries/STM32F4xx_HAL_Driver/Src/stm32f4xx_hal_rcc.c ****     {
 283              		.loc 1 308 68 view .LVU86
 284 0112 604B     		ldr	r3, .L87
 285 0114 5B68     		ldr	r3, [r3, #4]
 308:./Libraries/STM32F4xx_HAL_Driver/Src/stm32f4xx_hal_rcc.c ****     {
 286              		.loc 1 308 60 view .LVU87
 287 0116 13F4800F 		tst	r3, #4194304
 288 011a C6D1     		bne	.L17
 289              	.L16:
 311:./Libraries/STM32F4xx_HAL_Driver/Src/stm32f4xx_hal_rcc.c ****       {
 290              		.loc 1 311 7 is_stmt 1 view .LVU88
 311:./Libraries/STM32F4xx_HAL_Driver/Src/stm32f4xx_hal_rcc.c ****       {
 291              		.loc 1 311 11 is_stmt 0 view .LVU89
 292 011c 5D4B     		ldr	r3, .L87
 293 011e 1B68     		ldr	r3, [r3]
 311:./Libraries/STM32F4xx_HAL_Driver/Src/stm32f4xx_hal_rcc.c ****       {
 294              		.loc 1 311 9 view .LVU90
 295 0120 13F0020F 		tst	r3, #2
 296 0124 03D0     		beq	.L18
 311:./Libraries/STM32F4xx_HAL_Driver/Src/stm32f4xx_hal_rcc.c ****       {
 297              		.loc 1 311 78 discriminator 1 view .LVU91
 298 0126 E368     		ldr	r3, [r4, #12]
 311:./Libraries/STM32F4xx_HAL_Driver/Src/stm32f4xx_hal_rcc.c ****       {
 299              		.loc 1 311 57 discriminator 1 view .LVU92
 300 0128 012B     		cmp	r3, #1
 301 012a 40F02A81 		bne	.L55
 302              	.L18:
 319:./Libraries/STM32F4xx_HAL_Driver/Src/stm32f4xx_hal_rcc.c ****       }
 303              		.loc 1 319 9 is_stmt 1 view .LVU93
 304 012e 594A     		ldr	r2, .L87
 305 0130 1368     		ldr	r3, [r2]
 306 0132 23F0F803 		bic	r3, r3, #248
 307 0136 2169     		ldr	r1, [r4, #16]
 308 0138 43EAC103 		orr	r3, r3, r1, lsl #3
 309 013c 1360     		str	r3, [r2]
 310              	.L15:
 339:./Libraries/STM32F4xx_HAL_Driver/Src/stm32f4xx_hal_rcc.c ****           }
 340:./Libraries/STM32F4xx_HAL_Driver/Src/stm32f4xx_hal_rcc.c ****         }
 341:./Libraries/STM32F4xx_HAL_Driver/Src/stm32f4xx_hal_rcc.c **** 
 342:./Libraries/STM32F4xx_HAL_Driver/Src/stm32f4xx_hal_rcc.c ****         /* Adjusts the Internal High Speed oscillator (HSI) calibration value. */
 343:./Libraries/STM32F4xx_HAL_Driver/Src/stm32f4xx_hal_rcc.c ****         __HAL_RCC_HSI_CALIBRATIONVALUE_ADJUST(RCC_OscInitStruct->HSICalibrationValue);
 344:./Libraries/STM32F4xx_HAL_Driver/Src/stm32f4xx_hal_rcc.c ****       }
ARM GAS  /tmp/ccLT17et.s 			page 13


 345:./Libraries/STM32F4xx_HAL_Driver/Src/stm32f4xx_hal_rcc.c ****       else
 346:./Libraries/STM32F4xx_HAL_Driver/Src/stm32f4xx_hal_rcc.c ****       {
 347:./Libraries/STM32F4xx_HAL_Driver/Src/stm32f4xx_hal_rcc.c ****         /* Disable the Internal High Speed oscillator (HSI). */
 348:./Libraries/STM32F4xx_HAL_Driver/Src/stm32f4xx_hal_rcc.c ****         __HAL_RCC_HSI_DISABLE();
 349:./Libraries/STM32F4xx_HAL_Driver/Src/stm32f4xx_hal_rcc.c **** 
 350:./Libraries/STM32F4xx_HAL_Driver/Src/stm32f4xx_hal_rcc.c ****         /* Get Start Tick*/
 351:./Libraries/STM32F4xx_HAL_Driver/Src/stm32f4xx_hal_rcc.c ****         tickstart = HAL_GetTick();
 352:./Libraries/STM32F4xx_HAL_Driver/Src/stm32f4xx_hal_rcc.c **** 
 353:./Libraries/STM32F4xx_HAL_Driver/Src/stm32f4xx_hal_rcc.c ****         /* Wait till HSI is ready */
 354:./Libraries/STM32F4xx_HAL_Driver/Src/stm32f4xx_hal_rcc.c ****         while(__HAL_RCC_GET_FLAG(RCC_FLAG_HSIRDY) != RESET)
 355:./Libraries/STM32F4xx_HAL_Driver/Src/stm32f4xx_hal_rcc.c ****         {
 356:./Libraries/STM32F4xx_HAL_Driver/Src/stm32f4xx_hal_rcc.c ****           if((HAL_GetTick() - tickstart ) > HSI_TIMEOUT_VALUE)
 357:./Libraries/STM32F4xx_HAL_Driver/Src/stm32f4xx_hal_rcc.c ****           {
 358:./Libraries/STM32F4xx_HAL_Driver/Src/stm32f4xx_hal_rcc.c ****             return HAL_TIMEOUT;
 359:./Libraries/STM32F4xx_HAL_Driver/Src/stm32f4xx_hal_rcc.c ****           }
 360:./Libraries/STM32F4xx_HAL_Driver/Src/stm32f4xx_hal_rcc.c ****         }
 361:./Libraries/STM32F4xx_HAL_Driver/Src/stm32f4xx_hal_rcc.c ****       }
 362:./Libraries/STM32F4xx_HAL_Driver/Src/stm32f4xx_hal_rcc.c ****     }
 363:./Libraries/STM32F4xx_HAL_Driver/Src/stm32f4xx_hal_rcc.c ****   }
 364:./Libraries/STM32F4xx_HAL_Driver/Src/stm32f4xx_hal_rcc.c ****   /*------------------------------ LSI Configuration -------------------------*/
 365:./Libraries/STM32F4xx_HAL_Driver/Src/stm32f4xx_hal_rcc.c ****   if(((RCC_OscInitStruct->OscillatorType) & RCC_OSCILLATORTYPE_LSI) == RCC_OSCILLATORTYPE_LSI)
 311              		.loc 1 365 3 view .LVU94
 312              		.loc 1 365 25 is_stmt 0 view .LVU95
 313 013e 2368     		ldr	r3, [r4]
 314              		.loc 1 365 5 view .LVU96
 315 0140 13F0080F 		tst	r3, #8
 316 0144 42D0     		beq	.L24
 366:./Libraries/STM32F4xx_HAL_Driver/Src/stm32f4xx_hal_rcc.c ****   {
 367:./Libraries/STM32F4xx_HAL_Driver/Src/stm32f4xx_hal_rcc.c ****     /* Check the parameters */
 368:./Libraries/STM32F4xx_HAL_Driver/Src/stm32f4xx_hal_rcc.c ****     assert_param(IS_RCC_LSI(RCC_OscInitStruct->LSIState));
 317              		.loc 1 368 5 is_stmt 1 view .LVU97
 369:./Libraries/STM32F4xx_HAL_Driver/Src/stm32f4xx_hal_rcc.c **** 
 370:./Libraries/STM32F4xx_HAL_Driver/Src/stm32f4xx_hal_rcc.c ****     /* Check the LSI State */
 371:./Libraries/STM32F4xx_HAL_Driver/Src/stm32f4xx_hal_rcc.c ****     if((RCC_OscInitStruct->LSIState)!= RCC_LSI_OFF)
 318              		.loc 1 371 5 view .LVU98
 319              		.loc 1 371 26 is_stmt 0 view .LVU99
 320 0146 6369     		ldr	r3, [r4, #20]
 321              		.loc 1 371 7 view .LVU100
 322 0148 6BB3     		cbz	r3, .L25
 372:./Libraries/STM32F4xx_HAL_Driver/Src/stm32f4xx_hal_rcc.c ****     {
 373:./Libraries/STM32F4xx_HAL_Driver/Src/stm32f4xx_hal_rcc.c ****       /* Enable the Internal Low Speed oscillator (LSI). */
 374:./Libraries/STM32F4xx_HAL_Driver/Src/stm32f4xx_hal_rcc.c ****       __HAL_RCC_LSI_ENABLE();
 323              		.loc 1 374 7 is_stmt 1 view .LVU101
 324 014a 534B     		ldr	r3, .L87+4
 325 014c 0122     		movs	r2, #1
 326 014e C3F8802E 		str	r2, [r3, #3712]
 375:./Libraries/STM32F4xx_HAL_Driver/Src/stm32f4xx_hal_rcc.c **** 
 376:./Libraries/STM32F4xx_HAL_Driver/Src/stm32f4xx_hal_rcc.c ****       /* Get Start Tick*/
 377:./Libraries/STM32F4xx_HAL_Driver/Src/stm32f4xx_hal_rcc.c ****       tickstart = HAL_GetTick();
 327              		.loc 1 377 7 view .LVU102
 328              		.loc 1 377 19 is_stmt 0 view .LVU103
 329 0152 FFF7FEFF 		bl	HAL_GetTick
 330              	.LVL14:
 331 0156 0546     		mov	r5, r0
 332              	.LVL15:
 378:./Libraries/STM32F4xx_HAL_Driver/Src/stm32f4xx_hal_rcc.c **** 
 379:./Libraries/STM32F4xx_HAL_Driver/Src/stm32f4xx_hal_rcc.c ****       /* Wait till LSI is ready */
ARM GAS  /tmp/ccLT17et.s 			page 14


 380:./Libraries/STM32F4xx_HAL_Driver/Src/stm32f4xx_hal_rcc.c ****       while(__HAL_RCC_GET_FLAG(RCC_FLAG_LSIRDY) == RESET)
 333              		.loc 1 380 7 is_stmt 1 view .LVU104
 334              	.L26:
 335              		.loc 1 380 12 view .LVU105
 336              		.loc 1 380 13 is_stmt 0 view .LVU106
 337 0158 4E4B     		ldr	r3, .L87
 338 015a 5B6F     		ldr	r3, [r3, #116]
 339              		.loc 1 380 12 view .LVU107
 340 015c 13F0020F 		tst	r3, #2
 341 0160 34D1     		bne	.L24
 381:./Libraries/STM32F4xx_HAL_Driver/Src/stm32f4xx_hal_rcc.c ****       {
 382:./Libraries/STM32F4xx_HAL_Driver/Src/stm32f4xx_hal_rcc.c ****         if((HAL_GetTick() - tickstart ) > LSI_TIMEOUT_VALUE)
 342              		.loc 1 382 9 is_stmt 1 view .LVU108
 343              		.loc 1 382 13 is_stmt 0 view .LVU109
 344 0162 FFF7FEFF 		bl	HAL_GetTick
 345              	.LVL16:
 346              		.loc 1 382 27 view .LVU110
 347 0166 401B     		subs	r0, r0, r5
 348              		.loc 1 382 11 view .LVU111
 349 0168 0228     		cmp	r0, #2
 350 016a F5D9     		bls	.L26
 383:./Libraries/STM32F4xx_HAL_Driver/Src/stm32f4xx_hal_rcc.c ****         {
 384:./Libraries/STM32F4xx_HAL_Driver/Src/stm32f4xx_hal_rcc.c ****           return HAL_TIMEOUT;
 351              		.loc 1 384 18 view .LVU112
 352 016c 0320     		movs	r0, #3
 353 016e 0BE1     		b	.L3
 354              	.L78:
 343:./Libraries/STM32F4xx_HAL_Driver/Src/stm32f4xx_hal_rcc.c ****       }
 355              		.loc 1 343 9 is_stmt 1 view .LVU113
 356 0170 484A     		ldr	r2, .L87
 357 0172 1368     		ldr	r3, [r2]
 358 0174 23F0F803 		bic	r3, r3, #248
 359 0178 2169     		ldr	r1, [r4, #16]
 360 017a 43EAC103 		orr	r3, r3, r1, lsl #3
 361 017e 1360     		str	r3, [r2]
 362 0180 DDE7     		b	.L15
 363              	.LVL17:
 364              	.L19:
 348:./Libraries/STM32F4xx_HAL_Driver/Src/stm32f4xx_hal_rcc.c **** 
 365              		.loc 1 348 9 view .LVU114
 366 0182 454B     		ldr	r3, .L87+4
 367 0184 0022     		movs	r2, #0
 368 0186 1A60     		str	r2, [r3]
 351:./Libraries/STM32F4xx_HAL_Driver/Src/stm32f4xx_hal_rcc.c **** 
 369              		.loc 1 351 9 view .LVU115
 351:./Libraries/STM32F4xx_HAL_Driver/Src/stm32f4xx_hal_rcc.c **** 
 370              		.loc 1 351 21 is_stmt 0 view .LVU116
 371 0188 FFF7FEFF 		bl	HAL_GetTick
 372              	.LVL18:
 373 018c 0546     		mov	r5, r0
 374              	.LVL19:
 354:./Libraries/STM32F4xx_HAL_Driver/Src/stm32f4xx_hal_rcc.c ****         {
 375              		.loc 1 354 9 is_stmt 1 view .LVU117
 376              	.L22:
 354:./Libraries/STM32F4xx_HAL_Driver/Src/stm32f4xx_hal_rcc.c ****         {
 377              		.loc 1 354 14 view .LVU118
 354:./Libraries/STM32F4xx_HAL_Driver/Src/stm32f4xx_hal_rcc.c ****         {
ARM GAS  /tmp/ccLT17et.s 			page 15


 378              		.loc 1 354 15 is_stmt 0 view .LVU119
 379 018e 414B     		ldr	r3, .L87
 380 0190 1B68     		ldr	r3, [r3]
 354:./Libraries/STM32F4xx_HAL_Driver/Src/stm32f4xx_hal_rcc.c ****         {
 381              		.loc 1 354 14 view .LVU120
 382 0192 13F0020F 		tst	r3, #2
 383 0196 D2D0     		beq	.L15
 356:./Libraries/STM32F4xx_HAL_Driver/Src/stm32f4xx_hal_rcc.c ****           {
 384              		.loc 1 356 11 is_stmt 1 view .LVU121
 356:./Libraries/STM32F4xx_HAL_Driver/Src/stm32f4xx_hal_rcc.c ****           {
 385              		.loc 1 356 15 is_stmt 0 view .LVU122
 386 0198 FFF7FEFF 		bl	HAL_GetTick
 387              	.LVL20:
 356:./Libraries/STM32F4xx_HAL_Driver/Src/stm32f4xx_hal_rcc.c ****           {
 388              		.loc 1 356 29 view .LVU123
 389 019c 401B     		subs	r0, r0, r5
 356:./Libraries/STM32F4xx_HAL_Driver/Src/stm32f4xx_hal_rcc.c ****           {
 390              		.loc 1 356 13 view .LVU124
 391 019e 0228     		cmp	r0, #2
 392 01a0 F5D9     		bls	.L22
 358:./Libraries/STM32F4xx_HAL_Driver/Src/stm32f4xx_hal_rcc.c ****           }
 393              		.loc 1 358 20 view .LVU125
 394 01a2 0320     		movs	r0, #3
 395 01a4 F0E0     		b	.L3
 396              	.LVL21:
 397              	.L25:
 385:./Libraries/STM32F4xx_HAL_Driver/Src/stm32f4xx_hal_rcc.c ****         }
 386:./Libraries/STM32F4xx_HAL_Driver/Src/stm32f4xx_hal_rcc.c ****       }
 387:./Libraries/STM32F4xx_HAL_Driver/Src/stm32f4xx_hal_rcc.c ****     }
 388:./Libraries/STM32F4xx_HAL_Driver/Src/stm32f4xx_hal_rcc.c ****     else
 389:./Libraries/STM32F4xx_HAL_Driver/Src/stm32f4xx_hal_rcc.c ****     {
 390:./Libraries/STM32F4xx_HAL_Driver/Src/stm32f4xx_hal_rcc.c ****       /* Disable the Internal Low Speed oscillator (LSI). */
 391:./Libraries/STM32F4xx_HAL_Driver/Src/stm32f4xx_hal_rcc.c ****       __HAL_RCC_LSI_DISABLE();
 398              		.loc 1 391 7 is_stmt 1 view .LVU126
 399 01a6 3C4B     		ldr	r3, .L87+4
 400 01a8 0022     		movs	r2, #0
 401 01aa C3F8802E 		str	r2, [r3, #3712]
 392:./Libraries/STM32F4xx_HAL_Driver/Src/stm32f4xx_hal_rcc.c **** 
 393:./Libraries/STM32F4xx_HAL_Driver/Src/stm32f4xx_hal_rcc.c ****       /* Get Start Tick */
 394:./Libraries/STM32F4xx_HAL_Driver/Src/stm32f4xx_hal_rcc.c ****       tickstart = HAL_GetTick();
 402              		.loc 1 394 7 view .LVU127
 403              		.loc 1 394 19 is_stmt 0 view .LVU128
 404 01ae FFF7FEFF 		bl	HAL_GetTick
 405              	.LVL22:
 406 01b2 0546     		mov	r5, r0
 407              	.LVL23:
 395:./Libraries/STM32F4xx_HAL_Driver/Src/stm32f4xx_hal_rcc.c **** 
 396:./Libraries/STM32F4xx_HAL_Driver/Src/stm32f4xx_hal_rcc.c ****       /* Wait till LSI is ready */
 397:./Libraries/STM32F4xx_HAL_Driver/Src/stm32f4xx_hal_rcc.c ****       while(__HAL_RCC_GET_FLAG(RCC_FLAG_LSIRDY) != RESET)
 408              		.loc 1 397 7 is_stmt 1 view .LVU129
 409              	.L28:
 410              		.loc 1 397 12 view .LVU130
 411              		.loc 1 397 13 is_stmt 0 view .LVU131
 412 01b4 374B     		ldr	r3, .L87
 413 01b6 5B6F     		ldr	r3, [r3, #116]
 414              		.loc 1 397 12 view .LVU132
 415 01b8 13F0020F 		tst	r3, #2
ARM GAS  /tmp/ccLT17et.s 			page 16


 416 01bc 06D0     		beq	.L24
 398:./Libraries/STM32F4xx_HAL_Driver/Src/stm32f4xx_hal_rcc.c ****       {
 399:./Libraries/STM32F4xx_HAL_Driver/Src/stm32f4xx_hal_rcc.c ****         if((HAL_GetTick() - tickstart ) > LSI_TIMEOUT_VALUE)
 417              		.loc 1 399 9 is_stmt 1 view .LVU133
 418              		.loc 1 399 13 is_stmt 0 view .LVU134
 419 01be FFF7FEFF 		bl	HAL_GetTick
 420              	.LVL24:
 421              		.loc 1 399 27 view .LVU135
 422 01c2 401B     		subs	r0, r0, r5
 423              		.loc 1 399 11 view .LVU136
 424 01c4 0228     		cmp	r0, #2
 425 01c6 F5D9     		bls	.L28
 400:./Libraries/STM32F4xx_HAL_Driver/Src/stm32f4xx_hal_rcc.c ****         {
 401:./Libraries/STM32F4xx_HAL_Driver/Src/stm32f4xx_hal_rcc.c ****           return HAL_TIMEOUT;
 426              		.loc 1 401 18 view .LVU137
 427 01c8 0320     		movs	r0, #3
 428 01ca DDE0     		b	.L3
 429              	.LVL25:
 430              	.L24:
 402:./Libraries/STM32F4xx_HAL_Driver/Src/stm32f4xx_hal_rcc.c ****         }
 403:./Libraries/STM32F4xx_HAL_Driver/Src/stm32f4xx_hal_rcc.c ****       }
 404:./Libraries/STM32F4xx_HAL_Driver/Src/stm32f4xx_hal_rcc.c ****     }
 405:./Libraries/STM32F4xx_HAL_Driver/Src/stm32f4xx_hal_rcc.c ****   }
 406:./Libraries/STM32F4xx_HAL_Driver/Src/stm32f4xx_hal_rcc.c ****   /*------------------------------ LSE Configuration -------------------------*/
 407:./Libraries/STM32F4xx_HAL_Driver/Src/stm32f4xx_hal_rcc.c ****   if(((RCC_OscInitStruct->OscillatorType) & RCC_OSCILLATORTYPE_LSE) == RCC_OSCILLATORTYPE_LSE)
 431              		.loc 1 407 3 is_stmt 1 view .LVU138
 432              		.loc 1 407 25 is_stmt 0 view .LVU139
 433 01cc 2368     		ldr	r3, [r4]
 434              		.loc 1 407 5 view .LVU140
 435 01ce 13F0040F 		tst	r3, #4
 436 01d2 77D0     		beq	.L30
 437              	.LBB2:
 408:./Libraries/STM32F4xx_HAL_Driver/Src/stm32f4xx_hal_rcc.c ****   {
 409:./Libraries/STM32F4xx_HAL_Driver/Src/stm32f4xx_hal_rcc.c ****     FlagStatus       pwrclkchanged = RESET;
 438              		.loc 1 409 5 is_stmt 1 view .LVU141
 439              	.LVL26:
 410:./Libraries/STM32F4xx_HAL_Driver/Src/stm32f4xx_hal_rcc.c **** 
 411:./Libraries/STM32F4xx_HAL_Driver/Src/stm32f4xx_hal_rcc.c ****     /* Check the parameters */
 412:./Libraries/STM32F4xx_HAL_Driver/Src/stm32f4xx_hal_rcc.c ****     assert_param(IS_RCC_LSE(RCC_OscInitStruct->LSEState));
 440              		.loc 1 412 5 view .LVU142
 413:./Libraries/STM32F4xx_HAL_Driver/Src/stm32f4xx_hal_rcc.c **** 
 414:./Libraries/STM32F4xx_HAL_Driver/Src/stm32f4xx_hal_rcc.c ****     /* Update LSE configuration in Backup Domain control register    */
 415:./Libraries/STM32F4xx_HAL_Driver/Src/stm32f4xx_hal_rcc.c ****     /* Requires to enable write access to Backup Domain of necessary */
 416:./Libraries/STM32F4xx_HAL_Driver/Src/stm32f4xx_hal_rcc.c ****     if(__HAL_RCC_PWR_IS_CLK_DISABLED())
 441              		.loc 1 416 5 view .LVU143
 442              		.loc 1 416 8 is_stmt 0 view .LVU144
 443 01d4 2F4B     		ldr	r3, .L87
 444 01d6 1B6C     		ldr	r3, [r3, #64]
 445              		.loc 1 416 7 view .LVU145
 446 01d8 13F0805F 		tst	r3, #268435456
 447 01dc 33D1     		bne	.L60
 417:./Libraries/STM32F4xx_HAL_Driver/Src/stm32f4xx_hal_rcc.c ****     {
 418:./Libraries/STM32F4xx_HAL_Driver/Src/stm32f4xx_hal_rcc.c ****       __HAL_RCC_PWR_CLK_ENABLE();
 448              		.loc 1 418 7 is_stmt 1 view .LVU146
 449              	.LBB3:
 450              		.loc 1 418 7 view .LVU147
 451 01de 0023     		movs	r3, #0
ARM GAS  /tmp/ccLT17et.s 			page 17


 452 01e0 0193     		str	r3, [sp, #4]
 453              		.loc 1 418 7 view .LVU148
 454 01e2 2C4B     		ldr	r3, .L87
 455 01e4 1A6C     		ldr	r2, [r3, #64]
 456 01e6 42F08052 		orr	r2, r2, #268435456
 457 01ea 1A64     		str	r2, [r3, #64]
 458              		.loc 1 418 7 view .LVU149
 459 01ec 1B6C     		ldr	r3, [r3, #64]
 460 01ee 03F08053 		and	r3, r3, #268435456
 461 01f2 0193     		str	r3, [sp, #4]
 462              		.loc 1 418 7 view .LVU150
 463 01f4 019B     		ldr	r3, [sp, #4]
 464              	.LBE3:
 465              		.loc 1 418 7 view .LVU151
 419:./Libraries/STM32F4xx_HAL_Driver/Src/stm32f4xx_hal_rcc.c ****       pwrclkchanged = SET;
 466              		.loc 1 419 7 view .LVU152
 467              	.LVL27:
 468              		.loc 1 419 21 is_stmt 0 view .LVU153
 469 01f6 0125     		movs	r5, #1
 470              	.LVL28:
 471              	.L31:
 420:./Libraries/STM32F4xx_HAL_Driver/Src/stm32f4xx_hal_rcc.c ****     }
 421:./Libraries/STM32F4xx_HAL_Driver/Src/stm32f4xx_hal_rcc.c **** 
 422:./Libraries/STM32F4xx_HAL_Driver/Src/stm32f4xx_hal_rcc.c ****     if(HAL_IS_BIT_CLR(PWR->CR, PWR_CR_DBP))
 472              		.loc 1 422 5 is_stmt 1 view .LVU154
 473              		.loc 1 422 8 is_stmt 0 view .LVU155
 474 01f8 284B     		ldr	r3, .L87+8
 475 01fa 1B68     		ldr	r3, [r3]
 476              		.loc 1 422 7 view .LVU156
 477 01fc 13F4807F 		tst	r3, #256
 478 0200 23D0     		beq	.L79
 479              	.L32:
 423:./Libraries/STM32F4xx_HAL_Driver/Src/stm32f4xx_hal_rcc.c ****     {
 424:./Libraries/STM32F4xx_HAL_Driver/Src/stm32f4xx_hal_rcc.c ****       /* Enable write access to Backup domain */
 425:./Libraries/STM32F4xx_HAL_Driver/Src/stm32f4xx_hal_rcc.c ****       SET_BIT(PWR->CR, PWR_CR_DBP);
 426:./Libraries/STM32F4xx_HAL_Driver/Src/stm32f4xx_hal_rcc.c **** 
 427:./Libraries/STM32F4xx_HAL_Driver/Src/stm32f4xx_hal_rcc.c ****       /* Wait for Backup domain Write protection disable */
 428:./Libraries/STM32F4xx_HAL_Driver/Src/stm32f4xx_hal_rcc.c ****       tickstart = HAL_GetTick();
 429:./Libraries/STM32F4xx_HAL_Driver/Src/stm32f4xx_hal_rcc.c **** 
 430:./Libraries/STM32F4xx_HAL_Driver/Src/stm32f4xx_hal_rcc.c ****       while(HAL_IS_BIT_CLR(PWR->CR, PWR_CR_DBP))
 431:./Libraries/STM32F4xx_HAL_Driver/Src/stm32f4xx_hal_rcc.c ****       {
 432:./Libraries/STM32F4xx_HAL_Driver/Src/stm32f4xx_hal_rcc.c ****         if((HAL_GetTick() - tickstart) > RCC_DBP_TIMEOUT_VALUE)
 433:./Libraries/STM32F4xx_HAL_Driver/Src/stm32f4xx_hal_rcc.c ****         {
 434:./Libraries/STM32F4xx_HAL_Driver/Src/stm32f4xx_hal_rcc.c ****           return HAL_TIMEOUT;
 435:./Libraries/STM32F4xx_HAL_Driver/Src/stm32f4xx_hal_rcc.c ****         }
 436:./Libraries/STM32F4xx_HAL_Driver/Src/stm32f4xx_hal_rcc.c ****       }
 437:./Libraries/STM32F4xx_HAL_Driver/Src/stm32f4xx_hal_rcc.c ****     }
 438:./Libraries/STM32F4xx_HAL_Driver/Src/stm32f4xx_hal_rcc.c **** 
 439:./Libraries/STM32F4xx_HAL_Driver/Src/stm32f4xx_hal_rcc.c ****     /* Set the new LSE configuration -----------------------------------------*/
 440:./Libraries/STM32F4xx_HAL_Driver/Src/stm32f4xx_hal_rcc.c ****     __HAL_RCC_LSE_CONFIG(RCC_OscInitStruct->LSEState);
 480              		.loc 1 440 5 is_stmt 1 view .LVU157
 481              		.loc 1 440 5 view .LVU158
 482 0202 A368     		ldr	r3, [r4, #8]
 483 0204 012B     		cmp	r3, #1
 484 0206 34D0     		beq	.L80
 485              		.loc 1 440 5 discriminator 2 view .LVU159
 486 0208 052B     		cmp	r3, #5
ARM GAS  /tmp/ccLT17et.s 			page 18


 487 020a 38D0     		beq	.L81
 488              		.loc 1 440 5 discriminator 5 view .LVU160
 489 020c 214B     		ldr	r3, .L87
 490 020e 1A6F     		ldr	r2, [r3, #112]
 491 0210 22F00102 		bic	r2, r2, #1
 492 0214 1A67     		str	r2, [r3, #112]
 493              		.loc 1 440 5 discriminator 5 view .LVU161
 494 0216 1A6F     		ldr	r2, [r3, #112]
 495 0218 22F00402 		bic	r2, r2, #4
 496 021c 1A67     		str	r2, [r3, #112]
 497              	.L36:
 498              		.loc 1 440 5 discriminator 7 view .LVU162
 441:./Libraries/STM32F4xx_HAL_Driver/Src/stm32f4xx_hal_rcc.c ****     /* Check the LSE State */
 442:./Libraries/STM32F4xx_HAL_Driver/Src/stm32f4xx_hal_rcc.c ****     if((RCC_OscInitStruct->LSEState) != RCC_LSE_OFF)
 499              		.loc 1 442 5 discriminator 7 view .LVU163
 500              		.loc 1 442 26 is_stmt 0 discriminator 7 view .LVU164
 501 021e A368     		ldr	r3, [r4, #8]
 502              		.loc 1 442 7 discriminator 7 view .LVU165
 503 0220 002B     		cmp	r3, #0
 504 0222 3DD0     		beq	.L38
 443:./Libraries/STM32F4xx_HAL_Driver/Src/stm32f4xx_hal_rcc.c ****     {
 444:./Libraries/STM32F4xx_HAL_Driver/Src/stm32f4xx_hal_rcc.c ****       /* Get Start Tick*/
 445:./Libraries/STM32F4xx_HAL_Driver/Src/stm32f4xx_hal_rcc.c ****       tickstart = HAL_GetTick();
 505              		.loc 1 445 7 is_stmt 1 view .LVU166
 506              		.loc 1 445 19 is_stmt 0 view .LVU167
 507 0224 FFF7FEFF 		bl	HAL_GetTick
 508              	.LVL29:
 509 0228 0646     		mov	r6, r0
 510              	.LVL30:
 446:./Libraries/STM32F4xx_HAL_Driver/Src/stm32f4xx_hal_rcc.c **** 
 447:./Libraries/STM32F4xx_HAL_Driver/Src/stm32f4xx_hal_rcc.c ****       /* Wait till LSE is ready */
 448:./Libraries/STM32F4xx_HAL_Driver/Src/stm32f4xx_hal_rcc.c ****       while(__HAL_RCC_GET_FLAG(RCC_FLAG_LSERDY) == RESET)
 511              		.loc 1 448 7 is_stmt 1 view .LVU168
 512              	.L39:
 513              		.loc 1 448 12 view .LVU169
 514              		.loc 1 448 13 is_stmt 0 view .LVU170
 515 022a 1A4B     		ldr	r3, .L87
 516 022c 1B6F     		ldr	r3, [r3, #112]
 517              		.loc 1 448 12 view .LVU171
 518 022e 13F0020F 		tst	r3, #2
 519 0232 46D1     		bne	.L41
 449:./Libraries/STM32F4xx_HAL_Driver/Src/stm32f4xx_hal_rcc.c ****       {
 450:./Libraries/STM32F4xx_HAL_Driver/Src/stm32f4xx_hal_rcc.c ****         if((HAL_GetTick() - tickstart ) > RCC_LSE_TIMEOUT_VALUE)
 520              		.loc 1 450 9 is_stmt 1 view .LVU172
 521              		.loc 1 450 13 is_stmt 0 view .LVU173
 522 0234 FFF7FEFF 		bl	HAL_GetTick
 523              	.LVL31:
 524              		.loc 1 450 27 view .LVU174
 525 0238 801B     		subs	r0, r0, r6
 526              		.loc 1 450 11 view .LVU175
 527 023a 41F28833 		movw	r3, #5000
 528 023e 9842     		cmp	r0, r3
 529 0240 F3D9     		bls	.L39
 451:./Libraries/STM32F4xx_HAL_Driver/Src/stm32f4xx_hal_rcc.c ****         {
 452:./Libraries/STM32F4xx_HAL_Driver/Src/stm32f4xx_hal_rcc.c ****           return HAL_TIMEOUT;
 530              		.loc 1 452 18 view .LVU176
 531 0242 0320     		movs	r0, #3
ARM GAS  /tmp/ccLT17et.s 			page 19


 532 0244 A0E0     		b	.L3
 533              	.LVL32:
 534              	.L60:
 409:./Libraries/STM32F4xx_HAL_Driver/Src/stm32f4xx_hal_rcc.c **** 
 535              		.loc 1 409 22 view .LVU177
 536 0246 0025     		movs	r5, #0
 537 0248 D6E7     		b	.L31
 538              	.LVL33:
 539              	.L79:
 425:./Libraries/STM32F4xx_HAL_Driver/Src/stm32f4xx_hal_rcc.c **** 
 540              		.loc 1 425 7 is_stmt 1 view .LVU178
 541 024a 144A     		ldr	r2, .L87+8
 542 024c 1368     		ldr	r3, [r2]
 543 024e 43F48073 		orr	r3, r3, #256
 544 0252 1360     		str	r3, [r2]
 428:./Libraries/STM32F4xx_HAL_Driver/Src/stm32f4xx_hal_rcc.c **** 
 545              		.loc 1 428 7 view .LVU179
 428:./Libraries/STM32F4xx_HAL_Driver/Src/stm32f4xx_hal_rcc.c **** 
 546              		.loc 1 428 19 is_stmt 0 view .LVU180
 547 0254 FFF7FEFF 		bl	HAL_GetTick
 548              	.LVL34:
 549 0258 0646     		mov	r6, r0
 550              	.LVL35:
 430:./Libraries/STM32F4xx_HAL_Driver/Src/stm32f4xx_hal_rcc.c ****       {
 551              		.loc 1 430 7 is_stmt 1 view .LVU181
 552              	.L33:
 430:./Libraries/STM32F4xx_HAL_Driver/Src/stm32f4xx_hal_rcc.c ****       {
 553              		.loc 1 430 12 view .LVU182
 430:./Libraries/STM32F4xx_HAL_Driver/Src/stm32f4xx_hal_rcc.c ****       {
 554              		.loc 1 430 13 is_stmt 0 view .LVU183
 555 025a 104B     		ldr	r3, .L87+8
 556 025c 1B68     		ldr	r3, [r3]
 430:./Libraries/STM32F4xx_HAL_Driver/Src/stm32f4xx_hal_rcc.c ****       {
 557              		.loc 1 430 12 view .LVU184
 558 025e 13F4807F 		tst	r3, #256
 559 0262 CED1     		bne	.L32
 432:./Libraries/STM32F4xx_HAL_Driver/Src/stm32f4xx_hal_rcc.c ****         {
 560              		.loc 1 432 9 is_stmt 1 view .LVU185
 432:./Libraries/STM32F4xx_HAL_Driver/Src/stm32f4xx_hal_rcc.c ****         {
 561              		.loc 1 432 13 is_stmt 0 view .LVU186
 562 0264 FFF7FEFF 		bl	HAL_GetTick
 563              	.LVL36:
 432:./Libraries/STM32F4xx_HAL_Driver/Src/stm32f4xx_hal_rcc.c ****         {
 564              		.loc 1 432 27 view .LVU187
 565 0268 801B     		subs	r0, r0, r6
 432:./Libraries/STM32F4xx_HAL_Driver/Src/stm32f4xx_hal_rcc.c ****         {
 566              		.loc 1 432 11 view .LVU188
 567 026a 0228     		cmp	r0, #2
 568 026c F5D9     		bls	.L33
 434:./Libraries/STM32F4xx_HAL_Driver/Src/stm32f4xx_hal_rcc.c ****         }
 569              		.loc 1 434 18 view .LVU189
 570 026e 0320     		movs	r0, #3
 571 0270 8AE0     		b	.L3
 572              	.LVL37:
 573              	.L80:
 440:./Libraries/STM32F4xx_HAL_Driver/Src/stm32f4xx_hal_rcc.c ****     /* Check the LSE State */
 574              		.loc 1 440 5 is_stmt 1 discriminator 1 view .LVU190
ARM GAS  /tmp/ccLT17et.s 			page 20


 575 0272 084A     		ldr	r2, .L87
 576 0274 136F     		ldr	r3, [r2, #112]
 577 0276 43F00103 		orr	r3, r3, #1
 578 027a 1367     		str	r3, [r2, #112]
 579 027c CFE7     		b	.L36
 580              	.L81:
 440:./Libraries/STM32F4xx_HAL_Driver/Src/stm32f4xx_hal_rcc.c ****     /* Check the LSE State */
 581              		.loc 1 440 5 discriminator 4 view .LVU191
 582 027e 054B     		ldr	r3, .L87
 583 0280 1A6F     		ldr	r2, [r3, #112]
 584 0282 42F00402 		orr	r2, r2, #4
 585 0286 1A67     		str	r2, [r3, #112]
 440:./Libraries/STM32F4xx_HAL_Driver/Src/stm32f4xx_hal_rcc.c ****     /* Check the LSE State */
 586              		.loc 1 440 5 discriminator 4 view .LVU192
 587 0288 1A6F     		ldr	r2, [r3, #112]
 588 028a 42F00102 		orr	r2, r2, #1
 589 028e 1A67     		str	r2, [r3, #112]
 590 0290 C5E7     		b	.L36
 591              	.L88:
 592 0292 00BF     		.align	2
 593              	.L87:
 594 0294 00380240 		.word	1073887232
 595 0298 00004742 		.word	1111949312
 596 029c 00700040 		.word	1073770496
 597              	.L38:
 453:./Libraries/STM32F4xx_HAL_Driver/Src/stm32f4xx_hal_rcc.c ****         }
 454:./Libraries/STM32F4xx_HAL_Driver/Src/stm32f4xx_hal_rcc.c ****       }
 455:./Libraries/STM32F4xx_HAL_Driver/Src/stm32f4xx_hal_rcc.c ****     }
 456:./Libraries/STM32F4xx_HAL_Driver/Src/stm32f4xx_hal_rcc.c ****     else
 457:./Libraries/STM32F4xx_HAL_Driver/Src/stm32f4xx_hal_rcc.c ****     {
 458:./Libraries/STM32F4xx_HAL_Driver/Src/stm32f4xx_hal_rcc.c ****       /* Get Start Tick */
 459:./Libraries/STM32F4xx_HAL_Driver/Src/stm32f4xx_hal_rcc.c ****       tickstart = HAL_GetTick();
 598              		.loc 1 459 7 view .LVU193
 599              		.loc 1 459 19 is_stmt 0 view .LVU194
 600 02a0 FFF7FEFF 		bl	HAL_GetTick
 601              	.LVL38:
 602 02a4 0646     		mov	r6, r0
 603              	.LVL39:
 460:./Libraries/STM32F4xx_HAL_Driver/Src/stm32f4xx_hal_rcc.c **** 
 461:./Libraries/STM32F4xx_HAL_Driver/Src/stm32f4xx_hal_rcc.c ****       /* Wait till LSE is ready */
 462:./Libraries/STM32F4xx_HAL_Driver/Src/stm32f4xx_hal_rcc.c ****       while(__HAL_RCC_GET_FLAG(RCC_FLAG_LSERDY) != RESET)
 604              		.loc 1 462 7 is_stmt 1 view .LVU195
 605              	.L42:
 606              		.loc 1 462 12 view .LVU196
 607              		.loc 1 462 13 is_stmt 0 view .LVU197
 608 02a6 3A4B     		ldr	r3, .L89
 609 02a8 1B6F     		ldr	r3, [r3, #112]
 610              		.loc 1 462 12 view .LVU198
 611 02aa 13F0020F 		tst	r3, #2
 612 02ae 08D0     		beq	.L41
 463:./Libraries/STM32F4xx_HAL_Driver/Src/stm32f4xx_hal_rcc.c ****       {
 464:./Libraries/STM32F4xx_HAL_Driver/Src/stm32f4xx_hal_rcc.c ****         if((HAL_GetTick() - tickstart ) > RCC_LSE_TIMEOUT_VALUE)
 613              		.loc 1 464 9 is_stmt 1 view .LVU199
 614              		.loc 1 464 13 is_stmt 0 view .LVU200
 615 02b0 FFF7FEFF 		bl	HAL_GetTick
 616              	.LVL40:
 617              		.loc 1 464 27 view .LVU201
ARM GAS  /tmp/ccLT17et.s 			page 21


 618 02b4 801B     		subs	r0, r0, r6
 619              		.loc 1 464 11 view .LVU202
 620 02b6 41F28833 		movw	r3, #5000
 621 02ba 9842     		cmp	r0, r3
 622 02bc F3D9     		bls	.L42
 465:./Libraries/STM32F4xx_HAL_Driver/Src/stm32f4xx_hal_rcc.c ****         {
 466:./Libraries/STM32F4xx_HAL_Driver/Src/stm32f4xx_hal_rcc.c ****           return HAL_TIMEOUT;
 623              		.loc 1 466 18 view .LVU203
 624 02be 0320     		movs	r0, #3
 625 02c0 62E0     		b	.L3
 626              	.L41:
 467:./Libraries/STM32F4xx_HAL_Driver/Src/stm32f4xx_hal_rcc.c ****         }
 468:./Libraries/STM32F4xx_HAL_Driver/Src/stm32f4xx_hal_rcc.c ****       }
 469:./Libraries/STM32F4xx_HAL_Driver/Src/stm32f4xx_hal_rcc.c ****     }
 470:./Libraries/STM32F4xx_HAL_Driver/Src/stm32f4xx_hal_rcc.c **** 
 471:./Libraries/STM32F4xx_HAL_Driver/Src/stm32f4xx_hal_rcc.c ****     /* Restore clock configuration if changed */
 472:./Libraries/STM32F4xx_HAL_Driver/Src/stm32f4xx_hal_rcc.c ****     if(pwrclkchanged == SET)
 627              		.loc 1 472 5 is_stmt 1 view .LVU204
 628              		.loc 1 472 7 is_stmt 0 view .LVU205
 629 02c2 E5B9     		cbnz	r5, .L82
 630              	.LVL41:
 631              	.L30:
 632              		.loc 1 472 7 view .LVU206
 633              	.LBE2:
 473:./Libraries/STM32F4xx_HAL_Driver/Src/stm32f4xx_hal_rcc.c ****     {
 474:./Libraries/STM32F4xx_HAL_Driver/Src/stm32f4xx_hal_rcc.c ****       __HAL_RCC_PWR_CLK_DISABLE();
 475:./Libraries/STM32F4xx_HAL_Driver/Src/stm32f4xx_hal_rcc.c ****     }
 476:./Libraries/STM32F4xx_HAL_Driver/Src/stm32f4xx_hal_rcc.c ****   }
 477:./Libraries/STM32F4xx_HAL_Driver/Src/stm32f4xx_hal_rcc.c ****   /*-------------------------------- PLL Configuration -----------------------*/
 478:./Libraries/STM32F4xx_HAL_Driver/Src/stm32f4xx_hal_rcc.c ****   /* Check the parameters */
 479:./Libraries/STM32F4xx_HAL_Driver/Src/stm32f4xx_hal_rcc.c ****   assert_param(IS_RCC_PLL(RCC_OscInitStruct->PLL.PLLState));
 634              		.loc 1 479 3 is_stmt 1 view .LVU207
 480:./Libraries/STM32F4xx_HAL_Driver/Src/stm32f4xx_hal_rcc.c ****   if ((RCC_OscInitStruct->PLL.PLLState) != RCC_PLL_NONE)
 635              		.loc 1 480 3 view .LVU208
 636              		.loc 1 480 30 is_stmt 0 view .LVU209
 637 02c4 A369     		ldr	r3, [r4, #24]
 638              		.loc 1 480 6 view .LVU210
 639 02c6 002B     		cmp	r3, #0
 640 02c8 5DD0     		beq	.L64
 481:./Libraries/STM32F4xx_HAL_Driver/Src/stm32f4xx_hal_rcc.c ****   {
 482:./Libraries/STM32F4xx_HAL_Driver/Src/stm32f4xx_hal_rcc.c ****     /* Check if the PLL is used as system clock or not */
 483:./Libraries/STM32F4xx_HAL_Driver/Src/stm32f4xx_hal_rcc.c ****     if(__HAL_RCC_GET_SYSCLK_SOURCE() != RCC_CFGR_SWS_PLL)
 641              		.loc 1 483 5 is_stmt 1 view .LVU211
 642              		.loc 1 483 8 is_stmt 0 view .LVU212
 643 02ca 314A     		ldr	r2, .L89
 644 02cc 9268     		ldr	r2, [r2, #8]
 645 02ce 02F00C02 		and	r2, r2, #12
 646              		.loc 1 483 7 view .LVU213
 647 02d2 082A     		cmp	r2, #8
 648 02d4 5AD0     		beq	.L65
 484:./Libraries/STM32F4xx_HAL_Driver/Src/stm32f4xx_hal_rcc.c ****     {
 485:./Libraries/STM32F4xx_HAL_Driver/Src/stm32f4xx_hal_rcc.c ****       if((RCC_OscInitStruct->PLL.PLLState) == RCC_PLL_ON)
 649              		.loc 1 485 7 is_stmt 1 view .LVU214
 650              		.loc 1 485 9 is_stmt 0 view .LVU215
 651 02d6 022B     		cmp	r3, #2
 652 02d8 17D0     		beq	.L83
 486:./Libraries/STM32F4xx_HAL_Driver/Src/stm32f4xx_hal_rcc.c ****       {
ARM GAS  /tmp/ccLT17et.s 			page 22


 487:./Libraries/STM32F4xx_HAL_Driver/Src/stm32f4xx_hal_rcc.c ****         /* Check the parameters */
 488:./Libraries/STM32F4xx_HAL_Driver/Src/stm32f4xx_hal_rcc.c ****         assert_param(IS_RCC_PLLSOURCE(RCC_OscInitStruct->PLL.PLLSource));
 489:./Libraries/STM32F4xx_HAL_Driver/Src/stm32f4xx_hal_rcc.c ****         assert_param(IS_RCC_PLLM_VALUE(RCC_OscInitStruct->PLL.PLLM));
 490:./Libraries/STM32F4xx_HAL_Driver/Src/stm32f4xx_hal_rcc.c ****         assert_param(IS_RCC_PLLN_VALUE(RCC_OscInitStruct->PLL.PLLN));
 491:./Libraries/STM32F4xx_HAL_Driver/Src/stm32f4xx_hal_rcc.c ****         assert_param(IS_RCC_PLLP_VALUE(RCC_OscInitStruct->PLL.PLLP));
 492:./Libraries/STM32F4xx_HAL_Driver/Src/stm32f4xx_hal_rcc.c ****         assert_param(IS_RCC_PLLQ_VALUE(RCC_OscInitStruct->PLL.PLLQ));
 493:./Libraries/STM32F4xx_HAL_Driver/Src/stm32f4xx_hal_rcc.c **** 
 494:./Libraries/STM32F4xx_HAL_Driver/Src/stm32f4xx_hal_rcc.c ****         /* Disable the main PLL. */
 495:./Libraries/STM32F4xx_HAL_Driver/Src/stm32f4xx_hal_rcc.c ****         __HAL_RCC_PLL_DISABLE();
 496:./Libraries/STM32F4xx_HAL_Driver/Src/stm32f4xx_hal_rcc.c **** 
 497:./Libraries/STM32F4xx_HAL_Driver/Src/stm32f4xx_hal_rcc.c ****         /* Get Start Tick */
 498:./Libraries/STM32F4xx_HAL_Driver/Src/stm32f4xx_hal_rcc.c ****         tickstart = HAL_GetTick();
 499:./Libraries/STM32F4xx_HAL_Driver/Src/stm32f4xx_hal_rcc.c **** 
 500:./Libraries/STM32F4xx_HAL_Driver/Src/stm32f4xx_hal_rcc.c ****         /* Wait till PLL is ready */
 501:./Libraries/STM32F4xx_HAL_Driver/Src/stm32f4xx_hal_rcc.c ****         while(__HAL_RCC_GET_FLAG(RCC_FLAG_PLLRDY) != RESET)
 502:./Libraries/STM32F4xx_HAL_Driver/Src/stm32f4xx_hal_rcc.c ****         {
 503:./Libraries/STM32F4xx_HAL_Driver/Src/stm32f4xx_hal_rcc.c ****           if((HAL_GetTick() - tickstart ) > PLL_TIMEOUT_VALUE)
 504:./Libraries/STM32F4xx_HAL_Driver/Src/stm32f4xx_hal_rcc.c ****           {
 505:./Libraries/STM32F4xx_HAL_Driver/Src/stm32f4xx_hal_rcc.c ****             return HAL_TIMEOUT;
 506:./Libraries/STM32F4xx_HAL_Driver/Src/stm32f4xx_hal_rcc.c ****           }
 507:./Libraries/STM32F4xx_HAL_Driver/Src/stm32f4xx_hal_rcc.c ****         }
 508:./Libraries/STM32F4xx_HAL_Driver/Src/stm32f4xx_hal_rcc.c **** 
 509:./Libraries/STM32F4xx_HAL_Driver/Src/stm32f4xx_hal_rcc.c ****         /* Configure the main PLL clock source, multiplication and division factors. */
 510:./Libraries/STM32F4xx_HAL_Driver/Src/stm32f4xx_hal_rcc.c ****         WRITE_REG(RCC->PLLCFGR, (RCC_OscInitStruct->PLL.PLLSource                                  
 511:./Libraries/STM32F4xx_HAL_Driver/Src/stm32f4xx_hal_rcc.c ****                                  RCC_OscInitStruct->PLL.PLLM                                       
 512:./Libraries/STM32F4xx_HAL_Driver/Src/stm32f4xx_hal_rcc.c ****                                  (RCC_OscInitStruct->PLL.PLLN << RCC_PLLCFGR_PLLN_Pos)             
 513:./Libraries/STM32F4xx_HAL_Driver/Src/stm32f4xx_hal_rcc.c ****                                  (((RCC_OscInitStruct->PLL.PLLP >> 1U) - 1U) << RCC_PLLCFGR_PLLP_Po
 514:./Libraries/STM32F4xx_HAL_Driver/Src/stm32f4xx_hal_rcc.c ****                                  (RCC_OscInitStruct->PLL.PLLQ << RCC_PLLCFGR_PLLQ_Pos)));
 515:./Libraries/STM32F4xx_HAL_Driver/Src/stm32f4xx_hal_rcc.c ****         /* Enable the main PLL. */
 516:./Libraries/STM32F4xx_HAL_Driver/Src/stm32f4xx_hal_rcc.c ****         __HAL_RCC_PLL_ENABLE();
 517:./Libraries/STM32F4xx_HAL_Driver/Src/stm32f4xx_hal_rcc.c **** 
 518:./Libraries/STM32F4xx_HAL_Driver/Src/stm32f4xx_hal_rcc.c ****         /* Get Start Tick */
 519:./Libraries/STM32F4xx_HAL_Driver/Src/stm32f4xx_hal_rcc.c ****         tickstart = HAL_GetTick();
 520:./Libraries/STM32F4xx_HAL_Driver/Src/stm32f4xx_hal_rcc.c **** 
 521:./Libraries/STM32F4xx_HAL_Driver/Src/stm32f4xx_hal_rcc.c ****         /* Wait till PLL is ready */
 522:./Libraries/STM32F4xx_HAL_Driver/Src/stm32f4xx_hal_rcc.c ****         while(__HAL_RCC_GET_FLAG(RCC_FLAG_PLLRDY) == RESET)
 523:./Libraries/STM32F4xx_HAL_Driver/Src/stm32f4xx_hal_rcc.c ****         {
 524:./Libraries/STM32F4xx_HAL_Driver/Src/stm32f4xx_hal_rcc.c ****           if((HAL_GetTick() - tickstart ) > PLL_TIMEOUT_VALUE)
 525:./Libraries/STM32F4xx_HAL_Driver/Src/stm32f4xx_hal_rcc.c ****           {
 526:./Libraries/STM32F4xx_HAL_Driver/Src/stm32f4xx_hal_rcc.c ****             return HAL_TIMEOUT;
 527:./Libraries/STM32F4xx_HAL_Driver/Src/stm32f4xx_hal_rcc.c ****           }
 528:./Libraries/STM32F4xx_HAL_Driver/Src/stm32f4xx_hal_rcc.c ****         }
 529:./Libraries/STM32F4xx_HAL_Driver/Src/stm32f4xx_hal_rcc.c ****       }
 530:./Libraries/STM32F4xx_HAL_Driver/Src/stm32f4xx_hal_rcc.c ****       else
 531:./Libraries/STM32F4xx_HAL_Driver/Src/stm32f4xx_hal_rcc.c ****       {
 532:./Libraries/STM32F4xx_HAL_Driver/Src/stm32f4xx_hal_rcc.c ****         /* Disable the main PLL. */
 533:./Libraries/STM32F4xx_HAL_Driver/Src/stm32f4xx_hal_rcc.c ****         __HAL_RCC_PLL_DISABLE();
 653              		.loc 1 533 9 is_stmt 1 view .LVU216
 654 02da 2E4B     		ldr	r3, .L89+4
 655 02dc 0022     		movs	r2, #0
 656 02de 1A66     		str	r2, [r3, #96]
 534:./Libraries/STM32F4xx_HAL_Driver/Src/stm32f4xx_hal_rcc.c **** 
 535:./Libraries/STM32F4xx_HAL_Driver/Src/stm32f4xx_hal_rcc.c ****         /* Get Start Tick */
 536:./Libraries/STM32F4xx_HAL_Driver/Src/stm32f4xx_hal_rcc.c ****         tickstart = HAL_GetTick();
 657              		.loc 1 536 9 view .LVU217
 658              		.loc 1 536 21 is_stmt 0 view .LVU218
 659 02e0 FFF7FEFF 		bl	HAL_GetTick
ARM GAS  /tmp/ccLT17et.s 			page 23


 660              	.LVL42:
 661 02e4 0446     		mov	r4, r0
 662              	.LVL43:
 537:./Libraries/STM32F4xx_HAL_Driver/Src/stm32f4xx_hal_rcc.c **** 
 538:./Libraries/STM32F4xx_HAL_Driver/Src/stm32f4xx_hal_rcc.c ****         /* Wait till PLL is ready */
 539:./Libraries/STM32F4xx_HAL_Driver/Src/stm32f4xx_hal_rcc.c ****         while(__HAL_RCC_GET_FLAG(RCC_FLAG_PLLRDY) != RESET)
 663              		.loc 1 539 9 is_stmt 1 view .LVU219
 664              	.L49:
 665              		.loc 1 539 14 view .LVU220
 666              		.loc 1 539 15 is_stmt 0 view .LVU221
 667 02e6 2A4B     		ldr	r3, .L89
 668 02e8 1B68     		ldr	r3, [r3]
 669              		.loc 1 539 14 view .LVU222
 670 02ea 13F0007F 		tst	r3, #33554432
 671 02ee 42D0     		beq	.L84
 540:./Libraries/STM32F4xx_HAL_Driver/Src/stm32f4xx_hal_rcc.c ****         {
 541:./Libraries/STM32F4xx_HAL_Driver/Src/stm32f4xx_hal_rcc.c ****           if((HAL_GetTick() - tickstart ) > PLL_TIMEOUT_VALUE)
 672              		.loc 1 541 11 is_stmt 1 view .LVU223
 673              		.loc 1 541 15 is_stmt 0 view .LVU224
 674 02f0 FFF7FEFF 		bl	HAL_GetTick
 675              	.LVL44:
 676              		.loc 1 541 29 view .LVU225
 677 02f4 001B     		subs	r0, r0, r4
 678              		.loc 1 541 13 view .LVU226
 679 02f6 0228     		cmp	r0, #2
 680 02f8 F5D9     		bls	.L49
 542:./Libraries/STM32F4xx_HAL_Driver/Src/stm32f4xx_hal_rcc.c ****           {
 543:./Libraries/STM32F4xx_HAL_Driver/Src/stm32f4xx_hal_rcc.c ****             return HAL_TIMEOUT;
 681              		.loc 1 543 20 view .LVU227
 682 02fa 0320     		movs	r0, #3
 683 02fc 44E0     		b	.L3
 684              	.LVL45:
 685              	.L82:
 686              	.LBB4:
 474:./Libraries/STM32F4xx_HAL_Driver/Src/stm32f4xx_hal_rcc.c ****     }
 687              		.loc 1 474 7 is_stmt 1 view .LVU228
 688 02fe 244A     		ldr	r2, .L89
 689 0300 136C     		ldr	r3, [r2, #64]
 690 0302 23F08053 		bic	r3, r3, #268435456
 691 0306 1364     		str	r3, [r2, #64]
 692 0308 DCE7     		b	.L30
 693              	.LVL46:
 694              	.L83:
 474:./Libraries/STM32F4xx_HAL_Driver/Src/stm32f4xx_hal_rcc.c ****     }
 695              		.loc 1 474 7 is_stmt 0 view .LVU229
 696              	.LBE4:
 488:./Libraries/STM32F4xx_HAL_Driver/Src/stm32f4xx_hal_rcc.c ****         assert_param(IS_RCC_PLLM_VALUE(RCC_OscInitStruct->PLL.PLLM));
 697              		.loc 1 488 9 is_stmt 1 view .LVU230
 489:./Libraries/STM32F4xx_HAL_Driver/Src/stm32f4xx_hal_rcc.c ****         assert_param(IS_RCC_PLLN_VALUE(RCC_OscInitStruct->PLL.PLLN));
 698              		.loc 1 489 9 view .LVU231
 490:./Libraries/STM32F4xx_HAL_Driver/Src/stm32f4xx_hal_rcc.c ****         assert_param(IS_RCC_PLLP_VALUE(RCC_OscInitStruct->PLL.PLLP));
 699              		.loc 1 490 9 view .LVU232
 491:./Libraries/STM32F4xx_HAL_Driver/Src/stm32f4xx_hal_rcc.c ****         assert_param(IS_RCC_PLLQ_VALUE(RCC_OscInitStruct->PLL.PLLQ));
 700              		.loc 1 491 9 view .LVU233
 492:./Libraries/STM32F4xx_HAL_Driver/Src/stm32f4xx_hal_rcc.c **** 
 701              		.loc 1 492 9 view .LVU234
 495:./Libraries/STM32F4xx_HAL_Driver/Src/stm32f4xx_hal_rcc.c **** 
ARM GAS  /tmp/ccLT17et.s 			page 24


 702              		.loc 1 495 9 view .LVU235
 703 030a 224B     		ldr	r3, .L89+4
 704 030c 0022     		movs	r2, #0
 705 030e 1A66     		str	r2, [r3, #96]
 498:./Libraries/STM32F4xx_HAL_Driver/Src/stm32f4xx_hal_rcc.c **** 
 706              		.loc 1 498 9 view .LVU236
 498:./Libraries/STM32F4xx_HAL_Driver/Src/stm32f4xx_hal_rcc.c **** 
 707              		.loc 1 498 21 is_stmt 0 view .LVU237
 708 0310 FFF7FEFF 		bl	HAL_GetTick
 709              	.LVL47:
 710 0314 0546     		mov	r5, r0
 711              	.LVL48:
 501:./Libraries/STM32F4xx_HAL_Driver/Src/stm32f4xx_hal_rcc.c ****         {
 712              		.loc 1 501 9 is_stmt 1 view .LVU238
 713              	.L45:
 501:./Libraries/STM32F4xx_HAL_Driver/Src/stm32f4xx_hal_rcc.c ****         {
 714              		.loc 1 501 14 view .LVU239
 501:./Libraries/STM32F4xx_HAL_Driver/Src/stm32f4xx_hal_rcc.c ****         {
 715              		.loc 1 501 15 is_stmt 0 view .LVU240
 716 0316 1E4B     		ldr	r3, .L89
 717 0318 1B68     		ldr	r3, [r3]
 501:./Libraries/STM32F4xx_HAL_Driver/Src/stm32f4xx_hal_rcc.c ****         {
 718              		.loc 1 501 14 view .LVU241
 719 031a 13F0007F 		tst	r3, #33554432
 720 031e 06D0     		beq	.L85
 503:./Libraries/STM32F4xx_HAL_Driver/Src/stm32f4xx_hal_rcc.c ****           {
 721              		.loc 1 503 11 is_stmt 1 view .LVU242
 503:./Libraries/STM32F4xx_HAL_Driver/Src/stm32f4xx_hal_rcc.c ****           {
 722              		.loc 1 503 15 is_stmt 0 view .LVU243
 723 0320 FFF7FEFF 		bl	HAL_GetTick
 724              	.LVL49:
 503:./Libraries/STM32F4xx_HAL_Driver/Src/stm32f4xx_hal_rcc.c ****           {
 725              		.loc 1 503 29 view .LVU244
 726 0324 401B     		subs	r0, r0, r5
 503:./Libraries/STM32F4xx_HAL_Driver/Src/stm32f4xx_hal_rcc.c ****           {
 727              		.loc 1 503 13 view .LVU245
 728 0326 0228     		cmp	r0, #2
 729 0328 F5D9     		bls	.L45
 505:./Libraries/STM32F4xx_HAL_Driver/Src/stm32f4xx_hal_rcc.c ****           }
 730              		.loc 1 505 20 view .LVU246
 731 032a 0320     		movs	r0, #3
 732 032c 2CE0     		b	.L3
 733              	.L85:
 510:./Libraries/STM32F4xx_HAL_Driver/Src/stm32f4xx_hal_rcc.c ****                                  RCC_OscInitStruct->PLL.PLLM                                       
 734              		.loc 1 510 9 is_stmt 1 view .LVU247
 735 032e E369     		ldr	r3, [r4, #28]
 736 0330 226A     		ldr	r2, [r4, #32]
 737 0332 1343     		orrs	r3, r3, r2
 738 0334 626A     		ldr	r2, [r4, #36]
 739 0336 43EA8213 		orr	r3, r3, r2, lsl #6
 740 033a A26A     		ldr	r2, [r4, #40]
 741 033c 5208     		lsrs	r2, r2, #1
 742 033e 013A     		subs	r2, r2, #1
 743 0340 43EA0243 		orr	r3, r3, r2, lsl #16
 744 0344 E26A     		ldr	r2, [r4, #44]
 745 0346 43EA0263 		orr	r3, r3, r2, lsl #24
 746 034a 114A     		ldr	r2, .L89
ARM GAS  /tmp/ccLT17et.s 			page 25


 747 034c 5360     		str	r3, [r2, #4]
 516:./Libraries/STM32F4xx_HAL_Driver/Src/stm32f4xx_hal_rcc.c **** 
 748              		.loc 1 516 9 view .LVU248
 749 034e 114B     		ldr	r3, .L89+4
 750 0350 0122     		movs	r2, #1
 751 0352 1A66     		str	r2, [r3, #96]
 519:./Libraries/STM32F4xx_HAL_Driver/Src/stm32f4xx_hal_rcc.c **** 
 752              		.loc 1 519 9 view .LVU249
 519:./Libraries/STM32F4xx_HAL_Driver/Src/stm32f4xx_hal_rcc.c **** 
 753              		.loc 1 519 21 is_stmt 0 view .LVU250
 754 0354 FFF7FEFF 		bl	HAL_GetTick
 755              	.LVL50:
 756 0358 0446     		mov	r4, r0
 757              	.LVL51:
 522:./Libraries/STM32F4xx_HAL_Driver/Src/stm32f4xx_hal_rcc.c ****         {
 758              		.loc 1 522 9 is_stmt 1 view .LVU251
 759              	.L47:
 522:./Libraries/STM32F4xx_HAL_Driver/Src/stm32f4xx_hal_rcc.c ****         {
 760              		.loc 1 522 14 view .LVU252
 522:./Libraries/STM32F4xx_HAL_Driver/Src/stm32f4xx_hal_rcc.c ****         {
 761              		.loc 1 522 15 is_stmt 0 view .LVU253
 762 035a 0D4B     		ldr	r3, .L89
 763 035c 1B68     		ldr	r3, [r3]
 522:./Libraries/STM32F4xx_HAL_Driver/Src/stm32f4xx_hal_rcc.c ****         {
 764              		.loc 1 522 14 view .LVU254
 765 035e 13F0007F 		tst	r3, #33554432
 766 0362 06D1     		bne	.L86
 524:./Libraries/STM32F4xx_HAL_Driver/Src/stm32f4xx_hal_rcc.c ****           {
 767              		.loc 1 524 11 is_stmt 1 view .LVU255
 524:./Libraries/STM32F4xx_HAL_Driver/Src/stm32f4xx_hal_rcc.c ****           {
 768              		.loc 1 524 15 is_stmt 0 view .LVU256
 769 0364 FFF7FEFF 		bl	HAL_GetTick
 770              	.LVL52:
 524:./Libraries/STM32F4xx_HAL_Driver/Src/stm32f4xx_hal_rcc.c ****           {
 771              		.loc 1 524 29 view .LVU257
 772 0368 001B     		subs	r0, r0, r4
 524:./Libraries/STM32F4xx_HAL_Driver/Src/stm32f4xx_hal_rcc.c ****           {
 773              		.loc 1 524 13 view .LVU258
 774 036a 0228     		cmp	r0, #2
 775 036c F5D9     		bls	.L47
 526:./Libraries/STM32F4xx_HAL_Driver/Src/stm32f4xx_hal_rcc.c ****           }
 776              		.loc 1 526 20 view .LVU259
 777 036e 0320     		movs	r0, #3
 778 0370 0AE0     		b	.L3
 779              	.L86:
 544:./Libraries/STM32F4xx_HAL_Driver/Src/stm32f4xx_hal_rcc.c ****           }
 545:./Libraries/STM32F4xx_HAL_Driver/Src/stm32f4xx_hal_rcc.c ****         }
 546:./Libraries/STM32F4xx_HAL_Driver/Src/stm32f4xx_hal_rcc.c ****       }
 547:./Libraries/STM32F4xx_HAL_Driver/Src/stm32f4xx_hal_rcc.c ****     }
 548:./Libraries/STM32F4xx_HAL_Driver/Src/stm32f4xx_hal_rcc.c ****     else
 549:./Libraries/STM32F4xx_HAL_Driver/Src/stm32f4xx_hal_rcc.c ****     {
 550:./Libraries/STM32F4xx_HAL_Driver/Src/stm32f4xx_hal_rcc.c ****       return HAL_ERROR;
 551:./Libraries/STM32F4xx_HAL_Driver/Src/stm32f4xx_hal_rcc.c ****     }
 552:./Libraries/STM32F4xx_HAL_Driver/Src/stm32f4xx_hal_rcc.c ****   }
 553:./Libraries/STM32F4xx_HAL_Driver/Src/stm32f4xx_hal_rcc.c ****   return HAL_OK;
 780              		.loc 1 553 10 view .LVU260
 781 0372 0020     		movs	r0, #0
ARM GAS  /tmp/ccLT17et.s 			page 26


 782 0374 08E0     		b	.L3
 783              	.L84:
 784              		.loc 1 553 10 view .LVU261
 785 0376 0020     		movs	r0, #0
 786 0378 06E0     		b	.L3
 787              	.LVL53:
 788              	.L51:
 789              	.LCFI2:
 790              		.cfi_def_cfa_offset 0
 791              		.cfi_restore 4
 792              		.cfi_restore 5
 793              		.cfi_restore 6
 794              		.cfi_restore 14
 244:./Libraries/STM32F4xx_HAL_Driver/Src/stm32f4xx_hal_rcc.c ****   }
 795              		.loc 1 244 12 view .LVU262
 796 037a 0120     		movs	r0, #1
 797              	.LVL54:
 554:./Libraries/STM32F4xx_HAL_Driver/Src/stm32f4xx_hal_rcc.c **** }
 798              		.loc 1 554 1 view .LVU263
 799 037c 7047     		bx	lr
 800              	.LVL55:
 801              	.L76:
 802              	.LCFI3:
 803              		.cfi_def_cfa_offset 24
 804              		.cfi_offset 4, -16
 805              		.cfi_offset 5, -12
 806              		.cfi_offset 6, -8
 807              		.cfi_offset 14, -4
 260:./Libraries/STM32F4xx_HAL_Driver/Src/stm32f4xx_hal_rcc.c ****       }
 808              		.loc 1 260 16 view .LVU264
 809 037e 0120     		movs	r0, #1
 810              	.LVL56:
 260:./Libraries/STM32F4xx_HAL_Driver/Src/stm32f4xx_hal_rcc.c ****       }
 811              		.loc 1 260 16 view .LVU265
 812 0380 02E0     		b	.L3
 813              	.L55:
 313:./Libraries/STM32F4xx_HAL_Driver/Src/stm32f4xx_hal_rcc.c ****       }
 814              		.loc 1 313 16 view .LVU266
 815 0382 0120     		movs	r0, #1
 816 0384 00E0     		b	.L3
 817              	.L64:
 553:./Libraries/STM32F4xx_HAL_Driver/Src/stm32f4xx_hal_rcc.c **** }
 818              		.loc 1 553 10 view .LVU267
 819 0386 0020     		movs	r0, #0
 820              	.LVL57:
 821              	.L3:
 822              		.loc 1 554 1 view .LVU268
 823 0388 02B0     		add	sp, sp, #8
 824              	.LCFI4:
 825              		.cfi_remember_state
 826              		.cfi_def_cfa_offset 16
 827              		@ sp needed
 828 038a 70BD     		pop	{r4, r5, r6, pc}
 829              	.LVL58:
 830              	.L65:
 831              	.LCFI5:
 832              		.cfi_restore_state
ARM GAS  /tmp/ccLT17et.s 			page 27


 550:./Libraries/STM32F4xx_HAL_Driver/Src/stm32f4xx_hal_rcc.c ****     }
 833              		.loc 1 550 14 view .LVU269
 834 038c 0120     		movs	r0, #1
 835 038e FBE7     		b	.L3
 836              	.L90:
 837              		.align	2
 838              	.L89:
 839 0390 00380240 		.word	1073887232
 840 0394 00004742 		.word	1111949312
 841              		.cfi_endproc
 842              	.LFE127:
 844              		.section	.text.HAL_RCC_MCOConfig,"ax",%progbits
 845              		.align	1
 846              		.global	HAL_RCC_MCOConfig
 847              		.syntax unified
 848              		.thumb
 849              		.thumb_func
 850              		.fpu fpv4-sp-d16
 852              	HAL_RCC_MCOConfig:
 853              	.LVL59:
 854              	.LFB129:
 555:./Libraries/STM32F4xx_HAL_Driver/Src/stm32f4xx_hal_rcc.c **** 
 556:./Libraries/STM32F4xx_HAL_Driver/Src/stm32f4xx_hal_rcc.c **** /**
 557:./Libraries/STM32F4xx_HAL_Driver/Src/stm32f4xx_hal_rcc.c ****   * @brief  Initializes the CPU, AHB and APB busses clocks according to the specified
 558:./Libraries/STM32F4xx_HAL_Driver/Src/stm32f4xx_hal_rcc.c ****   *         parameters in the RCC_ClkInitStruct.
 559:./Libraries/STM32F4xx_HAL_Driver/Src/stm32f4xx_hal_rcc.c ****   * @param  RCC_ClkInitStruct pointer to an RCC_OscInitTypeDef structure that
 560:./Libraries/STM32F4xx_HAL_Driver/Src/stm32f4xx_hal_rcc.c ****   *         contains the configuration information for the RCC peripheral.
 561:./Libraries/STM32F4xx_HAL_Driver/Src/stm32f4xx_hal_rcc.c ****   * @param  FLatency FLASH Latency, this parameter depend on device selected
 562:./Libraries/STM32F4xx_HAL_Driver/Src/stm32f4xx_hal_rcc.c ****   *
 563:./Libraries/STM32F4xx_HAL_Driver/Src/stm32f4xx_hal_rcc.c ****   * @note   The SystemCoreClock CMSIS variable is used to store System Clock Frequency
 564:./Libraries/STM32F4xx_HAL_Driver/Src/stm32f4xx_hal_rcc.c ****   *         and updated by HAL_RCC_GetHCLKFreq() function called within this function
 565:./Libraries/STM32F4xx_HAL_Driver/Src/stm32f4xx_hal_rcc.c ****   *
 566:./Libraries/STM32F4xx_HAL_Driver/Src/stm32f4xx_hal_rcc.c ****   * @note   The HSI is used (enabled by hardware) as system clock source after
 567:./Libraries/STM32F4xx_HAL_Driver/Src/stm32f4xx_hal_rcc.c ****   *         startup from Reset, wake-up from STOP and STANDBY mode, or in case
 568:./Libraries/STM32F4xx_HAL_Driver/Src/stm32f4xx_hal_rcc.c ****   *         of failure of the HSE used directly or indirectly as system clock
 569:./Libraries/STM32F4xx_HAL_Driver/Src/stm32f4xx_hal_rcc.c ****   *         (if the Clock Security System CSS is enabled).
 570:./Libraries/STM32F4xx_HAL_Driver/Src/stm32f4xx_hal_rcc.c ****   *
 571:./Libraries/STM32F4xx_HAL_Driver/Src/stm32f4xx_hal_rcc.c ****   * @note   A switch from one clock source to another occurs only if the target
 572:./Libraries/STM32F4xx_HAL_Driver/Src/stm32f4xx_hal_rcc.c ****   *         clock source is ready (clock stable after startup delay or PLL locked).
 573:./Libraries/STM32F4xx_HAL_Driver/Src/stm32f4xx_hal_rcc.c ****   *         If a clock source which is not yet ready is selected, the switch will
 574:./Libraries/STM32F4xx_HAL_Driver/Src/stm32f4xx_hal_rcc.c ****   *         occur when the clock source will be ready.
 575:./Libraries/STM32F4xx_HAL_Driver/Src/stm32f4xx_hal_rcc.c ****   *
 576:./Libraries/STM32F4xx_HAL_Driver/Src/stm32f4xx_hal_rcc.c ****   * @note   Depending on the device voltage range, the software has to set correctly
 577:./Libraries/STM32F4xx_HAL_Driver/Src/stm32f4xx_hal_rcc.c ****   *         HPRE[3:0] bits to ensure that HCLK not exceed the maximum allowed frequency
 578:./Libraries/STM32F4xx_HAL_Driver/Src/stm32f4xx_hal_rcc.c ****   *         (for more details refer to section above "Initialization/de-initialization functions")
 579:./Libraries/STM32F4xx_HAL_Driver/Src/stm32f4xx_hal_rcc.c ****   * @retval None
 580:./Libraries/STM32F4xx_HAL_Driver/Src/stm32f4xx_hal_rcc.c ****   */
 581:./Libraries/STM32F4xx_HAL_Driver/Src/stm32f4xx_hal_rcc.c **** HAL_StatusTypeDef HAL_RCC_ClockConfig(RCC_ClkInitTypeDef  *RCC_ClkInitStruct, uint32_t FLatency)
 582:./Libraries/STM32F4xx_HAL_Driver/Src/stm32f4xx_hal_rcc.c **** {
 583:./Libraries/STM32F4xx_HAL_Driver/Src/stm32f4xx_hal_rcc.c ****   uint32_t tickstart;
 584:./Libraries/STM32F4xx_HAL_Driver/Src/stm32f4xx_hal_rcc.c **** 
 585:./Libraries/STM32F4xx_HAL_Driver/Src/stm32f4xx_hal_rcc.c ****   /* Check Null pointer */
 586:./Libraries/STM32F4xx_HAL_Driver/Src/stm32f4xx_hal_rcc.c ****   if(RCC_ClkInitStruct == NULL)
 587:./Libraries/STM32F4xx_HAL_Driver/Src/stm32f4xx_hal_rcc.c ****   {
 588:./Libraries/STM32F4xx_HAL_Driver/Src/stm32f4xx_hal_rcc.c ****     return HAL_ERROR;
 589:./Libraries/STM32F4xx_HAL_Driver/Src/stm32f4xx_hal_rcc.c ****   }
 590:./Libraries/STM32F4xx_HAL_Driver/Src/stm32f4xx_hal_rcc.c **** 
ARM GAS  /tmp/ccLT17et.s 			page 28


 591:./Libraries/STM32F4xx_HAL_Driver/Src/stm32f4xx_hal_rcc.c ****   /* Check the parameters */
 592:./Libraries/STM32F4xx_HAL_Driver/Src/stm32f4xx_hal_rcc.c ****   assert_param(IS_RCC_CLOCKTYPE(RCC_ClkInitStruct->ClockType));
 593:./Libraries/STM32F4xx_HAL_Driver/Src/stm32f4xx_hal_rcc.c ****   assert_param(IS_FLASH_LATENCY(FLatency));
 594:./Libraries/STM32F4xx_HAL_Driver/Src/stm32f4xx_hal_rcc.c **** 
 595:./Libraries/STM32F4xx_HAL_Driver/Src/stm32f4xx_hal_rcc.c ****   /* To correctly read data from FLASH memory, the number of wait states (LATENCY)
 596:./Libraries/STM32F4xx_HAL_Driver/Src/stm32f4xx_hal_rcc.c ****     must be correctly programmed according to the frequency of the CPU clock
 597:./Libraries/STM32F4xx_HAL_Driver/Src/stm32f4xx_hal_rcc.c ****     (HCLK) and the supply voltage of the device. */
 598:./Libraries/STM32F4xx_HAL_Driver/Src/stm32f4xx_hal_rcc.c **** 
 599:./Libraries/STM32F4xx_HAL_Driver/Src/stm32f4xx_hal_rcc.c ****   /* Increasing the number of wait states because of higher CPU frequency */
 600:./Libraries/STM32F4xx_HAL_Driver/Src/stm32f4xx_hal_rcc.c ****   if(FLatency > __HAL_FLASH_GET_LATENCY())
 601:./Libraries/STM32F4xx_HAL_Driver/Src/stm32f4xx_hal_rcc.c ****   {
 602:./Libraries/STM32F4xx_HAL_Driver/Src/stm32f4xx_hal_rcc.c ****     /* Program the new number of wait states to the LATENCY bits in the FLASH_ACR register */
 603:./Libraries/STM32F4xx_HAL_Driver/Src/stm32f4xx_hal_rcc.c ****     __HAL_FLASH_SET_LATENCY(FLatency);
 604:./Libraries/STM32F4xx_HAL_Driver/Src/stm32f4xx_hal_rcc.c **** 
 605:./Libraries/STM32F4xx_HAL_Driver/Src/stm32f4xx_hal_rcc.c ****     /* Check that the new number of wait states is taken into account to access the Flash
 606:./Libraries/STM32F4xx_HAL_Driver/Src/stm32f4xx_hal_rcc.c ****     memory by reading the FLASH_ACR register */
 607:./Libraries/STM32F4xx_HAL_Driver/Src/stm32f4xx_hal_rcc.c ****     if(__HAL_FLASH_GET_LATENCY() != FLatency)
 608:./Libraries/STM32F4xx_HAL_Driver/Src/stm32f4xx_hal_rcc.c ****     {
 609:./Libraries/STM32F4xx_HAL_Driver/Src/stm32f4xx_hal_rcc.c ****       return HAL_ERROR;
 610:./Libraries/STM32F4xx_HAL_Driver/Src/stm32f4xx_hal_rcc.c ****     }
 611:./Libraries/STM32F4xx_HAL_Driver/Src/stm32f4xx_hal_rcc.c ****   }
 612:./Libraries/STM32F4xx_HAL_Driver/Src/stm32f4xx_hal_rcc.c **** 
 613:./Libraries/STM32F4xx_HAL_Driver/Src/stm32f4xx_hal_rcc.c ****   /*-------------------------- HCLK Configuration --------------------------*/
 614:./Libraries/STM32F4xx_HAL_Driver/Src/stm32f4xx_hal_rcc.c ****   if(((RCC_ClkInitStruct->ClockType) & RCC_CLOCKTYPE_HCLK) == RCC_CLOCKTYPE_HCLK)
 615:./Libraries/STM32F4xx_HAL_Driver/Src/stm32f4xx_hal_rcc.c ****   {
 616:./Libraries/STM32F4xx_HAL_Driver/Src/stm32f4xx_hal_rcc.c ****     /* Set the highest APBx dividers in order to ensure that we do not go through
 617:./Libraries/STM32F4xx_HAL_Driver/Src/stm32f4xx_hal_rcc.c ****        a non-spec phase whatever we decrease or increase HCLK. */
 618:./Libraries/STM32F4xx_HAL_Driver/Src/stm32f4xx_hal_rcc.c ****     if(((RCC_ClkInitStruct->ClockType) & RCC_CLOCKTYPE_PCLK1) == RCC_CLOCKTYPE_PCLK1)
 619:./Libraries/STM32F4xx_HAL_Driver/Src/stm32f4xx_hal_rcc.c ****     {
 620:./Libraries/STM32F4xx_HAL_Driver/Src/stm32f4xx_hal_rcc.c ****       MODIFY_REG(RCC->CFGR, RCC_CFGR_PPRE1, RCC_HCLK_DIV16);
 621:./Libraries/STM32F4xx_HAL_Driver/Src/stm32f4xx_hal_rcc.c ****     }
 622:./Libraries/STM32F4xx_HAL_Driver/Src/stm32f4xx_hal_rcc.c **** 
 623:./Libraries/STM32F4xx_HAL_Driver/Src/stm32f4xx_hal_rcc.c ****     if(((RCC_ClkInitStruct->ClockType) & RCC_CLOCKTYPE_PCLK2) == RCC_CLOCKTYPE_PCLK2)
 624:./Libraries/STM32F4xx_HAL_Driver/Src/stm32f4xx_hal_rcc.c ****     {
 625:./Libraries/STM32F4xx_HAL_Driver/Src/stm32f4xx_hal_rcc.c ****       MODIFY_REG(RCC->CFGR, RCC_CFGR_PPRE2, (RCC_HCLK_DIV16 << 3));
 626:./Libraries/STM32F4xx_HAL_Driver/Src/stm32f4xx_hal_rcc.c ****     }
 627:./Libraries/STM32F4xx_HAL_Driver/Src/stm32f4xx_hal_rcc.c **** 
 628:./Libraries/STM32F4xx_HAL_Driver/Src/stm32f4xx_hal_rcc.c ****     assert_param(IS_RCC_HCLK(RCC_ClkInitStruct->AHBCLKDivider));
 629:./Libraries/STM32F4xx_HAL_Driver/Src/stm32f4xx_hal_rcc.c ****     MODIFY_REG(RCC->CFGR, RCC_CFGR_HPRE, RCC_ClkInitStruct->AHBCLKDivider);
 630:./Libraries/STM32F4xx_HAL_Driver/Src/stm32f4xx_hal_rcc.c ****   }
 631:./Libraries/STM32F4xx_HAL_Driver/Src/stm32f4xx_hal_rcc.c **** 
 632:./Libraries/STM32F4xx_HAL_Driver/Src/stm32f4xx_hal_rcc.c ****   /*------------------------- SYSCLK Configuration ---------------------------*/
 633:./Libraries/STM32F4xx_HAL_Driver/Src/stm32f4xx_hal_rcc.c ****   if(((RCC_ClkInitStruct->ClockType) & RCC_CLOCKTYPE_SYSCLK) == RCC_CLOCKTYPE_SYSCLK)
 634:./Libraries/STM32F4xx_HAL_Driver/Src/stm32f4xx_hal_rcc.c ****   {
 635:./Libraries/STM32F4xx_HAL_Driver/Src/stm32f4xx_hal_rcc.c ****     assert_param(IS_RCC_SYSCLKSOURCE(RCC_ClkInitStruct->SYSCLKSource));
 636:./Libraries/STM32F4xx_HAL_Driver/Src/stm32f4xx_hal_rcc.c **** 
 637:./Libraries/STM32F4xx_HAL_Driver/Src/stm32f4xx_hal_rcc.c ****     /* HSE is selected as System Clock Source */
 638:./Libraries/STM32F4xx_HAL_Driver/Src/stm32f4xx_hal_rcc.c ****     if(RCC_ClkInitStruct->SYSCLKSource == RCC_SYSCLKSOURCE_HSE)
 639:./Libraries/STM32F4xx_HAL_Driver/Src/stm32f4xx_hal_rcc.c ****     {
 640:./Libraries/STM32F4xx_HAL_Driver/Src/stm32f4xx_hal_rcc.c ****       /* Check the HSE ready flag */
 641:./Libraries/STM32F4xx_HAL_Driver/Src/stm32f4xx_hal_rcc.c ****       if(__HAL_RCC_GET_FLAG(RCC_FLAG_HSERDY) == RESET)
 642:./Libraries/STM32F4xx_HAL_Driver/Src/stm32f4xx_hal_rcc.c ****       {
 643:./Libraries/STM32F4xx_HAL_Driver/Src/stm32f4xx_hal_rcc.c ****         return HAL_ERROR;
 644:./Libraries/STM32F4xx_HAL_Driver/Src/stm32f4xx_hal_rcc.c ****       }
 645:./Libraries/STM32F4xx_HAL_Driver/Src/stm32f4xx_hal_rcc.c ****     }
 646:./Libraries/STM32F4xx_HAL_Driver/Src/stm32f4xx_hal_rcc.c ****     /* PLL is selected as System Clock Source */
 647:./Libraries/STM32F4xx_HAL_Driver/Src/stm32f4xx_hal_rcc.c ****     else if((RCC_ClkInitStruct->SYSCLKSource == RCC_SYSCLKSOURCE_PLLCLK)   ||
ARM GAS  /tmp/ccLT17et.s 			page 29


 648:./Libraries/STM32F4xx_HAL_Driver/Src/stm32f4xx_hal_rcc.c ****             (RCC_ClkInitStruct->SYSCLKSource == RCC_SYSCLKSOURCE_PLLRCLK))
 649:./Libraries/STM32F4xx_HAL_Driver/Src/stm32f4xx_hal_rcc.c ****     {
 650:./Libraries/STM32F4xx_HAL_Driver/Src/stm32f4xx_hal_rcc.c ****       /* Check the PLL ready flag */
 651:./Libraries/STM32F4xx_HAL_Driver/Src/stm32f4xx_hal_rcc.c ****       if(__HAL_RCC_GET_FLAG(RCC_FLAG_PLLRDY) == RESET)
 652:./Libraries/STM32F4xx_HAL_Driver/Src/stm32f4xx_hal_rcc.c ****       {
 653:./Libraries/STM32F4xx_HAL_Driver/Src/stm32f4xx_hal_rcc.c ****         return HAL_ERROR;
 654:./Libraries/STM32F4xx_HAL_Driver/Src/stm32f4xx_hal_rcc.c ****       }
 655:./Libraries/STM32F4xx_HAL_Driver/Src/stm32f4xx_hal_rcc.c ****     }
 656:./Libraries/STM32F4xx_HAL_Driver/Src/stm32f4xx_hal_rcc.c ****     /* HSI is selected as System Clock Source */
 657:./Libraries/STM32F4xx_HAL_Driver/Src/stm32f4xx_hal_rcc.c ****     else
 658:./Libraries/STM32F4xx_HAL_Driver/Src/stm32f4xx_hal_rcc.c ****     {
 659:./Libraries/STM32F4xx_HAL_Driver/Src/stm32f4xx_hal_rcc.c ****       /* Check the HSI ready flag */
 660:./Libraries/STM32F4xx_HAL_Driver/Src/stm32f4xx_hal_rcc.c ****       if(__HAL_RCC_GET_FLAG(RCC_FLAG_HSIRDY) == RESET)
 661:./Libraries/STM32F4xx_HAL_Driver/Src/stm32f4xx_hal_rcc.c ****       {
 662:./Libraries/STM32F4xx_HAL_Driver/Src/stm32f4xx_hal_rcc.c ****         return HAL_ERROR;
 663:./Libraries/STM32F4xx_HAL_Driver/Src/stm32f4xx_hal_rcc.c ****       }
 664:./Libraries/STM32F4xx_HAL_Driver/Src/stm32f4xx_hal_rcc.c ****     }
 665:./Libraries/STM32F4xx_HAL_Driver/Src/stm32f4xx_hal_rcc.c **** 
 666:./Libraries/STM32F4xx_HAL_Driver/Src/stm32f4xx_hal_rcc.c ****     __HAL_RCC_SYSCLK_CONFIG(RCC_ClkInitStruct->SYSCLKSource);
 667:./Libraries/STM32F4xx_HAL_Driver/Src/stm32f4xx_hal_rcc.c **** 
 668:./Libraries/STM32F4xx_HAL_Driver/Src/stm32f4xx_hal_rcc.c ****     /* Get Start Tick */
 669:./Libraries/STM32F4xx_HAL_Driver/Src/stm32f4xx_hal_rcc.c ****     tickstart = HAL_GetTick();
 670:./Libraries/STM32F4xx_HAL_Driver/Src/stm32f4xx_hal_rcc.c **** 
 671:./Libraries/STM32F4xx_HAL_Driver/Src/stm32f4xx_hal_rcc.c ****     while (__HAL_RCC_GET_SYSCLK_SOURCE() != (RCC_ClkInitStruct->SYSCLKSource << RCC_CFGR_SWS_Pos))
 672:./Libraries/STM32F4xx_HAL_Driver/Src/stm32f4xx_hal_rcc.c ****     {
 673:./Libraries/STM32F4xx_HAL_Driver/Src/stm32f4xx_hal_rcc.c ****       if ((HAL_GetTick() - tickstart) > CLOCKSWITCH_TIMEOUT_VALUE)
 674:./Libraries/STM32F4xx_HAL_Driver/Src/stm32f4xx_hal_rcc.c ****       {
 675:./Libraries/STM32F4xx_HAL_Driver/Src/stm32f4xx_hal_rcc.c ****         return HAL_TIMEOUT;
 676:./Libraries/STM32F4xx_HAL_Driver/Src/stm32f4xx_hal_rcc.c ****       }
 677:./Libraries/STM32F4xx_HAL_Driver/Src/stm32f4xx_hal_rcc.c ****     }
 678:./Libraries/STM32F4xx_HAL_Driver/Src/stm32f4xx_hal_rcc.c ****   }
 679:./Libraries/STM32F4xx_HAL_Driver/Src/stm32f4xx_hal_rcc.c **** 
 680:./Libraries/STM32F4xx_HAL_Driver/Src/stm32f4xx_hal_rcc.c ****   /* Decreasing the number of wait states because of lower CPU frequency */
 681:./Libraries/STM32F4xx_HAL_Driver/Src/stm32f4xx_hal_rcc.c ****   if(FLatency < __HAL_FLASH_GET_LATENCY())
 682:./Libraries/STM32F4xx_HAL_Driver/Src/stm32f4xx_hal_rcc.c ****   {
 683:./Libraries/STM32F4xx_HAL_Driver/Src/stm32f4xx_hal_rcc.c ****      /* Program the new number of wait states to the LATENCY bits in the FLASH_ACR register */
 684:./Libraries/STM32F4xx_HAL_Driver/Src/stm32f4xx_hal_rcc.c ****     __HAL_FLASH_SET_LATENCY(FLatency);
 685:./Libraries/STM32F4xx_HAL_Driver/Src/stm32f4xx_hal_rcc.c **** 
 686:./Libraries/STM32F4xx_HAL_Driver/Src/stm32f4xx_hal_rcc.c ****     /* Check that the new number of wait states is taken into account to access the Flash
 687:./Libraries/STM32F4xx_HAL_Driver/Src/stm32f4xx_hal_rcc.c ****     memory by reading the FLASH_ACR register */
 688:./Libraries/STM32F4xx_HAL_Driver/Src/stm32f4xx_hal_rcc.c ****     if(__HAL_FLASH_GET_LATENCY() != FLatency)
 689:./Libraries/STM32F4xx_HAL_Driver/Src/stm32f4xx_hal_rcc.c ****     {
 690:./Libraries/STM32F4xx_HAL_Driver/Src/stm32f4xx_hal_rcc.c ****       return HAL_ERROR;
 691:./Libraries/STM32F4xx_HAL_Driver/Src/stm32f4xx_hal_rcc.c ****     }
 692:./Libraries/STM32F4xx_HAL_Driver/Src/stm32f4xx_hal_rcc.c ****   }
 693:./Libraries/STM32F4xx_HAL_Driver/Src/stm32f4xx_hal_rcc.c **** 
 694:./Libraries/STM32F4xx_HAL_Driver/Src/stm32f4xx_hal_rcc.c ****   /*-------------------------- PCLK1 Configuration ---------------------------*/
 695:./Libraries/STM32F4xx_HAL_Driver/Src/stm32f4xx_hal_rcc.c ****   if(((RCC_ClkInitStruct->ClockType) & RCC_CLOCKTYPE_PCLK1) == RCC_CLOCKTYPE_PCLK1)
 696:./Libraries/STM32F4xx_HAL_Driver/Src/stm32f4xx_hal_rcc.c ****   {
 697:./Libraries/STM32F4xx_HAL_Driver/Src/stm32f4xx_hal_rcc.c ****     assert_param(IS_RCC_PCLK(RCC_ClkInitStruct->APB1CLKDivider));
 698:./Libraries/STM32F4xx_HAL_Driver/Src/stm32f4xx_hal_rcc.c ****     MODIFY_REG(RCC->CFGR, RCC_CFGR_PPRE1, RCC_ClkInitStruct->APB1CLKDivider);
 699:./Libraries/STM32F4xx_HAL_Driver/Src/stm32f4xx_hal_rcc.c ****   }
 700:./Libraries/STM32F4xx_HAL_Driver/Src/stm32f4xx_hal_rcc.c **** 
 701:./Libraries/STM32F4xx_HAL_Driver/Src/stm32f4xx_hal_rcc.c ****   /*-------------------------- PCLK2 Configuration ---------------------------*/
 702:./Libraries/STM32F4xx_HAL_Driver/Src/stm32f4xx_hal_rcc.c ****   if(((RCC_ClkInitStruct->ClockType) & RCC_CLOCKTYPE_PCLK2) == RCC_CLOCKTYPE_PCLK2)
 703:./Libraries/STM32F4xx_HAL_Driver/Src/stm32f4xx_hal_rcc.c ****   {
 704:./Libraries/STM32F4xx_HAL_Driver/Src/stm32f4xx_hal_rcc.c ****     assert_param(IS_RCC_PCLK(RCC_ClkInitStruct->APB2CLKDivider));
ARM GAS  /tmp/ccLT17et.s 			page 30


 705:./Libraries/STM32F4xx_HAL_Driver/Src/stm32f4xx_hal_rcc.c ****     MODIFY_REG(RCC->CFGR, RCC_CFGR_PPRE2, ((RCC_ClkInitStruct->APB2CLKDivider) << 3U));
 706:./Libraries/STM32F4xx_HAL_Driver/Src/stm32f4xx_hal_rcc.c ****   }
 707:./Libraries/STM32F4xx_HAL_Driver/Src/stm32f4xx_hal_rcc.c **** 
 708:./Libraries/STM32F4xx_HAL_Driver/Src/stm32f4xx_hal_rcc.c ****   /* Update the SystemCoreClock global variable */
 709:./Libraries/STM32F4xx_HAL_Driver/Src/stm32f4xx_hal_rcc.c ****   SystemCoreClock = HAL_RCC_GetSysClockFreq() >> AHBPrescTable[(RCC->CFGR & RCC_CFGR_HPRE)>> RCC_CF
 710:./Libraries/STM32F4xx_HAL_Driver/Src/stm32f4xx_hal_rcc.c **** 
 711:./Libraries/STM32F4xx_HAL_Driver/Src/stm32f4xx_hal_rcc.c ****   /* Configure the source of time base considering new system clocks settings */
 712:./Libraries/STM32F4xx_HAL_Driver/Src/stm32f4xx_hal_rcc.c ****   HAL_InitTick (TICK_INT_PRIORITY);
 713:./Libraries/STM32F4xx_HAL_Driver/Src/stm32f4xx_hal_rcc.c **** 
 714:./Libraries/STM32F4xx_HAL_Driver/Src/stm32f4xx_hal_rcc.c ****   return HAL_OK;
 715:./Libraries/STM32F4xx_HAL_Driver/Src/stm32f4xx_hal_rcc.c **** }
 716:./Libraries/STM32F4xx_HAL_Driver/Src/stm32f4xx_hal_rcc.c **** 
 717:./Libraries/STM32F4xx_HAL_Driver/Src/stm32f4xx_hal_rcc.c **** /**
 718:./Libraries/STM32F4xx_HAL_Driver/Src/stm32f4xx_hal_rcc.c ****   * @}
 719:./Libraries/STM32F4xx_HAL_Driver/Src/stm32f4xx_hal_rcc.c ****   */
 720:./Libraries/STM32F4xx_HAL_Driver/Src/stm32f4xx_hal_rcc.c **** 
 721:./Libraries/STM32F4xx_HAL_Driver/Src/stm32f4xx_hal_rcc.c **** /** @defgroup RCC_Exported_Functions_Group2 Peripheral Control functions
 722:./Libraries/STM32F4xx_HAL_Driver/Src/stm32f4xx_hal_rcc.c ****  *  @brief   RCC clocks control functions
 723:./Libraries/STM32F4xx_HAL_Driver/Src/stm32f4xx_hal_rcc.c ****  *
 724:./Libraries/STM32F4xx_HAL_Driver/Src/stm32f4xx_hal_rcc.c **** @verbatim
 725:./Libraries/STM32F4xx_HAL_Driver/Src/stm32f4xx_hal_rcc.c ****  ===============================================================================
 726:./Libraries/STM32F4xx_HAL_Driver/Src/stm32f4xx_hal_rcc.c ****                       ##### Peripheral Control functions #####
 727:./Libraries/STM32F4xx_HAL_Driver/Src/stm32f4xx_hal_rcc.c ****  ===============================================================================
 728:./Libraries/STM32F4xx_HAL_Driver/Src/stm32f4xx_hal_rcc.c ****     [..]
 729:./Libraries/STM32F4xx_HAL_Driver/Src/stm32f4xx_hal_rcc.c ****     This subsection provides a set of functions allowing to control the RCC Clocks
 730:./Libraries/STM32F4xx_HAL_Driver/Src/stm32f4xx_hal_rcc.c ****     frequencies.
 731:./Libraries/STM32F4xx_HAL_Driver/Src/stm32f4xx_hal_rcc.c **** 
 732:./Libraries/STM32F4xx_HAL_Driver/Src/stm32f4xx_hal_rcc.c **** @endverbatim
 733:./Libraries/STM32F4xx_HAL_Driver/Src/stm32f4xx_hal_rcc.c ****   * @{
 734:./Libraries/STM32F4xx_HAL_Driver/Src/stm32f4xx_hal_rcc.c ****   */
 735:./Libraries/STM32F4xx_HAL_Driver/Src/stm32f4xx_hal_rcc.c **** 
 736:./Libraries/STM32F4xx_HAL_Driver/Src/stm32f4xx_hal_rcc.c **** /**
 737:./Libraries/STM32F4xx_HAL_Driver/Src/stm32f4xx_hal_rcc.c ****   * @brief  Selects the clock source to output on MCO1 pin(PA8) or on MCO2 pin(PC9).
 738:./Libraries/STM32F4xx_HAL_Driver/Src/stm32f4xx_hal_rcc.c ****   * @note   PA8/PC9 should be configured in alternate function mode.
 739:./Libraries/STM32F4xx_HAL_Driver/Src/stm32f4xx_hal_rcc.c ****   * @param  RCC_MCOx specifies the output direction for the clock source.
 740:./Libraries/STM32F4xx_HAL_Driver/Src/stm32f4xx_hal_rcc.c ****   *          This parameter can be one of the following values:
 741:./Libraries/STM32F4xx_HAL_Driver/Src/stm32f4xx_hal_rcc.c ****   *            @arg RCC_MCO1: Clock source to output on MCO1 pin(PA8).
 742:./Libraries/STM32F4xx_HAL_Driver/Src/stm32f4xx_hal_rcc.c ****   *            @arg RCC_MCO2: Clock source to output on MCO2 pin(PC9).
 743:./Libraries/STM32F4xx_HAL_Driver/Src/stm32f4xx_hal_rcc.c ****   * @param  RCC_MCOSource specifies the clock source to output.
 744:./Libraries/STM32F4xx_HAL_Driver/Src/stm32f4xx_hal_rcc.c ****   *          This parameter can be one of the following values:
 745:./Libraries/STM32F4xx_HAL_Driver/Src/stm32f4xx_hal_rcc.c ****   *            @arg RCC_MCO1SOURCE_HSI: HSI clock selected as MCO1 source
 746:./Libraries/STM32F4xx_HAL_Driver/Src/stm32f4xx_hal_rcc.c ****   *            @arg RCC_MCO1SOURCE_LSE: LSE clock selected as MCO1 source
 747:./Libraries/STM32F4xx_HAL_Driver/Src/stm32f4xx_hal_rcc.c ****   *            @arg RCC_MCO1SOURCE_HSE: HSE clock selected as MCO1 source
 748:./Libraries/STM32F4xx_HAL_Driver/Src/stm32f4xx_hal_rcc.c ****   *            @arg RCC_MCO1SOURCE_PLLCLK: main PLL clock selected as MCO1 source
 749:./Libraries/STM32F4xx_HAL_Driver/Src/stm32f4xx_hal_rcc.c ****   *            @arg RCC_MCO2SOURCE_SYSCLK: System clock (SYSCLK) selected as MCO2 source
 750:./Libraries/STM32F4xx_HAL_Driver/Src/stm32f4xx_hal_rcc.c ****   *            @arg RCC_MCO2SOURCE_PLLI2SCLK: PLLI2S clock selected as MCO2 source, available for a
 751:./Libraries/STM32F4xx_HAL_Driver/Src/stm32f4xx_hal_rcc.c ****   *            @arg RCC_MCO2SOURCE_I2SCLK: I2SCLK clock selected as MCO2 source, available only for
 752:./Libraries/STM32F4xx_HAL_Driver/Src/stm32f4xx_hal_rcc.c ****   *            @arg RCC_MCO2SOURCE_HSE: HSE clock selected as MCO2 source
 753:./Libraries/STM32F4xx_HAL_Driver/Src/stm32f4xx_hal_rcc.c ****   *            @arg RCC_MCO2SOURCE_PLLCLK: main PLL clock selected as MCO2 source
 754:./Libraries/STM32F4xx_HAL_Driver/Src/stm32f4xx_hal_rcc.c ****   * @param  RCC_MCODiv specifies the MCOx prescaler.
 755:./Libraries/STM32F4xx_HAL_Driver/Src/stm32f4xx_hal_rcc.c ****   *          This parameter can be one of the following values:
 756:./Libraries/STM32F4xx_HAL_Driver/Src/stm32f4xx_hal_rcc.c ****   *            @arg RCC_MCODIV_1: no division applied to MCOx clock
 757:./Libraries/STM32F4xx_HAL_Driver/Src/stm32f4xx_hal_rcc.c ****   *            @arg RCC_MCODIV_2: division by 2 applied to MCOx clock
 758:./Libraries/STM32F4xx_HAL_Driver/Src/stm32f4xx_hal_rcc.c ****   *            @arg RCC_MCODIV_3: division by 3 applied to MCOx clock
 759:./Libraries/STM32F4xx_HAL_Driver/Src/stm32f4xx_hal_rcc.c ****   *            @arg RCC_MCODIV_4: division by 4 applied to MCOx clock
 760:./Libraries/STM32F4xx_HAL_Driver/Src/stm32f4xx_hal_rcc.c ****   *            @arg RCC_MCODIV_5: division by 5 applied to MCOx clock
 761:./Libraries/STM32F4xx_HAL_Driver/Src/stm32f4xx_hal_rcc.c ****   * @note  For STM32F410Rx devices to output I2SCLK clock on MCO2 you should have
ARM GAS  /tmp/ccLT17et.s 			page 31


 762:./Libraries/STM32F4xx_HAL_Driver/Src/stm32f4xx_hal_rcc.c ****   *        at last one of the SPI clocks enabled (SPI1, SPI2 or SPI5).
 763:./Libraries/STM32F4xx_HAL_Driver/Src/stm32f4xx_hal_rcc.c ****   * @retval None
 764:./Libraries/STM32F4xx_HAL_Driver/Src/stm32f4xx_hal_rcc.c ****   */
 765:./Libraries/STM32F4xx_HAL_Driver/Src/stm32f4xx_hal_rcc.c **** void HAL_RCC_MCOConfig(uint32_t RCC_MCOx, uint32_t RCC_MCOSource, uint32_t RCC_MCODiv)
 766:./Libraries/STM32F4xx_HAL_Driver/Src/stm32f4xx_hal_rcc.c **** {
 855              		.loc 1 766 1 is_stmt 1 view -0
 856              		.cfi_startproc
 857              		@ args = 0, pretend = 0, frame = 32
 858              		@ frame_needed = 0, uses_anonymous_args = 0
 859              		.loc 1 766 1 is_stmt 0 view .LVU271
 860 0000 70B5     		push	{r4, r5, r6, lr}
 861              	.LCFI6:
 862              		.cfi_def_cfa_offset 16
 863              		.cfi_offset 4, -16
 864              		.cfi_offset 5, -12
 865              		.cfi_offset 6, -8
 866              		.cfi_offset 14, -4
 867 0002 88B0     		sub	sp, sp, #32
 868              	.LCFI7:
 869              		.cfi_def_cfa_offset 48
 870 0004 0C46     		mov	r4, r1
 871 0006 1546     		mov	r5, r2
 767:./Libraries/STM32F4xx_HAL_Driver/Src/stm32f4xx_hal_rcc.c ****   GPIO_InitTypeDef GPIO_InitStruct;
 872              		.loc 1 767 3 is_stmt 1 view .LVU272
 768:./Libraries/STM32F4xx_HAL_Driver/Src/stm32f4xx_hal_rcc.c ****   /* Check the parameters */
 769:./Libraries/STM32F4xx_HAL_Driver/Src/stm32f4xx_hal_rcc.c ****   assert_param(IS_RCC_MCO(RCC_MCOx));
 873              		.loc 1 769 3 view .LVU273
 770:./Libraries/STM32F4xx_HAL_Driver/Src/stm32f4xx_hal_rcc.c ****   assert_param(IS_RCC_MCODIV(RCC_MCODiv));
 874              		.loc 1 770 3 view .LVU274
 771:./Libraries/STM32F4xx_HAL_Driver/Src/stm32f4xx_hal_rcc.c ****   /* RCC_MCO1 */
 772:./Libraries/STM32F4xx_HAL_Driver/Src/stm32f4xx_hal_rcc.c ****   if(RCC_MCOx == RCC_MCO1)
 875              		.loc 1 772 3 view .LVU275
 876              		.loc 1 772 5 is_stmt 0 view .LVU276
 877 0008 00BB     		cbnz	r0, .L92
 773:./Libraries/STM32F4xx_HAL_Driver/Src/stm32f4xx_hal_rcc.c ****   {
 774:./Libraries/STM32F4xx_HAL_Driver/Src/stm32f4xx_hal_rcc.c ****     assert_param(IS_RCC_MCO1SOURCE(RCC_MCOSource));
 878              		.loc 1 774 5 is_stmt 1 view .LVU277
 775:./Libraries/STM32F4xx_HAL_Driver/Src/stm32f4xx_hal_rcc.c **** 
 776:./Libraries/STM32F4xx_HAL_Driver/Src/stm32f4xx_hal_rcc.c ****     /* MCO1 Clock Enable */
 777:./Libraries/STM32F4xx_HAL_Driver/Src/stm32f4xx_hal_rcc.c ****     __MCO1_CLK_ENABLE();
 879              		.loc 1 777 5 view .LVU278
 880              	.LBB5:
 881              		.loc 1 777 5 view .LVU279
 882 000a 0023     		movs	r3, #0
 883 000c 0193     		str	r3, [sp, #4]
 884              		.loc 1 777 5 view .LVU280
 885 000e 204E     		ldr	r6, .L95
 886 0010 326B     		ldr	r2, [r6, #48]
 887              	.LVL60:
 888              		.loc 1 777 5 is_stmt 0 view .LVU281
 889 0012 42F00102 		orr	r2, r2, #1
 890 0016 3263     		str	r2, [r6, #48]
 891              		.loc 1 777 5 is_stmt 1 view .LVU282
 892 0018 326B     		ldr	r2, [r6, #48]
 893 001a 02F00102 		and	r2, r2, #1
 894 001e 0192     		str	r2, [sp, #4]
 895              		.loc 1 777 5 view .LVU283
ARM GAS  /tmp/ccLT17et.s 			page 32


 896 0020 019A     		ldr	r2, [sp, #4]
 897              	.LBE5:
 898              		.loc 1 777 5 view .LVU284
 778:./Libraries/STM32F4xx_HAL_Driver/Src/stm32f4xx_hal_rcc.c **** 
 779:./Libraries/STM32F4xx_HAL_Driver/Src/stm32f4xx_hal_rcc.c ****     /* Configure the MCO1 pin in alternate function mode */
 780:./Libraries/STM32F4xx_HAL_Driver/Src/stm32f4xx_hal_rcc.c ****     GPIO_InitStruct.Pin = MCO1_PIN;
 899              		.loc 1 780 5 view .LVU285
 900              		.loc 1 780 25 is_stmt 0 view .LVU286
 901 0022 4FF48072 		mov	r2, #256
 902 0026 0392     		str	r2, [sp, #12]
 781:./Libraries/STM32F4xx_HAL_Driver/Src/stm32f4xx_hal_rcc.c ****     GPIO_InitStruct.Mode = GPIO_MODE_AF_PP;
 903              		.loc 1 781 5 is_stmt 1 view .LVU287
 904              		.loc 1 781 26 is_stmt 0 view .LVU288
 905 0028 0222     		movs	r2, #2
 906 002a 0492     		str	r2, [sp, #16]
 782:./Libraries/STM32F4xx_HAL_Driver/Src/stm32f4xx_hal_rcc.c ****     GPIO_InitStruct.Speed = GPIO_SPEED_FREQ_VERY_HIGH;
 907              		.loc 1 782 5 is_stmt 1 view .LVU289
 908              		.loc 1 782 27 is_stmt 0 view .LVU290
 909 002c 0322     		movs	r2, #3
 910 002e 0692     		str	r2, [sp, #24]
 783:./Libraries/STM32F4xx_HAL_Driver/Src/stm32f4xx_hal_rcc.c ****     GPIO_InitStruct.Pull = GPIO_NOPULL;
 911              		.loc 1 783 5 is_stmt 1 view .LVU291
 912              		.loc 1 783 26 is_stmt 0 view .LVU292
 913 0030 0593     		str	r3, [sp, #20]
 784:./Libraries/STM32F4xx_HAL_Driver/Src/stm32f4xx_hal_rcc.c ****     GPIO_InitStruct.Alternate = GPIO_AF0_MCO;
 914              		.loc 1 784 5 is_stmt 1 view .LVU293
 915              		.loc 1 784 31 is_stmt 0 view .LVU294
 916 0032 0793     		str	r3, [sp, #28]
 785:./Libraries/STM32F4xx_HAL_Driver/Src/stm32f4xx_hal_rcc.c ****     HAL_GPIO_Init(MCO1_GPIO_PORT, &GPIO_InitStruct);
 917              		.loc 1 785 5 is_stmt 1 view .LVU295
 918 0034 03A9     		add	r1, sp, #12
 919              	.LVL61:
 920              		.loc 1 785 5 is_stmt 0 view .LVU296
 921 0036 1748     		ldr	r0, .L95+4
 922              	.LVL62:
 923              		.loc 1 785 5 view .LVU297
 924 0038 FFF7FEFF 		bl	HAL_GPIO_Init
 925              	.LVL63:
 786:./Libraries/STM32F4xx_HAL_Driver/Src/stm32f4xx_hal_rcc.c **** 
 787:./Libraries/STM32F4xx_HAL_Driver/Src/stm32f4xx_hal_rcc.c ****     /* Mask MCO1 and MCO1PRE[2:0] bits then Select MCO1 clock source and prescaler */
 788:./Libraries/STM32F4xx_HAL_Driver/Src/stm32f4xx_hal_rcc.c ****     MODIFY_REG(RCC->CFGR, (RCC_CFGR_MCO1 | RCC_CFGR_MCO1PRE), (RCC_MCOSource | RCC_MCODiv));
 926              		.loc 1 788 5 is_stmt 1 view .LVU298
 927 003c B368     		ldr	r3, [r6, #8]
 928 003e 23F0EC63 		bic	r3, r3, #123731968
 929 0042 2543     		orrs	r5, r5, r4
 930              	.LVL64:
 931              		.loc 1 788 5 is_stmt 0 view .LVU299
 932 0044 1D43     		orrs	r5, r5, r3
 933 0046 B560     		str	r5, [r6, #8]
 934              	.LVL65:
 935              	.L91:
 789:./Libraries/STM32F4xx_HAL_Driver/Src/stm32f4xx_hal_rcc.c **** 
 790:./Libraries/STM32F4xx_HAL_Driver/Src/stm32f4xx_hal_rcc.c ****    /* This RCC MCO1 enable feature is available only on STM32F410xx devices */
 791:./Libraries/STM32F4xx_HAL_Driver/Src/stm32f4xx_hal_rcc.c **** #if defined(RCC_CFGR_MCO1EN)
 792:./Libraries/STM32F4xx_HAL_Driver/Src/stm32f4xx_hal_rcc.c ****     __HAL_RCC_MCO1_ENABLE();
 793:./Libraries/STM32F4xx_HAL_Driver/Src/stm32f4xx_hal_rcc.c **** #endif /* RCC_CFGR_MCO1EN */
 794:./Libraries/STM32F4xx_HAL_Driver/Src/stm32f4xx_hal_rcc.c ****   }
ARM GAS  /tmp/ccLT17et.s 			page 33


 795:./Libraries/STM32F4xx_HAL_Driver/Src/stm32f4xx_hal_rcc.c **** #if defined(RCC_CFGR_MCO2)
 796:./Libraries/STM32F4xx_HAL_Driver/Src/stm32f4xx_hal_rcc.c ****   else
 797:./Libraries/STM32F4xx_HAL_Driver/Src/stm32f4xx_hal_rcc.c ****   {
 798:./Libraries/STM32F4xx_HAL_Driver/Src/stm32f4xx_hal_rcc.c ****     assert_param(IS_RCC_MCO2SOURCE(RCC_MCOSource));
 799:./Libraries/STM32F4xx_HAL_Driver/Src/stm32f4xx_hal_rcc.c **** 
 800:./Libraries/STM32F4xx_HAL_Driver/Src/stm32f4xx_hal_rcc.c ****     /* MCO2 Clock Enable */
 801:./Libraries/STM32F4xx_HAL_Driver/Src/stm32f4xx_hal_rcc.c ****     __MCO2_CLK_ENABLE();
 802:./Libraries/STM32F4xx_HAL_Driver/Src/stm32f4xx_hal_rcc.c **** 
 803:./Libraries/STM32F4xx_HAL_Driver/Src/stm32f4xx_hal_rcc.c ****     /* Configure the MCO2 pin in alternate function mode */
 804:./Libraries/STM32F4xx_HAL_Driver/Src/stm32f4xx_hal_rcc.c ****     GPIO_InitStruct.Pin = MCO2_PIN;
 805:./Libraries/STM32F4xx_HAL_Driver/Src/stm32f4xx_hal_rcc.c ****     GPIO_InitStruct.Mode = GPIO_MODE_AF_PP;
 806:./Libraries/STM32F4xx_HAL_Driver/Src/stm32f4xx_hal_rcc.c ****     GPIO_InitStruct.Speed = GPIO_SPEED_FREQ_VERY_HIGH;
 807:./Libraries/STM32F4xx_HAL_Driver/Src/stm32f4xx_hal_rcc.c ****     GPIO_InitStruct.Pull = GPIO_NOPULL;
 808:./Libraries/STM32F4xx_HAL_Driver/Src/stm32f4xx_hal_rcc.c ****     GPIO_InitStruct.Alternate = GPIO_AF0_MCO;
 809:./Libraries/STM32F4xx_HAL_Driver/Src/stm32f4xx_hal_rcc.c ****     HAL_GPIO_Init(MCO2_GPIO_PORT, &GPIO_InitStruct);
 810:./Libraries/STM32F4xx_HAL_Driver/Src/stm32f4xx_hal_rcc.c **** 
 811:./Libraries/STM32F4xx_HAL_Driver/Src/stm32f4xx_hal_rcc.c ****     /* Mask MCO2 and MCO2PRE[2:0] bits then Select MCO2 clock source and prescaler */
 812:./Libraries/STM32F4xx_HAL_Driver/Src/stm32f4xx_hal_rcc.c ****     MODIFY_REG(RCC->CFGR, (RCC_CFGR_MCO2 | RCC_CFGR_MCO2PRE), (RCC_MCOSource | (RCC_MCODiv << 3U)))
 813:./Libraries/STM32F4xx_HAL_Driver/Src/stm32f4xx_hal_rcc.c **** 
 814:./Libraries/STM32F4xx_HAL_Driver/Src/stm32f4xx_hal_rcc.c ****    /* This RCC MCO2 enable feature is available only on STM32F410Rx devices */
 815:./Libraries/STM32F4xx_HAL_Driver/Src/stm32f4xx_hal_rcc.c **** #if defined(RCC_CFGR_MCO2EN)
 816:./Libraries/STM32F4xx_HAL_Driver/Src/stm32f4xx_hal_rcc.c ****     __HAL_RCC_MCO2_ENABLE();
 817:./Libraries/STM32F4xx_HAL_Driver/Src/stm32f4xx_hal_rcc.c **** #endif /* RCC_CFGR_MCO2EN */
 818:./Libraries/STM32F4xx_HAL_Driver/Src/stm32f4xx_hal_rcc.c ****   }
 819:./Libraries/STM32F4xx_HAL_Driver/Src/stm32f4xx_hal_rcc.c **** #endif /* RCC_CFGR_MCO2 */
 820:./Libraries/STM32F4xx_HAL_Driver/Src/stm32f4xx_hal_rcc.c **** }
 936              		.loc 1 820 1 view .LVU300
 937 0048 08B0     		add	sp, sp, #32
 938              	.LCFI8:
 939              		.cfi_remember_state
 940              		.cfi_def_cfa_offset 16
 941              		@ sp needed
 942 004a 70BD     		pop	{r4, r5, r6, pc}
 943              	.LVL66:
 944              	.L92:
 945              	.LCFI9:
 946              		.cfi_restore_state
 798:./Libraries/STM32F4xx_HAL_Driver/Src/stm32f4xx_hal_rcc.c **** 
 947              		.loc 1 798 5 is_stmt 1 view .LVU301
 801:./Libraries/STM32F4xx_HAL_Driver/Src/stm32f4xx_hal_rcc.c **** 
 948              		.loc 1 801 5 view .LVU302
 949              	.LBB6:
 801:./Libraries/STM32F4xx_HAL_Driver/Src/stm32f4xx_hal_rcc.c **** 
 950              		.loc 1 801 5 view .LVU303
 951 004c 0023     		movs	r3, #0
 952 004e 0293     		str	r3, [sp, #8]
 801:./Libraries/STM32F4xx_HAL_Driver/Src/stm32f4xx_hal_rcc.c **** 
 953              		.loc 1 801 5 view .LVU304
 954 0050 0F4E     		ldr	r6, .L95
 955 0052 326B     		ldr	r2, [r6, #48]
 956              	.LVL67:
 801:./Libraries/STM32F4xx_HAL_Driver/Src/stm32f4xx_hal_rcc.c **** 
 957              		.loc 1 801 5 is_stmt 0 view .LVU305
 958 0054 42F00402 		orr	r2, r2, #4
 959 0058 3263     		str	r2, [r6, #48]
 801:./Libraries/STM32F4xx_HAL_Driver/Src/stm32f4xx_hal_rcc.c **** 
 960              		.loc 1 801 5 is_stmt 1 view .LVU306
ARM GAS  /tmp/ccLT17et.s 			page 34


 961 005a 326B     		ldr	r2, [r6, #48]
 962 005c 02F00402 		and	r2, r2, #4
 963 0060 0292     		str	r2, [sp, #8]
 801:./Libraries/STM32F4xx_HAL_Driver/Src/stm32f4xx_hal_rcc.c **** 
 964              		.loc 1 801 5 view .LVU307
 965 0062 029A     		ldr	r2, [sp, #8]
 966              	.LBE6:
 801:./Libraries/STM32F4xx_HAL_Driver/Src/stm32f4xx_hal_rcc.c **** 
 967              		.loc 1 801 5 view .LVU308
 804:./Libraries/STM32F4xx_HAL_Driver/Src/stm32f4xx_hal_rcc.c ****     GPIO_InitStruct.Mode = GPIO_MODE_AF_PP;
 968              		.loc 1 804 5 view .LVU309
 804:./Libraries/STM32F4xx_HAL_Driver/Src/stm32f4xx_hal_rcc.c ****     GPIO_InitStruct.Mode = GPIO_MODE_AF_PP;
 969              		.loc 1 804 25 is_stmt 0 view .LVU310
 970 0064 4FF40072 		mov	r2, #512
 971 0068 0392     		str	r2, [sp, #12]
 805:./Libraries/STM32F4xx_HAL_Driver/Src/stm32f4xx_hal_rcc.c ****     GPIO_InitStruct.Speed = GPIO_SPEED_FREQ_VERY_HIGH;
 972              		.loc 1 805 5 is_stmt 1 view .LVU311
 805:./Libraries/STM32F4xx_HAL_Driver/Src/stm32f4xx_hal_rcc.c ****     GPIO_InitStruct.Speed = GPIO_SPEED_FREQ_VERY_HIGH;
 973              		.loc 1 805 26 is_stmt 0 view .LVU312
 974 006a 0222     		movs	r2, #2
 975 006c 0492     		str	r2, [sp, #16]
 806:./Libraries/STM32F4xx_HAL_Driver/Src/stm32f4xx_hal_rcc.c ****     GPIO_InitStruct.Pull = GPIO_NOPULL;
 976              		.loc 1 806 5 is_stmt 1 view .LVU313
 806:./Libraries/STM32F4xx_HAL_Driver/Src/stm32f4xx_hal_rcc.c ****     GPIO_InitStruct.Pull = GPIO_NOPULL;
 977              		.loc 1 806 27 is_stmt 0 view .LVU314
 978 006e 0322     		movs	r2, #3
 979 0070 0692     		str	r2, [sp, #24]
 807:./Libraries/STM32F4xx_HAL_Driver/Src/stm32f4xx_hal_rcc.c ****     GPIO_InitStruct.Alternate = GPIO_AF0_MCO;
 980              		.loc 1 807 5 is_stmt 1 view .LVU315
 807:./Libraries/STM32F4xx_HAL_Driver/Src/stm32f4xx_hal_rcc.c ****     GPIO_InitStruct.Alternate = GPIO_AF0_MCO;
 981              		.loc 1 807 26 is_stmt 0 view .LVU316
 982 0072 0593     		str	r3, [sp, #20]
 808:./Libraries/STM32F4xx_HAL_Driver/Src/stm32f4xx_hal_rcc.c ****     HAL_GPIO_Init(MCO2_GPIO_PORT, &GPIO_InitStruct);
 983              		.loc 1 808 5 is_stmt 1 view .LVU317
 808:./Libraries/STM32F4xx_HAL_Driver/Src/stm32f4xx_hal_rcc.c ****     HAL_GPIO_Init(MCO2_GPIO_PORT, &GPIO_InitStruct);
 984              		.loc 1 808 31 is_stmt 0 view .LVU318
 985 0074 0793     		str	r3, [sp, #28]
 809:./Libraries/STM32F4xx_HAL_Driver/Src/stm32f4xx_hal_rcc.c **** 
 986              		.loc 1 809 5 is_stmt 1 view .LVU319
 987 0076 03A9     		add	r1, sp, #12
 988              	.LVL68:
 809:./Libraries/STM32F4xx_HAL_Driver/Src/stm32f4xx_hal_rcc.c **** 
 989              		.loc 1 809 5 is_stmt 0 view .LVU320
 990 0078 0748     		ldr	r0, .L95+8
 991              	.LVL69:
 809:./Libraries/STM32F4xx_HAL_Driver/Src/stm32f4xx_hal_rcc.c **** 
 992              		.loc 1 809 5 view .LVU321
 993 007a FFF7FEFF 		bl	HAL_GPIO_Init
 994              	.LVL70:
 812:./Libraries/STM32F4xx_HAL_Driver/Src/stm32f4xx_hal_rcc.c **** 
 995              		.loc 1 812 5 is_stmt 1 view .LVU322
 996 007e B368     		ldr	r3, [r6, #8]
 997 0080 23F07843 		bic	r3, r3, #-134217728
 998 0084 44EAC504 		orr	r4, r4, r5, lsl #3
 999              	.LVL71:
 812:./Libraries/STM32F4xx_HAL_Driver/Src/stm32f4xx_hal_rcc.c **** 
 1000              		.loc 1 812 5 is_stmt 0 view .LVU323
ARM GAS  /tmp/ccLT17et.s 			page 35


 1001 0088 1C43     		orrs	r4, r4, r3
 1002 008a B460     		str	r4, [r6, #8]
 1003              		.loc 1 820 1 view .LVU324
 1004 008c DCE7     		b	.L91
 1005              	.L96:
 1006 008e 00BF     		.align	2
 1007              	.L95:
 1008 0090 00380240 		.word	1073887232
 1009 0094 00000240 		.word	1073872896
 1010 0098 00080240 		.word	1073874944
 1011              		.cfi_endproc
 1012              	.LFE129:
 1014              		.section	.text.HAL_RCC_EnableCSS,"ax",%progbits
 1015              		.align	1
 1016              		.global	HAL_RCC_EnableCSS
 1017              		.syntax unified
 1018              		.thumb
 1019              		.thumb_func
 1020              		.fpu fpv4-sp-d16
 1022              	HAL_RCC_EnableCSS:
 1023              	.LFB130:
 821:./Libraries/STM32F4xx_HAL_Driver/Src/stm32f4xx_hal_rcc.c **** 
 822:./Libraries/STM32F4xx_HAL_Driver/Src/stm32f4xx_hal_rcc.c **** /**
 823:./Libraries/STM32F4xx_HAL_Driver/Src/stm32f4xx_hal_rcc.c ****   * @brief  Enables the Clock Security System.
 824:./Libraries/STM32F4xx_HAL_Driver/Src/stm32f4xx_hal_rcc.c ****   * @note   If a failure is detected on the HSE oscillator clock, this oscillator
 825:./Libraries/STM32F4xx_HAL_Driver/Src/stm32f4xx_hal_rcc.c ****   *         is automatically disabled and an interrupt is generated to inform the
 826:./Libraries/STM32F4xx_HAL_Driver/Src/stm32f4xx_hal_rcc.c ****   *         software about the failure (Clock Security System Interrupt, CSSI),
 827:./Libraries/STM32F4xx_HAL_Driver/Src/stm32f4xx_hal_rcc.c ****   *         allowing the MCU to perform rescue operations. The CSSI is linked to
 828:./Libraries/STM32F4xx_HAL_Driver/Src/stm32f4xx_hal_rcc.c ****   *         the Cortex-M4 NMI (Non-Maskable Interrupt) exception vector.
 829:./Libraries/STM32F4xx_HAL_Driver/Src/stm32f4xx_hal_rcc.c ****   * @retval None
 830:./Libraries/STM32F4xx_HAL_Driver/Src/stm32f4xx_hal_rcc.c ****   */
 831:./Libraries/STM32F4xx_HAL_Driver/Src/stm32f4xx_hal_rcc.c **** void HAL_RCC_EnableCSS(void)
 832:./Libraries/STM32F4xx_HAL_Driver/Src/stm32f4xx_hal_rcc.c **** {
 1024              		.loc 1 832 1 is_stmt 1 view -0
 1025              		.cfi_startproc
 1026              		@ args = 0, pretend = 0, frame = 0
 1027              		@ frame_needed = 0, uses_anonymous_args = 0
 1028              		@ link register save eliminated.
 833:./Libraries/STM32F4xx_HAL_Driver/Src/stm32f4xx_hal_rcc.c ****   *(__IO uint32_t *) RCC_CR_CSSON_BB = (uint32_t)ENABLE;
 1029              		.loc 1 833 3 view .LVU326
 1030              		.loc 1 833 38 is_stmt 0 view .LVU327
 1031 0000 014B     		ldr	r3, .L98
 1032 0002 0122     		movs	r2, #1
 1033 0004 DA64     		str	r2, [r3, #76]
 834:./Libraries/STM32F4xx_HAL_Driver/Src/stm32f4xx_hal_rcc.c **** }
 1034              		.loc 1 834 1 view .LVU328
 1035 0006 7047     		bx	lr
 1036              	.L99:
 1037              		.align	2
 1038              	.L98:
 1039 0008 00004742 		.word	1111949312
 1040              		.cfi_endproc
 1041              	.LFE130:
 1043              		.section	.text.HAL_RCC_DisableCSS,"ax",%progbits
 1044              		.align	1
 1045              		.global	HAL_RCC_DisableCSS
 1046              		.syntax unified
ARM GAS  /tmp/ccLT17et.s 			page 36


 1047              		.thumb
 1048              		.thumb_func
 1049              		.fpu fpv4-sp-d16
 1051              	HAL_RCC_DisableCSS:
 1052              	.LFB131:
 835:./Libraries/STM32F4xx_HAL_Driver/Src/stm32f4xx_hal_rcc.c **** 
 836:./Libraries/STM32F4xx_HAL_Driver/Src/stm32f4xx_hal_rcc.c **** /**
 837:./Libraries/STM32F4xx_HAL_Driver/Src/stm32f4xx_hal_rcc.c ****   * @brief  Disables the Clock Security System.
 838:./Libraries/STM32F4xx_HAL_Driver/Src/stm32f4xx_hal_rcc.c ****   * @retval None
 839:./Libraries/STM32F4xx_HAL_Driver/Src/stm32f4xx_hal_rcc.c ****   */
 840:./Libraries/STM32F4xx_HAL_Driver/Src/stm32f4xx_hal_rcc.c **** void HAL_RCC_DisableCSS(void)
 841:./Libraries/STM32F4xx_HAL_Driver/Src/stm32f4xx_hal_rcc.c **** {
 1053              		.loc 1 841 1 is_stmt 1 view -0
 1054              		.cfi_startproc
 1055              		@ args = 0, pretend = 0, frame = 0
 1056              		@ frame_needed = 0, uses_anonymous_args = 0
 1057              		@ link register save eliminated.
 842:./Libraries/STM32F4xx_HAL_Driver/Src/stm32f4xx_hal_rcc.c ****   *(__IO uint32_t *) RCC_CR_CSSON_BB = (uint32_t)DISABLE;
 1058              		.loc 1 842 3 view .LVU330
 1059              		.loc 1 842 38 is_stmt 0 view .LVU331
 1060 0000 014B     		ldr	r3, .L101
 1061 0002 0022     		movs	r2, #0
 1062 0004 DA64     		str	r2, [r3, #76]
 843:./Libraries/STM32F4xx_HAL_Driver/Src/stm32f4xx_hal_rcc.c **** }
 1063              		.loc 1 843 1 view .LVU332
 1064 0006 7047     		bx	lr
 1065              	.L102:
 1066              		.align	2
 1067              	.L101:
 1068 0008 00004742 		.word	1111949312
 1069              		.cfi_endproc
 1070              	.LFE131:
 1072              		.global	__aeabi_uldivmod
 1073              		.section	.text.HAL_RCC_GetSysClockFreq,"ax",%progbits
 1074              		.align	1
 1075              		.weak	HAL_RCC_GetSysClockFreq
 1076              		.syntax unified
 1077              		.thumb
 1078              		.thumb_func
 1079              		.fpu fpv4-sp-d16
 1081              	HAL_RCC_GetSysClockFreq:
 1082              	.LFB132:
 844:./Libraries/STM32F4xx_HAL_Driver/Src/stm32f4xx_hal_rcc.c **** 
 845:./Libraries/STM32F4xx_HAL_Driver/Src/stm32f4xx_hal_rcc.c **** /**
 846:./Libraries/STM32F4xx_HAL_Driver/Src/stm32f4xx_hal_rcc.c ****   * @brief  Returns the SYSCLK frequency
 847:./Libraries/STM32F4xx_HAL_Driver/Src/stm32f4xx_hal_rcc.c ****   *
 848:./Libraries/STM32F4xx_HAL_Driver/Src/stm32f4xx_hal_rcc.c ****   * @note   The system frequency computed by this function is not the real
 849:./Libraries/STM32F4xx_HAL_Driver/Src/stm32f4xx_hal_rcc.c ****   *         frequency in the chip. It is calculated based on the predefined
 850:./Libraries/STM32F4xx_HAL_Driver/Src/stm32f4xx_hal_rcc.c ****   *         constant and the selected clock source:
 851:./Libraries/STM32F4xx_HAL_Driver/Src/stm32f4xx_hal_rcc.c ****   * @note     If SYSCLK source is HSI, function returns values based on HSI_VALUE(*)
 852:./Libraries/STM32F4xx_HAL_Driver/Src/stm32f4xx_hal_rcc.c ****   * @note     If SYSCLK source is HSE, function returns values based on HSE_VALUE(**)
 853:./Libraries/STM32F4xx_HAL_Driver/Src/stm32f4xx_hal_rcc.c ****   * @note     If SYSCLK source is PLL, function returns values based on HSE_VALUE(**)
 854:./Libraries/STM32F4xx_HAL_Driver/Src/stm32f4xx_hal_rcc.c ****   *           or HSI_VALUE(*) multiplied/divided by the PLL factors.
 855:./Libraries/STM32F4xx_HAL_Driver/Src/stm32f4xx_hal_rcc.c ****   * @note     (*) HSI_VALUE is a constant defined in stm32f4xx_hal_conf.h file (default value
 856:./Libraries/STM32F4xx_HAL_Driver/Src/stm32f4xx_hal_rcc.c ****   *               16 MHz) but the real value may vary depending on the variations
 857:./Libraries/STM32F4xx_HAL_Driver/Src/stm32f4xx_hal_rcc.c ****   *               in voltage and temperature.
 858:./Libraries/STM32F4xx_HAL_Driver/Src/stm32f4xx_hal_rcc.c ****   * @note     (**) HSE_VALUE is a constant defined in stm32f4xx_hal_conf.h file (default value
ARM GAS  /tmp/ccLT17et.s 			page 37


 859:./Libraries/STM32F4xx_HAL_Driver/Src/stm32f4xx_hal_rcc.c ****   *                25 MHz), user has to ensure that HSE_VALUE is same as the real
 860:./Libraries/STM32F4xx_HAL_Driver/Src/stm32f4xx_hal_rcc.c ****   *                frequency of the crystal used. Otherwise, this function may
 861:./Libraries/STM32F4xx_HAL_Driver/Src/stm32f4xx_hal_rcc.c ****   *                have wrong result.
 862:./Libraries/STM32F4xx_HAL_Driver/Src/stm32f4xx_hal_rcc.c ****   *
 863:./Libraries/STM32F4xx_HAL_Driver/Src/stm32f4xx_hal_rcc.c ****   * @note   The result of this function could be not correct when using fractional
 864:./Libraries/STM32F4xx_HAL_Driver/Src/stm32f4xx_hal_rcc.c ****   *         value for HSE crystal.
 865:./Libraries/STM32F4xx_HAL_Driver/Src/stm32f4xx_hal_rcc.c ****   *
 866:./Libraries/STM32F4xx_HAL_Driver/Src/stm32f4xx_hal_rcc.c ****   * @note   This function can be used by the user application to compute the
 867:./Libraries/STM32F4xx_HAL_Driver/Src/stm32f4xx_hal_rcc.c ****   *         baudrate for the communication peripherals or configure other parameters.
 868:./Libraries/STM32F4xx_HAL_Driver/Src/stm32f4xx_hal_rcc.c ****   *
 869:./Libraries/STM32F4xx_HAL_Driver/Src/stm32f4xx_hal_rcc.c ****   * @note   Each time SYSCLK changes, this function must be called to update the
 870:./Libraries/STM32F4xx_HAL_Driver/Src/stm32f4xx_hal_rcc.c ****   *         right SYSCLK value. Otherwise, any configuration based on this function will be incorre
 871:./Libraries/STM32F4xx_HAL_Driver/Src/stm32f4xx_hal_rcc.c ****   *
 872:./Libraries/STM32F4xx_HAL_Driver/Src/stm32f4xx_hal_rcc.c ****   *
 873:./Libraries/STM32F4xx_HAL_Driver/Src/stm32f4xx_hal_rcc.c ****   * @retval SYSCLK frequency
 874:./Libraries/STM32F4xx_HAL_Driver/Src/stm32f4xx_hal_rcc.c ****   */
 875:./Libraries/STM32F4xx_HAL_Driver/Src/stm32f4xx_hal_rcc.c **** __weak uint32_t HAL_RCC_GetSysClockFreq(void)
 876:./Libraries/STM32F4xx_HAL_Driver/Src/stm32f4xx_hal_rcc.c **** {
 1083              		.loc 1 876 1 is_stmt 1 view -0
 1084              		.cfi_startproc
 1085              		@ args = 0, pretend = 0, frame = 0
 1086              		@ frame_needed = 0, uses_anonymous_args = 0
 1087 0000 08B5     		push	{r3, lr}
 1088              	.LCFI10:
 1089              		.cfi_def_cfa_offset 8
 1090              		.cfi_offset 3, -8
 1091              		.cfi_offset 14, -4
 877:./Libraries/STM32F4xx_HAL_Driver/Src/stm32f4xx_hal_rcc.c ****   uint32_t pllm = 0U, pllvco = 0U, pllp = 0U;
 1092              		.loc 1 877 3 view .LVU334
 1093              	.LVL72:
 878:./Libraries/STM32F4xx_HAL_Driver/Src/stm32f4xx_hal_rcc.c ****   uint32_t sysclockfreq = 0U;
 1094              		.loc 1 878 3 view .LVU335
 879:./Libraries/STM32F4xx_HAL_Driver/Src/stm32f4xx_hal_rcc.c **** 
 880:./Libraries/STM32F4xx_HAL_Driver/Src/stm32f4xx_hal_rcc.c ****   /* Get SYSCLK source -------------------------------------------------------*/
 881:./Libraries/STM32F4xx_HAL_Driver/Src/stm32f4xx_hal_rcc.c ****   switch (RCC->CFGR & RCC_CFGR_SWS)
 1095              		.loc 1 881 3 view .LVU336
 1096              		.loc 1 881 14 is_stmt 0 view .LVU337
 1097 0002 254B     		ldr	r3, .L110
 1098 0004 9B68     		ldr	r3, [r3, #8]
 1099              		.loc 1 881 21 view .LVU338
 1100 0006 03F00C03 		and	r3, r3, #12
 1101              		.loc 1 881 3 view .LVU339
 1102 000a 042B     		cmp	r3, #4
 1103 000c 3FD0     		beq	.L107
 1104 000e 082B     		cmp	r3, #8
 1105 0010 3FD1     		bne	.L108
 882:./Libraries/STM32F4xx_HAL_Driver/Src/stm32f4xx_hal_rcc.c ****   {
 883:./Libraries/STM32F4xx_HAL_Driver/Src/stm32f4xx_hal_rcc.c ****     case RCC_CFGR_SWS_HSI:  /* HSI used as system clock source */
 884:./Libraries/STM32F4xx_HAL_Driver/Src/stm32f4xx_hal_rcc.c ****     {
 885:./Libraries/STM32F4xx_HAL_Driver/Src/stm32f4xx_hal_rcc.c ****       sysclockfreq = HSI_VALUE;
 886:./Libraries/STM32F4xx_HAL_Driver/Src/stm32f4xx_hal_rcc.c ****        break;
 887:./Libraries/STM32F4xx_HAL_Driver/Src/stm32f4xx_hal_rcc.c ****     }
 888:./Libraries/STM32F4xx_HAL_Driver/Src/stm32f4xx_hal_rcc.c ****     case RCC_CFGR_SWS_HSE:  /* HSE used as system clock  source */
 889:./Libraries/STM32F4xx_HAL_Driver/Src/stm32f4xx_hal_rcc.c ****     {
 890:./Libraries/STM32F4xx_HAL_Driver/Src/stm32f4xx_hal_rcc.c ****       sysclockfreq = HSE_VALUE;
 891:./Libraries/STM32F4xx_HAL_Driver/Src/stm32f4xx_hal_rcc.c ****       break;
 892:./Libraries/STM32F4xx_HAL_Driver/Src/stm32f4xx_hal_rcc.c ****     }
ARM GAS  /tmp/ccLT17et.s 			page 38


 893:./Libraries/STM32F4xx_HAL_Driver/Src/stm32f4xx_hal_rcc.c ****     case RCC_CFGR_SWS_PLL:  /* PLL used as system clock  source */
 894:./Libraries/STM32F4xx_HAL_Driver/Src/stm32f4xx_hal_rcc.c ****     {
 895:./Libraries/STM32F4xx_HAL_Driver/Src/stm32f4xx_hal_rcc.c ****       /* PLL_VCO = (HSE_VALUE or HSI_VALUE / PLLM) * PLLN
 896:./Libraries/STM32F4xx_HAL_Driver/Src/stm32f4xx_hal_rcc.c ****       SYSCLK = PLL_VCO / PLLP */
 897:./Libraries/STM32F4xx_HAL_Driver/Src/stm32f4xx_hal_rcc.c ****       pllm = RCC->PLLCFGR & RCC_PLLCFGR_PLLM;
 1106              		.loc 1 897 7 is_stmt 1 view .LVU340
 1107              		.loc 1 897 17 is_stmt 0 view .LVU341
 1108 0012 214B     		ldr	r3, .L110
 1109 0014 5A68     		ldr	r2, [r3, #4]
 1110              		.loc 1 897 12 view .LVU342
 1111 0016 02F03F02 		and	r2, r2, #63
 1112              	.LVL73:
 898:./Libraries/STM32F4xx_HAL_Driver/Src/stm32f4xx_hal_rcc.c ****       if(__HAL_RCC_GET_PLL_OSCSOURCE() != RCC_PLLSOURCE_HSI)
 1113              		.loc 1 898 7 is_stmt 1 view .LVU343
 1114              		.loc 1 898 10 is_stmt 0 view .LVU344
 1115 001a 5B68     		ldr	r3, [r3, #4]
 1116              		.loc 1 898 9 view .LVU345
 1117 001c 13F4800F 		tst	r3, #4194304
 1118 0020 12D0     		beq	.L105
 899:./Libraries/STM32F4xx_HAL_Driver/Src/stm32f4xx_hal_rcc.c ****       {
 900:./Libraries/STM32F4xx_HAL_Driver/Src/stm32f4xx_hal_rcc.c ****         /* HSE used as PLL clock source */
 901:./Libraries/STM32F4xx_HAL_Driver/Src/stm32f4xx_hal_rcc.c ****         pllvco = (uint32_t) ((((uint64_t) HSE_VALUE * ((uint64_t) ((RCC->PLLCFGR & RCC_PLLCFGR_PLLN
 1119              		.loc 1 901 9 is_stmt 1 view .LVU346
 1120              		.loc 1 901 72 is_stmt 0 view .LVU347
 1121 0022 1D4B     		ldr	r3, .L110
 1122 0024 5968     		ldr	r1, [r3, #4]
 1123              		.loc 1 901 56 view .LVU348
 1124 0026 C1F38811 		ubfx	r1, r1, #6, #9
 1125              		.loc 1 901 53 view .LVU349
 1126 002a 1C48     		ldr	r0, .L110+4
 1127              		.loc 1 901 130 view .LVU350
 1128 002c 0023     		movs	r3, #0
 1129 002e A1FB0001 		umull	r0, r1, r1, r0
 1130 0032 FFF7FEFF 		bl	__aeabi_uldivmod
 1131              	.LVL74:
 1132              	.L106:
 902:./Libraries/STM32F4xx_HAL_Driver/Src/stm32f4xx_hal_rcc.c ****       }
 903:./Libraries/STM32F4xx_HAL_Driver/Src/stm32f4xx_hal_rcc.c ****       else
 904:./Libraries/STM32F4xx_HAL_Driver/Src/stm32f4xx_hal_rcc.c ****       {
 905:./Libraries/STM32F4xx_HAL_Driver/Src/stm32f4xx_hal_rcc.c ****         /* HSI used as PLL clock source */
 906:./Libraries/STM32F4xx_HAL_Driver/Src/stm32f4xx_hal_rcc.c ****         pllvco = (uint32_t) ((((uint64_t) HSI_VALUE * ((uint64_t) ((RCC->PLLCFGR & RCC_PLLCFGR_PLLN
 907:./Libraries/STM32F4xx_HAL_Driver/Src/stm32f4xx_hal_rcc.c ****       }
 908:./Libraries/STM32F4xx_HAL_Driver/Src/stm32f4xx_hal_rcc.c ****       pllp = ((((RCC->PLLCFGR & RCC_PLLCFGR_PLLP) >> RCC_PLLCFGR_PLLP_Pos) + 1U) *2U);
 1133              		.loc 1 908 7 is_stmt 1 view .LVU351
 1134              		.loc 1 908 21 is_stmt 0 view .LVU352
 1135 0036 184B     		ldr	r3, .L110
 1136 0038 5B68     		ldr	r3, [r3, #4]
 1137              		.loc 1 908 51 view .LVU353
 1138 003a C3F30143 		ubfx	r3, r3, #16, #2
 1139              		.loc 1 908 76 view .LVU354
 1140 003e 0133     		adds	r3, r3, #1
 1141              		.loc 1 908 12 view .LVU355
 1142 0040 5B00     		lsls	r3, r3, #1
 1143              	.LVL75:
 909:./Libraries/STM32F4xx_HAL_Driver/Src/stm32f4xx_hal_rcc.c **** 
 910:./Libraries/STM32F4xx_HAL_Driver/Src/stm32f4xx_hal_rcc.c ****       sysclockfreq = pllvco/pllp;
 1144              		.loc 1 910 7 is_stmt 1 view .LVU356
ARM GAS  /tmp/ccLT17et.s 			page 39


 1145              		.loc 1 910 20 is_stmt 0 view .LVU357
 1146 0042 B0FBF3F0 		udiv	r0, r0, r3
 1147              	.LVL76:
 911:./Libraries/STM32F4xx_HAL_Driver/Src/stm32f4xx_hal_rcc.c ****       break;
 1148              		.loc 1 911 7 is_stmt 1 view .LVU358
 1149 0046 25E0     		b	.L103
 1150              	.LVL77:
 1151              	.L105:
 906:./Libraries/STM32F4xx_HAL_Driver/Src/stm32f4xx_hal_rcc.c ****       }
 1152              		.loc 1 906 9 view .LVU359
 906:./Libraries/STM32F4xx_HAL_Driver/Src/stm32f4xx_hal_rcc.c ****       }
 1153              		.loc 1 906 72 is_stmt 0 view .LVU360
 1154 0048 134B     		ldr	r3, .L110
 1155 004a 5968     		ldr	r1, [r3, #4]
 906:./Libraries/STM32F4xx_HAL_Driver/Src/stm32f4xx_hal_rcc.c ****       }
 1156              		.loc 1 906 56 view .LVU361
 1157 004c C1F3881C 		ubfx	ip, r1, #6, #9
 906:./Libraries/STM32F4xx_HAL_Driver/Src/stm32f4xx_hal_rcc.c ****       }
 1158              		.loc 1 906 53 view .LVU362
 1159 0050 4FEA4C11 		lsl	r1, ip, #5
 1160 0054 B1EB0C00 		subs	r0, r1, ip
 1161 0058 6EEB0E0E 		sbc	lr, lr, lr
 1162 005c 4FEA8E13 		lsl	r3, lr, #6
 1163 0060 43EA9063 		orr	r3, r3, r0, lsr #26
 1164 0064 8101     		lsls	r1, r0, #6
 1165 0066 091A     		subs	r1, r1, r0
 1166 0068 63EB0E03 		sbc	r3, r3, lr
 1167 006c DB00     		lsls	r3, r3, #3
 1168 006e 43EA5173 		orr	r3, r3, r1, lsr #29
 1169 0072 C900     		lsls	r1, r1, #3
 1170 0074 11EB0C0C 		adds	ip, r1, ip
 1171 0078 43F10003 		adc	r3, r3, #0
 1172 007c 9902     		lsls	r1, r3, #10
 906:./Libraries/STM32F4xx_HAL_Driver/Src/stm32f4xx_hal_rcc.c ****       }
 1173              		.loc 1 906 130 view .LVU363
 1174 007e 0023     		movs	r3, #0
 1175 0080 4FEA8C20 		lsl	r0, ip, #10
 1176 0084 41EA9C51 		orr	r1, r1, ip, lsr #22
 1177 0088 FFF7FEFF 		bl	__aeabi_uldivmod
 1178              	.LVL78:
 906:./Libraries/STM32F4xx_HAL_Driver/Src/stm32f4xx_hal_rcc.c ****       }
 1179              		.loc 1 906 130 view .LVU364
 1180 008c D3E7     		b	.L106
 1181              	.LVL79:
 1182              	.L107:
 890:./Libraries/STM32F4xx_HAL_Driver/Src/stm32f4xx_hal_rcc.c ****       break;
 1183              		.loc 1 890 20 view .LVU365
 1184 008e 0348     		ldr	r0, .L110+4
 1185 0090 00E0     		b	.L103
 1186              	.L108:
 881:./Libraries/STM32F4xx_HAL_Driver/Src/stm32f4xx_hal_rcc.c ****   {
 1187              		.loc 1 881 3 view .LVU366
 1188 0092 0348     		ldr	r0, .L110+8
 1189              	.LVL80:
 912:./Libraries/STM32F4xx_HAL_Driver/Src/stm32f4xx_hal_rcc.c ****     }
 913:./Libraries/STM32F4xx_HAL_Driver/Src/stm32f4xx_hal_rcc.c ****     default:
 914:./Libraries/STM32F4xx_HAL_Driver/Src/stm32f4xx_hal_rcc.c ****     {
ARM GAS  /tmp/ccLT17et.s 			page 40


 915:./Libraries/STM32F4xx_HAL_Driver/Src/stm32f4xx_hal_rcc.c ****       sysclockfreq = HSI_VALUE;
 916:./Libraries/STM32F4xx_HAL_Driver/Src/stm32f4xx_hal_rcc.c ****       break;
 917:./Libraries/STM32F4xx_HAL_Driver/Src/stm32f4xx_hal_rcc.c ****     }
 918:./Libraries/STM32F4xx_HAL_Driver/Src/stm32f4xx_hal_rcc.c ****   }
 919:./Libraries/STM32F4xx_HAL_Driver/Src/stm32f4xx_hal_rcc.c ****   return sysclockfreq;
 1190              		.loc 1 919 3 is_stmt 1 view .LVU367
 1191              	.L103:
 920:./Libraries/STM32F4xx_HAL_Driver/Src/stm32f4xx_hal_rcc.c **** }
 1192              		.loc 1 920 1 is_stmt 0 view .LVU368
 1193 0094 08BD     		pop	{r3, pc}
 1194              	.L111:
 1195 0096 00BF     		.align	2
 1196              	.L110:
 1197 0098 00380240 		.word	1073887232
 1198 009c 40787D01 		.word	25000000
 1199 00a0 0024F400 		.word	16000000
 1200              		.cfi_endproc
 1201              	.LFE132:
 1203              		.section	.text.HAL_RCC_ClockConfig,"ax",%progbits
 1204              		.align	1
 1205              		.global	HAL_RCC_ClockConfig
 1206              		.syntax unified
 1207              		.thumb
 1208              		.thumb_func
 1209              		.fpu fpv4-sp-d16
 1211              	HAL_RCC_ClockConfig:
 1212              	.LVL81:
 1213              	.LFB128:
 582:./Libraries/STM32F4xx_HAL_Driver/Src/stm32f4xx_hal_rcc.c ****   uint32_t tickstart;
 1214              		.loc 1 582 1 is_stmt 1 view -0
 1215              		.cfi_startproc
 1216              		@ args = 0, pretend = 0, frame = 0
 1217              		@ frame_needed = 0, uses_anonymous_args = 0
 583:./Libraries/STM32F4xx_HAL_Driver/Src/stm32f4xx_hal_rcc.c **** 
 1218              		.loc 1 583 3 view .LVU370
 586:./Libraries/STM32F4xx_HAL_Driver/Src/stm32f4xx_hal_rcc.c ****   {
 1219              		.loc 1 586 3 view .LVU371
 586:./Libraries/STM32F4xx_HAL_Driver/Src/stm32f4xx_hal_rcc.c ****   {
 1220              		.loc 1 586 5 is_stmt 0 view .LVU372
 1221 0000 0028     		cmp	r0, #0
 1222 0002 00F09A80 		beq	.L127
 582:./Libraries/STM32F4xx_HAL_Driver/Src/stm32f4xx_hal_rcc.c ****   uint32_t tickstart;
 1223              		.loc 1 582 1 view .LVU373
 1224 0006 70B5     		push	{r4, r5, r6, lr}
 1225              	.LCFI11:
 1226              		.cfi_def_cfa_offset 16
 1227              		.cfi_offset 4, -16
 1228              		.cfi_offset 5, -12
 1229              		.cfi_offset 6, -8
 1230              		.cfi_offset 14, -4
 1231 0008 0D46     		mov	r5, r1
 1232 000a 0446     		mov	r4, r0
 592:./Libraries/STM32F4xx_HAL_Driver/Src/stm32f4xx_hal_rcc.c ****   assert_param(IS_FLASH_LATENCY(FLatency));
 1233              		.loc 1 592 3 is_stmt 1 view .LVU374
 593:./Libraries/STM32F4xx_HAL_Driver/Src/stm32f4xx_hal_rcc.c **** 
 1234              		.loc 1 593 3 view .LVU375
 600:./Libraries/STM32F4xx_HAL_Driver/Src/stm32f4xx_hal_rcc.c ****   {
ARM GAS  /tmp/ccLT17et.s 			page 41


 1235              		.loc 1 600 3 view .LVU376
 600:./Libraries/STM32F4xx_HAL_Driver/Src/stm32f4xx_hal_rcc.c ****   {
 1236              		.loc 1 600 17 is_stmt 0 view .LVU377
 1237 000c 4F4B     		ldr	r3, .L140
 1238 000e 1B68     		ldr	r3, [r3]
 1239 0010 03F00F03 		and	r3, r3, #15
 600:./Libraries/STM32F4xx_HAL_Driver/Src/stm32f4xx_hal_rcc.c ****   {
 1240              		.loc 1 600 5 view .LVU378
 1241 0014 8B42     		cmp	r3, r1
 1242 0016 08D2     		bcs	.L114
 603:./Libraries/STM32F4xx_HAL_Driver/Src/stm32f4xx_hal_rcc.c **** 
 1243              		.loc 1 603 5 is_stmt 1 view .LVU379
 1244 0018 CBB2     		uxtb	r3, r1
 1245 001a 4C4A     		ldr	r2, .L140
 1246 001c 1370     		strb	r3, [r2]
 607:./Libraries/STM32F4xx_HAL_Driver/Src/stm32f4xx_hal_rcc.c ****     {
 1247              		.loc 1 607 5 view .LVU380
 607:./Libraries/STM32F4xx_HAL_Driver/Src/stm32f4xx_hal_rcc.c ****     {
 1248              		.loc 1 607 8 is_stmt 0 view .LVU381
 1249 001e 1368     		ldr	r3, [r2]
 1250 0020 03F00F03 		and	r3, r3, #15
 607:./Libraries/STM32F4xx_HAL_Driver/Src/stm32f4xx_hal_rcc.c ****     {
 1251              		.loc 1 607 7 view .LVU382
 1252 0024 8B42     		cmp	r3, r1
 1253 0026 40F08A80 		bne	.L128
 1254              	.L114:
 614:./Libraries/STM32F4xx_HAL_Driver/Src/stm32f4xx_hal_rcc.c ****   {
 1255              		.loc 1 614 3 is_stmt 1 view .LVU383
 614:./Libraries/STM32F4xx_HAL_Driver/Src/stm32f4xx_hal_rcc.c ****   {
 1256              		.loc 1 614 25 is_stmt 0 view .LVU384
 1257 002a 2368     		ldr	r3, [r4]
 614:./Libraries/STM32F4xx_HAL_Driver/Src/stm32f4xx_hal_rcc.c ****   {
 1258              		.loc 1 614 5 view .LVU385
 1259 002c 13F0020F 		tst	r3, #2
 1260 0030 17D0     		beq	.L115
 618:./Libraries/STM32F4xx_HAL_Driver/Src/stm32f4xx_hal_rcc.c ****     {
 1261              		.loc 1 618 5 is_stmt 1 view .LVU386
 618:./Libraries/STM32F4xx_HAL_Driver/Src/stm32f4xx_hal_rcc.c ****     {
 1262              		.loc 1 618 7 is_stmt 0 view .LVU387
 1263 0032 13F0040F 		tst	r3, #4
 1264 0036 04D0     		beq	.L116
 620:./Libraries/STM32F4xx_HAL_Driver/Src/stm32f4xx_hal_rcc.c ****     }
 1265              		.loc 1 620 7 is_stmt 1 view .LVU388
 1266 0038 454A     		ldr	r2, .L140+4
 1267 003a 9368     		ldr	r3, [r2, #8]
 1268 003c 43F4E053 		orr	r3, r3, #7168
 1269 0040 9360     		str	r3, [r2, #8]
 1270              	.L116:
 623:./Libraries/STM32F4xx_HAL_Driver/Src/stm32f4xx_hal_rcc.c ****     {
 1271              		.loc 1 623 5 view .LVU389
 623:./Libraries/STM32F4xx_HAL_Driver/Src/stm32f4xx_hal_rcc.c ****     {
 1272              		.loc 1 623 27 is_stmt 0 view .LVU390
 1273 0042 2368     		ldr	r3, [r4]
 623:./Libraries/STM32F4xx_HAL_Driver/Src/stm32f4xx_hal_rcc.c ****     {
 1274              		.loc 1 623 7 view .LVU391
 1275 0044 13F0080F 		tst	r3, #8
 1276 0048 04D0     		beq	.L117
ARM GAS  /tmp/ccLT17et.s 			page 42


 625:./Libraries/STM32F4xx_HAL_Driver/Src/stm32f4xx_hal_rcc.c ****     }
 1277              		.loc 1 625 7 is_stmt 1 view .LVU392
 1278 004a 414A     		ldr	r2, .L140+4
 1279 004c 9368     		ldr	r3, [r2, #8]
 1280 004e 43F46043 		orr	r3, r3, #57344
 1281 0052 9360     		str	r3, [r2, #8]
 1282              	.L117:
 628:./Libraries/STM32F4xx_HAL_Driver/Src/stm32f4xx_hal_rcc.c ****     MODIFY_REG(RCC->CFGR, RCC_CFGR_HPRE, RCC_ClkInitStruct->AHBCLKDivider);
 1283              		.loc 1 628 5 view .LVU393
 629:./Libraries/STM32F4xx_HAL_Driver/Src/stm32f4xx_hal_rcc.c ****   }
 1284              		.loc 1 629 5 view .LVU394
 1285 0054 3E4A     		ldr	r2, .L140+4
 1286 0056 9368     		ldr	r3, [r2, #8]
 1287 0058 23F0F003 		bic	r3, r3, #240
 1288 005c A168     		ldr	r1, [r4, #8]
 1289              	.LVL82:
 629:./Libraries/STM32F4xx_HAL_Driver/Src/stm32f4xx_hal_rcc.c ****   }
 1290              		.loc 1 629 5 is_stmt 0 view .LVU395
 1291 005e 0B43     		orrs	r3, r3, r1
 1292 0060 9360     		str	r3, [r2, #8]
 1293              	.L115:
 633:./Libraries/STM32F4xx_HAL_Driver/Src/stm32f4xx_hal_rcc.c ****   {
 1294              		.loc 1 633 3 is_stmt 1 view .LVU396
 633:./Libraries/STM32F4xx_HAL_Driver/Src/stm32f4xx_hal_rcc.c ****   {
 1295              		.loc 1 633 25 is_stmt 0 view .LVU397
 1296 0062 2368     		ldr	r3, [r4]
 633:./Libraries/STM32F4xx_HAL_Driver/Src/stm32f4xx_hal_rcc.c ****   {
 1297              		.loc 1 633 5 view .LVU398
 1298 0064 13F0010F 		tst	r3, #1
 1299 0068 32D0     		beq	.L118
 635:./Libraries/STM32F4xx_HAL_Driver/Src/stm32f4xx_hal_rcc.c **** 
 1300              		.loc 1 635 5 is_stmt 1 view .LVU399
 638:./Libraries/STM32F4xx_HAL_Driver/Src/stm32f4xx_hal_rcc.c ****     {
 1301              		.loc 1 638 5 view .LVU400
 638:./Libraries/STM32F4xx_HAL_Driver/Src/stm32f4xx_hal_rcc.c ****     {
 1302              		.loc 1 638 25 is_stmt 0 view .LVU401
 1303 006a 6368     		ldr	r3, [r4, #4]
 638:./Libraries/STM32F4xx_HAL_Driver/Src/stm32f4xx_hal_rcc.c ****     {
 1304              		.loc 1 638 7 view .LVU402
 1305 006c 012B     		cmp	r3, #1
 1306 006e 21D0     		beq	.L138
 647:./Libraries/STM32F4xx_HAL_Driver/Src/stm32f4xx_hal_rcc.c ****             (RCC_ClkInitStruct->SYSCLKSource == RCC_SYSCLKSOURCE_PLLRCLK))
 1307              		.loc 1 647 10 is_stmt 1 view .LVU403
 647:./Libraries/STM32F4xx_HAL_Driver/Src/stm32f4xx_hal_rcc.c ****             (RCC_ClkInitStruct->SYSCLKSource == RCC_SYSCLKSOURCE_PLLRCLK))
 1308              		.loc 1 647 76 is_stmt 0 view .LVU404
 1309 0070 9A1E     		subs	r2, r3, #2
 647:./Libraries/STM32F4xx_HAL_Driver/Src/stm32f4xx_hal_rcc.c ****             (RCC_ClkInitStruct->SYSCLKSource == RCC_SYSCLKSOURCE_PLLRCLK))
 1310              		.loc 1 647 12 view .LVU405
 1311 0072 012A     		cmp	r2, #1
 1312 0074 25D9     		bls	.L139
 660:./Libraries/STM32F4xx_HAL_Driver/Src/stm32f4xx_hal_rcc.c ****       {
 1313              		.loc 1 660 7 is_stmt 1 view .LVU406
 660:./Libraries/STM32F4xx_HAL_Driver/Src/stm32f4xx_hal_rcc.c ****       {
 1314              		.loc 1 660 10 is_stmt 0 view .LVU407
 1315 0076 364A     		ldr	r2, .L140+4
 1316 0078 1268     		ldr	r2, [r2]
 660:./Libraries/STM32F4xx_HAL_Driver/Src/stm32f4xx_hal_rcc.c ****       {
ARM GAS  /tmp/ccLT17et.s 			page 43


 1317              		.loc 1 660 9 view .LVU408
 1318 007a 12F0020F 		tst	r2, #2
 1319 007e 60D0     		beq	.L131
 1320              	.L120:
 666:./Libraries/STM32F4xx_HAL_Driver/Src/stm32f4xx_hal_rcc.c **** 
 1321              		.loc 1 666 5 is_stmt 1 view .LVU409
 1322 0080 3349     		ldr	r1, .L140+4
 1323 0082 8A68     		ldr	r2, [r1, #8]
 1324 0084 22F00302 		bic	r2, r2, #3
 1325 0088 1343     		orrs	r3, r3, r2
 1326 008a 8B60     		str	r3, [r1, #8]
 669:./Libraries/STM32F4xx_HAL_Driver/Src/stm32f4xx_hal_rcc.c **** 
 1327              		.loc 1 669 5 view .LVU410
 669:./Libraries/STM32F4xx_HAL_Driver/Src/stm32f4xx_hal_rcc.c **** 
 1328              		.loc 1 669 17 is_stmt 0 view .LVU411
 1329 008c FFF7FEFF 		bl	HAL_GetTick
 1330              	.LVL83:
 669:./Libraries/STM32F4xx_HAL_Driver/Src/stm32f4xx_hal_rcc.c **** 
 1331              		.loc 1 669 17 view .LVU412
 1332 0090 0646     		mov	r6, r0
 1333              	.LVL84:
 671:./Libraries/STM32F4xx_HAL_Driver/Src/stm32f4xx_hal_rcc.c ****     {
 1334              		.loc 1 671 5 is_stmt 1 view .LVU413
 1335              	.L122:
 671:./Libraries/STM32F4xx_HAL_Driver/Src/stm32f4xx_hal_rcc.c ****     {
 1336              		.loc 1 671 11 view .LVU414
 671:./Libraries/STM32F4xx_HAL_Driver/Src/stm32f4xx_hal_rcc.c ****     {
 1337              		.loc 1 671 12 is_stmt 0 view .LVU415
 1338 0092 2F4B     		ldr	r3, .L140+4
 1339 0094 9B68     		ldr	r3, [r3, #8]
 1340 0096 03F00C03 		and	r3, r3, #12
 671:./Libraries/STM32F4xx_HAL_Driver/Src/stm32f4xx_hal_rcc.c ****     {
 1341              		.loc 1 671 63 view .LVU416
 1342 009a 6268     		ldr	r2, [r4, #4]
 671:./Libraries/STM32F4xx_HAL_Driver/Src/stm32f4xx_hal_rcc.c ****     {
 1343              		.loc 1 671 11 view .LVU417
 1344 009c B3EB820F 		cmp	r3, r2, lsl #2
 1345 00a0 16D0     		beq	.L118
 673:./Libraries/STM32F4xx_HAL_Driver/Src/stm32f4xx_hal_rcc.c ****       {
 1346              		.loc 1 673 7 is_stmt 1 view .LVU418
 673:./Libraries/STM32F4xx_HAL_Driver/Src/stm32f4xx_hal_rcc.c ****       {
 1347              		.loc 1 673 12 is_stmt 0 view .LVU419
 1348 00a2 FFF7FEFF 		bl	HAL_GetTick
 1349              	.LVL85:
 673:./Libraries/STM32F4xx_HAL_Driver/Src/stm32f4xx_hal_rcc.c ****       {
 1350              		.loc 1 673 26 view .LVU420
 1351 00a6 801B     		subs	r0, r0, r6
 673:./Libraries/STM32F4xx_HAL_Driver/Src/stm32f4xx_hal_rcc.c ****       {
 1352              		.loc 1 673 10 view .LVU421
 1353 00a8 41F28833 		movw	r3, #5000
 1354 00ac 9842     		cmp	r0, r3
 1355 00ae F0D9     		bls	.L122
 675:./Libraries/STM32F4xx_HAL_Driver/Src/stm32f4xx_hal_rcc.c ****       }
 1356              		.loc 1 675 16 view .LVU422
 1357 00b0 0320     		movs	r0, #3
 1358 00b2 41E0     		b	.L113
 1359              	.LVL86:
ARM GAS  /tmp/ccLT17et.s 			page 44


 1360              	.L138:
 641:./Libraries/STM32F4xx_HAL_Driver/Src/stm32f4xx_hal_rcc.c ****       {
 1361              		.loc 1 641 7 is_stmt 1 view .LVU423
 641:./Libraries/STM32F4xx_HAL_Driver/Src/stm32f4xx_hal_rcc.c ****       {
 1362              		.loc 1 641 10 is_stmt 0 view .LVU424
 1363 00b4 264A     		ldr	r2, .L140+4
 1364 00b6 1268     		ldr	r2, [r2]
 641:./Libraries/STM32F4xx_HAL_Driver/Src/stm32f4xx_hal_rcc.c ****       {
 1365              		.loc 1 641 9 view .LVU425
 1366 00b8 12F4003F 		tst	r2, #131072
 1367 00bc E0D1     		bne	.L120
 643:./Libraries/STM32F4xx_HAL_Driver/Src/stm32f4xx_hal_rcc.c ****       }
 1368              		.loc 1 643 16 view .LVU426
 1369 00be 0120     		movs	r0, #1
 1370              	.LVL87:
 643:./Libraries/STM32F4xx_HAL_Driver/Src/stm32f4xx_hal_rcc.c ****       }
 1371              		.loc 1 643 16 view .LVU427
 1372 00c0 3AE0     		b	.L113
 1373              	.LVL88:
 1374              	.L139:
 651:./Libraries/STM32F4xx_HAL_Driver/Src/stm32f4xx_hal_rcc.c ****       {
 1375              		.loc 1 651 7 is_stmt 1 view .LVU428
 651:./Libraries/STM32F4xx_HAL_Driver/Src/stm32f4xx_hal_rcc.c ****       {
 1376              		.loc 1 651 10 is_stmt 0 view .LVU429
 1377 00c2 234A     		ldr	r2, .L140+4
 1378 00c4 1268     		ldr	r2, [r2]
 651:./Libraries/STM32F4xx_HAL_Driver/Src/stm32f4xx_hal_rcc.c ****       {
 1379              		.loc 1 651 9 view .LVU430
 1380 00c6 12F0007F 		tst	r2, #33554432
 1381 00ca D9D1     		bne	.L120
 653:./Libraries/STM32F4xx_HAL_Driver/Src/stm32f4xx_hal_rcc.c ****       }
 1382              		.loc 1 653 16 view .LVU431
 1383 00cc 0120     		movs	r0, #1
 1384              	.LVL89:
 653:./Libraries/STM32F4xx_HAL_Driver/Src/stm32f4xx_hal_rcc.c ****       }
 1385              		.loc 1 653 16 view .LVU432
 1386 00ce 33E0     		b	.L113
 1387              	.L118:
 681:./Libraries/STM32F4xx_HAL_Driver/Src/stm32f4xx_hal_rcc.c ****   {
 1388              		.loc 1 681 3 is_stmt 1 view .LVU433
 681:./Libraries/STM32F4xx_HAL_Driver/Src/stm32f4xx_hal_rcc.c ****   {
 1389              		.loc 1 681 17 is_stmt 0 view .LVU434
 1390 00d0 1E4B     		ldr	r3, .L140
 1391 00d2 1B68     		ldr	r3, [r3]
 1392 00d4 03F00F03 		and	r3, r3, #15
 681:./Libraries/STM32F4xx_HAL_Driver/Src/stm32f4xx_hal_rcc.c ****   {
 1393              		.loc 1 681 5 view .LVU435
 1394 00d8 AB42     		cmp	r3, r5
 1395 00da 07D9     		bls	.L124
 684:./Libraries/STM32F4xx_HAL_Driver/Src/stm32f4xx_hal_rcc.c **** 
 1396              		.loc 1 684 5 is_stmt 1 view .LVU436
 1397 00dc EAB2     		uxtb	r2, r5
 1398 00de 1B4B     		ldr	r3, .L140
 1399 00e0 1A70     		strb	r2, [r3]
 688:./Libraries/STM32F4xx_HAL_Driver/Src/stm32f4xx_hal_rcc.c ****     {
 1400              		.loc 1 688 5 view .LVU437
 688:./Libraries/STM32F4xx_HAL_Driver/Src/stm32f4xx_hal_rcc.c ****     {
ARM GAS  /tmp/ccLT17et.s 			page 45


 1401              		.loc 1 688 8 is_stmt 0 view .LVU438
 1402 00e2 1B68     		ldr	r3, [r3]
 1403 00e4 03F00F03 		and	r3, r3, #15
 688:./Libraries/STM32F4xx_HAL_Driver/Src/stm32f4xx_hal_rcc.c ****     {
 1404              		.loc 1 688 7 view .LVU439
 1405 00e8 AB42     		cmp	r3, r5
 1406 00ea 2CD1     		bne	.L133
 1407              	.L124:
 695:./Libraries/STM32F4xx_HAL_Driver/Src/stm32f4xx_hal_rcc.c ****   {
 1408              		.loc 1 695 3 is_stmt 1 view .LVU440
 695:./Libraries/STM32F4xx_HAL_Driver/Src/stm32f4xx_hal_rcc.c ****   {
 1409              		.loc 1 695 25 is_stmt 0 view .LVU441
 1410 00ec 2368     		ldr	r3, [r4]
 695:./Libraries/STM32F4xx_HAL_Driver/Src/stm32f4xx_hal_rcc.c ****   {
 1411              		.loc 1 695 5 view .LVU442
 1412 00ee 13F0040F 		tst	r3, #4
 1413 00f2 06D0     		beq	.L125
 697:./Libraries/STM32F4xx_HAL_Driver/Src/stm32f4xx_hal_rcc.c ****     MODIFY_REG(RCC->CFGR, RCC_CFGR_PPRE1, RCC_ClkInitStruct->APB1CLKDivider);
 1414              		.loc 1 697 5 is_stmt 1 view .LVU443
 698:./Libraries/STM32F4xx_HAL_Driver/Src/stm32f4xx_hal_rcc.c ****   }
 1415              		.loc 1 698 5 view .LVU444
 1416 00f4 164A     		ldr	r2, .L140+4
 1417 00f6 9368     		ldr	r3, [r2, #8]
 1418 00f8 23F4E053 		bic	r3, r3, #7168
 1419 00fc E168     		ldr	r1, [r4, #12]
 1420 00fe 0B43     		orrs	r3, r3, r1
 1421 0100 9360     		str	r3, [r2, #8]
 1422              	.L125:
 702:./Libraries/STM32F4xx_HAL_Driver/Src/stm32f4xx_hal_rcc.c ****   {
 1423              		.loc 1 702 3 view .LVU445
 702:./Libraries/STM32F4xx_HAL_Driver/Src/stm32f4xx_hal_rcc.c ****   {
 1424              		.loc 1 702 25 is_stmt 0 view .LVU446
 1425 0102 2368     		ldr	r3, [r4]
 702:./Libraries/STM32F4xx_HAL_Driver/Src/stm32f4xx_hal_rcc.c ****   {
 1426              		.loc 1 702 5 view .LVU447
 1427 0104 13F0080F 		tst	r3, #8
 1428 0108 07D0     		beq	.L126
 704:./Libraries/STM32F4xx_HAL_Driver/Src/stm32f4xx_hal_rcc.c ****     MODIFY_REG(RCC->CFGR, RCC_CFGR_PPRE2, ((RCC_ClkInitStruct->APB2CLKDivider) << 3U));
 1429              		.loc 1 704 5 is_stmt 1 view .LVU448
 705:./Libraries/STM32F4xx_HAL_Driver/Src/stm32f4xx_hal_rcc.c ****   }
 1430              		.loc 1 705 5 view .LVU449
 1431 010a 114A     		ldr	r2, .L140+4
 1432 010c 9368     		ldr	r3, [r2, #8]
 1433 010e 23F46043 		bic	r3, r3, #57344
 1434 0112 2169     		ldr	r1, [r4, #16]
 1435 0114 43EAC103 		orr	r3, r3, r1, lsl #3
 1436 0118 9360     		str	r3, [r2, #8]
 1437              	.L126:
 709:./Libraries/STM32F4xx_HAL_Driver/Src/stm32f4xx_hal_rcc.c **** 
 1438              		.loc 1 709 3 view .LVU450
 709:./Libraries/STM32F4xx_HAL_Driver/Src/stm32f4xx_hal_rcc.c **** 
 1439              		.loc 1 709 21 is_stmt 0 view .LVU451
 1440 011a FFF7FEFF 		bl	HAL_RCC_GetSysClockFreq
 1441              	.LVL90:
 709:./Libraries/STM32F4xx_HAL_Driver/Src/stm32f4xx_hal_rcc.c **** 
 1442              		.loc 1 709 68 view .LVU452
 1443 011e 0C4B     		ldr	r3, .L140+4
ARM GAS  /tmp/ccLT17et.s 			page 46


 1444 0120 9B68     		ldr	r3, [r3, #8]
 709:./Libraries/STM32F4xx_HAL_Driver/Src/stm32f4xx_hal_rcc.c **** 
 1445              		.loc 1 709 91 view .LVU453
 1446 0122 C3F30313 		ubfx	r3, r3, #4, #4
 709:./Libraries/STM32F4xx_HAL_Driver/Src/stm32f4xx_hal_rcc.c **** 
 1447              		.loc 1 709 63 view .LVU454
 1448 0126 0B4A     		ldr	r2, .L140+8
 1449 0128 D35C     		ldrb	r3, [r2, r3]	@ zero_extendqisi2
 709:./Libraries/STM32F4xx_HAL_Driver/Src/stm32f4xx_hal_rcc.c **** 
 1450              		.loc 1 709 47 view .LVU455
 1451 012a D840     		lsrs	r0, r0, r3
 709:./Libraries/STM32F4xx_HAL_Driver/Src/stm32f4xx_hal_rcc.c **** 
 1452              		.loc 1 709 19 view .LVU456
 1453 012c 0A4B     		ldr	r3, .L140+12
 1454 012e 1860     		str	r0, [r3]
 712:./Libraries/STM32F4xx_HAL_Driver/Src/stm32f4xx_hal_rcc.c **** 
 1455              		.loc 1 712 3 is_stmt 1 view .LVU457
 1456 0130 0F20     		movs	r0, #15
 1457 0132 FFF7FEFF 		bl	HAL_InitTick
 1458              	.LVL91:
 714:./Libraries/STM32F4xx_HAL_Driver/Src/stm32f4xx_hal_rcc.c **** }
 1459              		.loc 1 714 3 view .LVU458
 714:./Libraries/STM32F4xx_HAL_Driver/Src/stm32f4xx_hal_rcc.c **** }
 1460              		.loc 1 714 10 is_stmt 0 view .LVU459
 1461 0136 0020     		movs	r0, #0
 1462              	.L113:
 715:./Libraries/STM32F4xx_HAL_Driver/Src/stm32f4xx_hal_rcc.c **** 
 1463              		.loc 1 715 1 view .LVU460
 1464 0138 70BD     		pop	{r4, r5, r6, pc}
 1465              	.LVL92:
 1466              	.L127:
 1467              	.LCFI12:
 1468              		.cfi_def_cfa_offset 0
 1469              		.cfi_restore 4
 1470              		.cfi_restore 5
 1471              		.cfi_restore 6
 1472              		.cfi_restore 14
 588:./Libraries/STM32F4xx_HAL_Driver/Src/stm32f4xx_hal_rcc.c ****   }
 1473              		.loc 1 588 12 view .LVU461
 1474 013a 0120     		movs	r0, #1
 1475              	.LVL93:
 715:./Libraries/STM32F4xx_HAL_Driver/Src/stm32f4xx_hal_rcc.c **** 
 1476              		.loc 1 715 1 view .LVU462
 1477 013c 7047     		bx	lr
 1478              	.LVL94:
 1479              	.L128:
 1480              	.LCFI13:
 1481              		.cfi_def_cfa_offset 16
 1482              		.cfi_offset 4, -16
 1483              		.cfi_offset 5, -12
 1484              		.cfi_offset 6, -8
 1485              		.cfi_offset 14, -4
 609:./Libraries/STM32F4xx_HAL_Driver/Src/stm32f4xx_hal_rcc.c ****     }
 1486              		.loc 1 609 14 view .LVU463
 1487 013e 0120     		movs	r0, #1
 1488              	.LVL95:
 609:./Libraries/STM32F4xx_HAL_Driver/Src/stm32f4xx_hal_rcc.c ****     }
ARM GAS  /tmp/ccLT17et.s 			page 47


 1489              		.loc 1 609 14 view .LVU464
 1490 0140 FAE7     		b	.L113
 1491              	.LVL96:
 1492              	.L131:
 662:./Libraries/STM32F4xx_HAL_Driver/Src/stm32f4xx_hal_rcc.c ****       }
 1493              		.loc 1 662 16 view .LVU465
 1494 0142 0120     		movs	r0, #1
 1495              	.LVL97:
 662:./Libraries/STM32F4xx_HAL_Driver/Src/stm32f4xx_hal_rcc.c ****       }
 1496              		.loc 1 662 16 view .LVU466
 1497 0144 F8E7     		b	.L113
 1498              	.L133:
 690:./Libraries/STM32F4xx_HAL_Driver/Src/stm32f4xx_hal_rcc.c ****     }
 1499              		.loc 1 690 14 view .LVU467
 1500 0146 0120     		movs	r0, #1
 1501 0148 F6E7     		b	.L113
 1502              	.L141:
 1503 014a 00BF     		.align	2
 1504              	.L140:
 1505 014c 003C0240 		.word	1073888256
 1506 0150 00380240 		.word	1073887232
 1507 0154 00000000 		.word	AHBPrescTable
 1508 0158 00000000 		.word	SystemCoreClock
 1509              		.cfi_endproc
 1510              	.LFE128:
 1512              		.section	.text.HAL_RCC_GetHCLKFreq,"ax",%progbits
 1513              		.align	1
 1514              		.global	HAL_RCC_GetHCLKFreq
 1515              		.syntax unified
 1516              		.thumb
 1517              		.thumb_func
 1518              		.fpu fpv4-sp-d16
 1520              	HAL_RCC_GetHCLKFreq:
 1521              	.LFB133:
 921:./Libraries/STM32F4xx_HAL_Driver/Src/stm32f4xx_hal_rcc.c **** 
 922:./Libraries/STM32F4xx_HAL_Driver/Src/stm32f4xx_hal_rcc.c **** /**
 923:./Libraries/STM32F4xx_HAL_Driver/Src/stm32f4xx_hal_rcc.c ****   * @brief  Returns the HCLK frequency
 924:./Libraries/STM32F4xx_HAL_Driver/Src/stm32f4xx_hal_rcc.c ****   * @note   Each time HCLK changes, this function must be called to update the
 925:./Libraries/STM32F4xx_HAL_Driver/Src/stm32f4xx_hal_rcc.c ****   *         right HCLK value. Otherwise, any configuration based on this function will be incorrect
 926:./Libraries/STM32F4xx_HAL_Driver/Src/stm32f4xx_hal_rcc.c ****   *
 927:./Libraries/STM32F4xx_HAL_Driver/Src/stm32f4xx_hal_rcc.c ****   * @note   The SystemCoreClock CMSIS variable is used to store System Clock Frequency
 928:./Libraries/STM32F4xx_HAL_Driver/Src/stm32f4xx_hal_rcc.c ****   *         and updated within this function
 929:./Libraries/STM32F4xx_HAL_Driver/Src/stm32f4xx_hal_rcc.c ****   * @retval HCLK frequency
 930:./Libraries/STM32F4xx_HAL_Driver/Src/stm32f4xx_hal_rcc.c ****   */
 931:./Libraries/STM32F4xx_HAL_Driver/Src/stm32f4xx_hal_rcc.c **** uint32_t HAL_RCC_GetHCLKFreq(void)
 932:./Libraries/STM32F4xx_HAL_Driver/Src/stm32f4xx_hal_rcc.c **** {
 1522              		.loc 1 932 1 is_stmt 1 view -0
 1523              		.cfi_startproc
 1524              		@ args = 0, pretend = 0, frame = 0
 1525              		@ frame_needed = 0, uses_anonymous_args = 0
 1526              		@ link register save eliminated.
 933:./Libraries/STM32F4xx_HAL_Driver/Src/stm32f4xx_hal_rcc.c ****   return SystemCoreClock;
 1527              		.loc 1 933 3 view .LVU469
 934:./Libraries/STM32F4xx_HAL_Driver/Src/stm32f4xx_hal_rcc.c **** }
 1528              		.loc 1 934 1 is_stmt 0 view .LVU470
 1529 0000 014B     		ldr	r3, .L143
 1530 0002 1868     		ldr	r0, [r3]
ARM GAS  /tmp/ccLT17et.s 			page 48


 1531 0004 7047     		bx	lr
 1532              	.L144:
 1533 0006 00BF     		.align	2
 1534              	.L143:
 1535 0008 00000000 		.word	SystemCoreClock
 1536              		.cfi_endproc
 1537              	.LFE133:
 1539              		.section	.text.HAL_RCC_GetPCLK1Freq,"ax",%progbits
 1540              		.align	1
 1541              		.global	HAL_RCC_GetPCLK1Freq
 1542              		.syntax unified
 1543              		.thumb
 1544              		.thumb_func
 1545              		.fpu fpv4-sp-d16
 1547              	HAL_RCC_GetPCLK1Freq:
 1548              	.LFB134:
 935:./Libraries/STM32F4xx_HAL_Driver/Src/stm32f4xx_hal_rcc.c **** 
 936:./Libraries/STM32F4xx_HAL_Driver/Src/stm32f4xx_hal_rcc.c **** /**
 937:./Libraries/STM32F4xx_HAL_Driver/Src/stm32f4xx_hal_rcc.c ****   * @brief  Returns the PCLK1 frequency
 938:./Libraries/STM32F4xx_HAL_Driver/Src/stm32f4xx_hal_rcc.c ****   * @note   Each time PCLK1 changes, this function must be called to update the
 939:./Libraries/STM32F4xx_HAL_Driver/Src/stm32f4xx_hal_rcc.c ****   *         right PCLK1 value. Otherwise, any configuration based on this function will be incorrec
 940:./Libraries/STM32F4xx_HAL_Driver/Src/stm32f4xx_hal_rcc.c ****   * @retval PCLK1 frequency
 941:./Libraries/STM32F4xx_HAL_Driver/Src/stm32f4xx_hal_rcc.c ****   */
 942:./Libraries/STM32F4xx_HAL_Driver/Src/stm32f4xx_hal_rcc.c **** uint32_t HAL_RCC_GetPCLK1Freq(void)
 943:./Libraries/STM32F4xx_HAL_Driver/Src/stm32f4xx_hal_rcc.c **** {
 1549              		.loc 1 943 1 is_stmt 1 view -0
 1550              		.cfi_startproc
 1551              		@ args = 0, pretend = 0, frame = 0
 1552              		@ frame_needed = 0, uses_anonymous_args = 0
 1553 0000 08B5     		push	{r3, lr}
 1554              	.LCFI14:
 1555              		.cfi_def_cfa_offset 8
 1556              		.cfi_offset 3, -8
 1557              		.cfi_offset 14, -4
 944:./Libraries/STM32F4xx_HAL_Driver/Src/stm32f4xx_hal_rcc.c ****   /* Get HCLK source and Compute PCLK1 frequency ---------------------------*/
 945:./Libraries/STM32F4xx_HAL_Driver/Src/stm32f4xx_hal_rcc.c ****   return (HAL_RCC_GetHCLKFreq() >> APBPrescTable[(RCC->CFGR & RCC_CFGR_PPRE1)>> RCC_CFGR_PPRE1_Pos]
 1558              		.loc 1 945 3 view .LVU472
 1559              		.loc 1 945 11 is_stmt 0 view .LVU473
 1560 0002 FFF7FEFF 		bl	HAL_RCC_GetHCLKFreq
 1561              	.LVL98:
 1562              		.loc 1 945 54 view .LVU474
 1563 0006 044B     		ldr	r3, .L147
 1564 0008 9B68     		ldr	r3, [r3, #8]
 1565              		.loc 1 945 78 view .LVU475
 1566 000a C3F38223 		ubfx	r3, r3, #10, #3
 1567              		.loc 1 945 49 view .LVU476
 1568 000e 034A     		ldr	r2, .L147+4
 1569 0010 D35C     		ldrb	r3, [r2, r3]	@ zero_extendqisi2
 946:./Libraries/STM32F4xx_HAL_Driver/Src/stm32f4xx_hal_rcc.c **** }
 1570              		.loc 1 946 1 view .LVU477
 1571 0012 D840     		lsrs	r0, r0, r3
 1572 0014 08BD     		pop	{r3, pc}
 1573              	.L148:
 1574 0016 00BF     		.align	2
 1575              	.L147:
 1576 0018 00380240 		.word	1073887232
 1577 001c 00000000 		.word	APBPrescTable
ARM GAS  /tmp/ccLT17et.s 			page 49


 1578              		.cfi_endproc
 1579              	.LFE134:
 1581              		.section	.text.HAL_RCC_GetPCLK2Freq,"ax",%progbits
 1582              		.align	1
 1583              		.global	HAL_RCC_GetPCLK2Freq
 1584              		.syntax unified
 1585              		.thumb
 1586              		.thumb_func
 1587              		.fpu fpv4-sp-d16
 1589              	HAL_RCC_GetPCLK2Freq:
 1590              	.LFB135:
 947:./Libraries/STM32F4xx_HAL_Driver/Src/stm32f4xx_hal_rcc.c **** 
 948:./Libraries/STM32F4xx_HAL_Driver/Src/stm32f4xx_hal_rcc.c **** /**
 949:./Libraries/STM32F4xx_HAL_Driver/Src/stm32f4xx_hal_rcc.c ****   * @brief  Returns the PCLK2 frequency
 950:./Libraries/STM32F4xx_HAL_Driver/Src/stm32f4xx_hal_rcc.c ****   * @note   Each time PCLK2 changes, this function must be called to update the
 951:./Libraries/STM32F4xx_HAL_Driver/Src/stm32f4xx_hal_rcc.c ****   *         right PCLK2 value. Otherwise, any configuration based on this function will be incorrec
 952:./Libraries/STM32F4xx_HAL_Driver/Src/stm32f4xx_hal_rcc.c ****   * @retval PCLK2 frequency
 953:./Libraries/STM32F4xx_HAL_Driver/Src/stm32f4xx_hal_rcc.c ****   */
 954:./Libraries/STM32F4xx_HAL_Driver/Src/stm32f4xx_hal_rcc.c **** uint32_t HAL_RCC_GetPCLK2Freq(void)
 955:./Libraries/STM32F4xx_HAL_Driver/Src/stm32f4xx_hal_rcc.c **** {
 1591              		.loc 1 955 1 is_stmt 1 view -0
 1592              		.cfi_startproc
 1593              		@ args = 0, pretend = 0, frame = 0
 1594              		@ frame_needed = 0, uses_anonymous_args = 0
 1595 0000 08B5     		push	{r3, lr}
 1596              	.LCFI15:
 1597              		.cfi_def_cfa_offset 8
 1598              		.cfi_offset 3, -8
 1599              		.cfi_offset 14, -4
 956:./Libraries/STM32F4xx_HAL_Driver/Src/stm32f4xx_hal_rcc.c ****   /* Get HCLK source and Compute PCLK2 frequency ---------------------------*/
 957:./Libraries/STM32F4xx_HAL_Driver/Src/stm32f4xx_hal_rcc.c ****   return (HAL_RCC_GetHCLKFreq()>> APBPrescTable[(RCC->CFGR & RCC_CFGR_PPRE2)>> RCC_CFGR_PPRE2_Pos])
 1600              		.loc 1 957 3 view .LVU479
 1601              		.loc 1 957 11 is_stmt 0 view .LVU480
 1602 0002 FFF7FEFF 		bl	HAL_RCC_GetHCLKFreq
 1603              	.LVL99:
 1604              		.loc 1 957 53 view .LVU481
 1605 0006 044B     		ldr	r3, .L151
 1606 0008 9B68     		ldr	r3, [r3, #8]
 1607              		.loc 1 957 77 view .LVU482
 1608 000a C3F34233 		ubfx	r3, r3, #13, #3
 1609              		.loc 1 957 48 view .LVU483
 1610 000e 034A     		ldr	r2, .L151+4
 1611 0010 D35C     		ldrb	r3, [r2, r3]	@ zero_extendqisi2
 958:./Libraries/STM32F4xx_HAL_Driver/Src/stm32f4xx_hal_rcc.c **** }
 1612              		.loc 1 958 1 view .LVU484
 1613 0012 D840     		lsrs	r0, r0, r3
 1614 0014 08BD     		pop	{r3, pc}
 1615              	.L152:
 1616 0016 00BF     		.align	2
 1617              	.L151:
 1618 0018 00380240 		.word	1073887232
 1619 001c 00000000 		.word	APBPrescTable
 1620              		.cfi_endproc
 1621              	.LFE135:
 1623              		.section	.text.HAL_RCC_GetOscConfig,"ax",%progbits
 1624              		.align	1
 1625              		.weak	HAL_RCC_GetOscConfig
ARM GAS  /tmp/ccLT17et.s 			page 50


 1626              		.syntax unified
 1627              		.thumb
 1628              		.thumb_func
 1629              		.fpu fpv4-sp-d16
 1631              	HAL_RCC_GetOscConfig:
 1632              	.LVL100:
 1633              	.LFB136:
 959:./Libraries/STM32F4xx_HAL_Driver/Src/stm32f4xx_hal_rcc.c **** 
 960:./Libraries/STM32F4xx_HAL_Driver/Src/stm32f4xx_hal_rcc.c **** /**
 961:./Libraries/STM32F4xx_HAL_Driver/Src/stm32f4xx_hal_rcc.c ****   * @brief  Configures the RCC_OscInitStruct according to the internal
 962:./Libraries/STM32F4xx_HAL_Driver/Src/stm32f4xx_hal_rcc.c ****   * RCC configuration registers.
 963:./Libraries/STM32F4xx_HAL_Driver/Src/stm32f4xx_hal_rcc.c ****   * @param  RCC_OscInitStruct pointer to an RCC_OscInitTypeDef structure that
 964:./Libraries/STM32F4xx_HAL_Driver/Src/stm32f4xx_hal_rcc.c ****   * will be configured.
 965:./Libraries/STM32F4xx_HAL_Driver/Src/stm32f4xx_hal_rcc.c ****   * @retval None
 966:./Libraries/STM32F4xx_HAL_Driver/Src/stm32f4xx_hal_rcc.c ****   */
 967:./Libraries/STM32F4xx_HAL_Driver/Src/stm32f4xx_hal_rcc.c **** __weak void HAL_RCC_GetOscConfig(RCC_OscInitTypeDef  *RCC_OscInitStruct)
 968:./Libraries/STM32F4xx_HAL_Driver/Src/stm32f4xx_hal_rcc.c **** {
 1634              		.loc 1 968 1 is_stmt 1 view -0
 1635              		.cfi_startproc
 1636              		@ args = 0, pretend = 0, frame = 0
 1637              		@ frame_needed = 0, uses_anonymous_args = 0
 1638              		@ link register save eliminated.
 969:./Libraries/STM32F4xx_HAL_Driver/Src/stm32f4xx_hal_rcc.c ****   /* Set all possible values for the Oscillator type parameter ---------------*/
 970:./Libraries/STM32F4xx_HAL_Driver/Src/stm32f4xx_hal_rcc.c ****   RCC_OscInitStruct->OscillatorType = RCC_OSCILLATORTYPE_HSE | RCC_OSCILLATORTYPE_HSI | RCC_OSCILLA
 1639              		.loc 1 970 3 view .LVU486
 1640              		.loc 1 970 37 is_stmt 0 view .LVU487
 1641 0000 0F23     		movs	r3, #15
 1642 0002 0360     		str	r3, [r0]
 971:./Libraries/STM32F4xx_HAL_Driver/Src/stm32f4xx_hal_rcc.c **** 
 972:./Libraries/STM32F4xx_HAL_Driver/Src/stm32f4xx_hal_rcc.c ****   /* Get the HSE configuration -----------------------------------------------*/
 973:./Libraries/STM32F4xx_HAL_Driver/Src/stm32f4xx_hal_rcc.c ****   if((RCC->CR &RCC_CR_HSEBYP) == RCC_CR_HSEBYP)
 1643              		.loc 1 973 3 is_stmt 1 view .LVU488
 1644              		.loc 1 973 10 is_stmt 0 view .LVU489
 1645 0004 304B     		ldr	r3, .L166
 1646 0006 1B68     		ldr	r3, [r3]
 1647              		.loc 1 973 5 view .LVU490
 1648 0008 13F4802F 		tst	r3, #262144
 1649 000c 3BD0     		beq	.L154
 974:./Libraries/STM32F4xx_HAL_Driver/Src/stm32f4xx_hal_rcc.c ****   {
 975:./Libraries/STM32F4xx_HAL_Driver/Src/stm32f4xx_hal_rcc.c ****     RCC_OscInitStruct->HSEState = RCC_HSE_BYPASS;
 1650              		.loc 1 975 5 is_stmt 1 view .LVU491
 1651              		.loc 1 975 33 is_stmt 0 view .LVU492
 1652 000e 4FF4A023 		mov	r3, #327680
 1653 0012 4360     		str	r3, [r0, #4]
 1654              	.L155:
 976:./Libraries/STM32F4xx_HAL_Driver/Src/stm32f4xx_hal_rcc.c ****   }
 977:./Libraries/STM32F4xx_HAL_Driver/Src/stm32f4xx_hal_rcc.c ****   else if((RCC->CR &RCC_CR_HSEON) == RCC_CR_HSEON)
 978:./Libraries/STM32F4xx_HAL_Driver/Src/stm32f4xx_hal_rcc.c ****   {
 979:./Libraries/STM32F4xx_HAL_Driver/Src/stm32f4xx_hal_rcc.c ****     RCC_OscInitStruct->HSEState = RCC_HSE_ON;
 980:./Libraries/STM32F4xx_HAL_Driver/Src/stm32f4xx_hal_rcc.c ****   }
 981:./Libraries/STM32F4xx_HAL_Driver/Src/stm32f4xx_hal_rcc.c ****   else
 982:./Libraries/STM32F4xx_HAL_Driver/Src/stm32f4xx_hal_rcc.c ****   {
 983:./Libraries/STM32F4xx_HAL_Driver/Src/stm32f4xx_hal_rcc.c ****     RCC_OscInitStruct->HSEState = RCC_HSE_OFF;
 984:./Libraries/STM32F4xx_HAL_Driver/Src/stm32f4xx_hal_rcc.c ****   }
 985:./Libraries/STM32F4xx_HAL_Driver/Src/stm32f4xx_hal_rcc.c **** 
 986:./Libraries/STM32F4xx_HAL_Driver/Src/stm32f4xx_hal_rcc.c ****   /* Get the HSI configuration -----------------------------------------------*/
 987:./Libraries/STM32F4xx_HAL_Driver/Src/stm32f4xx_hal_rcc.c ****   if((RCC->CR &RCC_CR_HSION) == RCC_CR_HSION)
ARM GAS  /tmp/ccLT17et.s 			page 51


 1655              		.loc 1 987 3 is_stmt 1 view .LVU493
 1656              		.loc 1 987 10 is_stmt 0 view .LVU494
 1657 0014 2C4B     		ldr	r3, .L166
 1658 0016 1B68     		ldr	r3, [r3]
 1659              		.loc 1 987 5 view .LVU495
 1660 0018 13F0010F 		tst	r3, #1
 1661 001c 3FD0     		beq	.L157
 988:./Libraries/STM32F4xx_HAL_Driver/Src/stm32f4xx_hal_rcc.c ****   {
 989:./Libraries/STM32F4xx_HAL_Driver/Src/stm32f4xx_hal_rcc.c ****     RCC_OscInitStruct->HSIState = RCC_HSI_ON;
 1662              		.loc 1 989 5 is_stmt 1 view .LVU496
 1663              		.loc 1 989 33 is_stmt 0 view .LVU497
 1664 001e 0123     		movs	r3, #1
 1665 0020 C360     		str	r3, [r0, #12]
 1666              	.L158:
 990:./Libraries/STM32F4xx_HAL_Driver/Src/stm32f4xx_hal_rcc.c ****   }
 991:./Libraries/STM32F4xx_HAL_Driver/Src/stm32f4xx_hal_rcc.c ****   else
 992:./Libraries/STM32F4xx_HAL_Driver/Src/stm32f4xx_hal_rcc.c ****   {
 993:./Libraries/STM32F4xx_HAL_Driver/Src/stm32f4xx_hal_rcc.c ****     RCC_OscInitStruct->HSIState = RCC_HSI_OFF;
 994:./Libraries/STM32F4xx_HAL_Driver/Src/stm32f4xx_hal_rcc.c ****   }
 995:./Libraries/STM32F4xx_HAL_Driver/Src/stm32f4xx_hal_rcc.c **** 
 996:./Libraries/STM32F4xx_HAL_Driver/Src/stm32f4xx_hal_rcc.c ****   RCC_OscInitStruct->HSICalibrationValue = (uint32_t)((RCC->CR &RCC_CR_HSITRIM) >> RCC_CR_HSITRIM_P
 1667              		.loc 1 996 3 is_stmt 1 view .LVU498
 1668              		.loc 1 996 59 is_stmt 0 view .LVU499
 1669 0022 294A     		ldr	r2, .L166
 1670 0024 1368     		ldr	r3, [r2]
 1671              		.loc 1 996 44 view .LVU500
 1672 0026 C3F3C403 		ubfx	r3, r3, #3, #5
 1673              		.loc 1 996 42 view .LVU501
 1674 002a 0361     		str	r3, [r0, #16]
 997:./Libraries/STM32F4xx_HAL_Driver/Src/stm32f4xx_hal_rcc.c **** 
 998:./Libraries/STM32F4xx_HAL_Driver/Src/stm32f4xx_hal_rcc.c ****   /* Get the LSE configuration -----------------------------------------------*/
 999:./Libraries/STM32F4xx_HAL_Driver/Src/stm32f4xx_hal_rcc.c ****   if((RCC->BDCR &RCC_BDCR_LSEBYP) == RCC_BDCR_LSEBYP)
 1675              		.loc 1 999 3 is_stmt 1 view .LVU502
 1676              		.loc 1 999 10 is_stmt 0 view .LVU503
 1677 002c 136F     		ldr	r3, [r2, #112]
 1678              		.loc 1 999 5 view .LVU504
 1679 002e 13F0040F 		tst	r3, #4
 1680 0032 37D0     		beq	.L159
1000:./Libraries/STM32F4xx_HAL_Driver/Src/stm32f4xx_hal_rcc.c ****   {
1001:./Libraries/STM32F4xx_HAL_Driver/Src/stm32f4xx_hal_rcc.c ****     RCC_OscInitStruct->LSEState = RCC_LSE_BYPASS;
 1681              		.loc 1 1001 5 is_stmt 1 view .LVU505
 1682              		.loc 1 1001 33 is_stmt 0 view .LVU506
 1683 0034 0523     		movs	r3, #5
 1684 0036 8360     		str	r3, [r0, #8]
 1685              	.L160:
1002:./Libraries/STM32F4xx_HAL_Driver/Src/stm32f4xx_hal_rcc.c ****   }
1003:./Libraries/STM32F4xx_HAL_Driver/Src/stm32f4xx_hal_rcc.c ****   else if((RCC->BDCR &RCC_BDCR_LSEON) == RCC_BDCR_LSEON)
1004:./Libraries/STM32F4xx_HAL_Driver/Src/stm32f4xx_hal_rcc.c ****   {
1005:./Libraries/STM32F4xx_HAL_Driver/Src/stm32f4xx_hal_rcc.c ****     RCC_OscInitStruct->LSEState = RCC_LSE_ON;
1006:./Libraries/STM32F4xx_HAL_Driver/Src/stm32f4xx_hal_rcc.c ****   }
1007:./Libraries/STM32F4xx_HAL_Driver/Src/stm32f4xx_hal_rcc.c ****   else
1008:./Libraries/STM32F4xx_HAL_Driver/Src/stm32f4xx_hal_rcc.c ****   {
1009:./Libraries/STM32F4xx_HAL_Driver/Src/stm32f4xx_hal_rcc.c ****     RCC_OscInitStruct->LSEState = RCC_LSE_OFF;
1010:./Libraries/STM32F4xx_HAL_Driver/Src/stm32f4xx_hal_rcc.c ****   }
1011:./Libraries/STM32F4xx_HAL_Driver/Src/stm32f4xx_hal_rcc.c **** 
1012:./Libraries/STM32F4xx_HAL_Driver/Src/stm32f4xx_hal_rcc.c ****   /* Get the LSI configuration -----------------------------------------------*/
1013:./Libraries/STM32F4xx_HAL_Driver/Src/stm32f4xx_hal_rcc.c ****   if((RCC->CSR &RCC_CSR_LSION) == RCC_CSR_LSION)
ARM GAS  /tmp/ccLT17et.s 			page 52


 1686              		.loc 1 1013 3 is_stmt 1 view .LVU507
 1687              		.loc 1 1013 10 is_stmt 0 view .LVU508
 1688 0038 234B     		ldr	r3, .L166
 1689 003a 5B6F     		ldr	r3, [r3, #116]
 1690              		.loc 1 1013 5 view .LVU509
 1691 003c 13F0010F 		tst	r3, #1
 1692 0040 3BD0     		beq	.L162
1014:./Libraries/STM32F4xx_HAL_Driver/Src/stm32f4xx_hal_rcc.c ****   {
1015:./Libraries/STM32F4xx_HAL_Driver/Src/stm32f4xx_hal_rcc.c ****     RCC_OscInitStruct->LSIState = RCC_LSI_ON;
 1693              		.loc 1 1015 5 is_stmt 1 view .LVU510
 1694              		.loc 1 1015 33 is_stmt 0 view .LVU511
 1695 0042 0123     		movs	r3, #1
 1696 0044 4361     		str	r3, [r0, #20]
 1697              	.L163:
1016:./Libraries/STM32F4xx_HAL_Driver/Src/stm32f4xx_hal_rcc.c ****   }
1017:./Libraries/STM32F4xx_HAL_Driver/Src/stm32f4xx_hal_rcc.c ****   else
1018:./Libraries/STM32F4xx_HAL_Driver/Src/stm32f4xx_hal_rcc.c ****   {
1019:./Libraries/STM32F4xx_HAL_Driver/Src/stm32f4xx_hal_rcc.c ****     RCC_OscInitStruct->LSIState = RCC_LSI_OFF;
1020:./Libraries/STM32F4xx_HAL_Driver/Src/stm32f4xx_hal_rcc.c ****   }
1021:./Libraries/STM32F4xx_HAL_Driver/Src/stm32f4xx_hal_rcc.c **** 
1022:./Libraries/STM32F4xx_HAL_Driver/Src/stm32f4xx_hal_rcc.c ****   /* Get the PLL configuration -----------------------------------------------*/
1023:./Libraries/STM32F4xx_HAL_Driver/Src/stm32f4xx_hal_rcc.c ****   if((RCC->CR &RCC_CR_PLLON) == RCC_CR_PLLON)
 1698              		.loc 1 1023 3 is_stmt 1 view .LVU512
 1699              		.loc 1 1023 10 is_stmt 0 view .LVU513
 1700 0046 204B     		ldr	r3, .L166
 1701 0048 1B68     		ldr	r3, [r3]
 1702              		.loc 1 1023 5 view .LVU514
 1703 004a 13F0807F 		tst	r3, #16777216
 1704 004e 37D0     		beq	.L164
1024:./Libraries/STM32F4xx_HAL_Driver/Src/stm32f4xx_hal_rcc.c ****   {
1025:./Libraries/STM32F4xx_HAL_Driver/Src/stm32f4xx_hal_rcc.c ****     RCC_OscInitStruct->PLL.PLLState = RCC_PLL_ON;
 1705              		.loc 1 1025 5 is_stmt 1 view .LVU515
 1706              		.loc 1 1025 37 is_stmt 0 view .LVU516
 1707 0050 0223     		movs	r3, #2
 1708 0052 8361     		str	r3, [r0, #24]
 1709              	.L165:
1026:./Libraries/STM32F4xx_HAL_Driver/Src/stm32f4xx_hal_rcc.c ****   }
1027:./Libraries/STM32F4xx_HAL_Driver/Src/stm32f4xx_hal_rcc.c ****   else
1028:./Libraries/STM32F4xx_HAL_Driver/Src/stm32f4xx_hal_rcc.c ****   {
1029:./Libraries/STM32F4xx_HAL_Driver/Src/stm32f4xx_hal_rcc.c ****     RCC_OscInitStruct->PLL.PLLState = RCC_PLL_OFF;
1030:./Libraries/STM32F4xx_HAL_Driver/Src/stm32f4xx_hal_rcc.c ****   }
1031:./Libraries/STM32F4xx_HAL_Driver/Src/stm32f4xx_hal_rcc.c ****   RCC_OscInitStruct->PLL.PLLSource = (uint32_t)(RCC->PLLCFGR & RCC_PLLCFGR_PLLSRC);
 1710              		.loc 1 1031 3 is_stmt 1 view .LVU517
 1711              		.loc 1 1031 52 is_stmt 0 view .LVU518
 1712 0054 1C4A     		ldr	r2, .L166
 1713 0056 5368     		ldr	r3, [r2, #4]
 1714              		.loc 1 1031 38 view .LVU519
 1715 0058 03F48003 		and	r3, r3, #4194304
 1716              		.loc 1 1031 36 view .LVU520
 1717 005c C361     		str	r3, [r0, #28]
1032:./Libraries/STM32F4xx_HAL_Driver/Src/stm32f4xx_hal_rcc.c ****   RCC_OscInitStruct->PLL.PLLM = (uint32_t)(RCC->PLLCFGR & RCC_PLLCFGR_PLLM);
 1718              		.loc 1 1032 3 is_stmt 1 view .LVU521
 1719              		.loc 1 1032 47 is_stmt 0 view .LVU522
 1720 005e 5368     		ldr	r3, [r2, #4]
 1721              		.loc 1 1032 33 view .LVU523
 1722 0060 03F03F03 		and	r3, r3, #63
 1723              		.loc 1 1032 31 view .LVU524
ARM GAS  /tmp/ccLT17et.s 			page 53


 1724 0064 0362     		str	r3, [r0, #32]
1033:./Libraries/STM32F4xx_HAL_Driver/Src/stm32f4xx_hal_rcc.c ****   RCC_OscInitStruct->PLL.PLLN = (uint32_t)((RCC->PLLCFGR & RCC_PLLCFGR_PLLN) >> RCC_PLLCFGR_PLLN_Po
 1725              		.loc 1 1033 3 is_stmt 1 view .LVU525
 1726              		.loc 1 1033 48 is_stmt 0 view .LVU526
 1727 0066 5368     		ldr	r3, [r2, #4]
 1728              		.loc 1 1033 33 view .LVU527
 1729 0068 C3F38813 		ubfx	r3, r3, #6, #9
 1730              		.loc 1 1033 31 view .LVU528
 1731 006c 4362     		str	r3, [r0, #36]
1034:./Libraries/STM32F4xx_HAL_Driver/Src/stm32f4xx_hal_rcc.c ****   RCC_OscInitStruct->PLL.PLLP = (uint32_t)((((RCC->PLLCFGR & RCC_PLLCFGR_PLLP) + RCC_PLLCFGR_PLLP_0
 1732              		.loc 1 1034 3 is_stmt 1 view .LVU529
 1733              		.loc 1 1034 50 is_stmt 0 view .LVU530
 1734 006e 5368     		ldr	r3, [r2, #4]
 1735              		.loc 1 1034 60 view .LVU531
 1736 0070 03F44033 		and	r3, r3, #196608
 1737              		.loc 1 1034 80 view .LVU532
 1738 0074 03F58033 		add	r3, r3, #65536
 1739              		.loc 1 1034 33 view .LVU533
 1740 0078 DB0B     		lsrs	r3, r3, #15
 1741              		.loc 1 1034 31 view .LVU534
 1742 007a 8362     		str	r3, [r0, #40]
1035:./Libraries/STM32F4xx_HAL_Driver/Src/stm32f4xx_hal_rcc.c ****   RCC_OscInitStruct->PLL.PLLQ = (uint32_t)((RCC->PLLCFGR & RCC_PLLCFGR_PLLQ) >> RCC_PLLCFGR_PLLQ_Po
 1743              		.loc 1 1035 3 is_stmt 1 view .LVU535
 1744              		.loc 1 1035 48 is_stmt 0 view .LVU536
 1745 007c 5368     		ldr	r3, [r2, #4]
 1746              		.loc 1 1035 33 view .LVU537
 1747 007e C3F30363 		ubfx	r3, r3, #24, #4
 1748              		.loc 1 1035 31 view .LVU538
 1749 0082 C362     		str	r3, [r0, #44]
1036:./Libraries/STM32F4xx_HAL_Driver/Src/stm32f4xx_hal_rcc.c **** }
 1750              		.loc 1 1036 1 view .LVU539
 1751 0084 7047     		bx	lr
 1752              	.L154:
 977:./Libraries/STM32F4xx_HAL_Driver/Src/stm32f4xx_hal_rcc.c ****   {
 1753              		.loc 1 977 8 is_stmt 1 view .LVU540
 977:./Libraries/STM32F4xx_HAL_Driver/Src/stm32f4xx_hal_rcc.c ****   {
 1754              		.loc 1 977 15 is_stmt 0 view .LVU541
 1755 0086 104B     		ldr	r3, .L166
 1756 0088 1B68     		ldr	r3, [r3]
 977:./Libraries/STM32F4xx_HAL_Driver/Src/stm32f4xx_hal_rcc.c ****   {
 1757              		.loc 1 977 10 view .LVU542
 1758 008a 13F4803F 		tst	r3, #65536
 1759 008e 03D0     		beq	.L156
 979:./Libraries/STM32F4xx_HAL_Driver/Src/stm32f4xx_hal_rcc.c ****   }
 1760              		.loc 1 979 5 is_stmt 1 view .LVU543
 979:./Libraries/STM32F4xx_HAL_Driver/Src/stm32f4xx_hal_rcc.c ****   }
 1761              		.loc 1 979 33 is_stmt 0 view .LVU544
 1762 0090 4FF48033 		mov	r3, #65536
 1763 0094 4360     		str	r3, [r0, #4]
 1764 0096 BDE7     		b	.L155
 1765              	.L156:
 983:./Libraries/STM32F4xx_HAL_Driver/Src/stm32f4xx_hal_rcc.c ****   }
 1766              		.loc 1 983 5 is_stmt 1 view .LVU545
 983:./Libraries/STM32F4xx_HAL_Driver/Src/stm32f4xx_hal_rcc.c ****   }
 1767              		.loc 1 983 33 is_stmt 0 view .LVU546
 1768 0098 0023     		movs	r3, #0
 1769 009a 4360     		str	r3, [r0, #4]
ARM GAS  /tmp/ccLT17et.s 			page 54


 1770 009c BAE7     		b	.L155
 1771              	.L157:
 993:./Libraries/STM32F4xx_HAL_Driver/Src/stm32f4xx_hal_rcc.c ****   }
 1772              		.loc 1 993 5 is_stmt 1 view .LVU547
 993:./Libraries/STM32F4xx_HAL_Driver/Src/stm32f4xx_hal_rcc.c ****   }
 1773              		.loc 1 993 33 is_stmt 0 view .LVU548
 1774 009e 0023     		movs	r3, #0
 1775 00a0 C360     		str	r3, [r0, #12]
 1776 00a2 BEE7     		b	.L158
 1777              	.L159:
1003:./Libraries/STM32F4xx_HAL_Driver/Src/stm32f4xx_hal_rcc.c ****   {
 1778              		.loc 1 1003 8 is_stmt 1 view .LVU549
1003:./Libraries/STM32F4xx_HAL_Driver/Src/stm32f4xx_hal_rcc.c ****   {
 1779              		.loc 1 1003 15 is_stmt 0 view .LVU550
 1780 00a4 084B     		ldr	r3, .L166
 1781 00a6 1B6F     		ldr	r3, [r3, #112]
1003:./Libraries/STM32F4xx_HAL_Driver/Src/stm32f4xx_hal_rcc.c ****   {
 1782              		.loc 1 1003 10 view .LVU551
 1783 00a8 13F0010F 		tst	r3, #1
 1784 00ac 02D0     		beq	.L161
1005:./Libraries/STM32F4xx_HAL_Driver/Src/stm32f4xx_hal_rcc.c ****   }
 1785              		.loc 1 1005 5 is_stmt 1 view .LVU552
1005:./Libraries/STM32F4xx_HAL_Driver/Src/stm32f4xx_hal_rcc.c ****   }
 1786              		.loc 1 1005 33 is_stmt 0 view .LVU553
 1787 00ae 0123     		movs	r3, #1
 1788 00b0 8360     		str	r3, [r0, #8]
 1789 00b2 C1E7     		b	.L160
 1790              	.L161:
1009:./Libraries/STM32F4xx_HAL_Driver/Src/stm32f4xx_hal_rcc.c ****   }
 1791              		.loc 1 1009 5 is_stmt 1 view .LVU554
1009:./Libraries/STM32F4xx_HAL_Driver/Src/stm32f4xx_hal_rcc.c ****   }
 1792              		.loc 1 1009 33 is_stmt 0 view .LVU555
 1793 00b4 0023     		movs	r3, #0
 1794 00b6 8360     		str	r3, [r0, #8]
 1795 00b8 BEE7     		b	.L160
 1796              	.L162:
1019:./Libraries/STM32F4xx_HAL_Driver/Src/stm32f4xx_hal_rcc.c ****   }
 1797              		.loc 1 1019 5 is_stmt 1 view .LVU556
1019:./Libraries/STM32F4xx_HAL_Driver/Src/stm32f4xx_hal_rcc.c ****   }
 1798              		.loc 1 1019 33 is_stmt 0 view .LVU557
 1799 00ba 0023     		movs	r3, #0
 1800 00bc 4361     		str	r3, [r0, #20]
 1801 00be C2E7     		b	.L163
 1802              	.L164:
1029:./Libraries/STM32F4xx_HAL_Driver/Src/stm32f4xx_hal_rcc.c ****   }
 1803              		.loc 1 1029 5 is_stmt 1 view .LVU558
1029:./Libraries/STM32F4xx_HAL_Driver/Src/stm32f4xx_hal_rcc.c ****   }
 1804              		.loc 1 1029 37 is_stmt 0 view .LVU559
 1805 00c0 0123     		movs	r3, #1
 1806 00c2 8361     		str	r3, [r0, #24]
 1807 00c4 C6E7     		b	.L165
 1808              	.L167:
 1809 00c6 00BF     		.align	2
 1810              	.L166:
 1811 00c8 00380240 		.word	1073887232
 1812              		.cfi_endproc
 1813              	.LFE136:
ARM GAS  /tmp/ccLT17et.s 			page 55


 1815              		.section	.text.HAL_RCC_GetClockConfig,"ax",%progbits
 1816              		.align	1
 1817              		.global	HAL_RCC_GetClockConfig
 1818              		.syntax unified
 1819              		.thumb
 1820              		.thumb_func
 1821              		.fpu fpv4-sp-d16
 1823              	HAL_RCC_GetClockConfig:
 1824              	.LVL101:
 1825              	.LFB137:
1037:./Libraries/STM32F4xx_HAL_Driver/Src/stm32f4xx_hal_rcc.c **** 
1038:./Libraries/STM32F4xx_HAL_Driver/Src/stm32f4xx_hal_rcc.c **** /**
1039:./Libraries/STM32F4xx_HAL_Driver/Src/stm32f4xx_hal_rcc.c ****   * @brief  Configures the RCC_ClkInitStruct according to the internal
1040:./Libraries/STM32F4xx_HAL_Driver/Src/stm32f4xx_hal_rcc.c ****   * RCC configuration registers.
1041:./Libraries/STM32F4xx_HAL_Driver/Src/stm32f4xx_hal_rcc.c ****   * @param  RCC_ClkInitStruct pointer to an RCC_ClkInitTypeDef structure that
1042:./Libraries/STM32F4xx_HAL_Driver/Src/stm32f4xx_hal_rcc.c ****   * will be configured.
1043:./Libraries/STM32F4xx_HAL_Driver/Src/stm32f4xx_hal_rcc.c ****   * @param  pFLatency Pointer on the Flash Latency.
1044:./Libraries/STM32F4xx_HAL_Driver/Src/stm32f4xx_hal_rcc.c ****   * @retval None
1045:./Libraries/STM32F4xx_HAL_Driver/Src/stm32f4xx_hal_rcc.c ****   */
1046:./Libraries/STM32F4xx_HAL_Driver/Src/stm32f4xx_hal_rcc.c **** void HAL_RCC_GetClockConfig(RCC_ClkInitTypeDef  *RCC_ClkInitStruct, uint32_t *pFLatency)
1047:./Libraries/STM32F4xx_HAL_Driver/Src/stm32f4xx_hal_rcc.c **** {
 1826              		.loc 1 1047 1 is_stmt 1 view -0
 1827              		.cfi_startproc
 1828              		@ args = 0, pretend = 0, frame = 0
 1829              		@ frame_needed = 0, uses_anonymous_args = 0
 1830              		@ link register save eliminated.
1048:./Libraries/STM32F4xx_HAL_Driver/Src/stm32f4xx_hal_rcc.c ****   /* Set all possible values for the Clock type parameter --------------------*/
1049:./Libraries/STM32F4xx_HAL_Driver/Src/stm32f4xx_hal_rcc.c ****   RCC_ClkInitStruct->ClockType = RCC_CLOCKTYPE_SYSCLK | RCC_CLOCKTYPE_HCLK | RCC_CLOCKTYPE_PCLK1 | 
 1831              		.loc 1 1049 3 view .LVU561
 1832              		.loc 1 1049 32 is_stmt 0 view .LVU562
 1833 0000 0F23     		movs	r3, #15
 1834 0002 0360     		str	r3, [r0]
1050:./Libraries/STM32F4xx_HAL_Driver/Src/stm32f4xx_hal_rcc.c **** 
1051:./Libraries/STM32F4xx_HAL_Driver/Src/stm32f4xx_hal_rcc.c ****   /* Get the SYSCLK configuration --------------------------------------------*/
1052:./Libraries/STM32F4xx_HAL_Driver/Src/stm32f4xx_hal_rcc.c ****   RCC_ClkInitStruct->SYSCLKSource = (uint32_t)(RCC->CFGR & RCC_CFGR_SW);
 1835              		.loc 1 1052 3 is_stmt 1 view .LVU563
 1836              		.loc 1 1052 51 is_stmt 0 view .LVU564
 1837 0004 0B4B     		ldr	r3, .L169
 1838 0006 9A68     		ldr	r2, [r3, #8]
 1839              		.loc 1 1052 37 view .LVU565
 1840 0008 02F00302 		and	r2, r2, #3
 1841              		.loc 1 1052 35 view .LVU566
 1842 000c 4260     		str	r2, [r0, #4]
1053:./Libraries/STM32F4xx_HAL_Driver/Src/stm32f4xx_hal_rcc.c **** 
1054:./Libraries/STM32F4xx_HAL_Driver/Src/stm32f4xx_hal_rcc.c ****   /* Get the HCLK configuration ----------------------------------------------*/
1055:./Libraries/STM32F4xx_HAL_Driver/Src/stm32f4xx_hal_rcc.c ****   RCC_ClkInitStruct->AHBCLKDivider = (uint32_t)(RCC->CFGR & RCC_CFGR_HPRE);
 1843              		.loc 1 1055 3 is_stmt 1 view .LVU567
 1844              		.loc 1 1055 52 is_stmt 0 view .LVU568
 1845 000e 9A68     		ldr	r2, [r3, #8]
 1846              		.loc 1 1055 38 view .LVU569
 1847 0010 02F0F002 		and	r2, r2, #240
 1848              		.loc 1 1055 36 view .LVU570
 1849 0014 8260     		str	r2, [r0, #8]
1056:./Libraries/STM32F4xx_HAL_Driver/Src/stm32f4xx_hal_rcc.c **** 
1057:./Libraries/STM32F4xx_HAL_Driver/Src/stm32f4xx_hal_rcc.c ****   /* Get the APB1 configuration ----------------------------------------------*/
1058:./Libraries/STM32F4xx_HAL_Driver/Src/stm32f4xx_hal_rcc.c ****   RCC_ClkInitStruct->APB1CLKDivider = (uint32_t)(RCC->CFGR & RCC_CFGR_PPRE1);
 1850              		.loc 1 1058 3 is_stmt 1 view .LVU571
ARM GAS  /tmp/ccLT17et.s 			page 56


 1851              		.loc 1 1058 53 is_stmt 0 view .LVU572
 1852 0016 9A68     		ldr	r2, [r3, #8]
 1853              		.loc 1 1058 39 view .LVU573
 1854 0018 02F4E052 		and	r2, r2, #7168
 1855              		.loc 1 1058 37 view .LVU574
 1856 001c C260     		str	r2, [r0, #12]
1059:./Libraries/STM32F4xx_HAL_Driver/Src/stm32f4xx_hal_rcc.c **** 
1060:./Libraries/STM32F4xx_HAL_Driver/Src/stm32f4xx_hal_rcc.c ****   /* Get the APB2 configuration ----------------------------------------------*/
1061:./Libraries/STM32F4xx_HAL_Driver/Src/stm32f4xx_hal_rcc.c ****   RCC_ClkInitStruct->APB2CLKDivider = (uint32_t)((RCC->CFGR & RCC_CFGR_PPRE2) >> 3U);
 1857              		.loc 1 1061 3 is_stmt 1 view .LVU575
 1858              		.loc 1 1061 54 is_stmt 0 view .LVU576
 1859 001e 9B68     		ldr	r3, [r3, #8]
 1860              		.loc 1 1061 39 view .LVU577
 1861 0020 DB08     		lsrs	r3, r3, #3
 1862 0022 03F4E053 		and	r3, r3, #7168
 1863              		.loc 1 1061 37 view .LVU578
 1864 0026 0361     		str	r3, [r0, #16]
1062:./Libraries/STM32F4xx_HAL_Driver/Src/stm32f4xx_hal_rcc.c **** 
1063:./Libraries/STM32F4xx_HAL_Driver/Src/stm32f4xx_hal_rcc.c ****   /* Get the Flash Wait State (Latency) configuration ------------------------*/
1064:./Libraries/STM32F4xx_HAL_Driver/Src/stm32f4xx_hal_rcc.c ****   *pFLatency = (uint32_t)(FLASH->ACR & FLASH_ACR_LATENCY);
 1865              		.loc 1 1064 3 is_stmt 1 view .LVU579
 1866              		.loc 1 1064 32 is_stmt 0 view .LVU580
 1867 0028 034B     		ldr	r3, .L169+4
 1868 002a 1B68     		ldr	r3, [r3]
 1869              		.loc 1 1064 16 view .LVU581
 1870 002c 03F00F03 		and	r3, r3, #15
 1871              		.loc 1 1064 14 view .LVU582
 1872 0030 0B60     		str	r3, [r1]
1065:./Libraries/STM32F4xx_HAL_Driver/Src/stm32f4xx_hal_rcc.c **** }
 1873              		.loc 1 1065 1 view .LVU583
 1874 0032 7047     		bx	lr
 1875              	.L170:
 1876              		.align	2
 1877              	.L169:
 1878 0034 00380240 		.word	1073887232
 1879 0038 003C0240 		.word	1073888256
 1880              		.cfi_endproc
 1881              	.LFE137:
 1883              		.section	.text.HAL_RCC_CSSCallback,"ax",%progbits
 1884              		.align	1
 1885              		.weak	HAL_RCC_CSSCallback
 1886              		.syntax unified
 1887              		.thumb
 1888              		.thumb_func
 1889              		.fpu fpv4-sp-d16
 1891              	HAL_RCC_CSSCallback:
 1892              	.LFB139:
1066:./Libraries/STM32F4xx_HAL_Driver/Src/stm32f4xx_hal_rcc.c **** 
1067:./Libraries/STM32F4xx_HAL_Driver/Src/stm32f4xx_hal_rcc.c **** /**
1068:./Libraries/STM32F4xx_HAL_Driver/Src/stm32f4xx_hal_rcc.c ****   * @brief This function handles the RCC CSS interrupt request.
1069:./Libraries/STM32F4xx_HAL_Driver/Src/stm32f4xx_hal_rcc.c ****   * @note This API should be called under the NMI_Handler().
1070:./Libraries/STM32F4xx_HAL_Driver/Src/stm32f4xx_hal_rcc.c ****   * @retval None
1071:./Libraries/STM32F4xx_HAL_Driver/Src/stm32f4xx_hal_rcc.c ****   */
1072:./Libraries/STM32F4xx_HAL_Driver/Src/stm32f4xx_hal_rcc.c **** void HAL_RCC_NMI_IRQHandler(void)
1073:./Libraries/STM32F4xx_HAL_Driver/Src/stm32f4xx_hal_rcc.c **** {
1074:./Libraries/STM32F4xx_HAL_Driver/Src/stm32f4xx_hal_rcc.c ****   /* Check RCC CSSF flag  */
1075:./Libraries/STM32F4xx_HAL_Driver/Src/stm32f4xx_hal_rcc.c ****   if(__HAL_RCC_GET_IT(RCC_IT_CSS))
ARM GAS  /tmp/ccLT17et.s 			page 57


1076:./Libraries/STM32F4xx_HAL_Driver/Src/stm32f4xx_hal_rcc.c ****   {
1077:./Libraries/STM32F4xx_HAL_Driver/Src/stm32f4xx_hal_rcc.c ****     /* RCC Clock Security System interrupt user callback */
1078:./Libraries/STM32F4xx_HAL_Driver/Src/stm32f4xx_hal_rcc.c ****     HAL_RCC_CSSCallback();
1079:./Libraries/STM32F4xx_HAL_Driver/Src/stm32f4xx_hal_rcc.c **** 
1080:./Libraries/STM32F4xx_HAL_Driver/Src/stm32f4xx_hal_rcc.c ****     /* Clear RCC CSS pending bit */
1081:./Libraries/STM32F4xx_HAL_Driver/Src/stm32f4xx_hal_rcc.c ****     __HAL_RCC_CLEAR_IT(RCC_IT_CSS);
1082:./Libraries/STM32F4xx_HAL_Driver/Src/stm32f4xx_hal_rcc.c ****   }
1083:./Libraries/STM32F4xx_HAL_Driver/Src/stm32f4xx_hal_rcc.c **** }
1084:./Libraries/STM32F4xx_HAL_Driver/Src/stm32f4xx_hal_rcc.c **** 
1085:./Libraries/STM32F4xx_HAL_Driver/Src/stm32f4xx_hal_rcc.c **** /**
1086:./Libraries/STM32F4xx_HAL_Driver/Src/stm32f4xx_hal_rcc.c ****   * @brief  RCC Clock Security System interrupt callback
1087:./Libraries/STM32F4xx_HAL_Driver/Src/stm32f4xx_hal_rcc.c ****   * @retval None
1088:./Libraries/STM32F4xx_HAL_Driver/Src/stm32f4xx_hal_rcc.c ****   */
1089:./Libraries/STM32F4xx_HAL_Driver/Src/stm32f4xx_hal_rcc.c **** __weak void HAL_RCC_CSSCallback(void)
1090:./Libraries/STM32F4xx_HAL_Driver/Src/stm32f4xx_hal_rcc.c **** {
 1893              		.loc 1 1090 1 is_stmt 1 view -0
 1894              		.cfi_startproc
 1895              		@ args = 0, pretend = 0, frame = 0
 1896              		@ frame_needed = 0, uses_anonymous_args = 0
 1897              		@ link register save eliminated.
1091:./Libraries/STM32F4xx_HAL_Driver/Src/stm32f4xx_hal_rcc.c ****   /* NOTE : This function Should not be modified, when the callback is needed,
1092:./Libraries/STM32F4xx_HAL_Driver/Src/stm32f4xx_hal_rcc.c ****             the HAL_RCC_CSSCallback could be implemented in the user file
1093:./Libraries/STM32F4xx_HAL_Driver/Src/stm32f4xx_hal_rcc.c ****    */
1094:./Libraries/STM32F4xx_HAL_Driver/Src/stm32f4xx_hal_rcc.c **** }
 1898              		.loc 1 1094 1 view .LVU585
 1899 0000 7047     		bx	lr
 1900              		.cfi_endproc
 1901              	.LFE139:
 1903              		.section	.text.HAL_RCC_NMI_IRQHandler,"ax",%progbits
 1904              		.align	1
 1905              		.global	HAL_RCC_NMI_IRQHandler
 1906              		.syntax unified
 1907              		.thumb
 1908              		.thumb_func
 1909              		.fpu fpv4-sp-d16
 1911              	HAL_RCC_NMI_IRQHandler:
 1912              	.LFB138:
1073:./Libraries/STM32F4xx_HAL_Driver/Src/stm32f4xx_hal_rcc.c ****   /* Check RCC CSSF flag  */
 1913              		.loc 1 1073 1 view -0
 1914              		.cfi_startproc
 1915              		@ args = 0, pretend = 0, frame = 0
 1916              		@ frame_needed = 0, uses_anonymous_args = 0
 1917 0000 08B5     		push	{r3, lr}
 1918              	.LCFI16:
 1919              		.cfi_def_cfa_offset 8
 1920              		.cfi_offset 3, -8
 1921              		.cfi_offset 14, -4
1075:./Libraries/STM32F4xx_HAL_Driver/Src/stm32f4xx_hal_rcc.c ****   {
 1922              		.loc 1 1075 3 view .LVU587
1075:./Libraries/STM32F4xx_HAL_Driver/Src/stm32f4xx_hal_rcc.c ****   {
 1923              		.loc 1 1075 6 is_stmt 0 view .LVU588
 1924 0002 064B     		ldr	r3, .L176
 1925 0004 DB68     		ldr	r3, [r3, #12]
1075:./Libraries/STM32F4xx_HAL_Driver/Src/stm32f4xx_hal_rcc.c ****   {
 1926              		.loc 1 1075 5 view .LVU589
 1927 0006 13F0800F 		tst	r3, #128
 1928 000a 00D1     		bne	.L175
ARM GAS  /tmp/ccLT17et.s 			page 58


 1929              	.L172:
1083:./Libraries/STM32F4xx_HAL_Driver/Src/stm32f4xx_hal_rcc.c **** 
 1930              		.loc 1 1083 1 view .LVU590
 1931 000c 08BD     		pop	{r3, pc}
 1932              	.L175:
1078:./Libraries/STM32F4xx_HAL_Driver/Src/stm32f4xx_hal_rcc.c **** 
 1933              		.loc 1 1078 5 is_stmt 1 view .LVU591
 1934 000e FFF7FEFF 		bl	HAL_RCC_CSSCallback
 1935              	.LVL102:
1081:./Libraries/STM32F4xx_HAL_Driver/Src/stm32f4xx_hal_rcc.c ****   }
 1936              		.loc 1 1081 5 view .LVU592
 1937 0012 024B     		ldr	r3, .L176
 1938 0014 8022     		movs	r2, #128
 1939 0016 9A73     		strb	r2, [r3, #14]
1083:./Libraries/STM32F4xx_HAL_Driver/Src/stm32f4xx_hal_rcc.c **** 
 1940              		.loc 1 1083 1 is_stmt 0 view .LVU593
 1941 0018 F8E7     		b	.L172
 1942              	.L177:
 1943 001a 00BF     		.align	2
 1944              	.L176:
 1945 001c 00380240 		.word	1073887232
 1946              		.cfi_endproc
 1947              	.LFE138:
 1949              		.text
 1950              	.Letext0:
 1951              		.file 2 "/home/hao/Documents/gcc-arm-none-eabi/arm-none-eabi/include/machine/_default_types.h"
 1952              		.file 3 "/home/hao/Documents/gcc-arm-none-eabi/arm-none-eabi/include/sys/_stdint.h"
 1953              		.file 4 "./Libraries/CMSIS/Device/ST/STM32F4xx/Include/system_stm32f4xx.h"
 1954              		.file 5 "./Libraries/CMSIS/Device/ST/STM32F4xx/Include/stm32f429xx.h"
 1955              		.file 6 "./Libraries/CMSIS/Device/ST/STM32F4xx/Include/stm32f4xx.h"
 1956              		.file 7 "./Libraries/STM32F4xx_HAL_Driver/Inc/stm32f4xx_hal_def.h"
 1957              		.file 8 "./Libraries/STM32F4xx_HAL_Driver/Inc/stm32f4xx_hal_rcc_ex.h"
 1958              		.file 9 "./Libraries/STM32F4xx_HAL_Driver/Inc/stm32f4xx_hal_rcc.h"
 1959              		.file 10 "./Libraries/STM32F4xx_HAL_Driver/Inc/stm32f4xx_hal_gpio.h"
 1960              		.file 11 "./Libraries/STM32F4xx_HAL_Driver/Inc/stm32f4xx_hal.h"
ARM GAS  /tmp/ccLT17et.s 			page 59

