ARM GAS  /tmp/cc0WhI97.s 			page 1


   1              		.cpu cortex-m4
   2              		.eabi_attribute 27, 1
   3              		.eabi_attribute 28, 1
   4              		.eabi_attribute 20, 1
   5              		.eabi_attribute 21, 1
   6              		.eabi_attribute 23, 3
   7              		.eabi_attribute 24, 1
   8              		.eabi_attribute 25, 1
   9              		.eabi_attribute 26, 1
  10              		.eabi_attribute 30, 1
  11              		.eabi_attribute 34, 1
  12              		.eabi_attribute 18, 4
  13              		.file	"stm32f4xx_hal_dma.c"
  14              		.text
  15              	.Ltext0:
  16              		.cfi_sections	.debug_frame
  17              		.section	.text.DMA_SetConfig,"ax",%progbits
  18              		.align	1
  19              		.arch armv7e-m
  20              		.syntax unified
  21              		.thumb
  22              		.thumb_func
  23              		.fpu fpv4-sp-d16
  25              	DMA_SetConfig:
  26              	.LVL0:
  27              	.LFB138:
  28              		.file 1 "./Libraries/STM32F4xx_HAL_Driver/Src/stm32f4xx_hal_dma.c"
   1:./Libraries/STM32F4xx_HAL_Driver/Src/stm32f4xx_hal_dma.c **** /**
   2:./Libraries/STM32F4xx_HAL_Driver/Src/stm32f4xx_hal_dma.c ****   ******************************************************************************
   3:./Libraries/STM32F4xx_HAL_Driver/Src/stm32f4xx_hal_dma.c ****   * @file    stm32f4xx_hal_dma.c
   4:./Libraries/STM32F4xx_HAL_Driver/Src/stm32f4xx_hal_dma.c ****   * @author  MCD Application Team
   5:./Libraries/STM32F4xx_HAL_Driver/Src/stm32f4xx_hal_dma.c ****   * @brief   DMA HAL module driver.
   6:./Libraries/STM32F4xx_HAL_Driver/Src/stm32f4xx_hal_dma.c ****   *    
   7:./Libraries/STM32F4xx_HAL_Driver/Src/stm32f4xx_hal_dma.c ****   *          This file provides firmware functions to manage the following 
   8:./Libraries/STM32F4xx_HAL_Driver/Src/stm32f4xx_hal_dma.c ****   *          functionalities of the Direct Memory Access (DMA) peripheral:
   9:./Libraries/STM32F4xx_HAL_Driver/Src/stm32f4xx_hal_dma.c ****   *           + Initialization and de-initialization functions
  10:./Libraries/STM32F4xx_HAL_Driver/Src/stm32f4xx_hal_dma.c ****   *           + IO operation functions
  11:./Libraries/STM32F4xx_HAL_Driver/Src/stm32f4xx_hal_dma.c ****   *           + Peripheral State and errors functions
  12:./Libraries/STM32F4xx_HAL_Driver/Src/stm32f4xx_hal_dma.c ****   @verbatim     
  13:./Libraries/STM32F4xx_HAL_Driver/Src/stm32f4xx_hal_dma.c ****   ==============================================================================
  14:./Libraries/STM32F4xx_HAL_Driver/Src/stm32f4xx_hal_dma.c ****                         ##### How to use this driver #####
  15:./Libraries/STM32F4xx_HAL_Driver/Src/stm32f4xx_hal_dma.c ****   ==============================================================================
  16:./Libraries/STM32F4xx_HAL_Driver/Src/stm32f4xx_hal_dma.c ****   [..]
  17:./Libraries/STM32F4xx_HAL_Driver/Src/stm32f4xx_hal_dma.c ****    (#) Enable and configure the peripheral to be connected to the DMA Stream
  18:./Libraries/STM32F4xx_HAL_Driver/Src/stm32f4xx_hal_dma.c ****        (except for internal SRAM/FLASH memories: no initialization is 
  19:./Libraries/STM32F4xx_HAL_Driver/Src/stm32f4xx_hal_dma.c ****        necessary) please refer to Reference manual for connection between peripherals
  20:./Libraries/STM32F4xx_HAL_Driver/Src/stm32f4xx_hal_dma.c ****        and DMA requests.
  21:./Libraries/STM32F4xx_HAL_Driver/Src/stm32f4xx_hal_dma.c **** 
  22:./Libraries/STM32F4xx_HAL_Driver/Src/stm32f4xx_hal_dma.c ****    (#) For a given Stream, program the required configuration through the following parameters:
  23:./Libraries/STM32F4xx_HAL_Driver/Src/stm32f4xx_hal_dma.c ****        Transfer Direction, Source and Destination data formats, 
  24:./Libraries/STM32F4xx_HAL_Driver/Src/stm32f4xx_hal_dma.c ****        Circular, Normal or peripheral flow control mode, Stream Priority level, 
  25:./Libraries/STM32F4xx_HAL_Driver/Src/stm32f4xx_hal_dma.c ****        Source and Destination Increment mode, FIFO mode and its Threshold (if needed), 
  26:./Libraries/STM32F4xx_HAL_Driver/Src/stm32f4xx_hal_dma.c ****        Burst mode for Source and/or Destination (if needed) using HAL_DMA_Init() function.
  27:./Libraries/STM32F4xx_HAL_Driver/Src/stm32f4xx_hal_dma.c **** 
  28:./Libraries/STM32F4xx_HAL_Driver/Src/stm32f4xx_hal_dma.c ****    -@-   Prior to HAL_DMA_Init() the clock must be enabled for DMA through the following macros:
  29:./Libraries/STM32F4xx_HAL_Driver/Src/stm32f4xx_hal_dma.c ****          __HAL_RCC_DMA1_CLK_ENABLE() or __HAL_RCC_DMA2_CLK_ENABLE().
  30:./Libraries/STM32F4xx_HAL_Driver/Src/stm32f4xx_hal_dma.c **** 
ARM GAS  /tmp/cc0WhI97.s 			page 2


  31:./Libraries/STM32F4xx_HAL_Driver/Src/stm32f4xx_hal_dma.c ****      *** Polling mode IO operation ***
  32:./Libraries/STM32F4xx_HAL_Driver/Src/stm32f4xx_hal_dma.c ****      =================================
  33:./Libraries/STM32F4xx_HAL_Driver/Src/stm32f4xx_hal_dma.c ****     [..]
  34:./Libraries/STM32F4xx_HAL_Driver/Src/stm32f4xx_hal_dma.c ****           (+) Use HAL_DMA_Start() to start DMA transfer after the configuration of Source 
  35:./Libraries/STM32F4xx_HAL_Driver/Src/stm32f4xx_hal_dma.c ****               address and destination address and the Length of data to be transferred.
  36:./Libraries/STM32F4xx_HAL_Driver/Src/stm32f4xx_hal_dma.c ****           (+) Use HAL_DMA_PollForTransfer() to poll for the end of current transfer, in this  
  37:./Libraries/STM32F4xx_HAL_Driver/Src/stm32f4xx_hal_dma.c ****               case a fixed Timeout can be configured by User depending from his application.
  38:./Libraries/STM32F4xx_HAL_Driver/Src/stm32f4xx_hal_dma.c ****           (+) Use HAL_DMA_Abort() function to abort the current transfer.
  39:./Libraries/STM32F4xx_HAL_Driver/Src/stm32f4xx_hal_dma.c **** 
  40:./Libraries/STM32F4xx_HAL_Driver/Src/stm32f4xx_hal_dma.c ****      *** Interrupt mode IO operation ***
  41:./Libraries/STM32F4xx_HAL_Driver/Src/stm32f4xx_hal_dma.c ****      ===================================
  42:./Libraries/STM32F4xx_HAL_Driver/Src/stm32f4xx_hal_dma.c ****     [..]
  43:./Libraries/STM32F4xx_HAL_Driver/Src/stm32f4xx_hal_dma.c ****           (+) Configure the DMA interrupt priority using HAL_NVIC_SetPriority()
  44:./Libraries/STM32F4xx_HAL_Driver/Src/stm32f4xx_hal_dma.c ****           (+) Enable the DMA IRQ handler using HAL_NVIC_EnableIRQ() 
  45:./Libraries/STM32F4xx_HAL_Driver/Src/stm32f4xx_hal_dma.c ****           (+) Use HAL_DMA_Start_IT() to start DMA transfer after the configuration of  
  46:./Libraries/STM32F4xx_HAL_Driver/Src/stm32f4xx_hal_dma.c ****               Source address and destination address and the Length of data to be transferred. In t
  47:./Libraries/STM32F4xx_HAL_Driver/Src/stm32f4xx_hal_dma.c ****               case the DMA interrupt is configured 
  48:./Libraries/STM32F4xx_HAL_Driver/Src/stm32f4xx_hal_dma.c ****           (+) Use HAL_DMA_IRQHandler() called under DMA_IRQHandler() Interrupt subroutine
  49:./Libraries/STM32F4xx_HAL_Driver/Src/stm32f4xx_hal_dma.c ****           (+) At the end of data transfer HAL_DMA_IRQHandler() function is executed and user can 
  50:./Libraries/STM32F4xx_HAL_Driver/Src/stm32f4xx_hal_dma.c ****               add his own function by customization of function pointer XferCpltCallback and 
  51:./Libraries/STM32F4xx_HAL_Driver/Src/stm32f4xx_hal_dma.c ****               XferErrorCallback (i.e a member of DMA handle structure).
  52:./Libraries/STM32F4xx_HAL_Driver/Src/stm32f4xx_hal_dma.c ****     [..]
  53:./Libraries/STM32F4xx_HAL_Driver/Src/stm32f4xx_hal_dma.c ****      (#) Use HAL_DMA_GetState() function to return the DMA state and HAL_DMA_GetError() in case of 
  54:./Libraries/STM32F4xx_HAL_Driver/Src/stm32f4xx_hal_dma.c ****          detection.
  55:./Libraries/STM32F4xx_HAL_Driver/Src/stm32f4xx_hal_dma.c **** 
  56:./Libraries/STM32F4xx_HAL_Driver/Src/stm32f4xx_hal_dma.c ****      (#) Use HAL_DMA_Abort_IT() function to abort the current transfer
  57:./Libraries/STM32F4xx_HAL_Driver/Src/stm32f4xx_hal_dma.c **** 
  58:./Libraries/STM32F4xx_HAL_Driver/Src/stm32f4xx_hal_dma.c ****      -@-   In Memory-to-Memory transfer mode, Circular mode is not allowed.
  59:./Libraries/STM32F4xx_HAL_Driver/Src/stm32f4xx_hal_dma.c **** 
  60:./Libraries/STM32F4xx_HAL_Driver/Src/stm32f4xx_hal_dma.c ****      -@-   The FIFO is used mainly to reduce bus usage and to allow data packing/unpacking: it is
  61:./Libraries/STM32F4xx_HAL_Driver/Src/stm32f4xx_hal_dma.c ****            possible to set different Data Sizes for the Peripheral and the Memory (ie. you can set
  62:./Libraries/STM32F4xx_HAL_Driver/Src/stm32f4xx_hal_dma.c ****            Half-Word data size for the peripheral to access its data register and set Word data siz
  63:./Libraries/STM32F4xx_HAL_Driver/Src/stm32f4xx_hal_dma.c ****            for the Memory to gain in access time. Each two half words will be packed and written in
  64:./Libraries/STM32F4xx_HAL_Driver/Src/stm32f4xx_hal_dma.c ****            a single access to a Word in the Memory).
  65:./Libraries/STM32F4xx_HAL_Driver/Src/stm32f4xx_hal_dma.c **** 
  66:./Libraries/STM32F4xx_HAL_Driver/Src/stm32f4xx_hal_dma.c ****      -@-   When FIFO is disabled, it is not allowed to configure different Data Sizes for Source
  67:./Libraries/STM32F4xx_HAL_Driver/Src/stm32f4xx_hal_dma.c ****            and Destination. In this case the Peripheral Data Size will be applied to both Source
  68:./Libraries/STM32F4xx_HAL_Driver/Src/stm32f4xx_hal_dma.c ****            and Destination.
  69:./Libraries/STM32F4xx_HAL_Driver/Src/stm32f4xx_hal_dma.c **** 
  70:./Libraries/STM32F4xx_HAL_Driver/Src/stm32f4xx_hal_dma.c ****      *** DMA HAL driver macros list ***
  71:./Libraries/STM32F4xx_HAL_Driver/Src/stm32f4xx_hal_dma.c ****      =============================================
  72:./Libraries/STM32F4xx_HAL_Driver/Src/stm32f4xx_hal_dma.c ****      [..]
  73:./Libraries/STM32F4xx_HAL_Driver/Src/stm32f4xx_hal_dma.c ****        Below the list of most used macros in DMA HAL driver.
  74:./Libraries/STM32F4xx_HAL_Driver/Src/stm32f4xx_hal_dma.c ****        
  75:./Libraries/STM32F4xx_HAL_Driver/Src/stm32f4xx_hal_dma.c ****       (+) __HAL_DMA_ENABLE: Enable the specified DMA Stream.
  76:./Libraries/STM32F4xx_HAL_Driver/Src/stm32f4xx_hal_dma.c ****       (+) __HAL_DMA_DISABLE: Disable the specified DMA Stream.
  77:./Libraries/STM32F4xx_HAL_Driver/Src/stm32f4xx_hal_dma.c ****       (+) __HAL_DMA_GET_IT_SOURCE: Check whether the specified DMA Stream interrupt has occurred or
  78:./Libraries/STM32F4xx_HAL_Driver/Src/stm32f4xx_hal_dma.c **** 
  79:./Libraries/STM32F4xx_HAL_Driver/Src/stm32f4xx_hal_dma.c ****      [..]
  80:./Libraries/STM32F4xx_HAL_Driver/Src/stm32f4xx_hal_dma.c ****       (@) You can refer to the DMA HAL driver header file for more useful macros
  81:./Libraries/STM32F4xx_HAL_Driver/Src/stm32f4xx_hal_dma.c **** 
  82:./Libraries/STM32F4xx_HAL_Driver/Src/stm32f4xx_hal_dma.c ****   @endverbatim
  83:./Libraries/STM32F4xx_HAL_Driver/Src/stm32f4xx_hal_dma.c ****   ******************************************************************************
  84:./Libraries/STM32F4xx_HAL_Driver/Src/stm32f4xx_hal_dma.c ****   * @attention
  85:./Libraries/STM32F4xx_HAL_Driver/Src/stm32f4xx_hal_dma.c ****   *
  86:./Libraries/STM32F4xx_HAL_Driver/Src/stm32f4xx_hal_dma.c ****   * <h2><center>&copy; COPYRIGHT(c) 2017 STMicroelectronics</center></h2>
  87:./Libraries/STM32F4xx_HAL_Driver/Src/stm32f4xx_hal_dma.c ****   *
ARM GAS  /tmp/cc0WhI97.s 			page 3


  88:./Libraries/STM32F4xx_HAL_Driver/Src/stm32f4xx_hal_dma.c ****   * Redistribution and use in source and binary forms, with or without modification,
  89:./Libraries/STM32F4xx_HAL_Driver/Src/stm32f4xx_hal_dma.c ****   * are permitted provided that the following conditions are met:
  90:./Libraries/STM32F4xx_HAL_Driver/Src/stm32f4xx_hal_dma.c ****   *   1. Redistributions of source code must retain the above copyright notice,
  91:./Libraries/STM32F4xx_HAL_Driver/Src/stm32f4xx_hal_dma.c ****   *      this list of conditions and the following disclaimer.
  92:./Libraries/STM32F4xx_HAL_Driver/Src/stm32f4xx_hal_dma.c ****   *   2. Redistributions in binary form must reproduce the above copyright notice,
  93:./Libraries/STM32F4xx_HAL_Driver/Src/stm32f4xx_hal_dma.c ****   *      this list of conditions and the following disclaimer in the documentation
  94:./Libraries/STM32F4xx_HAL_Driver/Src/stm32f4xx_hal_dma.c ****   *      and/or other materials provided with the distribution.
  95:./Libraries/STM32F4xx_HAL_Driver/Src/stm32f4xx_hal_dma.c ****   *   3. Neither the name of STMicroelectronics nor the names of its contributors
  96:./Libraries/STM32F4xx_HAL_Driver/Src/stm32f4xx_hal_dma.c ****   *      may be used to endorse or promote products derived from this software
  97:./Libraries/STM32F4xx_HAL_Driver/Src/stm32f4xx_hal_dma.c ****   *      without specific prior written permission.
  98:./Libraries/STM32F4xx_HAL_Driver/Src/stm32f4xx_hal_dma.c ****   *
  99:./Libraries/STM32F4xx_HAL_Driver/Src/stm32f4xx_hal_dma.c ****   * THIS SOFTWARE IS PROVIDED BY THE COPYRIGHT HOLDERS AND CONTRIBUTORS "AS IS"
 100:./Libraries/STM32F4xx_HAL_Driver/Src/stm32f4xx_hal_dma.c ****   * AND ANY EXPRESS OR IMPLIED WARRANTIES, INCLUDING, BUT NOT LIMITED TO, THE
 101:./Libraries/STM32F4xx_HAL_Driver/Src/stm32f4xx_hal_dma.c ****   * IMPLIED WARRANTIES OF MERCHANTABILITY AND FITNESS FOR A PARTICULAR PURPOSE ARE
 102:./Libraries/STM32F4xx_HAL_Driver/Src/stm32f4xx_hal_dma.c ****   * DISCLAIMED. IN NO EVENT SHALL THE COPYRIGHT HOLDER OR CONTRIBUTORS BE LIABLE
 103:./Libraries/STM32F4xx_HAL_Driver/Src/stm32f4xx_hal_dma.c ****   * FOR ANY DIRECT, INDIRECT, INCIDENTAL, SPECIAL, EXEMPLARY, OR CONSEQUENTIAL
 104:./Libraries/STM32F4xx_HAL_Driver/Src/stm32f4xx_hal_dma.c ****   * DAMAGES (INCLUDING, BUT NOT LIMITED TO, PROCUREMENT OF SUBSTITUTE GOODS OR
 105:./Libraries/STM32F4xx_HAL_Driver/Src/stm32f4xx_hal_dma.c ****   * SERVICES; LOSS OF USE, DATA, OR PROFITS; OR BUSINESS INTERRUPTION) HOWEVER
 106:./Libraries/STM32F4xx_HAL_Driver/Src/stm32f4xx_hal_dma.c ****   * CAUSED AND ON ANY THEORY OF LIABILITY, WHETHER IN CONTRACT, STRICT LIABILITY,
 107:./Libraries/STM32F4xx_HAL_Driver/Src/stm32f4xx_hal_dma.c ****   * OR TORT (INCLUDING NEGLIGENCE OR OTHERWISE) ARISING IN ANY WAY OUT OF THE USE
 108:./Libraries/STM32F4xx_HAL_Driver/Src/stm32f4xx_hal_dma.c ****   * OF THIS SOFTWARE, EVEN IF ADVISED OF THE POSSIBILITY OF SUCH DAMAGE.
 109:./Libraries/STM32F4xx_HAL_Driver/Src/stm32f4xx_hal_dma.c ****   *
 110:./Libraries/STM32F4xx_HAL_Driver/Src/stm32f4xx_hal_dma.c ****   ******************************************************************************
 111:./Libraries/STM32F4xx_HAL_Driver/Src/stm32f4xx_hal_dma.c ****   */ 
 112:./Libraries/STM32F4xx_HAL_Driver/Src/stm32f4xx_hal_dma.c **** 
 113:./Libraries/STM32F4xx_HAL_Driver/Src/stm32f4xx_hal_dma.c **** /* Includes ------------------------------------------------------------------*/
 114:./Libraries/STM32F4xx_HAL_Driver/Src/stm32f4xx_hal_dma.c **** #include "stm32f4xx_hal.h"
 115:./Libraries/STM32F4xx_HAL_Driver/Src/stm32f4xx_hal_dma.c **** 
 116:./Libraries/STM32F4xx_HAL_Driver/Src/stm32f4xx_hal_dma.c **** /** @addtogroup STM32F4xx_HAL_Driver
 117:./Libraries/STM32F4xx_HAL_Driver/Src/stm32f4xx_hal_dma.c ****   * @{
 118:./Libraries/STM32F4xx_HAL_Driver/Src/stm32f4xx_hal_dma.c ****   */
 119:./Libraries/STM32F4xx_HAL_Driver/Src/stm32f4xx_hal_dma.c **** 
 120:./Libraries/STM32F4xx_HAL_Driver/Src/stm32f4xx_hal_dma.c **** /** @defgroup DMA DMA
 121:./Libraries/STM32F4xx_HAL_Driver/Src/stm32f4xx_hal_dma.c ****   * @brief DMA HAL module driver
 122:./Libraries/STM32F4xx_HAL_Driver/Src/stm32f4xx_hal_dma.c ****   * @{
 123:./Libraries/STM32F4xx_HAL_Driver/Src/stm32f4xx_hal_dma.c ****   */
 124:./Libraries/STM32F4xx_HAL_Driver/Src/stm32f4xx_hal_dma.c **** 
 125:./Libraries/STM32F4xx_HAL_Driver/Src/stm32f4xx_hal_dma.c **** #ifdef HAL_DMA_MODULE_ENABLED
 126:./Libraries/STM32F4xx_HAL_Driver/Src/stm32f4xx_hal_dma.c **** 
 127:./Libraries/STM32F4xx_HAL_Driver/Src/stm32f4xx_hal_dma.c **** /* Private types -------------------------------------------------------------*/
 128:./Libraries/STM32F4xx_HAL_Driver/Src/stm32f4xx_hal_dma.c **** typedef struct
 129:./Libraries/STM32F4xx_HAL_Driver/Src/stm32f4xx_hal_dma.c **** {
 130:./Libraries/STM32F4xx_HAL_Driver/Src/stm32f4xx_hal_dma.c ****   __IO uint32_t ISR;   /*!< DMA interrupt status register */
 131:./Libraries/STM32F4xx_HAL_Driver/Src/stm32f4xx_hal_dma.c ****   __IO uint32_t Reserved0;
 132:./Libraries/STM32F4xx_HAL_Driver/Src/stm32f4xx_hal_dma.c ****   __IO uint32_t IFCR;  /*!< DMA interrupt flag clear register */
 133:./Libraries/STM32F4xx_HAL_Driver/Src/stm32f4xx_hal_dma.c **** } DMA_Base_Registers;
 134:./Libraries/STM32F4xx_HAL_Driver/Src/stm32f4xx_hal_dma.c **** 
 135:./Libraries/STM32F4xx_HAL_Driver/Src/stm32f4xx_hal_dma.c **** /* Private variables ---------------------------------------------------------*/
 136:./Libraries/STM32F4xx_HAL_Driver/Src/stm32f4xx_hal_dma.c **** /* Private constants ---------------------------------------------------------*/
 137:./Libraries/STM32F4xx_HAL_Driver/Src/stm32f4xx_hal_dma.c **** /** @addtogroup DMA_Private_Constants
 138:./Libraries/STM32F4xx_HAL_Driver/Src/stm32f4xx_hal_dma.c ****  * @{
 139:./Libraries/STM32F4xx_HAL_Driver/Src/stm32f4xx_hal_dma.c ****  */
 140:./Libraries/STM32F4xx_HAL_Driver/Src/stm32f4xx_hal_dma.c ****  #define HAL_TIMEOUT_DMA_ABORT    5U  /* 5 ms */
 141:./Libraries/STM32F4xx_HAL_Driver/Src/stm32f4xx_hal_dma.c **** /**
 142:./Libraries/STM32F4xx_HAL_Driver/Src/stm32f4xx_hal_dma.c ****   * @}
 143:./Libraries/STM32F4xx_HAL_Driver/Src/stm32f4xx_hal_dma.c ****   */
 144:./Libraries/STM32F4xx_HAL_Driver/Src/stm32f4xx_hal_dma.c **** /* Private macros ------------------------------------------------------------*/
ARM GAS  /tmp/cc0WhI97.s 			page 4


 145:./Libraries/STM32F4xx_HAL_Driver/Src/stm32f4xx_hal_dma.c **** /* Private functions ---------------------------------------------------------*/
 146:./Libraries/STM32F4xx_HAL_Driver/Src/stm32f4xx_hal_dma.c **** /** @addtogroup DMA_Private_Functions
 147:./Libraries/STM32F4xx_HAL_Driver/Src/stm32f4xx_hal_dma.c ****   * @{
 148:./Libraries/STM32F4xx_HAL_Driver/Src/stm32f4xx_hal_dma.c ****   */
 149:./Libraries/STM32F4xx_HAL_Driver/Src/stm32f4xx_hal_dma.c **** static void DMA_SetConfig(DMA_HandleTypeDef *hdma, uint32_t SrcAddress, uint32_t DstAddress, uint32
 150:./Libraries/STM32F4xx_HAL_Driver/Src/stm32f4xx_hal_dma.c **** static uint32_t DMA_CalcBaseAndBitshift(DMA_HandleTypeDef *hdma);
 151:./Libraries/STM32F4xx_HAL_Driver/Src/stm32f4xx_hal_dma.c **** static HAL_StatusTypeDef DMA_CheckFifoParam(DMA_HandleTypeDef *hdma);
 152:./Libraries/STM32F4xx_HAL_Driver/Src/stm32f4xx_hal_dma.c **** 
 153:./Libraries/STM32F4xx_HAL_Driver/Src/stm32f4xx_hal_dma.c **** /**
 154:./Libraries/STM32F4xx_HAL_Driver/Src/stm32f4xx_hal_dma.c ****   * @}
 155:./Libraries/STM32F4xx_HAL_Driver/Src/stm32f4xx_hal_dma.c ****   */  
 156:./Libraries/STM32F4xx_HAL_Driver/Src/stm32f4xx_hal_dma.c **** 
 157:./Libraries/STM32F4xx_HAL_Driver/Src/stm32f4xx_hal_dma.c **** /* Exported functions ---------------------------------------------------------*/
 158:./Libraries/STM32F4xx_HAL_Driver/Src/stm32f4xx_hal_dma.c **** /** @addtogroup DMA_Exported_Functions
 159:./Libraries/STM32F4xx_HAL_Driver/Src/stm32f4xx_hal_dma.c ****   * @{
 160:./Libraries/STM32F4xx_HAL_Driver/Src/stm32f4xx_hal_dma.c ****   */
 161:./Libraries/STM32F4xx_HAL_Driver/Src/stm32f4xx_hal_dma.c **** 
 162:./Libraries/STM32F4xx_HAL_Driver/Src/stm32f4xx_hal_dma.c **** /** @addtogroup DMA_Exported_Functions_Group1
 163:./Libraries/STM32F4xx_HAL_Driver/Src/stm32f4xx_hal_dma.c ****   *
 164:./Libraries/STM32F4xx_HAL_Driver/Src/stm32f4xx_hal_dma.c **** @verbatim
 165:./Libraries/STM32F4xx_HAL_Driver/Src/stm32f4xx_hal_dma.c ****  ===============================================================================
 166:./Libraries/STM32F4xx_HAL_Driver/Src/stm32f4xx_hal_dma.c ****              ##### Initialization and de-initialization functions  #####
 167:./Libraries/STM32F4xx_HAL_Driver/Src/stm32f4xx_hal_dma.c ****  ===============================================================================
 168:./Libraries/STM32F4xx_HAL_Driver/Src/stm32f4xx_hal_dma.c ****     [..]
 169:./Libraries/STM32F4xx_HAL_Driver/Src/stm32f4xx_hal_dma.c ****     This section provides functions allowing to initialize the DMA Stream source
 170:./Libraries/STM32F4xx_HAL_Driver/Src/stm32f4xx_hal_dma.c ****     and destination addresses, incrementation and data sizes, transfer direction, 
 171:./Libraries/STM32F4xx_HAL_Driver/Src/stm32f4xx_hal_dma.c ****     circular/normal mode selection, memory-to-memory mode selection and Stream priority value.
 172:./Libraries/STM32F4xx_HAL_Driver/Src/stm32f4xx_hal_dma.c ****     [..]
 173:./Libraries/STM32F4xx_HAL_Driver/Src/stm32f4xx_hal_dma.c ****     The HAL_DMA_Init() function follows the DMA configuration procedures as described in
 174:./Libraries/STM32F4xx_HAL_Driver/Src/stm32f4xx_hal_dma.c ****     reference manual.
 175:./Libraries/STM32F4xx_HAL_Driver/Src/stm32f4xx_hal_dma.c **** 
 176:./Libraries/STM32F4xx_HAL_Driver/Src/stm32f4xx_hal_dma.c **** @endverbatim
 177:./Libraries/STM32F4xx_HAL_Driver/Src/stm32f4xx_hal_dma.c ****   * @{
 178:./Libraries/STM32F4xx_HAL_Driver/Src/stm32f4xx_hal_dma.c ****   */
 179:./Libraries/STM32F4xx_HAL_Driver/Src/stm32f4xx_hal_dma.c ****   
 180:./Libraries/STM32F4xx_HAL_Driver/Src/stm32f4xx_hal_dma.c **** /**
 181:./Libraries/STM32F4xx_HAL_Driver/Src/stm32f4xx_hal_dma.c ****   * @brief  Initialize the DMA according to the specified
 182:./Libraries/STM32F4xx_HAL_Driver/Src/stm32f4xx_hal_dma.c ****   *         parameters in the DMA_InitTypeDef and create the associated handle.
 183:./Libraries/STM32F4xx_HAL_Driver/Src/stm32f4xx_hal_dma.c ****   * @param  hdma Pointer to a DMA_HandleTypeDef structure that contains
 184:./Libraries/STM32F4xx_HAL_Driver/Src/stm32f4xx_hal_dma.c ****   *               the configuration information for the specified DMA Stream.  
 185:./Libraries/STM32F4xx_HAL_Driver/Src/stm32f4xx_hal_dma.c ****   * @retval HAL status
 186:./Libraries/STM32F4xx_HAL_Driver/Src/stm32f4xx_hal_dma.c ****   */
 187:./Libraries/STM32F4xx_HAL_Driver/Src/stm32f4xx_hal_dma.c **** HAL_StatusTypeDef HAL_DMA_Init(DMA_HandleTypeDef *hdma)
 188:./Libraries/STM32F4xx_HAL_Driver/Src/stm32f4xx_hal_dma.c **** {
 189:./Libraries/STM32F4xx_HAL_Driver/Src/stm32f4xx_hal_dma.c ****   uint32_t tmp = 0U;
 190:./Libraries/STM32F4xx_HAL_Driver/Src/stm32f4xx_hal_dma.c ****   uint32_t tickstart = HAL_GetTick();
 191:./Libraries/STM32F4xx_HAL_Driver/Src/stm32f4xx_hal_dma.c ****   DMA_Base_Registers *regs;
 192:./Libraries/STM32F4xx_HAL_Driver/Src/stm32f4xx_hal_dma.c **** 
 193:./Libraries/STM32F4xx_HAL_Driver/Src/stm32f4xx_hal_dma.c ****   /* Check the DMA peripheral state */
 194:./Libraries/STM32F4xx_HAL_Driver/Src/stm32f4xx_hal_dma.c ****   if(hdma == NULL)
 195:./Libraries/STM32F4xx_HAL_Driver/Src/stm32f4xx_hal_dma.c ****   {
 196:./Libraries/STM32F4xx_HAL_Driver/Src/stm32f4xx_hal_dma.c ****     return HAL_ERROR;
 197:./Libraries/STM32F4xx_HAL_Driver/Src/stm32f4xx_hal_dma.c ****   }
 198:./Libraries/STM32F4xx_HAL_Driver/Src/stm32f4xx_hal_dma.c **** 
 199:./Libraries/STM32F4xx_HAL_Driver/Src/stm32f4xx_hal_dma.c ****   /* Check the parameters */
 200:./Libraries/STM32F4xx_HAL_Driver/Src/stm32f4xx_hal_dma.c ****   assert_param(IS_DMA_STREAM_ALL_INSTANCE(hdma->Instance));
 201:./Libraries/STM32F4xx_HAL_Driver/Src/stm32f4xx_hal_dma.c ****   assert_param(IS_DMA_CHANNEL(hdma->Init.Channel));
ARM GAS  /tmp/cc0WhI97.s 			page 5


 202:./Libraries/STM32F4xx_HAL_Driver/Src/stm32f4xx_hal_dma.c ****   assert_param(IS_DMA_DIRECTION(hdma->Init.Direction));
 203:./Libraries/STM32F4xx_HAL_Driver/Src/stm32f4xx_hal_dma.c ****   assert_param(IS_DMA_PERIPHERAL_INC_STATE(hdma->Init.PeriphInc));
 204:./Libraries/STM32F4xx_HAL_Driver/Src/stm32f4xx_hal_dma.c ****   assert_param(IS_DMA_MEMORY_INC_STATE(hdma->Init.MemInc));
 205:./Libraries/STM32F4xx_HAL_Driver/Src/stm32f4xx_hal_dma.c ****   assert_param(IS_DMA_PERIPHERAL_DATA_SIZE(hdma->Init.PeriphDataAlignment));
 206:./Libraries/STM32F4xx_HAL_Driver/Src/stm32f4xx_hal_dma.c ****   assert_param(IS_DMA_MEMORY_DATA_SIZE(hdma->Init.MemDataAlignment));
 207:./Libraries/STM32F4xx_HAL_Driver/Src/stm32f4xx_hal_dma.c ****   assert_param(IS_DMA_MODE(hdma->Init.Mode));
 208:./Libraries/STM32F4xx_HAL_Driver/Src/stm32f4xx_hal_dma.c ****   assert_param(IS_DMA_PRIORITY(hdma->Init.Priority));
 209:./Libraries/STM32F4xx_HAL_Driver/Src/stm32f4xx_hal_dma.c ****   assert_param(IS_DMA_FIFO_MODE_STATE(hdma->Init.FIFOMode));
 210:./Libraries/STM32F4xx_HAL_Driver/Src/stm32f4xx_hal_dma.c ****   /* Check the memory burst, peripheral burst and FIFO threshold parameters only
 211:./Libraries/STM32F4xx_HAL_Driver/Src/stm32f4xx_hal_dma.c ****      when FIFO mode is enabled */
 212:./Libraries/STM32F4xx_HAL_Driver/Src/stm32f4xx_hal_dma.c ****   if(hdma->Init.FIFOMode != DMA_FIFOMODE_DISABLE)
 213:./Libraries/STM32F4xx_HAL_Driver/Src/stm32f4xx_hal_dma.c ****   {
 214:./Libraries/STM32F4xx_HAL_Driver/Src/stm32f4xx_hal_dma.c ****     assert_param(IS_DMA_FIFO_THRESHOLD(hdma->Init.FIFOThreshold));
 215:./Libraries/STM32F4xx_HAL_Driver/Src/stm32f4xx_hal_dma.c ****     assert_param(IS_DMA_MEMORY_BURST(hdma->Init.MemBurst));
 216:./Libraries/STM32F4xx_HAL_Driver/Src/stm32f4xx_hal_dma.c ****     assert_param(IS_DMA_PERIPHERAL_BURST(hdma->Init.PeriphBurst));
 217:./Libraries/STM32F4xx_HAL_Driver/Src/stm32f4xx_hal_dma.c ****   }
 218:./Libraries/STM32F4xx_HAL_Driver/Src/stm32f4xx_hal_dma.c ****   
 219:./Libraries/STM32F4xx_HAL_Driver/Src/stm32f4xx_hal_dma.c ****   /* Allocate lock resource */
 220:./Libraries/STM32F4xx_HAL_Driver/Src/stm32f4xx_hal_dma.c ****   __HAL_UNLOCK(hdma);
 221:./Libraries/STM32F4xx_HAL_Driver/Src/stm32f4xx_hal_dma.c **** 
 222:./Libraries/STM32F4xx_HAL_Driver/Src/stm32f4xx_hal_dma.c ****   /* Change DMA peripheral state */
 223:./Libraries/STM32F4xx_HAL_Driver/Src/stm32f4xx_hal_dma.c ****   hdma->State = HAL_DMA_STATE_BUSY;
 224:./Libraries/STM32F4xx_HAL_Driver/Src/stm32f4xx_hal_dma.c ****   
 225:./Libraries/STM32F4xx_HAL_Driver/Src/stm32f4xx_hal_dma.c ****   /* Disable the peripheral */
 226:./Libraries/STM32F4xx_HAL_Driver/Src/stm32f4xx_hal_dma.c ****   __HAL_DMA_DISABLE(hdma);
 227:./Libraries/STM32F4xx_HAL_Driver/Src/stm32f4xx_hal_dma.c ****   
 228:./Libraries/STM32F4xx_HAL_Driver/Src/stm32f4xx_hal_dma.c ****   /* Check if the DMA Stream is effectively disabled */
 229:./Libraries/STM32F4xx_HAL_Driver/Src/stm32f4xx_hal_dma.c ****   while((hdma->Instance->CR & DMA_SxCR_EN) != RESET)
 230:./Libraries/STM32F4xx_HAL_Driver/Src/stm32f4xx_hal_dma.c ****   {
 231:./Libraries/STM32F4xx_HAL_Driver/Src/stm32f4xx_hal_dma.c ****     /* Check for the Timeout */
 232:./Libraries/STM32F4xx_HAL_Driver/Src/stm32f4xx_hal_dma.c ****     if((HAL_GetTick() - tickstart ) > HAL_TIMEOUT_DMA_ABORT)
 233:./Libraries/STM32F4xx_HAL_Driver/Src/stm32f4xx_hal_dma.c ****     {
 234:./Libraries/STM32F4xx_HAL_Driver/Src/stm32f4xx_hal_dma.c ****       /* Update error code */
 235:./Libraries/STM32F4xx_HAL_Driver/Src/stm32f4xx_hal_dma.c ****       hdma->ErrorCode = HAL_DMA_ERROR_TIMEOUT;
 236:./Libraries/STM32F4xx_HAL_Driver/Src/stm32f4xx_hal_dma.c ****       
 237:./Libraries/STM32F4xx_HAL_Driver/Src/stm32f4xx_hal_dma.c ****       /* Change the DMA state */
 238:./Libraries/STM32F4xx_HAL_Driver/Src/stm32f4xx_hal_dma.c ****       hdma->State = HAL_DMA_STATE_TIMEOUT;
 239:./Libraries/STM32F4xx_HAL_Driver/Src/stm32f4xx_hal_dma.c ****       
 240:./Libraries/STM32F4xx_HAL_Driver/Src/stm32f4xx_hal_dma.c ****       return HAL_TIMEOUT;
 241:./Libraries/STM32F4xx_HAL_Driver/Src/stm32f4xx_hal_dma.c ****     }
 242:./Libraries/STM32F4xx_HAL_Driver/Src/stm32f4xx_hal_dma.c ****   }
 243:./Libraries/STM32F4xx_HAL_Driver/Src/stm32f4xx_hal_dma.c ****   
 244:./Libraries/STM32F4xx_HAL_Driver/Src/stm32f4xx_hal_dma.c ****   /* Get the CR register value */
 245:./Libraries/STM32F4xx_HAL_Driver/Src/stm32f4xx_hal_dma.c ****   tmp = hdma->Instance->CR;
 246:./Libraries/STM32F4xx_HAL_Driver/Src/stm32f4xx_hal_dma.c **** 
 247:./Libraries/STM32F4xx_HAL_Driver/Src/stm32f4xx_hal_dma.c ****   /* Clear CHSEL, MBURST, PBURST, PL, MSIZE, PSIZE, MINC, PINC, CIRC, DIR, CT and DBM bits */
 248:./Libraries/STM32F4xx_HAL_Driver/Src/stm32f4xx_hal_dma.c ****   tmp &= ((uint32_t)~(DMA_SxCR_CHSEL | DMA_SxCR_MBURST | DMA_SxCR_PBURST | \
 249:./Libraries/STM32F4xx_HAL_Driver/Src/stm32f4xx_hal_dma.c ****                       DMA_SxCR_PL    | DMA_SxCR_MSIZE  | DMA_SxCR_PSIZE  | \
 250:./Libraries/STM32F4xx_HAL_Driver/Src/stm32f4xx_hal_dma.c ****                       DMA_SxCR_MINC  | DMA_SxCR_PINC   | DMA_SxCR_CIRC   | \
 251:./Libraries/STM32F4xx_HAL_Driver/Src/stm32f4xx_hal_dma.c ****                       DMA_SxCR_DIR   | DMA_SxCR_CT     | DMA_SxCR_DBM));
 252:./Libraries/STM32F4xx_HAL_Driver/Src/stm32f4xx_hal_dma.c **** 
 253:./Libraries/STM32F4xx_HAL_Driver/Src/stm32f4xx_hal_dma.c ****   /* Prepare the DMA Stream configuration */
 254:./Libraries/STM32F4xx_HAL_Driver/Src/stm32f4xx_hal_dma.c ****   tmp |=  hdma->Init.Channel             | hdma->Init.Direction        |
 255:./Libraries/STM32F4xx_HAL_Driver/Src/stm32f4xx_hal_dma.c ****           hdma->Init.PeriphInc           | hdma->Init.MemInc           |
 256:./Libraries/STM32F4xx_HAL_Driver/Src/stm32f4xx_hal_dma.c ****           hdma->Init.PeriphDataAlignment | hdma->Init.MemDataAlignment |
 257:./Libraries/STM32F4xx_HAL_Driver/Src/stm32f4xx_hal_dma.c ****           hdma->Init.Mode                | hdma->Init.Priority;
 258:./Libraries/STM32F4xx_HAL_Driver/Src/stm32f4xx_hal_dma.c **** 
ARM GAS  /tmp/cc0WhI97.s 			page 6


 259:./Libraries/STM32F4xx_HAL_Driver/Src/stm32f4xx_hal_dma.c ****   /* the Memory burst and peripheral burst are not used when the FIFO is disabled */
 260:./Libraries/STM32F4xx_HAL_Driver/Src/stm32f4xx_hal_dma.c ****   if(hdma->Init.FIFOMode == DMA_FIFOMODE_ENABLE)
 261:./Libraries/STM32F4xx_HAL_Driver/Src/stm32f4xx_hal_dma.c ****   {
 262:./Libraries/STM32F4xx_HAL_Driver/Src/stm32f4xx_hal_dma.c ****     /* Get memory burst and peripheral burst */
 263:./Libraries/STM32F4xx_HAL_Driver/Src/stm32f4xx_hal_dma.c ****     tmp |=  hdma->Init.MemBurst | hdma->Init.PeriphBurst;
 264:./Libraries/STM32F4xx_HAL_Driver/Src/stm32f4xx_hal_dma.c ****   }
 265:./Libraries/STM32F4xx_HAL_Driver/Src/stm32f4xx_hal_dma.c ****   
 266:./Libraries/STM32F4xx_HAL_Driver/Src/stm32f4xx_hal_dma.c ****   /* Write to DMA Stream CR register */
 267:./Libraries/STM32F4xx_HAL_Driver/Src/stm32f4xx_hal_dma.c ****   hdma->Instance->CR = tmp;  
 268:./Libraries/STM32F4xx_HAL_Driver/Src/stm32f4xx_hal_dma.c **** 
 269:./Libraries/STM32F4xx_HAL_Driver/Src/stm32f4xx_hal_dma.c ****   /* Get the FCR register value */
 270:./Libraries/STM32F4xx_HAL_Driver/Src/stm32f4xx_hal_dma.c ****   tmp = hdma->Instance->FCR;
 271:./Libraries/STM32F4xx_HAL_Driver/Src/stm32f4xx_hal_dma.c **** 
 272:./Libraries/STM32F4xx_HAL_Driver/Src/stm32f4xx_hal_dma.c ****   /* Clear Direct mode and FIFO threshold bits */
 273:./Libraries/STM32F4xx_HAL_Driver/Src/stm32f4xx_hal_dma.c ****   tmp &= (uint32_t)~(DMA_SxFCR_DMDIS | DMA_SxFCR_FTH);
 274:./Libraries/STM32F4xx_HAL_Driver/Src/stm32f4xx_hal_dma.c **** 
 275:./Libraries/STM32F4xx_HAL_Driver/Src/stm32f4xx_hal_dma.c ****   /* Prepare the DMA Stream FIFO configuration */
 276:./Libraries/STM32F4xx_HAL_Driver/Src/stm32f4xx_hal_dma.c ****   tmp |= hdma->Init.FIFOMode;
 277:./Libraries/STM32F4xx_HAL_Driver/Src/stm32f4xx_hal_dma.c **** 
 278:./Libraries/STM32F4xx_HAL_Driver/Src/stm32f4xx_hal_dma.c ****   /* The FIFO threshold is not used when the FIFO mode is disabled */
 279:./Libraries/STM32F4xx_HAL_Driver/Src/stm32f4xx_hal_dma.c ****   if(hdma->Init.FIFOMode == DMA_FIFOMODE_ENABLE)
 280:./Libraries/STM32F4xx_HAL_Driver/Src/stm32f4xx_hal_dma.c ****   {
 281:./Libraries/STM32F4xx_HAL_Driver/Src/stm32f4xx_hal_dma.c ****     /* Get the FIFO threshold */
 282:./Libraries/STM32F4xx_HAL_Driver/Src/stm32f4xx_hal_dma.c ****     tmp |= hdma->Init.FIFOThreshold;
 283:./Libraries/STM32F4xx_HAL_Driver/Src/stm32f4xx_hal_dma.c ****     
 284:./Libraries/STM32F4xx_HAL_Driver/Src/stm32f4xx_hal_dma.c ****     /* Check compatibility between FIFO threshold level and size of the memory burst */
 285:./Libraries/STM32F4xx_HAL_Driver/Src/stm32f4xx_hal_dma.c ****     /* for INCR4, INCR8, INCR16 bursts */
 286:./Libraries/STM32F4xx_HAL_Driver/Src/stm32f4xx_hal_dma.c ****     if (hdma->Init.MemBurst != DMA_MBURST_SINGLE)
 287:./Libraries/STM32F4xx_HAL_Driver/Src/stm32f4xx_hal_dma.c ****     {
 288:./Libraries/STM32F4xx_HAL_Driver/Src/stm32f4xx_hal_dma.c ****       if (DMA_CheckFifoParam(hdma) != HAL_OK)
 289:./Libraries/STM32F4xx_HAL_Driver/Src/stm32f4xx_hal_dma.c ****       {
 290:./Libraries/STM32F4xx_HAL_Driver/Src/stm32f4xx_hal_dma.c ****         /* Update error code */
 291:./Libraries/STM32F4xx_HAL_Driver/Src/stm32f4xx_hal_dma.c ****         hdma->ErrorCode = HAL_DMA_ERROR_PARAM;
 292:./Libraries/STM32F4xx_HAL_Driver/Src/stm32f4xx_hal_dma.c ****         
 293:./Libraries/STM32F4xx_HAL_Driver/Src/stm32f4xx_hal_dma.c ****         /* Change the DMA state */
 294:./Libraries/STM32F4xx_HAL_Driver/Src/stm32f4xx_hal_dma.c ****         hdma->State = HAL_DMA_STATE_READY;
 295:./Libraries/STM32F4xx_HAL_Driver/Src/stm32f4xx_hal_dma.c ****         
 296:./Libraries/STM32F4xx_HAL_Driver/Src/stm32f4xx_hal_dma.c ****         return HAL_ERROR; 
 297:./Libraries/STM32F4xx_HAL_Driver/Src/stm32f4xx_hal_dma.c ****       }
 298:./Libraries/STM32F4xx_HAL_Driver/Src/stm32f4xx_hal_dma.c ****     }
 299:./Libraries/STM32F4xx_HAL_Driver/Src/stm32f4xx_hal_dma.c ****   }
 300:./Libraries/STM32F4xx_HAL_Driver/Src/stm32f4xx_hal_dma.c ****   
 301:./Libraries/STM32F4xx_HAL_Driver/Src/stm32f4xx_hal_dma.c ****   /* Write to DMA Stream FCR */
 302:./Libraries/STM32F4xx_HAL_Driver/Src/stm32f4xx_hal_dma.c ****   hdma->Instance->FCR = tmp;
 303:./Libraries/STM32F4xx_HAL_Driver/Src/stm32f4xx_hal_dma.c **** 
 304:./Libraries/STM32F4xx_HAL_Driver/Src/stm32f4xx_hal_dma.c ****   /* Initialize StreamBaseAddress and StreamIndex parameters to be used to calculate
 305:./Libraries/STM32F4xx_HAL_Driver/Src/stm32f4xx_hal_dma.c ****      DMA steam Base Address needed by HAL_DMA_IRQHandler() and HAL_DMA_PollForTransfer() */
 306:./Libraries/STM32F4xx_HAL_Driver/Src/stm32f4xx_hal_dma.c ****   regs = (DMA_Base_Registers *)DMA_CalcBaseAndBitshift(hdma);
 307:./Libraries/STM32F4xx_HAL_Driver/Src/stm32f4xx_hal_dma.c ****   
 308:./Libraries/STM32F4xx_HAL_Driver/Src/stm32f4xx_hal_dma.c ****   /* Clear all interrupt flags */
 309:./Libraries/STM32F4xx_HAL_Driver/Src/stm32f4xx_hal_dma.c ****   regs->IFCR = 0x3FU << hdma->StreamIndex;
 310:./Libraries/STM32F4xx_HAL_Driver/Src/stm32f4xx_hal_dma.c **** 
 311:./Libraries/STM32F4xx_HAL_Driver/Src/stm32f4xx_hal_dma.c ****   /* Initialize the error code */
 312:./Libraries/STM32F4xx_HAL_Driver/Src/stm32f4xx_hal_dma.c ****   hdma->ErrorCode = HAL_DMA_ERROR_NONE;
 313:./Libraries/STM32F4xx_HAL_Driver/Src/stm32f4xx_hal_dma.c ****                                                                                      
 314:./Libraries/STM32F4xx_HAL_Driver/Src/stm32f4xx_hal_dma.c ****   /* Initialize the DMA state */
 315:./Libraries/STM32F4xx_HAL_Driver/Src/stm32f4xx_hal_dma.c ****   hdma->State = HAL_DMA_STATE_READY;
ARM GAS  /tmp/cc0WhI97.s 			page 7


 316:./Libraries/STM32F4xx_HAL_Driver/Src/stm32f4xx_hal_dma.c **** 
 317:./Libraries/STM32F4xx_HAL_Driver/Src/stm32f4xx_hal_dma.c ****   return HAL_OK;
 318:./Libraries/STM32F4xx_HAL_Driver/Src/stm32f4xx_hal_dma.c **** }
 319:./Libraries/STM32F4xx_HAL_Driver/Src/stm32f4xx_hal_dma.c **** 
 320:./Libraries/STM32F4xx_HAL_Driver/Src/stm32f4xx_hal_dma.c **** /**
 321:./Libraries/STM32F4xx_HAL_Driver/Src/stm32f4xx_hal_dma.c ****   * @brief  DeInitializes the DMA peripheral 
 322:./Libraries/STM32F4xx_HAL_Driver/Src/stm32f4xx_hal_dma.c ****   * @param  hdma pointer to a DMA_HandleTypeDef structure that contains
 323:./Libraries/STM32F4xx_HAL_Driver/Src/stm32f4xx_hal_dma.c ****   *               the configuration information for the specified DMA Stream.  
 324:./Libraries/STM32F4xx_HAL_Driver/Src/stm32f4xx_hal_dma.c ****   * @retval HAL status
 325:./Libraries/STM32F4xx_HAL_Driver/Src/stm32f4xx_hal_dma.c ****   */
 326:./Libraries/STM32F4xx_HAL_Driver/Src/stm32f4xx_hal_dma.c **** HAL_StatusTypeDef HAL_DMA_DeInit(DMA_HandleTypeDef *hdma)
 327:./Libraries/STM32F4xx_HAL_Driver/Src/stm32f4xx_hal_dma.c **** {
 328:./Libraries/STM32F4xx_HAL_Driver/Src/stm32f4xx_hal_dma.c ****   DMA_Base_Registers *regs;
 329:./Libraries/STM32F4xx_HAL_Driver/Src/stm32f4xx_hal_dma.c **** 
 330:./Libraries/STM32F4xx_HAL_Driver/Src/stm32f4xx_hal_dma.c ****   /* Check the DMA peripheral state */
 331:./Libraries/STM32F4xx_HAL_Driver/Src/stm32f4xx_hal_dma.c ****   if(hdma == NULL)
 332:./Libraries/STM32F4xx_HAL_Driver/Src/stm32f4xx_hal_dma.c ****   {
 333:./Libraries/STM32F4xx_HAL_Driver/Src/stm32f4xx_hal_dma.c ****     return HAL_ERROR;
 334:./Libraries/STM32F4xx_HAL_Driver/Src/stm32f4xx_hal_dma.c ****   }
 335:./Libraries/STM32F4xx_HAL_Driver/Src/stm32f4xx_hal_dma.c ****   
 336:./Libraries/STM32F4xx_HAL_Driver/Src/stm32f4xx_hal_dma.c ****   /* Check the DMA peripheral state */
 337:./Libraries/STM32F4xx_HAL_Driver/Src/stm32f4xx_hal_dma.c ****   if(hdma->State == HAL_DMA_STATE_BUSY)
 338:./Libraries/STM32F4xx_HAL_Driver/Src/stm32f4xx_hal_dma.c ****   {
 339:./Libraries/STM32F4xx_HAL_Driver/Src/stm32f4xx_hal_dma.c ****     /* Return error status */
 340:./Libraries/STM32F4xx_HAL_Driver/Src/stm32f4xx_hal_dma.c ****     return HAL_BUSY;
 341:./Libraries/STM32F4xx_HAL_Driver/Src/stm32f4xx_hal_dma.c ****   }
 342:./Libraries/STM32F4xx_HAL_Driver/Src/stm32f4xx_hal_dma.c **** 
 343:./Libraries/STM32F4xx_HAL_Driver/Src/stm32f4xx_hal_dma.c ****   /* Check the parameters */
 344:./Libraries/STM32F4xx_HAL_Driver/Src/stm32f4xx_hal_dma.c ****   assert_param(IS_DMA_STREAM_ALL_INSTANCE(hdma->Instance));
 345:./Libraries/STM32F4xx_HAL_Driver/Src/stm32f4xx_hal_dma.c **** 
 346:./Libraries/STM32F4xx_HAL_Driver/Src/stm32f4xx_hal_dma.c ****   /* Disable the selected DMA Streamx */
 347:./Libraries/STM32F4xx_HAL_Driver/Src/stm32f4xx_hal_dma.c ****   __HAL_DMA_DISABLE(hdma);
 348:./Libraries/STM32F4xx_HAL_Driver/Src/stm32f4xx_hal_dma.c **** 
 349:./Libraries/STM32F4xx_HAL_Driver/Src/stm32f4xx_hal_dma.c ****   /* Reset DMA Streamx control register */
 350:./Libraries/STM32F4xx_HAL_Driver/Src/stm32f4xx_hal_dma.c ****   hdma->Instance->CR   = 0U;
 351:./Libraries/STM32F4xx_HAL_Driver/Src/stm32f4xx_hal_dma.c **** 
 352:./Libraries/STM32F4xx_HAL_Driver/Src/stm32f4xx_hal_dma.c ****   /* Reset DMA Streamx number of data to transfer register */
 353:./Libraries/STM32F4xx_HAL_Driver/Src/stm32f4xx_hal_dma.c ****   hdma->Instance->NDTR = 0U;
 354:./Libraries/STM32F4xx_HAL_Driver/Src/stm32f4xx_hal_dma.c **** 
 355:./Libraries/STM32F4xx_HAL_Driver/Src/stm32f4xx_hal_dma.c ****   /* Reset DMA Streamx peripheral address register */
 356:./Libraries/STM32F4xx_HAL_Driver/Src/stm32f4xx_hal_dma.c ****   hdma->Instance->PAR  = 0U;
 357:./Libraries/STM32F4xx_HAL_Driver/Src/stm32f4xx_hal_dma.c **** 
 358:./Libraries/STM32F4xx_HAL_Driver/Src/stm32f4xx_hal_dma.c ****   /* Reset DMA Streamx memory 0 address register */
 359:./Libraries/STM32F4xx_HAL_Driver/Src/stm32f4xx_hal_dma.c ****   hdma->Instance->M0AR = 0U;
 360:./Libraries/STM32F4xx_HAL_Driver/Src/stm32f4xx_hal_dma.c ****   
 361:./Libraries/STM32F4xx_HAL_Driver/Src/stm32f4xx_hal_dma.c ****   /* Reset DMA Streamx memory 1 address register */
 362:./Libraries/STM32F4xx_HAL_Driver/Src/stm32f4xx_hal_dma.c ****   hdma->Instance->M1AR = 0U;
 363:./Libraries/STM32F4xx_HAL_Driver/Src/stm32f4xx_hal_dma.c ****   
 364:./Libraries/STM32F4xx_HAL_Driver/Src/stm32f4xx_hal_dma.c ****   /* Reset DMA Streamx FIFO control register */
 365:./Libraries/STM32F4xx_HAL_Driver/Src/stm32f4xx_hal_dma.c ****   hdma->Instance->FCR  = 0x00000021U;
 366:./Libraries/STM32F4xx_HAL_Driver/Src/stm32f4xx_hal_dma.c ****   
 367:./Libraries/STM32F4xx_HAL_Driver/Src/stm32f4xx_hal_dma.c ****   /* Get DMA steam Base Address */  
 368:./Libraries/STM32F4xx_HAL_Driver/Src/stm32f4xx_hal_dma.c ****   regs = (DMA_Base_Registers *)DMA_CalcBaseAndBitshift(hdma);
 369:./Libraries/STM32F4xx_HAL_Driver/Src/stm32f4xx_hal_dma.c ****   
 370:./Libraries/STM32F4xx_HAL_Driver/Src/stm32f4xx_hal_dma.c ****   /* Clear all interrupt flags at correct offset within the register */
 371:./Libraries/STM32F4xx_HAL_Driver/Src/stm32f4xx_hal_dma.c ****   regs->IFCR = 0x3FU << hdma->StreamIndex;
 372:./Libraries/STM32F4xx_HAL_Driver/Src/stm32f4xx_hal_dma.c **** 
ARM GAS  /tmp/cc0WhI97.s 			page 8


 373:./Libraries/STM32F4xx_HAL_Driver/Src/stm32f4xx_hal_dma.c ****   /* Initialize the error code */
 374:./Libraries/STM32F4xx_HAL_Driver/Src/stm32f4xx_hal_dma.c ****   hdma->ErrorCode = HAL_DMA_ERROR_NONE;
 375:./Libraries/STM32F4xx_HAL_Driver/Src/stm32f4xx_hal_dma.c **** 
 376:./Libraries/STM32F4xx_HAL_Driver/Src/stm32f4xx_hal_dma.c ****   /* Initialize the DMA state */
 377:./Libraries/STM32F4xx_HAL_Driver/Src/stm32f4xx_hal_dma.c ****   hdma->State = HAL_DMA_STATE_RESET;
 378:./Libraries/STM32F4xx_HAL_Driver/Src/stm32f4xx_hal_dma.c **** 
 379:./Libraries/STM32F4xx_HAL_Driver/Src/stm32f4xx_hal_dma.c ****   /* Release Lock */
 380:./Libraries/STM32F4xx_HAL_Driver/Src/stm32f4xx_hal_dma.c ****   __HAL_UNLOCK(hdma);
 381:./Libraries/STM32F4xx_HAL_Driver/Src/stm32f4xx_hal_dma.c **** 
 382:./Libraries/STM32F4xx_HAL_Driver/Src/stm32f4xx_hal_dma.c ****   return HAL_OK;
 383:./Libraries/STM32F4xx_HAL_Driver/Src/stm32f4xx_hal_dma.c **** }
 384:./Libraries/STM32F4xx_HAL_Driver/Src/stm32f4xx_hal_dma.c **** 
 385:./Libraries/STM32F4xx_HAL_Driver/Src/stm32f4xx_hal_dma.c **** /**
 386:./Libraries/STM32F4xx_HAL_Driver/Src/stm32f4xx_hal_dma.c ****   * @}
 387:./Libraries/STM32F4xx_HAL_Driver/Src/stm32f4xx_hal_dma.c ****   */
 388:./Libraries/STM32F4xx_HAL_Driver/Src/stm32f4xx_hal_dma.c **** 
 389:./Libraries/STM32F4xx_HAL_Driver/Src/stm32f4xx_hal_dma.c **** /** @addtogroup DMA_Exported_Functions_Group2
 390:./Libraries/STM32F4xx_HAL_Driver/Src/stm32f4xx_hal_dma.c ****   *
 391:./Libraries/STM32F4xx_HAL_Driver/Src/stm32f4xx_hal_dma.c **** @verbatim   
 392:./Libraries/STM32F4xx_HAL_Driver/Src/stm32f4xx_hal_dma.c ****  ===============================================================================
 393:./Libraries/STM32F4xx_HAL_Driver/Src/stm32f4xx_hal_dma.c ****                       #####  IO operation functions  #####
 394:./Libraries/STM32F4xx_HAL_Driver/Src/stm32f4xx_hal_dma.c ****  ===============================================================================
 395:./Libraries/STM32F4xx_HAL_Driver/Src/stm32f4xx_hal_dma.c ****     [..]  This section provides functions allowing to:
 396:./Libraries/STM32F4xx_HAL_Driver/Src/stm32f4xx_hal_dma.c ****       (+) Configure the source, destination address and data length and Start DMA transfer
 397:./Libraries/STM32F4xx_HAL_Driver/Src/stm32f4xx_hal_dma.c ****       (+) Configure the source, destination address and data length and 
 398:./Libraries/STM32F4xx_HAL_Driver/Src/stm32f4xx_hal_dma.c ****           Start DMA transfer with interrupt
 399:./Libraries/STM32F4xx_HAL_Driver/Src/stm32f4xx_hal_dma.c ****       (+) Abort DMA transfer
 400:./Libraries/STM32F4xx_HAL_Driver/Src/stm32f4xx_hal_dma.c ****       (+) Poll for transfer complete
 401:./Libraries/STM32F4xx_HAL_Driver/Src/stm32f4xx_hal_dma.c ****       (+) Handle DMA interrupt request  
 402:./Libraries/STM32F4xx_HAL_Driver/Src/stm32f4xx_hal_dma.c **** 
 403:./Libraries/STM32F4xx_HAL_Driver/Src/stm32f4xx_hal_dma.c **** @endverbatim
 404:./Libraries/STM32F4xx_HAL_Driver/Src/stm32f4xx_hal_dma.c ****   * @{
 405:./Libraries/STM32F4xx_HAL_Driver/Src/stm32f4xx_hal_dma.c ****   */
 406:./Libraries/STM32F4xx_HAL_Driver/Src/stm32f4xx_hal_dma.c **** 
 407:./Libraries/STM32F4xx_HAL_Driver/Src/stm32f4xx_hal_dma.c **** /**
 408:./Libraries/STM32F4xx_HAL_Driver/Src/stm32f4xx_hal_dma.c ****   * @brief  Starts the DMA Transfer.
 409:./Libraries/STM32F4xx_HAL_Driver/Src/stm32f4xx_hal_dma.c ****   * @param  hdma       pointer to a DMA_HandleTypeDef structure that contains
 410:./Libraries/STM32F4xx_HAL_Driver/Src/stm32f4xx_hal_dma.c ****   *                     the configuration information for the specified DMA Stream.
 411:./Libraries/STM32F4xx_HAL_Driver/Src/stm32f4xx_hal_dma.c ****   * @param  SrcAddress The source memory Buffer address
 412:./Libraries/STM32F4xx_HAL_Driver/Src/stm32f4xx_hal_dma.c ****   * @param  DstAddress The destination memory Buffer address
 413:./Libraries/STM32F4xx_HAL_Driver/Src/stm32f4xx_hal_dma.c ****   * @param  DataLength The length of data to be transferred from source to destination
 414:./Libraries/STM32F4xx_HAL_Driver/Src/stm32f4xx_hal_dma.c ****   * @retval HAL status
 415:./Libraries/STM32F4xx_HAL_Driver/Src/stm32f4xx_hal_dma.c ****   */
 416:./Libraries/STM32F4xx_HAL_Driver/Src/stm32f4xx_hal_dma.c **** HAL_StatusTypeDef HAL_DMA_Start(DMA_HandleTypeDef *hdma, uint32_t SrcAddress, uint32_t DstAddress, 
 417:./Libraries/STM32F4xx_HAL_Driver/Src/stm32f4xx_hal_dma.c **** {
 418:./Libraries/STM32F4xx_HAL_Driver/Src/stm32f4xx_hal_dma.c ****   HAL_StatusTypeDef status = HAL_OK;
 419:./Libraries/STM32F4xx_HAL_Driver/Src/stm32f4xx_hal_dma.c ****   
 420:./Libraries/STM32F4xx_HAL_Driver/Src/stm32f4xx_hal_dma.c ****   /* Check the parameters */
 421:./Libraries/STM32F4xx_HAL_Driver/Src/stm32f4xx_hal_dma.c ****   assert_param(IS_DMA_BUFFER_SIZE(DataLength));
 422:./Libraries/STM32F4xx_HAL_Driver/Src/stm32f4xx_hal_dma.c **** 
 423:./Libraries/STM32F4xx_HAL_Driver/Src/stm32f4xx_hal_dma.c ****   /* Process locked */
 424:./Libraries/STM32F4xx_HAL_Driver/Src/stm32f4xx_hal_dma.c ****   __HAL_LOCK(hdma);
 425:./Libraries/STM32F4xx_HAL_Driver/Src/stm32f4xx_hal_dma.c **** 
 426:./Libraries/STM32F4xx_HAL_Driver/Src/stm32f4xx_hal_dma.c ****   if(HAL_DMA_STATE_READY == hdma->State)
 427:./Libraries/STM32F4xx_HAL_Driver/Src/stm32f4xx_hal_dma.c ****   {
 428:./Libraries/STM32F4xx_HAL_Driver/Src/stm32f4xx_hal_dma.c ****     /* Change DMA peripheral state */
 429:./Libraries/STM32F4xx_HAL_Driver/Src/stm32f4xx_hal_dma.c ****     hdma->State = HAL_DMA_STATE_BUSY;
ARM GAS  /tmp/cc0WhI97.s 			page 9


 430:./Libraries/STM32F4xx_HAL_Driver/Src/stm32f4xx_hal_dma.c ****     
 431:./Libraries/STM32F4xx_HAL_Driver/Src/stm32f4xx_hal_dma.c ****     /* Initialize the error code */
 432:./Libraries/STM32F4xx_HAL_Driver/Src/stm32f4xx_hal_dma.c ****     hdma->ErrorCode = HAL_DMA_ERROR_NONE;
 433:./Libraries/STM32F4xx_HAL_Driver/Src/stm32f4xx_hal_dma.c ****     
 434:./Libraries/STM32F4xx_HAL_Driver/Src/stm32f4xx_hal_dma.c ****     /* Configure the source, destination address and the data length */
 435:./Libraries/STM32F4xx_HAL_Driver/Src/stm32f4xx_hal_dma.c ****     DMA_SetConfig(hdma, SrcAddress, DstAddress, DataLength);
 436:./Libraries/STM32F4xx_HAL_Driver/Src/stm32f4xx_hal_dma.c **** 
 437:./Libraries/STM32F4xx_HAL_Driver/Src/stm32f4xx_hal_dma.c ****     /* Enable the Peripheral */
 438:./Libraries/STM32F4xx_HAL_Driver/Src/stm32f4xx_hal_dma.c ****     __HAL_DMA_ENABLE(hdma);
 439:./Libraries/STM32F4xx_HAL_Driver/Src/stm32f4xx_hal_dma.c ****   }
 440:./Libraries/STM32F4xx_HAL_Driver/Src/stm32f4xx_hal_dma.c ****   else
 441:./Libraries/STM32F4xx_HAL_Driver/Src/stm32f4xx_hal_dma.c ****   {
 442:./Libraries/STM32F4xx_HAL_Driver/Src/stm32f4xx_hal_dma.c ****     /* Process unlocked */
 443:./Libraries/STM32F4xx_HAL_Driver/Src/stm32f4xx_hal_dma.c ****     __HAL_UNLOCK(hdma);
 444:./Libraries/STM32F4xx_HAL_Driver/Src/stm32f4xx_hal_dma.c ****     
 445:./Libraries/STM32F4xx_HAL_Driver/Src/stm32f4xx_hal_dma.c ****     /* Return error status */
 446:./Libraries/STM32F4xx_HAL_Driver/Src/stm32f4xx_hal_dma.c ****     status = HAL_BUSY;
 447:./Libraries/STM32F4xx_HAL_Driver/Src/stm32f4xx_hal_dma.c ****   } 
 448:./Libraries/STM32F4xx_HAL_Driver/Src/stm32f4xx_hal_dma.c ****   return status; 
 449:./Libraries/STM32F4xx_HAL_Driver/Src/stm32f4xx_hal_dma.c **** }
 450:./Libraries/STM32F4xx_HAL_Driver/Src/stm32f4xx_hal_dma.c **** 
 451:./Libraries/STM32F4xx_HAL_Driver/Src/stm32f4xx_hal_dma.c **** /**
 452:./Libraries/STM32F4xx_HAL_Driver/Src/stm32f4xx_hal_dma.c ****   * @brief  Start the DMA Transfer with interrupt enabled.
 453:./Libraries/STM32F4xx_HAL_Driver/Src/stm32f4xx_hal_dma.c ****   * @param  hdma       pointer to a DMA_HandleTypeDef structure that contains
 454:./Libraries/STM32F4xx_HAL_Driver/Src/stm32f4xx_hal_dma.c ****   *                     the configuration information for the specified DMA Stream.  
 455:./Libraries/STM32F4xx_HAL_Driver/Src/stm32f4xx_hal_dma.c ****   * @param  SrcAddress The source memory Buffer address
 456:./Libraries/STM32F4xx_HAL_Driver/Src/stm32f4xx_hal_dma.c ****   * @param  DstAddress The destination memory Buffer address
 457:./Libraries/STM32F4xx_HAL_Driver/Src/stm32f4xx_hal_dma.c ****   * @param  DataLength The length of data to be transferred from source to destination
 458:./Libraries/STM32F4xx_HAL_Driver/Src/stm32f4xx_hal_dma.c ****   * @retval HAL status
 459:./Libraries/STM32F4xx_HAL_Driver/Src/stm32f4xx_hal_dma.c ****   */
 460:./Libraries/STM32F4xx_HAL_Driver/Src/stm32f4xx_hal_dma.c **** HAL_StatusTypeDef HAL_DMA_Start_IT(DMA_HandleTypeDef *hdma, uint32_t SrcAddress, uint32_t DstAddres
 461:./Libraries/STM32F4xx_HAL_Driver/Src/stm32f4xx_hal_dma.c **** {
 462:./Libraries/STM32F4xx_HAL_Driver/Src/stm32f4xx_hal_dma.c ****   HAL_StatusTypeDef status = HAL_OK;
 463:./Libraries/STM32F4xx_HAL_Driver/Src/stm32f4xx_hal_dma.c **** 
 464:./Libraries/STM32F4xx_HAL_Driver/Src/stm32f4xx_hal_dma.c ****   /* calculate DMA base and stream number */
 465:./Libraries/STM32F4xx_HAL_Driver/Src/stm32f4xx_hal_dma.c ****   DMA_Base_Registers *regs = (DMA_Base_Registers *)hdma->StreamBaseAddress;
 466:./Libraries/STM32F4xx_HAL_Driver/Src/stm32f4xx_hal_dma.c ****   
 467:./Libraries/STM32F4xx_HAL_Driver/Src/stm32f4xx_hal_dma.c ****   /* Check the parameters */
 468:./Libraries/STM32F4xx_HAL_Driver/Src/stm32f4xx_hal_dma.c ****   assert_param(IS_DMA_BUFFER_SIZE(DataLength));
 469:./Libraries/STM32F4xx_HAL_Driver/Src/stm32f4xx_hal_dma.c ****  
 470:./Libraries/STM32F4xx_HAL_Driver/Src/stm32f4xx_hal_dma.c ****   /* Process locked */
 471:./Libraries/STM32F4xx_HAL_Driver/Src/stm32f4xx_hal_dma.c ****   __HAL_LOCK(hdma);
 472:./Libraries/STM32F4xx_HAL_Driver/Src/stm32f4xx_hal_dma.c ****   
 473:./Libraries/STM32F4xx_HAL_Driver/Src/stm32f4xx_hal_dma.c ****   if(HAL_DMA_STATE_READY == hdma->State)
 474:./Libraries/STM32F4xx_HAL_Driver/Src/stm32f4xx_hal_dma.c ****   {
 475:./Libraries/STM32F4xx_HAL_Driver/Src/stm32f4xx_hal_dma.c ****     /* Change DMA peripheral state */
 476:./Libraries/STM32F4xx_HAL_Driver/Src/stm32f4xx_hal_dma.c ****     hdma->State = HAL_DMA_STATE_BUSY;
 477:./Libraries/STM32F4xx_HAL_Driver/Src/stm32f4xx_hal_dma.c ****     
 478:./Libraries/STM32F4xx_HAL_Driver/Src/stm32f4xx_hal_dma.c ****     /* Initialize the error code */
 479:./Libraries/STM32F4xx_HAL_Driver/Src/stm32f4xx_hal_dma.c ****     hdma->ErrorCode = HAL_DMA_ERROR_NONE;
 480:./Libraries/STM32F4xx_HAL_Driver/Src/stm32f4xx_hal_dma.c ****     
 481:./Libraries/STM32F4xx_HAL_Driver/Src/stm32f4xx_hal_dma.c ****     /* Configure the source, destination address and the data length */
 482:./Libraries/STM32F4xx_HAL_Driver/Src/stm32f4xx_hal_dma.c ****     DMA_SetConfig(hdma, SrcAddress, DstAddress, DataLength);
 483:./Libraries/STM32F4xx_HAL_Driver/Src/stm32f4xx_hal_dma.c ****     
 484:./Libraries/STM32F4xx_HAL_Driver/Src/stm32f4xx_hal_dma.c ****     /* Clear all interrupt flags at correct offset within the register */
 485:./Libraries/STM32F4xx_HAL_Driver/Src/stm32f4xx_hal_dma.c ****     regs->IFCR = 0x3FU << hdma->StreamIndex;
 486:./Libraries/STM32F4xx_HAL_Driver/Src/stm32f4xx_hal_dma.c ****     
ARM GAS  /tmp/cc0WhI97.s 			page 10


 487:./Libraries/STM32F4xx_HAL_Driver/Src/stm32f4xx_hal_dma.c ****     /* Enable Common interrupts*/
 488:./Libraries/STM32F4xx_HAL_Driver/Src/stm32f4xx_hal_dma.c ****     hdma->Instance->CR  |= DMA_IT_TC | DMA_IT_TE | DMA_IT_DME;
 489:./Libraries/STM32F4xx_HAL_Driver/Src/stm32f4xx_hal_dma.c ****     hdma->Instance->FCR |= DMA_IT_FE;
 490:./Libraries/STM32F4xx_HAL_Driver/Src/stm32f4xx_hal_dma.c ****     
 491:./Libraries/STM32F4xx_HAL_Driver/Src/stm32f4xx_hal_dma.c ****     if(hdma->XferHalfCpltCallback != NULL)
 492:./Libraries/STM32F4xx_HAL_Driver/Src/stm32f4xx_hal_dma.c ****     {
 493:./Libraries/STM32F4xx_HAL_Driver/Src/stm32f4xx_hal_dma.c ****       hdma->Instance->CR  |= DMA_IT_HT;
 494:./Libraries/STM32F4xx_HAL_Driver/Src/stm32f4xx_hal_dma.c ****     }
 495:./Libraries/STM32F4xx_HAL_Driver/Src/stm32f4xx_hal_dma.c ****     
 496:./Libraries/STM32F4xx_HAL_Driver/Src/stm32f4xx_hal_dma.c ****     /* Enable the Peripheral */
 497:./Libraries/STM32F4xx_HAL_Driver/Src/stm32f4xx_hal_dma.c ****     __HAL_DMA_ENABLE(hdma);
 498:./Libraries/STM32F4xx_HAL_Driver/Src/stm32f4xx_hal_dma.c ****   }
 499:./Libraries/STM32F4xx_HAL_Driver/Src/stm32f4xx_hal_dma.c ****   else
 500:./Libraries/STM32F4xx_HAL_Driver/Src/stm32f4xx_hal_dma.c ****   {
 501:./Libraries/STM32F4xx_HAL_Driver/Src/stm32f4xx_hal_dma.c ****     /* Process unlocked */
 502:./Libraries/STM32F4xx_HAL_Driver/Src/stm32f4xx_hal_dma.c ****     __HAL_UNLOCK(hdma);	  
 503:./Libraries/STM32F4xx_HAL_Driver/Src/stm32f4xx_hal_dma.c ****     
 504:./Libraries/STM32F4xx_HAL_Driver/Src/stm32f4xx_hal_dma.c ****     /* Return error status */
 505:./Libraries/STM32F4xx_HAL_Driver/Src/stm32f4xx_hal_dma.c ****     status = HAL_BUSY;
 506:./Libraries/STM32F4xx_HAL_Driver/Src/stm32f4xx_hal_dma.c ****   }
 507:./Libraries/STM32F4xx_HAL_Driver/Src/stm32f4xx_hal_dma.c ****   
 508:./Libraries/STM32F4xx_HAL_Driver/Src/stm32f4xx_hal_dma.c ****   return status;
 509:./Libraries/STM32F4xx_HAL_Driver/Src/stm32f4xx_hal_dma.c **** }
 510:./Libraries/STM32F4xx_HAL_Driver/Src/stm32f4xx_hal_dma.c **** 
 511:./Libraries/STM32F4xx_HAL_Driver/Src/stm32f4xx_hal_dma.c **** /**
 512:./Libraries/STM32F4xx_HAL_Driver/Src/stm32f4xx_hal_dma.c ****   * @brief  Aborts the DMA Transfer.
 513:./Libraries/STM32F4xx_HAL_Driver/Src/stm32f4xx_hal_dma.c ****   * @param  hdma   pointer to a DMA_HandleTypeDef structure that contains
 514:./Libraries/STM32F4xx_HAL_Driver/Src/stm32f4xx_hal_dma.c ****   *                 the configuration information for the specified DMA Stream.
 515:./Libraries/STM32F4xx_HAL_Driver/Src/stm32f4xx_hal_dma.c ****   *                   
 516:./Libraries/STM32F4xx_HAL_Driver/Src/stm32f4xx_hal_dma.c ****   * @note  After disabling a DMA Stream, a check for wait until the DMA Stream is 
 517:./Libraries/STM32F4xx_HAL_Driver/Src/stm32f4xx_hal_dma.c ****   *        effectively disabled is added. If a Stream is disabled 
 518:./Libraries/STM32F4xx_HAL_Driver/Src/stm32f4xx_hal_dma.c ****   *        while a data transfer is ongoing, the current data will be transferred
 519:./Libraries/STM32F4xx_HAL_Driver/Src/stm32f4xx_hal_dma.c ****   *        and the Stream will be effectively disabled only after the transfer of
 520:./Libraries/STM32F4xx_HAL_Driver/Src/stm32f4xx_hal_dma.c ****   *        this single data is finished.  
 521:./Libraries/STM32F4xx_HAL_Driver/Src/stm32f4xx_hal_dma.c ****   * @retval HAL status
 522:./Libraries/STM32F4xx_HAL_Driver/Src/stm32f4xx_hal_dma.c ****   */
 523:./Libraries/STM32F4xx_HAL_Driver/Src/stm32f4xx_hal_dma.c **** HAL_StatusTypeDef HAL_DMA_Abort(DMA_HandleTypeDef *hdma)
 524:./Libraries/STM32F4xx_HAL_Driver/Src/stm32f4xx_hal_dma.c **** {
 525:./Libraries/STM32F4xx_HAL_Driver/Src/stm32f4xx_hal_dma.c ****   /* calculate DMA base and stream number */
 526:./Libraries/STM32F4xx_HAL_Driver/Src/stm32f4xx_hal_dma.c ****   DMA_Base_Registers *regs = (DMA_Base_Registers *)hdma->StreamBaseAddress;
 527:./Libraries/STM32F4xx_HAL_Driver/Src/stm32f4xx_hal_dma.c ****   
 528:./Libraries/STM32F4xx_HAL_Driver/Src/stm32f4xx_hal_dma.c ****   uint32_t tickstart = HAL_GetTick();
 529:./Libraries/STM32F4xx_HAL_Driver/Src/stm32f4xx_hal_dma.c ****   
 530:./Libraries/STM32F4xx_HAL_Driver/Src/stm32f4xx_hal_dma.c ****   if(hdma->State != HAL_DMA_STATE_BUSY)
 531:./Libraries/STM32F4xx_HAL_Driver/Src/stm32f4xx_hal_dma.c ****   {
 532:./Libraries/STM32F4xx_HAL_Driver/Src/stm32f4xx_hal_dma.c ****     hdma->ErrorCode = HAL_DMA_ERROR_NO_XFER;
 533:./Libraries/STM32F4xx_HAL_Driver/Src/stm32f4xx_hal_dma.c ****     
 534:./Libraries/STM32F4xx_HAL_Driver/Src/stm32f4xx_hal_dma.c ****     /* Process Unlocked */
 535:./Libraries/STM32F4xx_HAL_Driver/Src/stm32f4xx_hal_dma.c ****     __HAL_UNLOCK(hdma);
 536:./Libraries/STM32F4xx_HAL_Driver/Src/stm32f4xx_hal_dma.c ****     
 537:./Libraries/STM32F4xx_HAL_Driver/Src/stm32f4xx_hal_dma.c ****     return HAL_ERROR;
 538:./Libraries/STM32F4xx_HAL_Driver/Src/stm32f4xx_hal_dma.c ****   }
 539:./Libraries/STM32F4xx_HAL_Driver/Src/stm32f4xx_hal_dma.c ****   else
 540:./Libraries/STM32F4xx_HAL_Driver/Src/stm32f4xx_hal_dma.c ****   {
 541:./Libraries/STM32F4xx_HAL_Driver/Src/stm32f4xx_hal_dma.c ****     /* Disable all the transfer interrupts */
 542:./Libraries/STM32F4xx_HAL_Driver/Src/stm32f4xx_hal_dma.c ****     hdma->Instance->CR  &= ~(DMA_IT_TC | DMA_IT_TE | DMA_IT_DME);
 543:./Libraries/STM32F4xx_HAL_Driver/Src/stm32f4xx_hal_dma.c ****     hdma->Instance->FCR &= ~(DMA_IT_FE);
ARM GAS  /tmp/cc0WhI97.s 			page 11


 544:./Libraries/STM32F4xx_HAL_Driver/Src/stm32f4xx_hal_dma.c ****     
 545:./Libraries/STM32F4xx_HAL_Driver/Src/stm32f4xx_hal_dma.c ****     if((hdma->XferHalfCpltCallback != NULL) || (hdma->XferM1HalfCpltCallback != NULL))
 546:./Libraries/STM32F4xx_HAL_Driver/Src/stm32f4xx_hal_dma.c ****     {
 547:./Libraries/STM32F4xx_HAL_Driver/Src/stm32f4xx_hal_dma.c ****       hdma->Instance->CR  &= ~(DMA_IT_HT);
 548:./Libraries/STM32F4xx_HAL_Driver/Src/stm32f4xx_hal_dma.c ****     }
 549:./Libraries/STM32F4xx_HAL_Driver/Src/stm32f4xx_hal_dma.c ****     
 550:./Libraries/STM32F4xx_HAL_Driver/Src/stm32f4xx_hal_dma.c ****     /* Disable the stream */
 551:./Libraries/STM32F4xx_HAL_Driver/Src/stm32f4xx_hal_dma.c ****     __HAL_DMA_DISABLE(hdma);
 552:./Libraries/STM32F4xx_HAL_Driver/Src/stm32f4xx_hal_dma.c ****     
 553:./Libraries/STM32F4xx_HAL_Driver/Src/stm32f4xx_hal_dma.c ****     /* Check if the DMA Stream is effectively disabled */
 554:./Libraries/STM32F4xx_HAL_Driver/Src/stm32f4xx_hal_dma.c ****     while((hdma->Instance->CR & DMA_SxCR_EN) != RESET)
 555:./Libraries/STM32F4xx_HAL_Driver/Src/stm32f4xx_hal_dma.c ****     {
 556:./Libraries/STM32F4xx_HAL_Driver/Src/stm32f4xx_hal_dma.c ****       /* Check for the Timeout */
 557:./Libraries/STM32F4xx_HAL_Driver/Src/stm32f4xx_hal_dma.c ****       if((HAL_GetTick() - tickstart ) > HAL_TIMEOUT_DMA_ABORT)
 558:./Libraries/STM32F4xx_HAL_Driver/Src/stm32f4xx_hal_dma.c ****       {
 559:./Libraries/STM32F4xx_HAL_Driver/Src/stm32f4xx_hal_dma.c ****         /* Update error code */
 560:./Libraries/STM32F4xx_HAL_Driver/Src/stm32f4xx_hal_dma.c ****         hdma->ErrorCode = HAL_DMA_ERROR_TIMEOUT;
 561:./Libraries/STM32F4xx_HAL_Driver/Src/stm32f4xx_hal_dma.c ****         
 562:./Libraries/STM32F4xx_HAL_Driver/Src/stm32f4xx_hal_dma.c ****         /* Process Unlocked */
 563:./Libraries/STM32F4xx_HAL_Driver/Src/stm32f4xx_hal_dma.c ****         __HAL_UNLOCK(hdma);
 564:./Libraries/STM32F4xx_HAL_Driver/Src/stm32f4xx_hal_dma.c ****         
 565:./Libraries/STM32F4xx_HAL_Driver/Src/stm32f4xx_hal_dma.c ****         /* Change the DMA state */
 566:./Libraries/STM32F4xx_HAL_Driver/Src/stm32f4xx_hal_dma.c ****         hdma->State = HAL_DMA_STATE_TIMEOUT;
 567:./Libraries/STM32F4xx_HAL_Driver/Src/stm32f4xx_hal_dma.c ****         
 568:./Libraries/STM32F4xx_HAL_Driver/Src/stm32f4xx_hal_dma.c ****         return HAL_TIMEOUT;
 569:./Libraries/STM32F4xx_HAL_Driver/Src/stm32f4xx_hal_dma.c ****       }
 570:./Libraries/STM32F4xx_HAL_Driver/Src/stm32f4xx_hal_dma.c ****     }
 571:./Libraries/STM32F4xx_HAL_Driver/Src/stm32f4xx_hal_dma.c ****     
 572:./Libraries/STM32F4xx_HAL_Driver/Src/stm32f4xx_hal_dma.c ****     /* Clear all interrupt flags at correct offset within the register */
 573:./Libraries/STM32F4xx_HAL_Driver/Src/stm32f4xx_hal_dma.c ****     regs->IFCR = 0x3FU << hdma->StreamIndex;
 574:./Libraries/STM32F4xx_HAL_Driver/Src/stm32f4xx_hal_dma.c ****     
 575:./Libraries/STM32F4xx_HAL_Driver/Src/stm32f4xx_hal_dma.c ****     /* Process Unlocked */
 576:./Libraries/STM32F4xx_HAL_Driver/Src/stm32f4xx_hal_dma.c ****     __HAL_UNLOCK(hdma);
 577:./Libraries/STM32F4xx_HAL_Driver/Src/stm32f4xx_hal_dma.c ****     
 578:./Libraries/STM32F4xx_HAL_Driver/Src/stm32f4xx_hal_dma.c ****     /* Change the DMA state*/
 579:./Libraries/STM32F4xx_HAL_Driver/Src/stm32f4xx_hal_dma.c ****     hdma->State = HAL_DMA_STATE_READY;
 580:./Libraries/STM32F4xx_HAL_Driver/Src/stm32f4xx_hal_dma.c ****   }
 581:./Libraries/STM32F4xx_HAL_Driver/Src/stm32f4xx_hal_dma.c ****   return HAL_OK;
 582:./Libraries/STM32F4xx_HAL_Driver/Src/stm32f4xx_hal_dma.c **** }
 583:./Libraries/STM32F4xx_HAL_Driver/Src/stm32f4xx_hal_dma.c **** 
 584:./Libraries/STM32F4xx_HAL_Driver/Src/stm32f4xx_hal_dma.c **** /**
 585:./Libraries/STM32F4xx_HAL_Driver/Src/stm32f4xx_hal_dma.c ****   * @brief  Aborts the DMA Transfer in Interrupt mode.
 586:./Libraries/STM32F4xx_HAL_Driver/Src/stm32f4xx_hal_dma.c ****   * @param  hdma   pointer to a DMA_HandleTypeDef structure that contains
 587:./Libraries/STM32F4xx_HAL_Driver/Src/stm32f4xx_hal_dma.c ****   *                 the configuration information for the specified DMA Stream.
 588:./Libraries/STM32F4xx_HAL_Driver/Src/stm32f4xx_hal_dma.c ****   * @retval HAL status
 589:./Libraries/STM32F4xx_HAL_Driver/Src/stm32f4xx_hal_dma.c ****   */
 590:./Libraries/STM32F4xx_HAL_Driver/Src/stm32f4xx_hal_dma.c **** HAL_StatusTypeDef HAL_DMA_Abort_IT(DMA_HandleTypeDef *hdma)
 591:./Libraries/STM32F4xx_HAL_Driver/Src/stm32f4xx_hal_dma.c **** {
 592:./Libraries/STM32F4xx_HAL_Driver/Src/stm32f4xx_hal_dma.c ****   if(hdma->State != HAL_DMA_STATE_BUSY)
 593:./Libraries/STM32F4xx_HAL_Driver/Src/stm32f4xx_hal_dma.c ****   {
 594:./Libraries/STM32F4xx_HAL_Driver/Src/stm32f4xx_hal_dma.c ****     hdma->ErrorCode = HAL_DMA_ERROR_NO_XFER;
 595:./Libraries/STM32F4xx_HAL_Driver/Src/stm32f4xx_hal_dma.c ****     return HAL_ERROR;
 596:./Libraries/STM32F4xx_HAL_Driver/Src/stm32f4xx_hal_dma.c ****   }
 597:./Libraries/STM32F4xx_HAL_Driver/Src/stm32f4xx_hal_dma.c ****   else
 598:./Libraries/STM32F4xx_HAL_Driver/Src/stm32f4xx_hal_dma.c ****   {
 599:./Libraries/STM32F4xx_HAL_Driver/Src/stm32f4xx_hal_dma.c ****     /* Set Abort State  */
 600:./Libraries/STM32F4xx_HAL_Driver/Src/stm32f4xx_hal_dma.c ****     hdma->State = HAL_DMA_STATE_ABORT;
ARM GAS  /tmp/cc0WhI97.s 			page 12


 601:./Libraries/STM32F4xx_HAL_Driver/Src/stm32f4xx_hal_dma.c ****     
 602:./Libraries/STM32F4xx_HAL_Driver/Src/stm32f4xx_hal_dma.c ****     /* Disable the stream */
 603:./Libraries/STM32F4xx_HAL_Driver/Src/stm32f4xx_hal_dma.c ****     __HAL_DMA_DISABLE(hdma);
 604:./Libraries/STM32F4xx_HAL_Driver/Src/stm32f4xx_hal_dma.c ****   }
 605:./Libraries/STM32F4xx_HAL_Driver/Src/stm32f4xx_hal_dma.c **** 
 606:./Libraries/STM32F4xx_HAL_Driver/Src/stm32f4xx_hal_dma.c ****   return HAL_OK;
 607:./Libraries/STM32F4xx_HAL_Driver/Src/stm32f4xx_hal_dma.c **** }
 608:./Libraries/STM32F4xx_HAL_Driver/Src/stm32f4xx_hal_dma.c **** 
 609:./Libraries/STM32F4xx_HAL_Driver/Src/stm32f4xx_hal_dma.c **** /**
 610:./Libraries/STM32F4xx_HAL_Driver/Src/stm32f4xx_hal_dma.c ****   * @brief  Polling for transfer complete.
 611:./Libraries/STM32F4xx_HAL_Driver/Src/stm32f4xx_hal_dma.c ****   * @param  hdma          pointer to a DMA_HandleTypeDef structure that contains
 612:./Libraries/STM32F4xx_HAL_Driver/Src/stm32f4xx_hal_dma.c ****   *                        the configuration information for the specified DMA Stream.
 613:./Libraries/STM32F4xx_HAL_Driver/Src/stm32f4xx_hal_dma.c ****   * @param  CompleteLevel Specifies the DMA level complete.
 614:./Libraries/STM32F4xx_HAL_Driver/Src/stm32f4xx_hal_dma.c ****   * @note   The polling mode is kept in this version for legacy. it is recommanded to use the IT mo
 615:./Libraries/STM32F4xx_HAL_Driver/Src/stm32f4xx_hal_dma.c ****   *         This model could be used for debug purpose.
 616:./Libraries/STM32F4xx_HAL_Driver/Src/stm32f4xx_hal_dma.c ****   * @note   The HAL_DMA_PollForTransfer API cannot be used in circular and double buffering mode (a
 617:./Libraries/STM32F4xx_HAL_Driver/Src/stm32f4xx_hal_dma.c ****   * @param  Timeout       Timeout duration.
 618:./Libraries/STM32F4xx_HAL_Driver/Src/stm32f4xx_hal_dma.c ****   * @retval HAL status
 619:./Libraries/STM32F4xx_HAL_Driver/Src/stm32f4xx_hal_dma.c ****   */
 620:./Libraries/STM32F4xx_HAL_Driver/Src/stm32f4xx_hal_dma.c **** HAL_StatusTypeDef HAL_DMA_PollForTransfer(DMA_HandleTypeDef *hdma, HAL_DMA_LevelCompleteTypeDef Com
 621:./Libraries/STM32F4xx_HAL_Driver/Src/stm32f4xx_hal_dma.c **** {
 622:./Libraries/STM32F4xx_HAL_Driver/Src/stm32f4xx_hal_dma.c ****   HAL_StatusTypeDef status = HAL_OK; 
 623:./Libraries/STM32F4xx_HAL_Driver/Src/stm32f4xx_hal_dma.c ****   uint32_t mask_cpltlevel;
 624:./Libraries/STM32F4xx_HAL_Driver/Src/stm32f4xx_hal_dma.c ****   uint32_t tickstart = HAL_GetTick(); 
 625:./Libraries/STM32F4xx_HAL_Driver/Src/stm32f4xx_hal_dma.c ****   uint32_t tmpisr;
 626:./Libraries/STM32F4xx_HAL_Driver/Src/stm32f4xx_hal_dma.c ****   
 627:./Libraries/STM32F4xx_HAL_Driver/Src/stm32f4xx_hal_dma.c ****   /* calculate DMA base and stream number */
 628:./Libraries/STM32F4xx_HAL_Driver/Src/stm32f4xx_hal_dma.c ****   DMA_Base_Registers *regs;
 629:./Libraries/STM32F4xx_HAL_Driver/Src/stm32f4xx_hal_dma.c **** 
 630:./Libraries/STM32F4xx_HAL_Driver/Src/stm32f4xx_hal_dma.c ****   if(HAL_DMA_STATE_BUSY != hdma->State)
 631:./Libraries/STM32F4xx_HAL_Driver/Src/stm32f4xx_hal_dma.c ****   {
 632:./Libraries/STM32F4xx_HAL_Driver/Src/stm32f4xx_hal_dma.c ****     /* No transfer ongoing */
 633:./Libraries/STM32F4xx_HAL_Driver/Src/stm32f4xx_hal_dma.c ****     hdma->ErrorCode = HAL_DMA_ERROR_NO_XFER;
 634:./Libraries/STM32F4xx_HAL_Driver/Src/stm32f4xx_hal_dma.c ****     __HAL_UNLOCK(hdma);
 635:./Libraries/STM32F4xx_HAL_Driver/Src/stm32f4xx_hal_dma.c ****     return HAL_ERROR;
 636:./Libraries/STM32F4xx_HAL_Driver/Src/stm32f4xx_hal_dma.c ****   }
 637:./Libraries/STM32F4xx_HAL_Driver/Src/stm32f4xx_hal_dma.c **** 
 638:./Libraries/STM32F4xx_HAL_Driver/Src/stm32f4xx_hal_dma.c ****   /* Polling mode not supported in circular mode and double buffering mode */
 639:./Libraries/STM32F4xx_HAL_Driver/Src/stm32f4xx_hal_dma.c ****   if ((hdma->Instance->CR & DMA_SxCR_CIRC) != RESET)
 640:./Libraries/STM32F4xx_HAL_Driver/Src/stm32f4xx_hal_dma.c ****   {
 641:./Libraries/STM32F4xx_HAL_Driver/Src/stm32f4xx_hal_dma.c ****     hdma->ErrorCode = HAL_DMA_ERROR_NOT_SUPPORTED;
 642:./Libraries/STM32F4xx_HAL_Driver/Src/stm32f4xx_hal_dma.c ****     return HAL_ERROR;
 643:./Libraries/STM32F4xx_HAL_Driver/Src/stm32f4xx_hal_dma.c ****   }
 644:./Libraries/STM32F4xx_HAL_Driver/Src/stm32f4xx_hal_dma.c ****   
 645:./Libraries/STM32F4xx_HAL_Driver/Src/stm32f4xx_hal_dma.c ****   /* Get the level transfer complete flag */
 646:./Libraries/STM32F4xx_HAL_Driver/Src/stm32f4xx_hal_dma.c ****   if(CompleteLevel == HAL_DMA_FULL_TRANSFER)
 647:./Libraries/STM32F4xx_HAL_Driver/Src/stm32f4xx_hal_dma.c ****   {
 648:./Libraries/STM32F4xx_HAL_Driver/Src/stm32f4xx_hal_dma.c ****     /* Transfer Complete flag */
 649:./Libraries/STM32F4xx_HAL_Driver/Src/stm32f4xx_hal_dma.c ****     mask_cpltlevel = DMA_FLAG_TCIF0_4 << hdma->StreamIndex;
 650:./Libraries/STM32F4xx_HAL_Driver/Src/stm32f4xx_hal_dma.c ****   }
 651:./Libraries/STM32F4xx_HAL_Driver/Src/stm32f4xx_hal_dma.c ****   else
 652:./Libraries/STM32F4xx_HAL_Driver/Src/stm32f4xx_hal_dma.c ****   {
 653:./Libraries/STM32F4xx_HAL_Driver/Src/stm32f4xx_hal_dma.c ****     /* Half Transfer Complete flag */
 654:./Libraries/STM32F4xx_HAL_Driver/Src/stm32f4xx_hal_dma.c ****     mask_cpltlevel = DMA_FLAG_HTIF0_4 << hdma->StreamIndex;
 655:./Libraries/STM32F4xx_HAL_Driver/Src/stm32f4xx_hal_dma.c ****   }
 656:./Libraries/STM32F4xx_HAL_Driver/Src/stm32f4xx_hal_dma.c ****   
 657:./Libraries/STM32F4xx_HAL_Driver/Src/stm32f4xx_hal_dma.c ****   regs = (DMA_Base_Registers *)hdma->StreamBaseAddress;
ARM GAS  /tmp/cc0WhI97.s 			page 13


 658:./Libraries/STM32F4xx_HAL_Driver/Src/stm32f4xx_hal_dma.c ****   tmpisr = regs->ISR;
 659:./Libraries/STM32F4xx_HAL_Driver/Src/stm32f4xx_hal_dma.c ****   
 660:./Libraries/STM32F4xx_HAL_Driver/Src/stm32f4xx_hal_dma.c ****   while(((tmpisr & mask_cpltlevel) == RESET) && ((hdma->ErrorCode & HAL_DMA_ERROR_TE) == RESET))
 661:./Libraries/STM32F4xx_HAL_Driver/Src/stm32f4xx_hal_dma.c ****   {
 662:./Libraries/STM32F4xx_HAL_Driver/Src/stm32f4xx_hal_dma.c ****     /* Check for the Timeout (Not applicable in circular mode)*/
 663:./Libraries/STM32F4xx_HAL_Driver/Src/stm32f4xx_hal_dma.c ****     if(Timeout != HAL_MAX_DELAY)
 664:./Libraries/STM32F4xx_HAL_Driver/Src/stm32f4xx_hal_dma.c ****     {
 665:./Libraries/STM32F4xx_HAL_Driver/Src/stm32f4xx_hal_dma.c ****       if((Timeout == 0U)||((HAL_GetTick() - tickstart ) > Timeout))
 666:./Libraries/STM32F4xx_HAL_Driver/Src/stm32f4xx_hal_dma.c ****       {
 667:./Libraries/STM32F4xx_HAL_Driver/Src/stm32f4xx_hal_dma.c ****         /* Update error code */
 668:./Libraries/STM32F4xx_HAL_Driver/Src/stm32f4xx_hal_dma.c ****         hdma->ErrorCode = HAL_DMA_ERROR_TIMEOUT;
 669:./Libraries/STM32F4xx_HAL_Driver/Src/stm32f4xx_hal_dma.c **** 
 670:./Libraries/STM32F4xx_HAL_Driver/Src/stm32f4xx_hal_dma.c ****         /* Process Unlocked */
 671:./Libraries/STM32F4xx_HAL_Driver/Src/stm32f4xx_hal_dma.c ****         __HAL_UNLOCK(hdma);
 672:./Libraries/STM32F4xx_HAL_Driver/Src/stm32f4xx_hal_dma.c ****         
 673:./Libraries/STM32F4xx_HAL_Driver/Src/stm32f4xx_hal_dma.c ****         /* Change the DMA state */
 674:./Libraries/STM32F4xx_HAL_Driver/Src/stm32f4xx_hal_dma.c ****         hdma->State = HAL_DMA_STATE_READY;
 675:./Libraries/STM32F4xx_HAL_Driver/Src/stm32f4xx_hal_dma.c ****         
 676:./Libraries/STM32F4xx_HAL_Driver/Src/stm32f4xx_hal_dma.c ****         return HAL_TIMEOUT;
 677:./Libraries/STM32F4xx_HAL_Driver/Src/stm32f4xx_hal_dma.c ****       }
 678:./Libraries/STM32F4xx_HAL_Driver/Src/stm32f4xx_hal_dma.c ****     }
 679:./Libraries/STM32F4xx_HAL_Driver/Src/stm32f4xx_hal_dma.c **** 
 680:./Libraries/STM32F4xx_HAL_Driver/Src/stm32f4xx_hal_dma.c ****     /* Get the ISR register value */
 681:./Libraries/STM32F4xx_HAL_Driver/Src/stm32f4xx_hal_dma.c ****     tmpisr = regs->ISR;
 682:./Libraries/STM32F4xx_HAL_Driver/Src/stm32f4xx_hal_dma.c **** 
 683:./Libraries/STM32F4xx_HAL_Driver/Src/stm32f4xx_hal_dma.c ****     if((tmpisr & (DMA_FLAG_TEIF0_4 << hdma->StreamIndex)) != RESET)
 684:./Libraries/STM32F4xx_HAL_Driver/Src/stm32f4xx_hal_dma.c ****     {
 685:./Libraries/STM32F4xx_HAL_Driver/Src/stm32f4xx_hal_dma.c ****       /* Update error code */
 686:./Libraries/STM32F4xx_HAL_Driver/Src/stm32f4xx_hal_dma.c ****       hdma->ErrorCode |= HAL_DMA_ERROR_TE;
 687:./Libraries/STM32F4xx_HAL_Driver/Src/stm32f4xx_hal_dma.c ****       
 688:./Libraries/STM32F4xx_HAL_Driver/Src/stm32f4xx_hal_dma.c ****       /* Clear the transfer error flag */
 689:./Libraries/STM32F4xx_HAL_Driver/Src/stm32f4xx_hal_dma.c ****       regs->IFCR = DMA_FLAG_TEIF0_4 << hdma->StreamIndex;
 690:./Libraries/STM32F4xx_HAL_Driver/Src/stm32f4xx_hal_dma.c ****     }
 691:./Libraries/STM32F4xx_HAL_Driver/Src/stm32f4xx_hal_dma.c ****     
 692:./Libraries/STM32F4xx_HAL_Driver/Src/stm32f4xx_hal_dma.c ****     if((tmpisr & (DMA_FLAG_FEIF0_4 << hdma->StreamIndex)) != RESET)
 693:./Libraries/STM32F4xx_HAL_Driver/Src/stm32f4xx_hal_dma.c ****     {
 694:./Libraries/STM32F4xx_HAL_Driver/Src/stm32f4xx_hal_dma.c ****       /* Update error code */
 695:./Libraries/STM32F4xx_HAL_Driver/Src/stm32f4xx_hal_dma.c ****       hdma->ErrorCode |= HAL_DMA_ERROR_FE;
 696:./Libraries/STM32F4xx_HAL_Driver/Src/stm32f4xx_hal_dma.c ****       
 697:./Libraries/STM32F4xx_HAL_Driver/Src/stm32f4xx_hal_dma.c ****       /* Clear the FIFO error flag */
 698:./Libraries/STM32F4xx_HAL_Driver/Src/stm32f4xx_hal_dma.c ****       regs->IFCR = DMA_FLAG_FEIF0_4 << hdma->StreamIndex;
 699:./Libraries/STM32F4xx_HAL_Driver/Src/stm32f4xx_hal_dma.c ****     }
 700:./Libraries/STM32F4xx_HAL_Driver/Src/stm32f4xx_hal_dma.c ****     
 701:./Libraries/STM32F4xx_HAL_Driver/Src/stm32f4xx_hal_dma.c ****     if((tmpisr & (DMA_FLAG_DMEIF0_4 << hdma->StreamIndex)) != RESET)
 702:./Libraries/STM32F4xx_HAL_Driver/Src/stm32f4xx_hal_dma.c ****     {
 703:./Libraries/STM32F4xx_HAL_Driver/Src/stm32f4xx_hal_dma.c ****       /* Update error code */
 704:./Libraries/STM32F4xx_HAL_Driver/Src/stm32f4xx_hal_dma.c ****       hdma->ErrorCode |= HAL_DMA_ERROR_DME;
 705:./Libraries/STM32F4xx_HAL_Driver/Src/stm32f4xx_hal_dma.c ****       
 706:./Libraries/STM32F4xx_HAL_Driver/Src/stm32f4xx_hal_dma.c ****       /* Clear the Direct Mode error flag */
 707:./Libraries/STM32F4xx_HAL_Driver/Src/stm32f4xx_hal_dma.c ****       regs->IFCR = DMA_FLAG_DMEIF0_4 << hdma->StreamIndex;
 708:./Libraries/STM32F4xx_HAL_Driver/Src/stm32f4xx_hal_dma.c ****     }
 709:./Libraries/STM32F4xx_HAL_Driver/Src/stm32f4xx_hal_dma.c ****   }
 710:./Libraries/STM32F4xx_HAL_Driver/Src/stm32f4xx_hal_dma.c ****   
 711:./Libraries/STM32F4xx_HAL_Driver/Src/stm32f4xx_hal_dma.c ****   if(hdma->ErrorCode != HAL_DMA_ERROR_NONE)
 712:./Libraries/STM32F4xx_HAL_Driver/Src/stm32f4xx_hal_dma.c ****   {
 713:./Libraries/STM32F4xx_HAL_Driver/Src/stm32f4xx_hal_dma.c ****     if((hdma->ErrorCode & HAL_DMA_ERROR_TE) != RESET)
 714:./Libraries/STM32F4xx_HAL_Driver/Src/stm32f4xx_hal_dma.c ****     {
ARM GAS  /tmp/cc0WhI97.s 			page 14


 715:./Libraries/STM32F4xx_HAL_Driver/Src/stm32f4xx_hal_dma.c ****       HAL_DMA_Abort(hdma);
 716:./Libraries/STM32F4xx_HAL_Driver/Src/stm32f4xx_hal_dma.c ****     
 717:./Libraries/STM32F4xx_HAL_Driver/Src/stm32f4xx_hal_dma.c ****       /* Clear the half transfer and transfer complete flags */
 718:./Libraries/STM32F4xx_HAL_Driver/Src/stm32f4xx_hal_dma.c ****       regs->IFCR = (DMA_FLAG_HTIF0_4 | DMA_FLAG_TCIF0_4) << hdma->StreamIndex;
 719:./Libraries/STM32F4xx_HAL_Driver/Src/stm32f4xx_hal_dma.c ****     
 720:./Libraries/STM32F4xx_HAL_Driver/Src/stm32f4xx_hal_dma.c ****       /* Process Unlocked */
 721:./Libraries/STM32F4xx_HAL_Driver/Src/stm32f4xx_hal_dma.c ****       __HAL_UNLOCK(hdma);
 722:./Libraries/STM32F4xx_HAL_Driver/Src/stm32f4xx_hal_dma.c **** 
 723:./Libraries/STM32F4xx_HAL_Driver/Src/stm32f4xx_hal_dma.c ****       /* Change the DMA state */
 724:./Libraries/STM32F4xx_HAL_Driver/Src/stm32f4xx_hal_dma.c ****       hdma->State= HAL_DMA_STATE_READY;
 725:./Libraries/STM32F4xx_HAL_Driver/Src/stm32f4xx_hal_dma.c **** 
 726:./Libraries/STM32F4xx_HAL_Driver/Src/stm32f4xx_hal_dma.c ****       return HAL_ERROR;
 727:./Libraries/STM32F4xx_HAL_Driver/Src/stm32f4xx_hal_dma.c ****    }
 728:./Libraries/STM32F4xx_HAL_Driver/Src/stm32f4xx_hal_dma.c ****   }
 729:./Libraries/STM32F4xx_HAL_Driver/Src/stm32f4xx_hal_dma.c ****   
 730:./Libraries/STM32F4xx_HAL_Driver/Src/stm32f4xx_hal_dma.c ****   /* Get the level transfer complete flag */
 731:./Libraries/STM32F4xx_HAL_Driver/Src/stm32f4xx_hal_dma.c ****   if(CompleteLevel == HAL_DMA_FULL_TRANSFER)
 732:./Libraries/STM32F4xx_HAL_Driver/Src/stm32f4xx_hal_dma.c ****   {
 733:./Libraries/STM32F4xx_HAL_Driver/Src/stm32f4xx_hal_dma.c ****     /* Clear the half transfer and transfer complete flags */
 734:./Libraries/STM32F4xx_HAL_Driver/Src/stm32f4xx_hal_dma.c ****     regs->IFCR = (DMA_FLAG_HTIF0_4 | DMA_FLAG_TCIF0_4) << hdma->StreamIndex;
 735:./Libraries/STM32F4xx_HAL_Driver/Src/stm32f4xx_hal_dma.c ****     
 736:./Libraries/STM32F4xx_HAL_Driver/Src/stm32f4xx_hal_dma.c ****     /* Process Unlocked */
 737:./Libraries/STM32F4xx_HAL_Driver/Src/stm32f4xx_hal_dma.c ****     __HAL_UNLOCK(hdma);
 738:./Libraries/STM32F4xx_HAL_Driver/Src/stm32f4xx_hal_dma.c **** 
 739:./Libraries/STM32F4xx_HAL_Driver/Src/stm32f4xx_hal_dma.c ****     hdma->State = HAL_DMA_STATE_READY;
 740:./Libraries/STM32F4xx_HAL_Driver/Src/stm32f4xx_hal_dma.c ****   }
 741:./Libraries/STM32F4xx_HAL_Driver/Src/stm32f4xx_hal_dma.c ****   else
 742:./Libraries/STM32F4xx_HAL_Driver/Src/stm32f4xx_hal_dma.c ****   {
 743:./Libraries/STM32F4xx_HAL_Driver/Src/stm32f4xx_hal_dma.c ****     /* Clear the half transfer and transfer complete flags */
 744:./Libraries/STM32F4xx_HAL_Driver/Src/stm32f4xx_hal_dma.c ****     regs->IFCR = (DMA_FLAG_HTIF0_4) << hdma->StreamIndex;
 745:./Libraries/STM32F4xx_HAL_Driver/Src/stm32f4xx_hal_dma.c ****   }
 746:./Libraries/STM32F4xx_HAL_Driver/Src/stm32f4xx_hal_dma.c ****   
 747:./Libraries/STM32F4xx_HAL_Driver/Src/stm32f4xx_hal_dma.c ****   return status;
 748:./Libraries/STM32F4xx_HAL_Driver/Src/stm32f4xx_hal_dma.c **** }
 749:./Libraries/STM32F4xx_HAL_Driver/Src/stm32f4xx_hal_dma.c **** 
 750:./Libraries/STM32F4xx_HAL_Driver/Src/stm32f4xx_hal_dma.c **** /**
 751:./Libraries/STM32F4xx_HAL_Driver/Src/stm32f4xx_hal_dma.c ****   * @brief  Handles DMA interrupt request.
 752:./Libraries/STM32F4xx_HAL_Driver/Src/stm32f4xx_hal_dma.c ****   * @param  hdma pointer to a DMA_HandleTypeDef structure that contains
 753:./Libraries/STM32F4xx_HAL_Driver/Src/stm32f4xx_hal_dma.c ****   *               the configuration information for the specified DMA Stream.  
 754:./Libraries/STM32F4xx_HAL_Driver/Src/stm32f4xx_hal_dma.c ****   * @retval None
 755:./Libraries/STM32F4xx_HAL_Driver/Src/stm32f4xx_hal_dma.c ****   */
 756:./Libraries/STM32F4xx_HAL_Driver/Src/stm32f4xx_hal_dma.c **** void HAL_DMA_IRQHandler(DMA_HandleTypeDef *hdma)
 757:./Libraries/STM32F4xx_HAL_Driver/Src/stm32f4xx_hal_dma.c **** {
 758:./Libraries/STM32F4xx_HAL_Driver/Src/stm32f4xx_hal_dma.c ****   uint32_t tmpisr;
 759:./Libraries/STM32F4xx_HAL_Driver/Src/stm32f4xx_hal_dma.c ****   __IO uint32_t count = 0U;
 760:./Libraries/STM32F4xx_HAL_Driver/Src/stm32f4xx_hal_dma.c ****   uint32_t timeout = SystemCoreClock / 9600U;
 761:./Libraries/STM32F4xx_HAL_Driver/Src/stm32f4xx_hal_dma.c **** 
 762:./Libraries/STM32F4xx_HAL_Driver/Src/stm32f4xx_hal_dma.c ****   /* calculate DMA base and stream number */
 763:./Libraries/STM32F4xx_HAL_Driver/Src/stm32f4xx_hal_dma.c ****   DMA_Base_Registers *regs = (DMA_Base_Registers *)hdma->StreamBaseAddress;
 764:./Libraries/STM32F4xx_HAL_Driver/Src/stm32f4xx_hal_dma.c **** 
 765:./Libraries/STM32F4xx_HAL_Driver/Src/stm32f4xx_hal_dma.c ****   tmpisr = regs->ISR;
 766:./Libraries/STM32F4xx_HAL_Driver/Src/stm32f4xx_hal_dma.c **** 
 767:./Libraries/STM32F4xx_HAL_Driver/Src/stm32f4xx_hal_dma.c ****   /* Transfer Error Interrupt management ***************************************/
 768:./Libraries/STM32F4xx_HAL_Driver/Src/stm32f4xx_hal_dma.c ****   if ((tmpisr & (DMA_FLAG_TEIF0_4 << hdma->StreamIndex)) != RESET)
 769:./Libraries/STM32F4xx_HAL_Driver/Src/stm32f4xx_hal_dma.c ****   {
 770:./Libraries/STM32F4xx_HAL_Driver/Src/stm32f4xx_hal_dma.c ****     if(__HAL_DMA_GET_IT_SOURCE(hdma, DMA_IT_TE) != RESET)
 771:./Libraries/STM32F4xx_HAL_Driver/Src/stm32f4xx_hal_dma.c ****     {
ARM GAS  /tmp/cc0WhI97.s 			page 15


 772:./Libraries/STM32F4xx_HAL_Driver/Src/stm32f4xx_hal_dma.c ****       /* Disable the transfer error interrupt */
 773:./Libraries/STM32F4xx_HAL_Driver/Src/stm32f4xx_hal_dma.c ****       hdma->Instance->CR  &= ~(DMA_IT_TE);
 774:./Libraries/STM32F4xx_HAL_Driver/Src/stm32f4xx_hal_dma.c ****       
 775:./Libraries/STM32F4xx_HAL_Driver/Src/stm32f4xx_hal_dma.c ****       /* Clear the transfer error flag */
 776:./Libraries/STM32F4xx_HAL_Driver/Src/stm32f4xx_hal_dma.c ****       regs->IFCR = DMA_FLAG_TEIF0_4 << hdma->StreamIndex;
 777:./Libraries/STM32F4xx_HAL_Driver/Src/stm32f4xx_hal_dma.c ****       
 778:./Libraries/STM32F4xx_HAL_Driver/Src/stm32f4xx_hal_dma.c ****       /* Update error code */
 779:./Libraries/STM32F4xx_HAL_Driver/Src/stm32f4xx_hal_dma.c ****       hdma->ErrorCode |= HAL_DMA_ERROR_TE;
 780:./Libraries/STM32F4xx_HAL_Driver/Src/stm32f4xx_hal_dma.c ****     }
 781:./Libraries/STM32F4xx_HAL_Driver/Src/stm32f4xx_hal_dma.c ****   }
 782:./Libraries/STM32F4xx_HAL_Driver/Src/stm32f4xx_hal_dma.c ****   /* FIFO Error Interrupt management ******************************************/
 783:./Libraries/STM32F4xx_HAL_Driver/Src/stm32f4xx_hal_dma.c ****   if ((tmpisr & (DMA_FLAG_FEIF0_4 << hdma->StreamIndex)) != RESET)
 784:./Libraries/STM32F4xx_HAL_Driver/Src/stm32f4xx_hal_dma.c ****   {
 785:./Libraries/STM32F4xx_HAL_Driver/Src/stm32f4xx_hal_dma.c ****     if(__HAL_DMA_GET_IT_SOURCE(hdma, DMA_IT_FE) != RESET)
 786:./Libraries/STM32F4xx_HAL_Driver/Src/stm32f4xx_hal_dma.c ****     {
 787:./Libraries/STM32F4xx_HAL_Driver/Src/stm32f4xx_hal_dma.c ****       /* Clear the FIFO error flag */
 788:./Libraries/STM32F4xx_HAL_Driver/Src/stm32f4xx_hal_dma.c ****       regs->IFCR = DMA_FLAG_FEIF0_4 << hdma->StreamIndex;
 789:./Libraries/STM32F4xx_HAL_Driver/Src/stm32f4xx_hal_dma.c **** 
 790:./Libraries/STM32F4xx_HAL_Driver/Src/stm32f4xx_hal_dma.c ****       /* Update error code */
 791:./Libraries/STM32F4xx_HAL_Driver/Src/stm32f4xx_hal_dma.c ****       hdma->ErrorCode |= HAL_DMA_ERROR_FE;
 792:./Libraries/STM32F4xx_HAL_Driver/Src/stm32f4xx_hal_dma.c ****     }
 793:./Libraries/STM32F4xx_HAL_Driver/Src/stm32f4xx_hal_dma.c ****   }
 794:./Libraries/STM32F4xx_HAL_Driver/Src/stm32f4xx_hal_dma.c ****   /* Direct Mode Error Interrupt management ***********************************/
 795:./Libraries/STM32F4xx_HAL_Driver/Src/stm32f4xx_hal_dma.c ****   if ((tmpisr & (DMA_FLAG_DMEIF0_4 << hdma->StreamIndex)) != RESET)
 796:./Libraries/STM32F4xx_HAL_Driver/Src/stm32f4xx_hal_dma.c ****   {
 797:./Libraries/STM32F4xx_HAL_Driver/Src/stm32f4xx_hal_dma.c ****     if(__HAL_DMA_GET_IT_SOURCE(hdma, DMA_IT_DME) != RESET)
 798:./Libraries/STM32F4xx_HAL_Driver/Src/stm32f4xx_hal_dma.c ****     {
 799:./Libraries/STM32F4xx_HAL_Driver/Src/stm32f4xx_hal_dma.c ****       /* Clear the direct mode error flag */
 800:./Libraries/STM32F4xx_HAL_Driver/Src/stm32f4xx_hal_dma.c ****       regs->IFCR = DMA_FLAG_DMEIF0_4 << hdma->StreamIndex;
 801:./Libraries/STM32F4xx_HAL_Driver/Src/stm32f4xx_hal_dma.c **** 
 802:./Libraries/STM32F4xx_HAL_Driver/Src/stm32f4xx_hal_dma.c ****       /* Update error code */
 803:./Libraries/STM32F4xx_HAL_Driver/Src/stm32f4xx_hal_dma.c ****       hdma->ErrorCode |= HAL_DMA_ERROR_DME;
 804:./Libraries/STM32F4xx_HAL_Driver/Src/stm32f4xx_hal_dma.c ****     }
 805:./Libraries/STM32F4xx_HAL_Driver/Src/stm32f4xx_hal_dma.c ****   }
 806:./Libraries/STM32F4xx_HAL_Driver/Src/stm32f4xx_hal_dma.c ****   /* Half Transfer Complete Interrupt management ******************************/
 807:./Libraries/STM32F4xx_HAL_Driver/Src/stm32f4xx_hal_dma.c ****   if ((tmpisr & (DMA_FLAG_HTIF0_4 << hdma->StreamIndex)) != RESET)
 808:./Libraries/STM32F4xx_HAL_Driver/Src/stm32f4xx_hal_dma.c ****   {
 809:./Libraries/STM32F4xx_HAL_Driver/Src/stm32f4xx_hal_dma.c ****     if(__HAL_DMA_GET_IT_SOURCE(hdma, DMA_IT_HT) != RESET)
 810:./Libraries/STM32F4xx_HAL_Driver/Src/stm32f4xx_hal_dma.c ****     {
 811:./Libraries/STM32F4xx_HAL_Driver/Src/stm32f4xx_hal_dma.c ****       /* Clear the half transfer complete flag */
 812:./Libraries/STM32F4xx_HAL_Driver/Src/stm32f4xx_hal_dma.c ****       regs->IFCR = DMA_FLAG_HTIF0_4 << hdma->StreamIndex;
 813:./Libraries/STM32F4xx_HAL_Driver/Src/stm32f4xx_hal_dma.c ****       
 814:./Libraries/STM32F4xx_HAL_Driver/Src/stm32f4xx_hal_dma.c ****       /* Multi_Buffering mode enabled */
 815:./Libraries/STM32F4xx_HAL_Driver/Src/stm32f4xx_hal_dma.c ****       if(((hdma->Instance->CR) & (uint32_t)(DMA_SxCR_DBM)) != RESET)
 816:./Libraries/STM32F4xx_HAL_Driver/Src/stm32f4xx_hal_dma.c ****       {
 817:./Libraries/STM32F4xx_HAL_Driver/Src/stm32f4xx_hal_dma.c ****         /* Current memory buffer used is Memory 0 */
 818:./Libraries/STM32F4xx_HAL_Driver/Src/stm32f4xx_hal_dma.c ****         if((hdma->Instance->CR & DMA_SxCR_CT) == RESET)
 819:./Libraries/STM32F4xx_HAL_Driver/Src/stm32f4xx_hal_dma.c ****         {
 820:./Libraries/STM32F4xx_HAL_Driver/Src/stm32f4xx_hal_dma.c ****           if(hdma->XferHalfCpltCallback != NULL)
 821:./Libraries/STM32F4xx_HAL_Driver/Src/stm32f4xx_hal_dma.c ****           {
 822:./Libraries/STM32F4xx_HAL_Driver/Src/stm32f4xx_hal_dma.c ****             /* Half transfer callback */
 823:./Libraries/STM32F4xx_HAL_Driver/Src/stm32f4xx_hal_dma.c ****             hdma->XferHalfCpltCallback(hdma);
 824:./Libraries/STM32F4xx_HAL_Driver/Src/stm32f4xx_hal_dma.c ****           }
 825:./Libraries/STM32F4xx_HAL_Driver/Src/stm32f4xx_hal_dma.c ****         }
 826:./Libraries/STM32F4xx_HAL_Driver/Src/stm32f4xx_hal_dma.c ****         /* Current memory buffer used is Memory 1 */
 827:./Libraries/STM32F4xx_HAL_Driver/Src/stm32f4xx_hal_dma.c ****         else
 828:./Libraries/STM32F4xx_HAL_Driver/Src/stm32f4xx_hal_dma.c ****         {
ARM GAS  /tmp/cc0WhI97.s 			page 16


 829:./Libraries/STM32F4xx_HAL_Driver/Src/stm32f4xx_hal_dma.c ****           if(hdma->XferM1HalfCpltCallback != NULL)
 830:./Libraries/STM32F4xx_HAL_Driver/Src/stm32f4xx_hal_dma.c ****           {
 831:./Libraries/STM32F4xx_HAL_Driver/Src/stm32f4xx_hal_dma.c ****             /* Half transfer callback */
 832:./Libraries/STM32F4xx_HAL_Driver/Src/stm32f4xx_hal_dma.c ****             hdma->XferM1HalfCpltCallback(hdma);
 833:./Libraries/STM32F4xx_HAL_Driver/Src/stm32f4xx_hal_dma.c ****           }
 834:./Libraries/STM32F4xx_HAL_Driver/Src/stm32f4xx_hal_dma.c ****         }
 835:./Libraries/STM32F4xx_HAL_Driver/Src/stm32f4xx_hal_dma.c ****       }
 836:./Libraries/STM32F4xx_HAL_Driver/Src/stm32f4xx_hal_dma.c ****       else
 837:./Libraries/STM32F4xx_HAL_Driver/Src/stm32f4xx_hal_dma.c ****       {
 838:./Libraries/STM32F4xx_HAL_Driver/Src/stm32f4xx_hal_dma.c ****         /* Disable the half transfer interrupt if the DMA mode is not CIRCULAR */
 839:./Libraries/STM32F4xx_HAL_Driver/Src/stm32f4xx_hal_dma.c ****         if((hdma->Instance->CR & DMA_SxCR_CIRC) == RESET)
 840:./Libraries/STM32F4xx_HAL_Driver/Src/stm32f4xx_hal_dma.c ****         {
 841:./Libraries/STM32F4xx_HAL_Driver/Src/stm32f4xx_hal_dma.c ****           /* Disable the half transfer interrupt */
 842:./Libraries/STM32F4xx_HAL_Driver/Src/stm32f4xx_hal_dma.c ****           hdma->Instance->CR  &= ~(DMA_IT_HT);
 843:./Libraries/STM32F4xx_HAL_Driver/Src/stm32f4xx_hal_dma.c ****         }
 844:./Libraries/STM32F4xx_HAL_Driver/Src/stm32f4xx_hal_dma.c ****         
 845:./Libraries/STM32F4xx_HAL_Driver/Src/stm32f4xx_hal_dma.c ****         if(hdma->XferHalfCpltCallback != NULL)
 846:./Libraries/STM32F4xx_HAL_Driver/Src/stm32f4xx_hal_dma.c ****         {
 847:./Libraries/STM32F4xx_HAL_Driver/Src/stm32f4xx_hal_dma.c ****           /* Half transfer callback */
 848:./Libraries/STM32F4xx_HAL_Driver/Src/stm32f4xx_hal_dma.c ****           hdma->XferHalfCpltCallback(hdma);
 849:./Libraries/STM32F4xx_HAL_Driver/Src/stm32f4xx_hal_dma.c ****         }
 850:./Libraries/STM32F4xx_HAL_Driver/Src/stm32f4xx_hal_dma.c ****       }
 851:./Libraries/STM32F4xx_HAL_Driver/Src/stm32f4xx_hal_dma.c ****     }
 852:./Libraries/STM32F4xx_HAL_Driver/Src/stm32f4xx_hal_dma.c ****   }
 853:./Libraries/STM32F4xx_HAL_Driver/Src/stm32f4xx_hal_dma.c ****   /* Transfer Complete Interrupt management ***********************************/
 854:./Libraries/STM32F4xx_HAL_Driver/Src/stm32f4xx_hal_dma.c ****   if ((tmpisr & (DMA_FLAG_TCIF0_4 << hdma->StreamIndex)) != RESET)
 855:./Libraries/STM32F4xx_HAL_Driver/Src/stm32f4xx_hal_dma.c ****   {
 856:./Libraries/STM32F4xx_HAL_Driver/Src/stm32f4xx_hal_dma.c ****     if(__HAL_DMA_GET_IT_SOURCE(hdma, DMA_IT_TC) != RESET)
 857:./Libraries/STM32F4xx_HAL_Driver/Src/stm32f4xx_hal_dma.c ****     {
 858:./Libraries/STM32F4xx_HAL_Driver/Src/stm32f4xx_hal_dma.c ****       /* Clear the transfer complete flag */
 859:./Libraries/STM32F4xx_HAL_Driver/Src/stm32f4xx_hal_dma.c ****       regs->IFCR = DMA_FLAG_TCIF0_4 << hdma->StreamIndex;
 860:./Libraries/STM32F4xx_HAL_Driver/Src/stm32f4xx_hal_dma.c ****       
 861:./Libraries/STM32F4xx_HAL_Driver/Src/stm32f4xx_hal_dma.c ****       if(HAL_DMA_STATE_ABORT == hdma->State)
 862:./Libraries/STM32F4xx_HAL_Driver/Src/stm32f4xx_hal_dma.c ****       {
 863:./Libraries/STM32F4xx_HAL_Driver/Src/stm32f4xx_hal_dma.c ****         /* Disable all the transfer interrupts */
 864:./Libraries/STM32F4xx_HAL_Driver/Src/stm32f4xx_hal_dma.c ****         hdma->Instance->CR  &= ~(DMA_IT_TC | DMA_IT_TE | DMA_IT_DME);
 865:./Libraries/STM32F4xx_HAL_Driver/Src/stm32f4xx_hal_dma.c ****         hdma->Instance->FCR &= ~(DMA_IT_FE);
 866:./Libraries/STM32F4xx_HAL_Driver/Src/stm32f4xx_hal_dma.c ****         
 867:./Libraries/STM32F4xx_HAL_Driver/Src/stm32f4xx_hal_dma.c ****         if((hdma->XferHalfCpltCallback != NULL) || (hdma->XferM1HalfCpltCallback != NULL))
 868:./Libraries/STM32F4xx_HAL_Driver/Src/stm32f4xx_hal_dma.c ****         {
 869:./Libraries/STM32F4xx_HAL_Driver/Src/stm32f4xx_hal_dma.c ****           hdma->Instance->CR  &= ~(DMA_IT_HT);
 870:./Libraries/STM32F4xx_HAL_Driver/Src/stm32f4xx_hal_dma.c ****         }
 871:./Libraries/STM32F4xx_HAL_Driver/Src/stm32f4xx_hal_dma.c **** 
 872:./Libraries/STM32F4xx_HAL_Driver/Src/stm32f4xx_hal_dma.c ****         /* Clear all interrupt flags at correct offset within the register */
 873:./Libraries/STM32F4xx_HAL_Driver/Src/stm32f4xx_hal_dma.c ****         regs->IFCR = 0x3FU << hdma->StreamIndex;
 874:./Libraries/STM32F4xx_HAL_Driver/Src/stm32f4xx_hal_dma.c **** 
 875:./Libraries/STM32F4xx_HAL_Driver/Src/stm32f4xx_hal_dma.c ****         /* Process Unlocked */
 876:./Libraries/STM32F4xx_HAL_Driver/Src/stm32f4xx_hal_dma.c ****         __HAL_UNLOCK(hdma);
 877:./Libraries/STM32F4xx_HAL_Driver/Src/stm32f4xx_hal_dma.c **** 
 878:./Libraries/STM32F4xx_HAL_Driver/Src/stm32f4xx_hal_dma.c ****         /* Change the DMA state */
 879:./Libraries/STM32F4xx_HAL_Driver/Src/stm32f4xx_hal_dma.c ****         hdma->State = HAL_DMA_STATE_READY;
 880:./Libraries/STM32F4xx_HAL_Driver/Src/stm32f4xx_hal_dma.c **** 
 881:./Libraries/STM32F4xx_HAL_Driver/Src/stm32f4xx_hal_dma.c ****         if(hdma->XferAbortCallback != NULL)
 882:./Libraries/STM32F4xx_HAL_Driver/Src/stm32f4xx_hal_dma.c ****         {
 883:./Libraries/STM32F4xx_HAL_Driver/Src/stm32f4xx_hal_dma.c ****           hdma->XferAbortCallback(hdma);
 884:./Libraries/STM32F4xx_HAL_Driver/Src/stm32f4xx_hal_dma.c ****         }
 885:./Libraries/STM32F4xx_HAL_Driver/Src/stm32f4xx_hal_dma.c ****         return;
ARM GAS  /tmp/cc0WhI97.s 			page 17


 886:./Libraries/STM32F4xx_HAL_Driver/Src/stm32f4xx_hal_dma.c ****       }
 887:./Libraries/STM32F4xx_HAL_Driver/Src/stm32f4xx_hal_dma.c **** 
 888:./Libraries/STM32F4xx_HAL_Driver/Src/stm32f4xx_hal_dma.c ****       if(((hdma->Instance->CR) & (uint32_t)(DMA_SxCR_DBM)) != RESET)
 889:./Libraries/STM32F4xx_HAL_Driver/Src/stm32f4xx_hal_dma.c ****       {
 890:./Libraries/STM32F4xx_HAL_Driver/Src/stm32f4xx_hal_dma.c ****         /* Current memory buffer used is Memory 0 */
 891:./Libraries/STM32F4xx_HAL_Driver/Src/stm32f4xx_hal_dma.c ****         if((hdma->Instance->CR & DMA_SxCR_CT) == RESET)
 892:./Libraries/STM32F4xx_HAL_Driver/Src/stm32f4xx_hal_dma.c ****         {
 893:./Libraries/STM32F4xx_HAL_Driver/Src/stm32f4xx_hal_dma.c ****           if(hdma->XferM1CpltCallback != NULL)
 894:./Libraries/STM32F4xx_HAL_Driver/Src/stm32f4xx_hal_dma.c ****           {
 895:./Libraries/STM32F4xx_HAL_Driver/Src/stm32f4xx_hal_dma.c ****             /* Transfer complete Callback for memory1 */
 896:./Libraries/STM32F4xx_HAL_Driver/Src/stm32f4xx_hal_dma.c ****             hdma->XferM1CpltCallback(hdma);
 897:./Libraries/STM32F4xx_HAL_Driver/Src/stm32f4xx_hal_dma.c ****           }
 898:./Libraries/STM32F4xx_HAL_Driver/Src/stm32f4xx_hal_dma.c ****         }
 899:./Libraries/STM32F4xx_HAL_Driver/Src/stm32f4xx_hal_dma.c ****         /* Current memory buffer used is Memory 1 */
 900:./Libraries/STM32F4xx_HAL_Driver/Src/stm32f4xx_hal_dma.c ****         else
 901:./Libraries/STM32F4xx_HAL_Driver/Src/stm32f4xx_hal_dma.c ****         {
 902:./Libraries/STM32F4xx_HAL_Driver/Src/stm32f4xx_hal_dma.c ****           if(hdma->XferCpltCallback != NULL)
 903:./Libraries/STM32F4xx_HAL_Driver/Src/stm32f4xx_hal_dma.c ****           {
 904:./Libraries/STM32F4xx_HAL_Driver/Src/stm32f4xx_hal_dma.c ****             /* Transfer complete Callback for memory0 */
 905:./Libraries/STM32F4xx_HAL_Driver/Src/stm32f4xx_hal_dma.c ****             hdma->XferCpltCallback(hdma);
 906:./Libraries/STM32F4xx_HAL_Driver/Src/stm32f4xx_hal_dma.c ****           }
 907:./Libraries/STM32F4xx_HAL_Driver/Src/stm32f4xx_hal_dma.c ****         }
 908:./Libraries/STM32F4xx_HAL_Driver/Src/stm32f4xx_hal_dma.c ****       }
 909:./Libraries/STM32F4xx_HAL_Driver/Src/stm32f4xx_hal_dma.c ****       /* Disable the transfer complete interrupt if the DMA mode is not CIRCULAR */
 910:./Libraries/STM32F4xx_HAL_Driver/Src/stm32f4xx_hal_dma.c ****       else
 911:./Libraries/STM32F4xx_HAL_Driver/Src/stm32f4xx_hal_dma.c ****       {
 912:./Libraries/STM32F4xx_HAL_Driver/Src/stm32f4xx_hal_dma.c ****         if((hdma->Instance->CR & DMA_SxCR_CIRC) == RESET)
 913:./Libraries/STM32F4xx_HAL_Driver/Src/stm32f4xx_hal_dma.c ****         {
 914:./Libraries/STM32F4xx_HAL_Driver/Src/stm32f4xx_hal_dma.c ****           /* Disable the transfer complete interrupt */
 915:./Libraries/STM32F4xx_HAL_Driver/Src/stm32f4xx_hal_dma.c ****           hdma->Instance->CR  &= ~(DMA_IT_TC);
 916:./Libraries/STM32F4xx_HAL_Driver/Src/stm32f4xx_hal_dma.c **** 
 917:./Libraries/STM32F4xx_HAL_Driver/Src/stm32f4xx_hal_dma.c ****           /* Process Unlocked */
 918:./Libraries/STM32F4xx_HAL_Driver/Src/stm32f4xx_hal_dma.c ****           __HAL_UNLOCK(hdma);
 919:./Libraries/STM32F4xx_HAL_Driver/Src/stm32f4xx_hal_dma.c **** 
 920:./Libraries/STM32F4xx_HAL_Driver/Src/stm32f4xx_hal_dma.c ****           /* Change the DMA state */
 921:./Libraries/STM32F4xx_HAL_Driver/Src/stm32f4xx_hal_dma.c ****           hdma->State = HAL_DMA_STATE_READY;
 922:./Libraries/STM32F4xx_HAL_Driver/Src/stm32f4xx_hal_dma.c ****         }
 923:./Libraries/STM32F4xx_HAL_Driver/Src/stm32f4xx_hal_dma.c **** 
 924:./Libraries/STM32F4xx_HAL_Driver/Src/stm32f4xx_hal_dma.c ****         if(hdma->XferCpltCallback != NULL)
 925:./Libraries/STM32F4xx_HAL_Driver/Src/stm32f4xx_hal_dma.c ****         {
 926:./Libraries/STM32F4xx_HAL_Driver/Src/stm32f4xx_hal_dma.c ****           /* Transfer complete callback */
 927:./Libraries/STM32F4xx_HAL_Driver/Src/stm32f4xx_hal_dma.c ****           hdma->XferCpltCallback(hdma);
 928:./Libraries/STM32F4xx_HAL_Driver/Src/stm32f4xx_hal_dma.c ****         }
 929:./Libraries/STM32F4xx_HAL_Driver/Src/stm32f4xx_hal_dma.c ****       }
 930:./Libraries/STM32F4xx_HAL_Driver/Src/stm32f4xx_hal_dma.c ****     }
 931:./Libraries/STM32F4xx_HAL_Driver/Src/stm32f4xx_hal_dma.c ****   }
 932:./Libraries/STM32F4xx_HAL_Driver/Src/stm32f4xx_hal_dma.c ****   
 933:./Libraries/STM32F4xx_HAL_Driver/Src/stm32f4xx_hal_dma.c ****   /* manage error case */
 934:./Libraries/STM32F4xx_HAL_Driver/Src/stm32f4xx_hal_dma.c ****   if(hdma->ErrorCode != HAL_DMA_ERROR_NONE)
 935:./Libraries/STM32F4xx_HAL_Driver/Src/stm32f4xx_hal_dma.c ****   {
 936:./Libraries/STM32F4xx_HAL_Driver/Src/stm32f4xx_hal_dma.c ****     if((hdma->ErrorCode & HAL_DMA_ERROR_TE) != RESET)
 937:./Libraries/STM32F4xx_HAL_Driver/Src/stm32f4xx_hal_dma.c ****     {
 938:./Libraries/STM32F4xx_HAL_Driver/Src/stm32f4xx_hal_dma.c ****       hdma->State = HAL_DMA_STATE_ABORT;
 939:./Libraries/STM32F4xx_HAL_Driver/Src/stm32f4xx_hal_dma.c **** 
 940:./Libraries/STM32F4xx_HAL_Driver/Src/stm32f4xx_hal_dma.c ****       /* Disable the stream */
 941:./Libraries/STM32F4xx_HAL_Driver/Src/stm32f4xx_hal_dma.c ****       __HAL_DMA_DISABLE(hdma);
 942:./Libraries/STM32F4xx_HAL_Driver/Src/stm32f4xx_hal_dma.c **** 
ARM GAS  /tmp/cc0WhI97.s 			page 18


 943:./Libraries/STM32F4xx_HAL_Driver/Src/stm32f4xx_hal_dma.c ****       do
 944:./Libraries/STM32F4xx_HAL_Driver/Src/stm32f4xx_hal_dma.c ****       {
 945:./Libraries/STM32F4xx_HAL_Driver/Src/stm32f4xx_hal_dma.c ****         if (++count > timeout)
 946:./Libraries/STM32F4xx_HAL_Driver/Src/stm32f4xx_hal_dma.c ****         {
 947:./Libraries/STM32F4xx_HAL_Driver/Src/stm32f4xx_hal_dma.c ****           break;
 948:./Libraries/STM32F4xx_HAL_Driver/Src/stm32f4xx_hal_dma.c ****         }
 949:./Libraries/STM32F4xx_HAL_Driver/Src/stm32f4xx_hal_dma.c ****       }
 950:./Libraries/STM32F4xx_HAL_Driver/Src/stm32f4xx_hal_dma.c ****       while((hdma->Instance->CR & DMA_SxCR_EN) != RESET);
 951:./Libraries/STM32F4xx_HAL_Driver/Src/stm32f4xx_hal_dma.c **** 
 952:./Libraries/STM32F4xx_HAL_Driver/Src/stm32f4xx_hal_dma.c ****       /* Process Unlocked */
 953:./Libraries/STM32F4xx_HAL_Driver/Src/stm32f4xx_hal_dma.c ****       __HAL_UNLOCK(hdma);
 954:./Libraries/STM32F4xx_HAL_Driver/Src/stm32f4xx_hal_dma.c **** 
 955:./Libraries/STM32F4xx_HAL_Driver/Src/stm32f4xx_hal_dma.c ****       /* Change the DMA state */
 956:./Libraries/STM32F4xx_HAL_Driver/Src/stm32f4xx_hal_dma.c ****       hdma->State = HAL_DMA_STATE_READY;
 957:./Libraries/STM32F4xx_HAL_Driver/Src/stm32f4xx_hal_dma.c ****     }
 958:./Libraries/STM32F4xx_HAL_Driver/Src/stm32f4xx_hal_dma.c **** 
 959:./Libraries/STM32F4xx_HAL_Driver/Src/stm32f4xx_hal_dma.c ****     if(hdma->XferErrorCallback != NULL)
 960:./Libraries/STM32F4xx_HAL_Driver/Src/stm32f4xx_hal_dma.c ****     {
 961:./Libraries/STM32F4xx_HAL_Driver/Src/stm32f4xx_hal_dma.c ****       /* Transfer error callback */
 962:./Libraries/STM32F4xx_HAL_Driver/Src/stm32f4xx_hal_dma.c ****       hdma->XferErrorCallback(hdma);
 963:./Libraries/STM32F4xx_HAL_Driver/Src/stm32f4xx_hal_dma.c ****     }
 964:./Libraries/STM32F4xx_HAL_Driver/Src/stm32f4xx_hal_dma.c ****   }
 965:./Libraries/STM32F4xx_HAL_Driver/Src/stm32f4xx_hal_dma.c **** }
 966:./Libraries/STM32F4xx_HAL_Driver/Src/stm32f4xx_hal_dma.c **** 
 967:./Libraries/STM32F4xx_HAL_Driver/Src/stm32f4xx_hal_dma.c **** /**
 968:./Libraries/STM32F4xx_HAL_Driver/Src/stm32f4xx_hal_dma.c ****   * @brief  Register callbacks
 969:./Libraries/STM32F4xx_HAL_Driver/Src/stm32f4xx_hal_dma.c ****   * @param  hdma                 pointer to a DMA_HandleTypeDef structure that contains
 970:./Libraries/STM32F4xx_HAL_Driver/Src/stm32f4xx_hal_dma.c ****   *                               the configuration information for the specified DMA Stream.
 971:./Libraries/STM32F4xx_HAL_Driver/Src/stm32f4xx_hal_dma.c ****   * @param  CallbackID           User Callback identifer
 972:./Libraries/STM32F4xx_HAL_Driver/Src/stm32f4xx_hal_dma.c ****   *                               a DMA_HandleTypeDef structure as parameter.
 973:./Libraries/STM32F4xx_HAL_Driver/Src/stm32f4xx_hal_dma.c ****   * @param  pCallback            pointer to private callbacsk function which has pointer to 
 974:./Libraries/STM32F4xx_HAL_Driver/Src/stm32f4xx_hal_dma.c ****   *                               a DMA_HandleTypeDef structure as parameter.
 975:./Libraries/STM32F4xx_HAL_Driver/Src/stm32f4xx_hal_dma.c ****   * @retval HAL status
 976:./Libraries/STM32F4xx_HAL_Driver/Src/stm32f4xx_hal_dma.c ****   */                      
 977:./Libraries/STM32F4xx_HAL_Driver/Src/stm32f4xx_hal_dma.c **** HAL_StatusTypeDef HAL_DMA_RegisterCallback(DMA_HandleTypeDef *hdma, HAL_DMA_CallbackIDTypeDef Callb
 978:./Libraries/STM32F4xx_HAL_Driver/Src/stm32f4xx_hal_dma.c **** {
 979:./Libraries/STM32F4xx_HAL_Driver/Src/stm32f4xx_hal_dma.c **** 
 980:./Libraries/STM32F4xx_HAL_Driver/Src/stm32f4xx_hal_dma.c ****   HAL_StatusTypeDef status = HAL_OK;
 981:./Libraries/STM32F4xx_HAL_Driver/Src/stm32f4xx_hal_dma.c **** 
 982:./Libraries/STM32F4xx_HAL_Driver/Src/stm32f4xx_hal_dma.c ****   /* Process locked */
 983:./Libraries/STM32F4xx_HAL_Driver/Src/stm32f4xx_hal_dma.c ****   __HAL_LOCK(hdma);
 984:./Libraries/STM32F4xx_HAL_Driver/Src/stm32f4xx_hal_dma.c **** 
 985:./Libraries/STM32F4xx_HAL_Driver/Src/stm32f4xx_hal_dma.c ****   if(HAL_DMA_STATE_READY == hdma->State)
 986:./Libraries/STM32F4xx_HAL_Driver/Src/stm32f4xx_hal_dma.c ****   {
 987:./Libraries/STM32F4xx_HAL_Driver/Src/stm32f4xx_hal_dma.c ****     switch (CallbackID)
 988:./Libraries/STM32F4xx_HAL_Driver/Src/stm32f4xx_hal_dma.c ****     {
 989:./Libraries/STM32F4xx_HAL_Driver/Src/stm32f4xx_hal_dma.c ****     case  HAL_DMA_XFER_CPLT_CB_ID:
 990:./Libraries/STM32F4xx_HAL_Driver/Src/stm32f4xx_hal_dma.c ****       hdma->XferCpltCallback = pCallback;
 991:./Libraries/STM32F4xx_HAL_Driver/Src/stm32f4xx_hal_dma.c ****       break;
 992:./Libraries/STM32F4xx_HAL_Driver/Src/stm32f4xx_hal_dma.c **** 
 993:./Libraries/STM32F4xx_HAL_Driver/Src/stm32f4xx_hal_dma.c ****     case  HAL_DMA_XFER_HALFCPLT_CB_ID:
 994:./Libraries/STM32F4xx_HAL_Driver/Src/stm32f4xx_hal_dma.c ****       hdma->XferHalfCpltCallback = pCallback;
 995:./Libraries/STM32F4xx_HAL_Driver/Src/stm32f4xx_hal_dma.c ****       break;
 996:./Libraries/STM32F4xx_HAL_Driver/Src/stm32f4xx_hal_dma.c **** 
 997:./Libraries/STM32F4xx_HAL_Driver/Src/stm32f4xx_hal_dma.c ****     case  HAL_DMA_XFER_M1CPLT_CB_ID:
 998:./Libraries/STM32F4xx_HAL_Driver/Src/stm32f4xx_hal_dma.c ****       hdma->XferM1CpltCallback = pCallback;
 999:./Libraries/STM32F4xx_HAL_Driver/Src/stm32f4xx_hal_dma.c ****       break;
ARM GAS  /tmp/cc0WhI97.s 			page 19


1000:./Libraries/STM32F4xx_HAL_Driver/Src/stm32f4xx_hal_dma.c **** 
1001:./Libraries/STM32F4xx_HAL_Driver/Src/stm32f4xx_hal_dma.c ****     case  HAL_DMA_XFER_M1HALFCPLT_CB_ID:
1002:./Libraries/STM32F4xx_HAL_Driver/Src/stm32f4xx_hal_dma.c ****       hdma->XferM1HalfCpltCallback = pCallback;
1003:./Libraries/STM32F4xx_HAL_Driver/Src/stm32f4xx_hal_dma.c ****       break;
1004:./Libraries/STM32F4xx_HAL_Driver/Src/stm32f4xx_hal_dma.c **** 
1005:./Libraries/STM32F4xx_HAL_Driver/Src/stm32f4xx_hal_dma.c ****     case  HAL_DMA_XFER_ERROR_CB_ID:
1006:./Libraries/STM32F4xx_HAL_Driver/Src/stm32f4xx_hal_dma.c ****       hdma->XferErrorCallback = pCallback;
1007:./Libraries/STM32F4xx_HAL_Driver/Src/stm32f4xx_hal_dma.c ****       break;
1008:./Libraries/STM32F4xx_HAL_Driver/Src/stm32f4xx_hal_dma.c **** 
1009:./Libraries/STM32F4xx_HAL_Driver/Src/stm32f4xx_hal_dma.c ****     case  HAL_DMA_XFER_ABORT_CB_ID:
1010:./Libraries/STM32F4xx_HAL_Driver/Src/stm32f4xx_hal_dma.c ****       hdma->XferAbortCallback = pCallback;
1011:./Libraries/STM32F4xx_HAL_Driver/Src/stm32f4xx_hal_dma.c ****       break;
1012:./Libraries/STM32F4xx_HAL_Driver/Src/stm32f4xx_hal_dma.c **** 
1013:./Libraries/STM32F4xx_HAL_Driver/Src/stm32f4xx_hal_dma.c ****     default:
1014:./Libraries/STM32F4xx_HAL_Driver/Src/stm32f4xx_hal_dma.c ****       break;
1015:./Libraries/STM32F4xx_HAL_Driver/Src/stm32f4xx_hal_dma.c ****     }
1016:./Libraries/STM32F4xx_HAL_Driver/Src/stm32f4xx_hal_dma.c ****   }
1017:./Libraries/STM32F4xx_HAL_Driver/Src/stm32f4xx_hal_dma.c ****   else
1018:./Libraries/STM32F4xx_HAL_Driver/Src/stm32f4xx_hal_dma.c ****   {
1019:./Libraries/STM32F4xx_HAL_Driver/Src/stm32f4xx_hal_dma.c ****     /* Return error status */
1020:./Libraries/STM32F4xx_HAL_Driver/Src/stm32f4xx_hal_dma.c ****     status =  HAL_ERROR;
1021:./Libraries/STM32F4xx_HAL_Driver/Src/stm32f4xx_hal_dma.c ****   }
1022:./Libraries/STM32F4xx_HAL_Driver/Src/stm32f4xx_hal_dma.c **** 
1023:./Libraries/STM32F4xx_HAL_Driver/Src/stm32f4xx_hal_dma.c ****   /* Release Lock */
1024:./Libraries/STM32F4xx_HAL_Driver/Src/stm32f4xx_hal_dma.c ****   __HAL_UNLOCK(hdma);
1025:./Libraries/STM32F4xx_HAL_Driver/Src/stm32f4xx_hal_dma.c ****   
1026:./Libraries/STM32F4xx_HAL_Driver/Src/stm32f4xx_hal_dma.c ****   return status;
1027:./Libraries/STM32F4xx_HAL_Driver/Src/stm32f4xx_hal_dma.c **** }
1028:./Libraries/STM32F4xx_HAL_Driver/Src/stm32f4xx_hal_dma.c **** 
1029:./Libraries/STM32F4xx_HAL_Driver/Src/stm32f4xx_hal_dma.c **** /**
1030:./Libraries/STM32F4xx_HAL_Driver/Src/stm32f4xx_hal_dma.c ****   * @brief  UnRegister callbacks
1031:./Libraries/STM32F4xx_HAL_Driver/Src/stm32f4xx_hal_dma.c ****   * @param  hdma                 pointer to a DMA_HandleTypeDef structure that contains
1032:./Libraries/STM32F4xx_HAL_Driver/Src/stm32f4xx_hal_dma.c ****   *                               the configuration information for the specified DMA Stream.
1033:./Libraries/STM32F4xx_HAL_Driver/Src/stm32f4xx_hal_dma.c ****   * @param  CallbackID           User Callback identifer
1034:./Libraries/STM32F4xx_HAL_Driver/Src/stm32f4xx_hal_dma.c ****   *                               a HAL_DMA_CallbackIDTypeDef ENUM as parameter.
1035:./Libraries/STM32F4xx_HAL_Driver/Src/stm32f4xx_hal_dma.c ****   * @retval HAL status
1036:./Libraries/STM32F4xx_HAL_Driver/Src/stm32f4xx_hal_dma.c ****   */              
1037:./Libraries/STM32F4xx_HAL_Driver/Src/stm32f4xx_hal_dma.c **** HAL_StatusTypeDef HAL_DMA_UnRegisterCallback(DMA_HandleTypeDef *hdma, HAL_DMA_CallbackIDTypeDef Cal
1038:./Libraries/STM32F4xx_HAL_Driver/Src/stm32f4xx_hal_dma.c **** {
1039:./Libraries/STM32F4xx_HAL_Driver/Src/stm32f4xx_hal_dma.c ****   HAL_StatusTypeDef status = HAL_OK;
1040:./Libraries/STM32F4xx_HAL_Driver/Src/stm32f4xx_hal_dma.c ****   
1041:./Libraries/STM32F4xx_HAL_Driver/Src/stm32f4xx_hal_dma.c ****   /* Process locked */
1042:./Libraries/STM32F4xx_HAL_Driver/Src/stm32f4xx_hal_dma.c ****   __HAL_LOCK(hdma);
1043:./Libraries/STM32F4xx_HAL_Driver/Src/stm32f4xx_hal_dma.c ****   
1044:./Libraries/STM32F4xx_HAL_Driver/Src/stm32f4xx_hal_dma.c ****   if(HAL_DMA_STATE_READY == hdma->State)
1045:./Libraries/STM32F4xx_HAL_Driver/Src/stm32f4xx_hal_dma.c ****   {
1046:./Libraries/STM32F4xx_HAL_Driver/Src/stm32f4xx_hal_dma.c ****     switch (CallbackID)
1047:./Libraries/STM32F4xx_HAL_Driver/Src/stm32f4xx_hal_dma.c ****     {
1048:./Libraries/STM32F4xx_HAL_Driver/Src/stm32f4xx_hal_dma.c ****     case  HAL_DMA_XFER_CPLT_CB_ID:
1049:./Libraries/STM32F4xx_HAL_Driver/Src/stm32f4xx_hal_dma.c ****       hdma->XferCpltCallback = NULL;
1050:./Libraries/STM32F4xx_HAL_Driver/Src/stm32f4xx_hal_dma.c ****       break;
1051:./Libraries/STM32F4xx_HAL_Driver/Src/stm32f4xx_hal_dma.c ****       
1052:./Libraries/STM32F4xx_HAL_Driver/Src/stm32f4xx_hal_dma.c ****     case  HAL_DMA_XFER_HALFCPLT_CB_ID:
1053:./Libraries/STM32F4xx_HAL_Driver/Src/stm32f4xx_hal_dma.c ****       hdma->XferHalfCpltCallback = NULL;
1054:./Libraries/STM32F4xx_HAL_Driver/Src/stm32f4xx_hal_dma.c ****       break;
1055:./Libraries/STM32F4xx_HAL_Driver/Src/stm32f4xx_hal_dma.c ****       
1056:./Libraries/STM32F4xx_HAL_Driver/Src/stm32f4xx_hal_dma.c ****     case  HAL_DMA_XFER_M1CPLT_CB_ID:
ARM GAS  /tmp/cc0WhI97.s 			page 20


1057:./Libraries/STM32F4xx_HAL_Driver/Src/stm32f4xx_hal_dma.c ****       hdma->XferM1CpltCallback = NULL;
1058:./Libraries/STM32F4xx_HAL_Driver/Src/stm32f4xx_hal_dma.c ****       break;
1059:./Libraries/STM32F4xx_HAL_Driver/Src/stm32f4xx_hal_dma.c ****       
1060:./Libraries/STM32F4xx_HAL_Driver/Src/stm32f4xx_hal_dma.c ****     case  HAL_DMA_XFER_M1HALFCPLT_CB_ID:
1061:./Libraries/STM32F4xx_HAL_Driver/Src/stm32f4xx_hal_dma.c ****       hdma->XferM1HalfCpltCallback = NULL;
1062:./Libraries/STM32F4xx_HAL_Driver/Src/stm32f4xx_hal_dma.c ****       break;
1063:./Libraries/STM32F4xx_HAL_Driver/Src/stm32f4xx_hal_dma.c ****       
1064:./Libraries/STM32F4xx_HAL_Driver/Src/stm32f4xx_hal_dma.c ****     case  HAL_DMA_XFER_ERROR_CB_ID:
1065:./Libraries/STM32F4xx_HAL_Driver/Src/stm32f4xx_hal_dma.c ****       hdma->XferErrorCallback = NULL;
1066:./Libraries/STM32F4xx_HAL_Driver/Src/stm32f4xx_hal_dma.c ****       break;
1067:./Libraries/STM32F4xx_HAL_Driver/Src/stm32f4xx_hal_dma.c ****       
1068:./Libraries/STM32F4xx_HAL_Driver/Src/stm32f4xx_hal_dma.c ****     case  HAL_DMA_XFER_ABORT_CB_ID:
1069:./Libraries/STM32F4xx_HAL_Driver/Src/stm32f4xx_hal_dma.c ****       hdma->XferAbortCallback = NULL;
1070:./Libraries/STM32F4xx_HAL_Driver/Src/stm32f4xx_hal_dma.c ****       break; 
1071:./Libraries/STM32F4xx_HAL_Driver/Src/stm32f4xx_hal_dma.c ****       
1072:./Libraries/STM32F4xx_HAL_Driver/Src/stm32f4xx_hal_dma.c ****     case   HAL_DMA_XFER_ALL_CB_ID:
1073:./Libraries/STM32F4xx_HAL_Driver/Src/stm32f4xx_hal_dma.c ****       hdma->XferCpltCallback = NULL;
1074:./Libraries/STM32F4xx_HAL_Driver/Src/stm32f4xx_hal_dma.c ****       hdma->XferHalfCpltCallback = NULL;
1075:./Libraries/STM32F4xx_HAL_Driver/Src/stm32f4xx_hal_dma.c ****       hdma->XferM1CpltCallback = NULL;
1076:./Libraries/STM32F4xx_HAL_Driver/Src/stm32f4xx_hal_dma.c ****       hdma->XferM1HalfCpltCallback = NULL;
1077:./Libraries/STM32F4xx_HAL_Driver/Src/stm32f4xx_hal_dma.c ****       hdma->XferErrorCallback = NULL;
1078:./Libraries/STM32F4xx_HAL_Driver/Src/stm32f4xx_hal_dma.c ****       hdma->XferAbortCallback = NULL;
1079:./Libraries/STM32F4xx_HAL_Driver/Src/stm32f4xx_hal_dma.c ****       break; 
1080:./Libraries/STM32F4xx_HAL_Driver/Src/stm32f4xx_hal_dma.c ****       
1081:./Libraries/STM32F4xx_HAL_Driver/Src/stm32f4xx_hal_dma.c ****     default:
1082:./Libraries/STM32F4xx_HAL_Driver/Src/stm32f4xx_hal_dma.c ****       status = HAL_ERROR;
1083:./Libraries/STM32F4xx_HAL_Driver/Src/stm32f4xx_hal_dma.c ****       break;
1084:./Libraries/STM32F4xx_HAL_Driver/Src/stm32f4xx_hal_dma.c ****     }
1085:./Libraries/STM32F4xx_HAL_Driver/Src/stm32f4xx_hal_dma.c ****   }
1086:./Libraries/STM32F4xx_HAL_Driver/Src/stm32f4xx_hal_dma.c ****   else
1087:./Libraries/STM32F4xx_HAL_Driver/Src/stm32f4xx_hal_dma.c ****   {
1088:./Libraries/STM32F4xx_HAL_Driver/Src/stm32f4xx_hal_dma.c ****     status = HAL_ERROR;
1089:./Libraries/STM32F4xx_HAL_Driver/Src/stm32f4xx_hal_dma.c ****   }
1090:./Libraries/STM32F4xx_HAL_Driver/Src/stm32f4xx_hal_dma.c ****   
1091:./Libraries/STM32F4xx_HAL_Driver/Src/stm32f4xx_hal_dma.c ****   /* Release Lock */
1092:./Libraries/STM32F4xx_HAL_Driver/Src/stm32f4xx_hal_dma.c ****   __HAL_UNLOCK(hdma);
1093:./Libraries/STM32F4xx_HAL_Driver/Src/stm32f4xx_hal_dma.c ****   
1094:./Libraries/STM32F4xx_HAL_Driver/Src/stm32f4xx_hal_dma.c ****   return status;
1095:./Libraries/STM32F4xx_HAL_Driver/Src/stm32f4xx_hal_dma.c **** }
1096:./Libraries/STM32F4xx_HAL_Driver/Src/stm32f4xx_hal_dma.c **** 
1097:./Libraries/STM32F4xx_HAL_Driver/Src/stm32f4xx_hal_dma.c **** /**
1098:./Libraries/STM32F4xx_HAL_Driver/Src/stm32f4xx_hal_dma.c ****   * @}
1099:./Libraries/STM32F4xx_HAL_Driver/Src/stm32f4xx_hal_dma.c ****   */
1100:./Libraries/STM32F4xx_HAL_Driver/Src/stm32f4xx_hal_dma.c **** 
1101:./Libraries/STM32F4xx_HAL_Driver/Src/stm32f4xx_hal_dma.c **** /** @addtogroup DMA_Exported_Functions_Group3
1102:./Libraries/STM32F4xx_HAL_Driver/Src/stm32f4xx_hal_dma.c ****   *
1103:./Libraries/STM32F4xx_HAL_Driver/Src/stm32f4xx_hal_dma.c **** @verbatim
1104:./Libraries/STM32F4xx_HAL_Driver/Src/stm32f4xx_hal_dma.c ****  ===============================================================================
1105:./Libraries/STM32F4xx_HAL_Driver/Src/stm32f4xx_hal_dma.c ****                     ##### State and Errors functions #####
1106:./Libraries/STM32F4xx_HAL_Driver/Src/stm32f4xx_hal_dma.c ****  ===============================================================================
1107:./Libraries/STM32F4xx_HAL_Driver/Src/stm32f4xx_hal_dma.c ****     [..]
1108:./Libraries/STM32F4xx_HAL_Driver/Src/stm32f4xx_hal_dma.c ****     This subsection provides functions allowing to
1109:./Libraries/STM32F4xx_HAL_Driver/Src/stm32f4xx_hal_dma.c ****       (+) Check the DMA state
1110:./Libraries/STM32F4xx_HAL_Driver/Src/stm32f4xx_hal_dma.c ****       (+) Get error code
1111:./Libraries/STM32F4xx_HAL_Driver/Src/stm32f4xx_hal_dma.c **** 
1112:./Libraries/STM32F4xx_HAL_Driver/Src/stm32f4xx_hal_dma.c **** @endverbatim
1113:./Libraries/STM32F4xx_HAL_Driver/Src/stm32f4xx_hal_dma.c ****   * @{
ARM GAS  /tmp/cc0WhI97.s 			page 21


1114:./Libraries/STM32F4xx_HAL_Driver/Src/stm32f4xx_hal_dma.c ****   */
1115:./Libraries/STM32F4xx_HAL_Driver/Src/stm32f4xx_hal_dma.c **** 
1116:./Libraries/STM32F4xx_HAL_Driver/Src/stm32f4xx_hal_dma.c **** /**
1117:./Libraries/STM32F4xx_HAL_Driver/Src/stm32f4xx_hal_dma.c ****   * @brief  Returns the DMA state.
1118:./Libraries/STM32F4xx_HAL_Driver/Src/stm32f4xx_hal_dma.c ****   * @param  hdma pointer to a DMA_HandleTypeDef structure that contains
1119:./Libraries/STM32F4xx_HAL_Driver/Src/stm32f4xx_hal_dma.c ****   *               the configuration information for the specified DMA Stream.
1120:./Libraries/STM32F4xx_HAL_Driver/Src/stm32f4xx_hal_dma.c ****   * @retval HAL state
1121:./Libraries/STM32F4xx_HAL_Driver/Src/stm32f4xx_hal_dma.c ****   */
1122:./Libraries/STM32F4xx_HAL_Driver/Src/stm32f4xx_hal_dma.c **** HAL_DMA_StateTypeDef HAL_DMA_GetState(DMA_HandleTypeDef *hdma)
1123:./Libraries/STM32F4xx_HAL_Driver/Src/stm32f4xx_hal_dma.c **** {
1124:./Libraries/STM32F4xx_HAL_Driver/Src/stm32f4xx_hal_dma.c ****   return hdma->State;
1125:./Libraries/STM32F4xx_HAL_Driver/Src/stm32f4xx_hal_dma.c **** }
1126:./Libraries/STM32F4xx_HAL_Driver/Src/stm32f4xx_hal_dma.c **** 
1127:./Libraries/STM32F4xx_HAL_Driver/Src/stm32f4xx_hal_dma.c **** /**
1128:./Libraries/STM32F4xx_HAL_Driver/Src/stm32f4xx_hal_dma.c ****   * @brief  Return the DMA error code
1129:./Libraries/STM32F4xx_HAL_Driver/Src/stm32f4xx_hal_dma.c ****   * @param  hdma  pointer to a DMA_HandleTypeDef structure that contains
1130:./Libraries/STM32F4xx_HAL_Driver/Src/stm32f4xx_hal_dma.c ****   *              the configuration information for the specified DMA Stream.
1131:./Libraries/STM32F4xx_HAL_Driver/Src/stm32f4xx_hal_dma.c ****   * @retval DMA Error Code
1132:./Libraries/STM32F4xx_HAL_Driver/Src/stm32f4xx_hal_dma.c ****   */
1133:./Libraries/STM32F4xx_HAL_Driver/Src/stm32f4xx_hal_dma.c **** uint32_t HAL_DMA_GetError(DMA_HandleTypeDef *hdma)
1134:./Libraries/STM32F4xx_HAL_Driver/Src/stm32f4xx_hal_dma.c **** {
1135:./Libraries/STM32F4xx_HAL_Driver/Src/stm32f4xx_hal_dma.c ****   return hdma->ErrorCode;
1136:./Libraries/STM32F4xx_HAL_Driver/Src/stm32f4xx_hal_dma.c **** }
1137:./Libraries/STM32F4xx_HAL_Driver/Src/stm32f4xx_hal_dma.c **** 
1138:./Libraries/STM32F4xx_HAL_Driver/Src/stm32f4xx_hal_dma.c **** /**
1139:./Libraries/STM32F4xx_HAL_Driver/Src/stm32f4xx_hal_dma.c ****   * @}
1140:./Libraries/STM32F4xx_HAL_Driver/Src/stm32f4xx_hal_dma.c ****   */
1141:./Libraries/STM32F4xx_HAL_Driver/Src/stm32f4xx_hal_dma.c **** 
1142:./Libraries/STM32F4xx_HAL_Driver/Src/stm32f4xx_hal_dma.c **** /**
1143:./Libraries/STM32F4xx_HAL_Driver/Src/stm32f4xx_hal_dma.c ****   * @}
1144:./Libraries/STM32F4xx_HAL_Driver/Src/stm32f4xx_hal_dma.c ****   */
1145:./Libraries/STM32F4xx_HAL_Driver/Src/stm32f4xx_hal_dma.c **** 
1146:./Libraries/STM32F4xx_HAL_Driver/Src/stm32f4xx_hal_dma.c **** /** @addtogroup DMA_Private_Functions
1147:./Libraries/STM32F4xx_HAL_Driver/Src/stm32f4xx_hal_dma.c ****   * @{
1148:./Libraries/STM32F4xx_HAL_Driver/Src/stm32f4xx_hal_dma.c ****   */
1149:./Libraries/STM32F4xx_HAL_Driver/Src/stm32f4xx_hal_dma.c **** 
1150:./Libraries/STM32F4xx_HAL_Driver/Src/stm32f4xx_hal_dma.c **** /**
1151:./Libraries/STM32F4xx_HAL_Driver/Src/stm32f4xx_hal_dma.c ****   * @brief  Sets the DMA Transfer parameter.
1152:./Libraries/STM32F4xx_HAL_Driver/Src/stm32f4xx_hal_dma.c ****   * @param  hdma       pointer to a DMA_HandleTypeDef structure that contains
1153:./Libraries/STM32F4xx_HAL_Driver/Src/stm32f4xx_hal_dma.c ****   *                     the configuration information for the specified DMA Stream.
1154:./Libraries/STM32F4xx_HAL_Driver/Src/stm32f4xx_hal_dma.c ****   * @param  SrcAddress The source memory Buffer address
1155:./Libraries/STM32F4xx_HAL_Driver/Src/stm32f4xx_hal_dma.c ****   * @param  DstAddress The destination memory Buffer address
1156:./Libraries/STM32F4xx_HAL_Driver/Src/stm32f4xx_hal_dma.c ****   * @param  DataLength The length of data to be transferred from source to destination
1157:./Libraries/STM32F4xx_HAL_Driver/Src/stm32f4xx_hal_dma.c ****   * @retval HAL status
1158:./Libraries/STM32F4xx_HAL_Driver/Src/stm32f4xx_hal_dma.c ****   */
1159:./Libraries/STM32F4xx_HAL_Driver/Src/stm32f4xx_hal_dma.c **** static void DMA_SetConfig(DMA_HandleTypeDef *hdma, uint32_t SrcAddress, uint32_t DstAddress, uint32
1160:./Libraries/STM32F4xx_HAL_Driver/Src/stm32f4xx_hal_dma.c **** {
  29              		.loc 1 1160 1 view -0
  30              		.cfi_startproc
  31              		@ args = 0, pretend = 0, frame = 0
  32              		@ frame_needed = 0, uses_anonymous_args = 0
  33              		@ link register save eliminated.
  34              		.loc 1 1160 1 is_stmt 0 view .LVU1
  35 0000 30B4     		push	{r4, r5}
  36              	.LCFI0:
  37              		.cfi_def_cfa_offset 8
  38              		.cfi_offset 4, -8
ARM GAS  /tmp/cc0WhI97.s 			page 22


  39              		.cfi_offset 5, -4
1161:./Libraries/STM32F4xx_HAL_Driver/Src/stm32f4xx_hal_dma.c ****   /* Clear DBM bit */
1162:./Libraries/STM32F4xx_HAL_Driver/Src/stm32f4xx_hal_dma.c ****   hdma->Instance->CR &= (uint32_t)(~DMA_SxCR_DBM);
  40              		.loc 1 1162 3 is_stmt 1 view .LVU2
  41              		.loc 1 1162 7 is_stmt 0 view .LVU3
  42 0002 0568     		ldr	r5, [r0]
  43              		.loc 1 1162 22 view .LVU4
  44 0004 2C68     		ldr	r4, [r5]
  45 0006 24F48024 		bic	r4, r4, #262144
  46 000a 2C60     		str	r4, [r5]
1163:./Libraries/STM32F4xx_HAL_Driver/Src/stm32f4xx_hal_dma.c **** 
1164:./Libraries/STM32F4xx_HAL_Driver/Src/stm32f4xx_hal_dma.c ****   /* Configure DMA Stream data length */
1165:./Libraries/STM32F4xx_HAL_Driver/Src/stm32f4xx_hal_dma.c ****   hdma->Instance->NDTR = DataLength;
  47              		.loc 1 1165 3 is_stmt 1 view .LVU5
  48              		.loc 1 1165 7 is_stmt 0 view .LVU6
  49 000c 0468     		ldr	r4, [r0]
  50              		.loc 1 1165 24 view .LVU7
  51 000e 6360     		str	r3, [r4, #4]
1166:./Libraries/STM32F4xx_HAL_Driver/Src/stm32f4xx_hal_dma.c **** 
1167:./Libraries/STM32F4xx_HAL_Driver/Src/stm32f4xx_hal_dma.c ****   /* Memory to Peripheral */
1168:./Libraries/STM32F4xx_HAL_Driver/Src/stm32f4xx_hal_dma.c ****   if((hdma->Init.Direction) == DMA_MEMORY_TO_PERIPH)
  52              		.loc 1 1168 3 is_stmt 1 view .LVU8
  53              		.loc 1 1168 17 is_stmt 0 view .LVU9
  54 0010 8368     		ldr	r3, [r0, #8]
  55              	.LVL1:
  56              		.loc 1 1168 5 view .LVU10
  57 0012 402B     		cmp	r3, #64
  58 0014 05D0     		beq	.L5
1169:./Libraries/STM32F4xx_HAL_Driver/Src/stm32f4xx_hal_dma.c ****   {
1170:./Libraries/STM32F4xx_HAL_Driver/Src/stm32f4xx_hal_dma.c ****     /* Configure DMA Stream destination address */
1171:./Libraries/STM32F4xx_HAL_Driver/Src/stm32f4xx_hal_dma.c ****     hdma->Instance->PAR = DstAddress;
1172:./Libraries/STM32F4xx_HAL_Driver/Src/stm32f4xx_hal_dma.c **** 
1173:./Libraries/STM32F4xx_HAL_Driver/Src/stm32f4xx_hal_dma.c ****     /* Configure DMA Stream source address */
1174:./Libraries/STM32F4xx_HAL_Driver/Src/stm32f4xx_hal_dma.c ****     hdma->Instance->M0AR = SrcAddress;
1175:./Libraries/STM32F4xx_HAL_Driver/Src/stm32f4xx_hal_dma.c ****   }
1176:./Libraries/STM32F4xx_HAL_Driver/Src/stm32f4xx_hal_dma.c ****   /* Peripheral to Memory */
1177:./Libraries/STM32F4xx_HAL_Driver/Src/stm32f4xx_hal_dma.c ****   else
1178:./Libraries/STM32F4xx_HAL_Driver/Src/stm32f4xx_hal_dma.c ****   {
1179:./Libraries/STM32F4xx_HAL_Driver/Src/stm32f4xx_hal_dma.c ****     /* Configure DMA Stream source address */
1180:./Libraries/STM32F4xx_HAL_Driver/Src/stm32f4xx_hal_dma.c ****     hdma->Instance->PAR = SrcAddress;
  59              		.loc 1 1180 5 is_stmt 1 view .LVU11
  60              		.loc 1 1180 9 is_stmt 0 view .LVU12
  61 0016 0368     		ldr	r3, [r0]
  62              		.loc 1 1180 25 view .LVU13
  63 0018 9960     		str	r1, [r3, #8]
  64              	.LVL2:
1181:./Libraries/STM32F4xx_HAL_Driver/Src/stm32f4xx_hal_dma.c **** 
1182:./Libraries/STM32F4xx_HAL_Driver/Src/stm32f4xx_hal_dma.c ****     /* Configure DMA Stream destination address */
1183:./Libraries/STM32F4xx_HAL_Driver/Src/stm32f4xx_hal_dma.c ****     hdma->Instance->M0AR = DstAddress;
  65              		.loc 1 1183 5 is_stmt 1 view .LVU14
  66              		.loc 1 1183 9 is_stmt 0 view .LVU15
  67 001a 0368     		ldr	r3, [r0]
  68              		.loc 1 1183 26 view .LVU16
  69 001c DA60     		str	r2, [r3, #12]
  70              	.L1:
1184:./Libraries/STM32F4xx_HAL_Driver/Src/stm32f4xx_hal_dma.c ****   }
1185:./Libraries/STM32F4xx_HAL_Driver/Src/stm32f4xx_hal_dma.c **** }
ARM GAS  /tmp/cc0WhI97.s 			page 23


  71              		.loc 1 1185 1 view .LVU17
  72 001e 30BC     		pop	{r4, r5}
  73              	.LCFI1:
  74              		.cfi_remember_state
  75              		.cfi_restore 5
  76              		.cfi_restore 4
  77              		.cfi_def_cfa_offset 0
  78 0020 7047     		bx	lr
  79              	.LVL3:
  80              	.L5:
  81              	.LCFI2:
  82              		.cfi_restore_state
1171:./Libraries/STM32F4xx_HAL_Driver/Src/stm32f4xx_hal_dma.c **** 
  83              		.loc 1 1171 5 is_stmt 1 view .LVU18
1171:./Libraries/STM32F4xx_HAL_Driver/Src/stm32f4xx_hal_dma.c **** 
  84              		.loc 1 1171 9 is_stmt 0 view .LVU19
  85 0022 0368     		ldr	r3, [r0]
1171:./Libraries/STM32F4xx_HAL_Driver/Src/stm32f4xx_hal_dma.c **** 
  86              		.loc 1 1171 25 view .LVU20
  87 0024 9A60     		str	r2, [r3, #8]
  88              	.LVL4:
1174:./Libraries/STM32F4xx_HAL_Driver/Src/stm32f4xx_hal_dma.c ****   }
  89              		.loc 1 1174 5 is_stmt 1 view .LVU21
1174:./Libraries/STM32F4xx_HAL_Driver/Src/stm32f4xx_hal_dma.c ****   }
  90              		.loc 1 1174 9 is_stmt 0 view .LVU22
  91 0026 0368     		ldr	r3, [r0]
1174:./Libraries/STM32F4xx_HAL_Driver/Src/stm32f4xx_hal_dma.c ****   }
  92              		.loc 1 1174 26 view .LVU23
  93 0028 D960     		str	r1, [r3, #12]
  94 002a F8E7     		b	.L1
  95              		.cfi_endproc
  96              	.LFE138:
  98              		.section	.text.DMA_CalcBaseAndBitshift,"ax",%progbits
  99              		.align	1
 100              		.syntax unified
 101              		.thumb
 102              		.thumb_func
 103              		.fpu fpv4-sp-d16
 105              	DMA_CalcBaseAndBitshift:
 106              	.LVL5:
 107              	.LFB139:
1186:./Libraries/STM32F4xx_HAL_Driver/Src/stm32f4xx_hal_dma.c **** 
1187:./Libraries/STM32F4xx_HAL_Driver/Src/stm32f4xx_hal_dma.c **** /**
1188:./Libraries/STM32F4xx_HAL_Driver/Src/stm32f4xx_hal_dma.c ****   * @brief  Returns the DMA Stream base address depending on stream number
1189:./Libraries/STM32F4xx_HAL_Driver/Src/stm32f4xx_hal_dma.c ****   * @param  hdma       pointer to a DMA_HandleTypeDef structure that contains
1190:./Libraries/STM32F4xx_HAL_Driver/Src/stm32f4xx_hal_dma.c ****   *                     the configuration information for the specified DMA Stream. 
1191:./Libraries/STM32F4xx_HAL_Driver/Src/stm32f4xx_hal_dma.c ****   * @retval Stream base address
1192:./Libraries/STM32F4xx_HAL_Driver/Src/stm32f4xx_hal_dma.c ****   */
1193:./Libraries/STM32F4xx_HAL_Driver/Src/stm32f4xx_hal_dma.c **** static uint32_t DMA_CalcBaseAndBitshift(DMA_HandleTypeDef *hdma)
1194:./Libraries/STM32F4xx_HAL_Driver/Src/stm32f4xx_hal_dma.c **** {
 108              		.loc 1 1194 1 is_stmt 1 view -0
 109              		.cfi_startproc
 110              		@ args = 0, pretend = 0, frame = 0
 111              		@ frame_needed = 0, uses_anonymous_args = 0
 112              		@ link register save eliminated.
 113              		.loc 1 1194 1 is_stmt 0 view .LVU25
 114 0000 10B4     		push	{r4}
ARM GAS  /tmp/cc0WhI97.s 			page 24


 115              	.LCFI3:
 116              		.cfi_def_cfa_offset 4
 117              		.cfi_offset 4, -4
1195:./Libraries/STM32F4xx_HAL_Driver/Src/stm32f4xx_hal_dma.c ****   uint32_t stream_number = (((uint32_t)hdma->Instance & 0xFFU) - 16U) / 24U;
 118              		.loc 1 1195 3 is_stmt 1 view .LVU26
 119              		.loc 1 1195 44 is_stmt 0 view .LVU27
 120 0002 0368     		ldr	r3, [r0]
 121              		.loc 1 1195 55 view .LVU28
 122 0004 D9B2     		uxtb	r1, r3
 123              		.loc 1 1195 64 view .LVU29
 124 0006 1039     		subs	r1, r1, #16
 125              		.loc 1 1195 12 view .LVU30
 126 0008 0C4A     		ldr	r2, .L10
 127 000a A2FB0142 		umull	r4, r2, r2, r1
 128 000e 1209     		lsrs	r2, r2, #4
 129              	.LVL6:
1196:./Libraries/STM32F4xx_HAL_Driver/Src/stm32f4xx_hal_dma.c ****   
1197:./Libraries/STM32F4xx_HAL_Driver/Src/stm32f4xx_hal_dma.c ****   /* lookup table for necessary bitshift of flags within status registers */
1198:./Libraries/STM32F4xx_HAL_Driver/Src/stm32f4xx_hal_dma.c ****   static const uint8_t flagBitshiftOffset[8U] = {0U, 6U, 16U, 22U, 0U, 6U, 16U, 22U};
 130              		.loc 1 1198 3 is_stmt 1 view .LVU31
1199:./Libraries/STM32F4xx_HAL_Driver/Src/stm32f4xx_hal_dma.c ****   hdma->StreamIndex = flagBitshiftOffset[stream_number];
 131              		.loc 1 1199 3 view .LVU32
 132              		.loc 1 1199 41 is_stmt 0 view .LVU33
 133 0010 0B4C     		ldr	r4, .L10+4
 134 0012 A25C     		ldrb	r2, [r4, r2]	@ zero_extendqisi2
 135              	.LVL7:
 136              		.loc 1 1199 21 view .LVU34
 137 0014 C265     		str	r2, [r0, #92]
1200:./Libraries/STM32F4xx_HAL_Driver/Src/stm32f4xx_hal_dma.c ****   
1201:./Libraries/STM32F4xx_HAL_Driver/Src/stm32f4xx_hal_dma.c ****   if (stream_number > 3U)
 138              		.loc 1 1201 3 is_stmt 1 view .LVU35
 139              		.loc 1 1201 6 is_stmt 0 view .LVU36
 140 0016 5F29     		cmp	r1, #95
 141 0018 09D9     		bls	.L7
1202:./Libraries/STM32F4xx_HAL_Driver/Src/stm32f4xx_hal_dma.c ****   {
1203:./Libraries/STM32F4xx_HAL_Driver/Src/stm32f4xx_hal_dma.c ****     /* return pointer to HISR and HIFCR */
1204:./Libraries/STM32F4xx_HAL_Driver/Src/stm32f4xx_hal_dma.c ****     hdma->StreamBaseAddress = (((uint32_t)hdma->Instance & (uint32_t)(~0x3FFU)) + 4U);
 142              		.loc 1 1204 5 is_stmt 1 view .LVU37
 143              		.loc 1 1204 58 is_stmt 0 view .LVU38
 144 001a 23F47F73 		bic	r3, r3, #1020
 145 001e 23F00303 		bic	r3, r3, #3
 146              		.loc 1 1204 81 view .LVU39
 147 0022 0433     		adds	r3, r3, #4
 148              		.loc 1 1204 29 view .LVU40
 149 0024 8365     		str	r3, [r0, #88]
 150              	.L8:
1205:./Libraries/STM32F4xx_HAL_Driver/Src/stm32f4xx_hal_dma.c ****   }
1206:./Libraries/STM32F4xx_HAL_Driver/Src/stm32f4xx_hal_dma.c ****   else
1207:./Libraries/STM32F4xx_HAL_Driver/Src/stm32f4xx_hal_dma.c ****   {
1208:./Libraries/STM32F4xx_HAL_Driver/Src/stm32f4xx_hal_dma.c ****     /* return pointer to LISR and LIFCR */
1209:./Libraries/STM32F4xx_HAL_Driver/Src/stm32f4xx_hal_dma.c ****     hdma->StreamBaseAddress = ((uint32_t)hdma->Instance & (uint32_t)(~0x3FFU));
1210:./Libraries/STM32F4xx_HAL_Driver/Src/stm32f4xx_hal_dma.c ****   }
1211:./Libraries/STM32F4xx_HAL_Driver/Src/stm32f4xx_hal_dma.c ****   
1212:./Libraries/STM32F4xx_HAL_Driver/Src/stm32f4xx_hal_dma.c ****   return hdma->StreamBaseAddress;
 151              		.loc 1 1212 3 is_stmt 1 view .LVU41
1213:./Libraries/STM32F4xx_HAL_Driver/Src/stm32f4xx_hal_dma.c **** }
 152              		.loc 1 1213 1 is_stmt 0 view .LVU42
ARM GAS  /tmp/cc0WhI97.s 			page 25


 153 0026 806D     		ldr	r0, [r0, #88]
 154              	.LVL8:
 155              		.loc 1 1213 1 view .LVU43
 156 0028 5DF8044B 		ldr	r4, [sp], #4
 157              	.LCFI4:
 158              		.cfi_remember_state
 159              		.cfi_restore 4
 160              		.cfi_def_cfa_offset 0
 161 002c 7047     		bx	lr
 162              	.LVL9:
 163              	.L7:
 164              	.LCFI5:
 165              		.cfi_restore_state
1209:./Libraries/STM32F4xx_HAL_Driver/Src/stm32f4xx_hal_dma.c ****   }
 166              		.loc 1 1209 5 is_stmt 1 view .LVU44
1209:./Libraries/STM32F4xx_HAL_Driver/Src/stm32f4xx_hal_dma.c ****   }
 167              		.loc 1 1209 57 is_stmt 0 view .LVU45
 168 002e 23F47F73 		bic	r3, r3, #1020
 169 0032 23F00303 		bic	r3, r3, #3
1209:./Libraries/STM32F4xx_HAL_Driver/Src/stm32f4xx_hal_dma.c ****   }
 170              		.loc 1 1209 29 view .LVU46
 171 0036 8365     		str	r3, [r0, #88]
 172 0038 F5E7     		b	.L8
 173              	.L11:
 174 003a 00BF     		.align	2
 175              	.L10:
 176 003c ABAAAAAA 		.word	-1431655765
 177 0040 00000000 		.word	.LANCHOR0
 178              		.cfi_endproc
 179              	.LFE139:
 181              		.section	.text.DMA_CheckFifoParam,"ax",%progbits
 182              		.align	1
 183              		.syntax unified
 184              		.thumb
 185              		.thumb_func
 186              		.fpu fpv4-sp-d16
 188              	DMA_CheckFifoParam:
 189              	.LVL10:
 190              	.LFB140:
1214:./Libraries/STM32F4xx_HAL_Driver/Src/stm32f4xx_hal_dma.c **** 
1215:./Libraries/STM32F4xx_HAL_Driver/Src/stm32f4xx_hal_dma.c **** /**
1216:./Libraries/STM32F4xx_HAL_Driver/Src/stm32f4xx_hal_dma.c ****   * @brief  Check compatibility between FIFO threshold level and size of the memory burst
1217:./Libraries/STM32F4xx_HAL_Driver/Src/stm32f4xx_hal_dma.c ****   * @param  hdma       pointer to a DMA_HandleTypeDef structure that contains
1218:./Libraries/STM32F4xx_HAL_Driver/Src/stm32f4xx_hal_dma.c ****   *                     the configuration information for the specified DMA Stream. 
1219:./Libraries/STM32F4xx_HAL_Driver/Src/stm32f4xx_hal_dma.c ****   * @retval HAL status
1220:./Libraries/STM32F4xx_HAL_Driver/Src/stm32f4xx_hal_dma.c ****   */
1221:./Libraries/STM32F4xx_HAL_Driver/Src/stm32f4xx_hal_dma.c **** static HAL_StatusTypeDef DMA_CheckFifoParam(DMA_HandleTypeDef *hdma)
1222:./Libraries/STM32F4xx_HAL_Driver/Src/stm32f4xx_hal_dma.c **** {
 191              		.loc 1 1222 1 is_stmt 1 view -0
 192              		.cfi_startproc
 193              		@ args = 0, pretend = 0, frame = 0
 194              		@ frame_needed = 0, uses_anonymous_args = 0
 195              		@ link register save eliminated.
1223:./Libraries/STM32F4xx_HAL_Driver/Src/stm32f4xx_hal_dma.c ****   HAL_StatusTypeDef status = HAL_OK;
 196              		.loc 1 1223 3 view .LVU48
1224:./Libraries/STM32F4xx_HAL_Driver/Src/stm32f4xx_hal_dma.c ****   uint32_t tmp = hdma->Init.FIFOThreshold;
 197              		.loc 1 1224 3 view .LVU49
ARM GAS  /tmp/cc0WhI97.s 			page 26


 198              		.loc 1 1224 12 is_stmt 0 view .LVU50
 199 0000 836A     		ldr	r3, [r0, #40]
 200              	.LVL11:
1225:./Libraries/STM32F4xx_HAL_Driver/Src/stm32f4xx_hal_dma.c ****   
1226:./Libraries/STM32F4xx_HAL_Driver/Src/stm32f4xx_hal_dma.c ****   /* Memory Data size equal to Byte */
1227:./Libraries/STM32F4xx_HAL_Driver/Src/stm32f4xx_hal_dma.c ****   if(hdma->Init.MemDataAlignment == DMA_MDATAALIGN_BYTE)
 201              		.loc 1 1227 3 is_stmt 1 view .LVU51
 202              		.loc 1 1227 16 is_stmt 0 view .LVU52
 203 0002 8269     		ldr	r2, [r0, #24]
 204              		.loc 1 1227 5 view .LVU53
 205 0004 92B9     		cbnz	r2, .L13
1228:./Libraries/STM32F4xx_HAL_Driver/Src/stm32f4xx_hal_dma.c ****   {
1229:./Libraries/STM32F4xx_HAL_Driver/Src/stm32f4xx_hal_dma.c ****     switch (tmp)
 206              		.loc 1 1229 5 is_stmt 1 view .LVU54
 207 0006 012B     		cmp	r3, #1
 208 0008 0AD0     		beq	.L14
 209 000a 022B     		cmp	r3, #2
 210 000c 02D0     		beq	.L15
 211 000e 0BB1     		cbz	r3, .L15
 212 0010 0020     		movs	r0, #0
 213              	.LVL12:
 214              		.loc 1 1229 5 is_stmt 0 view .LVU55
 215 0012 7047     		bx	lr
 216              	.LVL13:
 217              	.L15:
1230:./Libraries/STM32F4xx_HAL_Driver/Src/stm32f4xx_hal_dma.c ****     {
1231:./Libraries/STM32F4xx_HAL_Driver/Src/stm32f4xx_hal_dma.c ****     case DMA_FIFO_THRESHOLD_1QUARTERFULL:
1232:./Libraries/STM32F4xx_HAL_Driver/Src/stm32f4xx_hal_dma.c ****     case DMA_FIFO_THRESHOLD_3QUARTERSFULL:
1233:./Libraries/STM32F4xx_HAL_Driver/Src/stm32f4xx_hal_dma.c ****       if ((hdma->Init.MemBurst & DMA_SxCR_MBURST_1) == DMA_SxCR_MBURST_1)
 218              		.loc 1 1233 7 is_stmt 1 view .LVU56
 219              		.loc 1 1233 22 is_stmt 0 view .LVU57
 220 0014 C36A     		ldr	r3, [r0, #44]
 221              	.LVL14:
 222              		.loc 1 1233 10 view .LVU58
 223 0016 13F0807F 		tst	r3, #16777216
 224 001a 28D1     		bne	.L23
1223:./Libraries/STM32F4xx_HAL_Driver/Src/stm32f4xx_hal_dma.c ****   uint32_t tmp = hdma->Init.FIFOThreshold;
 225              		.loc 1 1223 21 view .LVU59
 226 001c 0020     		movs	r0, #0
 227              	.LVL15:
1223:./Libraries/STM32F4xx_HAL_Driver/Src/stm32f4xx_hal_dma.c ****   uint32_t tmp = hdma->Init.FIFOThreshold;
 228              		.loc 1 1223 21 view .LVU60
 229 001e 7047     		bx	lr
 230              	.LVL16:
 231              	.L14:
1234:./Libraries/STM32F4xx_HAL_Driver/Src/stm32f4xx_hal_dma.c ****       {
1235:./Libraries/STM32F4xx_HAL_Driver/Src/stm32f4xx_hal_dma.c ****         status = HAL_ERROR;
1236:./Libraries/STM32F4xx_HAL_Driver/Src/stm32f4xx_hal_dma.c ****       }
1237:./Libraries/STM32F4xx_HAL_Driver/Src/stm32f4xx_hal_dma.c ****       break;
1238:./Libraries/STM32F4xx_HAL_Driver/Src/stm32f4xx_hal_dma.c ****     case DMA_FIFO_THRESHOLD_HALFFULL:
1239:./Libraries/STM32F4xx_HAL_Driver/Src/stm32f4xx_hal_dma.c ****       if (hdma->Init.MemBurst == DMA_MBURST_INC16)
 232              		.loc 1 1239 7 is_stmt 1 view .LVU61
 233              		.loc 1 1239 21 is_stmt 0 view .LVU62
 234 0020 C36A     		ldr	r3, [r0, #44]
 235              	.LVL17:
 236              		.loc 1 1239 10 view .LVU63
 237 0022 B3F1C07F 		cmp	r3, #25165824
ARM GAS  /tmp/cc0WhI97.s 			page 27


 238 0026 24D0     		beq	.L24
1223:./Libraries/STM32F4xx_HAL_Driver/Src/stm32f4xx_hal_dma.c ****   uint32_t tmp = hdma->Init.FIFOThreshold;
 239              		.loc 1 1223 21 view .LVU64
 240 0028 0020     		movs	r0, #0
 241              	.LVL18:
1223:./Libraries/STM32F4xx_HAL_Driver/Src/stm32f4xx_hal_dma.c ****   uint32_t tmp = hdma->Init.FIFOThreshold;
 242              		.loc 1 1223 21 view .LVU65
 243 002a 7047     		bx	lr
 244              	.LVL19:
 245              	.L13:
1240:./Libraries/STM32F4xx_HAL_Driver/Src/stm32f4xx_hal_dma.c ****       {
1241:./Libraries/STM32F4xx_HAL_Driver/Src/stm32f4xx_hal_dma.c ****         status = HAL_ERROR;
1242:./Libraries/STM32F4xx_HAL_Driver/Src/stm32f4xx_hal_dma.c ****       }
1243:./Libraries/STM32F4xx_HAL_Driver/Src/stm32f4xx_hal_dma.c ****       break;
1244:./Libraries/STM32F4xx_HAL_Driver/Src/stm32f4xx_hal_dma.c ****     case DMA_FIFO_THRESHOLD_FULL:
1245:./Libraries/STM32F4xx_HAL_Driver/Src/stm32f4xx_hal_dma.c ****       break;
1246:./Libraries/STM32F4xx_HAL_Driver/Src/stm32f4xx_hal_dma.c ****     default:
1247:./Libraries/STM32F4xx_HAL_Driver/Src/stm32f4xx_hal_dma.c ****       break;
1248:./Libraries/STM32F4xx_HAL_Driver/Src/stm32f4xx_hal_dma.c ****     }
1249:./Libraries/STM32F4xx_HAL_Driver/Src/stm32f4xx_hal_dma.c ****   }
1250:./Libraries/STM32F4xx_HAL_Driver/Src/stm32f4xx_hal_dma.c ****   
1251:./Libraries/STM32F4xx_HAL_Driver/Src/stm32f4xx_hal_dma.c ****   /* Memory Data size equal to Half-Word */
1252:./Libraries/STM32F4xx_HAL_Driver/Src/stm32f4xx_hal_dma.c ****   else if (hdma->Init.MemDataAlignment == DMA_MDATAALIGN_HALFWORD)
 246              		.loc 1 1252 8 is_stmt 1 view .LVU66
 247              		.loc 1 1252 11 is_stmt 0 view .LVU67
 248 002c B2F5005F 		cmp	r2, #8192
 249 0030 09D0     		beq	.L31
1253:./Libraries/STM32F4xx_HAL_Driver/Src/stm32f4xx_hal_dma.c ****   {
1254:./Libraries/STM32F4xx_HAL_Driver/Src/stm32f4xx_hal_dma.c ****     switch (tmp)
1255:./Libraries/STM32F4xx_HAL_Driver/Src/stm32f4xx_hal_dma.c ****     {
1256:./Libraries/STM32F4xx_HAL_Driver/Src/stm32f4xx_hal_dma.c ****     case DMA_FIFO_THRESHOLD_1QUARTERFULL:
1257:./Libraries/STM32F4xx_HAL_Driver/Src/stm32f4xx_hal_dma.c ****     case DMA_FIFO_THRESHOLD_3QUARTERSFULL:
1258:./Libraries/STM32F4xx_HAL_Driver/Src/stm32f4xx_hal_dma.c ****       status = HAL_ERROR;
1259:./Libraries/STM32F4xx_HAL_Driver/Src/stm32f4xx_hal_dma.c ****       break;
1260:./Libraries/STM32F4xx_HAL_Driver/Src/stm32f4xx_hal_dma.c ****     case DMA_FIFO_THRESHOLD_HALFFULL:
1261:./Libraries/STM32F4xx_HAL_Driver/Src/stm32f4xx_hal_dma.c ****       if ((hdma->Init.MemBurst & DMA_SxCR_MBURST_1) == DMA_SxCR_MBURST_1)
1262:./Libraries/STM32F4xx_HAL_Driver/Src/stm32f4xx_hal_dma.c ****       {
1263:./Libraries/STM32F4xx_HAL_Driver/Src/stm32f4xx_hal_dma.c ****         status = HAL_ERROR;
1264:./Libraries/STM32F4xx_HAL_Driver/Src/stm32f4xx_hal_dma.c ****       }
1265:./Libraries/STM32F4xx_HAL_Driver/Src/stm32f4xx_hal_dma.c ****       break;
1266:./Libraries/STM32F4xx_HAL_Driver/Src/stm32f4xx_hal_dma.c ****     case DMA_FIFO_THRESHOLD_FULL:
1267:./Libraries/STM32F4xx_HAL_Driver/Src/stm32f4xx_hal_dma.c ****       if (hdma->Init.MemBurst == DMA_MBURST_INC16)
1268:./Libraries/STM32F4xx_HAL_Driver/Src/stm32f4xx_hal_dma.c ****       {
1269:./Libraries/STM32F4xx_HAL_Driver/Src/stm32f4xx_hal_dma.c ****         status = HAL_ERROR;
1270:./Libraries/STM32F4xx_HAL_Driver/Src/stm32f4xx_hal_dma.c ****       }
1271:./Libraries/STM32F4xx_HAL_Driver/Src/stm32f4xx_hal_dma.c ****       break;   
1272:./Libraries/STM32F4xx_HAL_Driver/Src/stm32f4xx_hal_dma.c ****     default:
1273:./Libraries/STM32F4xx_HAL_Driver/Src/stm32f4xx_hal_dma.c ****       break;
1274:./Libraries/STM32F4xx_HAL_Driver/Src/stm32f4xx_hal_dma.c ****     }
1275:./Libraries/STM32F4xx_HAL_Driver/Src/stm32f4xx_hal_dma.c ****   }
1276:./Libraries/STM32F4xx_HAL_Driver/Src/stm32f4xx_hal_dma.c ****   
1277:./Libraries/STM32F4xx_HAL_Driver/Src/stm32f4xx_hal_dma.c ****   /* Memory Data size equal to Word */
1278:./Libraries/STM32F4xx_HAL_Driver/Src/stm32f4xx_hal_dma.c ****   else
1279:./Libraries/STM32F4xx_HAL_Driver/Src/stm32f4xx_hal_dma.c ****   {
1280:./Libraries/STM32F4xx_HAL_Driver/Src/stm32f4xx_hal_dma.c ****     switch (tmp)
 250              		.loc 1 1280 5 is_stmt 1 view .LVU68
 251 0032 022B     		cmp	r3, #2
ARM GAS  /tmp/cc0WhI97.s 			page 28


 252 0034 25D9     		bls	.L28
 253 0036 032B     		cmp	r3, #3
 254 0038 25D1     		bne	.L29
1281:./Libraries/STM32F4xx_HAL_Driver/Src/stm32f4xx_hal_dma.c ****     {
1282:./Libraries/STM32F4xx_HAL_Driver/Src/stm32f4xx_hal_dma.c ****     case DMA_FIFO_THRESHOLD_1QUARTERFULL:
1283:./Libraries/STM32F4xx_HAL_Driver/Src/stm32f4xx_hal_dma.c ****     case DMA_FIFO_THRESHOLD_HALFFULL:
1284:./Libraries/STM32F4xx_HAL_Driver/Src/stm32f4xx_hal_dma.c ****     case DMA_FIFO_THRESHOLD_3QUARTERSFULL:
1285:./Libraries/STM32F4xx_HAL_Driver/Src/stm32f4xx_hal_dma.c ****       status = HAL_ERROR;
1286:./Libraries/STM32F4xx_HAL_Driver/Src/stm32f4xx_hal_dma.c ****       break;
1287:./Libraries/STM32F4xx_HAL_Driver/Src/stm32f4xx_hal_dma.c ****     case DMA_FIFO_THRESHOLD_FULL:
1288:./Libraries/STM32F4xx_HAL_Driver/Src/stm32f4xx_hal_dma.c ****       if ((hdma->Init.MemBurst & DMA_SxCR_MBURST_1) == DMA_SxCR_MBURST_1)
 255              		.loc 1 1288 7 view .LVU69
 256              		.loc 1 1288 22 is_stmt 0 view .LVU70
 257 003a C36A     		ldr	r3, [r0, #44]
 258              	.LVL20:
 259              		.loc 1 1288 10 view .LVU71
 260 003c 13F0807F 		tst	r3, #16777216
 261 0040 23D1     		bne	.L30
1223:./Libraries/STM32F4xx_HAL_Driver/Src/stm32f4xx_hal_dma.c ****   uint32_t tmp = hdma->Init.FIFOThreshold;
 262              		.loc 1 1223 21 view .LVU72
 263 0042 0020     		movs	r0, #0
 264              	.LVL21:
1223:./Libraries/STM32F4xx_HAL_Driver/Src/stm32f4xx_hal_dma.c ****   uint32_t tmp = hdma->Init.FIFOThreshold;
 265              		.loc 1 1223 21 view .LVU73
 266 0044 7047     		bx	lr
 267              	.LVL22:
 268              	.L31:
1254:./Libraries/STM32F4xx_HAL_Driver/Src/stm32f4xx_hal_dma.c ****     {
 269              		.loc 1 1254 5 is_stmt 1 view .LVU74
 270 0046 032B     		cmp	r3, #3
 271 0048 03D8     		bhi	.L18
 272 004a DFE803F0 		tbb	[pc, r3]
 273              	.L20:
 274 004e 14       		.byte	(.L25-.L20)/2
 275 004f 04       		.byte	(.L21-.L20)/2
 276 0050 14       		.byte	(.L25-.L20)/2
 277 0051 0A       		.byte	(.L19-.L20)/2
 278              		.p2align 1
 279              	.L18:
1252:./Libraries/STM32F4xx_HAL_Driver/Src/stm32f4xx_hal_dma.c ****   {
 280              		.loc 1 1252 11 is_stmt 0 view .LVU75
 281 0052 0020     		movs	r0, #0
 282              	.LVL23:
1252:./Libraries/STM32F4xx_HAL_Driver/Src/stm32f4xx_hal_dma.c ****   {
 283              		.loc 1 1252 11 view .LVU76
 284 0054 7047     		bx	lr
 285              	.LVL24:
 286              	.L21:
1261:./Libraries/STM32F4xx_HAL_Driver/Src/stm32f4xx_hal_dma.c ****       {
 287              		.loc 1 1261 7 is_stmt 1 view .LVU77
1261:./Libraries/STM32F4xx_HAL_Driver/Src/stm32f4xx_hal_dma.c ****       {
 288              		.loc 1 1261 22 is_stmt 0 view .LVU78
 289 0056 C36A     		ldr	r3, [r0, #44]
 290              	.LVL25:
1261:./Libraries/STM32F4xx_HAL_Driver/Src/stm32f4xx_hal_dma.c ****       {
 291              		.loc 1 1261 10 view .LVU79
 292 0058 13F0807F 		tst	r3, #16777216
ARM GAS  /tmp/cc0WhI97.s 			page 29


 293 005c 0DD1     		bne	.L26
1223:./Libraries/STM32F4xx_HAL_Driver/Src/stm32f4xx_hal_dma.c ****   uint32_t tmp = hdma->Init.FIFOThreshold;
 294              		.loc 1 1223 21 view .LVU80
 295 005e 0020     		movs	r0, #0
 296              	.LVL26:
1223:./Libraries/STM32F4xx_HAL_Driver/Src/stm32f4xx_hal_dma.c ****   uint32_t tmp = hdma->Init.FIFOThreshold;
 297              		.loc 1 1223 21 view .LVU81
 298 0060 7047     		bx	lr
 299              	.LVL27:
 300              	.L19:
1267:./Libraries/STM32F4xx_HAL_Driver/Src/stm32f4xx_hal_dma.c ****       {
 301              		.loc 1 1267 7 is_stmt 1 view .LVU82
1267:./Libraries/STM32F4xx_HAL_Driver/Src/stm32f4xx_hal_dma.c ****       {
 302              		.loc 1 1267 21 is_stmt 0 view .LVU83
 303 0062 C36A     		ldr	r3, [r0, #44]
 304              	.LVL28:
1267:./Libraries/STM32F4xx_HAL_Driver/Src/stm32f4xx_hal_dma.c ****       {
 305              		.loc 1 1267 10 view .LVU84
 306 0064 B3F1C07F 		cmp	r3, #25165824
 307 0068 09D0     		beq	.L27
1223:./Libraries/STM32F4xx_HAL_Driver/Src/stm32f4xx_hal_dma.c ****   uint32_t tmp = hdma->Init.FIFOThreshold;
 308              		.loc 1 1223 21 view .LVU85
 309 006a 0020     		movs	r0, #0
 310              	.LVL29:
1223:./Libraries/STM32F4xx_HAL_Driver/Src/stm32f4xx_hal_dma.c ****   uint32_t tmp = hdma->Init.FIFOThreshold;
 311              		.loc 1 1223 21 view .LVU86
 312 006c 7047     		bx	lr
 313              	.LVL30:
 314              	.L23:
1235:./Libraries/STM32F4xx_HAL_Driver/Src/stm32f4xx_hal_dma.c ****       }
 315              		.loc 1 1235 16 view .LVU87
 316 006e 0120     		movs	r0, #1
 317              	.LVL31:
1235:./Libraries/STM32F4xx_HAL_Driver/Src/stm32f4xx_hal_dma.c ****       }
 318              		.loc 1 1235 16 view .LVU88
 319 0070 7047     		bx	lr
 320              	.LVL32:
 321              	.L24:
1241:./Libraries/STM32F4xx_HAL_Driver/Src/stm32f4xx_hal_dma.c ****       }
 322              		.loc 1 1241 16 view .LVU89
 323 0072 0120     		movs	r0, #1
 324              	.LVL33:
1241:./Libraries/STM32F4xx_HAL_Driver/Src/stm32f4xx_hal_dma.c ****       }
 325              		.loc 1 1241 16 view .LVU90
 326 0074 7047     		bx	lr
 327              	.LVL34:
 328              	.L25:
1258:./Libraries/STM32F4xx_HAL_Driver/Src/stm32f4xx_hal_dma.c ****       break;
 329              		.loc 1 1258 14 view .LVU91
 330 0076 0120     		movs	r0, #1
 331              	.LVL35:
1258:./Libraries/STM32F4xx_HAL_Driver/Src/stm32f4xx_hal_dma.c ****       break;
 332              		.loc 1 1258 14 view .LVU92
 333 0078 7047     		bx	lr
 334              	.LVL36:
 335              	.L26:
1263:./Libraries/STM32F4xx_HAL_Driver/Src/stm32f4xx_hal_dma.c ****       }
ARM GAS  /tmp/cc0WhI97.s 			page 30


 336              		.loc 1 1263 16 view .LVU93
 337 007a 0120     		movs	r0, #1
 338              	.LVL37:
1263:./Libraries/STM32F4xx_HAL_Driver/Src/stm32f4xx_hal_dma.c ****       }
 339              		.loc 1 1263 16 view .LVU94
 340 007c 7047     		bx	lr
 341              	.LVL38:
 342              	.L27:
1269:./Libraries/STM32F4xx_HAL_Driver/Src/stm32f4xx_hal_dma.c ****       }
 343              		.loc 1 1269 16 view .LVU95
 344 007e 0120     		movs	r0, #1
 345              	.LVL39:
1269:./Libraries/STM32F4xx_HAL_Driver/Src/stm32f4xx_hal_dma.c ****       }
 346              		.loc 1 1269 16 view .LVU96
 347 0080 7047     		bx	lr
 348              	.LVL40:
 349              	.L28:
1285:./Libraries/STM32F4xx_HAL_Driver/Src/stm32f4xx_hal_dma.c ****       break;
 350              		.loc 1 1285 14 view .LVU97
 351 0082 0120     		movs	r0, #1
 352              	.LVL41:
1285:./Libraries/STM32F4xx_HAL_Driver/Src/stm32f4xx_hal_dma.c ****       break;
 353              		.loc 1 1285 14 view .LVU98
 354 0084 7047     		bx	lr
 355              	.LVL42:
 356              	.L29:
1280:./Libraries/STM32F4xx_HAL_Driver/Src/stm32f4xx_hal_dma.c ****     {
 357              		.loc 1 1280 5 view .LVU99
 358 0086 0020     		movs	r0, #0
 359              	.LVL43:
1280:./Libraries/STM32F4xx_HAL_Driver/Src/stm32f4xx_hal_dma.c ****     {
 360              		.loc 1 1280 5 view .LVU100
 361 0088 7047     		bx	lr
 362              	.LVL44:
 363              	.L30:
1289:./Libraries/STM32F4xx_HAL_Driver/Src/stm32f4xx_hal_dma.c ****       {
1290:./Libraries/STM32F4xx_HAL_Driver/Src/stm32f4xx_hal_dma.c ****         status = HAL_ERROR;
 364              		.loc 1 1290 16 view .LVU101
 365 008a 0120     		movs	r0, #1
 366              	.LVL45:
1291:./Libraries/STM32F4xx_HAL_Driver/Src/stm32f4xx_hal_dma.c ****       }
1292:./Libraries/STM32F4xx_HAL_Driver/Src/stm32f4xx_hal_dma.c ****       break;
1293:./Libraries/STM32F4xx_HAL_Driver/Src/stm32f4xx_hal_dma.c ****     default:
1294:./Libraries/STM32F4xx_HAL_Driver/Src/stm32f4xx_hal_dma.c ****       break;
1295:./Libraries/STM32F4xx_HAL_Driver/Src/stm32f4xx_hal_dma.c ****     }
1296:./Libraries/STM32F4xx_HAL_Driver/Src/stm32f4xx_hal_dma.c ****   } 
1297:./Libraries/STM32F4xx_HAL_Driver/Src/stm32f4xx_hal_dma.c ****   
1298:./Libraries/STM32F4xx_HAL_Driver/Src/stm32f4xx_hal_dma.c ****   return status; 
 367              		.loc 1 1298 3 is_stmt 1 view .LVU102
1299:./Libraries/STM32F4xx_HAL_Driver/Src/stm32f4xx_hal_dma.c **** }
 368              		.loc 1 1299 1 is_stmt 0 view .LVU103
 369 008c 7047     		bx	lr
 370              		.cfi_endproc
 371              	.LFE140:
 373              		.section	.text.HAL_DMA_Init,"ax",%progbits
 374              		.align	1
 375              		.global	HAL_DMA_Init
ARM GAS  /tmp/cc0WhI97.s 			page 31


 376              		.syntax unified
 377              		.thumb
 378              		.thumb_func
 379              		.fpu fpv4-sp-d16
 381              	HAL_DMA_Init:
 382              	.LVL46:
 383              	.LFB126:
 188:./Libraries/STM32F4xx_HAL_Driver/Src/stm32f4xx_hal_dma.c ****   uint32_t tmp = 0U;
 384              		.loc 1 188 1 is_stmt 1 view -0
 385              		.cfi_startproc
 386              		@ args = 0, pretend = 0, frame = 0
 387              		@ frame_needed = 0, uses_anonymous_args = 0
 188:./Libraries/STM32F4xx_HAL_Driver/Src/stm32f4xx_hal_dma.c ****   uint32_t tmp = 0U;
 388              		.loc 1 188 1 is_stmt 0 view .LVU105
 389 0000 70B5     		push	{r4, r5, r6, lr}
 390              	.LCFI6:
 391              		.cfi_def_cfa_offset 16
 392              		.cfi_offset 4, -16
 393              		.cfi_offset 5, -12
 394              		.cfi_offset 6, -8
 395              		.cfi_offset 14, -4
 396 0002 0446     		mov	r4, r0
 189:./Libraries/STM32F4xx_HAL_Driver/Src/stm32f4xx_hal_dma.c ****   uint32_t tickstart = HAL_GetTick();
 397              		.loc 1 189 3 is_stmt 1 view .LVU106
 398              	.LVL47:
 190:./Libraries/STM32F4xx_HAL_Driver/Src/stm32f4xx_hal_dma.c ****   DMA_Base_Registers *regs;
 399              		.loc 1 190 3 view .LVU107
 190:./Libraries/STM32F4xx_HAL_Driver/Src/stm32f4xx_hal_dma.c ****   DMA_Base_Registers *regs;
 400              		.loc 1 190 24 is_stmt 0 view .LVU108
 401 0004 FFF7FEFF 		bl	HAL_GetTick
 402              	.LVL48:
 191:./Libraries/STM32F4xx_HAL_Driver/Src/stm32f4xx_hal_dma.c **** 
 403              		.loc 1 191 3 is_stmt 1 view .LVU109
 194:./Libraries/STM32F4xx_HAL_Driver/Src/stm32f4xx_hal_dma.c ****   {
 404              		.loc 1 194 3 view .LVU110
 194:./Libraries/STM32F4xx_HAL_Driver/Src/stm32f4xx_hal_dma.c ****   {
 405              		.loc 1 194 5 is_stmt 0 view .LVU111
 406 0008 002C     		cmp	r4, #0
 407 000a 5BD0     		beq	.L38
 408 000c 0546     		mov	r5, r0
 200:./Libraries/STM32F4xx_HAL_Driver/Src/stm32f4xx_hal_dma.c ****   assert_param(IS_DMA_CHANNEL(hdma->Init.Channel));
 409              		.loc 1 200 3 is_stmt 1 view .LVU112
 201:./Libraries/STM32F4xx_HAL_Driver/Src/stm32f4xx_hal_dma.c ****   assert_param(IS_DMA_DIRECTION(hdma->Init.Direction));
 410              		.loc 1 201 3 view .LVU113
 202:./Libraries/STM32F4xx_HAL_Driver/Src/stm32f4xx_hal_dma.c ****   assert_param(IS_DMA_PERIPHERAL_INC_STATE(hdma->Init.PeriphInc));
 411              		.loc 1 202 3 view .LVU114
 203:./Libraries/STM32F4xx_HAL_Driver/Src/stm32f4xx_hal_dma.c ****   assert_param(IS_DMA_MEMORY_INC_STATE(hdma->Init.MemInc));
 412              		.loc 1 203 3 view .LVU115
 204:./Libraries/STM32F4xx_HAL_Driver/Src/stm32f4xx_hal_dma.c ****   assert_param(IS_DMA_PERIPHERAL_DATA_SIZE(hdma->Init.PeriphDataAlignment));
 413              		.loc 1 204 3 view .LVU116
 205:./Libraries/STM32F4xx_HAL_Driver/Src/stm32f4xx_hal_dma.c ****   assert_param(IS_DMA_MEMORY_DATA_SIZE(hdma->Init.MemDataAlignment));
 414              		.loc 1 205 3 view .LVU117
 206:./Libraries/STM32F4xx_HAL_Driver/Src/stm32f4xx_hal_dma.c ****   assert_param(IS_DMA_MODE(hdma->Init.Mode));
 415              		.loc 1 206 3 view .LVU118
 207:./Libraries/STM32F4xx_HAL_Driver/Src/stm32f4xx_hal_dma.c ****   assert_param(IS_DMA_PRIORITY(hdma->Init.Priority));
 416              		.loc 1 207 3 view .LVU119
 208:./Libraries/STM32F4xx_HAL_Driver/Src/stm32f4xx_hal_dma.c ****   assert_param(IS_DMA_FIFO_MODE_STATE(hdma->Init.FIFOMode));
ARM GAS  /tmp/cc0WhI97.s 			page 32


 417              		.loc 1 208 3 view .LVU120
 209:./Libraries/STM32F4xx_HAL_Driver/Src/stm32f4xx_hal_dma.c ****   /* Check the memory burst, peripheral burst and FIFO threshold parameters only
 418              		.loc 1 209 3 view .LVU121
 212:./Libraries/STM32F4xx_HAL_Driver/Src/stm32f4xx_hal_dma.c ****   {
 419              		.loc 1 212 3 view .LVU122
 214:./Libraries/STM32F4xx_HAL_Driver/Src/stm32f4xx_hal_dma.c ****     assert_param(IS_DMA_MEMORY_BURST(hdma->Init.MemBurst));
 420              		.loc 1 214 5 view .LVU123
 215:./Libraries/STM32F4xx_HAL_Driver/Src/stm32f4xx_hal_dma.c ****     assert_param(IS_DMA_PERIPHERAL_BURST(hdma->Init.PeriphBurst));
 421              		.loc 1 215 5 view .LVU124
 216:./Libraries/STM32F4xx_HAL_Driver/Src/stm32f4xx_hal_dma.c ****   }
 422              		.loc 1 216 5 view .LVU125
 220:./Libraries/STM32F4xx_HAL_Driver/Src/stm32f4xx_hal_dma.c **** 
 423              		.loc 1 220 3 view .LVU126
 220:./Libraries/STM32F4xx_HAL_Driver/Src/stm32f4xx_hal_dma.c **** 
 424              		.loc 1 220 3 view .LVU127
 425 000e 0023     		movs	r3, #0
 426 0010 84F83430 		strb	r3, [r4, #52]
 220:./Libraries/STM32F4xx_HAL_Driver/Src/stm32f4xx_hal_dma.c **** 
 427              		.loc 1 220 3 view .LVU128
 223:./Libraries/STM32F4xx_HAL_Driver/Src/stm32f4xx_hal_dma.c ****   
 428              		.loc 1 223 3 view .LVU129
 223:./Libraries/STM32F4xx_HAL_Driver/Src/stm32f4xx_hal_dma.c ****   
 429              		.loc 1 223 15 is_stmt 0 view .LVU130
 430 0014 0223     		movs	r3, #2
 431 0016 84F83530 		strb	r3, [r4, #53]
 226:./Libraries/STM32F4xx_HAL_Driver/Src/stm32f4xx_hal_dma.c ****   
 432              		.loc 1 226 3 is_stmt 1 view .LVU131
 433 001a 2268     		ldr	r2, [r4]
 434 001c 1368     		ldr	r3, [r2]
 435 001e 23F00103 		bic	r3, r3, #1
 436 0022 1360     		str	r3, [r2]
 229:./Libraries/STM32F4xx_HAL_Driver/Src/stm32f4xx_hal_dma.c ****   {
 437              		.loc 1 229 3 view .LVU132
 438              	.LVL49:
 439              	.L34:
 229:./Libraries/STM32F4xx_HAL_Driver/Src/stm32f4xx_hal_dma.c ****   {
 440              		.loc 1 229 8 view .LVU133
 229:./Libraries/STM32F4xx_HAL_Driver/Src/stm32f4xx_hal_dma.c ****   {
 441              		.loc 1 229 14 is_stmt 0 view .LVU134
 442 0024 2368     		ldr	r3, [r4]
 229:./Libraries/STM32F4xx_HAL_Driver/Src/stm32f4xx_hal_dma.c ****   {
 443              		.loc 1 229 24 view .LVU135
 444 0026 1A68     		ldr	r2, [r3]
 229:./Libraries/STM32F4xx_HAL_Driver/Src/stm32f4xx_hal_dma.c ****   {
 445              		.loc 1 229 8 view .LVU136
 446 0028 12F0010F 		tst	r2, #1
 447 002c 0AD0     		beq	.L40
 232:./Libraries/STM32F4xx_HAL_Driver/Src/stm32f4xx_hal_dma.c ****     {
 448              		.loc 1 232 5 is_stmt 1 view .LVU137
 232:./Libraries/STM32F4xx_HAL_Driver/Src/stm32f4xx_hal_dma.c ****     {
 449              		.loc 1 232 9 is_stmt 0 view .LVU138
 450 002e FFF7FEFF 		bl	HAL_GetTick
 451              	.LVL50:
 232:./Libraries/STM32F4xx_HAL_Driver/Src/stm32f4xx_hal_dma.c ****     {
 452              		.loc 1 232 23 view .LVU139
 453 0032 431B     		subs	r3, r0, r5
 232:./Libraries/STM32F4xx_HAL_Driver/Src/stm32f4xx_hal_dma.c ****     {
ARM GAS  /tmp/cc0WhI97.s 			page 33


 454              		.loc 1 232 7 view .LVU140
 455 0034 052B     		cmp	r3, #5
 456 0036 F5D9     		bls	.L34
 235:./Libraries/STM32F4xx_HAL_Driver/Src/stm32f4xx_hal_dma.c ****       
 457              		.loc 1 235 7 is_stmt 1 view .LVU141
 235:./Libraries/STM32F4xx_HAL_Driver/Src/stm32f4xx_hal_dma.c ****       
 458              		.loc 1 235 23 is_stmt 0 view .LVU142
 459 0038 2023     		movs	r3, #32
 460 003a 6365     		str	r3, [r4, #84]
 238:./Libraries/STM32F4xx_HAL_Driver/Src/stm32f4xx_hal_dma.c ****       
 461              		.loc 1 238 7 is_stmt 1 view .LVU143
 238:./Libraries/STM32F4xx_HAL_Driver/Src/stm32f4xx_hal_dma.c ****       
 462              		.loc 1 238 19 is_stmt 0 view .LVU144
 463 003c 0320     		movs	r0, #3
 464 003e 84F83500 		strb	r0, [r4, #53]
 240:./Libraries/STM32F4xx_HAL_Driver/Src/stm32f4xx_hal_dma.c ****     }
 465              		.loc 1 240 7 is_stmt 1 view .LVU145
 466              	.LVL51:
 467              	.L33:
 318:./Libraries/STM32F4xx_HAL_Driver/Src/stm32f4xx_hal_dma.c **** 
 468              		.loc 1 318 1 is_stmt 0 view .LVU146
 469 0042 70BD     		pop	{r4, r5, r6, pc}
 470              	.LVL52:
 471              	.L40:
 245:./Libraries/STM32F4xx_HAL_Driver/Src/stm32f4xx_hal_dma.c **** 
 472              		.loc 1 245 3 is_stmt 1 view .LVU147
 245:./Libraries/STM32F4xx_HAL_Driver/Src/stm32f4xx_hal_dma.c **** 
 473              		.loc 1 245 7 is_stmt 0 view .LVU148
 474 0044 1A68     		ldr	r2, [r3]
 475              	.LVL53:
 248:./Libraries/STM32F4xx_HAL_Driver/Src/stm32f4xx_hal_dma.c ****                       DMA_SxCR_PL    | DMA_SxCR_MSIZE  | DMA_SxCR_PSIZE  | \
 476              		.loc 1 248 3 is_stmt 1 view .LVU149
 248:./Libraries/STM32F4xx_HAL_Driver/Src/stm32f4xx_hal_dma.c ****                       DMA_SxCR_PL    | DMA_SxCR_MSIZE  | DMA_SxCR_PSIZE  | \
 477              		.loc 1 248 7 is_stmt 0 view .LVU150
 478 0046 2048     		ldr	r0, .L43
 479 0048 1040     		ands	r0, r0, r2
 480              	.LVL54:
 254:./Libraries/STM32F4xx_HAL_Driver/Src/stm32f4xx_hal_dma.c ****           hdma->Init.PeriphInc           | hdma->Init.MemInc           |
 481              		.loc 1 254 3 is_stmt 1 view .LVU151
 254:./Libraries/STM32F4xx_HAL_Driver/Src/stm32f4xx_hal_dma.c ****           hdma->Init.PeriphInc           | hdma->Init.MemInc           |
 482              		.loc 1 254 21 is_stmt 0 view .LVU152
 483 004a 6168     		ldr	r1, [r4, #4]
 254:./Libraries/STM32F4xx_HAL_Driver/Src/stm32f4xx_hal_dma.c ****           hdma->Init.PeriphInc           | hdma->Init.MemInc           |
 484              		.loc 1 254 54 view .LVU153
 485 004c A268     		ldr	r2, [r4, #8]
 254:./Libraries/STM32F4xx_HAL_Driver/Src/stm32f4xx_hal_dma.c ****           hdma->Init.PeriphInc           | hdma->Init.MemInc           |
 486              		.loc 1 254 42 view .LVU154
 487 004e 0A43     		orrs	r2, r2, r1
 255:./Libraries/STM32F4xx_HAL_Driver/Src/stm32f4xx_hal_dma.c ****           hdma->Init.PeriphDataAlignment | hdma->Init.MemDataAlignment |
 488              		.loc 1 255 21 view .LVU155
 489 0050 E168     		ldr	r1, [r4, #12]
 254:./Libraries/STM32F4xx_HAL_Driver/Src/stm32f4xx_hal_dma.c ****           hdma->Init.PeriphInc           | hdma->Init.MemInc           |
 490              		.loc 1 254 72 view .LVU156
 491 0052 0A43     		orrs	r2, r2, r1
 255:./Libraries/STM32F4xx_HAL_Driver/Src/stm32f4xx_hal_dma.c ****           hdma->Init.PeriphDataAlignment | hdma->Init.MemDataAlignment |
 492              		.loc 1 255 54 view .LVU157
 493 0054 2169     		ldr	r1, [r4, #16]
ARM GAS  /tmp/cc0WhI97.s 			page 34


 255:./Libraries/STM32F4xx_HAL_Driver/Src/stm32f4xx_hal_dma.c ****           hdma->Init.PeriphDataAlignment | hdma->Init.MemDataAlignment |
 494              		.loc 1 255 42 view .LVU158
 495 0056 0A43     		orrs	r2, r2, r1
 256:./Libraries/STM32F4xx_HAL_Driver/Src/stm32f4xx_hal_dma.c ****           hdma->Init.Mode                | hdma->Init.Priority;
 496              		.loc 1 256 21 view .LVU159
 497 0058 6169     		ldr	r1, [r4, #20]
 255:./Libraries/STM32F4xx_HAL_Driver/Src/stm32f4xx_hal_dma.c ****           hdma->Init.PeriphDataAlignment | hdma->Init.MemDataAlignment |
 498              		.loc 1 255 72 view .LVU160
 499 005a 0A43     		orrs	r2, r2, r1
 256:./Libraries/STM32F4xx_HAL_Driver/Src/stm32f4xx_hal_dma.c ****           hdma->Init.Mode                | hdma->Init.Priority;
 500              		.loc 1 256 54 view .LVU161
 501 005c A169     		ldr	r1, [r4, #24]
 256:./Libraries/STM32F4xx_HAL_Driver/Src/stm32f4xx_hal_dma.c ****           hdma->Init.Mode                | hdma->Init.Priority;
 502              		.loc 1 256 42 view .LVU162
 503 005e 0A43     		orrs	r2, r2, r1
 257:./Libraries/STM32F4xx_HAL_Driver/Src/stm32f4xx_hal_dma.c **** 
 504              		.loc 1 257 21 view .LVU163
 505 0060 E169     		ldr	r1, [r4, #28]
 256:./Libraries/STM32F4xx_HAL_Driver/Src/stm32f4xx_hal_dma.c ****           hdma->Init.Mode                | hdma->Init.Priority;
 506              		.loc 1 256 72 view .LVU164
 507 0062 0A43     		orrs	r2, r2, r1
 257:./Libraries/STM32F4xx_HAL_Driver/Src/stm32f4xx_hal_dma.c **** 
 508              		.loc 1 257 54 view .LVU165
 509 0064 216A     		ldr	r1, [r4, #32]
 257:./Libraries/STM32F4xx_HAL_Driver/Src/stm32f4xx_hal_dma.c **** 
 510              		.loc 1 257 42 view .LVU166
 511 0066 0A43     		orrs	r2, r2, r1
 254:./Libraries/STM32F4xx_HAL_Driver/Src/stm32f4xx_hal_dma.c ****           hdma->Init.PeriphInc           | hdma->Init.MemInc           |
 512              		.loc 1 254 7 view .LVU167
 513 0068 0243     		orrs	r2, r2, r0
 514              	.LVL55:
 260:./Libraries/STM32F4xx_HAL_Driver/Src/stm32f4xx_hal_dma.c ****   {
 515              		.loc 1 260 3 is_stmt 1 view .LVU168
 260:./Libraries/STM32F4xx_HAL_Driver/Src/stm32f4xx_hal_dma.c ****   {
 516              		.loc 1 260 16 is_stmt 0 view .LVU169
 517 006a 616A     		ldr	r1, [r4, #36]
 260:./Libraries/STM32F4xx_HAL_Driver/Src/stm32f4xx_hal_dma.c ****   {
 518              		.loc 1 260 5 view .LVU170
 519 006c 0429     		cmp	r1, #4
 520 006e 1ED0     		beq	.L41
 521              	.L36:
 267:./Libraries/STM32F4xx_HAL_Driver/Src/stm32f4xx_hal_dma.c **** 
 522              		.loc 1 267 3 is_stmt 1 view .LVU171
 267:./Libraries/STM32F4xx_HAL_Driver/Src/stm32f4xx_hal_dma.c **** 
 523              		.loc 1 267 22 is_stmt 0 view .LVU172
 524 0070 1A60     		str	r2, [r3]
 270:./Libraries/STM32F4xx_HAL_Driver/Src/stm32f4xx_hal_dma.c **** 
 525              		.loc 1 270 3 is_stmt 1 view .LVU173
 270:./Libraries/STM32F4xx_HAL_Driver/Src/stm32f4xx_hal_dma.c **** 
 526              		.loc 1 270 13 is_stmt 0 view .LVU174
 527 0072 2668     		ldr	r6, [r4]
 270:./Libraries/STM32F4xx_HAL_Driver/Src/stm32f4xx_hal_dma.c **** 
 528              		.loc 1 270 7 view .LVU175
 529 0074 7569     		ldr	r5, [r6, #20]
 530              	.LVL56:
 273:./Libraries/STM32F4xx_HAL_Driver/Src/stm32f4xx_hal_dma.c **** 
 531              		.loc 1 273 3 is_stmt 1 view .LVU176
ARM GAS  /tmp/cc0WhI97.s 			page 35


 273:./Libraries/STM32F4xx_HAL_Driver/Src/stm32f4xx_hal_dma.c **** 
 532              		.loc 1 273 7 is_stmt 0 view .LVU177
 533 0076 25F00705 		bic	r5, r5, #7
 534              	.LVL57:
 276:./Libraries/STM32F4xx_HAL_Driver/Src/stm32f4xx_hal_dma.c **** 
 535              		.loc 1 276 3 is_stmt 1 view .LVU178
 276:./Libraries/STM32F4xx_HAL_Driver/Src/stm32f4xx_hal_dma.c **** 
 536              		.loc 1 276 20 is_stmt 0 view .LVU179
 537 007a 636A     		ldr	r3, [r4, #36]
 276:./Libraries/STM32F4xx_HAL_Driver/Src/stm32f4xx_hal_dma.c **** 
 538              		.loc 1 276 7 view .LVU180
 539 007c 1D43     		orrs	r5, r5, r3
 540              	.LVL58:
 279:./Libraries/STM32F4xx_HAL_Driver/Src/stm32f4xx_hal_dma.c ****   {
 541              		.loc 1 279 3 is_stmt 1 view .LVU181
 279:./Libraries/STM32F4xx_HAL_Driver/Src/stm32f4xx_hal_dma.c ****   {
 542              		.loc 1 279 5 is_stmt 0 view .LVU182
 543 007e 042B     		cmp	r3, #4
 544 0080 07D1     		bne	.L37
 282:./Libraries/STM32F4xx_HAL_Driver/Src/stm32f4xx_hal_dma.c ****     
 545              		.loc 1 282 5 is_stmt 1 view .LVU183
 282:./Libraries/STM32F4xx_HAL_Driver/Src/stm32f4xx_hal_dma.c ****     
 546              		.loc 1 282 22 is_stmt 0 view .LVU184
 547 0082 A36A     		ldr	r3, [r4, #40]
 282:./Libraries/STM32F4xx_HAL_Driver/Src/stm32f4xx_hal_dma.c ****     
 548              		.loc 1 282 9 view .LVU185
 549 0084 1D43     		orrs	r5, r5, r3
 550              	.LVL59:
 286:./Libraries/STM32F4xx_HAL_Driver/Src/stm32f4xx_hal_dma.c ****     {
 551              		.loc 1 286 5 is_stmt 1 view .LVU186
 286:./Libraries/STM32F4xx_HAL_Driver/Src/stm32f4xx_hal_dma.c ****     {
 552              		.loc 1 286 19 is_stmt 0 view .LVU187
 553 0086 E36A     		ldr	r3, [r4, #44]
 286:./Libraries/STM32F4xx_HAL_Driver/Src/stm32f4xx_hal_dma.c ****     {
 554              		.loc 1 286 8 view .LVU188
 555 0088 1BB1     		cbz	r3, .L37
 288:./Libraries/STM32F4xx_HAL_Driver/Src/stm32f4xx_hal_dma.c ****       {
 556              		.loc 1 288 7 is_stmt 1 view .LVU189
 288:./Libraries/STM32F4xx_HAL_Driver/Src/stm32f4xx_hal_dma.c ****       {
 557              		.loc 1 288 11 is_stmt 0 view .LVU190
 558 008a 2046     		mov	r0, r4
 559 008c FFF7FEFF 		bl	DMA_CheckFifoParam
 560              	.LVL60:
 288:./Libraries/STM32F4xx_HAL_Driver/Src/stm32f4xx_hal_dma.c ****       {
 561              		.loc 1 288 10 view .LVU191
 562 0090 90B9     		cbnz	r0, .L42
 563              	.L37:
 302:./Libraries/STM32F4xx_HAL_Driver/Src/stm32f4xx_hal_dma.c **** 
 564              		.loc 1 302 3 is_stmt 1 view .LVU192
 302:./Libraries/STM32F4xx_HAL_Driver/Src/stm32f4xx_hal_dma.c **** 
 565              		.loc 1 302 23 is_stmt 0 view .LVU193
 566 0092 7561     		str	r5, [r6, #20]
 306:./Libraries/STM32F4xx_HAL_Driver/Src/stm32f4xx_hal_dma.c ****   
 567              		.loc 1 306 3 is_stmt 1 view .LVU194
 306:./Libraries/STM32F4xx_HAL_Driver/Src/stm32f4xx_hal_dma.c ****   
 568              		.loc 1 306 32 is_stmt 0 view .LVU195
 569 0094 2046     		mov	r0, r4
ARM GAS  /tmp/cc0WhI97.s 			page 36


 570 0096 FFF7FEFF 		bl	DMA_CalcBaseAndBitshift
 571              	.LVL61:
 309:./Libraries/STM32F4xx_HAL_Driver/Src/stm32f4xx_hal_dma.c **** 
 572              		.loc 1 309 3 is_stmt 1 view .LVU196
 309:./Libraries/STM32F4xx_HAL_Driver/Src/stm32f4xx_hal_dma.c **** 
 573              		.loc 1 309 29 is_stmt 0 view .LVU197
 574 009a E26D     		ldr	r2, [r4, #92]
 309:./Libraries/STM32F4xx_HAL_Driver/Src/stm32f4xx_hal_dma.c **** 
 575              		.loc 1 309 22 view .LVU198
 576 009c 3F23     		movs	r3, #63
 577 009e 9340     		lsls	r3, r3, r2
 309:./Libraries/STM32F4xx_HAL_Driver/Src/stm32f4xx_hal_dma.c **** 
 578              		.loc 1 309 14 view .LVU199
 579 00a0 8360     		str	r3, [r0, #8]
 312:./Libraries/STM32F4xx_HAL_Driver/Src/stm32f4xx_hal_dma.c ****                                                                                      
 580              		.loc 1 312 3 is_stmt 1 view .LVU200
 312:./Libraries/STM32F4xx_HAL_Driver/Src/stm32f4xx_hal_dma.c ****                                                                                      
 581              		.loc 1 312 19 is_stmt 0 view .LVU201
 582 00a2 0020     		movs	r0, #0
 583              	.LVL62:
 312:./Libraries/STM32F4xx_HAL_Driver/Src/stm32f4xx_hal_dma.c ****                                                                                      
 584              		.loc 1 312 19 view .LVU202
 585 00a4 6065     		str	r0, [r4, #84]
 315:./Libraries/STM32F4xx_HAL_Driver/Src/stm32f4xx_hal_dma.c **** 
 586              		.loc 1 315 3 is_stmt 1 view .LVU203
 315:./Libraries/STM32F4xx_HAL_Driver/Src/stm32f4xx_hal_dma.c **** 
 587              		.loc 1 315 15 is_stmt 0 view .LVU204
 588 00a6 0123     		movs	r3, #1
 589 00a8 84F83530 		strb	r3, [r4, #53]
 317:./Libraries/STM32F4xx_HAL_Driver/Src/stm32f4xx_hal_dma.c **** }
 590              		.loc 1 317 3 is_stmt 1 view .LVU205
 317:./Libraries/STM32F4xx_HAL_Driver/Src/stm32f4xx_hal_dma.c **** }
 591              		.loc 1 317 10 is_stmt 0 view .LVU206
 592 00ac C9E7     		b	.L33
 593              	.LVL63:
 594              	.L41:
 263:./Libraries/STM32F4xx_HAL_Driver/Src/stm32f4xx_hal_dma.c ****   }
 595              		.loc 1 263 5 is_stmt 1 view .LVU207
 263:./Libraries/STM32F4xx_HAL_Driver/Src/stm32f4xx_hal_dma.c ****   }
 596              		.loc 1 263 23 is_stmt 0 view .LVU208
 597 00ae E16A     		ldr	r1, [r4, #44]
 263:./Libraries/STM32F4xx_HAL_Driver/Src/stm32f4xx_hal_dma.c ****   }
 598              		.loc 1 263 45 view .LVU209
 599 00b0 206B     		ldr	r0, [r4, #48]
 263:./Libraries/STM32F4xx_HAL_Driver/Src/stm32f4xx_hal_dma.c ****   }
 600              		.loc 1 263 33 view .LVU210
 601 00b2 0143     		orrs	r1, r1, r0
 263:./Libraries/STM32F4xx_HAL_Driver/Src/stm32f4xx_hal_dma.c ****   }
 602              		.loc 1 263 9 view .LVU211
 603 00b4 0A43     		orrs	r2, r2, r1
 604              	.LVL64:
 263:./Libraries/STM32F4xx_HAL_Driver/Src/stm32f4xx_hal_dma.c ****   }
 605              		.loc 1 263 9 view .LVU212
 606 00b6 DBE7     		b	.L36
 607              	.LVL65:
 608              	.L42:
 291:./Libraries/STM32F4xx_HAL_Driver/Src/stm32f4xx_hal_dma.c ****         
ARM GAS  /tmp/cc0WhI97.s 			page 37


 609              		.loc 1 291 9 is_stmt 1 view .LVU213
 291:./Libraries/STM32F4xx_HAL_Driver/Src/stm32f4xx_hal_dma.c ****         
 610              		.loc 1 291 25 is_stmt 0 view .LVU214
 611 00b8 4023     		movs	r3, #64
 612 00ba 6365     		str	r3, [r4, #84]
 294:./Libraries/STM32F4xx_HAL_Driver/Src/stm32f4xx_hal_dma.c ****         
 613              		.loc 1 294 9 is_stmt 1 view .LVU215
 294:./Libraries/STM32F4xx_HAL_Driver/Src/stm32f4xx_hal_dma.c ****         
 614              		.loc 1 294 21 is_stmt 0 view .LVU216
 615 00bc 0120     		movs	r0, #1
 616 00be 84F83500 		strb	r0, [r4, #53]
 296:./Libraries/STM32F4xx_HAL_Driver/Src/stm32f4xx_hal_dma.c ****       }
 617              		.loc 1 296 9 is_stmt 1 view .LVU217
 296:./Libraries/STM32F4xx_HAL_Driver/Src/stm32f4xx_hal_dma.c ****       }
 618              		.loc 1 296 16 is_stmt 0 view .LVU218
 619 00c2 BEE7     		b	.L33
 620              	.LVL66:
 621              	.L38:
 196:./Libraries/STM32F4xx_HAL_Driver/Src/stm32f4xx_hal_dma.c ****   }
 622              		.loc 1 196 12 view .LVU219
 623 00c4 0120     		movs	r0, #1
 624              	.LVL67:
 196:./Libraries/STM32F4xx_HAL_Driver/Src/stm32f4xx_hal_dma.c ****   }
 625              		.loc 1 196 12 view .LVU220
 626 00c6 BCE7     		b	.L33
 627              	.L44:
 628              		.align	2
 629              	.L43:
 630 00c8 3F8010F0 		.word	-267354049
 631              		.cfi_endproc
 632              	.LFE126:
 634              		.section	.text.HAL_DMA_DeInit,"ax",%progbits
 635              		.align	1
 636              		.global	HAL_DMA_DeInit
 637              		.syntax unified
 638              		.thumb
 639              		.thumb_func
 640              		.fpu fpv4-sp-d16
 642              	HAL_DMA_DeInit:
 643              	.LVL68:
 644              	.LFB127:
 327:./Libraries/STM32F4xx_HAL_Driver/Src/stm32f4xx_hal_dma.c ****   DMA_Base_Registers *regs;
 645              		.loc 1 327 1 is_stmt 1 view -0
 646              		.cfi_startproc
 647              		@ args = 0, pretend = 0, frame = 0
 648              		@ frame_needed = 0, uses_anonymous_args = 0
 328:./Libraries/STM32F4xx_HAL_Driver/Src/stm32f4xx_hal_dma.c **** 
 649              		.loc 1 328 3 view .LVU222
 331:./Libraries/STM32F4xx_HAL_Driver/Src/stm32f4xx_hal_dma.c ****   {
 650              		.loc 1 331 3 view .LVU223
 331:./Libraries/STM32F4xx_HAL_Driver/Src/stm32f4xx_hal_dma.c ****   {
 651              		.loc 1 331 5 is_stmt 0 view .LVU224
 652 0000 38B3     		cbz	r0, .L47
 327:./Libraries/STM32F4xx_HAL_Driver/Src/stm32f4xx_hal_dma.c ****   DMA_Base_Registers *regs;
 653              		.loc 1 327 1 view .LVU225
 654 0002 38B5     		push	{r3, r4, r5, lr}
 655              	.LCFI7:
ARM GAS  /tmp/cc0WhI97.s 			page 38


 656              		.cfi_def_cfa_offset 16
 657              		.cfi_offset 3, -16
 658              		.cfi_offset 4, -12
 659              		.cfi_offset 5, -8
 660              		.cfi_offset 14, -4
 661 0004 0546     		mov	r5, r0
 337:./Libraries/STM32F4xx_HAL_Driver/Src/stm32f4xx_hal_dma.c ****   {
 662              		.loc 1 337 3 is_stmt 1 view .LVU226
 337:./Libraries/STM32F4xx_HAL_Driver/Src/stm32f4xx_hal_dma.c ****   {
 663              		.loc 1 337 10 is_stmt 0 view .LVU227
 664 0006 90F83500 		ldrb	r0, [r0, #53]	@ zero_extendqisi2
 665              	.LVL69:
 337:./Libraries/STM32F4xx_HAL_Driver/Src/stm32f4xx_hal_dma.c ****   {
 666              		.loc 1 337 10 view .LVU228
 667 000a C0B2     		uxtb	r0, r0
 337:./Libraries/STM32F4xx_HAL_Driver/Src/stm32f4xx_hal_dma.c ****   {
 668              		.loc 1 337 5 view .LVU229
 669 000c 0228     		cmp	r0, #2
 670 000e 1FD0     		beq	.L46
 344:./Libraries/STM32F4xx_HAL_Driver/Src/stm32f4xx_hal_dma.c **** 
 671              		.loc 1 344 3 is_stmt 1 view .LVU230
 347:./Libraries/STM32F4xx_HAL_Driver/Src/stm32f4xx_hal_dma.c **** 
 672              		.loc 1 347 3 view .LVU231
 673 0010 2A68     		ldr	r2, [r5]
 674 0012 1368     		ldr	r3, [r2]
 675 0014 23F00103 		bic	r3, r3, #1
 676 0018 1360     		str	r3, [r2]
 350:./Libraries/STM32F4xx_HAL_Driver/Src/stm32f4xx_hal_dma.c **** 
 677              		.loc 1 350 3 view .LVU232
 350:./Libraries/STM32F4xx_HAL_Driver/Src/stm32f4xx_hal_dma.c **** 
 678              		.loc 1 350 7 is_stmt 0 view .LVU233
 679 001a 2B68     		ldr	r3, [r5]
 350:./Libraries/STM32F4xx_HAL_Driver/Src/stm32f4xx_hal_dma.c **** 
 680              		.loc 1 350 24 view .LVU234
 681 001c 0024     		movs	r4, #0
 682 001e 1C60     		str	r4, [r3]
 353:./Libraries/STM32F4xx_HAL_Driver/Src/stm32f4xx_hal_dma.c **** 
 683              		.loc 1 353 3 is_stmt 1 view .LVU235
 353:./Libraries/STM32F4xx_HAL_Driver/Src/stm32f4xx_hal_dma.c **** 
 684              		.loc 1 353 7 is_stmt 0 view .LVU236
 685 0020 2B68     		ldr	r3, [r5]
 353:./Libraries/STM32F4xx_HAL_Driver/Src/stm32f4xx_hal_dma.c **** 
 686              		.loc 1 353 24 view .LVU237
 687 0022 5C60     		str	r4, [r3, #4]
 356:./Libraries/STM32F4xx_HAL_Driver/Src/stm32f4xx_hal_dma.c **** 
 688              		.loc 1 356 3 is_stmt 1 view .LVU238
 356:./Libraries/STM32F4xx_HAL_Driver/Src/stm32f4xx_hal_dma.c **** 
 689              		.loc 1 356 7 is_stmt 0 view .LVU239
 690 0024 2B68     		ldr	r3, [r5]
 356:./Libraries/STM32F4xx_HAL_Driver/Src/stm32f4xx_hal_dma.c **** 
 691              		.loc 1 356 24 view .LVU240
 692 0026 9C60     		str	r4, [r3, #8]
 359:./Libraries/STM32F4xx_HAL_Driver/Src/stm32f4xx_hal_dma.c ****   
 693              		.loc 1 359 3 is_stmt 1 view .LVU241
 359:./Libraries/STM32F4xx_HAL_Driver/Src/stm32f4xx_hal_dma.c ****   
 694              		.loc 1 359 7 is_stmt 0 view .LVU242
 695 0028 2B68     		ldr	r3, [r5]
ARM GAS  /tmp/cc0WhI97.s 			page 39


 359:./Libraries/STM32F4xx_HAL_Driver/Src/stm32f4xx_hal_dma.c ****   
 696              		.loc 1 359 24 view .LVU243
 697 002a DC60     		str	r4, [r3, #12]
 362:./Libraries/STM32F4xx_HAL_Driver/Src/stm32f4xx_hal_dma.c ****   
 698              		.loc 1 362 3 is_stmt 1 view .LVU244
 362:./Libraries/STM32F4xx_HAL_Driver/Src/stm32f4xx_hal_dma.c ****   
 699              		.loc 1 362 7 is_stmt 0 view .LVU245
 700 002c 2B68     		ldr	r3, [r5]
 362:./Libraries/STM32F4xx_HAL_Driver/Src/stm32f4xx_hal_dma.c ****   
 701              		.loc 1 362 24 view .LVU246
 702 002e 1C61     		str	r4, [r3, #16]
 365:./Libraries/STM32F4xx_HAL_Driver/Src/stm32f4xx_hal_dma.c ****   
 703              		.loc 1 365 3 is_stmt 1 view .LVU247
 365:./Libraries/STM32F4xx_HAL_Driver/Src/stm32f4xx_hal_dma.c ****   
 704              		.loc 1 365 7 is_stmt 0 view .LVU248
 705 0030 2B68     		ldr	r3, [r5]
 365:./Libraries/STM32F4xx_HAL_Driver/Src/stm32f4xx_hal_dma.c ****   
 706              		.loc 1 365 24 view .LVU249
 707 0032 2122     		movs	r2, #33
 708 0034 5A61     		str	r2, [r3, #20]
 368:./Libraries/STM32F4xx_HAL_Driver/Src/stm32f4xx_hal_dma.c ****   
 709              		.loc 1 368 3 is_stmt 1 view .LVU250
 368:./Libraries/STM32F4xx_HAL_Driver/Src/stm32f4xx_hal_dma.c ****   
 710              		.loc 1 368 32 is_stmt 0 view .LVU251
 711 0036 2846     		mov	r0, r5
 712 0038 FFF7FEFF 		bl	DMA_CalcBaseAndBitshift
 713              	.LVL70:
 371:./Libraries/STM32F4xx_HAL_Driver/Src/stm32f4xx_hal_dma.c **** 
 714              		.loc 1 371 3 is_stmt 1 view .LVU252
 371:./Libraries/STM32F4xx_HAL_Driver/Src/stm32f4xx_hal_dma.c **** 
 715              		.loc 1 371 29 is_stmt 0 view .LVU253
 716 003c EA6D     		ldr	r2, [r5, #92]
 371:./Libraries/STM32F4xx_HAL_Driver/Src/stm32f4xx_hal_dma.c **** 
 717              		.loc 1 371 22 view .LVU254
 718 003e 3F23     		movs	r3, #63
 719 0040 9340     		lsls	r3, r3, r2
 371:./Libraries/STM32F4xx_HAL_Driver/Src/stm32f4xx_hal_dma.c **** 
 720              		.loc 1 371 14 view .LVU255
 721 0042 8360     		str	r3, [r0, #8]
 374:./Libraries/STM32F4xx_HAL_Driver/Src/stm32f4xx_hal_dma.c **** 
 722              		.loc 1 374 3 is_stmt 1 view .LVU256
 374:./Libraries/STM32F4xx_HAL_Driver/Src/stm32f4xx_hal_dma.c **** 
 723              		.loc 1 374 19 is_stmt 0 view .LVU257
 724 0044 6C65     		str	r4, [r5, #84]
 377:./Libraries/STM32F4xx_HAL_Driver/Src/stm32f4xx_hal_dma.c **** 
 725              		.loc 1 377 3 is_stmt 1 view .LVU258
 377:./Libraries/STM32F4xx_HAL_Driver/Src/stm32f4xx_hal_dma.c **** 
 726              		.loc 1 377 15 is_stmt 0 view .LVU259
 727 0046 85F83540 		strb	r4, [r5, #53]
 380:./Libraries/STM32F4xx_HAL_Driver/Src/stm32f4xx_hal_dma.c **** 
 728              		.loc 1 380 3 is_stmt 1 view .LVU260
 380:./Libraries/STM32F4xx_HAL_Driver/Src/stm32f4xx_hal_dma.c **** 
 729              		.loc 1 380 3 view .LVU261
 730 004a 85F83440 		strb	r4, [r5, #52]
 380:./Libraries/STM32F4xx_HAL_Driver/Src/stm32f4xx_hal_dma.c **** 
 731              		.loc 1 380 3 view .LVU262
 382:./Libraries/STM32F4xx_HAL_Driver/Src/stm32f4xx_hal_dma.c **** }
ARM GAS  /tmp/cc0WhI97.s 			page 40


 732              		.loc 1 382 3 view .LVU263
 382:./Libraries/STM32F4xx_HAL_Driver/Src/stm32f4xx_hal_dma.c **** }
 733              		.loc 1 382 10 is_stmt 0 view .LVU264
 734 004e 2046     		mov	r0, r4
 735              	.LVL71:
 736              	.L46:
 383:./Libraries/STM32F4xx_HAL_Driver/Src/stm32f4xx_hal_dma.c **** 
 737              		.loc 1 383 1 view .LVU265
 738 0050 38BD     		pop	{r3, r4, r5, pc}
 739              	.LVL72:
 740              	.L47:
 741              	.LCFI8:
 742              		.cfi_def_cfa_offset 0
 743              		.cfi_restore 3
 744              		.cfi_restore 4
 745              		.cfi_restore 5
 746              		.cfi_restore 14
 333:./Libraries/STM32F4xx_HAL_Driver/Src/stm32f4xx_hal_dma.c ****   }
 747              		.loc 1 333 12 view .LVU266
 748 0052 0120     		movs	r0, #1
 749              	.LVL73:
 383:./Libraries/STM32F4xx_HAL_Driver/Src/stm32f4xx_hal_dma.c **** 
 750              		.loc 1 383 1 view .LVU267
 751 0054 7047     		bx	lr
 752              		.cfi_endproc
 753              	.LFE127:
 755              		.section	.text.HAL_DMA_Start,"ax",%progbits
 756              		.align	1
 757              		.global	HAL_DMA_Start
 758              		.syntax unified
 759              		.thumb
 760              		.thumb_func
 761              		.fpu fpv4-sp-d16
 763              	HAL_DMA_Start:
 764              	.LVL74:
 765              	.LFB128:
 417:./Libraries/STM32F4xx_HAL_Driver/Src/stm32f4xx_hal_dma.c ****   HAL_StatusTypeDef status = HAL_OK;
 766              		.loc 1 417 1 is_stmt 1 view -0
 767              		.cfi_startproc
 768              		@ args = 0, pretend = 0, frame = 0
 769              		@ frame_needed = 0, uses_anonymous_args = 0
 417:./Libraries/STM32F4xx_HAL_Driver/Src/stm32f4xx_hal_dma.c ****   HAL_StatusTypeDef status = HAL_OK;
 770              		.loc 1 417 1 is_stmt 0 view .LVU269
 771 0000 38B5     		push	{r3, r4, r5, lr}
 772              	.LCFI9:
 773              		.cfi_def_cfa_offset 16
 774              		.cfi_offset 3, -16
 775              		.cfi_offset 4, -12
 776              		.cfi_offset 5, -8
 777              		.cfi_offset 14, -4
 778 0002 0446     		mov	r4, r0
 418:./Libraries/STM32F4xx_HAL_Driver/Src/stm32f4xx_hal_dma.c ****   
 779              		.loc 1 418 3 is_stmt 1 view .LVU270
 780              	.LVL75:
 421:./Libraries/STM32F4xx_HAL_Driver/Src/stm32f4xx_hal_dma.c **** 
 781              		.loc 1 421 3 view .LVU271
 424:./Libraries/STM32F4xx_HAL_Driver/Src/stm32f4xx_hal_dma.c **** 
ARM GAS  /tmp/cc0WhI97.s 			page 41


 782              		.loc 1 424 3 view .LVU272
 424:./Libraries/STM32F4xx_HAL_Driver/Src/stm32f4xx_hal_dma.c **** 
 783              		.loc 1 424 3 view .LVU273
 784 0004 90F83400 		ldrb	r0, [r0, #52]	@ zero_extendqisi2
 785              	.LVL76:
 424:./Libraries/STM32F4xx_HAL_Driver/Src/stm32f4xx_hal_dma.c **** 
 786              		.loc 1 424 3 is_stmt 0 view .LVU274
 787 0008 0128     		cmp	r0, #1
 788 000a 1BD0     		beq	.L55
 424:./Libraries/STM32F4xx_HAL_Driver/Src/stm32f4xx_hal_dma.c **** 
 789              		.loc 1 424 3 is_stmt 1 discriminator 2 view .LVU275
 790 000c 0120     		movs	r0, #1
 791 000e 84F83400 		strb	r0, [r4, #52]
 424:./Libraries/STM32F4xx_HAL_Driver/Src/stm32f4xx_hal_dma.c **** 
 792              		.loc 1 424 3 discriminator 2 view .LVU276
 426:./Libraries/STM32F4xx_HAL_Driver/Src/stm32f4xx_hal_dma.c ****   {
 793              		.loc 1 426 3 discriminator 2 view .LVU277
 426:./Libraries/STM32F4xx_HAL_Driver/Src/stm32f4xx_hal_dma.c ****   {
 794              		.loc 1 426 33 is_stmt 0 discriminator 2 view .LVU278
 795 0012 94F83500 		ldrb	r0, [r4, #53]	@ zero_extendqisi2
 796 0016 C0B2     		uxtb	r0, r0
 426:./Libraries/STM32F4xx_HAL_Driver/Src/stm32f4xx_hal_dma.c ****   {
 797              		.loc 1 426 5 discriminator 2 view .LVU279
 798 0018 0128     		cmp	r0, #1
 799 001a 04D0     		beq	.L57
 443:./Libraries/STM32F4xx_HAL_Driver/Src/stm32f4xx_hal_dma.c ****     
 800              		.loc 1 443 5 is_stmt 1 view .LVU280
 443:./Libraries/STM32F4xx_HAL_Driver/Src/stm32f4xx_hal_dma.c ****     
 801              		.loc 1 443 5 view .LVU281
 802 001c 0023     		movs	r3, #0
 803              	.LVL77:
 443:./Libraries/STM32F4xx_HAL_Driver/Src/stm32f4xx_hal_dma.c ****     
 804              		.loc 1 443 5 is_stmt 0 view .LVU282
 805 001e 84F83430 		strb	r3, [r4, #52]
 443:./Libraries/STM32F4xx_HAL_Driver/Src/stm32f4xx_hal_dma.c ****     
 806              		.loc 1 443 5 is_stmt 1 view .LVU283
 446:./Libraries/STM32F4xx_HAL_Driver/Src/stm32f4xx_hal_dma.c ****   } 
 807              		.loc 1 446 5 view .LVU284
 808              	.LVL78:
 446:./Libraries/STM32F4xx_HAL_Driver/Src/stm32f4xx_hal_dma.c ****   } 
 809              		.loc 1 446 12 is_stmt 0 view .LVU285
 810 0022 0220     		movs	r0, #2
 811              	.LVL79:
 812              	.L53:
 449:./Libraries/STM32F4xx_HAL_Driver/Src/stm32f4xx_hal_dma.c **** 
 813              		.loc 1 449 1 view .LVU286
 814 0024 38BD     		pop	{r3, r4, r5, pc}
 815              	.LVL80:
 816              	.L57:
 429:./Libraries/STM32F4xx_HAL_Driver/Src/stm32f4xx_hal_dma.c ****     
 817              		.loc 1 429 5 is_stmt 1 view .LVU287
 429:./Libraries/STM32F4xx_HAL_Driver/Src/stm32f4xx_hal_dma.c ****     
 818              		.loc 1 429 17 is_stmt 0 view .LVU288
 819 0026 0220     		movs	r0, #2
 820 0028 84F83500 		strb	r0, [r4, #53]
 432:./Libraries/STM32F4xx_HAL_Driver/Src/stm32f4xx_hal_dma.c ****     
 821              		.loc 1 432 5 is_stmt 1 view .LVU289
ARM GAS  /tmp/cc0WhI97.s 			page 42


 432:./Libraries/STM32F4xx_HAL_Driver/Src/stm32f4xx_hal_dma.c ****     
 822              		.loc 1 432 21 is_stmt 0 view .LVU290
 823 002c 0025     		movs	r5, #0
 824 002e 6565     		str	r5, [r4, #84]
 435:./Libraries/STM32F4xx_HAL_Driver/Src/stm32f4xx_hal_dma.c **** 
 825              		.loc 1 435 5 is_stmt 1 view .LVU291
 826 0030 2046     		mov	r0, r4
 827 0032 FFF7FEFF 		bl	DMA_SetConfig
 828              	.LVL81:
 438:./Libraries/STM32F4xx_HAL_Driver/Src/stm32f4xx_hal_dma.c ****   }
 829              		.loc 1 438 5 view .LVU292
 830 0036 2268     		ldr	r2, [r4]
 831 0038 1368     		ldr	r3, [r2]
 832 003a 43F00103 		orr	r3, r3, #1
 833 003e 1360     		str	r3, [r2]
 418:./Libraries/STM32F4xx_HAL_Driver/Src/stm32f4xx_hal_dma.c ****   
 834              		.loc 1 418 21 is_stmt 0 view .LVU293
 835 0040 2846     		mov	r0, r5
 836 0042 EFE7     		b	.L53
 837              	.LVL82:
 838              	.L55:
 424:./Libraries/STM32F4xx_HAL_Driver/Src/stm32f4xx_hal_dma.c **** 
 839              		.loc 1 424 3 view .LVU294
 840 0044 0220     		movs	r0, #2
 841 0046 EDE7     		b	.L53
 842              		.cfi_endproc
 843              	.LFE128:
 845              		.section	.text.HAL_DMA_Start_IT,"ax",%progbits
 846              		.align	1
 847              		.global	HAL_DMA_Start_IT
 848              		.syntax unified
 849              		.thumb
 850              		.thumb_func
 851              		.fpu fpv4-sp-d16
 853              	HAL_DMA_Start_IT:
 854              	.LVL83:
 855              	.LFB129:
 461:./Libraries/STM32F4xx_HAL_Driver/Src/stm32f4xx_hal_dma.c ****   HAL_StatusTypeDef status = HAL_OK;
 856              		.loc 1 461 1 is_stmt 1 view -0
 857              		.cfi_startproc
 858              		@ args = 0, pretend = 0, frame = 0
 859              		@ frame_needed = 0, uses_anonymous_args = 0
 461:./Libraries/STM32F4xx_HAL_Driver/Src/stm32f4xx_hal_dma.c ****   HAL_StatusTypeDef status = HAL_OK;
 860              		.loc 1 461 1 is_stmt 0 view .LVU296
 861 0000 38B5     		push	{r3, r4, r5, lr}
 862              	.LCFI10:
 863              		.cfi_def_cfa_offset 16
 864              		.cfi_offset 3, -16
 865              		.cfi_offset 4, -12
 866              		.cfi_offset 5, -8
 867              		.cfi_offset 14, -4
 868 0002 0446     		mov	r4, r0
 462:./Libraries/STM32F4xx_HAL_Driver/Src/stm32f4xx_hal_dma.c **** 
 869              		.loc 1 462 3 is_stmt 1 view .LVU297
 870              	.LVL84:
 465:./Libraries/STM32F4xx_HAL_Driver/Src/stm32f4xx_hal_dma.c ****   
 871              		.loc 1 465 3 view .LVU298
ARM GAS  /tmp/cc0WhI97.s 			page 43


 465:./Libraries/STM32F4xx_HAL_Driver/Src/stm32f4xx_hal_dma.c ****   
 872              		.loc 1 465 56 is_stmt 0 view .LVU299
 873 0004 856D     		ldr	r5, [r0, #88]
 874              	.LVL85:
 468:./Libraries/STM32F4xx_HAL_Driver/Src/stm32f4xx_hal_dma.c ****  
 875              		.loc 1 468 3 is_stmt 1 view .LVU300
 471:./Libraries/STM32F4xx_HAL_Driver/Src/stm32f4xx_hal_dma.c ****   
 876              		.loc 1 471 3 view .LVU301
 471:./Libraries/STM32F4xx_HAL_Driver/Src/stm32f4xx_hal_dma.c ****   
 877              		.loc 1 471 3 view .LVU302
 878 0006 90F83400 		ldrb	r0, [r0, #52]	@ zero_extendqisi2
 879              	.LVL86:
 471:./Libraries/STM32F4xx_HAL_Driver/Src/stm32f4xx_hal_dma.c ****   
 880              		.loc 1 471 3 is_stmt 0 view .LVU303
 881 000a 0128     		cmp	r0, #1
 882 000c 30D0     		beq	.L62
 471:./Libraries/STM32F4xx_HAL_Driver/Src/stm32f4xx_hal_dma.c ****   
 883              		.loc 1 471 3 is_stmt 1 discriminator 2 view .LVU304
 884 000e 0120     		movs	r0, #1
 885 0010 84F83400 		strb	r0, [r4, #52]
 471:./Libraries/STM32F4xx_HAL_Driver/Src/stm32f4xx_hal_dma.c ****   
 886              		.loc 1 471 3 discriminator 2 view .LVU305
 473:./Libraries/STM32F4xx_HAL_Driver/Src/stm32f4xx_hal_dma.c ****   {
 887              		.loc 1 473 3 discriminator 2 view .LVU306
 473:./Libraries/STM32F4xx_HAL_Driver/Src/stm32f4xx_hal_dma.c ****   {
 888              		.loc 1 473 33 is_stmt 0 discriminator 2 view .LVU307
 889 0014 94F83500 		ldrb	r0, [r4, #53]	@ zero_extendqisi2
 890 0018 C0B2     		uxtb	r0, r0
 473:./Libraries/STM32F4xx_HAL_Driver/Src/stm32f4xx_hal_dma.c ****   {
 891              		.loc 1 473 5 discriminator 2 view .LVU308
 892 001a 0128     		cmp	r0, #1
 893 001c 04D0     		beq	.L64
 502:./Libraries/STM32F4xx_HAL_Driver/Src/stm32f4xx_hal_dma.c ****     
 894              		.loc 1 502 5 is_stmt 1 view .LVU309
 502:./Libraries/STM32F4xx_HAL_Driver/Src/stm32f4xx_hal_dma.c ****     
 895              		.loc 1 502 5 view .LVU310
 896 001e 0023     		movs	r3, #0
 897              	.LVL87:
 502:./Libraries/STM32F4xx_HAL_Driver/Src/stm32f4xx_hal_dma.c ****     
 898              		.loc 1 502 5 is_stmt 0 view .LVU311
 899 0020 84F83430 		strb	r3, [r4, #52]
 502:./Libraries/STM32F4xx_HAL_Driver/Src/stm32f4xx_hal_dma.c ****     
 900              		.loc 1 502 5 is_stmt 1 view .LVU312
 505:./Libraries/STM32F4xx_HAL_Driver/Src/stm32f4xx_hal_dma.c ****   }
 901              		.loc 1 505 5 view .LVU313
 902              	.LVL88:
 505:./Libraries/STM32F4xx_HAL_Driver/Src/stm32f4xx_hal_dma.c ****   }
 903              		.loc 1 505 12 is_stmt 0 view .LVU314
 904 0024 0220     		movs	r0, #2
 905              	.LVL89:
 906              	.L59:
 509:./Libraries/STM32F4xx_HAL_Driver/Src/stm32f4xx_hal_dma.c **** 
 907              		.loc 1 509 1 view .LVU315
 908 0026 38BD     		pop	{r3, r4, r5, pc}
 909              	.LVL90:
 910              	.L64:
 476:./Libraries/STM32F4xx_HAL_Driver/Src/stm32f4xx_hal_dma.c ****     
ARM GAS  /tmp/cc0WhI97.s 			page 44


 911              		.loc 1 476 5 is_stmt 1 view .LVU316
 476:./Libraries/STM32F4xx_HAL_Driver/Src/stm32f4xx_hal_dma.c ****     
 912              		.loc 1 476 17 is_stmt 0 view .LVU317
 913 0028 0220     		movs	r0, #2
 914 002a 84F83500 		strb	r0, [r4, #53]
 479:./Libraries/STM32F4xx_HAL_Driver/Src/stm32f4xx_hal_dma.c ****     
 915              		.loc 1 479 5 is_stmt 1 view .LVU318
 479:./Libraries/STM32F4xx_HAL_Driver/Src/stm32f4xx_hal_dma.c ****     
 916              		.loc 1 479 21 is_stmt 0 view .LVU319
 917 002e 0020     		movs	r0, #0
 918 0030 6065     		str	r0, [r4, #84]
 482:./Libraries/STM32F4xx_HAL_Driver/Src/stm32f4xx_hal_dma.c ****     
 919              		.loc 1 482 5 is_stmt 1 view .LVU320
 920 0032 2046     		mov	r0, r4
 921 0034 FFF7FEFF 		bl	DMA_SetConfig
 922              	.LVL91:
 485:./Libraries/STM32F4xx_HAL_Driver/Src/stm32f4xx_hal_dma.c ****     
 923              		.loc 1 485 5 view .LVU321
 485:./Libraries/STM32F4xx_HAL_Driver/Src/stm32f4xx_hal_dma.c ****     
 924              		.loc 1 485 31 is_stmt 0 view .LVU322
 925 0038 E26D     		ldr	r2, [r4, #92]
 485:./Libraries/STM32F4xx_HAL_Driver/Src/stm32f4xx_hal_dma.c ****     
 926              		.loc 1 485 24 view .LVU323
 927 003a 3F23     		movs	r3, #63
 928 003c 9340     		lsls	r3, r3, r2
 485:./Libraries/STM32F4xx_HAL_Driver/Src/stm32f4xx_hal_dma.c ****     
 929              		.loc 1 485 16 view .LVU324
 930 003e AB60     		str	r3, [r5, #8]
 488:./Libraries/STM32F4xx_HAL_Driver/Src/stm32f4xx_hal_dma.c ****     hdma->Instance->FCR |= DMA_IT_FE;
 931              		.loc 1 488 5 is_stmt 1 view .LVU325
 488:./Libraries/STM32F4xx_HAL_Driver/Src/stm32f4xx_hal_dma.c ****     hdma->Instance->FCR |= DMA_IT_FE;
 932              		.loc 1 488 9 is_stmt 0 view .LVU326
 933 0040 2268     		ldr	r2, [r4]
 488:./Libraries/STM32F4xx_HAL_Driver/Src/stm32f4xx_hal_dma.c ****     hdma->Instance->FCR |= DMA_IT_FE;
 934              		.loc 1 488 25 view .LVU327
 935 0042 1368     		ldr	r3, [r2]
 936 0044 43F01603 		orr	r3, r3, #22
 937 0048 1360     		str	r3, [r2]
 489:./Libraries/STM32F4xx_HAL_Driver/Src/stm32f4xx_hal_dma.c ****     
 938              		.loc 1 489 5 is_stmt 1 view .LVU328
 489:./Libraries/STM32F4xx_HAL_Driver/Src/stm32f4xx_hal_dma.c ****     
 939              		.loc 1 489 9 is_stmt 0 view .LVU329
 940 004a 2268     		ldr	r2, [r4]
 489:./Libraries/STM32F4xx_HAL_Driver/Src/stm32f4xx_hal_dma.c ****     
 941              		.loc 1 489 25 view .LVU330
 942 004c 5369     		ldr	r3, [r2, #20]
 943 004e 43F08003 		orr	r3, r3, #128
 944 0052 5361     		str	r3, [r2, #20]
 491:./Libraries/STM32F4xx_HAL_Driver/Src/stm32f4xx_hal_dma.c ****     {
 945              		.loc 1 491 5 is_stmt 1 view .LVU331
 491:./Libraries/STM32F4xx_HAL_Driver/Src/stm32f4xx_hal_dma.c ****     {
 946              		.loc 1 491 12 is_stmt 0 view .LVU332
 947 0054 236C     		ldr	r3, [r4, #64]
 491:./Libraries/STM32F4xx_HAL_Driver/Src/stm32f4xx_hal_dma.c ****     {
 948              		.loc 1 491 7 view .LVU333
 949 0056 23B1     		cbz	r3, .L61
 493:./Libraries/STM32F4xx_HAL_Driver/Src/stm32f4xx_hal_dma.c ****     }
ARM GAS  /tmp/cc0WhI97.s 			page 45


 950              		.loc 1 493 7 is_stmt 1 view .LVU334
 493:./Libraries/STM32F4xx_HAL_Driver/Src/stm32f4xx_hal_dma.c ****     }
 951              		.loc 1 493 11 is_stmt 0 view .LVU335
 952 0058 2268     		ldr	r2, [r4]
 493:./Libraries/STM32F4xx_HAL_Driver/Src/stm32f4xx_hal_dma.c ****     }
 953              		.loc 1 493 27 view .LVU336
 954 005a 1368     		ldr	r3, [r2]
 955 005c 43F00803 		orr	r3, r3, #8
 956 0060 1360     		str	r3, [r2]
 957              	.L61:
 497:./Libraries/STM32F4xx_HAL_Driver/Src/stm32f4xx_hal_dma.c ****   }
 958              		.loc 1 497 5 is_stmt 1 view .LVU337
 959 0062 2268     		ldr	r2, [r4]
 960 0064 1368     		ldr	r3, [r2]
 961 0066 43F00103 		orr	r3, r3, #1
 962 006a 1360     		str	r3, [r2]
 462:./Libraries/STM32F4xx_HAL_Driver/Src/stm32f4xx_hal_dma.c **** 
 963              		.loc 1 462 21 is_stmt 0 view .LVU338
 964 006c 0020     		movs	r0, #0
 965 006e DAE7     		b	.L59
 966              	.LVL92:
 967              	.L62:
 471:./Libraries/STM32F4xx_HAL_Driver/Src/stm32f4xx_hal_dma.c ****   
 968              		.loc 1 471 3 view .LVU339
 969 0070 0220     		movs	r0, #2
 970 0072 D8E7     		b	.L59
 971              		.cfi_endproc
 972              	.LFE129:
 974              		.section	.text.HAL_DMA_Abort,"ax",%progbits
 975              		.align	1
 976              		.global	HAL_DMA_Abort
 977              		.syntax unified
 978              		.thumb
 979              		.thumb_func
 980              		.fpu fpv4-sp-d16
 982              	HAL_DMA_Abort:
 983              	.LVL93:
 984              	.LFB130:
 524:./Libraries/STM32F4xx_HAL_Driver/Src/stm32f4xx_hal_dma.c ****   /* calculate DMA base and stream number */
 985              		.loc 1 524 1 is_stmt 1 view -0
 986              		.cfi_startproc
 987              		@ args = 0, pretend = 0, frame = 0
 988              		@ frame_needed = 0, uses_anonymous_args = 0
 524:./Libraries/STM32F4xx_HAL_Driver/Src/stm32f4xx_hal_dma.c ****   /* calculate DMA base and stream number */
 989              		.loc 1 524 1 is_stmt 0 view .LVU341
 990 0000 70B5     		push	{r4, r5, r6, lr}
 991              	.LCFI11:
 992              		.cfi_def_cfa_offset 16
 993              		.cfi_offset 4, -16
 994              		.cfi_offset 5, -12
 995              		.cfi_offset 6, -8
 996              		.cfi_offset 14, -4
 997 0002 0446     		mov	r4, r0
 526:./Libraries/STM32F4xx_HAL_Driver/Src/stm32f4xx_hal_dma.c ****   
 998              		.loc 1 526 3 is_stmt 1 view .LVU342
 526:./Libraries/STM32F4xx_HAL_Driver/Src/stm32f4xx_hal_dma.c ****   
 999              		.loc 1 526 56 is_stmt 0 view .LVU343
ARM GAS  /tmp/cc0WhI97.s 			page 46


 1000 0004 866D     		ldr	r6, [r0, #88]
 1001              	.LVL94:
 528:./Libraries/STM32F4xx_HAL_Driver/Src/stm32f4xx_hal_dma.c ****   
 1002              		.loc 1 528 3 is_stmt 1 view .LVU344
 528:./Libraries/STM32F4xx_HAL_Driver/Src/stm32f4xx_hal_dma.c ****   
 1003              		.loc 1 528 24 is_stmt 0 view .LVU345
 1004 0006 FFF7FEFF 		bl	HAL_GetTick
 1005              	.LVL95:
 530:./Libraries/STM32F4xx_HAL_Driver/Src/stm32f4xx_hal_dma.c ****   {
 1006              		.loc 1 530 3 is_stmt 1 view .LVU346
 530:./Libraries/STM32F4xx_HAL_Driver/Src/stm32f4xx_hal_dma.c ****   {
 1007              		.loc 1 530 10 is_stmt 0 view .LVU347
 1008 000a 94F83530 		ldrb	r3, [r4, #53]	@ zero_extendqisi2
 1009 000e DBB2     		uxtb	r3, r3
 530:./Libraries/STM32F4xx_HAL_Driver/Src/stm32f4xx_hal_dma.c ****   {
 1010              		.loc 1 530 5 view .LVU348
 1011 0010 022B     		cmp	r3, #2
 1012 0012 06D0     		beq	.L66
 532:./Libraries/STM32F4xx_HAL_Driver/Src/stm32f4xx_hal_dma.c ****     
 1013              		.loc 1 532 5 is_stmt 1 view .LVU349
 532:./Libraries/STM32F4xx_HAL_Driver/Src/stm32f4xx_hal_dma.c ****     
 1014              		.loc 1 532 21 is_stmt 0 view .LVU350
 1015 0014 8023     		movs	r3, #128
 1016 0016 6365     		str	r3, [r4, #84]
 535:./Libraries/STM32F4xx_HAL_Driver/Src/stm32f4xx_hal_dma.c ****     
 1017              		.loc 1 535 5 is_stmt 1 view .LVU351
 535:./Libraries/STM32F4xx_HAL_Driver/Src/stm32f4xx_hal_dma.c ****     
 1018              		.loc 1 535 5 view .LVU352
 1019 0018 0023     		movs	r3, #0
 1020 001a 84F83430 		strb	r3, [r4, #52]
 535:./Libraries/STM32F4xx_HAL_Driver/Src/stm32f4xx_hal_dma.c ****     
 1021              		.loc 1 535 5 view .LVU353
 537:./Libraries/STM32F4xx_HAL_Driver/Src/stm32f4xx_hal_dma.c ****   }
 1022              		.loc 1 537 5 view .LVU354
 537:./Libraries/STM32F4xx_HAL_Driver/Src/stm32f4xx_hal_dma.c ****   }
 1023              		.loc 1 537 12 is_stmt 0 view .LVU355
 1024 001e 0120     		movs	r0, #1
 1025              	.LVL96:
 1026              	.L67:
 582:./Libraries/STM32F4xx_HAL_Driver/Src/stm32f4xx_hal_dma.c **** 
 1027              		.loc 1 582 1 view .LVU356
 1028 0020 70BD     		pop	{r4, r5, r6, pc}
 1029              	.LVL97:
 1030              	.L66:
 582:./Libraries/STM32F4xx_HAL_Driver/Src/stm32f4xx_hal_dma.c **** 
 1031              		.loc 1 582 1 view .LVU357
 1032 0022 0546     		mov	r5, r0
 542:./Libraries/STM32F4xx_HAL_Driver/Src/stm32f4xx_hal_dma.c ****     hdma->Instance->FCR &= ~(DMA_IT_FE);
 1033              		.loc 1 542 5 is_stmt 1 view .LVU358
 542:./Libraries/STM32F4xx_HAL_Driver/Src/stm32f4xx_hal_dma.c ****     hdma->Instance->FCR &= ~(DMA_IT_FE);
 1034              		.loc 1 542 9 is_stmt 0 view .LVU359
 1035 0024 2268     		ldr	r2, [r4]
 542:./Libraries/STM32F4xx_HAL_Driver/Src/stm32f4xx_hal_dma.c ****     hdma->Instance->FCR &= ~(DMA_IT_FE);
 1036              		.loc 1 542 25 view .LVU360
 1037 0026 1368     		ldr	r3, [r2]
 1038 0028 23F01603 		bic	r3, r3, #22
 1039 002c 1360     		str	r3, [r2]
ARM GAS  /tmp/cc0WhI97.s 			page 47


 543:./Libraries/STM32F4xx_HAL_Driver/Src/stm32f4xx_hal_dma.c ****     
 1040              		.loc 1 543 5 is_stmt 1 view .LVU361
 543:./Libraries/STM32F4xx_HAL_Driver/Src/stm32f4xx_hal_dma.c ****     
 1041              		.loc 1 543 9 is_stmt 0 view .LVU362
 1042 002e 2268     		ldr	r2, [r4]
 543:./Libraries/STM32F4xx_HAL_Driver/Src/stm32f4xx_hal_dma.c ****     
 1043              		.loc 1 543 25 view .LVU363
 1044 0030 5369     		ldr	r3, [r2, #20]
 1045 0032 23F08003 		bic	r3, r3, #128
 1046 0036 5361     		str	r3, [r2, #20]
 545:./Libraries/STM32F4xx_HAL_Driver/Src/stm32f4xx_hal_dma.c ****     {
 1047              		.loc 1 545 5 is_stmt 1 view .LVU364
 545:./Libraries/STM32F4xx_HAL_Driver/Src/stm32f4xx_hal_dma.c ****     {
 1048              		.loc 1 545 13 is_stmt 0 view .LVU365
 1049 0038 236C     		ldr	r3, [r4, #64]
 545:./Libraries/STM32F4xx_HAL_Driver/Src/stm32f4xx_hal_dma.c ****     {
 1050              		.loc 1 545 7 view .LVU366
 1051 003a E3B1     		cbz	r3, .L73
 1052              	.L68:
 547:./Libraries/STM32F4xx_HAL_Driver/Src/stm32f4xx_hal_dma.c ****     }
 1053              		.loc 1 547 7 is_stmt 1 view .LVU367
 547:./Libraries/STM32F4xx_HAL_Driver/Src/stm32f4xx_hal_dma.c ****     }
 1054              		.loc 1 547 11 is_stmt 0 view .LVU368
 1055 003c 2268     		ldr	r2, [r4]
 547:./Libraries/STM32F4xx_HAL_Driver/Src/stm32f4xx_hal_dma.c ****     }
 1056              		.loc 1 547 27 view .LVU369
 1057 003e 1368     		ldr	r3, [r2]
 1058 0040 23F00803 		bic	r3, r3, #8
 1059 0044 1360     		str	r3, [r2]
 1060              	.L69:
 551:./Libraries/STM32F4xx_HAL_Driver/Src/stm32f4xx_hal_dma.c ****     
 1061              		.loc 1 551 5 is_stmt 1 view .LVU370
 1062 0046 2268     		ldr	r2, [r4]
 1063 0048 1368     		ldr	r3, [r2]
 1064 004a 23F00103 		bic	r3, r3, #1
 1065 004e 1360     		str	r3, [r2]
 554:./Libraries/STM32F4xx_HAL_Driver/Src/stm32f4xx_hal_dma.c ****     {
 1066              		.loc 1 554 5 view .LVU371
 1067              	.LVL98:
 1068              	.L70:
 554:./Libraries/STM32F4xx_HAL_Driver/Src/stm32f4xx_hal_dma.c ****     {
 1069              		.loc 1 554 10 view .LVU372
 554:./Libraries/STM32F4xx_HAL_Driver/Src/stm32f4xx_hal_dma.c ****     {
 1070              		.loc 1 554 16 is_stmt 0 view .LVU373
 1071 0050 2368     		ldr	r3, [r4]
 554:./Libraries/STM32F4xx_HAL_Driver/Src/stm32f4xx_hal_dma.c ****     {
 1072              		.loc 1 554 26 view .LVU374
 1073 0052 1B68     		ldr	r3, [r3]
 554:./Libraries/STM32F4xx_HAL_Driver/Src/stm32f4xx_hal_dma.c ****     {
 1074              		.loc 1 554 10 view .LVU375
 1075 0054 13F0010F 		tst	r3, #1
 1076 0058 11D0     		beq	.L74
 557:./Libraries/STM32F4xx_HAL_Driver/Src/stm32f4xx_hal_dma.c ****       {
 1077              		.loc 1 557 7 is_stmt 1 view .LVU376
 557:./Libraries/STM32F4xx_HAL_Driver/Src/stm32f4xx_hal_dma.c ****       {
 1078              		.loc 1 557 11 is_stmt 0 view .LVU377
 1079 005a FFF7FEFF 		bl	HAL_GetTick
ARM GAS  /tmp/cc0WhI97.s 			page 48


 1080              	.LVL99:
 557:./Libraries/STM32F4xx_HAL_Driver/Src/stm32f4xx_hal_dma.c ****       {
 1081              		.loc 1 557 25 view .LVU378
 1082 005e 431B     		subs	r3, r0, r5
 557:./Libraries/STM32F4xx_HAL_Driver/Src/stm32f4xx_hal_dma.c ****       {
 1083              		.loc 1 557 9 view .LVU379
 1084 0060 052B     		cmp	r3, #5
 1085 0062 F5D9     		bls	.L70
 560:./Libraries/STM32F4xx_HAL_Driver/Src/stm32f4xx_hal_dma.c ****         
 1086              		.loc 1 560 9 is_stmt 1 view .LVU380
 560:./Libraries/STM32F4xx_HAL_Driver/Src/stm32f4xx_hal_dma.c ****         
 1087              		.loc 1 560 25 is_stmt 0 view .LVU381
 1088 0064 2023     		movs	r3, #32
 1089 0066 6365     		str	r3, [r4, #84]
 563:./Libraries/STM32F4xx_HAL_Driver/Src/stm32f4xx_hal_dma.c ****         
 1090              		.loc 1 563 9 is_stmt 1 view .LVU382
 563:./Libraries/STM32F4xx_HAL_Driver/Src/stm32f4xx_hal_dma.c ****         
 1091              		.loc 1 563 9 view .LVU383
 1092 0068 0023     		movs	r3, #0
 1093 006a 84F83430 		strb	r3, [r4, #52]
 563:./Libraries/STM32F4xx_HAL_Driver/Src/stm32f4xx_hal_dma.c ****         
 1094              		.loc 1 563 9 view .LVU384
 566:./Libraries/STM32F4xx_HAL_Driver/Src/stm32f4xx_hal_dma.c ****         
 1095              		.loc 1 566 9 view .LVU385
 566:./Libraries/STM32F4xx_HAL_Driver/Src/stm32f4xx_hal_dma.c ****         
 1096              		.loc 1 566 21 is_stmt 0 view .LVU386
 1097 006e 0320     		movs	r0, #3
 1098 0070 84F83500 		strb	r0, [r4, #53]
 568:./Libraries/STM32F4xx_HAL_Driver/Src/stm32f4xx_hal_dma.c ****       }
 1099              		.loc 1 568 9 is_stmt 1 view .LVU387
 568:./Libraries/STM32F4xx_HAL_Driver/Src/stm32f4xx_hal_dma.c ****       }
 1100              		.loc 1 568 16 is_stmt 0 view .LVU388
 1101 0074 D4E7     		b	.L67
 1102              	.LVL100:
 1103              	.L73:
 545:./Libraries/STM32F4xx_HAL_Driver/Src/stm32f4xx_hal_dma.c ****     {
 1104              		.loc 1 545 53 discriminator 1 view .LVU389
 1105 0076 A36C     		ldr	r3, [r4, #72]
 545:./Libraries/STM32F4xx_HAL_Driver/Src/stm32f4xx_hal_dma.c ****     {
 1106              		.loc 1 545 45 discriminator 1 view .LVU390
 1107 0078 002B     		cmp	r3, #0
 1108 007a DFD1     		bne	.L68
 1109 007c E3E7     		b	.L69
 1110              	.LVL101:
 1111              	.L74:
 573:./Libraries/STM32F4xx_HAL_Driver/Src/stm32f4xx_hal_dma.c ****     
 1112              		.loc 1 573 5 is_stmt 1 view .LVU391
 573:./Libraries/STM32F4xx_HAL_Driver/Src/stm32f4xx_hal_dma.c ****     
 1113              		.loc 1 573 31 is_stmt 0 view .LVU392
 1114 007e E26D     		ldr	r2, [r4, #92]
 573:./Libraries/STM32F4xx_HAL_Driver/Src/stm32f4xx_hal_dma.c ****     
 1115              		.loc 1 573 24 view .LVU393
 1116 0080 3F23     		movs	r3, #63
 1117 0082 9340     		lsls	r3, r3, r2
 573:./Libraries/STM32F4xx_HAL_Driver/Src/stm32f4xx_hal_dma.c ****     
 1118              		.loc 1 573 16 view .LVU394
 1119 0084 B360     		str	r3, [r6, #8]
ARM GAS  /tmp/cc0WhI97.s 			page 49


 576:./Libraries/STM32F4xx_HAL_Driver/Src/stm32f4xx_hal_dma.c ****     
 1120              		.loc 1 576 5 is_stmt 1 view .LVU395
 576:./Libraries/STM32F4xx_HAL_Driver/Src/stm32f4xx_hal_dma.c ****     
 1121              		.loc 1 576 5 view .LVU396
 1122 0086 0020     		movs	r0, #0
 1123 0088 84F83400 		strb	r0, [r4, #52]
 576:./Libraries/STM32F4xx_HAL_Driver/Src/stm32f4xx_hal_dma.c ****     
 1124              		.loc 1 576 5 view .LVU397
 579:./Libraries/STM32F4xx_HAL_Driver/Src/stm32f4xx_hal_dma.c ****   }
 1125              		.loc 1 579 5 view .LVU398
 579:./Libraries/STM32F4xx_HAL_Driver/Src/stm32f4xx_hal_dma.c ****   }
 1126              		.loc 1 579 17 is_stmt 0 view .LVU399
 1127 008c 0123     		movs	r3, #1
 1128 008e 84F83530 		strb	r3, [r4, #53]
 581:./Libraries/STM32F4xx_HAL_Driver/Src/stm32f4xx_hal_dma.c **** }
 1129              		.loc 1 581 3 is_stmt 1 view .LVU400
 581:./Libraries/STM32F4xx_HAL_Driver/Src/stm32f4xx_hal_dma.c **** }
 1130              		.loc 1 581 10 is_stmt 0 view .LVU401
 1131 0092 C5E7     		b	.L67
 1132              		.cfi_endproc
 1133              	.LFE130:
 1135              		.section	.text.HAL_DMA_Abort_IT,"ax",%progbits
 1136              		.align	1
 1137              		.global	HAL_DMA_Abort_IT
 1138              		.syntax unified
 1139              		.thumb
 1140              		.thumb_func
 1141              		.fpu fpv4-sp-d16
 1143              	HAL_DMA_Abort_IT:
 1144              	.LVL102:
 1145              	.LFB131:
 591:./Libraries/STM32F4xx_HAL_Driver/Src/stm32f4xx_hal_dma.c ****   if(hdma->State != HAL_DMA_STATE_BUSY)
 1146              		.loc 1 591 1 is_stmt 1 view -0
 1147              		.cfi_startproc
 1148              		@ args = 0, pretend = 0, frame = 0
 1149              		@ frame_needed = 0, uses_anonymous_args = 0
 1150              		@ link register save eliminated.
 592:./Libraries/STM32F4xx_HAL_Driver/Src/stm32f4xx_hal_dma.c ****   {
 1151              		.loc 1 592 3 view .LVU403
 592:./Libraries/STM32F4xx_HAL_Driver/Src/stm32f4xx_hal_dma.c ****   {
 1152              		.loc 1 592 10 is_stmt 0 view .LVU404
 1153 0000 90F83530 		ldrb	r3, [r0, #53]	@ zero_extendqisi2
 1154 0004 DBB2     		uxtb	r3, r3
 592:./Libraries/STM32F4xx_HAL_Driver/Src/stm32f4xx_hal_dma.c ****   {
 1155              		.loc 1 592 5 view .LVU405
 1156 0006 022B     		cmp	r3, #2
 1157 0008 03D0     		beq	.L76
 594:./Libraries/STM32F4xx_HAL_Driver/Src/stm32f4xx_hal_dma.c ****     return HAL_ERROR;
 1158              		.loc 1 594 5 is_stmt 1 view .LVU406
 594:./Libraries/STM32F4xx_HAL_Driver/Src/stm32f4xx_hal_dma.c ****     return HAL_ERROR;
 1159              		.loc 1 594 21 is_stmt 0 view .LVU407
 1160 000a 8023     		movs	r3, #128
 1161 000c 4365     		str	r3, [r0, #84]
 595:./Libraries/STM32F4xx_HAL_Driver/Src/stm32f4xx_hal_dma.c ****   }
 1162              		.loc 1 595 5 is_stmt 1 view .LVU408
 595:./Libraries/STM32F4xx_HAL_Driver/Src/stm32f4xx_hal_dma.c ****   }
 1163              		.loc 1 595 12 is_stmt 0 view .LVU409
ARM GAS  /tmp/cc0WhI97.s 			page 50


 1164 000e 0120     		movs	r0, #1
 1165              	.LVL103:
 595:./Libraries/STM32F4xx_HAL_Driver/Src/stm32f4xx_hal_dma.c ****   }
 1166              		.loc 1 595 12 view .LVU410
 1167 0010 7047     		bx	lr
 1168              	.LVL104:
 1169              	.L76:
 600:./Libraries/STM32F4xx_HAL_Driver/Src/stm32f4xx_hal_dma.c ****     
 1170              		.loc 1 600 5 is_stmt 1 view .LVU411
 600:./Libraries/STM32F4xx_HAL_Driver/Src/stm32f4xx_hal_dma.c ****     
 1171              		.loc 1 600 17 is_stmt 0 view .LVU412
 1172 0012 0523     		movs	r3, #5
 1173 0014 80F83530 		strb	r3, [r0, #53]
 603:./Libraries/STM32F4xx_HAL_Driver/Src/stm32f4xx_hal_dma.c ****   }
 1174              		.loc 1 603 5 is_stmt 1 view .LVU413
 1175 0018 0268     		ldr	r2, [r0]
 1176 001a 1368     		ldr	r3, [r2]
 1177 001c 23F00103 		bic	r3, r3, #1
 1178 0020 1360     		str	r3, [r2]
 606:./Libraries/STM32F4xx_HAL_Driver/Src/stm32f4xx_hal_dma.c **** }
 1179              		.loc 1 606 3 view .LVU414
 606:./Libraries/STM32F4xx_HAL_Driver/Src/stm32f4xx_hal_dma.c **** }
 1180              		.loc 1 606 10 is_stmt 0 view .LVU415
 1181 0022 0020     		movs	r0, #0
 1182              	.LVL105:
 607:./Libraries/STM32F4xx_HAL_Driver/Src/stm32f4xx_hal_dma.c **** 
 1183              		.loc 1 607 1 view .LVU416
 1184 0024 7047     		bx	lr
 1185              		.cfi_endproc
 1186              	.LFE131:
 1188              		.section	.text.HAL_DMA_PollForTransfer,"ax",%progbits
 1189              		.align	1
 1190              		.global	HAL_DMA_PollForTransfer
 1191              		.syntax unified
 1192              		.thumb
 1193              		.thumb_func
 1194              		.fpu fpv4-sp-d16
 1196              	HAL_DMA_PollForTransfer:
 1197              	.LVL106:
 1198              	.LFB132:
 621:./Libraries/STM32F4xx_HAL_Driver/Src/stm32f4xx_hal_dma.c ****   HAL_StatusTypeDef status = HAL_OK; 
 1199              		.loc 1 621 1 is_stmt 1 view -0
 1200              		.cfi_startproc
 1201              		@ args = 0, pretend = 0, frame = 0
 1202              		@ frame_needed = 0, uses_anonymous_args = 0
 621:./Libraries/STM32F4xx_HAL_Driver/Src/stm32f4xx_hal_dma.c ****   HAL_StatusTypeDef status = HAL_OK; 
 1203              		.loc 1 621 1 is_stmt 0 view .LVU418
 1204 0000 2DE9F047 		push	{r4, r5, r6, r7, r8, r9, r10, lr}
 1205              	.LCFI12:
 1206              		.cfi_def_cfa_offset 32
 1207              		.cfi_offset 4, -32
 1208              		.cfi_offset 5, -28
 1209              		.cfi_offset 6, -24
 1210              		.cfi_offset 7, -20
 1211              		.cfi_offset 8, -16
 1212              		.cfi_offset 9, -12
 1213              		.cfi_offset 10, -8
ARM GAS  /tmp/cc0WhI97.s 			page 51


 1214              		.cfi_offset 14, -4
 1215 0004 0446     		mov	r4, r0
 1216 0006 8846     		mov	r8, r1
 1217 0008 1646     		mov	r6, r2
 622:./Libraries/STM32F4xx_HAL_Driver/Src/stm32f4xx_hal_dma.c ****   uint32_t mask_cpltlevel;
 1218              		.loc 1 622 3 is_stmt 1 view .LVU419
 1219              	.LVL107:
 623:./Libraries/STM32F4xx_HAL_Driver/Src/stm32f4xx_hal_dma.c ****   uint32_t tickstart = HAL_GetTick(); 
 1220              		.loc 1 623 3 view .LVU420
 624:./Libraries/STM32F4xx_HAL_Driver/Src/stm32f4xx_hal_dma.c ****   uint32_t tmpisr;
 1221              		.loc 1 624 3 view .LVU421
 624:./Libraries/STM32F4xx_HAL_Driver/Src/stm32f4xx_hal_dma.c ****   uint32_t tmpisr;
 1222              		.loc 1 624 24 is_stmt 0 view .LVU422
 1223 000a FFF7FEFF 		bl	HAL_GetTick
 1224              	.LVL108:
 625:./Libraries/STM32F4xx_HAL_Driver/Src/stm32f4xx_hal_dma.c ****   
 1225              		.loc 1 625 3 is_stmt 1 view .LVU423
 628:./Libraries/STM32F4xx_HAL_Driver/Src/stm32f4xx_hal_dma.c **** 
 1226              		.loc 1 628 3 view .LVU424
 630:./Libraries/STM32F4xx_HAL_Driver/Src/stm32f4xx_hal_dma.c ****   {
 1227              		.loc 1 630 3 view .LVU425
 630:./Libraries/STM32F4xx_HAL_Driver/Src/stm32f4xx_hal_dma.c ****   {
 1228              		.loc 1 630 32 is_stmt 0 view .LVU426
 1229 000e 94F83530 		ldrb	r3, [r4, #53]	@ zero_extendqisi2
 1230 0012 DBB2     		uxtb	r3, r3
 630:./Libraries/STM32F4xx_HAL_Driver/Src/stm32f4xx_hal_dma.c ****   {
 1231              		.loc 1 630 5 view .LVU427
 1232 0014 022B     		cmp	r3, #2
 1233 0016 07D0     		beq	.L79
 633:./Libraries/STM32F4xx_HAL_Driver/Src/stm32f4xx_hal_dma.c ****     __HAL_UNLOCK(hdma);
 1234              		.loc 1 633 5 is_stmt 1 view .LVU428
 633:./Libraries/STM32F4xx_HAL_Driver/Src/stm32f4xx_hal_dma.c ****     __HAL_UNLOCK(hdma);
 1235              		.loc 1 633 21 is_stmt 0 view .LVU429
 1236 0018 8023     		movs	r3, #128
 1237 001a 6365     		str	r3, [r4, #84]
 634:./Libraries/STM32F4xx_HAL_Driver/Src/stm32f4xx_hal_dma.c ****     return HAL_ERROR;
 1238              		.loc 1 634 5 is_stmt 1 view .LVU430
 634:./Libraries/STM32F4xx_HAL_Driver/Src/stm32f4xx_hal_dma.c ****     return HAL_ERROR;
 1239              		.loc 1 634 5 view .LVU431
 1240 001c 0023     		movs	r3, #0
 1241 001e 84F83430 		strb	r3, [r4, #52]
 634:./Libraries/STM32F4xx_HAL_Driver/Src/stm32f4xx_hal_dma.c ****     return HAL_ERROR;
 1242              		.loc 1 634 5 view .LVU432
 635:./Libraries/STM32F4xx_HAL_Driver/Src/stm32f4xx_hal_dma.c ****   }
 1243              		.loc 1 635 5 view .LVU433
 635:./Libraries/STM32F4xx_HAL_Driver/Src/stm32f4xx_hal_dma.c ****   }
 1244              		.loc 1 635 12 is_stmt 0 view .LVU434
 1245 0022 0120     		movs	r0, #1
 1246              	.LVL109:
 1247              	.L80:
 748:./Libraries/STM32F4xx_HAL_Driver/Src/stm32f4xx_hal_dma.c **** 
 1248              		.loc 1 748 1 view .LVU435
 1249 0024 BDE8F087 		pop	{r4, r5, r6, r7, r8, r9, r10, pc}
 1250              	.LVL110:
 1251              	.L79:
 748:./Libraries/STM32F4xx_HAL_Driver/Src/stm32f4xx_hal_dma.c **** 
 1252              		.loc 1 748 1 view .LVU436
ARM GAS  /tmp/cc0WhI97.s 			page 52


 1253 0028 8146     		mov	r9, r0
 639:./Libraries/STM32F4xx_HAL_Driver/Src/stm32f4xx_hal_dma.c ****   {
 1254              		.loc 1 639 3 is_stmt 1 view .LVU437
 639:./Libraries/STM32F4xx_HAL_Driver/Src/stm32f4xx_hal_dma.c ****   {
 1255              		.loc 1 639 12 is_stmt 0 view .LVU438
 1256 002a 2368     		ldr	r3, [r4]
 639:./Libraries/STM32F4xx_HAL_Driver/Src/stm32f4xx_hal_dma.c ****   {
 1257              		.loc 1 639 22 view .LVU439
 1258 002c 1B68     		ldr	r3, [r3]
 639:./Libraries/STM32F4xx_HAL_Driver/Src/stm32f4xx_hal_dma.c ****   {
 1259              		.loc 1 639 6 view .LVU440
 1260 002e 13F4807F 		tst	r3, #256
 1261 0032 3BD1     		bne	.L95
 646:./Libraries/STM32F4xx_HAL_Driver/Src/stm32f4xx_hal_dma.c ****   {
 1262              		.loc 1 646 3 is_stmt 1 view .LVU441
 646:./Libraries/STM32F4xx_HAL_Driver/Src/stm32f4xx_hal_dma.c ****   {
 1263              		.loc 1 646 5 is_stmt 0 view .LVU442
 1264 0034 B8F1000F 		cmp	r8, #0
 1265 0038 3DD1     		bne	.L82
 649:./Libraries/STM32F4xx_HAL_Driver/Src/stm32f4xx_hal_dma.c ****   }
 1266              		.loc 1 649 5 is_stmt 1 view .LVU443
 649:./Libraries/STM32F4xx_HAL_Driver/Src/stm32f4xx_hal_dma.c ****   }
 1267              		.loc 1 649 46 is_stmt 0 view .LVU444
 1268 003a E36D     		ldr	r3, [r4, #92]
 649:./Libraries/STM32F4xx_HAL_Driver/Src/stm32f4xx_hal_dma.c ****   }
 1269              		.loc 1 649 20 view .LVU445
 1270 003c 4FF0200A 		mov	r10, #32
 1271 0040 0AFA03FA 		lsl	r10, r10, r3
 1272              	.LVL111:
 1273              	.L83:
 657:./Libraries/STM32F4xx_HAL_Driver/Src/stm32f4xx_hal_dma.c ****   tmpisr = regs->ISR;
 1274              		.loc 1 657 3 is_stmt 1 view .LVU446
 657:./Libraries/STM32F4xx_HAL_Driver/Src/stm32f4xx_hal_dma.c ****   tmpisr = regs->ISR;
 1275              		.loc 1 657 36 is_stmt 0 view .LVU447
 1276 0044 A76D     		ldr	r7, [r4, #88]
 1277              	.LVL112:
 658:./Libraries/STM32F4xx_HAL_Driver/Src/stm32f4xx_hal_dma.c ****   
 1278              		.loc 1 658 3 is_stmt 1 view .LVU448
 658:./Libraries/STM32F4xx_HAL_Driver/Src/stm32f4xx_hal_dma.c ****   
 1279              		.loc 1 658 10 is_stmt 0 view .LVU449
 1280 0046 3B68     		ldr	r3, [r7]
 1281              	.LVL113:
 660:./Libraries/STM32F4xx_HAL_Driver/Src/stm32f4xx_hal_dma.c ****   {
 1282              		.loc 1 660 3 is_stmt 1 view .LVU450
 1283              	.L84:
 660:./Libraries/STM32F4xx_HAL_Driver/Src/stm32f4xx_hal_dma.c ****   {
 1284              		.loc 1 660 8 view .LVU451
 1285 0048 1AEA030F 		tst	r10, r3
 1286 004c 43D1     		bne	.L90
 660:./Libraries/STM32F4xx_HAL_Driver/Src/stm32f4xx_hal_dma.c ****   {
 1287              		.loc 1 660 55 is_stmt 0 discriminator 1 view .LVU452
 1288 004e 636D     		ldr	r3, [r4, #84]
 1289              	.LVL114:
 660:./Libraries/STM32F4xx_HAL_Driver/Src/stm32f4xx_hal_dma.c ****   {
 1290              		.loc 1 660 46 discriminator 1 view .LVU453
 1291 0050 13F0010F 		tst	r3, #1
 1292 0054 3FD1     		bne	.L90
ARM GAS  /tmp/cc0WhI97.s 			page 53


 663:./Libraries/STM32F4xx_HAL_Driver/Src/stm32f4xx_hal_dma.c ****     {
 1293              		.loc 1 663 5 is_stmt 1 view .LVU454
 663:./Libraries/STM32F4xx_HAL_Driver/Src/stm32f4xx_hal_dma.c ****     {
 1294              		.loc 1 663 7 is_stmt 0 view .LVU455
 1295 0056 B6F1FF3F 		cmp	r6, #-1
 1296 005a 07D0     		beq	.L85
 665:./Libraries/STM32F4xx_HAL_Driver/Src/stm32f4xx_hal_dma.c ****       {
 1297              		.loc 1 665 7 is_stmt 1 view .LVU456
 665:./Libraries/STM32F4xx_HAL_Driver/Src/stm32f4xx_hal_dma.c ****       {
 1298              		.loc 1 665 9 is_stmt 0 view .LVU457
 1299 005c 002E     		cmp	r6, #0
 1300 005e 30D0     		beq	.L86
 665:./Libraries/STM32F4xx_HAL_Driver/Src/stm32f4xx_hal_dma.c ****       {
 1301              		.loc 1 665 29 discriminator 1 view .LVU458
 1302 0060 FFF7FEFF 		bl	HAL_GetTick
 1303              	.LVL115:
 665:./Libraries/STM32F4xx_HAL_Driver/Src/stm32f4xx_hal_dma.c ****       {
 1304              		.loc 1 665 43 discriminator 1 view .LVU459
 1305 0064 A0EB0900 		sub	r0, r0, r9
 665:./Libraries/STM32F4xx_HAL_Driver/Src/stm32f4xx_hal_dma.c ****       {
 1306              		.loc 1 665 25 discriminator 1 view .LVU460
 1307 0068 B042     		cmp	r0, r6
 1308 006a 2AD8     		bhi	.L86
 1309              	.L85:
 681:./Libraries/STM32F4xx_HAL_Driver/Src/stm32f4xx_hal_dma.c **** 
 1310              		.loc 1 681 5 is_stmt 1 view .LVU461
 681:./Libraries/STM32F4xx_HAL_Driver/Src/stm32f4xx_hal_dma.c **** 
 1311              		.loc 1 681 12 is_stmt 0 view .LVU462
 1312 006c 3B68     		ldr	r3, [r7]
 1313              	.LVL116:
 683:./Libraries/STM32F4xx_HAL_Driver/Src/stm32f4xx_hal_dma.c ****     {
 1314              		.loc 1 683 5 is_stmt 1 view .LVU463
 683:./Libraries/STM32F4xx_HAL_Driver/Src/stm32f4xx_hal_dma.c ****     {
 1315              		.loc 1 683 43 is_stmt 0 view .LVU464
 1316 006e E16D     		ldr	r1, [r4, #92]
 683:./Libraries/STM32F4xx_HAL_Driver/Src/stm32f4xx_hal_dma.c ****     {
 1317              		.loc 1 683 36 view .LVU465
 1318 0070 0822     		movs	r2, #8
 1319 0072 8A40     		lsls	r2, r2, r1
 683:./Libraries/STM32F4xx_HAL_Driver/Src/stm32f4xx_hal_dma.c ****     {
 1320              		.loc 1 683 7 view .LVU466
 1321 0074 1A42     		tst	r2, r3
 1322 0076 04D0     		beq	.L87
 686:./Libraries/STM32F4xx_HAL_Driver/Src/stm32f4xx_hal_dma.c ****       
 1323              		.loc 1 686 7 is_stmt 1 view .LVU467
 686:./Libraries/STM32F4xx_HAL_Driver/Src/stm32f4xx_hal_dma.c ****       
 1324              		.loc 1 686 23 is_stmt 0 view .LVU468
 1325 0078 616D     		ldr	r1, [r4, #84]
 1326 007a 41F00101 		orr	r1, r1, #1
 1327 007e 6165     		str	r1, [r4, #84]
 689:./Libraries/STM32F4xx_HAL_Driver/Src/stm32f4xx_hal_dma.c ****     }
 1328              		.loc 1 689 7 is_stmt 1 view .LVU469
 689:./Libraries/STM32F4xx_HAL_Driver/Src/stm32f4xx_hal_dma.c ****     }
 1329              		.loc 1 689 18 is_stmt 0 view .LVU470
 1330 0080 BA60     		str	r2, [r7, #8]
 1331              	.L87:
 692:./Libraries/STM32F4xx_HAL_Driver/Src/stm32f4xx_hal_dma.c ****     {
ARM GAS  /tmp/cc0WhI97.s 			page 54


 1332              		.loc 1 692 5 is_stmt 1 view .LVU471
 692:./Libraries/STM32F4xx_HAL_Driver/Src/stm32f4xx_hal_dma.c ****     {
 1333              		.loc 1 692 43 is_stmt 0 view .LVU472
 1334 0082 E16D     		ldr	r1, [r4, #92]
 692:./Libraries/STM32F4xx_HAL_Driver/Src/stm32f4xx_hal_dma.c ****     {
 1335              		.loc 1 692 36 view .LVU473
 1336 0084 0122     		movs	r2, #1
 1337 0086 8A40     		lsls	r2, r2, r1
 692:./Libraries/STM32F4xx_HAL_Driver/Src/stm32f4xx_hal_dma.c ****     {
 1338              		.loc 1 692 7 view .LVU474
 1339 0088 1A42     		tst	r2, r3
 1340 008a 04D0     		beq	.L88
 695:./Libraries/STM32F4xx_HAL_Driver/Src/stm32f4xx_hal_dma.c ****       
 1341              		.loc 1 695 7 is_stmt 1 view .LVU475
 695:./Libraries/STM32F4xx_HAL_Driver/Src/stm32f4xx_hal_dma.c ****       
 1342              		.loc 1 695 23 is_stmt 0 view .LVU476
 1343 008c 616D     		ldr	r1, [r4, #84]
 1344 008e 41F00201 		orr	r1, r1, #2
 1345 0092 6165     		str	r1, [r4, #84]
 698:./Libraries/STM32F4xx_HAL_Driver/Src/stm32f4xx_hal_dma.c ****     }
 1346              		.loc 1 698 7 is_stmt 1 view .LVU477
 698:./Libraries/STM32F4xx_HAL_Driver/Src/stm32f4xx_hal_dma.c ****     }
 1347              		.loc 1 698 18 is_stmt 0 view .LVU478
 1348 0094 BA60     		str	r2, [r7, #8]
 1349              	.L88:
 701:./Libraries/STM32F4xx_HAL_Driver/Src/stm32f4xx_hal_dma.c ****     {
 1350              		.loc 1 701 5 is_stmt 1 view .LVU479
 701:./Libraries/STM32F4xx_HAL_Driver/Src/stm32f4xx_hal_dma.c ****     {
 1351              		.loc 1 701 44 is_stmt 0 view .LVU480
 1352 0096 E26D     		ldr	r2, [r4, #92]
 701:./Libraries/STM32F4xx_HAL_Driver/Src/stm32f4xx_hal_dma.c ****     {
 1353              		.loc 1 701 37 view .LVU481
 1354 0098 0425     		movs	r5, #4
 1355 009a 9540     		lsls	r5, r5, r2
 701:./Libraries/STM32F4xx_HAL_Driver/Src/stm32f4xx_hal_dma.c ****     {
 1356              		.loc 1 701 7 view .LVU482
 1357 009c 1D42     		tst	r5, r3
 1358 009e D3D0     		beq	.L84
 704:./Libraries/STM32F4xx_HAL_Driver/Src/stm32f4xx_hal_dma.c ****       
 1359              		.loc 1 704 7 is_stmt 1 view .LVU483
 704:./Libraries/STM32F4xx_HAL_Driver/Src/stm32f4xx_hal_dma.c ****       
 1360              		.loc 1 704 23 is_stmt 0 view .LVU484
 1361 00a0 626D     		ldr	r2, [r4, #84]
 1362 00a2 42F00402 		orr	r2, r2, #4
 1363 00a6 6265     		str	r2, [r4, #84]
 707:./Libraries/STM32F4xx_HAL_Driver/Src/stm32f4xx_hal_dma.c ****     }
 1364              		.loc 1 707 7 is_stmt 1 view .LVU485
 707:./Libraries/STM32F4xx_HAL_Driver/Src/stm32f4xx_hal_dma.c ****     }
 1365              		.loc 1 707 18 is_stmt 0 view .LVU486
 1366 00a8 BD60     		str	r5, [r7, #8]
 1367 00aa CDE7     		b	.L84
 1368              	.LVL117:
 1369              	.L95:
 641:./Libraries/STM32F4xx_HAL_Driver/Src/stm32f4xx_hal_dma.c ****     return HAL_ERROR;
 1370              		.loc 1 641 5 is_stmt 1 view .LVU487
 641:./Libraries/STM32F4xx_HAL_Driver/Src/stm32f4xx_hal_dma.c ****     return HAL_ERROR;
 1371              		.loc 1 641 21 is_stmt 0 view .LVU488
ARM GAS  /tmp/cc0WhI97.s 			page 55


 1372 00ac 4FF48073 		mov	r3, #256
 1373 00b0 6365     		str	r3, [r4, #84]
 642:./Libraries/STM32F4xx_HAL_Driver/Src/stm32f4xx_hal_dma.c ****   }
 1374              		.loc 1 642 5 is_stmt 1 view .LVU489
 642:./Libraries/STM32F4xx_HAL_Driver/Src/stm32f4xx_hal_dma.c ****   }
 1375              		.loc 1 642 12 is_stmt 0 view .LVU490
 1376 00b2 0120     		movs	r0, #1
 1377              	.LVL118:
 642:./Libraries/STM32F4xx_HAL_Driver/Src/stm32f4xx_hal_dma.c ****   }
 1378              		.loc 1 642 12 view .LVU491
 1379 00b4 B6E7     		b	.L80
 1380              	.LVL119:
 1381              	.L82:
 654:./Libraries/STM32F4xx_HAL_Driver/Src/stm32f4xx_hal_dma.c ****   }
 1382              		.loc 1 654 5 is_stmt 1 view .LVU492
 654:./Libraries/STM32F4xx_HAL_Driver/Src/stm32f4xx_hal_dma.c ****   }
 1383              		.loc 1 654 46 is_stmt 0 view .LVU493
 1384 00b6 E36D     		ldr	r3, [r4, #92]
 654:./Libraries/STM32F4xx_HAL_Driver/Src/stm32f4xx_hal_dma.c ****   }
 1385              		.loc 1 654 20 view .LVU494
 1386 00b8 4FF0100A 		mov	r10, #16
 1387 00bc 0AFA03FA 		lsl	r10, r10, r3
 1388              	.LVL120:
 654:./Libraries/STM32F4xx_HAL_Driver/Src/stm32f4xx_hal_dma.c ****   }
 1389              		.loc 1 654 20 view .LVU495
 1390 00c0 C0E7     		b	.L83
 1391              	.LVL121:
 1392              	.L86:
 668:./Libraries/STM32F4xx_HAL_Driver/Src/stm32f4xx_hal_dma.c **** 
 1393              		.loc 1 668 9 is_stmt 1 view .LVU496
 668:./Libraries/STM32F4xx_HAL_Driver/Src/stm32f4xx_hal_dma.c **** 
 1394              		.loc 1 668 25 is_stmt 0 view .LVU497
 1395 00c2 2023     		movs	r3, #32
 1396 00c4 6365     		str	r3, [r4, #84]
 671:./Libraries/STM32F4xx_HAL_Driver/Src/stm32f4xx_hal_dma.c ****         
 1397              		.loc 1 671 9 is_stmt 1 view .LVU498
 671:./Libraries/STM32F4xx_HAL_Driver/Src/stm32f4xx_hal_dma.c ****         
 1398              		.loc 1 671 9 view .LVU499
 1399 00c6 0023     		movs	r3, #0
 1400 00c8 84F83430 		strb	r3, [r4, #52]
 671:./Libraries/STM32F4xx_HAL_Driver/Src/stm32f4xx_hal_dma.c ****         
 1401              		.loc 1 671 9 view .LVU500
 674:./Libraries/STM32F4xx_HAL_Driver/Src/stm32f4xx_hal_dma.c ****         
 1402              		.loc 1 674 9 view .LVU501
 674:./Libraries/STM32F4xx_HAL_Driver/Src/stm32f4xx_hal_dma.c ****         
 1403              		.loc 1 674 21 is_stmt 0 view .LVU502
 1404 00cc 0123     		movs	r3, #1
 1405 00ce 84F83530 		strb	r3, [r4, #53]
 676:./Libraries/STM32F4xx_HAL_Driver/Src/stm32f4xx_hal_dma.c ****       }
 1406              		.loc 1 676 9 is_stmt 1 view .LVU503
 676:./Libraries/STM32F4xx_HAL_Driver/Src/stm32f4xx_hal_dma.c ****       }
 1407              		.loc 1 676 16 is_stmt 0 view .LVU504
 1408 00d2 0320     		movs	r0, #3
 1409 00d4 A6E7     		b	.L80
 1410              	.L90:
 711:./Libraries/STM32F4xx_HAL_Driver/Src/stm32f4xx_hal_dma.c ****   {
 1411              		.loc 1 711 3 is_stmt 1 view .LVU505
ARM GAS  /tmp/cc0WhI97.s 			page 56


 711:./Libraries/STM32F4xx_HAL_Driver/Src/stm32f4xx_hal_dma.c ****   {
 1412              		.loc 1 711 10 is_stmt 0 view .LVU506
 1413 00d6 636D     		ldr	r3, [r4, #84]
 711:./Libraries/STM32F4xx_HAL_Driver/Src/stm32f4xx_hal_dma.c ****   {
 1414              		.loc 1 711 5 view .LVU507
 1415 00d8 1BB1     		cbz	r3, .L92
 713:./Libraries/STM32F4xx_HAL_Driver/Src/stm32f4xx_hal_dma.c ****     {
 1416              		.loc 1 713 5 is_stmt 1 view .LVU508
 713:./Libraries/STM32F4xx_HAL_Driver/Src/stm32f4xx_hal_dma.c ****     {
 1417              		.loc 1 713 13 is_stmt 0 view .LVU509
 1418 00da 636D     		ldr	r3, [r4, #84]
 713:./Libraries/STM32F4xx_HAL_Driver/Src/stm32f4xx_hal_dma.c ****     {
 1419              		.loc 1 713 7 view .LVU510
 1420 00dc 13F0010F 		tst	r3, #1
 1421 00e0 0ED1     		bne	.L96
 1422              	.L92:
 731:./Libraries/STM32F4xx_HAL_Driver/Src/stm32f4xx_hal_dma.c ****   {
 1423              		.loc 1 731 3 is_stmt 1 view .LVU511
 731:./Libraries/STM32F4xx_HAL_Driver/Src/stm32f4xx_hal_dma.c ****   {
 1424              		.loc 1 731 5 is_stmt 0 view .LVU512
 1425 00e2 B8F1000F 		cmp	r8, #0
 1426 00e6 19D1     		bne	.L93
 734:./Libraries/STM32F4xx_HAL_Driver/Src/stm32f4xx_hal_dma.c ****     
 1427              		.loc 1 734 5 is_stmt 1 view .LVU513
 734:./Libraries/STM32F4xx_HAL_Driver/Src/stm32f4xx_hal_dma.c ****     
 1428              		.loc 1 734 63 is_stmt 0 view .LVU514
 1429 00e8 E26D     		ldr	r2, [r4, #92]
 734:./Libraries/STM32F4xx_HAL_Driver/Src/stm32f4xx_hal_dma.c ****     
 1430              		.loc 1 734 56 view .LVU515
 1431 00ea 3023     		movs	r3, #48
 1432 00ec 9340     		lsls	r3, r3, r2
 734:./Libraries/STM32F4xx_HAL_Driver/Src/stm32f4xx_hal_dma.c ****     
 1433              		.loc 1 734 16 view .LVU516
 1434 00ee BB60     		str	r3, [r7, #8]
 737:./Libraries/STM32F4xx_HAL_Driver/Src/stm32f4xx_hal_dma.c **** 
 1435              		.loc 1 737 5 is_stmt 1 view .LVU517
 737:./Libraries/STM32F4xx_HAL_Driver/Src/stm32f4xx_hal_dma.c **** 
 1436              		.loc 1 737 5 view .LVU518
 1437 00f0 0023     		movs	r3, #0
 1438 00f2 84F83430 		strb	r3, [r4, #52]
 737:./Libraries/STM32F4xx_HAL_Driver/Src/stm32f4xx_hal_dma.c **** 
 1439              		.loc 1 737 5 view .LVU519
 739:./Libraries/STM32F4xx_HAL_Driver/Src/stm32f4xx_hal_dma.c ****   }
 1440              		.loc 1 739 5 view .LVU520
 739:./Libraries/STM32F4xx_HAL_Driver/Src/stm32f4xx_hal_dma.c ****   }
 1441              		.loc 1 739 17 is_stmt 0 view .LVU521
 1442 00f6 0123     		movs	r3, #1
 1443 00f8 84F83530 		strb	r3, [r4, #53]
 747:./Libraries/STM32F4xx_HAL_Driver/Src/stm32f4xx_hal_dma.c **** }
 1444              		.loc 1 747 10 view .LVU522
 1445 00fc 4046     		mov	r0, r8
 1446 00fe 91E7     		b	.L80
 1447              	.L96:
 715:./Libraries/STM32F4xx_HAL_Driver/Src/stm32f4xx_hal_dma.c ****     
 1448              		.loc 1 715 7 is_stmt 1 view .LVU523
 1449 0100 2046     		mov	r0, r4
 1450 0102 FFF7FEFF 		bl	HAL_DMA_Abort
ARM GAS  /tmp/cc0WhI97.s 			page 57


 1451              	.LVL122:
 718:./Libraries/STM32F4xx_HAL_Driver/Src/stm32f4xx_hal_dma.c ****     
 1452              		.loc 1 718 7 view .LVU524
 718:./Libraries/STM32F4xx_HAL_Driver/Src/stm32f4xx_hal_dma.c ****     
 1453              		.loc 1 718 65 is_stmt 0 view .LVU525
 1454 0106 E26D     		ldr	r2, [r4, #92]
 718:./Libraries/STM32F4xx_HAL_Driver/Src/stm32f4xx_hal_dma.c ****     
 1455              		.loc 1 718 58 view .LVU526
 1456 0108 3023     		movs	r3, #48
 1457 010a 9340     		lsls	r3, r3, r2
 718:./Libraries/STM32F4xx_HAL_Driver/Src/stm32f4xx_hal_dma.c ****     
 1458              		.loc 1 718 18 view .LVU527
 1459 010c BB60     		str	r3, [r7, #8]
 721:./Libraries/STM32F4xx_HAL_Driver/Src/stm32f4xx_hal_dma.c **** 
 1460              		.loc 1 721 7 is_stmt 1 view .LVU528
 721:./Libraries/STM32F4xx_HAL_Driver/Src/stm32f4xx_hal_dma.c **** 
 1461              		.loc 1 721 7 view .LVU529
 1462 010e 0023     		movs	r3, #0
 1463 0110 84F83430 		strb	r3, [r4, #52]
 721:./Libraries/STM32F4xx_HAL_Driver/Src/stm32f4xx_hal_dma.c **** 
 1464              		.loc 1 721 7 view .LVU530
 724:./Libraries/STM32F4xx_HAL_Driver/Src/stm32f4xx_hal_dma.c **** 
 1465              		.loc 1 724 7 view .LVU531
 724:./Libraries/STM32F4xx_HAL_Driver/Src/stm32f4xx_hal_dma.c **** 
 1466              		.loc 1 724 18 is_stmt 0 view .LVU532
 1467 0114 0120     		movs	r0, #1
 1468 0116 84F83500 		strb	r0, [r4, #53]
 726:./Libraries/STM32F4xx_HAL_Driver/Src/stm32f4xx_hal_dma.c ****    }
 1469              		.loc 1 726 7 is_stmt 1 view .LVU533
 726:./Libraries/STM32F4xx_HAL_Driver/Src/stm32f4xx_hal_dma.c ****    }
 1470              		.loc 1 726 14 is_stmt 0 view .LVU534
 1471 011a 83E7     		b	.L80
 1472              	.L93:
 744:./Libraries/STM32F4xx_HAL_Driver/Src/stm32f4xx_hal_dma.c ****   }
 1473              		.loc 1 744 5 is_stmt 1 view .LVU535
 744:./Libraries/STM32F4xx_HAL_Driver/Src/stm32f4xx_hal_dma.c ****   }
 1474              		.loc 1 744 44 is_stmt 0 view .LVU536
 1475 011c E26D     		ldr	r2, [r4, #92]
 744:./Libraries/STM32F4xx_HAL_Driver/Src/stm32f4xx_hal_dma.c ****   }
 1476              		.loc 1 744 37 view .LVU537
 1477 011e 1023     		movs	r3, #16
 1478 0120 9340     		lsls	r3, r3, r2
 744:./Libraries/STM32F4xx_HAL_Driver/Src/stm32f4xx_hal_dma.c ****   }
 1479              		.loc 1 744 16 view .LVU538
 1480 0122 BB60     		str	r3, [r7, #8]
 747:./Libraries/STM32F4xx_HAL_Driver/Src/stm32f4xx_hal_dma.c **** }
 1481              		.loc 1 747 10 view .LVU539
 1482 0124 0020     		movs	r0, #0
 1483 0126 7DE7     		b	.L80
 1484              		.cfi_endproc
 1485              	.LFE132:
 1487              		.section	.text.HAL_DMA_IRQHandler,"ax",%progbits
 1488              		.align	1
 1489              		.global	HAL_DMA_IRQHandler
 1490              		.syntax unified
 1491              		.thumb
 1492              		.thumb_func
ARM GAS  /tmp/cc0WhI97.s 			page 58


 1493              		.fpu fpv4-sp-d16
 1495              	HAL_DMA_IRQHandler:
 1496              	.LVL123:
 1497              	.LFB133:
 757:./Libraries/STM32F4xx_HAL_Driver/Src/stm32f4xx_hal_dma.c ****   uint32_t tmpisr;
 1498              		.loc 1 757 1 is_stmt 1 view -0
 1499              		.cfi_startproc
 1500              		@ args = 0, pretend = 0, frame = 8
 1501              		@ frame_needed = 0, uses_anonymous_args = 0
 757:./Libraries/STM32F4xx_HAL_Driver/Src/stm32f4xx_hal_dma.c ****   uint32_t tmpisr;
 1502              		.loc 1 757 1 is_stmt 0 view .LVU541
 1503 0000 F0B5     		push	{r4, r5, r6, r7, lr}
 1504              	.LCFI13:
 1505              		.cfi_def_cfa_offset 20
 1506              		.cfi_offset 4, -20
 1507              		.cfi_offset 5, -16
 1508              		.cfi_offset 6, -12
 1509              		.cfi_offset 7, -8
 1510              		.cfi_offset 14, -4
 1511 0002 83B0     		sub	sp, sp, #12
 1512              	.LCFI14:
 1513              		.cfi_def_cfa_offset 32
 1514 0004 0446     		mov	r4, r0
 758:./Libraries/STM32F4xx_HAL_Driver/Src/stm32f4xx_hal_dma.c ****   __IO uint32_t count = 0U;
 1515              		.loc 1 758 3 is_stmt 1 view .LVU542
 759:./Libraries/STM32F4xx_HAL_Driver/Src/stm32f4xx_hal_dma.c ****   uint32_t timeout = SystemCoreClock / 9600U;
 1516              		.loc 1 759 3 view .LVU543
 759:./Libraries/STM32F4xx_HAL_Driver/Src/stm32f4xx_hal_dma.c ****   uint32_t timeout = SystemCoreClock / 9600U;
 1517              		.loc 1 759 17 is_stmt 0 view .LVU544
 1518 0006 0023     		movs	r3, #0
 1519 0008 0193     		str	r3, [sp, #4]
 760:./Libraries/STM32F4xx_HAL_Driver/Src/stm32f4xx_hal_dma.c **** 
 1520              		.loc 1 760 3 is_stmt 1 view .LVU545
 760:./Libraries/STM32F4xx_HAL_Driver/Src/stm32f4xx_hal_dma.c **** 
 1521              		.loc 1 760 38 is_stmt 0 view .LVU546
 1522 000a 724B     		ldr	r3, .L120
 1523 000c 1D68     		ldr	r5, [r3]
 760:./Libraries/STM32F4xx_HAL_Driver/Src/stm32f4xx_hal_dma.c **** 
 1524              		.loc 1 760 12 view .LVU547
 1525 000e 724B     		ldr	r3, .L120+4
 1526 0010 A3FB0535 		umull	r3, r5, r3, r5
 1527 0014 AD0A     		lsrs	r5, r5, #10
 1528              	.LVL124:
 763:./Libraries/STM32F4xx_HAL_Driver/Src/stm32f4xx_hal_dma.c **** 
 1529              		.loc 1 763 3 is_stmt 1 view .LVU548
 763:./Libraries/STM32F4xx_HAL_Driver/Src/stm32f4xx_hal_dma.c **** 
 1530              		.loc 1 763 56 is_stmt 0 view .LVU549
 1531 0016 876D     		ldr	r7, [r0, #88]
 1532              	.LVL125:
 765:./Libraries/STM32F4xx_HAL_Driver/Src/stm32f4xx_hal_dma.c **** 
 1533              		.loc 1 765 3 is_stmt 1 view .LVU550
 765:./Libraries/STM32F4xx_HAL_Driver/Src/stm32f4xx_hal_dma.c **** 
 1534              		.loc 1 765 10 is_stmt 0 view .LVU551
 1535 0018 3E68     		ldr	r6, [r7]
 1536              	.LVL126:
 768:./Libraries/STM32F4xx_HAL_Driver/Src/stm32f4xx_hal_dma.c ****   {
 1537              		.loc 1 768 3 is_stmt 1 view .LVU552
ARM GAS  /tmp/cc0WhI97.s 			page 59


 768:./Libraries/STM32F4xx_HAL_Driver/Src/stm32f4xx_hal_dma.c ****   {
 1538              		.loc 1 768 42 is_stmt 0 view .LVU553
 1539 001a C26D     		ldr	r2, [r0, #92]
 768:./Libraries/STM32F4xx_HAL_Driver/Src/stm32f4xx_hal_dma.c ****   {
 1540              		.loc 1 768 35 view .LVU554
 1541 001c 0823     		movs	r3, #8
 1542 001e 9340     		lsls	r3, r3, r2
 768:./Libraries/STM32F4xx_HAL_Driver/Src/stm32f4xx_hal_dma.c ****   {
 1543              		.loc 1 768 6 view .LVU555
 1544 0020 3342     		tst	r3, r6
 1545 0022 10D0     		beq	.L98
 770:./Libraries/STM32F4xx_HAL_Driver/Src/stm32f4xx_hal_dma.c ****     {
 1546              		.loc 1 770 5 is_stmt 1 view .LVU556
 770:./Libraries/STM32F4xx_HAL_Driver/Src/stm32f4xx_hal_dma.c ****     {
 1547              		.loc 1 770 8 is_stmt 0 view .LVU557
 1548 0024 0368     		ldr	r3, [r0]
 1549 0026 1A68     		ldr	r2, [r3]
 770:./Libraries/STM32F4xx_HAL_Driver/Src/stm32f4xx_hal_dma.c ****     {
 1550              		.loc 1 770 7 view .LVU558
 1551 0028 12F0040F 		tst	r2, #4
 1552 002c 0BD0     		beq	.L98
 773:./Libraries/STM32F4xx_HAL_Driver/Src/stm32f4xx_hal_dma.c ****       
 1553              		.loc 1 773 7 is_stmt 1 view .LVU559
 773:./Libraries/STM32F4xx_HAL_Driver/Src/stm32f4xx_hal_dma.c ****       
 1554              		.loc 1 773 27 is_stmt 0 view .LVU560
 1555 002e 1A68     		ldr	r2, [r3]
 1556 0030 22F00402 		bic	r2, r2, #4
 1557 0034 1A60     		str	r2, [r3]
 776:./Libraries/STM32F4xx_HAL_Driver/Src/stm32f4xx_hal_dma.c ****       
 1558              		.loc 1 776 7 is_stmt 1 view .LVU561
 776:./Libraries/STM32F4xx_HAL_Driver/Src/stm32f4xx_hal_dma.c ****       
 1559              		.loc 1 776 44 is_stmt 0 view .LVU562
 1560 0036 C26D     		ldr	r2, [r0, #92]
 776:./Libraries/STM32F4xx_HAL_Driver/Src/stm32f4xx_hal_dma.c ****       
 1561              		.loc 1 776 37 view .LVU563
 1562 0038 0823     		movs	r3, #8
 1563 003a 9340     		lsls	r3, r3, r2
 776:./Libraries/STM32F4xx_HAL_Driver/Src/stm32f4xx_hal_dma.c ****       
 1564              		.loc 1 776 18 view .LVU564
 1565 003c BB60     		str	r3, [r7, #8]
 779:./Libraries/STM32F4xx_HAL_Driver/Src/stm32f4xx_hal_dma.c ****     }
 1566              		.loc 1 779 7 is_stmt 1 view .LVU565
 779:./Libraries/STM32F4xx_HAL_Driver/Src/stm32f4xx_hal_dma.c ****     }
 1567              		.loc 1 779 23 is_stmt 0 view .LVU566
 1568 003e 436D     		ldr	r3, [r0, #84]
 1569 0040 43F00103 		orr	r3, r3, #1
 1570 0044 4365     		str	r3, [r0, #84]
 1571              	.L98:
 783:./Libraries/STM32F4xx_HAL_Driver/Src/stm32f4xx_hal_dma.c ****   {
 1572              		.loc 1 783 3 is_stmt 1 view .LVU567
 783:./Libraries/STM32F4xx_HAL_Driver/Src/stm32f4xx_hal_dma.c ****   {
 1573              		.loc 1 783 42 is_stmt 0 view .LVU568
 1574 0046 E26D     		ldr	r2, [r4, #92]
 783:./Libraries/STM32F4xx_HAL_Driver/Src/stm32f4xx_hal_dma.c ****   {
 1575              		.loc 1 783 35 view .LVU569
 1576 0048 0123     		movs	r3, #1
 1577 004a 9340     		lsls	r3, r3, r2
ARM GAS  /tmp/cc0WhI97.s 			page 60


 783:./Libraries/STM32F4xx_HAL_Driver/Src/stm32f4xx_hal_dma.c ****   {
 1578              		.loc 1 783 6 view .LVU570
 1579 004c 3342     		tst	r3, r6
 1580 004e 09D0     		beq	.L99
 785:./Libraries/STM32F4xx_HAL_Driver/Src/stm32f4xx_hal_dma.c ****     {
 1581              		.loc 1 785 5 is_stmt 1 view .LVU571
 785:./Libraries/STM32F4xx_HAL_Driver/Src/stm32f4xx_hal_dma.c ****     {
 1582              		.loc 1 785 8 is_stmt 0 view .LVU572
 1583 0050 2268     		ldr	r2, [r4]
 1584 0052 5269     		ldr	r2, [r2, #20]
 785:./Libraries/STM32F4xx_HAL_Driver/Src/stm32f4xx_hal_dma.c ****     {
 1585              		.loc 1 785 7 view .LVU573
 1586 0054 12F0800F 		tst	r2, #128
 1587 0058 04D0     		beq	.L99
 788:./Libraries/STM32F4xx_HAL_Driver/Src/stm32f4xx_hal_dma.c **** 
 1588              		.loc 1 788 7 is_stmt 1 view .LVU574
 788:./Libraries/STM32F4xx_HAL_Driver/Src/stm32f4xx_hal_dma.c **** 
 1589              		.loc 1 788 18 is_stmt 0 view .LVU575
 1590 005a BB60     		str	r3, [r7, #8]
 791:./Libraries/STM32F4xx_HAL_Driver/Src/stm32f4xx_hal_dma.c ****     }
 1591              		.loc 1 791 7 is_stmt 1 view .LVU576
 791:./Libraries/STM32F4xx_HAL_Driver/Src/stm32f4xx_hal_dma.c ****     }
 1592              		.loc 1 791 23 is_stmt 0 view .LVU577
 1593 005c 636D     		ldr	r3, [r4, #84]
 1594 005e 43F00203 		orr	r3, r3, #2
 1595 0062 6365     		str	r3, [r4, #84]
 1596              	.L99:
 795:./Libraries/STM32F4xx_HAL_Driver/Src/stm32f4xx_hal_dma.c ****   {
 1597              		.loc 1 795 3 is_stmt 1 view .LVU578
 795:./Libraries/STM32F4xx_HAL_Driver/Src/stm32f4xx_hal_dma.c ****   {
 1598              		.loc 1 795 43 is_stmt 0 view .LVU579
 1599 0064 E26D     		ldr	r2, [r4, #92]
 795:./Libraries/STM32F4xx_HAL_Driver/Src/stm32f4xx_hal_dma.c ****   {
 1600              		.loc 1 795 36 view .LVU580
 1601 0066 0423     		movs	r3, #4
 1602 0068 9340     		lsls	r3, r3, r2
 795:./Libraries/STM32F4xx_HAL_Driver/Src/stm32f4xx_hal_dma.c ****   {
 1603              		.loc 1 795 6 view .LVU581
 1604 006a 3342     		tst	r3, r6
 1605 006c 09D0     		beq	.L100
 797:./Libraries/STM32F4xx_HAL_Driver/Src/stm32f4xx_hal_dma.c ****     {
 1606              		.loc 1 797 5 is_stmt 1 view .LVU582
 797:./Libraries/STM32F4xx_HAL_Driver/Src/stm32f4xx_hal_dma.c ****     {
 1607              		.loc 1 797 8 is_stmt 0 view .LVU583
 1608 006e 2268     		ldr	r2, [r4]
 1609 0070 1268     		ldr	r2, [r2]
 797:./Libraries/STM32F4xx_HAL_Driver/Src/stm32f4xx_hal_dma.c ****     {
 1610              		.loc 1 797 7 view .LVU584
 1611 0072 12F0020F 		tst	r2, #2
 1612 0076 04D0     		beq	.L100
 800:./Libraries/STM32F4xx_HAL_Driver/Src/stm32f4xx_hal_dma.c **** 
 1613              		.loc 1 800 7 is_stmt 1 view .LVU585
 800:./Libraries/STM32F4xx_HAL_Driver/Src/stm32f4xx_hal_dma.c **** 
 1614              		.loc 1 800 18 is_stmt 0 view .LVU586
 1615 0078 BB60     		str	r3, [r7, #8]
 803:./Libraries/STM32F4xx_HAL_Driver/Src/stm32f4xx_hal_dma.c ****     }
 1616              		.loc 1 803 7 is_stmt 1 view .LVU587
ARM GAS  /tmp/cc0WhI97.s 			page 61


 803:./Libraries/STM32F4xx_HAL_Driver/Src/stm32f4xx_hal_dma.c ****     }
 1617              		.loc 1 803 23 is_stmt 0 view .LVU588
 1618 007a 636D     		ldr	r3, [r4, #84]
 1619 007c 43F00403 		orr	r3, r3, #4
 1620 0080 6365     		str	r3, [r4, #84]
 1621              	.L100:
 807:./Libraries/STM32F4xx_HAL_Driver/Src/stm32f4xx_hal_dma.c ****   {
 1622              		.loc 1 807 3 is_stmt 1 view .LVU589
 807:./Libraries/STM32F4xx_HAL_Driver/Src/stm32f4xx_hal_dma.c ****   {
 1623              		.loc 1 807 42 is_stmt 0 view .LVU590
 1624 0082 E26D     		ldr	r2, [r4, #92]
 807:./Libraries/STM32F4xx_HAL_Driver/Src/stm32f4xx_hal_dma.c ****   {
 1625              		.loc 1 807 35 view .LVU591
 1626 0084 1023     		movs	r3, #16
 1627 0086 9340     		lsls	r3, r3, r2
 807:./Libraries/STM32F4xx_HAL_Driver/Src/stm32f4xx_hal_dma.c ****   {
 1628              		.loc 1 807 6 view .LVU592
 1629 0088 3342     		tst	r3, r6
 1630 008a 24D0     		beq	.L101
 809:./Libraries/STM32F4xx_HAL_Driver/Src/stm32f4xx_hal_dma.c ****     {
 1631              		.loc 1 809 5 is_stmt 1 view .LVU593
 809:./Libraries/STM32F4xx_HAL_Driver/Src/stm32f4xx_hal_dma.c ****     {
 1632              		.loc 1 809 8 is_stmt 0 view .LVU594
 1633 008c 2268     		ldr	r2, [r4]
 1634 008e 1268     		ldr	r2, [r2]
 809:./Libraries/STM32F4xx_HAL_Driver/Src/stm32f4xx_hal_dma.c ****     {
 1635              		.loc 1 809 7 view .LVU595
 1636 0090 12F0080F 		tst	r2, #8
 1637 0094 1FD0     		beq	.L101
 812:./Libraries/STM32F4xx_HAL_Driver/Src/stm32f4xx_hal_dma.c ****       
 1638              		.loc 1 812 7 is_stmt 1 view .LVU596
 812:./Libraries/STM32F4xx_HAL_Driver/Src/stm32f4xx_hal_dma.c ****       
 1639              		.loc 1 812 18 is_stmt 0 view .LVU597
 1640 0096 BB60     		str	r3, [r7, #8]
 815:./Libraries/STM32F4xx_HAL_Driver/Src/stm32f4xx_hal_dma.c ****       {
 1641              		.loc 1 815 7 is_stmt 1 view .LVU598
 815:./Libraries/STM32F4xx_HAL_Driver/Src/stm32f4xx_hal_dma.c ****       {
 1642              		.loc 1 815 16 is_stmt 0 view .LVU599
 1643 0098 2368     		ldr	r3, [r4]
 815:./Libraries/STM32F4xx_HAL_Driver/Src/stm32f4xx_hal_dma.c ****       {
 1644              		.loc 1 815 26 view .LVU600
 1645 009a 1A68     		ldr	r2, [r3]
 815:./Libraries/STM32F4xx_HAL_Driver/Src/stm32f4xx_hal_dma.c ****       {
 1646              		.loc 1 815 9 view .LVU601
 1647 009c 12F4802F 		tst	r2, #262144
 1648 00a0 0DD0     		beq	.L102
 818:./Libraries/STM32F4xx_HAL_Driver/Src/stm32f4xx_hal_dma.c ****         {
 1649              		.loc 1 818 9 is_stmt 1 view .LVU602
 818:./Libraries/STM32F4xx_HAL_Driver/Src/stm32f4xx_hal_dma.c ****         {
 1650              		.loc 1 818 27 is_stmt 0 view .LVU603
 1651 00a2 1B68     		ldr	r3, [r3]
 818:./Libraries/STM32F4xx_HAL_Driver/Src/stm32f4xx_hal_dma.c ****         {
 1652              		.loc 1 818 11 view .LVU604
 1653 00a4 13F4002F 		tst	r3, #524288
 1654 00a8 04D1     		bne	.L103
 820:./Libraries/STM32F4xx_HAL_Driver/Src/stm32f4xx_hal_dma.c ****           {
 1655              		.loc 1 820 11 is_stmt 1 view .LVU605
ARM GAS  /tmp/cc0WhI97.s 			page 62


 820:./Libraries/STM32F4xx_HAL_Driver/Src/stm32f4xx_hal_dma.c ****           {
 1656              		.loc 1 820 18 is_stmt 0 view .LVU606
 1657 00aa 236C     		ldr	r3, [r4, #64]
 820:./Libraries/STM32F4xx_HAL_Driver/Src/stm32f4xx_hal_dma.c ****           {
 1658              		.loc 1 820 13 view .LVU607
 1659 00ac 9BB1     		cbz	r3, .L101
 823:./Libraries/STM32F4xx_HAL_Driver/Src/stm32f4xx_hal_dma.c ****           }
 1660              		.loc 1 823 13 is_stmt 1 view .LVU608
 1661 00ae 2046     		mov	r0, r4
 1662              	.LVL127:
 823:./Libraries/STM32F4xx_HAL_Driver/Src/stm32f4xx_hal_dma.c ****           }
 1663              		.loc 1 823 13 is_stmt 0 view .LVU609
 1664 00b0 9847     		blx	r3
 1665              	.LVL128:
 1666 00b2 10E0     		b	.L101
 1667              	.LVL129:
 1668              	.L103:
 829:./Libraries/STM32F4xx_HAL_Driver/Src/stm32f4xx_hal_dma.c ****           {
 1669              		.loc 1 829 11 is_stmt 1 view .LVU610
 829:./Libraries/STM32F4xx_HAL_Driver/Src/stm32f4xx_hal_dma.c ****           {
 1670              		.loc 1 829 18 is_stmt 0 view .LVU611
 1671 00b4 A36C     		ldr	r3, [r4, #72]
 829:./Libraries/STM32F4xx_HAL_Driver/Src/stm32f4xx_hal_dma.c ****           {
 1672              		.loc 1 829 13 view .LVU612
 1673 00b6 73B1     		cbz	r3, .L101
 832:./Libraries/STM32F4xx_HAL_Driver/Src/stm32f4xx_hal_dma.c ****           }
 1674              		.loc 1 832 13 is_stmt 1 view .LVU613
 1675 00b8 2046     		mov	r0, r4
 1676              	.LVL130:
 832:./Libraries/STM32F4xx_HAL_Driver/Src/stm32f4xx_hal_dma.c ****           }
 1677              		.loc 1 832 13 is_stmt 0 view .LVU614
 1678 00ba 9847     		blx	r3
 1679              	.LVL131:
 1680 00bc 0BE0     		b	.L101
 1681              	.LVL132:
 1682              	.L102:
 839:./Libraries/STM32F4xx_HAL_Driver/Src/stm32f4xx_hal_dma.c ****         {
 1683              		.loc 1 839 9 is_stmt 1 view .LVU615
 839:./Libraries/STM32F4xx_HAL_Driver/Src/stm32f4xx_hal_dma.c ****         {
 1684              		.loc 1 839 27 is_stmt 0 view .LVU616
 1685 00be 1A68     		ldr	r2, [r3]
 839:./Libraries/STM32F4xx_HAL_Driver/Src/stm32f4xx_hal_dma.c ****         {
 1686              		.loc 1 839 11 view .LVU617
 1687 00c0 12F4807F 		tst	r2, #256
 1688 00c4 03D1     		bne	.L104
 842:./Libraries/STM32F4xx_HAL_Driver/Src/stm32f4xx_hal_dma.c ****         }
 1689              		.loc 1 842 11 is_stmt 1 view .LVU618
 842:./Libraries/STM32F4xx_HAL_Driver/Src/stm32f4xx_hal_dma.c ****         }
 1690              		.loc 1 842 31 is_stmt 0 view .LVU619
 1691 00c6 1A68     		ldr	r2, [r3]
 1692 00c8 22F00802 		bic	r2, r2, #8
 1693 00cc 1A60     		str	r2, [r3]
 1694              	.L104:
 845:./Libraries/STM32F4xx_HAL_Driver/Src/stm32f4xx_hal_dma.c ****         {
 1695              		.loc 1 845 9 is_stmt 1 view .LVU620
 845:./Libraries/STM32F4xx_HAL_Driver/Src/stm32f4xx_hal_dma.c ****         {
 1696              		.loc 1 845 16 is_stmt 0 view .LVU621
ARM GAS  /tmp/cc0WhI97.s 			page 63


 1697 00ce 236C     		ldr	r3, [r4, #64]
 845:./Libraries/STM32F4xx_HAL_Driver/Src/stm32f4xx_hal_dma.c ****         {
 1698              		.loc 1 845 11 view .LVU622
 1699 00d0 0BB1     		cbz	r3, .L101
 848:./Libraries/STM32F4xx_HAL_Driver/Src/stm32f4xx_hal_dma.c ****         }
 1700              		.loc 1 848 11 is_stmt 1 view .LVU623
 1701 00d2 2046     		mov	r0, r4
 1702              	.LVL133:
 848:./Libraries/STM32F4xx_HAL_Driver/Src/stm32f4xx_hal_dma.c ****         }
 1703              		.loc 1 848 11 is_stmt 0 view .LVU624
 1704 00d4 9847     		blx	r3
 1705              	.LVL134:
 1706              	.L101:
 854:./Libraries/STM32F4xx_HAL_Driver/Src/stm32f4xx_hal_dma.c ****   {
 1707              		.loc 1 854 3 is_stmt 1 view .LVU625
 854:./Libraries/STM32F4xx_HAL_Driver/Src/stm32f4xx_hal_dma.c ****   {
 1708              		.loc 1 854 42 is_stmt 0 view .LVU626
 1709 00d6 E26D     		ldr	r2, [r4, #92]
 854:./Libraries/STM32F4xx_HAL_Driver/Src/stm32f4xx_hal_dma.c ****   {
 1710              		.loc 1 854 35 view .LVU627
 1711 00d8 2023     		movs	r3, #32
 1712 00da 9340     		lsls	r3, r3, r2
 854:./Libraries/STM32F4xx_HAL_Driver/Src/stm32f4xx_hal_dma.c ****   {
 1713              		.loc 1 854 6 view .LVU628
 1714 00dc 3342     		tst	r3, r6
 1715 00de 55D0     		beq	.L105
 856:./Libraries/STM32F4xx_HAL_Driver/Src/stm32f4xx_hal_dma.c ****     {
 1716              		.loc 1 856 5 is_stmt 1 view .LVU629
 856:./Libraries/STM32F4xx_HAL_Driver/Src/stm32f4xx_hal_dma.c ****     {
 1717              		.loc 1 856 8 is_stmt 0 view .LVU630
 1718 00e0 2268     		ldr	r2, [r4]
 1719 00e2 1268     		ldr	r2, [r2]
 856:./Libraries/STM32F4xx_HAL_Driver/Src/stm32f4xx_hal_dma.c ****     {
 1720              		.loc 1 856 7 view .LVU631
 1721 00e4 12F0100F 		tst	r2, #16
 1722 00e8 50D0     		beq	.L105
 859:./Libraries/STM32F4xx_HAL_Driver/Src/stm32f4xx_hal_dma.c ****       
 1723              		.loc 1 859 7 is_stmt 1 view .LVU632
 859:./Libraries/STM32F4xx_HAL_Driver/Src/stm32f4xx_hal_dma.c ****       
 1724              		.loc 1 859 18 is_stmt 0 view .LVU633
 1725 00ea BB60     		str	r3, [r7, #8]
 861:./Libraries/STM32F4xx_HAL_Driver/Src/stm32f4xx_hal_dma.c ****       {
 1726              		.loc 1 861 7 is_stmt 1 view .LVU634
 861:./Libraries/STM32F4xx_HAL_Driver/Src/stm32f4xx_hal_dma.c ****       {
 1727              		.loc 1 861 37 is_stmt 0 view .LVU635
 1728 00ec 94F83530 		ldrb	r3, [r4, #53]	@ zero_extendqisi2
 1729 00f0 DBB2     		uxtb	r3, r3
 861:./Libraries/STM32F4xx_HAL_Driver/Src/stm32f4xx_hal_dma.c ****       {
 1730              		.loc 1 861 9 view .LVU636
 1731 00f2 052B     		cmp	r3, #5
 1732 00f4 0ED0     		beq	.L118
 888:./Libraries/STM32F4xx_HAL_Driver/Src/stm32f4xx_hal_dma.c ****       {
 1733              		.loc 1 888 7 is_stmt 1 view .LVU637
 888:./Libraries/STM32F4xx_HAL_Driver/Src/stm32f4xx_hal_dma.c ****       {
 1734              		.loc 1 888 16 is_stmt 0 view .LVU638
 1735 00f6 2368     		ldr	r3, [r4]
 888:./Libraries/STM32F4xx_HAL_Driver/Src/stm32f4xx_hal_dma.c ****       {
ARM GAS  /tmp/cc0WhI97.s 			page 64


 1736              		.loc 1 888 26 view .LVU639
 1737 00f8 1A68     		ldr	r2, [r3]
 888:./Libraries/STM32F4xx_HAL_Driver/Src/stm32f4xx_hal_dma.c ****       {
 1738              		.loc 1 888 9 view .LVU640
 1739 00fa 12F4802F 		tst	r2, #262144
 1740 00fe 33D0     		beq	.L111
 891:./Libraries/STM32F4xx_HAL_Driver/Src/stm32f4xx_hal_dma.c ****         {
 1741              		.loc 1 891 9 is_stmt 1 view .LVU641
 891:./Libraries/STM32F4xx_HAL_Driver/Src/stm32f4xx_hal_dma.c ****         {
 1742              		.loc 1 891 27 is_stmt 0 view .LVU642
 1743 0100 1B68     		ldr	r3, [r3]
 891:./Libraries/STM32F4xx_HAL_Driver/Src/stm32f4xx_hal_dma.c ****         {
 1744              		.loc 1 891 11 view .LVU643
 1745 0102 13F4002F 		tst	r3, #524288
 1746 0106 2AD1     		bne	.L112
 893:./Libraries/STM32F4xx_HAL_Driver/Src/stm32f4xx_hal_dma.c ****           {
 1747              		.loc 1 893 11 is_stmt 1 view .LVU644
 893:./Libraries/STM32F4xx_HAL_Driver/Src/stm32f4xx_hal_dma.c ****           {
 1748              		.loc 1 893 18 is_stmt 0 view .LVU645
 1749 0108 636C     		ldr	r3, [r4, #68]
 893:./Libraries/STM32F4xx_HAL_Driver/Src/stm32f4xx_hal_dma.c ****           {
 1750              		.loc 1 893 13 view .LVU646
 1751 010a 002B     		cmp	r3, #0
 1752 010c 3ED0     		beq	.L105
 896:./Libraries/STM32F4xx_HAL_Driver/Src/stm32f4xx_hal_dma.c ****           }
 1753              		.loc 1 896 13 is_stmt 1 view .LVU647
 1754 010e 2046     		mov	r0, r4
 1755 0110 9847     		blx	r3
 1756              	.LVL135:
 1757 0112 3BE0     		b	.L105
 1758              	.L118:
 864:./Libraries/STM32F4xx_HAL_Driver/Src/stm32f4xx_hal_dma.c ****         hdma->Instance->FCR &= ~(DMA_IT_FE);
 1759              		.loc 1 864 9 view .LVU648
 864:./Libraries/STM32F4xx_HAL_Driver/Src/stm32f4xx_hal_dma.c ****         hdma->Instance->FCR &= ~(DMA_IT_FE);
 1760              		.loc 1 864 13 is_stmt 0 view .LVU649
 1761 0114 2268     		ldr	r2, [r4]
 864:./Libraries/STM32F4xx_HAL_Driver/Src/stm32f4xx_hal_dma.c ****         hdma->Instance->FCR &= ~(DMA_IT_FE);
 1762              		.loc 1 864 29 view .LVU650
 1763 0116 1368     		ldr	r3, [r2]
 1764 0118 23F01603 		bic	r3, r3, #22
 1765 011c 1360     		str	r3, [r2]
 865:./Libraries/STM32F4xx_HAL_Driver/Src/stm32f4xx_hal_dma.c ****         
 1766              		.loc 1 865 9 is_stmt 1 view .LVU651
 865:./Libraries/STM32F4xx_HAL_Driver/Src/stm32f4xx_hal_dma.c ****         
 1767              		.loc 1 865 13 is_stmt 0 view .LVU652
 1768 011e 2268     		ldr	r2, [r4]
 865:./Libraries/STM32F4xx_HAL_Driver/Src/stm32f4xx_hal_dma.c ****         
 1769              		.loc 1 865 29 view .LVU653
 1770 0120 5369     		ldr	r3, [r2, #20]
 1771 0122 23F08003 		bic	r3, r3, #128
 1772 0126 5361     		str	r3, [r2, #20]
 867:./Libraries/STM32F4xx_HAL_Driver/Src/stm32f4xx_hal_dma.c ****         {
 1773              		.loc 1 867 9 is_stmt 1 view .LVU654
 867:./Libraries/STM32F4xx_HAL_Driver/Src/stm32f4xx_hal_dma.c ****         {
 1774              		.loc 1 867 17 is_stmt 0 view .LVU655
 1775 0128 236C     		ldr	r3, [r4, #64]
 867:./Libraries/STM32F4xx_HAL_Driver/Src/stm32f4xx_hal_dma.c ****         {
ARM GAS  /tmp/cc0WhI97.s 			page 65


 1776              		.loc 1 867 11 view .LVU656
 1777 012a A3B1     		cbz	r3, .L119
 1778              	.L107:
 869:./Libraries/STM32F4xx_HAL_Driver/Src/stm32f4xx_hal_dma.c ****         }
 1779              		.loc 1 869 11 is_stmt 1 view .LVU657
 869:./Libraries/STM32F4xx_HAL_Driver/Src/stm32f4xx_hal_dma.c ****         }
 1780              		.loc 1 869 15 is_stmt 0 view .LVU658
 1781 012c 2268     		ldr	r2, [r4]
 869:./Libraries/STM32F4xx_HAL_Driver/Src/stm32f4xx_hal_dma.c ****         }
 1782              		.loc 1 869 31 view .LVU659
 1783 012e 1368     		ldr	r3, [r2]
 1784 0130 23F00803 		bic	r3, r3, #8
 1785 0134 1360     		str	r3, [r2]
 1786              	.L108:
 873:./Libraries/STM32F4xx_HAL_Driver/Src/stm32f4xx_hal_dma.c **** 
 1787              		.loc 1 873 9 is_stmt 1 view .LVU660
 873:./Libraries/STM32F4xx_HAL_Driver/Src/stm32f4xx_hal_dma.c **** 
 1788              		.loc 1 873 35 is_stmt 0 view .LVU661
 1789 0136 E26D     		ldr	r2, [r4, #92]
 873:./Libraries/STM32F4xx_HAL_Driver/Src/stm32f4xx_hal_dma.c **** 
 1790              		.loc 1 873 28 view .LVU662
 1791 0138 3F23     		movs	r3, #63
 1792 013a 9340     		lsls	r3, r3, r2
 873:./Libraries/STM32F4xx_HAL_Driver/Src/stm32f4xx_hal_dma.c **** 
 1793              		.loc 1 873 20 view .LVU663
 1794 013c BB60     		str	r3, [r7, #8]
 876:./Libraries/STM32F4xx_HAL_Driver/Src/stm32f4xx_hal_dma.c **** 
 1795              		.loc 1 876 9 is_stmt 1 view .LVU664
 876:./Libraries/STM32F4xx_HAL_Driver/Src/stm32f4xx_hal_dma.c **** 
 1796              		.loc 1 876 9 view .LVU665
 1797 013e 0023     		movs	r3, #0
 1798 0140 84F83430 		strb	r3, [r4, #52]
 876:./Libraries/STM32F4xx_HAL_Driver/Src/stm32f4xx_hal_dma.c **** 
 1799              		.loc 1 876 9 view .LVU666
 879:./Libraries/STM32F4xx_HAL_Driver/Src/stm32f4xx_hal_dma.c **** 
 1800              		.loc 1 879 9 view .LVU667
 879:./Libraries/STM32F4xx_HAL_Driver/Src/stm32f4xx_hal_dma.c **** 
 1801              		.loc 1 879 21 is_stmt 0 view .LVU668
 1802 0144 0123     		movs	r3, #1
 1803 0146 84F83530 		strb	r3, [r4, #53]
 881:./Libraries/STM32F4xx_HAL_Driver/Src/stm32f4xx_hal_dma.c ****         {
 1804              		.loc 1 881 9 is_stmt 1 view .LVU669
 881:./Libraries/STM32F4xx_HAL_Driver/Src/stm32f4xx_hal_dma.c ****         {
 1805              		.loc 1 881 16 is_stmt 0 view .LVU670
 1806 014a 236D     		ldr	r3, [r4, #80]
 881:./Libraries/STM32F4xx_HAL_Driver/Src/stm32f4xx_hal_dma.c ****         {
 1807              		.loc 1 881 11 view .LVU671
 1808 014c 002B     		cmp	r3, #0
 1809 014e 3FD0     		beq	.L97
 883:./Libraries/STM32F4xx_HAL_Driver/Src/stm32f4xx_hal_dma.c ****         }
 1810              		.loc 1 883 11 is_stmt 1 view .LVU672
 1811 0150 2046     		mov	r0, r4
 1812 0152 9847     		blx	r3
 1813              	.LVL136:
 885:./Libraries/STM32F4xx_HAL_Driver/Src/stm32f4xx_hal_dma.c ****       }
 1814              		.loc 1 885 9 view .LVU673
 1815 0154 3CE0     		b	.L97
ARM GAS  /tmp/cc0WhI97.s 			page 66


 1816              	.L119:
 867:./Libraries/STM32F4xx_HAL_Driver/Src/stm32f4xx_hal_dma.c ****         {
 1817              		.loc 1 867 57 is_stmt 0 discriminator 1 view .LVU674
 1818 0156 A36C     		ldr	r3, [r4, #72]
 867:./Libraries/STM32F4xx_HAL_Driver/Src/stm32f4xx_hal_dma.c ****         {
 1819              		.loc 1 867 49 discriminator 1 view .LVU675
 1820 0158 002B     		cmp	r3, #0
 1821 015a E7D1     		bne	.L107
 1822 015c EBE7     		b	.L108
 1823              	.L112:
 902:./Libraries/STM32F4xx_HAL_Driver/Src/stm32f4xx_hal_dma.c ****           {
 1824              		.loc 1 902 11 is_stmt 1 view .LVU676
 902:./Libraries/STM32F4xx_HAL_Driver/Src/stm32f4xx_hal_dma.c ****           {
 1825              		.loc 1 902 18 is_stmt 0 view .LVU677
 1826 015e E36B     		ldr	r3, [r4, #60]
 902:./Libraries/STM32F4xx_HAL_Driver/Src/stm32f4xx_hal_dma.c ****           {
 1827              		.loc 1 902 13 view .LVU678
 1828 0160 A3B1     		cbz	r3, .L105
 905:./Libraries/STM32F4xx_HAL_Driver/Src/stm32f4xx_hal_dma.c ****           }
 1829              		.loc 1 905 13 is_stmt 1 view .LVU679
 1830 0162 2046     		mov	r0, r4
 1831 0164 9847     		blx	r3
 1832              	.LVL137:
 1833 0166 11E0     		b	.L105
 1834              	.L111:
 912:./Libraries/STM32F4xx_HAL_Driver/Src/stm32f4xx_hal_dma.c ****         {
 1835              		.loc 1 912 9 view .LVU680
 912:./Libraries/STM32F4xx_HAL_Driver/Src/stm32f4xx_hal_dma.c ****         {
 1836              		.loc 1 912 27 is_stmt 0 view .LVU681
 1837 0168 1A68     		ldr	r2, [r3]
 912:./Libraries/STM32F4xx_HAL_Driver/Src/stm32f4xx_hal_dma.c ****         {
 1838              		.loc 1 912 11 view .LVU682
 1839 016a 12F4807F 		tst	r2, #256
 1840 016e 09D1     		bne	.L113
 915:./Libraries/STM32F4xx_HAL_Driver/Src/stm32f4xx_hal_dma.c **** 
 1841              		.loc 1 915 11 is_stmt 1 view .LVU683
 915:./Libraries/STM32F4xx_HAL_Driver/Src/stm32f4xx_hal_dma.c **** 
 1842              		.loc 1 915 31 is_stmt 0 view .LVU684
 1843 0170 1A68     		ldr	r2, [r3]
 1844 0172 22F01002 		bic	r2, r2, #16
 1845 0176 1A60     		str	r2, [r3]
 918:./Libraries/STM32F4xx_HAL_Driver/Src/stm32f4xx_hal_dma.c **** 
 1846              		.loc 1 918 11 is_stmt 1 view .LVU685
 918:./Libraries/STM32F4xx_HAL_Driver/Src/stm32f4xx_hal_dma.c **** 
 1847              		.loc 1 918 11 view .LVU686
 1848 0178 0023     		movs	r3, #0
 1849 017a 84F83430 		strb	r3, [r4, #52]
 918:./Libraries/STM32F4xx_HAL_Driver/Src/stm32f4xx_hal_dma.c **** 
 1850              		.loc 1 918 11 view .LVU687
 921:./Libraries/STM32F4xx_HAL_Driver/Src/stm32f4xx_hal_dma.c ****         }
 1851              		.loc 1 921 11 view .LVU688
 921:./Libraries/STM32F4xx_HAL_Driver/Src/stm32f4xx_hal_dma.c ****         }
 1852              		.loc 1 921 23 is_stmt 0 view .LVU689
 1853 017e 0123     		movs	r3, #1
 1854 0180 84F83530 		strb	r3, [r4, #53]
 1855              	.L113:
 924:./Libraries/STM32F4xx_HAL_Driver/Src/stm32f4xx_hal_dma.c ****         {
ARM GAS  /tmp/cc0WhI97.s 			page 67


 1856              		.loc 1 924 9 is_stmt 1 view .LVU690
 924:./Libraries/STM32F4xx_HAL_Driver/Src/stm32f4xx_hal_dma.c ****         {
 1857              		.loc 1 924 16 is_stmt 0 view .LVU691
 1858 0184 E36B     		ldr	r3, [r4, #60]
 924:./Libraries/STM32F4xx_HAL_Driver/Src/stm32f4xx_hal_dma.c ****         {
 1859              		.loc 1 924 11 view .LVU692
 1860 0186 0BB1     		cbz	r3, .L105
 927:./Libraries/STM32F4xx_HAL_Driver/Src/stm32f4xx_hal_dma.c ****         }
 1861              		.loc 1 927 11 is_stmt 1 view .LVU693
 1862 0188 2046     		mov	r0, r4
 1863 018a 9847     		blx	r3
 1864              	.LVL138:
 1865              	.L105:
 934:./Libraries/STM32F4xx_HAL_Driver/Src/stm32f4xx_hal_dma.c ****   {
 1866              		.loc 1 934 3 view .LVU694
 934:./Libraries/STM32F4xx_HAL_Driver/Src/stm32f4xx_hal_dma.c ****   {
 1867              		.loc 1 934 10 is_stmt 0 view .LVU695
 1868 018c 636D     		ldr	r3, [r4, #84]
 934:./Libraries/STM32F4xx_HAL_Driver/Src/stm32f4xx_hal_dma.c ****   {
 1869              		.loc 1 934 5 view .LVU696
 1870 018e FBB1     		cbz	r3, .L97
 936:./Libraries/STM32F4xx_HAL_Driver/Src/stm32f4xx_hal_dma.c ****     {
 1871              		.loc 1 936 5 is_stmt 1 view .LVU697
 936:./Libraries/STM32F4xx_HAL_Driver/Src/stm32f4xx_hal_dma.c ****     {
 1872              		.loc 1 936 13 is_stmt 0 view .LVU698
 1873 0190 636D     		ldr	r3, [r4, #84]
 936:./Libraries/STM32F4xx_HAL_Driver/Src/stm32f4xx_hal_dma.c ****     {
 1874              		.loc 1 936 7 view .LVU699
 1875 0192 13F0010F 		tst	r3, #1
 1876 0196 17D0     		beq	.L114
 938:./Libraries/STM32F4xx_HAL_Driver/Src/stm32f4xx_hal_dma.c **** 
 1877              		.loc 1 938 7 is_stmt 1 view .LVU700
 938:./Libraries/STM32F4xx_HAL_Driver/Src/stm32f4xx_hal_dma.c **** 
 1878              		.loc 1 938 19 is_stmt 0 view .LVU701
 1879 0198 0523     		movs	r3, #5
 1880 019a 84F83530 		strb	r3, [r4, #53]
 941:./Libraries/STM32F4xx_HAL_Driver/Src/stm32f4xx_hal_dma.c **** 
 1881              		.loc 1 941 7 is_stmt 1 view .LVU702
 1882 019e 2268     		ldr	r2, [r4]
 1883 01a0 1368     		ldr	r3, [r2]
 1884 01a2 23F00103 		bic	r3, r3, #1
 1885 01a6 1360     		str	r3, [r2]
 1886              	.L116:
 943:./Libraries/STM32F4xx_HAL_Driver/Src/stm32f4xx_hal_dma.c ****       {
 1887              		.loc 1 943 7 view .LVU703
 945:./Libraries/STM32F4xx_HAL_Driver/Src/stm32f4xx_hal_dma.c ****         {
 1888              		.loc 1 945 9 view .LVU704
 945:./Libraries/STM32F4xx_HAL_Driver/Src/stm32f4xx_hal_dma.c ****         {
 1889              		.loc 1 945 13 is_stmt 0 view .LVU705
 1890 01a8 019B     		ldr	r3, [sp, #4]
 1891 01aa 0133     		adds	r3, r3, #1
 945:./Libraries/STM32F4xx_HAL_Driver/Src/stm32f4xx_hal_dma.c ****         {
 1892              		.loc 1 945 12 view .LVU706
 1893 01ac 0193     		str	r3, [sp, #4]
 1894 01ae AB42     		cmp	r3, r5
 1895 01b0 04D8     		bhi	.L115
 950:./Libraries/STM32F4xx_HAL_Driver/Src/stm32f4xx_hal_dma.c **** 
ARM GAS  /tmp/cc0WhI97.s 			page 68


 1896              		.loc 1 950 12 is_stmt 1 view .LVU707
 950:./Libraries/STM32F4xx_HAL_Driver/Src/stm32f4xx_hal_dma.c **** 
 1897              		.loc 1 950 18 is_stmt 0 view .LVU708
 1898 01b2 2368     		ldr	r3, [r4]
 950:./Libraries/STM32F4xx_HAL_Driver/Src/stm32f4xx_hal_dma.c **** 
 1899              		.loc 1 950 28 view .LVU709
 1900 01b4 1B68     		ldr	r3, [r3]
 950:./Libraries/STM32F4xx_HAL_Driver/Src/stm32f4xx_hal_dma.c **** 
 1901              		.loc 1 950 7 view .LVU710
 1902 01b6 13F0010F 		tst	r3, #1
 1903 01ba F5D1     		bne	.L116
 1904              	.L115:
 953:./Libraries/STM32F4xx_HAL_Driver/Src/stm32f4xx_hal_dma.c **** 
 1905              		.loc 1 953 7 is_stmt 1 view .LVU711
 953:./Libraries/STM32F4xx_HAL_Driver/Src/stm32f4xx_hal_dma.c **** 
 1906              		.loc 1 953 7 view .LVU712
 1907 01bc 0023     		movs	r3, #0
 1908 01be 84F83430 		strb	r3, [r4, #52]
 953:./Libraries/STM32F4xx_HAL_Driver/Src/stm32f4xx_hal_dma.c **** 
 1909              		.loc 1 953 7 view .LVU713
 956:./Libraries/STM32F4xx_HAL_Driver/Src/stm32f4xx_hal_dma.c ****     }
 1910              		.loc 1 956 7 view .LVU714
 956:./Libraries/STM32F4xx_HAL_Driver/Src/stm32f4xx_hal_dma.c ****     }
 1911              		.loc 1 956 19 is_stmt 0 view .LVU715
 1912 01c2 0123     		movs	r3, #1
 1913 01c4 84F83530 		strb	r3, [r4, #53]
 1914              	.L114:
 959:./Libraries/STM32F4xx_HAL_Driver/Src/stm32f4xx_hal_dma.c ****     {
 1915              		.loc 1 959 5 is_stmt 1 view .LVU716
 959:./Libraries/STM32F4xx_HAL_Driver/Src/stm32f4xx_hal_dma.c ****     {
 1916              		.loc 1 959 12 is_stmt 0 view .LVU717
 1917 01c8 E36C     		ldr	r3, [r4, #76]
 959:./Libraries/STM32F4xx_HAL_Driver/Src/stm32f4xx_hal_dma.c ****     {
 1918              		.loc 1 959 7 view .LVU718
 1919 01ca 0BB1     		cbz	r3, .L97
 962:./Libraries/STM32F4xx_HAL_Driver/Src/stm32f4xx_hal_dma.c ****     }
 1920              		.loc 1 962 7 is_stmt 1 view .LVU719
 1921 01cc 2046     		mov	r0, r4
 1922 01ce 9847     		blx	r3
 1923              	.LVL139:
 1924              	.L97:
 965:./Libraries/STM32F4xx_HAL_Driver/Src/stm32f4xx_hal_dma.c **** 
 1925              		.loc 1 965 1 is_stmt 0 view .LVU720
 1926 01d0 03B0     		add	sp, sp, #12
 1927              	.LCFI15:
 1928              		.cfi_def_cfa_offset 20
 1929              		@ sp needed
 1930 01d2 F0BD     		pop	{r4, r5, r6, r7, pc}
 1931              	.LVL140:
 1932              	.L121:
 965:./Libraries/STM32F4xx_HAL_Driver/Src/stm32f4xx_hal_dma.c **** 
 1933              		.loc 1 965 1 view .LVU721
 1934              		.align	2
 1935              	.L120:
 1936 01d4 00000000 		.word	SystemCoreClock
 1937 01d8 B5814E1B 		.word	458129845
 1938              		.cfi_endproc
ARM GAS  /tmp/cc0WhI97.s 			page 69


 1939              	.LFE133:
 1941              		.section	.text.HAL_DMA_RegisterCallback,"ax",%progbits
 1942              		.align	1
 1943              		.global	HAL_DMA_RegisterCallback
 1944              		.syntax unified
 1945              		.thumb
 1946              		.thumb_func
 1947              		.fpu fpv4-sp-d16
 1949              	HAL_DMA_RegisterCallback:
 1950              	.LVL141:
 1951              	.LFB134:
 978:./Libraries/STM32F4xx_HAL_Driver/Src/stm32f4xx_hal_dma.c **** 
 1952              		.loc 1 978 1 is_stmt 1 view -0
 1953              		.cfi_startproc
 1954              		@ args = 0, pretend = 0, frame = 0
 1955              		@ frame_needed = 0, uses_anonymous_args = 0
 1956              		@ link register save eliminated.
 978:./Libraries/STM32F4xx_HAL_Driver/Src/stm32f4xx_hal_dma.c **** 
 1957              		.loc 1 978 1 is_stmt 0 view .LVU723
 1958 0000 0346     		mov	r3, r0
 980:./Libraries/STM32F4xx_HAL_Driver/Src/stm32f4xx_hal_dma.c **** 
 1959              		.loc 1 980 3 is_stmt 1 view .LVU724
 1960              	.LVL142:
 983:./Libraries/STM32F4xx_HAL_Driver/Src/stm32f4xx_hal_dma.c **** 
 1961              		.loc 1 983 3 view .LVU725
 983:./Libraries/STM32F4xx_HAL_Driver/Src/stm32f4xx_hal_dma.c **** 
 1962              		.loc 1 983 3 view .LVU726
 1963 0002 90F83400 		ldrb	r0, [r0, #52]	@ zero_extendqisi2
 1964              	.LVL143:
 983:./Libraries/STM32F4xx_HAL_Driver/Src/stm32f4xx_hal_dma.c **** 
 1965              		.loc 1 983 3 is_stmt 0 view .LVU727
 1966 0006 0128     		cmp	r0, #1
 1967 0008 27D0     		beq	.L132
 983:./Libraries/STM32F4xx_HAL_Driver/Src/stm32f4xx_hal_dma.c **** 
 1968              		.loc 1 983 3 is_stmt 1 discriminator 2 view .LVU728
 1969 000a 0120     		movs	r0, #1
 1970 000c 83F83400 		strb	r0, [r3, #52]
 983:./Libraries/STM32F4xx_HAL_Driver/Src/stm32f4xx_hal_dma.c **** 
 1971              		.loc 1 983 3 discriminator 2 view .LVU729
 985:./Libraries/STM32F4xx_HAL_Driver/Src/stm32f4xx_hal_dma.c ****   {
 1972              		.loc 1 985 3 discriminator 2 view .LVU730
 985:./Libraries/STM32F4xx_HAL_Driver/Src/stm32f4xx_hal_dma.c ****   {
 1973              		.loc 1 985 33 is_stmt 0 discriminator 2 view .LVU731
 1974 0010 93F83500 		ldrb	r0, [r3, #53]	@ zero_extendqisi2
 1975 0014 C0B2     		uxtb	r0, r0
 985:./Libraries/STM32F4xx_HAL_Driver/Src/stm32f4xx_hal_dma.c ****   {
 1976              		.loc 1 985 5 discriminator 2 view .LVU732
 1977 0016 0128     		cmp	r0, #1
 1978 0018 04D0     		beq	.L135
1020:./Libraries/STM32F4xx_HAL_Driver/Src/stm32f4xx_hal_dma.c ****   }
 1979              		.loc 1 1020 12 view .LVU733
 1980 001a 0120     		movs	r0, #1
 1981              	.L124:
 1982              	.LVL144:
1024:./Libraries/STM32F4xx_HAL_Driver/Src/stm32f4xx_hal_dma.c ****   
 1983              		.loc 1 1024 3 is_stmt 1 view .LVU734
1024:./Libraries/STM32F4xx_HAL_Driver/Src/stm32f4xx_hal_dma.c ****   
ARM GAS  /tmp/cc0WhI97.s 			page 70


 1984              		.loc 1 1024 3 view .LVU735
 1985 001c 0022     		movs	r2, #0
 1986              	.LVL145:
1024:./Libraries/STM32F4xx_HAL_Driver/Src/stm32f4xx_hal_dma.c ****   
 1987              		.loc 1 1024 3 is_stmt 0 view .LVU736
 1988 001e 83F83420 		strb	r2, [r3, #52]
1024:./Libraries/STM32F4xx_HAL_Driver/Src/stm32f4xx_hal_dma.c ****   
 1989              		.loc 1 1024 3 is_stmt 1 view .LVU737
1026:./Libraries/STM32F4xx_HAL_Driver/Src/stm32f4xx_hal_dma.c **** }
 1990              		.loc 1 1026 3 view .LVU738
1026:./Libraries/STM32F4xx_HAL_Driver/Src/stm32f4xx_hal_dma.c **** }
 1991              		.loc 1 1026 10 is_stmt 0 view .LVU739
 1992 0022 7047     		bx	lr
 1993              	.LVL146:
 1994              	.L135:
 987:./Libraries/STM32F4xx_HAL_Driver/Src/stm32f4xx_hal_dma.c ****     {
 1995              		.loc 1 987 5 is_stmt 1 view .LVU740
 1996 0024 0529     		cmp	r1, #5
 1997 0026 16D8     		bhi	.L134
 1998 0028 DFE801F0 		tbb	[pc, r1]
 1999              	.L126:
 2000 002c 03       		.byte	(.L131-.L126)/2
 2001 002d 06       		.byte	(.L130-.L126)/2
 2002 002e 09       		.byte	(.L129-.L126)/2
 2003 002f 0C       		.byte	(.L128-.L126)/2
 2004 0030 0F       		.byte	(.L127-.L126)/2
 2005 0031 12       		.byte	(.L125-.L126)/2
 2006              		.p2align 1
 2007              	.L131:
 990:./Libraries/STM32F4xx_HAL_Driver/Src/stm32f4xx_hal_dma.c ****       break;
 2008              		.loc 1 990 7 view .LVU741
 990:./Libraries/STM32F4xx_HAL_Driver/Src/stm32f4xx_hal_dma.c ****       break;
 2009              		.loc 1 990 30 is_stmt 0 view .LVU742
 2010 0032 DA63     		str	r2, [r3, #60]
 991:./Libraries/STM32F4xx_HAL_Driver/Src/stm32f4xx_hal_dma.c **** 
 2011              		.loc 1 991 7 is_stmt 1 view .LVU743
 980:./Libraries/STM32F4xx_HAL_Driver/Src/stm32f4xx_hal_dma.c **** 
 2012              		.loc 1 980 21 is_stmt 0 view .LVU744
 2013 0034 0846     		mov	r0, r1
 991:./Libraries/STM32F4xx_HAL_Driver/Src/stm32f4xx_hal_dma.c **** 
 2014              		.loc 1 991 7 view .LVU745
 2015 0036 F1E7     		b	.L124
 2016              	.L130:
 994:./Libraries/STM32F4xx_HAL_Driver/Src/stm32f4xx_hal_dma.c ****       break;
 2017              		.loc 1 994 7 is_stmt 1 view .LVU746
 994:./Libraries/STM32F4xx_HAL_Driver/Src/stm32f4xx_hal_dma.c ****       break;
 2018              		.loc 1 994 34 is_stmt 0 view .LVU747
 2019 0038 1A64     		str	r2, [r3, #64]
 995:./Libraries/STM32F4xx_HAL_Driver/Src/stm32f4xx_hal_dma.c **** 
 2020              		.loc 1 995 7 is_stmt 1 view .LVU748
 980:./Libraries/STM32F4xx_HAL_Driver/Src/stm32f4xx_hal_dma.c **** 
 2021              		.loc 1 980 21 is_stmt 0 view .LVU749
 2022 003a 0020     		movs	r0, #0
 995:./Libraries/STM32F4xx_HAL_Driver/Src/stm32f4xx_hal_dma.c **** 
 2023              		.loc 1 995 7 view .LVU750
 2024 003c EEE7     		b	.L124
 2025              	.L129:
ARM GAS  /tmp/cc0WhI97.s 			page 71


 998:./Libraries/STM32F4xx_HAL_Driver/Src/stm32f4xx_hal_dma.c ****       break;
 2026              		.loc 1 998 7 is_stmt 1 view .LVU751
 998:./Libraries/STM32F4xx_HAL_Driver/Src/stm32f4xx_hal_dma.c ****       break;
 2027              		.loc 1 998 32 is_stmt 0 view .LVU752
 2028 003e 5A64     		str	r2, [r3, #68]
 999:./Libraries/STM32F4xx_HAL_Driver/Src/stm32f4xx_hal_dma.c **** 
 2029              		.loc 1 999 7 is_stmt 1 view .LVU753
 980:./Libraries/STM32F4xx_HAL_Driver/Src/stm32f4xx_hal_dma.c **** 
 2030              		.loc 1 980 21 is_stmt 0 view .LVU754
 2031 0040 0020     		movs	r0, #0
 999:./Libraries/STM32F4xx_HAL_Driver/Src/stm32f4xx_hal_dma.c **** 
 2032              		.loc 1 999 7 view .LVU755
 2033 0042 EBE7     		b	.L124
 2034              	.L128:
1002:./Libraries/STM32F4xx_HAL_Driver/Src/stm32f4xx_hal_dma.c ****       break;
 2035              		.loc 1 1002 7 is_stmt 1 view .LVU756
1002:./Libraries/STM32F4xx_HAL_Driver/Src/stm32f4xx_hal_dma.c ****       break;
 2036              		.loc 1 1002 36 is_stmt 0 view .LVU757
 2037 0044 9A64     		str	r2, [r3, #72]
1003:./Libraries/STM32F4xx_HAL_Driver/Src/stm32f4xx_hal_dma.c **** 
 2038              		.loc 1 1003 7 is_stmt 1 view .LVU758
 980:./Libraries/STM32F4xx_HAL_Driver/Src/stm32f4xx_hal_dma.c **** 
 2039              		.loc 1 980 21 is_stmt 0 view .LVU759
 2040 0046 0020     		movs	r0, #0
1003:./Libraries/STM32F4xx_HAL_Driver/Src/stm32f4xx_hal_dma.c **** 
 2041              		.loc 1 1003 7 view .LVU760
 2042 0048 E8E7     		b	.L124
 2043              	.L127:
1006:./Libraries/STM32F4xx_HAL_Driver/Src/stm32f4xx_hal_dma.c ****       break;
 2044              		.loc 1 1006 7 is_stmt 1 view .LVU761
1006:./Libraries/STM32F4xx_HAL_Driver/Src/stm32f4xx_hal_dma.c ****       break;
 2045              		.loc 1 1006 31 is_stmt 0 view .LVU762
 2046 004a DA64     		str	r2, [r3, #76]
1007:./Libraries/STM32F4xx_HAL_Driver/Src/stm32f4xx_hal_dma.c **** 
 2047              		.loc 1 1007 7 is_stmt 1 view .LVU763
 980:./Libraries/STM32F4xx_HAL_Driver/Src/stm32f4xx_hal_dma.c **** 
 2048              		.loc 1 980 21 is_stmt 0 view .LVU764
 2049 004c 0020     		movs	r0, #0
1007:./Libraries/STM32F4xx_HAL_Driver/Src/stm32f4xx_hal_dma.c **** 
 2050              		.loc 1 1007 7 view .LVU765
 2051 004e E5E7     		b	.L124
 2052              	.L125:
1010:./Libraries/STM32F4xx_HAL_Driver/Src/stm32f4xx_hal_dma.c ****       break;
 2053              		.loc 1 1010 7 is_stmt 1 view .LVU766
1010:./Libraries/STM32F4xx_HAL_Driver/Src/stm32f4xx_hal_dma.c ****       break;
 2054              		.loc 1 1010 31 is_stmt 0 view .LVU767
 2055 0050 1A65     		str	r2, [r3, #80]
1011:./Libraries/STM32F4xx_HAL_Driver/Src/stm32f4xx_hal_dma.c **** 
 2056              		.loc 1 1011 7 is_stmt 1 view .LVU768
 980:./Libraries/STM32F4xx_HAL_Driver/Src/stm32f4xx_hal_dma.c **** 
 2057              		.loc 1 980 21 is_stmt 0 view .LVU769
 2058 0052 0020     		movs	r0, #0
1011:./Libraries/STM32F4xx_HAL_Driver/Src/stm32f4xx_hal_dma.c **** 
 2059              		.loc 1 1011 7 view .LVU770
 2060 0054 E2E7     		b	.L124
 2061              	.L134:
 985:./Libraries/STM32F4xx_HAL_Driver/Src/stm32f4xx_hal_dma.c ****   {
ARM GAS  /tmp/cc0WhI97.s 			page 72


 2062              		.loc 1 985 5 view .LVU771
 2063 0056 0020     		movs	r0, #0
 2064 0058 E0E7     		b	.L124
 2065              	.L132:
 983:./Libraries/STM32F4xx_HAL_Driver/Src/stm32f4xx_hal_dma.c **** 
 2066              		.loc 1 983 3 view .LVU772
 2067 005a 0220     		movs	r0, #2
1027:./Libraries/STM32F4xx_HAL_Driver/Src/stm32f4xx_hal_dma.c **** 
 2068              		.loc 1 1027 1 view .LVU773
 2069 005c 7047     		bx	lr
 2070              		.cfi_endproc
 2071              	.LFE134:
 2073              		.section	.text.HAL_DMA_UnRegisterCallback,"ax",%progbits
 2074              		.align	1
 2075              		.global	HAL_DMA_UnRegisterCallback
 2076              		.syntax unified
 2077              		.thumb
 2078              		.thumb_func
 2079              		.fpu fpv4-sp-d16
 2081              	HAL_DMA_UnRegisterCallback:
 2082              	.LVL147:
 2083              	.LFB135:
1038:./Libraries/STM32F4xx_HAL_Driver/Src/stm32f4xx_hal_dma.c ****   HAL_StatusTypeDef status = HAL_OK;
 2084              		.loc 1 1038 1 is_stmt 1 view -0
 2085              		.cfi_startproc
 2086              		@ args = 0, pretend = 0, frame = 0
 2087              		@ frame_needed = 0, uses_anonymous_args = 0
 2088              		@ link register save eliminated.
1038:./Libraries/STM32F4xx_HAL_Driver/Src/stm32f4xx_hal_dma.c ****   HAL_StatusTypeDef status = HAL_OK;
 2089              		.loc 1 1038 1 is_stmt 0 view .LVU775
 2090 0000 0346     		mov	r3, r0
1039:./Libraries/STM32F4xx_HAL_Driver/Src/stm32f4xx_hal_dma.c ****   
 2091              		.loc 1 1039 3 is_stmt 1 view .LVU776
 2092              	.LVL148:
1042:./Libraries/STM32F4xx_HAL_Driver/Src/stm32f4xx_hal_dma.c ****   
 2093              		.loc 1 1042 3 view .LVU777
1042:./Libraries/STM32F4xx_HAL_Driver/Src/stm32f4xx_hal_dma.c ****   
 2094              		.loc 1 1042 3 view .LVU778
 2095 0002 90F83420 		ldrb	r2, [r0, #52]	@ zero_extendqisi2
 2096 0006 012A     		cmp	r2, #1
 2097 0008 2FD0     		beq	.L147
1042:./Libraries/STM32F4xx_HAL_Driver/Src/stm32f4xx_hal_dma.c ****   
 2098              		.loc 1 1042 3 discriminator 2 view .LVU779
 2099 000a 0122     		movs	r2, #1
 2100 000c 80F83420 		strb	r2, [r0, #52]
1042:./Libraries/STM32F4xx_HAL_Driver/Src/stm32f4xx_hal_dma.c ****   
 2101              		.loc 1 1042 3 discriminator 2 view .LVU780
1044:./Libraries/STM32F4xx_HAL_Driver/Src/stm32f4xx_hal_dma.c ****   {
 2102              		.loc 1 1044 3 discriminator 2 view .LVU781
1044:./Libraries/STM32F4xx_HAL_Driver/Src/stm32f4xx_hal_dma.c ****   {
 2103              		.loc 1 1044 33 is_stmt 0 discriminator 2 view .LVU782
 2104 0010 90F83500 		ldrb	r0, [r0, #53]	@ zero_extendqisi2
 2105              	.LVL149:
1044:./Libraries/STM32F4xx_HAL_Driver/Src/stm32f4xx_hal_dma.c ****   {
 2106              		.loc 1 1044 33 discriminator 2 view .LVU783
 2107 0014 C0B2     		uxtb	r0, r0
1044:./Libraries/STM32F4xx_HAL_Driver/Src/stm32f4xx_hal_dma.c ****   {
ARM GAS  /tmp/cc0WhI97.s 			page 73


 2108              		.loc 1 1044 5 discriminator 2 view .LVU784
 2109 0016 9042     		cmp	r0, r2
 2110 0018 04D0     		beq	.L149
1088:./Libraries/STM32F4xx_HAL_Driver/Src/stm32f4xx_hal_dma.c ****   }
 2111              		.loc 1 1088 12 view .LVU785
 2112 001a 0120     		movs	r0, #1
 2113              	.L138:
 2114              	.LVL150:
1092:./Libraries/STM32F4xx_HAL_Driver/Src/stm32f4xx_hal_dma.c ****   
 2115              		.loc 1 1092 3 is_stmt 1 view .LVU786
1092:./Libraries/STM32F4xx_HAL_Driver/Src/stm32f4xx_hal_dma.c ****   
 2116              		.loc 1 1092 3 view .LVU787
 2117 001c 0022     		movs	r2, #0
 2118 001e 83F83420 		strb	r2, [r3, #52]
1092:./Libraries/STM32F4xx_HAL_Driver/Src/stm32f4xx_hal_dma.c ****   
 2119              		.loc 1 1092 3 view .LVU788
1094:./Libraries/STM32F4xx_HAL_Driver/Src/stm32f4xx_hal_dma.c **** }
 2120              		.loc 1 1094 3 view .LVU789
1094:./Libraries/STM32F4xx_HAL_Driver/Src/stm32f4xx_hal_dma.c **** }
 2121              		.loc 1 1094 10 is_stmt 0 view .LVU790
 2122 0022 7047     		bx	lr
 2123              	.LVL151:
 2124              	.L149:
1046:./Libraries/STM32F4xx_HAL_Driver/Src/stm32f4xx_hal_dma.c ****     {
 2125              		.loc 1 1046 5 is_stmt 1 view .LVU791
 2126 0024 0629     		cmp	r1, #6
 2127 0026 F9D8     		bhi	.L138
 2128 0028 DFE801F0 		tbb	[pc, r1]
 2129              	.L140:
 2130 002c 04       		.byte	(.L146-.L140)/2
 2131 002d 08       		.byte	(.L145-.L140)/2
 2132 002e 0B       		.byte	(.L144-.L140)/2
 2133 002f 0E       		.byte	(.L143-.L140)/2
 2134 0030 11       		.byte	(.L142-.L140)/2
 2135 0031 14       		.byte	(.L141-.L140)/2
 2136 0032 17       		.byte	(.L139-.L140)/2
 2137 0033 00       		.p2align 1
 2138              	.L146:
1049:./Libraries/STM32F4xx_HAL_Driver/Src/stm32f4xx_hal_dma.c ****       break;
 2139              		.loc 1 1049 7 view .LVU792
1049:./Libraries/STM32F4xx_HAL_Driver/Src/stm32f4xx_hal_dma.c ****       break;
 2140              		.loc 1 1049 30 is_stmt 0 view .LVU793
 2141 0034 0022     		movs	r2, #0
 2142 0036 DA63     		str	r2, [r3, #60]
1050:./Libraries/STM32F4xx_HAL_Driver/Src/stm32f4xx_hal_dma.c ****       
 2143              		.loc 1 1050 7 is_stmt 1 view .LVU794
1039:./Libraries/STM32F4xx_HAL_Driver/Src/stm32f4xx_hal_dma.c ****   
 2144              		.loc 1 1039 21 is_stmt 0 view .LVU795
 2145 0038 0846     		mov	r0, r1
1050:./Libraries/STM32F4xx_HAL_Driver/Src/stm32f4xx_hal_dma.c ****       
 2146              		.loc 1 1050 7 view .LVU796
 2147 003a EFE7     		b	.L138
 2148              	.L145:
1053:./Libraries/STM32F4xx_HAL_Driver/Src/stm32f4xx_hal_dma.c ****       break;
 2149              		.loc 1 1053 7 is_stmt 1 view .LVU797
1053:./Libraries/STM32F4xx_HAL_Driver/Src/stm32f4xx_hal_dma.c ****       break;
 2150              		.loc 1 1053 34 is_stmt 0 view .LVU798
ARM GAS  /tmp/cc0WhI97.s 			page 74


 2151 003c 0020     		movs	r0, #0
 2152 003e 1864     		str	r0, [r3, #64]
1054:./Libraries/STM32F4xx_HAL_Driver/Src/stm32f4xx_hal_dma.c ****       
 2153              		.loc 1 1054 7 is_stmt 1 view .LVU799
 2154 0040 ECE7     		b	.L138
 2155              	.L144:
1057:./Libraries/STM32F4xx_HAL_Driver/Src/stm32f4xx_hal_dma.c ****       break;
 2156              		.loc 1 1057 7 view .LVU800
1057:./Libraries/STM32F4xx_HAL_Driver/Src/stm32f4xx_hal_dma.c ****       break;
 2157              		.loc 1 1057 32 is_stmt 0 view .LVU801
 2158 0042 0020     		movs	r0, #0
 2159 0044 5864     		str	r0, [r3, #68]
1058:./Libraries/STM32F4xx_HAL_Driver/Src/stm32f4xx_hal_dma.c ****       
 2160              		.loc 1 1058 7 is_stmt 1 view .LVU802
 2161 0046 E9E7     		b	.L138
 2162              	.L143:
1061:./Libraries/STM32F4xx_HAL_Driver/Src/stm32f4xx_hal_dma.c ****       break;
 2163              		.loc 1 1061 7 view .LVU803
1061:./Libraries/STM32F4xx_HAL_Driver/Src/stm32f4xx_hal_dma.c ****       break;
 2164              		.loc 1 1061 36 is_stmt 0 view .LVU804
 2165 0048 0020     		movs	r0, #0
 2166 004a 9864     		str	r0, [r3, #72]
1062:./Libraries/STM32F4xx_HAL_Driver/Src/stm32f4xx_hal_dma.c ****       
 2167              		.loc 1 1062 7 is_stmt 1 view .LVU805
 2168 004c E6E7     		b	.L138
 2169              	.L142:
1065:./Libraries/STM32F4xx_HAL_Driver/Src/stm32f4xx_hal_dma.c ****       break;
 2170              		.loc 1 1065 7 view .LVU806
1065:./Libraries/STM32F4xx_HAL_Driver/Src/stm32f4xx_hal_dma.c ****       break;
 2171              		.loc 1 1065 31 is_stmt 0 view .LVU807
 2172 004e 0020     		movs	r0, #0
 2173 0050 D864     		str	r0, [r3, #76]
1066:./Libraries/STM32F4xx_HAL_Driver/Src/stm32f4xx_hal_dma.c ****       
 2174              		.loc 1 1066 7 is_stmt 1 view .LVU808
 2175 0052 E3E7     		b	.L138
 2176              	.L141:
1069:./Libraries/STM32F4xx_HAL_Driver/Src/stm32f4xx_hal_dma.c ****       break; 
 2177              		.loc 1 1069 7 view .LVU809
1069:./Libraries/STM32F4xx_HAL_Driver/Src/stm32f4xx_hal_dma.c ****       break; 
 2178              		.loc 1 1069 31 is_stmt 0 view .LVU810
 2179 0054 0020     		movs	r0, #0
 2180 0056 1865     		str	r0, [r3, #80]
1070:./Libraries/STM32F4xx_HAL_Driver/Src/stm32f4xx_hal_dma.c ****       
 2181              		.loc 1 1070 7 is_stmt 1 view .LVU811
 2182 0058 E0E7     		b	.L138
 2183              	.L139:
1073:./Libraries/STM32F4xx_HAL_Driver/Src/stm32f4xx_hal_dma.c ****       hdma->XferHalfCpltCallback = NULL;
 2184              		.loc 1 1073 7 view .LVU812
1073:./Libraries/STM32F4xx_HAL_Driver/Src/stm32f4xx_hal_dma.c ****       hdma->XferHalfCpltCallback = NULL;
 2185              		.loc 1 1073 30 is_stmt 0 view .LVU813
 2186 005a 0020     		movs	r0, #0
 2187 005c D863     		str	r0, [r3, #60]
1074:./Libraries/STM32F4xx_HAL_Driver/Src/stm32f4xx_hal_dma.c ****       hdma->XferM1CpltCallback = NULL;
 2188              		.loc 1 1074 7 is_stmt 1 view .LVU814
1074:./Libraries/STM32F4xx_HAL_Driver/Src/stm32f4xx_hal_dma.c ****       hdma->XferM1CpltCallback = NULL;
 2189              		.loc 1 1074 34 is_stmt 0 view .LVU815
 2190 005e 1864     		str	r0, [r3, #64]
ARM GAS  /tmp/cc0WhI97.s 			page 75


1075:./Libraries/STM32F4xx_HAL_Driver/Src/stm32f4xx_hal_dma.c ****       hdma->XferM1HalfCpltCallback = NULL;
 2191              		.loc 1 1075 7 is_stmt 1 view .LVU816
1075:./Libraries/STM32F4xx_HAL_Driver/Src/stm32f4xx_hal_dma.c ****       hdma->XferM1HalfCpltCallback = NULL;
 2192              		.loc 1 1075 32 is_stmt 0 view .LVU817
 2193 0060 5864     		str	r0, [r3, #68]
1076:./Libraries/STM32F4xx_HAL_Driver/Src/stm32f4xx_hal_dma.c ****       hdma->XferErrorCallback = NULL;
 2194              		.loc 1 1076 7 is_stmt 1 view .LVU818
1076:./Libraries/STM32F4xx_HAL_Driver/Src/stm32f4xx_hal_dma.c ****       hdma->XferErrorCallback = NULL;
 2195              		.loc 1 1076 36 is_stmt 0 view .LVU819
 2196 0062 9864     		str	r0, [r3, #72]
1077:./Libraries/STM32F4xx_HAL_Driver/Src/stm32f4xx_hal_dma.c ****       hdma->XferAbortCallback = NULL;
 2197              		.loc 1 1077 7 is_stmt 1 view .LVU820
1077:./Libraries/STM32F4xx_HAL_Driver/Src/stm32f4xx_hal_dma.c ****       hdma->XferAbortCallback = NULL;
 2198              		.loc 1 1077 31 is_stmt 0 view .LVU821
 2199 0064 D864     		str	r0, [r3, #76]
1078:./Libraries/STM32F4xx_HAL_Driver/Src/stm32f4xx_hal_dma.c ****       break; 
 2200              		.loc 1 1078 7 is_stmt 1 view .LVU822
1078:./Libraries/STM32F4xx_HAL_Driver/Src/stm32f4xx_hal_dma.c ****       break; 
 2201              		.loc 1 1078 31 is_stmt 0 view .LVU823
 2202 0066 1865     		str	r0, [r3, #80]
1079:./Libraries/STM32F4xx_HAL_Driver/Src/stm32f4xx_hal_dma.c ****       
 2203              		.loc 1 1079 7 is_stmt 1 view .LVU824
 2204 0068 D8E7     		b	.L138
 2205              	.LVL152:
 2206              	.L147:
1042:./Libraries/STM32F4xx_HAL_Driver/Src/stm32f4xx_hal_dma.c ****   
 2207              		.loc 1 1042 3 is_stmt 0 view .LVU825
 2208 006a 0220     		movs	r0, #2
 2209              	.LVL153:
1095:./Libraries/STM32F4xx_HAL_Driver/Src/stm32f4xx_hal_dma.c **** 
 2210              		.loc 1 1095 1 view .LVU826
 2211 006c 7047     		bx	lr
 2212              		.cfi_endproc
 2213              	.LFE135:
 2215              		.section	.text.HAL_DMA_GetState,"ax",%progbits
 2216              		.align	1
 2217              		.global	HAL_DMA_GetState
 2218              		.syntax unified
 2219              		.thumb
 2220              		.thumb_func
 2221              		.fpu fpv4-sp-d16
 2223              	HAL_DMA_GetState:
 2224              	.LVL154:
 2225              	.LFB136:
1123:./Libraries/STM32F4xx_HAL_Driver/Src/stm32f4xx_hal_dma.c ****   return hdma->State;
 2226              		.loc 1 1123 1 is_stmt 1 view -0
 2227              		.cfi_startproc
 2228              		@ args = 0, pretend = 0, frame = 0
 2229              		@ frame_needed = 0, uses_anonymous_args = 0
 2230              		@ link register save eliminated.
1124:./Libraries/STM32F4xx_HAL_Driver/Src/stm32f4xx_hal_dma.c **** }
 2231              		.loc 1 1124 3 view .LVU828
1124:./Libraries/STM32F4xx_HAL_Driver/Src/stm32f4xx_hal_dma.c **** }
 2232              		.loc 1 1124 14 is_stmt 0 view .LVU829
 2233 0000 90F83500 		ldrb	r0, [r0, #53]	@ zero_extendqisi2
 2234              	.LVL155:
1125:./Libraries/STM32F4xx_HAL_Driver/Src/stm32f4xx_hal_dma.c **** 
ARM GAS  /tmp/cc0WhI97.s 			page 76


 2235              		.loc 1 1125 1 view .LVU830
 2236 0004 7047     		bx	lr
 2237              		.cfi_endproc
 2238              	.LFE136:
 2240              		.section	.text.HAL_DMA_GetError,"ax",%progbits
 2241              		.align	1
 2242              		.global	HAL_DMA_GetError
 2243              		.syntax unified
 2244              		.thumb
 2245              		.thumb_func
 2246              		.fpu fpv4-sp-d16
 2248              	HAL_DMA_GetError:
 2249              	.LVL156:
 2250              	.LFB137:
1134:./Libraries/STM32F4xx_HAL_Driver/Src/stm32f4xx_hal_dma.c ****   return hdma->ErrorCode;
 2251              		.loc 1 1134 1 is_stmt 1 view -0
 2252              		.cfi_startproc
 2253              		@ args = 0, pretend = 0, frame = 0
 2254              		@ frame_needed = 0, uses_anonymous_args = 0
 2255              		@ link register save eliminated.
1135:./Libraries/STM32F4xx_HAL_Driver/Src/stm32f4xx_hal_dma.c **** }
 2256              		.loc 1 1135 3 view .LVU832
1135:./Libraries/STM32F4xx_HAL_Driver/Src/stm32f4xx_hal_dma.c **** }
 2257              		.loc 1 1135 14 is_stmt 0 view .LVU833
 2258 0000 406D     		ldr	r0, [r0, #84]
 2259              	.LVL157:
1136:./Libraries/STM32F4xx_HAL_Driver/Src/stm32f4xx_hal_dma.c **** 
 2260              		.loc 1 1136 1 view .LVU834
 2261 0002 7047     		bx	lr
 2262              		.cfi_endproc
 2263              	.LFE137:
 2265              		.section	.rodata.flagBitshiftOffset.0,"a"
 2266              		.align	2
 2267              		.set	.LANCHOR0,. + 0
 2270              	flagBitshiftOffset.0:
 2271 0000 00061016 		.ascii	"\000\006\020\026\000\006\020\026"
 2271      00061016 
 2272              		.text
 2273              	.Letext0:
 2274              		.file 2 "/home/hao/Documents/gcc-arm-none-eabi/arm-none-eabi/include/machine/_default_types.h"
 2275              		.file 3 "/home/hao/Documents/gcc-arm-none-eabi/arm-none-eabi/include/sys/_stdint.h"
 2276              		.file 4 "./Libraries/CMSIS/Device/ST/STM32F4xx/Include/stm32f429xx.h"
 2277              		.file 5 "./Libraries/CMSIS/Device/ST/STM32F4xx/Include/stm32f4xx.h"
 2278              		.file 6 "./Libraries/STM32F4xx_HAL_Driver/Inc/stm32f4xx_hal_def.h"
 2279              		.file 7 "./Libraries/STM32F4xx_HAL_Driver/Inc/stm32f4xx_hal_dma.h"
 2280              		.file 8 "./Libraries/CMSIS/Device/ST/STM32F4xx/Include/system_stm32f4xx.h"
 2281              		.file 9 "./Libraries/STM32F4xx_HAL_Driver/Inc/stm32f4xx_hal.h"
ARM GAS  /tmp/cc0WhI97.s 			page 77


DEFINED SYMBOLS
                            *ABS*:0000000000000000 stm32f4xx_hal_dma.c
     /tmp/cc0WhI97.s:18     .text.DMA_SetConfig:0000000000000000 $t
     /tmp/cc0WhI97.s:25     .text.DMA_SetConfig:0000000000000000 DMA_SetConfig
     /tmp/cc0WhI97.s:99     .text.DMA_CalcBaseAndBitshift:0000000000000000 $t
     /tmp/cc0WhI97.s:105    .text.DMA_CalcBaseAndBitshift:0000000000000000 DMA_CalcBaseAndBitshift
     /tmp/cc0WhI97.s:176    .text.DMA_CalcBaseAndBitshift:000000000000003c $d
     /tmp/cc0WhI97.s:182    .text.DMA_CheckFifoParam:0000000000000000 $t
     /tmp/cc0WhI97.s:188    .text.DMA_CheckFifoParam:0000000000000000 DMA_CheckFifoParam
     /tmp/cc0WhI97.s:274    .text.DMA_CheckFifoParam:000000000000004e $d
     /tmp/cc0WhI97.s:278    .text.DMA_CheckFifoParam:0000000000000052 $t
     /tmp/cc0WhI97.s:374    .text.HAL_DMA_Init:0000000000000000 $t
     /tmp/cc0WhI97.s:381    .text.HAL_DMA_Init:0000000000000000 HAL_DMA_Init
     /tmp/cc0WhI97.s:630    .text.HAL_DMA_Init:00000000000000c8 $d
     /tmp/cc0WhI97.s:635    .text.HAL_DMA_DeInit:0000000000000000 $t
     /tmp/cc0WhI97.s:642    .text.HAL_DMA_DeInit:0000000000000000 HAL_DMA_DeInit
     /tmp/cc0WhI97.s:756    .text.HAL_DMA_Start:0000000000000000 $t
     /tmp/cc0WhI97.s:763    .text.HAL_DMA_Start:0000000000000000 HAL_DMA_Start
     /tmp/cc0WhI97.s:846    .text.HAL_DMA_Start_IT:0000000000000000 $t
     /tmp/cc0WhI97.s:853    .text.HAL_DMA_Start_IT:0000000000000000 HAL_DMA_Start_IT
     /tmp/cc0WhI97.s:975    .text.HAL_DMA_Abort:0000000000000000 $t
     /tmp/cc0WhI97.s:982    .text.HAL_DMA_Abort:0000000000000000 HAL_DMA_Abort
     /tmp/cc0WhI97.s:1136   .text.HAL_DMA_Abort_IT:0000000000000000 $t
     /tmp/cc0WhI97.s:1143   .text.HAL_DMA_Abort_IT:0000000000000000 HAL_DMA_Abort_IT
     /tmp/cc0WhI97.s:1189   .text.HAL_DMA_PollForTransfer:0000000000000000 $t
     /tmp/cc0WhI97.s:1196   .text.HAL_DMA_PollForTransfer:0000000000000000 HAL_DMA_PollForTransfer
     /tmp/cc0WhI97.s:1488   .text.HAL_DMA_IRQHandler:0000000000000000 $t
     /tmp/cc0WhI97.s:1495   .text.HAL_DMA_IRQHandler:0000000000000000 HAL_DMA_IRQHandler
     /tmp/cc0WhI97.s:1936   .text.HAL_DMA_IRQHandler:00000000000001d4 $d
     /tmp/cc0WhI97.s:1942   .text.HAL_DMA_RegisterCallback:0000000000000000 $t
     /tmp/cc0WhI97.s:1949   .text.HAL_DMA_RegisterCallback:0000000000000000 HAL_DMA_RegisterCallback
     /tmp/cc0WhI97.s:2000   .text.HAL_DMA_RegisterCallback:000000000000002c $d
     /tmp/cc0WhI97.s:2006   .text.HAL_DMA_RegisterCallback:0000000000000032 $t
     /tmp/cc0WhI97.s:2074   .text.HAL_DMA_UnRegisterCallback:0000000000000000 $t
     /tmp/cc0WhI97.s:2081   .text.HAL_DMA_UnRegisterCallback:0000000000000000 HAL_DMA_UnRegisterCallback
     /tmp/cc0WhI97.s:2130   .text.HAL_DMA_UnRegisterCallback:000000000000002c $d
     /tmp/cc0WhI97.s:2216   .text.HAL_DMA_GetState:0000000000000000 $t
     /tmp/cc0WhI97.s:2223   .text.HAL_DMA_GetState:0000000000000000 HAL_DMA_GetState
     /tmp/cc0WhI97.s:2241   .text.HAL_DMA_GetError:0000000000000000 $t
     /tmp/cc0WhI97.s:2248   .text.HAL_DMA_GetError:0000000000000000 HAL_DMA_GetError
     /tmp/cc0WhI97.s:2266   .rodata.flagBitshiftOffset.0:0000000000000000 $d
     /tmp/cc0WhI97.s:2270   .rodata.flagBitshiftOffset.0:0000000000000000 flagBitshiftOffset.0
     /tmp/cc0WhI97.s:2137   .text.HAL_DMA_UnRegisterCallback:0000000000000033 $d
     /tmp/cc0WhI97.s:2137   .text.HAL_DMA_UnRegisterCallback:0000000000000034 $t

UNDEFINED SYMBOLS
HAL_GetTick
SystemCoreClock
