Archive member included to satisfy reference by file (symbol)

c:/gcc-arm-none-eabi/bin/../lib/gcc/arm-none-eabi/10.3.1/../../../../arm-none-eabi/lib/thumb/v7-m/nofp\libc_nano.a(lib_a-exit.o)
                              c:/gcc-arm-none-eabi/bin/../lib/gcc/arm-none-eabi/10.3.1/../../../../arm-none-eabi/lib/thumb/v7-m/nofp/crt0.o (exit)
c:/gcc-arm-none-eabi/bin/../lib/gcc/arm-none-eabi/10.3.1/../../../../arm-none-eabi/lib/thumb/v7-m/nofp\libc_nano.a(lib_a-impure.o)
                              c:/gcc-arm-none-eabi/bin/../lib/gcc/arm-none-eabi/10.3.1/../../../../arm-none-eabi/lib/thumb/v7-m/nofp\libc_nano.a(lib_a-exit.o) (_global_impure_ptr)
c:/gcc-arm-none-eabi/bin/../lib/gcc/arm-none-eabi/10.3.1/../../../../arm-none-eabi/lib/thumb/v7-m/nofp\libc_nano.a(lib_a-init.o)
                              c:/gcc-arm-none-eabi/bin/../lib/gcc/arm-none-eabi/10.3.1/../../../../arm-none-eabi/lib/thumb/v7-m/nofp/crt0.o (__libc_init_array)
c:/gcc-arm-none-eabi/bin/../lib/gcc/arm-none-eabi/10.3.1/../../../../arm-none-eabi/lib/thumb/v7-m/nofp\libc_nano.a(lib_a-memcpy-stub.o)
                              build/cmd.o (memcpy)
c:/gcc-arm-none-eabi/bin/../lib/gcc/arm-none-eabi/10.3.1/../../../../arm-none-eabi/lib/thumb/v7-m/nofp\libc_nano.a(lib_a-memset.o)
                              c:/gcc-arm-none-eabi/bin/../lib/gcc/arm-none-eabi/10.3.1/../../../../arm-none-eabi/lib/thumb/v7-m/nofp/crt0.o (memset)
c:/gcc-arm-none-eabi/bin/../lib/gcc/arm-none-eabi/10.3.1/../../../../arm-none-eabi/lib/thumb/v7-m/nofp\libc_nano.a(lib_a-nano-vfprintf_float.o)
                              (_printf_float)
c:/gcc-arm-none-eabi/bin/../lib/gcc/arm-none-eabi/10.3.1/../../../../arm-none-eabi/lib/thumb/v7-m/nofp\libc_nano.a(lib_a-nano-vfprintf_i.o)
                              c:/gcc-arm-none-eabi/bin/../lib/gcc/arm-none-eabi/10.3.1/../../../../arm-none-eabi/lib/thumb/v7-m/nofp\libc_nano.a(lib_a-nano-vfprintf_float.o) (_printf_common)
c:/gcc-arm-none-eabi/bin/../lib/gcc/arm-none-eabi/10.3.1/../../../../arm-none-eabi/lib/thumb/v7-m/nofp\libc_nano.a(lib_a-strcpy.o)
                              build/shell.o (strcpy)
c:/gcc-arm-none-eabi/bin/../lib/gcc/arm-none-eabi/10.3.1/../../../../arm-none-eabi/lib/thumb/v7-m/nofp\libc_nano.a(lib_a-strlen.o)
                              build/msh.o (strlen)
c:/gcc-arm-none-eabi/bin/../lib/gcc/arm-none-eabi/10.3.1/../../../../arm-none-eabi/lib/thumb/v7-m/nofp\libc_nano.a(lib_a-strncmp.o)
                              build/cmd.o (strncmp)
c:/gcc-arm-none-eabi/bin/../lib/gcc/arm-none-eabi/10.3.1/../../../../arm-none-eabi/lib/thumb/v7-m/nofp\libc_nano.a(lib_a-strncpy.o)
                              build/shell.o (strncpy)
c:/gcc-arm-none-eabi/bin/../lib/gcc/arm-none-eabi/10.3.1/../../../../arm-none-eabi/lib/thumb/v7-m/nofp\libc_nano.a(lib_a-dtoa.o)
                              c:/gcc-arm-none-eabi/bin/../lib/gcc/arm-none-eabi/10.3.1/../../../../arm-none-eabi/lib/thumb/v7-m/nofp\libc_nano.a(lib_a-nano-vfprintf_float.o) (_dtoa_r)
c:/gcc-arm-none-eabi/bin/../lib/gcc/arm-none-eabi/10.3.1/../../../../arm-none-eabi/lib/thumb/v7-m/nofp\libc_nano.a(lib_a-localeconv.o)
                              c:/gcc-arm-none-eabi/bin/../lib/gcc/arm-none-eabi/10.3.1/../../../../arm-none-eabi/lib/thumb/v7-m/nofp\libc_nano.a(lib_a-nano-vfprintf_float.o) (_localeconv_r)
c:/gcc-arm-none-eabi/bin/../lib/gcc/arm-none-eabi/10.3.1/../../../../arm-none-eabi/lib/thumb/v7-m/nofp\libc_nano.a(lib_a-malloc.o)
                              c:/gcc-arm-none-eabi/bin/../lib/gcc/arm-none-eabi/10.3.1/../../../../arm-none-eabi/lib/thumb/v7-m/nofp\libc_nano.a(lib_a-dtoa.o) (malloc)
c:/gcc-arm-none-eabi/bin/../lib/gcc/arm-none-eabi/10.3.1/../../../../arm-none-eabi/lib/thumb/v7-m/nofp\libc_nano.a(lib_a-memchr-stub.o)
                              c:/gcc-arm-none-eabi/bin/../lib/gcc/arm-none-eabi/10.3.1/../../../../arm-none-eabi/lib/thumb/v7-m/nofp\libc_nano.a(lib_a-nano-vfprintf_i.o) (memchr)
c:/gcc-arm-none-eabi/bin/../lib/gcc/arm-none-eabi/10.3.1/../../../../arm-none-eabi/lib/thumb/v7-m/nofp\libc_nano.a(lib_a-mprec.o)
                              c:/gcc-arm-none-eabi/bin/../lib/gcc/arm-none-eabi/10.3.1/../../../../arm-none-eabi/lib/thumb/v7-m/nofp\libc_nano.a(lib_a-dtoa.o) (_Balloc)
c:/gcc-arm-none-eabi/bin/../lib/gcc/arm-none-eabi/10.3.1/../../../../arm-none-eabi/lib/thumb/v7-m/nofp\libc_nano.a(lib_a-nano-callocr.o)
                              c:/gcc-arm-none-eabi/bin/../lib/gcc/arm-none-eabi/10.3.1/../../../../arm-none-eabi/lib/thumb/v7-m/nofp\libc_nano.a(lib_a-mprec.o) (_calloc_r)
c:/gcc-arm-none-eabi/bin/../lib/gcc/arm-none-eabi/10.3.1/../../../../arm-none-eabi/lib/thumb/v7-m/nofp\libc_nano.a(lib_a-nano-freer.o)
                              c:/gcc-arm-none-eabi/bin/../lib/gcc/arm-none-eabi/10.3.1/../../../../arm-none-eabi/lib/thumb/v7-m/nofp\libc_nano.a(lib_a-malloc.o) (_free_r)
c:/gcc-arm-none-eabi/bin/../lib/gcc/arm-none-eabi/10.3.1/../../../../arm-none-eabi/lib/thumb/v7-m/nofp\libc_nano.a(lib_a-nano-mallocr.o)
                              c:/gcc-arm-none-eabi/bin/../lib/gcc/arm-none-eabi/10.3.1/../../../../arm-none-eabi/lib/thumb/v7-m/nofp\libc_nano.a(lib_a-malloc.o) (_malloc_r)
c:/gcc-arm-none-eabi/bin/../lib/gcc/arm-none-eabi/10.3.1/../../../../arm-none-eabi/lib/thumb/v7-m/nofp\libc_nano.a(lib_a-sbrkr.o)
                              c:/gcc-arm-none-eabi/bin/../lib/gcc/arm-none-eabi/10.3.1/../../../../arm-none-eabi/lib/thumb/v7-m/nofp\libc_nano.a(lib_a-nano-mallocr.o) (_sbrk_r)
c:/gcc-arm-none-eabi/bin/../lib/gcc/arm-none-eabi/10.3.1/../../../../arm-none-eabi/lib/thumb/v7-m/nofp\libc_nano.a(lib_a-assert.o)
                              c:/gcc-arm-none-eabi/bin/../lib/gcc/arm-none-eabi/10.3.1/../../../../arm-none-eabi/lib/thumb/v7-m/nofp\libc_nano.a(lib_a-dtoa.o) (__assert_func)
c:/gcc-arm-none-eabi/bin/../lib/gcc/arm-none-eabi/10.3.1/../../../../arm-none-eabi/lib/thumb/v7-m/nofp\libc_nano.a(lib_a-fprintf.o)
                              c:/gcc-arm-none-eabi/bin/../lib/gcc/arm-none-eabi/10.3.1/../../../../arm-none-eabi/lib/thumb/v7-m/nofp\libc_nano.a(lib_a-assert.o) (fiprintf)
c:/gcc-arm-none-eabi/bin/../lib/gcc/arm-none-eabi/10.3.1/../../../../arm-none-eabi/lib/thumb/v7-m/nofp\libc_nano.a(lib_a-locale.o)
                              c:/gcc-arm-none-eabi/bin/../lib/gcc/arm-none-eabi/10.3.1/../../../../arm-none-eabi/lib/thumb/v7-m/nofp\libc_nano.a(lib_a-localeconv.o) (__global_locale)
c:/gcc-arm-none-eabi/bin/../lib/gcc/arm-none-eabi/10.3.1/../../../../arm-none-eabi/lib/thumb/v7-m/nofp\libc_nano.a(lib_a-mbtowc_r.o)
                              c:/gcc-arm-none-eabi/bin/../lib/gcc/arm-none-eabi/10.3.1/../../../../arm-none-eabi/lib/thumb/v7-m/nofp\libc_nano.a(lib_a-locale.o) (__ascii_mbtowc)
c:/gcc-arm-none-eabi/bin/../lib/gcc/arm-none-eabi/10.3.1/../../../../arm-none-eabi/lib/thumb/v7-m/nofp\libc_nano.a(lib_a-mlock.o)
                              c:/gcc-arm-none-eabi/bin/../lib/gcc/arm-none-eabi/10.3.1/../../../../arm-none-eabi/lib/thumb/v7-m/nofp\libc_nano.a(lib_a-nano-freer.o) (__malloc_lock)
c:/gcc-arm-none-eabi/bin/../lib/gcc/arm-none-eabi/10.3.1/../../../../arm-none-eabi/lib/thumb/v7-m/nofp\libc_nano.a(lib_a-nano-vfprintf.o)
                              c:/gcc-arm-none-eabi/bin/../lib/gcc/arm-none-eabi/10.3.1/../../../../arm-none-eabi/lib/thumb/v7-m/nofp\libc_nano.a(lib_a-fprintf.o) (_vfprintf_r)
c:/gcc-arm-none-eabi/bin/../lib/gcc/arm-none-eabi/10.3.1/../../../../arm-none-eabi/lib/thumb/v7-m/nofp\libc_nano.a(lib_a-reent.o)
                              c:/gcc-arm-none-eabi/bin/../lib/gcc/arm-none-eabi/10.3.1/../../../../arm-none-eabi/lib/thumb/v7-m/nofp\libc_nano.a(lib_a-sbrkr.o) (errno)
c:/gcc-arm-none-eabi/bin/../lib/gcc/arm-none-eabi/10.3.1/../../../../arm-none-eabi/lib/thumb/v7-m/nofp\libc_nano.a(lib_a-strcmp.o)
                              c:/gcc-arm-none-eabi/bin/../lib/gcc/arm-none-eabi/10.3.1/../../../../arm-none-eabi/lib/thumb/v7-m/nofp\libc_nano.a(lib_a-locale.o) (strcmp)
c:/gcc-arm-none-eabi/bin/../lib/gcc/arm-none-eabi/10.3.1/../../../../arm-none-eabi/lib/thumb/v7-m/nofp\libc_nano.a(lib_a-wbuf.o)
                              c:/gcc-arm-none-eabi/bin/../lib/gcc/arm-none-eabi/10.3.1/../../../../arm-none-eabi/lib/thumb/v7-m/nofp\libc_nano.a(lib_a-nano-vfprintf.o) (__swbuf_r)
c:/gcc-arm-none-eabi/bin/../lib/gcc/arm-none-eabi/10.3.1/../../../../arm-none-eabi/lib/thumb/v7-m/nofp\libc_nano.a(lib_a-wctomb_r.o)
                              c:/gcc-arm-none-eabi/bin/../lib/gcc/arm-none-eabi/10.3.1/../../../../arm-none-eabi/lib/thumb/v7-m/nofp\libc_nano.a(lib_a-locale.o) (__ascii_wctomb)
c:/gcc-arm-none-eabi/bin/../lib/gcc/arm-none-eabi/10.3.1/../../../../arm-none-eabi/lib/thumb/v7-m/nofp\libc_nano.a(lib_a-wsetup.o)
                              c:/gcc-arm-none-eabi/bin/../lib/gcc/arm-none-eabi/10.3.1/../../../../arm-none-eabi/lib/thumb/v7-m/nofp\libc_nano.a(lib_a-nano-vfprintf.o) (__swsetup_r)
c:/gcc-arm-none-eabi/bin/../lib/gcc/arm-none-eabi/10.3.1/../../../../arm-none-eabi/lib/thumb/v7-m/nofp\libc_nano.a(lib_a-abort.o)
                              c:/gcc-arm-none-eabi/bin/../lib/gcc/arm-none-eabi/10.3.1/../../../../arm-none-eabi/lib/thumb/v7-m/nofp\libc_nano.a(lib_a-assert.o) (abort)
c:/gcc-arm-none-eabi/bin/../lib/gcc/arm-none-eabi/10.3.1/../../../../arm-none-eabi/lib/thumb/v7-m/nofp\libc_nano.a(lib_a-ctype_.o)
                              c:/gcc-arm-none-eabi/bin/../lib/gcc/arm-none-eabi/10.3.1/../../../../arm-none-eabi/lib/thumb/v7-m/nofp\libc_nano.a(lib_a-locale.o) (_ctype_)
c:/gcc-arm-none-eabi/bin/../lib/gcc/arm-none-eabi/10.3.1/../../../../arm-none-eabi/lib/thumb/v7-m/nofp\libc_nano.a(lib_a-fflush.o)
                              c:/gcc-arm-none-eabi/bin/../lib/gcc/arm-none-eabi/10.3.1/../../../../arm-none-eabi/lib/thumb/v7-m/nofp\libc_nano.a(lib_a-wbuf.o) (_fflush_r)
c:/gcc-arm-none-eabi/bin/../lib/gcc/arm-none-eabi/10.3.1/../../../../arm-none-eabi/lib/thumb/v7-m/nofp\libc_nano.a(lib_a-findfp.o)
                              c:/gcc-arm-none-eabi/bin/../lib/gcc/arm-none-eabi/10.3.1/../../../../arm-none-eabi/lib/thumb/v7-m/nofp\libc_nano.a(lib_a-nano-vfprintf.o) (__sinit)
c:/gcc-arm-none-eabi/bin/../lib/gcc/arm-none-eabi/10.3.1/../../../../arm-none-eabi/lib/thumb/v7-m/nofp\libc_nano.a(lib_a-fvwrite.o)
                              c:/gcc-arm-none-eabi/bin/../lib/gcc/arm-none-eabi/10.3.1/../../../../arm-none-eabi/lib/thumb/v7-m/nofp\libc_nano.a(lib_a-nano-vfprintf.o) (__sfvwrite_r)
c:/gcc-arm-none-eabi/bin/../lib/gcc/arm-none-eabi/10.3.1/../../../../arm-none-eabi/lib/thumb/v7-m/nofp\libc_nano.a(lib_a-fwalk.o)
                              c:/gcc-arm-none-eabi/bin/../lib/gcc/arm-none-eabi/10.3.1/../../../../arm-none-eabi/lib/thumb/v7-m/nofp\libc_nano.a(lib_a-findfp.o) (_fwalk)
c:/gcc-arm-none-eabi/bin/../lib/gcc/arm-none-eabi/10.3.1/../../../../arm-none-eabi/lib/thumb/v7-m/nofp\libc_nano.a(lib_a-lock.o)
                              c:/gcc-arm-none-eabi/bin/../lib/gcc/arm-none-eabi/10.3.1/../../../../arm-none-eabi/lib/thumb/v7-m/nofp\libc_nano.a(lib_a-findfp.o) (__retarget_lock_init_recursive)
c:/gcc-arm-none-eabi/bin/../lib/gcc/arm-none-eabi/10.3.1/../../../../arm-none-eabi/lib/thumb/v7-m/nofp\libc_nano.a(lib_a-makebuf.o)
                              c:/gcc-arm-none-eabi/bin/../lib/gcc/arm-none-eabi/10.3.1/../../../../arm-none-eabi/lib/thumb/v7-m/nofp\libc_nano.a(lib_a-wsetup.o) (__smakebuf_r)
c:/gcc-arm-none-eabi/bin/../lib/gcc/arm-none-eabi/10.3.1/../../../../arm-none-eabi/lib/thumb/v7-m/nofp\libc_nano.a(lib_a-memmove.o)
                              c:/gcc-arm-none-eabi/bin/../lib/gcc/arm-none-eabi/10.3.1/../../../../arm-none-eabi/lib/thumb/v7-m/nofp\libc_nano.a(lib_a-fvwrite.o) (memmove)
c:/gcc-arm-none-eabi/bin/../lib/gcc/arm-none-eabi/10.3.1/../../../../arm-none-eabi/lib/thumb/v7-m/nofp\libc_nano.a(lib_a-nano-reallocr.o)
                              c:/gcc-arm-none-eabi/bin/../lib/gcc/arm-none-eabi/10.3.1/../../../../arm-none-eabi/lib/thumb/v7-m/nofp\libc_nano.a(lib_a-fvwrite.o) (_realloc_r)
c:/gcc-arm-none-eabi/bin/../lib/gcc/arm-none-eabi/10.3.1/../../../../arm-none-eabi/lib/thumb/v7-m/nofp\libc_nano.a(lib_a-signal.o)
                              c:/gcc-arm-none-eabi/bin/../lib/gcc/arm-none-eabi/10.3.1/../../../../arm-none-eabi/lib/thumb/v7-m/nofp\libc_nano.a(lib_a-abort.o) (raise)
c:/gcc-arm-none-eabi/bin/../lib/gcc/arm-none-eabi/10.3.1/../../../../arm-none-eabi/lib/thumb/v7-m/nofp\libc_nano.a(lib_a-signalr.o)
                              c:/gcc-arm-none-eabi/bin/../lib/gcc/arm-none-eabi/10.3.1/../../../../arm-none-eabi/lib/thumb/v7-m/nofp\libc_nano.a(lib_a-signal.o) (_kill_r)
c:/gcc-arm-none-eabi/bin/../lib/gcc/arm-none-eabi/10.3.1/../../../../arm-none-eabi/lib/thumb/v7-m/nofp\libc_nano.a(lib_a-stdio.o)
                              c:/gcc-arm-none-eabi/bin/../lib/gcc/arm-none-eabi/10.3.1/../../../../arm-none-eabi/lib/thumb/v7-m/nofp\libc_nano.a(lib_a-findfp.o) (__sread)
c:/gcc-arm-none-eabi/bin/../lib/gcc/arm-none-eabi/10.3.1/../../../../arm-none-eabi/lib/thumb/v7-m/nofp\libc_nano.a(lib_a-writer.o)
                              c:/gcc-arm-none-eabi/bin/../lib/gcc/arm-none-eabi/10.3.1/../../../../arm-none-eabi/lib/thumb/v7-m/nofp\libc_nano.a(lib_a-stdio.o) (_write_r)
c:/gcc-arm-none-eabi/bin/../lib/gcc/arm-none-eabi/10.3.1/../../../../arm-none-eabi/lib/thumb/v7-m/nofp\libc_nano.a(lib_a-closer.o)
                              c:/gcc-arm-none-eabi/bin/../lib/gcc/arm-none-eabi/10.3.1/../../../../arm-none-eabi/lib/thumb/v7-m/nofp\libc_nano.a(lib_a-stdio.o) (_close_r)
c:/gcc-arm-none-eabi/bin/../lib/gcc/arm-none-eabi/10.3.1/../../../../arm-none-eabi/lib/thumb/v7-m/nofp\libc_nano.a(lib_a-fstatr.o)
                              c:/gcc-arm-none-eabi/bin/../lib/gcc/arm-none-eabi/10.3.1/../../../../arm-none-eabi/lib/thumb/v7-m/nofp\libc_nano.a(lib_a-makebuf.o) (_fstat_r)
c:/gcc-arm-none-eabi/bin/../lib/gcc/arm-none-eabi/10.3.1/../../../../arm-none-eabi/lib/thumb/v7-m/nofp\libc_nano.a(lib_a-isattyr.o)
                              c:/gcc-arm-none-eabi/bin/../lib/gcc/arm-none-eabi/10.3.1/../../../../arm-none-eabi/lib/thumb/v7-m/nofp\libc_nano.a(lib_a-makebuf.o) (_isatty_r)
c:/gcc-arm-none-eabi/bin/../lib/gcc/arm-none-eabi/10.3.1/../../../../arm-none-eabi/lib/thumb/v7-m/nofp\libc_nano.a(lib_a-lseekr.o)
                              c:/gcc-arm-none-eabi/bin/../lib/gcc/arm-none-eabi/10.3.1/../../../../arm-none-eabi/lib/thumb/v7-m/nofp\libc_nano.a(lib_a-stdio.o) (_lseek_r)
c:/gcc-arm-none-eabi/bin/../lib/gcc/arm-none-eabi/10.3.1/../../../../arm-none-eabi/lib/thumb/v7-m/nofp\libc_nano.a(lib_a-nano-msizer.o)
                              c:/gcc-arm-none-eabi/bin/../lib/gcc/arm-none-eabi/10.3.1/../../../../arm-none-eabi/lib/thumb/v7-m/nofp\libc_nano.a(lib_a-nano-reallocr.o) (_malloc_usable_size_r)
c:/gcc-arm-none-eabi/bin/../lib/gcc/arm-none-eabi/10.3.1/../../../../arm-none-eabi/lib/thumb/v7-m/nofp\libc_nano.a(lib_a-readr.o)
                              c:/gcc-arm-none-eabi/bin/../lib/gcc/arm-none-eabi/10.3.1/../../../../arm-none-eabi/lib/thumb/v7-m/nofp\libc_nano.a(lib_a-stdio.o) (_read_r)
c:/gcc-arm-none-eabi/bin/../lib/gcc/arm-none-eabi/10.3.1/../../../../arm-none-eabi/lib/thumb/v7-m/nofp\libnosys.a(close.o)
                              c:/gcc-arm-none-eabi/bin/../lib/gcc/arm-none-eabi/10.3.1/../../../../arm-none-eabi/lib/thumb/v7-m/nofp\libc_nano.a(lib_a-closer.o) (_close)
c:/gcc-arm-none-eabi/bin/../lib/gcc/arm-none-eabi/10.3.1/../../../../arm-none-eabi/lib/thumb/v7-m/nofp\libnosys.a(fstat.o)
                              c:/gcc-arm-none-eabi/bin/../lib/gcc/arm-none-eabi/10.3.1/../../../../arm-none-eabi/lib/thumb/v7-m/nofp\libc_nano.a(lib_a-fstatr.o) (_fstat)
c:/gcc-arm-none-eabi/bin/../lib/gcc/arm-none-eabi/10.3.1/../../../../arm-none-eabi/lib/thumb/v7-m/nofp\libnosys.a(getpid.o)
                              c:/gcc-arm-none-eabi/bin/../lib/gcc/arm-none-eabi/10.3.1/../../../../arm-none-eabi/lib/thumb/v7-m/nofp\libc_nano.a(lib_a-signalr.o) (_getpid)
c:/gcc-arm-none-eabi/bin/../lib/gcc/arm-none-eabi/10.3.1/../../../../arm-none-eabi/lib/thumb/v7-m/nofp\libnosys.a(isatty.o)
                              c:/gcc-arm-none-eabi/bin/../lib/gcc/arm-none-eabi/10.3.1/../../../../arm-none-eabi/lib/thumb/v7-m/nofp\libc_nano.a(lib_a-isattyr.o) (_isatty)
c:/gcc-arm-none-eabi/bin/../lib/gcc/arm-none-eabi/10.3.1/../../../../arm-none-eabi/lib/thumb/v7-m/nofp\libnosys.a(kill.o)
                              c:/gcc-arm-none-eabi/bin/../lib/gcc/arm-none-eabi/10.3.1/../../../../arm-none-eabi/lib/thumb/v7-m/nofp\libc_nano.a(lib_a-signalr.o) (_kill)
c:/gcc-arm-none-eabi/bin/../lib/gcc/arm-none-eabi/10.3.1/../../../../arm-none-eabi/lib/thumb/v7-m/nofp\libnosys.a(lseek.o)
                              c:/gcc-arm-none-eabi/bin/../lib/gcc/arm-none-eabi/10.3.1/../../../../arm-none-eabi/lib/thumb/v7-m/nofp\libc_nano.a(lib_a-lseekr.o) (_lseek)
c:/gcc-arm-none-eabi/bin/../lib/gcc/arm-none-eabi/10.3.1/../../../../arm-none-eabi/lib/thumb/v7-m/nofp\libnosys.a(read.o)
                              c:/gcc-arm-none-eabi/bin/../lib/gcc/arm-none-eabi/10.3.1/../../../../arm-none-eabi/lib/thumb/v7-m/nofp\libc_nano.a(lib_a-readr.o) (_read)
c:/gcc-arm-none-eabi/bin/../lib/gcc/arm-none-eabi/10.3.1/../../../../arm-none-eabi/lib/thumb/v7-m/nofp\libnosys.a(sbrk.o)
                              c:/gcc-arm-none-eabi/bin/../lib/gcc/arm-none-eabi/10.3.1/../../../../arm-none-eabi/lib/thumb/v7-m/nofp\libc_nano.a(lib_a-sbrkr.o) (_sbrk)
c:/gcc-arm-none-eabi/bin/../lib/gcc/arm-none-eabi/10.3.1/../../../../arm-none-eabi/lib/thumb/v7-m/nofp\libnosys.a(_exit.o)
                              c:/gcc-arm-none-eabi/bin/../lib/gcc/arm-none-eabi/10.3.1/../../../../arm-none-eabi/lib/thumb/v7-m/nofp\libc_nano.a(lib_a-exit.o) (_exit)
c:/gcc-arm-none-eabi/bin/../lib/gcc/arm-none-eabi/10.3.1/thumb/v7-m/nofp\libgcc.a(_arm_muldf3.o)
                              c:/gcc-arm-none-eabi/bin/../lib/gcc/arm-none-eabi/10.3.1/../../../../arm-none-eabi/lib/thumb/v7-m/nofp\libc_nano.a(lib_a-dtoa.o) (__aeabi_dmul)
c:/gcc-arm-none-eabi/bin/../lib/gcc/arm-none-eabi/10.3.1/thumb/v7-m/nofp\libgcc.a(_arm_addsubdf3.o)
                              c:/gcc-arm-none-eabi/bin/../lib/gcc/arm-none-eabi/10.3.1/../../../../arm-none-eabi/lib/thumb/v7-m/nofp\libc_nano.a(lib_a-dtoa.o) (__aeabi_dsub)
c:/gcc-arm-none-eabi/bin/../lib/gcc/arm-none-eabi/10.3.1/thumb/v7-m/nofp\libgcc.a(_arm_muldivdf3.o)
                              c:/gcc-arm-none-eabi/bin/../lib/gcc/arm-none-eabi/10.3.1/../../../../arm-none-eabi/lib/thumb/v7-m/nofp\libc_nano.a(lib_a-dtoa.o) (__aeabi_ddiv)
c:/gcc-arm-none-eabi/bin/../lib/gcc/arm-none-eabi/10.3.1/thumb/v7-m/nofp\libgcc.a(_arm_cmpdf2.o)
                              c:/gcc-arm-none-eabi/bin/../lib/gcc/arm-none-eabi/10.3.1/../../../../arm-none-eabi/lib/thumb/v7-m/nofp\libc_nano.a(lib_a-nano-vfprintf_float.o) (__aeabi_dcmpeq)
c:/gcc-arm-none-eabi/bin/../lib/gcc/arm-none-eabi/10.3.1/thumb/v7-m/nofp\libgcc.a(_arm_unorddf2.o)
                              c:/gcc-arm-none-eabi/bin/../lib/gcc/arm-none-eabi/10.3.1/../../../../arm-none-eabi/lib/thumb/v7-m/nofp\libc_nano.a(lib_a-nano-vfprintf_float.o) (__aeabi_dcmpun)
c:/gcc-arm-none-eabi/bin/../lib/gcc/arm-none-eabi/10.3.1/thumb/v7-m/nofp\libgcc.a(_arm_fixdfsi.o)
                              c:/gcc-arm-none-eabi/bin/../lib/gcc/arm-none-eabi/10.3.1/../../../../arm-none-eabi/lib/thumb/v7-m/nofp\libc_nano.a(lib_a-dtoa.o) (__aeabi_d2iz)

Discarded input sections

 .text          0x00000000        0x0 c:/gcc-arm-none-eabi/bin/../lib/gcc/arm-none-eabi/10.3.1/thumb/v7-m/nofp/crti.o
 .data          0x00000000        0x0 c:/gcc-arm-none-eabi/bin/../lib/gcc/arm-none-eabi/10.3.1/thumb/v7-m/nofp/crti.o
 .bss           0x00000000        0x0 c:/gcc-arm-none-eabi/bin/../lib/gcc/arm-none-eabi/10.3.1/thumb/v7-m/nofp/crti.o
 .data          0x00000000        0x4 c:/gcc-arm-none-eabi/bin/../lib/gcc/arm-none-eabi/10.3.1/thumb/v7-m/nofp/crtbegin.o
 .rodata        0x00000000       0x24 c:/gcc-arm-none-eabi/bin/../lib/gcc/arm-none-eabi/10.3.1/thumb/v7-m/nofp/crtbegin.o
 .text          0x00000000       0x7c c:/gcc-arm-none-eabi/bin/../lib/gcc/arm-none-eabi/10.3.1/../../../../arm-none-eabi/lib/thumb/v7-m/nofp/crt0.o
 .data          0x00000000        0x0 c:/gcc-arm-none-eabi/bin/../lib/gcc/arm-none-eabi/10.3.1/../../../../arm-none-eabi/lib/thumb/v7-m/nofp/crt0.o
 .bss           0x00000000        0x0 c:/gcc-arm-none-eabi/bin/../lib/gcc/arm-none-eabi/10.3.1/../../../../arm-none-eabi/lib/thumb/v7-m/nofp/crt0.o
 .ARM.extab     0x00000000        0x0 c:/gcc-arm-none-eabi/bin/../lib/gcc/arm-none-eabi/10.3.1/../../../../arm-none-eabi/lib/thumb/v7-m/nofp/crt0.o
 .ARM.exidx     0x00000000       0x10 c:/gcc-arm-none-eabi/bin/../lib/gcc/arm-none-eabi/10.3.1/../../../../arm-none-eabi/lib/thumb/v7-m/nofp/crt0.o
 .ARM.attributes
                0x00000000       0x1b c:/gcc-arm-none-eabi/bin/../lib/gcc/arm-none-eabi/10.3.1/../../../../arm-none-eabi/lib/thumb/v7-m/nofp/crt0.o
 .text          0x00000000        0x0 build/main.o
 .data          0x00000000        0x0 build/main.o
 .bss           0x00000000        0x0 build/main.o
 .text          0x00000000        0x0 build/stm32f10x_it.o
 .data          0x00000000        0x0 build/stm32f10x_it.o
 .bss           0x00000000        0x0 build/stm32f10x_it.o
 .text          0x00000000        0x0 build/board.o
 .data          0x00000000        0x0 build/board.o
 .bss           0x00000000        0x0 build/board.o
 .text          0x00000000        0x0 build/bsp_led.o
 .data          0x00000000        0x0 build/bsp_led.o
 .bss           0x00000000        0x0 build/bsp_led.o
 .text          0x00000000        0x0 build/bsp_debug_usart.o
 .data          0x00000000        0x0 build/bsp_debug_usart.o
 .bss           0x00000000        0x0 build/bsp_debug_usart.o
 .text.Usart_SendByte
                0x00000000       0x32 build/bsp_debug_usart.o
 .text.Usart_SendArray
                0x00000000       0x4e build/bsp_debug_usart.o
 .text.Usart_SendString
                0x00000000       0x4a build/bsp_debug_usart.o
 .text.Usart_SendHalfWord
                0x00000000       0x5a build/bsp_debug_usart.o
 .text.fgetc    0x00000000       0x2c build/bsp_debug_usart.o
 .text          0x00000000        0x0 build/system_stm32f10x.o
 .data          0x00000000        0x0 build/system_stm32f10x.o
 .bss           0x00000000        0x0 build/system_stm32f10x.o
 .data.AHBPrescTable
                0x00000000       0x10 build/system_stm32f10x.o
 .text.SystemCoreClockUpdate
                0x00000000       0xe4 build/system_stm32f10x.o
 .text          0x00000000        0x0 build/misc.o
 .data          0x00000000        0x0 build/misc.o
 .bss           0x00000000        0x0 build/misc.o
 .text.NVIC_PriorityGroupConfig
                0x00000000       0x24 build/misc.o
 .text.NVIC_Init
                0x00000000       0xc4 build/misc.o
 .text.NVIC_SetVectorTable
                0x00000000       0x2c build/misc.o
 .text.NVIC_SystemLPConfig
                0x00000000       0x40 build/misc.o
 .text.SysTick_CLKSourceConfig
                0x00000000       0x38 build/misc.o
 .debug_info    0x00000000      0x57b build/misc.o
 .debug_abbrev  0x00000000      0x161 build/misc.o
 .debug_loc     0x00000000      0x1cc build/misc.o
 .debug_aranges
                0x00000000       0x40 build/misc.o
 .debug_ranges  0x00000000       0x30 build/misc.o
 .debug_line    0x00000000      0x242 build/misc.o
 .debug_str     0x00000000      0x3bc build/misc.o
 .comment       0x00000000       0x4a build/misc.o
 .debug_frame   0x00000000       0xd8 build/misc.o
 .ARM.attributes
                0x00000000       0x2d build/misc.o
 .text          0x00000000        0x0 build/stm32f10x_adc.o
 .data          0x00000000        0x0 build/stm32f10x_adc.o
 .bss           0x00000000        0x0 build/stm32f10x_adc.o
 .text.ADC_DeInit
                0x00000000       0x74 build/stm32f10x_adc.o
 .text.ADC_Init
                0x00000000       0xa4 build/stm32f10x_adc.o
 .text.ADC_StructInit
                0x00000000       0x36 build/stm32f10x_adc.o
 .text.ADC_Cmd  0x00000000       0x36 build/stm32f10x_adc.o
 .text.ADC_DMACmd
                0x00000000       0x36 build/stm32f10x_adc.o
 .text.ADC_ITConfig
                0x00000000       0x44 build/stm32f10x_adc.o
 .text.ADC_ResetCalibration
                0x00000000       0x1e build/stm32f10x_adc.o
 .text.ADC_GetResetCalibrationStatus
                0x00000000       0x2e build/stm32f10x_adc.o
 .text.ADC_StartCalibration
                0x00000000       0x1e build/stm32f10x_adc.o
 .text.ADC_GetCalibrationStatus
                0x00000000       0x2e build/stm32f10x_adc.o
 .text.ADC_SoftwareStartConvCmd
                0x00000000       0x36 build/stm32f10x_adc.o
 .text.ADC_GetSoftwareStartConvStatus
                0x00000000       0x2e build/stm32f10x_adc.o
 .text.ADC_DiscModeChannelCountConfig
                0x00000000       0x42 build/stm32f10x_adc.o
 .text.ADC_DiscModeCmd
                0x00000000       0x36 build/stm32f10x_adc.o
 .text.ADC_RegularChannelConfig
                0x00000000      0x192 build/stm32f10x_adc.o
 .text.ADC_ExternalTrigConvCmd
                0x00000000       0x36 build/stm32f10x_adc.o
 .text.ADC_GetConversionValue
                0x00000000       0x18 build/stm32f10x_adc.o
 .text.ADC_GetDualModeConversionValue
                0x00000000       0x14 build/stm32f10x_adc.o
 .text.ADC_AutoInjectedConvCmd
                0x00000000       0x36 build/stm32f10x_adc.o
 .text.ADC_InjectedDiscModeCmd
                0x00000000       0x36 build/stm32f10x_adc.o
 .text.ADC_ExternalTrigInjectedConvConfig
                0x00000000       0x34 build/stm32f10x_adc.o
 .text.ADC_ExternalTrigInjectedConvCmd
                0x00000000       0x36 build/stm32f10x_adc.o
 .text.ADC_SoftwareStartInjectedConvCmd
                0x00000000       0x36 build/stm32f10x_adc.o
 .text.ADC_GetSoftwareStartInjectedConvCmdStatus
                0x00000000       0x2e build/stm32f10x_adc.o
 .text.ADC_InjectedChannelConfig
                0x00000000      0x120 build/stm32f10x_adc.o
 .text.ADC_InjectedSequencerLengthConfig
                0x00000000       0x42 build/stm32f10x_adc.o
 .text.ADC_SetInjectedOffset
                0x00000000       0x32 build/stm32f10x_adc.o
 .text.ADC_GetInjectedConversionValue
                0x00000000       0x2e build/stm32f10x_adc.o
 .text.ADC_AnalogWatchdogCmd
                0x00000000       0x38 build/stm32f10x_adc.o
 .text.ADC_AnalogWatchdogThresholdsConfig
                0x00000000       0x26 build/stm32f10x_adc.o
 .text.ADC_AnalogWatchdogSingleChannelConfig
                0x00000000       0x36 build/stm32f10x_adc.o
 .text.ADC_TempSensorVrefintCmd
                0x00000000       0x38 build/stm32f10x_adc.o
 .text.ADC_GetFlagStatus
                0x00000000       0x32 build/stm32f10x_adc.o
 .text.ADC_ClearFlag
                0x00000000       0x1e build/stm32f10x_adc.o
 .text.ADC_GetITStatus
                0x00000000       0x54 build/stm32f10x_adc.o
 .text.ADC_ClearITPendingBit
                0x00000000       0x2a build/stm32f10x_adc.o
 .debug_info    0x00000000      0xce6 build/stm32f10x_adc.o
 .debug_abbrev  0x00000000      0x1b1 build/stm32f10x_adc.o
 .debug_loc     0x00000000      0xccc build/stm32f10x_adc.o
 .debug_aranges
                0x00000000      0x138 build/stm32f10x_adc.o
 .debug_ranges  0x00000000      0x128 build/stm32f10x_adc.o
 .debug_line    0x00000000      0x7b2 build/stm32f10x_adc.o
 .debug_str     0x00000000      0x6ff build/stm32f10x_adc.o
 .comment       0x00000000       0x4a build/stm32f10x_adc.o
 .debug_frame   0x00000000      0x5a4 build/stm32f10x_adc.o
 .ARM.attributes
                0x00000000       0x2d build/stm32f10x_adc.o
 .text          0x00000000        0x0 build/stm32f10x_bkp.o
 .data          0x00000000        0x0 build/stm32f10x_bkp.o
 .bss           0x00000000        0x0 build/stm32f10x_bkp.o
 .text.BKP_DeInit
                0x00000000       0x14 build/stm32f10x_bkp.o
 .text.BKP_TamperPinLevelConfig
                0x00000000       0x20 build/stm32f10x_bkp.o
 .text.BKP_TamperPinCmd
                0x00000000       0x20 build/stm32f10x_bkp.o
 .text.BKP_ITConfig
                0x00000000       0x20 build/stm32f10x_bkp.o
 .text.BKP_RTCOutputConfig
                0x00000000       0x38 build/stm32f10x_bkp.o
 .text.BKP_SetRTCCalibrationValue
                0x00000000       0x3c build/stm32f10x_bkp.o
 .text.BKP_WriteBackupRegister
                0x00000000       0x38 build/stm32f10x_bkp.o
 .text.BKP_ReadBackupRegister
                0x00000000       0x30 build/stm32f10x_bkp.o
 .text.BKP_GetFlagStatus
                0x00000000       0x18 build/stm32f10x_bkp.o
 .text.BKP_ClearFlag
                0x00000000       0x20 build/stm32f10x_bkp.o
 .text.BKP_GetITStatus
                0x00000000       0x18 build/stm32f10x_bkp.o
 .text.BKP_ClearITPendingBit
                0x00000000       0x20 build/stm32f10x_bkp.o
 .debug_info    0x00000000      0x913 build/stm32f10x_bkp.o
 .debug_abbrev  0x00000000      0x176 build/stm32f10x_bkp.o
 .debug_loc     0x00000000      0x3c0 build/stm32f10x_bkp.o
 .debug_aranges
                0x00000000       0x78 build/stm32f10x_bkp.o
 .debug_ranges  0x00000000       0x68 build/stm32f10x_bkp.o
 .debug_line    0x00000000      0x265 build/stm32f10x_bkp.o
 .debug_str     0x00000000      0x5b9 build/stm32f10x_bkp.o
 .comment       0x00000000       0x4a build/stm32f10x_bkp.o
 .debug_frame   0x00000000      0x1c4 build/stm32f10x_bkp.o
 .ARM.attributes
                0x00000000       0x2d build/stm32f10x_bkp.o
 .text          0x00000000        0x0 build/stm32f10x_can.o
 .data          0x00000000        0x0 build/stm32f10x_can.o
 .bss           0x00000000        0x0 build/stm32f10x_can.o
 .text.CAN_DeInit
                0x00000000       0x48 build/stm32f10x_can.o
 .text.CAN_Init
                0x00000000      0x1a0 build/stm32f10x_can.o
 .text.CAN_FilterInit
                0x00000000      0x184 build/stm32f10x_can.o
 .text.CAN_StructInit
                0x00000000       0x54 build/stm32f10x_can.o
 .text.CAN_SlaveStartBank
                0x00000000       0x60 build/stm32f10x_can.o
 .text.CAN_DBGFreeze
                0x00000000       0x36 build/stm32f10x_can.o
 .text.CAN_TTComModeCmd
                0x00000000       0x96 build/stm32f10x_can.o
 .text.CAN_Transmit
                0x00000000      0x1a0 build/stm32f10x_can.o
 .text.CAN_TransmitStatus
                0x00000000      0x104 build/stm32f10x_can.o
 .text.CAN_CancelTransmit
                0x00000000       0x56 build/stm32f10x_can.o
 .text.CAN_Receive
                0x00000000      0x17a build/stm32f10x_can.o
 .text.CAN_FIFORelease
                0x00000000       0x36 build/stm32f10x_can.o
 .text.CAN_MessagePending
                0x00000000       0x48 build/stm32f10x_can.o
 .text.CAN_OperatingModeRequest
                0x00000000       0xfa build/stm32f10x_can.o
 .text.CAN_Sleep
                0x00000000       0x38 build/stm32f10x_can.o
 .text.CAN_WakeUp
                0x00000000       0x54 build/stm32f10x_can.o
 .text.CAN_GetLastErrorCode
                0x00000000       0x24 build/stm32f10x_can.o
 .text.CAN_GetReceiveErrorCounter
                0x00000000       0x20 build/stm32f10x_can.o
 .text.CAN_GetLSBTransmitErrorCounter
                0x00000000       0x20 build/stm32f10x_can.o
 .text.CAN_ITConfig
                0x00000000       0x3a build/stm32f10x_can.o
 .text.CAN_GetFlagStatus
                0x00000000       0xcc build/stm32f10x_can.o
 .text.CAN_ClearFlag
                0x00000000       0x70 build/stm32f10x_can.o
 .text.CAN_GetITStatus
                0x00000000      0x264 build/stm32f10x_can.o
 .text.CAN_ClearITPendingBit
                0x00000000      0x1b4 build/stm32f10x_can.o
 .text.CheckITStatus
                0x00000000       0x2e build/stm32f10x_can.o
 .debug_info    0x00000000      0xd2c build/stm32f10x_can.o
 .debug_abbrev  0x00000000      0x1f2 build/stm32f10x_can.o
 .debug_loc     0x00000000      0x8e4 build/stm32f10x_can.o
 .debug_aranges
                0x00000000       0xe0 build/stm32f10x_can.o
 .debug_ranges  0x00000000       0xd0 build/stm32f10x_can.o
 .debug_line    0x00000000      0x9a9 build/stm32f10x_can.o
 .debug_str     0x00000000      0x732 build/stm32f10x_can.o
 .comment       0x00000000       0x4a build/stm32f10x_can.o
 .debug_frame   0x00000000      0x3f8 build/stm32f10x_can.o
 .ARM.attributes
                0x00000000       0x2d build/stm32f10x_can.o
 .text          0x00000000        0x0 build/stm32f10x_cec.o
 .data          0x00000000        0x0 build/stm32f10x_cec.o
 .bss           0x00000000        0x0 build/stm32f10x_cec.o
 .text.CEC_DeInit
                0x00000000       0x1c build/stm32f10x_cec.o
 .text.CEC_Init
                0x00000000       0x40 build/stm32f10x_cec.o
 .text.CEC_Cmd  0x00000000       0x38 build/stm32f10x_cec.o
 .text.CEC_ITConfig
                0x00000000       0x20 build/stm32f10x_cec.o
 .text.CEC_OwnAddressConfig
                0x00000000       0x20 build/stm32f10x_cec.o
 .text.CEC_SetPrescaler
                0x00000000       0x20 build/stm32f10x_cec.o
 .text.CEC_SendDataByte
                0x00000000       0x20 build/stm32f10x_cec.o
 .text.CEC_ReceiveDataByte
                0x00000000       0x18 build/stm32f10x_cec.o
 .text.CEC_StartOfMessage
                0x00000000       0x18 build/stm32f10x_cec.o
 .text.CEC_EndOfMessageCmd
                0x00000000       0x20 build/stm32f10x_cec.o
 .text.CEC_GetFlagStatus
                0x00000000       0x68 build/stm32f10x_cec.o
 .text.CEC_ClearFlag
                0x00000000       0x3c build/stm32f10x_cec.o
 .text.CEC_GetITStatus
                0x00000000       0x48 build/stm32f10x_cec.o
 .text.CEC_ClearITPendingBit
                0x00000000       0x3c build/stm32f10x_cec.o
 .debug_info    0x00000000      0x491 build/stm32f10x_cec.o
 .debug_abbrev  0x00000000      0x1cb build/stm32f10x_cec.o
 .debug_loc     0x00000000      0x4a8 build/stm32f10x_cec.o
 .debug_aranges
                0x00000000       0x88 build/stm32f10x_cec.o
 .debug_ranges  0x00000000       0x78 build/stm32f10x_cec.o
 .debug_line    0x00000000      0x356 build/stm32f10x_cec.o
 .debug_str     0x00000000      0x37a build/stm32f10x_cec.o
 .comment       0x00000000       0x4a build/stm32f10x_cec.o
 .debug_frame   0x00000000      0x224 build/stm32f10x_cec.o
 .ARM.attributes
                0x00000000       0x2d build/stm32f10x_cec.o
 .text          0x00000000        0x0 build/stm32f10x_crc.o
 .data          0x00000000        0x0 build/stm32f10x_crc.o
 .bss           0x00000000        0x0 build/stm32f10x_crc.o
 .text.CRC_ResetDR
                0x00000000       0x18 build/stm32f10x_crc.o
 .text.CRC_CalcCRC
                0x00000000       0x20 build/stm32f10x_crc.o
 .text.CRC_CalcBlockCRC
                0x00000000       0x44 build/stm32f10x_crc.o
 .text.CRC_GetCRC
                0x00000000       0x14 build/stm32f10x_crc.o
 .text.CRC_SetIDRegister
                0x00000000       0x20 build/stm32f10x_crc.o
 .text.CRC_GetIDRegister
                0x00000000       0x18 build/stm32f10x_crc.o
 .debug_info    0x00000000      0x222 build/stm32f10x_crc.o
 .debug_abbrev  0x00000000      0x11d build/stm32f10x_crc.o
 .debug_loc     0x00000000      0x1e0 build/stm32f10x_crc.o
 .debug_aranges
                0x00000000       0x48 build/stm32f10x_crc.o
 .debug_ranges  0x00000000       0x38 build/stm32f10x_crc.o
 .debug_line    0x00000000      0x1ce build/stm32f10x_crc.o
 .debug_str     0x00000000      0x23f build/stm32f10x_crc.o
 .comment       0x00000000       0x4a build/stm32f10x_crc.o
 .debug_frame   0x00000000       0xe8 build/stm32f10x_crc.o
 .ARM.attributes
                0x00000000       0x2d build/stm32f10x_crc.o
 .text          0x00000000        0x0 build/stm32f10x_dac.o
 .data          0x00000000        0x0 build/stm32f10x_dac.o
 .bss           0x00000000        0x0 build/stm32f10x_dac.o
 .text.DAC_DeInit
                0x00000000       0x1c build/stm32f10x_dac.o
 .text.DAC_Init
                0x00000000       0x64 build/stm32f10x_dac.o
 .text.DAC_StructInit
                0x00000000       0x2a build/stm32f10x_dac.o
 .text.DAC_Cmd  0x00000000       0x48 build/stm32f10x_dac.o
 .text.DAC_DMACmd
                0x00000000       0x4c build/stm32f10x_dac.o
 .text.DAC_SoftwareTriggerCmd
                0x00000000       0x4c build/stm32f10x_dac.o
 .text.DAC_DualSoftwareTriggerCmd
                0x00000000       0x38 build/stm32f10x_dac.o
 .text.DAC_WaveGenerationCmd
                0x00000000       0x4c build/stm32f10x_dac.o
 .text.DAC_SetChannel1Data
                0x00000000       0x34 build/stm32f10x_dac.o
 .text.DAC_SetChannel2Data
                0x00000000       0x34 build/stm32f10x_dac.o
 .text.DAC_SetDualChannelData
                0x00000000       0x58 build/stm32f10x_dac.o
 .text.DAC_GetDataOutputValue
                0x00000000       0x30 build/stm32f10x_dac.o
 .debug_info    0x00000000      0x532 build/stm32f10x_dac.o
 .debug_abbrev  0x00000000      0x18c build/stm32f10x_dac.o
 .debug_loc     0x00000000      0x420 build/stm32f10x_dac.o
 .debug_aranges
                0x00000000       0x78 build/stm32f10x_dac.o
 .debug_ranges  0x00000000       0x68 build/stm32f10x_dac.o
 .debug_line    0x00000000      0x355 build/stm32f10x_dac.o
 .debug_str     0x00000000      0x3b3 build/stm32f10x_dac.o
 .comment       0x00000000       0x4a build/stm32f10x_dac.o
 .debug_frame   0x00000000      0x1e4 build/stm32f10x_dac.o
 .ARM.attributes
                0x00000000       0x2d build/stm32f10x_dac.o
 .text          0x00000000        0x0 build/stm32f10x_dbgmcu.o
 .data          0x00000000        0x0 build/stm32f10x_dbgmcu.o
 .bss           0x00000000        0x0 build/stm32f10x_dbgmcu.o
 .text.DBGMCU_GetREVID
                0x00000000       0x18 build/stm32f10x_dbgmcu.o
 .text.DBGMCU_GetDEVID
                0x00000000       0x18 build/stm32f10x_dbgmcu.o
 .text.DBGMCU_Config
                0x00000000       0x3c build/stm32f10x_dbgmcu.o
 .debug_info    0x00000000      0x15d build/stm32f10x_dbgmcu.o
 .debug_abbrev  0x00000000       0xe7 build/stm32f10x_dbgmcu.o
 .debug_loc     0x00000000       0xe4 build/stm32f10x_dbgmcu.o
 .debug_aranges
                0x00000000       0x30 build/stm32f10x_dbgmcu.o
 .debug_ranges  0x00000000       0x20 build/stm32f10x_dbgmcu.o
 .debug_line    0x00000000      0x15f build/stm32f10x_dbgmcu.o
 .debug_str     0x00000000      0x1f6 build/stm32f10x_dbgmcu.o
 .comment       0x00000000       0x4a build/stm32f10x_dbgmcu.o
 .debug_frame   0x00000000       0x78 build/stm32f10x_dbgmcu.o
 .ARM.attributes
                0x00000000       0x2d build/stm32f10x_dbgmcu.o
 .text          0x00000000        0x0 build/stm32f10x_dma.o
 .data          0x00000000        0x0 build/stm32f10x_dma.o
 .bss           0x00000000        0x0 build/stm32f10x_dma.o
 .text.DMA_DeInit
                0x00000000      0x178 build/stm32f10x_dma.o
 .text.DMA_Init
                0x00000000       0x7c build/stm32f10x_dma.o
 .text.DMA_StructInit
                0x00000000       0x54 build/stm32f10x_dma.o
 .text.DMA_Cmd  0x00000000       0x38 build/stm32f10x_dma.o
 .text.DMA_ITConfig
                0x00000000       0x3a build/stm32f10x_dma.o
 .text.DMA_SetCurrDataCounter
                0x00000000       0x1c build/stm32f10x_dma.o
 .text.DMA_GetCurrDataCounter
                0x00000000       0x18 build/stm32f10x_dma.o
 .text.DMA_GetFlagStatus
                0x00000000       0x50 build/stm32f10x_dma.o
 .text.DMA_ClearFlag
                0x00000000       0x34 build/stm32f10x_dma.o
 .text.DMA_GetITStatus
                0x00000000       0x50 build/stm32f10x_dma.o
 .text.DMA_ClearITPendingBit
                0x00000000       0x34 build/stm32f10x_dma.o
 .debug_info    0x00000000      0x4ec build/stm32f10x_dma.o
 .debug_abbrev  0x00000000      0x184 build/stm32f10x_dma.o
 .debug_loc     0x00000000      0x3f4 build/stm32f10x_dma.o
 .debug_aranges
                0x00000000       0x70 build/stm32f10x_dma.o
 .debug_ranges  0x00000000       0x60 build/stm32f10x_dma.o
 .debug_line    0x00000000      0x3d0 build/stm32f10x_dma.o
 .debug_str     0x00000000      0x3bb build/stm32f10x_dma.o
 .comment       0x00000000       0x4a build/stm32f10x_dma.o
 .debug_frame   0x00000000      0x1c8 build/stm32f10x_dma.o
 .ARM.attributes
                0x00000000       0x2d build/stm32f10x_dma.o
 .text          0x00000000        0x0 build/stm32f10x_exti.o
 .data          0x00000000        0x0 build/stm32f10x_exti.o
 .bss           0x00000000        0x0 build/stm32f10x_exti.o
 .text.EXTI_DeInit
                0x00000000       0x34 build/stm32f10x_exti.o
 .text.EXTI_Init
                0x00000000       0xe4 build/stm32f10x_exti.o
 .text.EXTI_StructInit
                0x00000000       0x2a build/stm32f10x_exti.o
 .text.EXTI_GenerateSWInterrupt
                0x00000000       0x24 build/stm32f10x_exti.o
 .text.EXTI_GetFlagStatus
                0x00000000       0x34 build/stm32f10x_exti.o
 .text.EXTI_ClearFlag
                0x00000000       0x1c build/stm32f10x_exti.o
 .text.EXTI_GetITStatus
                0x00000000       0x48 build/stm32f10x_exti.o
 .text.EXTI_ClearITPendingBit
                0x00000000       0x1c build/stm32f10x_exti.o
 .debug_info    0x00000000      0x397 build/stm32f10x_exti.o
 .debug_abbrev  0x00000000      0x16a build/stm32f10x_exti.o
 .debug_loc     0x00000000      0x2c8 build/stm32f10x_exti.o
 .debug_aranges
                0x00000000       0x58 build/stm32f10x_exti.o
 .debug_ranges  0x00000000       0x48 build/stm32f10x_exti.o
 .debug_line    0x00000000      0x2dd build/stm32f10x_exti.o
 .debug_str     0x00000000      0x34d build/stm32f10x_exti.o
 .comment       0x00000000       0x4a build/stm32f10x_exti.o
 .debug_frame   0x00000000      0x148 build/stm32f10x_exti.o
 .ARM.attributes
                0x00000000       0x2d build/stm32f10x_exti.o
 .text          0x00000000        0x0 build/stm32f10x_flash.o
 .data          0x00000000        0x0 build/stm32f10x_flash.o
 .bss           0x00000000        0x0 build/stm32f10x_flash.o
 .text.FLASH_SetLatency
                0x00000000       0x38 build/stm32f10x_flash.o
 .text.FLASH_HalfCycleAccessCmd
                0x00000000       0x30 build/stm32f10x_flash.o
 .text.FLASH_PrefetchBufferCmd
                0x00000000       0x30 build/stm32f10x_flash.o
 .text.FLASH_Unlock
                0x00000000       0x24 build/stm32f10x_flash.o
 .text.FLASH_UnlockBank1
                0x00000000       0x24 build/stm32f10x_flash.o
 .text.FLASH_Lock
                0x00000000       0x1c build/stm32f10x_flash.o
 .text.FLASH_LockBank1
                0x00000000       0x1c build/stm32f10x_flash.o
 .text.FLASH_ErasePage
                0x00000000       0x64 build/stm32f10x_flash.o
 .text.FLASH_EraseAllPages
                0x00000000       0x5c build/stm32f10x_flash.o
 .text.FLASH_EraseAllBank1Pages
                0x00000000       0x5c build/stm32f10x_flash.o
 .text.FLASH_EraseOptionBytes
                0x00000000       0xd4 build/stm32f10x_flash.o
 .text.FLASH_ProgramWord
                0x00000000       0x94 build/stm32f10x_flash.o
 .text.FLASH_ProgramHalfWord
                0x00000000       0x5c build/stm32f10x_flash.o
 .text.FLASH_ProgramOptionByteData
                0x00000000       0x78 build/stm32f10x_flash.o
 .text.FLASH_EnableWriteProtection
                0x00000000      0x118 build/stm32f10x_flash.o
 .text.FLASH_ReadOutProtection
                0x00000000       0xd4 build/stm32f10x_flash.o
 .text.FLASH_UserOptionByteConfig
                0x00000000       0x94 build/stm32f10x_flash.o
 .text.FLASH_GetUserOptionByte
                0x00000000       0x18 build/stm32f10x_flash.o
 .text.FLASH_GetWriteProtectionOptionByte
                0x00000000       0x14 build/stm32f10x_flash.o
 .text.FLASH_GetReadOutProtectionStatus
                0x00000000       0x30 build/stm32f10x_flash.o
 .text.FLASH_GetPrefetchBufferStatus
                0x00000000       0x30 build/stm32f10x_flash.o
 .text.FLASH_ITConfig
                0x00000000       0x3c build/stm32f10x_flash.o
 .text.FLASH_GetFlagStatus
                0x00000000       0x50 build/stm32f10x_flash.o
 .text.FLASH_ClearFlag
                0x00000000       0x1c build/stm32f10x_flash.o
 .text.FLASH_GetStatus
                0x00000000       0x54 build/stm32f10x_flash.o
 .text.FLASH_GetBank1Status
                0x00000000       0x54 build/stm32f10x_flash.o
 .text.FLASH_WaitForLastOperation
                0x00000000       0x44 build/stm32f10x_flash.o
 .text.FLASH_WaitForLastBank1Operation
                0x00000000       0x44 build/stm32f10x_flash.o
 .debug_info    0x00000000      0x8ae build/stm32f10x_flash.o
 .debug_abbrev  0x00000000      0x1a6 build/stm32f10x_flash.o
 .debug_loc     0x00000000      0x8f0 build/stm32f10x_flash.o
 .debug_aranges
                0x00000000       0xf8 build/stm32f10x_flash.o
 .debug_ranges  0x00000000       0xe8 build/stm32f10x_flash.o
 .debug_line    0x00000000      0x6db build/stm32f10x_flash.o
 .debug_str     0x00000000      0x5ec build/stm32f10x_flash.o
 .comment       0x00000000       0x4a build/stm32f10x_flash.o
 .debug_frame   0x00000000      0x410 build/stm32f10x_flash.o
 .ARM.attributes
                0x00000000       0x2d build/stm32f10x_flash.o
 .text          0x00000000        0x0 build/stm32f10x_fsmc.o
 .data          0x00000000        0x0 build/stm32f10x_fsmc.o
 .bss           0x00000000        0x0 build/stm32f10x_fsmc.o
 .text.FSMC_NORSRAMDeInit
                0x00000000       0x58 build/stm32f10x_fsmc.o
 .text.FSMC_NANDDeInit
                0x00000000       0x5c build/stm32f10x_fsmc.o
 .text.FSMC_PCCARDDeInit
                0x00000000       0x34 build/stm32f10x_fsmc.o
 .text.FSMC_NORSRAMInit
                0x00000000      0x13c build/stm32f10x_fsmc.o
 .text.FSMC_NANDInit
                0x00000000       0xcc build/stm32f10x_fsmc.o
 .text.FSMC_PCCARDInit
                0x00000000       0xac build/stm32f10x_fsmc.o
 .text.FSMC_NORSRAMStructInit
                0x00000000       0xd4 build/stm32f10x_fsmc.o
 .text.FSMC_NANDStructInit
                0x00000000       0x7c build/stm32f10x_fsmc.o
 .text.FSMC_PCCARDStructInit
                0x00000000       0x84 build/stm32f10x_fsmc.o
 .text.FSMC_NORSRAMCmd
                0x00000000       0x54 build/stm32f10x_fsmc.o
 .text.FSMC_NANDCmd
                0x00000000       0x6c build/stm32f10x_fsmc.o
 .text.FSMC_PCCARDCmd
                0x00000000       0x3c build/stm32f10x_fsmc.o
 .text.FSMC_NANDECCCmd
                0x00000000       0x6c build/stm32f10x_fsmc.o
 .text.FSMC_GetECC
                0x00000000       0x34 build/stm32f10x_fsmc.o
 .text.FSMC_ITConfig
                0x00000000       0xa0 build/stm32f10x_fsmc.o
 .text.FSMC_GetFlagStatus
                0x00000000       0x64 build/stm32f10x_fsmc.o
 .text.FSMC_ClearFlag
                0x00000000       0x5c build/stm32f10x_fsmc.o
 .text.FSMC_GetITStatus
                0x00000000       0x80 build/stm32f10x_fsmc.o
 .text.FSMC_ClearITPendingBit
                0x00000000       0x64 build/stm32f10x_fsmc.o
 .debug_info    0x00000000      0xa3c build/stm32f10x_fsmc.o
 .debug_abbrev  0x00000000      0x19f build/stm32f10x_fsmc.o
 .debug_loc     0x00000000      0x6bc build/stm32f10x_fsmc.o
 .debug_aranges
                0x00000000       0xb0 build/stm32f10x_fsmc.o
 .debug_ranges  0x00000000       0xa0 build/stm32f10x_fsmc.o
 .debug_line    0x00000000      0x874 build/stm32f10x_fsmc.o
 .debug_str     0x00000000      0x77e build/stm32f10x_fsmc.o
 .comment       0x00000000       0x4a build/stm32f10x_fsmc.o
 .debug_frame   0x00000000      0x300 build/stm32f10x_fsmc.o
 .ARM.attributes
                0x00000000       0x2d build/stm32f10x_fsmc.o
 .text          0x00000000        0x0 build/stm32f10x_gpio.o
 .data          0x00000000        0x0 build/stm32f10x_gpio.o
 .bss           0x00000000        0x0 build/stm32f10x_gpio.o
 .text.GPIO_DeInit
                0x00000000       0xe4 build/stm32f10x_gpio.o
 .text.GPIO_AFIODeInit
                0x00000000       0x18 build/stm32f10x_gpio.o
 .text.GPIO_StructInit
                0x00000000       0x26 build/stm32f10x_gpio.o
 .text.GPIO_ReadInputDataBit
                0x00000000       0x32 build/stm32f10x_gpio.o
 .text.GPIO_ReadInputData
                0x00000000       0x18 build/stm32f10x_gpio.o
 .text.GPIO_ReadOutputDataBit
                0x00000000       0x32 build/stm32f10x_gpio.o
 .text.GPIO_ReadOutputData
                0x00000000       0x18 build/stm32f10x_gpio.o
 .text.GPIO_WriteBit
                0x00000000       0x2e build/stm32f10x_gpio.o
 .text.GPIO_Write
                0x00000000       0x1c build/stm32f10x_gpio.o
 .text.GPIO_PinLockConfig
                0x00000000       0x42 build/stm32f10x_gpio.o
 .text.GPIO_EventOutputConfig
                0x00000000       0x4c build/stm32f10x_gpio.o
 .text.GPIO_EventOutputCmd
                0x00000000       0x20 build/stm32f10x_gpio.o
 .text.GPIO_PinRemapConfig
                0x00000000       0xe0 build/stm32f10x_gpio.o
 .text.GPIO_EXTILineConfig
                0x00000000       0x80 build/stm32f10x_gpio.o
 .text.GPIO_ETH_MediaInterfaceConfig
                0x00000000       0x1c build/stm32f10x_gpio.o
 .text          0x00000000        0x0 build/stm32f10x_i2c.o
 .data          0x00000000        0x0 build/stm32f10x_i2c.o
 .bss           0x00000000        0x0 build/stm32f10x_i2c.o
 .text.I2C_DeInit
                0x00000000       0x48 build/stm32f10x_i2c.o
 .text.I2C_Init
                0x00000000      0x184 build/stm32f10x_i2c.o
 .text.I2C_StructInit
                0x00000000       0x3c build/stm32f10x_i2c.o
 .text.I2C_Cmd  0x00000000       0x3e build/stm32f10x_i2c.o
 .text.I2C_DMACmd
                0x00000000       0x3e build/stm32f10x_i2c.o
 .text.I2C_DMALastTransferCmd
                0x00000000       0x3e build/stm32f10x_i2c.o
 .text.I2C_GenerateSTART
                0x00000000       0x3e build/stm32f10x_i2c.o
 .text.I2C_GenerateSTOP
                0x00000000       0x3e build/stm32f10x_i2c.o
 .text.I2C_AcknowledgeConfig
                0x00000000       0x3e build/stm32f10x_i2c.o
 .text.I2C_OwnAddress2Config
                0x00000000       0x42 build/stm32f10x_i2c.o
 .text.I2C_DualAddressCmd
                0x00000000       0x3e build/stm32f10x_i2c.o
 .text.I2C_GeneralCallCmd
                0x00000000       0x3e build/stm32f10x_i2c.o
 .text.I2C_ITConfig
                0x00000000       0x46 build/stm32f10x_i2c.o
 .text.I2C_SendData
                0x00000000       0x1e build/stm32f10x_i2c.o
 .text.I2C_ReceiveData
                0x00000000       0x1a build/stm32f10x_i2c.o
 .text.I2C_Send7bitAddress
                0x00000000       0x3a build/stm32f10x_i2c.o
 .text.I2C_ReadRegister
                0x00000000       0x2c build/stm32f10x_i2c.o
 .text.I2C_SoftwareResetCmd
                0x00000000       0x42 build/stm32f10x_i2c.o
 .text.I2C_NACKPositionConfig
                0x00000000       0x40 build/stm32f10x_i2c.o
 .text.I2C_SMBusAlertConfig
                0x00000000       0x40 build/stm32f10x_i2c.o
 .text.I2C_TransmitPEC
                0x00000000       0x3e build/stm32f10x_i2c.o
 .text.I2C_PECPositionConfig
                0x00000000       0x40 build/stm32f10x_i2c.o
 .text.I2C_CalculatePEC
                0x00000000       0x3e build/stm32f10x_i2c.o
 .text.I2C_GetPEC
                0x00000000       0x1e build/stm32f10x_i2c.o
 .text.I2C_ARPCmd
                0x00000000       0x3e build/stm32f10x_i2c.o
 .text.I2C_StretchClockCmd
                0x00000000       0x3e build/stm32f10x_i2c.o
 .text.I2C_FastModeDutyCycleConfig
                0x00000000       0x40 build/stm32f10x_i2c.o
 .text.I2C_CheckEvent
                0x00000000       0x5e build/stm32f10x_i2c.o
 .text.I2C_GetLastEvent
                0x00000000       0x42 build/stm32f10x_i2c.o
 .text.I2C_GetFlagStatus
                0x00000000       0x64 build/stm32f10x_i2c.o
 .text.I2C_ClearFlag
                0x00000000       0x2c build/stm32f10x_i2c.o
 .text.I2C_GetITStatus
                0x00000000       0x58 build/stm32f10x_i2c.o
 .text.I2C_ClearITPendingBit
                0x00000000       0x2c build/stm32f10x_i2c.o
 .debug_info    0x00000000      0xc69 build/stm32f10x_i2c.o
 .debug_abbrev  0x00000000      0x195 build/stm32f10x_i2c.o
 .debug_loc     0x00000000      0xbc4 build/stm32f10x_i2c.o
 .debug_aranges
                0x00000000      0x120 build/stm32f10x_i2c.o
 .debug_ranges  0x00000000      0x110 build/stm32f10x_i2c.o
 .debug_line    0x00000000      0x699 build/stm32f10x_i2c.o
 .debug_str     0x00000000      0x66a build/stm32f10x_i2c.o
 .comment       0x00000000       0x4a build/stm32f10x_i2c.o
 .debug_frame   0x00000000      0x530 build/stm32f10x_i2c.o
 .ARM.attributes
                0x00000000       0x2d build/stm32f10x_i2c.o
 .text          0x00000000        0x0 build/stm32f10x_iwdg.o
 .data          0x00000000        0x0 build/stm32f10x_iwdg.o
 .bss           0x00000000        0x0 build/stm32f10x_iwdg.o
 .text.IWDG_WriteAccessCmd
                0x00000000       0x20 build/stm32f10x_iwdg.o
 .text.IWDG_SetPrescaler
                0x00000000       0x20 build/stm32f10x_iwdg.o
 .text.IWDG_SetReload
                0x00000000       0x20 build/stm32f10x_iwdg.o
 .text.IWDG_ReloadCounter
                0x00000000       0x18 build/stm32f10x_iwdg.o
 .text.IWDG_Enable
                0x00000000       0x18 build/stm32f10x_iwdg.o
 .text.IWDG_GetFlagStatus
                0x00000000       0x34 build/stm32f10x_iwdg.o
 .debug_info    0x00000000      0x224 build/stm32f10x_iwdg.o
 .debug_abbrev  0x00000000      0x126 build/stm32f10x_iwdg.o
 .debug_loc     0x00000000      0x1f8 build/stm32f10x_iwdg.o
 .debug_aranges
                0x00000000       0x48 build/stm32f10x_iwdg.o
 .debug_ranges  0x00000000       0x38 build/stm32f10x_iwdg.o
 .debug_line    0x00000000      0x1af build/stm32f10x_iwdg.o
 .debug_str     0x00000000      0x260 build/stm32f10x_iwdg.o
 .comment       0x00000000       0x4a build/stm32f10x_iwdg.o
 .debug_frame   0x00000000       0xf0 build/stm32f10x_iwdg.o
 .ARM.attributes
                0x00000000       0x2d build/stm32f10x_iwdg.o
 .text          0x00000000        0x0 build/stm32f10x_pwr.o
 .data          0x00000000        0x0 build/stm32f10x_pwr.o
 .bss           0x00000000        0x0 build/stm32f10x_pwr.o
 .text.__WFI    0x00000000        0xe build/stm32f10x_pwr.o
 .text.__WFE    0x00000000        0xe build/stm32f10x_pwr.o
 .text.PWR_DeInit
                0x00000000       0x1c build/stm32f10x_pwr.o
 .text.PWR_BackupAccessCmd
                0x00000000       0x20 build/stm32f10x_pwr.o
 .text.PWR_PVDCmd
                0x00000000       0x20 build/stm32f10x_pwr.o
 .text.PWR_PVDLevelConfig
                0x00000000       0x38 build/stm32f10x_pwr.o
 .text.PWR_WakeUpPinCmd
                0x00000000       0x20 build/stm32f10x_pwr.o
 .text.PWR_EnterSTOPMode
                0x00000000       0x64 build/stm32f10x_pwr.o
 .text.PWR_EnterSTANDBYMode
                0x00000000       0x38 build/stm32f10x_pwr.o
 .text.PWR_GetFlagStatus
                0x00000000       0x34 build/stm32f10x_pwr.o
 .text.PWR_ClearFlag
                0x00000000       0x24 build/stm32f10x_pwr.o
 .debug_info    0x00000000      0x4b2 build/stm32f10x_pwr.o
 .debug_abbrev  0x00000000      0x1c6 build/stm32f10x_pwr.o
 .debug_loc     0x00000000      0x358 build/stm32f10x_pwr.o
 .debug_aranges
                0x00000000       0x70 build/stm32f10x_pwr.o
 .debug_ranges  0x00000000       0x60 build/stm32f10x_pwr.o
 .debug_line    0x00000000      0x27e build/stm32f10x_pwr.o
 .debug_str     0x00000000      0x316 build/stm32f10x_pwr.o
 .comment       0x00000000       0x4a build/stm32f10x_pwr.o
 .debug_frame   0x00000000      0x19c build/stm32f10x_pwr.o
 .ARM.attributes
                0x00000000       0x2d build/stm32f10x_pwr.o
 .text          0x00000000        0x0 build/stm32f10x_rcc.o
 .data          0x00000000        0x0 build/stm32f10x_rcc.o
 .bss           0x00000000        0x0 build/stm32f10x_rcc.o
 .text.RCC_DeInit
                0x00000000       0x5c build/stm32f10x_rcc.o
 .text.RCC_HSEConfig
                0x00000000       0x5c build/stm32f10x_rcc.o
 .text.RCC_WaitForHSEStartUp
                0x00000000       0x50 build/stm32f10x_rcc.o
 .text.RCC_AdjustHSICalibrationValue
                0x00000000       0x3c build/stm32f10x_rcc.o
 .text.RCC_HSICmd
                0x00000000       0x20 build/stm32f10x_rcc.o
 .text.RCC_PLLConfig
                0x00000000       0x3c build/stm32f10x_rcc.o
 .text.RCC_PLLCmd
                0x00000000       0x20 build/stm32f10x_rcc.o
 .text.RCC_SYSCLKConfig
                0x00000000       0x38 build/stm32f10x_rcc.o
 .text.RCC_GetSYSCLKSource
                0x00000000       0x1c build/stm32f10x_rcc.o
 .text.RCC_HCLKConfig
                0x00000000       0x38 build/stm32f10x_rcc.o
 .text.RCC_PCLK1Config
                0x00000000       0x38 build/stm32f10x_rcc.o
 .text.RCC_PCLK2Config
                0x00000000       0x38 build/stm32f10x_rcc.o
 .text.RCC_ITConfig
                0x00000000       0x4c build/stm32f10x_rcc.o
 .text.RCC_USBCLKConfig
                0x00000000       0x1c build/stm32f10x_rcc.o
 .text.RCC_ADCCLKConfig
                0x00000000       0x38 build/stm32f10x_rcc.o
 .text.RCC_LSEConfig
                0x00000000       0x40 build/stm32f10x_rcc.o
 .text.RCC_LSICmd
                0x00000000       0x20 build/stm32f10x_rcc.o
 .text.RCC_RTCCLKConfig
                0x00000000       0x24 build/stm32f10x_rcc.o
 .text.RCC_RTCCLKCmd
                0x00000000       0x20 build/stm32f10x_rcc.o
 .text.RCC_AHBPeriphClockCmd
                0x00000000       0x3c build/stm32f10x_rcc.o
 .text.RCC_APB1PeriphClockCmd
                0x00000000       0x3c build/stm32f10x_rcc.o
 .text.RCC_APB2PeriphResetCmd
                0x00000000       0x3c build/stm32f10x_rcc.o
 .text.RCC_APB1PeriphResetCmd
                0x00000000       0x3c build/stm32f10x_rcc.o
 .text.RCC_BackupResetCmd
                0x00000000       0x20 build/stm32f10x_rcc.o
 .text.RCC_ClockSecuritySystemCmd
                0x00000000       0x20 build/stm32f10x_rcc.o
 .text.RCC_MCOConfig
                0x00000000       0x20 build/stm32f10x_rcc.o
 .text.RCC_GetFlagStatus
                0x00000000       0x74 build/stm32f10x_rcc.o
 .text.RCC_ClearFlag
                0x00000000       0x1c build/stm32f10x_rcc.o
 .text.RCC_GetITStatus
                0x00000000       0x34 build/stm32f10x_rcc.o
 .text.RCC_ClearITPendingBit
                0x00000000       0x20 build/stm32f10x_rcc.o
 .text          0x00000000        0x0 build/stm32f10x_rtc.o
 .data          0x00000000        0x0 build/stm32f10x_rtc.o
 .bss           0x00000000        0x0 build/stm32f10x_rtc.o
 .text.RTC_ITConfig
                0x00000000       0x4c build/stm32f10x_rtc.o
 .text.RTC_EnterConfigMode
                0x00000000       0x20 build/stm32f10x_rtc.o
 .text.RTC_ExitConfigMode
                0x00000000       0x20 build/stm32f10x_rtc.o
 .text.RTC_GetCounter
                0x00000000       0x2c build/stm32f10x_rtc.o
 .text.RTC_SetCounter
                0x00000000       0x30 build/stm32f10x_rtc.o
 .text.RTC_SetPrescaler
                0x00000000       0x34 build/stm32f10x_rtc.o
 .text.RTC_SetAlarm
                0x00000000       0x30 build/stm32f10x_rtc.o
 .text.RTC_GetDivider
                0x00000000       0x38 build/stm32f10x_rtc.o
 .text.RTC_WaitForLastTask
                0x00000000       0x24 build/stm32f10x_rtc.o
 .text.RTC_WaitForSynchro
                0x00000000       0x34 build/stm32f10x_rtc.o
 .text.RTC_GetFlagStatus
                0x00000000       0x38 build/stm32f10x_rtc.o
 .text.RTC_ClearFlag
                0x00000000       0x2c build/stm32f10x_rtc.o
 .text.RTC_GetITStatus
                0x00000000       0x50 build/stm32f10x_rtc.o
 .text.RTC_ClearITPendingBit
                0x00000000       0x2c build/stm32f10x_rtc.o
 .debug_info    0x00000000      0x4be build/stm32f10x_rtc.o
 .debug_abbrev  0x00000000      0x1a4 build/stm32f10x_rtc.o
 .debug_loc     0x00000000      0x484 build/stm32f10x_rtc.o
 .debug_aranges
                0x00000000       0x88 build/stm32f10x_rtc.o
 .debug_ranges  0x00000000       0x78 build/stm32f10x_rtc.o
 .debug_line    0x00000000      0x31f build/stm32f10x_rtc.o
 .debug_str     0x00000000      0x3a6 build/stm32f10x_rtc.o
 .comment       0x00000000       0x4a build/stm32f10x_rtc.o
 .debug_frame   0x00000000      0x214 build/stm32f10x_rtc.o
 .ARM.attributes
                0x00000000       0x2d build/stm32f10x_rtc.o
 .text          0x00000000        0x0 build/stm32f10x_sdio.o
 .data          0x00000000        0x0 build/stm32f10x_sdio.o
 .bss           0x00000000        0x0 build/stm32f10x_sdio.o
 .text.SDIO_DeInit
                0x00000000       0x4c build/stm32f10x_sdio.o
 .text.SDIO_Init
                0x00000000       0x5c build/stm32f10x_sdio.o
 .text.SDIO_StructInit
                0x00000000       0x36 build/stm32f10x_sdio.o
 .text.SDIO_ClockCmd
                0x00000000       0x20 build/stm32f10x_sdio.o
 .text.SDIO_SetPowerState
                0x00000000       0x30 build/stm32f10x_sdio.o
 .text.SDIO_GetPowerState
                0x00000000       0x18 build/stm32f10x_sdio.o
 .text.SDIO_ITConfig
                0x00000000       0x3c build/stm32f10x_sdio.o
 .text.SDIO_DMACmd
                0x00000000       0x20 build/stm32f10x_sdio.o
 .text.SDIO_SendCommand
                0x00000000       0x58 build/stm32f10x_sdio.o
 .text.SDIO_CmdStructInit
                0x00000000       0x30 build/stm32f10x_sdio.o
 .text.SDIO_GetCommandResponse
                0x00000000       0x18 build/stm32f10x_sdio.o
 .text.SDIO_GetResponse
                0x00000000       0x28 build/stm32f10x_sdio.o
 .text.SDIO_DataConfig
                0x00000000       0x5c build/stm32f10x_sdio.o
 .text.SDIO_DataStructInit
                0x00000000       0x38 build/stm32f10x_sdio.o
 .text.SDIO_GetDataCounter
                0x00000000       0x14 build/stm32f10x_sdio.o
 .text.SDIO_ReadData
                0x00000000       0x18 build/stm32f10x_sdio.o
 .text.SDIO_WriteData
                0x00000000       0x20 build/stm32f10x_sdio.o
 .text.SDIO_GetFIFOCount
                0x00000000       0x14 build/stm32f10x_sdio.o
 .text.SDIO_StartSDIOReadWait
                0x00000000       0x20 build/stm32f10x_sdio.o
 .text.SDIO_StopSDIOReadWait
                0x00000000       0x20 build/stm32f10x_sdio.o
 .text.SDIO_SetSDIOReadWaitMode
                0x00000000       0x1c build/stm32f10x_sdio.o
 .text.SDIO_SetSDIOOperation
                0x00000000       0x20 build/stm32f10x_sdio.o
 .text.SDIO_SendSDIOSuspendCmd
                0x00000000       0x20 build/stm32f10x_sdio.o
 .text.SDIO_CommandCompletionCmd
                0x00000000       0x20 build/stm32f10x_sdio.o
 .text.SDIO_CEATAITCmd
                0x00000000       0x2c build/stm32f10x_sdio.o
 .text.SDIO_SendCEATACmd
                0x00000000       0x20 build/stm32f10x_sdio.o
 .text.SDIO_GetFlagStatus
                0x00000000       0x34 build/stm32f10x_sdio.o
 .text.SDIO_ClearFlag
                0x00000000       0x1c build/stm32f10x_sdio.o
 .text.SDIO_GetITStatus
                0x00000000       0x34 build/stm32f10x_sdio.o
 .text.SDIO_ClearITPendingBit
                0x00000000       0x1c build/stm32f10x_sdio.o
 .debug_info    0x00000000      0x923 build/stm32f10x_sdio.o
 .debug_abbrev  0x00000000      0x1ca build/stm32f10x_sdio.o
 .debug_loc     0x00000000      0xa38 build/stm32f10x_sdio.o
 .debug_aranges
                0x00000000      0x108 build/stm32f10x_sdio.o
 .debug_ranges  0x00000000       0xf8 build/stm32f10x_sdio.o
 .debug_line    0x00000000      0x587 build/stm32f10x_sdio.o
 .debug_str     0x00000000      0x634 build/stm32f10x_sdio.o
 .comment       0x00000000       0x4a build/stm32f10x_sdio.o
 .debug_frame   0x00000000      0x490 build/stm32f10x_sdio.o
 .ARM.attributes
                0x00000000       0x2d build/stm32f10x_sdio.o
 .text          0x00000000        0x0 build/stm32f10x_spi.o
 .data          0x00000000        0x0 build/stm32f10x_spi.o
 .bss           0x00000000        0x0 build/stm32f10x_spi.o
 .text.SPI_I2S_DeInit
                0x00000000       0x74 build/stm32f10x_spi.o
 .text.SPI_Init
                0x00000000       0x86 build/stm32f10x_spi.o
 .text.I2S_Init
                0x00000000      0x168 build/stm32f10x_spi.o
 .text.SPI_StructInit
                0x00000000       0x48 build/stm32f10x_spi.o
 .text.I2S_StructInit
                0x00000000       0x36 build/stm32f10x_spi.o
 .text.SPI_Cmd  0x00000000       0x3e build/stm32f10x_spi.o
 .text.I2S_Cmd  0x00000000       0x3e build/stm32f10x_spi.o
 .text.SPI_I2S_ITConfig
                0x00000000       0x60 build/stm32f10x_spi.o
 .text.SPI_I2S_DMACmd
                0x00000000       0x46 build/stm32f10x_spi.o
 .text.SPI_I2S_SendData
                0x00000000       0x1c build/stm32f10x_spi.o
 .text.SPI_I2S_ReceiveData
                0x00000000       0x18 build/stm32f10x_spi.o
 .text.SPI_NSSInternalSoftwareConfig
                0x00000000       0x42 build/stm32f10x_spi.o
 .text.SPI_SSOutputCmd
                0x00000000       0x3e build/stm32f10x_spi.o
 .text.SPI_DataSizeConfig
                0x00000000       0x36 build/stm32f10x_spi.o
 .text.SPI_TransmitCRC
                0x00000000       0x22 build/stm32f10x_spi.o
 .text.SPI_CalculateCRC
                0x00000000       0x3e build/stm32f10x_spi.o
 .text.SPI_GetCRC
                0x00000000       0x30 build/stm32f10x_spi.o
 .text.SPI_GetCRCPolynomial
                0x00000000       0x18 build/stm32f10x_spi.o
 .text.SPI_BiDirectionalLineConfig
                0x00000000       0x40 build/stm32f10x_spi.o
 .text.SPI_I2S_GetFlagStatus
                0x00000000       0x36 build/stm32f10x_spi.o
 .text.SPI_I2S_ClearFlag
                0x00000000       0x20 build/stm32f10x_spi.o
 .text.SPI_I2S_GetITStatus
                0x00000000       0x74 build/stm32f10x_spi.o
 .text.SPI_I2S_ClearITPendingBit
                0x00000000       0x32 build/stm32f10x_spi.o
 .debug_info    0x00000000      0xa1d build/stm32f10x_spi.o
 .debug_abbrev  0x00000000      0x1b1 build/stm32f10x_spi.o
 .debug_loc     0x00000000      0x82c build/stm32f10x_spi.o
 .debug_aranges
                0x00000000       0xd0 build/stm32f10x_spi.o
 .debug_ranges  0x00000000       0xc0 build/stm32f10x_spi.o
 .debug_line    0x00000000      0x578 build/stm32f10x_spi.o
 .debug_str     0x00000000      0x601 build/stm32f10x_spi.o
 .comment       0x00000000       0x4a build/stm32f10x_spi.o
 .debug_frame   0x00000000      0x3a0 build/stm32f10x_spi.o
 .ARM.attributes
                0x00000000       0x2d build/stm32f10x_spi.o
 .text          0x00000000        0x0 build/stm32f10x_tim.o
 .data          0x00000000        0x0 build/stm32f10x_tim.o
 .bss           0x00000000        0x0 build/stm32f10x_tim.o
 .text.TIM_DeInit
                0x00000000      0x22c build/stm32f10x_tim.o
 .text.TIM_TimeBaseInit
                0x00000000       0xf8 build/stm32f10x_tim.o
 .text.TIM_OC1Init
                0x00000000      0x118 build/stm32f10x_tim.o
 .text.TIM_OC2Init
                0x00000000      0x110 build/stm32f10x_tim.o
 .text.TIM_OC3Init
                0x00000000      0x10c build/stm32f10x_tim.o
 .text.TIM_OC4Init
                0x00000000       0xd0 build/stm32f10x_tim.o
 .text.TIM_ICInit
                0x00000000       0xa8 build/stm32f10x_tim.o
 .text.TIM_PWMIConfig
                0x00000000       0xb8 build/stm32f10x_tim.o
 .text.TIM_BDTRConfig
                0x00000000       0x4e build/stm32f10x_tim.o
 .text.TIM_TimeBaseStructInit
                0x00000000       0x32 build/stm32f10x_tim.o
 .text.TIM_OCStructInit
                0x00000000       0x42 build/stm32f10x_tim.o
 .text.TIM_ICStructInit
                0x00000000       0x30 build/stm32f10x_tim.o
 .text.TIM_BDTRStructInit
                0x00000000       0x3c build/stm32f10x_tim.o
 .text.TIM_Cmd  0x00000000       0x3e build/stm32f10x_tim.o
 .text.TIM_CtrlPWMOutputs
                0x00000000       0x4a build/stm32f10x_tim.o
 .text.TIM_ITConfig
                0x00000000       0x46 build/stm32f10x_tim.o
 .text.TIM_GenerateEvent
                0x00000000       0x1c build/stm32f10x_tim.o
 .text.TIM_DMAConfig
                0x00000000       0x28 build/stm32f10x_tim.o
 .text.TIM_DMACmd
                0x00000000       0x46 build/stm32f10x_tim.o
 .text.TIM_InternalClockConfig
                0x00000000       0x22 build/stm32f10x_tim.o
 .text.TIM_ITRxExternalClockConfig
                0x00000000       0x2e build/stm32f10x_tim.o
 .text.TIM_TIxExternalClockConfig
                0x00000000       0x5c build/stm32f10x_tim.o
 .text.TIM_ETRClockMode1Config
                0x00000000       0x5e build/stm32f10x_tim.o
 .text.TIM_ETRClockMode2Config
                0x00000000       0x3e build/stm32f10x_tim.o
 .text.TIM_ETRConfig
                0x00000000       0x52 build/stm32f10x_tim.o
 .text.TIM_PrescalerConfig
                0x00000000       0x26 build/stm32f10x_tim.o
 .text.TIM_CounterModeConfig
                0x00000000       0x36 build/stm32f10x_tim.o
 .text.TIM_SelectInputTrigger
                0x00000000       0x36 build/stm32f10x_tim.o
 .text.TIM_EncoderInterfaceConfig
                0x00000000       0x96 build/stm32f10x_tim.o
 .text.TIM_ForcedOC1Config
                0x00000000       0x36 build/stm32f10x_tim.o
 .text.TIM_ForcedOC2Config
                0x00000000       0x3a build/stm32f10x_tim.o
 .text.TIM_ForcedOC3Config
                0x00000000       0x36 build/stm32f10x_tim.o
 .text.TIM_ForcedOC4Config
                0x00000000       0x3a build/stm32f10x_tim.o
 .text.TIM_ARRPreloadConfig
                0x00000000       0x3e build/stm32f10x_tim.o
 .text.TIM_SelectCOM
                0x00000000       0x3e build/stm32f10x_tim.o
 .text.TIM_SelectCCDMA
                0x00000000       0x3e build/stm32f10x_tim.o
 .text.TIM_CCPreloadControl
                0x00000000       0x3e build/stm32f10x_tim.o
 .text.TIM_OC1PreloadConfig
                0x00000000       0x36 build/stm32f10x_tim.o
 .text.TIM_OC2PreloadConfig
                0x00000000       0x3a build/stm32f10x_tim.o
 .text.TIM_OC3PreloadConfig
                0x00000000       0x36 build/stm32f10x_tim.o
 .text.TIM_OC4PreloadConfig
                0x00000000       0x3a build/stm32f10x_tim.o
 .text.TIM_OC1FastConfig
                0x00000000       0x36 build/stm32f10x_tim.o
 .text.TIM_OC2FastConfig
                0x00000000       0x3a build/stm32f10x_tim.o
 .text.TIM_OC3FastConfig
                0x00000000       0x36 build/stm32f10x_tim.o
 .text.TIM_OC4FastConfig
                0x00000000       0x3a build/stm32f10x_tim.o
 .text.TIM_ClearOC1Ref
                0x00000000       0x36 build/stm32f10x_tim.o
 .text.TIM_ClearOC2Ref
                0x00000000       0x3a build/stm32f10x_tim.o
 .text.TIM_ClearOC3Ref
                0x00000000       0x36 build/stm32f10x_tim.o
 .text.TIM_ClearOC4Ref
                0x00000000       0x3a build/stm32f10x_tim.o
 .text.TIM_OC1PolarityConfig
                0x00000000       0x36 build/stm32f10x_tim.o
 .text.TIM_OC1NPolarityConfig
                0x00000000       0x36 build/stm32f10x_tim.o
 .text.TIM_OC2PolarityConfig
                0x00000000       0x3a build/stm32f10x_tim.o
 .text.TIM_OC2NPolarityConfig
                0x00000000       0x3a build/stm32f10x_tim.o
 .text.TIM_OC3PolarityConfig
                0x00000000       0x3a build/stm32f10x_tim.o
 .text.TIM_OC3NPolarityConfig
                0x00000000       0x3a build/stm32f10x_tim.o
 .text.TIM_OC4PolarityConfig
                0x00000000       0x3a build/stm32f10x_tim.o
 .text.TIM_CCxCmd
                0x00000000       0x54 build/stm32f10x_tim.o
 .text.TIM_CCxNCmd
                0x00000000       0x54 build/stm32f10x_tim.o
 .text.TIM_SelectOCxM
                0x00000000       0xb0 build/stm32f10x_tim.o
 .text.TIM_UpdateDisableConfig
                0x00000000       0x3e build/stm32f10x_tim.o
 .text.TIM_UpdateRequestConfig
                0x00000000       0x3e build/stm32f10x_tim.o
 .text.TIM_SelectHallSensor
                0x00000000       0x3e build/stm32f10x_tim.o
 .text.TIM_SelectOnePulseMode
                0x00000000       0x36 build/stm32f10x_tim.o
 .text.TIM_SelectOutputTrigger
                0x00000000       0x36 build/stm32f10x_tim.o
 .text.TIM_SelectSlaveMode
                0x00000000       0x36 build/stm32f10x_tim.o
 .text.TIM_SelectMasterSlaveMode
                0x00000000       0x36 build/stm32f10x_tim.o
 .text.TIM_SetCounter
                0x00000000       0x1c build/stm32f10x_tim.o
 .text.TIM_SetAutoreload
                0x00000000       0x1c build/stm32f10x_tim.o
 .text.TIM_SetCompare1
                0x00000000       0x1c build/stm32f10x_tim.o
 .text.TIM_SetCompare2
                0x00000000       0x1c build/stm32f10x_tim.o
 .text.TIM_SetCompare3
                0x00000000       0x1c build/stm32f10x_tim.o
 .text.TIM_SetCompare4
                0x00000000       0x1e build/stm32f10x_tim.o
 .text.TIM_SetIC1Prescaler
                0x00000000       0x36 build/stm32f10x_tim.o
 .text.TIM_SetIC2Prescaler
                0x00000000       0x3a build/stm32f10x_tim.o
 .text.TIM_SetIC3Prescaler
                0x00000000       0x36 build/stm32f10x_tim.o
 .text.TIM_SetIC4Prescaler
                0x00000000       0x3a build/stm32f10x_tim.o
 .text.TIM_SetClockDivision
                0x00000000       0x36 build/stm32f10x_tim.o
 .text.TIM_GetCapture1
                0x00000000       0x18 build/stm32f10x_tim.o
 .text.TIM_GetCapture2
                0x00000000       0x18 build/stm32f10x_tim.o
 .text.TIM_GetCapture3
                0x00000000       0x18 build/stm32f10x_tim.o
 .text.TIM_GetCapture4
                0x00000000       0x1a build/stm32f10x_tim.o
 .text.TIM_GetCounter
                0x00000000       0x18 build/stm32f10x_tim.o
 .text.TIM_GetPrescaler
                0x00000000       0x18 build/stm32f10x_tim.o
 .text.TIM_GetFlagStatus
                0x00000000       0x36 build/stm32f10x_tim.o
 .text.TIM_ClearFlag
                0x00000000       0x20 build/stm32f10x_tim.o
 .text.TIM_GetITStatus
                0x00000000       0x52 build/stm32f10x_tim.o
 .text.TIM_ClearITPendingBit
                0x00000000       0x20 build/stm32f10x_tim.o
 .text.TI1_Config
                0x00000000       0xe0 build/stm32f10x_tim.o
 .text.TI2_Config
                0x00000000       0xf4 build/stm32f10x_tim.o
 .text.TI3_Config
                0x00000000       0xec build/stm32f10x_tim.o
 .text.TI4_Config
                0x00000000       0xf8 build/stm32f10x_tim.o
 .debug_info    0x00000000     0x2031 build/stm32f10x_tim.o
 .debug_abbrev  0x00000000      0x1cb build/stm32f10x_tim.o
 .debug_loc     0x00000000     0x2060 build/stm32f10x_tim.o
 .debug_aranges
                0x00000000      0x2f0 build/stm32f10x_tim.o
 .debug_ranges  0x00000000      0x2e0 build/stm32f10x_tim.o
 .debug_line    0x00000000     0x1133 build/stm32f10x_tim.o
 .debug_str     0x00000000      0xde1 build/stm32f10x_tim.o
 .comment       0x00000000       0x4a build/stm32f10x_tim.o
 .debug_frame   0x00000000      0xe2c build/stm32f10x_tim.o
 .ARM.attributes
                0x00000000       0x2d build/stm32f10x_tim.o
 .text          0x00000000        0x0 build/stm32f10x_usart.o
 .data          0x00000000        0x0 build/stm32f10x_usart.o
 .bss           0x00000000        0x0 build/stm32f10x_usart.o
 .text.USART_DeInit
                0x00000000       0xb8 build/stm32f10x_usart.o
 .text.USART_StructInit
                0x00000000       0x38 build/stm32f10x_usart.o
 .text.USART_ClockInit
                0x00000000       0x56 build/stm32f10x_usart.o
 .text.USART_ClockStructInit
                0x00000000       0x2a build/stm32f10x_usart.o
 .text.USART_ITConfig
                0x00000000       0x8e build/stm32f10x_usart.o
 .text.USART_DMACmd
                0x00000000       0x46 build/stm32f10x_usart.o
 .text.USART_SetAddress
                0x00000000       0x38 build/stm32f10x_usart.o
 .text.USART_WakeUpConfig
                0x00000000       0x36 build/stm32f10x_usart.o
 .text.USART_ReceiverWakeUpCmd
                0x00000000       0x3e build/stm32f10x_usart.o
 .text.USART_LINBreakDetectLengthConfig
                0x00000000       0x36 build/stm32f10x_usart.o
 .text.USART_LINCmd
                0x00000000       0x3e build/stm32f10x_usart.o
 .text.USART_SendBreak
                0x00000000       0x22 build/stm32f10x_usart.o
 .text.USART_SetGuardTime
                0x00000000       0x3a build/stm32f10x_usart.o
 .text.USART_SetPrescaler
                0x00000000       0x38 build/stm32f10x_usart.o
 .text.USART_SmartCardCmd
                0x00000000       0x3e build/stm32f10x_usart.o
 .text.USART_SmartCardNACKCmd
                0x00000000       0x3e build/stm32f10x_usart.o
 .text.USART_HalfDuplexCmd
                0x00000000       0x3e build/stm32f10x_usart.o
 .text.USART_OverSampling8Cmd
                0x00000000       0x42 build/stm32f10x_usart.o
 .text.USART_OneBitMethodCmd
                0x00000000       0x3e build/stm32f10x_usart.o
 .text.USART_IrDAConfig
                0x00000000       0x36 build/stm32f10x_usart.o
 .text.USART_IrDACmd
                0x00000000       0x3e build/stm32f10x_usart.o
 .text.USART_GetITStatus
                0x00000000       0xb4 build/stm32f10x_usart.o
 .text.USART_ClearITPendingBit
                0x00000000       0x38 build/stm32f10x_usart.o
 .text          0x00000000        0x0 build/stm32f10x_wwdg.o
 .data          0x00000000        0x0 build/stm32f10x_wwdg.o
 .bss           0x00000000        0x0 build/stm32f10x_wwdg.o
 .text.WWDG_DeInit
                0x00000000       0x1c build/stm32f10x_wwdg.o
 .text.WWDG_SetPrescaler
                0x00000000       0x34 build/stm32f10x_wwdg.o
 .text.WWDG_SetWindowValue
                0x00000000       0x38 build/stm32f10x_wwdg.o
 .text.WWDG_EnableIT
                0x00000000       0x18 build/stm32f10x_wwdg.o
 .text.WWDG_SetCounter
                0x00000000       0x24 build/stm32f10x_wwdg.o
 .text.WWDG_Enable
                0x00000000       0x24 build/stm32f10x_wwdg.o
 .text.WWDG_GetFlagStatus
                0x00000000       0x18 build/stm32f10x_wwdg.o
 .text.WWDG_ClearFlag
                0x00000000       0x18 build/stm32f10x_wwdg.o
 .debug_info    0x00000000      0x25a build/stm32f10x_wwdg.o
 .debug_abbrev  0x00000000      0x124 build/stm32f10x_wwdg.o
 .debug_loc     0x00000000      0x268 build/stm32f10x_wwdg.o
 .debug_aranges
                0x00000000       0x58 build/stm32f10x_wwdg.o
 .debug_ranges  0x00000000       0x48 build/stm32f10x_wwdg.o
 .debug_line    0x00000000      0x1fb build/stm32f10x_wwdg.o
 .debug_str     0x00000000      0x261 build/stm32f10x_wwdg.o
 .comment       0x00000000       0x4a build/stm32f10x_wwdg.o
 .debug_frame   0x00000000      0x12c build/stm32f10x_wwdg.o
 .ARM.attributes
                0x00000000       0x2d build/stm32f10x_wwdg.o
 .text          0x00000000        0x0 build/cmd.o
 .data          0x00000000        0x0 build/cmd.o
 .bss           0x00000000        0x0 build/cmd.o
 .text          0x00000000        0x0 build/finsh_port.o
 .data          0x00000000        0x0 build/finsh_port.o
 .bss           0x00000000        0x0 build/finsh_port.o
 .text          0x00000000        0x0 build/msh.o
 .data          0x00000000        0x0 build/msh.o
 .bss           0x00000000        0x0 build/msh.o
 .text          0x00000000        0x0 build/shell.o
 .data          0x00000000        0x0 build/shell.o
 .bss           0x00000000        0x0 build/shell.o
 .text.finsh_set_prompt
                0x00000000       0x60 build/shell.o
 .text.finsh_get_prompt_mode
                0x00000000       0x20 build/shell.o
 .text.finsh_set_echo
                0x00000000       0x30 build/shell.o
 .text.finsh_get_echo
                0x00000000       0x20 build/shell.o
 .text          0x00000000        0x0 build/cpuport.o
 .data          0x00000000        0x0 build/cpuport.o
 .bss           0x00000000        0x0 build/cpuport.o
 .text.rt_hw_exception_install
                0x00000000       0x1c build/cpuport.o
 .text.rt_hw_cpu_shutdown
                0x00000000       0x14 build/cpuport.o
 .text.rt_hw_cpu_reset
                0x00000000       0x1c build/cpuport.o
 .text          0x00000000        0x0 build/clock.o
 .data          0x00000000        0x0 build/clock.o
 .bss           0x00000000        0x0 build/clock.o
 .text.rt_system_tick_init
                0x00000000        0xc build/clock.o
 .text.rt_tick_set
                0x00000000       0x28 build/clock.o
 .text          0x00000000        0x0 build/components.o
 .data          0x00000000        0x0 build/components.o
 .bss           0x00000000        0x0 build/components.o
 .text          0x00000000        0x0 build/cpu.o
 .data          0x00000000        0x0 build/cpu.o
 .bss           0x00000000        0x0 build/cpu.o
 .debug_info    0x00000000       0x6b build/cpu.o
 .debug_abbrev  0x00000000       0x26 build/cpu.o
 .debug_aranges
                0x00000000       0x18 build/cpu.o
 .debug_line    0x00000000       0x1d build/cpu.o
 .debug_str     0x00000000      0x145 build/cpu.o
 .comment       0x00000000       0x4a build/cpu.o
 .ARM.attributes
                0x00000000       0x2d build/cpu.o
 .text          0x00000000        0x0 build/idle.o
 .data          0x00000000        0x0 build/idle.o
 .bss           0x00000000        0x0 build/idle.o
 .text.rt_thread_idle_gethandler
                0x00000000       0x14 build/idle.o
 .text          0x00000000        0x0 build/ipc.o
 .data          0x00000000        0x0 build/ipc.o
 .bss           0x00000000        0x0 build/ipc.o
 .text.rt_ipc_list_resume_all
                0x00000000       0x46 build/ipc.o
 .text.rt_sem_detach
                0x00000000       0x24 build/ipc.o
 .text.rt_sem_create
                0x00000000       0x42 build/ipc.o
 .text.rt_sem_delete
                0x00000000       0x24 build/ipc.o
 .text.rt_sem_trytake
                0x00000000       0x1a build/ipc.o
 .text.rt_sem_control
                0x00000000       0x4c build/ipc.o
 .text.rt_mb_init
                0x00000000       0x5c build/ipc.o
 .text.rt_mb_detach
                0x00000000       0x2e build/ipc.o
 .text.rt_mb_create
                0x00000000       0x84 build/ipc.o
 .text.rt_mb_delete
                0x00000000       0x38 build/ipc.o
 .text.rt_mb_send_wait
                0x00000000      0x174 build/ipc.o
 .text.rt_mb_send
                0x00000000       0x1e build/ipc.o
 .text.rt_mb_recv
                0x00000000      0x162 build/ipc.o
 .text.rt_mb_control
                0x00000000       0x5c build/ipc.o
 .text          0x00000000        0x0 build/irq.o
 .data          0x00000000        0x0 build/irq.o
 .bss           0x00000000        0x0 build/irq.o
 .text.rt_interrupt_get_nest
                0x00000000       0x28 build/irq.o
 .text          0x00000000        0x0 build/kservice.o
 .data          0x00000000        0x0 build/kservice.o
 .bss           0x00000000        0x0 build/kservice.o
 .bss.__rt_errno
                0x00000000        0x4 build/kservice.o
 .text.rt_get_errno
                0x00000000       0x38 build/kservice.o
 .text.rt_set_errno
                0x00000000       0x40 build/kservice.o
 .text._rt_errno
                0x00000000       0x34 build/kservice.o
 .text.rt_memcpy
                0x00000000       0xd0 build/kservice.o
 .text.rt_memcmp
                0x00000000       0x56 build/kservice.o
 .text.rt_strstr
                0x00000000       0x5e build/kservice.o
 .text.rt_strcasecmp
                0x00000000       0x60 build/kservice.o
 .text.rt_strncmp
                0x00000000       0x4a build/kservice.o
 .text.rt_strcmp
                0x00000000       0x42 build/kservice.o
 .text.rt_strnlen
                0x00000000       0x3c build/kservice.o
 .text.rt_strlen
                0x00000000       0x2c build/kservice.o
 .text.rt_strdup
                0x00000000       0x3a build/kservice.o
 .text.rt_snprintf
                0x00000000       0x30 build/kservice.o
 .text.rt_vsprintf
                0x00000000       0x24 build/kservice.o
 .text.rt_sprintf
                0x00000000       0x2c build/kservice.o
 .text.rt_hw_console_output
                0x00000000       0x12 build/kservice.o
 .text.rt_kputs
                0x00000000       0x1e build/kservice.o
 .text.rt_malloc_align
                0x00000000       0x80 build/kservice.o
 .text.rt_free_align
                0x00000000       0x1e build/kservice.o
 .text          0x00000000        0x0 build/mem.o
 .data          0x00000000        0x0 build/mem.o
 .bss           0x00000000        0x0 build/mem.o
 .text.rt_realloc
                0x00000000      0x174 build/mem.o
 .text.rt_memory_info
                0x00000000       0x4c build/mem.o
 .text          0x00000000        0x0 build/memheap.o
 .data          0x00000000        0x0 build/memheap.o
 .bss           0x00000000        0x0 build/memheap.o
 .debug_info    0x00000000       0x6b build/memheap.o
 .debug_abbrev  0x00000000       0x26 build/memheap.o
 .debug_aranges
                0x00000000       0x18 build/memheap.o
 .debug_line    0x00000000       0x1d build/memheap.o
 .debug_str     0x00000000      0x149 build/memheap.o
 .comment       0x00000000       0x4a build/memheap.o
 .ARM.attributes
                0x00000000       0x2d build/memheap.o
 .text          0x00000000        0x0 build/mempool.o
 .data          0x00000000        0x0 build/mempool.o
 .bss           0x00000000        0x0 build/mempool.o
 .debug_info    0x00000000       0x6b build/mempool.o
 .debug_abbrev  0x00000000       0x26 build/mempool.o
 .debug_aranges
                0x00000000       0x18 build/mempool.o
 .debug_line    0x00000000       0x1d build/mempool.o
 .debug_str     0x00000000      0x149 build/mempool.o
 .comment       0x00000000       0x4a build/mempool.o
 .ARM.attributes
                0x00000000       0x2d build/mempool.o
 .text          0x00000000        0x0 build/object.o
 .data          0x00000000        0x0 build/object.o
 .bss           0x00000000        0x0 build/object.o
 .text.rt_system_object_init
                0x00000000        0xc build/object.o
 .text.rt_object_get_length
                0x00000000       0x62 build/object.o
 .text.rt_object_get_pointers
                0x00000000       0x8e build/object.o
 .text.rt_object_get_type
                0x00000000       0x1c build/object.o
 .text.rt_object_find
                0x00000000       0x7c build/object.o
 .text          0x00000000        0x0 build/scheduler.o
 .data          0x00000000        0x0 build/scheduler.o
 .bss           0x00000000        0x0 build/scheduler.o
 .text.rt_critical_level
                0x00000000       0x18 build/scheduler.o
 .text          0x00000000        0x0 build/slab.o
 .data          0x00000000        0x0 build/slab.o
 .bss           0x00000000        0x0 build/slab.o
 .debug_info    0x00000000       0x6b build/slab.o
 .debug_abbrev  0x00000000       0x26 build/slab.o
 .debug_aranges
                0x00000000       0x18 build/slab.o
 .debug_line    0x00000000       0x1d build/slab.o
 .debug_str     0x00000000      0x146 build/slab.o
 .comment       0x00000000       0x4a build/slab.o
 .ARM.attributes
                0x00000000       0x2d build/slab.o
 .text          0x00000000        0x0 build/thread.o
 .data          0x00000000        0x0 build/thread.o
 .bss           0x00000000        0x0 build/thread.o
 .text.rt_thread_detach
                0x00000000       0x80 build/thread.o
 .text.rt_thread_delete
                0x00000000       0x6c build/thread.o
 .text.rt_thread_delay_until
                0x00000000       0x90 build/thread.o
 .text.rt_thread_control
                0x00000000       0xbe build/thread.o
 .text.rt_thread_find
                0x00000000       0x1a build/thread.o
 .text          0x00000000        0x0 build/timer.o
 .data          0x00000000        0x0 build/timer.o
 .bss           0x00000000        0x0 build/timer.o
 .text.rt_timer_list_next_timeout
                0x00000000       0x3e build/timer.o
 .text.rt_timer_create
                0x00000000       0x3e build/timer.o
 .text.rt_timer_delete
                0x00000000       0x38 build/timer.o
 .text.rt_timer_next_timeout_tick
                0x00000000       0x14 build/timer.o
 .text          0x00000000       0x14 build/startup_stm32f10x_hd.o
 .data          0x00000000        0x0 build/startup_stm32f10x_hd.o
 .bss           0x00000000        0x0 build/startup_stm32f10x_hd.o
 .data          0x00000000        0x0 build/context_gcc.o
 .bss           0x00000000        0x0 build/context_gcc.o
 .text          0x00000000        0x0 c:/gcc-arm-none-eabi/bin/../lib/gcc/arm-none-eabi/10.3.1/../../../../arm-none-eabi/lib/thumb/v7-m/nofp\libc_nano.a(lib_a-exit.o)
 .data          0x00000000        0x0 c:/gcc-arm-none-eabi/bin/../lib/gcc/arm-none-eabi/10.3.1/../../../../arm-none-eabi/lib/thumb/v7-m/nofp\libc_nano.a(lib_a-exit.o)
 .bss           0x00000000        0x0 c:/gcc-arm-none-eabi/bin/../lib/gcc/arm-none-eabi/10.3.1/../../../../arm-none-eabi/lib/thumb/v7-m/nofp\libc_nano.a(lib_a-exit.o)
 .text.exit     0x00000000       0x28 c:/gcc-arm-none-eabi/bin/../lib/gcc/arm-none-eabi/10.3.1/../../../../arm-none-eabi/lib/thumb/v7-m/nofp\libc_nano.a(lib_a-exit.o)
 .debug_frame   0x00000000       0x28 c:/gcc-arm-none-eabi/bin/../lib/gcc/arm-none-eabi/10.3.1/../../../../arm-none-eabi/lib/thumb/v7-m/nofp\libc_nano.a(lib_a-exit.o)
 .ARM.attributes
                0x00000000       0x2d c:/gcc-arm-none-eabi/bin/../lib/gcc/arm-none-eabi/10.3.1/../../../../arm-none-eabi/lib/thumb/v7-m/nofp\libc_nano.a(lib_a-exit.o)
 .text          0x00000000        0x0 c:/gcc-arm-none-eabi/bin/../lib/gcc/arm-none-eabi/10.3.1/../../../../arm-none-eabi/lib/thumb/v7-m/nofp\libc_nano.a(lib_a-impure.o)
 .data          0x00000000        0x0 c:/gcc-arm-none-eabi/bin/../lib/gcc/arm-none-eabi/10.3.1/../../../../arm-none-eabi/lib/thumb/v7-m/nofp\libc_nano.a(lib_a-impure.o)
 .bss           0x00000000        0x0 c:/gcc-arm-none-eabi/bin/../lib/gcc/arm-none-eabi/10.3.1/../../../../arm-none-eabi/lib/thumb/v7-m/nofp\libc_nano.a(lib_a-impure.o)
 .text          0x00000000        0x0 c:/gcc-arm-none-eabi/bin/../lib/gcc/arm-none-eabi/10.3.1/../../../../arm-none-eabi/lib/thumb/v7-m/nofp\libc_nano.a(lib_a-init.o)
 .data          0x00000000        0x0 c:/gcc-arm-none-eabi/bin/../lib/gcc/arm-none-eabi/10.3.1/../../../../arm-none-eabi/lib/thumb/v7-m/nofp\libc_nano.a(lib_a-init.o)
 .bss           0x00000000        0x0 c:/gcc-arm-none-eabi/bin/../lib/gcc/arm-none-eabi/10.3.1/../../../../arm-none-eabi/lib/thumb/v7-m/nofp\libc_nano.a(lib_a-init.o)
 .text          0x00000000        0x0 c:/gcc-arm-none-eabi/bin/../lib/gcc/arm-none-eabi/10.3.1/../../../../arm-none-eabi/lib/thumb/v7-m/nofp\libc_nano.a(lib_a-memcpy-stub.o)
 .data          0x00000000        0x0 c:/gcc-arm-none-eabi/bin/../lib/gcc/arm-none-eabi/10.3.1/../../../../arm-none-eabi/lib/thumb/v7-m/nofp\libc_nano.a(lib_a-memcpy-stub.o)
 .bss           0x00000000        0x0 c:/gcc-arm-none-eabi/bin/../lib/gcc/arm-none-eabi/10.3.1/../../../../arm-none-eabi/lib/thumb/v7-m/nofp\libc_nano.a(lib_a-memcpy-stub.o)
 .text          0x00000000        0x0 c:/gcc-arm-none-eabi/bin/../lib/gcc/arm-none-eabi/10.3.1/../../../../arm-none-eabi/lib/thumb/v7-m/nofp\libc_nano.a(lib_a-memset.o)
 .data          0x00000000        0x0 c:/gcc-arm-none-eabi/bin/../lib/gcc/arm-none-eabi/10.3.1/../../../../arm-none-eabi/lib/thumb/v7-m/nofp\libc_nano.a(lib_a-memset.o)
 .bss           0x00000000        0x0 c:/gcc-arm-none-eabi/bin/../lib/gcc/arm-none-eabi/10.3.1/../../../../arm-none-eabi/lib/thumb/v7-m/nofp\libc_nano.a(lib_a-memset.o)
 .text          0x00000000        0x0 c:/gcc-arm-none-eabi/bin/../lib/gcc/arm-none-eabi/10.3.1/../../../../arm-none-eabi/lib/thumb/v7-m/nofp\libc_nano.a(lib_a-nano-vfprintf_float.o)
 .data          0x00000000        0x0 c:/gcc-arm-none-eabi/bin/../lib/gcc/arm-none-eabi/10.3.1/../../../../arm-none-eabi/lib/thumb/v7-m/nofp\libc_nano.a(lib_a-nano-vfprintf_float.o)
 .bss           0x00000000        0x0 c:/gcc-arm-none-eabi/bin/../lib/gcc/arm-none-eabi/10.3.1/../../../../arm-none-eabi/lib/thumb/v7-m/nofp\libc_nano.a(lib_a-nano-vfprintf_float.o)
 .text          0x00000000        0x0 c:/gcc-arm-none-eabi/bin/../lib/gcc/arm-none-eabi/10.3.1/../../../../arm-none-eabi/lib/thumb/v7-m/nofp\libc_nano.a(lib_a-nano-vfprintf_i.o)
 .data          0x00000000        0x0 c:/gcc-arm-none-eabi/bin/../lib/gcc/arm-none-eabi/10.3.1/../../../../arm-none-eabi/lib/thumb/v7-m/nofp\libc_nano.a(lib_a-nano-vfprintf_i.o)
 .bss           0x00000000        0x0 c:/gcc-arm-none-eabi/bin/../lib/gcc/arm-none-eabi/10.3.1/../../../../arm-none-eabi/lib/thumb/v7-m/nofp\libc_nano.a(lib_a-nano-vfprintf_i.o)
 .text          0x00000000        0x0 c:/gcc-arm-none-eabi/bin/../lib/gcc/arm-none-eabi/10.3.1/../../../../arm-none-eabi/lib/thumb/v7-m/nofp\libc_nano.a(lib_a-strcpy.o)
 .data          0x00000000        0x0 c:/gcc-arm-none-eabi/bin/../lib/gcc/arm-none-eabi/10.3.1/../../../../arm-none-eabi/lib/thumb/v7-m/nofp\libc_nano.a(lib_a-strcpy.o)
 .bss           0x00000000        0x0 c:/gcc-arm-none-eabi/bin/../lib/gcc/arm-none-eabi/10.3.1/../../../../arm-none-eabi/lib/thumb/v7-m/nofp\libc_nano.a(lib_a-strcpy.o)
 .text.strcpy   0x00000000       0x10 c:/gcc-arm-none-eabi/bin/../lib/gcc/arm-none-eabi/10.3.1/../../../../arm-none-eabi/lib/thumb/v7-m/nofp\libc_nano.a(lib_a-strcpy.o)
 .debug_frame   0x00000000       0x20 c:/gcc-arm-none-eabi/bin/../lib/gcc/arm-none-eabi/10.3.1/../../../../arm-none-eabi/lib/thumb/v7-m/nofp\libc_nano.a(lib_a-strcpy.o)
 .ARM.attributes
                0x00000000       0x2d c:/gcc-arm-none-eabi/bin/../lib/gcc/arm-none-eabi/10.3.1/../../../../arm-none-eabi/lib/thumb/v7-m/nofp\libc_nano.a(lib_a-strcpy.o)
 .data          0x00000000        0x0 c:/gcc-arm-none-eabi/bin/../lib/gcc/arm-none-eabi/10.3.1/../../../../arm-none-eabi/lib/thumb/v7-m/nofp\libc_nano.a(lib_a-strlen.o)
 .bss           0x00000000        0x0 c:/gcc-arm-none-eabi/bin/../lib/gcc/arm-none-eabi/10.3.1/../../../../arm-none-eabi/lib/thumb/v7-m/nofp\libc_nano.a(lib_a-strlen.o)
 .text          0x00000000        0x0 c:/gcc-arm-none-eabi/bin/../lib/gcc/arm-none-eabi/10.3.1/../../../../arm-none-eabi/lib/thumb/v7-m/nofp\libc_nano.a(lib_a-strncmp.o)
 .data          0x00000000        0x0 c:/gcc-arm-none-eabi/bin/../lib/gcc/arm-none-eabi/10.3.1/../../../../arm-none-eabi/lib/thumb/v7-m/nofp\libc_nano.a(lib_a-strncmp.o)
 .bss           0x00000000        0x0 c:/gcc-arm-none-eabi/bin/../lib/gcc/arm-none-eabi/10.3.1/../../../../arm-none-eabi/lib/thumb/v7-m/nofp\libc_nano.a(lib_a-strncmp.o)
 .text          0x00000000        0x0 c:/gcc-arm-none-eabi/bin/../lib/gcc/arm-none-eabi/10.3.1/../../../../arm-none-eabi/lib/thumb/v7-m/nofp\libc_nano.a(lib_a-strncpy.o)
 .data          0x00000000        0x0 c:/gcc-arm-none-eabi/bin/../lib/gcc/arm-none-eabi/10.3.1/../../../../arm-none-eabi/lib/thumb/v7-m/nofp\libc_nano.a(lib_a-strncpy.o)
 .bss           0x00000000        0x0 c:/gcc-arm-none-eabi/bin/../lib/gcc/arm-none-eabi/10.3.1/../../../../arm-none-eabi/lib/thumb/v7-m/nofp\libc_nano.a(lib_a-strncpy.o)
 .text          0x00000000        0x0 c:/gcc-arm-none-eabi/bin/../lib/gcc/arm-none-eabi/10.3.1/../../../../arm-none-eabi/lib/thumb/v7-m/nofp\libc_nano.a(lib_a-dtoa.o)
 .data          0x00000000        0x0 c:/gcc-arm-none-eabi/bin/../lib/gcc/arm-none-eabi/10.3.1/../../../../arm-none-eabi/lib/thumb/v7-m/nofp\libc_nano.a(lib_a-dtoa.o)
 .bss           0x00000000        0x0 c:/gcc-arm-none-eabi/bin/../lib/gcc/arm-none-eabi/10.3.1/../../../../arm-none-eabi/lib/thumb/v7-m/nofp\libc_nano.a(lib_a-dtoa.o)
 .text          0x00000000        0x0 c:/gcc-arm-none-eabi/bin/../lib/gcc/arm-none-eabi/10.3.1/../../../../arm-none-eabi/lib/thumb/v7-m/nofp\libc_nano.a(lib_a-localeconv.o)
 .data          0x00000000        0x0 c:/gcc-arm-none-eabi/bin/../lib/gcc/arm-none-eabi/10.3.1/../../../../arm-none-eabi/lib/thumb/v7-m/nofp\libc_nano.a(lib_a-localeconv.o)
 .bss           0x00000000        0x0 c:/gcc-arm-none-eabi/bin/../lib/gcc/arm-none-eabi/10.3.1/../../../../arm-none-eabi/lib/thumb/v7-m/nofp\libc_nano.a(lib_a-localeconv.o)
 .text.__localeconv_l
                0x00000000        0x4 c:/gcc-arm-none-eabi/bin/../lib/gcc/arm-none-eabi/10.3.1/../../../../arm-none-eabi/lib/thumb/v7-m/nofp\libc_nano.a(lib_a-localeconv.o)
 .text.localeconv
                0x00000000        0x8 c:/gcc-arm-none-eabi/bin/../lib/gcc/arm-none-eabi/10.3.1/../../../../arm-none-eabi/lib/thumb/v7-m/nofp\libc_nano.a(lib_a-localeconv.o)
 .text          0x00000000        0x0 c:/gcc-arm-none-eabi/bin/../lib/gcc/arm-none-eabi/10.3.1/../../../../arm-none-eabi/lib/thumb/v7-m/nofp\libc_nano.a(lib_a-malloc.o)
 .data          0x00000000        0x0 c:/gcc-arm-none-eabi/bin/../lib/gcc/arm-none-eabi/10.3.1/../../../../arm-none-eabi/lib/thumb/v7-m/nofp\libc_nano.a(lib_a-malloc.o)
 .bss           0x00000000        0x0 c:/gcc-arm-none-eabi/bin/../lib/gcc/arm-none-eabi/10.3.1/../../../../arm-none-eabi/lib/thumb/v7-m/nofp\libc_nano.a(lib_a-malloc.o)
 .text.free     0x00000000       0x10 c:/gcc-arm-none-eabi/bin/../lib/gcc/arm-none-eabi/10.3.1/../../../../arm-none-eabi/lib/thumb/v7-m/nofp\libc_nano.a(lib_a-malloc.o)
 .text          0x00000000        0x0 c:/gcc-arm-none-eabi/bin/../lib/gcc/arm-none-eabi/10.3.1/../../../../arm-none-eabi/lib/thumb/v7-m/nofp\libc_nano.a(lib_a-memchr-stub.o)
 .data          0x00000000        0x0 c:/gcc-arm-none-eabi/bin/../lib/gcc/arm-none-eabi/10.3.1/../../../../arm-none-eabi/lib/thumb/v7-m/nofp\libc_nano.a(lib_a-memchr-stub.o)
 .bss           0x00000000        0x0 c:/gcc-arm-none-eabi/bin/../lib/gcc/arm-none-eabi/10.3.1/../../../../arm-none-eabi/lib/thumb/v7-m/nofp\libc_nano.a(lib_a-memchr-stub.o)
 .text          0x00000000        0x0 c:/gcc-arm-none-eabi/bin/../lib/gcc/arm-none-eabi/10.3.1/../../../../arm-none-eabi/lib/thumb/v7-m/nofp\libc_nano.a(lib_a-mprec.o)
 .data          0x00000000        0x0 c:/gcc-arm-none-eabi/bin/../lib/gcc/arm-none-eabi/10.3.1/../../../../arm-none-eabi/lib/thumb/v7-m/nofp\libc_nano.a(lib_a-mprec.o)
 .bss           0x00000000        0x0 c:/gcc-arm-none-eabi/bin/../lib/gcc/arm-none-eabi/10.3.1/../../../../arm-none-eabi/lib/thumb/v7-m/nofp\libc_nano.a(lib_a-mprec.o)
 .text.__s2b    0x00000000       0x94 c:/gcc-arm-none-eabi/bin/../lib/gcc/arm-none-eabi/10.3.1/../../../../arm-none-eabi/lib/thumb/v7-m/nofp\libc_nano.a(lib_a-mprec.o)
 .text.__ulp    0x00000000       0x4c c:/gcc-arm-none-eabi/bin/../lib/gcc/arm-none-eabi/10.3.1/../../../../arm-none-eabi/lib/thumb/v7-m/nofp\libc_nano.a(lib_a-mprec.o)
 .text.__b2d    0x00000000       0xa8 c:/gcc-arm-none-eabi/bin/../lib/gcc/arm-none-eabi/10.3.1/../../../../arm-none-eabi/lib/thumb/v7-m/nofp\libc_nano.a(lib_a-mprec.o)
 .text.__ratio  0x00000000       0x5c c:/gcc-arm-none-eabi/bin/../lib/gcc/arm-none-eabi/10.3.1/../../../../arm-none-eabi/lib/thumb/v7-m/nofp\libc_nano.a(lib_a-mprec.o)
 .text._mprec_log10
                0x00000000       0x38 c:/gcc-arm-none-eabi/bin/../lib/gcc/arm-none-eabi/10.3.1/../../../../arm-none-eabi/lib/thumb/v7-m/nofp\libc_nano.a(lib_a-mprec.o)
 .text.__copybits
                0x00000000       0x46 c:/gcc-arm-none-eabi/bin/../lib/gcc/arm-none-eabi/10.3.1/../../../../arm-none-eabi/lib/thumb/v7-m/nofp\libc_nano.a(lib_a-mprec.o)
 .text.__any_on
                0x00000000       0x42 c:/gcc-arm-none-eabi/bin/../lib/gcc/arm-none-eabi/10.3.1/../../../../arm-none-eabi/lib/thumb/v7-m/nofp\libc_nano.a(lib_a-mprec.o)
 .rodata.__mprec_tinytens
                0x00000000       0x28 c:/gcc-arm-none-eabi/bin/../lib/gcc/arm-none-eabi/10.3.1/../../../../arm-none-eabi/lib/thumb/v7-m/nofp\libc_nano.a(lib_a-mprec.o)
 .text          0x00000000        0x0 c:/gcc-arm-none-eabi/bin/../lib/gcc/arm-none-eabi/10.3.1/../../../../arm-none-eabi/lib/thumb/v7-m/nofp\libc_nano.a(lib_a-nano-callocr.o)
 .data          0x00000000        0x0 c:/gcc-arm-none-eabi/bin/../lib/gcc/arm-none-eabi/10.3.1/../../../../arm-none-eabi/lib/thumb/v7-m/nofp\libc_nano.a(lib_a-nano-callocr.o)
 .bss           0x00000000        0x0 c:/gcc-arm-none-eabi/bin/../lib/gcc/arm-none-eabi/10.3.1/../../../../arm-none-eabi/lib/thumb/v7-m/nofp\libc_nano.a(lib_a-nano-callocr.o)
 .text          0x00000000        0x0 c:/gcc-arm-none-eabi/bin/../lib/gcc/arm-none-eabi/10.3.1/../../../../arm-none-eabi/lib/thumb/v7-m/nofp\libc_nano.a(lib_a-nano-freer.o)
 .data          0x00000000        0x0 c:/gcc-arm-none-eabi/bin/../lib/gcc/arm-none-eabi/10.3.1/../../../../arm-none-eabi/lib/thumb/v7-m/nofp\libc_nano.a(lib_a-nano-freer.o)
 .bss           0x00000000        0x0 c:/gcc-arm-none-eabi/bin/../lib/gcc/arm-none-eabi/10.3.1/../../../../arm-none-eabi/lib/thumb/v7-m/nofp\libc_nano.a(lib_a-nano-freer.o)
 .text          0x00000000        0x0 c:/gcc-arm-none-eabi/bin/../lib/gcc/arm-none-eabi/10.3.1/../../../../arm-none-eabi/lib/thumb/v7-m/nofp\libc_nano.a(lib_a-nano-mallocr.o)
 .data          0x00000000        0x0 c:/gcc-arm-none-eabi/bin/../lib/gcc/arm-none-eabi/10.3.1/../../../../arm-none-eabi/lib/thumb/v7-m/nofp\libc_nano.a(lib_a-nano-mallocr.o)
 .bss           0x00000000        0x0 c:/gcc-arm-none-eabi/bin/../lib/gcc/arm-none-eabi/10.3.1/../../../../arm-none-eabi/lib/thumb/v7-m/nofp\libc_nano.a(lib_a-nano-mallocr.o)
 .text          0x00000000        0x0 c:/gcc-arm-none-eabi/bin/../lib/gcc/arm-none-eabi/10.3.1/../../../../arm-none-eabi/lib/thumb/v7-m/nofp\libc_nano.a(lib_a-sbrkr.o)
 .data          0x00000000        0x0 c:/gcc-arm-none-eabi/bin/../lib/gcc/arm-none-eabi/10.3.1/../../../../arm-none-eabi/lib/thumb/v7-m/nofp\libc_nano.a(lib_a-sbrkr.o)
 .bss           0x00000000        0x0 c:/gcc-arm-none-eabi/bin/../lib/gcc/arm-none-eabi/10.3.1/../../../../arm-none-eabi/lib/thumb/v7-m/nofp\libc_nano.a(lib_a-sbrkr.o)
 .text          0x00000000        0x0 c:/gcc-arm-none-eabi/bin/../lib/gcc/arm-none-eabi/10.3.1/../../../../arm-none-eabi/lib/thumb/v7-m/nofp\libc_nano.a(lib_a-assert.o)
 .data          0x00000000        0x0 c:/gcc-arm-none-eabi/bin/../lib/gcc/arm-none-eabi/10.3.1/../../../../arm-none-eabi/lib/thumb/v7-m/nofp\libc_nano.a(lib_a-assert.o)
 .bss           0x00000000        0x0 c:/gcc-arm-none-eabi/bin/../lib/gcc/arm-none-eabi/10.3.1/../../../../arm-none-eabi/lib/thumb/v7-m/nofp\libc_nano.a(lib_a-assert.o)
 .text.__assert
                0x00000000        0xa c:/gcc-arm-none-eabi/bin/../lib/gcc/arm-none-eabi/10.3.1/../../../../arm-none-eabi/lib/thumb/v7-m/nofp\libc_nano.a(lib_a-assert.o)
 .text          0x00000000        0x0 c:/gcc-arm-none-eabi/bin/../lib/gcc/arm-none-eabi/10.3.1/../../../../arm-none-eabi/lib/thumb/v7-m/nofp\libc_nano.a(lib_a-fprintf.o)
 .data          0x00000000        0x0 c:/gcc-arm-none-eabi/bin/../lib/gcc/arm-none-eabi/10.3.1/../../../../arm-none-eabi/lib/thumb/v7-m/nofp\libc_nano.a(lib_a-fprintf.o)
 .bss           0x00000000        0x0 c:/gcc-arm-none-eabi/bin/../lib/gcc/arm-none-eabi/10.3.1/../../../../arm-none-eabi/lib/thumb/v7-m/nofp\libc_nano.a(lib_a-fprintf.o)
 .text._fprintf_r
                0x00000000       0x1a c:/gcc-arm-none-eabi/bin/../lib/gcc/arm-none-eabi/10.3.1/../../../../arm-none-eabi/lib/thumb/v7-m/nofp\libc_nano.a(lib_a-fprintf.o)
 .text          0x00000000        0x0 c:/gcc-arm-none-eabi/bin/../lib/gcc/arm-none-eabi/10.3.1/../../../../arm-none-eabi/lib/thumb/v7-m/nofp\libc_nano.a(lib_a-locale.o)
 .data          0x00000000        0x0 c:/gcc-arm-none-eabi/bin/../lib/gcc/arm-none-eabi/10.3.1/../../../../arm-none-eabi/lib/thumb/v7-m/nofp\libc_nano.a(lib_a-locale.o)
 .bss           0x00000000        0x0 c:/gcc-arm-none-eabi/bin/../lib/gcc/arm-none-eabi/10.3.1/../../../../arm-none-eabi/lib/thumb/v7-m/nofp\libc_nano.a(lib_a-locale.o)
 .text._setlocale_r
                0x00000000       0x40 c:/gcc-arm-none-eabi/bin/../lib/gcc/arm-none-eabi/10.3.1/../../../../arm-none-eabi/lib/thumb/v7-m/nofp\libc_nano.a(lib_a-locale.o)
 .text.__locale_mb_cur_max
                0x00000000        0xc c:/gcc-arm-none-eabi/bin/../lib/gcc/arm-none-eabi/10.3.1/../../../../arm-none-eabi/lib/thumb/v7-m/nofp\libc_nano.a(lib_a-locale.o)
 .text.setlocale
                0x00000000       0x10 c:/gcc-arm-none-eabi/bin/../lib/gcc/arm-none-eabi/10.3.1/../../../../arm-none-eabi/lib/thumb/v7-m/nofp\libc_nano.a(lib_a-locale.o)
 .bss._PathLocale
                0x00000000        0x4 c:/gcc-arm-none-eabi/bin/../lib/gcc/arm-none-eabi/10.3.1/../../../../arm-none-eabi/lib/thumb/v7-m/nofp\libc_nano.a(lib_a-locale.o)
 .text          0x00000000        0x0 c:/gcc-arm-none-eabi/bin/../lib/gcc/arm-none-eabi/10.3.1/../../../../arm-none-eabi/lib/thumb/v7-m/nofp\libc_nano.a(lib_a-mbtowc_r.o)
 .data          0x00000000        0x0 c:/gcc-arm-none-eabi/bin/../lib/gcc/arm-none-eabi/10.3.1/../../../../arm-none-eabi/lib/thumb/v7-m/nofp\libc_nano.a(lib_a-mbtowc_r.o)
 .bss           0x00000000        0x0 c:/gcc-arm-none-eabi/bin/../lib/gcc/arm-none-eabi/10.3.1/../../../../arm-none-eabi/lib/thumb/v7-m/nofp\libc_nano.a(lib_a-mbtowc_r.o)
 .text._mbtowc_r
                0x00000000       0x14 c:/gcc-arm-none-eabi/bin/../lib/gcc/arm-none-eabi/10.3.1/../../../../arm-none-eabi/lib/thumb/v7-m/nofp\libc_nano.a(lib_a-mbtowc_r.o)
 .text          0x00000000        0x0 c:/gcc-arm-none-eabi/bin/../lib/gcc/arm-none-eabi/10.3.1/../../../../arm-none-eabi/lib/thumb/v7-m/nofp\libc_nano.a(lib_a-mlock.o)
 .data          0x00000000        0x0 c:/gcc-arm-none-eabi/bin/../lib/gcc/arm-none-eabi/10.3.1/../../../../arm-none-eabi/lib/thumb/v7-m/nofp\libc_nano.a(lib_a-mlock.o)
 .bss           0x00000000        0x0 c:/gcc-arm-none-eabi/bin/../lib/gcc/arm-none-eabi/10.3.1/../../../../arm-none-eabi/lib/thumb/v7-m/nofp\libc_nano.a(lib_a-mlock.o)
 .text          0x00000000        0x0 c:/gcc-arm-none-eabi/bin/../lib/gcc/arm-none-eabi/10.3.1/../../../../arm-none-eabi/lib/thumb/v7-m/nofp\libc_nano.a(lib_a-nano-vfprintf.o)
 .data          0x00000000        0x0 c:/gcc-arm-none-eabi/bin/../lib/gcc/arm-none-eabi/10.3.1/../../../../arm-none-eabi/lib/thumb/v7-m/nofp\libc_nano.a(lib_a-nano-vfprintf.o)
 .bss           0x00000000        0x0 c:/gcc-arm-none-eabi/bin/../lib/gcc/arm-none-eabi/10.3.1/../../../../arm-none-eabi/lib/thumb/v7-m/nofp\libc_nano.a(lib_a-nano-vfprintf.o)
 .text.__sprint_r
                0x00000000       0x1a c:/gcc-arm-none-eabi/bin/../lib/gcc/arm-none-eabi/10.3.1/../../../../arm-none-eabi/lib/thumb/v7-m/nofp\libc_nano.a(lib_a-nano-vfprintf.o)
 .text.vfprintf
                0x00000000       0x14 c:/gcc-arm-none-eabi/bin/../lib/gcc/arm-none-eabi/10.3.1/../../../../arm-none-eabi/lib/thumb/v7-m/nofp\libc_nano.a(lib_a-nano-vfprintf.o)
 .text          0x00000000        0x0 c:/gcc-arm-none-eabi/bin/../lib/gcc/arm-none-eabi/10.3.1/../../../../arm-none-eabi/lib/thumb/v7-m/nofp\libc_nano.a(lib_a-reent.o)
 .data          0x00000000        0x0 c:/gcc-arm-none-eabi/bin/../lib/gcc/arm-none-eabi/10.3.1/../../../../arm-none-eabi/lib/thumb/v7-m/nofp\libc_nano.a(lib_a-reent.o)
 .bss           0x00000000        0x0 c:/gcc-arm-none-eabi/bin/../lib/gcc/arm-none-eabi/10.3.1/../../../../arm-none-eabi/lib/thumb/v7-m/nofp\libc_nano.a(lib_a-reent.o)
 .text.cleanup_glue
                0x00000000       0x1a c:/gcc-arm-none-eabi/bin/../lib/gcc/arm-none-eabi/10.3.1/../../../../arm-none-eabi/lib/thumb/v7-m/nofp\libc_nano.a(lib_a-reent.o)
 .text._reclaim_reent
                0x00000000       0xb8 c:/gcc-arm-none-eabi/bin/../lib/gcc/arm-none-eabi/10.3.1/../../../../arm-none-eabi/lib/thumb/v7-m/nofp\libc_nano.a(lib_a-reent.o)
 .text          0x00000000       0x14 c:/gcc-arm-none-eabi/bin/../lib/gcc/arm-none-eabi/10.3.1/../../../../arm-none-eabi/lib/thumb/v7-m/nofp\libc_nano.a(lib_a-strcmp.o)
 .data          0x00000000        0x0 c:/gcc-arm-none-eabi/bin/../lib/gcc/arm-none-eabi/10.3.1/../../../../arm-none-eabi/lib/thumb/v7-m/nofp\libc_nano.a(lib_a-strcmp.o)
 .bss           0x00000000        0x0 c:/gcc-arm-none-eabi/bin/../lib/gcc/arm-none-eabi/10.3.1/../../../../arm-none-eabi/lib/thumb/v7-m/nofp\libc_nano.a(lib_a-strcmp.o)
 .debug_frame   0x00000000       0x20 c:/gcc-arm-none-eabi/bin/../lib/gcc/arm-none-eabi/10.3.1/../../../../arm-none-eabi/lib/thumb/v7-m/nofp\libc_nano.a(lib_a-strcmp.o)
 .ARM.attributes
                0x00000000       0x1b c:/gcc-arm-none-eabi/bin/../lib/gcc/arm-none-eabi/10.3.1/../../../../arm-none-eabi/lib/thumb/v7-m/nofp\libc_nano.a(lib_a-strcmp.o)
 .text          0x00000000        0x0 c:/gcc-arm-none-eabi/bin/../lib/gcc/arm-none-eabi/10.3.1/../../../../arm-none-eabi/lib/thumb/v7-m/nofp\libc_nano.a(lib_a-wbuf.o)
 .data          0x00000000        0x0 c:/gcc-arm-none-eabi/bin/../lib/gcc/arm-none-eabi/10.3.1/../../../../arm-none-eabi/lib/thumb/v7-m/nofp\libc_nano.a(lib_a-wbuf.o)
 .bss           0x00000000        0x0 c:/gcc-arm-none-eabi/bin/../lib/gcc/arm-none-eabi/10.3.1/../../../../arm-none-eabi/lib/thumb/v7-m/nofp\libc_nano.a(lib_a-wbuf.o)
 .text.__swbuf  0x00000000       0x10 c:/gcc-arm-none-eabi/bin/../lib/gcc/arm-none-eabi/10.3.1/../../../../arm-none-eabi/lib/thumb/v7-m/nofp\libc_nano.a(lib_a-wbuf.o)
 .text          0x00000000        0x0 c:/gcc-arm-none-eabi/bin/../lib/gcc/arm-none-eabi/10.3.1/../../../../arm-none-eabi/lib/thumb/v7-m/nofp\libc_nano.a(lib_a-wctomb_r.o)
 .data          0x00000000        0x0 c:/gcc-arm-none-eabi/bin/../lib/gcc/arm-none-eabi/10.3.1/../../../../arm-none-eabi/lib/thumb/v7-m/nofp\libc_nano.a(lib_a-wctomb_r.o)
 .bss           0x00000000        0x0 c:/gcc-arm-none-eabi/bin/../lib/gcc/arm-none-eabi/10.3.1/../../../../arm-none-eabi/lib/thumb/v7-m/nofp\libc_nano.a(lib_a-wctomb_r.o)
 .text._wctomb_r
                0x00000000       0x14 c:/gcc-arm-none-eabi/bin/../lib/gcc/arm-none-eabi/10.3.1/../../../../arm-none-eabi/lib/thumb/v7-m/nofp\libc_nano.a(lib_a-wctomb_r.o)
 .text          0x00000000        0x0 c:/gcc-arm-none-eabi/bin/../lib/gcc/arm-none-eabi/10.3.1/../../../../arm-none-eabi/lib/thumb/v7-m/nofp\libc_nano.a(lib_a-wsetup.o)
 .data          0x00000000        0x0 c:/gcc-arm-none-eabi/bin/../lib/gcc/arm-none-eabi/10.3.1/../../../../arm-none-eabi/lib/thumb/v7-m/nofp\libc_nano.a(lib_a-wsetup.o)
 .bss           0x00000000        0x0 c:/gcc-arm-none-eabi/bin/../lib/gcc/arm-none-eabi/10.3.1/../../../../arm-none-eabi/lib/thumb/v7-m/nofp\libc_nano.a(lib_a-wsetup.o)
 .text          0x00000000        0x0 c:/gcc-arm-none-eabi/bin/../lib/gcc/arm-none-eabi/10.3.1/../../../../arm-none-eabi/lib/thumb/v7-m/nofp\libc_nano.a(lib_a-abort.o)
 .data          0x00000000        0x0 c:/gcc-arm-none-eabi/bin/../lib/gcc/arm-none-eabi/10.3.1/../../../../arm-none-eabi/lib/thumb/v7-m/nofp\libc_nano.a(lib_a-abort.o)
 .bss           0x00000000        0x0 c:/gcc-arm-none-eabi/bin/../lib/gcc/arm-none-eabi/10.3.1/../../../../arm-none-eabi/lib/thumb/v7-m/nofp\libc_nano.a(lib_a-abort.o)
 .text          0x00000000        0x0 c:/gcc-arm-none-eabi/bin/../lib/gcc/arm-none-eabi/10.3.1/../../../../arm-none-eabi/lib/thumb/v7-m/nofp\libc_nano.a(lib_a-ctype_.o)
 .data          0x00000000        0x0 c:/gcc-arm-none-eabi/bin/../lib/gcc/arm-none-eabi/10.3.1/../../../../arm-none-eabi/lib/thumb/v7-m/nofp\libc_nano.a(lib_a-ctype_.o)
 .bss           0x00000000        0x0 c:/gcc-arm-none-eabi/bin/../lib/gcc/arm-none-eabi/10.3.1/../../../../arm-none-eabi/lib/thumb/v7-m/nofp\libc_nano.a(lib_a-ctype_.o)
 .text          0x00000000        0x0 c:/gcc-arm-none-eabi/bin/../lib/gcc/arm-none-eabi/10.3.1/../../../../arm-none-eabi/lib/thumb/v7-m/nofp\libc_nano.a(lib_a-fflush.o)
 .data          0x00000000        0x0 c:/gcc-arm-none-eabi/bin/../lib/gcc/arm-none-eabi/10.3.1/../../../../arm-none-eabi/lib/thumb/v7-m/nofp\libc_nano.a(lib_a-fflush.o)
 .bss           0x00000000        0x0 c:/gcc-arm-none-eabi/bin/../lib/gcc/arm-none-eabi/10.3.1/../../../../arm-none-eabi/lib/thumb/v7-m/nofp\libc_nano.a(lib_a-fflush.o)
 .text.fflush   0x00000000       0x24 c:/gcc-arm-none-eabi/bin/../lib/gcc/arm-none-eabi/10.3.1/../../../../arm-none-eabi/lib/thumb/v7-m/nofp\libc_nano.a(lib_a-fflush.o)
 .text          0x00000000        0x0 c:/gcc-arm-none-eabi/bin/../lib/gcc/arm-none-eabi/10.3.1/../../../../arm-none-eabi/lib/thumb/v7-m/nofp\libc_nano.a(lib_a-findfp.o)
 .data          0x00000000        0x0 c:/gcc-arm-none-eabi/bin/../lib/gcc/arm-none-eabi/10.3.1/../../../../arm-none-eabi/lib/thumb/v7-m/nofp\libc_nano.a(lib_a-findfp.o)
 .bss           0x00000000        0x0 c:/gcc-arm-none-eabi/bin/../lib/gcc/arm-none-eabi/10.3.1/../../../../arm-none-eabi/lib/thumb/v7-m/nofp\libc_nano.a(lib_a-findfp.o)
 .text.__fp_lock
                0x00000000       0x18 c:/gcc-arm-none-eabi/bin/../lib/gcc/arm-none-eabi/10.3.1/../../../../arm-none-eabi/lib/thumb/v7-m/nofp\libc_nano.a(lib_a-findfp.o)
 .text.__fp_unlock
                0x00000000       0x18 c:/gcc-arm-none-eabi/bin/../lib/gcc/arm-none-eabi/10.3.1/../../../../arm-none-eabi/lib/thumb/v7-m/nofp\libc_nano.a(lib_a-findfp.o)
 .text._cleanup
                0x00000000        0xc c:/gcc-arm-none-eabi/bin/../lib/gcc/arm-none-eabi/10.3.1/../../../../arm-none-eabi/lib/thumb/v7-m/nofp\libc_nano.a(lib_a-findfp.o)
 .text.__fp_lock_all
                0x00000000       0x1c c:/gcc-arm-none-eabi/bin/../lib/gcc/arm-none-eabi/10.3.1/../../../../arm-none-eabi/lib/thumb/v7-m/nofp\libc_nano.a(lib_a-findfp.o)
 .text.__fp_unlock_all
                0x00000000       0x1c c:/gcc-arm-none-eabi/bin/../lib/gcc/arm-none-eabi/10.3.1/../../../../arm-none-eabi/lib/thumb/v7-m/nofp\libc_nano.a(lib_a-findfp.o)
 .text          0x00000000        0x0 c:/gcc-arm-none-eabi/bin/../lib/gcc/arm-none-eabi/10.3.1/../../../../arm-none-eabi/lib/thumb/v7-m/nofp\libc_nano.a(lib_a-fvwrite.o)
 .data          0x00000000        0x0 c:/gcc-arm-none-eabi/bin/../lib/gcc/arm-none-eabi/10.3.1/../../../../arm-none-eabi/lib/thumb/v7-m/nofp\libc_nano.a(lib_a-fvwrite.o)
 .bss           0x00000000        0x0 c:/gcc-arm-none-eabi/bin/../lib/gcc/arm-none-eabi/10.3.1/../../../../arm-none-eabi/lib/thumb/v7-m/nofp\libc_nano.a(lib_a-fvwrite.o)
 .text.__sfvwrite_r
                0x00000000      0x290 c:/gcc-arm-none-eabi/bin/../lib/gcc/arm-none-eabi/10.3.1/../../../../arm-none-eabi/lib/thumb/v7-m/nofp\libc_nano.a(lib_a-fvwrite.o)
 .debug_frame   0x00000000       0x3c c:/gcc-arm-none-eabi/bin/../lib/gcc/arm-none-eabi/10.3.1/../../../../arm-none-eabi/lib/thumb/v7-m/nofp\libc_nano.a(lib_a-fvwrite.o)
 .ARM.attributes
                0x00000000       0x2d c:/gcc-arm-none-eabi/bin/../lib/gcc/arm-none-eabi/10.3.1/../../../../arm-none-eabi/lib/thumb/v7-m/nofp\libc_nano.a(lib_a-fvwrite.o)
 .text          0x00000000        0x0 c:/gcc-arm-none-eabi/bin/../lib/gcc/arm-none-eabi/10.3.1/../../../../arm-none-eabi/lib/thumb/v7-m/nofp\libc_nano.a(lib_a-fwalk.o)
 .data          0x00000000        0x0 c:/gcc-arm-none-eabi/bin/../lib/gcc/arm-none-eabi/10.3.1/../../../../arm-none-eabi/lib/thumb/v7-m/nofp\libc_nano.a(lib_a-fwalk.o)
 .bss           0x00000000        0x0 c:/gcc-arm-none-eabi/bin/../lib/gcc/arm-none-eabi/10.3.1/../../../../arm-none-eabi/lib/thumb/v7-m/nofp\libc_nano.a(lib_a-fwalk.o)
 .text._fwalk   0x00000000       0x3a c:/gcc-arm-none-eabi/bin/../lib/gcc/arm-none-eabi/10.3.1/../../../../arm-none-eabi/lib/thumb/v7-m/nofp\libc_nano.a(lib_a-fwalk.o)
 .text          0x00000000        0x0 c:/gcc-arm-none-eabi/bin/../lib/gcc/arm-none-eabi/10.3.1/../../../../arm-none-eabi/lib/thumb/v7-m/nofp\libc_nano.a(lib_a-lock.o)
 .data          0x00000000        0x0 c:/gcc-arm-none-eabi/bin/../lib/gcc/arm-none-eabi/10.3.1/../../../../arm-none-eabi/lib/thumb/v7-m/nofp\libc_nano.a(lib_a-lock.o)
 .bss           0x00000000        0x0 c:/gcc-arm-none-eabi/bin/../lib/gcc/arm-none-eabi/10.3.1/../../../../arm-none-eabi/lib/thumb/v7-m/nofp\libc_nano.a(lib_a-lock.o)
 .text.__retarget_lock_init
                0x00000000        0x2 c:/gcc-arm-none-eabi/bin/../lib/gcc/arm-none-eabi/10.3.1/../../../../arm-none-eabi/lib/thumb/v7-m/nofp\libc_nano.a(lib_a-lock.o)
 .text.__retarget_lock_close
                0x00000000        0x2 c:/gcc-arm-none-eabi/bin/../lib/gcc/arm-none-eabi/10.3.1/../../../../arm-none-eabi/lib/thumb/v7-m/nofp\libc_nano.a(lib_a-lock.o)
 .text.__retarget_lock_close_recursive
                0x00000000        0x2 c:/gcc-arm-none-eabi/bin/../lib/gcc/arm-none-eabi/10.3.1/../../../../arm-none-eabi/lib/thumb/v7-m/nofp\libc_nano.a(lib_a-lock.o)
 .text.__retarget_lock_acquire
                0x00000000        0x2 c:/gcc-arm-none-eabi/bin/../lib/gcc/arm-none-eabi/10.3.1/../../../../arm-none-eabi/lib/thumb/v7-m/nofp\libc_nano.a(lib_a-lock.o)
 .text.__retarget_lock_try_acquire
                0x00000000        0x4 c:/gcc-arm-none-eabi/bin/../lib/gcc/arm-none-eabi/10.3.1/../../../../arm-none-eabi/lib/thumb/v7-m/nofp\libc_nano.a(lib_a-lock.o)
 .text.__retarget_lock_try_acquire_recursive
                0x00000000        0x4 c:/gcc-arm-none-eabi/bin/../lib/gcc/arm-none-eabi/10.3.1/../../../../arm-none-eabi/lib/thumb/v7-m/nofp\libc_nano.a(lib_a-lock.o)
 .text.__retarget_lock_release
                0x00000000        0x2 c:/gcc-arm-none-eabi/bin/../lib/gcc/arm-none-eabi/10.3.1/../../../../arm-none-eabi/lib/thumb/v7-m/nofp\libc_nano.a(lib_a-lock.o)
 .bss.__lock___arc4random_mutex
                0x00000000        0x1 c:/gcc-arm-none-eabi/bin/../lib/gcc/arm-none-eabi/10.3.1/../../../../arm-none-eabi/lib/thumb/v7-m/nofp\libc_nano.a(lib_a-lock.o)
 .bss.__lock___at_quick_exit_mutex
                0x00000000        0x1 c:/gcc-arm-none-eabi/bin/../lib/gcc/arm-none-eabi/10.3.1/../../../../arm-none-eabi/lib/thumb/v7-m/nofp\libc_nano.a(lib_a-lock.o)
 .bss.__lock___atexit_recursive_mutex
                0x00000000        0x1 c:/gcc-arm-none-eabi/bin/../lib/gcc/arm-none-eabi/10.3.1/../../../../arm-none-eabi/lib/thumb/v7-m/nofp\libc_nano.a(lib_a-lock.o)
 .bss.__lock___dd_hash_mutex
                0x00000000        0x1 c:/gcc-arm-none-eabi/bin/../lib/gcc/arm-none-eabi/10.3.1/../../../../arm-none-eabi/lib/thumb/v7-m/nofp\libc_nano.a(lib_a-lock.o)
 .bss.__lock___env_recursive_mutex
                0x00000000        0x1 c:/gcc-arm-none-eabi/bin/../lib/gcc/arm-none-eabi/10.3.1/../../../../arm-none-eabi/lib/thumb/v7-m/nofp\libc_nano.a(lib_a-lock.o)
 .bss.__lock___tz_mutex
                0x00000000        0x1 c:/gcc-arm-none-eabi/bin/../lib/gcc/arm-none-eabi/10.3.1/../../../../arm-none-eabi/lib/thumb/v7-m/nofp\libc_nano.a(lib_a-lock.o)
 .text          0x00000000        0x0 c:/gcc-arm-none-eabi/bin/../lib/gcc/arm-none-eabi/10.3.1/../../../../arm-none-eabi/lib/thumb/v7-m/nofp\libc_nano.a(lib_a-makebuf.o)
 .data          0x00000000        0x0 c:/gcc-arm-none-eabi/bin/../lib/gcc/arm-none-eabi/10.3.1/../../../../arm-none-eabi/lib/thumb/v7-m/nofp\libc_nano.a(lib_a-makebuf.o)
 .bss           0x00000000        0x0 c:/gcc-arm-none-eabi/bin/../lib/gcc/arm-none-eabi/10.3.1/../../../../arm-none-eabi/lib/thumb/v7-m/nofp\libc_nano.a(lib_a-makebuf.o)
 .text          0x00000000        0x0 c:/gcc-arm-none-eabi/bin/../lib/gcc/arm-none-eabi/10.3.1/../../../../arm-none-eabi/lib/thumb/v7-m/nofp\libc_nano.a(lib_a-memmove.o)
 .data          0x00000000        0x0 c:/gcc-arm-none-eabi/bin/../lib/gcc/arm-none-eabi/10.3.1/../../../../arm-none-eabi/lib/thumb/v7-m/nofp\libc_nano.a(lib_a-memmove.o)
 .bss           0x00000000        0x0 c:/gcc-arm-none-eabi/bin/../lib/gcc/arm-none-eabi/10.3.1/../../../../arm-none-eabi/lib/thumb/v7-m/nofp\libc_nano.a(lib_a-memmove.o)
 .text.memmove  0x00000000       0x34 c:/gcc-arm-none-eabi/bin/../lib/gcc/arm-none-eabi/10.3.1/../../../../arm-none-eabi/lib/thumb/v7-m/nofp\libc_nano.a(lib_a-memmove.o)
 .debug_frame   0x00000000       0x28 c:/gcc-arm-none-eabi/bin/../lib/gcc/arm-none-eabi/10.3.1/../../../../arm-none-eabi/lib/thumb/v7-m/nofp\libc_nano.a(lib_a-memmove.o)
 .ARM.attributes
                0x00000000       0x2d c:/gcc-arm-none-eabi/bin/../lib/gcc/arm-none-eabi/10.3.1/../../../../arm-none-eabi/lib/thumb/v7-m/nofp\libc_nano.a(lib_a-memmove.o)
 .text          0x00000000        0x0 c:/gcc-arm-none-eabi/bin/../lib/gcc/arm-none-eabi/10.3.1/../../../../arm-none-eabi/lib/thumb/v7-m/nofp\libc_nano.a(lib_a-nano-reallocr.o)
 .data          0x00000000        0x0 c:/gcc-arm-none-eabi/bin/../lib/gcc/arm-none-eabi/10.3.1/../../../../arm-none-eabi/lib/thumb/v7-m/nofp\libc_nano.a(lib_a-nano-reallocr.o)
 .bss           0x00000000        0x0 c:/gcc-arm-none-eabi/bin/../lib/gcc/arm-none-eabi/10.3.1/../../../../arm-none-eabi/lib/thumb/v7-m/nofp\libc_nano.a(lib_a-nano-reallocr.o)
 .text._realloc_r
                0x00000000       0x5e c:/gcc-arm-none-eabi/bin/../lib/gcc/arm-none-eabi/10.3.1/../../../../arm-none-eabi/lib/thumb/v7-m/nofp\libc_nano.a(lib_a-nano-reallocr.o)
 .debug_frame   0x00000000       0x3c c:/gcc-arm-none-eabi/bin/../lib/gcc/arm-none-eabi/10.3.1/../../../../arm-none-eabi/lib/thumb/v7-m/nofp\libc_nano.a(lib_a-nano-reallocr.o)
 .ARM.attributes
                0x00000000       0x2d c:/gcc-arm-none-eabi/bin/../lib/gcc/arm-none-eabi/10.3.1/../../../../arm-none-eabi/lib/thumb/v7-m/nofp\libc_nano.a(lib_a-nano-reallocr.o)
 .text          0x00000000        0x0 c:/gcc-arm-none-eabi/bin/../lib/gcc/arm-none-eabi/10.3.1/../../../../arm-none-eabi/lib/thumb/v7-m/nofp\libc_nano.a(lib_a-signal.o)
 .data          0x00000000        0x0 c:/gcc-arm-none-eabi/bin/../lib/gcc/arm-none-eabi/10.3.1/../../../../arm-none-eabi/lib/thumb/v7-m/nofp\libc_nano.a(lib_a-signal.o)
 .bss           0x00000000        0x0 c:/gcc-arm-none-eabi/bin/../lib/gcc/arm-none-eabi/10.3.1/../../../../arm-none-eabi/lib/thumb/v7-m/nofp\libc_nano.a(lib_a-signal.o)
 .text._init_signal_r
                0x00000000       0x28 c:/gcc-arm-none-eabi/bin/../lib/gcc/arm-none-eabi/10.3.1/../../../../arm-none-eabi/lib/thumb/v7-m/nofp\libc_nano.a(lib_a-signal.o)
 .text._signal_r
                0x00000000       0x30 c:/gcc-arm-none-eabi/bin/../lib/gcc/arm-none-eabi/10.3.1/../../../../arm-none-eabi/lib/thumb/v7-m/nofp\libc_nano.a(lib_a-signal.o)
 .text.__sigtramp_r
                0x00000000       0x48 c:/gcc-arm-none-eabi/bin/../lib/gcc/arm-none-eabi/10.3.1/../../../../arm-none-eabi/lib/thumb/v7-m/nofp\libc_nano.a(lib_a-signal.o)
 .text.signal   0x00000000       0x10 c:/gcc-arm-none-eabi/bin/../lib/gcc/arm-none-eabi/10.3.1/../../../../arm-none-eabi/lib/thumb/v7-m/nofp\libc_nano.a(lib_a-signal.o)
 .text._init_signal
                0x00000000        0xc c:/gcc-arm-none-eabi/bin/../lib/gcc/arm-none-eabi/10.3.1/../../../../arm-none-eabi/lib/thumb/v7-m/nofp\libc_nano.a(lib_a-signal.o)
 .text.__sigtramp
                0x00000000       0x10 c:/gcc-arm-none-eabi/bin/../lib/gcc/arm-none-eabi/10.3.1/../../../../arm-none-eabi/lib/thumb/v7-m/nofp\libc_nano.a(lib_a-signal.o)
 .text          0x00000000        0x0 c:/gcc-arm-none-eabi/bin/../lib/gcc/arm-none-eabi/10.3.1/../../../../arm-none-eabi/lib/thumb/v7-m/nofp\libc_nano.a(lib_a-signalr.o)
 .data          0x00000000        0x0 c:/gcc-arm-none-eabi/bin/../lib/gcc/arm-none-eabi/10.3.1/../../../../arm-none-eabi/lib/thumb/v7-m/nofp\libc_nano.a(lib_a-signalr.o)
 .bss           0x00000000        0x0 c:/gcc-arm-none-eabi/bin/../lib/gcc/arm-none-eabi/10.3.1/../../../../arm-none-eabi/lib/thumb/v7-m/nofp\libc_nano.a(lib_a-signalr.o)
 .text          0x00000000        0x0 c:/gcc-arm-none-eabi/bin/../lib/gcc/arm-none-eabi/10.3.1/../../../../arm-none-eabi/lib/thumb/v7-m/nofp\libc_nano.a(lib_a-stdio.o)
 .data          0x00000000        0x0 c:/gcc-arm-none-eabi/bin/../lib/gcc/arm-none-eabi/10.3.1/../../../../arm-none-eabi/lib/thumb/v7-m/nofp\libc_nano.a(lib_a-stdio.o)
 .bss           0x00000000        0x0 c:/gcc-arm-none-eabi/bin/../lib/gcc/arm-none-eabi/10.3.1/../../../../arm-none-eabi/lib/thumb/v7-m/nofp\libc_nano.a(lib_a-stdio.o)
 .text.__seofread
                0x00000000        0x4 c:/gcc-arm-none-eabi/bin/../lib/gcc/arm-none-eabi/10.3.1/../../../../arm-none-eabi/lib/thumb/v7-m/nofp\libc_nano.a(lib_a-stdio.o)
 .text          0x00000000        0x0 c:/gcc-arm-none-eabi/bin/../lib/gcc/arm-none-eabi/10.3.1/../../../../arm-none-eabi/lib/thumb/v7-m/nofp\libc_nano.a(lib_a-writer.o)
 .data          0x00000000        0x0 c:/gcc-arm-none-eabi/bin/../lib/gcc/arm-none-eabi/10.3.1/../../../../arm-none-eabi/lib/thumb/v7-m/nofp\libc_nano.a(lib_a-writer.o)
 .bss           0x00000000        0x0 c:/gcc-arm-none-eabi/bin/../lib/gcc/arm-none-eabi/10.3.1/../../../../arm-none-eabi/lib/thumb/v7-m/nofp\libc_nano.a(lib_a-writer.o)
 .text          0x00000000        0x0 c:/gcc-arm-none-eabi/bin/../lib/gcc/arm-none-eabi/10.3.1/../../../../arm-none-eabi/lib/thumb/v7-m/nofp\libc_nano.a(lib_a-closer.o)
 .data          0x00000000        0x0 c:/gcc-arm-none-eabi/bin/../lib/gcc/arm-none-eabi/10.3.1/../../../../arm-none-eabi/lib/thumb/v7-m/nofp\libc_nano.a(lib_a-closer.o)
 .bss           0x00000000        0x0 c:/gcc-arm-none-eabi/bin/../lib/gcc/arm-none-eabi/10.3.1/../../../../arm-none-eabi/lib/thumb/v7-m/nofp\libc_nano.a(lib_a-closer.o)
 .text          0x00000000        0x0 c:/gcc-arm-none-eabi/bin/../lib/gcc/arm-none-eabi/10.3.1/../../../../arm-none-eabi/lib/thumb/v7-m/nofp\libc_nano.a(lib_a-fstatr.o)
 .data          0x00000000        0x0 c:/gcc-arm-none-eabi/bin/../lib/gcc/arm-none-eabi/10.3.1/../../../../arm-none-eabi/lib/thumb/v7-m/nofp\libc_nano.a(lib_a-fstatr.o)
 .bss           0x00000000        0x0 c:/gcc-arm-none-eabi/bin/../lib/gcc/arm-none-eabi/10.3.1/../../../../arm-none-eabi/lib/thumb/v7-m/nofp\libc_nano.a(lib_a-fstatr.o)
 .text          0x00000000        0x0 c:/gcc-arm-none-eabi/bin/../lib/gcc/arm-none-eabi/10.3.1/../../../../arm-none-eabi/lib/thumb/v7-m/nofp\libc_nano.a(lib_a-isattyr.o)
 .data          0x00000000        0x0 c:/gcc-arm-none-eabi/bin/../lib/gcc/arm-none-eabi/10.3.1/../../../../arm-none-eabi/lib/thumb/v7-m/nofp\libc_nano.a(lib_a-isattyr.o)
 .bss           0x00000000        0x0 c:/gcc-arm-none-eabi/bin/../lib/gcc/arm-none-eabi/10.3.1/../../../../arm-none-eabi/lib/thumb/v7-m/nofp\libc_nano.a(lib_a-isattyr.o)
 .text          0x00000000        0x0 c:/gcc-arm-none-eabi/bin/../lib/gcc/arm-none-eabi/10.3.1/../../../../arm-none-eabi/lib/thumb/v7-m/nofp\libc_nano.a(lib_a-lseekr.o)
 .data          0x00000000        0x0 c:/gcc-arm-none-eabi/bin/../lib/gcc/arm-none-eabi/10.3.1/../../../../arm-none-eabi/lib/thumb/v7-m/nofp\libc_nano.a(lib_a-lseekr.o)
 .bss           0x00000000        0x0 c:/gcc-arm-none-eabi/bin/../lib/gcc/arm-none-eabi/10.3.1/../../../../arm-none-eabi/lib/thumb/v7-m/nofp\libc_nano.a(lib_a-lseekr.o)
 .text          0x00000000        0x0 c:/gcc-arm-none-eabi/bin/../lib/gcc/arm-none-eabi/10.3.1/../../../../arm-none-eabi/lib/thumb/v7-m/nofp\libc_nano.a(lib_a-nano-msizer.o)
 .data          0x00000000        0x0 c:/gcc-arm-none-eabi/bin/../lib/gcc/arm-none-eabi/10.3.1/../../../../arm-none-eabi/lib/thumb/v7-m/nofp\libc_nano.a(lib_a-nano-msizer.o)
 .bss           0x00000000        0x0 c:/gcc-arm-none-eabi/bin/../lib/gcc/arm-none-eabi/10.3.1/../../../../arm-none-eabi/lib/thumb/v7-m/nofp\libc_nano.a(lib_a-nano-msizer.o)
 .text._malloc_usable_size_r
                0x00000000       0x10 c:/gcc-arm-none-eabi/bin/../lib/gcc/arm-none-eabi/10.3.1/../../../../arm-none-eabi/lib/thumb/v7-m/nofp\libc_nano.a(lib_a-nano-msizer.o)
 .debug_frame   0x00000000       0x20 c:/gcc-arm-none-eabi/bin/../lib/gcc/arm-none-eabi/10.3.1/../../../../arm-none-eabi/lib/thumb/v7-m/nofp\libc_nano.a(lib_a-nano-msizer.o)
 .ARM.attributes
                0x00000000       0x2d c:/gcc-arm-none-eabi/bin/../lib/gcc/arm-none-eabi/10.3.1/../../../../arm-none-eabi/lib/thumb/v7-m/nofp\libc_nano.a(lib_a-nano-msizer.o)
 .text          0x00000000        0x0 c:/gcc-arm-none-eabi/bin/../lib/gcc/arm-none-eabi/10.3.1/../../../../arm-none-eabi/lib/thumb/v7-m/nofp\libc_nano.a(lib_a-readr.o)
 .data          0x00000000        0x0 c:/gcc-arm-none-eabi/bin/../lib/gcc/arm-none-eabi/10.3.1/../../../../arm-none-eabi/lib/thumb/v7-m/nofp\libc_nano.a(lib_a-readr.o)
 .bss           0x00000000        0x0 c:/gcc-arm-none-eabi/bin/../lib/gcc/arm-none-eabi/10.3.1/../../../../arm-none-eabi/lib/thumb/v7-m/nofp\libc_nano.a(lib_a-readr.o)
 .text          0x00000000        0x0 c:/gcc-arm-none-eabi/bin/../lib/gcc/arm-none-eabi/10.3.1/../../../../arm-none-eabi/lib/thumb/v7-m/nofp\libnosys.a(close.o)
 .data          0x00000000        0x0 c:/gcc-arm-none-eabi/bin/../lib/gcc/arm-none-eabi/10.3.1/../../../../arm-none-eabi/lib/thumb/v7-m/nofp\libnosys.a(close.o)
 .bss           0x00000000        0x0 c:/gcc-arm-none-eabi/bin/../lib/gcc/arm-none-eabi/10.3.1/../../../../arm-none-eabi/lib/thumb/v7-m/nofp\libnosys.a(close.o)
 .text          0x00000000        0x0 c:/gcc-arm-none-eabi/bin/../lib/gcc/arm-none-eabi/10.3.1/../../../../arm-none-eabi/lib/thumb/v7-m/nofp\libnosys.a(fstat.o)
 .data          0x00000000        0x0 c:/gcc-arm-none-eabi/bin/../lib/gcc/arm-none-eabi/10.3.1/../../../../arm-none-eabi/lib/thumb/v7-m/nofp\libnosys.a(fstat.o)
 .bss           0x00000000        0x0 c:/gcc-arm-none-eabi/bin/../lib/gcc/arm-none-eabi/10.3.1/../../../../arm-none-eabi/lib/thumb/v7-m/nofp\libnosys.a(fstat.o)
 .text          0x00000000        0x0 c:/gcc-arm-none-eabi/bin/../lib/gcc/arm-none-eabi/10.3.1/../../../../arm-none-eabi/lib/thumb/v7-m/nofp\libnosys.a(getpid.o)
 .data          0x00000000        0x0 c:/gcc-arm-none-eabi/bin/../lib/gcc/arm-none-eabi/10.3.1/../../../../arm-none-eabi/lib/thumb/v7-m/nofp\libnosys.a(getpid.o)
 .bss           0x00000000        0x0 c:/gcc-arm-none-eabi/bin/../lib/gcc/arm-none-eabi/10.3.1/../../../../arm-none-eabi/lib/thumb/v7-m/nofp\libnosys.a(getpid.o)
 .text          0x00000000        0x0 c:/gcc-arm-none-eabi/bin/../lib/gcc/arm-none-eabi/10.3.1/../../../../arm-none-eabi/lib/thumb/v7-m/nofp\libnosys.a(isatty.o)
 .data          0x00000000        0x0 c:/gcc-arm-none-eabi/bin/../lib/gcc/arm-none-eabi/10.3.1/../../../../arm-none-eabi/lib/thumb/v7-m/nofp\libnosys.a(isatty.o)
 .bss           0x00000000        0x0 c:/gcc-arm-none-eabi/bin/../lib/gcc/arm-none-eabi/10.3.1/../../../../arm-none-eabi/lib/thumb/v7-m/nofp\libnosys.a(isatty.o)
 .text          0x00000000        0x0 c:/gcc-arm-none-eabi/bin/../lib/gcc/arm-none-eabi/10.3.1/../../../../arm-none-eabi/lib/thumb/v7-m/nofp\libnosys.a(kill.o)
 .data          0x00000000        0x0 c:/gcc-arm-none-eabi/bin/../lib/gcc/arm-none-eabi/10.3.1/../../../../arm-none-eabi/lib/thumb/v7-m/nofp\libnosys.a(kill.o)
 .bss           0x00000000        0x0 c:/gcc-arm-none-eabi/bin/../lib/gcc/arm-none-eabi/10.3.1/../../../../arm-none-eabi/lib/thumb/v7-m/nofp\libnosys.a(kill.o)
 .text          0x00000000        0x0 c:/gcc-arm-none-eabi/bin/../lib/gcc/arm-none-eabi/10.3.1/../../../../arm-none-eabi/lib/thumb/v7-m/nofp\libnosys.a(lseek.o)
 .data          0x00000000        0x0 c:/gcc-arm-none-eabi/bin/../lib/gcc/arm-none-eabi/10.3.1/../../../../arm-none-eabi/lib/thumb/v7-m/nofp\libnosys.a(lseek.o)
 .bss           0x00000000        0x0 c:/gcc-arm-none-eabi/bin/../lib/gcc/arm-none-eabi/10.3.1/../../../../arm-none-eabi/lib/thumb/v7-m/nofp\libnosys.a(lseek.o)
 .text          0x00000000        0x0 c:/gcc-arm-none-eabi/bin/../lib/gcc/arm-none-eabi/10.3.1/../../../../arm-none-eabi/lib/thumb/v7-m/nofp\libnosys.a(read.o)
 .data          0x00000000        0x0 c:/gcc-arm-none-eabi/bin/../lib/gcc/arm-none-eabi/10.3.1/../../../../arm-none-eabi/lib/thumb/v7-m/nofp\libnosys.a(read.o)
 .bss           0x00000000        0x0 c:/gcc-arm-none-eabi/bin/../lib/gcc/arm-none-eabi/10.3.1/../../../../arm-none-eabi/lib/thumb/v7-m/nofp\libnosys.a(read.o)
 .text          0x00000000        0x0 c:/gcc-arm-none-eabi/bin/../lib/gcc/arm-none-eabi/10.3.1/../../../../arm-none-eabi/lib/thumb/v7-m/nofp\libnosys.a(sbrk.o)
 .data          0x00000000        0x0 c:/gcc-arm-none-eabi/bin/../lib/gcc/arm-none-eabi/10.3.1/../../../../arm-none-eabi/lib/thumb/v7-m/nofp\libnosys.a(sbrk.o)
 .bss           0x00000000        0x0 c:/gcc-arm-none-eabi/bin/../lib/gcc/arm-none-eabi/10.3.1/../../../../arm-none-eabi/lib/thumb/v7-m/nofp\libnosys.a(sbrk.o)
 .text          0x00000000        0x0 c:/gcc-arm-none-eabi/bin/../lib/gcc/arm-none-eabi/10.3.1/../../../../arm-none-eabi/lib/thumb/v7-m/nofp\libnosys.a(_exit.o)
 .data          0x00000000        0x0 c:/gcc-arm-none-eabi/bin/../lib/gcc/arm-none-eabi/10.3.1/../../../../arm-none-eabi/lib/thumb/v7-m/nofp\libnosys.a(_exit.o)
 .bss           0x00000000        0x0 c:/gcc-arm-none-eabi/bin/../lib/gcc/arm-none-eabi/10.3.1/../../../../arm-none-eabi/lib/thumb/v7-m/nofp\libnosys.a(_exit.o)
 .text          0x00000000      0x254 c:/gcc-arm-none-eabi/bin/../lib/gcc/arm-none-eabi/10.3.1/thumb/v7-m/nofp\libgcc.a(_arm_muldf3.o)
 .data          0x00000000        0x0 c:/gcc-arm-none-eabi/bin/../lib/gcc/arm-none-eabi/10.3.1/thumb/v7-m/nofp\libgcc.a(_arm_muldf3.o)
 .bss           0x00000000        0x0 c:/gcc-arm-none-eabi/bin/../lib/gcc/arm-none-eabi/10.3.1/thumb/v7-m/nofp\libgcc.a(_arm_muldf3.o)
 .debug_frame   0x00000000       0x30 c:/gcc-arm-none-eabi/bin/../lib/gcc/arm-none-eabi/10.3.1/thumb/v7-m/nofp\libgcc.a(_arm_muldf3.o)
 .ARM.attributes
                0x00000000       0x1d c:/gcc-arm-none-eabi/bin/../lib/gcc/arm-none-eabi/10.3.1/thumb/v7-m/nofp\libgcc.a(_arm_muldf3.o)
 .data          0x00000000        0x0 c:/gcc-arm-none-eabi/bin/../lib/gcc/arm-none-eabi/10.3.1/thumb/v7-m/nofp\libgcc.a(_arm_addsubdf3.o)
 .bss           0x00000000        0x0 c:/gcc-arm-none-eabi/bin/../lib/gcc/arm-none-eabi/10.3.1/thumb/v7-m/nofp\libgcc.a(_arm_addsubdf3.o)
 .data          0x00000000        0x0 c:/gcc-arm-none-eabi/bin/../lib/gcc/arm-none-eabi/10.3.1/thumb/v7-m/nofp\libgcc.a(_arm_muldivdf3.o)
 .bss           0x00000000        0x0 c:/gcc-arm-none-eabi/bin/../lib/gcc/arm-none-eabi/10.3.1/thumb/v7-m/nofp\libgcc.a(_arm_muldivdf3.o)
 .data          0x00000000        0x0 c:/gcc-arm-none-eabi/bin/../lib/gcc/arm-none-eabi/10.3.1/thumb/v7-m/nofp\libgcc.a(_arm_cmpdf2.o)
 .bss           0x00000000        0x0 c:/gcc-arm-none-eabi/bin/../lib/gcc/arm-none-eabi/10.3.1/thumb/v7-m/nofp\libgcc.a(_arm_cmpdf2.o)
 .data          0x00000000        0x0 c:/gcc-arm-none-eabi/bin/../lib/gcc/arm-none-eabi/10.3.1/thumb/v7-m/nofp\libgcc.a(_arm_unorddf2.o)
 .bss           0x00000000        0x0 c:/gcc-arm-none-eabi/bin/../lib/gcc/arm-none-eabi/10.3.1/thumb/v7-m/nofp\libgcc.a(_arm_unorddf2.o)
 .data          0x00000000        0x0 c:/gcc-arm-none-eabi/bin/../lib/gcc/arm-none-eabi/10.3.1/thumb/v7-m/nofp\libgcc.a(_arm_fixdfsi.o)
 .bss           0x00000000        0x0 c:/gcc-arm-none-eabi/bin/../lib/gcc/arm-none-eabi/10.3.1/thumb/v7-m/nofp\libgcc.a(_arm_fixdfsi.o)
 .text          0x00000000        0x0 c:/gcc-arm-none-eabi/bin/../lib/gcc/arm-none-eabi/10.3.1/thumb/v7-m/nofp/crtend.o
 .data          0x00000000        0x0 c:/gcc-arm-none-eabi/bin/../lib/gcc/arm-none-eabi/10.3.1/thumb/v7-m/nofp/crtend.o
 .bss           0x00000000        0x0 c:/gcc-arm-none-eabi/bin/../lib/gcc/arm-none-eabi/10.3.1/thumb/v7-m/nofp/crtend.o
 .rodata        0x00000000       0x24 c:/gcc-arm-none-eabi/bin/../lib/gcc/arm-none-eabi/10.3.1/thumb/v7-m/nofp/crtend.o
 .eh_frame      0x00000000        0x4 c:/gcc-arm-none-eabi/bin/../lib/gcc/arm-none-eabi/10.3.1/thumb/v7-m/nofp/crtend.o
 .ARM.attributes
                0x00000000       0x2d c:/gcc-arm-none-eabi/bin/../lib/gcc/arm-none-eabi/10.3.1/thumb/v7-m/nofp/crtend.o
 .text          0x00000000        0x0 c:/gcc-arm-none-eabi/bin/../lib/gcc/arm-none-eabi/10.3.1/thumb/v7-m/nofp/crtn.o
 .data          0x00000000        0x0 c:/gcc-arm-none-eabi/bin/../lib/gcc/arm-none-eabi/10.3.1/thumb/v7-m/nofp/crtn.o
 .bss           0x00000000        0x0 c:/gcc-arm-none-eabi/bin/../lib/gcc/arm-none-eabi/10.3.1/thumb/v7-m/nofp/crtn.o

Memory Configuration

Name             Origin             Length             Attributes
FLASH            0x08000000         0x00080000         xr
RAM              0x20000000         0x00010000         xrw
MEMORY_B1        0x60000000         0x00000000         xr
*default*        0x00000000         0xffffffff

Linker script and memory map

LOAD c:/gcc-arm-none-eabi/bin/../lib/gcc/arm-none-eabi/10.3.1/thumb/v7-m/nofp/crti.o
LOAD c:/gcc-arm-none-eabi/bin/../lib/gcc/arm-none-eabi/10.3.1/thumb/v7-m/nofp/crtbegin.o
LOAD c:/gcc-arm-none-eabi/bin/../lib/gcc/arm-none-eabi/10.3.1/../../../../arm-none-eabi/lib/thumb/v7-m/nofp/crt0.o
LOAD build/main.o
LOAD build/stm32f10x_it.o
LOAD build/board.o
LOAD build/bsp_led.o
LOAD build/bsp_debug_usart.o
LOAD build/system_stm32f10x.o
LOAD build/misc.o
LOAD build/stm32f10x_adc.o
LOAD build/stm32f10x_bkp.o
LOAD build/stm32f10x_can.o
LOAD build/stm32f10x_cec.o
LOAD build/stm32f10x_crc.o
LOAD build/stm32f10x_dac.o
LOAD build/stm32f10x_dbgmcu.o
LOAD build/stm32f10x_dma.o
LOAD build/stm32f10x_exti.o
LOAD build/stm32f10x_flash.o
LOAD build/stm32f10x_fsmc.o
LOAD build/stm32f10x_gpio.o
LOAD build/stm32f10x_i2c.o
LOAD build/stm32f10x_iwdg.o
LOAD build/stm32f10x_pwr.o
LOAD build/stm32f10x_rcc.o
LOAD build/stm32f10x_rtc.o
LOAD build/stm32f10x_sdio.o
LOAD build/stm32f10x_spi.o
LOAD build/stm32f10x_tim.o
LOAD build/stm32f10x_usart.o
LOAD build/stm32f10x_wwdg.o
LOAD build/cmd.o
LOAD build/finsh_port.o
LOAD build/msh.o
LOAD build/shell.o
LOAD build/cpuport.o
LOAD build/clock.o
LOAD build/components.o
LOAD build/cpu.o
LOAD build/idle.o
LOAD build/ipc.o
LOAD build/irq.o
LOAD build/kservice.o
LOAD build/mem.o
LOAD build/memheap.o
LOAD build/mempool.o
LOAD build/object.o
LOAD build/scheduler.o
LOAD build/slab.o
LOAD build/thread.o
LOAD build/timer.o
LOAD build/startup_stm32f10x_hd.o
LOAD build/context_gcc.o
LOAD c:/gcc-arm-none-eabi/bin/../lib/gcc/arm-none-eabi/10.3.1/../../../../arm-none-eabi/lib/thumb/v7-m/nofp\libc_nano.a
LOAD c:/gcc-arm-none-eabi/bin/../lib/gcc/arm-none-eabi/10.3.1/../../../../arm-none-eabi/lib/thumb/v7-m/nofp\libm.a
LOAD c:/gcc-arm-none-eabi/bin/../lib/gcc/arm-none-eabi/10.3.1/../../../../arm-none-eabi/lib/thumb/v7-m/nofp\libnosys.a
LOAD c:/gcc-arm-none-eabi/bin/../lib/gcc/arm-none-eabi/10.3.1/../../../../arm-none-eabi/lib/thumb/v7-m/nofp\libc_nano.a
LOAD c:/gcc-arm-none-eabi/bin/../lib/gcc/arm-none-eabi/10.3.1/../../../../arm-none-eabi/lib/thumb/v7-m/nofp\librdimon_nano.a
START GROUP
LOAD c:/gcc-arm-none-eabi/bin/../lib/gcc/arm-none-eabi/10.3.1/thumb/v7-m/nofp\libgcc.a
LOAD c:/gcc-arm-none-eabi/bin/../lib/gcc/arm-none-eabi/10.3.1/../../../../arm-none-eabi/lib/thumb/v7-m/nofp\libc_nano.a
END GROUP
START GROUP
LOAD c:/gcc-arm-none-eabi/bin/../lib/gcc/arm-none-eabi/10.3.1/thumb/v7-m/nofp\libgcc.a
LOAD c:/gcc-arm-none-eabi/bin/../lib/gcc/arm-none-eabi/10.3.1/../../../../arm-none-eabi/lib/thumb/v7-m/nofp\libc_nano.a
END GROUP
LOAD c:/gcc-arm-none-eabi/bin/../lib/gcc/arm-none-eabi/10.3.1/thumb/v7-m/nofp/crtend.o
LOAD c:/gcc-arm-none-eabi/bin/../lib/gcc/arm-none-eabi/10.3.1/thumb/v7-m/nofp/crtn.o
                0x20010000                _estack = 0x20010000
                0x00000000                _Min_Heap_Size = 0x0
                0x00000200                _Min_Stack_Size = 0x200

.isr_vector     0x08000000      0x1e4
                0x08000000                . = ALIGN (0x4)
 *(.isr_vector)
 .isr_vector    0x08000000      0x1e4 build/startup_stm32f10x_hd.o
                0x08000000                g_pfnVectors
                0x080001e4                . = ALIGN (0x4)

.eh_frame       0x080001e4        0x0
 .eh_frame      0x080001e4        0x0 c:/gcc-arm-none-eabi/bin/../lib/gcc/arm-none-eabi/10.3.1/thumb/v7-m/nofp/crtbegin.o

.text           0x080001e8     0x8cfc
                0x080001e8                . = ALIGN (0x4)
 *(.text)
 .text          0x080001e8       0x40 c:/gcc-arm-none-eabi/bin/../lib/gcc/arm-none-eabi/10.3.1/thumb/v7-m/nofp/crtbegin.o
 .text          0x08000228      0x100 build/context_gcc.o
                0x08000228                rt_hw_interrupt_disable
                0x08000230                rt_hw_interrupt_enable
                0x08000236                rt_hw_context_switch_interrupt
                0x08000236                rt_hw_context_switch
                0x08000256                PendSV_Handler
                0x08000292                rt_hw_context_switch_to
                0x080002cc                rt_hw_interrupt_thread_switch
                0x080002d0                HardFault_Handler
                0x08000306                rt_hw_interrupt_check
 .text          0x08000328       0x10 c:/gcc-arm-none-eabi/bin/../lib/gcc/arm-none-eabi/10.3.1/../../../../arm-none-eabi/lib/thumb/v7-m/nofp\libc_nano.a(lib_a-strlen.o)
                0x08000328                strlen
 .text          0x08000338      0x378 c:/gcc-arm-none-eabi/bin/../lib/gcc/arm-none-eabi/10.3.1/thumb/v7-m/nofp\libgcc.a(_arm_addsubdf3.o)
                0x08000338                __aeabi_drsub
                0x08000340                __aeabi_dsub
                0x08000340                __subdf3
                0x08000344                __aeabi_dadd
                0x08000344                __adddf3
                0x080005bc                __floatunsidf
                0x080005bc                __aeabi_ui2d
                0x080005dc                __floatsidf
                0x080005dc                __aeabi_i2d
                0x08000600                __aeabi_f2d
                0x08000600                __extendsfdf2
                0x08000644                __floatundidf
                0x08000644                __aeabi_ul2d
                0x08000654                __floatdidf
                0x08000654                __aeabi_l2d
 .text          0x080006b0      0x424 c:/gcc-arm-none-eabi/bin/../lib/gcc/arm-none-eabi/10.3.1/thumb/v7-m/nofp\libgcc.a(_arm_muldivdf3.o)
                0x080006b0                __aeabi_dmul
                0x080006b0                __muldf3
                0x08000904                __divdf3
                0x08000904                __aeabi_ddiv
 .text          0x08000ad4      0x110 c:/gcc-arm-none-eabi/bin/../lib/gcc/arm-none-eabi/10.3.1/thumb/v7-m/nofp\libgcc.a(_arm_cmpdf2.o)
                0x08000ad4                __gtdf2
                0x08000ad4                __gedf2
                0x08000adc                __ltdf2
                0x08000adc                __ledf2
                0x08000ae4                __nedf2
                0x08000ae4                __eqdf2
                0x08000ae4                __cmpdf2
                0x08000b60                __aeabi_cdrcmple
                0x08000b70                __aeabi_cdcmpeq
                0x08000b70                __aeabi_cdcmple
                0x08000b80                __aeabi_dcmpeq
                0x08000b94                __aeabi_dcmplt
                0x08000ba8                __aeabi_dcmple
                0x08000bbc                __aeabi_dcmpge
                0x08000bd0                __aeabi_dcmpgt
 .text          0x08000be4       0x2c c:/gcc-arm-none-eabi/bin/../lib/gcc/arm-none-eabi/10.3.1/thumb/v7-m/nofp\libgcc.a(_arm_unorddf2.o)
                0x08000be4                __unorddf2
                0x08000be4                __aeabi_dcmpun
 .text          0x08000c10       0x50 c:/gcc-arm-none-eabi/bin/../lib/gcc/arm-none-eabi/10.3.1/thumb/v7-m/nofp\libgcc.a(_arm_fixdfsi.o)
                0x08000c10                __aeabi_d2iz
                0x08000c10                __fixdfsi
 *(.text*)
 .text.main     0x08000c60       0x50 build/main.o
                0x08000c60                main
 .text.led1_thread_entry
                0x08000cb0       0x30 build/main.o
 .text.NMI_Handler
                0x08000ce0        0xc build/stm32f10x_it.o
                0x08000ce0                NMI_Handler
 .text.MemManage_Handler
                0x08000cec        0x6 build/stm32f10x_it.o
                0x08000cec                MemManage_Handler
 .text.BusFault_Handler
                0x08000cf2        0x6 build/stm32f10x_it.o
                0x08000cf2                BusFault_Handler
 .text.UsageFault_Handler
                0x08000cf8        0x6 build/stm32f10x_it.o
                0x08000cf8                UsageFault_Handler
 .text.SVC_Handler
                0x08000cfe        0xc build/stm32f10x_it.o
                0x08000cfe                SVC_Handler
 .text.DebugMon_Handler
                0x08000d0a        0xc build/stm32f10x_it.o
                0x08000d0a                DebugMon_Handler
 *fill*         0x08000d16        0x2 
 .text.NVIC_SetPriority
                0x08000d18       0x54 build/board.o
 .text.SysTick_Config
                0x08000d6c       0x44 build/board.o
 .text.rt_heap_begin_get
                0x08000db0       0x14 build/board.o
                0x08000db0                rt_heap_begin_get
 .text.rt_heap_end_get
                0x08000dc4       0x14 build/board.o
                0x08000dc4                rt_heap_end_get
 .text.rt_hw_board_init
                0x08000dd8       0x44 build/board.o
                0x08000dd8                rt_hw_board_init
 .text.rt_hw_console_output
                0x08000e1c       0x68 build/board.o
                0x08000e1c                rt_hw_console_output
 .text.SysTick_Handler
                0x08000e84       0x14 build/board.o
                0x08000e84                SysTick_Handler
 .text.LED_GPIO_Config
                0x08000e98       0x30 build/bsp_led.o
                0x08000e98                LED_GPIO_Config
 .text.USART_Config
                0x08000ec8       0x84 build/bsp_debug_usart.o
                0x08000ec8                USART_Config
 .text._write   0x08000f4c       0x50 build/bsp_debug_usart.o
                0x08000f4c                _write
 .text.SystemInit
                0x08000f9c       0x68 build/system_stm32f10x.o
                0x08000f9c                SystemInit
 .text.SetSysClock
                0x08001004        0xc build/system_stm32f10x.o
 .text.SetSysClockTo72
                0x08001010      0x100 build/system_stm32f10x.o
 .text.GPIO_Init
                0x08001110      0x178 build/stm32f10x_gpio.o
                0x08001110                GPIO_Init
 .text.GPIO_SetBits
                0x08001288       0x1c build/stm32f10x_gpio.o
                0x08001288                GPIO_SetBits
 .text.GPIO_ResetBits
                0x080012a4       0x1c build/stm32f10x_gpio.o
                0x080012a4                GPIO_ResetBits
 .text.RCC_GetClocksFreq
                0x080012c0      0x16c build/stm32f10x_rcc.o
                0x080012c0                RCC_GetClocksFreq
 .text.RCC_APB2PeriphClockCmd
                0x0800142c       0x3c build/stm32f10x_rcc.o
                0x0800142c                RCC_APB2PeriphClockCmd
 .text.USART_Init
                0x08001468      0x174 build/stm32f10x_usart.o
                0x08001468                USART_Init
 .text.USART_Cmd
                0x080015dc       0x3e build/stm32f10x_usart.o
                0x080015dc                USART_Cmd
 .text.USART_SendData
                0x0800161a       0x22 build/stm32f10x_usart.o
                0x0800161a                USART_SendData
 .text.USART_ReceiveData
                0x0800163c       0x1e build/stm32f10x_usart.o
                0x0800163c                USART_ReceiveData
 .text.USART_GetFlagStatus
                0x0800165a       0x36 build/stm32f10x_usart.o
                0x0800165a                USART_GetFlagStatus
 .text.USART_ClearFlag
                0x08001690       0x20 build/stm32f10x_usart.o
                0x08001690                USART_ClearFlag
 .text.rt_list_isempty
                0x080016b0       0x22 build/cmd.o
 .text.rt_list_len
                0x080016d2       0x34 build/cmd.o
 *fill*         0x08001706        0x2 
 .text.hello    0x08001708       0x14 build/cmd.o
                0x08001708                hello
 .text.version  0x0800171c        0xe build/cmd.o
                0x0800171c                version
 *fill*         0x0800172a        0x2 
 .text.object_split
                0x0800172c       0x28 build/cmd.o
 .text.list_find_init
                0x08001754       0x46 build/cmd.o
 .text.list_get_next
                0x0800179a       0xc6 build/cmd.o
 .text.list_thread
                0x08001860      0x208 build/cmd.o
                0x08001860                list_thread
 .text.show_wait_queue
                0x08001a68       0x50 build/cmd.o
 .text.list_sem
                0x08001ab8      0x128 build/cmd.o
                0x08001ab8                list_sem
 .text.list_mailbox
                0x08001be0      0x138 build/cmd.o
                0x08001be0                list_mailbox
 .text.list_timer
                0x08001d18      0x104 build/cmd.o
                0x08001d18                list_timer
 .text.list     0x08001e1c       0x6c build/cmd.o
                0x08001e1c                list
 .text.rt_hw_console_getchar
                0x08001e88       0x5c build/finsh_port.o
                0x08001e88                rt_hw_console_getchar
 .text.msh_is_used
                0x08001ee4        0xe build/msh.o
                0x08001ee4                msh_is_used
 *fill*         0x08001ef2        0x2 
 .text.msh_help
                0x08001ef4       0x7c build/msh.o
                0x08001ef4                msh_help
 .text.cmd_ps   0x08001f70       0x18 build/msh.o
                0x08001f70                cmd_ps
 .text.cmd_free
                0x08001f88       0x18 build/msh.o
                0x08001f88                cmd_free
 .text.msh_split
                0x08001fa0      0x170 build/msh.o
 .text.msh_get_cmd
                0x08002110       0x80 build/msh.o
 .text._msh_exec_cmd
                0x08002190       0xa2 build/msh.o
 *fill*         0x08002232        0x2 
 .text.msh_exec
                0x08002234       0x8c build/msh.o
                0x08002234                msh_exec
 .text.str_common
                0x080022c0       0x48 build/msh.o
 .text.msh_auto_complete
                0x08002308       0xd0 build/msh.o
                0x08002308                msh_auto_complete
 .text.finsh_get_prompt
                0x080023d8       0xa0 build/shell.o
                0x080023d8                finsh_get_prompt
 .text.finsh_set_prompt_mode
                0x08002478       0x30 build/shell.o
                0x08002478                finsh_set_prompt_mode
 .text.finsh_getchar
                0x080024a8        0xe build/shell.o
 *fill*         0x080024b6        0x2 
 .text.shell_auto_complete
                0x080024b8       0x40 build/shell.o
 .text.finsh_thread_entry
                0x080024f8      0x488 build/shell.o
                0x080024f8                finsh_thread_entry
 .text.finsh_system_function_init
                0x08002980       0x28 build/shell.o
                0x08002980                finsh_system_function_init
 .text.finsh_system_var_init
                0x080029a8       0x28 build/shell.o
                0x080029a8                finsh_system_var_init
 .text.finsh_system_init
                0x080029d0       0xac build/shell.o
                0x080029d0                finsh_system_init
 .text.rt_hw_stack_init
                0x08002a7c       0x88 build/cpuport.o
                0x08002a7c                rt_hw_stack_init
 .text.usage_fault_track
                0x08002b04       0xc4 build/cpuport.o
 .text.bus_fault_track
                0x08002bc8       0xcc build/cpuport.o
 .text.mem_manage_fault_track
                0x08002c94       0xb4 build/cpuport.o
 .text.hard_fault_track
                0x08002d48       0x78 build/cpuport.o
 .text.rt_hw_hard_fault_exception
                0x08002dc0      0x168 build/cpuport.o
                0x08002dc0                rt_hw_hard_fault_exception
 .text.rt_tick_get
                0x08002f28       0x14 build/clock.o
                0x08002f28                rt_tick_get
 .text.rt_tick_increase
                0x08002f3c       0x44 build/clock.o
                0x08002f3c                rt_tick_increase
 .text.rt_tick_from_millisecond
                0x08002f80       0x78 build/clock.o
                0x08002f80                rt_tick_from_millisecond
 .text.rti_start
                0x08002ff8        0xe build/components.o
 .text.rti_board_start
                0x08003006        0xe build/components.o
 .text.rti_board_end
                0x08003014        0xe build/components.o
 .text.rti_end  0x08003022        0xe build/components.o
 .text.rt_components_board_init
                0x08003030       0x34 build/components.o
                0x08003030                rt_components_board_init
 .text.rt_components_init
                0x08003064       0x34 build/components.o
                0x08003064                rt_components_init
 .text.entry    0x08003098        0xe build/components.o
                0x08003098                entry
 .text.main_thread_entry
                0x080030a6       0x18 build/components.o
                0x080030a6                main_thread_entry
 *fill*         0x080030be        0x2 
 .text.rt_application_init
                0x080030c0       0x34 build/components.o
                0x080030c0                rt_application_init
 .text.rtthread_startup
                0x080030f4       0x2e build/components.o
                0x080030f4                rtthread_startup
 .text.rt_list_remove
                0x08003122       0x34 build/idle.o
 *fill*         0x08003156        0x2 
 .text._has_defunct_thread
                0x08003158       0x28 build/idle.o
 .text.rt_thread_idle_excute
                0x08003180       0x54 build/idle.o
                0x08003180                rt_thread_idle_excute
 .text.rt_thread_idle_entry
                0x080031d4        0xe build/idle.o
 *fill*         0x080031e2        0x2 
 .text.rt_thread_idle_init
                0x080031e4       0x40 build/idle.o
                0x080031e4                rt_thread_idle_init
 .text.rt_list_init
                0x08003224       0x20 build/ipc.o
 .text.rt_list_insert_before
                0x08003244       0x30 build/ipc.o
 .text.rt_list_isempty
                0x08003274       0x22 build/ipc.o
 .text.rt_ipc_object_init
                0x08003296       0x1c build/ipc.o
 .text.rt_ipc_list_suspend
                0x080032b2       0x8e build/ipc.o
 .text.rt_ipc_list_resume
                0x08003340       0x20 build/ipc.o
 .text.rt_sem_init
                0x08003360       0x3a build/ipc.o
                0x08003360                rt_sem_init
 .text.rt_sem_take
                0x0800339a       0x9c build/ipc.o
                0x0800339a                rt_sem_take
 .text.rt_sem_release
                0x08003436       0x6c build/ipc.o
                0x08003436                rt_sem_release
 *fill*         0x080034a2        0x2 
 .text.rt_interrupt_enter
                0x080034a4       0x2c build/irq.o
                0x080034a4                rt_interrupt_enter
 .text.rt_interrupt_leave
                0x080034d0       0x2c build/irq.o
                0x080034d0                rt_interrupt_leave
 .text.rt_memset
                0x080034fc       0xb4 build/kservice.o
                0x080034fc                rt_memset
 .text.rt_memmove
                0x080035b0       0x80 build/kservice.o
                0x080035b0                rt_memmove
 .text.rt_strncpy
                0x08003630       0x62 build/kservice.o
                0x08003630                rt_strncpy
 *fill*         0x08003692        0x2 
 .text.rt_show_version
                0x08003694       0x44 build/kservice.o
                0x08003694                rt_show_version
 .text.divide   0x080036d8       0x68 build/kservice.o
 .text.skip_atoi
                0x08003740       0x40 build/kservice.o
 .text.print_number
                0x08003780      0x1d8 build/kservice.o
 .text.rt_vsnprintf
                0x08003958      0x4ac build/kservice.o
                0x08003958                rt_vsnprintf
 .text.rt_kprintf
                0x08003e04       0x40 build/kservice.o
                0x08003e04                rt_kprintf
 .text.__rt_ffs
                0x08003e44       0x70 build/kservice.o
                0x08003e44                __rt_ffs
 .text.plug_holes
                0x08003eb4       0xbc build/mem.o
 .text.rt_system_heap_init
                0x08003f70       0xe4 build/mem.o
                0x08003f70                rt_system_heap_init
 .text.rt_malloc
                0x08004054      0x1c4 build/mem.o
                0x08004054                rt_malloc
 .text.rt_calloc
                0x08004218       0x3c build/mem.o
                0x08004218                rt_calloc
 .text.rt_free  0x08004254       0xcc build/mem.o
                0x08004254                rt_free
 .text.list_mem
                0x08004320       0x44 build/mem.o
                0x08004320                list_mem
 .text.rt_list_insert_after
                0x08004364       0x30 build/object.o
 .text.rt_list_remove
                0x08004394       0x34 build/object.o
 .text.rt_object_get_information
                0x080043c8       0x48 build/object.o
                0x080043c8                rt_object_get_information
 .text.rt_object_init
                0x08004410       0x7e build/object.o
                0x08004410                rt_object_init
 .text.rt_object_detach
                0x0800448e       0x2c build/object.o
                0x0800448e                rt_object_detach
 .text.rt_object_allocate
                0x080044ba       0x78 build/object.o
                0x080044ba                rt_object_allocate
 .text.rt_object_delete
                0x08004532       0x32 build/object.o
                0x08004532                rt_object_delete
 .text.rt_object_is_systemobject
                0x08004564       0x22 build/object.o
                0x08004564                rt_object_is_systemobject
 .text.rt_list_init
                0x08004586       0x20 build/scheduler.o
 .text.rt_list_insert_before
                0x080045a6       0x30 build/scheduler.o
 .text.rt_list_remove
                0x080045d6       0x34 build/scheduler.o
 .text.rt_list_isempty
                0x0800460a       0x22 build/scheduler.o
 .text.rt_system_scheduler_init
                0x0800462c       0x54 build/scheduler.o
                0x0800462c                rt_system_scheduler_init
 .text.rt_system_scheduler_start
                0x08004680       0x3c build/scheduler.o
                0x08004680                rt_system_scheduler_start
 .text.rt_schedule
                0x080046bc       0xa8 build/scheduler.o
                0x080046bc                rt_schedule
 .text.rt_schedule_insert_thread
                0x08004764       0x68 build/scheduler.o
                0x08004764                rt_schedule_insert_thread
 .text.rt_schedule_remove_thread
                0x080047cc       0x58 build/scheduler.o
                0x080047cc                rt_schedule_remove_thread
 .text.rt_enter_critical
                0x08004824       0x2c build/scheduler.o
                0x08004824                rt_enter_critical
 .text.rt_exit_critical
                0x08004850       0x54 build/scheduler.o
                0x08004850                rt_exit_critical
 .text.rt_list_init
                0x080048a4       0x20 build/thread.o
 .text.rt_list_insert_after
                0x080048c4       0x30 build/thread.o
 .text.rt_list_insert_before
                0x080048f4       0x30 build/thread.o
 .text.rt_list_remove
                0x08004924       0x34 build/thread.o
 .text._thread_cleanup_execute
                0x08004958       0x2c build/thread.o
 .text.rt_thread_exit
                0x08004984       0x6c build/thread.o
                0x08004984                rt_thread_exit
 .text._rt_thread_init
                0x080049f0       0xcc build/thread.o
 .text.rt_thread_init
                0x08004abc       0x40 build/thread.o
                0x08004abc                rt_thread_init
 .text.rt_thread_self
                0x08004afc       0x14 build/thread.o
                0x08004afc                rt_thread_self
 .text.rt_thread_startup
                0x08004b10       0x4c build/thread.o
                0x08004b10                rt_thread_startup
 .text.rt_thread_create
                0x08004b5c       0x62 build/thread.o
                0x08004b5c                rt_thread_create
 *fill*         0x08004bbe        0x2 
 .text.rt_thread_yield
                0x08004bc0       0x74 build/thread.o
                0x08004bc0                rt_thread_yield
 .text.rt_thread_sleep
                0x08004c34       0x5c build/thread.o
                0x08004c34                rt_thread_sleep
 .text.rt_thread_delay
                0x08004c90       0x18 build/thread.o
                0x08004c90                rt_thread_delay
 .text.rt_thread_mdelay
                0x08004ca8       0x20 build/thread.o
                0x08004ca8                rt_thread_mdelay
 .text.rt_thread_suspend
                0x08004cc8       0x5e build/thread.o
                0x08004cc8                rt_thread_suspend
 .text.rt_thread_resume
                0x08004d26       0x4c build/thread.o
                0x08004d26                rt_thread_resume
 .text.rt_thread_timeout
                0x08004d72       0x30 build/thread.o
                0x08004d72                rt_thread_timeout
 .text.rt_list_init
                0x08004da2       0x20 build/timer.o
 .text.rt_list_insert_after
                0x08004dc2       0x30 build/timer.o
 .text.rt_list_remove
                0x08004df2       0x34 build/timer.o
 .text.rt_list_isempty
                0x08004e26       0x22 build/timer.o
 .text._rt_timer_init
                0x08004e48       0x6a build/timer.o
 .text._rt_timer_remove
                0x08004eb2       0x36 build/timer.o
 .text.rt_timer_init
                0x08004ee8       0x30 build/timer.o
                0x08004ee8                rt_timer_init
 .text.rt_timer_detach
                0x08004f18       0x38 build/timer.o
                0x08004f18                rt_timer_detach
 .text.rt_timer_start
                0x08004f50      0x178 build/timer.o
                0x08004f50                rt_timer_start
 .text.rt_timer_stop
                0x080050c8       0x44 build/timer.o
                0x080050c8                rt_timer_stop
 .text.rt_timer_control
                0x0800510c       0x98 build/timer.o
                0x0800510c                rt_timer_control
 .text.rt_timer_check
                0x080051a4       0xe0 build/timer.o
                0x080051a4                rt_timer_check
 .text.rt_system_timer_init
                0x08005284       0x34 build/timer.o
                0x08005284                rt_system_timer_init
 .text.rt_system_timer_thread_init
                0x080052b8        0xc build/timer.o
                0x080052b8                rt_system_timer_thread_init
 .text.Reset_Handler
                0x080052c4       0x48 build/startup_stm32f10x_hd.o
                0x080052c4                Reset_Handler
 .text.Default_Handler
                0x0800530c        0x2 build/startup_stm32f10x_hd.o
                0x0800530c                EXTI2_IRQHandler
                0x0800530c                TIM8_TRG_COM_IRQHandler
                0x0800530c                TIM8_CC_IRQHandler
                0x0800530c                TIM1_CC_IRQHandler
                0x0800530c                TIM6_IRQHandler
                0x0800530c                PVD_IRQHandler
                0x0800530c                SDIO_IRQHandler
                0x0800530c                EXTI3_IRQHandler
                0x0800530c                EXTI0_IRQHandler
                0x0800530c                I2C2_EV_IRQHandler
                0x0800530c                ADC1_2_IRQHandler
                0x0800530c                SPI1_IRQHandler
                0x0800530c                TAMPER_IRQHandler
                0x0800530c                TIM8_UP_IRQHandler
                0x0800530c                DMA2_Channel2_IRQHandler
                0x0800530c                DMA1_Channel4_IRQHandler
                0x0800530c                USART3_IRQHandler
                0x0800530c                RTC_IRQHandler
                0x0800530c                DMA1_Channel7_IRQHandler
                0x0800530c                CAN1_RX1_IRQHandler
                0x0800530c                UART5_IRQHandler
                0x0800530c                ADC3_IRQHandler
                0x0800530c                TIM4_IRQHandler
                0x0800530c                DMA2_Channel1_IRQHandler
                0x0800530c                I2C1_EV_IRQHandler
                0x0800530c                DMA1_Channel6_IRQHandler
                0x0800530c                UART4_IRQHandler
                0x0800530c                TIM3_IRQHandler
                0x0800530c                RCC_IRQHandler
                0x0800530c                TIM1_TRG_COM_IRQHandler
                0x0800530c                DMA1_Channel1_IRQHandler
                0x0800530c                Default_Handler
                0x0800530c                EXTI15_10_IRQHandler
                0x0800530c                TIM7_IRQHandler
                0x0800530c                TIM5_IRQHandler
                0x0800530c                EXTI9_5_IRQHandler
                0x0800530c                SPI2_IRQHandler
                0x0800530c                DMA1_Channel5_IRQHandler
                0x0800530c                EXTI4_IRQHandler
                0x0800530c                USB_LP_CAN1_RX0_IRQHandler
                0x0800530c                USB_HP_CAN1_TX_IRQHandler
                0x0800530c                DMA1_Channel3_IRQHandler
                0x0800530c                FSMC_IRQHandler
                0x0800530c                TIM1_UP_IRQHandler
                0x0800530c                WWDG_IRQHandler
                0x0800530c                TIM2_IRQHandler
                0x0800530c                TIM1_BRK_IRQHandler
                0x0800530c                EXTI1_IRQHandler
                0x0800530c                RTCAlarm_IRQHandler
                0x0800530c                DMA2_Channel4_5_IRQHandler
                0x0800530c                USART2_IRQHandler
                0x0800530c                I2C2_ER_IRQHandler
                0x0800530c                DMA1_Channel2_IRQHandler
                0x0800530c                TIM8_BRK_IRQHandler
                0x0800530c                CAN1_SCE_IRQHandler
                0x0800530c                FLASH_IRQHandler
                0x0800530c                USART1_IRQHandler
                0x0800530c                SPI3_IRQHandler
                0x0800530c                I2C1_ER_IRQHandler
                0x0800530c                USBWakeUp_IRQHandler
                0x0800530c                DMA2_Channel3_IRQHandler
 *fill*         0x0800530e        0x2 
 .text.__libc_init_array
                0x08005310       0x48 c:/gcc-arm-none-eabi/bin/../lib/gcc/arm-none-eabi/10.3.1/../../../../arm-none-eabi/lib/thumb/v7-m/nofp\libc_nano.a(lib_a-init.o)
                0x08005310                __libc_init_array
 .text.memcpy   0x08005358       0x1c c:/gcc-arm-none-eabi/bin/../lib/gcc/arm-none-eabi/10.3.1/../../../../arm-none-eabi/lib/thumb/v7-m/nofp\libc_nano.a(lib_a-memcpy-stub.o)
                0x08005358                memcpy
 .text.memset   0x08005374       0x10 c:/gcc-arm-none-eabi/bin/../lib/gcc/arm-none-eabi/10.3.1/../../../../arm-none-eabi/lib/thumb/v7-m/nofp\libc_nano.a(lib_a-memset.o)
                0x08005374                memset
 .text.__cvt    0x08005384       0xbe c:/gcc-arm-none-eabi/bin/../lib/gcc/arm-none-eabi/10.3.1/../../../../arm-none-eabi/lib/thumb/v7-m/nofp\libc_nano.a(lib_a-nano-vfprintf_float.o)
                0x08005384                __cvt
 .text.__exponent
                0x08005442       0x7c c:/gcc-arm-none-eabi/bin/../lib/gcc/arm-none-eabi/10.3.1/../../../../arm-none-eabi/lib/thumb/v7-m/nofp\libc_nano.a(lib_a-nano-vfprintf_float.o)
                0x08005442                __exponent
 *fill*         0x080054be        0x2 
 .text._printf_float
                0x080054c0      0x458 c:/gcc-arm-none-eabi/bin/../lib/gcc/arm-none-eabi/10.3.1/../../../../arm-none-eabi/lib/thumb/v7-m/nofp\libc_nano.a(lib_a-nano-vfprintf_float.o)
                0x080054c0                _printf_float
 .text._printf_common
                0x08005918       0xde c:/gcc-arm-none-eabi/bin/../lib/gcc/arm-none-eabi/10.3.1/../../../../arm-none-eabi/lib/thumb/v7-m/nofp\libc_nano.a(lib_a-nano-vfprintf_i.o)
                0x08005918                _printf_common
 *fill*         0x080059f6        0x2 
 .text._printf_i
                0x080059f8      0x24c c:/gcc-arm-none-eabi/bin/../lib/gcc/arm-none-eabi/10.3.1/../../../../arm-none-eabi/lib/thumb/v7-m/nofp\libc_nano.a(lib_a-nano-vfprintf_i.o)
                0x080059f8                _printf_i
 .text.strncmp  0x08005c44       0x28 c:/gcc-arm-none-eabi/bin/../lib/gcc/arm-none-eabi/10.3.1/../../../../arm-none-eabi/lib/thumb/v7-m/nofp\libc_nano.a(lib_a-strncmp.o)
                0x08005c44                strncmp
 .text.strncpy  0x08005c6c       0x26 c:/gcc-arm-none-eabi/bin/../lib/gcc/arm-none-eabi/10.3.1/../../../../arm-none-eabi/lib/thumb/v7-m/nofp\libc_nano.a(lib_a-strncpy.o)
                0x08005c6c                strncpy
 .text.quorem   0x08005c92      0x118 c:/gcc-arm-none-eabi/bin/../lib/gcc/arm-none-eabi/10.3.1/../../../../arm-none-eabi/lib/thumb/v7-m/nofp\libc_nano.a(lib_a-dtoa.o)
 *fill*         0x08005daa        0x6 
 .text._dtoa_r  0x08005db0      0xbdc c:/gcc-arm-none-eabi/bin/../lib/gcc/arm-none-eabi/10.3.1/../../../../arm-none-eabi/lib/thumb/v7-m/nofp\libc_nano.a(lib_a-dtoa.o)
                0x08005db0                _dtoa_r
 .text._localeconv_r
                0x0800698c        0x8 c:/gcc-arm-none-eabi/bin/../lib/gcc/arm-none-eabi/10.3.1/../../../../arm-none-eabi/lib/thumb/v7-m/nofp\libc_nano.a(lib_a-localeconv.o)
                0x0800698c                _localeconv_r
 .text.malloc   0x08006994       0x10 c:/gcc-arm-none-eabi/bin/../lib/gcc/arm-none-eabi/10.3.1/../../../../arm-none-eabi/lib/thumb/v7-m/nofp\libc_nano.a(lib_a-malloc.o)
                0x08006994                malloc
 .text.memchr   0x080069a4       0x1c c:/gcc-arm-none-eabi/bin/../lib/gcc/arm-none-eabi/10.3.1/../../../../arm-none-eabi/lib/thumb/v7-m/nofp\libc_nano.a(lib_a-memchr-stub.o)
                0x080069a4                memchr
 .text._Balloc  0x080069c0       0x80 c:/gcc-arm-none-eabi/bin/../lib/gcc/arm-none-eabi/10.3.1/../../../../arm-none-eabi/lib/thumb/v7-m/nofp\libc_nano.a(lib_a-mprec.o)
                0x080069c0                _Balloc
 .text._Bfree   0x08006a40       0x44 c:/gcc-arm-none-eabi/bin/../lib/gcc/arm-none-eabi/10.3.1/../../../../arm-none-eabi/lib/thumb/v7-m/nofp\libc_nano.a(lib_a-mprec.o)
                0x08006a40                _Bfree
 .text.__multadd
                0x08006a84       0x8c c:/gcc-arm-none-eabi/bin/../lib/gcc/arm-none-eabi/10.3.1/../../../../arm-none-eabi/lib/thumb/v7-m/nofp\libc_nano.a(lib_a-mprec.o)
                0x08006a84                __multadd
 .text.__hi0bits
                0x08006b10       0x40 c:/gcc-arm-none-eabi/bin/../lib/gcc/arm-none-eabi/10.3.1/../../../../arm-none-eabi/lib/thumb/v7-m/nofp\libc_nano.a(lib_a-mprec.o)
                0x08006b10                __hi0bits
 .text.__lo0bits
                0x08006b50       0x5a c:/gcc-arm-none-eabi/bin/../lib/gcc/arm-none-eabi/10.3.1/../../../../arm-none-eabi/lib/thumb/v7-m/nofp\libc_nano.a(lib_a-mprec.o)
                0x08006b50                __lo0bits
 *fill*         0x08006baa        0x2 
 .text.__i2b    0x08006bac       0x2c c:/gcc-arm-none-eabi/bin/../lib/gcc/arm-none-eabi/10.3.1/../../../../arm-none-eabi/lib/thumb/v7-m/nofp\libc_nano.a(lib_a-mprec.o)
                0x08006bac                __i2b
 .text.__multiply
                0x08006bd8      0x150 c:/gcc-arm-none-eabi/bin/../lib/gcc/arm-none-eabi/10.3.1/../../../../arm-none-eabi/lib/thumb/v7-m/nofp\libc_nano.a(lib_a-mprec.o)
                0x08006bd8                __multiply
 .text.__pow5mult
                0x08006d28       0xb4 c:/gcc-arm-none-eabi/bin/../lib/gcc/arm-none-eabi/10.3.1/../../../../arm-none-eabi/lib/thumb/v7-m/nofp\libc_nano.a(lib_a-mprec.o)
                0x08006d28                __pow5mult
 .text.__lshift
                0x08006ddc       0xe0 c:/gcc-arm-none-eabi/bin/../lib/gcc/arm-none-eabi/10.3.1/../../../../arm-none-eabi/lib/thumb/v7-m/nofp\libc_nano.a(lib_a-mprec.o)
                0x08006ddc                __lshift
 .text.__mcmp   0x08006ebc       0x36 c:/gcc-arm-none-eabi/bin/../lib/gcc/arm-none-eabi/10.3.1/../../../../arm-none-eabi/lib/thumb/v7-m/nofp\libc_nano.a(lib_a-mprec.o)
                0x08006ebc                __mcmp
 *fill*         0x08006ef2        0x2 
 .text.__mdiff  0x08006ef4      0x118 c:/gcc-arm-none-eabi/bin/../lib/gcc/arm-none-eabi/10.3.1/../../../../arm-none-eabi/lib/thumb/v7-m/nofp\libc_nano.a(lib_a-mprec.o)
                0x08006ef4                __mdiff
 .text.__d2b    0x0800700c       0xb8 c:/gcc-arm-none-eabi/bin/../lib/gcc/arm-none-eabi/10.3.1/../../../../arm-none-eabi/lib/thumb/v7-m/nofp\libc_nano.a(lib_a-mprec.o)
                0x0800700c                __d2b
 .text._calloc_r
                0x080070c4       0x28 c:/gcc-arm-none-eabi/bin/../lib/gcc/arm-none-eabi/10.3.1/../../../../arm-none-eabi/lib/thumb/v7-m/nofp\libc_nano.a(lib_a-nano-callocr.o)
                0x080070c4                _calloc_r
 .text._free_r  0x080070ec       0x90 c:/gcc-arm-none-eabi/bin/../lib/gcc/arm-none-eabi/10.3.1/../../../../arm-none-eabi/lib/thumb/v7-m/nofp\libc_nano.a(lib_a-nano-freer.o)
                0x080070ec                _free_r
 .text.sbrk_aligned
                0x0800717c       0x40 c:/gcc-arm-none-eabi/bin/../lib/gcc/arm-none-eabi/10.3.1/../../../../arm-none-eabi/lib/thumb/v7-m/nofp\libc_nano.a(lib_a-nano-mallocr.o)
 .text._malloc_r
                0x080071bc       0xe8 c:/gcc-arm-none-eabi/bin/../lib/gcc/arm-none-eabi/10.3.1/../../../../arm-none-eabi/lib/thumb/v7-m/nofp\libc_nano.a(lib_a-nano-mallocr.o)
                0x080071bc                _malloc_r
 .text._sbrk_r  0x080072a4       0x20 c:/gcc-arm-none-eabi/bin/../lib/gcc/arm-none-eabi/10.3.1/../../../../arm-none-eabi/lib/thumb/v7-m/nofp\libc_nano.a(lib_a-sbrkr.o)
                0x080072a4                _sbrk_r
 .text.__assert_func
                0x080072c4       0x3c c:/gcc-arm-none-eabi/bin/../lib/gcc/arm-none-eabi/10.3.1/../../../../arm-none-eabi/lib/thumb/v7-m/nofp\libc_nano.a(lib_a-assert.o)
                0x080072c4                __assert_func
 .text.fprintf  0x08007300       0x24 c:/gcc-arm-none-eabi/bin/../lib/gcc/arm-none-eabi/10.3.1/../../../../arm-none-eabi/lib/thumb/v7-m/nofp\libc_nano.a(lib_a-fprintf.o)
                0x08007300                fiprintf
                0x08007300                fprintf
 .text.__ascii_mbtowc
                0x08007324       0x24 c:/gcc-arm-none-eabi/bin/../lib/gcc/arm-none-eabi/10.3.1/../../../../arm-none-eabi/lib/thumb/v7-m/nofp\libc_nano.a(lib_a-mbtowc_r.o)
                0x08007324                __ascii_mbtowc
 .text.__malloc_lock
                0x08007348        0xc c:/gcc-arm-none-eabi/bin/../lib/gcc/arm-none-eabi/10.3.1/../../../../arm-none-eabi/lib/thumb/v7-m/nofp\libc_nano.a(lib_a-mlock.o)
                0x08007348                __malloc_lock
 .text.__malloc_unlock
                0x08007354        0xc c:/gcc-arm-none-eabi/bin/../lib/gcc/arm-none-eabi/10.3.1/../../../../arm-none-eabi/lib/thumb/v7-m/nofp\libc_nano.a(lib_a-mlock.o)
                0x08007354                __malloc_unlock
 .text.__sfputc_r
                0x08007360       0x2a c:/gcc-arm-none-eabi/bin/../lib/gcc/arm-none-eabi/10.3.1/../../../../arm-none-eabi/lib/thumb/v7-m/nofp\libc_nano.a(lib_a-nano-vfprintf.o)
 .text.__sfputs_r
                0x0800738a       0x24 c:/gcc-arm-none-eabi/bin/../lib/gcc/arm-none-eabi/10.3.1/../../../../arm-none-eabi/lib/thumb/v7-m/nofp\libc_nano.a(lib_a-nano-vfprintf.o)
                0x0800738a                __sfputs_r
 *fill*         0x080073ae        0x2 
 .text._vfprintf_r
                0x080073b0      0x260 c:/gcc-arm-none-eabi/bin/../lib/gcc/arm-none-eabi/10.3.1/../../../../arm-none-eabi/lib/thumb/v7-m/nofp\libc_nano.a(lib_a-nano-vfprintf.o)
                0x080073b0                _vfprintf_r
                0x080073b0                _vfiprintf_r
 .text.__swbuf_r
                0x08007610       0xa4 c:/gcc-arm-none-eabi/bin/../lib/gcc/arm-none-eabi/10.3.1/../../../../arm-none-eabi/lib/thumb/v7-m/nofp\libc_nano.a(lib_a-wbuf.o)
                0x08007610                __swbuf_r
 .text.__ascii_wctomb
                0x080076b4       0x1a c:/gcc-arm-none-eabi/bin/../lib/gcc/arm-none-eabi/10.3.1/../../../../arm-none-eabi/lib/thumb/v7-m/nofp\libc_nano.a(lib_a-wctomb_r.o)
                0x080076b4                __ascii_wctomb
 *fill*         0x080076ce        0x2 
 .text.__swsetup_r
                0x080076d0       0xdc c:/gcc-arm-none-eabi/bin/../lib/gcc/arm-none-eabi/10.3.1/../../../../arm-none-eabi/lib/thumb/v7-m/nofp\libc_nano.a(lib_a-wsetup.o)
                0x080076d0                __swsetup_r
 .text.abort    0x080077ac        0xe c:/gcc-arm-none-eabi/bin/../lib/gcc/arm-none-eabi/10.3.1/../../../../arm-none-eabi/lib/thumb/v7-m/nofp\libc_nano.a(lib_a-abort.o)
                0x080077ac                abort
 *fill*         0x080077ba        0x2 
 .text.__sflush_r
                0x080077bc      0x104 c:/gcc-arm-none-eabi/bin/../lib/gcc/arm-none-eabi/10.3.1/../../../../arm-none-eabi/lib/thumb/v7-m/nofp\libc_nano.a(lib_a-fflush.o)
                0x080077bc                __sflush_r
 .text._fflush_r
                0x080078c0       0x78 c:/gcc-arm-none-eabi/bin/../lib/gcc/arm-none-eabi/10.3.1/../../../../arm-none-eabi/lib/thumb/v7-m/nofp\libc_nano.a(lib_a-fflush.o)
                0x080078c0                _fflush_r
 .text.std      0x08007938       0x48 c:/gcc-arm-none-eabi/bin/../lib/gcc/arm-none-eabi/10.3.1/../../../../arm-none-eabi/lib/thumb/v7-m/nofp\libc_nano.a(lib_a-findfp.o)
 .text._cleanup_r
                0x08007980        0xc c:/gcc-arm-none-eabi/bin/../lib/gcc/arm-none-eabi/10.3.1/../../../../arm-none-eabi/lib/thumb/v7-m/nofp\libc_nano.a(lib_a-findfp.o)
                0x08007980                _cleanup_r
 .text.__sfmoreglue
                0x0800798c       0x2c c:/gcc-arm-none-eabi/bin/../lib/gcc/arm-none-eabi/10.3.1/../../../../arm-none-eabi/lib/thumb/v7-m/nofp\libc_nano.a(lib_a-findfp.o)
                0x0800798c                __sfmoreglue
 .text.__sfp_lock_acquire
                0x080079b8        0xc c:/gcc-arm-none-eabi/bin/../lib/gcc/arm-none-eabi/10.3.1/../../../../arm-none-eabi/lib/thumb/v7-m/nofp\libc_nano.a(lib_a-findfp.o)
                0x080079b8                __sfp_lock_acquire
 .text.__sfp_lock_release
                0x080079c4        0xc c:/gcc-arm-none-eabi/bin/../lib/gcc/arm-none-eabi/10.3.1/../../../../arm-none-eabi/lib/thumb/v7-m/nofp\libc_nano.a(lib_a-findfp.o)
                0x080079c4                __sfp_lock_release
 .text.__sinit_lock_acquire
                0x080079d0        0xc c:/gcc-arm-none-eabi/bin/../lib/gcc/arm-none-eabi/10.3.1/../../../../arm-none-eabi/lib/thumb/v7-m/nofp\libc_nano.a(lib_a-findfp.o)
                0x080079d0                __sinit_lock_acquire
 .text.__sinit_lock_release
                0x080079dc        0xc c:/gcc-arm-none-eabi/bin/../lib/gcc/arm-none-eabi/10.3.1/../../../../arm-none-eabi/lib/thumb/v7-m/nofp\libc_nano.a(lib_a-findfp.o)
                0x080079dc                __sinit_lock_release
 .text.__sinit  0x080079e8       0x70 c:/gcc-arm-none-eabi/bin/../lib/gcc/arm-none-eabi/10.3.1/../../../../arm-none-eabi/lib/thumb/v7-m/nofp\libc_nano.a(lib_a-findfp.o)
                0x080079e8                __sinit
 .text.__sfp    0x08007a58       0x8c c:/gcc-arm-none-eabi/bin/../lib/gcc/arm-none-eabi/10.3.1/../../../../arm-none-eabi/lib/thumb/v7-m/nofp\libc_nano.a(lib_a-findfp.o)
                0x08007a58                __sfp
 .text._fwalk_reent
                0x08007ae4       0x3e c:/gcc-arm-none-eabi/bin/../lib/gcc/arm-none-eabi/10.3.1/../../../../arm-none-eabi/lib/thumb/v7-m/nofp\libc_nano.a(lib_a-fwalk.o)
                0x08007ae4                _fwalk_reent
 .text.__retarget_lock_init_recursive
                0x08007b22        0x2 c:/gcc-arm-none-eabi/bin/../lib/gcc/arm-none-eabi/10.3.1/../../../../arm-none-eabi/lib/thumb/v7-m/nofp\libc_nano.a(lib_a-lock.o)
                0x08007b22                __retarget_lock_init_recursive
 .text.__retarget_lock_acquire_recursive
                0x08007b24        0x2 c:/gcc-arm-none-eabi/bin/../lib/gcc/arm-none-eabi/10.3.1/../../../../arm-none-eabi/lib/thumb/v7-m/nofp\libc_nano.a(lib_a-lock.o)
                0x08007b24                __retarget_lock_acquire_recursive
 .text.__retarget_lock_release_recursive
                0x08007b26        0x2 c:/gcc-arm-none-eabi/bin/../lib/gcc/arm-none-eabi/10.3.1/../../../../arm-none-eabi/lib/thumb/v7-m/nofp\libc_nano.a(lib_a-lock.o)
                0x08007b26                __retarget_lock_release_recursive
 .text.__swhatbuf_r
                0x08007b28       0x4a c:/gcc-arm-none-eabi/bin/../lib/gcc/arm-none-eabi/10.3.1/../../../../arm-none-eabi/lib/thumb/v7-m/nofp\libc_nano.a(lib_a-makebuf.o)
                0x08007b28                __swhatbuf_r
 *fill*         0x08007b72        0x2 
 .text.__smakebuf_r
                0x08007b74       0x80 c:/gcc-arm-none-eabi/bin/../lib/gcc/arm-none-eabi/10.3.1/../../../../arm-none-eabi/lib/thumb/v7-m/nofp\libc_nano.a(lib_a-makebuf.o)
                0x08007b74                __smakebuf_r
 .text._raise_r
                0x08007bf4       0x50 c:/gcc-arm-none-eabi/bin/../lib/gcc/arm-none-eabi/10.3.1/../../../../arm-none-eabi/lib/thumb/v7-m/nofp\libc_nano.a(lib_a-signal.o)
                0x08007bf4                _raise_r
 .text.raise    0x08007c44       0x10 c:/gcc-arm-none-eabi/bin/../lib/gcc/arm-none-eabi/10.3.1/../../../../arm-none-eabi/lib/thumb/v7-m/nofp\libc_nano.a(lib_a-signal.o)
                0x08007c44                raise
 .text._kill_r  0x08007c54       0x24 c:/gcc-arm-none-eabi/bin/../lib/gcc/arm-none-eabi/10.3.1/../../../../arm-none-eabi/lib/thumb/v7-m/nofp\libc_nano.a(lib_a-signalr.o)
                0x08007c54                _kill_r
 .text._getpid_r
                0x08007c78        0x4 c:/gcc-arm-none-eabi/bin/../lib/gcc/arm-none-eabi/10.3.1/../../../../arm-none-eabi/lib/thumb/v7-m/nofp\libc_nano.a(lib_a-signalr.o)
                0x08007c78                _getpid_r
 .text.__sread  0x08007c7c       0x22 c:/gcc-arm-none-eabi/bin/../lib/gcc/arm-none-eabi/10.3.1/../../../../arm-none-eabi/lib/thumb/v7-m/nofp\libc_nano.a(lib_a-stdio.o)
                0x08007c7c                __sread
 .text.__swrite
                0x08007c9e       0x38 c:/gcc-arm-none-eabi/bin/../lib/gcc/arm-none-eabi/10.3.1/../../../../arm-none-eabi/lib/thumb/v7-m/nofp\libc_nano.a(lib_a-stdio.o)
                0x08007c9e                __swrite
 .text.__sseek  0x08007cd6       0x24 c:/gcc-arm-none-eabi/bin/../lib/gcc/arm-none-eabi/10.3.1/../../../../arm-none-eabi/lib/thumb/v7-m/nofp\libc_nano.a(lib_a-stdio.o)
                0x08007cd6                __sseek
 .text.__sclose
                0x08007cfa        0x8 c:/gcc-arm-none-eabi/bin/../lib/gcc/arm-none-eabi/10.3.1/../../../../arm-none-eabi/lib/thumb/v7-m/nofp\libc_nano.a(lib_a-stdio.o)
                0x08007cfa                __sclose
 *fill*         0x08007d02        0x2 
 .text._write_r
                0x08007d04       0x24 c:/gcc-arm-none-eabi/bin/../lib/gcc/arm-none-eabi/10.3.1/../../../../arm-none-eabi/lib/thumb/v7-m/nofp\libc_nano.a(lib_a-writer.o)
                0x08007d04                _write_r
 .text._close_r
                0x08007d28       0x20 c:/gcc-arm-none-eabi/bin/../lib/gcc/arm-none-eabi/10.3.1/../../../../arm-none-eabi/lib/thumb/v7-m/nofp\libc_nano.a(lib_a-closer.o)
                0x08007d28                _close_r
 .text._fstat_r
                0x08007d48       0x24 c:/gcc-arm-none-eabi/bin/../lib/gcc/arm-none-eabi/10.3.1/../../../../arm-none-eabi/lib/thumb/v7-m/nofp\libc_nano.a(lib_a-fstatr.o)
                0x08007d48                _fstat_r
 .text._isatty_r
                0x08007d6c       0x20 c:/gcc-arm-none-eabi/bin/../lib/gcc/arm-none-eabi/10.3.1/../../../../arm-none-eabi/lib/thumb/v7-m/nofp\libc_nano.a(lib_a-isattyr.o)
                0x08007d6c                _isatty_r
 .text._lseek_r
                0x08007d8c       0x24 c:/gcc-arm-none-eabi/bin/../lib/gcc/arm-none-eabi/10.3.1/../../../../arm-none-eabi/lib/thumb/v7-m/nofp\libc_nano.a(lib_a-lseekr.o)
                0x08007d8c                _lseek_r
 .text._read_r  0x08007db0       0x24 c:/gcc-arm-none-eabi/bin/../lib/gcc/arm-none-eabi/10.3.1/../../../../arm-none-eabi/lib/thumb/v7-m/nofp\libc_nano.a(lib_a-readr.o)
                0x08007db0                _read_r
 .text._close   0x08007dd4       0x10 c:/gcc-arm-none-eabi/bin/../lib/gcc/arm-none-eabi/10.3.1/../../../../arm-none-eabi/lib/thumb/v7-m/nofp\libnosys.a(close.o)
                0x08007dd4                _close
 .text._fstat   0x08007de4       0x10 c:/gcc-arm-none-eabi/bin/../lib/gcc/arm-none-eabi/10.3.1/../../../../arm-none-eabi/lib/thumb/v7-m/nofp\libnosys.a(fstat.o)
                0x08007de4                _fstat
 .text._getpid  0x08007df4       0x10 c:/gcc-arm-none-eabi/bin/../lib/gcc/arm-none-eabi/10.3.1/../../../../arm-none-eabi/lib/thumb/v7-m/nofp\libnosys.a(getpid.o)
                0x08007df4                _getpid
 .text._isatty  0x08007e04       0x10 c:/gcc-arm-none-eabi/bin/../lib/gcc/arm-none-eabi/10.3.1/../../../../arm-none-eabi/lib/thumb/v7-m/nofp\libnosys.a(isatty.o)
                0x08007e04                _isatty
 .text._kill    0x08007e14       0x10 c:/gcc-arm-none-eabi/bin/../lib/gcc/arm-none-eabi/10.3.1/../../../../arm-none-eabi/lib/thumb/v7-m/nofp\libnosys.a(kill.o)
                0x08007e14                _kill
 .text._lseek   0x08007e24       0x10 c:/gcc-arm-none-eabi/bin/../lib/gcc/arm-none-eabi/10.3.1/../../../../arm-none-eabi/lib/thumb/v7-m/nofp\libnosys.a(lseek.o)
                0x08007e24                _lseek
 .text._read    0x08007e34       0x10 c:/gcc-arm-none-eabi/bin/../lib/gcc/arm-none-eabi/10.3.1/../../../../arm-none-eabi/lib/thumb/v7-m/nofp\libnosys.a(read.o)
                0x08007e34                _read
 .text._sbrk    0x08007e44       0x1c c:/gcc-arm-none-eabi/bin/../lib/gcc/arm-none-eabi/10.3.1/../../../../arm-none-eabi/lib/thumb/v7-m/nofp\libnosys.a(sbrk.o)
                0x08007e44                _sbrk
 .text._exit    0x08007e60        0x4 c:/gcc-arm-none-eabi/bin/../lib/gcc/arm-none-eabi/10.3.1/../../../../arm-none-eabi/lib/thumb/v7-m/nofp\libnosys.a(_exit.o)
                0x08007e60                _exit
 *(.rodata)
 .rodata        0x08007e64        0x5 build/main.o
 *fill*         0x08007e69        0x3 
 .rodata        0x08007e6c      0x2bd build/cmd.o
 *fill*         0x08008129        0x3 
 .rodata        0x0800812c       0x74 build/msh.o
 .rodata        0x080081a0       0x5d build/shell.o
 *fill*         0x080081fd        0x3 
 .rodata        0x08008200      0x2b9 build/cpuport.o
 *fill*         0x080084b9        0x3 
 .rodata        0x080084bc        0x5 build/components.o
 *fill*         0x080084c1        0x3 
 .rodata        0x080084c4        0x6 build/idle.o
 *fill*         0x080084ca        0x2 
 .rodata        0x080084cc       0x8f build/kservice.o
 *fill*         0x0800855b        0x1 
 .rodata        0x0800855c       0xd6 build/mem.o
 *(.rodata*)
 *fill*         0x08008632        0x2 
 .rodata.name   0x08008634      0x1ca build/cmd.o
                0x08008634                __fsym_hello_name
                0x0800863c                __fsym_hello_desc
                0x0800864c                __fsym_version_name
                0x08008654                __fsym_version_desc
                0x08008678                __fsym___cmd_version_name
                0x08008688                __fsym___cmd_version_desc
                0x080086ac                __fsym_list_thread_name
                0x080086b8                __fsym_list_thread_desc
                0x080086c4                __fsym___cmd_list_thread_name
                0x080086d8                __fsym___cmd_list_thread_desc
                0x080086e4                __fsym_list_sem_name
                0x080086f0                __fsym_list_sem_desc
                0x0800870c                __fsym___cmd_list_sem_name
                0x0800871c                __fsym___cmd_list_sem_desc
                0x08008738                __fsym_list_mailbox_name
                0x08008748                __fsym_list_mailbox_desc
                0x08008760                __fsym___cmd_list_mailbox_name
                0x08008774                __fsym___cmd_list_mailbox_desc
                0x0800878c                __fsym_list_timer_name
                0x08008798                __fsym_list_timer_desc
                0x080087b0                __fsym___cmd_list_timer_name
                0x080087c4                __fsym___cmd_list_timer_desc
                0x080087dc                __fsym_list_name
                0x080087e4                __fsym_list_desc
 *fill*         0x080087fe        0x2 
 .rodata.name   0x08008800       0x7d build/msh.o
                0x08008800                __fsym___cmd_help_name
                0x0800880c                __fsym___cmd_help_desc
                0x08008824                __fsym___cmd_ps_name
                0x08008830                __fsym___cmd_ps_desc
                0x0800884c                __fsym___cmd_free_name
                0x08008858                __fsym___cmd_free_desc
 *fill*         0x0800887d        0x3 
 .rodata.__lowest_bit_bitmap
                0x08008880      0x100 build/kservice.o
                0x08008880                __lowest_bit_bitmap
 .rodata.large_digits.2
                0x08008980       0x11 build/kservice.o
 *fill*         0x08008991        0x3 
 .rodata.small_digits.1
                0x08008994       0x11 build/kservice.o
 *fill*         0x080089a5        0x3 
 .rodata.name   0x080089a8       0x2a build/mem.o
                0x080089a8                __fsym_list_mem_name
                0x080089b4                __fsym_list_mem_desc
 *fill*         0x080089d2        0x2 
 .rodata._global_impure_ptr
                0x080089d4        0x4 c:/gcc-arm-none-eabi/bin/../lib/gcc/arm-none-eabi/10.3.1/../../../../arm-none-eabi/lib/thumb/v7-m/nofp\libc_nano.a(lib_a-impure.o)
                0x080089d4                _global_impure_ptr
 .rodata._printf_float.str1.1
                0x080089d8       0x12 c:/gcc-arm-none-eabi/bin/../lib/gcc/arm-none-eabi/10.3.1/../../../../arm-none-eabi/lib/thumb/v7-m/nofp\libc_nano.a(lib_a-nano-vfprintf_float.o)
 .rodata._printf_i.str1.1
                0x080089ea       0x22 c:/gcc-arm-none-eabi/bin/../lib/gcc/arm-none-eabi/10.3.1/../../../../arm-none-eabi/lib/thumb/v7-m/nofp\libc_nano.a(lib_a-nano-vfprintf_i.o)
 .rodata._dtoa_r.str1.1
                0x08008a0c       0xb3 c:/gcc-arm-none-eabi/bin/../lib/gcc/arm-none-eabi/10.3.1/../../../../arm-none-eabi/lib/thumb/v7-m/nofp\libc_nano.a(lib_a-dtoa.o)
                                 0xb5 (size before relaxing)
 .rodata._Balloc.str1.1
                0x08008abf       0x7f c:/gcc-arm-none-eabi/bin/../lib/gcc/arm-none-eabi/10.3.1/../../../../arm-none-eabi/lib/thumb/v7-m/nofp\libc_nano.a(lib_a-mprec.o)
                                 0x96 (size before relaxing)
 .rodata.__multadd.str1.1
                0x08008b3e       0x11 c:/gcc-arm-none-eabi/bin/../lib/gcc/arm-none-eabi/10.3.1/../../../../arm-none-eabi/lib/thumb/v7-m/nofp\libc_nano.a(lib_a-mprec.o)
 *fill*         0x08008b3e        0x2 
 .rodata.__mprec_bigtens
                0x08008b40       0x28 c:/gcc-arm-none-eabi/bin/../lib/gcc/arm-none-eabi/10.3.1/../../../../arm-none-eabi/lib/thumb/v7-m/nofp\libc_nano.a(lib_a-mprec.o)
                0x08008b40                __mprec_bigtens
 .rodata.__mprec_tens
                0x08008b68       0xc8 c:/gcc-arm-none-eabi/bin/../lib/gcc/arm-none-eabi/10.3.1/../../../../arm-none-eabi/lib/thumb/v7-m/nofp\libc_nano.a(lib_a-mprec.o)
                0x08008b68                __mprec_tens
 .rodata.p05.0  0x08008c30        0xc c:/gcc-arm-none-eabi/bin/../lib/gcc/arm-none-eabi/10.3.1/../../../../arm-none-eabi/lib/thumb/v7-m/nofp\libc_nano.a(lib_a-mprec.o)
 .rodata.__assert_func.str1.1
                0x08008c3c       0x3c c:/gcc-arm-none-eabi/bin/../lib/gcc/arm-none-eabi/10.3.1/../../../../arm-none-eabi/lib/thumb/v7-m/nofp\libc_nano.a(lib_a-assert.o)
                                 0x3d (size before relaxing)
 .rodata._setlocale_r.str1.1
                0x08008c78        0x8 c:/gcc-arm-none-eabi/bin/../lib/gcc/arm-none-eabi/10.3.1/../../../../arm-none-eabi/lib/thumb/v7-m/nofp\libc_nano.a(lib_a-locale.o)
                                  0x9 (size before relaxing)
 .rodata.str1.1
                0x08008c80        0x2 c:/gcc-arm-none-eabi/bin/../lib/gcc/arm-none-eabi/10.3.1/../../../../arm-none-eabi/lib/thumb/v7-m/nofp\libc_nano.a(lib_a-locale.o)
 .rodata._vfprintf_r.str1.1
                0x08008c82       0x11 c:/gcc-arm-none-eabi/bin/../lib/gcc/arm-none-eabi/10.3.1/../../../../arm-none-eabi/lib/thumb/v7-m/nofp\libc_nano.a(lib_a-nano-vfprintf.o)
 .rodata._ctype_
                0x08008c93      0x101 c:/gcc-arm-none-eabi/bin/../lib/gcc/arm-none-eabi/10.3.1/../../../../arm-none-eabi/lib/thumb/v7-m/nofp\libc_nano.a(lib_a-ctype_.o)
                0x08008c93                _ctype_
 .rodata.__sf_fake_stderr
                0x08008d94       0x20 c:/gcc-arm-none-eabi/bin/../lib/gcc/arm-none-eabi/10.3.1/../../../../arm-none-eabi/lib/thumb/v7-m/nofp\libc_nano.a(lib_a-findfp.o)
                0x08008d94                __sf_fake_stderr
 .rodata.__sf_fake_stdin
                0x08008db4       0x20 c:/gcc-arm-none-eabi/bin/../lib/gcc/arm-none-eabi/10.3.1/../../../../arm-none-eabi/lib/thumb/v7-m/nofp\libc_nano.a(lib_a-findfp.o)
                0x08008db4                __sf_fake_stdin
 .rodata.__sf_fake_stdout
                0x08008dd4       0x20 c:/gcc-arm-none-eabi/bin/../lib/gcc/arm-none-eabi/10.3.1/../../../../arm-none-eabi/lib/thumb/v7-m/nofp\libc_nano.a(lib_a-findfp.o)
                0x08008dd4                __sf_fake_stdout
 *(.glue_7)
 .glue_7        0x08008df4        0x0 linker stubs
 *(.glue_7t)
 .glue_7t       0x08008df4        0x0 linker stubs
 *(.init)
 .init          0x08008df4        0x4 c:/gcc-arm-none-eabi/bin/../lib/gcc/arm-none-eabi/10.3.1/thumb/v7-m/nofp/crti.o
                0x08008df4                _init
 .init          0x08008df8        0x8 c:/gcc-arm-none-eabi/bin/../lib/gcc/arm-none-eabi/10.3.1/thumb/v7-m/nofp/crtn.o
 *(.fini)
 .fini          0x08008e00        0x4 c:/gcc-arm-none-eabi/bin/../lib/gcc/arm-none-eabi/10.3.1/thumb/v7-m/nofp/crti.o
                0x08008e00                _fini
 .fini          0x08008e04        0x8 c:/gcc-arm-none-eabi/bin/../lib/gcc/arm-none-eabi/10.3.1/thumb/v7-m/nofp/crtn.o
                0x08008e0c                . = ALIGN (0x4)
                0x08008e0c                __fsymtab_start = .
 *(FSymTab)
 FSymTab        0x08008e0c       0x90 build/cmd.o
                0x08008e0c                __fsym_hello
                0x08008e18                __fsym_version
                0x08008e24                __fsym___cmd_version
                0x08008e30                __fsym_list_thread
                0x08008e3c                __fsym___cmd_list_thread
                0x08008e48                __fsym_list_sem
                0x08008e54                __fsym___cmd_list_sem
                0x08008e60                __fsym_list_mailbox
                0x08008e6c                __fsym___cmd_list_mailbox
                0x08008e78                __fsym_list_timer
                0x08008e84                __fsym___cmd_list_timer
                0x08008e90                __fsym_list
 FSymTab        0x08008e9c       0x24 build/msh.o
                0x08008e9c                __fsym___cmd_help
                0x08008ea8                __fsym___cmd_ps
                0x08008eb4                __fsym___cmd_free
 FSymTab        0x08008ec0        0xc build/mem.o
                0x08008ec0                __fsym_list_mem
                0x08008ecc                __fsymtab_end = .
                0x08008ecc                . = ALIGN (0x4)
                0x08008ecc                __vsymtab_start = .
 *(VSymTab)
                0x08008ecc                __vsymtab_end = .
                0x08008ecc                . = ALIGN (0x4)
                0x08008ecc                __rt_utest_tc_tab_start = .
 *(UtestTcTab)
                0x08008ecc                __rt_utest_tc_tab_end = .
                0x08008ecc                . = ALIGN (0x4)
                0x08008ecc                __rtatcmdtab_start = .
 *(RtAtCmdTab)
                0x08008ecc                __rtatcmdtab_end = .
                0x08008ecc                . = ALIGN (0x4)
                0x08008ecc                . = ALIGN (0x4)
                0x08008ecc                __rt_init_start = .
 *(SORT_BY_NAME(.rti_fn*))
 .rti_fn.0      0x08008ecc        0x4 build/components.o
                0x08008ecc                __rt_init_rti_start
 .rti_fn.0.end  0x08008ed0        0x4 build/components.o
                0x08008ed0                __rt_init_rti_board_start
 .rti_fn.1.end  0x08008ed4        0x4 build/components.o
                0x08008ed4                __rt_init_rti_board_end
 .rti_fn.6      0x08008ed8        0x4 build/shell.o
                0x08008ed8                __rt_init_finsh_system_init
 .rti_fn.6.end  0x08008edc        0x4 build/components.o
                0x08008edc                __rt_init_rti_end
                0x08008ee0                __rt_init_end = .
                0x08008ee0                . = ALIGN (0x4)
                [!provide]                PROVIDE (__ctors_start__ = .)
 *(SORT_BY_NAME(.init_array.*))
 *(.init_array)
 .init_array    0x08008ee0        0x4 c:/gcc-arm-none-eabi/bin/../lib/gcc/arm-none-eabi/10.3.1/thumb/v7-m/nofp/crtbegin.o
                [!provide]                PROVIDE (__ctors_end__ = .)
                0x08008ee4                . = ALIGN (0x4)
                0x08008ee4                . = ALIGN (0x4)
                0x08008ee4                _etext = .

.vfp11_veneer   0x08008ee4        0x0
 .vfp11_veneer  0x08008ee4        0x0 linker stubs

.v4_bx          0x08008ee4        0x0
 .v4_bx         0x08008ee4        0x0 linker stubs

.iplt           0x08008ee4        0x0
 .iplt          0x08008ee4        0x0 c:/gcc-arm-none-eabi/bin/../lib/gcc/arm-none-eabi/10.3.1/thumb/v7-m/nofp/crtbegin.o

.rel.dyn        0x08008ee4        0x0
 .rel.iplt      0x08008ee4        0x0 c:/gcc-arm-none-eabi/bin/../lib/gcc/arm-none-eabi/10.3.1/thumb/v7-m/nofp/crtbegin.o

.ARM.extab
 *(.ARM.extab* .gnu.linkonce.armextab.*)

.ARM            0x08008ee4        0x0
                0x08008ee4                __exidx_start = .
 *(.ARM.exidx*)
                0x08008ee4                __exidx_end = .

.ARM.attributes
                0x08008ee4       0x29
 *(.ARM.attributes)
 .ARM.attributes
                0x08008ee4       0x1d c:/gcc-arm-none-eabi/bin/../lib/gcc/arm-none-eabi/10.3.1/thumb/v7-m/nofp/crti.o
 .ARM.attributes
                0x08008f01       0x2d c:/gcc-arm-none-eabi/bin/../lib/gcc/arm-none-eabi/10.3.1/thumb/v7-m/nofp/crtbegin.o
 .ARM.attributes
                0x08008f2e       0x2d build/main.o
 .ARM.attributes
                0x08008f5b       0x2d build/stm32f10x_it.o
 .ARM.attributes
                0x08008f88       0x2d build/board.o
 .ARM.attributes
                0x08008fb5       0x2d build/bsp_led.o
 .ARM.attributes
                0x08008fe2       0x2d build/bsp_debug_usart.o
 .ARM.attributes
                0x0800900f       0x2d build/system_stm32f10x.o
 .ARM.attributes
                0x0800903c       0x2d build/stm32f10x_gpio.o
 .ARM.attributes
                0x08009069       0x2d build/stm32f10x_rcc.o
 .ARM.attributes
                0x08009096       0x2d build/stm32f10x_usart.o
 .ARM.attributes
                0x080090c3       0x2d build/cmd.o
 .ARM.attributes
                0x080090f0       0x2d build/finsh_port.o
 .ARM.attributes
                0x0800911d       0x2d build/msh.o
 .ARM.attributes
                0x0800914a       0x2d build/shell.o
 .ARM.attributes
                0x08009177       0x2d build/cpuport.o
 .ARM.attributes
                0x080091a4       0x2d build/clock.o
 .ARM.attributes
                0x080091d1       0x2d build/components.o
 .ARM.attributes
                0x080091fe       0x2d build/idle.o
 .ARM.attributes
                0x0800922b       0x2d build/ipc.o
 .ARM.attributes
                0x08009258       0x2d build/irq.o
 .ARM.attributes
                0x08009285       0x2d build/kservice.o
 .ARM.attributes
                0x080092b2       0x2d build/mem.o
 .ARM.attributes
                0x080092df       0x2d build/object.o
 .ARM.attributes
                0x0800930c       0x2d build/scheduler.o
 .ARM.attributes
                0x08009339       0x2d build/thread.o
 .ARM.attributes
                0x08009366       0x2d build/timer.o
 .ARM.attributes
                0x08009393       0x21 build/startup_stm32f10x_hd.o
 .ARM.attributes
                0x080093b4       0x21 build/context_gcc.o
 .ARM.attributes
                0x080093d5       0x2d c:/gcc-arm-none-eabi/bin/../lib/gcc/arm-none-eabi/10.3.1/../../../../arm-none-eabi/lib/thumb/v7-m/nofp\libc_nano.a(lib_a-impure.o)
 .ARM.attributes
                0x08009402       0x2d c:/gcc-arm-none-eabi/bin/../lib/gcc/arm-none-eabi/10.3.1/../../../../arm-none-eabi/lib/thumb/v7-m/nofp\libc_nano.a(lib_a-init.o)
 .ARM.attributes
                0x0800942f       0x2d c:/gcc-arm-none-eabi/bin/../lib/gcc/arm-none-eabi/10.3.1/../../../../arm-none-eabi/lib/thumb/v7-m/nofp\libc_nano.a(lib_a-memcpy-stub.o)
 .ARM.attributes
                0x0800945c       0x2d c:/gcc-arm-none-eabi/bin/../lib/gcc/arm-none-eabi/10.3.1/../../../../arm-none-eabi/lib/thumb/v7-m/nofp\libc_nano.a(lib_a-memset.o)
 .ARM.attributes
                0x08009489       0x2d c:/gcc-arm-none-eabi/bin/../lib/gcc/arm-none-eabi/10.3.1/../../../../arm-none-eabi/lib/thumb/v7-m/nofp\libc_nano.a(lib_a-nano-vfprintf_float.o)
 .ARM.attributes
                0x080094b6       0x2d c:/gcc-arm-none-eabi/bin/../lib/gcc/arm-none-eabi/10.3.1/../../../../arm-none-eabi/lib/thumb/v7-m/nofp\libc_nano.a(lib_a-nano-vfprintf_i.o)
 .ARM.attributes
                0x080094e3       0x17 c:/gcc-arm-none-eabi/bin/../lib/gcc/arm-none-eabi/10.3.1/../../../../arm-none-eabi/lib/thumb/v7-m/nofp\libc_nano.a(lib_a-strlen.o)
 .ARM.attributes
                0x080094fa       0x2d c:/gcc-arm-none-eabi/bin/../lib/gcc/arm-none-eabi/10.3.1/../../../../arm-none-eabi/lib/thumb/v7-m/nofp\libc_nano.a(lib_a-strncmp.o)
 .ARM.attributes
                0x08009527       0x2d c:/gcc-arm-none-eabi/bin/../lib/gcc/arm-none-eabi/10.3.1/../../../../arm-none-eabi/lib/thumb/v7-m/nofp\libc_nano.a(lib_a-strncpy.o)
 .ARM.attributes
                0x08009554       0x2d c:/gcc-arm-none-eabi/bin/../lib/gcc/arm-none-eabi/10.3.1/../../../../arm-none-eabi/lib/thumb/v7-m/nofp\libc_nano.a(lib_a-dtoa.o)
 .ARM.attributes
                0x08009581       0x2d c:/gcc-arm-none-eabi/bin/../lib/gcc/arm-none-eabi/10.3.1/../../../../arm-none-eabi/lib/thumb/v7-m/nofp\libc_nano.a(lib_a-localeconv.o)
 .ARM.attributes
                0x080095ae       0x2d c:/gcc-arm-none-eabi/bin/../lib/gcc/arm-none-eabi/10.3.1/../../../../arm-none-eabi/lib/thumb/v7-m/nofp\libc_nano.a(lib_a-malloc.o)
 .ARM.attributes
                0x080095db       0x2d c:/gcc-arm-none-eabi/bin/../lib/gcc/arm-none-eabi/10.3.1/../../../../arm-none-eabi/lib/thumb/v7-m/nofp\libc_nano.a(lib_a-memchr-stub.o)
 .ARM.attributes
                0x08009608       0x2d c:/gcc-arm-none-eabi/bin/../lib/gcc/arm-none-eabi/10.3.1/../../../../arm-none-eabi/lib/thumb/v7-m/nofp\libc_nano.a(lib_a-mprec.o)
 .ARM.attributes
                0x08009635       0x2d c:/gcc-arm-none-eabi/bin/../lib/gcc/arm-none-eabi/10.3.1/../../../../arm-none-eabi/lib/thumb/v7-m/nofp\libc_nano.a(lib_a-nano-callocr.o)
 .ARM.attributes
                0x08009662       0x2d c:/gcc-arm-none-eabi/bin/../lib/gcc/arm-none-eabi/10.3.1/../../../../arm-none-eabi/lib/thumb/v7-m/nofp\libc_nano.a(lib_a-nano-freer.o)
 .ARM.attributes
                0x0800968f       0x2d c:/gcc-arm-none-eabi/bin/../lib/gcc/arm-none-eabi/10.3.1/../../../../arm-none-eabi/lib/thumb/v7-m/nofp\libc_nano.a(lib_a-nano-mallocr.o)
 .ARM.attributes
                0x080096bc       0x2d c:/gcc-arm-none-eabi/bin/../lib/gcc/arm-none-eabi/10.3.1/../../../../arm-none-eabi/lib/thumb/v7-m/nofp\libc_nano.a(lib_a-sbrkr.o)
 .ARM.attributes
                0x080096e9       0x2d c:/gcc-arm-none-eabi/bin/../lib/gcc/arm-none-eabi/10.3.1/../../../../arm-none-eabi/lib/thumb/v7-m/nofp\libc_nano.a(lib_a-assert.o)
 .ARM.attributes
                0x08009716       0x2d c:/gcc-arm-none-eabi/bin/../lib/gcc/arm-none-eabi/10.3.1/../../../../arm-none-eabi/lib/thumb/v7-m/nofp\libc_nano.a(lib_a-fprintf.o)
 .ARM.attributes
                0x08009743       0x2d c:/gcc-arm-none-eabi/bin/../lib/gcc/arm-none-eabi/10.3.1/../../../../arm-none-eabi/lib/thumb/v7-m/nofp\libc_nano.a(lib_a-locale.o)
 .ARM.attributes
                0x08009770       0x2d c:/gcc-arm-none-eabi/bin/../lib/gcc/arm-none-eabi/10.3.1/../../../../arm-none-eabi/lib/thumb/v7-m/nofp\libc_nano.a(lib_a-mbtowc_r.o)
 .ARM.attributes
                0x0800979d       0x2d c:/gcc-arm-none-eabi/bin/../lib/gcc/arm-none-eabi/10.3.1/../../../../arm-none-eabi/lib/thumb/v7-m/nofp\libc_nano.a(lib_a-mlock.o)
 .ARM.attributes
                0x080097ca       0x2d c:/gcc-arm-none-eabi/bin/../lib/gcc/arm-none-eabi/10.3.1/../../../../arm-none-eabi/lib/thumb/v7-m/nofp\libc_nano.a(lib_a-nano-vfprintf.o)
 .ARM.attributes
                0x080097f7       0x2d c:/gcc-arm-none-eabi/bin/../lib/gcc/arm-none-eabi/10.3.1/../../../../arm-none-eabi/lib/thumb/v7-m/nofp\libc_nano.a(lib_a-reent.o)
 .ARM.attributes
                0x08009824       0x2d c:/gcc-arm-none-eabi/bin/../lib/gcc/arm-none-eabi/10.3.1/../../../../arm-none-eabi/lib/thumb/v7-m/nofp\libc_nano.a(lib_a-wbuf.o)
 .ARM.attributes
                0x08009851       0x2d c:/gcc-arm-none-eabi/bin/../lib/gcc/arm-none-eabi/10.3.1/../../../../arm-none-eabi/lib/thumb/v7-m/nofp\libc_nano.a(lib_a-wctomb_r.o)
 .ARM.attributes
                0x0800987e       0x2d c:/gcc-arm-none-eabi/bin/../lib/gcc/arm-none-eabi/10.3.1/../../../../arm-none-eabi/lib/thumb/v7-m/nofp\libc_nano.a(lib_a-wsetup.o)
 .ARM.attributes
                0x080098ab       0x2d c:/gcc-arm-none-eabi/bin/../lib/gcc/arm-none-eabi/10.3.1/../../../../arm-none-eabi/lib/thumb/v7-m/nofp\libc_nano.a(lib_a-abort.o)
 .ARM.attributes
                0x080098d8       0x2d c:/gcc-arm-none-eabi/bin/../lib/gcc/arm-none-eabi/10.3.1/../../../../arm-none-eabi/lib/thumb/v7-m/nofp\libc_nano.a(lib_a-ctype_.o)
 .ARM.attributes
                0x08009905       0x2d c:/gcc-arm-none-eabi/bin/../lib/gcc/arm-none-eabi/10.3.1/../../../../arm-none-eabi/lib/thumb/v7-m/nofp\libc_nano.a(lib_a-fflush.o)
 .ARM.attributes
                0x08009932       0x2d c:/gcc-arm-none-eabi/bin/../lib/gcc/arm-none-eabi/10.3.1/../../../../arm-none-eabi/lib/thumb/v7-m/nofp\libc_nano.a(lib_a-findfp.o)
 .ARM.attributes
                0x0800995f       0x2d c:/gcc-arm-none-eabi/bin/../lib/gcc/arm-none-eabi/10.3.1/../../../../arm-none-eabi/lib/thumb/v7-m/nofp\libc_nano.a(lib_a-fwalk.o)
 .ARM.attributes
                0x0800998c       0x2d c:/gcc-arm-none-eabi/bin/../lib/gcc/arm-none-eabi/10.3.1/../../../../arm-none-eabi/lib/thumb/v7-m/nofp\libc_nano.a(lib_a-lock.o)
 .ARM.attributes
                0x080099b9       0x2d c:/gcc-arm-none-eabi/bin/../lib/gcc/arm-none-eabi/10.3.1/../../../../arm-none-eabi/lib/thumb/v7-m/nofp\libc_nano.a(lib_a-makebuf.o)
 .ARM.attributes
                0x080099e6       0x2d c:/gcc-arm-none-eabi/bin/../lib/gcc/arm-none-eabi/10.3.1/../../../../arm-none-eabi/lib/thumb/v7-m/nofp\libc_nano.a(lib_a-signal.o)
 .ARM.attributes
                0x08009a13       0x2d c:/gcc-arm-none-eabi/bin/../lib/gcc/arm-none-eabi/10.3.1/../../../../arm-none-eabi/lib/thumb/v7-m/nofp\libc_nano.a(lib_a-signalr.o)
 .ARM.attributes
                0x08009a40       0x2d c:/gcc-arm-none-eabi/bin/../lib/gcc/arm-none-eabi/10.3.1/../../../../arm-none-eabi/lib/thumb/v7-m/nofp\libc_nano.a(lib_a-stdio.o)
 .ARM.attributes
                0x08009a6d       0x2d c:/gcc-arm-none-eabi/bin/../lib/gcc/arm-none-eabi/10.3.1/../../../../arm-none-eabi/lib/thumb/v7-m/nofp\libc_nano.a(lib_a-writer.o)
 .ARM.attributes
                0x08009a9a       0x2d c:/gcc-arm-none-eabi/bin/../lib/gcc/arm-none-eabi/10.3.1/../../../../arm-none-eabi/lib/thumb/v7-m/nofp\libc_nano.a(lib_a-closer.o)
 .ARM.attributes
                0x08009ac7       0x2d c:/gcc-arm-none-eabi/bin/../lib/gcc/arm-none-eabi/10.3.1/../../../../arm-none-eabi/lib/thumb/v7-m/nofp\libc_nano.a(lib_a-fstatr.o)
 .ARM.attributes
                0x08009af4       0x2d c:/gcc-arm-none-eabi/bin/../lib/gcc/arm-none-eabi/10.3.1/../../../../arm-none-eabi/lib/thumb/v7-m/nofp\libc_nano.a(lib_a-isattyr.o)
 .ARM.attributes
                0x08009b21       0x2d c:/gcc-arm-none-eabi/bin/../lib/gcc/arm-none-eabi/10.3.1/../../../../arm-none-eabi/lib/thumb/v7-m/nofp\libc_nano.a(lib_a-lseekr.o)
 .ARM.attributes
                0x08009b4e       0x2d c:/gcc-arm-none-eabi/bin/../lib/gcc/arm-none-eabi/10.3.1/../../../../arm-none-eabi/lib/thumb/v7-m/nofp\libc_nano.a(lib_a-readr.o)
 .ARM.attributes
                0x08009b7b       0x2d c:/gcc-arm-none-eabi/bin/../lib/gcc/arm-none-eabi/10.3.1/../../../../arm-none-eabi/lib/thumb/v7-m/nofp\libnosys.a(close.o)
 .ARM.attributes
                0x08009ba8       0x2d c:/gcc-arm-none-eabi/bin/../lib/gcc/arm-none-eabi/10.3.1/../../../../arm-none-eabi/lib/thumb/v7-m/nofp\libnosys.a(fstat.o)
 .ARM.attributes
                0x08009bd5       0x2d c:/gcc-arm-none-eabi/bin/../lib/gcc/arm-none-eabi/10.3.1/../../../../arm-none-eabi/lib/thumb/v7-m/nofp\libnosys.a(getpid.o)
 .ARM.attributes
                0x08009c02       0x2d c:/gcc-arm-none-eabi/bin/../lib/gcc/arm-none-eabi/10.3.1/../../../../arm-none-eabi/lib/thumb/v7-m/nofp\libnosys.a(isatty.o)
 .ARM.attributes
                0x08009c2f       0x2d c:/gcc-arm-none-eabi/bin/../lib/gcc/arm-none-eabi/10.3.1/../../../../arm-none-eabi/lib/thumb/v7-m/nofp\libnosys.a(kill.o)
 .ARM.attributes
                0x08009c5c       0x2d c:/gcc-arm-none-eabi/bin/../lib/gcc/arm-none-eabi/10.3.1/../../../../arm-none-eabi/lib/thumb/v7-m/nofp\libnosys.a(lseek.o)
 .ARM.attributes
                0x08009c89       0x2d c:/gcc-arm-none-eabi/bin/../lib/gcc/arm-none-eabi/10.3.1/../../../../arm-none-eabi/lib/thumb/v7-m/nofp\libnosys.a(read.o)
 .ARM.attributes
                0x08009cb6       0x2d c:/gcc-arm-none-eabi/bin/../lib/gcc/arm-none-eabi/10.3.1/../../../../arm-none-eabi/lib/thumb/v7-m/nofp\libnosys.a(sbrk.o)
 .ARM.attributes
                0x08009ce3       0x2d c:/gcc-arm-none-eabi/bin/../lib/gcc/arm-none-eabi/10.3.1/../../../../arm-none-eabi/lib/thumb/v7-m/nofp\libnosys.a(_exit.o)
 .ARM.attributes
                0x08009d10       0x1d c:/gcc-arm-none-eabi/bin/../lib/gcc/arm-none-eabi/10.3.1/thumb/v7-m/nofp\libgcc.a(_arm_addsubdf3.o)
 .ARM.attributes
                0x08009d2d       0x1d c:/gcc-arm-none-eabi/bin/../lib/gcc/arm-none-eabi/10.3.1/thumb/v7-m/nofp\libgcc.a(_arm_muldivdf3.o)
 .ARM.attributes
                0x08009d4a       0x1d c:/gcc-arm-none-eabi/bin/../lib/gcc/arm-none-eabi/10.3.1/thumb/v7-m/nofp\libgcc.a(_arm_cmpdf2.o)
 .ARM.attributes
                0x08009d67       0x1d c:/gcc-arm-none-eabi/bin/../lib/gcc/arm-none-eabi/10.3.1/thumb/v7-m/nofp\libgcc.a(_arm_unorddf2.o)
 .ARM.attributes
                0x08009d84       0x1d c:/gcc-arm-none-eabi/bin/../lib/gcc/arm-none-eabi/10.3.1/thumb/v7-m/nofp\libgcc.a(_arm_fixdfsi.o)
 .ARM.attributes
                0x08009da1       0x1d c:/gcc-arm-none-eabi/bin/../lib/gcc/arm-none-eabi/10.3.1/thumb/v7-m/nofp/crtn.o

.preinit_array  0x08008ee4        0x0
                0x08008ee4                PROVIDE (__preinit_array_start = .)
 *(.preinit_array*)
                0x08008ee4                PROVIDE (__preinit_array_end = .)

.init_array     0x08008ee4        0x0
                0x08008ee4                PROVIDE (__init_array_start = .)
 *(SORT_BY_NAME(.init_array.*))
 *(.init_array*)
                0x08008ee4                PROVIDE (__init_array_end = .)

.fini_array     0x08008ee4        0x4
                [!provide]                PROVIDE (__fini_array_start = .)
 *(.fini_array*)
 .fini_array    0x08008ee4        0x4 c:/gcc-arm-none-eabi/bin/../lib/gcc/arm-none-eabi/10.3.1/thumb/v7-m/nofp/crtbegin.o
 *(SORT_BY_NAME(.fini_array.*))
                [!provide]                PROVIDE (__fini_array_end = .)
                0x08008ee8                _sidata = .

.data           0x20000000      0x228 load address 0x08008ee8
                0x20000000                . = ALIGN (0x4)
                0x20000000                _sdata = .
 *(.data)
 *(.data*)
 .data.SystemCoreClock
                0x20000000        0x4 build/system_stm32f10x.o
                0x20000000                SystemCoreClock
 .data.APBAHBPrescTable
                0x20000004       0x10 build/stm32f10x_rcc.o
 .data.ADCPrescTable
                0x20000014        0x4 build/stm32f10x_rcc.o
 .data.rt_object_container
                0x20000018       0x40 build/object.o
 .data._impure_ptr
                0x20000058        0x4 c:/gcc-arm-none-eabi/bin/../lib/gcc/arm-none-eabi/10.3.1/../../../../arm-none-eabi/lib/thumb/v7-m/nofp\libc_nano.a(lib_a-impure.o)
                0x20000058                _impure_ptr
 .data.impure_data
                0x2000005c       0x60 c:/gcc-arm-none-eabi/bin/../lib/gcc/arm-none-eabi/10.3.1/../../../../arm-none-eabi/lib/thumb/v7-m/nofp\libc_nano.a(lib_a-impure.o)
 .data.__global_locale
                0x200000bc      0x16c c:/gcc-arm-none-eabi/bin/../lib/gcc/arm-none-eabi/10.3.1/../../../../arm-none-eabi/lib/thumb/v7-m/nofp\libc_nano.a(lib_a-locale.o)
                0x200000bc                __global_locale
                0x20000228                . = ALIGN (0x4)
                0x20000228                _edata = .

.igot.plt       0x20000228        0x0 load address 0x08009110
 .igot.plt      0x20000228        0x0 c:/gcc-arm-none-eabi/bin/../lib/gcc/arm-none-eabi/10.3.1/thumb/v7-m/nofp/crtbegin.o
                0x20000228                . = ALIGN (0x4)

.bss            0x20000228     0x137c load address 0x08009110
                0x20000228                _sbss = .
                0x20000228                __bss_start__ = _sbss
 *(.bss)
 .bss           0x20000228       0x1c c:/gcc-arm-none-eabi/bin/../lib/gcc/arm-none-eabi/10.3.1/thumb/v7-m/nofp/crtbegin.o
 *(.bss*)
 .bss.led1_thread
                0x20000244        0x4 build/main.o
 .bss.rt_heap   0x20000248     0x1000 build/board.o
 .bss._syscall_table_begin
                0x20001248        0x4 build/shell.o
                0x20001248                _syscall_table_begin
 .bss._syscall_table_end
                0x2000124c        0x4 build/shell.o
                0x2000124c                _syscall_table_end
 .bss._sysvar_table_begin
                0x20001250        0x4 build/shell.o
                0x20001250                _sysvar_table_begin
 .bss._sysvar_table_end
                0x20001254        0x4 build/shell.o
                0x20001254                _sysvar_table_end
 .bss.shell     0x20001258        0x4 build/shell.o
                0x20001258                shell
 .bss.finsh_prompt_custom
                0x2000125c        0x4 build/shell.o
 .bss.finsh_prompt.0
                0x20001260       0x81 build/shell.o
 *fill*         0x200012e1        0x3 
 .bss.rt_interrupt_from_thread
                0x200012e4        0x4 build/cpuport.o
                0x200012e4                rt_interrupt_from_thread
 .bss.rt_interrupt_to_thread
                0x200012e8        0x4 build/cpuport.o
                0x200012e8                rt_interrupt_to_thread
 .bss.rt_thread_switch_interrupt_flag
                0x200012ec        0x4 build/cpuport.o
                0x200012ec                rt_thread_switch_interrupt_flag
 .bss.rt_exception_hook
                0x200012f0        0x4 build/cpuport.o
 .bss.rt_tick   0x200012f4        0x4 build/clock.o
 .bss.idle      0x200012f8       0x78 build/idle.o
 .bss.rt_thread_stack
                0x20001370      0x100 build/idle.o
 .bss.rt_interrupt_nest
                0x20001470        0x1 build/irq.o
                0x20001470                rt_interrupt_nest
 *fill*         0x20001471        0x3 
 .bss.rt_log_buf.0
                0x20001474       0x80 build/kservice.o
 .bss.heap_ptr  0x200014f4        0x4 build/mem.o
 .bss.heap_end  0x200014f8        0x4 build/mem.o
 .bss.lfree     0x200014fc        0x4 build/mem.o
 .bss.heap_sem  0x20001500       0x20 build/mem.o
 .bss.mem_size_aligned
                0x20001520        0x4 build/mem.o
 .bss.used_mem  0x20001524        0x4 build/mem.o
 .bss.max_mem   0x20001528        0x4 build/mem.o
 .bss.rt_thread_priority_table
                0x2000152c       0x40 build/scheduler.o
                0x2000152c                rt_thread_priority_table
 .bss.rt_thread_ready_priority_group
                0x2000156c        0x4 build/scheduler.o
                0x2000156c                rt_thread_ready_priority_group
 .bss.rt_scheduler_lock_nest
                0x20001570        0x2 build/scheduler.o
 *fill*         0x20001572        0x2 
 .bss.rt_current_thread
                0x20001574        0x4 build/scheduler.o
                0x20001574                rt_current_thread
 .bss.rt_current_priority
                0x20001578        0x1 build/scheduler.o
                0x20001578                rt_current_priority
 *fill*         0x20001579        0x3 
 .bss.rt_thread_defunct
                0x2000157c        0x8 build/scheduler.o
                0x2000157c                rt_thread_defunct
 .bss.rt_timer_list
                0x20001584        0x8 build/timer.o
 .bss.random_nr.0
                0x2000158c        0x4 build/timer.o
 .bss.__malloc_free_list
                0x20001590        0x4 c:/gcc-arm-none-eabi/bin/../lib/gcc/arm-none-eabi/10.3.1/../../../../arm-none-eabi/lib/thumb/v7-m/nofp\libc_nano.a(lib_a-nano-mallocr.o)
                0x20001590                __malloc_free_list
 .bss.__malloc_sbrk_start
                0x20001594        0x4 c:/gcc-arm-none-eabi/bin/../lib/gcc/arm-none-eabi/10.3.1/../../../../arm-none-eabi/lib/thumb/v7-m/nofp\libc_nano.a(lib_a-nano-mallocr.o)
                0x20001594                __malloc_sbrk_start
 .bss.errno     0x20001598        0x4 c:/gcc-arm-none-eabi/bin/../lib/gcc/arm-none-eabi/10.3.1/../../../../arm-none-eabi/lib/thumb/v7-m/nofp\libc_nano.a(lib_a-reent.o)
                0x20001598                errno
 .bss.__lock___malloc_recursive_mutex
                0x2000159c        0x1 c:/gcc-arm-none-eabi/bin/../lib/gcc/arm-none-eabi/10.3.1/../../../../arm-none-eabi/lib/thumb/v7-m/nofp\libc_nano.a(lib_a-lock.o)
                0x2000159c                __lock___malloc_recursive_mutex
 .bss.__lock___sfp_recursive_mutex
                0x2000159d        0x1 c:/gcc-arm-none-eabi/bin/../lib/gcc/arm-none-eabi/10.3.1/../../../../arm-none-eabi/lib/thumb/v7-m/nofp\libc_nano.a(lib_a-lock.o)
                0x2000159d                __lock___sfp_recursive_mutex
 .bss.__lock___sinit_recursive_mutex
                0x2000159e        0x1 c:/gcc-arm-none-eabi/bin/../lib/gcc/arm-none-eabi/10.3.1/../../../../arm-none-eabi/lib/thumb/v7-m/nofp\libc_nano.a(lib_a-lock.o)
                0x2000159e                __lock___sinit_recursive_mutex
 *fill*         0x2000159f        0x1 
 .bss.heap_end.0
                0x200015a0        0x4 c:/gcc-arm-none-eabi/bin/../lib/gcc/arm-none-eabi/10.3.1/../../../../arm-none-eabi/lib/thumb/v7-m/nofp\libnosys.a(sbrk.o)
 *(COMMON)
                0x200015a4                . = ALIGN (0x4)
                0x200015a4                _ebss = .
                0x200015a4                __bss_end__ = _ebss
                0x200015a4                PROVIDE (end = _ebss)
                [!provide]                PROVIDE (_end = _ebss)

._user_heap_stack
                0x200015a4      0x200 load address 0x0800a48c
                0x200015a4                . = ALIGN (0x4)
                0x200015a4                . = (. + _Min_Heap_Size)
                0x200017a4                . = (. + _Min_Stack_Size)
 *fill*         0x200015a4      0x200 
                0x200017a4                . = ALIGN (0x4)

.memory_b1_text
 *(.mb1text)
 *(.mb1text*)
 *(.mb1rodata)
 *(.mb1rodata*)

/DISCARD/
 libc.a(*)
 libm.a(*)
 libgcc.a(*)
OUTPUT(build/Hao.elf elf32-littlearm)
LOAD linker stubs
LOAD c:/gcc-arm-none-eabi/bin/../lib/gcc/arm-none-eabi/10.3.1/../../../../arm-none-eabi/lib/thumb/v7-m/nofp\libc.a
LOAD c:/gcc-arm-none-eabi/bin/../lib/gcc/arm-none-eabi/10.3.1/../../../../arm-none-eabi/lib/thumb/v7-m/nofp\libm.a
LOAD c:/gcc-arm-none-eabi/bin/../lib/gcc/arm-none-eabi/10.3.1/thumb/v7-m/nofp\libgcc.a

.debug_info     0x00000000     0xb6a9
 .debug_info    0x00000000      0x481 build/main.o
 .debug_info    0x00000481       0xfa build/stm32f10x_it.o
 .debug_info    0x0000057b      0x806 build/board.o
 .debug_info    0x00000d81      0x22b build/bsp_led.o
 .debug_info    0x00000fac      0xf1c build/bsp_debug_usart.o
 .debug_info    0x00001ec8      0x4da build/system_stm32f10x.o
 .debug_info    0x000023a2      0x7aa build/stm32f10x_gpio.o
 .debug_info    0x00002b4c      0x9b5 build/stm32f10x_rcc.o
 .debug_info    0x00003501      0xb2a build/stm32f10x_usart.o
 .debug_info    0x0000402b     0x102f build/cmd.o
 .debug_info    0x0000505a      0x1ef build/finsh_port.o
 .debug_info    0x00005249      0x650 build/msh.o
 .debug_info    0x00005899      0x926 build/shell.o
 .debug_info    0x000061bf      0x3f7 build/cpuport.o
 .debug_info    0x000065b6      0x44b build/clock.o
 .debug_info    0x00006a01      0x542 build/components.o
 .debug_info    0x00006f43      0x4c6 build/idle.o
 .debug_info    0x00007409      0xc19 build/ipc.o
 .debug_info    0x00008022      0x137 build/irq.o
 .debug_info    0x00008159      0xf6a build/kservice.o
 .debug_info    0x000090c3      0x61c build/mem.o
 .debug_info    0x000096df      0x683 build/object.o
 .debug_info    0x00009d62      0x672 build/scheduler.o
 .debug_info    0x0000a3d4      0xab2 build/thread.o
 .debug_info    0x0000ae86      0x7db build/timer.o
 .debug_info    0x0000b661       0x22 build/startup_stm32f10x_hd.o
 .debug_info    0x0000b683       0x26 build/context_gcc.o

.debug_abbrev   0x00000000     0x2d77
 .debug_abbrev  0x00000000      0x11d build/main.o
 .debug_abbrev  0x0000011d       0x46 build/stm32f10x_it.o
 .debug_abbrev  0x00000163      0x203 build/board.o
 .debug_abbrev  0x00000366       0xfc build/bsp_led.o
 .debug_abbrev  0x00000462      0x260 build/bsp_debug_usart.o
 .debug_abbrev  0x000006c2      0x1b0 build/system_stm32f10x.o
 .debug_abbrev  0x00000872      0x1eb build/stm32f10x_gpio.o
 .debug_abbrev  0x00000a5d      0x1d5 build/stm32f10x_rcc.o
 .debug_abbrev  0x00000c32      0x193 build/stm32f10x_usart.o
 .debug_abbrev  0x00000dc5      0x28b build/cmd.o
 .debug_abbrev  0x00001050       0xd4 build/finsh_port.o
 .debug_abbrev  0x00001124      0x241 build/msh.o
 .debug_abbrev  0x00001365      0x330 build/shell.o
 .debug_abbrev  0x00001695      0x1d8 build/cpuport.o
 .debug_abbrev  0x0000186d      0x152 build/clock.o
 .debug_abbrev  0x000019bf      0x173 build/components.o
 .debug_abbrev  0x00001b32      0x1d3 build/idle.o
 .debug_abbrev  0x00001d05      0x20b build/ipc.o
 .debug_abbrev  0x00001f10       0xcb build/irq.o
 .debug_abbrev  0x00001fdb      0x2d0 build/kservice.o
 .debug_abbrev  0x000022ab      0x1ee build/mem.o
 .debug_abbrev  0x00002499      0x210 build/object.o
 .debug_abbrev  0x000026a9      0x1d2 build/scheduler.o
 .debug_abbrev  0x0000287b      0x245 build/thread.o
 .debug_abbrev  0x00002ac0      0x291 build/timer.o
 .debug_abbrev  0x00002d51       0x12 build/startup_stm32f10x_hd.o
 .debug_abbrev  0x00002d63       0x14 build/context_gcc.o

.debug_loc      0x00000000     0x5f56
 .debug_loc     0x00000000       0x7c build/main.o
 .debug_loc     0x0000007c      0x150 build/stm32f10x_it.o
 .debug_loc     0x000001cc      0x1dc build/board.o
 .debug_loc     0x000003a8       0x50 build/bsp_led.o
 .debug_loc     0x000003f8      0x248 build/bsp_debug_usart.o
 .debug_loc     0x00000640      0x110 build/system_stm32f10x.o
 .debug_loc     0x00000750      0x63c build/stm32f10x_gpio.o
 .debug_loc     0x00000d8c      0xb2c build/stm32f10x_rcc.o
 .debug_loc     0x000018b8      0xa54 build/stm32f10x_usart.o
 .debug_loc     0x0000230c      0x3e8 build/cmd.o
 .debug_loc     0x000026f4       0x50 build/finsh_port.o
 .debug_loc     0x00002744      0x322 build/msh.o
 .debug_loc     0x00002a66      0x378 build/shell.o
 .debug_loc     0x00002dde      0x228 build/cpuport.o
 .debug_loc     0x00003006      0x184 build/clock.o
 .debug_loc     0x0000318a      0x2a8 build/components.o
 .debug_loc     0x00003432      0x1c8 build/idle.o
 .debug_loc     0x000035fa      0x754 build/ipc.o
 .debug_loc     0x00003d4e       0xf0 build/irq.o
 .debug_loc     0x00003e3e      0xa1c build/kservice.o
 .debug_loc     0x0000485a      0x274 build/mem.o
 .debug_loc     0x00004ace      0x440 build/object.o
 .debug_loc     0x00004f0e      0x354 build/scheduler.o
 .debug_loc     0x00005262      0x754 build/thread.o
 .debug_loc     0x000059b6      0x5a0 build/timer.o

.debug_aranges  0x00000000      0xc08
 .debug_aranges
                0x00000000       0x28 build/main.o
 .debug_aranges
                0x00000028       0x48 build/stm32f10x_it.o
 .debug_aranges
                0x00000070       0x50 build/board.o
 .debug_aranges
                0x000000c0       0x20 build/bsp_led.o
 .debug_aranges
                0x000000e0       0x50 build/bsp_debug_usart.o
 .debug_aranges
                0x00000130       0x38 build/system_stm32f10x.o
 .debug_aranges
                0x00000168       0xa8 build/stm32f10x_gpio.o
 .debug_aranges
                0x00000210      0x118 build/stm32f10x_rcc.o
 .debug_aranges
                0x00000328      0x100 build/stm32f10x_usart.o
 .debug_aranges
                0x00000428       0x80 build/cmd.o
 .debug_aranges
                0x000004a8       0x20 build/finsh_port.o
 .debug_aranges
                0x000004c8       0x68 build/msh.o
 .debug_aranges
                0x00000530       0x78 build/shell.o
 .debug_aranges
                0x000005a8       0x60 build/cpuport.o
 .debug_aranges
                0x00000608       0x40 build/clock.o
 .debug_aranges
                0x00000648       0x68 build/components.o
 .debug_aranges
                0x000006b0       0x48 build/idle.o
 .debug_aranges
                0x000006f8       0xd0 build/ipc.o
 .debug_aranges
                0x000007c8       0x30 build/irq.o
 .debug_aranges
                0x000007f8      0x100 build/kservice.o
 .debug_aranges
                0x000008f8       0x58 build/mem.o
 .debug_aranges
                0x00000950       0x80 build/object.o
 .debug_aranges
                0x000009d0       0x78 build/scheduler.o
 .debug_aranges
                0x00000a48       0xd0 build/thread.o
 .debug_aranges
                0x00000b18       0xa8 build/timer.o
 .debug_aranges
                0x00000bc0       0x28 build/startup_stm32f10x_hd.o
 .debug_aranges
                0x00000be8       0x20 build/context_gcc.o

.debug_ranges   0x00000000      0xa80
 .debug_ranges  0x00000000       0x18 build/main.o
 .debug_ranges  0x00000018       0x38 build/stm32f10x_it.o
 .debug_ranges  0x00000050       0x40 build/board.o
 .debug_ranges  0x00000090       0x10 build/bsp_led.o
 .debug_ranges  0x000000a0       0x40 build/bsp_debug_usart.o
 .debug_ranges  0x000000e0       0x28 build/system_stm32f10x.o
 .debug_ranges  0x00000108       0x98 build/stm32f10x_gpio.o
 .debug_ranges  0x000001a0      0x108 build/stm32f10x_rcc.o
 .debug_ranges  0x000002a8       0xf0 build/stm32f10x_usart.o
 .debug_ranges  0x00000398       0x70 build/cmd.o
 .debug_ranges  0x00000408       0x10 build/finsh_port.o
 .debug_ranges  0x00000418       0x58 build/msh.o
 .debug_ranges  0x00000470       0x68 build/shell.o
 .debug_ranges  0x000004d8       0x68 build/cpuport.o
 .debug_ranges  0x00000540       0x30 build/clock.o
 .debug_ranges  0x00000570       0x58 build/components.o
 .debug_ranges  0x000005c8       0x38 build/idle.o
 .debug_ranges  0x00000600       0xc0 build/ipc.o
 .debug_ranges  0x000006c0       0x20 build/irq.o
 .debug_ranges  0x000006e0       0xf0 build/kservice.o
 .debug_ranges  0x000007d0       0x48 build/mem.o
 .debug_ranges  0x00000818       0x70 build/object.o
 .debug_ranges  0x00000888       0x68 build/scheduler.o
 .debug_ranges  0x000008f0       0xc0 build/thread.o
 .debug_ranges  0x000009b0       0xb0 build/timer.o
 .debug_ranges  0x00000a60       0x20 build/startup_stm32f10x_hd.o

.debug_line     0x00000000     0x5b05
 .debug_line    0x00000000      0x136 build/main.o
 .debug_line    0x00000136       0xbd build/stm32f10x_it.o
 .debug_line    0x000001f3      0x240 build/board.o
 .debug_line    0x00000433      0x13d build/bsp_led.o
 .debug_line    0x00000570      0x3b6 build/bsp_debug_usart.o
 .debug_line    0x00000926      0x285 build/system_stm32f10x.o
 .debug_line    0x00000bab      0x526 build/stm32f10x_gpio.o
 .debug_line    0x000010d1      0x6c1 build/stm32f10x_rcc.o
 .debug_line    0x00001792      0x66d build/stm32f10x_usart.o
 .debug_line    0x00001dff      0x547 build/cmd.o
 .debug_line    0x00002346      0x123 build/finsh_port.o
 .debug_line    0x00002469      0x414 build/msh.o
 .debug_line    0x0000287d      0x53a build/shell.o
 .debug_line    0x00002db7      0x2e6 build/cpuport.o
 .debug_line    0x0000309d      0x102 build/clock.o
 .debug_line    0x0000319f      0x192 build/components.o
 .debug_line    0x00003331      0x142 build/idle.o
 .debug_line    0x00003473      0x5d3 build/ipc.o
 .debug_line    0x00003a46       0xb1 build/irq.o
 .debug_line    0x00003af7      0xb02 build/kservice.o
 .debug_line    0x000045f9      0x466 build/mem.o
 .debug_line    0x00004a5f      0x331 build/object.o
 .debug_line    0x00004d90      0x2ad build/scheduler.o
 .debug_line    0x0000503d      0x4f8 build/thread.o
 .debug_line    0x00005535      0x481 build/timer.o
 .debug_line    0x000059b6       0x8b build/startup_stm32f10x_hd.o
 .debug_line    0x00005a41       0xc4 build/context_gcc.o

.debug_str      0x00000000     0x3342
 .debug_str     0x00000000      0x263 build/main.o
                                0x30d (size before relaxing)
 .debug_str     0x00000263       0x79 build/stm32f10x_it.o
                                0x1a3 (size before relaxing)
 .debug_str     0x000002dc      0x55b build/board.o
                                0x6da (size before relaxing)
 .debug_str     0x00000837      0x14e build/bsp_led.o
                                0x2b7 (size before relaxing)
 .debug_str     0x00000985      0x4d4 build/bsp_debug_usart.o
                                0x805 (size before relaxing)
 .debug_str     0x00000e59       0xf0 build/system_stm32f10x.o
                                0x2cb (size before relaxing)
 .debug_str     0x00000f49      0x273 build/stm32f10x_gpio.o
                                0x51d (size before relaxing)
 .debug_str     0x000011bc      0x3e2 build/stm32f10x_rcc.o
                                0x61e (size before relaxing)
 .debug_str     0x0000159e      0x39c build/stm32f10x_usart.o
                                0x694 (size before relaxing)
 .debug_str     0x0000193a      0x647 build/cmd.o
                                0x947 (size before relaxing)
 .debug_str     0x00001f81       0x40 build/finsh_port.o
                                0x202 (size before relaxing)
 .debug_str     0x00001fc1      0x1cb build/msh.o
                                0x3ad (size before relaxing)
 .debug_str     0x0000218c      0x21c build/shell.o
                                0x5b3 (size before relaxing)
 .debug_str     0x000023a8      0x18a build/cpuport.o
                                0x31d (size before relaxing)
 .debug_str     0x00002532       0x81 build/clock.o
                                0x314 (size before relaxing)
 .debug_str     0x000025b3       0xec build/components.o
                                0x3b8 (size before relaxing)
 .debug_str     0x0000269f       0xc6 build/idle.o
                                0x35f (size before relaxing)
 .debug_str     0x00002765      0x1a8 build/ipc.o
                                0x63e (size before relaxing)
 .debug_str     0x0000290d       0x64 build/irq.o
                                0x1ae (size before relaxing)
 .debug_str     0x00002971      0x26a build/kservice.o
                                0x57a (size before relaxing)
 .debug_str     0x00002bdb      0x151 build/mem.o
                                0x381 (size before relaxing)
 .debug_str     0x00002d2c      0x1a4 build/object.o
                                0x516 (size before relaxing)
 .debug_str     0x00002ed0      0x150 build/scheduler.o
                                0x47d (size before relaxing)
 .debug_str     0x00003020      0x166 build/thread.o
                                0x60a (size before relaxing)
 .debug_str     0x00003186      0x154 build/timer.o
                                0x4fb (size before relaxing)
 .debug_str     0x000032da       0x3d build/startup_stm32f10x_hd.o
                                 0x54 (size before relaxing)
 .debug_str     0x00003317       0x2b build/context_gcc.o
                                 0x50 (size before relaxing)

.comment        0x00000000       0x49
 .comment       0x00000000       0x49 build/main.o
                                 0x4a (size before relaxing)
 .comment       0x00000049       0x4a build/stm32f10x_it.o
 .comment       0x00000049       0x4a build/board.o
 .comment       0x00000049       0x4a build/bsp_led.o
 .comment       0x00000049       0x4a build/bsp_debug_usart.o
 .comment       0x00000049       0x4a build/system_stm32f10x.o
 .comment       0x00000049       0x4a build/stm32f10x_gpio.o
 .comment       0x00000049       0x4a build/stm32f10x_rcc.o
 .comment       0x00000049       0x4a build/stm32f10x_usart.o
 .comment       0x00000049       0x4a build/cmd.o
 .comment       0x00000049       0x4a build/finsh_port.o
 .comment       0x00000049       0x4a build/msh.o
 .comment       0x00000049       0x4a build/shell.o
 .comment       0x00000049       0x4a build/cpuport.o
 .comment       0x00000049       0x4a build/clock.o
 .comment       0x00000049       0x4a build/components.o
 .comment       0x00000049       0x4a build/idle.o
 .comment       0x00000049       0x4a build/ipc.o
 .comment       0x00000049       0x4a build/irq.o
 .comment       0x00000049       0x4a build/kservice.o
 .comment       0x00000049       0x4a build/mem.o
 .comment       0x00000049       0x4a build/object.o
 .comment       0x00000049       0x4a build/scheduler.o
 .comment       0x00000049       0x4a build/thread.o
 .comment       0x00000049       0x4a build/timer.o

.debug_frame    0x00000000     0x3f64
 .debug_frame   0x00000000       0x54 build/main.o
 .debug_frame   0x00000054       0xb8 build/stm32f10x_it.o
 .debug_frame   0x0000010c       0xfc build/board.o
 .debug_frame   0x00000208       0x34 build/bsp_led.o
 .debug_frame   0x0000023c      0x114 build/bsp_debug_usart.o
 .debug_frame   0x00000350       0x98 build/system_stm32f10x.o
 .debug_frame   0x000003e8      0x2d0 build/stm32f10x_gpio.o
 .debug_frame   0x000006b8      0x4f4 build/stm32f10x_rcc.o
 .debug_frame   0x00000bac      0x490 build/stm32f10x_usart.o
 .debug_frame   0x0000103c      0x1f8 build/cmd.o
 .debug_frame   0x00001234       0x34 build/finsh_port.o
 .debug_frame   0x00001268      0x178 build/msh.o
 .debug_frame   0x000013e0      0x1b4 build/shell.o
 .debug_frame   0x00001594      0x130 build/cpuport.o
 .debug_frame   0x000016c4       0xc0 build/clock.o
 .debug_frame   0x00001784      0x158 build/components.o
 .debug_frame   0x000018dc       0xe8 build/idle.o
 .debug_frame   0x000019c4      0x36c build/ipc.o
 .debug_frame   0x00001d30       0x7c build/irq.o
 .debug_frame   0x00001dac      0x4a0 build/kservice.o
 .debug_frame   0x0000224c      0x130 build/mem.o
 .debug_frame   0x0000237c      0x204 build/object.o
 .debug_frame   0x00002580      0x1c8 build/scheduler.o
 .debug_frame   0x00002748      0x37c build/thread.o
 .debug_frame   0x00002ac4      0x2b8 build/timer.o
 .debug_frame   0x00002d7c       0x2c c:/gcc-arm-none-eabi/bin/../lib/gcc/arm-none-eabi/10.3.1/../../../../arm-none-eabi/lib/thumb/v7-m/nofp\libc_nano.a(lib_a-init.o)
 .debug_frame   0x00002da8       0x28 c:/gcc-arm-none-eabi/bin/../lib/gcc/arm-none-eabi/10.3.1/../../../../arm-none-eabi/lib/thumb/v7-m/nofp\libc_nano.a(lib_a-memcpy-stub.o)
 .debug_frame   0x00002dd0       0x20 c:/gcc-arm-none-eabi/bin/../lib/gcc/arm-none-eabi/10.3.1/../../../../arm-none-eabi/lib/thumb/v7-m/nofp\libc_nano.a(lib_a-memset.o)
 .debug_frame   0x00002df0       0x94 c:/gcc-arm-none-eabi/bin/../lib/gcc/arm-none-eabi/10.3.1/../../../../arm-none-eabi/lib/thumb/v7-m/nofp\libc_nano.a(lib_a-nano-vfprintf_float.o)
 .debug_frame   0x00002e84       0x60 c:/gcc-arm-none-eabi/bin/../lib/gcc/arm-none-eabi/10.3.1/../../../../arm-none-eabi/lib/thumb/v7-m/nofp\libc_nano.a(lib_a-nano-vfprintf_i.o)
 .debug_frame   0x00002ee4       0x28 c:/gcc-arm-none-eabi/bin/../lib/gcc/arm-none-eabi/10.3.1/../../../../arm-none-eabi/lib/thumb/v7-m/nofp\libc_nano.a(lib_a-strncmp.o)
 .debug_frame   0x00002f0c       0x28 c:/gcc-arm-none-eabi/bin/../lib/gcc/arm-none-eabi/10.3.1/../../../../arm-none-eabi/lib/thumb/v7-m/nofp\libc_nano.a(lib_a-strncpy.o)
 .debug_frame   0x00002f34       0x6c c:/gcc-arm-none-eabi/bin/../lib/gcc/arm-none-eabi/10.3.1/../../../../arm-none-eabi/lib/thumb/v7-m/nofp\libc_nano.a(lib_a-dtoa.o)
 .debug_frame   0x00002fa0       0x40 c:/gcc-arm-none-eabi/bin/../lib/gcc/arm-none-eabi/10.3.1/../../../../arm-none-eabi/lib/thumb/v7-m/nofp\libc_nano.a(lib_a-localeconv.o)
 .debug_frame   0x00002fe0       0x30 c:/gcc-arm-none-eabi/bin/../lib/gcc/arm-none-eabi/10.3.1/../../../../arm-none-eabi/lib/thumb/v7-m/nofp\libc_nano.a(lib_a-malloc.o)
 .debug_frame   0x00003010       0x28 c:/gcc-arm-none-eabi/bin/../lib/gcc/arm-none-eabi/10.3.1/../../../../arm-none-eabi/lib/thumb/v7-m/nofp\libc_nano.a(lib_a-memchr-stub.o)
 .debug_frame   0x00003038      0x254 c:/gcc-arm-none-eabi/bin/../lib/gcc/arm-none-eabi/10.3.1/../../../../arm-none-eabi/lib/thumb/v7-m/nofp\libc_nano.a(lib_a-mprec.o)
 .debug_frame   0x0000328c       0x2c c:/gcc-arm-none-eabi/bin/../lib/gcc/arm-none-eabi/10.3.1/../../../../arm-none-eabi/lib/thumb/v7-m/nofp\libc_nano.a(lib_a-nano-callocr.o)
 .debug_frame   0x000032b8       0x38 c:/gcc-arm-none-eabi/bin/../lib/gcc/arm-none-eabi/10.3.1/../../../../arm-none-eabi/lib/thumb/v7-m/nofp\libc_nano.a(lib_a-nano-freer.o)
 .debug_frame   0x000032f0       0x4c c:/gcc-arm-none-eabi/bin/../lib/gcc/arm-none-eabi/10.3.1/../../../../arm-none-eabi/lib/thumb/v7-m/nofp\libc_nano.a(lib_a-nano-mallocr.o)
 .debug_frame   0x0000333c       0x2c c:/gcc-arm-none-eabi/bin/../lib/gcc/arm-none-eabi/10.3.1/../../../../arm-none-eabi/lib/thumb/v7-m/nofp\libc_nano.a(lib_a-sbrkr.o)
 .debug_frame   0x00003368       0x40 c:/gcc-arm-none-eabi/bin/../lib/gcc/arm-none-eabi/10.3.1/../../../../arm-none-eabi/lib/thumb/v7-m/nofp\libc_nano.a(lib_a-assert.o)
 .debug_frame   0x000033a8       0x64 c:/gcc-arm-none-eabi/bin/../lib/gcc/arm-none-eabi/10.3.1/../../../../arm-none-eabi/lib/thumb/v7-m/nofp\libc_nano.a(lib_a-fprintf.o)
 .debug_frame   0x0000340c       0x48 c:/gcc-arm-none-eabi/bin/../lib/gcc/arm-none-eabi/10.3.1/../../../../arm-none-eabi/lib/thumb/v7-m/nofp\libc_nano.a(lib_a-locale.o)
 .debug_frame   0x00003454       0x48 c:/gcc-arm-none-eabi/bin/../lib/gcc/arm-none-eabi/10.3.1/../../../../arm-none-eabi/lib/thumb/v7-m/nofp\libc_nano.a(lib_a-mbtowc_r.o)
 .debug_frame   0x0000349c       0x30 c:/gcc-arm-none-eabi/bin/../lib/gcc/arm-none-eabi/10.3.1/../../../../arm-none-eabi/lib/thumb/v7-m/nofp\libc_nano.a(lib_a-mlock.o)
 .debug_frame   0x000034cc       0xac c:/gcc-arm-none-eabi/bin/../lib/gcc/arm-none-eabi/10.3.1/../../../../arm-none-eabi/lib/thumb/v7-m/nofp\libc_nano.a(lib_a-nano-vfprintf.o)
 .debug_frame   0x00003578       0x5c c:/gcc-arm-none-eabi/bin/../lib/gcc/arm-none-eabi/10.3.1/../../../../arm-none-eabi/lib/thumb/v7-m/nofp\libc_nano.a(lib_a-reent.o)
 .debug_frame   0x000035d4       0x40 c:/gcc-arm-none-eabi/bin/../lib/gcc/arm-none-eabi/10.3.1/../../../../arm-none-eabi/lib/thumb/v7-m/nofp\libc_nano.a(lib_a-wbuf.o)
 .debug_frame   0x00003614       0x3c c:/gcc-arm-none-eabi/bin/../lib/gcc/arm-none-eabi/10.3.1/../../../../arm-none-eabi/lib/thumb/v7-m/nofp\libc_nano.a(lib_a-wctomb_r.o)
 .debug_frame   0x00003650       0x2c c:/gcc-arm-none-eabi/bin/../lib/gcc/arm-none-eabi/10.3.1/../../../../arm-none-eabi/lib/thumb/v7-m/nofp\libc_nano.a(lib_a-wsetup.o)
 .debug_frame   0x0000367c       0x28 c:/gcc-arm-none-eabi/bin/../lib/gcc/arm-none-eabi/10.3.1/../../../../arm-none-eabi/lib/thumb/v7-m/nofp\libc_nano.a(lib_a-abort.o)
 .debug_frame   0x000036a4       0x5c c:/gcc-arm-none-eabi/bin/../lib/gcc/arm-none-eabi/10.3.1/../../../../arm-none-eabi/lib/thumb/v7-m/nofp\libc_nano.a(lib_a-fflush.o)
 .debug_frame   0x00003700      0x14c c:/gcc-arm-none-eabi/bin/../lib/gcc/arm-none-eabi/10.3.1/../../../../arm-none-eabi/lib/thumb/v7-m/nofp\libc_nano.a(lib_a-findfp.o)
 .debug_frame   0x0000384c       0x54 c:/gcc-arm-none-eabi/bin/../lib/gcc/arm-none-eabi/10.3.1/../../../../arm-none-eabi/lib/thumb/v7-m/nofp\libc_nano.a(lib_a-fwalk.o)
 .debug_frame   0x000038a0       0xb0 c:/gcc-arm-none-eabi/bin/../lib/gcc/arm-none-eabi/10.3.1/../../../../arm-none-eabi/lib/thumb/v7-m/nofp\libc_nano.a(lib_a-lock.o)
 .debug_frame   0x00003950       0x58 c:/gcc-arm-none-eabi/bin/../lib/gcc/arm-none-eabi/10.3.1/../../../../arm-none-eabi/lib/thumb/v7-m/nofp\libc_nano.a(lib_a-makebuf.o)
 .debug_frame   0x000039a8       0xcc c:/gcc-arm-none-eabi/bin/../lib/gcc/arm-none-eabi/10.3.1/../../../../arm-none-eabi/lib/thumb/v7-m/nofp\libc_nano.a(lib_a-signal.o)
 .debug_frame   0x00003a74       0x3c c:/gcc-arm-none-eabi/bin/../lib/gcc/arm-none-eabi/10.3.1/../../../../arm-none-eabi/lib/thumb/v7-m/nofp\libc_nano.a(lib_a-signalr.o)
 .debug_frame   0x00003ab0       0x88 c:/gcc-arm-none-eabi/bin/../lib/gcc/arm-none-eabi/10.3.1/../../../../arm-none-eabi/lib/thumb/v7-m/nofp\libc_nano.a(lib_a-stdio.o)
 .debug_frame   0x00003b38       0x2c c:/gcc-arm-none-eabi/bin/../lib/gcc/arm-none-eabi/10.3.1/../../../../arm-none-eabi/lib/thumb/v7-m/nofp\libc_nano.a(lib_a-writer.o)
 .debug_frame   0x00003b64       0x2c c:/gcc-arm-none-eabi/bin/../lib/gcc/arm-none-eabi/10.3.1/../../../../arm-none-eabi/lib/thumb/v7-m/nofp\libc_nano.a(lib_a-closer.o)
 .debug_frame   0x00003b90       0x2c c:/gcc-arm-none-eabi/bin/../lib/gcc/arm-none-eabi/10.3.1/../../../../arm-none-eabi/lib/thumb/v7-m/nofp\libc_nano.a(lib_a-fstatr.o)
 .debug_frame   0x00003bbc       0x2c c:/gcc-arm-none-eabi/bin/../lib/gcc/arm-none-eabi/10.3.1/../../../../arm-none-eabi/lib/thumb/v7-m/nofp\libc_nano.a(lib_a-isattyr.o)
 .debug_frame   0x00003be8       0x2c c:/gcc-arm-none-eabi/bin/../lib/gcc/arm-none-eabi/10.3.1/../../../../arm-none-eabi/lib/thumb/v7-m/nofp\libc_nano.a(lib_a-lseekr.o)
 .debug_frame   0x00003c14       0x2c c:/gcc-arm-none-eabi/bin/../lib/gcc/arm-none-eabi/10.3.1/../../../../arm-none-eabi/lib/thumb/v7-m/nofp\libc_nano.a(lib_a-readr.o)
 .debug_frame   0x00003c40       0x20 c:/gcc-arm-none-eabi/bin/../lib/gcc/arm-none-eabi/10.3.1/../../../../arm-none-eabi/lib/thumb/v7-m/nofp\libnosys.a(close.o)
 .debug_frame   0x00003c60       0x20 c:/gcc-arm-none-eabi/bin/../lib/gcc/arm-none-eabi/10.3.1/../../../../arm-none-eabi/lib/thumb/v7-m/nofp\libnosys.a(fstat.o)
 .debug_frame   0x00003c80       0x20 c:/gcc-arm-none-eabi/bin/../lib/gcc/arm-none-eabi/10.3.1/../../../../arm-none-eabi/lib/thumb/v7-m/nofp\libnosys.a(getpid.o)
 .debug_frame   0x00003ca0       0x20 c:/gcc-arm-none-eabi/bin/../lib/gcc/arm-none-eabi/10.3.1/../../../../arm-none-eabi/lib/thumb/v7-m/nofp\libnosys.a(isatty.o)
 .debug_frame   0x00003cc0       0x20 c:/gcc-arm-none-eabi/bin/../lib/gcc/arm-none-eabi/10.3.1/../../../../arm-none-eabi/lib/thumb/v7-m/nofp\libnosys.a(kill.o)
 .debug_frame   0x00003ce0       0x20 c:/gcc-arm-none-eabi/bin/../lib/gcc/arm-none-eabi/10.3.1/../../../../arm-none-eabi/lib/thumb/v7-m/nofp\libnosys.a(lseek.o)
 .debug_frame   0x00003d00       0x20 c:/gcc-arm-none-eabi/bin/../lib/gcc/arm-none-eabi/10.3.1/../../../../arm-none-eabi/lib/thumb/v7-m/nofp\libnosys.a(read.o)
 .debug_frame   0x00003d20       0x20 c:/gcc-arm-none-eabi/bin/../lib/gcc/arm-none-eabi/10.3.1/../../../../arm-none-eabi/lib/thumb/v7-m/nofp\libnosys.a(sbrk.o)
 .debug_frame   0x00003d40       0x20 c:/gcc-arm-none-eabi/bin/../lib/gcc/arm-none-eabi/10.3.1/../../../../arm-none-eabi/lib/thumb/v7-m/nofp\libnosys.a(_exit.o)
 .debug_frame   0x00003d60       0xac c:/gcc-arm-none-eabi/bin/../lib/gcc/arm-none-eabi/10.3.1/thumb/v7-m/nofp\libgcc.a(_arm_addsubdf3.o)
 .debug_frame   0x00003e0c       0x50 c:/gcc-arm-none-eabi/bin/../lib/gcc/arm-none-eabi/10.3.1/thumb/v7-m/nofp\libgcc.a(_arm_muldivdf3.o)
 .debug_frame   0x00003e5c       0xc4 c:/gcc-arm-none-eabi/bin/../lib/gcc/arm-none-eabi/10.3.1/thumb/v7-m/nofp\libgcc.a(_arm_cmpdf2.o)
 .debug_frame   0x00003f20       0x20 c:/gcc-arm-none-eabi/bin/../lib/gcc/arm-none-eabi/10.3.1/thumb/v7-m/nofp\libgcc.a(_arm_unorddf2.o)
 .debug_frame   0x00003f40       0x24 c:/gcc-arm-none-eabi/bin/../lib/gcc/arm-none-eabi/10.3.1/thumb/v7-m/nofp\libgcc.a(_arm_fixdfsi.o)

.stab           0x00000000       0xb4
 .stab          0x00000000       0x24 c:/gcc-arm-none-eabi/bin/../lib/gcc/arm-none-eabi/10.3.1/../../../../arm-none-eabi/lib/thumb/v7-m/nofp\libnosys.a(close.o)
 .stab          0x00000024       0x18 c:/gcc-arm-none-eabi/bin/../lib/gcc/arm-none-eabi/10.3.1/../../../../arm-none-eabi/lib/thumb/v7-m/nofp\libnosys.a(fstat.o)
                                 0x24 (size before relaxing)
 .stab          0x0000003c       0x18 c:/gcc-arm-none-eabi/bin/../lib/gcc/arm-none-eabi/10.3.1/../../../../arm-none-eabi/lib/thumb/v7-m/nofp\libnosys.a(getpid.o)
                                 0x24 (size before relaxing)
 .stab          0x00000054       0x18 c:/gcc-arm-none-eabi/bin/../lib/gcc/arm-none-eabi/10.3.1/../../../../arm-none-eabi/lib/thumb/v7-m/nofp\libnosys.a(isatty.o)
                                 0x24 (size before relaxing)
 .stab          0x0000006c       0x18 c:/gcc-arm-none-eabi/bin/../lib/gcc/arm-none-eabi/10.3.1/../../../../arm-none-eabi/lib/thumb/v7-m/nofp\libnosys.a(kill.o)
                                 0x24 (size before relaxing)
 .stab          0x00000084       0x18 c:/gcc-arm-none-eabi/bin/../lib/gcc/arm-none-eabi/10.3.1/../../../../arm-none-eabi/lib/thumb/v7-m/nofp\libnosys.a(lseek.o)
                                 0x24 (size before relaxing)
 .stab          0x0000009c       0x18 c:/gcc-arm-none-eabi/bin/../lib/gcc/arm-none-eabi/10.3.1/../../../../arm-none-eabi/lib/thumb/v7-m/nofp\libnosys.a(read.o)
                                 0x24 (size before relaxing)

.stabstr        0x00000000      0x183
 .stabstr       0x00000000      0x183 c:/gcc-arm-none-eabi/bin/../lib/gcc/arm-none-eabi/10.3.1/../../../../arm-none-eabi/lib/thumb/v7-m/nofp\libnosys.a(close.o)

Cross Reference Table

Symbol                                            File
ADC1_2_IRQHandler                                 build/startup_stm32f10x_hd.o
ADC3_IRQHandler                                   build/startup_stm32f10x_hd.o
ADC_AnalogWatchdogCmd                             build/stm32f10x_adc.o
ADC_AnalogWatchdogSingleChannelConfig             build/stm32f10x_adc.o
ADC_AnalogWatchdogThresholdsConfig                build/stm32f10x_adc.o
ADC_AutoInjectedConvCmd                           build/stm32f10x_adc.o
ADC_ClearFlag                                     build/stm32f10x_adc.o
ADC_ClearITPendingBit                             build/stm32f10x_adc.o
ADC_Cmd                                           build/stm32f10x_adc.o
ADC_DMACmd                                        build/stm32f10x_adc.o
ADC_DeInit                                        build/stm32f10x_adc.o
ADC_DiscModeChannelCountConfig                    build/stm32f10x_adc.o
ADC_DiscModeCmd                                   build/stm32f10x_adc.o
ADC_ExternalTrigConvCmd                           build/stm32f10x_adc.o
ADC_ExternalTrigInjectedConvCmd                   build/stm32f10x_adc.o
ADC_ExternalTrigInjectedConvConfig                build/stm32f10x_adc.o
ADC_GetCalibrationStatus                          build/stm32f10x_adc.o
ADC_GetConversionValue                            build/stm32f10x_adc.o
ADC_GetDualModeConversionValue                    build/stm32f10x_adc.o
ADC_GetFlagStatus                                 build/stm32f10x_adc.o
ADC_GetITStatus                                   build/stm32f10x_adc.o
ADC_GetInjectedConversionValue                    build/stm32f10x_adc.o
ADC_GetResetCalibrationStatus                     build/stm32f10x_adc.o
ADC_GetSoftwareStartConvStatus                    build/stm32f10x_adc.o
ADC_GetSoftwareStartInjectedConvCmdStatus         build/stm32f10x_adc.o
ADC_ITConfig                                      build/stm32f10x_adc.o
ADC_Init                                          build/stm32f10x_adc.o
ADC_InjectedChannelConfig                         build/stm32f10x_adc.o
ADC_InjectedDiscModeCmd                           build/stm32f10x_adc.o
ADC_InjectedSequencerLengthConfig                 build/stm32f10x_adc.o
ADC_RegularChannelConfig                          build/stm32f10x_adc.o
ADC_ResetCalibration                              build/stm32f10x_adc.o
ADC_SetInjectedOffset                             build/stm32f10x_adc.o
ADC_SoftwareStartConvCmd                          build/stm32f10x_adc.o
ADC_SoftwareStartInjectedConvCmd                  build/stm32f10x_adc.o
ADC_StartCalibration                              build/stm32f10x_adc.o
ADC_StructInit                                    build/stm32f10x_adc.o
ADC_TempSensorVrefintCmd                          build/stm32f10x_adc.o
AHBPrescTable                                     build/system_stm32f10x.o
BKP_ClearFlag                                     build/stm32f10x_bkp.o
BKP_ClearITPendingBit                             build/stm32f10x_bkp.o
BKP_DeInit                                        build/stm32f10x_bkp.o
BKP_GetFlagStatus                                 build/stm32f10x_bkp.o
BKP_GetITStatus                                   build/stm32f10x_bkp.o
BKP_ITConfig                                      build/stm32f10x_bkp.o
BKP_RTCOutputConfig                               build/stm32f10x_bkp.o
BKP_ReadBackupRegister                            build/stm32f10x_bkp.o
BKP_SetRTCCalibrationValue                        build/stm32f10x_bkp.o
BKP_TamperPinCmd                                  build/stm32f10x_bkp.o
BKP_TamperPinLevelConfig                          build/stm32f10x_bkp.o
BKP_WriteBackupRegister                           build/stm32f10x_bkp.o
BusFault_Handler                                  build/stm32f10x_it.o
CAN1_RX1_IRQHandler                               build/startup_stm32f10x_hd.o
CAN1_SCE_IRQHandler                               build/startup_stm32f10x_hd.o
CAN_CancelTransmit                                build/stm32f10x_can.o
CAN_ClearFlag                                     build/stm32f10x_can.o
CAN_ClearITPendingBit                             build/stm32f10x_can.o
CAN_DBGFreeze                                     build/stm32f10x_can.o
CAN_DeInit                                        build/stm32f10x_can.o
CAN_FIFORelease                                   build/stm32f10x_can.o
CAN_FilterInit                                    build/stm32f10x_can.o
CAN_GetFlagStatus                                 build/stm32f10x_can.o
CAN_GetITStatus                                   build/stm32f10x_can.o
CAN_GetLSBTransmitErrorCounter                    build/stm32f10x_can.o
CAN_GetLastErrorCode                              build/stm32f10x_can.o
CAN_GetReceiveErrorCounter                        build/stm32f10x_can.o
CAN_ITConfig                                      build/stm32f10x_can.o
CAN_Init                                          build/stm32f10x_can.o
CAN_MessagePending                                build/stm32f10x_can.o
CAN_OperatingModeRequest                          build/stm32f10x_can.o
CAN_Receive                                       build/stm32f10x_can.o
CAN_SlaveStartBank                                build/stm32f10x_can.o
CAN_Sleep                                         build/stm32f10x_can.o
CAN_StructInit                                    build/stm32f10x_can.o
CAN_TTComModeCmd                                  build/stm32f10x_can.o
CAN_Transmit                                      build/stm32f10x_can.o
CAN_TransmitStatus                                build/stm32f10x_can.o
CAN_WakeUp                                        build/stm32f10x_can.o
CEC_ClearFlag                                     build/stm32f10x_cec.o
CEC_ClearITPendingBit                             build/stm32f10x_cec.o
CEC_Cmd                                           build/stm32f10x_cec.o
CEC_DeInit                                        build/stm32f10x_cec.o
CEC_EndOfMessageCmd                               build/stm32f10x_cec.o
CEC_GetFlagStatus                                 build/stm32f10x_cec.o
CEC_GetITStatus                                   build/stm32f10x_cec.o
CEC_ITConfig                                      build/stm32f10x_cec.o
CEC_Init                                          build/stm32f10x_cec.o
CEC_OwnAddressConfig                              build/stm32f10x_cec.o
CEC_ReceiveDataByte                               build/stm32f10x_cec.o
CEC_SendDataByte                                  build/stm32f10x_cec.o
CEC_SetPrescaler                                  build/stm32f10x_cec.o
CEC_StartOfMessage                                build/stm32f10x_cec.o
CRC_CalcBlockCRC                                  build/stm32f10x_crc.o
CRC_CalcCRC                                       build/stm32f10x_crc.o
CRC_GetCRC                                        build/stm32f10x_crc.o
CRC_GetIDRegister                                 build/stm32f10x_crc.o
CRC_ResetDR                                       build/stm32f10x_crc.o
CRC_SetIDRegister                                 build/stm32f10x_crc.o
DAC_Cmd                                           build/stm32f10x_dac.o
DAC_DMACmd                                        build/stm32f10x_dac.o
DAC_DeInit                                        build/stm32f10x_dac.o
DAC_DualSoftwareTriggerCmd                        build/stm32f10x_dac.o
DAC_GetDataOutputValue                            build/stm32f10x_dac.o
DAC_Init                                          build/stm32f10x_dac.o
DAC_SetChannel1Data                               build/stm32f10x_dac.o
DAC_SetChannel2Data                               build/stm32f10x_dac.o
DAC_SetDualChannelData                            build/stm32f10x_dac.o
DAC_SoftwareTriggerCmd                            build/stm32f10x_dac.o
DAC_StructInit                                    build/stm32f10x_dac.o
DAC_WaveGenerationCmd                             build/stm32f10x_dac.o
DBGMCU_Config                                     build/stm32f10x_dbgmcu.o
DBGMCU_GetDEVID                                   build/stm32f10x_dbgmcu.o
DBGMCU_GetREVID                                   build/stm32f10x_dbgmcu.o
DMA1_Channel1_IRQHandler                          build/startup_stm32f10x_hd.o
DMA1_Channel2_IRQHandler                          build/startup_stm32f10x_hd.o
DMA1_Channel3_IRQHandler                          build/startup_stm32f10x_hd.o
DMA1_Channel4_IRQHandler                          build/startup_stm32f10x_hd.o
DMA1_Channel5_IRQHandler                          build/startup_stm32f10x_hd.o
DMA1_Channel6_IRQHandler                          build/startup_stm32f10x_hd.o
DMA1_Channel7_IRQHandler                          build/startup_stm32f10x_hd.o
DMA2_Channel1_IRQHandler                          build/startup_stm32f10x_hd.o
DMA2_Channel2_IRQHandler                          build/startup_stm32f10x_hd.o
DMA2_Channel3_IRQHandler                          build/startup_stm32f10x_hd.o
DMA2_Channel4_5_IRQHandler                        build/startup_stm32f10x_hd.o
DMA_ClearFlag                                     build/stm32f10x_dma.o
DMA_ClearITPendingBit                             build/stm32f10x_dma.o
DMA_Cmd                                           build/stm32f10x_dma.o
DMA_DeInit                                        build/stm32f10x_dma.o
DMA_GetCurrDataCounter                            build/stm32f10x_dma.o
DMA_GetFlagStatus                                 build/stm32f10x_dma.o
DMA_GetITStatus                                   build/stm32f10x_dma.o
DMA_ITConfig                                      build/stm32f10x_dma.o
DMA_Init                                          build/stm32f10x_dma.o
DMA_SetCurrDataCounter                            build/stm32f10x_dma.o
DMA_StructInit                                    build/stm32f10x_dma.o
DebugMon_Handler                                  build/stm32f10x_it.o
Default_Handler                                   build/startup_stm32f10x_hd.o
EXTI0_IRQHandler                                  build/startup_stm32f10x_hd.o
EXTI15_10_IRQHandler                              build/startup_stm32f10x_hd.o
EXTI1_IRQHandler                                  build/startup_stm32f10x_hd.o
EXTI2_IRQHandler                                  build/startup_stm32f10x_hd.o
EXTI3_IRQHandler                                  build/startup_stm32f10x_hd.o
EXTI4_IRQHandler                                  build/startup_stm32f10x_hd.o
EXTI9_5_IRQHandler                                build/startup_stm32f10x_hd.o
EXTI_ClearFlag                                    build/stm32f10x_exti.o
EXTI_ClearITPendingBit                            build/stm32f10x_exti.o
EXTI_DeInit                                       build/stm32f10x_exti.o
EXTI_GenerateSWInterrupt                          build/stm32f10x_exti.o
EXTI_GetFlagStatus                                build/stm32f10x_exti.o
EXTI_GetITStatus                                  build/stm32f10x_exti.o
EXTI_Init                                         build/stm32f10x_exti.o
EXTI_StructInit                                   build/stm32f10x_exti.o
FLASH_ClearFlag                                   build/stm32f10x_flash.o
FLASH_EnableWriteProtection                       build/stm32f10x_flash.o
FLASH_EraseAllBank1Pages                          build/stm32f10x_flash.o
FLASH_EraseAllPages                               build/stm32f10x_flash.o
FLASH_EraseOptionBytes                            build/stm32f10x_flash.o
FLASH_ErasePage                                   build/stm32f10x_flash.o
FLASH_GetBank1Status                              build/stm32f10x_flash.o
FLASH_GetFlagStatus                               build/stm32f10x_flash.o
FLASH_GetPrefetchBufferStatus                     build/stm32f10x_flash.o
FLASH_GetReadOutProtectionStatus                  build/stm32f10x_flash.o
FLASH_GetStatus                                   build/stm32f10x_flash.o
FLASH_GetUserOptionByte                           build/stm32f10x_flash.o
FLASH_GetWriteProtectionOptionByte                build/stm32f10x_flash.o
FLASH_HalfCycleAccessCmd                          build/stm32f10x_flash.o
FLASH_IRQHandler                                  build/startup_stm32f10x_hd.o
FLASH_ITConfig                                    build/stm32f10x_flash.o
FLASH_Lock                                        build/stm32f10x_flash.o
FLASH_LockBank1                                   build/stm32f10x_flash.o
FLASH_PrefetchBufferCmd                           build/stm32f10x_flash.o
FLASH_ProgramHalfWord                             build/stm32f10x_flash.o
FLASH_ProgramOptionByteData                       build/stm32f10x_flash.o
FLASH_ProgramWord                                 build/stm32f10x_flash.o
FLASH_ReadOutProtection                           build/stm32f10x_flash.o
FLASH_SetLatency                                  build/stm32f10x_flash.o
FLASH_Unlock                                      build/stm32f10x_flash.o
FLASH_UnlockBank1                                 build/stm32f10x_flash.o
FLASH_UserOptionByteConfig                        build/stm32f10x_flash.o
FLASH_WaitForLastBank1Operation                   build/stm32f10x_flash.o
FLASH_WaitForLastOperation                        build/stm32f10x_flash.o
FSMC_ClearFlag                                    build/stm32f10x_fsmc.o
FSMC_ClearITPendingBit                            build/stm32f10x_fsmc.o
FSMC_GetECC                                       build/stm32f10x_fsmc.o
FSMC_GetFlagStatus                                build/stm32f10x_fsmc.o
FSMC_GetITStatus                                  build/stm32f10x_fsmc.o
FSMC_IRQHandler                                   build/startup_stm32f10x_hd.o
FSMC_ITConfig                                     build/stm32f10x_fsmc.o
FSMC_NANDCmd                                      build/stm32f10x_fsmc.o
FSMC_NANDDeInit                                   build/stm32f10x_fsmc.o
FSMC_NANDECCCmd                                   build/stm32f10x_fsmc.o
FSMC_NANDInit                                     build/stm32f10x_fsmc.o
FSMC_NANDStructInit                               build/stm32f10x_fsmc.o
FSMC_NORSRAMCmd                                   build/stm32f10x_fsmc.o
FSMC_NORSRAMDeInit                                build/stm32f10x_fsmc.o
FSMC_NORSRAMInit                                  build/stm32f10x_fsmc.o
FSMC_NORSRAMStructInit                            build/stm32f10x_fsmc.o
FSMC_PCCARDCmd                                    build/stm32f10x_fsmc.o
FSMC_PCCARDDeInit                                 build/stm32f10x_fsmc.o
FSMC_PCCARDInit                                   build/stm32f10x_fsmc.o
FSMC_PCCARDStructInit                             build/stm32f10x_fsmc.o
GPIO_AFIODeInit                                   build/stm32f10x_gpio.o
GPIO_DeInit                                       build/stm32f10x_gpio.o
GPIO_ETH_MediaInterfaceConfig                     build/stm32f10x_gpio.o
GPIO_EXTILineConfig                               build/stm32f10x_gpio.o
GPIO_EventOutputCmd                               build/stm32f10x_gpio.o
GPIO_EventOutputConfig                            build/stm32f10x_gpio.o
GPIO_Init                                         build/stm32f10x_gpio.o
                                                  build/bsp_debug_usart.o
                                                  build/bsp_led.o
GPIO_PinLockConfig                                build/stm32f10x_gpio.o
GPIO_PinRemapConfig                               build/stm32f10x_gpio.o
GPIO_ReadInputData                                build/stm32f10x_gpio.o
GPIO_ReadInputDataBit                             build/stm32f10x_gpio.o
GPIO_ReadOutputData                               build/stm32f10x_gpio.o
GPIO_ReadOutputDataBit                            build/stm32f10x_gpio.o
GPIO_ResetBits                                    build/stm32f10x_gpio.o
                                                  build/main.o
GPIO_SetBits                                      build/stm32f10x_gpio.o
                                                  build/main.o
GPIO_StructInit                                   build/stm32f10x_gpio.o
GPIO_Write                                        build/stm32f10x_gpio.o
GPIO_WriteBit                                     build/stm32f10x_gpio.o
HardFault_Handler                                 build/context_gcc.o
                                                  build/startup_stm32f10x_hd.o
I2C1_ER_IRQHandler                                build/startup_stm32f10x_hd.o
I2C1_EV_IRQHandler                                build/startup_stm32f10x_hd.o
I2C2_ER_IRQHandler                                build/startup_stm32f10x_hd.o
I2C2_EV_IRQHandler                                build/startup_stm32f10x_hd.o
I2C_ARPCmd                                        build/stm32f10x_i2c.o
I2C_AcknowledgeConfig                             build/stm32f10x_i2c.o
I2C_CalculatePEC                                  build/stm32f10x_i2c.o
I2C_CheckEvent                                    build/stm32f10x_i2c.o
I2C_ClearFlag                                     build/stm32f10x_i2c.o
I2C_ClearITPendingBit                             build/stm32f10x_i2c.o
I2C_Cmd                                           build/stm32f10x_i2c.o
I2C_DMACmd                                        build/stm32f10x_i2c.o
I2C_DMALastTransferCmd                            build/stm32f10x_i2c.o
I2C_DeInit                                        build/stm32f10x_i2c.o
I2C_DualAddressCmd                                build/stm32f10x_i2c.o
I2C_FastModeDutyCycleConfig                       build/stm32f10x_i2c.o
I2C_GeneralCallCmd                                build/stm32f10x_i2c.o
I2C_GenerateSTART                                 build/stm32f10x_i2c.o
I2C_GenerateSTOP                                  build/stm32f10x_i2c.o
I2C_GetFlagStatus                                 build/stm32f10x_i2c.o
I2C_GetITStatus                                   build/stm32f10x_i2c.o
I2C_GetLastEvent                                  build/stm32f10x_i2c.o
I2C_GetPEC                                        build/stm32f10x_i2c.o
I2C_ITConfig                                      build/stm32f10x_i2c.o
I2C_Init                                          build/stm32f10x_i2c.o
I2C_NACKPositionConfig                            build/stm32f10x_i2c.o
I2C_OwnAddress2Config                             build/stm32f10x_i2c.o
I2C_PECPositionConfig                             build/stm32f10x_i2c.o
I2C_ReadRegister                                  build/stm32f10x_i2c.o
I2C_ReceiveData                                   build/stm32f10x_i2c.o
I2C_SMBusAlertConfig                              build/stm32f10x_i2c.o
I2C_Send7bitAddress                               build/stm32f10x_i2c.o
I2C_SendData                                      build/stm32f10x_i2c.o
I2C_SoftwareResetCmd                              build/stm32f10x_i2c.o
I2C_StretchClockCmd                               build/stm32f10x_i2c.o
I2C_StructInit                                    build/stm32f10x_i2c.o
I2C_TransmitPEC                                   build/stm32f10x_i2c.o
I2S_Cmd                                           build/stm32f10x_spi.o
I2S_Init                                          build/stm32f10x_spi.o
I2S_StructInit                                    build/stm32f10x_spi.o
IWDG_Enable                                       build/stm32f10x_iwdg.o
IWDG_GetFlagStatus                                build/stm32f10x_iwdg.o
IWDG_ReloadCounter                                build/stm32f10x_iwdg.o
IWDG_SetPrescaler                                 build/stm32f10x_iwdg.o
IWDG_SetReload                                    build/stm32f10x_iwdg.o
IWDG_WriteAccessCmd                               build/stm32f10x_iwdg.o
LED_GPIO_Config                                   build/bsp_led.o
                                                  build/board.o
MemManage_Handler                                 build/stm32f10x_it.o
NMI_Handler                                       build/stm32f10x_it.o
NVIC_Init                                         build/misc.o
NVIC_PriorityGroupConfig                          build/misc.o
NVIC_SetVectorTable                               build/misc.o
NVIC_SystemLPConfig                               build/misc.o
PVD_IRQHandler                                    build/startup_stm32f10x_hd.o
PWR_BackupAccessCmd                               build/stm32f10x_pwr.o
PWR_ClearFlag                                     build/stm32f10x_pwr.o
PWR_DeInit                                        build/stm32f10x_pwr.o
PWR_EnterSTANDBYMode                              build/stm32f10x_pwr.o
PWR_EnterSTOPMode                                 build/stm32f10x_pwr.o
PWR_GetFlagStatus                                 build/stm32f10x_pwr.o
PWR_PVDCmd                                        build/stm32f10x_pwr.o
PWR_PVDLevelConfig                                build/stm32f10x_pwr.o
PWR_WakeUpPinCmd                                  build/stm32f10x_pwr.o
PendSV_Handler                                    build/context_gcc.o
                                                  build/startup_stm32f10x_hd.o
RCC_ADCCLKConfig                                  build/stm32f10x_rcc.o
RCC_AHBPeriphClockCmd                             build/stm32f10x_rcc.o
RCC_APB1PeriphClockCmd                            build/stm32f10x_rcc.o
RCC_APB1PeriphResetCmd                            build/stm32f10x_rcc.o
                                                  build/stm32f10x_wwdg.o
                                                  build/stm32f10x_usart.o
                                                  build/stm32f10x_tim.o
                                                  build/stm32f10x_spi.o
                                                  build/stm32f10x_pwr.o
                                                  build/stm32f10x_i2c.o
                                                  build/stm32f10x_dac.o
                                                  build/stm32f10x_cec.o
                                                  build/stm32f10x_can.o
RCC_APB2PeriphClockCmd                            build/stm32f10x_rcc.o
                                                  build/bsp_debug_usart.o
                                                  build/bsp_led.o
RCC_APB2PeriphResetCmd                            build/stm32f10x_rcc.o
                                                  build/stm32f10x_usart.o
                                                  build/stm32f10x_tim.o
                                                  build/stm32f10x_spi.o
                                                  build/stm32f10x_gpio.o
                                                  build/stm32f10x_adc.o
RCC_AdjustHSICalibrationValue                     build/stm32f10x_rcc.o
RCC_BackupResetCmd                                build/stm32f10x_rcc.o
                                                  build/stm32f10x_bkp.o
RCC_ClearFlag                                     build/stm32f10x_rcc.o
RCC_ClearITPendingBit                             build/stm32f10x_rcc.o
RCC_ClockSecuritySystemCmd                        build/stm32f10x_rcc.o
RCC_DeInit                                        build/stm32f10x_rcc.o
RCC_GetClocksFreq                                 build/stm32f10x_rcc.o
                                                  build/stm32f10x_usart.o
                                                  build/stm32f10x_spi.o
                                                  build/stm32f10x_i2c.o
RCC_GetFlagStatus                                 build/stm32f10x_rcc.o
RCC_GetITStatus                                   build/stm32f10x_rcc.o
RCC_GetSYSCLKSource                               build/stm32f10x_rcc.o
RCC_HCLKConfig                                    build/stm32f10x_rcc.o
RCC_HSEConfig                                     build/stm32f10x_rcc.o
RCC_HSICmd                                        build/stm32f10x_rcc.o
RCC_IRQHandler                                    build/startup_stm32f10x_hd.o
RCC_ITConfig                                      build/stm32f10x_rcc.o
RCC_LSEConfig                                     build/stm32f10x_rcc.o
RCC_LSICmd                                        build/stm32f10x_rcc.o
RCC_MCOConfig                                     build/stm32f10x_rcc.o
RCC_PCLK1Config                                   build/stm32f10x_rcc.o
RCC_PCLK2Config                                   build/stm32f10x_rcc.o
RCC_PLLCmd                                        build/stm32f10x_rcc.o
RCC_PLLConfig                                     build/stm32f10x_rcc.o
RCC_RTCCLKCmd                                     build/stm32f10x_rcc.o
RCC_RTCCLKConfig                                  build/stm32f10x_rcc.o
RCC_SYSCLKConfig                                  build/stm32f10x_rcc.o
RCC_USBCLKConfig                                  build/stm32f10x_rcc.o
RCC_WaitForHSEStartUp                             build/stm32f10x_rcc.o
RTCAlarm_IRQHandler                               build/startup_stm32f10x_hd.o
RTC_ClearFlag                                     build/stm32f10x_rtc.o
RTC_ClearITPendingBit                             build/stm32f10x_rtc.o
RTC_EnterConfigMode                               build/stm32f10x_rtc.o
RTC_ExitConfigMode                                build/stm32f10x_rtc.o
RTC_GetCounter                                    build/stm32f10x_rtc.o
RTC_GetDivider                                    build/stm32f10x_rtc.o
RTC_GetFlagStatus                                 build/stm32f10x_rtc.o
RTC_GetITStatus                                   build/stm32f10x_rtc.o
RTC_IRQHandler                                    build/startup_stm32f10x_hd.o
RTC_ITConfig                                      build/stm32f10x_rtc.o
RTC_SetAlarm                                      build/stm32f10x_rtc.o
RTC_SetCounter                                    build/stm32f10x_rtc.o
RTC_SetPrescaler                                  build/stm32f10x_rtc.o
RTC_WaitForLastTask                               build/stm32f10x_rtc.o
RTC_WaitForSynchro                                build/stm32f10x_rtc.o
Reset_Handler                                     build/startup_stm32f10x_hd.o
SDIO_CEATAITCmd                                   build/stm32f10x_sdio.o
SDIO_ClearFlag                                    build/stm32f10x_sdio.o
SDIO_ClearITPendingBit                            build/stm32f10x_sdio.o
SDIO_ClockCmd                                     build/stm32f10x_sdio.o
SDIO_CmdStructInit                                build/stm32f10x_sdio.o
SDIO_CommandCompletionCmd                         build/stm32f10x_sdio.o
SDIO_DMACmd                                       build/stm32f10x_sdio.o
SDIO_DataConfig                                   build/stm32f10x_sdio.o
SDIO_DataStructInit                               build/stm32f10x_sdio.o
SDIO_DeInit                                       build/stm32f10x_sdio.o
SDIO_GetCommandResponse                           build/stm32f10x_sdio.o
SDIO_GetDataCounter                               build/stm32f10x_sdio.o
SDIO_GetFIFOCount                                 build/stm32f10x_sdio.o
SDIO_GetFlagStatus                                build/stm32f10x_sdio.o
SDIO_GetITStatus                                  build/stm32f10x_sdio.o
SDIO_GetPowerState                                build/stm32f10x_sdio.o
SDIO_GetResponse                                  build/stm32f10x_sdio.o
SDIO_IRQHandler                                   build/startup_stm32f10x_hd.o
SDIO_ITConfig                                     build/stm32f10x_sdio.o
SDIO_Init                                         build/stm32f10x_sdio.o
SDIO_ReadData                                     build/stm32f10x_sdio.o
SDIO_SendCEATACmd                                 build/stm32f10x_sdio.o
SDIO_SendCommand                                  build/stm32f10x_sdio.o
SDIO_SendSDIOSuspendCmd                           build/stm32f10x_sdio.o
SDIO_SetPowerState                                build/stm32f10x_sdio.o
SDIO_SetSDIOOperation                             build/stm32f10x_sdio.o
SDIO_SetSDIOReadWaitMode                          build/stm32f10x_sdio.o
SDIO_StartSDIOReadWait                            build/stm32f10x_sdio.o
SDIO_StopSDIOReadWait                             build/stm32f10x_sdio.o
SDIO_StructInit                                   build/stm32f10x_sdio.o
SDIO_WriteData                                    build/stm32f10x_sdio.o
SPI1_IRQHandler                                   build/startup_stm32f10x_hd.o
SPI2_IRQHandler                                   build/startup_stm32f10x_hd.o
SPI3_IRQHandler                                   build/startup_stm32f10x_hd.o
SPI_BiDirectionalLineConfig                       build/stm32f10x_spi.o
SPI_CalculateCRC                                  build/stm32f10x_spi.o
SPI_Cmd                                           build/stm32f10x_spi.o
SPI_DataSizeConfig                                build/stm32f10x_spi.o
SPI_GetCRC                                        build/stm32f10x_spi.o
SPI_GetCRCPolynomial                              build/stm32f10x_spi.o
SPI_I2S_ClearFlag                                 build/stm32f10x_spi.o
SPI_I2S_ClearITPendingBit                         build/stm32f10x_spi.o
SPI_I2S_DMACmd                                    build/stm32f10x_spi.o
SPI_I2S_DeInit                                    build/stm32f10x_spi.o
SPI_I2S_GetFlagStatus                             build/stm32f10x_spi.o
SPI_I2S_GetITStatus                               build/stm32f10x_spi.o
SPI_I2S_ITConfig                                  build/stm32f10x_spi.o
SPI_I2S_ReceiveData                               build/stm32f10x_spi.o
SPI_I2S_SendData                                  build/stm32f10x_spi.o
SPI_Init                                          build/stm32f10x_spi.o
SPI_NSSInternalSoftwareConfig                     build/stm32f10x_spi.o
SPI_SSOutputCmd                                   build/stm32f10x_spi.o
SPI_StructInit                                    build/stm32f10x_spi.o
SPI_TransmitCRC                                   build/stm32f10x_spi.o
SVC_Handler                                       build/stm32f10x_it.o
SysTick_CLKSourceConfig                           build/misc.o
SysTick_Handler                                   build/board.o
SystemCoreClock                                   build/system_stm32f10x.o
                                                  build/board.o
SystemCoreClockUpdate                             build/system_stm32f10x.o
SystemInit                                        build/system_stm32f10x.o
                                                  build/startup_stm32f10x_hd.o
TAMPER_IRQHandler                                 build/startup_stm32f10x_hd.o
TIM1_BRK_IRQHandler                               build/startup_stm32f10x_hd.o
TIM1_CC_IRQHandler                                build/startup_stm32f10x_hd.o
TIM1_TRG_COM_IRQHandler                           build/startup_stm32f10x_hd.o
TIM1_UP_IRQHandler                                build/startup_stm32f10x_hd.o
TIM2_IRQHandler                                   build/startup_stm32f10x_hd.o
TIM3_IRQHandler                                   build/startup_stm32f10x_hd.o
TIM4_IRQHandler                                   build/startup_stm32f10x_hd.o
TIM5_IRQHandler                                   build/startup_stm32f10x_hd.o
TIM6_IRQHandler                                   build/startup_stm32f10x_hd.o
TIM7_IRQHandler                                   build/startup_stm32f10x_hd.o
TIM8_BRK_IRQHandler                               build/startup_stm32f10x_hd.o
TIM8_CC_IRQHandler                                build/startup_stm32f10x_hd.o
TIM8_TRG_COM_IRQHandler                           build/startup_stm32f10x_hd.o
TIM8_UP_IRQHandler                                build/startup_stm32f10x_hd.o
TIM_ARRPreloadConfig                              build/stm32f10x_tim.o
TIM_BDTRConfig                                    build/stm32f10x_tim.o
TIM_BDTRStructInit                                build/stm32f10x_tim.o
TIM_CCPreloadControl                              build/stm32f10x_tim.o
TIM_CCxCmd                                        build/stm32f10x_tim.o
TIM_CCxNCmd                                       build/stm32f10x_tim.o
TIM_ClearFlag                                     build/stm32f10x_tim.o
TIM_ClearITPendingBit                             build/stm32f10x_tim.o
TIM_ClearOC1Ref                                   build/stm32f10x_tim.o
TIM_ClearOC2Ref                                   build/stm32f10x_tim.o
TIM_ClearOC3Ref                                   build/stm32f10x_tim.o
TIM_ClearOC4Ref                                   build/stm32f10x_tim.o
TIM_Cmd                                           build/stm32f10x_tim.o
TIM_CounterModeConfig                             build/stm32f10x_tim.o
TIM_CtrlPWMOutputs                                build/stm32f10x_tim.o
TIM_DMACmd                                        build/stm32f10x_tim.o
TIM_DMAConfig                                     build/stm32f10x_tim.o
TIM_DeInit                                        build/stm32f10x_tim.o
TIM_ETRClockMode1Config                           build/stm32f10x_tim.o
TIM_ETRClockMode2Config                           build/stm32f10x_tim.o
TIM_ETRConfig                                     build/stm32f10x_tim.o
TIM_EncoderInterfaceConfig                        build/stm32f10x_tim.o
TIM_ForcedOC1Config                               build/stm32f10x_tim.o
TIM_ForcedOC2Config                               build/stm32f10x_tim.o
TIM_ForcedOC3Config                               build/stm32f10x_tim.o
TIM_ForcedOC4Config                               build/stm32f10x_tim.o
TIM_GenerateEvent                                 build/stm32f10x_tim.o
TIM_GetCapture1                                   build/stm32f10x_tim.o
TIM_GetCapture2                                   build/stm32f10x_tim.o
TIM_GetCapture3                                   build/stm32f10x_tim.o
TIM_GetCapture4                                   build/stm32f10x_tim.o
TIM_GetCounter                                    build/stm32f10x_tim.o
TIM_GetFlagStatus                                 build/stm32f10x_tim.o
TIM_GetITStatus                                   build/stm32f10x_tim.o
TIM_GetPrescaler                                  build/stm32f10x_tim.o
TIM_ICInit                                        build/stm32f10x_tim.o
TIM_ICStructInit                                  build/stm32f10x_tim.o
TIM_ITConfig                                      build/stm32f10x_tim.o
TIM_ITRxExternalClockConfig                       build/stm32f10x_tim.o
TIM_InternalClockConfig                           build/stm32f10x_tim.o
TIM_OC1FastConfig                                 build/stm32f10x_tim.o
TIM_OC1Init                                       build/stm32f10x_tim.o
TIM_OC1NPolarityConfig                            build/stm32f10x_tim.o
TIM_OC1PolarityConfig                             build/stm32f10x_tim.o
TIM_OC1PreloadConfig                              build/stm32f10x_tim.o
TIM_OC2FastConfig                                 build/stm32f10x_tim.o
TIM_OC2Init                                       build/stm32f10x_tim.o
TIM_OC2NPolarityConfig                            build/stm32f10x_tim.o
TIM_OC2PolarityConfig                             build/stm32f10x_tim.o
TIM_OC2PreloadConfig                              build/stm32f10x_tim.o
TIM_OC3FastConfig                                 build/stm32f10x_tim.o
TIM_OC3Init                                       build/stm32f10x_tim.o
TIM_OC3NPolarityConfig                            build/stm32f10x_tim.o
TIM_OC3PolarityConfig                             build/stm32f10x_tim.o
TIM_OC3PreloadConfig                              build/stm32f10x_tim.o
TIM_OC4FastConfig                                 build/stm32f10x_tim.o
TIM_OC4Init                                       build/stm32f10x_tim.o
TIM_OC4PolarityConfig                             build/stm32f10x_tim.o
TIM_OC4PreloadConfig                              build/stm32f10x_tim.o
TIM_OCStructInit                                  build/stm32f10x_tim.o
TIM_PWMIConfig                                    build/stm32f10x_tim.o
TIM_PrescalerConfig                               build/stm32f10x_tim.o
TIM_SelectCCDMA                                   build/stm32f10x_tim.o
TIM_SelectCOM                                     build/stm32f10x_tim.o
TIM_SelectHallSensor                              build/stm32f10x_tim.o
TIM_SelectInputTrigger                            build/stm32f10x_tim.o
TIM_SelectMasterSlaveMode                         build/stm32f10x_tim.o
TIM_SelectOCxM                                    build/stm32f10x_tim.o
TIM_SelectOnePulseMode                            build/stm32f10x_tim.o
TIM_SelectOutputTrigger                           build/stm32f10x_tim.o
TIM_SelectSlaveMode                               build/stm32f10x_tim.o
TIM_SetAutoreload                                 build/stm32f10x_tim.o
TIM_SetClockDivision                              build/stm32f10x_tim.o
TIM_SetCompare1                                   build/stm32f10x_tim.o
TIM_SetCompare2                                   build/stm32f10x_tim.o
TIM_SetCompare3                                   build/stm32f10x_tim.o
TIM_SetCompare4                                   build/stm32f10x_tim.o
TIM_SetCounter                                    build/stm32f10x_tim.o
TIM_SetIC1Prescaler                               build/stm32f10x_tim.o
TIM_SetIC2Prescaler                               build/stm32f10x_tim.o
TIM_SetIC3Prescaler                               build/stm32f10x_tim.o
TIM_SetIC4Prescaler                               build/stm32f10x_tim.o
TIM_TIxExternalClockConfig                        build/stm32f10x_tim.o
TIM_TimeBaseInit                                  build/stm32f10x_tim.o
TIM_TimeBaseStructInit                            build/stm32f10x_tim.o
TIM_UpdateDisableConfig                           build/stm32f10x_tim.o
TIM_UpdateRequestConfig                           build/stm32f10x_tim.o
UART4_IRQHandler                                  build/startup_stm32f10x_hd.o
UART5_IRQHandler                                  build/startup_stm32f10x_hd.o
USART1_IRQHandler                                 build/startup_stm32f10x_hd.o
USART2_IRQHandler                                 build/startup_stm32f10x_hd.o
USART3_IRQHandler                                 build/startup_stm32f10x_hd.o
USART_ClearFlag                                   build/stm32f10x_usart.o
                                                  build/finsh_port.o
USART_ClearITPendingBit                           build/stm32f10x_usart.o
USART_ClockInit                                   build/stm32f10x_usart.o
USART_ClockStructInit                             build/stm32f10x_usart.o
USART_Cmd                                         build/stm32f10x_usart.o
                                                  build/bsp_debug_usart.o
USART_Config                                      build/bsp_debug_usart.o
                                                  build/board.o
USART_DMACmd                                      build/stm32f10x_usart.o
USART_DeInit                                      build/stm32f10x_usart.o
USART_GetFlagStatus                               build/stm32f10x_usart.o
                                                  build/finsh_port.o
                                                  build/bsp_debug_usart.o
                                                  build/board.o
USART_GetITStatus                                 build/stm32f10x_usart.o
USART_HalfDuplexCmd                               build/stm32f10x_usart.o
USART_ITConfig                                    build/stm32f10x_usart.o
USART_Init                                        build/stm32f10x_usart.o
                                                  build/bsp_debug_usart.o
USART_IrDACmd                                     build/stm32f10x_usart.o
USART_IrDAConfig                                  build/stm32f10x_usart.o
USART_LINBreakDetectLengthConfig                  build/stm32f10x_usart.o
USART_LINCmd                                      build/stm32f10x_usart.o
USART_OneBitMethodCmd                             build/stm32f10x_usart.o
USART_OverSampling8Cmd                            build/stm32f10x_usart.o
USART_ReceiveData                                 build/stm32f10x_usart.o
                                                  build/finsh_port.o
USART_ReceiverWakeUpCmd                           build/stm32f10x_usart.o
USART_SendBreak                                   build/stm32f10x_usart.o
USART_SendData                                    build/stm32f10x_usart.o
                                                  build/bsp_debug_usart.o
                                                  build/board.o
USART_SetAddress                                  build/stm32f10x_usart.o
USART_SetGuardTime                                build/stm32f10x_usart.o
USART_SetPrescaler                                build/stm32f10x_usart.o
USART_SmartCardCmd                                build/stm32f10x_usart.o
USART_SmartCardNACKCmd                            build/stm32f10x_usart.o
USART_StructInit                                  build/stm32f10x_usart.o
USART_WakeUpConfig                                build/stm32f10x_usart.o
USBWakeUp_IRQHandler                              build/startup_stm32f10x_hd.o
USB_HP_CAN1_TX_IRQHandler                         build/startup_stm32f10x_hd.o
USB_LP_CAN1_RX0_IRQHandler                        build/startup_stm32f10x_hd.o
UsageFault_Handler                                build/stm32f10x_it.o
Usart_SendArray                                   build/bsp_debug_usart.o
Usart_SendByte                                    build/bsp_debug_usart.o
Usart_SendHalfWord                                build/bsp_debug_usart.o
Usart_SendString                                  build/bsp_debug_usart.o
WWDG_ClearFlag                                    build/stm32f10x_wwdg.o
WWDG_DeInit                                       build/stm32f10x_wwdg.o
WWDG_Enable                                       build/stm32f10x_wwdg.o
WWDG_EnableIT                                     build/stm32f10x_wwdg.o
WWDG_GetFlagStatus                                build/stm32f10x_wwdg.o
WWDG_IRQHandler                                   build/startup_stm32f10x_hd.o
WWDG_SetCounter                                   build/stm32f10x_wwdg.o
WWDG_SetPrescaler                                 build/stm32f10x_wwdg.o
WWDG_SetWindowValue                               build/stm32f10x_wwdg.o
_Balloc                                           c:/gcc-arm-none-eabi/bin/../lib/gcc/arm-none-eabi/10.3.1/../../../../arm-none-eabi/lib/thumb/v7-m/nofp\libc_nano.a(lib_a-mprec.o)
                                                  c:/gcc-arm-none-eabi/bin/../lib/gcc/arm-none-eabi/10.3.1/../../../../arm-none-eabi/lib/thumb/v7-m/nofp\libc_nano.a(lib_a-dtoa.o)
_Bfree                                            c:/gcc-arm-none-eabi/bin/../lib/gcc/arm-none-eabi/10.3.1/../../../../arm-none-eabi/lib/thumb/v7-m/nofp\libc_nano.a(lib_a-mprec.o)
                                                  c:/gcc-arm-none-eabi/bin/../lib/gcc/arm-none-eabi/10.3.1/../../../../arm-none-eabi/lib/thumb/v7-m/nofp\libc_nano.a(lib_a-dtoa.o)
_PathLocale                                       c:/gcc-arm-none-eabi/bin/../lib/gcc/arm-none-eabi/10.3.1/../../../../arm-none-eabi/lib/thumb/v7-m/nofp\libc_nano.a(lib_a-locale.o)
__adddf3                                          c:/gcc-arm-none-eabi/bin/../lib/gcc/arm-none-eabi/10.3.1/thumb/v7-m/nofp\libgcc.a(_arm_addsubdf3.o)
__aeabi_cdcmpeq                                   c:/gcc-arm-none-eabi/bin/../lib/gcc/arm-none-eabi/10.3.1/thumb/v7-m/nofp\libgcc.a(_arm_cmpdf2.o)
__aeabi_cdcmple                                   c:/gcc-arm-none-eabi/bin/../lib/gcc/arm-none-eabi/10.3.1/thumb/v7-m/nofp\libgcc.a(_arm_cmpdf2.o)
__aeabi_cdrcmple                                  c:/gcc-arm-none-eabi/bin/../lib/gcc/arm-none-eabi/10.3.1/thumb/v7-m/nofp\libgcc.a(_arm_cmpdf2.o)
__aeabi_d2iz                                      c:/gcc-arm-none-eabi/bin/../lib/gcc/arm-none-eabi/10.3.1/thumb/v7-m/nofp\libgcc.a(_arm_fixdfsi.o)
                                                  c:/gcc-arm-none-eabi/bin/../lib/gcc/arm-none-eabi/10.3.1/../../../../arm-none-eabi/lib/thumb/v7-m/nofp\libc_nano.a(lib_a-dtoa.o)
__aeabi_dadd                                      c:/gcc-arm-none-eabi/bin/../lib/gcc/arm-none-eabi/10.3.1/thumb/v7-m/nofp\libgcc.a(_arm_addsubdf3.o)
                                                  c:/gcc-arm-none-eabi/bin/../lib/gcc/arm-none-eabi/10.3.1/../../../../arm-none-eabi/lib/thumb/v7-m/nofp\libc_nano.a(lib_a-dtoa.o)
__aeabi_dcmpeq                                    c:/gcc-arm-none-eabi/bin/../lib/gcc/arm-none-eabi/10.3.1/thumb/v7-m/nofp\libgcc.a(_arm_cmpdf2.o)
                                                  c:/gcc-arm-none-eabi/bin/../lib/gcc/arm-none-eabi/10.3.1/../../../../arm-none-eabi/lib/thumb/v7-m/nofp\libc_nano.a(lib_a-dtoa.o)
                                                  c:/gcc-arm-none-eabi/bin/../lib/gcc/arm-none-eabi/10.3.1/../../../../arm-none-eabi/lib/thumb/v7-m/nofp\libc_nano.a(lib_a-nano-vfprintf_float.o)
__aeabi_dcmpge                                    c:/gcc-arm-none-eabi/bin/../lib/gcc/arm-none-eabi/10.3.1/thumb/v7-m/nofp\libgcc.a(_arm_cmpdf2.o)
                                                  c:/gcc-arm-none-eabi/bin/../lib/gcc/arm-none-eabi/10.3.1/../../../../arm-none-eabi/lib/thumb/v7-m/nofp\libc_nano.a(lib_a-dtoa.o)
__aeabi_dcmpgt                                    c:/gcc-arm-none-eabi/bin/../lib/gcc/arm-none-eabi/10.3.1/thumb/v7-m/nofp\libgcc.a(_arm_cmpdf2.o)
                                                  c:/gcc-arm-none-eabi/bin/../lib/gcc/arm-none-eabi/10.3.1/../../../../arm-none-eabi/lib/thumb/v7-m/nofp\libc_nano.a(lib_a-dtoa.o)
__aeabi_dcmple                                    c:/gcc-arm-none-eabi/bin/../lib/gcc/arm-none-eabi/10.3.1/thumb/v7-m/nofp\libgcc.a(_arm_cmpdf2.o)
                                                  c:/gcc-arm-none-eabi/bin/../lib/gcc/arm-none-eabi/10.3.1/../../../../arm-none-eabi/lib/thumb/v7-m/nofp\libc_nano.a(lib_a-nano-vfprintf_float.o)
__aeabi_dcmplt                                    c:/gcc-arm-none-eabi/bin/../lib/gcc/arm-none-eabi/10.3.1/thumb/v7-m/nofp\libgcc.a(_arm_cmpdf2.o)
                                                  c:/gcc-arm-none-eabi/bin/../lib/gcc/arm-none-eabi/10.3.1/../../../../arm-none-eabi/lib/thumb/v7-m/nofp\libc_nano.a(lib_a-dtoa.o)
                                                  c:/gcc-arm-none-eabi/bin/../lib/gcc/arm-none-eabi/10.3.1/../../../../arm-none-eabi/lib/thumb/v7-m/nofp\libc_nano.a(lib_a-nano-vfprintf_float.o)
__aeabi_dcmpun                                    c:/gcc-arm-none-eabi/bin/../lib/gcc/arm-none-eabi/10.3.1/thumb/v7-m/nofp\libgcc.a(_arm_unorddf2.o)
                                                  c:/gcc-arm-none-eabi/bin/../lib/gcc/arm-none-eabi/10.3.1/../../../../arm-none-eabi/lib/thumb/v7-m/nofp\libc_nano.a(lib_a-nano-vfprintf_float.o)
__aeabi_ddiv                                      c:/gcc-arm-none-eabi/bin/../lib/gcc/arm-none-eabi/10.3.1/thumb/v7-m/nofp\libgcc.a(_arm_muldivdf3.o)
                                                  c:/gcc-arm-none-eabi/bin/../lib/gcc/arm-none-eabi/10.3.1/../../../../arm-none-eabi/lib/thumb/v7-m/nofp\libc_nano.a(lib_a-mprec.o)
                                                  c:/gcc-arm-none-eabi/bin/../lib/gcc/arm-none-eabi/10.3.1/../../../../arm-none-eabi/lib/thumb/v7-m/nofp\libc_nano.a(lib_a-dtoa.o)
__aeabi_dmul                                      c:/gcc-arm-none-eabi/bin/../lib/gcc/arm-none-eabi/10.3.1/thumb/v7-m/nofp\libgcc.a(_arm_muldivdf3.o)
                                                  c:/gcc-arm-none-eabi/bin/../lib/gcc/arm-none-eabi/10.3.1/thumb/v7-m/nofp\libgcc.a(_arm_muldf3.o)
                                                  c:/gcc-arm-none-eabi/bin/../lib/gcc/arm-none-eabi/10.3.1/../../../../arm-none-eabi/lib/thumb/v7-m/nofp\libc_nano.a(lib_a-mprec.o)
                                                  c:/gcc-arm-none-eabi/bin/../lib/gcc/arm-none-eabi/10.3.1/../../../../arm-none-eabi/lib/thumb/v7-m/nofp\libc_nano.a(lib_a-dtoa.o)
__aeabi_drsub                                     c:/gcc-arm-none-eabi/bin/../lib/gcc/arm-none-eabi/10.3.1/thumb/v7-m/nofp\libgcc.a(_arm_addsubdf3.o)
__aeabi_dsub                                      c:/gcc-arm-none-eabi/bin/../lib/gcc/arm-none-eabi/10.3.1/thumb/v7-m/nofp\libgcc.a(_arm_addsubdf3.o)
                                                  c:/gcc-arm-none-eabi/bin/../lib/gcc/arm-none-eabi/10.3.1/../../../../arm-none-eabi/lib/thumb/v7-m/nofp\libc_nano.a(lib_a-dtoa.o)
__aeabi_f2d                                       c:/gcc-arm-none-eabi/bin/../lib/gcc/arm-none-eabi/10.3.1/thumb/v7-m/nofp\libgcc.a(_arm_addsubdf3.o)
__aeabi_i2d                                       c:/gcc-arm-none-eabi/bin/../lib/gcc/arm-none-eabi/10.3.1/thumb/v7-m/nofp\libgcc.a(_arm_addsubdf3.o)
                                                  c:/gcc-arm-none-eabi/bin/../lib/gcc/arm-none-eabi/10.3.1/../../../../arm-none-eabi/lib/thumb/v7-m/nofp\libc_nano.a(lib_a-dtoa.o)
__aeabi_l2d                                       c:/gcc-arm-none-eabi/bin/../lib/gcc/arm-none-eabi/10.3.1/thumb/v7-m/nofp\libgcc.a(_arm_addsubdf3.o)
__aeabi_ui2d                                      c:/gcc-arm-none-eabi/bin/../lib/gcc/arm-none-eabi/10.3.1/thumb/v7-m/nofp\libgcc.a(_arm_addsubdf3.o)
                                                  c:/gcc-arm-none-eabi/bin/../lib/gcc/arm-none-eabi/10.3.1/../../../../arm-none-eabi/lib/thumb/v7-m/nofp\libc_nano.a(lib_a-dtoa.o)
__aeabi_ul2d                                      c:/gcc-arm-none-eabi/bin/../lib/gcc/arm-none-eabi/10.3.1/thumb/v7-m/nofp\libgcc.a(_arm_addsubdf3.o)
__any_on                                          c:/gcc-arm-none-eabi/bin/../lib/gcc/arm-none-eabi/10.3.1/../../../../arm-none-eabi/lib/thumb/v7-m/nofp\libc_nano.a(lib_a-mprec.o)
__ascii_mbtowc                                    c:/gcc-arm-none-eabi/bin/../lib/gcc/arm-none-eabi/10.3.1/../../../../arm-none-eabi/lib/thumb/v7-m/nofp\libc_nano.a(lib_a-mbtowc_r.o)
                                                  c:/gcc-arm-none-eabi/bin/../lib/gcc/arm-none-eabi/10.3.1/../../../../arm-none-eabi/lib/thumb/v7-m/nofp\libc_nano.a(lib_a-locale.o)
__ascii_wctomb                                    c:/gcc-arm-none-eabi/bin/../lib/gcc/arm-none-eabi/10.3.1/../../../../arm-none-eabi/lib/thumb/v7-m/nofp\libc_nano.a(lib_a-wctomb_r.o)
                                                  c:/gcc-arm-none-eabi/bin/../lib/gcc/arm-none-eabi/10.3.1/../../../../arm-none-eabi/lib/thumb/v7-m/nofp\libc_nano.a(lib_a-locale.o)
__assert                                          c:/gcc-arm-none-eabi/bin/../lib/gcc/arm-none-eabi/10.3.1/../../../../arm-none-eabi/lib/thumb/v7-m/nofp\libc_nano.a(lib_a-assert.o)
__assert_func                                     c:/gcc-arm-none-eabi/bin/../lib/gcc/arm-none-eabi/10.3.1/../../../../arm-none-eabi/lib/thumb/v7-m/nofp\libc_nano.a(lib_a-assert.o)
                                                  c:/gcc-arm-none-eabi/bin/../lib/gcc/arm-none-eabi/10.3.1/../../../../arm-none-eabi/lib/thumb/v7-m/nofp\libc_nano.a(lib_a-mprec.o)
                                                  c:/gcc-arm-none-eabi/bin/../lib/gcc/arm-none-eabi/10.3.1/../../../../arm-none-eabi/lib/thumb/v7-m/nofp\libc_nano.a(lib_a-dtoa.o)
__b2d                                             c:/gcc-arm-none-eabi/bin/../lib/gcc/arm-none-eabi/10.3.1/../../../../arm-none-eabi/lib/thumb/v7-m/nofp\libc_nano.a(lib_a-mprec.o)
__bss_end__                                       c:/gcc-arm-none-eabi/bin/../lib/gcc/arm-none-eabi/10.3.1/../../../../arm-none-eabi/lib/thumb/v7-m/nofp/crt0.o
__bss_start__                                     c:/gcc-arm-none-eabi/bin/../lib/gcc/arm-none-eabi/10.3.1/../../../../arm-none-eabi/lib/thumb/v7-m/nofp/crt0.o
__call_exitprocs                                  c:/gcc-arm-none-eabi/bin/../lib/gcc/arm-none-eabi/10.3.1/../../../../arm-none-eabi/lib/thumb/v7-m/nofp\libc_nano.a(lib_a-exit.o)
__cmpdf2                                          c:/gcc-arm-none-eabi/bin/../lib/gcc/arm-none-eabi/10.3.1/thumb/v7-m/nofp\libgcc.a(_arm_cmpdf2.o)
__copybits                                        c:/gcc-arm-none-eabi/bin/../lib/gcc/arm-none-eabi/10.3.1/../../../../arm-none-eabi/lib/thumb/v7-m/nofp\libc_nano.a(lib_a-mprec.o)
__cvt                                             c:/gcc-arm-none-eabi/bin/../lib/gcc/arm-none-eabi/10.3.1/../../../../arm-none-eabi/lib/thumb/v7-m/nofp\libc_nano.a(lib_a-nano-vfprintf_float.o)
__d2b                                             c:/gcc-arm-none-eabi/bin/../lib/gcc/arm-none-eabi/10.3.1/../../../../arm-none-eabi/lib/thumb/v7-m/nofp\libc_nano.a(lib_a-mprec.o)
                                                  c:/gcc-arm-none-eabi/bin/../lib/gcc/arm-none-eabi/10.3.1/../../../../arm-none-eabi/lib/thumb/v7-m/nofp\libc_nano.a(lib_a-dtoa.o)
__deregister_frame_info                           c:/gcc-arm-none-eabi/bin/../lib/gcc/arm-none-eabi/10.3.1/thumb/v7-m/nofp/crtbegin.o
__divdf3                                          c:/gcc-arm-none-eabi/bin/../lib/gcc/arm-none-eabi/10.3.1/thumb/v7-m/nofp\libgcc.a(_arm_muldivdf3.o)
__dso_handle                                      c:/gcc-arm-none-eabi/bin/../lib/gcc/arm-none-eabi/10.3.1/thumb/v7-m/nofp/crtbegin.o
__eqdf2                                           c:/gcc-arm-none-eabi/bin/../lib/gcc/arm-none-eabi/10.3.1/thumb/v7-m/nofp\libgcc.a(_arm_cmpdf2.o)
__exponent                                        c:/gcc-arm-none-eabi/bin/../lib/gcc/arm-none-eabi/10.3.1/../../../../arm-none-eabi/lib/thumb/v7-m/nofp\libc_nano.a(lib_a-nano-vfprintf_float.o)
__extendsfdf2                                     c:/gcc-arm-none-eabi/bin/../lib/gcc/arm-none-eabi/10.3.1/thumb/v7-m/nofp\libgcc.a(_arm_addsubdf3.o)
__fixdfsi                                         c:/gcc-arm-none-eabi/bin/../lib/gcc/arm-none-eabi/10.3.1/thumb/v7-m/nofp\libgcc.a(_arm_fixdfsi.o)
__floatdidf                                       c:/gcc-arm-none-eabi/bin/../lib/gcc/arm-none-eabi/10.3.1/thumb/v7-m/nofp\libgcc.a(_arm_addsubdf3.o)
__floatsidf                                       c:/gcc-arm-none-eabi/bin/../lib/gcc/arm-none-eabi/10.3.1/thumb/v7-m/nofp\libgcc.a(_arm_addsubdf3.o)
__floatundidf                                     c:/gcc-arm-none-eabi/bin/../lib/gcc/arm-none-eabi/10.3.1/thumb/v7-m/nofp\libgcc.a(_arm_addsubdf3.o)
__floatunsidf                                     c:/gcc-arm-none-eabi/bin/../lib/gcc/arm-none-eabi/10.3.1/thumb/v7-m/nofp\libgcc.a(_arm_addsubdf3.o)
__fp_lock_all                                     c:/gcc-arm-none-eabi/bin/../lib/gcc/arm-none-eabi/10.3.1/../../../../arm-none-eabi/lib/thumb/v7-m/nofp\libc_nano.a(lib_a-findfp.o)
__fp_unlock_all                                   c:/gcc-arm-none-eabi/bin/../lib/gcc/arm-none-eabi/10.3.1/../../../../arm-none-eabi/lib/thumb/v7-m/nofp\libc_nano.a(lib_a-findfp.o)
__fsym___cmd_free                                 build/msh.o
__fsym___cmd_free_desc                            build/msh.o
__fsym___cmd_free_name                            build/msh.o
__fsym___cmd_help                                 build/msh.o
__fsym___cmd_help_desc                            build/msh.o
__fsym___cmd_help_name                            build/msh.o
__fsym___cmd_list_mailbox                         build/cmd.o
__fsym___cmd_list_mailbox_desc                    build/cmd.o
__fsym___cmd_list_mailbox_name                    build/cmd.o
__fsym___cmd_list_sem                             build/cmd.o
__fsym___cmd_list_sem_desc                        build/cmd.o
__fsym___cmd_list_sem_name                        build/cmd.o
__fsym___cmd_list_thread                          build/cmd.o
__fsym___cmd_list_thread_desc                     build/cmd.o
__fsym___cmd_list_thread_name                     build/cmd.o
__fsym___cmd_list_timer                           build/cmd.o
__fsym___cmd_list_timer_desc                      build/cmd.o
__fsym___cmd_list_timer_name                      build/cmd.o
__fsym___cmd_ps                                   build/msh.o
__fsym___cmd_ps_desc                              build/msh.o
__fsym___cmd_ps_name                              build/msh.o
__fsym___cmd_version                              build/cmd.o
__fsym___cmd_version_desc                         build/cmd.o
__fsym___cmd_version_name                         build/cmd.o
__fsym_hello                                      build/cmd.o
__fsym_hello_desc                                 build/cmd.o
__fsym_hello_name                                 build/cmd.o
__fsym_list                                       build/cmd.o
__fsym_list_desc                                  build/cmd.o
__fsym_list_mailbox                               build/cmd.o
__fsym_list_mailbox_desc                          build/cmd.o
__fsym_list_mailbox_name                          build/cmd.o
__fsym_list_mem                                   build/mem.o
__fsym_list_mem_desc                              build/mem.o
__fsym_list_mem_name                              build/mem.o
__fsym_list_name                                  build/cmd.o
__fsym_list_sem                                   build/cmd.o
__fsym_list_sem_desc                              build/cmd.o
__fsym_list_sem_name                              build/cmd.o
__fsym_list_thread                                build/cmd.o
__fsym_list_thread_desc                           build/cmd.o
__fsym_list_thread_name                           build/cmd.o
__fsym_list_timer                                 build/cmd.o
__fsym_list_timer_desc                            build/cmd.o
__fsym_list_timer_name                            build/cmd.o
__fsym_version                                    build/cmd.o
__fsym_version_desc                               build/cmd.o
__fsym_version_name                               build/cmd.o
__fsymtab_end                                     build/shell.o
__fsymtab_start                                   build/shell.o
__gedf2                                           c:/gcc-arm-none-eabi/bin/../lib/gcc/arm-none-eabi/10.3.1/thumb/v7-m/nofp\libgcc.a(_arm_cmpdf2.o)
__global_locale                                   c:/gcc-arm-none-eabi/bin/../lib/gcc/arm-none-eabi/10.3.1/../../../../arm-none-eabi/lib/thumb/v7-m/nofp\libc_nano.a(lib_a-locale.o)
                                                  c:/gcc-arm-none-eabi/bin/../lib/gcc/arm-none-eabi/10.3.1/../../../../arm-none-eabi/lib/thumb/v7-m/nofp\libc_nano.a(lib_a-wctomb_r.o)
                                                  c:/gcc-arm-none-eabi/bin/../lib/gcc/arm-none-eabi/10.3.1/../../../../arm-none-eabi/lib/thumb/v7-m/nofp\libc_nano.a(lib_a-mbtowc_r.o)
                                                  c:/gcc-arm-none-eabi/bin/../lib/gcc/arm-none-eabi/10.3.1/../../../../arm-none-eabi/lib/thumb/v7-m/nofp\libc_nano.a(lib_a-localeconv.o)
__gtdf2                                           c:/gcc-arm-none-eabi/bin/../lib/gcc/arm-none-eabi/10.3.1/thumb/v7-m/nofp\libgcc.a(_arm_cmpdf2.o)
__hi0bits                                         c:/gcc-arm-none-eabi/bin/../lib/gcc/arm-none-eabi/10.3.1/../../../../arm-none-eabi/lib/thumb/v7-m/nofp\libc_nano.a(lib_a-mprec.o)
                                                  c:/gcc-arm-none-eabi/bin/../lib/gcc/arm-none-eabi/10.3.1/../../../../arm-none-eabi/lib/thumb/v7-m/nofp\libc_nano.a(lib_a-dtoa.o)
__i2b                                             c:/gcc-arm-none-eabi/bin/../lib/gcc/arm-none-eabi/10.3.1/../../../../arm-none-eabi/lib/thumb/v7-m/nofp\libc_nano.a(lib_a-mprec.o)
                                                  c:/gcc-arm-none-eabi/bin/../lib/gcc/arm-none-eabi/10.3.1/../../../../arm-none-eabi/lib/thumb/v7-m/nofp\libc_nano.a(lib_a-dtoa.o)
__init_array_end                                  c:/gcc-arm-none-eabi/bin/../lib/gcc/arm-none-eabi/10.3.1/../../../../arm-none-eabi/lib/thumb/v7-m/nofp\libc_nano.a(lib_a-init.o)
__init_array_start                                c:/gcc-arm-none-eabi/bin/../lib/gcc/arm-none-eabi/10.3.1/../../../../arm-none-eabi/lib/thumb/v7-m/nofp\libc_nano.a(lib_a-init.o)
__ledf2                                           c:/gcc-arm-none-eabi/bin/../lib/gcc/arm-none-eabi/10.3.1/thumb/v7-m/nofp\libgcc.a(_arm_cmpdf2.o)
__libc_fini_array                                 c:/gcc-arm-none-eabi/bin/../lib/gcc/arm-none-eabi/10.3.1/../../../../arm-none-eabi/lib/thumb/v7-m/nofp/crt0.o
__libc_init_array                                 c:/gcc-arm-none-eabi/bin/../lib/gcc/arm-none-eabi/10.3.1/../../../../arm-none-eabi/lib/thumb/v7-m/nofp\libc_nano.a(lib_a-init.o)
                                                  build/startup_stm32f10x_hd.o
                                                  c:/gcc-arm-none-eabi/bin/../lib/gcc/arm-none-eabi/10.3.1/../../../../arm-none-eabi/lib/thumb/v7-m/nofp/crt0.o
__lo0bits                                         c:/gcc-arm-none-eabi/bin/../lib/gcc/arm-none-eabi/10.3.1/../../../../arm-none-eabi/lib/thumb/v7-m/nofp\libc_nano.a(lib_a-mprec.o)
__locale_mb_cur_max                               c:/gcc-arm-none-eabi/bin/../lib/gcc/arm-none-eabi/10.3.1/../../../../arm-none-eabi/lib/thumb/v7-m/nofp\libc_nano.a(lib_a-locale.o)
__localeconv_l                                    c:/gcc-arm-none-eabi/bin/../lib/gcc/arm-none-eabi/10.3.1/../../../../arm-none-eabi/lib/thumb/v7-m/nofp\libc_nano.a(lib_a-localeconv.o)
__lock___arc4random_mutex                         c:/gcc-arm-none-eabi/bin/../lib/gcc/arm-none-eabi/10.3.1/../../../../arm-none-eabi/lib/thumb/v7-m/nofp\libc_nano.a(lib_a-lock.o)
__lock___at_quick_exit_mutex                      c:/gcc-arm-none-eabi/bin/../lib/gcc/arm-none-eabi/10.3.1/../../../../arm-none-eabi/lib/thumb/v7-m/nofp\libc_nano.a(lib_a-lock.o)
__lock___atexit_recursive_mutex                   c:/gcc-arm-none-eabi/bin/../lib/gcc/arm-none-eabi/10.3.1/../../../../arm-none-eabi/lib/thumb/v7-m/nofp\libc_nano.a(lib_a-lock.o)
__lock___dd_hash_mutex                            c:/gcc-arm-none-eabi/bin/../lib/gcc/arm-none-eabi/10.3.1/../../../../arm-none-eabi/lib/thumb/v7-m/nofp\libc_nano.a(lib_a-lock.o)
__lock___env_recursive_mutex                      c:/gcc-arm-none-eabi/bin/../lib/gcc/arm-none-eabi/10.3.1/../../../../arm-none-eabi/lib/thumb/v7-m/nofp\libc_nano.a(lib_a-lock.o)
__lock___malloc_recursive_mutex                   c:/gcc-arm-none-eabi/bin/../lib/gcc/arm-none-eabi/10.3.1/../../../../arm-none-eabi/lib/thumb/v7-m/nofp\libc_nano.a(lib_a-lock.o)
                                                  c:/gcc-arm-none-eabi/bin/../lib/gcc/arm-none-eabi/10.3.1/../../../../arm-none-eabi/lib/thumb/v7-m/nofp\libc_nano.a(lib_a-mlock.o)
__lock___sfp_recursive_mutex                      c:/gcc-arm-none-eabi/bin/../lib/gcc/arm-none-eabi/10.3.1/../../../../arm-none-eabi/lib/thumb/v7-m/nofp\libc_nano.a(lib_a-lock.o)
                                                  c:/gcc-arm-none-eabi/bin/../lib/gcc/arm-none-eabi/10.3.1/../../../../arm-none-eabi/lib/thumb/v7-m/nofp\libc_nano.a(lib_a-findfp.o)
__lock___sinit_recursive_mutex                    c:/gcc-arm-none-eabi/bin/../lib/gcc/arm-none-eabi/10.3.1/../../../../arm-none-eabi/lib/thumb/v7-m/nofp\libc_nano.a(lib_a-lock.o)
                                                  c:/gcc-arm-none-eabi/bin/../lib/gcc/arm-none-eabi/10.3.1/../../../../arm-none-eabi/lib/thumb/v7-m/nofp\libc_nano.a(lib_a-findfp.o)
__lock___tz_mutex                                 c:/gcc-arm-none-eabi/bin/../lib/gcc/arm-none-eabi/10.3.1/../../../../arm-none-eabi/lib/thumb/v7-m/nofp\libc_nano.a(lib_a-lock.o)
__lowest_bit_bitmap                               build/kservice.o
__lshift                                          c:/gcc-arm-none-eabi/bin/../lib/gcc/arm-none-eabi/10.3.1/../../../../arm-none-eabi/lib/thumb/v7-m/nofp\libc_nano.a(lib_a-mprec.o)
                                                  c:/gcc-arm-none-eabi/bin/../lib/gcc/arm-none-eabi/10.3.1/../../../../arm-none-eabi/lib/thumb/v7-m/nofp\libc_nano.a(lib_a-dtoa.o)
__ltdf2                                           c:/gcc-arm-none-eabi/bin/../lib/gcc/arm-none-eabi/10.3.1/thumb/v7-m/nofp\libgcc.a(_arm_cmpdf2.o)
__malloc_free_list                                c:/gcc-arm-none-eabi/bin/../lib/gcc/arm-none-eabi/10.3.1/../../../../arm-none-eabi/lib/thumb/v7-m/nofp\libc_nano.a(lib_a-nano-mallocr.o)
                                                  c:/gcc-arm-none-eabi/bin/../lib/gcc/arm-none-eabi/10.3.1/../../../../arm-none-eabi/lib/thumb/v7-m/nofp\libc_nano.a(lib_a-nano-freer.o)
__malloc_lock                                     c:/gcc-arm-none-eabi/bin/../lib/gcc/arm-none-eabi/10.3.1/../../../../arm-none-eabi/lib/thumb/v7-m/nofp\libc_nano.a(lib_a-mlock.o)
                                                  c:/gcc-arm-none-eabi/bin/../lib/gcc/arm-none-eabi/10.3.1/../../../../arm-none-eabi/lib/thumb/v7-m/nofp\libc_nano.a(lib_a-nano-mallocr.o)
                                                  c:/gcc-arm-none-eabi/bin/../lib/gcc/arm-none-eabi/10.3.1/../../../../arm-none-eabi/lib/thumb/v7-m/nofp\libc_nano.a(lib_a-nano-freer.o)
__malloc_sbrk_start                               c:/gcc-arm-none-eabi/bin/../lib/gcc/arm-none-eabi/10.3.1/../../../../arm-none-eabi/lib/thumb/v7-m/nofp\libc_nano.a(lib_a-nano-mallocr.o)
__malloc_unlock                                   c:/gcc-arm-none-eabi/bin/../lib/gcc/arm-none-eabi/10.3.1/../../../../arm-none-eabi/lib/thumb/v7-m/nofp\libc_nano.a(lib_a-mlock.o)
                                                  c:/gcc-arm-none-eabi/bin/../lib/gcc/arm-none-eabi/10.3.1/../../../../arm-none-eabi/lib/thumb/v7-m/nofp\libc_nano.a(lib_a-nano-mallocr.o)
                                                  c:/gcc-arm-none-eabi/bin/../lib/gcc/arm-none-eabi/10.3.1/../../../../arm-none-eabi/lib/thumb/v7-m/nofp\libc_nano.a(lib_a-nano-freer.o)
__mcmp                                            c:/gcc-arm-none-eabi/bin/../lib/gcc/arm-none-eabi/10.3.1/../../../../arm-none-eabi/lib/thumb/v7-m/nofp\libc_nano.a(lib_a-mprec.o)
                                                  c:/gcc-arm-none-eabi/bin/../lib/gcc/arm-none-eabi/10.3.1/../../../../arm-none-eabi/lib/thumb/v7-m/nofp\libc_nano.a(lib_a-dtoa.o)
__mdiff                                           c:/gcc-arm-none-eabi/bin/../lib/gcc/arm-none-eabi/10.3.1/../../../../arm-none-eabi/lib/thumb/v7-m/nofp\libc_nano.a(lib_a-mprec.o)
                                                  c:/gcc-arm-none-eabi/bin/../lib/gcc/arm-none-eabi/10.3.1/../../../../arm-none-eabi/lib/thumb/v7-m/nofp\libc_nano.a(lib_a-dtoa.o)
__mprec_bigtens                                   c:/gcc-arm-none-eabi/bin/../lib/gcc/arm-none-eabi/10.3.1/../../../../arm-none-eabi/lib/thumb/v7-m/nofp\libc_nano.a(lib_a-mprec.o)
                                                  c:/gcc-arm-none-eabi/bin/../lib/gcc/arm-none-eabi/10.3.1/../../../../arm-none-eabi/lib/thumb/v7-m/nofp\libc_nano.a(lib_a-dtoa.o)
__mprec_tens                                      c:/gcc-arm-none-eabi/bin/../lib/gcc/arm-none-eabi/10.3.1/../../../../arm-none-eabi/lib/thumb/v7-m/nofp\libc_nano.a(lib_a-mprec.o)
                                                  c:/gcc-arm-none-eabi/bin/../lib/gcc/arm-none-eabi/10.3.1/../../../../arm-none-eabi/lib/thumb/v7-m/nofp\libc_nano.a(lib_a-dtoa.o)
__mprec_tinytens                                  c:/gcc-arm-none-eabi/bin/../lib/gcc/arm-none-eabi/10.3.1/../../../../arm-none-eabi/lib/thumb/v7-m/nofp\libc_nano.a(lib_a-mprec.o)
__muldf3                                          c:/gcc-arm-none-eabi/bin/../lib/gcc/arm-none-eabi/10.3.1/thumb/v7-m/nofp\libgcc.a(_arm_muldivdf3.o)
                                                  c:/gcc-arm-none-eabi/bin/../lib/gcc/arm-none-eabi/10.3.1/thumb/v7-m/nofp\libgcc.a(_arm_muldf3.o)
__multadd                                         c:/gcc-arm-none-eabi/bin/../lib/gcc/arm-none-eabi/10.3.1/../../../../arm-none-eabi/lib/thumb/v7-m/nofp\libc_nano.a(lib_a-mprec.o)
                                                  c:/gcc-arm-none-eabi/bin/../lib/gcc/arm-none-eabi/10.3.1/../../../../arm-none-eabi/lib/thumb/v7-m/nofp\libc_nano.a(lib_a-dtoa.o)
__multiply                                        c:/gcc-arm-none-eabi/bin/../lib/gcc/arm-none-eabi/10.3.1/../../../../arm-none-eabi/lib/thumb/v7-m/nofp\libc_nano.a(lib_a-mprec.o)
                                                  c:/gcc-arm-none-eabi/bin/../lib/gcc/arm-none-eabi/10.3.1/../../../../arm-none-eabi/lib/thumb/v7-m/nofp\libc_nano.a(lib_a-dtoa.o)
__nedf2                                           c:/gcc-arm-none-eabi/bin/../lib/gcc/arm-none-eabi/10.3.1/thumb/v7-m/nofp\libgcc.a(_arm_cmpdf2.o)
__pow5mult                                        c:/gcc-arm-none-eabi/bin/../lib/gcc/arm-none-eabi/10.3.1/../../../../arm-none-eabi/lib/thumb/v7-m/nofp\libc_nano.a(lib_a-mprec.o)
                                                  c:/gcc-arm-none-eabi/bin/../lib/gcc/arm-none-eabi/10.3.1/../../../../arm-none-eabi/lib/thumb/v7-m/nofp\libc_nano.a(lib_a-dtoa.o)
__preinit_array_end                               c:/gcc-arm-none-eabi/bin/../lib/gcc/arm-none-eabi/10.3.1/../../../../arm-none-eabi/lib/thumb/v7-m/nofp\libc_nano.a(lib_a-init.o)
__preinit_array_start                             c:/gcc-arm-none-eabi/bin/../lib/gcc/arm-none-eabi/10.3.1/../../../../arm-none-eabi/lib/thumb/v7-m/nofp\libc_nano.a(lib_a-init.o)
__ratio                                           c:/gcc-arm-none-eabi/bin/../lib/gcc/arm-none-eabi/10.3.1/../../../../arm-none-eabi/lib/thumb/v7-m/nofp\libc_nano.a(lib_a-mprec.o)
__register_frame_info                             c:/gcc-arm-none-eabi/bin/../lib/gcc/arm-none-eabi/10.3.1/thumb/v7-m/nofp/crtbegin.o
__retarget_lock_acquire                           c:/gcc-arm-none-eabi/bin/../lib/gcc/arm-none-eabi/10.3.1/../../../../arm-none-eabi/lib/thumb/v7-m/nofp\libc_nano.a(lib_a-lock.o)
__retarget_lock_acquire_recursive                 c:/gcc-arm-none-eabi/bin/../lib/gcc/arm-none-eabi/10.3.1/../../../../arm-none-eabi/lib/thumb/v7-m/nofp\libc_nano.a(lib_a-lock.o)
                                                  c:/gcc-arm-none-eabi/bin/../lib/gcc/arm-none-eabi/10.3.1/../../../../arm-none-eabi/lib/thumb/v7-m/nofp\libc_nano.a(lib_a-findfp.o)
                                                  c:/gcc-arm-none-eabi/bin/../lib/gcc/arm-none-eabi/10.3.1/../../../../arm-none-eabi/lib/thumb/v7-m/nofp\libc_nano.a(lib_a-fflush.o)
                                                  c:/gcc-arm-none-eabi/bin/../lib/gcc/arm-none-eabi/10.3.1/../../../../arm-none-eabi/lib/thumb/v7-m/nofp\libc_nano.a(lib_a-nano-vfprintf.o)
                                                  c:/gcc-arm-none-eabi/bin/../lib/gcc/arm-none-eabi/10.3.1/../../../../arm-none-eabi/lib/thumb/v7-m/nofp\libc_nano.a(lib_a-mlock.o)
__retarget_lock_close                             c:/gcc-arm-none-eabi/bin/../lib/gcc/arm-none-eabi/10.3.1/../../../../arm-none-eabi/lib/thumb/v7-m/nofp\libc_nano.a(lib_a-lock.o)
__retarget_lock_close_recursive                   c:/gcc-arm-none-eabi/bin/../lib/gcc/arm-none-eabi/10.3.1/../../../../arm-none-eabi/lib/thumb/v7-m/nofp\libc_nano.a(lib_a-lock.o)
__retarget_lock_init                              c:/gcc-arm-none-eabi/bin/../lib/gcc/arm-none-eabi/10.3.1/../../../../arm-none-eabi/lib/thumb/v7-m/nofp\libc_nano.a(lib_a-lock.o)
__retarget_lock_init_recursive                    c:/gcc-arm-none-eabi/bin/../lib/gcc/arm-none-eabi/10.3.1/../../../../arm-none-eabi/lib/thumb/v7-m/nofp\libc_nano.a(lib_a-lock.o)
                                                  c:/gcc-arm-none-eabi/bin/../lib/gcc/arm-none-eabi/10.3.1/../../../../arm-none-eabi/lib/thumb/v7-m/nofp\libc_nano.a(lib_a-findfp.o)
__retarget_lock_release                           c:/gcc-arm-none-eabi/bin/../lib/gcc/arm-none-eabi/10.3.1/../../../../arm-none-eabi/lib/thumb/v7-m/nofp\libc_nano.a(lib_a-lock.o)
__retarget_lock_release_recursive                 c:/gcc-arm-none-eabi/bin/../lib/gcc/arm-none-eabi/10.3.1/../../../../arm-none-eabi/lib/thumb/v7-m/nofp\libc_nano.a(lib_a-lock.o)
                                                  c:/gcc-arm-none-eabi/bin/../lib/gcc/arm-none-eabi/10.3.1/../../../../arm-none-eabi/lib/thumb/v7-m/nofp\libc_nano.a(lib_a-findfp.o)
                                                  c:/gcc-arm-none-eabi/bin/../lib/gcc/arm-none-eabi/10.3.1/../../../../arm-none-eabi/lib/thumb/v7-m/nofp\libc_nano.a(lib_a-fflush.o)
                                                  c:/gcc-arm-none-eabi/bin/../lib/gcc/arm-none-eabi/10.3.1/../../../../arm-none-eabi/lib/thumb/v7-m/nofp\libc_nano.a(lib_a-nano-vfprintf.o)
                                                  c:/gcc-arm-none-eabi/bin/../lib/gcc/arm-none-eabi/10.3.1/../../../../arm-none-eabi/lib/thumb/v7-m/nofp\libc_nano.a(lib_a-mlock.o)
__retarget_lock_try_acquire                       c:/gcc-arm-none-eabi/bin/../lib/gcc/arm-none-eabi/10.3.1/../../../../arm-none-eabi/lib/thumb/v7-m/nofp\libc_nano.a(lib_a-lock.o)
__retarget_lock_try_acquire_recursive             c:/gcc-arm-none-eabi/bin/../lib/gcc/arm-none-eabi/10.3.1/../../../../arm-none-eabi/lib/thumb/v7-m/nofp\libc_nano.a(lib_a-lock.o)
__rt_ffs                                          build/kservice.o
                                                  build/scheduler.o
__rt_init_finsh_system_init                       build/shell.o
__rt_init_rti_board_end                           build/components.o
__rt_init_rti_board_start                         build/components.o
__rt_init_rti_end                                 build/components.o
__rt_init_rti_start                               build/components.o
__s2b                                             c:/gcc-arm-none-eabi/bin/../lib/gcc/arm-none-eabi/10.3.1/../../../../arm-none-eabi/lib/thumb/v7-m/nofp\libc_nano.a(lib_a-mprec.o)
__sclose                                          c:/gcc-arm-none-eabi/bin/../lib/gcc/arm-none-eabi/10.3.1/../../../../arm-none-eabi/lib/thumb/v7-m/nofp\libc_nano.a(lib_a-stdio.o)
                                                  c:/gcc-arm-none-eabi/bin/../lib/gcc/arm-none-eabi/10.3.1/../../../../arm-none-eabi/lib/thumb/v7-m/nofp\libc_nano.a(lib_a-findfp.o)
__seofread                                        c:/gcc-arm-none-eabi/bin/../lib/gcc/arm-none-eabi/10.3.1/../../../../arm-none-eabi/lib/thumb/v7-m/nofp\libc_nano.a(lib_a-stdio.o)
__sf_fake_stderr                                  c:/gcc-arm-none-eabi/bin/../lib/gcc/arm-none-eabi/10.3.1/../../../../arm-none-eabi/lib/thumb/v7-m/nofp\libc_nano.a(lib_a-findfp.o)
                                                  c:/gcc-arm-none-eabi/bin/../lib/gcc/arm-none-eabi/10.3.1/../../../../arm-none-eabi/lib/thumb/v7-m/nofp\libc_nano.a(lib_a-fflush.o)
                                                  c:/gcc-arm-none-eabi/bin/../lib/gcc/arm-none-eabi/10.3.1/../../../../arm-none-eabi/lib/thumb/v7-m/nofp\libc_nano.a(lib_a-wsetup.o)
                                                  c:/gcc-arm-none-eabi/bin/../lib/gcc/arm-none-eabi/10.3.1/../../../../arm-none-eabi/lib/thumb/v7-m/nofp\libc_nano.a(lib_a-wbuf.o)
                                                  c:/gcc-arm-none-eabi/bin/../lib/gcc/arm-none-eabi/10.3.1/../../../../arm-none-eabi/lib/thumb/v7-m/nofp\libc_nano.a(lib_a-nano-vfprintf.o)
                                                  c:/gcc-arm-none-eabi/bin/../lib/gcc/arm-none-eabi/10.3.1/../../../../arm-none-eabi/lib/thumb/v7-m/nofp\libc_nano.a(lib_a-impure.o)
__sf_fake_stdin                                   c:/gcc-arm-none-eabi/bin/../lib/gcc/arm-none-eabi/10.3.1/../../../../arm-none-eabi/lib/thumb/v7-m/nofp\libc_nano.a(lib_a-findfp.o)
                                                  c:/gcc-arm-none-eabi/bin/../lib/gcc/arm-none-eabi/10.3.1/../../../../arm-none-eabi/lib/thumb/v7-m/nofp\libc_nano.a(lib_a-fflush.o)
                                                  c:/gcc-arm-none-eabi/bin/../lib/gcc/arm-none-eabi/10.3.1/../../../../arm-none-eabi/lib/thumb/v7-m/nofp\libc_nano.a(lib_a-wsetup.o)
                                                  c:/gcc-arm-none-eabi/bin/../lib/gcc/arm-none-eabi/10.3.1/../../../../arm-none-eabi/lib/thumb/v7-m/nofp\libc_nano.a(lib_a-wbuf.o)
                                                  c:/gcc-arm-none-eabi/bin/../lib/gcc/arm-none-eabi/10.3.1/../../../../arm-none-eabi/lib/thumb/v7-m/nofp\libc_nano.a(lib_a-nano-vfprintf.o)
                                                  c:/gcc-arm-none-eabi/bin/../lib/gcc/arm-none-eabi/10.3.1/../../../../arm-none-eabi/lib/thumb/v7-m/nofp\libc_nano.a(lib_a-impure.o)
__sf_fake_stdout                                  c:/gcc-arm-none-eabi/bin/../lib/gcc/arm-none-eabi/10.3.1/../../../../arm-none-eabi/lib/thumb/v7-m/nofp\libc_nano.a(lib_a-findfp.o)
                                                  c:/gcc-arm-none-eabi/bin/../lib/gcc/arm-none-eabi/10.3.1/../../../../arm-none-eabi/lib/thumb/v7-m/nofp\libc_nano.a(lib_a-fflush.o)
                                                  c:/gcc-arm-none-eabi/bin/../lib/gcc/arm-none-eabi/10.3.1/../../../../arm-none-eabi/lib/thumb/v7-m/nofp\libc_nano.a(lib_a-wsetup.o)
                                                  c:/gcc-arm-none-eabi/bin/../lib/gcc/arm-none-eabi/10.3.1/../../../../arm-none-eabi/lib/thumb/v7-m/nofp\libc_nano.a(lib_a-wbuf.o)
                                                  c:/gcc-arm-none-eabi/bin/../lib/gcc/arm-none-eabi/10.3.1/../../../../arm-none-eabi/lib/thumb/v7-m/nofp\libc_nano.a(lib_a-nano-vfprintf.o)
                                                  c:/gcc-arm-none-eabi/bin/../lib/gcc/arm-none-eabi/10.3.1/../../../../arm-none-eabi/lib/thumb/v7-m/nofp\libc_nano.a(lib_a-impure.o)
__sflush_r                                        c:/gcc-arm-none-eabi/bin/../lib/gcc/arm-none-eabi/10.3.1/../../../../arm-none-eabi/lib/thumb/v7-m/nofp\libc_nano.a(lib_a-fflush.o)
__sfmoreglue                                      c:/gcc-arm-none-eabi/bin/../lib/gcc/arm-none-eabi/10.3.1/../../../../arm-none-eabi/lib/thumb/v7-m/nofp\libc_nano.a(lib_a-findfp.o)
__sfp                                             c:/gcc-arm-none-eabi/bin/../lib/gcc/arm-none-eabi/10.3.1/../../../../arm-none-eabi/lib/thumb/v7-m/nofp\libc_nano.a(lib_a-findfp.o)
__sfp_lock_acquire                                c:/gcc-arm-none-eabi/bin/../lib/gcc/arm-none-eabi/10.3.1/../../../../arm-none-eabi/lib/thumb/v7-m/nofp\libc_nano.a(lib_a-findfp.o)
__sfp_lock_release                                c:/gcc-arm-none-eabi/bin/../lib/gcc/arm-none-eabi/10.3.1/../../../../arm-none-eabi/lib/thumb/v7-m/nofp\libc_nano.a(lib_a-findfp.o)
__sfputs_r                                        c:/gcc-arm-none-eabi/bin/../lib/gcc/arm-none-eabi/10.3.1/../../../../arm-none-eabi/lib/thumb/v7-m/nofp\libc_nano.a(lib_a-nano-vfprintf.o)
__sfvwrite_r                                      c:/gcc-arm-none-eabi/bin/../lib/gcc/arm-none-eabi/10.3.1/../../../../arm-none-eabi/lib/thumb/v7-m/nofp\libc_nano.a(lib_a-fvwrite.o)
                                                  c:/gcc-arm-none-eabi/bin/../lib/gcc/arm-none-eabi/10.3.1/../../../../arm-none-eabi/lib/thumb/v7-m/nofp\libc_nano.a(lib_a-nano-vfprintf.o)
__sigtramp                                        c:/gcc-arm-none-eabi/bin/../lib/gcc/arm-none-eabi/10.3.1/../../../../arm-none-eabi/lib/thumb/v7-m/nofp\libc_nano.a(lib_a-signal.o)
__sigtramp_r                                      c:/gcc-arm-none-eabi/bin/../lib/gcc/arm-none-eabi/10.3.1/../../../../arm-none-eabi/lib/thumb/v7-m/nofp\libc_nano.a(lib_a-signal.o)
__sinit                                           c:/gcc-arm-none-eabi/bin/../lib/gcc/arm-none-eabi/10.3.1/../../../../arm-none-eabi/lib/thumb/v7-m/nofp\libc_nano.a(lib_a-findfp.o)
                                                  c:/gcc-arm-none-eabi/bin/../lib/gcc/arm-none-eabi/10.3.1/../../../../arm-none-eabi/lib/thumb/v7-m/nofp\libc_nano.a(lib_a-fflush.o)
                                                  c:/gcc-arm-none-eabi/bin/../lib/gcc/arm-none-eabi/10.3.1/../../../../arm-none-eabi/lib/thumb/v7-m/nofp\libc_nano.a(lib_a-wsetup.o)
                                                  c:/gcc-arm-none-eabi/bin/../lib/gcc/arm-none-eabi/10.3.1/../../../../arm-none-eabi/lib/thumb/v7-m/nofp\libc_nano.a(lib_a-wbuf.o)
                                                  c:/gcc-arm-none-eabi/bin/../lib/gcc/arm-none-eabi/10.3.1/../../../../arm-none-eabi/lib/thumb/v7-m/nofp\libc_nano.a(lib_a-nano-vfprintf.o)
__sinit_lock_acquire                              c:/gcc-arm-none-eabi/bin/../lib/gcc/arm-none-eabi/10.3.1/../../../../arm-none-eabi/lib/thumb/v7-m/nofp\libc_nano.a(lib_a-findfp.o)
__sinit_lock_release                              c:/gcc-arm-none-eabi/bin/../lib/gcc/arm-none-eabi/10.3.1/../../../../arm-none-eabi/lib/thumb/v7-m/nofp\libc_nano.a(lib_a-findfp.o)
__smakebuf_r                                      c:/gcc-arm-none-eabi/bin/../lib/gcc/arm-none-eabi/10.3.1/../../../../arm-none-eabi/lib/thumb/v7-m/nofp\libc_nano.a(lib_a-makebuf.o)
                                                  c:/gcc-arm-none-eabi/bin/../lib/gcc/arm-none-eabi/10.3.1/../../../../arm-none-eabi/lib/thumb/v7-m/nofp\libc_nano.a(lib_a-wsetup.o)
__sprint_r                                        c:/gcc-arm-none-eabi/bin/../lib/gcc/arm-none-eabi/10.3.1/../../../../arm-none-eabi/lib/thumb/v7-m/nofp\libc_nano.a(lib_a-nano-vfprintf.o)
__sread                                           c:/gcc-arm-none-eabi/bin/../lib/gcc/arm-none-eabi/10.3.1/../../../../arm-none-eabi/lib/thumb/v7-m/nofp\libc_nano.a(lib_a-stdio.o)
                                                  c:/gcc-arm-none-eabi/bin/../lib/gcc/arm-none-eabi/10.3.1/../../../../arm-none-eabi/lib/thumb/v7-m/nofp\libc_nano.a(lib_a-findfp.o)
__sseek                                           c:/gcc-arm-none-eabi/bin/../lib/gcc/arm-none-eabi/10.3.1/../../../../arm-none-eabi/lib/thumb/v7-m/nofp\libc_nano.a(lib_a-stdio.o)
                                                  c:/gcc-arm-none-eabi/bin/../lib/gcc/arm-none-eabi/10.3.1/../../../../arm-none-eabi/lib/thumb/v7-m/nofp\libc_nano.a(lib_a-findfp.o)
__stack                                           c:/gcc-arm-none-eabi/bin/../lib/gcc/arm-none-eabi/10.3.1/../../../../arm-none-eabi/lib/thumb/v7-m/nofp/crt0.o
__subdf3                                          c:/gcc-arm-none-eabi/bin/../lib/gcc/arm-none-eabi/10.3.1/thumb/v7-m/nofp\libgcc.a(_arm_addsubdf3.o)
__swbuf                                           c:/gcc-arm-none-eabi/bin/../lib/gcc/arm-none-eabi/10.3.1/../../../../arm-none-eabi/lib/thumb/v7-m/nofp\libc_nano.a(lib_a-wbuf.o)
__swbuf_r                                         c:/gcc-arm-none-eabi/bin/../lib/gcc/arm-none-eabi/10.3.1/../../../../arm-none-eabi/lib/thumb/v7-m/nofp\libc_nano.a(lib_a-wbuf.o)
                                                  c:/gcc-arm-none-eabi/bin/../lib/gcc/arm-none-eabi/10.3.1/../../../../arm-none-eabi/lib/thumb/v7-m/nofp\libc_nano.a(lib_a-nano-vfprintf.o)
__swhatbuf_r                                      c:/gcc-arm-none-eabi/bin/../lib/gcc/arm-none-eabi/10.3.1/../../../../arm-none-eabi/lib/thumb/v7-m/nofp\libc_nano.a(lib_a-makebuf.o)
__swrite                                          c:/gcc-arm-none-eabi/bin/../lib/gcc/arm-none-eabi/10.3.1/../../../../arm-none-eabi/lib/thumb/v7-m/nofp\libc_nano.a(lib_a-stdio.o)
                                                  c:/gcc-arm-none-eabi/bin/../lib/gcc/arm-none-eabi/10.3.1/../../../../arm-none-eabi/lib/thumb/v7-m/nofp\libc_nano.a(lib_a-findfp.o)
__swsetup_r                                       c:/gcc-arm-none-eabi/bin/../lib/gcc/arm-none-eabi/10.3.1/../../../../arm-none-eabi/lib/thumb/v7-m/nofp\libc_nano.a(lib_a-wsetup.o)
                                                  c:/gcc-arm-none-eabi/bin/../lib/gcc/arm-none-eabi/10.3.1/../../../../arm-none-eabi/lib/thumb/v7-m/nofp\libc_nano.a(lib_a-fvwrite.o)
                                                  c:/gcc-arm-none-eabi/bin/../lib/gcc/arm-none-eabi/10.3.1/../../../../arm-none-eabi/lib/thumb/v7-m/nofp\libc_nano.a(lib_a-wbuf.o)
                                                  c:/gcc-arm-none-eabi/bin/../lib/gcc/arm-none-eabi/10.3.1/../../../../arm-none-eabi/lib/thumb/v7-m/nofp\libc_nano.a(lib_a-nano-vfprintf.o)
__ulp                                             c:/gcc-arm-none-eabi/bin/../lib/gcc/arm-none-eabi/10.3.1/../../../../arm-none-eabi/lib/thumb/v7-m/nofp\libc_nano.a(lib_a-mprec.o)
__unorddf2                                        c:/gcc-arm-none-eabi/bin/../lib/gcc/arm-none-eabi/10.3.1/thumb/v7-m/nofp\libgcc.a(_arm_unorddf2.o)
__vsymtab_end                                     build/shell.o
__vsymtab_start                                   build/shell.o
_calloc_r                                         c:/gcc-arm-none-eabi/bin/../lib/gcc/arm-none-eabi/10.3.1/../../../../arm-none-eabi/lib/thumb/v7-m/nofp\libc_nano.a(lib_a-nano-callocr.o)
                                                  c:/gcc-arm-none-eabi/bin/../lib/gcc/arm-none-eabi/10.3.1/../../../../arm-none-eabi/lib/thumb/v7-m/nofp\libc_nano.a(lib_a-mprec.o)
_cleanup                                          c:/gcc-arm-none-eabi/bin/../lib/gcc/arm-none-eabi/10.3.1/../../../../arm-none-eabi/lib/thumb/v7-m/nofp\libc_nano.a(lib_a-findfp.o)
_cleanup_r                                        c:/gcc-arm-none-eabi/bin/../lib/gcc/arm-none-eabi/10.3.1/../../../../arm-none-eabi/lib/thumb/v7-m/nofp\libc_nano.a(lib_a-findfp.o)
                                                  c:/gcc-arm-none-eabi/bin/../lib/gcc/arm-none-eabi/10.3.1/../../../../arm-none-eabi/lib/thumb/v7-m/nofp\libc_nano.a(lib_a-makebuf.o)
_close                                            c:/gcc-arm-none-eabi/bin/../lib/gcc/arm-none-eabi/10.3.1/../../../../arm-none-eabi/lib/thumb/v7-m/nofp\libnosys.a(close.o)
                                                  c:/gcc-arm-none-eabi/bin/../lib/gcc/arm-none-eabi/10.3.1/../../../../arm-none-eabi/lib/thumb/v7-m/nofp\libc_nano.a(lib_a-closer.o)
_close_r                                          c:/gcc-arm-none-eabi/bin/../lib/gcc/arm-none-eabi/10.3.1/../../../../arm-none-eabi/lib/thumb/v7-m/nofp\libc_nano.a(lib_a-closer.o)
                                                  c:/gcc-arm-none-eabi/bin/../lib/gcc/arm-none-eabi/10.3.1/../../../../arm-none-eabi/lib/thumb/v7-m/nofp\libc_nano.a(lib_a-stdio.o)
_ctype_                                           c:/gcc-arm-none-eabi/bin/../lib/gcc/arm-none-eabi/10.3.1/../../../../arm-none-eabi/lib/thumb/v7-m/nofp\libc_nano.a(lib_a-ctype_.o)
                                                  c:/gcc-arm-none-eabi/bin/../lib/gcc/arm-none-eabi/10.3.1/../../../../arm-none-eabi/lib/thumb/v7-m/nofp\libc_nano.a(lib_a-locale.o)
_dtoa_r                                           c:/gcc-arm-none-eabi/bin/../lib/gcc/arm-none-eabi/10.3.1/../../../../arm-none-eabi/lib/thumb/v7-m/nofp\libc_nano.a(lib_a-dtoa.o)
                                                  c:/gcc-arm-none-eabi/bin/../lib/gcc/arm-none-eabi/10.3.1/../../../../arm-none-eabi/lib/thumb/v7-m/nofp\libc_nano.a(lib_a-nano-vfprintf_float.o)
_ebss                                             build/startup_stm32f10x_hd.o
_edata                                            build/startup_stm32f10x_hd.o
_estack                                           build/startup_stm32f10x_hd.o
_exit                                             c:/gcc-arm-none-eabi/bin/../lib/gcc/arm-none-eabi/10.3.1/../../../../arm-none-eabi/lib/thumb/v7-m/nofp\libnosys.a(_exit.o)
                                                  c:/gcc-arm-none-eabi/bin/../lib/gcc/arm-none-eabi/10.3.1/../../../../arm-none-eabi/lib/thumb/v7-m/nofp\libc_nano.a(lib_a-abort.o)
                                                  c:/gcc-arm-none-eabi/bin/../lib/gcc/arm-none-eabi/10.3.1/../../../../arm-none-eabi/lib/thumb/v7-m/nofp\libc_nano.a(lib_a-exit.o)
_fflush_r                                         c:/gcc-arm-none-eabi/bin/../lib/gcc/arm-none-eabi/10.3.1/../../../../arm-none-eabi/lib/thumb/v7-m/nofp\libc_nano.a(lib_a-fflush.o)
                                                  c:/gcc-arm-none-eabi/bin/../lib/gcc/arm-none-eabi/10.3.1/../../../../arm-none-eabi/lib/thumb/v7-m/nofp\libc_nano.a(lib_a-fvwrite.o)
                                                  c:/gcc-arm-none-eabi/bin/../lib/gcc/arm-none-eabi/10.3.1/../../../../arm-none-eabi/lib/thumb/v7-m/nofp\libc_nano.a(lib_a-findfp.o)
                                                  c:/gcc-arm-none-eabi/bin/../lib/gcc/arm-none-eabi/10.3.1/../../../../arm-none-eabi/lib/thumb/v7-m/nofp\libc_nano.a(lib_a-wbuf.o)
_fini                                             c:/gcc-arm-none-eabi/bin/../lib/gcc/arm-none-eabi/10.3.1/thumb/v7-m/nofp/crti.o
_fiprintf_r                                       c:/gcc-arm-none-eabi/bin/../lib/gcc/arm-none-eabi/10.3.1/../../../../arm-none-eabi/lib/thumb/v7-m/nofp\libc_nano.a(lib_a-fprintf.o)
_fprintf_r                                        c:/gcc-arm-none-eabi/bin/../lib/gcc/arm-none-eabi/10.3.1/../../../../arm-none-eabi/lib/thumb/v7-m/nofp\libc_nano.a(lib_a-fprintf.o)
_free_r                                           c:/gcc-arm-none-eabi/bin/../lib/gcc/arm-none-eabi/10.3.1/../../../../arm-none-eabi/lib/thumb/v7-m/nofp\libc_nano.a(lib_a-nano-freer.o)
                                                  c:/gcc-arm-none-eabi/bin/../lib/gcc/arm-none-eabi/10.3.1/../../../../arm-none-eabi/lib/thumb/v7-m/nofp\libc_nano.a(lib_a-nano-reallocr.o)
                                                  c:/gcc-arm-none-eabi/bin/../lib/gcc/arm-none-eabi/10.3.1/../../../../arm-none-eabi/lib/thumb/v7-m/nofp\libc_nano.a(lib_a-fvwrite.o)
                                                  c:/gcc-arm-none-eabi/bin/../lib/gcc/arm-none-eabi/10.3.1/../../../../arm-none-eabi/lib/thumb/v7-m/nofp\libc_nano.a(lib_a-fflush.o)
                                                  c:/gcc-arm-none-eabi/bin/../lib/gcc/arm-none-eabi/10.3.1/../../../../arm-none-eabi/lib/thumb/v7-m/nofp\libc_nano.a(lib_a-wsetup.o)
                                                  c:/gcc-arm-none-eabi/bin/../lib/gcc/arm-none-eabi/10.3.1/../../../../arm-none-eabi/lib/thumb/v7-m/nofp\libc_nano.a(lib_a-reent.o)
                                                  c:/gcc-arm-none-eabi/bin/../lib/gcc/arm-none-eabi/10.3.1/../../../../arm-none-eabi/lib/thumb/v7-m/nofp\libc_nano.a(lib_a-malloc.o)
_fstat                                            c:/gcc-arm-none-eabi/bin/../lib/gcc/arm-none-eabi/10.3.1/../../../../arm-none-eabi/lib/thumb/v7-m/nofp\libnosys.a(fstat.o)
                                                  c:/gcc-arm-none-eabi/bin/../lib/gcc/arm-none-eabi/10.3.1/../../../../arm-none-eabi/lib/thumb/v7-m/nofp\libc_nano.a(lib_a-fstatr.o)
_fstat_r                                          c:/gcc-arm-none-eabi/bin/../lib/gcc/arm-none-eabi/10.3.1/../../../../arm-none-eabi/lib/thumb/v7-m/nofp\libc_nano.a(lib_a-fstatr.o)
                                                  c:/gcc-arm-none-eabi/bin/../lib/gcc/arm-none-eabi/10.3.1/../../../../arm-none-eabi/lib/thumb/v7-m/nofp\libc_nano.a(lib_a-makebuf.o)
_fwalk                                            c:/gcc-arm-none-eabi/bin/../lib/gcc/arm-none-eabi/10.3.1/../../../../arm-none-eabi/lib/thumb/v7-m/nofp\libc_nano.a(lib_a-fwalk.o)
                                                  c:/gcc-arm-none-eabi/bin/../lib/gcc/arm-none-eabi/10.3.1/../../../../arm-none-eabi/lib/thumb/v7-m/nofp\libc_nano.a(lib_a-findfp.o)
_fwalk_reent                                      c:/gcc-arm-none-eabi/bin/../lib/gcc/arm-none-eabi/10.3.1/../../../../arm-none-eabi/lib/thumb/v7-m/nofp\libc_nano.a(lib_a-fwalk.o)
                                                  c:/gcc-arm-none-eabi/bin/../lib/gcc/arm-none-eabi/10.3.1/../../../../arm-none-eabi/lib/thumb/v7-m/nofp\libc_nano.a(lib_a-findfp.o)
                                                  c:/gcc-arm-none-eabi/bin/../lib/gcc/arm-none-eabi/10.3.1/../../../../arm-none-eabi/lib/thumb/v7-m/nofp\libc_nano.a(lib_a-fflush.o)
_getpid                                           c:/gcc-arm-none-eabi/bin/../lib/gcc/arm-none-eabi/10.3.1/../../../../arm-none-eabi/lib/thumb/v7-m/nofp\libnosys.a(getpid.o)
                                                  c:/gcc-arm-none-eabi/bin/../lib/gcc/arm-none-eabi/10.3.1/../../../../arm-none-eabi/lib/thumb/v7-m/nofp\libc_nano.a(lib_a-signalr.o)
_getpid_r                                         c:/gcc-arm-none-eabi/bin/../lib/gcc/arm-none-eabi/10.3.1/../../../../arm-none-eabi/lib/thumb/v7-m/nofp\libc_nano.a(lib_a-signalr.o)
                                                  c:/gcc-arm-none-eabi/bin/../lib/gcc/arm-none-eabi/10.3.1/../../../../arm-none-eabi/lib/thumb/v7-m/nofp\libc_nano.a(lib_a-signal.o)
_global_impure_ptr                                c:/gcc-arm-none-eabi/bin/../lib/gcc/arm-none-eabi/10.3.1/../../../../arm-none-eabi/lib/thumb/v7-m/nofp\libc_nano.a(lib_a-impure.o)
                                                  c:/gcc-arm-none-eabi/bin/../lib/gcc/arm-none-eabi/10.3.1/../../../../arm-none-eabi/lib/thumb/v7-m/nofp\libc_nano.a(lib_a-findfp.o)
                                                  c:/gcc-arm-none-eabi/bin/../lib/gcc/arm-none-eabi/10.3.1/../../../../arm-none-eabi/lib/thumb/v7-m/nofp\libc_nano.a(lib_a-fflush.o)
                                                  c:/gcc-arm-none-eabi/bin/../lib/gcc/arm-none-eabi/10.3.1/../../../../arm-none-eabi/lib/thumb/v7-m/nofp\libc_nano.a(lib_a-exit.o)
_impure_ptr                                       c:/gcc-arm-none-eabi/bin/../lib/gcc/arm-none-eabi/10.3.1/../../../../arm-none-eabi/lib/thumb/v7-m/nofp\libc_nano.a(lib_a-impure.o)
                                                  c:/gcc-arm-none-eabi/bin/../lib/gcc/arm-none-eabi/10.3.1/../../../../arm-none-eabi/lib/thumb/v7-m/nofp\libc_nano.a(lib_a-signal.o)
                                                  c:/gcc-arm-none-eabi/bin/../lib/gcc/arm-none-eabi/10.3.1/../../../../arm-none-eabi/lib/thumb/v7-m/nofp\libc_nano.a(lib_a-findfp.o)
                                                  c:/gcc-arm-none-eabi/bin/../lib/gcc/arm-none-eabi/10.3.1/../../../../arm-none-eabi/lib/thumb/v7-m/nofp\libc_nano.a(lib_a-fflush.o)
                                                  c:/gcc-arm-none-eabi/bin/../lib/gcc/arm-none-eabi/10.3.1/../../../../arm-none-eabi/lib/thumb/v7-m/nofp\libc_nano.a(lib_a-wsetup.o)
                                                  c:/gcc-arm-none-eabi/bin/../lib/gcc/arm-none-eabi/10.3.1/../../../../arm-none-eabi/lib/thumb/v7-m/nofp\libc_nano.a(lib_a-wbuf.o)
                                                  c:/gcc-arm-none-eabi/bin/../lib/gcc/arm-none-eabi/10.3.1/../../../../arm-none-eabi/lib/thumb/v7-m/nofp\libc_nano.a(lib_a-reent.o)
                                                  c:/gcc-arm-none-eabi/bin/../lib/gcc/arm-none-eabi/10.3.1/../../../../arm-none-eabi/lib/thumb/v7-m/nofp\libc_nano.a(lib_a-nano-vfprintf.o)
                                                  c:/gcc-arm-none-eabi/bin/../lib/gcc/arm-none-eabi/10.3.1/../../../../arm-none-eabi/lib/thumb/v7-m/nofp\libc_nano.a(lib_a-locale.o)
                                                  c:/gcc-arm-none-eabi/bin/../lib/gcc/arm-none-eabi/10.3.1/../../../../arm-none-eabi/lib/thumb/v7-m/nofp\libc_nano.a(lib_a-fprintf.o)
                                                  c:/gcc-arm-none-eabi/bin/../lib/gcc/arm-none-eabi/10.3.1/../../../../arm-none-eabi/lib/thumb/v7-m/nofp\libc_nano.a(lib_a-assert.o)
                                                  c:/gcc-arm-none-eabi/bin/../lib/gcc/arm-none-eabi/10.3.1/../../../../arm-none-eabi/lib/thumb/v7-m/nofp\libc_nano.a(lib_a-malloc.o)
_init                                             c:/gcc-arm-none-eabi/bin/../lib/gcc/arm-none-eabi/10.3.1/thumb/v7-m/nofp/crti.o
                                                  c:/gcc-arm-none-eabi/bin/../lib/gcc/arm-none-eabi/10.3.1/../../../../arm-none-eabi/lib/thumb/v7-m/nofp\libc_nano.a(lib_a-init.o)
_init_signal                                      c:/gcc-arm-none-eabi/bin/../lib/gcc/arm-none-eabi/10.3.1/../../../../arm-none-eabi/lib/thumb/v7-m/nofp\libc_nano.a(lib_a-signal.o)
_init_signal_r                                    c:/gcc-arm-none-eabi/bin/../lib/gcc/arm-none-eabi/10.3.1/../../../../arm-none-eabi/lib/thumb/v7-m/nofp\libc_nano.a(lib_a-signal.o)
_isatty                                           c:/gcc-arm-none-eabi/bin/../lib/gcc/arm-none-eabi/10.3.1/../../../../arm-none-eabi/lib/thumb/v7-m/nofp\libnosys.a(isatty.o)
                                                  c:/gcc-arm-none-eabi/bin/../lib/gcc/arm-none-eabi/10.3.1/../../../../arm-none-eabi/lib/thumb/v7-m/nofp\libc_nano.a(lib_a-isattyr.o)
_isatty_r                                         c:/gcc-arm-none-eabi/bin/../lib/gcc/arm-none-eabi/10.3.1/../../../../arm-none-eabi/lib/thumb/v7-m/nofp\libc_nano.a(lib_a-isattyr.o)
                                                  c:/gcc-arm-none-eabi/bin/../lib/gcc/arm-none-eabi/10.3.1/../../../../arm-none-eabi/lib/thumb/v7-m/nofp\libc_nano.a(lib_a-makebuf.o)
_kill                                             c:/gcc-arm-none-eabi/bin/../lib/gcc/arm-none-eabi/10.3.1/../../../../arm-none-eabi/lib/thumb/v7-m/nofp\libnosys.a(kill.o)
                                                  c:/gcc-arm-none-eabi/bin/../lib/gcc/arm-none-eabi/10.3.1/../../../../arm-none-eabi/lib/thumb/v7-m/nofp\libc_nano.a(lib_a-signalr.o)
_kill_r                                           c:/gcc-arm-none-eabi/bin/../lib/gcc/arm-none-eabi/10.3.1/../../../../arm-none-eabi/lib/thumb/v7-m/nofp\libc_nano.a(lib_a-signalr.o)
                                                  c:/gcc-arm-none-eabi/bin/../lib/gcc/arm-none-eabi/10.3.1/../../../../arm-none-eabi/lib/thumb/v7-m/nofp\libc_nano.a(lib_a-signal.o)
_localeconv_r                                     c:/gcc-arm-none-eabi/bin/../lib/gcc/arm-none-eabi/10.3.1/../../../../arm-none-eabi/lib/thumb/v7-m/nofp\libc_nano.a(lib_a-localeconv.o)
                                                  c:/gcc-arm-none-eabi/bin/../lib/gcc/arm-none-eabi/10.3.1/../../../../arm-none-eabi/lib/thumb/v7-m/nofp\libc_nano.a(lib_a-nano-vfprintf_float.o)
_lseek                                            c:/gcc-arm-none-eabi/bin/../lib/gcc/arm-none-eabi/10.3.1/../../../../arm-none-eabi/lib/thumb/v7-m/nofp\libnosys.a(lseek.o)
                                                  c:/gcc-arm-none-eabi/bin/../lib/gcc/arm-none-eabi/10.3.1/../../../../arm-none-eabi/lib/thumb/v7-m/nofp\libc_nano.a(lib_a-lseekr.o)
_lseek_r                                          c:/gcc-arm-none-eabi/bin/../lib/gcc/arm-none-eabi/10.3.1/../../../../arm-none-eabi/lib/thumb/v7-m/nofp\libc_nano.a(lib_a-lseekr.o)
                                                  c:/gcc-arm-none-eabi/bin/../lib/gcc/arm-none-eabi/10.3.1/../../../../arm-none-eabi/lib/thumb/v7-m/nofp\libc_nano.a(lib_a-stdio.o)
_mainCRTStartup                                   c:/gcc-arm-none-eabi/bin/../lib/gcc/arm-none-eabi/10.3.1/../../../../arm-none-eabi/lib/thumb/v7-m/nofp/crt0.o
_malloc_r                                         c:/gcc-arm-none-eabi/bin/../lib/gcc/arm-none-eabi/10.3.1/../../../../arm-none-eabi/lib/thumb/v7-m/nofp\libc_nano.a(lib_a-nano-mallocr.o)
                                                  c:/gcc-arm-none-eabi/bin/../lib/gcc/arm-none-eabi/10.3.1/../../../../arm-none-eabi/lib/thumb/v7-m/nofp\libc_nano.a(lib_a-signal.o)
                                                  c:/gcc-arm-none-eabi/bin/../lib/gcc/arm-none-eabi/10.3.1/../../../../arm-none-eabi/lib/thumb/v7-m/nofp\libc_nano.a(lib_a-nano-reallocr.o)
                                                  c:/gcc-arm-none-eabi/bin/../lib/gcc/arm-none-eabi/10.3.1/../../../../arm-none-eabi/lib/thumb/v7-m/nofp\libc_nano.a(lib_a-makebuf.o)
                                                  c:/gcc-arm-none-eabi/bin/../lib/gcc/arm-none-eabi/10.3.1/../../../../arm-none-eabi/lib/thumb/v7-m/nofp\libc_nano.a(lib_a-fvwrite.o)
                                                  c:/gcc-arm-none-eabi/bin/../lib/gcc/arm-none-eabi/10.3.1/../../../../arm-none-eabi/lib/thumb/v7-m/nofp\libc_nano.a(lib_a-findfp.o)
                                                  c:/gcc-arm-none-eabi/bin/../lib/gcc/arm-none-eabi/10.3.1/../../../../arm-none-eabi/lib/thumb/v7-m/nofp\libc_nano.a(lib_a-nano-callocr.o)
                                                  c:/gcc-arm-none-eabi/bin/../lib/gcc/arm-none-eabi/10.3.1/../../../../arm-none-eabi/lib/thumb/v7-m/nofp\libc_nano.a(lib_a-malloc.o)
_malloc_usable_size_r                             c:/gcc-arm-none-eabi/bin/../lib/gcc/arm-none-eabi/10.3.1/../../../../arm-none-eabi/lib/thumb/v7-m/nofp\libc_nano.a(lib_a-nano-msizer.o)
                                                  c:/gcc-arm-none-eabi/bin/../lib/gcc/arm-none-eabi/10.3.1/../../../../arm-none-eabi/lib/thumb/v7-m/nofp\libc_nano.a(lib_a-nano-reallocr.o)
_mbtowc_r                                         c:/gcc-arm-none-eabi/bin/../lib/gcc/arm-none-eabi/10.3.1/../../../../arm-none-eabi/lib/thumb/v7-m/nofp\libc_nano.a(lib_a-mbtowc_r.o)
_mprec_log10                                      c:/gcc-arm-none-eabi/bin/../lib/gcc/arm-none-eabi/10.3.1/../../../../arm-none-eabi/lib/thumb/v7-m/nofp\libc_nano.a(lib_a-mprec.o)
_printf_common                                    c:/gcc-arm-none-eabi/bin/../lib/gcc/arm-none-eabi/10.3.1/../../../../arm-none-eabi/lib/thumb/v7-m/nofp\libc_nano.a(lib_a-nano-vfprintf_i.o)
                                                  c:/gcc-arm-none-eabi/bin/../lib/gcc/arm-none-eabi/10.3.1/../../../../arm-none-eabi/lib/thumb/v7-m/nofp\libc_nano.a(lib_a-nano-vfprintf_float.o)
_printf_float                                     c:/gcc-arm-none-eabi/bin/../lib/gcc/arm-none-eabi/10.3.1/../../../../arm-none-eabi/lib/thumb/v7-m/nofp\libc_nano.a(lib_a-nano-vfprintf_float.o)
                                                  c:/gcc-arm-none-eabi/bin/../lib/gcc/arm-none-eabi/10.3.1/../../../../arm-none-eabi/lib/thumb/v7-m/nofp\libc_nano.a(lib_a-nano-vfprintf.o)
_printf_i                                         c:/gcc-arm-none-eabi/bin/../lib/gcc/arm-none-eabi/10.3.1/../../../../arm-none-eabi/lib/thumb/v7-m/nofp\libc_nano.a(lib_a-nano-vfprintf_i.o)
                                                  c:/gcc-arm-none-eabi/bin/../lib/gcc/arm-none-eabi/10.3.1/../../../../arm-none-eabi/lib/thumb/v7-m/nofp\libc_nano.a(lib_a-nano-vfprintf.o)
_raise_r                                          c:/gcc-arm-none-eabi/bin/../lib/gcc/arm-none-eabi/10.3.1/../../../../arm-none-eabi/lib/thumb/v7-m/nofp\libc_nano.a(lib_a-signal.o)
_read                                             c:/gcc-arm-none-eabi/bin/../lib/gcc/arm-none-eabi/10.3.1/../../../../arm-none-eabi/lib/thumb/v7-m/nofp\libnosys.a(read.o)
                                                  c:/gcc-arm-none-eabi/bin/../lib/gcc/arm-none-eabi/10.3.1/../../../../arm-none-eabi/lib/thumb/v7-m/nofp\libc_nano.a(lib_a-readr.o)
_read_r                                           c:/gcc-arm-none-eabi/bin/../lib/gcc/arm-none-eabi/10.3.1/../../../../arm-none-eabi/lib/thumb/v7-m/nofp\libc_nano.a(lib_a-readr.o)
                                                  c:/gcc-arm-none-eabi/bin/../lib/gcc/arm-none-eabi/10.3.1/../../../../arm-none-eabi/lib/thumb/v7-m/nofp\libc_nano.a(lib_a-stdio.o)
_realloc_r                                        c:/gcc-arm-none-eabi/bin/../lib/gcc/arm-none-eabi/10.3.1/../../../../arm-none-eabi/lib/thumb/v7-m/nofp\libc_nano.a(lib_a-nano-reallocr.o)
                                                  c:/gcc-arm-none-eabi/bin/../lib/gcc/arm-none-eabi/10.3.1/../../../../arm-none-eabi/lib/thumb/v7-m/nofp\libc_nano.a(lib_a-fvwrite.o)
_reclaim_reent                                    c:/gcc-arm-none-eabi/bin/../lib/gcc/arm-none-eabi/10.3.1/../../../../arm-none-eabi/lib/thumb/v7-m/nofp\libc_nano.a(lib_a-reent.o)
_rt_errno                                         build/kservice.o
_sbrk                                             c:/gcc-arm-none-eabi/bin/../lib/gcc/arm-none-eabi/10.3.1/../../../../arm-none-eabi/lib/thumb/v7-m/nofp\libnosys.a(sbrk.o)
                                                  c:/gcc-arm-none-eabi/bin/../lib/gcc/arm-none-eabi/10.3.1/../../../../arm-none-eabi/lib/thumb/v7-m/nofp\libc_nano.a(lib_a-sbrkr.o)
_sbrk_r                                           c:/gcc-arm-none-eabi/bin/../lib/gcc/arm-none-eabi/10.3.1/../../../../arm-none-eabi/lib/thumb/v7-m/nofp\libc_nano.a(lib_a-sbrkr.o)
                                                  c:/gcc-arm-none-eabi/bin/../lib/gcc/arm-none-eabi/10.3.1/../../../../arm-none-eabi/lib/thumb/v7-m/nofp\libc_nano.a(lib_a-nano-mallocr.o)
_sbss                                             build/startup_stm32f10x_hd.o
_sdata                                            build/startup_stm32f10x_hd.o
_setlocale_r                                      c:/gcc-arm-none-eabi/bin/../lib/gcc/arm-none-eabi/10.3.1/../../../../arm-none-eabi/lib/thumb/v7-m/nofp\libc_nano.a(lib_a-locale.o)
_sidata                                           build/startup_stm32f10x_hd.o
_signal_r                                         c:/gcc-arm-none-eabi/bin/../lib/gcc/arm-none-eabi/10.3.1/../../../../arm-none-eabi/lib/thumb/v7-m/nofp\libc_nano.a(lib_a-signal.o)
_stack_init                                       c:/gcc-arm-none-eabi/bin/../lib/gcc/arm-none-eabi/10.3.1/../../../../arm-none-eabi/lib/thumb/v7-m/nofp/crt0.o
_start                                            c:/gcc-arm-none-eabi/bin/../lib/gcc/arm-none-eabi/10.3.1/../../../../arm-none-eabi/lib/thumb/v7-m/nofp/crt0.o
_syscall_table_begin                              build/shell.o
                                                  build/msh.o
                                                  build/cmd.o
_syscall_table_end                                build/shell.o
                                                  build/msh.o
                                                  build/cmd.o
_sysvar_table_begin                               build/shell.o
_sysvar_table_end                                 build/shell.o
_vfiprintf_r                                      c:/gcc-arm-none-eabi/bin/../lib/gcc/arm-none-eabi/10.3.1/../../../../arm-none-eabi/lib/thumb/v7-m/nofp\libc_nano.a(lib_a-nano-vfprintf.o)
_vfprintf_r                                       c:/gcc-arm-none-eabi/bin/../lib/gcc/arm-none-eabi/10.3.1/../../../../arm-none-eabi/lib/thumb/v7-m/nofp\libc_nano.a(lib_a-nano-vfprintf.o)
                                                  c:/gcc-arm-none-eabi/bin/../lib/gcc/arm-none-eabi/10.3.1/../../../../arm-none-eabi/lib/thumb/v7-m/nofp\libc_nano.a(lib_a-fprintf.o)
_wctomb_r                                         c:/gcc-arm-none-eabi/bin/../lib/gcc/arm-none-eabi/10.3.1/../../../../arm-none-eabi/lib/thumb/v7-m/nofp\libc_nano.a(lib_a-wctomb_r.o)
_write                                            build/bsp_debug_usart.o
                                                  c:/gcc-arm-none-eabi/bin/../lib/gcc/arm-none-eabi/10.3.1/../../../../arm-none-eabi/lib/thumb/v7-m/nofp\libc_nano.a(lib_a-writer.o)
_write_r                                          c:/gcc-arm-none-eabi/bin/../lib/gcc/arm-none-eabi/10.3.1/../../../../arm-none-eabi/lib/thumb/v7-m/nofp\libc_nano.a(lib_a-writer.o)
                                                  c:/gcc-arm-none-eabi/bin/../lib/gcc/arm-none-eabi/10.3.1/../../../../arm-none-eabi/lib/thumb/v7-m/nofp\libc_nano.a(lib_a-stdio.o)
abort                                             c:/gcc-arm-none-eabi/bin/../lib/gcc/arm-none-eabi/10.3.1/../../../../arm-none-eabi/lib/thumb/v7-m/nofp\libc_nano.a(lib_a-abort.o)
                                                  c:/gcc-arm-none-eabi/bin/../lib/gcc/arm-none-eabi/10.3.1/../../../../arm-none-eabi/lib/thumb/v7-m/nofp\libc_nano.a(lib_a-assert.o)
atexit                                            c:/gcc-arm-none-eabi/bin/../lib/gcc/arm-none-eabi/10.3.1/../../../../arm-none-eabi/lib/thumb/v7-m/nofp/crt0.o
cleanup_glue                                      c:/gcc-arm-none-eabi/bin/../lib/gcc/arm-none-eabi/10.3.1/../../../../arm-none-eabi/lib/thumb/v7-m/nofp\libc_nano.a(lib_a-reent.o)
cmd_free                                          build/msh.o
cmd_ps                                            build/msh.o
end                                               c:/gcc-arm-none-eabi/bin/../lib/gcc/arm-none-eabi/10.3.1/../../../../arm-none-eabi/lib/thumb/v7-m/nofp\libnosys.a(sbrk.o)
entry                                             build/components.o
                                                  build/startup_stm32f10x_hd.o
errno                                             c:/gcc-arm-none-eabi/bin/../lib/gcc/arm-none-eabi/10.3.1/../../../../arm-none-eabi/lib/thumb/v7-m/nofp\libc_nano.a(lib_a-reent.o)
                                                  c:/gcc-arm-none-eabi/bin/../lib/gcc/arm-none-eabi/10.3.1/../../../../arm-none-eabi/lib/thumb/v7-m/nofp\libnosys.a(read.o)
                                                  c:/gcc-arm-none-eabi/bin/../lib/gcc/arm-none-eabi/10.3.1/../../../../arm-none-eabi/lib/thumb/v7-m/nofp\libnosys.a(lseek.o)
                                                  c:/gcc-arm-none-eabi/bin/../lib/gcc/arm-none-eabi/10.3.1/../../../../arm-none-eabi/lib/thumb/v7-m/nofp\libnosys.a(kill.o)
                                                  c:/gcc-arm-none-eabi/bin/../lib/gcc/arm-none-eabi/10.3.1/../../../../arm-none-eabi/lib/thumb/v7-m/nofp\libnosys.a(isatty.o)
                                                  c:/gcc-arm-none-eabi/bin/../lib/gcc/arm-none-eabi/10.3.1/../../../../arm-none-eabi/lib/thumb/v7-m/nofp\libnosys.a(getpid.o)
                                                  c:/gcc-arm-none-eabi/bin/../lib/gcc/arm-none-eabi/10.3.1/../../../../arm-none-eabi/lib/thumb/v7-m/nofp\libnosys.a(fstat.o)
                                                  c:/gcc-arm-none-eabi/bin/../lib/gcc/arm-none-eabi/10.3.1/../../../../arm-none-eabi/lib/thumb/v7-m/nofp\libnosys.a(close.o)
                                                  c:/gcc-arm-none-eabi/bin/../lib/gcc/arm-none-eabi/10.3.1/../../../../arm-none-eabi/lib/thumb/v7-m/nofp\libc_nano.a(lib_a-readr.o)
                                                  c:/gcc-arm-none-eabi/bin/../lib/gcc/arm-none-eabi/10.3.1/../../../../arm-none-eabi/lib/thumb/v7-m/nofp\libc_nano.a(lib_a-lseekr.o)
                                                  c:/gcc-arm-none-eabi/bin/../lib/gcc/arm-none-eabi/10.3.1/../../../../arm-none-eabi/lib/thumb/v7-m/nofp\libc_nano.a(lib_a-isattyr.o)
                                                  c:/gcc-arm-none-eabi/bin/../lib/gcc/arm-none-eabi/10.3.1/../../../../arm-none-eabi/lib/thumb/v7-m/nofp\libc_nano.a(lib_a-fstatr.o)
                                                  c:/gcc-arm-none-eabi/bin/../lib/gcc/arm-none-eabi/10.3.1/../../../../arm-none-eabi/lib/thumb/v7-m/nofp\libc_nano.a(lib_a-closer.o)
                                                  c:/gcc-arm-none-eabi/bin/../lib/gcc/arm-none-eabi/10.3.1/../../../../arm-none-eabi/lib/thumb/v7-m/nofp\libc_nano.a(lib_a-writer.o)
                                                  c:/gcc-arm-none-eabi/bin/../lib/gcc/arm-none-eabi/10.3.1/../../../../arm-none-eabi/lib/thumb/v7-m/nofp\libc_nano.a(lib_a-signalr.o)
                                                  c:/gcc-arm-none-eabi/bin/../lib/gcc/arm-none-eabi/10.3.1/../../../../arm-none-eabi/lib/thumb/v7-m/nofp\libc_nano.a(lib_a-sbrkr.o)
exit                                              c:/gcc-arm-none-eabi/bin/../lib/gcc/arm-none-eabi/10.3.1/../../../../arm-none-eabi/lib/thumb/v7-m/nofp\libc_nano.a(lib_a-exit.o)
                                                  c:/gcc-arm-none-eabi/bin/../lib/gcc/arm-none-eabi/10.3.1/../../../../arm-none-eabi/lib/thumb/v7-m/nofp/crt0.o
fflush                                            c:/gcc-arm-none-eabi/bin/../lib/gcc/arm-none-eabi/10.3.1/../../../../arm-none-eabi/lib/thumb/v7-m/nofp\libc_nano.a(lib_a-fflush.o)
fgetc                                             build/bsp_debug_usart.o
finsh_get_echo                                    build/shell.o
finsh_get_prompt                                  build/shell.o
finsh_get_prompt_mode                             build/shell.o
finsh_set_echo                                    build/shell.o
finsh_set_prompt                                  build/shell.o
finsh_set_prompt_mode                             build/shell.o
finsh_system_function_init                        build/shell.o
finsh_system_init                                 build/shell.o
finsh_system_var_init                             build/shell.o
finsh_thread_entry                                build/shell.o
fiprintf                                          c:/gcc-arm-none-eabi/bin/../lib/gcc/arm-none-eabi/10.3.1/../../../../arm-none-eabi/lib/thumb/v7-m/nofp\libc_nano.a(lib_a-fprintf.o)
                                                  c:/gcc-arm-none-eabi/bin/../lib/gcc/arm-none-eabi/10.3.1/../../../../arm-none-eabi/lib/thumb/v7-m/nofp\libc_nano.a(lib_a-assert.o)
fprintf                                           c:/gcc-arm-none-eabi/bin/../lib/gcc/arm-none-eabi/10.3.1/../../../../arm-none-eabi/lib/thumb/v7-m/nofp\libc_nano.a(lib_a-fprintf.o)
free                                              c:/gcc-arm-none-eabi/bin/../lib/gcc/arm-none-eabi/10.3.1/../../../../arm-none-eabi/lib/thumb/v7-m/nofp\libc_nano.a(lib_a-malloc.o)
g_pfnVectors                                      build/startup_stm32f10x_hd.o
hardware_init_hook                                c:/gcc-arm-none-eabi/bin/../lib/gcc/arm-none-eabi/10.3.1/../../../../arm-none-eabi/lib/thumb/v7-m/nofp/crt0.o
hello                                             build/cmd.o
list                                              build/cmd.o
list_mailbox                                      build/cmd.o
list_mem                                          build/mem.o
                                                  build/msh.o
list_sem                                          build/cmd.o
list_thread                                       build/cmd.o
                                                  build/cpuport.o
                                                  build/msh.o
list_timer                                        build/cmd.o
localeconv                                        c:/gcc-arm-none-eabi/bin/../lib/gcc/arm-none-eabi/10.3.1/../../../../arm-none-eabi/lib/thumb/v7-m/nofp\libc_nano.a(lib_a-localeconv.o)
main                                              build/main.o
                                                  build/components.o
                                                  c:/gcc-arm-none-eabi/bin/../lib/gcc/arm-none-eabi/10.3.1/../../../../arm-none-eabi/lib/thumb/v7-m/nofp/crt0.o
main_thread_entry                                 build/components.o
malloc                                            c:/gcc-arm-none-eabi/bin/../lib/gcc/arm-none-eabi/10.3.1/../../../../arm-none-eabi/lib/thumb/v7-m/nofp\libc_nano.a(lib_a-malloc.o)
                                                  c:/gcc-arm-none-eabi/bin/../lib/gcc/arm-none-eabi/10.3.1/../../../../arm-none-eabi/lib/thumb/v7-m/nofp\libc_nano.a(lib_a-mprec.o)
                                                  c:/gcc-arm-none-eabi/bin/../lib/gcc/arm-none-eabi/10.3.1/../../../../arm-none-eabi/lib/thumb/v7-m/nofp\libc_nano.a(lib_a-dtoa.o)
memchr                                            c:/gcc-arm-none-eabi/bin/../lib/gcc/arm-none-eabi/10.3.1/../../../../arm-none-eabi/lib/thumb/v7-m/nofp\libc_nano.a(lib_a-memchr-stub.o)
                                                  c:/gcc-arm-none-eabi/bin/../lib/gcc/arm-none-eabi/10.3.1/../../../../arm-none-eabi/lib/thumb/v7-m/nofp\libc_nano.a(lib_a-fvwrite.o)
                                                  c:/gcc-arm-none-eabi/bin/../lib/gcc/arm-none-eabi/10.3.1/../../../../arm-none-eabi/lib/thumb/v7-m/nofp\libc_nano.a(lib_a-nano-vfprintf.o)
                                                  c:/gcc-arm-none-eabi/bin/../lib/gcc/arm-none-eabi/10.3.1/../../../../arm-none-eabi/lib/thumb/v7-m/nofp\libc_nano.a(lib_a-nano-vfprintf_i.o)
memcpy                                            c:/gcc-arm-none-eabi/bin/../lib/gcc/arm-none-eabi/10.3.1/../../../../arm-none-eabi/lib/thumb/v7-m/nofp\libc_nano.a(lib_a-memcpy-stub.o)
                                                  c:/gcc-arm-none-eabi/bin/../lib/gcc/arm-none-eabi/10.3.1/../../../../arm-none-eabi/lib/thumb/v7-m/nofp\libc_nano.a(lib_a-nano-reallocr.o)
                                                  c:/gcc-arm-none-eabi/bin/../lib/gcc/arm-none-eabi/10.3.1/../../../../arm-none-eabi/lib/thumb/v7-m/nofp\libc_nano.a(lib_a-fvwrite.o)
                                                  c:/gcc-arm-none-eabi/bin/../lib/gcc/arm-none-eabi/10.3.1/../../../../arm-none-eabi/lib/thumb/v7-m/nofp\libc_nano.a(lib_a-mprec.o)
                                                  c:/gcc-arm-none-eabi/bin/../lib/gcc/arm-none-eabi/10.3.1/../../../../arm-none-eabi/lib/thumb/v7-m/nofp\libc_nano.a(lib_a-dtoa.o)
                                                  build/cmd.o
memmove                                           c:/gcc-arm-none-eabi/bin/../lib/gcc/arm-none-eabi/10.3.1/../../../../arm-none-eabi/lib/thumb/v7-m/nofp\libc_nano.a(lib_a-memmove.o)
                                                  c:/gcc-arm-none-eabi/bin/../lib/gcc/arm-none-eabi/10.3.1/../../../../arm-none-eabi/lib/thumb/v7-m/nofp\libc_nano.a(lib_a-fvwrite.o)
memset                                            c:/gcc-arm-none-eabi/bin/../lib/gcc/arm-none-eabi/10.3.1/../../../../arm-none-eabi/lib/thumb/v7-m/nofp\libc_nano.a(lib_a-memset.o)
                                                  c:/gcc-arm-none-eabi/bin/../lib/gcc/arm-none-eabi/10.3.1/../../../../arm-none-eabi/lib/thumb/v7-m/nofp\libc_nano.a(lib_a-findfp.o)
                                                  c:/gcc-arm-none-eabi/bin/../lib/gcc/arm-none-eabi/10.3.1/../../../../arm-none-eabi/lib/thumb/v7-m/nofp\libc_nano.a(lib_a-nano-callocr.o)
                                                  build/shell.o
                                                  build/msh.o
                                                  c:/gcc-arm-none-eabi/bin/../lib/gcc/arm-none-eabi/10.3.1/../../../../arm-none-eabi/lib/thumb/v7-m/nofp/crt0.o
msh_auto_complete                                 build/msh.o
                                                  build/shell.o
msh_exec                                          build/msh.o
                                                  build/shell.o
msh_help                                          build/msh.o
msh_is_used                                       build/msh.o
                                                  build/shell.o
raise                                             c:/gcc-arm-none-eabi/bin/../lib/gcc/arm-none-eabi/10.3.1/../../../../arm-none-eabi/lib/thumb/v7-m/nofp\libc_nano.a(lib_a-signal.o)
                                                  c:/gcc-arm-none-eabi/bin/../lib/gcc/arm-none-eabi/10.3.1/../../../../arm-none-eabi/lib/thumb/v7-m/nofp\libc_nano.a(lib_a-abort.o)
rt_application_init                               build/components.o
rt_calloc                                         build/mem.o
                                                  build/shell.o
rt_components_board_init                          build/components.o
                                                  build/board.o
rt_components_init                                build/components.o
rt_critical_level                                 build/scheduler.o
rt_current_priority                               build/scheduler.o
rt_current_thread                                 build/scheduler.o
                                                  build/thread.o
rt_enter_critical                                 build/scheduler.o
                                                  build/object.o
                                                  build/board.o
rt_exit_critical                                  build/scheduler.o
                                                  build/object.o
                                                  build/board.o
rt_free                                           build/mem.o
                                                  build/object.o
                                                  build/kservice.o
                                                  build/ipc.o
                                                  build/idle.o
                                                  build/shell.o
rt_free_align                                     build/kservice.o
rt_get_errno                                      build/kservice.o
rt_heap_begin_get                                 build/board.o
rt_heap_end_get                                   build/board.o
rt_hw_board_init                                  build/board.o
                                                  build/components.o
rt_hw_console_getchar                             build/finsh_port.o
                                                  build/shell.o
rt_hw_console_output                              build/board.o
rt_hw_context_switch                              build/context_gcc.o
                                                  build/scheduler.o
rt_hw_context_switch_interrupt                    build/context_gcc.o
                                                  build/scheduler.o
rt_hw_context_switch_to                           build/context_gcc.o
                                                  build/scheduler.o
rt_hw_cpu_reset                                   build/cpuport.o
rt_hw_cpu_shutdown                                build/cpuport.o
rt_hw_exception_install                           build/cpuport.o
rt_hw_hard_fault_exception                        build/cpuport.o
                                                  build/context_gcc.o
rt_hw_interrupt_check                             build/context_gcc.o
rt_hw_interrupt_disable                           build/context_gcc.o
                                                  build/timer.o
                                                  build/thread.o
                                                  build/scheduler.o
                                                  build/object.o
                                                  build/irq.o
                                                  build/ipc.o
                                                  build/idle.o
                                                  build/components.o
                                                  build/clock.o
                                                  build/cmd.o
rt_hw_interrupt_enable                            build/context_gcc.o
                                                  build/timer.o
                                                  build/thread.o
                                                  build/scheduler.o
                                                  build/object.o
                                                  build/irq.o
                                                  build/ipc.o
                                                  build/idle.o
                                                  build/clock.o
                                                  build/cmd.o
rt_hw_interrupt_thread_switch                     build/context_gcc.o
rt_hw_stack_init                                  build/cpuport.o
                                                  build/thread.o
rt_interrupt_enter                                build/irq.o
                                                  build/board.o
rt_interrupt_from_thread                          build/cpuport.o
                                                  build/context_gcc.o
rt_interrupt_get_nest                             build/irq.o
                                                  build/kservice.o
rt_interrupt_leave                                build/irq.o
                                                  build/board.o
rt_interrupt_nest                                 build/irq.o
                                                  build/scheduler.o
rt_interrupt_to_thread                            build/cpuport.o
                                                  build/context_gcc.o
rt_kprintf                                        build/kservice.o
                                                  build/mem.o
                                                  build/cpuport.o
                                                  build/shell.o
                                                  build/msh.o
                                                  build/cmd.o
rt_kputs                                          build/kservice.o
rt_malloc                                         build/mem.o
                                                  build/thread.o
                                                  build/object.o
                                                  build/kservice.o
                                                  build/ipc.o
                                                  build/shell.o
rt_malloc_align                                   build/kservice.o
rt_mb_control                                     build/ipc.o
rt_mb_create                                      build/ipc.o
rt_mb_delete                                      build/ipc.o
rt_mb_detach                                      build/ipc.o
rt_mb_init                                        build/ipc.o
rt_mb_recv                                        build/ipc.o
rt_mb_send                                        build/ipc.o
rt_mb_send_wait                                   build/ipc.o
rt_memcmp                                         build/kservice.o
rt_memcpy                                         build/kservice.o
                                                  build/mem.o
rt_memmove                                        build/kservice.o
                                                  build/shell.o
rt_memory_info                                    build/mem.o
rt_memset                                         build/kservice.o
                                                  build/thread.o
                                                  build/object.o
                                                  build/mem.o
rt_object_allocate                                build/object.o
                                                  build/timer.o
                                                  build/thread.o
                                                  build/ipc.o
rt_object_delete                                  build/object.o
                                                  build/timer.o
                                                  build/thread.o
                                                  build/ipc.o
                                                  build/idle.o
rt_object_detach                                  build/object.o
                                                  build/timer.o
                                                  build/thread.o
                                                  build/ipc.o
rt_object_find                                    build/object.o
                                                  build/thread.o
rt_object_get_information                         build/object.o
                                                  build/cmd.o
rt_object_get_length                              build/object.o
rt_object_get_pointers                            build/object.o
rt_object_get_type                                build/object.o
rt_object_init                                    build/object.o
                                                  build/timer.o
                                                  build/thread.o
                                                  build/ipc.o
rt_object_is_systemobject                         build/object.o
                                                  build/thread.o
rt_realloc                                        build/mem.o
rt_schedule                                       build/scheduler.o
                                                  build/thread.o
                                                  build/ipc.o
rt_schedule_insert_thread                         build/scheduler.o
                                                  build/thread.o
rt_schedule_remove_thread                         build/scheduler.o
                                                  build/thread.o
rt_sem_control                                    build/ipc.o
rt_sem_create                                     build/ipc.o
rt_sem_delete                                     build/ipc.o
rt_sem_detach                                     build/ipc.o
rt_sem_init                                       build/ipc.o
                                                  build/mem.o
                                                  build/shell.o
rt_sem_release                                    build/ipc.o
                                                  build/mem.o
rt_sem_take                                       build/ipc.o
                                                  build/mem.o
rt_sem_trytake                                    build/ipc.o
rt_set_errno                                      build/kservice.o
rt_show_version                                   build/kservice.o
                                                  build/components.o
                                                  build/cmd.o
rt_snprintf                                       build/kservice.o
rt_sprintf                                        build/kservice.o
rt_strcasecmp                                     build/kservice.o
rt_strcmp                                         build/kservice.o
rt_strdup                                         build/kservice.o
rt_strlen                                         build/kservice.o
rt_strncmp                                        build/kservice.o
                                                  build/object.o
rt_strncpy                                        build/kservice.o
                                                  build/object.o
                                                  build/msh.o
rt_strnlen                                        build/kservice.o
rt_strstr                                         build/kservice.o
rt_system_heap_init                               build/mem.o
                                                  build/board.o
rt_system_object_init                             build/object.o
rt_system_scheduler_init                          build/scheduler.o
                                                  build/components.o
rt_system_scheduler_start                         build/scheduler.o
                                                  build/components.o
rt_system_tick_init                               build/clock.o
rt_system_timer_init                              build/timer.o
                                                  build/components.o
rt_system_timer_thread_init                       build/timer.o
                                                  build/components.o
rt_thread_control                                 build/thread.o
rt_thread_create                                  build/thread.o
                                                  build/components.o
                                                  build/shell.o
                                                  build/main.o
rt_thread_defunct                                 build/scheduler.o
                                                  build/thread.o
                                                  build/idle.o
rt_thread_delay                                   build/thread.o
                                                  build/main.o
rt_thread_delay_until                             build/thread.o
rt_thread_delete                                  build/thread.o
rt_thread_detach                                  build/thread.o
rt_thread_exit                                    build/thread.o
rt_thread_find                                    build/thread.o
rt_thread_idle_excute                             build/idle.o
rt_thread_idle_gethandler                         build/idle.o
rt_thread_idle_init                               build/idle.o
                                                  build/components.o
rt_thread_init                                    build/thread.o
                                                  build/idle.o
rt_thread_mdelay                                  build/thread.o
                                                  build/finsh_port.o
rt_thread_priority_table                          build/scheduler.o
                                                  build/thread.o
rt_thread_ready_priority_group                    build/scheduler.o
rt_thread_resume                                  build/thread.o
                                                  build/ipc.o
rt_thread_self                                    build/thread.o
                                                  build/kservice.o
                                                  build/ipc.o
                                                  build/clock.o
                                                  build/cpuport.o
rt_thread_sleep                                   build/thread.o
rt_thread_startup                                 build/thread.o
                                                  build/idle.o
                                                  build/components.o
                                                  build/shell.o
                                                  build/main.o
rt_thread_suspend                                 build/thread.o
                                                  build/ipc.o
rt_thread_switch_interrupt_flag                   build/cpuport.o
                                                  build/context_gcc.o
rt_thread_timeout                                 build/thread.o
rt_thread_yield                                   build/thread.o
                                                  build/clock.o
rt_tick_from_millisecond                          build/clock.o
                                                  build/thread.o
rt_tick_get                                       build/clock.o
                                                  build/timer.o
                                                  build/thread.o
                                                  build/ipc.o
                                                  build/cmd.o
rt_tick_increase                                  build/clock.o
                                                  build/board.o
rt_tick_set                                       build/clock.o
rt_timer_check                                    build/timer.o
                                                  build/clock.o
rt_timer_control                                  build/timer.o
                                                  build/thread.o
                                                  build/ipc.o
rt_timer_create                                   build/timer.o
rt_timer_delete                                   build/timer.o
rt_timer_detach                                   build/timer.o
                                                  build/thread.o
rt_timer_init                                     build/timer.o
                                                  build/thread.o
rt_timer_next_timeout_tick                        build/timer.o
rt_timer_start                                    build/timer.o
                                                  build/thread.o
                                                  build/ipc.o
rt_timer_stop                                     build/timer.o
                                                  build/thread.o
rt_vsnprintf                                      build/kservice.o
rt_vsprintf                                       build/kservice.o
rtthread_startup                                  build/components.o
setlocale                                         c:/gcc-arm-none-eabi/bin/../lib/gcc/arm-none-eabi/10.3.1/../../../../arm-none-eabi/lib/thumb/v7-m/nofp\libc_nano.a(lib_a-locale.o)
shell                                             build/shell.o
signal                                            c:/gcc-arm-none-eabi/bin/../lib/gcc/arm-none-eabi/10.3.1/../../../../arm-none-eabi/lib/thumb/v7-m/nofp\libc_nano.a(lib_a-signal.o)
software_init_hook                                c:/gcc-arm-none-eabi/bin/../lib/gcc/arm-none-eabi/10.3.1/../../../../arm-none-eabi/lib/thumb/v7-m/nofp/crt0.o
strcmp                                            c:/gcc-arm-none-eabi/bin/../lib/gcc/arm-none-eabi/10.3.1/../../../../arm-none-eabi/lib/thumb/v7-m/nofp\libc_nano.a(lib_a-strcmp.o)
                                                  c:/gcc-arm-none-eabi/bin/../lib/gcc/arm-none-eabi/10.3.1/../../../../arm-none-eabi/lib/thumb/v7-m/nofp\libc_nano.a(lib_a-locale.o)
strcpy                                            c:/gcc-arm-none-eabi/bin/../lib/gcc/arm-none-eabi/10.3.1/../../../../arm-none-eabi/lib/thumb/v7-m/nofp\libc_nano.a(lib_a-strcpy.o)
                                                  build/shell.o
strlen                                            c:/gcc-arm-none-eabi/bin/../lib/gcc/arm-none-eabi/10.3.1/../../../../arm-none-eabi/lib/thumb/v7-m/nofp\libc_nano.a(lib_a-strlen.o)
                                                  c:/gcc-arm-none-eabi/bin/../lib/gcc/arm-none-eabi/10.3.1/../../../../arm-none-eabi/lib/thumb/v7-m/nofp\libc_nano.a(lib_a-nano-vfprintf_float.o)
                                                  build/shell.o
                                                  build/msh.o
strncmp                                           c:/gcc-arm-none-eabi/bin/../lib/gcc/arm-none-eabi/10.3.1/../../../../arm-none-eabi/lib/thumb/v7-m/nofp\libc_nano.a(lib_a-strncmp.o)
                                                  build/msh.o
                                                  build/cmd.o
strncpy                                           c:/gcc-arm-none-eabi/bin/../lib/gcc/arm-none-eabi/10.3.1/../../../../arm-none-eabi/lib/thumb/v7-m/nofp\libc_nano.a(lib_a-strncpy.o)
                                                  build/shell.o
version                                           build/cmd.o
vfiprintf                                         c:/gcc-arm-none-eabi/bin/../lib/gcc/arm-none-eabi/10.3.1/../../../../arm-none-eabi/lib/thumb/v7-m/nofp\libc_nano.a(lib_a-nano-vfprintf.o)
vfprintf                                          c:/gcc-arm-none-eabi/bin/../lib/gcc/arm-none-eabi/10.3.1/../../../../arm-none-eabi/lib/thumb/v7-m/nofp\libc_nano.a(lib_a-nano-vfprintf.o)
