ARM GAS  C:\Users\hao\AppData\Local\Temp\ccgRypVa.s 			page 1


   1              		.cpu cortex-m3
   2              		.arch armv7-m
   3              		.fpu softvfp
   4              		.eabi_attribute 20, 1
   5              		.eabi_attribute 21, 1
   6              		.eabi_attribute 23, 3
   7              		.eabi_attribute 24, 1
   8              		.eabi_attribute 25, 1
   9              		.eabi_attribute 26, 1
  10              		.eabi_attribute 30, 6
  11              		.eabi_attribute 34, 1
  12              		.eabi_attribute 18, 4
  13              		.file	"stm32f10x_i2c.c"
  14              		.text
  15              	.Ltext0:
  16              		.cfi_sections	.debug_frame
  17              		.section	.text.I2C_DeInit,"ax",%progbits
  18              		.align	1
  19              		.global	I2C_DeInit
  20              		.syntax unified
  21              		.thumb
  22              		.thumb_func
  24              	I2C_DeInit:
  25              	.LFB29:
  26              		.file 1 "./Libraries/STM32F10x_StdPeriph_Driver/src/stm32f10x_i2c.c"
   1:./Libraries/STM32F10x_StdPeriph_Driver/src/stm32f10x_i2c.c **** /**
   2:./Libraries/STM32F10x_StdPeriph_Driver/src/stm32f10x_i2c.c ****   ******************************************************************************
   3:./Libraries/STM32F10x_StdPeriph_Driver/src/stm32f10x_i2c.c ****   * @file    stm32f10x_i2c.c
   4:./Libraries/STM32F10x_StdPeriph_Driver/src/stm32f10x_i2c.c ****   * @author  MCD Application Team
   5:./Libraries/STM32F10x_StdPeriph_Driver/src/stm32f10x_i2c.c ****   * @version V3.5.0
   6:./Libraries/STM32F10x_StdPeriph_Driver/src/stm32f10x_i2c.c ****   * @date    11-March-2011
   7:./Libraries/STM32F10x_StdPeriph_Driver/src/stm32f10x_i2c.c ****   * @brief   This file provides all the I2C firmware functions.
   8:./Libraries/STM32F10x_StdPeriph_Driver/src/stm32f10x_i2c.c ****   ******************************************************************************
   9:./Libraries/STM32F10x_StdPeriph_Driver/src/stm32f10x_i2c.c ****   * @attention
  10:./Libraries/STM32F10x_StdPeriph_Driver/src/stm32f10x_i2c.c ****   *
  11:./Libraries/STM32F10x_StdPeriph_Driver/src/stm32f10x_i2c.c ****   * THE PRESENT FIRMWARE WHICH IS FOR GUIDANCE ONLY AIMS AT PROVIDING CUSTOMERS
  12:./Libraries/STM32F10x_StdPeriph_Driver/src/stm32f10x_i2c.c ****   * WITH CODING INFORMATION REGARDING THEIR PRODUCTS IN ORDER FOR THEM TO SAVE
  13:./Libraries/STM32F10x_StdPeriph_Driver/src/stm32f10x_i2c.c ****   * TIME. AS A RESULT, STMICROELECTRONICS SHALL NOT BE HELD LIABLE FOR ANY
  14:./Libraries/STM32F10x_StdPeriph_Driver/src/stm32f10x_i2c.c ****   * DIRECT, INDIRECT OR CONSEQUENTIAL DAMAGES WITH RESPECT TO ANY CLAIMS ARISING
  15:./Libraries/STM32F10x_StdPeriph_Driver/src/stm32f10x_i2c.c ****   * FROM THE CONTENT OF SUCH FIRMWARE AND/OR THE USE MADE BY CUSTOMERS OF THE
  16:./Libraries/STM32F10x_StdPeriph_Driver/src/stm32f10x_i2c.c ****   * CODING INFORMATION CONTAINED HEREIN IN CONNECTION WITH THEIR PRODUCTS.
  17:./Libraries/STM32F10x_StdPeriph_Driver/src/stm32f10x_i2c.c ****   *
  18:./Libraries/STM32F10x_StdPeriph_Driver/src/stm32f10x_i2c.c ****   * <h2><center>&copy; COPYRIGHT 2011 STMicroelectronics</center></h2>
  19:./Libraries/STM32F10x_StdPeriph_Driver/src/stm32f10x_i2c.c ****   ******************************************************************************
  20:./Libraries/STM32F10x_StdPeriph_Driver/src/stm32f10x_i2c.c ****   */
  21:./Libraries/STM32F10x_StdPeriph_Driver/src/stm32f10x_i2c.c **** 
  22:./Libraries/STM32F10x_StdPeriph_Driver/src/stm32f10x_i2c.c **** /* Includes ------------------------------------------------------------------*/
  23:./Libraries/STM32F10x_StdPeriph_Driver/src/stm32f10x_i2c.c **** #include "stm32f10x_i2c.h"
  24:./Libraries/STM32F10x_StdPeriph_Driver/src/stm32f10x_i2c.c **** #include "stm32f10x_rcc.h"
  25:./Libraries/STM32F10x_StdPeriph_Driver/src/stm32f10x_i2c.c **** 
  26:./Libraries/STM32F10x_StdPeriph_Driver/src/stm32f10x_i2c.c **** 
  27:./Libraries/STM32F10x_StdPeriph_Driver/src/stm32f10x_i2c.c **** /** @addtogroup STM32F10x_StdPeriph_Driver
  28:./Libraries/STM32F10x_StdPeriph_Driver/src/stm32f10x_i2c.c ****   * @{
  29:./Libraries/STM32F10x_StdPeriph_Driver/src/stm32f10x_i2c.c ****   */
  30:./Libraries/STM32F10x_StdPeriph_Driver/src/stm32f10x_i2c.c **** 
  31:./Libraries/STM32F10x_StdPeriph_Driver/src/stm32f10x_i2c.c **** /** @defgroup I2C 
  32:./Libraries/STM32F10x_StdPeriph_Driver/src/stm32f10x_i2c.c ****   * @brief I2C driver modules
ARM GAS  C:\Users\hao\AppData\Local\Temp\ccgRypVa.s 			page 2


  33:./Libraries/STM32F10x_StdPeriph_Driver/src/stm32f10x_i2c.c ****   * @{
  34:./Libraries/STM32F10x_StdPeriph_Driver/src/stm32f10x_i2c.c ****   */ 
  35:./Libraries/STM32F10x_StdPeriph_Driver/src/stm32f10x_i2c.c **** 
  36:./Libraries/STM32F10x_StdPeriph_Driver/src/stm32f10x_i2c.c **** /** @defgroup I2C_Private_TypesDefinitions
  37:./Libraries/STM32F10x_StdPeriph_Driver/src/stm32f10x_i2c.c ****   * @{
  38:./Libraries/STM32F10x_StdPeriph_Driver/src/stm32f10x_i2c.c ****   */
  39:./Libraries/STM32F10x_StdPeriph_Driver/src/stm32f10x_i2c.c **** 
  40:./Libraries/STM32F10x_StdPeriph_Driver/src/stm32f10x_i2c.c **** /**
  41:./Libraries/STM32F10x_StdPeriph_Driver/src/stm32f10x_i2c.c ****   * @}
  42:./Libraries/STM32F10x_StdPeriph_Driver/src/stm32f10x_i2c.c ****   */
  43:./Libraries/STM32F10x_StdPeriph_Driver/src/stm32f10x_i2c.c **** 
  44:./Libraries/STM32F10x_StdPeriph_Driver/src/stm32f10x_i2c.c **** /** @defgroup I2C_Private_Defines
  45:./Libraries/STM32F10x_StdPeriph_Driver/src/stm32f10x_i2c.c ****   * @{
  46:./Libraries/STM32F10x_StdPeriph_Driver/src/stm32f10x_i2c.c ****   */
  47:./Libraries/STM32F10x_StdPeriph_Driver/src/stm32f10x_i2c.c **** 
  48:./Libraries/STM32F10x_StdPeriph_Driver/src/stm32f10x_i2c.c **** /* I2C SPE mask */
  49:./Libraries/STM32F10x_StdPeriph_Driver/src/stm32f10x_i2c.c **** #define CR1_PE_Set              ((uint16_t)0x0001)
  50:./Libraries/STM32F10x_StdPeriph_Driver/src/stm32f10x_i2c.c **** #define CR1_PE_Reset            ((uint16_t)0xFFFE)
  51:./Libraries/STM32F10x_StdPeriph_Driver/src/stm32f10x_i2c.c **** 
  52:./Libraries/STM32F10x_StdPeriph_Driver/src/stm32f10x_i2c.c **** /* I2C START mask */
  53:./Libraries/STM32F10x_StdPeriph_Driver/src/stm32f10x_i2c.c **** #define CR1_START_Set           ((uint16_t)0x0100)
  54:./Libraries/STM32F10x_StdPeriph_Driver/src/stm32f10x_i2c.c **** #define CR1_START_Reset         ((uint16_t)0xFEFF)
  55:./Libraries/STM32F10x_StdPeriph_Driver/src/stm32f10x_i2c.c **** 
  56:./Libraries/STM32F10x_StdPeriph_Driver/src/stm32f10x_i2c.c **** /* I2C STOP mask */
  57:./Libraries/STM32F10x_StdPeriph_Driver/src/stm32f10x_i2c.c **** #define CR1_STOP_Set            ((uint16_t)0x0200)
  58:./Libraries/STM32F10x_StdPeriph_Driver/src/stm32f10x_i2c.c **** #define CR1_STOP_Reset          ((uint16_t)0xFDFF)
  59:./Libraries/STM32F10x_StdPeriph_Driver/src/stm32f10x_i2c.c **** 
  60:./Libraries/STM32F10x_StdPeriph_Driver/src/stm32f10x_i2c.c **** /* I2C ACK mask */
  61:./Libraries/STM32F10x_StdPeriph_Driver/src/stm32f10x_i2c.c **** #define CR1_ACK_Set             ((uint16_t)0x0400)
  62:./Libraries/STM32F10x_StdPeriph_Driver/src/stm32f10x_i2c.c **** #define CR1_ACK_Reset           ((uint16_t)0xFBFF)
  63:./Libraries/STM32F10x_StdPeriph_Driver/src/stm32f10x_i2c.c **** 
  64:./Libraries/STM32F10x_StdPeriph_Driver/src/stm32f10x_i2c.c **** /* I2C ENGC mask */
  65:./Libraries/STM32F10x_StdPeriph_Driver/src/stm32f10x_i2c.c **** #define CR1_ENGC_Set            ((uint16_t)0x0040)
  66:./Libraries/STM32F10x_StdPeriph_Driver/src/stm32f10x_i2c.c **** #define CR1_ENGC_Reset          ((uint16_t)0xFFBF)
  67:./Libraries/STM32F10x_StdPeriph_Driver/src/stm32f10x_i2c.c **** 
  68:./Libraries/STM32F10x_StdPeriph_Driver/src/stm32f10x_i2c.c **** /* I2C SWRST mask */
  69:./Libraries/STM32F10x_StdPeriph_Driver/src/stm32f10x_i2c.c **** #define CR1_SWRST_Set           ((uint16_t)0x8000)
  70:./Libraries/STM32F10x_StdPeriph_Driver/src/stm32f10x_i2c.c **** #define CR1_SWRST_Reset         ((uint16_t)0x7FFF)
  71:./Libraries/STM32F10x_StdPeriph_Driver/src/stm32f10x_i2c.c **** 
  72:./Libraries/STM32F10x_StdPeriph_Driver/src/stm32f10x_i2c.c **** /* I2C PEC mask */
  73:./Libraries/STM32F10x_StdPeriph_Driver/src/stm32f10x_i2c.c **** #define CR1_PEC_Set             ((uint16_t)0x1000)
  74:./Libraries/STM32F10x_StdPeriph_Driver/src/stm32f10x_i2c.c **** #define CR1_PEC_Reset           ((uint16_t)0xEFFF)
  75:./Libraries/STM32F10x_StdPeriph_Driver/src/stm32f10x_i2c.c **** 
  76:./Libraries/STM32F10x_StdPeriph_Driver/src/stm32f10x_i2c.c **** /* I2C ENPEC mask */
  77:./Libraries/STM32F10x_StdPeriph_Driver/src/stm32f10x_i2c.c **** #define CR1_ENPEC_Set           ((uint16_t)0x0020)
  78:./Libraries/STM32F10x_StdPeriph_Driver/src/stm32f10x_i2c.c **** #define CR1_ENPEC_Reset         ((uint16_t)0xFFDF)
  79:./Libraries/STM32F10x_StdPeriph_Driver/src/stm32f10x_i2c.c **** 
  80:./Libraries/STM32F10x_StdPeriph_Driver/src/stm32f10x_i2c.c **** /* I2C ENARP mask */
  81:./Libraries/STM32F10x_StdPeriph_Driver/src/stm32f10x_i2c.c **** #define CR1_ENARP_Set           ((uint16_t)0x0010)
  82:./Libraries/STM32F10x_StdPeriph_Driver/src/stm32f10x_i2c.c **** #define CR1_ENARP_Reset         ((uint16_t)0xFFEF)
  83:./Libraries/STM32F10x_StdPeriph_Driver/src/stm32f10x_i2c.c **** 
  84:./Libraries/STM32F10x_StdPeriph_Driver/src/stm32f10x_i2c.c **** /* I2C NOSTRETCH mask */
  85:./Libraries/STM32F10x_StdPeriph_Driver/src/stm32f10x_i2c.c **** #define CR1_NOSTRETCH_Set       ((uint16_t)0x0080)
  86:./Libraries/STM32F10x_StdPeriph_Driver/src/stm32f10x_i2c.c **** #define CR1_NOSTRETCH_Reset     ((uint16_t)0xFF7F)
  87:./Libraries/STM32F10x_StdPeriph_Driver/src/stm32f10x_i2c.c **** 
  88:./Libraries/STM32F10x_StdPeriph_Driver/src/stm32f10x_i2c.c **** /* I2C registers Masks */
  89:./Libraries/STM32F10x_StdPeriph_Driver/src/stm32f10x_i2c.c **** #define CR1_CLEAR_Mask          ((uint16_t)0xFBF5)
ARM GAS  C:\Users\hao\AppData\Local\Temp\ccgRypVa.s 			page 3


  90:./Libraries/STM32F10x_StdPeriph_Driver/src/stm32f10x_i2c.c **** 
  91:./Libraries/STM32F10x_StdPeriph_Driver/src/stm32f10x_i2c.c **** /* I2C DMAEN mask */
  92:./Libraries/STM32F10x_StdPeriph_Driver/src/stm32f10x_i2c.c **** #define CR2_DMAEN_Set           ((uint16_t)0x0800)
  93:./Libraries/STM32F10x_StdPeriph_Driver/src/stm32f10x_i2c.c **** #define CR2_DMAEN_Reset         ((uint16_t)0xF7FF)
  94:./Libraries/STM32F10x_StdPeriph_Driver/src/stm32f10x_i2c.c **** 
  95:./Libraries/STM32F10x_StdPeriph_Driver/src/stm32f10x_i2c.c **** /* I2C LAST mask */
  96:./Libraries/STM32F10x_StdPeriph_Driver/src/stm32f10x_i2c.c **** #define CR2_LAST_Set            ((uint16_t)0x1000)
  97:./Libraries/STM32F10x_StdPeriph_Driver/src/stm32f10x_i2c.c **** #define CR2_LAST_Reset          ((uint16_t)0xEFFF)
  98:./Libraries/STM32F10x_StdPeriph_Driver/src/stm32f10x_i2c.c **** 
  99:./Libraries/STM32F10x_StdPeriph_Driver/src/stm32f10x_i2c.c **** /* I2C FREQ mask */
 100:./Libraries/STM32F10x_StdPeriph_Driver/src/stm32f10x_i2c.c **** #define CR2_FREQ_Reset          ((uint16_t)0xFFC0)
 101:./Libraries/STM32F10x_StdPeriph_Driver/src/stm32f10x_i2c.c **** 
 102:./Libraries/STM32F10x_StdPeriph_Driver/src/stm32f10x_i2c.c **** /* I2C ADD0 mask */
 103:./Libraries/STM32F10x_StdPeriph_Driver/src/stm32f10x_i2c.c **** #define OAR1_ADD0_Set           ((uint16_t)0x0001)
 104:./Libraries/STM32F10x_StdPeriph_Driver/src/stm32f10x_i2c.c **** #define OAR1_ADD0_Reset         ((uint16_t)0xFFFE)
 105:./Libraries/STM32F10x_StdPeriph_Driver/src/stm32f10x_i2c.c **** 
 106:./Libraries/STM32F10x_StdPeriph_Driver/src/stm32f10x_i2c.c **** /* I2C ENDUAL mask */
 107:./Libraries/STM32F10x_StdPeriph_Driver/src/stm32f10x_i2c.c **** #define OAR2_ENDUAL_Set         ((uint16_t)0x0001)
 108:./Libraries/STM32F10x_StdPeriph_Driver/src/stm32f10x_i2c.c **** #define OAR2_ENDUAL_Reset       ((uint16_t)0xFFFE)
 109:./Libraries/STM32F10x_StdPeriph_Driver/src/stm32f10x_i2c.c **** 
 110:./Libraries/STM32F10x_StdPeriph_Driver/src/stm32f10x_i2c.c **** /* I2C ADD2 mask */
 111:./Libraries/STM32F10x_StdPeriph_Driver/src/stm32f10x_i2c.c **** #define OAR2_ADD2_Reset         ((uint16_t)0xFF01)
 112:./Libraries/STM32F10x_StdPeriph_Driver/src/stm32f10x_i2c.c **** 
 113:./Libraries/STM32F10x_StdPeriph_Driver/src/stm32f10x_i2c.c **** /* I2C F/S mask */
 114:./Libraries/STM32F10x_StdPeriph_Driver/src/stm32f10x_i2c.c **** #define CCR_FS_Set              ((uint16_t)0x8000)
 115:./Libraries/STM32F10x_StdPeriph_Driver/src/stm32f10x_i2c.c **** 
 116:./Libraries/STM32F10x_StdPeriph_Driver/src/stm32f10x_i2c.c **** /* I2C CCR mask */
 117:./Libraries/STM32F10x_StdPeriph_Driver/src/stm32f10x_i2c.c **** #define CCR_CCR_Set             ((uint16_t)0x0FFF)
 118:./Libraries/STM32F10x_StdPeriph_Driver/src/stm32f10x_i2c.c **** 
 119:./Libraries/STM32F10x_StdPeriph_Driver/src/stm32f10x_i2c.c **** /* I2C FLAG mask */
 120:./Libraries/STM32F10x_StdPeriph_Driver/src/stm32f10x_i2c.c **** #define FLAG_Mask               ((uint32_t)0x00FFFFFF)
 121:./Libraries/STM32F10x_StdPeriph_Driver/src/stm32f10x_i2c.c **** 
 122:./Libraries/STM32F10x_StdPeriph_Driver/src/stm32f10x_i2c.c **** /* I2C Interrupt Enable mask */
 123:./Libraries/STM32F10x_StdPeriph_Driver/src/stm32f10x_i2c.c **** #define ITEN_Mask               ((uint32_t)0x07000000)
 124:./Libraries/STM32F10x_StdPeriph_Driver/src/stm32f10x_i2c.c **** 
 125:./Libraries/STM32F10x_StdPeriph_Driver/src/stm32f10x_i2c.c **** /**
 126:./Libraries/STM32F10x_StdPeriph_Driver/src/stm32f10x_i2c.c ****   * @}
 127:./Libraries/STM32F10x_StdPeriph_Driver/src/stm32f10x_i2c.c ****   */
 128:./Libraries/STM32F10x_StdPeriph_Driver/src/stm32f10x_i2c.c **** 
 129:./Libraries/STM32F10x_StdPeriph_Driver/src/stm32f10x_i2c.c **** /** @defgroup I2C_Private_Macros
 130:./Libraries/STM32F10x_StdPeriph_Driver/src/stm32f10x_i2c.c ****   * @{
 131:./Libraries/STM32F10x_StdPeriph_Driver/src/stm32f10x_i2c.c ****   */
 132:./Libraries/STM32F10x_StdPeriph_Driver/src/stm32f10x_i2c.c **** 
 133:./Libraries/STM32F10x_StdPeriph_Driver/src/stm32f10x_i2c.c **** /**
 134:./Libraries/STM32F10x_StdPeriph_Driver/src/stm32f10x_i2c.c ****   * @}
 135:./Libraries/STM32F10x_StdPeriph_Driver/src/stm32f10x_i2c.c ****   */
 136:./Libraries/STM32F10x_StdPeriph_Driver/src/stm32f10x_i2c.c **** 
 137:./Libraries/STM32F10x_StdPeriph_Driver/src/stm32f10x_i2c.c **** /** @defgroup I2C_Private_Variables
 138:./Libraries/STM32F10x_StdPeriph_Driver/src/stm32f10x_i2c.c ****   * @{
 139:./Libraries/STM32F10x_StdPeriph_Driver/src/stm32f10x_i2c.c ****   */
 140:./Libraries/STM32F10x_StdPeriph_Driver/src/stm32f10x_i2c.c **** 
 141:./Libraries/STM32F10x_StdPeriph_Driver/src/stm32f10x_i2c.c **** /**
 142:./Libraries/STM32F10x_StdPeriph_Driver/src/stm32f10x_i2c.c ****   * @}
 143:./Libraries/STM32F10x_StdPeriph_Driver/src/stm32f10x_i2c.c ****   */
 144:./Libraries/STM32F10x_StdPeriph_Driver/src/stm32f10x_i2c.c **** 
 145:./Libraries/STM32F10x_StdPeriph_Driver/src/stm32f10x_i2c.c **** /** @defgroup I2C_Private_FunctionPrototypes
 146:./Libraries/STM32F10x_StdPeriph_Driver/src/stm32f10x_i2c.c ****   * @{
ARM GAS  C:\Users\hao\AppData\Local\Temp\ccgRypVa.s 			page 4


 147:./Libraries/STM32F10x_StdPeriph_Driver/src/stm32f10x_i2c.c ****   */
 148:./Libraries/STM32F10x_StdPeriph_Driver/src/stm32f10x_i2c.c **** 
 149:./Libraries/STM32F10x_StdPeriph_Driver/src/stm32f10x_i2c.c **** /**
 150:./Libraries/STM32F10x_StdPeriph_Driver/src/stm32f10x_i2c.c ****   * @}
 151:./Libraries/STM32F10x_StdPeriph_Driver/src/stm32f10x_i2c.c ****   */
 152:./Libraries/STM32F10x_StdPeriph_Driver/src/stm32f10x_i2c.c **** 
 153:./Libraries/STM32F10x_StdPeriph_Driver/src/stm32f10x_i2c.c **** /** @defgroup I2C_Private_Functions
 154:./Libraries/STM32F10x_StdPeriph_Driver/src/stm32f10x_i2c.c ****   * @{
 155:./Libraries/STM32F10x_StdPeriph_Driver/src/stm32f10x_i2c.c ****   */
 156:./Libraries/STM32F10x_StdPeriph_Driver/src/stm32f10x_i2c.c **** 
 157:./Libraries/STM32F10x_StdPeriph_Driver/src/stm32f10x_i2c.c **** /**
 158:./Libraries/STM32F10x_StdPeriph_Driver/src/stm32f10x_i2c.c ****   * @brief  Deinitializes the I2Cx peripheral registers to their default reset values.
 159:./Libraries/STM32F10x_StdPeriph_Driver/src/stm32f10x_i2c.c ****   * @param  I2Cx: where x can be 1 or 2 to select the I2C peripheral.
 160:./Libraries/STM32F10x_StdPeriph_Driver/src/stm32f10x_i2c.c ****   * @retval None
 161:./Libraries/STM32F10x_StdPeriph_Driver/src/stm32f10x_i2c.c ****   */
 162:./Libraries/STM32F10x_StdPeriph_Driver/src/stm32f10x_i2c.c **** void I2C_DeInit(I2C_TypeDef* I2Cx)
 163:./Libraries/STM32F10x_StdPeriph_Driver/src/stm32f10x_i2c.c **** {
  27              		.loc 1 163 1
  28              		.cfi_startproc
  29              		@ args = 0, pretend = 0, frame = 8
  30              		@ frame_needed = 1, uses_anonymous_args = 0
  31 0000 80B5     		push	{r7, lr}
  32              	.LCFI0:
  33              		.cfi_def_cfa_offset 8
  34              		.cfi_offset 7, -8
  35              		.cfi_offset 14, -4
  36 0002 82B0     		sub	sp, sp, #8
  37              	.LCFI1:
  38              		.cfi_def_cfa_offset 16
  39 0004 00AF     		add	r7, sp, #0
  40              	.LCFI2:
  41              		.cfi_def_cfa_register 7
  42 0006 7860     		str	r0, [r7, #4]
 164:./Libraries/STM32F10x_StdPeriph_Driver/src/stm32f10x_i2c.c ****   /* Check the parameters */
 165:./Libraries/STM32F10x_StdPeriph_Driver/src/stm32f10x_i2c.c ****   assert_param(IS_I2C_ALL_PERIPH(I2Cx));
 166:./Libraries/STM32F10x_StdPeriph_Driver/src/stm32f10x_i2c.c **** 
 167:./Libraries/STM32F10x_StdPeriph_Driver/src/stm32f10x_i2c.c ****   if (I2Cx == I2C1)
  43              		.loc 1 167 6
  44 0008 7B68     		ldr	r3, [r7, #4]
  45 000a 0E4A     		ldr	r2, .L5
  46 000c 9342     		cmp	r3, r2
  47 000e 0AD1     		bne	.L2
 168:./Libraries/STM32F10x_StdPeriph_Driver/src/stm32f10x_i2c.c ****   {
 169:./Libraries/STM32F10x_StdPeriph_Driver/src/stm32f10x_i2c.c ****     /* Enable I2C1 reset state */
 170:./Libraries/STM32F10x_StdPeriph_Driver/src/stm32f10x_i2c.c ****     RCC_APB1PeriphResetCmd(RCC_APB1Periph_I2C1, ENABLE);
  48              		.loc 1 170 5
  49 0010 0121     		movs	r1, #1
  50 0012 4FF40010 		mov	r0, #2097152
  51 0016 FFF7FEFF 		bl	RCC_APB1PeriphResetCmd
 171:./Libraries/STM32F10x_StdPeriph_Driver/src/stm32f10x_i2c.c ****     /* Release I2C1 from reset state */
 172:./Libraries/STM32F10x_StdPeriph_Driver/src/stm32f10x_i2c.c ****     RCC_APB1PeriphResetCmd(RCC_APB1Periph_I2C1, DISABLE);
  52              		.loc 1 172 5
  53 001a 0021     		movs	r1, #0
  54 001c 4FF40010 		mov	r0, #2097152
  55 0020 FFF7FEFF 		bl	RCC_APB1PeriphResetCmd
 173:./Libraries/STM32F10x_StdPeriph_Driver/src/stm32f10x_i2c.c ****   }
 174:./Libraries/STM32F10x_StdPeriph_Driver/src/stm32f10x_i2c.c ****   else
ARM GAS  C:\Users\hao\AppData\Local\Temp\ccgRypVa.s 			page 5


 175:./Libraries/STM32F10x_StdPeriph_Driver/src/stm32f10x_i2c.c ****   {
 176:./Libraries/STM32F10x_StdPeriph_Driver/src/stm32f10x_i2c.c ****     /* Enable I2C2 reset state */
 177:./Libraries/STM32F10x_StdPeriph_Driver/src/stm32f10x_i2c.c ****     RCC_APB1PeriphResetCmd(RCC_APB1Periph_I2C2, ENABLE);
 178:./Libraries/STM32F10x_StdPeriph_Driver/src/stm32f10x_i2c.c ****     /* Release I2C2 from reset state */
 179:./Libraries/STM32F10x_StdPeriph_Driver/src/stm32f10x_i2c.c ****     RCC_APB1PeriphResetCmd(RCC_APB1Periph_I2C2, DISABLE);
 180:./Libraries/STM32F10x_StdPeriph_Driver/src/stm32f10x_i2c.c ****   }
 181:./Libraries/STM32F10x_StdPeriph_Driver/src/stm32f10x_i2c.c **** }
  56              		.loc 1 181 1
  57 0024 09E0     		b	.L4
  58              	.L2:
 177:./Libraries/STM32F10x_StdPeriph_Driver/src/stm32f10x_i2c.c ****     /* Release I2C2 from reset state */
  59              		.loc 1 177 5
  60 0026 0121     		movs	r1, #1
  61 0028 4FF48000 		mov	r0, #4194304
  62 002c FFF7FEFF 		bl	RCC_APB1PeriphResetCmd
 179:./Libraries/STM32F10x_StdPeriph_Driver/src/stm32f10x_i2c.c ****   }
  63              		.loc 1 179 5
  64 0030 0021     		movs	r1, #0
  65 0032 4FF48000 		mov	r0, #4194304
  66 0036 FFF7FEFF 		bl	RCC_APB1PeriphResetCmd
  67              	.L4:
  68              		.loc 1 181 1
  69 003a 00BF     		nop
  70 003c 0837     		adds	r7, r7, #8
  71              	.LCFI3:
  72              		.cfi_def_cfa_offset 8
  73 003e BD46     		mov	sp, r7
  74              	.LCFI4:
  75              		.cfi_def_cfa_register 13
  76              		@ sp needed
  77 0040 80BD     		pop	{r7, pc}
  78              	.L6:
  79 0042 00BF     		.align	2
  80              	.L5:
  81 0044 00540040 		.word	1073763328
  82              		.cfi_endproc
  83              	.LFE29:
  85              		.section	.text.I2C_Init,"ax",%progbits
  86              		.align	1
  87              		.global	I2C_Init
  88              		.syntax unified
  89              		.thumb
  90              		.thumb_func
  92              	I2C_Init:
  93              	.LFB30:
 182:./Libraries/STM32F10x_StdPeriph_Driver/src/stm32f10x_i2c.c **** 
 183:./Libraries/STM32F10x_StdPeriph_Driver/src/stm32f10x_i2c.c **** /**
 184:./Libraries/STM32F10x_StdPeriph_Driver/src/stm32f10x_i2c.c ****   * @brief  Initializes the I2Cx peripheral according to the specified 
 185:./Libraries/STM32F10x_StdPeriph_Driver/src/stm32f10x_i2c.c ****   *   parameters in the I2C_InitStruct.
 186:./Libraries/STM32F10x_StdPeriph_Driver/src/stm32f10x_i2c.c ****   * @param  I2Cx: where x can be 1 or 2 to select the I2C peripheral.
 187:./Libraries/STM32F10x_StdPeriph_Driver/src/stm32f10x_i2c.c ****   * @param  I2C_InitStruct: pointer to a I2C_InitTypeDef structure that
 188:./Libraries/STM32F10x_StdPeriph_Driver/src/stm32f10x_i2c.c ****   *   contains the configuration information for the specified I2C peripheral.
 189:./Libraries/STM32F10x_StdPeriph_Driver/src/stm32f10x_i2c.c ****   * @retval None
 190:./Libraries/STM32F10x_StdPeriph_Driver/src/stm32f10x_i2c.c ****   */
 191:./Libraries/STM32F10x_StdPeriph_Driver/src/stm32f10x_i2c.c **** void I2C_Init(I2C_TypeDef* I2Cx, I2C_InitTypeDef* I2C_InitStruct)
 192:./Libraries/STM32F10x_StdPeriph_Driver/src/stm32f10x_i2c.c **** {
  94              		.loc 1 192 1
ARM GAS  C:\Users\hao\AppData\Local\Temp\ccgRypVa.s 			page 6


  95              		.cfi_startproc
  96              		@ args = 0, pretend = 0, frame = 40
  97              		@ frame_needed = 1, uses_anonymous_args = 0
  98 0000 80B5     		push	{r7, lr}
  99              	.LCFI5:
 100              		.cfi_def_cfa_offset 8
 101              		.cfi_offset 7, -8
 102              		.cfi_offset 14, -4
 103 0002 8AB0     		sub	sp, sp, #40
 104              	.LCFI6:
 105              		.cfi_def_cfa_offset 48
 106 0004 00AF     		add	r7, sp, #0
 107              	.LCFI7:
 108              		.cfi_def_cfa_register 7
 109 0006 7860     		str	r0, [r7, #4]
 110 0008 3960     		str	r1, [r7]
 193:./Libraries/STM32F10x_StdPeriph_Driver/src/stm32f10x_i2c.c ****   uint16_t tmpreg = 0, freqrange = 0;
 111              		.loc 1 193 12
 112 000a 0023     		movs	r3, #0
 113 000c FB84     		strh	r3, [r7, #38]	@ movhi
 114              		.loc 1 193 24
 115 000e 0023     		movs	r3, #0
 116 0010 7B84     		strh	r3, [r7, #34]	@ movhi
 194:./Libraries/STM32F10x_StdPeriph_Driver/src/stm32f10x_i2c.c ****   uint16_t result = 0x04;
 117              		.loc 1 194 12
 118 0012 0423     		movs	r3, #4
 119 0014 BB84     		strh	r3, [r7, #36]	@ movhi
 195:./Libraries/STM32F10x_StdPeriph_Driver/src/stm32f10x_i2c.c ****   uint32_t pclk1 = 8000000;
 120              		.loc 1 195 12
 121 0016 574B     		ldr	r3, .L14
 122 0018 FB61     		str	r3, [r7, #28]
 196:./Libraries/STM32F10x_StdPeriph_Driver/src/stm32f10x_i2c.c ****   RCC_ClocksTypeDef  rcc_clocks;
 197:./Libraries/STM32F10x_StdPeriph_Driver/src/stm32f10x_i2c.c ****   /* Check the parameters */
 198:./Libraries/STM32F10x_StdPeriph_Driver/src/stm32f10x_i2c.c ****   assert_param(IS_I2C_ALL_PERIPH(I2Cx));
 199:./Libraries/STM32F10x_StdPeriph_Driver/src/stm32f10x_i2c.c ****   assert_param(IS_I2C_CLOCK_SPEED(I2C_InitStruct->I2C_ClockSpeed));
 200:./Libraries/STM32F10x_StdPeriph_Driver/src/stm32f10x_i2c.c ****   assert_param(IS_I2C_MODE(I2C_InitStruct->I2C_Mode));
 201:./Libraries/STM32F10x_StdPeriph_Driver/src/stm32f10x_i2c.c ****   assert_param(IS_I2C_DUTY_CYCLE(I2C_InitStruct->I2C_DutyCycle));
 202:./Libraries/STM32F10x_StdPeriph_Driver/src/stm32f10x_i2c.c ****   assert_param(IS_I2C_OWN_ADDRESS1(I2C_InitStruct->I2C_OwnAddress1));
 203:./Libraries/STM32F10x_StdPeriph_Driver/src/stm32f10x_i2c.c ****   assert_param(IS_I2C_ACK_STATE(I2C_InitStruct->I2C_Ack));
 204:./Libraries/STM32F10x_StdPeriph_Driver/src/stm32f10x_i2c.c ****   assert_param(IS_I2C_ACKNOWLEDGE_ADDRESS(I2C_InitStruct->I2C_AcknowledgedAddress));
 205:./Libraries/STM32F10x_StdPeriph_Driver/src/stm32f10x_i2c.c **** 
 206:./Libraries/STM32F10x_StdPeriph_Driver/src/stm32f10x_i2c.c **** /*---------------------------- I2Cx CR2 Configuration ------------------------*/
 207:./Libraries/STM32F10x_StdPeriph_Driver/src/stm32f10x_i2c.c ****   /* Get the I2Cx CR2 value */
 208:./Libraries/STM32F10x_StdPeriph_Driver/src/stm32f10x_i2c.c ****   tmpreg = I2Cx->CR2;
 123              		.loc 1 208 10
 124 001a 7B68     		ldr	r3, [r7, #4]
 125 001c 9B88     		ldrh	r3, [r3, #4]	@ movhi
 126 001e FB84     		strh	r3, [r7, #38]	@ movhi
 209:./Libraries/STM32F10x_StdPeriph_Driver/src/stm32f10x_i2c.c ****   /* Clear frequency FREQ[5:0] bits */
 210:./Libraries/STM32F10x_StdPeriph_Driver/src/stm32f10x_i2c.c ****   tmpreg &= CR2_FREQ_Reset;
 127              		.loc 1 210 10
 128 0020 FB8C     		ldrh	r3, [r7, #38]	@ movhi
 129 0022 23F03F03 		bic	r3, r3, #63
 130 0026 FB84     		strh	r3, [r7, #38]	@ movhi
 211:./Libraries/STM32F10x_StdPeriph_Driver/src/stm32f10x_i2c.c ****   /* Get pclk1 frequency value */
 212:./Libraries/STM32F10x_StdPeriph_Driver/src/stm32f10x_i2c.c ****   RCC_GetClocksFreq(&rcc_clocks);
 131              		.loc 1 212 3
ARM GAS  C:\Users\hao\AppData\Local\Temp\ccgRypVa.s 			page 7


 132 0028 07F10803 		add	r3, r7, #8
 133 002c 1846     		mov	r0, r3
 134 002e FFF7FEFF 		bl	RCC_GetClocksFreq
 213:./Libraries/STM32F10x_StdPeriph_Driver/src/stm32f10x_i2c.c ****   pclk1 = rcc_clocks.PCLK1_Frequency;
 135              		.loc 1 213 9
 136 0032 3B69     		ldr	r3, [r7, #16]
 137 0034 FB61     		str	r3, [r7, #28]
 214:./Libraries/STM32F10x_StdPeriph_Driver/src/stm32f10x_i2c.c ****   /* Set frequency bits depending on pclk1 value */
 215:./Libraries/STM32F10x_StdPeriph_Driver/src/stm32f10x_i2c.c ****   freqrange = (uint16_t)(pclk1 / 1000000);
 138              		.loc 1 215 32
 139 0036 FB69     		ldr	r3, [r7, #28]
 140 0038 4F4A     		ldr	r2, .L14+4
 141 003a A2FB0323 		umull	r2, r3, r2, r3
 142 003e 9B0C     		lsrs	r3, r3, #18
 143              		.loc 1 215 13
 144 0040 7B84     		strh	r3, [r7, #34]	@ movhi
 216:./Libraries/STM32F10x_StdPeriph_Driver/src/stm32f10x_i2c.c ****   tmpreg |= freqrange;
 145              		.loc 1 216 10
 146 0042 FA8C     		ldrh	r2, [r7, #38]	@ movhi
 147 0044 7B8C     		ldrh	r3, [r7, #34]	@ movhi
 148 0046 1343     		orrs	r3, r3, r2
 149 0048 FB84     		strh	r3, [r7, #38]	@ movhi
 217:./Libraries/STM32F10x_StdPeriph_Driver/src/stm32f10x_i2c.c ****   /* Write to I2Cx CR2 */
 218:./Libraries/STM32F10x_StdPeriph_Driver/src/stm32f10x_i2c.c ****   I2Cx->CR2 = tmpreg;
 150              		.loc 1 218 13
 151 004a 7B68     		ldr	r3, [r7, #4]
 152 004c FA8C     		ldrh	r2, [r7, #38]	@ movhi
 153 004e 9A80     		strh	r2, [r3, #4]	@ movhi
 219:./Libraries/STM32F10x_StdPeriph_Driver/src/stm32f10x_i2c.c **** 
 220:./Libraries/STM32F10x_StdPeriph_Driver/src/stm32f10x_i2c.c **** /*---------------------------- I2Cx CCR Configuration ------------------------*/
 221:./Libraries/STM32F10x_StdPeriph_Driver/src/stm32f10x_i2c.c ****   /* Disable the selected I2C peripheral to configure TRISE */
 222:./Libraries/STM32F10x_StdPeriph_Driver/src/stm32f10x_i2c.c ****   I2Cx->CR1 &= CR1_PE_Reset;
 154              		.loc 1 222 13
 155 0050 7B68     		ldr	r3, [r7, #4]
 156 0052 1B88     		ldrh	r3, [r3]	@ movhi
 157 0054 9BB2     		uxth	r3, r3
 158 0056 23F00103 		bic	r3, r3, #1
 159 005a 9AB2     		uxth	r2, r3
 160 005c 7B68     		ldr	r3, [r7, #4]
 161 005e 1A80     		strh	r2, [r3]	@ movhi
 223:./Libraries/STM32F10x_StdPeriph_Driver/src/stm32f10x_i2c.c ****   /* Reset tmpreg value */
 224:./Libraries/STM32F10x_StdPeriph_Driver/src/stm32f10x_i2c.c ****   /* Clear F/S, DUTY and CCR[11:0] bits */
 225:./Libraries/STM32F10x_StdPeriph_Driver/src/stm32f10x_i2c.c ****   tmpreg = 0;
 162              		.loc 1 225 10
 163 0060 0023     		movs	r3, #0
 164 0062 FB84     		strh	r3, [r7, #38]	@ movhi
 226:./Libraries/STM32F10x_StdPeriph_Driver/src/stm32f10x_i2c.c **** 
 227:./Libraries/STM32F10x_StdPeriph_Driver/src/stm32f10x_i2c.c ****   /* Configure speed in standard mode */
 228:./Libraries/STM32F10x_StdPeriph_Driver/src/stm32f10x_i2c.c ****   if (I2C_InitStruct->I2C_ClockSpeed <= 100000)
 165              		.loc 1 228 21
 166 0064 3B68     		ldr	r3, [r7]
 167 0066 1B68     		ldr	r3, [r3]
 168              		.loc 1 228 6
 169 0068 444A     		ldr	r2, .L14+8
 170 006a 9342     		cmp	r3, r2
 171 006c 15D8     		bhi	.L8
 229:./Libraries/STM32F10x_StdPeriph_Driver/src/stm32f10x_i2c.c ****   {
ARM GAS  C:\Users\hao\AppData\Local\Temp\ccgRypVa.s 			page 8


 230:./Libraries/STM32F10x_StdPeriph_Driver/src/stm32f10x_i2c.c ****     /* Standard mode speed calculate */
 231:./Libraries/STM32F10x_StdPeriph_Driver/src/stm32f10x_i2c.c ****     result = (uint16_t)(pclk1 / (I2C_InitStruct->I2C_ClockSpeed << 1));
 172              		.loc 1 231 48
 173 006e 3B68     		ldr	r3, [r7]
 174 0070 1B68     		ldr	r3, [r3]
 175              		.loc 1 231 65
 176 0072 5B00     		lsls	r3, r3, #1
 177              		.loc 1 231 31
 178 0074 FA69     		ldr	r2, [r7, #28]
 179 0076 B2FBF3F3 		udiv	r3, r2, r3
 180              		.loc 1 231 12
 181 007a BB84     		strh	r3, [r7, #36]	@ movhi
 232:./Libraries/STM32F10x_StdPeriph_Driver/src/stm32f10x_i2c.c ****     /* Test if CCR value is under 0x4*/
 233:./Libraries/STM32F10x_StdPeriph_Driver/src/stm32f10x_i2c.c ****     if (result < 0x04)
 182              		.loc 1 233 8
 183 007c BB8C     		ldrh	r3, [r7, #36]
 184 007e 032B     		cmp	r3, #3
 185 0080 01D8     		bhi	.L9
 234:./Libraries/STM32F10x_StdPeriph_Driver/src/stm32f10x_i2c.c ****     {
 235:./Libraries/STM32F10x_StdPeriph_Driver/src/stm32f10x_i2c.c ****       /* Set minimum allowed value */
 236:./Libraries/STM32F10x_StdPeriph_Driver/src/stm32f10x_i2c.c ****       result = 0x04;  
 186              		.loc 1 236 14
 187 0082 0423     		movs	r3, #4
 188 0084 BB84     		strh	r3, [r7, #36]	@ movhi
 189              	.L9:
 237:./Libraries/STM32F10x_StdPeriph_Driver/src/stm32f10x_i2c.c ****     }
 238:./Libraries/STM32F10x_StdPeriph_Driver/src/stm32f10x_i2c.c ****     /* Set speed value for standard mode */
 239:./Libraries/STM32F10x_StdPeriph_Driver/src/stm32f10x_i2c.c ****     tmpreg |= result;	  
 190              		.loc 1 239 12
 191 0086 FA8C     		ldrh	r2, [r7, #38]	@ movhi
 192 0088 BB8C     		ldrh	r3, [r7, #36]	@ movhi
 193 008a 1343     		orrs	r3, r3, r2
 194 008c FB84     		strh	r3, [r7, #38]	@ movhi
 240:./Libraries/STM32F10x_StdPeriph_Driver/src/stm32f10x_i2c.c ****     /* Set Maximum Rise Time for standard mode */
 241:./Libraries/STM32F10x_StdPeriph_Driver/src/stm32f10x_i2c.c ****     I2Cx->TRISE = freqrange + 1; 
 195              		.loc 1 241 29
 196 008e 7B8C     		ldrh	r3, [r7, #34]	@ movhi
 197 0090 0133     		adds	r3, r3, #1
 198 0092 9AB2     		uxth	r2, r3
 199              		.loc 1 241 17
 200 0094 7B68     		ldr	r3, [r7, #4]
 201 0096 1A84     		strh	r2, [r3, #32]	@ movhi
 202 0098 40E0     		b	.L10
 203              	.L8:
 242:./Libraries/STM32F10x_StdPeriph_Driver/src/stm32f10x_i2c.c ****   }
 243:./Libraries/STM32F10x_StdPeriph_Driver/src/stm32f10x_i2c.c ****   /* Configure speed in fast mode */
 244:./Libraries/STM32F10x_StdPeriph_Driver/src/stm32f10x_i2c.c ****   else /*(I2C_InitStruct->I2C_ClockSpeed <= 400000)*/
 245:./Libraries/STM32F10x_StdPeriph_Driver/src/stm32f10x_i2c.c ****   {
 246:./Libraries/STM32F10x_StdPeriph_Driver/src/stm32f10x_i2c.c ****     if (I2C_InitStruct->I2C_DutyCycle == I2C_DutyCycle_2)
 204              		.loc 1 246 23
 205 009a 3B68     		ldr	r3, [r7]
 206 009c DB88     		ldrh	r3, [r3, #6]
 207              		.loc 1 246 8
 208 009e 4BF6FF72 		movw	r2, #49151
 209 00a2 9342     		cmp	r3, r2
 210 00a4 09D1     		bne	.L11
 247:./Libraries/STM32F10x_StdPeriph_Driver/src/stm32f10x_i2c.c ****     {
ARM GAS  C:\Users\hao\AppData\Local\Temp\ccgRypVa.s 			page 9


 248:./Libraries/STM32F10x_StdPeriph_Driver/src/stm32f10x_i2c.c ****       /* Fast mode speed calculate: Tlow/Thigh = 2 */
 249:./Libraries/STM32F10x_StdPeriph_Driver/src/stm32f10x_i2c.c ****       result = (uint16_t)(pclk1 / (I2C_InitStruct->I2C_ClockSpeed * 3));
 211              		.loc 1 249 50
 212 00a6 3B68     		ldr	r3, [r7]
 213 00a8 1A68     		ldr	r2, [r3]
 214              		.loc 1 249 67
 215 00aa 1346     		mov	r3, r2
 216 00ac 5B00     		lsls	r3, r3, #1
 217 00ae 1344     		add	r3, r3, r2
 218              		.loc 1 249 33
 219 00b0 FA69     		ldr	r2, [r7, #28]
 220 00b2 B2FBF3F3 		udiv	r3, r2, r3
 221              		.loc 1 249 14
 222 00b6 BB84     		strh	r3, [r7, #36]	@ movhi
 223 00b8 0EE0     		b	.L12
 224              	.L11:
 250:./Libraries/STM32F10x_StdPeriph_Driver/src/stm32f10x_i2c.c ****     }
 251:./Libraries/STM32F10x_StdPeriph_Driver/src/stm32f10x_i2c.c ****     else /*I2C_InitStruct->I2C_DutyCycle == I2C_DutyCycle_16_9*/
 252:./Libraries/STM32F10x_StdPeriph_Driver/src/stm32f10x_i2c.c ****     {
 253:./Libraries/STM32F10x_StdPeriph_Driver/src/stm32f10x_i2c.c ****       /* Fast mode speed calculate: Tlow/Thigh = 16/9 */
 254:./Libraries/STM32F10x_StdPeriph_Driver/src/stm32f10x_i2c.c ****       result = (uint16_t)(pclk1 / (I2C_InitStruct->I2C_ClockSpeed * 25));
 225              		.loc 1 254 50
 226 00ba 3B68     		ldr	r3, [r7]
 227 00bc 1A68     		ldr	r2, [r3]
 228              		.loc 1 254 67
 229 00be 1346     		mov	r3, r2
 230 00c0 9B00     		lsls	r3, r3, #2
 231 00c2 1344     		add	r3, r3, r2
 232 00c4 9A00     		lsls	r2, r3, #2
 233 00c6 1344     		add	r3, r3, r2
 234              		.loc 1 254 33
 235 00c8 FA69     		ldr	r2, [r7, #28]
 236 00ca B2FBF3F3 		udiv	r3, r2, r3
 237              		.loc 1 254 14
 238 00ce BB84     		strh	r3, [r7, #36]	@ movhi
 255:./Libraries/STM32F10x_StdPeriph_Driver/src/stm32f10x_i2c.c ****       /* Set DUTY bit */
 256:./Libraries/STM32F10x_StdPeriph_Driver/src/stm32f10x_i2c.c ****       result |= I2C_DutyCycle_16_9;
 239              		.loc 1 256 14
 240 00d0 BB8C     		ldrh	r3, [r7, #36]	@ movhi
 241 00d2 43F48043 		orr	r3, r3, #16384
 242 00d6 BB84     		strh	r3, [r7, #36]	@ movhi
 243              	.L12:
 257:./Libraries/STM32F10x_StdPeriph_Driver/src/stm32f10x_i2c.c ****     }
 258:./Libraries/STM32F10x_StdPeriph_Driver/src/stm32f10x_i2c.c **** 
 259:./Libraries/STM32F10x_StdPeriph_Driver/src/stm32f10x_i2c.c ****     /* Test if CCR value is under 0x1*/
 260:./Libraries/STM32F10x_StdPeriph_Driver/src/stm32f10x_i2c.c ****     if ((result & CCR_CCR_Set) == 0)
 244              		.loc 1 260 17
 245 00d8 BB8C     		ldrh	r3, [r7, #36]
 246 00da C3F30B03 		ubfx	r3, r3, #0, #12
 247              		.loc 1 260 8
 248 00de 002B     		cmp	r3, #0
 249 00e0 03D1     		bne	.L13
 261:./Libraries/STM32F10x_StdPeriph_Driver/src/stm32f10x_i2c.c ****     {
 262:./Libraries/STM32F10x_StdPeriph_Driver/src/stm32f10x_i2c.c ****       /* Set minimum allowed value */
 263:./Libraries/STM32F10x_StdPeriph_Driver/src/stm32f10x_i2c.c ****       result |= (uint16_t)0x0001;  
 250              		.loc 1 263 14
 251 00e2 BB8C     		ldrh	r3, [r7, #36]	@ movhi
ARM GAS  C:\Users\hao\AppData\Local\Temp\ccgRypVa.s 			page 10


 252 00e4 43F00103 		orr	r3, r3, #1
 253 00e8 BB84     		strh	r3, [r7, #36]	@ movhi
 254              	.L13:
 264:./Libraries/STM32F10x_StdPeriph_Driver/src/stm32f10x_i2c.c ****     }
 265:./Libraries/STM32F10x_StdPeriph_Driver/src/stm32f10x_i2c.c ****     /* Set speed value and set F/S bit for fast mode */
 266:./Libraries/STM32F10x_StdPeriph_Driver/src/stm32f10x_i2c.c ****     tmpreg |= (uint16_t)(result | CCR_FS_Set);
 255              		.loc 1 266 12
 256 00ea BA8C     		ldrh	r2, [r7, #36]	@ movhi
 257 00ec FB8C     		ldrh	r3, [r7, #38]	@ movhi
 258 00ee 1343     		orrs	r3, r3, r2
 259 00f0 9BB2     		uxth	r3, r3
 260 00f2 6FEA4343 		mvn	r3, r3, lsl #17
 261 00f6 6FEA5343 		mvn	r3, r3, lsr #17
 262 00fa FB84     		strh	r3, [r7, #38]	@ movhi
 267:./Libraries/STM32F10x_StdPeriph_Driver/src/stm32f10x_i2c.c ****     /* Set Maximum Rise Time for fast mode */
 268:./Libraries/STM32F10x_StdPeriph_Driver/src/stm32f10x_i2c.c ****     I2Cx->TRISE = (uint16_t)(((freqrange * (uint16_t)300) / (uint16_t)1000) + (uint16_t)1);  
 263              		.loc 1 268 42
 264 00fc 7B8C     		ldrh	r3, [r7, #34]
 265 00fe 4FF49672 		mov	r2, #300
 266 0102 02FB03F3 		mul	r3, r2, r3
 267              		.loc 1 268 59
 268 0106 1E4A     		ldr	r2, .L14+12
 269 0108 82FB0312 		smull	r1, r2, r2, r3
 270 010c 9211     		asrs	r2, r2, #6
 271 010e DB17     		asrs	r3, r3, #31
 272 0110 D31A     		subs	r3, r2, r3
 273              		.loc 1 268 19
 274 0112 9BB2     		uxth	r3, r3
 275 0114 0133     		adds	r3, r3, #1
 276 0116 9AB2     		uxth	r2, r3
 277              		.loc 1 268 17
 278 0118 7B68     		ldr	r3, [r7, #4]
 279 011a 1A84     		strh	r2, [r3, #32]	@ movhi
 280              	.L10:
 269:./Libraries/STM32F10x_StdPeriph_Driver/src/stm32f10x_i2c.c ****   }
 270:./Libraries/STM32F10x_StdPeriph_Driver/src/stm32f10x_i2c.c **** 
 271:./Libraries/STM32F10x_StdPeriph_Driver/src/stm32f10x_i2c.c ****   /* Write to I2Cx CCR */
 272:./Libraries/STM32F10x_StdPeriph_Driver/src/stm32f10x_i2c.c ****   I2Cx->CCR = tmpreg;
 281              		.loc 1 272 13
 282 011c 7B68     		ldr	r3, [r7, #4]
 283 011e FA8C     		ldrh	r2, [r7, #38]	@ movhi
 284 0120 9A83     		strh	r2, [r3, #28]	@ movhi
 273:./Libraries/STM32F10x_StdPeriph_Driver/src/stm32f10x_i2c.c ****   /* Enable the selected I2C peripheral */
 274:./Libraries/STM32F10x_StdPeriph_Driver/src/stm32f10x_i2c.c ****   I2Cx->CR1 |= CR1_PE_Set;
 285              		.loc 1 274 13
 286 0122 7B68     		ldr	r3, [r7, #4]
 287 0124 1B88     		ldrh	r3, [r3]	@ movhi
 288 0126 9BB2     		uxth	r3, r3
 289 0128 43F00103 		orr	r3, r3, #1
 290 012c 9AB2     		uxth	r2, r3
 291 012e 7B68     		ldr	r3, [r7, #4]
 292 0130 1A80     		strh	r2, [r3]	@ movhi
 275:./Libraries/STM32F10x_StdPeriph_Driver/src/stm32f10x_i2c.c **** 
 276:./Libraries/STM32F10x_StdPeriph_Driver/src/stm32f10x_i2c.c **** /*---------------------------- I2Cx CR1 Configuration ------------------------*/
 277:./Libraries/STM32F10x_StdPeriph_Driver/src/stm32f10x_i2c.c ****   /* Get the I2Cx CR1 value */
 278:./Libraries/STM32F10x_StdPeriph_Driver/src/stm32f10x_i2c.c ****   tmpreg = I2Cx->CR1;
 293              		.loc 1 278 10
ARM GAS  C:\Users\hao\AppData\Local\Temp\ccgRypVa.s 			page 11


 294 0132 7B68     		ldr	r3, [r7, #4]
 295 0134 1B88     		ldrh	r3, [r3]	@ movhi
 296 0136 FB84     		strh	r3, [r7, #38]	@ movhi
 279:./Libraries/STM32F10x_StdPeriph_Driver/src/stm32f10x_i2c.c ****   /* Clear ACK, SMBTYPE and  SMBUS bits */
 280:./Libraries/STM32F10x_StdPeriph_Driver/src/stm32f10x_i2c.c ****   tmpreg &= CR1_CLEAR_Mask;
 297              		.loc 1 280 10
 298 0138 FB8C     		ldrh	r3, [r7, #38]	@ movhi
 299 013a 23F48163 		bic	r3, r3, #1032
 300 013e 23F00203 		bic	r3, r3, #2
 301 0142 FB84     		strh	r3, [r7, #38]	@ movhi
 281:./Libraries/STM32F10x_StdPeriph_Driver/src/stm32f10x_i2c.c ****   /* Configure I2Cx: mode and acknowledgement */
 282:./Libraries/STM32F10x_StdPeriph_Driver/src/stm32f10x_i2c.c ****   /* Set SMBTYPE and SMBUS bits according to I2C_Mode value */
 283:./Libraries/STM32F10x_StdPeriph_Driver/src/stm32f10x_i2c.c ****   /* Set ACK bit according to I2C_Ack value */
 284:./Libraries/STM32F10x_StdPeriph_Driver/src/stm32f10x_i2c.c ****   tmpreg |= (uint16_t)((uint32_t)I2C_InitStruct->I2C_Mode | I2C_InitStruct->I2C_Ack);
 302              		.loc 1 284 48
 303 0144 3B68     		ldr	r3, [r7]
 304 0146 9A88     		ldrh	r2, [r3, #4]
 305              		.loc 1 284 75
 306 0148 3B68     		ldr	r3, [r7]
 307 014a 5B89     		ldrh	r3, [r3, #10]
 308              		.loc 1 284 13
 309 014c 1343     		orrs	r3, r3, r2
 310 014e 9AB2     		uxth	r2, r3
 311              		.loc 1 284 10
 312 0150 FB8C     		ldrh	r3, [r7, #38]	@ movhi
 313 0152 1343     		orrs	r3, r3, r2
 314 0154 FB84     		strh	r3, [r7, #38]	@ movhi
 285:./Libraries/STM32F10x_StdPeriph_Driver/src/stm32f10x_i2c.c ****   /* Write to I2Cx CR1 */
 286:./Libraries/STM32F10x_StdPeriph_Driver/src/stm32f10x_i2c.c ****   I2Cx->CR1 = tmpreg;
 315              		.loc 1 286 13
 316 0156 7B68     		ldr	r3, [r7, #4]
 317 0158 FA8C     		ldrh	r2, [r7, #38]	@ movhi
 318 015a 1A80     		strh	r2, [r3]	@ movhi
 287:./Libraries/STM32F10x_StdPeriph_Driver/src/stm32f10x_i2c.c **** 
 288:./Libraries/STM32F10x_StdPeriph_Driver/src/stm32f10x_i2c.c **** /*---------------------------- I2Cx OAR1 Configuration -----------------------*/
 289:./Libraries/STM32F10x_StdPeriph_Driver/src/stm32f10x_i2c.c ****   /* Set I2Cx Own Address1 and acknowledged address */
 290:./Libraries/STM32F10x_StdPeriph_Driver/src/stm32f10x_i2c.c ****   I2Cx->OAR1 = (I2C_InitStruct->I2C_AcknowledgedAddress | I2C_InitStruct->I2C_OwnAddress1);
 319              		.loc 1 290 31
 320 015c 3B68     		ldr	r3, [r7]
 321 015e 9A89     		ldrh	r2, [r3, #12]
 322              		.loc 1 290 73
 323 0160 3B68     		ldr	r3, [r7]
 324 0162 1B89     		ldrh	r3, [r3, #8]
 325              		.loc 1 290 14
 326 0164 1343     		orrs	r3, r3, r2
 327 0166 9AB2     		uxth	r2, r3
 328 0168 7B68     		ldr	r3, [r7, #4]
 329 016a 1A81     		strh	r2, [r3, #8]	@ movhi
 291:./Libraries/STM32F10x_StdPeriph_Driver/src/stm32f10x_i2c.c **** }
 330              		.loc 1 291 1
 331 016c 00BF     		nop
 332 016e 2837     		adds	r7, r7, #40
 333              	.LCFI8:
 334              		.cfi_def_cfa_offset 8
 335 0170 BD46     		mov	sp, r7
 336              	.LCFI9:
 337              		.cfi_def_cfa_register 13
ARM GAS  C:\Users\hao\AppData\Local\Temp\ccgRypVa.s 			page 12


 338              		@ sp needed
 339 0172 80BD     		pop	{r7, pc}
 340              	.L15:
 341              		.align	2
 342              	.L14:
 343 0174 00127A00 		.word	8000000
 344 0178 83DE1B43 		.word	1125899907
 345 017c A0860100 		.word	100000
 346 0180 D34D6210 		.word	274877907
 347              		.cfi_endproc
 348              	.LFE30:
 350              		.section	.text.I2C_StructInit,"ax",%progbits
 351              		.align	1
 352              		.global	I2C_StructInit
 353              		.syntax unified
 354              		.thumb
 355              		.thumb_func
 357              	I2C_StructInit:
 358              	.LFB31:
 292:./Libraries/STM32F10x_StdPeriph_Driver/src/stm32f10x_i2c.c **** 
 293:./Libraries/STM32F10x_StdPeriph_Driver/src/stm32f10x_i2c.c **** /**
 294:./Libraries/STM32F10x_StdPeriph_Driver/src/stm32f10x_i2c.c ****   * @brief  Fills each I2C_InitStruct member with its default value.
 295:./Libraries/STM32F10x_StdPeriph_Driver/src/stm32f10x_i2c.c ****   * @param  I2C_InitStruct: pointer to an I2C_InitTypeDef structure which will be initialized.
 296:./Libraries/STM32F10x_StdPeriph_Driver/src/stm32f10x_i2c.c ****   * @retval None
 297:./Libraries/STM32F10x_StdPeriph_Driver/src/stm32f10x_i2c.c ****   */
 298:./Libraries/STM32F10x_StdPeriph_Driver/src/stm32f10x_i2c.c **** void I2C_StructInit(I2C_InitTypeDef* I2C_InitStruct)
 299:./Libraries/STM32F10x_StdPeriph_Driver/src/stm32f10x_i2c.c **** {
 359              		.loc 1 299 1
 360              		.cfi_startproc
 361              		@ args = 0, pretend = 0, frame = 8
 362              		@ frame_needed = 1, uses_anonymous_args = 0
 363              		@ link register save eliminated.
 364 0000 80B4     		push	{r7}
 365              	.LCFI10:
 366              		.cfi_def_cfa_offset 4
 367              		.cfi_offset 7, -4
 368 0002 83B0     		sub	sp, sp, #12
 369              	.LCFI11:
 370              		.cfi_def_cfa_offset 16
 371 0004 00AF     		add	r7, sp, #0
 372              	.LCFI12:
 373              		.cfi_def_cfa_register 7
 374 0006 7860     		str	r0, [r7, #4]
 300:./Libraries/STM32F10x_StdPeriph_Driver/src/stm32f10x_i2c.c **** /*---------------- Reset I2C init structure parameters values ----------------*/
 301:./Libraries/STM32F10x_StdPeriph_Driver/src/stm32f10x_i2c.c ****   /* initialize the I2C_ClockSpeed member */
 302:./Libraries/STM32F10x_StdPeriph_Driver/src/stm32f10x_i2c.c ****   I2C_InitStruct->I2C_ClockSpeed = 5000;
 375              		.loc 1 302 34
 376 0008 7B68     		ldr	r3, [r7, #4]
 377 000a 41F28832 		movw	r2, #5000
 378 000e 1A60     		str	r2, [r3]
 303:./Libraries/STM32F10x_StdPeriph_Driver/src/stm32f10x_i2c.c ****   /* Initialize the I2C_Mode member */
 304:./Libraries/STM32F10x_StdPeriph_Driver/src/stm32f10x_i2c.c ****   I2C_InitStruct->I2C_Mode = I2C_Mode_I2C;
 379              		.loc 1 304 28
 380 0010 7B68     		ldr	r3, [r7, #4]
 381 0012 0022     		movs	r2, #0
 382 0014 9A80     		strh	r2, [r3, #4]	@ movhi
 305:./Libraries/STM32F10x_StdPeriph_Driver/src/stm32f10x_i2c.c ****   /* Initialize the I2C_DutyCycle member */
ARM GAS  C:\Users\hao\AppData\Local\Temp\ccgRypVa.s 			page 13


 306:./Libraries/STM32F10x_StdPeriph_Driver/src/stm32f10x_i2c.c ****   I2C_InitStruct->I2C_DutyCycle = I2C_DutyCycle_2;
 383              		.loc 1 306 33
 384 0016 7B68     		ldr	r3, [r7, #4]
 385 0018 4BF6FF72 		movw	r2, #49151
 386 001c DA80     		strh	r2, [r3, #6]	@ movhi
 307:./Libraries/STM32F10x_StdPeriph_Driver/src/stm32f10x_i2c.c ****   /* Initialize the I2C_OwnAddress1 member */
 308:./Libraries/STM32F10x_StdPeriph_Driver/src/stm32f10x_i2c.c ****   I2C_InitStruct->I2C_OwnAddress1 = 0;
 387              		.loc 1 308 35
 388 001e 7B68     		ldr	r3, [r7, #4]
 389 0020 0022     		movs	r2, #0
 390 0022 1A81     		strh	r2, [r3, #8]	@ movhi
 309:./Libraries/STM32F10x_StdPeriph_Driver/src/stm32f10x_i2c.c ****   /* Initialize the I2C_Ack member */
 310:./Libraries/STM32F10x_StdPeriph_Driver/src/stm32f10x_i2c.c ****   I2C_InitStruct->I2C_Ack = I2C_Ack_Disable;
 391              		.loc 1 310 27
 392 0024 7B68     		ldr	r3, [r7, #4]
 393 0026 0022     		movs	r2, #0
 394 0028 5A81     		strh	r2, [r3, #10]	@ movhi
 311:./Libraries/STM32F10x_StdPeriph_Driver/src/stm32f10x_i2c.c ****   /* Initialize the I2C_AcknowledgedAddress member */
 312:./Libraries/STM32F10x_StdPeriph_Driver/src/stm32f10x_i2c.c ****   I2C_InitStruct->I2C_AcknowledgedAddress = I2C_AcknowledgedAddress_7bit;
 395              		.loc 1 312 43
 396 002a 7B68     		ldr	r3, [r7, #4]
 397 002c 4FF48042 		mov	r2, #16384
 398 0030 9A81     		strh	r2, [r3, #12]	@ movhi
 313:./Libraries/STM32F10x_StdPeriph_Driver/src/stm32f10x_i2c.c **** }
 399              		.loc 1 313 1
 400 0032 00BF     		nop
 401 0034 0C37     		adds	r7, r7, #12
 402              	.LCFI13:
 403              		.cfi_def_cfa_offset 4
 404 0036 BD46     		mov	sp, r7
 405              	.LCFI14:
 406              		.cfi_def_cfa_register 13
 407              		@ sp needed
 408 0038 80BC     		pop	{r7}
 409              	.LCFI15:
 410              		.cfi_restore 7
 411              		.cfi_def_cfa_offset 0
 412 003a 7047     		bx	lr
 413              		.cfi_endproc
 414              	.LFE31:
 416              		.section	.text.I2C_Cmd,"ax",%progbits
 417              		.align	1
 418              		.global	I2C_Cmd
 419              		.syntax unified
 420              		.thumb
 421              		.thumb_func
 423              	I2C_Cmd:
 424              	.LFB32:
 314:./Libraries/STM32F10x_StdPeriph_Driver/src/stm32f10x_i2c.c **** 
 315:./Libraries/STM32F10x_StdPeriph_Driver/src/stm32f10x_i2c.c **** /**
 316:./Libraries/STM32F10x_StdPeriph_Driver/src/stm32f10x_i2c.c ****   * @brief  Enables or disables the specified I2C peripheral.
 317:./Libraries/STM32F10x_StdPeriph_Driver/src/stm32f10x_i2c.c ****   * @param  I2Cx: where x can be 1 or 2 to select the I2C peripheral.
 318:./Libraries/STM32F10x_StdPeriph_Driver/src/stm32f10x_i2c.c ****   * @param  NewState: new state of the I2Cx peripheral. 
 319:./Libraries/STM32F10x_StdPeriph_Driver/src/stm32f10x_i2c.c ****   *   This parameter can be: ENABLE or DISABLE.
 320:./Libraries/STM32F10x_StdPeriph_Driver/src/stm32f10x_i2c.c ****   * @retval None
 321:./Libraries/STM32F10x_StdPeriph_Driver/src/stm32f10x_i2c.c ****   */
 322:./Libraries/STM32F10x_StdPeriph_Driver/src/stm32f10x_i2c.c **** void I2C_Cmd(I2C_TypeDef* I2Cx, FunctionalState NewState)
ARM GAS  C:\Users\hao\AppData\Local\Temp\ccgRypVa.s 			page 14


 323:./Libraries/STM32F10x_StdPeriph_Driver/src/stm32f10x_i2c.c **** {
 425              		.loc 1 323 1
 426              		.cfi_startproc
 427              		@ args = 0, pretend = 0, frame = 8
 428              		@ frame_needed = 1, uses_anonymous_args = 0
 429              		@ link register save eliminated.
 430 0000 80B4     		push	{r7}
 431              	.LCFI16:
 432              		.cfi_def_cfa_offset 4
 433              		.cfi_offset 7, -4
 434 0002 83B0     		sub	sp, sp, #12
 435              	.LCFI17:
 436              		.cfi_def_cfa_offset 16
 437 0004 00AF     		add	r7, sp, #0
 438              	.LCFI18:
 439              		.cfi_def_cfa_register 7
 440 0006 7860     		str	r0, [r7, #4]
 441 0008 0B46     		mov	r3, r1
 442 000a FB70     		strb	r3, [r7, #3]
 324:./Libraries/STM32F10x_StdPeriph_Driver/src/stm32f10x_i2c.c ****   /* Check the parameters */
 325:./Libraries/STM32F10x_StdPeriph_Driver/src/stm32f10x_i2c.c ****   assert_param(IS_I2C_ALL_PERIPH(I2Cx));
 326:./Libraries/STM32F10x_StdPeriph_Driver/src/stm32f10x_i2c.c ****   assert_param(IS_FUNCTIONAL_STATE(NewState));
 327:./Libraries/STM32F10x_StdPeriph_Driver/src/stm32f10x_i2c.c ****   if (NewState != DISABLE)
 443              		.loc 1 327 6
 444 000c FB78     		ldrb	r3, [r7, #3]	@ zero_extendqisi2
 445 000e 002B     		cmp	r3, #0
 446 0010 08D0     		beq	.L18
 328:./Libraries/STM32F10x_StdPeriph_Driver/src/stm32f10x_i2c.c ****   {
 329:./Libraries/STM32F10x_StdPeriph_Driver/src/stm32f10x_i2c.c ****     /* Enable the selected I2C peripheral */
 330:./Libraries/STM32F10x_StdPeriph_Driver/src/stm32f10x_i2c.c ****     I2Cx->CR1 |= CR1_PE_Set;
 447              		.loc 1 330 15
 448 0012 7B68     		ldr	r3, [r7, #4]
 449 0014 1B88     		ldrh	r3, [r3]	@ movhi
 450 0016 9BB2     		uxth	r3, r3
 451 0018 43F00103 		orr	r3, r3, #1
 452 001c 9AB2     		uxth	r2, r3
 453 001e 7B68     		ldr	r3, [r7, #4]
 454 0020 1A80     		strh	r2, [r3]	@ movhi
 331:./Libraries/STM32F10x_StdPeriph_Driver/src/stm32f10x_i2c.c ****   }
 332:./Libraries/STM32F10x_StdPeriph_Driver/src/stm32f10x_i2c.c ****   else
 333:./Libraries/STM32F10x_StdPeriph_Driver/src/stm32f10x_i2c.c ****   {
 334:./Libraries/STM32F10x_StdPeriph_Driver/src/stm32f10x_i2c.c ****     /* Disable the selected I2C peripheral */
 335:./Libraries/STM32F10x_StdPeriph_Driver/src/stm32f10x_i2c.c ****     I2Cx->CR1 &= CR1_PE_Reset;
 336:./Libraries/STM32F10x_StdPeriph_Driver/src/stm32f10x_i2c.c ****   }
 337:./Libraries/STM32F10x_StdPeriph_Driver/src/stm32f10x_i2c.c **** }
 455              		.loc 1 337 1
 456 0022 07E0     		b	.L20
 457              	.L18:
 335:./Libraries/STM32F10x_StdPeriph_Driver/src/stm32f10x_i2c.c ****   }
 458              		.loc 1 335 15
 459 0024 7B68     		ldr	r3, [r7, #4]
 460 0026 1B88     		ldrh	r3, [r3]	@ movhi
 461 0028 9BB2     		uxth	r3, r3
 462 002a 23F00103 		bic	r3, r3, #1
 463 002e 9AB2     		uxth	r2, r3
 464 0030 7B68     		ldr	r3, [r7, #4]
 465 0032 1A80     		strh	r2, [r3]	@ movhi
ARM GAS  C:\Users\hao\AppData\Local\Temp\ccgRypVa.s 			page 15


 466              	.L20:
 467              		.loc 1 337 1
 468 0034 00BF     		nop
 469 0036 0C37     		adds	r7, r7, #12
 470              	.LCFI19:
 471              		.cfi_def_cfa_offset 4
 472 0038 BD46     		mov	sp, r7
 473              	.LCFI20:
 474              		.cfi_def_cfa_register 13
 475              		@ sp needed
 476 003a 80BC     		pop	{r7}
 477              	.LCFI21:
 478              		.cfi_restore 7
 479              		.cfi_def_cfa_offset 0
 480 003c 7047     		bx	lr
 481              		.cfi_endproc
 482              	.LFE32:
 484              		.section	.text.I2C_DMACmd,"ax",%progbits
 485              		.align	1
 486              		.global	I2C_DMACmd
 487              		.syntax unified
 488              		.thumb
 489              		.thumb_func
 491              	I2C_DMACmd:
 492              	.LFB33:
 338:./Libraries/STM32F10x_StdPeriph_Driver/src/stm32f10x_i2c.c **** 
 339:./Libraries/STM32F10x_StdPeriph_Driver/src/stm32f10x_i2c.c **** /**
 340:./Libraries/STM32F10x_StdPeriph_Driver/src/stm32f10x_i2c.c ****   * @brief  Enables or disables the specified I2C DMA requests.
 341:./Libraries/STM32F10x_StdPeriph_Driver/src/stm32f10x_i2c.c ****   * @param  I2Cx: where x can be 1 or 2 to select the I2C peripheral.
 342:./Libraries/STM32F10x_StdPeriph_Driver/src/stm32f10x_i2c.c ****   * @param  NewState: new state of the I2C DMA transfer.
 343:./Libraries/STM32F10x_StdPeriph_Driver/src/stm32f10x_i2c.c ****   *   This parameter can be: ENABLE or DISABLE.
 344:./Libraries/STM32F10x_StdPeriph_Driver/src/stm32f10x_i2c.c ****   * @retval None
 345:./Libraries/STM32F10x_StdPeriph_Driver/src/stm32f10x_i2c.c ****   */
 346:./Libraries/STM32F10x_StdPeriph_Driver/src/stm32f10x_i2c.c **** void I2C_DMACmd(I2C_TypeDef* I2Cx, FunctionalState NewState)
 347:./Libraries/STM32F10x_StdPeriph_Driver/src/stm32f10x_i2c.c **** {
 493              		.loc 1 347 1
 494              		.cfi_startproc
 495              		@ args = 0, pretend = 0, frame = 8
 496              		@ frame_needed = 1, uses_anonymous_args = 0
 497              		@ link register save eliminated.
 498 0000 80B4     		push	{r7}
 499              	.LCFI22:
 500              		.cfi_def_cfa_offset 4
 501              		.cfi_offset 7, -4
 502 0002 83B0     		sub	sp, sp, #12
 503              	.LCFI23:
 504              		.cfi_def_cfa_offset 16
 505 0004 00AF     		add	r7, sp, #0
 506              	.LCFI24:
 507              		.cfi_def_cfa_register 7
 508 0006 7860     		str	r0, [r7, #4]
 509 0008 0B46     		mov	r3, r1
 510 000a FB70     		strb	r3, [r7, #3]
 348:./Libraries/STM32F10x_StdPeriph_Driver/src/stm32f10x_i2c.c ****   /* Check the parameters */
 349:./Libraries/STM32F10x_StdPeriph_Driver/src/stm32f10x_i2c.c ****   assert_param(IS_I2C_ALL_PERIPH(I2Cx));
 350:./Libraries/STM32F10x_StdPeriph_Driver/src/stm32f10x_i2c.c ****   assert_param(IS_FUNCTIONAL_STATE(NewState));
 351:./Libraries/STM32F10x_StdPeriph_Driver/src/stm32f10x_i2c.c ****   if (NewState != DISABLE)
ARM GAS  C:\Users\hao\AppData\Local\Temp\ccgRypVa.s 			page 16


 511              		.loc 1 351 6
 512 000c FB78     		ldrb	r3, [r7, #3]	@ zero_extendqisi2
 513 000e 002B     		cmp	r3, #0
 514 0010 08D0     		beq	.L22
 352:./Libraries/STM32F10x_StdPeriph_Driver/src/stm32f10x_i2c.c ****   {
 353:./Libraries/STM32F10x_StdPeriph_Driver/src/stm32f10x_i2c.c ****     /* Enable the selected I2C DMA requests */
 354:./Libraries/STM32F10x_StdPeriph_Driver/src/stm32f10x_i2c.c ****     I2Cx->CR2 |= CR2_DMAEN_Set;
 515              		.loc 1 354 15
 516 0012 7B68     		ldr	r3, [r7, #4]
 517 0014 9B88     		ldrh	r3, [r3, #4]	@ movhi
 518 0016 9BB2     		uxth	r3, r3
 519 0018 43F40063 		orr	r3, r3, #2048
 520 001c 9AB2     		uxth	r2, r3
 521 001e 7B68     		ldr	r3, [r7, #4]
 522 0020 9A80     		strh	r2, [r3, #4]	@ movhi
 355:./Libraries/STM32F10x_StdPeriph_Driver/src/stm32f10x_i2c.c ****   }
 356:./Libraries/STM32F10x_StdPeriph_Driver/src/stm32f10x_i2c.c ****   else
 357:./Libraries/STM32F10x_StdPeriph_Driver/src/stm32f10x_i2c.c ****   {
 358:./Libraries/STM32F10x_StdPeriph_Driver/src/stm32f10x_i2c.c ****     /* Disable the selected I2C DMA requests */
 359:./Libraries/STM32F10x_StdPeriph_Driver/src/stm32f10x_i2c.c ****     I2Cx->CR2 &= CR2_DMAEN_Reset;
 360:./Libraries/STM32F10x_StdPeriph_Driver/src/stm32f10x_i2c.c ****   }
 361:./Libraries/STM32F10x_StdPeriph_Driver/src/stm32f10x_i2c.c **** }
 523              		.loc 1 361 1
 524 0022 07E0     		b	.L24
 525              	.L22:
 359:./Libraries/STM32F10x_StdPeriph_Driver/src/stm32f10x_i2c.c ****   }
 526              		.loc 1 359 15
 527 0024 7B68     		ldr	r3, [r7, #4]
 528 0026 9B88     		ldrh	r3, [r3, #4]	@ movhi
 529 0028 9BB2     		uxth	r3, r3
 530 002a 23F40063 		bic	r3, r3, #2048
 531 002e 9AB2     		uxth	r2, r3
 532 0030 7B68     		ldr	r3, [r7, #4]
 533 0032 9A80     		strh	r2, [r3, #4]	@ movhi
 534              	.L24:
 535              		.loc 1 361 1
 536 0034 00BF     		nop
 537 0036 0C37     		adds	r7, r7, #12
 538              	.LCFI25:
 539              		.cfi_def_cfa_offset 4
 540 0038 BD46     		mov	sp, r7
 541              	.LCFI26:
 542              		.cfi_def_cfa_register 13
 543              		@ sp needed
 544 003a 80BC     		pop	{r7}
 545              	.LCFI27:
 546              		.cfi_restore 7
 547              		.cfi_def_cfa_offset 0
 548 003c 7047     		bx	lr
 549              		.cfi_endproc
 550              	.LFE33:
 552              		.section	.text.I2C_DMALastTransferCmd,"ax",%progbits
 553              		.align	1
 554              		.global	I2C_DMALastTransferCmd
 555              		.syntax unified
 556              		.thumb
 557              		.thumb_func
ARM GAS  C:\Users\hao\AppData\Local\Temp\ccgRypVa.s 			page 17


 559              	I2C_DMALastTransferCmd:
 560              	.LFB34:
 362:./Libraries/STM32F10x_StdPeriph_Driver/src/stm32f10x_i2c.c **** 
 363:./Libraries/STM32F10x_StdPeriph_Driver/src/stm32f10x_i2c.c **** /**
 364:./Libraries/STM32F10x_StdPeriph_Driver/src/stm32f10x_i2c.c ****   * @brief  Specifies if the next DMA transfer will be the last one.
 365:./Libraries/STM32F10x_StdPeriph_Driver/src/stm32f10x_i2c.c ****   * @param  I2Cx: where x can be 1 or 2 to select the I2C peripheral.
 366:./Libraries/STM32F10x_StdPeriph_Driver/src/stm32f10x_i2c.c ****   * @param  NewState: new state of the I2C DMA last transfer.
 367:./Libraries/STM32F10x_StdPeriph_Driver/src/stm32f10x_i2c.c ****   *   This parameter can be: ENABLE or DISABLE.
 368:./Libraries/STM32F10x_StdPeriph_Driver/src/stm32f10x_i2c.c ****   * @retval None
 369:./Libraries/STM32F10x_StdPeriph_Driver/src/stm32f10x_i2c.c ****   */
 370:./Libraries/STM32F10x_StdPeriph_Driver/src/stm32f10x_i2c.c **** void I2C_DMALastTransferCmd(I2C_TypeDef* I2Cx, FunctionalState NewState)
 371:./Libraries/STM32F10x_StdPeriph_Driver/src/stm32f10x_i2c.c **** {
 561              		.loc 1 371 1
 562              		.cfi_startproc
 563              		@ args = 0, pretend = 0, frame = 8
 564              		@ frame_needed = 1, uses_anonymous_args = 0
 565              		@ link register save eliminated.
 566 0000 80B4     		push	{r7}
 567              	.LCFI28:
 568              		.cfi_def_cfa_offset 4
 569              		.cfi_offset 7, -4
 570 0002 83B0     		sub	sp, sp, #12
 571              	.LCFI29:
 572              		.cfi_def_cfa_offset 16
 573 0004 00AF     		add	r7, sp, #0
 574              	.LCFI30:
 575              		.cfi_def_cfa_register 7
 576 0006 7860     		str	r0, [r7, #4]
 577 0008 0B46     		mov	r3, r1
 578 000a FB70     		strb	r3, [r7, #3]
 372:./Libraries/STM32F10x_StdPeriph_Driver/src/stm32f10x_i2c.c ****   /* Check the parameters */
 373:./Libraries/STM32F10x_StdPeriph_Driver/src/stm32f10x_i2c.c ****   assert_param(IS_I2C_ALL_PERIPH(I2Cx));
 374:./Libraries/STM32F10x_StdPeriph_Driver/src/stm32f10x_i2c.c ****   assert_param(IS_FUNCTIONAL_STATE(NewState));
 375:./Libraries/STM32F10x_StdPeriph_Driver/src/stm32f10x_i2c.c ****   if (NewState != DISABLE)
 579              		.loc 1 375 6
 580 000c FB78     		ldrb	r3, [r7, #3]	@ zero_extendqisi2
 581 000e 002B     		cmp	r3, #0
 582 0010 08D0     		beq	.L26
 376:./Libraries/STM32F10x_StdPeriph_Driver/src/stm32f10x_i2c.c ****   {
 377:./Libraries/STM32F10x_StdPeriph_Driver/src/stm32f10x_i2c.c ****     /* Next DMA transfer is the last transfer */
 378:./Libraries/STM32F10x_StdPeriph_Driver/src/stm32f10x_i2c.c ****     I2Cx->CR2 |= CR2_LAST_Set;
 583              		.loc 1 378 15
 584 0012 7B68     		ldr	r3, [r7, #4]
 585 0014 9B88     		ldrh	r3, [r3, #4]	@ movhi
 586 0016 9BB2     		uxth	r3, r3
 587 0018 43F48053 		orr	r3, r3, #4096
 588 001c 9AB2     		uxth	r2, r3
 589 001e 7B68     		ldr	r3, [r7, #4]
 590 0020 9A80     		strh	r2, [r3, #4]	@ movhi
 379:./Libraries/STM32F10x_StdPeriph_Driver/src/stm32f10x_i2c.c ****   }
 380:./Libraries/STM32F10x_StdPeriph_Driver/src/stm32f10x_i2c.c ****   else
 381:./Libraries/STM32F10x_StdPeriph_Driver/src/stm32f10x_i2c.c ****   {
 382:./Libraries/STM32F10x_StdPeriph_Driver/src/stm32f10x_i2c.c ****     /* Next DMA transfer is not the last transfer */
 383:./Libraries/STM32F10x_StdPeriph_Driver/src/stm32f10x_i2c.c ****     I2Cx->CR2 &= CR2_LAST_Reset;
 384:./Libraries/STM32F10x_StdPeriph_Driver/src/stm32f10x_i2c.c ****   }
 385:./Libraries/STM32F10x_StdPeriph_Driver/src/stm32f10x_i2c.c **** }
 591              		.loc 1 385 1
ARM GAS  C:\Users\hao\AppData\Local\Temp\ccgRypVa.s 			page 18


 592 0022 07E0     		b	.L28
 593              	.L26:
 383:./Libraries/STM32F10x_StdPeriph_Driver/src/stm32f10x_i2c.c ****   }
 594              		.loc 1 383 15
 595 0024 7B68     		ldr	r3, [r7, #4]
 596 0026 9B88     		ldrh	r3, [r3, #4]	@ movhi
 597 0028 9BB2     		uxth	r3, r3
 598 002a 23F48053 		bic	r3, r3, #4096
 599 002e 9AB2     		uxth	r2, r3
 600 0030 7B68     		ldr	r3, [r7, #4]
 601 0032 9A80     		strh	r2, [r3, #4]	@ movhi
 602              	.L28:
 603              		.loc 1 385 1
 604 0034 00BF     		nop
 605 0036 0C37     		adds	r7, r7, #12
 606              	.LCFI31:
 607              		.cfi_def_cfa_offset 4
 608 0038 BD46     		mov	sp, r7
 609              	.LCFI32:
 610              		.cfi_def_cfa_register 13
 611              		@ sp needed
 612 003a 80BC     		pop	{r7}
 613              	.LCFI33:
 614              		.cfi_restore 7
 615              		.cfi_def_cfa_offset 0
 616 003c 7047     		bx	lr
 617              		.cfi_endproc
 618              	.LFE34:
 620              		.section	.text.I2C_GenerateSTART,"ax",%progbits
 621              		.align	1
 622              		.global	I2C_GenerateSTART
 623              		.syntax unified
 624              		.thumb
 625              		.thumb_func
 627              	I2C_GenerateSTART:
 628              	.LFB35:
 386:./Libraries/STM32F10x_StdPeriph_Driver/src/stm32f10x_i2c.c **** 
 387:./Libraries/STM32F10x_StdPeriph_Driver/src/stm32f10x_i2c.c **** /**
 388:./Libraries/STM32F10x_StdPeriph_Driver/src/stm32f10x_i2c.c ****   * @brief  Generates I2Cx communication START condition.
 389:./Libraries/STM32F10x_StdPeriph_Driver/src/stm32f10x_i2c.c ****   * @param  I2Cx: where x can be 1 or 2 to select the I2C peripheral.
 390:./Libraries/STM32F10x_StdPeriph_Driver/src/stm32f10x_i2c.c ****   * @param  NewState: new state of the I2C START condition generation.
 391:./Libraries/STM32F10x_StdPeriph_Driver/src/stm32f10x_i2c.c ****   *   This parameter can be: ENABLE or DISABLE.
 392:./Libraries/STM32F10x_StdPeriph_Driver/src/stm32f10x_i2c.c ****   * @retval None.
 393:./Libraries/STM32F10x_StdPeriph_Driver/src/stm32f10x_i2c.c ****   */
 394:./Libraries/STM32F10x_StdPeriph_Driver/src/stm32f10x_i2c.c **** void I2C_GenerateSTART(I2C_TypeDef* I2Cx, FunctionalState NewState)
 395:./Libraries/STM32F10x_StdPeriph_Driver/src/stm32f10x_i2c.c **** {
 629              		.loc 1 395 1
 630              		.cfi_startproc
 631              		@ args = 0, pretend = 0, frame = 8
 632              		@ frame_needed = 1, uses_anonymous_args = 0
 633              		@ link register save eliminated.
 634 0000 80B4     		push	{r7}
 635              	.LCFI34:
 636              		.cfi_def_cfa_offset 4
 637              		.cfi_offset 7, -4
 638 0002 83B0     		sub	sp, sp, #12
 639              	.LCFI35:
ARM GAS  C:\Users\hao\AppData\Local\Temp\ccgRypVa.s 			page 19


 640              		.cfi_def_cfa_offset 16
 641 0004 00AF     		add	r7, sp, #0
 642              	.LCFI36:
 643              		.cfi_def_cfa_register 7
 644 0006 7860     		str	r0, [r7, #4]
 645 0008 0B46     		mov	r3, r1
 646 000a FB70     		strb	r3, [r7, #3]
 396:./Libraries/STM32F10x_StdPeriph_Driver/src/stm32f10x_i2c.c ****   /* Check the parameters */
 397:./Libraries/STM32F10x_StdPeriph_Driver/src/stm32f10x_i2c.c ****   assert_param(IS_I2C_ALL_PERIPH(I2Cx));
 398:./Libraries/STM32F10x_StdPeriph_Driver/src/stm32f10x_i2c.c ****   assert_param(IS_FUNCTIONAL_STATE(NewState));
 399:./Libraries/STM32F10x_StdPeriph_Driver/src/stm32f10x_i2c.c ****   if (NewState != DISABLE)
 647              		.loc 1 399 6
 648 000c FB78     		ldrb	r3, [r7, #3]	@ zero_extendqisi2
 649 000e 002B     		cmp	r3, #0
 650 0010 08D0     		beq	.L30
 400:./Libraries/STM32F10x_StdPeriph_Driver/src/stm32f10x_i2c.c ****   {
 401:./Libraries/STM32F10x_StdPeriph_Driver/src/stm32f10x_i2c.c ****     /* Generate a START condition */
 402:./Libraries/STM32F10x_StdPeriph_Driver/src/stm32f10x_i2c.c ****     I2Cx->CR1 |= CR1_START_Set;
 651              		.loc 1 402 15
 652 0012 7B68     		ldr	r3, [r7, #4]
 653 0014 1B88     		ldrh	r3, [r3]	@ movhi
 654 0016 9BB2     		uxth	r3, r3
 655 0018 43F48073 		orr	r3, r3, #256
 656 001c 9AB2     		uxth	r2, r3
 657 001e 7B68     		ldr	r3, [r7, #4]
 658 0020 1A80     		strh	r2, [r3]	@ movhi
 403:./Libraries/STM32F10x_StdPeriph_Driver/src/stm32f10x_i2c.c ****   }
 404:./Libraries/STM32F10x_StdPeriph_Driver/src/stm32f10x_i2c.c ****   else
 405:./Libraries/STM32F10x_StdPeriph_Driver/src/stm32f10x_i2c.c ****   {
 406:./Libraries/STM32F10x_StdPeriph_Driver/src/stm32f10x_i2c.c ****     /* Disable the START condition generation */
 407:./Libraries/STM32F10x_StdPeriph_Driver/src/stm32f10x_i2c.c ****     I2Cx->CR1 &= CR1_START_Reset;
 408:./Libraries/STM32F10x_StdPeriph_Driver/src/stm32f10x_i2c.c ****   }
 409:./Libraries/STM32F10x_StdPeriph_Driver/src/stm32f10x_i2c.c **** }
 659              		.loc 1 409 1
 660 0022 07E0     		b	.L32
 661              	.L30:
 407:./Libraries/STM32F10x_StdPeriph_Driver/src/stm32f10x_i2c.c ****   }
 662              		.loc 1 407 15
 663 0024 7B68     		ldr	r3, [r7, #4]
 664 0026 1B88     		ldrh	r3, [r3]	@ movhi
 665 0028 9BB2     		uxth	r3, r3
 666 002a 23F48073 		bic	r3, r3, #256
 667 002e 9AB2     		uxth	r2, r3
 668 0030 7B68     		ldr	r3, [r7, #4]
 669 0032 1A80     		strh	r2, [r3]	@ movhi
 670              	.L32:
 671              		.loc 1 409 1
 672 0034 00BF     		nop
 673 0036 0C37     		adds	r7, r7, #12
 674              	.LCFI37:
 675              		.cfi_def_cfa_offset 4
 676 0038 BD46     		mov	sp, r7
 677              	.LCFI38:
 678              		.cfi_def_cfa_register 13
 679              		@ sp needed
 680 003a 80BC     		pop	{r7}
 681              	.LCFI39:
ARM GAS  C:\Users\hao\AppData\Local\Temp\ccgRypVa.s 			page 20


 682              		.cfi_restore 7
 683              		.cfi_def_cfa_offset 0
 684 003c 7047     		bx	lr
 685              		.cfi_endproc
 686              	.LFE35:
 688              		.section	.text.I2C_GenerateSTOP,"ax",%progbits
 689              		.align	1
 690              		.global	I2C_GenerateSTOP
 691              		.syntax unified
 692              		.thumb
 693              		.thumb_func
 695              	I2C_GenerateSTOP:
 696              	.LFB36:
 410:./Libraries/STM32F10x_StdPeriph_Driver/src/stm32f10x_i2c.c **** 
 411:./Libraries/STM32F10x_StdPeriph_Driver/src/stm32f10x_i2c.c **** /**
 412:./Libraries/STM32F10x_StdPeriph_Driver/src/stm32f10x_i2c.c ****   * @brief  Generates I2Cx communication STOP condition.
 413:./Libraries/STM32F10x_StdPeriph_Driver/src/stm32f10x_i2c.c ****   * @param  I2Cx: where x can be 1 or 2 to select the I2C peripheral.
 414:./Libraries/STM32F10x_StdPeriph_Driver/src/stm32f10x_i2c.c ****   * @param  NewState: new state of the I2C STOP condition generation.
 415:./Libraries/STM32F10x_StdPeriph_Driver/src/stm32f10x_i2c.c ****   *   This parameter can be: ENABLE or DISABLE.
 416:./Libraries/STM32F10x_StdPeriph_Driver/src/stm32f10x_i2c.c ****   * @retval None.
 417:./Libraries/STM32F10x_StdPeriph_Driver/src/stm32f10x_i2c.c ****   */
 418:./Libraries/STM32F10x_StdPeriph_Driver/src/stm32f10x_i2c.c **** void I2C_GenerateSTOP(I2C_TypeDef* I2Cx, FunctionalState NewState)
 419:./Libraries/STM32F10x_StdPeriph_Driver/src/stm32f10x_i2c.c **** {
 697              		.loc 1 419 1
 698              		.cfi_startproc
 699              		@ args = 0, pretend = 0, frame = 8
 700              		@ frame_needed = 1, uses_anonymous_args = 0
 701              		@ link register save eliminated.
 702 0000 80B4     		push	{r7}
 703              	.LCFI40:
 704              		.cfi_def_cfa_offset 4
 705              		.cfi_offset 7, -4
 706 0002 83B0     		sub	sp, sp, #12
 707              	.LCFI41:
 708              		.cfi_def_cfa_offset 16
 709 0004 00AF     		add	r7, sp, #0
 710              	.LCFI42:
 711              		.cfi_def_cfa_register 7
 712 0006 7860     		str	r0, [r7, #4]
 713 0008 0B46     		mov	r3, r1
 714 000a FB70     		strb	r3, [r7, #3]
 420:./Libraries/STM32F10x_StdPeriph_Driver/src/stm32f10x_i2c.c ****   /* Check the parameters */
 421:./Libraries/STM32F10x_StdPeriph_Driver/src/stm32f10x_i2c.c ****   assert_param(IS_I2C_ALL_PERIPH(I2Cx));
 422:./Libraries/STM32F10x_StdPeriph_Driver/src/stm32f10x_i2c.c ****   assert_param(IS_FUNCTIONAL_STATE(NewState));
 423:./Libraries/STM32F10x_StdPeriph_Driver/src/stm32f10x_i2c.c ****   if (NewState != DISABLE)
 715              		.loc 1 423 6
 716 000c FB78     		ldrb	r3, [r7, #3]	@ zero_extendqisi2
 717 000e 002B     		cmp	r3, #0
 718 0010 08D0     		beq	.L34
 424:./Libraries/STM32F10x_StdPeriph_Driver/src/stm32f10x_i2c.c ****   {
 425:./Libraries/STM32F10x_StdPeriph_Driver/src/stm32f10x_i2c.c ****     /* Generate a STOP condition */
 426:./Libraries/STM32F10x_StdPeriph_Driver/src/stm32f10x_i2c.c ****     I2Cx->CR1 |= CR1_STOP_Set;
 719              		.loc 1 426 15
 720 0012 7B68     		ldr	r3, [r7, #4]
 721 0014 1B88     		ldrh	r3, [r3]	@ movhi
 722 0016 9BB2     		uxth	r3, r3
 723 0018 43F40073 		orr	r3, r3, #512
ARM GAS  C:\Users\hao\AppData\Local\Temp\ccgRypVa.s 			page 21


 724 001c 9AB2     		uxth	r2, r3
 725 001e 7B68     		ldr	r3, [r7, #4]
 726 0020 1A80     		strh	r2, [r3]	@ movhi
 427:./Libraries/STM32F10x_StdPeriph_Driver/src/stm32f10x_i2c.c ****   }
 428:./Libraries/STM32F10x_StdPeriph_Driver/src/stm32f10x_i2c.c ****   else
 429:./Libraries/STM32F10x_StdPeriph_Driver/src/stm32f10x_i2c.c ****   {
 430:./Libraries/STM32F10x_StdPeriph_Driver/src/stm32f10x_i2c.c ****     /* Disable the STOP condition generation */
 431:./Libraries/STM32F10x_StdPeriph_Driver/src/stm32f10x_i2c.c ****     I2Cx->CR1 &= CR1_STOP_Reset;
 432:./Libraries/STM32F10x_StdPeriph_Driver/src/stm32f10x_i2c.c ****   }
 433:./Libraries/STM32F10x_StdPeriph_Driver/src/stm32f10x_i2c.c **** }
 727              		.loc 1 433 1
 728 0022 07E0     		b	.L36
 729              	.L34:
 431:./Libraries/STM32F10x_StdPeriph_Driver/src/stm32f10x_i2c.c ****   }
 730              		.loc 1 431 15
 731 0024 7B68     		ldr	r3, [r7, #4]
 732 0026 1B88     		ldrh	r3, [r3]	@ movhi
 733 0028 9BB2     		uxth	r3, r3
 734 002a 23F40073 		bic	r3, r3, #512
 735 002e 9AB2     		uxth	r2, r3
 736 0030 7B68     		ldr	r3, [r7, #4]
 737 0032 1A80     		strh	r2, [r3]	@ movhi
 738              	.L36:
 739              		.loc 1 433 1
 740 0034 00BF     		nop
 741 0036 0C37     		adds	r7, r7, #12
 742              	.LCFI43:
 743              		.cfi_def_cfa_offset 4
 744 0038 BD46     		mov	sp, r7
 745              	.LCFI44:
 746              		.cfi_def_cfa_register 13
 747              		@ sp needed
 748 003a 80BC     		pop	{r7}
 749              	.LCFI45:
 750              		.cfi_restore 7
 751              		.cfi_def_cfa_offset 0
 752 003c 7047     		bx	lr
 753              		.cfi_endproc
 754              	.LFE36:
 756              		.section	.text.I2C_AcknowledgeConfig,"ax",%progbits
 757              		.align	1
 758              		.global	I2C_AcknowledgeConfig
 759              		.syntax unified
 760              		.thumb
 761              		.thumb_func
 763              	I2C_AcknowledgeConfig:
 764              	.LFB37:
 434:./Libraries/STM32F10x_StdPeriph_Driver/src/stm32f10x_i2c.c **** 
 435:./Libraries/STM32F10x_StdPeriph_Driver/src/stm32f10x_i2c.c **** /**
 436:./Libraries/STM32F10x_StdPeriph_Driver/src/stm32f10x_i2c.c ****   * @brief  Enables or disables the specified I2C acknowledge feature.
 437:./Libraries/STM32F10x_StdPeriph_Driver/src/stm32f10x_i2c.c ****   * @param  I2Cx: where x can be 1 or 2 to select the I2C peripheral.
 438:./Libraries/STM32F10x_StdPeriph_Driver/src/stm32f10x_i2c.c ****   * @param  NewState: new state of the I2C Acknowledgement.
 439:./Libraries/STM32F10x_StdPeriph_Driver/src/stm32f10x_i2c.c ****   *   This parameter can be: ENABLE or DISABLE.
 440:./Libraries/STM32F10x_StdPeriph_Driver/src/stm32f10x_i2c.c ****   * @retval None.
 441:./Libraries/STM32F10x_StdPeriph_Driver/src/stm32f10x_i2c.c ****   */
 442:./Libraries/STM32F10x_StdPeriph_Driver/src/stm32f10x_i2c.c **** void I2C_AcknowledgeConfig(I2C_TypeDef* I2Cx, FunctionalState NewState)
 443:./Libraries/STM32F10x_StdPeriph_Driver/src/stm32f10x_i2c.c **** {
ARM GAS  C:\Users\hao\AppData\Local\Temp\ccgRypVa.s 			page 22


 765              		.loc 1 443 1
 766              		.cfi_startproc
 767              		@ args = 0, pretend = 0, frame = 8
 768              		@ frame_needed = 1, uses_anonymous_args = 0
 769              		@ link register save eliminated.
 770 0000 80B4     		push	{r7}
 771              	.LCFI46:
 772              		.cfi_def_cfa_offset 4
 773              		.cfi_offset 7, -4
 774 0002 83B0     		sub	sp, sp, #12
 775              	.LCFI47:
 776              		.cfi_def_cfa_offset 16
 777 0004 00AF     		add	r7, sp, #0
 778              	.LCFI48:
 779              		.cfi_def_cfa_register 7
 780 0006 7860     		str	r0, [r7, #4]
 781 0008 0B46     		mov	r3, r1
 782 000a FB70     		strb	r3, [r7, #3]
 444:./Libraries/STM32F10x_StdPeriph_Driver/src/stm32f10x_i2c.c ****   /* Check the parameters */
 445:./Libraries/STM32F10x_StdPeriph_Driver/src/stm32f10x_i2c.c ****   assert_param(IS_I2C_ALL_PERIPH(I2Cx));
 446:./Libraries/STM32F10x_StdPeriph_Driver/src/stm32f10x_i2c.c ****   assert_param(IS_FUNCTIONAL_STATE(NewState));
 447:./Libraries/STM32F10x_StdPeriph_Driver/src/stm32f10x_i2c.c ****   if (NewState != DISABLE)
 783              		.loc 1 447 6
 784 000c FB78     		ldrb	r3, [r7, #3]	@ zero_extendqisi2
 785 000e 002B     		cmp	r3, #0
 786 0010 08D0     		beq	.L38
 448:./Libraries/STM32F10x_StdPeriph_Driver/src/stm32f10x_i2c.c ****   {
 449:./Libraries/STM32F10x_StdPeriph_Driver/src/stm32f10x_i2c.c ****     /* Enable the acknowledgement */
 450:./Libraries/STM32F10x_StdPeriph_Driver/src/stm32f10x_i2c.c ****     I2Cx->CR1 |= CR1_ACK_Set;
 787              		.loc 1 450 15
 788 0012 7B68     		ldr	r3, [r7, #4]
 789 0014 1B88     		ldrh	r3, [r3]	@ movhi
 790 0016 9BB2     		uxth	r3, r3
 791 0018 43F48063 		orr	r3, r3, #1024
 792 001c 9AB2     		uxth	r2, r3
 793 001e 7B68     		ldr	r3, [r7, #4]
 794 0020 1A80     		strh	r2, [r3]	@ movhi
 451:./Libraries/STM32F10x_StdPeriph_Driver/src/stm32f10x_i2c.c ****   }
 452:./Libraries/STM32F10x_StdPeriph_Driver/src/stm32f10x_i2c.c ****   else
 453:./Libraries/STM32F10x_StdPeriph_Driver/src/stm32f10x_i2c.c ****   {
 454:./Libraries/STM32F10x_StdPeriph_Driver/src/stm32f10x_i2c.c ****     /* Disable the acknowledgement */
 455:./Libraries/STM32F10x_StdPeriph_Driver/src/stm32f10x_i2c.c ****     I2Cx->CR1 &= CR1_ACK_Reset;
 456:./Libraries/STM32F10x_StdPeriph_Driver/src/stm32f10x_i2c.c ****   }
 457:./Libraries/STM32F10x_StdPeriph_Driver/src/stm32f10x_i2c.c **** }
 795              		.loc 1 457 1
 796 0022 07E0     		b	.L40
 797              	.L38:
 455:./Libraries/STM32F10x_StdPeriph_Driver/src/stm32f10x_i2c.c ****   }
 798              		.loc 1 455 15
 799 0024 7B68     		ldr	r3, [r7, #4]
 800 0026 1B88     		ldrh	r3, [r3]	@ movhi
 801 0028 9BB2     		uxth	r3, r3
 802 002a 23F48063 		bic	r3, r3, #1024
 803 002e 9AB2     		uxth	r2, r3
 804 0030 7B68     		ldr	r3, [r7, #4]
 805 0032 1A80     		strh	r2, [r3]	@ movhi
 806              	.L40:
ARM GAS  C:\Users\hao\AppData\Local\Temp\ccgRypVa.s 			page 23


 807              		.loc 1 457 1
 808 0034 00BF     		nop
 809 0036 0C37     		adds	r7, r7, #12
 810              	.LCFI49:
 811              		.cfi_def_cfa_offset 4
 812 0038 BD46     		mov	sp, r7
 813              	.LCFI50:
 814              		.cfi_def_cfa_register 13
 815              		@ sp needed
 816 003a 80BC     		pop	{r7}
 817              	.LCFI51:
 818              		.cfi_restore 7
 819              		.cfi_def_cfa_offset 0
 820 003c 7047     		bx	lr
 821              		.cfi_endproc
 822              	.LFE37:
 824              		.section	.text.I2C_OwnAddress2Config,"ax",%progbits
 825              		.align	1
 826              		.global	I2C_OwnAddress2Config
 827              		.syntax unified
 828              		.thumb
 829              		.thumb_func
 831              	I2C_OwnAddress2Config:
 832              	.LFB38:
 458:./Libraries/STM32F10x_StdPeriph_Driver/src/stm32f10x_i2c.c **** 
 459:./Libraries/STM32F10x_StdPeriph_Driver/src/stm32f10x_i2c.c **** /**
 460:./Libraries/STM32F10x_StdPeriph_Driver/src/stm32f10x_i2c.c ****   * @brief  Configures the specified I2C own address2.
 461:./Libraries/STM32F10x_StdPeriph_Driver/src/stm32f10x_i2c.c ****   * @param  I2Cx: where x can be 1 or 2 to select the I2C peripheral.
 462:./Libraries/STM32F10x_StdPeriph_Driver/src/stm32f10x_i2c.c ****   * @param  Address: specifies the 7bit I2C own address2.
 463:./Libraries/STM32F10x_StdPeriph_Driver/src/stm32f10x_i2c.c ****   * @retval None.
 464:./Libraries/STM32F10x_StdPeriph_Driver/src/stm32f10x_i2c.c ****   */
 465:./Libraries/STM32F10x_StdPeriph_Driver/src/stm32f10x_i2c.c **** void I2C_OwnAddress2Config(I2C_TypeDef* I2Cx, uint8_t Address)
 466:./Libraries/STM32F10x_StdPeriph_Driver/src/stm32f10x_i2c.c **** {
 833              		.loc 1 466 1
 834              		.cfi_startproc
 835              		@ args = 0, pretend = 0, frame = 16
 836              		@ frame_needed = 1, uses_anonymous_args = 0
 837              		@ link register save eliminated.
 838 0000 80B4     		push	{r7}
 839              	.LCFI52:
 840              		.cfi_def_cfa_offset 4
 841              		.cfi_offset 7, -4
 842 0002 85B0     		sub	sp, sp, #20
 843              	.LCFI53:
 844              		.cfi_def_cfa_offset 24
 845 0004 00AF     		add	r7, sp, #0
 846              	.LCFI54:
 847              		.cfi_def_cfa_register 7
 848 0006 7860     		str	r0, [r7, #4]
 849 0008 0B46     		mov	r3, r1
 850 000a FB70     		strb	r3, [r7, #3]
 467:./Libraries/STM32F10x_StdPeriph_Driver/src/stm32f10x_i2c.c ****   uint16_t tmpreg = 0;
 851              		.loc 1 467 12
 852 000c 0023     		movs	r3, #0
 853 000e FB81     		strh	r3, [r7, #14]	@ movhi
 468:./Libraries/STM32F10x_StdPeriph_Driver/src/stm32f10x_i2c.c **** 
 469:./Libraries/STM32F10x_StdPeriph_Driver/src/stm32f10x_i2c.c ****   /* Check the parameters */
ARM GAS  C:\Users\hao\AppData\Local\Temp\ccgRypVa.s 			page 24


 470:./Libraries/STM32F10x_StdPeriph_Driver/src/stm32f10x_i2c.c ****   assert_param(IS_I2C_ALL_PERIPH(I2Cx));
 471:./Libraries/STM32F10x_StdPeriph_Driver/src/stm32f10x_i2c.c **** 
 472:./Libraries/STM32F10x_StdPeriph_Driver/src/stm32f10x_i2c.c ****   /* Get the old register value */
 473:./Libraries/STM32F10x_StdPeriph_Driver/src/stm32f10x_i2c.c ****   tmpreg = I2Cx->OAR2;
 854              		.loc 1 473 10
 855 0010 7B68     		ldr	r3, [r7, #4]
 856 0012 9B89     		ldrh	r3, [r3, #12]	@ movhi
 857 0014 FB81     		strh	r3, [r7, #14]	@ movhi
 474:./Libraries/STM32F10x_StdPeriph_Driver/src/stm32f10x_i2c.c **** 
 475:./Libraries/STM32F10x_StdPeriph_Driver/src/stm32f10x_i2c.c ****   /* Reset I2Cx Own address2 bit [7:1] */
 476:./Libraries/STM32F10x_StdPeriph_Driver/src/stm32f10x_i2c.c ****   tmpreg &= OAR2_ADD2_Reset;
 858              		.loc 1 476 10
 859 0016 FB89     		ldrh	r3, [r7, #14]	@ movhi
 860 0018 23F0FE03 		bic	r3, r3, #254
 861 001c FB81     		strh	r3, [r7, #14]	@ movhi
 477:./Libraries/STM32F10x_StdPeriph_Driver/src/stm32f10x_i2c.c **** 
 478:./Libraries/STM32F10x_StdPeriph_Driver/src/stm32f10x_i2c.c ****   /* Set I2Cx Own address2 */
 479:./Libraries/STM32F10x_StdPeriph_Driver/src/stm32f10x_i2c.c ****   tmpreg |= (uint16_t)((uint16_t)Address & (uint16_t)0x00FE);
 862              		.loc 1 479 13
 863 001e FB78     		ldrb	r3, [r7, #3]	@ zero_extendqisi2
 864 0020 1BB2     		sxth	r3, r3
 865 0022 03F0FE03 		and	r3, r3, #254
 866 0026 1AB2     		sxth	r2, r3
 867              		.loc 1 479 10
 868 0028 B7F90E30 		ldrsh	r3, [r7, #14]
 869 002c 1343     		orrs	r3, r3, r2
 870 002e 1BB2     		sxth	r3, r3
 871 0030 FB81     		strh	r3, [r7, #14]	@ movhi
 480:./Libraries/STM32F10x_StdPeriph_Driver/src/stm32f10x_i2c.c **** 
 481:./Libraries/STM32F10x_StdPeriph_Driver/src/stm32f10x_i2c.c ****   /* Store the new register value */
 482:./Libraries/STM32F10x_StdPeriph_Driver/src/stm32f10x_i2c.c ****   I2Cx->OAR2 = tmpreg;
 872              		.loc 1 482 14
 873 0032 7B68     		ldr	r3, [r7, #4]
 874 0034 FA89     		ldrh	r2, [r7, #14]	@ movhi
 875 0036 9A81     		strh	r2, [r3, #12]	@ movhi
 483:./Libraries/STM32F10x_StdPeriph_Driver/src/stm32f10x_i2c.c **** }
 876              		.loc 1 483 1
 877 0038 00BF     		nop
 878 003a 1437     		adds	r7, r7, #20
 879              	.LCFI55:
 880              		.cfi_def_cfa_offset 4
 881 003c BD46     		mov	sp, r7
 882              	.LCFI56:
 883              		.cfi_def_cfa_register 13
 884              		@ sp needed
 885 003e 80BC     		pop	{r7}
 886              	.LCFI57:
 887              		.cfi_restore 7
 888              		.cfi_def_cfa_offset 0
 889 0040 7047     		bx	lr
 890              		.cfi_endproc
 891              	.LFE38:
 893              		.section	.text.I2C_DualAddressCmd,"ax",%progbits
 894              		.align	1
 895              		.global	I2C_DualAddressCmd
 896              		.syntax unified
 897              		.thumb
ARM GAS  C:\Users\hao\AppData\Local\Temp\ccgRypVa.s 			page 25


 898              		.thumb_func
 900              	I2C_DualAddressCmd:
 901              	.LFB39:
 484:./Libraries/STM32F10x_StdPeriph_Driver/src/stm32f10x_i2c.c **** 
 485:./Libraries/STM32F10x_StdPeriph_Driver/src/stm32f10x_i2c.c **** /**
 486:./Libraries/STM32F10x_StdPeriph_Driver/src/stm32f10x_i2c.c ****   * @brief  Enables or disables the specified I2C dual addressing mode.
 487:./Libraries/STM32F10x_StdPeriph_Driver/src/stm32f10x_i2c.c ****   * @param  I2Cx: where x can be 1 or 2 to select the I2C peripheral.
 488:./Libraries/STM32F10x_StdPeriph_Driver/src/stm32f10x_i2c.c ****   * @param  NewState: new state of the I2C dual addressing mode.
 489:./Libraries/STM32F10x_StdPeriph_Driver/src/stm32f10x_i2c.c ****   *   This parameter can be: ENABLE or DISABLE.
 490:./Libraries/STM32F10x_StdPeriph_Driver/src/stm32f10x_i2c.c ****   * @retval None
 491:./Libraries/STM32F10x_StdPeriph_Driver/src/stm32f10x_i2c.c ****   */
 492:./Libraries/STM32F10x_StdPeriph_Driver/src/stm32f10x_i2c.c **** void I2C_DualAddressCmd(I2C_TypeDef* I2Cx, FunctionalState NewState)
 493:./Libraries/STM32F10x_StdPeriph_Driver/src/stm32f10x_i2c.c **** {
 902              		.loc 1 493 1
 903              		.cfi_startproc
 904              		@ args = 0, pretend = 0, frame = 8
 905              		@ frame_needed = 1, uses_anonymous_args = 0
 906              		@ link register save eliminated.
 907 0000 80B4     		push	{r7}
 908              	.LCFI58:
 909              		.cfi_def_cfa_offset 4
 910              		.cfi_offset 7, -4
 911 0002 83B0     		sub	sp, sp, #12
 912              	.LCFI59:
 913              		.cfi_def_cfa_offset 16
 914 0004 00AF     		add	r7, sp, #0
 915              	.LCFI60:
 916              		.cfi_def_cfa_register 7
 917 0006 7860     		str	r0, [r7, #4]
 918 0008 0B46     		mov	r3, r1
 919 000a FB70     		strb	r3, [r7, #3]
 494:./Libraries/STM32F10x_StdPeriph_Driver/src/stm32f10x_i2c.c ****   /* Check the parameters */
 495:./Libraries/STM32F10x_StdPeriph_Driver/src/stm32f10x_i2c.c ****   assert_param(IS_I2C_ALL_PERIPH(I2Cx));
 496:./Libraries/STM32F10x_StdPeriph_Driver/src/stm32f10x_i2c.c ****   assert_param(IS_FUNCTIONAL_STATE(NewState));
 497:./Libraries/STM32F10x_StdPeriph_Driver/src/stm32f10x_i2c.c ****   if (NewState != DISABLE)
 920              		.loc 1 497 6
 921 000c FB78     		ldrb	r3, [r7, #3]	@ zero_extendqisi2
 922 000e 002B     		cmp	r3, #0
 923 0010 08D0     		beq	.L43
 498:./Libraries/STM32F10x_StdPeriph_Driver/src/stm32f10x_i2c.c ****   {
 499:./Libraries/STM32F10x_StdPeriph_Driver/src/stm32f10x_i2c.c ****     /* Enable dual addressing mode */
 500:./Libraries/STM32F10x_StdPeriph_Driver/src/stm32f10x_i2c.c ****     I2Cx->OAR2 |= OAR2_ENDUAL_Set;
 924              		.loc 1 500 16
 925 0012 7B68     		ldr	r3, [r7, #4]
 926 0014 9B89     		ldrh	r3, [r3, #12]	@ movhi
 927 0016 9BB2     		uxth	r3, r3
 928 0018 43F00103 		orr	r3, r3, #1
 929 001c 9AB2     		uxth	r2, r3
 930 001e 7B68     		ldr	r3, [r7, #4]
 931 0020 9A81     		strh	r2, [r3, #12]	@ movhi
 501:./Libraries/STM32F10x_StdPeriph_Driver/src/stm32f10x_i2c.c ****   }
 502:./Libraries/STM32F10x_StdPeriph_Driver/src/stm32f10x_i2c.c ****   else
 503:./Libraries/STM32F10x_StdPeriph_Driver/src/stm32f10x_i2c.c ****   {
 504:./Libraries/STM32F10x_StdPeriph_Driver/src/stm32f10x_i2c.c ****     /* Disable dual addressing mode */
 505:./Libraries/STM32F10x_StdPeriph_Driver/src/stm32f10x_i2c.c ****     I2Cx->OAR2 &= OAR2_ENDUAL_Reset;
 506:./Libraries/STM32F10x_StdPeriph_Driver/src/stm32f10x_i2c.c ****   }
 507:./Libraries/STM32F10x_StdPeriph_Driver/src/stm32f10x_i2c.c **** }
ARM GAS  C:\Users\hao\AppData\Local\Temp\ccgRypVa.s 			page 26


 932              		.loc 1 507 1
 933 0022 07E0     		b	.L45
 934              	.L43:
 505:./Libraries/STM32F10x_StdPeriph_Driver/src/stm32f10x_i2c.c ****   }
 935              		.loc 1 505 16
 936 0024 7B68     		ldr	r3, [r7, #4]
 937 0026 9B89     		ldrh	r3, [r3, #12]	@ movhi
 938 0028 9BB2     		uxth	r3, r3
 939 002a 23F00103 		bic	r3, r3, #1
 940 002e 9AB2     		uxth	r2, r3
 941 0030 7B68     		ldr	r3, [r7, #4]
 942 0032 9A81     		strh	r2, [r3, #12]	@ movhi
 943              	.L45:
 944              		.loc 1 507 1
 945 0034 00BF     		nop
 946 0036 0C37     		adds	r7, r7, #12
 947              	.LCFI61:
 948              		.cfi_def_cfa_offset 4
 949 0038 BD46     		mov	sp, r7
 950              	.LCFI62:
 951              		.cfi_def_cfa_register 13
 952              		@ sp needed
 953 003a 80BC     		pop	{r7}
 954              	.LCFI63:
 955              		.cfi_restore 7
 956              		.cfi_def_cfa_offset 0
 957 003c 7047     		bx	lr
 958              		.cfi_endproc
 959              	.LFE39:
 961              		.section	.text.I2C_GeneralCallCmd,"ax",%progbits
 962              		.align	1
 963              		.global	I2C_GeneralCallCmd
 964              		.syntax unified
 965              		.thumb
 966              		.thumb_func
 968              	I2C_GeneralCallCmd:
 969              	.LFB40:
 508:./Libraries/STM32F10x_StdPeriph_Driver/src/stm32f10x_i2c.c **** 
 509:./Libraries/STM32F10x_StdPeriph_Driver/src/stm32f10x_i2c.c **** /**
 510:./Libraries/STM32F10x_StdPeriph_Driver/src/stm32f10x_i2c.c ****   * @brief  Enables or disables the specified I2C general call feature.
 511:./Libraries/STM32F10x_StdPeriph_Driver/src/stm32f10x_i2c.c ****   * @param  I2Cx: where x can be 1 or 2 to select the I2C peripheral.
 512:./Libraries/STM32F10x_StdPeriph_Driver/src/stm32f10x_i2c.c ****   * @param  NewState: new state of the I2C General call.
 513:./Libraries/STM32F10x_StdPeriph_Driver/src/stm32f10x_i2c.c ****   *   This parameter can be: ENABLE or DISABLE.
 514:./Libraries/STM32F10x_StdPeriph_Driver/src/stm32f10x_i2c.c ****   * @retval None
 515:./Libraries/STM32F10x_StdPeriph_Driver/src/stm32f10x_i2c.c ****   */
 516:./Libraries/STM32F10x_StdPeriph_Driver/src/stm32f10x_i2c.c **** void I2C_GeneralCallCmd(I2C_TypeDef* I2Cx, FunctionalState NewState)
 517:./Libraries/STM32F10x_StdPeriph_Driver/src/stm32f10x_i2c.c **** {
 970              		.loc 1 517 1
 971              		.cfi_startproc
 972              		@ args = 0, pretend = 0, frame = 8
 973              		@ frame_needed = 1, uses_anonymous_args = 0
 974              		@ link register save eliminated.
 975 0000 80B4     		push	{r7}
 976              	.LCFI64:
 977              		.cfi_def_cfa_offset 4
 978              		.cfi_offset 7, -4
 979 0002 83B0     		sub	sp, sp, #12
ARM GAS  C:\Users\hao\AppData\Local\Temp\ccgRypVa.s 			page 27


 980              	.LCFI65:
 981              		.cfi_def_cfa_offset 16
 982 0004 00AF     		add	r7, sp, #0
 983              	.LCFI66:
 984              		.cfi_def_cfa_register 7
 985 0006 7860     		str	r0, [r7, #4]
 986 0008 0B46     		mov	r3, r1
 987 000a FB70     		strb	r3, [r7, #3]
 518:./Libraries/STM32F10x_StdPeriph_Driver/src/stm32f10x_i2c.c ****   /* Check the parameters */
 519:./Libraries/STM32F10x_StdPeriph_Driver/src/stm32f10x_i2c.c ****   assert_param(IS_I2C_ALL_PERIPH(I2Cx));
 520:./Libraries/STM32F10x_StdPeriph_Driver/src/stm32f10x_i2c.c ****   assert_param(IS_FUNCTIONAL_STATE(NewState));
 521:./Libraries/STM32F10x_StdPeriph_Driver/src/stm32f10x_i2c.c ****   if (NewState != DISABLE)
 988              		.loc 1 521 6
 989 000c FB78     		ldrb	r3, [r7, #3]	@ zero_extendqisi2
 990 000e 002B     		cmp	r3, #0
 991 0010 08D0     		beq	.L47
 522:./Libraries/STM32F10x_StdPeriph_Driver/src/stm32f10x_i2c.c ****   {
 523:./Libraries/STM32F10x_StdPeriph_Driver/src/stm32f10x_i2c.c ****     /* Enable generall call */
 524:./Libraries/STM32F10x_StdPeriph_Driver/src/stm32f10x_i2c.c ****     I2Cx->CR1 |= CR1_ENGC_Set;
 992              		.loc 1 524 15
 993 0012 7B68     		ldr	r3, [r7, #4]
 994 0014 1B88     		ldrh	r3, [r3]	@ movhi
 995 0016 9BB2     		uxth	r3, r3
 996 0018 43F04003 		orr	r3, r3, #64
 997 001c 9AB2     		uxth	r2, r3
 998 001e 7B68     		ldr	r3, [r7, #4]
 999 0020 1A80     		strh	r2, [r3]	@ movhi
 525:./Libraries/STM32F10x_StdPeriph_Driver/src/stm32f10x_i2c.c ****   }
 526:./Libraries/STM32F10x_StdPeriph_Driver/src/stm32f10x_i2c.c ****   else
 527:./Libraries/STM32F10x_StdPeriph_Driver/src/stm32f10x_i2c.c ****   {
 528:./Libraries/STM32F10x_StdPeriph_Driver/src/stm32f10x_i2c.c ****     /* Disable generall call */
 529:./Libraries/STM32F10x_StdPeriph_Driver/src/stm32f10x_i2c.c ****     I2Cx->CR1 &= CR1_ENGC_Reset;
 530:./Libraries/STM32F10x_StdPeriph_Driver/src/stm32f10x_i2c.c ****   }
 531:./Libraries/STM32F10x_StdPeriph_Driver/src/stm32f10x_i2c.c **** }
 1000              		.loc 1 531 1
 1001 0022 07E0     		b	.L49
 1002              	.L47:
 529:./Libraries/STM32F10x_StdPeriph_Driver/src/stm32f10x_i2c.c ****   }
 1003              		.loc 1 529 15
 1004 0024 7B68     		ldr	r3, [r7, #4]
 1005 0026 1B88     		ldrh	r3, [r3]	@ movhi
 1006 0028 9BB2     		uxth	r3, r3
 1007 002a 23F04003 		bic	r3, r3, #64
 1008 002e 9AB2     		uxth	r2, r3
 1009 0030 7B68     		ldr	r3, [r7, #4]
 1010 0032 1A80     		strh	r2, [r3]	@ movhi
 1011              	.L49:
 1012              		.loc 1 531 1
 1013 0034 00BF     		nop
 1014 0036 0C37     		adds	r7, r7, #12
 1015              	.LCFI67:
 1016              		.cfi_def_cfa_offset 4
 1017 0038 BD46     		mov	sp, r7
 1018              	.LCFI68:
 1019              		.cfi_def_cfa_register 13
 1020              		@ sp needed
 1021 003a 80BC     		pop	{r7}
ARM GAS  C:\Users\hao\AppData\Local\Temp\ccgRypVa.s 			page 28


 1022              	.LCFI69:
 1023              		.cfi_restore 7
 1024              		.cfi_def_cfa_offset 0
 1025 003c 7047     		bx	lr
 1026              		.cfi_endproc
 1027              	.LFE40:
 1029              		.section	.text.I2C_ITConfig,"ax",%progbits
 1030              		.align	1
 1031              		.global	I2C_ITConfig
 1032              		.syntax unified
 1033              		.thumb
 1034              		.thumb_func
 1036              	I2C_ITConfig:
 1037              	.LFB41:
 532:./Libraries/STM32F10x_StdPeriph_Driver/src/stm32f10x_i2c.c **** 
 533:./Libraries/STM32F10x_StdPeriph_Driver/src/stm32f10x_i2c.c **** /**
 534:./Libraries/STM32F10x_StdPeriph_Driver/src/stm32f10x_i2c.c ****   * @brief  Enables or disables the specified I2C interrupts.
 535:./Libraries/STM32F10x_StdPeriph_Driver/src/stm32f10x_i2c.c ****   * @param  I2Cx: where x can be 1 or 2 to select the I2C peripheral.
 536:./Libraries/STM32F10x_StdPeriph_Driver/src/stm32f10x_i2c.c ****   * @param  I2C_IT: specifies the I2C interrupts sources to be enabled or disabled. 
 537:./Libraries/STM32F10x_StdPeriph_Driver/src/stm32f10x_i2c.c ****   *   This parameter can be any combination of the following values:
 538:./Libraries/STM32F10x_StdPeriph_Driver/src/stm32f10x_i2c.c ****   *     @arg I2C_IT_BUF: Buffer interrupt mask
 539:./Libraries/STM32F10x_StdPeriph_Driver/src/stm32f10x_i2c.c ****   *     @arg I2C_IT_EVT: Event interrupt mask
 540:./Libraries/STM32F10x_StdPeriph_Driver/src/stm32f10x_i2c.c ****   *     @arg I2C_IT_ERR: Error interrupt mask
 541:./Libraries/STM32F10x_StdPeriph_Driver/src/stm32f10x_i2c.c ****   * @param  NewState: new state of the specified I2C interrupts.
 542:./Libraries/STM32F10x_StdPeriph_Driver/src/stm32f10x_i2c.c ****   *   This parameter can be: ENABLE or DISABLE.
 543:./Libraries/STM32F10x_StdPeriph_Driver/src/stm32f10x_i2c.c ****   * @retval None
 544:./Libraries/STM32F10x_StdPeriph_Driver/src/stm32f10x_i2c.c ****   */
 545:./Libraries/STM32F10x_StdPeriph_Driver/src/stm32f10x_i2c.c **** void I2C_ITConfig(I2C_TypeDef* I2Cx, uint16_t I2C_IT, FunctionalState NewState)
 546:./Libraries/STM32F10x_StdPeriph_Driver/src/stm32f10x_i2c.c **** {
 1038              		.loc 1 546 1
 1039              		.cfi_startproc
 1040              		@ args = 0, pretend = 0, frame = 8
 1041              		@ frame_needed = 1, uses_anonymous_args = 0
 1042              		@ link register save eliminated.
 1043 0000 80B4     		push	{r7}
 1044              	.LCFI70:
 1045              		.cfi_def_cfa_offset 4
 1046              		.cfi_offset 7, -4
 1047 0002 83B0     		sub	sp, sp, #12
 1048              	.LCFI71:
 1049              		.cfi_def_cfa_offset 16
 1050 0004 00AF     		add	r7, sp, #0
 1051              	.LCFI72:
 1052              		.cfi_def_cfa_register 7
 1053 0006 7860     		str	r0, [r7, #4]
 1054 0008 0B46     		mov	r3, r1
 1055 000a 7B80     		strh	r3, [r7, #2]	@ movhi
 1056 000c 1346     		mov	r3, r2
 1057 000e 7B70     		strb	r3, [r7, #1]
 547:./Libraries/STM32F10x_StdPeriph_Driver/src/stm32f10x_i2c.c ****   /* Check the parameters */
 548:./Libraries/STM32F10x_StdPeriph_Driver/src/stm32f10x_i2c.c ****   assert_param(IS_I2C_ALL_PERIPH(I2Cx));
 549:./Libraries/STM32F10x_StdPeriph_Driver/src/stm32f10x_i2c.c ****   assert_param(IS_FUNCTIONAL_STATE(NewState));
 550:./Libraries/STM32F10x_StdPeriph_Driver/src/stm32f10x_i2c.c ****   assert_param(IS_I2C_CONFIG_IT(I2C_IT));
 551:./Libraries/STM32F10x_StdPeriph_Driver/src/stm32f10x_i2c.c ****   
 552:./Libraries/STM32F10x_StdPeriph_Driver/src/stm32f10x_i2c.c ****   if (NewState != DISABLE)
 1058              		.loc 1 552 6
 1059 0010 7B78     		ldrb	r3, [r7, #1]	@ zero_extendqisi2
ARM GAS  C:\Users\hao\AppData\Local\Temp\ccgRypVa.s 			page 29


 1060 0012 002B     		cmp	r3, #0
 1061 0014 08D0     		beq	.L51
 553:./Libraries/STM32F10x_StdPeriph_Driver/src/stm32f10x_i2c.c ****   {
 554:./Libraries/STM32F10x_StdPeriph_Driver/src/stm32f10x_i2c.c ****     /* Enable the selected I2C interrupts */
 555:./Libraries/STM32F10x_StdPeriph_Driver/src/stm32f10x_i2c.c ****     I2Cx->CR2 |= I2C_IT;
 1062              		.loc 1 555 15
 1063 0016 7B68     		ldr	r3, [r7, #4]
 1064 0018 9B88     		ldrh	r3, [r3, #4]	@ movhi
 1065 001a 9AB2     		uxth	r2, r3
 1066 001c 7B88     		ldrh	r3, [r7, #2]	@ movhi
 1067 001e 1343     		orrs	r3, r3, r2
 1068 0020 9AB2     		uxth	r2, r3
 1069 0022 7B68     		ldr	r3, [r7, #4]
 1070 0024 9A80     		strh	r2, [r3, #4]	@ movhi
 556:./Libraries/STM32F10x_StdPeriph_Driver/src/stm32f10x_i2c.c ****   }
 557:./Libraries/STM32F10x_StdPeriph_Driver/src/stm32f10x_i2c.c ****   else
 558:./Libraries/STM32F10x_StdPeriph_Driver/src/stm32f10x_i2c.c ****   {
 559:./Libraries/STM32F10x_StdPeriph_Driver/src/stm32f10x_i2c.c ****     /* Disable the selected I2C interrupts */
 560:./Libraries/STM32F10x_StdPeriph_Driver/src/stm32f10x_i2c.c ****     I2Cx->CR2 &= (uint16_t)~I2C_IT;
 561:./Libraries/STM32F10x_StdPeriph_Driver/src/stm32f10x_i2c.c ****   }
 562:./Libraries/STM32F10x_StdPeriph_Driver/src/stm32f10x_i2c.c **** }
 1071              		.loc 1 562 1
 1072 0026 09E0     		b	.L53
 1073              	.L51:
 560:./Libraries/STM32F10x_StdPeriph_Driver/src/stm32f10x_i2c.c ****   }
 1074              		.loc 1 560 15
 1075 0028 7B68     		ldr	r3, [r7, #4]
 1076 002a 9B88     		ldrh	r3, [r3, #4]	@ movhi
 1077 002c 9AB2     		uxth	r2, r3
 560:./Libraries/STM32F10x_StdPeriph_Driver/src/stm32f10x_i2c.c ****   }
 1078              		.loc 1 560 18
 1079 002e 7B88     		ldrh	r3, [r7, #2]	@ movhi
 1080 0030 DB43     		mvns	r3, r3
 1081 0032 9BB2     		uxth	r3, r3
 560:./Libraries/STM32F10x_StdPeriph_Driver/src/stm32f10x_i2c.c ****   }
 1082              		.loc 1 560 15
 1083 0034 1340     		ands	r3, r3, r2
 1084 0036 9AB2     		uxth	r2, r3
 1085 0038 7B68     		ldr	r3, [r7, #4]
 1086 003a 9A80     		strh	r2, [r3, #4]	@ movhi
 1087              	.L53:
 1088              		.loc 1 562 1
 1089 003c 00BF     		nop
 1090 003e 0C37     		adds	r7, r7, #12
 1091              	.LCFI73:
 1092              		.cfi_def_cfa_offset 4
 1093 0040 BD46     		mov	sp, r7
 1094              	.LCFI74:
 1095              		.cfi_def_cfa_register 13
 1096              		@ sp needed
 1097 0042 80BC     		pop	{r7}
 1098              	.LCFI75:
 1099              		.cfi_restore 7
 1100              		.cfi_def_cfa_offset 0
 1101 0044 7047     		bx	lr
 1102              		.cfi_endproc
 1103              	.LFE41:
ARM GAS  C:\Users\hao\AppData\Local\Temp\ccgRypVa.s 			page 30


 1105              		.section	.text.I2C_SendData,"ax",%progbits
 1106              		.align	1
 1107              		.global	I2C_SendData
 1108              		.syntax unified
 1109              		.thumb
 1110              		.thumb_func
 1112              	I2C_SendData:
 1113              	.LFB42:
 563:./Libraries/STM32F10x_StdPeriph_Driver/src/stm32f10x_i2c.c **** 
 564:./Libraries/STM32F10x_StdPeriph_Driver/src/stm32f10x_i2c.c **** /**
 565:./Libraries/STM32F10x_StdPeriph_Driver/src/stm32f10x_i2c.c ****   * @brief  Sends a data byte through the I2Cx peripheral.
 566:./Libraries/STM32F10x_StdPeriph_Driver/src/stm32f10x_i2c.c ****   * @param  I2Cx: where x can be 1 or 2 to select the I2C peripheral.
 567:./Libraries/STM32F10x_StdPeriph_Driver/src/stm32f10x_i2c.c ****   * @param  Data: Byte to be transmitted..
 568:./Libraries/STM32F10x_StdPeriph_Driver/src/stm32f10x_i2c.c ****   * @retval None
 569:./Libraries/STM32F10x_StdPeriph_Driver/src/stm32f10x_i2c.c ****   */
 570:./Libraries/STM32F10x_StdPeriph_Driver/src/stm32f10x_i2c.c **** void I2C_SendData(I2C_TypeDef* I2Cx, uint8_t Data)
 571:./Libraries/STM32F10x_StdPeriph_Driver/src/stm32f10x_i2c.c **** {
 1114              		.loc 1 571 1
 1115              		.cfi_startproc
 1116              		@ args = 0, pretend = 0, frame = 8
 1117              		@ frame_needed = 1, uses_anonymous_args = 0
 1118              		@ link register save eliminated.
 1119 0000 80B4     		push	{r7}
 1120              	.LCFI76:
 1121              		.cfi_def_cfa_offset 4
 1122              		.cfi_offset 7, -4
 1123 0002 83B0     		sub	sp, sp, #12
 1124              	.LCFI77:
 1125              		.cfi_def_cfa_offset 16
 1126 0004 00AF     		add	r7, sp, #0
 1127              	.LCFI78:
 1128              		.cfi_def_cfa_register 7
 1129 0006 7860     		str	r0, [r7, #4]
 1130 0008 0B46     		mov	r3, r1
 1131 000a FB70     		strb	r3, [r7, #3]
 572:./Libraries/STM32F10x_StdPeriph_Driver/src/stm32f10x_i2c.c ****   /* Check the parameters */
 573:./Libraries/STM32F10x_StdPeriph_Driver/src/stm32f10x_i2c.c ****   assert_param(IS_I2C_ALL_PERIPH(I2Cx));
 574:./Libraries/STM32F10x_StdPeriph_Driver/src/stm32f10x_i2c.c ****   /* Write in the DR register the data to be sent */
 575:./Libraries/STM32F10x_StdPeriph_Driver/src/stm32f10x_i2c.c ****   I2Cx->DR = Data;
 1132              		.loc 1 575 12
 1133 000c FB78     		ldrb	r3, [r7, #3]	@ zero_extendqisi2
 1134 000e 9AB2     		uxth	r2, r3
 1135 0010 7B68     		ldr	r3, [r7, #4]
 1136 0012 1A82     		strh	r2, [r3, #16]	@ movhi
 576:./Libraries/STM32F10x_StdPeriph_Driver/src/stm32f10x_i2c.c **** }
 1137              		.loc 1 576 1
 1138 0014 00BF     		nop
 1139 0016 0C37     		adds	r7, r7, #12
 1140              	.LCFI79:
 1141              		.cfi_def_cfa_offset 4
 1142 0018 BD46     		mov	sp, r7
 1143              	.LCFI80:
 1144              		.cfi_def_cfa_register 13
 1145              		@ sp needed
 1146 001a 80BC     		pop	{r7}
 1147              	.LCFI81:
 1148              		.cfi_restore 7
ARM GAS  C:\Users\hao\AppData\Local\Temp\ccgRypVa.s 			page 31


 1149              		.cfi_def_cfa_offset 0
 1150 001c 7047     		bx	lr
 1151              		.cfi_endproc
 1152              	.LFE42:
 1154              		.section	.text.I2C_ReceiveData,"ax",%progbits
 1155              		.align	1
 1156              		.global	I2C_ReceiveData
 1157              		.syntax unified
 1158              		.thumb
 1159              		.thumb_func
 1161              	I2C_ReceiveData:
 1162              	.LFB43:
 577:./Libraries/STM32F10x_StdPeriph_Driver/src/stm32f10x_i2c.c **** 
 578:./Libraries/STM32F10x_StdPeriph_Driver/src/stm32f10x_i2c.c **** /**
 579:./Libraries/STM32F10x_StdPeriph_Driver/src/stm32f10x_i2c.c ****   * @brief  Returns the most recent received data by the I2Cx peripheral.
 580:./Libraries/STM32F10x_StdPeriph_Driver/src/stm32f10x_i2c.c ****   * @param  I2Cx: where x can be 1 or 2 to select the I2C peripheral.
 581:./Libraries/STM32F10x_StdPeriph_Driver/src/stm32f10x_i2c.c ****   * @retval The value of the received data.
 582:./Libraries/STM32F10x_StdPeriph_Driver/src/stm32f10x_i2c.c ****   */
 583:./Libraries/STM32F10x_StdPeriph_Driver/src/stm32f10x_i2c.c **** uint8_t I2C_ReceiveData(I2C_TypeDef* I2Cx)
 584:./Libraries/STM32F10x_StdPeriph_Driver/src/stm32f10x_i2c.c **** {
 1163              		.loc 1 584 1
 1164              		.cfi_startproc
 1165              		@ args = 0, pretend = 0, frame = 8
 1166              		@ frame_needed = 1, uses_anonymous_args = 0
 1167              		@ link register save eliminated.
 1168 0000 80B4     		push	{r7}
 1169              	.LCFI82:
 1170              		.cfi_def_cfa_offset 4
 1171              		.cfi_offset 7, -4
 1172 0002 83B0     		sub	sp, sp, #12
 1173              	.LCFI83:
 1174              		.cfi_def_cfa_offset 16
 1175 0004 00AF     		add	r7, sp, #0
 1176              	.LCFI84:
 1177              		.cfi_def_cfa_register 7
 1178 0006 7860     		str	r0, [r7, #4]
 585:./Libraries/STM32F10x_StdPeriph_Driver/src/stm32f10x_i2c.c ****   /* Check the parameters */
 586:./Libraries/STM32F10x_StdPeriph_Driver/src/stm32f10x_i2c.c ****   assert_param(IS_I2C_ALL_PERIPH(I2Cx));
 587:./Libraries/STM32F10x_StdPeriph_Driver/src/stm32f10x_i2c.c ****   /* Return the data in the DR register */
 588:./Libraries/STM32F10x_StdPeriph_Driver/src/stm32f10x_i2c.c ****   return (uint8_t)I2Cx->DR;
 1179              		.loc 1 588 23
 1180 0008 7B68     		ldr	r3, [r7, #4]
 1181 000a 1B8A     		ldrh	r3, [r3, #16]	@ movhi
 1182 000c 9BB2     		uxth	r3, r3
 1183              		.loc 1 588 10
 1184 000e DBB2     		uxtb	r3, r3
 589:./Libraries/STM32F10x_StdPeriph_Driver/src/stm32f10x_i2c.c **** }
 1185              		.loc 1 589 1
 1186 0010 1846     		mov	r0, r3
 1187 0012 0C37     		adds	r7, r7, #12
 1188              	.LCFI85:
 1189              		.cfi_def_cfa_offset 4
 1190 0014 BD46     		mov	sp, r7
 1191              	.LCFI86:
 1192              		.cfi_def_cfa_register 13
 1193              		@ sp needed
 1194 0016 80BC     		pop	{r7}
ARM GAS  C:\Users\hao\AppData\Local\Temp\ccgRypVa.s 			page 32


 1195              	.LCFI87:
 1196              		.cfi_restore 7
 1197              		.cfi_def_cfa_offset 0
 1198 0018 7047     		bx	lr
 1199              		.cfi_endproc
 1200              	.LFE43:
 1202              		.section	.text.I2C_Send7bitAddress,"ax",%progbits
 1203              		.align	1
 1204              		.global	I2C_Send7bitAddress
 1205              		.syntax unified
 1206              		.thumb
 1207              		.thumb_func
 1209              	I2C_Send7bitAddress:
 1210              	.LFB44:
 590:./Libraries/STM32F10x_StdPeriph_Driver/src/stm32f10x_i2c.c **** 
 591:./Libraries/STM32F10x_StdPeriph_Driver/src/stm32f10x_i2c.c **** /**
 592:./Libraries/STM32F10x_StdPeriph_Driver/src/stm32f10x_i2c.c ****   * @brief  Transmits the address byte to select the slave device.
 593:./Libraries/STM32F10x_StdPeriph_Driver/src/stm32f10x_i2c.c ****   * @param  I2Cx: where x can be 1 or 2 to select the I2C peripheral.
 594:./Libraries/STM32F10x_StdPeriph_Driver/src/stm32f10x_i2c.c ****   * @param  Address: specifies the slave address which will be transmitted
 595:./Libraries/STM32F10x_StdPeriph_Driver/src/stm32f10x_i2c.c ****   * @param  I2C_Direction: specifies whether the I2C device will be a
 596:./Libraries/STM32F10x_StdPeriph_Driver/src/stm32f10x_i2c.c ****   *   Transmitter or a Receiver. This parameter can be one of the following values
 597:./Libraries/STM32F10x_StdPeriph_Driver/src/stm32f10x_i2c.c ****   *     @arg I2C_Direction_Transmitter: Transmitter mode
 598:./Libraries/STM32F10x_StdPeriph_Driver/src/stm32f10x_i2c.c ****   *     @arg I2C_Direction_Receiver: Receiver mode
 599:./Libraries/STM32F10x_StdPeriph_Driver/src/stm32f10x_i2c.c ****   * @retval None.
 600:./Libraries/STM32F10x_StdPeriph_Driver/src/stm32f10x_i2c.c ****   */
 601:./Libraries/STM32F10x_StdPeriph_Driver/src/stm32f10x_i2c.c **** void I2C_Send7bitAddress(I2C_TypeDef* I2Cx, uint8_t Address, uint8_t I2C_Direction)
 602:./Libraries/STM32F10x_StdPeriph_Driver/src/stm32f10x_i2c.c **** {
 1211              		.loc 1 602 1
 1212              		.cfi_startproc
 1213              		@ args = 0, pretend = 0, frame = 8
 1214              		@ frame_needed = 1, uses_anonymous_args = 0
 1215              		@ link register save eliminated.
 1216 0000 80B4     		push	{r7}
 1217              	.LCFI88:
 1218              		.cfi_def_cfa_offset 4
 1219              		.cfi_offset 7, -4
 1220 0002 83B0     		sub	sp, sp, #12
 1221              	.LCFI89:
 1222              		.cfi_def_cfa_offset 16
 1223 0004 00AF     		add	r7, sp, #0
 1224              	.LCFI90:
 1225              		.cfi_def_cfa_register 7
 1226 0006 7860     		str	r0, [r7, #4]
 1227 0008 0B46     		mov	r3, r1
 1228 000a FB70     		strb	r3, [r7, #3]
 1229 000c 1346     		mov	r3, r2
 1230 000e BB70     		strb	r3, [r7, #2]
 603:./Libraries/STM32F10x_StdPeriph_Driver/src/stm32f10x_i2c.c ****   /* Check the parameters */
 604:./Libraries/STM32F10x_StdPeriph_Driver/src/stm32f10x_i2c.c ****   assert_param(IS_I2C_ALL_PERIPH(I2Cx));
 605:./Libraries/STM32F10x_StdPeriph_Driver/src/stm32f10x_i2c.c ****   assert_param(IS_I2C_DIRECTION(I2C_Direction));
 606:./Libraries/STM32F10x_StdPeriph_Driver/src/stm32f10x_i2c.c ****   /* Test on the direction to set/reset the read/write bit */
 607:./Libraries/STM32F10x_StdPeriph_Driver/src/stm32f10x_i2c.c ****   if (I2C_Direction != I2C_Direction_Transmitter)
 1231              		.loc 1 607 6
 1232 0010 BB78     		ldrb	r3, [r7, #2]	@ zero_extendqisi2
 1233 0012 002B     		cmp	r3, #0
 1234 0014 04D0     		beq	.L58
 608:./Libraries/STM32F10x_StdPeriph_Driver/src/stm32f10x_i2c.c ****   {
ARM GAS  C:\Users\hao\AppData\Local\Temp\ccgRypVa.s 			page 33


 609:./Libraries/STM32F10x_StdPeriph_Driver/src/stm32f10x_i2c.c ****     /* Set the address bit0 for read */
 610:./Libraries/STM32F10x_StdPeriph_Driver/src/stm32f10x_i2c.c ****     Address |= OAR1_ADD0_Set;
 1235              		.loc 1 610 13
 1236 0016 FB78     		ldrb	r3, [r7, #3]
 1237 0018 43F00103 		orr	r3, r3, #1
 1238 001c FB70     		strb	r3, [r7, #3]
 1239 001e 03E0     		b	.L59
 1240              	.L58:
 611:./Libraries/STM32F10x_StdPeriph_Driver/src/stm32f10x_i2c.c ****   }
 612:./Libraries/STM32F10x_StdPeriph_Driver/src/stm32f10x_i2c.c ****   else
 613:./Libraries/STM32F10x_StdPeriph_Driver/src/stm32f10x_i2c.c ****   {
 614:./Libraries/STM32F10x_StdPeriph_Driver/src/stm32f10x_i2c.c ****     /* Reset the address bit0 for write */
 615:./Libraries/STM32F10x_StdPeriph_Driver/src/stm32f10x_i2c.c ****     Address &= OAR1_ADD0_Reset;
 1241              		.loc 1 615 13
 1242 0020 FB78     		ldrb	r3, [r7, #3]
 1243 0022 23F00103 		bic	r3, r3, #1
 1244 0026 FB70     		strb	r3, [r7, #3]
 1245              	.L59:
 616:./Libraries/STM32F10x_StdPeriph_Driver/src/stm32f10x_i2c.c ****   }
 617:./Libraries/STM32F10x_StdPeriph_Driver/src/stm32f10x_i2c.c ****   /* Send the address */
 618:./Libraries/STM32F10x_StdPeriph_Driver/src/stm32f10x_i2c.c ****   I2Cx->DR = Address;
 1246              		.loc 1 618 12
 1247 0028 FB78     		ldrb	r3, [r7, #3]	@ zero_extendqisi2
 1248 002a 9AB2     		uxth	r2, r3
 1249 002c 7B68     		ldr	r3, [r7, #4]
 1250 002e 1A82     		strh	r2, [r3, #16]	@ movhi
 619:./Libraries/STM32F10x_StdPeriph_Driver/src/stm32f10x_i2c.c **** }
 1251              		.loc 1 619 1
 1252 0030 00BF     		nop
 1253 0032 0C37     		adds	r7, r7, #12
 1254              	.LCFI91:
 1255              		.cfi_def_cfa_offset 4
 1256 0034 BD46     		mov	sp, r7
 1257              	.LCFI92:
 1258              		.cfi_def_cfa_register 13
 1259              		@ sp needed
 1260 0036 80BC     		pop	{r7}
 1261              	.LCFI93:
 1262              		.cfi_restore 7
 1263              		.cfi_def_cfa_offset 0
 1264 0038 7047     		bx	lr
 1265              		.cfi_endproc
 1266              	.LFE44:
 1268              		.section	.text.I2C_ReadRegister,"ax",%progbits
 1269              		.align	1
 1270              		.global	I2C_ReadRegister
 1271              		.syntax unified
 1272              		.thumb
 1273              		.thumb_func
 1275              	I2C_ReadRegister:
 1276              	.LFB45:
 620:./Libraries/STM32F10x_StdPeriph_Driver/src/stm32f10x_i2c.c **** 
 621:./Libraries/STM32F10x_StdPeriph_Driver/src/stm32f10x_i2c.c **** /**
 622:./Libraries/STM32F10x_StdPeriph_Driver/src/stm32f10x_i2c.c ****   * @brief  Reads the specified I2C register and returns its value.
 623:./Libraries/STM32F10x_StdPeriph_Driver/src/stm32f10x_i2c.c ****   * @param  I2C_Register: specifies the register to read.
 624:./Libraries/STM32F10x_StdPeriph_Driver/src/stm32f10x_i2c.c ****   *   This parameter can be one of the following values:
 625:./Libraries/STM32F10x_StdPeriph_Driver/src/stm32f10x_i2c.c ****   *     @arg I2C_Register_CR1:  CR1 register.
ARM GAS  C:\Users\hao\AppData\Local\Temp\ccgRypVa.s 			page 34


 626:./Libraries/STM32F10x_StdPeriph_Driver/src/stm32f10x_i2c.c ****   *     @arg I2C_Register_CR2:   CR2 register.
 627:./Libraries/STM32F10x_StdPeriph_Driver/src/stm32f10x_i2c.c ****   *     @arg I2C_Register_OAR1:  OAR1 register.
 628:./Libraries/STM32F10x_StdPeriph_Driver/src/stm32f10x_i2c.c ****   *     @arg I2C_Register_OAR2:  OAR2 register.
 629:./Libraries/STM32F10x_StdPeriph_Driver/src/stm32f10x_i2c.c ****   *     @arg I2C_Register_DR:    DR register.
 630:./Libraries/STM32F10x_StdPeriph_Driver/src/stm32f10x_i2c.c ****   *     @arg I2C_Register_SR1:   SR1 register.
 631:./Libraries/STM32F10x_StdPeriph_Driver/src/stm32f10x_i2c.c ****   *     @arg I2C_Register_SR2:   SR2 register.
 632:./Libraries/STM32F10x_StdPeriph_Driver/src/stm32f10x_i2c.c ****   *     @arg I2C_Register_CCR:   CCR register.
 633:./Libraries/STM32F10x_StdPeriph_Driver/src/stm32f10x_i2c.c ****   *     @arg I2C_Register_TRISE: TRISE register.
 634:./Libraries/STM32F10x_StdPeriph_Driver/src/stm32f10x_i2c.c ****   * @retval The value of the read register.
 635:./Libraries/STM32F10x_StdPeriph_Driver/src/stm32f10x_i2c.c ****   */
 636:./Libraries/STM32F10x_StdPeriph_Driver/src/stm32f10x_i2c.c **** uint16_t I2C_ReadRegister(I2C_TypeDef* I2Cx, uint8_t I2C_Register)
 637:./Libraries/STM32F10x_StdPeriph_Driver/src/stm32f10x_i2c.c **** {
 1277              		.loc 1 637 1
 1278              		.cfi_startproc
 1279              		@ args = 0, pretend = 0, frame = 16
 1280              		@ frame_needed = 1, uses_anonymous_args = 0
 1281              		@ link register save eliminated.
 1282 0000 80B4     		push	{r7}
 1283              	.LCFI94:
 1284              		.cfi_def_cfa_offset 4
 1285              		.cfi_offset 7, -4
 1286 0002 85B0     		sub	sp, sp, #20
 1287              	.LCFI95:
 1288              		.cfi_def_cfa_offset 24
 1289 0004 00AF     		add	r7, sp, #0
 1290              	.LCFI96:
 1291              		.cfi_def_cfa_register 7
 1292 0006 7860     		str	r0, [r7, #4]
 1293 0008 0B46     		mov	r3, r1
 1294 000a FB70     		strb	r3, [r7, #3]
 638:./Libraries/STM32F10x_StdPeriph_Driver/src/stm32f10x_i2c.c ****   __IO uint32_t tmp = 0;
 1295              		.loc 1 638 17
 1296 000c 0023     		movs	r3, #0
 1297 000e FB60     		str	r3, [r7, #12]
 639:./Libraries/STM32F10x_StdPeriph_Driver/src/stm32f10x_i2c.c **** 
 640:./Libraries/STM32F10x_StdPeriph_Driver/src/stm32f10x_i2c.c ****   /* Check the parameters */
 641:./Libraries/STM32F10x_StdPeriph_Driver/src/stm32f10x_i2c.c ****   assert_param(IS_I2C_ALL_PERIPH(I2Cx));
 642:./Libraries/STM32F10x_StdPeriph_Driver/src/stm32f10x_i2c.c ****   assert_param(IS_I2C_REGISTER(I2C_Register));
 643:./Libraries/STM32F10x_StdPeriph_Driver/src/stm32f10x_i2c.c **** 
 644:./Libraries/STM32F10x_StdPeriph_Driver/src/stm32f10x_i2c.c ****   tmp = (uint32_t) I2Cx;
 1298              		.loc 1 644 9
 1299 0010 7B68     		ldr	r3, [r7, #4]
 1300              		.loc 1 644 7
 1301 0012 FB60     		str	r3, [r7, #12]
 645:./Libraries/STM32F10x_StdPeriph_Driver/src/stm32f10x_i2c.c ****   tmp += I2C_Register;
 1302              		.loc 1 645 7
 1303 0014 FA78     		ldrb	r2, [r7, #3]	@ zero_extendqisi2
 1304 0016 FB68     		ldr	r3, [r7, #12]
 1305 0018 1344     		add	r3, r3, r2
 1306 001a FB60     		str	r3, [r7, #12]
 646:./Libraries/STM32F10x_StdPeriph_Driver/src/stm32f10x_i2c.c **** 
 647:./Libraries/STM32F10x_StdPeriph_Driver/src/stm32f10x_i2c.c ****   /* Return the selected register value */
 648:./Libraries/STM32F10x_StdPeriph_Driver/src/stm32f10x_i2c.c ****   return (*(__IO uint16_t *) tmp);
 1307              		.loc 1 648 12
 1308 001c FB68     		ldr	r3, [r7, #12]
 1309              		.loc 1 648 11
 1310 001e 1B88     		ldrh	r3, [r3]	@ movhi
ARM GAS  C:\Users\hao\AppData\Local\Temp\ccgRypVa.s 			page 35


 1311 0020 9BB2     		uxth	r3, r3
 649:./Libraries/STM32F10x_StdPeriph_Driver/src/stm32f10x_i2c.c **** }
 1312              		.loc 1 649 1
 1313 0022 1846     		mov	r0, r3
 1314 0024 1437     		adds	r7, r7, #20
 1315              	.LCFI97:
 1316              		.cfi_def_cfa_offset 4
 1317 0026 BD46     		mov	sp, r7
 1318              	.LCFI98:
 1319              		.cfi_def_cfa_register 13
 1320              		@ sp needed
 1321 0028 80BC     		pop	{r7}
 1322              	.LCFI99:
 1323              		.cfi_restore 7
 1324              		.cfi_def_cfa_offset 0
 1325 002a 7047     		bx	lr
 1326              		.cfi_endproc
 1327              	.LFE45:
 1329              		.section	.text.I2C_SoftwareResetCmd,"ax",%progbits
 1330              		.align	1
 1331              		.global	I2C_SoftwareResetCmd
 1332              		.syntax unified
 1333              		.thumb
 1334              		.thumb_func
 1336              	I2C_SoftwareResetCmd:
 1337              	.LFB46:
 650:./Libraries/STM32F10x_StdPeriph_Driver/src/stm32f10x_i2c.c **** 
 651:./Libraries/STM32F10x_StdPeriph_Driver/src/stm32f10x_i2c.c **** /**
 652:./Libraries/STM32F10x_StdPeriph_Driver/src/stm32f10x_i2c.c ****   * @brief  Enables or disables the specified I2C software reset.
 653:./Libraries/STM32F10x_StdPeriph_Driver/src/stm32f10x_i2c.c ****   * @param  I2Cx: where x can be 1 or 2 to select the I2C peripheral.
 654:./Libraries/STM32F10x_StdPeriph_Driver/src/stm32f10x_i2c.c ****   * @param  NewState: new state of the I2C software reset.
 655:./Libraries/STM32F10x_StdPeriph_Driver/src/stm32f10x_i2c.c ****   *   This parameter can be: ENABLE or DISABLE.
 656:./Libraries/STM32F10x_StdPeriph_Driver/src/stm32f10x_i2c.c ****   * @retval None
 657:./Libraries/STM32F10x_StdPeriph_Driver/src/stm32f10x_i2c.c ****   */
 658:./Libraries/STM32F10x_StdPeriph_Driver/src/stm32f10x_i2c.c **** void I2C_SoftwareResetCmd(I2C_TypeDef* I2Cx, FunctionalState NewState)
 659:./Libraries/STM32F10x_StdPeriph_Driver/src/stm32f10x_i2c.c **** {
 1338              		.loc 1 659 1
 1339              		.cfi_startproc
 1340              		@ args = 0, pretend = 0, frame = 8
 1341              		@ frame_needed = 1, uses_anonymous_args = 0
 1342              		@ link register save eliminated.
 1343 0000 80B4     		push	{r7}
 1344              	.LCFI100:
 1345              		.cfi_def_cfa_offset 4
 1346              		.cfi_offset 7, -4
 1347 0002 83B0     		sub	sp, sp, #12
 1348              	.LCFI101:
 1349              		.cfi_def_cfa_offset 16
 1350 0004 00AF     		add	r7, sp, #0
 1351              	.LCFI102:
 1352              		.cfi_def_cfa_register 7
 1353 0006 7860     		str	r0, [r7, #4]
 1354 0008 0B46     		mov	r3, r1
 1355 000a FB70     		strb	r3, [r7, #3]
 660:./Libraries/STM32F10x_StdPeriph_Driver/src/stm32f10x_i2c.c ****   /* Check the parameters */
 661:./Libraries/STM32F10x_StdPeriph_Driver/src/stm32f10x_i2c.c ****   assert_param(IS_I2C_ALL_PERIPH(I2Cx));
 662:./Libraries/STM32F10x_StdPeriph_Driver/src/stm32f10x_i2c.c ****   assert_param(IS_FUNCTIONAL_STATE(NewState));
ARM GAS  C:\Users\hao\AppData\Local\Temp\ccgRypVa.s 			page 36


 663:./Libraries/STM32F10x_StdPeriph_Driver/src/stm32f10x_i2c.c ****   if (NewState != DISABLE)
 1356              		.loc 1 663 6
 1357 000c FB78     		ldrb	r3, [r7, #3]	@ zero_extendqisi2
 1358 000e 002B     		cmp	r3, #0
 1359 0010 0AD0     		beq	.L63
 664:./Libraries/STM32F10x_StdPeriph_Driver/src/stm32f10x_i2c.c ****   {
 665:./Libraries/STM32F10x_StdPeriph_Driver/src/stm32f10x_i2c.c ****     /* Peripheral under reset */
 666:./Libraries/STM32F10x_StdPeriph_Driver/src/stm32f10x_i2c.c ****     I2Cx->CR1 |= CR1_SWRST_Set;
 1360              		.loc 1 666 15
 1361 0012 7B68     		ldr	r3, [r7, #4]
 1362 0014 1B88     		ldrh	r3, [r3]	@ movhi
 1363 0016 9BB2     		uxth	r3, r3
 1364 0018 6FEA4343 		mvn	r3, r3, lsl #17
 1365 001c 6FEA5343 		mvn	r3, r3, lsr #17
 1366 0020 9AB2     		uxth	r2, r3
 1367 0022 7B68     		ldr	r3, [r7, #4]
 1368 0024 1A80     		strh	r2, [r3]	@ movhi
 667:./Libraries/STM32F10x_StdPeriph_Driver/src/stm32f10x_i2c.c ****   }
 668:./Libraries/STM32F10x_StdPeriph_Driver/src/stm32f10x_i2c.c ****   else
 669:./Libraries/STM32F10x_StdPeriph_Driver/src/stm32f10x_i2c.c ****   {
 670:./Libraries/STM32F10x_StdPeriph_Driver/src/stm32f10x_i2c.c ****     /* Peripheral not under reset */
 671:./Libraries/STM32F10x_StdPeriph_Driver/src/stm32f10x_i2c.c ****     I2Cx->CR1 &= CR1_SWRST_Reset;
 672:./Libraries/STM32F10x_StdPeriph_Driver/src/stm32f10x_i2c.c ****   }
 673:./Libraries/STM32F10x_StdPeriph_Driver/src/stm32f10x_i2c.c **** }
 1369              		.loc 1 673 1
 1370 0026 07E0     		b	.L65
 1371              	.L63:
 671:./Libraries/STM32F10x_StdPeriph_Driver/src/stm32f10x_i2c.c ****   }
 1372              		.loc 1 671 15
 1373 0028 7B68     		ldr	r3, [r7, #4]
 1374 002a 1B88     		ldrh	r3, [r3]	@ movhi
 1375 002c 9BB2     		uxth	r3, r3
 1376 002e C3F30E03 		ubfx	r3, r3, #0, #15
 1377 0032 9AB2     		uxth	r2, r3
 1378 0034 7B68     		ldr	r3, [r7, #4]
 1379 0036 1A80     		strh	r2, [r3]	@ movhi
 1380              	.L65:
 1381              		.loc 1 673 1
 1382 0038 00BF     		nop
 1383 003a 0C37     		adds	r7, r7, #12
 1384              	.LCFI103:
 1385              		.cfi_def_cfa_offset 4
 1386 003c BD46     		mov	sp, r7
 1387              	.LCFI104:
 1388              		.cfi_def_cfa_register 13
 1389              		@ sp needed
 1390 003e 80BC     		pop	{r7}
 1391              	.LCFI105:
 1392              		.cfi_restore 7
 1393              		.cfi_def_cfa_offset 0
 1394 0040 7047     		bx	lr
 1395              		.cfi_endproc
 1396              	.LFE46:
 1398              		.section	.text.I2C_NACKPositionConfig,"ax",%progbits
 1399              		.align	1
 1400              		.global	I2C_NACKPositionConfig
 1401              		.syntax unified
ARM GAS  C:\Users\hao\AppData\Local\Temp\ccgRypVa.s 			page 37


 1402              		.thumb
 1403              		.thumb_func
 1405              	I2C_NACKPositionConfig:
 1406              	.LFB47:
 674:./Libraries/STM32F10x_StdPeriph_Driver/src/stm32f10x_i2c.c **** 
 675:./Libraries/STM32F10x_StdPeriph_Driver/src/stm32f10x_i2c.c **** /**
 676:./Libraries/STM32F10x_StdPeriph_Driver/src/stm32f10x_i2c.c ****   * @brief  Selects the specified I2C NACK position in master receiver mode.
 677:./Libraries/STM32F10x_StdPeriph_Driver/src/stm32f10x_i2c.c ****   *         This function is useful in I2C Master Receiver mode when the number
 678:./Libraries/STM32F10x_StdPeriph_Driver/src/stm32f10x_i2c.c ****   *         of data to be received is equal to 2. In this case, this function 
 679:./Libraries/STM32F10x_StdPeriph_Driver/src/stm32f10x_i2c.c ****   *         should be called (with parameter I2C_NACKPosition_Next) before data 
 680:./Libraries/STM32F10x_StdPeriph_Driver/src/stm32f10x_i2c.c ****   *         reception starts,as described in the 2-byte reception procedure 
 681:./Libraries/STM32F10x_StdPeriph_Driver/src/stm32f10x_i2c.c ****   *         recommended in Reference Manual in Section: Master receiver.                
 682:./Libraries/STM32F10x_StdPeriph_Driver/src/stm32f10x_i2c.c ****   * @param  I2Cx: where x can be 1 or 2 to select the I2C peripheral.
 683:./Libraries/STM32F10x_StdPeriph_Driver/src/stm32f10x_i2c.c ****   * @param  I2C_NACKPosition: specifies the NACK position. 
 684:./Libraries/STM32F10x_StdPeriph_Driver/src/stm32f10x_i2c.c ****   *   This parameter can be one of the following values:
 685:./Libraries/STM32F10x_StdPeriph_Driver/src/stm32f10x_i2c.c ****   *     @arg I2C_NACKPosition_Next: indicates that the next byte will be the last
 686:./Libraries/STM32F10x_StdPeriph_Driver/src/stm32f10x_i2c.c ****   *          received byte.  
 687:./Libraries/STM32F10x_StdPeriph_Driver/src/stm32f10x_i2c.c ****   *     @arg I2C_NACKPosition_Current: indicates that current byte is the last 
 688:./Libraries/STM32F10x_StdPeriph_Driver/src/stm32f10x_i2c.c ****   *          received byte.
 689:./Libraries/STM32F10x_StdPeriph_Driver/src/stm32f10x_i2c.c ****   *            
 690:./Libraries/STM32F10x_StdPeriph_Driver/src/stm32f10x_i2c.c ****   * @note    This function configures the same bit (POS) as I2C_PECPositionConfig() 
 691:./Libraries/STM32F10x_StdPeriph_Driver/src/stm32f10x_i2c.c ****   *          but is intended to be used in I2C mode while I2C_PECPositionConfig() 
 692:./Libraries/STM32F10x_StdPeriph_Driver/src/stm32f10x_i2c.c ****   *          is intended to used in SMBUS mode. 
 693:./Libraries/STM32F10x_StdPeriph_Driver/src/stm32f10x_i2c.c ****   *            
 694:./Libraries/STM32F10x_StdPeriph_Driver/src/stm32f10x_i2c.c ****   * @retval None
 695:./Libraries/STM32F10x_StdPeriph_Driver/src/stm32f10x_i2c.c ****   */
 696:./Libraries/STM32F10x_StdPeriph_Driver/src/stm32f10x_i2c.c **** void I2C_NACKPositionConfig(I2C_TypeDef* I2Cx, uint16_t I2C_NACKPosition)
 697:./Libraries/STM32F10x_StdPeriph_Driver/src/stm32f10x_i2c.c **** {
 1407              		.loc 1 697 1
 1408              		.cfi_startproc
 1409              		@ args = 0, pretend = 0, frame = 8
 1410              		@ frame_needed = 1, uses_anonymous_args = 0
 1411              		@ link register save eliminated.
 1412 0000 80B4     		push	{r7}
 1413              	.LCFI106:
 1414              		.cfi_def_cfa_offset 4
 1415              		.cfi_offset 7, -4
 1416 0002 83B0     		sub	sp, sp, #12
 1417              	.LCFI107:
 1418              		.cfi_def_cfa_offset 16
 1419 0004 00AF     		add	r7, sp, #0
 1420              	.LCFI108:
 1421              		.cfi_def_cfa_register 7
 1422 0006 7860     		str	r0, [r7, #4]
 1423 0008 0B46     		mov	r3, r1
 1424 000a 7B80     		strh	r3, [r7, #2]	@ movhi
 698:./Libraries/STM32F10x_StdPeriph_Driver/src/stm32f10x_i2c.c ****   /* Check the parameters */
 699:./Libraries/STM32F10x_StdPeriph_Driver/src/stm32f10x_i2c.c ****   assert_param(IS_I2C_ALL_PERIPH(I2Cx));
 700:./Libraries/STM32F10x_StdPeriph_Driver/src/stm32f10x_i2c.c ****   assert_param(IS_I2C_NACK_POSITION(I2C_NACKPosition));
 701:./Libraries/STM32F10x_StdPeriph_Driver/src/stm32f10x_i2c.c ****   
 702:./Libraries/STM32F10x_StdPeriph_Driver/src/stm32f10x_i2c.c ****   /* Check the input parameter */
 703:./Libraries/STM32F10x_StdPeriph_Driver/src/stm32f10x_i2c.c ****   if (I2C_NACKPosition == I2C_NACKPosition_Next)
 1425              		.loc 1 703 6
 1426 000c 7B88     		ldrh	r3, [r7, #2]
 1427 000e B3F5006F 		cmp	r3, #2048
 1428 0012 08D1     		bne	.L67
 704:./Libraries/STM32F10x_StdPeriph_Driver/src/stm32f10x_i2c.c ****   {
ARM GAS  C:\Users\hao\AppData\Local\Temp\ccgRypVa.s 			page 38


 705:./Libraries/STM32F10x_StdPeriph_Driver/src/stm32f10x_i2c.c ****     /* Next byte in shift register is the last received byte */
 706:./Libraries/STM32F10x_StdPeriph_Driver/src/stm32f10x_i2c.c ****     I2Cx->CR1 |= I2C_NACKPosition_Next;
 1429              		.loc 1 706 15
 1430 0014 7B68     		ldr	r3, [r7, #4]
 1431 0016 1B88     		ldrh	r3, [r3]	@ movhi
 1432 0018 9BB2     		uxth	r3, r3
 1433 001a 43F40063 		orr	r3, r3, #2048
 1434 001e 9AB2     		uxth	r2, r3
 1435 0020 7B68     		ldr	r3, [r7, #4]
 1436 0022 1A80     		strh	r2, [r3]	@ movhi
 707:./Libraries/STM32F10x_StdPeriph_Driver/src/stm32f10x_i2c.c ****   }
 708:./Libraries/STM32F10x_StdPeriph_Driver/src/stm32f10x_i2c.c ****   else
 709:./Libraries/STM32F10x_StdPeriph_Driver/src/stm32f10x_i2c.c ****   {
 710:./Libraries/STM32F10x_StdPeriph_Driver/src/stm32f10x_i2c.c ****     /* Current byte in shift register is the last received byte */
 711:./Libraries/STM32F10x_StdPeriph_Driver/src/stm32f10x_i2c.c ****     I2Cx->CR1 &= I2C_NACKPosition_Current;
 712:./Libraries/STM32F10x_StdPeriph_Driver/src/stm32f10x_i2c.c ****   }
 713:./Libraries/STM32F10x_StdPeriph_Driver/src/stm32f10x_i2c.c **** }
 1437              		.loc 1 713 1
 1438 0024 07E0     		b	.L69
 1439              	.L67:
 711:./Libraries/STM32F10x_StdPeriph_Driver/src/stm32f10x_i2c.c ****   }
 1440              		.loc 1 711 15
 1441 0026 7B68     		ldr	r3, [r7, #4]
 1442 0028 1B88     		ldrh	r3, [r3]	@ movhi
 1443 002a 9BB2     		uxth	r3, r3
 1444 002c 23F40063 		bic	r3, r3, #2048
 1445 0030 9AB2     		uxth	r2, r3
 1446 0032 7B68     		ldr	r3, [r7, #4]
 1447 0034 1A80     		strh	r2, [r3]	@ movhi
 1448              	.L69:
 1449              		.loc 1 713 1
 1450 0036 00BF     		nop
 1451 0038 0C37     		adds	r7, r7, #12
 1452              	.LCFI109:
 1453              		.cfi_def_cfa_offset 4
 1454 003a BD46     		mov	sp, r7
 1455              	.LCFI110:
 1456              		.cfi_def_cfa_register 13
 1457              		@ sp needed
 1458 003c 80BC     		pop	{r7}
 1459              	.LCFI111:
 1460              		.cfi_restore 7
 1461              		.cfi_def_cfa_offset 0
 1462 003e 7047     		bx	lr
 1463              		.cfi_endproc
 1464              	.LFE47:
 1466              		.section	.text.I2C_SMBusAlertConfig,"ax",%progbits
 1467              		.align	1
 1468              		.global	I2C_SMBusAlertConfig
 1469              		.syntax unified
 1470              		.thumb
 1471              		.thumb_func
 1473              	I2C_SMBusAlertConfig:
 1474              	.LFB48:
 714:./Libraries/STM32F10x_StdPeriph_Driver/src/stm32f10x_i2c.c **** 
 715:./Libraries/STM32F10x_StdPeriph_Driver/src/stm32f10x_i2c.c **** /**
 716:./Libraries/STM32F10x_StdPeriph_Driver/src/stm32f10x_i2c.c ****   * @brief  Drives the SMBusAlert pin high or low for the specified I2C.
ARM GAS  C:\Users\hao\AppData\Local\Temp\ccgRypVa.s 			page 39


 717:./Libraries/STM32F10x_StdPeriph_Driver/src/stm32f10x_i2c.c ****   * @param  I2Cx: where x can be 1 or 2 to select the I2C peripheral.
 718:./Libraries/STM32F10x_StdPeriph_Driver/src/stm32f10x_i2c.c ****   * @param  I2C_SMBusAlert: specifies SMBAlert pin level. 
 719:./Libraries/STM32F10x_StdPeriph_Driver/src/stm32f10x_i2c.c ****   *   This parameter can be one of the following values:
 720:./Libraries/STM32F10x_StdPeriph_Driver/src/stm32f10x_i2c.c ****   *     @arg I2C_SMBusAlert_Low: SMBAlert pin driven low
 721:./Libraries/STM32F10x_StdPeriph_Driver/src/stm32f10x_i2c.c ****   *     @arg I2C_SMBusAlert_High: SMBAlert pin driven high
 722:./Libraries/STM32F10x_StdPeriph_Driver/src/stm32f10x_i2c.c ****   * @retval None
 723:./Libraries/STM32F10x_StdPeriph_Driver/src/stm32f10x_i2c.c ****   */
 724:./Libraries/STM32F10x_StdPeriph_Driver/src/stm32f10x_i2c.c **** void I2C_SMBusAlertConfig(I2C_TypeDef* I2Cx, uint16_t I2C_SMBusAlert)
 725:./Libraries/STM32F10x_StdPeriph_Driver/src/stm32f10x_i2c.c **** {
 1475              		.loc 1 725 1
 1476              		.cfi_startproc
 1477              		@ args = 0, pretend = 0, frame = 8
 1478              		@ frame_needed = 1, uses_anonymous_args = 0
 1479              		@ link register save eliminated.
 1480 0000 80B4     		push	{r7}
 1481              	.LCFI112:
 1482              		.cfi_def_cfa_offset 4
 1483              		.cfi_offset 7, -4
 1484 0002 83B0     		sub	sp, sp, #12
 1485              	.LCFI113:
 1486              		.cfi_def_cfa_offset 16
 1487 0004 00AF     		add	r7, sp, #0
 1488              	.LCFI114:
 1489              		.cfi_def_cfa_register 7
 1490 0006 7860     		str	r0, [r7, #4]
 1491 0008 0B46     		mov	r3, r1
 1492 000a 7B80     		strh	r3, [r7, #2]	@ movhi
 726:./Libraries/STM32F10x_StdPeriph_Driver/src/stm32f10x_i2c.c ****   /* Check the parameters */
 727:./Libraries/STM32F10x_StdPeriph_Driver/src/stm32f10x_i2c.c ****   assert_param(IS_I2C_ALL_PERIPH(I2Cx));
 728:./Libraries/STM32F10x_StdPeriph_Driver/src/stm32f10x_i2c.c ****   assert_param(IS_I2C_SMBUS_ALERT(I2C_SMBusAlert));
 729:./Libraries/STM32F10x_StdPeriph_Driver/src/stm32f10x_i2c.c ****   if (I2C_SMBusAlert == I2C_SMBusAlert_Low)
 1493              		.loc 1 729 6
 1494 000c 7B88     		ldrh	r3, [r7, #2]
 1495 000e B3F5005F 		cmp	r3, #8192
 1496 0012 08D1     		bne	.L71
 730:./Libraries/STM32F10x_StdPeriph_Driver/src/stm32f10x_i2c.c ****   {
 731:./Libraries/STM32F10x_StdPeriph_Driver/src/stm32f10x_i2c.c ****     /* Drive the SMBusAlert pin Low */
 732:./Libraries/STM32F10x_StdPeriph_Driver/src/stm32f10x_i2c.c ****     I2Cx->CR1 |= I2C_SMBusAlert_Low;
 1497              		.loc 1 732 15
 1498 0014 7B68     		ldr	r3, [r7, #4]
 1499 0016 1B88     		ldrh	r3, [r3]	@ movhi
 1500 0018 9BB2     		uxth	r3, r3
 1501 001a 43F40053 		orr	r3, r3, #8192
 1502 001e 9AB2     		uxth	r2, r3
 1503 0020 7B68     		ldr	r3, [r7, #4]
 1504 0022 1A80     		strh	r2, [r3]	@ movhi
 733:./Libraries/STM32F10x_StdPeriph_Driver/src/stm32f10x_i2c.c ****   }
 734:./Libraries/STM32F10x_StdPeriph_Driver/src/stm32f10x_i2c.c ****   else
 735:./Libraries/STM32F10x_StdPeriph_Driver/src/stm32f10x_i2c.c ****   {
 736:./Libraries/STM32F10x_StdPeriph_Driver/src/stm32f10x_i2c.c ****     /* Drive the SMBusAlert pin High  */
 737:./Libraries/STM32F10x_StdPeriph_Driver/src/stm32f10x_i2c.c ****     I2Cx->CR1 &= I2C_SMBusAlert_High;
 738:./Libraries/STM32F10x_StdPeriph_Driver/src/stm32f10x_i2c.c ****   }
 739:./Libraries/STM32F10x_StdPeriph_Driver/src/stm32f10x_i2c.c **** }
 1505              		.loc 1 739 1
 1506 0024 07E0     		b	.L73
 1507              	.L71:
 737:./Libraries/STM32F10x_StdPeriph_Driver/src/stm32f10x_i2c.c ****   }
ARM GAS  C:\Users\hao\AppData\Local\Temp\ccgRypVa.s 			page 40


 1508              		.loc 1 737 15
 1509 0026 7B68     		ldr	r3, [r7, #4]
 1510 0028 1B88     		ldrh	r3, [r3]	@ movhi
 1511 002a 9BB2     		uxth	r3, r3
 1512 002c 23F40053 		bic	r3, r3, #8192
 1513 0030 9AB2     		uxth	r2, r3
 1514 0032 7B68     		ldr	r3, [r7, #4]
 1515 0034 1A80     		strh	r2, [r3]	@ movhi
 1516              	.L73:
 1517              		.loc 1 739 1
 1518 0036 00BF     		nop
 1519 0038 0C37     		adds	r7, r7, #12
 1520              	.LCFI115:
 1521              		.cfi_def_cfa_offset 4
 1522 003a BD46     		mov	sp, r7
 1523              	.LCFI116:
 1524              		.cfi_def_cfa_register 13
 1525              		@ sp needed
 1526 003c 80BC     		pop	{r7}
 1527              	.LCFI117:
 1528              		.cfi_restore 7
 1529              		.cfi_def_cfa_offset 0
 1530 003e 7047     		bx	lr
 1531              		.cfi_endproc
 1532              	.LFE48:
 1534              		.section	.text.I2C_TransmitPEC,"ax",%progbits
 1535              		.align	1
 1536              		.global	I2C_TransmitPEC
 1537              		.syntax unified
 1538              		.thumb
 1539              		.thumb_func
 1541              	I2C_TransmitPEC:
 1542              	.LFB49:
 740:./Libraries/STM32F10x_StdPeriph_Driver/src/stm32f10x_i2c.c **** 
 741:./Libraries/STM32F10x_StdPeriph_Driver/src/stm32f10x_i2c.c **** /**
 742:./Libraries/STM32F10x_StdPeriph_Driver/src/stm32f10x_i2c.c ****   * @brief  Enables or disables the specified I2C PEC transfer.
 743:./Libraries/STM32F10x_StdPeriph_Driver/src/stm32f10x_i2c.c ****   * @param  I2Cx: where x can be 1 or 2 to select the I2C peripheral.
 744:./Libraries/STM32F10x_StdPeriph_Driver/src/stm32f10x_i2c.c ****   * @param  NewState: new state of the I2C PEC transmission.
 745:./Libraries/STM32F10x_StdPeriph_Driver/src/stm32f10x_i2c.c ****   *   This parameter can be: ENABLE or DISABLE.
 746:./Libraries/STM32F10x_StdPeriph_Driver/src/stm32f10x_i2c.c ****   * @retval None
 747:./Libraries/STM32F10x_StdPeriph_Driver/src/stm32f10x_i2c.c ****   */
 748:./Libraries/STM32F10x_StdPeriph_Driver/src/stm32f10x_i2c.c **** void I2C_TransmitPEC(I2C_TypeDef* I2Cx, FunctionalState NewState)
 749:./Libraries/STM32F10x_StdPeriph_Driver/src/stm32f10x_i2c.c **** {
 1543              		.loc 1 749 1
 1544              		.cfi_startproc
 1545              		@ args = 0, pretend = 0, frame = 8
 1546              		@ frame_needed = 1, uses_anonymous_args = 0
 1547              		@ link register save eliminated.
 1548 0000 80B4     		push	{r7}
 1549              	.LCFI118:
 1550              		.cfi_def_cfa_offset 4
 1551              		.cfi_offset 7, -4
 1552 0002 83B0     		sub	sp, sp, #12
 1553              	.LCFI119:
 1554              		.cfi_def_cfa_offset 16
 1555 0004 00AF     		add	r7, sp, #0
 1556              	.LCFI120:
ARM GAS  C:\Users\hao\AppData\Local\Temp\ccgRypVa.s 			page 41


 1557              		.cfi_def_cfa_register 7
 1558 0006 7860     		str	r0, [r7, #4]
 1559 0008 0B46     		mov	r3, r1
 1560 000a FB70     		strb	r3, [r7, #3]
 750:./Libraries/STM32F10x_StdPeriph_Driver/src/stm32f10x_i2c.c ****   /* Check the parameters */
 751:./Libraries/STM32F10x_StdPeriph_Driver/src/stm32f10x_i2c.c ****   assert_param(IS_I2C_ALL_PERIPH(I2Cx));
 752:./Libraries/STM32F10x_StdPeriph_Driver/src/stm32f10x_i2c.c ****   assert_param(IS_FUNCTIONAL_STATE(NewState));
 753:./Libraries/STM32F10x_StdPeriph_Driver/src/stm32f10x_i2c.c ****   if (NewState != DISABLE)
 1561              		.loc 1 753 6
 1562 000c FB78     		ldrb	r3, [r7, #3]	@ zero_extendqisi2
 1563 000e 002B     		cmp	r3, #0
 1564 0010 08D0     		beq	.L75
 754:./Libraries/STM32F10x_StdPeriph_Driver/src/stm32f10x_i2c.c ****   {
 755:./Libraries/STM32F10x_StdPeriph_Driver/src/stm32f10x_i2c.c ****     /* Enable the selected I2C PEC transmission */
 756:./Libraries/STM32F10x_StdPeriph_Driver/src/stm32f10x_i2c.c ****     I2Cx->CR1 |= CR1_PEC_Set;
 1565              		.loc 1 756 15
 1566 0012 7B68     		ldr	r3, [r7, #4]
 1567 0014 1B88     		ldrh	r3, [r3]	@ movhi
 1568 0016 9BB2     		uxth	r3, r3
 1569 0018 43F48053 		orr	r3, r3, #4096
 1570 001c 9AB2     		uxth	r2, r3
 1571 001e 7B68     		ldr	r3, [r7, #4]
 1572 0020 1A80     		strh	r2, [r3]	@ movhi
 757:./Libraries/STM32F10x_StdPeriph_Driver/src/stm32f10x_i2c.c ****   }
 758:./Libraries/STM32F10x_StdPeriph_Driver/src/stm32f10x_i2c.c ****   else
 759:./Libraries/STM32F10x_StdPeriph_Driver/src/stm32f10x_i2c.c ****   {
 760:./Libraries/STM32F10x_StdPeriph_Driver/src/stm32f10x_i2c.c ****     /* Disable the selected I2C PEC transmission */
 761:./Libraries/STM32F10x_StdPeriph_Driver/src/stm32f10x_i2c.c ****     I2Cx->CR1 &= CR1_PEC_Reset;
 762:./Libraries/STM32F10x_StdPeriph_Driver/src/stm32f10x_i2c.c ****   }
 763:./Libraries/STM32F10x_StdPeriph_Driver/src/stm32f10x_i2c.c **** }
 1573              		.loc 1 763 1
 1574 0022 07E0     		b	.L77
 1575              	.L75:
 761:./Libraries/STM32F10x_StdPeriph_Driver/src/stm32f10x_i2c.c ****   }
 1576              		.loc 1 761 15
 1577 0024 7B68     		ldr	r3, [r7, #4]
 1578 0026 1B88     		ldrh	r3, [r3]	@ movhi
 1579 0028 9BB2     		uxth	r3, r3
 1580 002a 23F48053 		bic	r3, r3, #4096
 1581 002e 9AB2     		uxth	r2, r3
 1582 0030 7B68     		ldr	r3, [r7, #4]
 1583 0032 1A80     		strh	r2, [r3]	@ movhi
 1584              	.L77:
 1585              		.loc 1 763 1
 1586 0034 00BF     		nop
 1587 0036 0C37     		adds	r7, r7, #12
 1588              	.LCFI121:
 1589              		.cfi_def_cfa_offset 4
 1590 0038 BD46     		mov	sp, r7
 1591              	.LCFI122:
 1592              		.cfi_def_cfa_register 13
 1593              		@ sp needed
 1594 003a 80BC     		pop	{r7}
 1595              	.LCFI123:
 1596              		.cfi_restore 7
 1597              		.cfi_def_cfa_offset 0
 1598 003c 7047     		bx	lr
ARM GAS  C:\Users\hao\AppData\Local\Temp\ccgRypVa.s 			page 42


 1599              		.cfi_endproc
 1600              	.LFE49:
 1602              		.section	.text.I2C_PECPositionConfig,"ax",%progbits
 1603              		.align	1
 1604              		.global	I2C_PECPositionConfig
 1605              		.syntax unified
 1606              		.thumb
 1607              		.thumb_func
 1609              	I2C_PECPositionConfig:
 1610              	.LFB50:
 764:./Libraries/STM32F10x_StdPeriph_Driver/src/stm32f10x_i2c.c **** 
 765:./Libraries/STM32F10x_StdPeriph_Driver/src/stm32f10x_i2c.c **** /**
 766:./Libraries/STM32F10x_StdPeriph_Driver/src/stm32f10x_i2c.c ****   * @brief  Selects the specified I2C PEC position.
 767:./Libraries/STM32F10x_StdPeriph_Driver/src/stm32f10x_i2c.c ****   * @param  I2Cx: where x can be 1 or 2 to select the I2C peripheral.
 768:./Libraries/STM32F10x_StdPeriph_Driver/src/stm32f10x_i2c.c ****   * @param  I2C_PECPosition: specifies the PEC position. 
 769:./Libraries/STM32F10x_StdPeriph_Driver/src/stm32f10x_i2c.c ****   *   This parameter can be one of the following values:
 770:./Libraries/STM32F10x_StdPeriph_Driver/src/stm32f10x_i2c.c ****   *     @arg I2C_PECPosition_Next: indicates that the next byte is PEC
 771:./Libraries/STM32F10x_StdPeriph_Driver/src/stm32f10x_i2c.c ****   *     @arg I2C_PECPosition_Current: indicates that current byte is PEC
 772:./Libraries/STM32F10x_StdPeriph_Driver/src/stm32f10x_i2c.c ****   *       
 773:./Libraries/STM32F10x_StdPeriph_Driver/src/stm32f10x_i2c.c ****   * @note    This function configures the same bit (POS) as I2C_NACKPositionConfig()
 774:./Libraries/STM32F10x_StdPeriph_Driver/src/stm32f10x_i2c.c ****   *          but is intended to be used in SMBUS mode while I2C_NACKPositionConfig() 
 775:./Libraries/STM32F10x_StdPeriph_Driver/src/stm32f10x_i2c.c ****   *          is intended to used in I2C mode.
 776:./Libraries/STM32F10x_StdPeriph_Driver/src/stm32f10x_i2c.c ****   *               
 777:./Libraries/STM32F10x_StdPeriph_Driver/src/stm32f10x_i2c.c ****   * @retval None
 778:./Libraries/STM32F10x_StdPeriph_Driver/src/stm32f10x_i2c.c ****   */
 779:./Libraries/STM32F10x_StdPeriph_Driver/src/stm32f10x_i2c.c **** void I2C_PECPositionConfig(I2C_TypeDef* I2Cx, uint16_t I2C_PECPosition)
 780:./Libraries/STM32F10x_StdPeriph_Driver/src/stm32f10x_i2c.c **** {
 1611              		.loc 1 780 1
 1612              		.cfi_startproc
 1613              		@ args = 0, pretend = 0, frame = 8
 1614              		@ frame_needed = 1, uses_anonymous_args = 0
 1615              		@ link register save eliminated.
 1616 0000 80B4     		push	{r7}
 1617              	.LCFI124:
 1618              		.cfi_def_cfa_offset 4
 1619              		.cfi_offset 7, -4
 1620 0002 83B0     		sub	sp, sp, #12
 1621              	.LCFI125:
 1622              		.cfi_def_cfa_offset 16
 1623 0004 00AF     		add	r7, sp, #0
 1624              	.LCFI126:
 1625              		.cfi_def_cfa_register 7
 1626 0006 7860     		str	r0, [r7, #4]
 1627 0008 0B46     		mov	r3, r1
 1628 000a 7B80     		strh	r3, [r7, #2]	@ movhi
 781:./Libraries/STM32F10x_StdPeriph_Driver/src/stm32f10x_i2c.c ****   /* Check the parameters */
 782:./Libraries/STM32F10x_StdPeriph_Driver/src/stm32f10x_i2c.c ****   assert_param(IS_I2C_ALL_PERIPH(I2Cx));
 783:./Libraries/STM32F10x_StdPeriph_Driver/src/stm32f10x_i2c.c ****   assert_param(IS_I2C_PEC_POSITION(I2C_PECPosition));
 784:./Libraries/STM32F10x_StdPeriph_Driver/src/stm32f10x_i2c.c ****   if (I2C_PECPosition == I2C_PECPosition_Next)
 1629              		.loc 1 784 6
 1630 000c 7B88     		ldrh	r3, [r7, #2]
 1631 000e B3F5006F 		cmp	r3, #2048
 1632 0012 08D1     		bne	.L79
 785:./Libraries/STM32F10x_StdPeriph_Driver/src/stm32f10x_i2c.c ****   {
 786:./Libraries/STM32F10x_StdPeriph_Driver/src/stm32f10x_i2c.c ****     /* Next byte in shift register is PEC */
 787:./Libraries/STM32F10x_StdPeriph_Driver/src/stm32f10x_i2c.c ****     I2Cx->CR1 |= I2C_PECPosition_Next;
 1633              		.loc 1 787 15
ARM GAS  C:\Users\hao\AppData\Local\Temp\ccgRypVa.s 			page 43


 1634 0014 7B68     		ldr	r3, [r7, #4]
 1635 0016 1B88     		ldrh	r3, [r3]	@ movhi
 1636 0018 9BB2     		uxth	r3, r3
 1637 001a 43F40063 		orr	r3, r3, #2048
 1638 001e 9AB2     		uxth	r2, r3
 1639 0020 7B68     		ldr	r3, [r7, #4]
 1640 0022 1A80     		strh	r2, [r3]	@ movhi
 788:./Libraries/STM32F10x_StdPeriph_Driver/src/stm32f10x_i2c.c ****   }
 789:./Libraries/STM32F10x_StdPeriph_Driver/src/stm32f10x_i2c.c ****   else
 790:./Libraries/STM32F10x_StdPeriph_Driver/src/stm32f10x_i2c.c ****   {
 791:./Libraries/STM32F10x_StdPeriph_Driver/src/stm32f10x_i2c.c ****     /* Current byte in shift register is PEC */
 792:./Libraries/STM32F10x_StdPeriph_Driver/src/stm32f10x_i2c.c ****     I2Cx->CR1 &= I2C_PECPosition_Current;
 793:./Libraries/STM32F10x_StdPeriph_Driver/src/stm32f10x_i2c.c ****   }
 794:./Libraries/STM32F10x_StdPeriph_Driver/src/stm32f10x_i2c.c **** }
 1641              		.loc 1 794 1
 1642 0024 07E0     		b	.L81
 1643              	.L79:
 792:./Libraries/STM32F10x_StdPeriph_Driver/src/stm32f10x_i2c.c ****   }
 1644              		.loc 1 792 15
 1645 0026 7B68     		ldr	r3, [r7, #4]
 1646 0028 1B88     		ldrh	r3, [r3]	@ movhi
 1647 002a 9BB2     		uxth	r3, r3
 1648 002c 23F40063 		bic	r3, r3, #2048
 1649 0030 9AB2     		uxth	r2, r3
 1650 0032 7B68     		ldr	r3, [r7, #4]
 1651 0034 1A80     		strh	r2, [r3]	@ movhi
 1652              	.L81:
 1653              		.loc 1 794 1
 1654 0036 00BF     		nop
 1655 0038 0C37     		adds	r7, r7, #12
 1656              	.LCFI127:
 1657              		.cfi_def_cfa_offset 4
 1658 003a BD46     		mov	sp, r7
 1659              	.LCFI128:
 1660              		.cfi_def_cfa_register 13
 1661              		@ sp needed
 1662 003c 80BC     		pop	{r7}
 1663              	.LCFI129:
 1664              		.cfi_restore 7
 1665              		.cfi_def_cfa_offset 0
 1666 003e 7047     		bx	lr
 1667              		.cfi_endproc
 1668              	.LFE50:
 1670              		.section	.text.I2C_CalculatePEC,"ax",%progbits
 1671              		.align	1
 1672              		.global	I2C_CalculatePEC
 1673              		.syntax unified
 1674              		.thumb
 1675              		.thumb_func
 1677              	I2C_CalculatePEC:
 1678              	.LFB51:
 795:./Libraries/STM32F10x_StdPeriph_Driver/src/stm32f10x_i2c.c **** 
 796:./Libraries/STM32F10x_StdPeriph_Driver/src/stm32f10x_i2c.c **** /**
 797:./Libraries/STM32F10x_StdPeriph_Driver/src/stm32f10x_i2c.c ****   * @brief  Enables or disables the PEC value calculation of the transferred bytes.
 798:./Libraries/STM32F10x_StdPeriph_Driver/src/stm32f10x_i2c.c ****   * @param  I2Cx: where x can be 1 or 2 to select the I2C peripheral.
 799:./Libraries/STM32F10x_StdPeriph_Driver/src/stm32f10x_i2c.c ****   * @param  NewState: new state of the I2Cx PEC value calculation.
 800:./Libraries/STM32F10x_StdPeriph_Driver/src/stm32f10x_i2c.c ****   *   This parameter can be: ENABLE or DISABLE.
ARM GAS  C:\Users\hao\AppData\Local\Temp\ccgRypVa.s 			page 44


 801:./Libraries/STM32F10x_StdPeriph_Driver/src/stm32f10x_i2c.c ****   * @retval None
 802:./Libraries/STM32F10x_StdPeriph_Driver/src/stm32f10x_i2c.c ****   */
 803:./Libraries/STM32F10x_StdPeriph_Driver/src/stm32f10x_i2c.c **** void I2C_CalculatePEC(I2C_TypeDef* I2Cx, FunctionalState NewState)
 804:./Libraries/STM32F10x_StdPeriph_Driver/src/stm32f10x_i2c.c **** {
 1679              		.loc 1 804 1
 1680              		.cfi_startproc
 1681              		@ args = 0, pretend = 0, frame = 8
 1682              		@ frame_needed = 1, uses_anonymous_args = 0
 1683              		@ link register save eliminated.
 1684 0000 80B4     		push	{r7}
 1685              	.LCFI130:
 1686              		.cfi_def_cfa_offset 4
 1687              		.cfi_offset 7, -4
 1688 0002 83B0     		sub	sp, sp, #12
 1689              	.LCFI131:
 1690              		.cfi_def_cfa_offset 16
 1691 0004 00AF     		add	r7, sp, #0
 1692              	.LCFI132:
 1693              		.cfi_def_cfa_register 7
 1694 0006 7860     		str	r0, [r7, #4]
 1695 0008 0B46     		mov	r3, r1
 1696 000a FB70     		strb	r3, [r7, #3]
 805:./Libraries/STM32F10x_StdPeriph_Driver/src/stm32f10x_i2c.c ****   /* Check the parameters */
 806:./Libraries/STM32F10x_StdPeriph_Driver/src/stm32f10x_i2c.c ****   assert_param(IS_I2C_ALL_PERIPH(I2Cx));
 807:./Libraries/STM32F10x_StdPeriph_Driver/src/stm32f10x_i2c.c ****   assert_param(IS_FUNCTIONAL_STATE(NewState));
 808:./Libraries/STM32F10x_StdPeriph_Driver/src/stm32f10x_i2c.c ****   if (NewState != DISABLE)
 1697              		.loc 1 808 6
 1698 000c FB78     		ldrb	r3, [r7, #3]	@ zero_extendqisi2
 1699 000e 002B     		cmp	r3, #0
 1700 0010 08D0     		beq	.L83
 809:./Libraries/STM32F10x_StdPeriph_Driver/src/stm32f10x_i2c.c ****   {
 810:./Libraries/STM32F10x_StdPeriph_Driver/src/stm32f10x_i2c.c ****     /* Enable the selected I2C PEC calculation */
 811:./Libraries/STM32F10x_StdPeriph_Driver/src/stm32f10x_i2c.c ****     I2Cx->CR1 |= CR1_ENPEC_Set;
 1701              		.loc 1 811 15
 1702 0012 7B68     		ldr	r3, [r7, #4]
 1703 0014 1B88     		ldrh	r3, [r3]	@ movhi
 1704 0016 9BB2     		uxth	r3, r3
 1705 0018 43F02003 		orr	r3, r3, #32
 1706 001c 9AB2     		uxth	r2, r3
 1707 001e 7B68     		ldr	r3, [r7, #4]
 1708 0020 1A80     		strh	r2, [r3]	@ movhi
 812:./Libraries/STM32F10x_StdPeriph_Driver/src/stm32f10x_i2c.c ****   }
 813:./Libraries/STM32F10x_StdPeriph_Driver/src/stm32f10x_i2c.c ****   else
 814:./Libraries/STM32F10x_StdPeriph_Driver/src/stm32f10x_i2c.c ****   {
 815:./Libraries/STM32F10x_StdPeriph_Driver/src/stm32f10x_i2c.c ****     /* Disable the selected I2C PEC calculation */
 816:./Libraries/STM32F10x_StdPeriph_Driver/src/stm32f10x_i2c.c ****     I2Cx->CR1 &= CR1_ENPEC_Reset;
 817:./Libraries/STM32F10x_StdPeriph_Driver/src/stm32f10x_i2c.c ****   }
 818:./Libraries/STM32F10x_StdPeriph_Driver/src/stm32f10x_i2c.c **** }
 1709              		.loc 1 818 1
 1710 0022 07E0     		b	.L85
 1711              	.L83:
 816:./Libraries/STM32F10x_StdPeriph_Driver/src/stm32f10x_i2c.c ****   }
 1712              		.loc 1 816 15
 1713 0024 7B68     		ldr	r3, [r7, #4]
 1714 0026 1B88     		ldrh	r3, [r3]	@ movhi
 1715 0028 9BB2     		uxth	r3, r3
 1716 002a 23F02003 		bic	r3, r3, #32
ARM GAS  C:\Users\hao\AppData\Local\Temp\ccgRypVa.s 			page 45


 1717 002e 9AB2     		uxth	r2, r3
 1718 0030 7B68     		ldr	r3, [r7, #4]
 1719 0032 1A80     		strh	r2, [r3]	@ movhi
 1720              	.L85:
 1721              		.loc 1 818 1
 1722 0034 00BF     		nop
 1723 0036 0C37     		adds	r7, r7, #12
 1724              	.LCFI133:
 1725              		.cfi_def_cfa_offset 4
 1726 0038 BD46     		mov	sp, r7
 1727              	.LCFI134:
 1728              		.cfi_def_cfa_register 13
 1729              		@ sp needed
 1730 003a 80BC     		pop	{r7}
 1731              	.LCFI135:
 1732              		.cfi_restore 7
 1733              		.cfi_def_cfa_offset 0
 1734 003c 7047     		bx	lr
 1735              		.cfi_endproc
 1736              	.LFE51:
 1738              		.section	.text.I2C_GetPEC,"ax",%progbits
 1739              		.align	1
 1740              		.global	I2C_GetPEC
 1741              		.syntax unified
 1742              		.thumb
 1743              		.thumb_func
 1745              	I2C_GetPEC:
 1746              	.LFB52:
 819:./Libraries/STM32F10x_StdPeriph_Driver/src/stm32f10x_i2c.c **** 
 820:./Libraries/STM32F10x_StdPeriph_Driver/src/stm32f10x_i2c.c **** /**
 821:./Libraries/STM32F10x_StdPeriph_Driver/src/stm32f10x_i2c.c ****   * @brief  Returns the PEC value for the specified I2C.
 822:./Libraries/STM32F10x_StdPeriph_Driver/src/stm32f10x_i2c.c ****   * @param  I2Cx: where x can be 1 or 2 to select the I2C peripheral.
 823:./Libraries/STM32F10x_StdPeriph_Driver/src/stm32f10x_i2c.c ****   * @retval The PEC value.
 824:./Libraries/STM32F10x_StdPeriph_Driver/src/stm32f10x_i2c.c ****   */
 825:./Libraries/STM32F10x_StdPeriph_Driver/src/stm32f10x_i2c.c **** uint8_t I2C_GetPEC(I2C_TypeDef* I2Cx)
 826:./Libraries/STM32F10x_StdPeriph_Driver/src/stm32f10x_i2c.c **** {
 1747              		.loc 1 826 1
 1748              		.cfi_startproc
 1749              		@ args = 0, pretend = 0, frame = 8
 1750              		@ frame_needed = 1, uses_anonymous_args = 0
 1751              		@ link register save eliminated.
 1752 0000 80B4     		push	{r7}
 1753              	.LCFI136:
 1754              		.cfi_def_cfa_offset 4
 1755              		.cfi_offset 7, -4
 1756 0002 83B0     		sub	sp, sp, #12
 1757              	.LCFI137:
 1758              		.cfi_def_cfa_offset 16
 1759 0004 00AF     		add	r7, sp, #0
 1760              	.LCFI138:
 1761              		.cfi_def_cfa_register 7
 1762 0006 7860     		str	r0, [r7, #4]
 827:./Libraries/STM32F10x_StdPeriph_Driver/src/stm32f10x_i2c.c ****   /* Check the parameters */
 828:./Libraries/STM32F10x_StdPeriph_Driver/src/stm32f10x_i2c.c ****   assert_param(IS_I2C_ALL_PERIPH(I2Cx));
 829:./Libraries/STM32F10x_StdPeriph_Driver/src/stm32f10x_i2c.c ****   /* Return the selected I2C PEC value */
 830:./Libraries/STM32F10x_StdPeriph_Driver/src/stm32f10x_i2c.c ****   return ((I2Cx->SR2) >> 8);
 1763              		.loc 1 830 16
ARM GAS  C:\Users\hao\AppData\Local\Temp\ccgRypVa.s 			page 46


 1764 0008 7B68     		ldr	r3, [r7, #4]
 1765 000a 1B8B     		ldrh	r3, [r3, #24]	@ movhi
 1766 000c 9BB2     		uxth	r3, r3
 1767              		.loc 1 830 23
 1768 000e 1B0A     		lsrs	r3, r3, #8
 1769 0010 9BB2     		uxth	r3, r3
 1770 0012 DBB2     		uxtb	r3, r3
 831:./Libraries/STM32F10x_StdPeriph_Driver/src/stm32f10x_i2c.c **** }
 1771              		.loc 1 831 1
 1772 0014 1846     		mov	r0, r3
 1773 0016 0C37     		adds	r7, r7, #12
 1774              	.LCFI139:
 1775              		.cfi_def_cfa_offset 4
 1776 0018 BD46     		mov	sp, r7
 1777              	.LCFI140:
 1778              		.cfi_def_cfa_register 13
 1779              		@ sp needed
 1780 001a 80BC     		pop	{r7}
 1781              	.LCFI141:
 1782              		.cfi_restore 7
 1783              		.cfi_def_cfa_offset 0
 1784 001c 7047     		bx	lr
 1785              		.cfi_endproc
 1786              	.LFE52:
 1788              		.section	.text.I2C_ARPCmd,"ax",%progbits
 1789              		.align	1
 1790              		.global	I2C_ARPCmd
 1791              		.syntax unified
 1792              		.thumb
 1793              		.thumb_func
 1795              	I2C_ARPCmd:
 1796              	.LFB53:
 832:./Libraries/STM32F10x_StdPeriph_Driver/src/stm32f10x_i2c.c **** 
 833:./Libraries/STM32F10x_StdPeriph_Driver/src/stm32f10x_i2c.c **** /**
 834:./Libraries/STM32F10x_StdPeriph_Driver/src/stm32f10x_i2c.c ****   * @brief  Enables or disables the specified I2C ARP.
 835:./Libraries/STM32F10x_StdPeriph_Driver/src/stm32f10x_i2c.c ****   * @param  I2Cx: where x can be 1 or 2 to select the I2C peripheral.
 836:./Libraries/STM32F10x_StdPeriph_Driver/src/stm32f10x_i2c.c ****   * @param  NewState: new state of the I2Cx ARP. 
 837:./Libraries/STM32F10x_StdPeriph_Driver/src/stm32f10x_i2c.c ****   *   This parameter can be: ENABLE or DISABLE.
 838:./Libraries/STM32F10x_StdPeriph_Driver/src/stm32f10x_i2c.c ****   * @retval None
 839:./Libraries/STM32F10x_StdPeriph_Driver/src/stm32f10x_i2c.c ****   */
 840:./Libraries/STM32F10x_StdPeriph_Driver/src/stm32f10x_i2c.c **** void I2C_ARPCmd(I2C_TypeDef* I2Cx, FunctionalState NewState)
 841:./Libraries/STM32F10x_StdPeriph_Driver/src/stm32f10x_i2c.c **** {
 1797              		.loc 1 841 1
 1798              		.cfi_startproc
 1799              		@ args = 0, pretend = 0, frame = 8
 1800              		@ frame_needed = 1, uses_anonymous_args = 0
 1801              		@ link register save eliminated.
 1802 0000 80B4     		push	{r7}
 1803              	.LCFI142:
 1804              		.cfi_def_cfa_offset 4
 1805              		.cfi_offset 7, -4
 1806 0002 83B0     		sub	sp, sp, #12
 1807              	.LCFI143:
 1808              		.cfi_def_cfa_offset 16
 1809 0004 00AF     		add	r7, sp, #0
 1810              	.LCFI144:
 1811              		.cfi_def_cfa_register 7
ARM GAS  C:\Users\hao\AppData\Local\Temp\ccgRypVa.s 			page 47


 1812 0006 7860     		str	r0, [r7, #4]
 1813 0008 0B46     		mov	r3, r1
 1814 000a FB70     		strb	r3, [r7, #3]
 842:./Libraries/STM32F10x_StdPeriph_Driver/src/stm32f10x_i2c.c ****   /* Check the parameters */
 843:./Libraries/STM32F10x_StdPeriph_Driver/src/stm32f10x_i2c.c ****   assert_param(IS_I2C_ALL_PERIPH(I2Cx));
 844:./Libraries/STM32F10x_StdPeriph_Driver/src/stm32f10x_i2c.c ****   assert_param(IS_FUNCTIONAL_STATE(NewState));
 845:./Libraries/STM32F10x_StdPeriph_Driver/src/stm32f10x_i2c.c ****   if (NewState != DISABLE)
 1815              		.loc 1 845 6
 1816 000c FB78     		ldrb	r3, [r7, #3]	@ zero_extendqisi2
 1817 000e 002B     		cmp	r3, #0
 1818 0010 08D0     		beq	.L89
 846:./Libraries/STM32F10x_StdPeriph_Driver/src/stm32f10x_i2c.c ****   {
 847:./Libraries/STM32F10x_StdPeriph_Driver/src/stm32f10x_i2c.c ****     /* Enable the selected I2C ARP */
 848:./Libraries/STM32F10x_StdPeriph_Driver/src/stm32f10x_i2c.c ****     I2Cx->CR1 |= CR1_ENARP_Set;
 1819              		.loc 1 848 15
 1820 0012 7B68     		ldr	r3, [r7, #4]
 1821 0014 1B88     		ldrh	r3, [r3]	@ movhi
 1822 0016 9BB2     		uxth	r3, r3
 1823 0018 43F01003 		orr	r3, r3, #16
 1824 001c 9AB2     		uxth	r2, r3
 1825 001e 7B68     		ldr	r3, [r7, #4]
 1826 0020 1A80     		strh	r2, [r3]	@ movhi
 849:./Libraries/STM32F10x_StdPeriph_Driver/src/stm32f10x_i2c.c ****   }
 850:./Libraries/STM32F10x_StdPeriph_Driver/src/stm32f10x_i2c.c ****   else
 851:./Libraries/STM32F10x_StdPeriph_Driver/src/stm32f10x_i2c.c ****   {
 852:./Libraries/STM32F10x_StdPeriph_Driver/src/stm32f10x_i2c.c ****     /* Disable the selected I2C ARP */
 853:./Libraries/STM32F10x_StdPeriph_Driver/src/stm32f10x_i2c.c ****     I2Cx->CR1 &= CR1_ENARP_Reset;
 854:./Libraries/STM32F10x_StdPeriph_Driver/src/stm32f10x_i2c.c ****   }
 855:./Libraries/STM32F10x_StdPeriph_Driver/src/stm32f10x_i2c.c **** }
 1827              		.loc 1 855 1
 1828 0022 07E0     		b	.L91
 1829              	.L89:
 853:./Libraries/STM32F10x_StdPeriph_Driver/src/stm32f10x_i2c.c ****   }
 1830              		.loc 1 853 15
 1831 0024 7B68     		ldr	r3, [r7, #4]
 1832 0026 1B88     		ldrh	r3, [r3]	@ movhi
 1833 0028 9BB2     		uxth	r3, r3
 1834 002a 23F01003 		bic	r3, r3, #16
 1835 002e 9AB2     		uxth	r2, r3
 1836 0030 7B68     		ldr	r3, [r7, #4]
 1837 0032 1A80     		strh	r2, [r3]	@ movhi
 1838              	.L91:
 1839              		.loc 1 855 1
 1840 0034 00BF     		nop
 1841 0036 0C37     		adds	r7, r7, #12
 1842              	.LCFI145:
 1843              		.cfi_def_cfa_offset 4
 1844 0038 BD46     		mov	sp, r7
 1845              	.LCFI146:
 1846              		.cfi_def_cfa_register 13
 1847              		@ sp needed
 1848 003a 80BC     		pop	{r7}
 1849              	.LCFI147:
 1850              		.cfi_restore 7
 1851              		.cfi_def_cfa_offset 0
 1852 003c 7047     		bx	lr
 1853              		.cfi_endproc
ARM GAS  C:\Users\hao\AppData\Local\Temp\ccgRypVa.s 			page 48


 1854              	.LFE53:
 1856              		.section	.text.I2C_StretchClockCmd,"ax",%progbits
 1857              		.align	1
 1858              		.global	I2C_StretchClockCmd
 1859              		.syntax unified
 1860              		.thumb
 1861              		.thumb_func
 1863              	I2C_StretchClockCmd:
 1864              	.LFB54:
 856:./Libraries/STM32F10x_StdPeriph_Driver/src/stm32f10x_i2c.c **** 
 857:./Libraries/STM32F10x_StdPeriph_Driver/src/stm32f10x_i2c.c **** /**
 858:./Libraries/STM32F10x_StdPeriph_Driver/src/stm32f10x_i2c.c ****   * @brief  Enables or disables the specified I2C Clock stretching.
 859:./Libraries/STM32F10x_StdPeriph_Driver/src/stm32f10x_i2c.c ****   * @param  I2Cx: where x can be 1 or 2 to select the I2C peripheral.
 860:./Libraries/STM32F10x_StdPeriph_Driver/src/stm32f10x_i2c.c ****   * @param  NewState: new state of the I2Cx Clock stretching.
 861:./Libraries/STM32F10x_StdPeriph_Driver/src/stm32f10x_i2c.c ****   *   This parameter can be: ENABLE or DISABLE.
 862:./Libraries/STM32F10x_StdPeriph_Driver/src/stm32f10x_i2c.c ****   * @retval None
 863:./Libraries/STM32F10x_StdPeriph_Driver/src/stm32f10x_i2c.c ****   */
 864:./Libraries/STM32F10x_StdPeriph_Driver/src/stm32f10x_i2c.c **** void I2C_StretchClockCmd(I2C_TypeDef* I2Cx, FunctionalState NewState)
 865:./Libraries/STM32F10x_StdPeriph_Driver/src/stm32f10x_i2c.c **** {
 1865              		.loc 1 865 1
 1866              		.cfi_startproc
 1867              		@ args = 0, pretend = 0, frame = 8
 1868              		@ frame_needed = 1, uses_anonymous_args = 0
 1869              		@ link register save eliminated.
 1870 0000 80B4     		push	{r7}
 1871              	.LCFI148:
 1872              		.cfi_def_cfa_offset 4
 1873              		.cfi_offset 7, -4
 1874 0002 83B0     		sub	sp, sp, #12
 1875              	.LCFI149:
 1876              		.cfi_def_cfa_offset 16
 1877 0004 00AF     		add	r7, sp, #0
 1878              	.LCFI150:
 1879              		.cfi_def_cfa_register 7
 1880 0006 7860     		str	r0, [r7, #4]
 1881 0008 0B46     		mov	r3, r1
 1882 000a FB70     		strb	r3, [r7, #3]
 866:./Libraries/STM32F10x_StdPeriph_Driver/src/stm32f10x_i2c.c ****   /* Check the parameters */
 867:./Libraries/STM32F10x_StdPeriph_Driver/src/stm32f10x_i2c.c ****   assert_param(IS_I2C_ALL_PERIPH(I2Cx));
 868:./Libraries/STM32F10x_StdPeriph_Driver/src/stm32f10x_i2c.c ****   assert_param(IS_FUNCTIONAL_STATE(NewState));
 869:./Libraries/STM32F10x_StdPeriph_Driver/src/stm32f10x_i2c.c ****   if (NewState == DISABLE)
 1883              		.loc 1 869 6
 1884 000c FB78     		ldrb	r3, [r7, #3]	@ zero_extendqisi2
 1885 000e 002B     		cmp	r3, #0
 1886 0010 08D1     		bne	.L93
 870:./Libraries/STM32F10x_StdPeriph_Driver/src/stm32f10x_i2c.c ****   {
 871:./Libraries/STM32F10x_StdPeriph_Driver/src/stm32f10x_i2c.c ****     /* Enable the selected I2C Clock stretching */
 872:./Libraries/STM32F10x_StdPeriph_Driver/src/stm32f10x_i2c.c ****     I2Cx->CR1 |= CR1_NOSTRETCH_Set;
 1887              		.loc 1 872 15
 1888 0012 7B68     		ldr	r3, [r7, #4]
 1889 0014 1B88     		ldrh	r3, [r3]	@ movhi
 1890 0016 9BB2     		uxth	r3, r3
 1891 0018 43F08003 		orr	r3, r3, #128
 1892 001c 9AB2     		uxth	r2, r3
 1893 001e 7B68     		ldr	r3, [r7, #4]
 1894 0020 1A80     		strh	r2, [r3]	@ movhi
 873:./Libraries/STM32F10x_StdPeriph_Driver/src/stm32f10x_i2c.c ****   }
ARM GAS  C:\Users\hao\AppData\Local\Temp\ccgRypVa.s 			page 49


 874:./Libraries/STM32F10x_StdPeriph_Driver/src/stm32f10x_i2c.c ****   else
 875:./Libraries/STM32F10x_StdPeriph_Driver/src/stm32f10x_i2c.c ****   {
 876:./Libraries/STM32F10x_StdPeriph_Driver/src/stm32f10x_i2c.c ****     /* Disable the selected I2C Clock stretching */
 877:./Libraries/STM32F10x_StdPeriph_Driver/src/stm32f10x_i2c.c ****     I2Cx->CR1 &= CR1_NOSTRETCH_Reset;
 878:./Libraries/STM32F10x_StdPeriph_Driver/src/stm32f10x_i2c.c ****   }
 879:./Libraries/STM32F10x_StdPeriph_Driver/src/stm32f10x_i2c.c **** }
 1895              		.loc 1 879 1
 1896 0022 07E0     		b	.L95
 1897              	.L93:
 877:./Libraries/STM32F10x_StdPeriph_Driver/src/stm32f10x_i2c.c ****   }
 1898              		.loc 1 877 15
 1899 0024 7B68     		ldr	r3, [r7, #4]
 1900 0026 1B88     		ldrh	r3, [r3]	@ movhi
 1901 0028 9BB2     		uxth	r3, r3
 1902 002a 23F08003 		bic	r3, r3, #128
 1903 002e 9AB2     		uxth	r2, r3
 1904 0030 7B68     		ldr	r3, [r7, #4]
 1905 0032 1A80     		strh	r2, [r3]	@ movhi
 1906              	.L95:
 1907              		.loc 1 879 1
 1908 0034 00BF     		nop
 1909 0036 0C37     		adds	r7, r7, #12
 1910              	.LCFI151:
 1911              		.cfi_def_cfa_offset 4
 1912 0038 BD46     		mov	sp, r7
 1913              	.LCFI152:
 1914              		.cfi_def_cfa_register 13
 1915              		@ sp needed
 1916 003a 80BC     		pop	{r7}
 1917              	.LCFI153:
 1918              		.cfi_restore 7
 1919              		.cfi_def_cfa_offset 0
 1920 003c 7047     		bx	lr
 1921              		.cfi_endproc
 1922              	.LFE54:
 1924              		.section	.text.I2C_FastModeDutyCycleConfig,"ax",%progbits
 1925              		.align	1
 1926              		.global	I2C_FastModeDutyCycleConfig
 1927              		.syntax unified
 1928              		.thumb
 1929              		.thumb_func
 1931              	I2C_FastModeDutyCycleConfig:
 1932              	.LFB55:
 880:./Libraries/STM32F10x_StdPeriph_Driver/src/stm32f10x_i2c.c **** 
 881:./Libraries/STM32F10x_StdPeriph_Driver/src/stm32f10x_i2c.c **** /**
 882:./Libraries/STM32F10x_StdPeriph_Driver/src/stm32f10x_i2c.c ****   * @brief  Selects the specified I2C fast mode duty cycle.
 883:./Libraries/STM32F10x_StdPeriph_Driver/src/stm32f10x_i2c.c ****   * @param  I2Cx: where x can be 1 or 2 to select the I2C peripheral.
 884:./Libraries/STM32F10x_StdPeriph_Driver/src/stm32f10x_i2c.c ****   * @param  I2C_DutyCycle: specifies the fast mode duty cycle.
 885:./Libraries/STM32F10x_StdPeriph_Driver/src/stm32f10x_i2c.c ****   *   This parameter can be one of the following values:
 886:./Libraries/STM32F10x_StdPeriph_Driver/src/stm32f10x_i2c.c ****   *     @arg I2C_DutyCycle_2: I2C fast mode Tlow/Thigh = 2
 887:./Libraries/STM32F10x_StdPeriph_Driver/src/stm32f10x_i2c.c ****   *     @arg I2C_DutyCycle_16_9: I2C fast mode Tlow/Thigh = 16/9
 888:./Libraries/STM32F10x_StdPeriph_Driver/src/stm32f10x_i2c.c ****   * @retval None
 889:./Libraries/STM32F10x_StdPeriph_Driver/src/stm32f10x_i2c.c ****   */
 890:./Libraries/STM32F10x_StdPeriph_Driver/src/stm32f10x_i2c.c **** void I2C_FastModeDutyCycleConfig(I2C_TypeDef* I2Cx, uint16_t I2C_DutyCycle)
 891:./Libraries/STM32F10x_StdPeriph_Driver/src/stm32f10x_i2c.c **** {
 1933              		.loc 1 891 1
 1934              		.cfi_startproc
ARM GAS  C:\Users\hao\AppData\Local\Temp\ccgRypVa.s 			page 50


 1935              		@ args = 0, pretend = 0, frame = 8
 1936              		@ frame_needed = 1, uses_anonymous_args = 0
 1937              		@ link register save eliminated.
 1938 0000 80B4     		push	{r7}
 1939              	.LCFI154:
 1940              		.cfi_def_cfa_offset 4
 1941              		.cfi_offset 7, -4
 1942 0002 83B0     		sub	sp, sp, #12
 1943              	.LCFI155:
 1944              		.cfi_def_cfa_offset 16
 1945 0004 00AF     		add	r7, sp, #0
 1946              	.LCFI156:
 1947              		.cfi_def_cfa_register 7
 1948 0006 7860     		str	r0, [r7, #4]
 1949 0008 0B46     		mov	r3, r1
 1950 000a 7B80     		strh	r3, [r7, #2]	@ movhi
 892:./Libraries/STM32F10x_StdPeriph_Driver/src/stm32f10x_i2c.c ****   /* Check the parameters */
 893:./Libraries/STM32F10x_StdPeriph_Driver/src/stm32f10x_i2c.c ****   assert_param(IS_I2C_ALL_PERIPH(I2Cx));
 894:./Libraries/STM32F10x_StdPeriph_Driver/src/stm32f10x_i2c.c ****   assert_param(IS_I2C_DUTY_CYCLE(I2C_DutyCycle));
 895:./Libraries/STM32F10x_StdPeriph_Driver/src/stm32f10x_i2c.c ****   if (I2C_DutyCycle != I2C_DutyCycle_16_9)
 1951              		.loc 1 895 6
 1952 000c 7B88     		ldrh	r3, [r7, #2]
 1953 000e B3F5804F 		cmp	r3, #16384
 1954 0012 08D0     		beq	.L97
 896:./Libraries/STM32F10x_StdPeriph_Driver/src/stm32f10x_i2c.c ****   {
 897:./Libraries/STM32F10x_StdPeriph_Driver/src/stm32f10x_i2c.c ****     /* I2C fast mode Tlow/Thigh=2 */
 898:./Libraries/STM32F10x_StdPeriph_Driver/src/stm32f10x_i2c.c ****     I2Cx->CCR &= I2C_DutyCycle_2;
 1955              		.loc 1 898 15
 1956 0014 7B68     		ldr	r3, [r7, #4]
 1957 0016 9B8B     		ldrh	r3, [r3, #28]	@ movhi
 1958 0018 9BB2     		uxth	r3, r3
 1959 001a 23F48043 		bic	r3, r3, #16384
 1960 001e 9AB2     		uxth	r2, r3
 1961 0020 7B68     		ldr	r3, [r7, #4]
 1962 0022 9A83     		strh	r2, [r3, #28]	@ movhi
 899:./Libraries/STM32F10x_StdPeriph_Driver/src/stm32f10x_i2c.c ****   }
 900:./Libraries/STM32F10x_StdPeriph_Driver/src/stm32f10x_i2c.c ****   else
 901:./Libraries/STM32F10x_StdPeriph_Driver/src/stm32f10x_i2c.c ****   {
 902:./Libraries/STM32F10x_StdPeriph_Driver/src/stm32f10x_i2c.c ****     /* I2C fast mode Tlow/Thigh=16/9 */
 903:./Libraries/STM32F10x_StdPeriph_Driver/src/stm32f10x_i2c.c ****     I2Cx->CCR |= I2C_DutyCycle_16_9;
 904:./Libraries/STM32F10x_StdPeriph_Driver/src/stm32f10x_i2c.c ****   }
 905:./Libraries/STM32F10x_StdPeriph_Driver/src/stm32f10x_i2c.c **** }
 1963              		.loc 1 905 1
 1964 0024 07E0     		b	.L99
 1965              	.L97:
 903:./Libraries/STM32F10x_StdPeriph_Driver/src/stm32f10x_i2c.c ****   }
 1966              		.loc 1 903 15
 1967 0026 7B68     		ldr	r3, [r7, #4]
 1968 0028 9B8B     		ldrh	r3, [r3, #28]	@ movhi
 1969 002a 9BB2     		uxth	r3, r3
 1970 002c 43F48043 		orr	r3, r3, #16384
 1971 0030 9AB2     		uxth	r2, r3
 1972 0032 7B68     		ldr	r3, [r7, #4]
 1973 0034 9A83     		strh	r2, [r3, #28]	@ movhi
 1974              	.L99:
 1975              		.loc 1 905 1
 1976 0036 00BF     		nop
ARM GAS  C:\Users\hao\AppData\Local\Temp\ccgRypVa.s 			page 51


 1977 0038 0C37     		adds	r7, r7, #12
 1978              	.LCFI157:
 1979              		.cfi_def_cfa_offset 4
 1980 003a BD46     		mov	sp, r7
 1981              	.LCFI158:
 1982              		.cfi_def_cfa_register 13
 1983              		@ sp needed
 1984 003c 80BC     		pop	{r7}
 1985              	.LCFI159:
 1986              		.cfi_restore 7
 1987              		.cfi_def_cfa_offset 0
 1988 003e 7047     		bx	lr
 1989              		.cfi_endproc
 1990              	.LFE55:
 1992              		.section	.text.I2C_CheckEvent,"ax",%progbits
 1993              		.align	1
 1994              		.global	I2C_CheckEvent
 1995              		.syntax unified
 1996              		.thumb
 1997              		.thumb_func
 1999              	I2C_CheckEvent:
 2000              	.LFB56:
 906:./Libraries/STM32F10x_StdPeriph_Driver/src/stm32f10x_i2c.c **** 
 907:./Libraries/STM32F10x_StdPeriph_Driver/src/stm32f10x_i2c.c **** 
 908:./Libraries/STM32F10x_StdPeriph_Driver/src/stm32f10x_i2c.c **** 
 909:./Libraries/STM32F10x_StdPeriph_Driver/src/stm32f10x_i2c.c **** /**
 910:./Libraries/STM32F10x_StdPeriph_Driver/src/stm32f10x_i2c.c ****  * @brief
 911:./Libraries/STM32F10x_StdPeriph_Driver/src/stm32f10x_i2c.c ****  ****************************************************************************************
 912:./Libraries/STM32F10x_StdPeriph_Driver/src/stm32f10x_i2c.c ****  *
 913:./Libraries/STM32F10x_StdPeriph_Driver/src/stm32f10x_i2c.c ****  *                         I2C State Monitoring Functions
 914:./Libraries/STM32F10x_StdPeriph_Driver/src/stm32f10x_i2c.c ****  *                       
 915:./Libraries/STM32F10x_StdPeriph_Driver/src/stm32f10x_i2c.c ****  ****************************************************************************************   
 916:./Libraries/STM32F10x_StdPeriph_Driver/src/stm32f10x_i2c.c ****  * This I2C driver provides three different ways for I2C state monitoring
 917:./Libraries/STM32F10x_StdPeriph_Driver/src/stm32f10x_i2c.c ****  *  depending on the application requirements and constraints:
 918:./Libraries/STM32F10x_StdPeriph_Driver/src/stm32f10x_i2c.c ****  *        
 919:./Libraries/STM32F10x_StdPeriph_Driver/src/stm32f10x_i2c.c ****  *  
 920:./Libraries/STM32F10x_StdPeriph_Driver/src/stm32f10x_i2c.c ****  * 1) Basic state monitoring:
 921:./Libraries/STM32F10x_StdPeriph_Driver/src/stm32f10x_i2c.c ****  *    Using I2C_CheckEvent() function:
 922:./Libraries/STM32F10x_StdPeriph_Driver/src/stm32f10x_i2c.c ****  *    It compares the status registers (SR1 and SR2) content to a given event
 923:./Libraries/STM32F10x_StdPeriph_Driver/src/stm32f10x_i2c.c ****  *    (can be the combination of one or more flags).
 924:./Libraries/STM32F10x_StdPeriph_Driver/src/stm32f10x_i2c.c ****  *    It returns SUCCESS if the current status includes the given flags 
 925:./Libraries/STM32F10x_StdPeriph_Driver/src/stm32f10x_i2c.c ****  *    and returns ERROR if one or more flags are missing in the current status.
 926:./Libraries/STM32F10x_StdPeriph_Driver/src/stm32f10x_i2c.c ****  *    - When to use:
 927:./Libraries/STM32F10x_StdPeriph_Driver/src/stm32f10x_i2c.c ****  *      - This function is suitable for most applications as well as for startup 
 928:./Libraries/STM32F10x_StdPeriph_Driver/src/stm32f10x_i2c.c ****  *      activity since the events are fully described in the product reference manual 
 929:./Libraries/STM32F10x_StdPeriph_Driver/src/stm32f10x_i2c.c ****  *      (RM0008).
 930:./Libraries/STM32F10x_StdPeriph_Driver/src/stm32f10x_i2c.c ****  *      - It is also suitable for users who need to define their own events.
 931:./Libraries/STM32F10x_StdPeriph_Driver/src/stm32f10x_i2c.c ****  *    - Limitations:
 932:./Libraries/STM32F10x_StdPeriph_Driver/src/stm32f10x_i2c.c ****  *      - If an error occurs (ie. error flags are set besides to the monitored flags),
 933:./Libraries/STM32F10x_StdPeriph_Driver/src/stm32f10x_i2c.c ****  *        the I2C_CheckEvent() function may return SUCCESS despite the communication
 934:./Libraries/STM32F10x_StdPeriph_Driver/src/stm32f10x_i2c.c ****  *        hold or corrupted real state. 
 935:./Libraries/STM32F10x_StdPeriph_Driver/src/stm32f10x_i2c.c ****  *        In this case, it is advised to use error interrupts to monitor the error
 936:./Libraries/STM32F10x_StdPeriph_Driver/src/stm32f10x_i2c.c ****  *        events and handle them in the interrupt IRQ handler.
 937:./Libraries/STM32F10x_StdPeriph_Driver/src/stm32f10x_i2c.c ****  *        
 938:./Libraries/STM32F10x_StdPeriph_Driver/src/stm32f10x_i2c.c ****  *        @note 
 939:./Libraries/STM32F10x_StdPeriph_Driver/src/stm32f10x_i2c.c ****  *        For error management, it is advised to use the following functions:
 940:./Libraries/STM32F10x_StdPeriph_Driver/src/stm32f10x_i2c.c ****  *          - I2C_ITConfig() to configure and enable the error interrupts (I2C_IT_ERR).
ARM GAS  C:\Users\hao\AppData\Local\Temp\ccgRypVa.s 			page 52


 941:./Libraries/STM32F10x_StdPeriph_Driver/src/stm32f10x_i2c.c ****  *          - I2Cx_ER_IRQHandler() which is called when the error interrupt occurs.
 942:./Libraries/STM32F10x_StdPeriph_Driver/src/stm32f10x_i2c.c ****  *            Where x is the peripheral instance (I2C1, I2C2 ...)
 943:./Libraries/STM32F10x_StdPeriph_Driver/src/stm32f10x_i2c.c ****  *          - I2C_GetFlagStatus() or I2C_GetITStatus() to be called into I2Cx_ER_IRQHandler() 
 944:./Libraries/STM32F10x_StdPeriph_Driver/src/stm32f10x_i2c.c ****  *            in order to determine which error occured.
 945:./Libraries/STM32F10x_StdPeriph_Driver/src/stm32f10x_i2c.c ****  *          - I2C_ClearFlag() or I2C_ClearITPendingBit() and/or I2C_SoftwareResetCmd()
 946:./Libraries/STM32F10x_StdPeriph_Driver/src/stm32f10x_i2c.c ****  *            and/or I2C_GenerateStop() in order to clear the error flag and source,
 947:./Libraries/STM32F10x_StdPeriph_Driver/src/stm32f10x_i2c.c ****  *            and return to correct communication status.
 948:./Libraries/STM32F10x_StdPeriph_Driver/src/stm32f10x_i2c.c ****  *            
 949:./Libraries/STM32F10x_StdPeriph_Driver/src/stm32f10x_i2c.c ****  *
 950:./Libraries/STM32F10x_StdPeriph_Driver/src/stm32f10x_i2c.c ****  *  2) Advanced state monitoring:
 951:./Libraries/STM32F10x_StdPeriph_Driver/src/stm32f10x_i2c.c ****  *     Using the function I2C_GetLastEvent() which returns the image of both status 
 952:./Libraries/STM32F10x_StdPeriph_Driver/src/stm32f10x_i2c.c ****  *     registers in a single word (uint32_t) (Status Register 2 value is shifted left 
 953:./Libraries/STM32F10x_StdPeriph_Driver/src/stm32f10x_i2c.c ****  *     by 16 bits and concatenated to Status Register 1).
 954:./Libraries/STM32F10x_StdPeriph_Driver/src/stm32f10x_i2c.c ****  *     - When to use:
 955:./Libraries/STM32F10x_StdPeriph_Driver/src/stm32f10x_i2c.c ****  *       - This function is suitable for the same applications above but it allows to
 956:./Libraries/STM32F10x_StdPeriph_Driver/src/stm32f10x_i2c.c ****  *         overcome the mentioned limitation of I2C_GetFlagStatus() function.
 957:./Libraries/STM32F10x_StdPeriph_Driver/src/stm32f10x_i2c.c ****  *         The returned value could be compared to events already defined in the 
 958:./Libraries/STM32F10x_StdPeriph_Driver/src/stm32f10x_i2c.c ****  *         library (stm32f10x_i2c.h) or to custom values defined by user.
 959:./Libraries/STM32F10x_StdPeriph_Driver/src/stm32f10x_i2c.c ****  *       - This function is suitable when multiple flags are monitored at the same time.
 960:./Libraries/STM32F10x_StdPeriph_Driver/src/stm32f10x_i2c.c ****  *       - At the opposite of I2C_CheckEvent() function, this function allows user to
 961:./Libraries/STM32F10x_StdPeriph_Driver/src/stm32f10x_i2c.c ****  *         choose when an event is accepted (when all events flags are set and no 
 962:./Libraries/STM32F10x_StdPeriph_Driver/src/stm32f10x_i2c.c ****  *         other flags are set or just when the needed flags are set like 
 963:./Libraries/STM32F10x_StdPeriph_Driver/src/stm32f10x_i2c.c ****  *         I2C_CheckEvent() function).
 964:./Libraries/STM32F10x_StdPeriph_Driver/src/stm32f10x_i2c.c ****  *     - Limitations:
 965:./Libraries/STM32F10x_StdPeriph_Driver/src/stm32f10x_i2c.c ****  *       - User may need to define his own events.
 966:./Libraries/STM32F10x_StdPeriph_Driver/src/stm32f10x_i2c.c ****  *       - Same remark concerning the error management is applicable for this 
 967:./Libraries/STM32F10x_StdPeriph_Driver/src/stm32f10x_i2c.c ****  *         function if user decides to check only regular communication flags (and 
 968:./Libraries/STM32F10x_StdPeriph_Driver/src/stm32f10x_i2c.c ****  *         ignores error flags).
 969:./Libraries/STM32F10x_StdPeriph_Driver/src/stm32f10x_i2c.c ****  *     
 970:./Libraries/STM32F10x_StdPeriph_Driver/src/stm32f10x_i2c.c ****  *
 971:./Libraries/STM32F10x_StdPeriph_Driver/src/stm32f10x_i2c.c ****  *  3) Flag-based state monitoring:
 972:./Libraries/STM32F10x_StdPeriph_Driver/src/stm32f10x_i2c.c ****  *     Using the function I2C_GetFlagStatus() which simply returns the status of 
 973:./Libraries/STM32F10x_StdPeriph_Driver/src/stm32f10x_i2c.c ****  *     one single flag (ie. I2C_FLAG_RXNE ...). 
 974:./Libraries/STM32F10x_StdPeriph_Driver/src/stm32f10x_i2c.c ****  *     - When to use:
 975:./Libraries/STM32F10x_StdPeriph_Driver/src/stm32f10x_i2c.c ****  *        - This function could be used for specific applications or in debug phase.
 976:./Libraries/STM32F10x_StdPeriph_Driver/src/stm32f10x_i2c.c ****  *        - It is suitable when only one flag checking is needed (most I2C events 
 977:./Libraries/STM32F10x_StdPeriph_Driver/src/stm32f10x_i2c.c ****  *          are monitored through multiple flags).
 978:./Libraries/STM32F10x_StdPeriph_Driver/src/stm32f10x_i2c.c ****  *     - Limitations: 
 979:./Libraries/STM32F10x_StdPeriph_Driver/src/stm32f10x_i2c.c ****  *        - When calling this function, the Status register is accessed. Some flags are
 980:./Libraries/STM32F10x_StdPeriph_Driver/src/stm32f10x_i2c.c ****  *          cleared when the status register is accessed. So checking the status
 981:./Libraries/STM32F10x_StdPeriph_Driver/src/stm32f10x_i2c.c ****  *          of one Flag, may clear other ones.
 982:./Libraries/STM32F10x_StdPeriph_Driver/src/stm32f10x_i2c.c ****  *        - Function may need to be called twice or more in order to monitor one 
 983:./Libraries/STM32F10x_StdPeriph_Driver/src/stm32f10x_i2c.c ****  *          single event.
 984:./Libraries/STM32F10x_StdPeriph_Driver/src/stm32f10x_i2c.c ****  *
 985:./Libraries/STM32F10x_StdPeriph_Driver/src/stm32f10x_i2c.c ****  *  For detailed description of Events, please refer to section I2C_Events in 
 986:./Libraries/STM32F10x_StdPeriph_Driver/src/stm32f10x_i2c.c ****  *  stm32f10x_i2c.h file.
 987:./Libraries/STM32F10x_StdPeriph_Driver/src/stm32f10x_i2c.c ****  *  
 988:./Libraries/STM32F10x_StdPeriph_Driver/src/stm32f10x_i2c.c ****  */
 989:./Libraries/STM32F10x_StdPeriph_Driver/src/stm32f10x_i2c.c **** 
 990:./Libraries/STM32F10x_StdPeriph_Driver/src/stm32f10x_i2c.c **** /**
 991:./Libraries/STM32F10x_StdPeriph_Driver/src/stm32f10x_i2c.c ****  * 
 992:./Libraries/STM32F10x_StdPeriph_Driver/src/stm32f10x_i2c.c ****  *  1) Basic state monitoring
 993:./Libraries/STM32F10x_StdPeriph_Driver/src/stm32f10x_i2c.c ****  *******************************************************************************
 994:./Libraries/STM32F10x_StdPeriph_Driver/src/stm32f10x_i2c.c ****  */
 995:./Libraries/STM32F10x_StdPeriph_Driver/src/stm32f10x_i2c.c **** 
 996:./Libraries/STM32F10x_StdPeriph_Driver/src/stm32f10x_i2c.c **** /**
 997:./Libraries/STM32F10x_StdPeriph_Driver/src/stm32f10x_i2c.c ****   * @brief  Checks whether the last I2Cx Event is equal to the one passed
ARM GAS  C:\Users\hao\AppData\Local\Temp\ccgRypVa.s 			page 53


 998:./Libraries/STM32F10x_StdPeriph_Driver/src/stm32f10x_i2c.c ****   *   as parameter.
 999:./Libraries/STM32F10x_StdPeriph_Driver/src/stm32f10x_i2c.c ****   * @param  I2Cx: where x can be 1 or 2 to select the I2C peripheral.
1000:./Libraries/STM32F10x_StdPeriph_Driver/src/stm32f10x_i2c.c ****   * @param  I2C_EVENT: specifies the event to be checked. 
1001:./Libraries/STM32F10x_StdPeriph_Driver/src/stm32f10x_i2c.c ****   *   This parameter can be one of the following values:
1002:./Libraries/STM32F10x_StdPeriph_Driver/src/stm32f10x_i2c.c ****   *     @arg I2C_EVENT_SLAVE_TRANSMITTER_ADDRESS_MATCHED           : EV1
1003:./Libraries/STM32F10x_StdPeriph_Driver/src/stm32f10x_i2c.c ****   *     @arg I2C_EVENT_SLAVE_RECEIVER_ADDRESS_MATCHED              : EV1
1004:./Libraries/STM32F10x_StdPeriph_Driver/src/stm32f10x_i2c.c ****   *     @arg I2C_EVENT_SLAVE_TRANSMITTER_SECONDADDRESS_MATCHED     : EV1
1005:./Libraries/STM32F10x_StdPeriph_Driver/src/stm32f10x_i2c.c ****   *     @arg I2C_EVENT_SLAVE_RECEIVER_SECONDADDRESS_MATCHED        : EV1
1006:./Libraries/STM32F10x_StdPeriph_Driver/src/stm32f10x_i2c.c ****   *     @arg I2C_EVENT_SLAVE_GENERALCALLADDRESS_MATCHED            : EV1
1007:./Libraries/STM32F10x_StdPeriph_Driver/src/stm32f10x_i2c.c ****   *     @arg I2C_EVENT_SLAVE_BYTE_RECEIVED                         : EV2
1008:./Libraries/STM32F10x_StdPeriph_Driver/src/stm32f10x_i2c.c ****   *     @arg (I2C_EVENT_SLAVE_BYTE_RECEIVED | I2C_FLAG_DUALF)      : EV2
1009:./Libraries/STM32F10x_StdPeriph_Driver/src/stm32f10x_i2c.c ****   *     @arg (I2C_EVENT_SLAVE_BYTE_RECEIVED | I2C_FLAG_GENCALL)    : EV2
1010:./Libraries/STM32F10x_StdPeriph_Driver/src/stm32f10x_i2c.c ****   *     @arg I2C_EVENT_SLAVE_BYTE_TRANSMITTED                      : EV3
1011:./Libraries/STM32F10x_StdPeriph_Driver/src/stm32f10x_i2c.c ****   *     @arg (I2C_EVENT_SLAVE_BYTE_TRANSMITTED | I2C_FLAG_DUALF)   : EV3
1012:./Libraries/STM32F10x_StdPeriph_Driver/src/stm32f10x_i2c.c ****   *     @arg (I2C_EVENT_SLAVE_BYTE_TRANSMITTED | I2C_FLAG_GENCALL) : EV3
1013:./Libraries/STM32F10x_StdPeriph_Driver/src/stm32f10x_i2c.c ****   *     @arg I2C_EVENT_SLAVE_ACK_FAILURE                           : EV3_2
1014:./Libraries/STM32F10x_StdPeriph_Driver/src/stm32f10x_i2c.c ****   *     @arg I2C_EVENT_SLAVE_STOP_DETECTED                         : EV4
1015:./Libraries/STM32F10x_StdPeriph_Driver/src/stm32f10x_i2c.c ****   *     @arg I2C_EVENT_MASTER_MODE_SELECT                          : EV5
1016:./Libraries/STM32F10x_StdPeriph_Driver/src/stm32f10x_i2c.c ****   *     @arg I2C_EVENT_MASTER_TRANSMITTER_MODE_SELECTED            : EV6     
1017:./Libraries/STM32F10x_StdPeriph_Driver/src/stm32f10x_i2c.c ****   *     @arg I2C_EVENT_MASTER_RECEIVER_MODE_SELECTED               : EV6
1018:./Libraries/STM32F10x_StdPeriph_Driver/src/stm32f10x_i2c.c ****   *     @arg I2C_EVENT_MASTER_BYTE_RECEIVED                        : EV7
1019:./Libraries/STM32F10x_StdPeriph_Driver/src/stm32f10x_i2c.c ****   *     @arg I2C_EVENT_MASTER_BYTE_TRANSMITTING                    : EV8
1020:./Libraries/STM32F10x_StdPeriph_Driver/src/stm32f10x_i2c.c ****   *     @arg I2C_EVENT_MASTER_BYTE_TRANSMITTED                     : EV8_2
1021:./Libraries/STM32F10x_StdPeriph_Driver/src/stm32f10x_i2c.c ****   *     @arg I2C_EVENT_MASTER_MODE_ADDRESS10                       : EV9
1022:./Libraries/STM32F10x_StdPeriph_Driver/src/stm32f10x_i2c.c ****   *     
1023:./Libraries/STM32F10x_StdPeriph_Driver/src/stm32f10x_i2c.c ****   * @note: For detailed description of Events, please refer to section 
1024:./Libraries/STM32F10x_StdPeriph_Driver/src/stm32f10x_i2c.c ****   *    I2C_Events in stm32f10x_i2c.h file.
1025:./Libraries/STM32F10x_StdPeriph_Driver/src/stm32f10x_i2c.c ****   *    
1026:./Libraries/STM32F10x_StdPeriph_Driver/src/stm32f10x_i2c.c ****   * @retval An ErrorStatus enumeration value:
1027:./Libraries/STM32F10x_StdPeriph_Driver/src/stm32f10x_i2c.c ****   * - SUCCESS: Last event is equal to the I2C_EVENT
1028:./Libraries/STM32F10x_StdPeriph_Driver/src/stm32f10x_i2c.c ****   * - ERROR: Last event is different from the I2C_EVENT
1029:./Libraries/STM32F10x_StdPeriph_Driver/src/stm32f10x_i2c.c ****   */
1030:./Libraries/STM32F10x_StdPeriph_Driver/src/stm32f10x_i2c.c **** ErrorStatus I2C_CheckEvent(I2C_TypeDef* I2Cx, uint32_t I2C_EVENT)
1031:./Libraries/STM32F10x_StdPeriph_Driver/src/stm32f10x_i2c.c **** {
 2001              		.loc 1 1031 1
 2002              		.cfi_startproc
 2003              		@ args = 0, pretend = 0, frame = 24
 2004              		@ frame_needed = 1, uses_anonymous_args = 0
 2005              		@ link register save eliminated.
 2006 0000 80B4     		push	{r7}
 2007              	.LCFI160:
 2008              		.cfi_def_cfa_offset 4
 2009              		.cfi_offset 7, -4
 2010 0002 87B0     		sub	sp, sp, #28
 2011              	.LCFI161:
 2012              		.cfi_def_cfa_offset 32
 2013 0004 00AF     		add	r7, sp, #0
 2014              	.LCFI162:
 2015              		.cfi_def_cfa_register 7
 2016 0006 7860     		str	r0, [r7, #4]
 2017 0008 3960     		str	r1, [r7]
1032:./Libraries/STM32F10x_StdPeriph_Driver/src/stm32f10x_i2c.c ****   uint32_t lastevent = 0;
 2018              		.loc 1 1032 12
 2019 000a 0023     		movs	r3, #0
 2020 000c 3B61     		str	r3, [r7, #16]
1033:./Libraries/STM32F10x_StdPeriph_Driver/src/stm32f10x_i2c.c ****   uint32_t flag1 = 0, flag2 = 0;
 2021              		.loc 1 1033 12
ARM GAS  C:\Users\hao\AppData\Local\Temp\ccgRypVa.s 			page 54


 2022 000e 0023     		movs	r3, #0
 2023 0010 FB60     		str	r3, [r7, #12]
 2024              		.loc 1 1033 23
 2025 0012 0023     		movs	r3, #0
 2026 0014 BB60     		str	r3, [r7, #8]
1034:./Libraries/STM32F10x_StdPeriph_Driver/src/stm32f10x_i2c.c ****   ErrorStatus status = ERROR;
 2027              		.loc 1 1034 15
 2028 0016 0023     		movs	r3, #0
 2029 0018 FB75     		strb	r3, [r7, #23]
1035:./Libraries/STM32F10x_StdPeriph_Driver/src/stm32f10x_i2c.c **** 
1036:./Libraries/STM32F10x_StdPeriph_Driver/src/stm32f10x_i2c.c ****   /* Check the parameters */
1037:./Libraries/STM32F10x_StdPeriph_Driver/src/stm32f10x_i2c.c ****   assert_param(IS_I2C_ALL_PERIPH(I2Cx));
1038:./Libraries/STM32F10x_StdPeriph_Driver/src/stm32f10x_i2c.c ****   assert_param(IS_I2C_EVENT(I2C_EVENT));
1039:./Libraries/STM32F10x_StdPeriph_Driver/src/stm32f10x_i2c.c **** 
1040:./Libraries/STM32F10x_StdPeriph_Driver/src/stm32f10x_i2c.c ****   /* Read the I2Cx status register */
1041:./Libraries/STM32F10x_StdPeriph_Driver/src/stm32f10x_i2c.c ****   flag1 = I2Cx->SR1;
 2030              		.loc 1 1041 15
 2031 001a 7B68     		ldr	r3, [r7, #4]
 2032 001c 9B8A     		ldrh	r3, [r3, #20]	@ movhi
 2033 001e 9BB2     		uxth	r3, r3
 2034              		.loc 1 1041 9
 2035 0020 FB60     		str	r3, [r7, #12]
1042:./Libraries/STM32F10x_StdPeriph_Driver/src/stm32f10x_i2c.c ****   flag2 = I2Cx->SR2;
 2036              		.loc 1 1042 15
 2037 0022 7B68     		ldr	r3, [r7, #4]
 2038 0024 1B8B     		ldrh	r3, [r3, #24]	@ movhi
 2039 0026 9BB2     		uxth	r3, r3
 2040              		.loc 1 1042 9
 2041 0028 BB60     		str	r3, [r7, #8]
1043:./Libraries/STM32F10x_StdPeriph_Driver/src/stm32f10x_i2c.c ****   flag2 = flag2 << 16;
 2042              		.loc 1 1043 9
 2043 002a BB68     		ldr	r3, [r7, #8]
 2044 002c 1B04     		lsls	r3, r3, #16
 2045 002e BB60     		str	r3, [r7, #8]
1044:./Libraries/STM32F10x_StdPeriph_Driver/src/stm32f10x_i2c.c **** 
1045:./Libraries/STM32F10x_StdPeriph_Driver/src/stm32f10x_i2c.c ****   /* Get the last event value from I2C status register */
1046:./Libraries/STM32F10x_StdPeriph_Driver/src/stm32f10x_i2c.c ****   lastevent = (flag1 | flag2) & FLAG_Mask;
 2046              		.loc 1 1046 22
 2047 0030 FA68     		ldr	r2, [r7, #12]
 2048 0032 BB68     		ldr	r3, [r7, #8]
 2049 0034 1343     		orrs	r3, r3, r2
 2050              		.loc 1 1046 13
 2051 0036 23F07F43 		bic	r3, r3, #-16777216
 2052 003a 3B61     		str	r3, [r7, #16]
1047:./Libraries/STM32F10x_StdPeriph_Driver/src/stm32f10x_i2c.c **** 
1048:./Libraries/STM32F10x_StdPeriph_Driver/src/stm32f10x_i2c.c ****   /* Check whether the last event contains the I2C_EVENT */
1049:./Libraries/STM32F10x_StdPeriph_Driver/src/stm32f10x_i2c.c ****   if ((lastevent & I2C_EVENT) == I2C_EVENT)
 2053              		.loc 1 1049 18
 2054 003c 3A69     		ldr	r2, [r7, #16]
 2055 003e 3B68     		ldr	r3, [r7]
 2056 0040 1340     		ands	r3, r3, r2
 2057              		.loc 1 1049 6
 2058 0042 3A68     		ldr	r2, [r7]
 2059 0044 9A42     		cmp	r2, r3
 2060 0046 02D1     		bne	.L101
1050:./Libraries/STM32F10x_StdPeriph_Driver/src/stm32f10x_i2c.c ****   {
1051:./Libraries/STM32F10x_StdPeriph_Driver/src/stm32f10x_i2c.c ****     /* SUCCESS: last event is equal to I2C_EVENT */
ARM GAS  C:\Users\hao\AppData\Local\Temp\ccgRypVa.s 			page 55


1052:./Libraries/STM32F10x_StdPeriph_Driver/src/stm32f10x_i2c.c ****     status = SUCCESS;
 2061              		.loc 1 1052 12
 2062 0048 0123     		movs	r3, #1
 2063 004a FB75     		strb	r3, [r7, #23]
 2064 004c 01E0     		b	.L102
 2065              	.L101:
1053:./Libraries/STM32F10x_StdPeriph_Driver/src/stm32f10x_i2c.c ****   }
1054:./Libraries/STM32F10x_StdPeriph_Driver/src/stm32f10x_i2c.c ****   else
1055:./Libraries/STM32F10x_StdPeriph_Driver/src/stm32f10x_i2c.c ****   {
1056:./Libraries/STM32F10x_StdPeriph_Driver/src/stm32f10x_i2c.c ****     /* ERROR: last event is different from I2C_EVENT */
1057:./Libraries/STM32F10x_StdPeriph_Driver/src/stm32f10x_i2c.c ****     status = ERROR;
 2066              		.loc 1 1057 12
 2067 004e 0023     		movs	r3, #0
 2068 0050 FB75     		strb	r3, [r7, #23]
 2069              	.L102:
1058:./Libraries/STM32F10x_StdPeriph_Driver/src/stm32f10x_i2c.c ****   }
1059:./Libraries/STM32F10x_StdPeriph_Driver/src/stm32f10x_i2c.c ****   /* Return status */
1060:./Libraries/STM32F10x_StdPeriph_Driver/src/stm32f10x_i2c.c ****   return status;
 2070              		.loc 1 1060 10
 2071 0052 FB7D     		ldrb	r3, [r7, #23]	@ zero_extendqisi2
1061:./Libraries/STM32F10x_StdPeriph_Driver/src/stm32f10x_i2c.c **** }
 2072              		.loc 1 1061 1
 2073 0054 1846     		mov	r0, r3
 2074 0056 1C37     		adds	r7, r7, #28
 2075              	.LCFI163:
 2076              		.cfi_def_cfa_offset 4
 2077 0058 BD46     		mov	sp, r7
 2078              	.LCFI164:
 2079              		.cfi_def_cfa_register 13
 2080              		@ sp needed
 2081 005a 80BC     		pop	{r7}
 2082              	.LCFI165:
 2083              		.cfi_restore 7
 2084              		.cfi_def_cfa_offset 0
 2085 005c 7047     		bx	lr
 2086              		.cfi_endproc
 2087              	.LFE56:
 2089              		.section	.text.I2C_GetLastEvent,"ax",%progbits
 2090              		.align	1
 2091              		.global	I2C_GetLastEvent
 2092              		.syntax unified
 2093              		.thumb
 2094              		.thumb_func
 2096              	I2C_GetLastEvent:
 2097              	.LFB57:
1062:./Libraries/STM32F10x_StdPeriph_Driver/src/stm32f10x_i2c.c **** 
1063:./Libraries/STM32F10x_StdPeriph_Driver/src/stm32f10x_i2c.c **** /**
1064:./Libraries/STM32F10x_StdPeriph_Driver/src/stm32f10x_i2c.c ****  * 
1065:./Libraries/STM32F10x_StdPeriph_Driver/src/stm32f10x_i2c.c ****  *  2) Advanced state monitoring
1066:./Libraries/STM32F10x_StdPeriph_Driver/src/stm32f10x_i2c.c ****  *******************************************************************************
1067:./Libraries/STM32F10x_StdPeriph_Driver/src/stm32f10x_i2c.c ****  */
1068:./Libraries/STM32F10x_StdPeriph_Driver/src/stm32f10x_i2c.c **** 
1069:./Libraries/STM32F10x_StdPeriph_Driver/src/stm32f10x_i2c.c **** /**
1070:./Libraries/STM32F10x_StdPeriph_Driver/src/stm32f10x_i2c.c ****   * @brief  Returns the last I2Cx Event.
1071:./Libraries/STM32F10x_StdPeriph_Driver/src/stm32f10x_i2c.c ****   * @param  I2Cx: where x can be 1 or 2 to select the I2C peripheral.
1072:./Libraries/STM32F10x_StdPeriph_Driver/src/stm32f10x_i2c.c ****   *     
1073:./Libraries/STM32F10x_StdPeriph_Driver/src/stm32f10x_i2c.c ****   * @note: For detailed description of Events, please refer to section 
ARM GAS  C:\Users\hao\AppData\Local\Temp\ccgRypVa.s 			page 56


1074:./Libraries/STM32F10x_StdPeriph_Driver/src/stm32f10x_i2c.c ****   *    I2C_Events in stm32f10x_i2c.h file.
1075:./Libraries/STM32F10x_StdPeriph_Driver/src/stm32f10x_i2c.c ****   *    
1076:./Libraries/STM32F10x_StdPeriph_Driver/src/stm32f10x_i2c.c ****   * @retval The last event
1077:./Libraries/STM32F10x_StdPeriph_Driver/src/stm32f10x_i2c.c ****   */
1078:./Libraries/STM32F10x_StdPeriph_Driver/src/stm32f10x_i2c.c **** uint32_t I2C_GetLastEvent(I2C_TypeDef* I2Cx)
1079:./Libraries/STM32F10x_StdPeriph_Driver/src/stm32f10x_i2c.c **** {
 2098              		.loc 1 1079 1
 2099              		.cfi_startproc
 2100              		@ args = 0, pretend = 0, frame = 24
 2101              		@ frame_needed = 1, uses_anonymous_args = 0
 2102              		@ link register save eliminated.
 2103 0000 80B4     		push	{r7}
 2104              	.LCFI166:
 2105              		.cfi_def_cfa_offset 4
 2106              		.cfi_offset 7, -4
 2107 0002 87B0     		sub	sp, sp, #28
 2108              	.LCFI167:
 2109              		.cfi_def_cfa_offset 32
 2110 0004 00AF     		add	r7, sp, #0
 2111              	.LCFI168:
 2112              		.cfi_def_cfa_register 7
 2113 0006 7860     		str	r0, [r7, #4]
1080:./Libraries/STM32F10x_StdPeriph_Driver/src/stm32f10x_i2c.c ****   uint32_t lastevent = 0;
 2114              		.loc 1 1080 12
 2115 0008 0023     		movs	r3, #0
 2116 000a 7B61     		str	r3, [r7, #20]
1081:./Libraries/STM32F10x_StdPeriph_Driver/src/stm32f10x_i2c.c ****   uint32_t flag1 = 0, flag2 = 0;
 2117              		.loc 1 1081 12
 2118 000c 0023     		movs	r3, #0
 2119 000e 3B61     		str	r3, [r7, #16]
 2120              		.loc 1 1081 23
 2121 0010 0023     		movs	r3, #0
 2122 0012 FB60     		str	r3, [r7, #12]
1082:./Libraries/STM32F10x_StdPeriph_Driver/src/stm32f10x_i2c.c **** 
1083:./Libraries/STM32F10x_StdPeriph_Driver/src/stm32f10x_i2c.c ****   /* Check the parameters */
1084:./Libraries/STM32F10x_StdPeriph_Driver/src/stm32f10x_i2c.c ****   assert_param(IS_I2C_ALL_PERIPH(I2Cx));
1085:./Libraries/STM32F10x_StdPeriph_Driver/src/stm32f10x_i2c.c **** 
1086:./Libraries/STM32F10x_StdPeriph_Driver/src/stm32f10x_i2c.c ****   /* Read the I2Cx status register */
1087:./Libraries/STM32F10x_StdPeriph_Driver/src/stm32f10x_i2c.c ****   flag1 = I2Cx->SR1;
 2123              		.loc 1 1087 15
 2124 0014 7B68     		ldr	r3, [r7, #4]
 2125 0016 9B8A     		ldrh	r3, [r3, #20]	@ movhi
 2126 0018 9BB2     		uxth	r3, r3
 2127              		.loc 1 1087 9
 2128 001a 3B61     		str	r3, [r7, #16]
1088:./Libraries/STM32F10x_StdPeriph_Driver/src/stm32f10x_i2c.c ****   flag2 = I2Cx->SR2;
 2129              		.loc 1 1088 15
 2130 001c 7B68     		ldr	r3, [r7, #4]
 2131 001e 1B8B     		ldrh	r3, [r3, #24]	@ movhi
 2132 0020 9BB2     		uxth	r3, r3
 2133              		.loc 1 1088 9
 2134 0022 FB60     		str	r3, [r7, #12]
1089:./Libraries/STM32F10x_StdPeriph_Driver/src/stm32f10x_i2c.c ****   flag2 = flag2 << 16;
 2135              		.loc 1 1089 9
 2136 0024 FB68     		ldr	r3, [r7, #12]
 2137 0026 1B04     		lsls	r3, r3, #16
 2138 0028 FB60     		str	r3, [r7, #12]
ARM GAS  C:\Users\hao\AppData\Local\Temp\ccgRypVa.s 			page 57


1090:./Libraries/STM32F10x_StdPeriph_Driver/src/stm32f10x_i2c.c **** 
1091:./Libraries/STM32F10x_StdPeriph_Driver/src/stm32f10x_i2c.c ****   /* Get the last event value from I2C status register */
1092:./Libraries/STM32F10x_StdPeriph_Driver/src/stm32f10x_i2c.c ****   lastevent = (flag1 | flag2) & FLAG_Mask;
 2139              		.loc 1 1092 22
 2140 002a 3A69     		ldr	r2, [r7, #16]
 2141 002c FB68     		ldr	r3, [r7, #12]
 2142 002e 1343     		orrs	r3, r3, r2
 2143              		.loc 1 1092 13
 2144 0030 23F07F43 		bic	r3, r3, #-16777216
 2145 0034 7B61     		str	r3, [r7, #20]
1093:./Libraries/STM32F10x_StdPeriph_Driver/src/stm32f10x_i2c.c **** 
1094:./Libraries/STM32F10x_StdPeriph_Driver/src/stm32f10x_i2c.c ****   /* Return status */
1095:./Libraries/STM32F10x_StdPeriph_Driver/src/stm32f10x_i2c.c ****   return lastevent;
 2146              		.loc 1 1095 10
 2147 0036 7B69     		ldr	r3, [r7, #20]
1096:./Libraries/STM32F10x_StdPeriph_Driver/src/stm32f10x_i2c.c **** }
 2148              		.loc 1 1096 1
 2149 0038 1846     		mov	r0, r3
 2150 003a 1C37     		adds	r7, r7, #28
 2151              	.LCFI169:
 2152              		.cfi_def_cfa_offset 4
 2153 003c BD46     		mov	sp, r7
 2154              	.LCFI170:
 2155              		.cfi_def_cfa_register 13
 2156              		@ sp needed
 2157 003e 80BC     		pop	{r7}
 2158              	.LCFI171:
 2159              		.cfi_restore 7
 2160              		.cfi_def_cfa_offset 0
 2161 0040 7047     		bx	lr
 2162              		.cfi_endproc
 2163              	.LFE57:
 2165              		.section	.text.I2C_GetFlagStatus,"ax",%progbits
 2166              		.align	1
 2167              		.global	I2C_GetFlagStatus
 2168              		.syntax unified
 2169              		.thumb
 2170              		.thumb_func
 2172              	I2C_GetFlagStatus:
 2173              	.LFB58:
1097:./Libraries/STM32F10x_StdPeriph_Driver/src/stm32f10x_i2c.c **** 
1098:./Libraries/STM32F10x_StdPeriph_Driver/src/stm32f10x_i2c.c **** /**
1099:./Libraries/STM32F10x_StdPeriph_Driver/src/stm32f10x_i2c.c ****  * 
1100:./Libraries/STM32F10x_StdPeriph_Driver/src/stm32f10x_i2c.c ****  *  3) Flag-based state monitoring
1101:./Libraries/STM32F10x_StdPeriph_Driver/src/stm32f10x_i2c.c ****  *******************************************************************************
1102:./Libraries/STM32F10x_StdPeriph_Driver/src/stm32f10x_i2c.c ****  */
1103:./Libraries/STM32F10x_StdPeriph_Driver/src/stm32f10x_i2c.c **** 
1104:./Libraries/STM32F10x_StdPeriph_Driver/src/stm32f10x_i2c.c **** /**
1105:./Libraries/STM32F10x_StdPeriph_Driver/src/stm32f10x_i2c.c ****   * @brief  Checks whether the specified I2C flag is set or not.
1106:./Libraries/STM32F10x_StdPeriph_Driver/src/stm32f10x_i2c.c ****   * @param  I2Cx: where x can be 1 or 2 to select the I2C peripheral.
1107:./Libraries/STM32F10x_StdPeriph_Driver/src/stm32f10x_i2c.c ****   * @param  I2C_FLAG: specifies the flag to check. 
1108:./Libraries/STM32F10x_StdPeriph_Driver/src/stm32f10x_i2c.c ****   *   This parameter can be one of the following values:
1109:./Libraries/STM32F10x_StdPeriph_Driver/src/stm32f10x_i2c.c ****   *     @arg I2C_FLAG_DUALF: Dual flag (Slave mode)
1110:./Libraries/STM32F10x_StdPeriph_Driver/src/stm32f10x_i2c.c ****   *     @arg I2C_FLAG_SMBHOST: SMBus host header (Slave mode)
1111:./Libraries/STM32F10x_StdPeriph_Driver/src/stm32f10x_i2c.c ****   *     @arg I2C_FLAG_SMBDEFAULT: SMBus default header (Slave mode)
1112:./Libraries/STM32F10x_StdPeriph_Driver/src/stm32f10x_i2c.c ****   *     @arg I2C_FLAG_GENCALL: General call header flag (Slave mode)
1113:./Libraries/STM32F10x_StdPeriph_Driver/src/stm32f10x_i2c.c ****   *     @arg I2C_FLAG_TRA: Transmitter/Receiver flag
ARM GAS  C:\Users\hao\AppData\Local\Temp\ccgRypVa.s 			page 58


1114:./Libraries/STM32F10x_StdPeriph_Driver/src/stm32f10x_i2c.c ****   *     @arg I2C_FLAG_BUSY: Bus busy flag
1115:./Libraries/STM32F10x_StdPeriph_Driver/src/stm32f10x_i2c.c ****   *     @arg I2C_FLAG_MSL: Master/Slave flag
1116:./Libraries/STM32F10x_StdPeriph_Driver/src/stm32f10x_i2c.c ****   *     @arg I2C_FLAG_SMBALERT: SMBus Alert flag
1117:./Libraries/STM32F10x_StdPeriph_Driver/src/stm32f10x_i2c.c ****   *     @arg I2C_FLAG_TIMEOUT: Timeout or Tlow error flag
1118:./Libraries/STM32F10x_StdPeriph_Driver/src/stm32f10x_i2c.c ****   *     @arg I2C_FLAG_PECERR: PEC error in reception flag
1119:./Libraries/STM32F10x_StdPeriph_Driver/src/stm32f10x_i2c.c ****   *     @arg I2C_FLAG_OVR: Overrun/Underrun flag (Slave mode)
1120:./Libraries/STM32F10x_StdPeriph_Driver/src/stm32f10x_i2c.c ****   *     @arg I2C_FLAG_AF: Acknowledge failure flag
1121:./Libraries/STM32F10x_StdPeriph_Driver/src/stm32f10x_i2c.c ****   *     @arg I2C_FLAG_ARLO: Arbitration lost flag (Master mode)
1122:./Libraries/STM32F10x_StdPeriph_Driver/src/stm32f10x_i2c.c ****   *     @arg I2C_FLAG_BERR: Bus error flag
1123:./Libraries/STM32F10x_StdPeriph_Driver/src/stm32f10x_i2c.c ****   *     @arg I2C_FLAG_TXE: Data register empty flag (Transmitter)
1124:./Libraries/STM32F10x_StdPeriph_Driver/src/stm32f10x_i2c.c ****   *     @arg I2C_FLAG_RXNE: Data register not empty (Receiver) flag
1125:./Libraries/STM32F10x_StdPeriph_Driver/src/stm32f10x_i2c.c ****   *     @arg I2C_FLAG_STOPF: Stop detection flag (Slave mode)
1126:./Libraries/STM32F10x_StdPeriph_Driver/src/stm32f10x_i2c.c ****   *     @arg I2C_FLAG_ADD10: 10-bit header sent flag (Master mode)
1127:./Libraries/STM32F10x_StdPeriph_Driver/src/stm32f10x_i2c.c ****   *     @arg I2C_FLAG_BTF: Byte transfer finished flag
1128:./Libraries/STM32F10x_StdPeriph_Driver/src/stm32f10x_i2c.c ****   *     @arg I2C_FLAG_ADDR: Address sent flag (Master mode) "ADSL"
1129:./Libraries/STM32F10x_StdPeriph_Driver/src/stm32f10x_i2c.c ****   *   Address matched flag (Slave mode)"ENDA"
1130:./Libraries/STM32F10x_StdPeriph_Driver/src/stm32f10x_i2c.c ****   *     @arg I2C_FLAG_SB: Start bit flag (Master mode)
1131:./Libraries/STM32F10x_StdPeriph_Driver/src/stm32f10x_i2c.c ****   * @retval The new state of I2C_FLAG (SET or RESET).
1132:./Libraries/STM32F10x_StdPeriph_Driver/src/stm32f10x_i2c.c ****   */
1133:./Libraries/STM32F10x_StdPeriph_Driver/src/stm32f10x_i2c.c **** FlagStatus I2C_GetFlagStatus(I2C_TypeDef* I2Cx, uint32_t I2C_FLAG)
1134:./Libraries/STM32F10x_StdPeriph_Driver/src/stm32f10x_i2c.c **** {
 2174              		.loc 1 1134 1
 2175              		.cfi_startproc
 2176              		@ args = 0, pretend = 0, frame = 24
 2177              		@ frame_needed = 1, uses_anonymous_args = 0
 2178              		@ link register save eliminated.
 2179 0000 80B4     		push	{r7}
 2180              	.LCFI172:
 2181              		.cfi_def_cfa_offset 4
 2182              		.cfi_offset 7, -4
 2183 0002 87B0     		sub	sp, sp, #28
 2184              	.LCFI173:
 2185              		.cfi_def_cfa_offset 32
 2186 0004 00AF     		add	r7, sp, #0
 2187              	.LCFI174:
 2188              		.cfi_def_cfa_register 7
 2189 0006 7860     		str	r0, [r7, #4]
 2190 0008 3960     		str	r1, [r7]
1135:./Libraries/STM32F10x_StdPeriph_Driver/src/stm32f10x_i2c.c ****   FlagStatus bitstatus = RESET;
 2191              		.loc 1 1135 14
 2192 000a 0023     		movs	r3, #0
 2193 000c FB75     		strb	r3, [r7, #23]
1136:./Libraries/STM32F10x_StdPeriph_Driver/src/stm32f10x_i2c.c ****   __IO uint32_t i2creg = 0, i2cxbase = 0;
 2194              		.loc 1 1136 17
 2195 000e 0023     		movs	r3, #0
 2196 0010 3B61     		str	r3, [r7, #16]
 2197              		.loc 1 1136 29
 2198 0012 0023     		movs	r3, #0
 2199 0014 FB60     		str	r3, [r7, #12]
1137:./Libraries/STM32F10x_StdPeriph_Driver/src/stm32f10x_i2c.c **** 
1138:./Libraries/STM32F10x_StdPeriph_Driver/src/stm32f10x_i2c.c ****   /* Check the parameters */
1139:./Libraries/STM32F10x_StdPeriph_Driver/src/stm32f10x_i2c.c ****   assert_param(IS_I2C_ALL_PERIPH(I2Cx));
1140:./Libraries/STM32F10x_StdPeriph_Driver/src/stm32f10x_i2c.c ****   assert_param(IS_I2C_GET_FLAG(I2C_FLAG));
1141:./Libraries/STM32F10x_StdPeriph_Driver/src/stm32f10x_i2c.c **** 
1142:./Libraries/STM32F10x_StdPeriph_Driver/src/stm32f10x_i2c.c ****   /* Get the I2Cx peripheral base address */
1143:./Libraries/STM32F10x_StdPeriph_Driver/src/stm32f10x_i2c.c ****   i2cxbase = (uint32_t)I2Cx;
 2200              		.loc 1 1143 14
ARM GAS  C:\Users\hao\AppData\Local\Temp\ccgRypVa.s 			page 59


 2201 0016 7B68     		ldr	r3, [r7, #4]
 2202              		.loc 1 1143 12
 2203 0018 FB60     		str	r3, [r7, #12]
1144:./Libraries/STM32F10x_StdPeriph_Driver/src/stm32f10x_i2c.c ****   
1145:./Libraries/STM32F10x_StdPeriph_Driver/src/stm32f10x_i2c.c ****   /* Read flag register index */
1146:./Libraries/STM32F10x_StdPeriph_Driver/src/stm32f10x_i2c.c ****   i2creg = I2C_FLAG >> 28;
 2204              		.loc 1 1146 21
 2205 001a 3B68     		ldr	r3, [r7]
 2206 001c 1B0F     		lsrs	r3, r3, #28
 2207              		.loc 1 1146 10
 2208 001e 3B61     		str	r3, [r7, #16]
1147:./Libraries/STM32F10x_StdPeriph_Driver/src/stm32f10x_i2c.c ****   
1148:./Libraries/STM32F10x_StdPeriph_Driver/src/stm32f10x_i2c.c ****   /* Get bit[23:0] of the flag */
1149:./Libraries/STM32F10x_StdPeriph_Driver/src/stm32f10x_i2c.c ****   I2C_FLAG &= FLAG_Mask;
 2209              		.loc 1 1149 12
 2210 0020 3B68     		ldr	r3, [r7]
 2211 0022 23F07F43 		bic	r3, r3, #-16777216
 2212 0026 3B60     		str	r3, [r7]
1150:./Libraries/STM32F10x_StdPeriph_Driver/src/stm32f10x_i2c.c ****   
1151:./Libraries/STM32F10x_StdPeriph_Driver/src/stm32f10x_i2c.c ****   if(i2creg != 0)
 2213              		.loc 1 1151 13
 2214 0028 3B69     		ldr	r3, [r7, #16]
 2215              		.loc 1 1151 5
 2216 002a 002B     		cmp	r3, #0
 2217 002c 03D0     		beq	.L107
1152:./Libraries/STM32F10x_StdPeriph_Driver/src/stm32f10x_i2c.c ****   {
1153:./Libraries/STM32F10x_StdPeriph_Driver/src/stm32f10x_i2c.c ****     /* Get the I2Cx SR1 register address */
1154:./Libraries/STM32F10x_StdPeriph_Driver/src/stm32f10x_i2c.c ****     i2cxbase += 0x14;
 2218              		.loc 1 1154 14
 2219 002e FB68     		ldr	r3, [r7, #12]
 2220 0030 1433     		adds	r3, r3, #20
 2221 0032 FB60     		str	r3, [r7, #12]
 2222 0034 05E0     		b	.L108
 2223              	.L107:
1155:./Libraries/STM32F10x_StdPeriph_Driver/src/stm32f10x_i2c.c ****   }
1156:./Libraries/STM32F10x_StdPeriph_Driver/src/stm32f10x_i2c.c ****   else
1157:./Libraries/STM32F10x_StdPeriph_Driver/src/stm32f10x_i2c.c ****   {
1158:./Libraries/STM32F10x_StdPeriph_Driver/src/stm32f10x_i2c.c ****     /* Flag in I2Cx SR2 Register */
1159:./Libraries/STM32F10x_StdPeriph_Driver/src/stm32f10x_i2c.c ****     I2C_FLAG = (uint32_t)(I2C_FLAG >> 16);
 2224              		.loc 1 1159 14
 2225 0036 3B68     		ldr	r3, [r7]
 2226 0038 1B0C     		lsrs	r3, r3, #16
 2227 003a 3B60     		str	r3, [r7]
1160:./Libraries/STM32F10x_StdPeriph_Driver/src/stm32f10x_i2c.c ****     /* Get the I2Cx SR2 register address */
1161:./Libraries/STM32F10x_StdPeriph_Driver/src/stm32f10x_i2c.c ****     i2cxbase += 0x18;
 2228              		.loc 1 1161 14
 2229 003c FB68     		ldr	r3, [r7, #12]
 2230 003e 1833     		adds	r3, r3, #24
 2231 0040 FB60     		str	r3, [r7, #12]
 2232              	.L108:
1162:./Libraries/STM32F10x_StdPeriph_Driver/src/stm32f10x_i2c.c ****   }
1163:./Libraries/STM32F10x_StdPeriph_Driver/src/stm32f10x_i2c.c ****   
1164:./Libraries/STM32F10x_StdPeriph_Driver/src/stm32f10x_i2c.c ****   if(((*(__IO uint32_t *)i2cxbase) & I2C_FLAG) != (uint32_t)RESET)
 2233              		.loc 1 1164 9
 2234 0042 FB68     		ldr	r3, [r7, #12]
 2235              		.loc 1 1164 8
 2236 0044 1A68     		ldr	r2, [r3]
ARM GAS  C:\Users\hao\AppData\Local\Temp\ccgRypVa.s 			page 60


 2237              		.loc 1 1164 36
 2238 0046 3B68     		ldr	r3, [r7]
 2239 0048 1340     		ands	r3, r3, r2
 2240              		.loc 1 1164 5
 2241 004a 002B     		cmp	r3, #0
 2242 004c 02D0     		beq	.L109
1165:./Libraries/STM32F10x_StdPeriph_Driver/src/stm32f10x_i2c.c ****   {
1166:./Libraries/STM32F10x_StdPeriph_Driver/src/stm32f10x_i2c.c ****     /* I2C_FLAG is set */
1167:./Libraries/STM32F10x_StdPeriph_Driver/src/stm32f10x_i2c.c ****     bitstatus = SET;
 2243              		.loc 1 1167 15
 2244 004e 0123     		movs	r3, #1
 2245 0050 FB75     		strb	r3, [r7, #23]
 2246 0052 01E0     		b	.L110
 2247              	.L109:
1168:./Libraries/STM32F10x_StdPeriph_Driver/src/stm32f10x_i2c.c ****   }
1169:./Libraries/STM32F10x_StdPeriph_Driver/src/stm32f10x_i2c.c ****   else
1170:./Libraries/STM32F10x_StdPeriph_Driver/src/stm32f10x_i2c.c ****   {
1171:./Libraries/STM32F10x_StdPeriph_Driver/src/stm32f10x_i2c.c ****     /* I2C_FLAG is reset */
1172:./Libraries/STM32F10x_StdPeriph_Driver/src/stm32f10x_i2c.c ****     bitstatus = RESET;
 2248              		.loc 1 1172 15
 2249 0054 0023     		movs	r3, #0
 2250 0056 FB75     		strb	r3, [r7, #23]
 2251              	.L110:
1173:./Libraries/STM32F10x_StdPeriph_Driver/src/stm32f10x_i2c.c ****   }
1174:./Libraries/STM32F10x_StdPeriph_Driver/src/stm32f10x_i2c.c ****   
1175:./Libraries/STM32F10x_StdPeriph_Driver/src/stm32f10x_i2c.c ****   /* Return the I2C_FLAG status */
1176:./Libraries/STM32F10x_StdPeriph_Driver/src/stm32f10x_i2c.c ****   return  bitstatus;
 2252              		.loc 1 1176 11
 2253 0058 FB7D     		ldrb	r3, [r7, #23]	@ zero_extendqisi2
1177:./Libraries/STM32F10x_StdPeriph_Driver/src/stm32f10x_i2c.c **** }
 2254              		.loc 1 1177 1
 2255 005a 1846     		mov	r0, r3
 2256 005c 1C37     		adds	r7, r7, #28
 2257              	.LCFI175:
 2258              		.cfi_def_cfa_offset 4
 2259 005e BD46     		mov	sp, r7
 2260              	.LCFI176:
 2261              		.cfi_def_cfa_register 13
 2262              		@ sp needed
 2263 0060 80BC     		pop	{r7}
 2264              	.LCFI177:
 2265              		.cfi_restore 7
 2266              		.cfi_def_cfa_offset 0
 2267 0062 7047     		bx	lr
 2268              		.cfi_endproc
 2269              	.LFE58:
 2271              		.section	.text.I2C_ClearFlag,"ax",%progbits
 2272              		.align	1
 2273              		.global	I2C_ClearFlag
 2274              		.syntax unified
 2275              		.thumb
 2276              		.thumb_func
 2278              	I2C_ClearFlag:
 2279              	.LFB59:
1178:./Libraries/STM32F10x_StdPeriph_Driver/src/stm32f10x_i2c.c **** 
1179:./Libraries/STM32F10x_StdPeriph_Driver/src/stm32f10x_i2c.c **** 
1180:./Libraries/STM32F10x_StdPeriph_Driver/src/stm32f10x_i2c.c **** 
ARM GAS  C:\Users\hao\AppData\Local\Temp\ccgRypVa.s 			page 61


1181:./Libraries/STM32F10x_StdPeriph_Driver/src/stm32f10x_i2c.c **** /**
1182:./Libraries/STM32F10x_StdPeriph_Driver/src/stm32f10x_i2c.c ****   * @brief  Clears the I2Cx's pending flags.
1183:./Libraries/STM32F10x_StdPeriph_Driver/src/stm32f10x_i2c.c ****   * @param  I2Cx: where x can be 1 or 2 to select the I2C peripheral.
1184:./Libraries/STM32F10x_StdPeriph_Driver/src/stm32f10x_i2c.c ****   * @param  I2C_FLAG: specifies the flag to clear. 
1185:./Libraries/STM32F10x_StdPeriph_Driver/src/stm32f10x_i2c.c ****   *   This parameter can be any combination of the following values:
1186:./Libraries/STM32F10x_StdPeriph_Driver/src/stm32f10x_i2c.c ****   *     @arg I2C_FLAG_SMBALERT: SMBus Alert flag
1187:./Libraries/STM32F10x_StdPeriph_Driver/src/stm32f10x_i2c.c ****   *     @arg I2C_FLAG_TIMEOUT: Timeout or Tlow error flag
1188:./Libraries/STM32F10x_StdPeriph_Driver/src/stm32f10x_i2c.c ****   *     @arg I2C_FLAG_PECERR: PEC error in reception flag
1189:./Libraries/STM32F10x_StdPeriph_Driver/src/stm32f10x_i2c.c ****   *     @arg I2C_FLAG_OVR: Overrun/Underrun flag (Slave mode)
1190:./Libraries/STM32F10x_StdPeriph_Driver/src/stm32f10x_i2c.c ****   *     @arg I2C_FLAG_AF: Acknowledge failure flag
1191:./Libraries/STM32F10x_StdPeriph_Driver/src/stm32f10x_i2c.c ****   *     @arg I2C_FLAG_ARLO: Arbitration lost flag (Master mode)
1192:./Libraries/STM32F10x_StdPeriph_Driver/src/stm32f10x_i2c.c ****   *     @arg I2C_FLAG_BERR: Bus error flag
1193:./Libraries/STM32F10x_StdPeriph_Driver/src/stm32f10x_i2c.c ****   *   
1194:./Libraries/STM32F10x_StdPeriph_Driver/src/stm32f10x_i2c.c ****   * @note
1195:./Libraries/STM32F10x_StdPeriph_Driver/src/stm32f10x_i2c.c ****   *   - STOPF (STOP detection) is cleared by software sequence: a read operation 
1196:./Libraries/STM32F10x_StdPeriph_Driver/src/stm32f10x_i2c.c ****   *     to I2C_SR1 register (I2C_GetFlagStatus()) followed by a write operation 
1197:./Libraries/STM32F10x_StdPeriph_Driver/src/stm32f10x_i2c.c ****   *     to I2C_CR1 register (I2C_Cmd() to re-enable the I2C peripheral).
1198:./Libraries/STM32F10x_StdPeriph_Driver/src/stm32f10x_i2c.c ****   *   - ADD10 (10-bit header sent) is cleared by software sequence: a read 
1199:./Libraries/STM32F10x_StdPeriph_Driver/src/stm32f10x_i2c.c ****   *     operation to I2C_SR1 (I2C_GetFlagStatus()) followed by writing the 
1200:./Libraries/STM32F10x_StdPeriph_Driver/src/stm32f10x_i2c.c ****   *     second byte of the address in DR register.
1201:./Libraries/STM32F10x_StdPeriph_Driver/src/stm32f10x_i2c.c ****   *   - BTF (Byte Transfer Finished) is cleared by software sequence: a read 
1202:./Libraries/STM32F10x_StdPeriph_Driver/src/stm32f10x_i2c.c ****   *     operation to I2C_SR1 register (I2C_GetFlagStatus()) followed by a 
1203:./Libraries/STM32F10x_StdPeriph_Driver/src/stm32f10x_i2c.c ****   *     read/write to I2C_DR register (I2C_SendData()).
1204:./Libraries/STM32F10x_StdPeriph_Driver/src/stm32f10x_i2c.c ****   *   - ADDR (Address sent) is cleared by software sequence: a read operation to 
1205:./Libraries/STM32F10x_StdPeriph_Driver/src/stm32f10x_i2c.c ****   *     I2C_SR1 register (I2C_GetFlagStatus()) followed by a read operation to 
1206:./Libraries/STM32F10x_StdPeriph_Driver/src/stm32f10x_i2c.c ****   *     I2C_SR2 register ((void)(I2Cx->SR2)).
1207:./Libraries/STM32F10x_StdPeriph_Driver/src/stm32f10x_i2c.c ****   *   - SB (Start Bit) is cleared software sequence: a read operation to I2C_SR1
1208:./Libraries/STM32F10x_StdPeriph_Driver/src/stm32f10x_i2c.c ****   *     register (I2C_GetFlagStatus()) followed by a write operation to I2C_DR
1209:./Libraries/STM32F10x_StdPeriph_Driver/src/stm32f10x_i2c.c ****   *     register  (I2C_SendData()).
1210:./Libraries/STM32F10x_StdPeriph_Driver/src/stm32f10x_i2c.c ****   * @retval None
1211:./Libraries/STM32F10x_StdPeriph_Driver/src/stm32f10x_i2c.c ****   */
1212:./Libraries/STM32F10x_StdPeriph_Driver/src/stm32f10x_i2c.c **** void I2C_ClearFlag(I2C_TypeDef* I2Cx, uint32_t I2C_FLAG)
1213:./Libraries/STM32F10x_StdPeriph_Driver/src/stm32f10x_i2c.c **** {
 2280              		.loc 1 1213 1
 2281              		.cfi_startproc
 2282              		@ args = 0, pretend = 0, frame = 16
 2283              		@ frame_needed = 1, uses_anonymous_args = 0
 2284              		@ link register save eliminated.
 2285 0000 80B4     		push	{r7}
 2286              	.LCFI178:
 2287              		.cfi_def_cfa_offset 4
 2288              		.cfi_offset 7, -4
 2289 0002 85B0     		sub	sp, sp, #20
 2290              	.LCFI179:
 2291              		.cfi_def_cfa_offset 24
 2292 0004 00AF     		add	r7, sp, #0
 2293              	.LCFI180:
 2294              		.cfi_def_cfa_register 7
 2295 0006 7860     		str	r0, [r7, #4]
 2296 0008 3960     		str	r1, [r7]
1214:./Libraries/STM32F10x_StdPeriph_Driver/src/stm32f10x_i2c.c ****   uint32_t flagpos = 0;
 2297              		.loc 1 1214 12
 2298 000a 0023     		movs	r3, #0
 2299 000c FB60     		str	r3, [r7, #12]
1215:./Libraries/STM32F10x_StdPeriph_Driver/src/stm32f10x_i2c.c ****   /* Check the parameters */
1216:./Libraries/STM32F10x_StdPeriph_Driver/src/stm32f10x_i2c.c ****   assert_param(IS_I2C_ALL_PERIPH(I2Cx));
1217:./Libraries/STM32F10x_StdPeriph_Driver/src/stm32f10x_i2c.c ****   assert_param(IS_I2C_CLEAR_FLAG(I2C_FLAG));
ARM GAS  C:\Users\hao\AppData\Local\Temp\ccgRypVa.s 			page 62


1218:./Libraries/STM32F10x_StdPeriph_Driver/src/stm32f10x_i2c.c ****   /* Get the I2C flag position */
1219:./Libraries/STM32F10x_StdPeriph_Driver/src/stm32f10x_i2c.c ****   flagpos = I2C_FLAG & FLAG_Mask;
 2300              		.loc 1 1219 11
 2301 000e 3B68     		ldr	r3, [r7]
 2302 0010 23F07F43 		bic	r3, r3, #-16777216
 2303 0014 FB60     		str	r3, [r7, #12]
1220:./Libraries/STM32F10x_StdPeriph_Driver/src/stm32f10x_i2c.c ****   /* Clear the selected I2C flag */
1221:./Libraries/STM32F10x_StdPeriph_Driver/src/stm32f10x_i2c.c ****   I2Cx->SR1 = (uint16_t)~flagpos;
 2304              		.loc 1 1221 15
 2305 0016 FB68     		ldr	r3, [r7, #12]
 2306 0018 9BB2     		uxth	r3, r3
 2307 001a DB43     		mvns	r3, r3
 2308 001c 9AB2     		uxth	r2, r3
 2309              		.loc 1 1221 13
 2310 001e 7B68     		ldr	r3, [r7, #4]
 2311 0020 9A82     		strh	r2, [r3, #20]	@ movhi
1222:./Libraries/STM32F10x_StdPeriph_Driver/src/stm32f10x_i2c.c **** }
 2312              		.loc 1 1222 1
 2313 0022 00BF     		nop
 2314 0024 1437     		adds	r7, r7, #20
 2315              	.LCFI181:
 2316              		.cfi_def_cfa_offset 4
 2317 0026 BD46     		mov	sp, r7
 2318              	.LCFI182:
 2319              		.cfi_def_cfa_register 13
 2320              		@ sp needed
 2321 0028 80BC     		pop	{r7}
 2322              	.LCFI183:
 2323              		.cfi_restore 7
 2324              		.cfi_def_cfa_offset 0
 2325 002a 7047     		bx	lr
 2326              		.cfi_endproc
 2327              	.LFE59:
 2329              		.section	.text.I2C_GetITStatus,"ax",%progbits
 2330              		.align	1
 2331              		.global	I2C_GetITStatus
 2332              		.syntax unified
 2333              		.thumb
 2334              		.thumb_func
 2336              	I2C_GetITStatus:
 2337              	.LFB60:
1223:./Libraries/STM32F10x_StdPeriph_Driver/src/stm32f10x_i2c.c **** 
1224:./Libraries/STM32F10x_StdPeriph_Driver/src/stm32f10x_i2c.c **** /**
1225:./Libraries/STM32F10x_StdPeriph_Driver/src/stm32f10x_i2c.c ****   * @brief  Checks whether the specified I2C interrupt has occurred or not.
1226:./Libraries/STM32F10x_StdPeriph_Driver/src/stm32f10x_i2c.c ****   * @param  I2Cx: where x can be 1 or 2 to select the I2C peripheral.
1227:./Libraries/STM32F10x_StdPeriph_Driver/src/stm32f10x_i2c.c ****   * @param  I2C_IT: specifies the interrupt source to check. 
1228:./Libraries/STM32F10x_StdPeriph_Driver/src/stm32f10x_i2c.c ****   *   This parameter can be one of the following values:
1229:./Libraries/STM32F10x_StdPeriph_Driver/src/stm32f10x_i2c.c ****   *     @arg I2C_IT_SMBALERT: SMBus Alert flag
1230:./Libraries/STM32F10x_StdPeriph_Driver/src/stm32f10x_i2c.c ****   *     @arg I2C_IT_TIMEOUT: Timeout or Tlow error flag
1231:./Libraries/STM32F10x_StdPeriph_Driver/src/stm32f10x_i2c.c ****   *     @arg I2C_IT_PECERR: PEC error in reception flag
1232:./Libraries/STM32F10x_StdPeriph_Driver/src/stm32f10x_i2c.c ****   *     @arg I2C_IT_OVR: Overrun/Underrun flag (Slave mode)
1233:./Libraries/STM32F10x_StdPeriph_Driver/src/stm32f10x_i2c.c ****   *     @arg I2C_IT_AF: Acknowledge failure flag
1234:./Libraries/STM32F10x_StdPeriph_Driver/src/stm32f10x_i2c.c ****   *     @arg I2C_IT_ARLO: Arbitration lost flag (Master mode)
1235:./Libraries/STM32F10x_StdPeriph_Driver/src/stm32f10x_i2c.c ****   *     @arg I2C_IT_BERR: Bus error flag
1236:./Libraries/STM32F10x_StdPeriph_Driver/src/stm32f10x_i2c.c ****   *     @arg I2C_IT_TXE: Data register empty flag (Transmitter)
1237:./Libraries/STM32F10x_StdPeriph_Driver/src/stm32f10x_i2c.c ****   *     @arg I2C_IT_RXNE: Data register not empty (Receiver) flag
1238:./Libraries/STM32F10x_StdPeriph_Driver/src/stm32f10x_i2c.c ****   *     @arg I2C_IT_STOPF: Stop detection flag (Slave mode)
ARM GAS  C:\Users\hao\AppData\Local\Temp\ccgRypVa.s 			page 63


1239:./Libraries/STM32F10x_StdPeriph_Driver/src/stm32f10x_i2c.c ****   *     @arg I2C_IT_ADD10: 10-bit header sent flag (Master mode)
1240:./Libraries/STM32F10x_StdPeriph_Driver/src/stm32f10x_i2c.c ****   *     @arg I2C_IT_BTF: Byte transfer finished flag
1241:./Libraries/STM32F10x_StdPeriph_Driver/src/stm32f10x_i2c.c ****   *     @arg I2C_IT_ADDR: Address sent flag (Master mode) "ADSL"
1242:./Libraries/STM32F10x_StdPeriph_Driver/src/stm32f10x_i2c.c ****   *                       Address matched flag (Slave mode)"ENDAD"
1243:./Libraries/STM32F10x_StdPeriph_Driver/src/stm32f10x_i2c.c ****   *     @arg I2C_IT_SB: Start bit flag (Master mode)
1244:./Libraries/STM32F10x_StdPeriph_Driver/src/stm32f10x_i2c.c ****   * @retval The new state of I2C_IT (SET or RESET).
1245:./Libraries/STM32F10x_StdPeriph_Driver/src/stm32f10x_i2c.c ****   */
1246:./Libraries/STM32F10x_StdPeriph_Driver/src/stm32f10x_i2c.c **** ITStatus I2C_GetITStatus(I2C_TypeDef* I2Cx, uint32_t I2C_IT)
1247:./Libraries/STM32F10x_StdPeriph_Driver/src/stm32f10x_i2c.c **** {
 2338              		.loc 1 1247 1
 2339              		.cfi_startproc
 2340              		@ args = 0, pretend = 0, frame = 16
 2341              		@ frame_needed = 1, uses_anonymous_args = 0
 2342              		@ link register save eliminated.
 2343 0000 80B4     		push	{r7}
 2344              	.LCFI184:
 2345              		.cfi_def_cfa_offset 4
 2346              		.cfi_offset 7, -4
 2347 0002 85B0     		sub	sp, sp, #20
 2348              	.LCFI185:
 2349              		.cfi_def_cfa_offset 24
 2350 0004 00AF     		add	r7, sp, #0
 2351              	.LCFI186:
 2352              		.cfi_def_cfa_register 7
 2353 0006 7860     		str	r0, [r7, #4]
 2354 0008 3960     		str	r1, [r7]
1248:./Libraries/STM32F10x_StdPeriph_Driver/src/stm32f10x_i2c.c ****   ITStatus bitstatus = RESET;
 2355              		.loc 1 1248 12
 2356 000a 0023     		movs	r3, #0
 2357 000c FB73     		strb	r3, [r7, #15]
1249:./Libraries/STM32F10x_StdPeriph_Driver/src/stm32f10x_i2c.c ****   uint32_t enablestatus = 0;
 2358              		.loc 1 1249 12
 2359 000e 0023     		movs	r3, #0
 2360 0010 BB60     		str	r3, [r7, #8]
1250:./Libraries/STM32F10x_StdPeriph_Driver/src/stm32f10x_i2c.c **** 
1251:./Libraries/STM32F10x_StdPeriph_Driver/src/stm32f10x_i2c.c ****   /* Check the parameters */
1252:./Libraries/STM32F10x_StdPeriph_Driver/src/stm32f10x_i2c.c ****   assert_param(IS_I2C_ALL_PERIPH(I2Cx));
1253:./Libraries/STM32F10x_StdPeriph_Driver/src/stm32f10x_i2c.c ****   assert_param(IS_I2C_GET_IT(I2C_IT));
1254:./Libraries/STM32F10x_StdPeriph_Driver/src/stm32f10x_i2c.c **** 
1255:./Libraries/STM32F10x_StdPeriph_Driver/src/stm32f10x_i2c.c ****   /* Check if the interrupt source is enabled or not */
1256:./Libraries/STM32F10x_StdPeriph_Driver/src/stm32f10x_i2c.c ****   enablestatus = (uint32_t)(((I2C_IT & ITEN_Mask) >> 16) & (I2Cx->CR2)) ;
 2361              		.loc 1 1256 51
 2362 0012 3B68     		ldr	r3, [r7]
 2363 0014 1B0C     		lsrs	r3, r3, #16
 2364              		.loc 1 1256 65
 2365 0016 7A68     		ldr	r2, [r7, #4]
 2366 0018 9288     		ldrh	r2, [r2, #4]	@ movhi
 2367 001a 92B2     		uxth	r2, r2
 2368              		.loc 1 1256 18
 2369 001c 1340     		ands	r3, r3, r2
 2370              		.loc 1 1256 16
 2371 001e 03F4E063 		and	r3, r3, #1792
 2372 0022 BB60     		str	r3, [r7, #8]
1257:./Libraries/STM32F10x_StdPeriph_Driver/src/stm32f10x_i2c.c ****   
1258:./Libraries/STM32F10x_StdPeriph_Driver/src/stm32f10x_i2c.c ****   /* Get bit[23:0] of the flag */
1259:./Libraries/STM32F10x_StdPeriph_Driver/src/stm32f10x_i2c.c ****   I2C_IT &= FLAG_Mask;
 2373              		.loc 1 1259 10
ARM GAS  C:\Users\hao\AppData\Local\Temp\ccgRypVa.s 			page 64


 2374 0024 3B68     		ldr	r3, [r7]
 2375 0026 23F07F43 		bic	r3, r3, #-16777216
 2376 002a 3B60     		str	r3, [r7]
1260:./Libraries/STM32F10x_StdPeriph_Driver/src/stm32f10x_i2c.c **** 
1261:./Libraries/STM32F10x_StdPeriph_Driver/src/stm32f10x_i2c.c ****   /* Check the status of the specified I2C flag */
1262:./Libraries/STM32F10x_StdPeriph_Driver/src/stm32f10x_i2c.c ****   if (((I2Cx->SR1 & I2C_IT) != (uint32_t)RESET) && enablestatus)
 2377              		.loc 1 1262 13
 2378 002c 7B68     		ldr	r3, [r7, #4]
 2379 002e 9B8A     		ldrh	r3, [r3, #20]	@ movhi
 2380 0030 9BB2     		uxth	r3, r3
 2381 0032 1A46     		mov	r2, r3
 2382              		.loc 1 1262 19
 2383 0034 3B68     		ldr	r3, [r7]
 2384 0036 1340     		ands	r3, r3, r2
 2385              		.loc 1 1262 6
 2386 0038 002B     		cmp	r3, #0
 2387 003a 05D0     		beq	.L114
 2388              		.loc 1 1262 49 discriminator 1
 2389 003c BB68     		ldr	r3, [r7, #8]
 2390 003e 002B     		cmp	r3, #0
 2391 0040 02D0     		beq	.L114
1263:./Libraries/STM32F10x_StdPeriph_Driver/src/stm32f10x_i2c.c ****   {
1264:./Libraries/STM32F10x_StdPeriph_Driver/src/stm32f10x_i2c.c ****     /* I2C_IT is set */
1265:./Libraries/STM32F10x_StdPeriph_Driver/src/stm32f10x_i2c.c ****     bitstatus = SET;
 2392              		.loc 1 1265 15
 2393 0042 0123     		movs	r3, #1
 2394 0044 FB73     		strb	r3, [r7, #15]
 2395 0046 01E0     		b	.L115
 2396              	.L114:
1266:./Libraries/STM32F10x_StdPeriph_Driver/src/stm32f10x_i2c.c ****   }
1267:./Libraries/STM32F10x_StdPeriph_Driver/src/stm32f10x_i2c.c ****   else
1268:./Libraries/STM32F10x_StdPeriph_Driver/src/stm32f10x_i2c.c ****   {
1269:./Libraries/STM32F10x_StdPeriph_Driver/src/stm32f10x_i2c.c ****     /* I2C_IT is reset */
1270:./Libraries/STM32F10x_StdPeriph_Driver/src/stm32f10x_i2c.c ****     bitstatus = RESET;
 2397              		.loc 1 1270 15
 2398 0048 0023     		movs	r3, #0
 2399 004a FB73     		strb	r3, [r7, #15]
 2400              	.L115:
1271:./Libraries/STM32F10x_StdPeriph_Driver/src/stm32f10x_i2c.c ****   }
1272:./Libraries/STM32F10x_StdPeriph_Driver/src/stm32f10x_i2c.c ****   /* Return the I2C_IT status */
1273:./Libraries/STM32F10x_StdPeriph_Driver/src/stm32f10x_i2c.c ****   return  bitstatus;
 2401              		.loc 1 1273 11
 2402 004c FB7B     		ldrb	r3, [r7, #15]	@ zero_extendqisi2
1274:./Libraries/STM32F10x_StdPeriph_Driver/src/stm32f10x_i2c.c **** }
 2403              		.loc 1 1274 1
 2404 004e 1846     		mov	r0, r3
 2405 0050 1437     		adds	r7, r7, #20
 2406              	.LCFI187:
 2407              		.cfi_def_cfa_offset 4
 2408 0052 BD46     		mov	sp, r7
 2409              	.LCFI188:
 2410              		.cfi_def_cfa_register 13
 2411              		@ sp needed
 2412 0054 80BC     		pop	{r7}
 2413              	.LCFI189:
 2414              		.cfi_restore 7
 2415              		.cfi_def_cfa_offset 0
ARM GAS  C:\Users\hao\AppData\Local\Temp\ccgRypVa.s 			page 65


 2416 0056 7047     		bx	lr
 2417              		.cfi_endproc
 2418              	.LFE60:
 2420              		.section	.text.I2C_ClearITPendingBit,"ax",%progbits
 2421              		.align	1
 2422              		.global	I2C_ClearITPendingBit
 2423              		.syntax unified
 2424              		.thumb
 2425              		.thumb_func
 2427              	I2C_ClearITPendingBit:
 2428              	.LFB61:
1275:./Libraries/STM32F10x_StdPeriph_Driver/src/stm32f10x_i2c.c **** 
1276:./Libraries/STM32F10x_StdPeriph_Driver/src/stm32f10x_i2c.c **** /**
1277:./Libraries/STM32F10x_StdPeriph_Driver/src/stm32f10x_i2c.c ****   * @brief  Clears the I2Cxs interrupt pending bits.
1278:./Libraries/STM32F10x_StdPeriph_Driver/src/stm32f10x_i2c.c ****   * @param  I2Cx: where x can be 1 or 2 to select the I2C peripheral.
1279:./Libraries/STM32F10x_StdPeriph_Driver/src/stm32f10x_i2c.c ****   * @param  I2C_IT: specifies the interrupt pending bit to clear. 
1280:./Libraries/STM32F10x_StdPeriph_Driver/src/stm32f10x_i2c.c ****   *   This parameter can be any combination of the following values:
1281:./Libraries/STM32F10x_StdPeriph_Driver/src/stm32f10x_i2c.c ****   *     @arg I2C_IT_SMBALERT: SMBus Alert interrupt
1282:./Libraries/STM32F10x_StdPeriph_Driver/src/stm32f10x_i2c.c ****   *     @arg I2C_IT_TIMEOUT: Timeout or Tlow error interrupt
1283:./Libraries/STM32F10x_StdPeriph_Driver/src/stm32f10x_i2c.c ****   *     @arg I2C_IT_PECERR: PEC error in reception  interrupt
1284:./Libraries/STM32F10x_StdPeriph_Driver/src/stm32f10x_i2c.c ****   *     @arg I2C_IT_OVR: Overrun/Underrun interrupt (Slave mode)
1285:./Libraries/STM32F10x_StdPeriph_Driver/src/stm32f10x_i2c.c ****   *     @arg I2C_IT_AF: Acknowledge failure interrupt
1286:./Libraries/STM32F10x_StdPeriph_Driver/src/stm32f10x_i2c.c ****   *     @arg I2C_IT_ARLO: Arbitration lost interrupt (Master mode)
1287:./Libraries/STM32F10x_StdPeriph_Driver/src/stm32f10x_i2c.c ****   *     @arg I2C_IT_BERR: Bus error interrupt
1288:./Libraries/STM32F10x_StdPeriph_Driver/src/stm32f10x_i2c.c ****   *   
1289:./Libraries/STM32F10x_StdPeriph_Driver/src/stm32f10x_i2c.c ****   * @note
1290:./Libraries/STM32F10x_StdPeriph_Driver/src/stm32f10x_i2c.c ****   *   - STOPF (STOP detection) is cleared by software sequence: a read operation 
1291:./Libraries/STM32F10x_StdPeriph_Driver/src/stm32f10x_i2c.c ****   *     to I2C_SR1 register (I2C_GetITStatus()) followed by a write operation to 
1292:./Libraries/STM32F10x_StdPeriph_Driver/src/stm32f10x_i2c.c ****   *     I2C_CR1 register (I2C_Cmd() to re-enable the I2C peripheral).
1293:./Libraries/STM32F10x_StdPeriph_Driver/src/stm32f10x_i2c.c ****   *   - ADD10 (10-bit header sent) is cleared by software sequence: a read 
1294:./Libraries/STM32F10x_StdPeriph_Driver/src/stm32f10x_i2c.c ****   *     operation to I2C_SR1 (I2C_GetITStatus()) followed by writing the second 
1295:./Libraries/STM32F10x_StdPeriph_Driver/src/stm32f10x_i2c.c ****   *     byte of the address in I2C_DR register.
1296:./Libraries/STM32F10x_StdPeriph_Driver/src/stm32f10x_i2c.c ****   *   - BTF (Byte Transfer Finished) is cleared by software sequence: a read 
1297:./Libraries/STM32F10x_StdPeriph_Driver/src/stm32f10x_i2c.c ****   *     operation to I2C_SR1 register (I2C_GetITStatus()) followed by a 
1298:./Libraries/STM32F10x_StdPeriph_Driver/src/stm32f10x_i2c.c ****   *     read/write to I2C_DR register (I2C_SendData()).
1299:./Libraries/STM32F10x_StdPeriph_Driver/src/stm32f10x_i2c.c ****   *   - ADDR (Address sent) is cleared by software sequence: a read operation to 
1300:./Libraries/STM32F10x_StdPeriph_Driver/src/stm32f10x_i2c.c ****   *     I2C_SR1 register (I2C_GetITStatus()) followed by a read operation to 
1301:./Libraries/STM32F10x_StdPeriph_Driver/src/stm32f10x_i2c.c ****   *     I2C_SR2 register ((void)(I2Cx->SR2)).
1302:./Libraries/STM32F10x_StdPeriph_Driver/src/stm32f10x_i2c.c ****   *   - SB (Start Bit) is cleared by software sequence: a read operation to 
1303:./Libraries/STM32F10x_StdPeriph_Driver/src/stm32f10x_i2c.c ****   *     I2C_SR1 register (I2C_GetITStatus()) followed by a write operation to 
1304:./Libraries/STM32F10x_StdPeriph_Driver/src/stm32f10x_i2c.c ****   *     I2C_DR register (I2C_SendData()).
1305:./Libraries/STM32F10x_StdPeriph_Driver/src/stm32f10x_i2c.c ****   * @retval None
1306:./Libraries/STM32F10x_StdPeriph_Driver/src/stm32f10x_i2c.c ****   */
1307:./Libraries/STM32F10x_StdPeriph_Driver/src/stm32f10x_i2c.c **** void I2C_ClearITPendingBit(I2C_TypeDef* I2Cx, uint32_t I2C_IT)
1308:./Libraries/STM32F10x_StdPeriph_Driver/src/stm32f10x_i2c.c **** {
 2429              		.loc 1 1308 1
 2430              		.cfi_startproc
 2431              		@ args = 0, pretend = 0, frame = 16
 2432              		@ frame_needed = 1, uses_anonymous_args = 0
 2433              		@ link register save eliminated.
 2434 0000 80B4     		push	{r7}
 2435              	.LCFI190:
 2436              		.cfi_def_cfa_offset 4
 2437              		.cfi_offset 7, -4
 2438 0002 85B0     		sub	sp, sp, #20
 2439              	.LCFI191:
 2440              		.cfi_def_cfa_offset 24
ARM GAS  C:\Users\hao\AppData\Local\Temp\ccgRypVa.s 			page 66


 2441 0004 00AF     		add	r7, sp, #0
 2442              	.LCFI192:
 2443              		.cfi_def_cfa_register 7
 2444 0006 7860     		str	r0, [r7, #4]
 2445 0008 3960     		str	r1, [r7]
1309:./Libraries/STM32F10x_StdPeriph_Driver/src/stm32f10x_i2c.c ****   uint32_t flagpos = 0;
 2446              		.loc 1 1309 12
 2447 000a 0023     		movs	r3, #0
 2448 000c FB60     		str	r3, [r7, #12]
1310:./Libraries/STM32F10x_StdPeriph_Driver/src/stm32f10x_i2c.c ****   /* Check the parameters */
1311:./Libraries/STM32F10x_StdPeriph_Driver/src/stm32f10x_i2c.c ****   assert_param(IS_I2C_ALL_PERIPH(I2Cx));
1312:./Libraries/STM32F10x_StdPeriph_Driver/src/stm32f10x_i2c.c ****   assert_param(IS_I2C_CLEAR_IT(I2C_IT));
1313:./Libraries/STM32F10x_StdPeriph_Driver/src/stm32f10x_i2c.c ****   /* Get the I2C flag position */
1314:./Libraries/STM32F10x_StdPeriph_Driver/src/stm32f10x_i2c.c ****   flagpos = I2C_IT & FLAG_Mask;
 2449              		.loc 1 1314 11
 2450 000e 3B68     		ldr	r3, [r7]
 2451 0010 23F07F43 		bic	r3, r3, #-16777216
 2452 0014 FB60     		str	r3, [r7, #12]
1315:./Libraries/STM32F10x_StdPeriph_Driver/src/stm32f10x_i2c.c ****   /* Clear the selected I2C flag */
1316:./Libraries/STM32F10x_StdPeriph_Driver/src/stm32f10x_i2c.c ****   I2Cx->SR1 = (uint16_t)~flagpos;
 2453              		.loc 1 1316 15
 2454 0016 FB68     		ldr	r3, [r7, #12]
 2455 0018 9BB2     		uxth	r3, r3
 2456 001a DB43     		mvns	r3, r3
 2457 001c 9AB2     		uxth	r2, r3
 2458              		.loc 1 1316 13
 2459 001e 7B68     		ldr	r3, [r7, #4]
 2460 0020 9A82     		strh	r2, [r3, #20]	@ movhi
1317:./Libraries/STM32F10x_StdPeriph_Driver/src/stm32f10x_i2c.c **** }
 2461              		.loc 1 1317 1
 2462 0022 00BF     		nop
 2463 0024 1437     		adds	r7, r7, #20
 2464              	.LCFI193:
 2465              		.cfi_def_cfa_offset 4
 2466 0026 BD46     		mov	sp, r7
 2467              	.LCFI194:
 2468              		.cfi_def_cfa_register 13
 2469              		@ sp needed
 2470 0028 80BC     		pop	{r7}
 2471              	.LCFI195:
 2472              		.cfi_restore 7
 2473              		.cfi_def_cfa_offset 0
 2474 002a 7047     		bx	lr
 2475              		.cfi_endproc
 2476              	.LFE61:
 2478              		.text
 2479              	.Letext0:
 2480              		.file 2 "c:\\gcc-arm-none-eabi\\arm-none-eabi\\include\\machine\\_default_types.h"
 2481              		.file 3 "c:\\gcc-arm-none-eabi\\arm-none-eabi\\include\\sys\\_stdint.h"
 2482              		.file 4 "./Libraries/CMSIS/stm32f10x.h"
 2483              		.file 5 "./Libraries/STM32F10x_StdPeriph_Driver/inc/stm32f10x_rcc.h"
 2484              		.file 6 "./Libraries/STM32F10x_StdPeriph_Driver/inc/stm32f10x_i2c.h"
ARM GAS  C:\Users\hao\AppData\Local\Temp\ccgRypVa.s 			page 67

