ARM GAS  C:\Users\hao\AppData\Local\Temp\cc7h2zwF.s 			page 1


   1              		.cpu cortex-m3
   2              		.arch armv7-m
   3              		.fpu softvfp
   4              		.eabi_attribute 20, 1
   5              		.eabi_attribute 21, 1
   6              		.eabi_attribute 23, 3
   7              		.eabi_attribute 24, 1
   8              		.eabi_attribute 25, 1
   9              		.eabi_attribute 26, 1
  10              		.eabi_attribute 30, 6
  11              		.eabi_attribute 34, 1
  12              		.eabi_attribute 18, 4
  13              		.file	"stm32f10x_rcc.c"
  14              		.text
  15              	.Ltext0:
  16              		.cfi_sections	.debug_frame
  17              		.section	.data.APBAHBPrescTable,"aw"
  18              		.align	2
  21              	APBAHBPrescTable:
  22 0000 00000000 		.ascii	"\000\000\000\000\001\002\003\004\001\002\003\004\006"
  22      01020304 
  22      01020304 
  22      06
  23 000d 070809   		.ascii	"\007\010\011"
  24              		.section	.data.ADCPrescTable,"aw"
  25              		.align	2
  28              	ADCPrescTable:
  29 0000 02040608 		.ascii	"\002\004\006\010"
  30              		.section	.text.RCC_DeInit,"ax",%progbits
  31              		.align	1
  32              		.global	RCC_DeInit
  33              		.syntax unified
  34              		.thumb
  35              		.thumb_func
  37              	RCC_DeInit:
  38              	.LFB29:
  39              		.file 1 "./Libraries/STM32F10x_StdPeriph_Driver/src/stm32f10x_rcc.c"
   1:./Libraries/STM32F10x_StdPeriph_Driver/src/stm32f10x_rcc.c **** /**
   2:./Libraries/STM32F10x_StdPeriph_Driver/src/stm32f10x_rcc.c ****   ******************************************************************************
   3:./Libraries/STM32F10x_StdPeriph_Driver/src/stm32f10x_rcc.c ****   * @file    stm32f10x_rcc.c
   4:./Libraries/STM32F10x_StdPeriph_Driver/src/stm32f10x_rcc.c ****   * @author  MCD Application Team
   5:./Libraries/STM32F10x_StdPeriph_Driver/src/stm32f10x_rcc.c ****   * @version V3.5.0
   6:./Libraries/STM32F10x_StdPeriph_Driver/src/stm32f10x_rcc.c ****   * @date    11-March-2011
   7:./Libraries/STM32F10x_StdPeriph_Driver/src/stm32f10x_rcc.c ****   * @brief   This file provides all the RCC firmware functions.
   8:./Libraries/STM32F10x_StdPeriph_Driver/src/stm32f10x_rcc.c ****   ******************************************************************************
   9:./Libraries/STM32F10x_StdPeriph_Driver/src/stm32f10x_rcc.c ****   * @attention
  10:./Libraries/STM32F10x_StdPeriph_Driver/src/stm32f10x_rcc.c ****   *
  11:./Libraries/STM32F10x_StdPeriph_Driver/src/stm32f10x_rcc.c ****   * THE PRESENT FIRMWARE WHICH IS FOR GUIDANCE ONLY AIMS AT PROVIDING CUSTOMERS
  12:./Libraries/STM32F10x_StdPeriph_Driver/src/stm32f10x_rcc.c ****   * WITH CODING INFORMATION REGARDING THEIR PRODUCTS IN ORDER FOR THEM TO SAVE
  13:./Libraries/STM32F10x_StdPeriph_Driver/src/stm32f10x_rcc.c ****   * TIME. AS A RESULT, STMICROELECTRONICS SHALL NOT BE HELD LIABLE FOR ANY
  14:./Libraries/STM32F10x_StdPeriph_Driver/src/stm32f10x_rcc.c ****   * DIRECT, INDIRECT OR CONSEQUENTIAL DAMAGES WITH RESPECT TO ANY CLAIMS ARISING
  15:./Libraries/STM32F10x_StdPeriph_Driver/src/stm32f10x_rcc.c ****   * FROM THE CONTENT OF SUCH FIRMWARE AND/OR THE USE MADE BY CUSTOMERS OF THE
  16:./Libraries/STM32F10x_StdPeriph_Driver/src/stm32f10x_rcc.c ****   * CODING INFORMATION CONTAINED HEREIN IN CONNECTION WITH THEIR PRODUCTS.
  17:./Libraries/STM32F10x_StdPeriph_Driver/src/stm32f10x_rcc.c ****   *
  18:./Libraries/STM32F10x_StdPeriph_Driver/src/stm32f10x_rcc.c ****   * <h2><center>&copy; COPYRIGHT 2011 STMicroelectronics</center></h2>
  19:./Libraries/STM32F10x_StdPeriph_Driver/src/stm32f10x_rcc.c ****   ******************************************************************************
  20:./Libraries/STM32F10x_StdPeriph_Driver/src/stm32f10x_rcc.c ****   */
ARM GAS  C:\Users\hao\AppData\Local\Temp\cc7h2zwF.s 			page 2


  21:./Libraries/STM32F10x_StdPeriph_Driver/src/stm32f10x_rcc.c **** 
  22:./Libraries/STM32F10x_StdPeriph_Driver/src/stm32f10x_rcc.c **** /* Includes ------------------------------------------------------------------*/
  23:./Libraries/STM32F10x_StdPeriph_Driver/src/stm32f10x_rcc.c **** #include "stm32f10x_rcc.h"
  24:./Libraries/STM32F10x_StdPeriph_Driver/src/stm32f10x_rcc.c **** 
  25:./Libraries/STM32F10x_StdPeriph_Driver/src/stm32f10x_rcc.c **** /** @addtogroup STM32F10x_StdPeriph_Driver
  26:./Libraries/STM32F10x_StdPeriph_Driver/src/stm32f10x_rcc.c ****   * @{
  27:./Libraries/STM32F10x_StdPeriph_Driver/src/stm32f10x_rcc.c ****   */
  28:./Libraries/STM32F10x_StdPeriph_Driver/src/stm32f10x_rcc.c **** 
  29:./Libraries/STM32F10x_StdPeriph_Driver/src/stm32f10x_rcc.c **** /** @defgroup RCC 
  30:./Libraries/STM32F10x_StdPeriph_Driver/src/stm32f10x_rcc.c ****   * @brief RCC driver modules
  31:./Libraries/STM32F10x_StdPeriph_Driver/src/stm32f10x_rcc.c ****   * @{
  32:./Libraries/STM32F10x_StdPeriph_Driver/src/stm32f10x_rcc.c ****   */ 
  33:./Libraries/STM32F10x_StdPeriph_Driver/src/stm32f10x_rcc.c **** 
  34:./Libraries/STM32F10x_StdPeriph_Driver/src/stm32f10x_rcc.c **** /** @defgroup RCC_Private_TypesDefinitions
  35:./Libraries/STM32F10x_StdPeriph_Driver/src/stm32f10x_rcc.c ****   * @{
  36:./Libraries/STM32F10x_StdPeriph_Driver/src/stm32f10x_rcc.c ****   */
  37:./Libraries/STM32F10x_StdPeriph_Driver/src/stm32f10x_rcc.c **** 
  38:./Libraries/STM32F10x_StdPeriph_Driver/src/stm32f10x_rcc.c **** /**
  39:./Libraries/STM32F10x_StdPeriph_Driver/src/stm32f10x_rcc.c ****   * @}
  40:./Libraries/STM32F10x_StdPeriph_Driver/src/stm32f10x_rcc.c ****   */
  41:./Libraries/STM32F10x_StdPeriph_Driver/src/stm32f10x_rcc.c **** 
  42:./Libraries/STM32F10x_StdPeriph_Driver/src/stm32f10x_rcc.c **** /** @defgroup RCC_Private_Defines
  43:./Libraries/STM32F10x_StdPeriph_Driver/src/stm32f10x_rcc.c ****   * @{
  44:./Libraries/STM32F10x_StdPeriph_Driver/src/stm32f10x_rcc.c ****   */
  45:./Libraries/STM32F10x_StdPeriph_Driver/src/stm32f10x_rcc.c **** 
  46:./Libraries/STM32F10x_StdPeriph_Driver/src/stm32f10x_rcc.c **** /* ------------ RCC registers bit address in the alias region ----------- */
  47:./Libraries/STM32F10x_StdPeriph_Driver/src/stm32f10x_rcc.c **** #define RCC_OFFSET                (RCC_BASE - PERIPH_BASE)
  48:./Libraries/STM32F10x_StdPeriph_Driver/src/stm32f10x_rcc.c **** 
  49:./Libraries/STM32F10x_StdPeriph_Driver/src/stm32f10x_rcc.c **** /* --- CR Register ---*/
  50:./Libraries/STM32F10x_StdPeriph_Driver/src/stm32f10x_rcc.c **** 
  51:./Libraries/STM32F10x_StdPeriph_Driver/src/stm32f10x_rcc.c **** /* Alias word address of HSION bit */
  52:./Libraries/STM32F10x_StdPeriph_Driver/src/stm32f10x_rcc.c **** #define CR_OFFSET                 (RCC_OFFSET + 0x00)
  53:./Libraries/STM32F10x_StdPeriph_Driver/src/stm32f10x_rcc.c **** #define HSION_BitNumber           0x00
  54:./Libraries/STM32F10x_StdPeriph_Driver/src/stm32f10x_rcc.c **** #define CR_HSION_BB               (PERIPH_BB_BASE + (CR_OFFSET * 32) + (HSION_BitNumber * 4))
  55:./Libraries/STM32F10x_StdPeriph_Driver/src/stm32f10x_rcc.c **** 
  56:./Libraries/STM32F10x_StdPeriph_Driver/src/stm32f10x_rcc.c **** /* Alias word address of PLLON bit */
  57:./Libraries/STM32F10x_StdPeriph_Driver/src/stm32f10x_rcc.c **** #define PLLON_BitNumber           0x18
  58:./Libraries/STM32F10x_StdPeriph_Driver/src/stm32f10x_rcc.c **** #define CR_PLLON_BB               (PERIPH_BB_BASE + (CR_OFFSET * 32) + (PLLON_BitNumber * 4))
  59:./Libraries/STM32F10x_StdPeriph_Driver/src/stm32f10x_rcc.c **** 
  60:./Libraries/STM32F10x_StdPeriph_Driver/src/stm32f10x_rcc.c **** #ifdef STM32F10X_CL
  61:./Libraries/STM32F10x_StdPeriph_Driver/src/stm32f10x_rcc.c ****  /* Alias word address of PLL2ON bit */
  62:./Libraries/STM32F10x_StdPeriph_Driver/src/stm32f10x_rcc.c ****  #define PLL2ON_BitNumber          0x1A
  63:./Libraries/STM32F10x_StdPeriph_Driver/src/stm32f10x_rcc.c ****  #define CR_PLL2ON_BB              (PERIPH_BB_BASE + (CR_OFFSET * 32) + (PLL2ON_BitNumber * 4))
  64:./Libraries/STM32F10x_StdPeriph_Driver/src/stm32f10x_rcc.c **** 
  65:./Libraries/STM32F10x_StdPeriph_Driver/src/stm32f10x_rcc.c ****  /* Alias word address of PLL3ON bit */
  66:./Libraries/STM32F10x_StdPeriph_Driver/src/stm32f10x_rcc.c ****  #define PLL3ON_BitNumber          0x1C
  67:./Libraries/STM32F10x_StdPeriph_Driver/src/stm32f10x_rcc.c ****  #define CR_PLL3ON_BB              (PERIPH_BB_BASE + (CR_OFFSET * 32) + (PLL3ON_BitNumber * 4))
  68:./Libraries/STM32F10x_StdPeriph_Driver/src/stm32f10x_rcc.c **** #endif /* STM32F10X_CL */ 
  69:./Libraries/STM32F10x_StdPeriph_Driver/src/stm32f10x_rcc.c **** 
  70:./Libraries/STM32F10x_StdPeriph_Driver/src/stm32f10x_rcc.c **** /* Alias word address of CSSON bit */
  71:./Libraries/STM32F10x_StdPeriph_Driver/src/stm32f10x_rcc.c **** #define CSSON_BitNumber           0x13
  72:./Libraries/STM32F10x_StdPeriph_Driver/src/stm32f10x_rcc.c **** #define CR_CSSON_BB               (PERIPH_BB_BASE + (CR_OFFSET * 32) + (CSSON_BitNumber * 4))
  73:./Libraries/STM32F10x_StdPeriph_Driver/src/stm32f10x_rcc.c **** 
  74:./Libraries/STM32F10x_StdPeriph_Driver/src/stm32f10x_rcc.c **** /* --- CFGR Register ---*/
  75:./Libraries/STM32F10x_StdPeriph_Driver/src/stm32f10x_rcc.c **** 
  76:./Libraries/STM32F10x_StdPeriph_Driver/src/stm32f10x_rcc.c **** /* Alias word address of USBPRE bit */
  77:./Libraries/STM32F10x_StdPeriph_Driver/src/stm32f10x_rcc.c **** #define CFGR_OFFSET               (RCC_OFFSET + 0x04)
ARM GAS  C:\Users\hao\AppData\Local\Temp\cc7h2zwF.s 			page 3


  78:./Libraries/STM32F10x_StdPeriph_Driver/src/stm32f10x_rcc.c **** 
  79:./Libraries/STM32F10x_StdPeriph_Driver/src/stm32f10x_rcc.c **** #ifndef STM32F10X_CL
  80:./Libraries/STM32F10x_StdPeriph_Driver/src/stm32f10x_rcc.c ****  #define USBPRE_BitNumber          0x16
  81:./Libraries/STM32F10x_StdPeriph_Driver/src/stm32f10x_rcc.c ****  #define CFGR_USBPRE_BB            (PERIPH_BB_BASE + (CFGR_OFFSET * 32) + (USBPRE_BitNumber * 4))
  82:./Libraries/STM32F10x_StdPeriph_Driver/src/stm32f10x_rcc.c **** #else
  83:./Libraries/STM32F10x_StdPeriph_Driver/src/stm32f10x_rcc.c ****  #define OTGFSPRE_BitNumber        0x16
  84:./Libraries/STM32F10x_StdPeriph_Driver/src/stm32f10x_rcc.c ****  #define CFGR_OTGFSPRE_BB          (PERIPH_BB_BASE + (CFGR_OFFSET * 32) + (OTGFSPRE_BitNumber * 4))
  85:./Libraries/STM32F10x_StdPeriph_Driver/src/stm32f10x_rcc.c **** #endif /* STM32F10X_CL */ 
  86:./Libraries/STM32F10x_StdPeriph_Driver/src/stm32f10x_rcc.c **** 
  87:./Libraries/STM32F10x_StdPeriph_Driver/src/stm32f10x_rcc.c **** /* --- BDCR Register ---*/
  88:./Libraries/STM32F10x_StdPeriph_Driver/src/stm32f10x_rcc.c **** 
  89:./Libraries/STM32F10x_StdPeriph_Driver/src/stm32f10x_rcc.c **** /* Alias word address of RTCEN bit */
  90:./Libraries/STM32F10x_StdPeriph_Driver/src/stm32f10x_rcc.c **** #define BDCR_OFFSET               (RCC_OFFSET + 0x20)
  91:./Libraries/STM32F10x_StdPeriph_Driver/src/stm32f10x_rcc.c **** #define RTCEN_BitNumber           0x0F
  92:./Libraries/STM32F10x_StdPeriph_Driver/src/stm32f10x_rcc.c **** #define BDCR_RTCEN_BB             (PERIPH_BB_BASE + (BDCR_OFFSET * 32) + (RTCEN_BitNumber * 4))
  93:./Libraries/STM32F10x_StdPeriph_Driver/src/stm32f10x_rcc.c **** 
  94:./Libraries/STM32F10x_StdPeriph_Driver/src/stm32f10x_rcc.c **** /* Alias word address of BDRST bit */
  95:./Libraries/STM32F10x_StdPeriph_Driver/src/stm32f10x_rcc.c **** #define BDRST_BitNumber           0x10
  96:./Libraries/STM32F10x_StdPeriph_Driver/src/stm32f10x_rcc.c **** #define BDCR_BDRST_BB             (PERIPH_BB_BASE + (BDCR_OFFSET * 32) + (BDRST_BitNumber * 4))
  97:./Libraries/STM32F10x_StdPeriph_Driver/src/stm32f10x_rcc.c **** 
  98:./Libraries/STM32F10x_StdPeriph_Driver/src/stm32f10x_rcc.c **** /* --- CSR Register ---*/
  99:./Libraries/STM32F10x_StdPeriph_Driver/src/stm32f10x_rcc.c **** 
 100:./Libraries/STM32F10x_StdPeriph_Driver/src/stm32f10x_rcc.c **** /* Alias word address of LSION bit */
 101:./Libraries/STM32F10x_StdPeriph_Driver/src/stm32f10x_rcc.c **** #define CSR_OFFSET                (RCC_OFFSET + 0x24)
 102:./Libraries/STM32F10x_StdPeriph_Driver/src/stm32f10x_rcc.c **** #define LSION_BitNumber           0x00
 103:./Libraries/STM32F10x_StdPeriph_Driver/src/stm32f10x_rcc.c **** #define CSR_LSION_BB              (PERIPH_BB_BASE + (CSR_OFFSET * 32) + (LSION_BitNumber * 4))
 104:./Libraries/STM32F10x_StdPeriph_Driver/src/stm32f10x_rcc.c **** 
 105:./Libraries/STM32F10x_StdPeriph_Driver/src/stm32f10x_rcc.c **** #ifdef STM32F10X_CL
 106:./Libraries/STM32F10x_StdPeriph_Driver/src/stm32f10x_rcc.c **** /* --- CFGR2 Register ---*/
 107:./Libraries/STM32F10x_StdPeriph_Driver/src/stm32f10x_rcc.c **** 
 108:./Libraries/STM32F10x_StdPeriph_Driver/src/stm32f10x_rcc.c ****  /* Alias word address of I2S2SRC bit */
 109:./Libraries/STM32F10x_StdPeriph_Driver/src/stm32f10x_rcc.c ****  #define CFGR2_OFFSET              (RCC_OFFSET + 0x2C)
 110:./Libraries/STM32F10x_StdPeriph_Driver/src/stm32f10x_rcc.c ****  #define I2S2SRC_BitNumber         0x11
 111:./Libraries/STM32F10x_StdPeriph_Driver/src/stm32f10x_rcc.c ****  #define CFGR2_I2S2SRC_BB          (PERIPH_BB_BASE + (CFGR2_OFFSET * 32) + (I2S2SRC_BitNumber * 4))
 112:./Libraries/STM32F10x_StdPeriph_Driver/src/stm32f10x_rcc.c **** 
 113:./Libraries/STM32F10x_StdPeriph_Driver/src/stm32f10x_rcc.c ****  /* Alias word address of I2S3SRC bit */
 114:./Libraries/STM32F10x_StdPeriph_Driver/src/stm32f10x_rcc.c ****  #define I2S3SRC_BitNumber         0x12
 115:./Libraries/STM32F10x_StdPeriph_Driver/src/stm32f10x_rcc.c ****  #define CFGR2_I2S3SRC_BB          (PERIPH_BB_BASE + (CFGR2_OFFSET * 32) + (I2S3SRC_BitNumber * 4))
 116:./Libraries/STM32F10x_StdPeriph_Driver/src/stm32f10x_rcc.c **** #endif /* STM32F10X_CL */
 117:./Libraries/STM32F10x_StdPeriph_Driver/src/stm32f10x_rcc.c **** 
 118:./Libraries/STM32F10x_StdPeriph_Driver/src/stm32f10x_rcc.c **** /* ---------------------- RCC registers bit mask ------------------------ */
 119:./Libraries/STM32F10x_StdPeriph_Driver/src/stm32f10x_rcc.c **** 
 120:./Libraries/STM32F10x_StdPeriph_Driver/src/stm32f10x_rcc.c **** /* CR register bit mask */
 121:./Libraries/STM32F10x_StdPeriph_Driver/src/stm32f10x_rcc.c **** #define CR_HSEBYP_Reset           ((uint32_t)0xFFFBFFFF)
 122:./Libraries/STM32F10x_StdPeriph_Driver/src/stm32f10x_rcc.c **** #define CR_HSEBYP_Set             ((uint32_t)0x00040000)
 123:./Libraries/STM32F10x_StdPeriph_Driver/src/stm32f10x_rcc.c **** #define CR_HSEON_Reset            ((uint32_t)0xFFFEFFFF)
 124:./Libraries/STM32F10x_StdPeriph_Driver/src/stm32f10x_rcc.c **** #define CR_HSEON_Set              ((uint32_t)0x00010000)
 125:./Libraries/STM32F10x_StdPeriph_Driver/src/stm32f10x_rcc.c **** #define CR_HSITRIM_Mask           ((uint32_t)0xFFFFFF07)
 126:./Libraries/STM32F10x_StdPeriph_Driver/src/stm32f10x_rcc.c **** 
 127:./Libraries/STM32F10x_StdPeriph_Driver/src/stm32f10x_rcc.c **** /* CFGR register bit mask */
 128:./Libraries/STM32F10x_StdPeriph_Driver/src/stm32f10x_rcc.c **** #if defined (STM32F10X_LD_VL) || defined (STM32F10X_MD_VL) || defined (STM32F10X_HD_VL) || defined 
 129:./Libraries/STM32F10x_StdPeriph_Driver/src/stm32f10x_rcc.c ****  #define CFGR_PLL_Mask            ((uint32_t)0xFFC2FFFF)
 130:./Libraries/STM32F10x_StdPeriph_Driver/src/stm32f10x_rcc.c **** #else
 131:./Libraries/STM32F10x_StdPeriph_Driver/src/stm32f10x_rcc.c ****  #define CFGR_PLL_Mask            ((uint32_t)0xFFC0FFFF)
 132:./Libraries/STM32F10x_StdPeriph_Driver/src/stm32f10x_rcc.c **** #endif /* STM32F10X_CL */ 
 133:./Libraries/STM32F10x_StdPeriph_Driver/src/stm32f10x_rcc.c **** 
 134:./Libraries/STM32F10x_StdPeriph_Driver/src/stm32f10x_rcc.c **** #define CFGR_PLLMull_Mask         ((uint32_t)0x003C0000)
ARM GAS  C:\Users\hao\AppData\Local\Temp\cc7h2zwF.s 			page 4


 135:./Libraries/STM32F10x_StdPeriph_Driver/src/stm32f10x_rcc.c **** #define CFGR_PLLSRC_Mask          ((uint32_t)0x00010000)
 136:./Libraries/STM32F10x_StdPeriph_Driver/src/stm32f10x_rcc.c **** #define CFGR_PLLXTPRE_Mask        ((uint32_t)0x00020000)
 137:./Libraries/STM32F10x_StdPeriph_Driver/src/stm32f10x_rcc.c **** #define CFGR_SWS_Mask             ((uint32_t)0x0000000C)
 138:./Libraries/STM32F10x_StdPeriph_Driver/src/stm32f10x_rcc.c **** #define CFGR_SW_Mask              ((uint32_t)0xFFFFFFFC)
 139:./Libraries/STM32F10x_StdPeriph_Driver/src/stm32f10x_rcc.c **** #define CFGR_HPRE_Reset_Mask      ((uint32_t)0xFFFFFF0F)
 140:./Libraries/STM32F10x_StdPeriph_Driver/src/stm32f10x_rcc.c **** #define CFGR_HPRE_Set_Mask        ((uint32_t)0x000000F0)
 141:./Libraries/STM32F10x_StdPeriph_Driver/src/stm32f10x_rcc.c **** #define CFGR_PPRE1_Reset_Mask     ((uint32_t)0xFFFFF8FF)
 142:./Libraries/STM32F10x_StdPeriph_Driver/src/stm32f10x_rcc.c **** #define CFGR_PPRE1_Set_Mask       ((uint32_t)0x00000700)
 143:./Libraries/STM32F10x_StdPeriph_Driver/src/stm32f10x_rcc.c **** #define CFGR_PPRE2_Reset_Mask     ((uint32_t)0xFFFFC7FF)
 144:./Libraries/STM32F10x_StdPeriph_Driver/src/stm32f10x_rcc.c **** #define CFGR_PPRE2_Set_Mask       ((uint32_t)0x00003800)
 145:./Libraries/STM32F10x_StdPeriph_Driver/src/stm32f10x_rcc.c **** #define CFGR_ADCPRE_Reset_Mask    ((uint32_t)0xFFFF3FFF)
 146:./Libraries/STM32F10x_StdPeriph_Driver/src/stm32f10x_rcc.c **** #define CFGR_ADCPRE_Set_Mask      ((uint32_t)0x0000C000)
 147:./Libraries/STM32F10x_StdPeriph_Driver/src/stm32f10x_rcc.c **** 
 148:./Libraries/STM32F10x_StdPeriph_Driver/src/stm32f10x_rcc.c **** /* CSR register bit mask */
 149:./Libraries/STM32F10x_StdPeriph_Driver/src/stm32f10x_rcc.c **** #define CSR_RMVF_Set              ((uint32_t)0x01000000)
 150:./Libraries/STM32F10x_StdPeriph_Driver/src/stm32f10x_rcc.c **** 
 151:./Libraries/STM32F10x_StdPeriph_Driver/src/stm32f10x_rcc.c **** #if defined (STM32F10X_LD_VL) || defined (STM32F10X_MD_VL) || defined (STM32F10X_HD_VL) || defined 
 152:./Libraries/STM32F10x_StdPeriph_Driver/src/stm32f10x_rcc.c **** /* CFGR2 register bit mask */
 153:./Libraries/STM32F10x_StdPeriph_Driver/src/stm32f10x_rcc.c ****  #define CFGR2_PREDIV1SRC         ((uint32_t)0x00010000)
 154:./Libraries/STM32F10x_StdPeriph_Driver/src/stm32f10x_rcc.c ****  #define CFGR2_PREDIV1            ((uint32_t)0x0000000F)
 155:./Libraries/STM32F10x_StdPeriph_Driver/src/stm32f10x_rcc.c **** #endif
 156:./Libraries/STM32F10x_StdPeriph_Driver/src/stm32f10x_rcc.c **** #ifdef STM32F10X_CL
 157:./Libraries/STM32F10x_StdPeriph_Driver/src/stm32f10x_rcc.c ****  #define CFGR2_PREDIV2            ((uint32_t)0x000000F0)
 158:./Libraries/STM32F10x_StdPeriph_Driver/src/stm32f10x_rcc.c ****  #define CFGR2_PLL2MUL            ((uint32_t)0x00000F00)
 159:./Libraries/STM32F10x_StdPeriph_Driver/src/stm32f10x_rcc.c ****  #define CFGR2_PLL3MUL            ((uint32_t)0x0000F000)
 160:./Libraries/STM32F10x_StdPeriph_Driver/src/stm32f10x_rcc.c **** #endif /* STM32F10X_CL */ 
 161:./Libraries/STM32F10x_StdPeriph_Driver/src/stm32f10x_rcc.c **** 
 162:./Libraries/STM32F10x_StdPeriph_Driver/src/stm32f10x_rcc.c **** /* RCC Flag Mask */
 163:./Libraries/STM32F10x_StdPeriph_Driver/src/stm32f10x_rcc.c **** #define FLAG_Mask                 ((uint8_t)0x1F)
 164:./Libraries/STM32F10x_StdPeriph_Driver/src/stm32f10x_rcc.c **** 
 165:./Libraries/STM32F10x_StdPeriph_Driver/src/stm32f10x_rcc.c **** /* CIR register byte 2 (Bits[15:8]) base address */
 166:./Libraries/STM32F10x_StdPeriph_Driver/src/stm32f10x_rcc.c **** #define CIR_BYTE2_ADDRESS         ((uint32_t)0x40021009)
 167:./Libraries/STM32F10x_StdPeriph_Driver/src/stm32f10x_rcc.c **** 
 168:./Libraries/STM32F10x_StdPeriph_Driver/src/stm32f10x_rcc.c **** /* CIR register byte 3 (Bits[23:16]) base address */
 169:./Libraries/STM32F10x_StdPeriph_Driver/src/stm32f10x_rcc.c **** #define CIR_BYTE3_ADDRESS         ((uint32_t)0x4002100A)
 170:./Libraries/STM32F10x_StdPeriph_Driver/src/stm32f10x_rcc.c **** 
 171:./Libraries/STM32F10x_StdPeriph_Driver/src/stm32f10x_rcc.c **** /* CFGR register byte 4 (Bits[31:24]) base address */
 172:./Libraries/STM32F10x_StdPeriph_Driver/src/stm32f10x_rcc.c **** #define CFGR_BYTE4_ADDRESS        ((uint32_t)0x40021007)
 173:./Libraries/STM32F10x_StdPeriph_Driver/src/stm32f10x_rcc.c **** 
 174:./Libraries/STM32F10x_StdPeriph_Driver/src/stm32f10x_rcc.c **** /* BDCR register base address */
 175:./Libraries/STM32F10x_StdPeriph_Driver/src/stm32f10x_rcc.c **** #define BDCR_ADDRESS              (PERIPH_BASE + BDCR_OFFSET)
 176:./Libraries/STM32F10x_StdPeriph_Driver/src/stm32f10x_rcc.c **** 
 177:./Libraries/STM32F10x_StdPeriph_Driver/src/stm32f10x_rcc.c **** /**
 178:./Libraries/STM32F10x_StdPeriph_Driver/src/stm32f10x_rcc.c ****   * @}
 179:./Libraries/STM32F10x_StdPeriph_Driver/src/stm32f10x_rcc.c ****   */ 
 180:./Libraries/STM32F10x_StdPeriph_Driver/src/stm32f10x_rcc.c **** 
 181:./Libraries/STM32F10x_StdPeriph_Driver/src/stm32f10x_rcc.c **** /** @defgroup RCC_Private_Macros
 182:./Libraries/STM32F10x_StdPeriph_Driver/src/stm32f10x_rcc.c ****   * @{
 183:./Libraries/STM32F10x_StdPeriph_Driver/src/stm32f10x_rcc.c ****   */ 
 184:./Libraries/STM32F10x_StdPeriph_Driver/src/stm32f10x_rcc.c **** 
 185:./Libraries/STM32F10x_StdPeriph_Driver/src/stm32f10x_rcc.c **** /**
 186:./Libraries/STM32F10x_StdPeriph_Driver/src/stm32f10x_rcc.c ****   * @}
 187:./Libraries/STM32F10x_StdPeriph_Driver/src/stm32f10x_rcc.c ****   */ 
 188:./Libraries/STM32F10x_StdPeriph_Driver/src/stm32f10x_rcc.c **** 
 189:./Libraries/STM32F10x_StdPeriph_Driver/src/stm32f10x_rcc.c **** /** @defgroup RCC_Private_Variables
 190:./Libraries/STM32F10x_StdPeriph_Driver/src/stm32f10x_rcc.c ****   * @{
 191:./Libraries/STM32F10x_StdPeriph_Driver/src/stm32f10x_rcc.c ****   */ 
ARM GAS  C:\Users\hao\AppData\Local\Temp\cc7h2zwF.s 			page 5


 192:./Libraries/STM32F10x_StdPeriph_Driver/src/stm32f10x_rcc.c **** 
 193:./Libraries/STM32F10x_StdPeriph_Driver/src/stm32f10x_rcc.c **** static __I uint8_t APBAHBPrescTable[16] = {0, 0, 0, 0, 1, 2, 3, 4, 1, 2, 3, 4, 6, 7, 8, 9};
 194:./Libraries/STM32F10x_StdPeriph_Driver/src/stm32f10x_rcc.c **** static __I uint8_t ADCPrescTable[4] = {2, 4, 6, 8};
 195:./Libraries/STM32F10x_StdPeriph_Driver/src/stm32f10x_rcc.c **** 
 196:./Libraries/STM32F10x_StdPeriph_Driver/src/stm32f10x_rcc.c **** /**
 197:./Libraries/STM32F10x_StdPeriph_Driver/src/stm32f10x_rcc.c ****   * @}
 198:./Libraries/STM32F10x_StdPeriph_Driver/src/stm32f10x_rcc.c ****   */
 199:./Libraries/STM32F10x_StdPeriph_Driver/src/stm32f10x_rcc.c **** 
 200:./Libraries/STM32F10x_StdPeriph_Driver/src/stm32f10x_rcc.c **** /** @defgroup RCC_Private_FunctionPrototypes
 201:./Libraries/STM32F10x_StdPeriph_Driver/src/stm32f10x_rcc.c ****   * @{
 202:./Libraries/STM32F10x_StdPeriph_Driver/src/stm32f10x_rcc.c ****   */
 203:./Libraries/STM32F10x_StdPeriph_Driver/src/stm32f10x_rcc.c **** 
 204:./Libraries/STM32F10x_StdPeriph_Driver/src/stm32f10x_rcc.c **** /**
 205:./Libraries/STM32F10x_StdPeriph_Driver/src/stm32f10x_rcc.c ****   * @}
 206:./Libraries/STM32F10x_StdPeriph_Driver/src/stm32f10x_rcc.c ****   */
 207:./Libraries/STM32F10x_StdPeriph_Driver/src/stm32f10x_rcc.c **** 
 208:./Libraries/STM32F10x_StdPeriph_Driver/src/stm32f10x_rcc.c **** /** @defgroup RCC_Private_Functions
 209:./Libraries/STM32F10x_StdPeriph_Driver/src/stm32f10x_rcc.c ****   * @{
 210:./Libraries/STM32F10x_StdPeriph_Driver/src/stm32f10x_rcc.c ****   */
 211:./Libraries/STM32F10x_StdPeriph_Driver/src/stm32f10x_rcc.c **** 
 212:./Libraries/STM32F10x_StdPeriph_Driver/src/stm32f10x_rcc.c **** /**
 213:./Libraries/STM32F10x_StdPeriph_Driver/src/stm32f10x_rcc.c ****   * @brief  Resets the RCC clock configuration to the default reset state.
 214:./Libraries/STM32F10x_StdPeriph_Driver/src/stm32f10x_rcc.c ****   * @param  None
 215:./Libraries/STM32F10x_StdPeriph_Driver/src/stm32f10x_rcc.c ****   * @retval None
 216:./Libraries/STM32F10x_StdPeriph_Driver/src/stm32f10x_rcc.c ****   */
 217:./Libraries/STM32F10x_StdPeriph_Driver/src/stm32f10x_rcc.c **** void RCC_DeInit(void)
 218:./Libraries/STM32F10x_StdPeriph_Driver/src/stm32f10x_rcc.c **** {
  40              		.loc 1 218 1
  41              		.cfi_startproc
  42              		@ args = 0, pretend = 0, frame = 0
  43              		@ frame_needed = 1, uses_anonymous_args = 0
  44              		@ link register save eliminated.
  45 0000 80B4     		push	{r7}
  46              	.LCFI0:
  47              		.cfi_def_cfa_offset 4
  48              		.cfi_offset 7, -4
  49 0002 00AF     		add	r7, sp, #0
  50              	.LCFI1:
  51              		.cfi_def_cfa_register 7
 219:./Libraries/STM32F10x_StdPeriph_Driver/src/stm32f10x_rcc.c ****   /* Set HSION bit */
 220:./Libraries/STM32F10x_StdPeriph_Driver/src/stm32f10x_rcc.c ****   RCC->CR |= (uint32_t)0x00000001;
  52              		.loc 1 220 11
  53 0004 134B     		ldr	r3, .L2
  54 0006 1B68     		ldr	r3, [r3]
  55 0008 124A     		ldr	r2, .L2
  56 000a 43F00103 		orr	r3, r3, #1
  57 000e 1360     		str	r3, [r2]
 221:./Libraries/STM32F10x_StdPeriph_Driver/src/stm32f10x_rcc.c **** 
 222:./Libraries/STM32F10x_StdPeriph_Driver/src/stm32f10x_rcc.c ****   /* Reset SW, HPRE, PPRE1, PPRE2, ADCPRE and MCO bits */
 223:./Libraries/STM32F10x_StdPeriph_Driver/src/stm32f10x_rcc.c **** #ifndef STM32F10X_CL
 224:./Libraries/STM32F10x_StdPeriph_Driver/src/stm32f10x_rcc.c ****   RCC->CFGR &= (uint32_t)0xF8FF0000;
  58              		.loc 1 224 13
  59 0010 104B     		ldr	r3, .L2
  60 0012 5A68     		ldr	r2, [r3, #4]
  61 0014 0F49     		ldr	r1, .L2
  62 0016 104B     		ldr	r3, .L2+4
  63 0018 1340     		ands	r3, r3, r2
ARM GAS  C:\Users\hao\AppData\Local\Temp\cc7h2zwF.s 			page 6


  64 001a 4B60     		str	r3, [r1, #4]
 225:./Libraries/STM32F10x_StdPeriph_Driver/src/stm32f10x_rcc.c **** #else
 226:./Libraries/STM32F10x_StdPeriph_Driver/src/stm32f10x_rcc.c ****   RCC->CFGR &= (uint32_t)0xF0FF0000;
 227:./Libraries/STM32F10x_StdPeriph_Driver/src/stm32f10x_rcc.c **** #endif /* STM32F10X_CL */   
 228:./Libraries/STM32F10x_StdPeriph_Driver/src/stm32f10x_rcc.c ****   
 229:./Libraries/STM32F10x_StdPeriph_Driver/src/stm32f10x_rcc.c ****   /* Reset HSEON, CSSON and PLLON bits */
 230:./Libraries/STM32F10x_StdPeriph_Driver/src/stm32f10x_rcc.c ****   RCC->CR &= (uint32_t)0xFEF6FFFF;
  65              		.loc 1 230 11
  66 001c 0D4B     		ldr	r3, .L2
  67 001e 1B68     		ldr	r3, [r3]
  68 0020 0C4A     		ldr	r2, .L2
  69 0022 23F08473 		bic	r3, r3, #17301504
  70 0026 23F48033 		bic	r3, r3, #65536
  71 002a 1360     		str	r3, [r2]
 231:./Libraries/STM32F10x_StdPeriph_Driver/src/stm32f10x_rcc.c **** 
 232:./Libraries/STM32F10x_StdPeriph_Driver/src/stm32f10x_rcc.c ****   /* Reset HSEBYP bit */
 233:./Libraries/STM32F10x_StdPeriph_Driver/src/stm32f10x_rcc.c ****   RCC->CR &= (uint32_t)0xFFFBFFFF;
  72              		.loc 1 233 11
  73 002c 094B     		ldr	r3, .L2
  74 002e 1B68     		ldr	r3, [r3]
  75 0030 084A     		ldr	r2, .L2
  76 0032 23F48023 		bic	r3, r3, #262144
  77 0036 1360     		str	r3, [r2]
 234:./Libraries/STM32F10x_StdPeriph_Driver/src/stm32f10x_rcc.c **** 
 235:./Libraries/STM32F10x_StdPeriph_Driver/src/stm32f10x_rcc.c ****   /* Reset PLLSRC, PLLXTPRE, PLLMUL and USBPRE/OTGFSPRE bits */
 236:./Libraries/STM32F10x_StdPeriph_Driver/src/stm32f10x_rcc.c ****   RCC->CFGR &= (uint32_t)0xFF80FFFF;
  78              		.loc 1 236 13
  79 0038 064B     		ldr	r3, .L2
  80 003a 5B68     		ldr	r3, [r3, #4]
  81 003c 054A     		ldr	r2, .L2
  82 003e 23F4FE03 		bic	r3, r3, #8323072
  83 0042 5360     		str	r3, [r2, #4]
 237:./Libraries/STM32F10x_StdPeriph_Driver/src/stm32f10x_rcc.c **** 
 238:./Libraries/STM32F10x_StdPeriph_Driver/src/stm32f10x_rcc.c **** #ifdef STM32F10X_CL
 239:./Libraries/STM32F10x_StdPeriph_Driver/src/stm32f10x_rcc.c ****   /* Reset PLL2ON and PLL3ON bits */
 240:./Libraries/STM32F10x_StdPeriph_Driver/src/stm32f10x_rcc.c ****   RCC->CR &= (uint32_t)0xEBFFFFFF;
 241:./Libraries/STM32F10x_StdPeriph_Driver/src/stm32f10x_rcc.c **** 
 242:./Libraries/STM32F10x_StdPeriph_Driver/src/stm32f10x_rcc.c ****   /* Disable all interrupts and clear pending bits  */
 243:./Libraries/STM32F10x_StdPeriph_Driver/src/stm32f10x_rcc.c ****   RCC->CIR = 0x00FF0000;
 244:./Libraries/STM32F10x_StdPeriph_Driver/src/stm32f10x_rcc.c **** 
 245:./Libraries/STM32F10x_StdPeriph_Driver/src/stm32f10x_rcc.c ****   /* Reset CFGR2 register */
 246:./Libraries/STM32F10x_StdPeriph_Driver/src/stm32f10x_rcc.c ****   RCC->CFGR2 = 0x00000000;
 247:./Libraries/STM32F10x_StdPeriph_Driver/src/stm32f10x_rcc.c **** #elif defined (STM32F10X_LD_VL) || defined (STM32F10X_MD_VL) || defined (STM32F10X_HD_VL)
 248:./Libraries/STM32F10x_StdPeriph_Driver/src/stm32f10x_rcc.c ****   /* Disable all interrupts and clear pending bits  */
 249:./Libraries/STM32F10x_StdPeriph_Driver/src/stm32f10x_rcc.c ****   RCC->CIR = 0x009F0000;
 250:./Libraries/STM32F10x_StdPeriph_Driver/src/stm32f10x_rcc.c **** 
 251:./Libraries/STM32F10x_StdPeriph_Driver/src/stm32f10x_rcc.c ****   /* Reset CFGR2 register */
 252:./Libraries/STM32F10x_StdPeriph_Driver/src/stm32f10x_rcc.c ****   RCC->CFGR2 = 0x00000000;      
 253:./Libraries/STM32F10x_StdPeriph_Driver/src/stm32f10x_rcc.c **** #else
 254:./Libraries/STM32F10x_StdPeriph_Driver/src/stm32f10x_rcc.c ****   /* Disable all interrupts and clear pending bits  */
 255:./Libraries/STM32F10x_StdPeriph_Driver/src/stm32f10x_rcc.c ****   RCC->CIR = 0x009F0000;
  84              		.loc 1 255 6
  85 0044 034B     		ldr	r3, .L2
  86              		.loc 1 255 12
  87 0046 4FF41F02 		mov	r2, #10420224
  88 004a 9A60     		str	r2, [r3, #8]
 256:./Libraries/STM32F10x_StdPeriph_Driver/src/stm32f10x_rcc.c **** #endif /* STM32F10X_CL */
ARM GAS  C:\Users\hao\AppData\Local\Temp\cc7h2zwF.s 			page 7


 257:./Libraries/STM32F10x_StdPeriph_Driver/src/stm32f10x_rcc.c **** 
 258:./Libraries/STM32F10x_StdPeriph_Driver/src/stm32f10x_rcc.c **** }
  89              		.loc 1 258 1
  90 004c 00BF     		nop
  91 004e BD46     		mov	sp, r7
  92              	.LCFI2:
  93              		.cfi_def_cfa_register 13
  94              		@ sp needed
  95 0050 80BC     		pop	{r7}
  96              	.LCFI3:
  97              		.cfi_restore 7
  98              		.cfi_def_cfa_offset 0
  99 0052 7047     		bx	lr
 100              	.L3:
 101              		.align	2
 102              	.L2:
 103 0054 00100240 		.word	1073876992
 104 0058 0000FFF8 		.word	-117506048
 105              		.cfi_endproc
 106              	.LFE29:
 108              		.section	.text.RCC_HSEConfig,"ax",%progbits
 109              		.align	1
 110              		.global	RCC_HSEConfig
 111              		.syntax unified
 112              		.thumb
 113              		.thumb_func
 115              	RCC_HSEConfig:
 116              	.LFB30:
 259:./Libraries/STM32F10x_StdPeriph_Driver/src/stm32f10x_rcc.c **** 
 260:./Libraries/STM32F10x_StdPeriph_Driver/src/stm32f10x_rcc.c **** /**
 261:./Libraries/STM32F10x_StdPeriph_Driver/src/stm32f10x_rcc.c ****   * @brief  Configures the External High Speed oscillator (HSE).
 262:./Libraries/STM32F10x_StdPeriph_Driver/src/stm32f10x_rcc.c ****   * @note   HSE can not be stopped if it is used directly or through the PLL as system clock.
 263:./Libraries/STM32F10x_StdPeriph_Driver/src/stm32f10x_rcc.c ****   * @param  RCC_HSE: specifies the new state of the HSE.
 264:./Libraries/STM32F10x_StdPeriph_Driver/src/stm32f10x_rcc.c ****   *   This parameter can be one of the following values:
 265:./Libraries/STM32F10x_StdPeriph_Driver/src/stm32f10x_rcc.c ****   *     @arg RCC_HSE_OFF: HSE oscillator OFF
 266:./Libraries/STM32F10x_StdPeriph_Driver/src/stm32f10x_rcc.c ****   *     @arg RCC_HSE_ON: HSE oscillator ON
 267:./Libraries/STM32F10x_StdPeriph_Driver/src/stm32f10x_rcc.c ****   *     @arg RCC_HSE_Bypass: HSE oscillator bypassed with external clock
 268:./Libraries/STM32F10x_StdPeriph_Driver/src/stm32f10x_rcc.c ****   * @retval None
 269:./Libraries/STM32F10x_StdPeriph_Driver/src/stm32f10x_rcc.c ****   */
 270:./Libraries/STM32F10x_StdPeriph_Driver/src/stm32f10x_rcc.c **** void RCC_HSEConfig(uint32_t RCC_HSE)
 271:./Libraries/STM32F10x_StdPeriph_Driver/src/stm32f10x_rcc.c **** {
 117              		.loc 1 271 1
 118              		.cfi_startproc
 119              		@ args = 0, pretend = 0, frame = 8
 120              		@ frame_needed = 1, uses_anonymous_args = 0
 121              		@ link register save eliminated.
 122 0000 80B4     		push	{r7}
 123              	.LCFI4:
 124              		.cfi_def_cfa_offset 4
 125              		.cfi_offset 7, -4
 126 0002 83B0     		sub	sp, sp, #12
 127              	.LCFI5:
 128              		.cfi_def_cfa_offset 16
 129 0004 00AF     		add	r7, sp, #0
 130              	.LCFI6:
 131              		.cfi_def_cfa_register 7
 132 0006 7860     		str	r0, [r7, #4]
ARM GAS  C:\Users\hao\AppData\Local\Temp\cc7h2zwF.s 			page 8


 272:./Libraries/STM32F10x_StdPeriph_Driver/src/stm32f10x_rcc.c ****   /* Check the parameters */
 273:./Libraries/STM32F10x_StdPeriph_Driver/src/stm32f10x_rcc.c ****   assert_param(IS_RCC_HSE(RCC_HSE));
 274:./Libraries/STM32F10x_StdPeriph_Driver/src/stm32f10x_rcc.c ****   /* Reset HSEON and HSEBYP bits before configuring the HSE ------------------*/
 275:./Libraries/STM32F10x_StdPeriph_Driver/src/stm32f10x_rcc.c ****   /* Reset HSEON bit */
 276:./Libraries/STM32F10x_StdPeriph_Driver/src/stm32f10x_rcc.c ****   RCC->CR &= CR_HSEON_Reset;
 133              		.loc 1 276 11
 134 0008 134B     		ldr	r3, .L9
 135 000a 1B68     		ldr	r3, [r3]
 136 000c 124A     		ldr	r2, .L9
 137 000e 23F48033 		bic	r3, r3, #65536
 138 0012 1360     		str	r3, [r2]
 277:./Libraries/STM32F10x_StdPeriph_Driver/src/stm32f10x_rcc.c ****   /* Reset HSEBYP bit */
 278:./Libraries/STM32F10x_StdPeriph_Driver/src/stm32f10x_rcc.c ****   RCC->CR &= CR_HSEBYP_Reset;
 139              		.loc 1 278 11
 140 0014 104B     		ldr	r3, .L9
 141 0016 1B68     		ldr	r3, [r3]
 142 0018 0F4A     		ldr	r2, .L9
 143 001a 23F48023 		bic	r3, r3, #262144
 144 001e 1360     		str	r3, [r2]
 279:./Libraries/STM32F10x_StdPeriph_Driver/src/stm32f10x_rcc.c ****   /* Configure HSE (RCC_HSE_OFF is already covered by the code section above) */
 280:./Libraries/STM32F10x_StdPeriph_Driver/src/stm32f10x_rcc.c ****   switch(RCC_HSE)
 145              		.loc 1 280 3
 146 0020 7B68     		ldr	r3, [r7, #4]
 147 0022 B3F5803F 		cmp	r3, #65536
 148 0026 04D0     		beq	.L5
 149 0028 7B68     		ldr	r3, [r7, #4]
 150 002a B3F5802F 		cmp	r3, #262144
 151 002e 07D0     		beq	.L6
 281:./Libraries/STM32F10x_StdPeriph_Driver/src/stm32f10x_rcc.c ****   {
 282:./Libraries/STM32F10x_StdPeriph_Driver/src/stm32f10x_rcc.c ****     case RCC_HSE_ON:
 283:./Libraries/STM32F10x_StdPeriph_Driver/src/stm32f10x_rcc.c ****       /* Set HSEON bit */
 284:./Libraries/STM32F10x_StdPeriph_Driver/src/stm32f10x_rcc.c ****       RCC->CR |= CR_HSEON_Set;
 285:./Libraries/STM32F10x_StdPeriph_Driver/src/stm32f10x_rcc.c ****       break;
 286:./Libraries/STM32F10x_StdPeriph_Driver/src/stm32f10x_rcc.c ****       
 287:./Libraries/STM32F10x_StdPeriph_Driver/src/stm32f10x_rcc.c ****     case RCC_HSE_Bypass:
 288:./Libraries/STM32F10x_StdPeriph_Driver/src/stm32f10x_rcc.c ****       /* Set HSEBYP and HSEON bits */
 289:./Libraries/STM32F10x_StdPeriph_Driver/src/stm32f10x_rcc.c ****       RCC->CR |= CR_HSEBYP_Set | CR_HSEON_Set;
 290:./Libraries/STM32F10x_StdPeriph_Driver/src/stm32f10x_rcc.c ****       break;
 291:./Libraries/STM32F10x_StdPeriph_Driver/src/stm32f10x_rcc.c ****       
 292:./Libraries/STM32F10x_StdPeriph_Driver/src/stm32f10x_rcc.c ****     default:
 293:./Libraries/STM32F10x_StdPeriph_Driver/src/stm32f10x_rcc.c ****       break;
 152              		.loc 1 293 7
 153 0030 0DE0     		b	.L8
 154              	.L5:
 284:./Libraries/STM32F10x_StdPeriph_Driver/src/stm32f10x_rcc.c ****       break;
 155              		.loc 1 284 15
 156 0032 094B     		ldr	r3, .L9
 157 0034 1B68     		ldr	r3, [r3]
 158 0036 084A     		ldr	r2, .L9
 159 0038 43F48033 		orr	r3, r3, #65536
 160 003c 1360     		str	r3, [r2]
 285:./Libraries/STM32F10x_StdPeriph_Driver/src/stm32f10x_rcc.c ****       
 161              		.loc 1 285 7
 162 003e 06E0     		b	.L8
 163              	.L6:
 289:./Libraries/STM32F10x_StdPeriph_Driver/src/stm32f10x_rcc.c ****       break;
 164              		.loc 1 289 15
ARM GAS  C:\Users\hao\AppData\Local\Temp\cc7h2zwF.s 			page 9


 165 0040 054B     		ldr	r3, .L9
 166 0042 1B68     		ldr	r3, [r3]
 167 0044 044A     		ldr	r2, .L9
 168 0046 43F4A023 		orr	r3, r3, #327680
 169 004a 1360     		str	r3, [r2]
 290:./Libraries/STM32F10x_StdPeriph_Driver/src/stm32f10x_rcc.c ****       
 170              		.loc 1 290 7
 171 004c 00BF     		nop
 172              	.L8:
 294:./Libraries/STM32F10x_StdPeriph_Driver/src/stm32f10x_rcc.c ****   }
 295:./Libraries/STM32F10x_StdPeriph_Driver/src/stm32f10x_rcc.c **** }
 173              		.loc 1 295 1
 174 004e 00BF     		nop
 175 0050 0C37     		adds	r7, r7, #12
 176              	.LCFI7:
 177              		.cfi_def_cfa_offset 4
 178 0052 BD46     		mov	sp, r7
 179              	.LCFI8:
 180              		.cfi_def_cfa_register 13
 181              		@ sp needed
 182 0054 80BC     		pop	{r7}
 183              	.LCFI9:
 184              		.cfi_restore 7
 185              		.cfi_def_cfa_offset 0
 186 0056 7047     		bx	lr
 187              	.L10:
 188              		.align	2
 189              	.L9:
 190 0058 00100240 		.word	1073876992
 191              		.cfi_endproc
 192              	.LFE30:
 194              		.section	.text.RCC_WaitForHSEStartUp,"ax",%progbits
 195              		.align	1
 196              		.global	RCC_WaitForHSEStartUp
 197              		.syntax unified
 198              		.thumb
 199              		.thumb_func
 201              	RCC_WaitForHSEStartUp:
 202              	.LFB31:
 296:./Libraries/STM32F10x_StdPeriph_Driver/src/stm32f10x_rcc.c **** 
 297:./Libraries/STM32F10x_StdPeriph_Driver/src/stm32f10x_rcc.c **** /**
 298:./Libraries/STM32F10x_StdPeriph_Driver/src/stm32f10x_rcc.c ****   * @brief  Waits for HSE start-up.
 299:./Libraries/STM32F10x_StdPeriph_Driver/src/stm32f10x_rcc.c ****   * @param  None
 300:./Libraries/STM32F10x_StdPeriph_Driver/src/stm32f10x_rcc.c ****   * @retval An ErrorStatus enumuration value:
 301:./Libraries/STM32F10x_StdPeriph_Driver/src/stm32f10x_rcc.c ****   * - SUCCESS: HSE oscillator is stable and ready to use
 302:./Libraries/STM32F10x_StdPeriph_Driver/src/stm32f10x_rcc.c ****   * - ERROR: HSE oscillator not yet ready
 303:./Libraries/STM32F10x_StdPeriph_Driver/src/stm32f10x_rcc.c ****   */
 304:./Libraries/STM32F10x_StdPeriph_Driver/src/stm32f10x_rcc.c **** ErrorStatus RCC_WaitForHSEStartUp(void)
 305:./Libraries/STM32F10x_StdPeriph_Driver/src/stm32f10x_rcc.c **** {
 203              		.loc 1 305 1
 204              		.cfi_startproc
 205              		@ args = 0, pretend = 0, frame = 8
 206              		@ frame_needed = 1, uses_anonymous_args = 0
 207 0000 80B5     		push	{r7, lr}
 208              	.LCFI10:
 209              		.cfi_def_cfa_offset 8
 210              		.cfi_offset 7, -8
ARM GAS  C:\Users\hao\AppData\Local\Temp\cc7h2zwF.s 			page 10


 211              		.cfi_offset 14, -4
 212 0002 82B0     		sub	sp, sp, #8
 213              	.LCFI11:
 214              		.cfi_def_cfa_offset 16
 215 0004 00AF     		add	r7, sp, #0
 216              	.LCFI12:
 217              		.cfi_def_cfa_register 7
 306:./Libraries/STM32F10x_StdPeriph_Driver/src/stm32f10x_rcc.c ****   __IO uint32_t StartUpCounter = 0;
 218              		.loc 1 306 17
 219 0006 0023     		movs	r3, #0
 220 0008 3B60     		str	r3, [r7]
 307:./Libraries/STM32F10x_StdPeriph_Driver/src/stm32f10x_rcc.c ****   ErrorStatus status = ERROR;
 221              		.loc 1 307 15
 222 000a 0023     		movs	r3, #0
 223 000c FB71     		strb	r3, [r7, #7]
 308:./Libraries/STM32F10x_StdPeriph_Driver/src/stm32f10x_rcc.c ****   FlagStatus HSEStatus = RESET;
 224              		.loc 1 308 14
 225 000e 0023     		movs	r3, #0
 226 0010 BB71     		strb	r3, [r7, #6]
 227              	.L13:
 309:./Libraries/STM32F10x_StdPeriph_Driver/src/stm32f10x_rcc.c ****   
 310:./Libraries/STM32F10x_StdPeriph_Driver/src/stm32f10x_rcc.c ****   /* Wait till HSE is ready and if Time out is reached exit */
 311:./Libraries/STM32F10x_StdPeriph_Driver/src/stm32f10x_rcc.c ****   do
 312:./Libraries/STM32F10x_StdPeriph_Driver/src/stm32f10x_rcc.c ****   {
 313:./Libraries/STM32F10x_StdPeriph_Driver/src/stm32f10x_rcc.c ****     HSEStatus = RCC_GetFlagStatus(RCC_FLAG_HSERDY);
 228              		.loc 1 313 17 discriminator 2
 229 0012 3120     		movs	r0, #49
 230 0014 FFF7FEFF 		bl	RCC_GetFlagStatus
 231 0018 0346     		mov	r3, r0
 232 001a BB71     		strb	r3, [r7, #6]
 314:./Libraries/STM32F10x_StdPeriph_Driver/src/stm32f10x_rcc.c ****     StartUpCounter++;  
 233              		.loc 1 314 19 discriminator 2
 234 001c 3B68     		ldr	r3, [r7]
 235 001e 0133     		adds	r3, r3, #1
 236 0020 3B60     		str	r3, [r7]
 315:./Libraries/STM32F10x_StdPeriph_Driver/src/stm32f10x_rcc.c ****   } while((StartUpCounter != HSE_STARTUP_TIMEOUT) && (HSEStatus == RESET));
 237              		.loc 1 315 27 discriminator 2
 238 0022 3B68     		ldr	r3, [r7]
 239              		.loc 1 315 3 discriminator 2
 240 0024 B3F5A06F 		cmp	r3, #1280
 241 0028 02D0     		beq	.L12
 242              		.loc 1 315 51 discriminator 1
 243 002a BB79     		ldrb	r3, [r7, #6]	@ zero_extendqisi2
 244 002c 002B     		cmp	r3, #0
 245 002e F0D0     		beq	.L13
 246              	.L12:
 316:./Libraries/STM32F10x_StdPeriph_Driver/src/stm32f10x_rcc.c ****   
 317:./Libraries/STM32F10x_StdPeriph_Driver/src/stm32f10x_rcc.c ****   if (RCC_GetFlagStatus(RCC_FLAG_HSERDY) != RESET)
 247              		.loc 1 317 7
 248 0030 3120     		movs	r0, #49
 249 0032 FFF7FEFF 		bl	RCC_GetFlagStatus
 250 0036 0346     		mov	r3, r0
 251              		.loc 1 317 6
 252 0038 002B     		cmp	r3, #0
 253 003a 02D0     		beq	.L14
 318:./Libraries/STM32F10x_StdPeriph_Driver/src/stm32f10x_rcc.c ****   {
 319:./Libraries/STM32F10x_StdPeriph_Driver/src/stm32f10x_rcc.c ****     status = SUCCESS;
ARM GAS  C:\Users\hao\AppData\Local\Temp\cc7h2zwF.s 			page 11


 254              		.loc 1 319 12
 255 003c 0123     		movs	r3, #1
 256 003e FB71     		strb	r3, [r7, #7]
 257 0040 01E0     		b	.L15
 258              	.L14:
 320:./Libraries/STM32F10x_StdPeriph_Driver/src/stm32f10x_rcc.c ****   }
 321:./Libraries/STM32F10x_StdPeriph_Driver/src/stm32f10x_rcc.c ****   else
 322:./Libraries/STM32F10x_StdPeriph_Driver/src/stm32f10x_rcc.c ****   {
 323:./Libraries/STM32F10x_StdPeriph_Driver/src/stm32f10x_rcc.c ****     status = ERROR;
 259              		.loc 1 323 12
 260 0042 0023     		movs	r3, #0
 261 0044 FB71     		strb	r3, [r7, #7]
 262              	.L15:
 324:./Libraries/STM32F10x_StdPeriph_Driver/src/stm32f10x_rcc.c ****   }  
 325:./Libraries/STM32F10x_StdPeriph_Driver/src/stm32f10x_rcc.c ****   return (status);
 263              		.loc 1 325 10
 264 0046 FB79     		ldrb	r3, [r7, #7]	@ zero_extendqisi2
 326:./Libraries/STM32F10x_StdPeriph_Driver/src/stm32f10x_rcc.c **** }
 265              		.loc 1 326 1
 266 0048 1846     		mov	r0, r3
 267 004a 0837     		adds	r7, r7, #8
 268              	.LCFI13:
 269              		.cfi_def_cfa_offset 8
 270 004c BD46     		mov	sp, r7
 271              	.LCFI14:
 272              		.cfi_def_cfa_register 13
 273              		@ sp needed
 274 004e 80BD     		pop	{r7, pc}
 275              		.cfi_endproc
 276              	.LFE31:
 278              		.section	.text.RCC_AdjustHSICalibrationValue,"ax",%progbits
 279              		.align	1
 280              		.global	RCC_AdjustHSICalibrationValue
 281              		.syntax unified
 282              		.thumb
 283              		.thumb_func
 285              	RCC_AdjustHSICalibrationValue:
 286              	.LFB32:
 327:./Libraries/STM32F10x_StdPeriph_Driver/src/stm32f10x_rcc.c **** 
 328:./Libraries/STM32F10x_StdPeriph_Driver/src/stm32f10x_rcc.c **** /**
 329:./Libraries/STM32F10x_StdPeriph_Driver/src/stm32f10x_rcc.c ****   * @brief  Adjusts the Internal High Speed oscillator (HSI) calibration value.
 330:./Libraries/STM32F10x_StdPeriph_Driver/src/stm32f10x_rcc.c ****   * @param  HSICalibrationValue: specifies the calibration trimming value.
 331:./Libraries/STM32F10x_StdPeriph_Driver/src/stm32f10x_rcc.c ****   *   This parameter must be a number between 0 and 0x1F.
 332:./Libraries/STM32F10x_StdPeriph_Driver/src/stm32f10x_rcc.c ****   * @retval None
 333:./Libraries/STM32F10x_StdPeriph_Driver/src/stm32f10x_rcc.c ****   */
 334:./Libraries/STM32F10x_StdPeriph_Driver/src/stm32f10x_rcc.c **** void RCC_AdjustHSICalibrationValue(uint8_t HSICalibrationValue)
 335:./Libraries/STM32F10x_StdPeriph_Driver/src/stm32f10x_rcc.c **** {
 287              		.loc 1 335 1
 288              		.cfi_startproc
 289              		@ args = 0, pretend = 0, frame = 16
 290              		@ frame_needed = 1, uses_anonymous_args = 0
 291              		@ link register save eliminated.
 292 0000 80B4     		push	{r7}
 293              	.LCFI15:
 294              		.cfi_def_cfa_offset 4
 295              		.cfi_offset 7, -4
 296 0002 85B0     		sub	sp, sp, #20
ARM GAS  C:\Users\hao\AppData\Local\Temp\cc7h2zwF.s 			page 12


 297              	.LCFI16:
 298              		.cfi_def_cfa_offset 24
 299 0004 00AF     		add	r7, sp, #0
 300              	.LCFI17:
 301              		.cfi_def_cfa_register 7
 302 0006 0346     		mov	r3, r0
 303 0008 FB71     		strb	r3, [r7, #7]
 336:./Libraries/STM32F10x_StdPeriph_Driver/src/stm32f10x_rcc.c ****   uint32_t tmpreg = 0;
 304              		.loc 1 336 12
 305 000a 0023     		movs	r3, #0
 306 000c FB60     		str	r3, [r7, #12]
 337:./Libraries/STM32F10x_StdPeriph_Driver/src/stm32f10x_rcc.c ****   /* Check the parameters */
 338:./Libraries/STM32F10x_StdPeriph_Driver/src/stm32f10x_rcc.c ****   assert_param(IS_RCC_CALIBRATION_VALUE(HSICalibrationValue));
 339:./Libraries/STM32F10x_StdPeriph_Driver/src/stm32f10x_rcc.c ****   tmpreg = RCC->CR;
 307              		.loc 1 339 15
 308 000e 0A4B     		ldr	r3, .L18
 309              		.loc 1 339 10
 310 0010 1B68     		ldr	r3, [r3]
 311 0012 FB60     		str	r3, [r7, #12]
 340:./Libraries/STM32F10x_StdPeriph_Driver/src/stm32f10x_rcc.c ****   /* Clear HSITRIM[4:0] bits */
 341:./Libraries/STM32F10x_StdPeriph_Driver/src/stm32f10x_rcc.c ****   tmpreg &= CR_HSITRIM_Mask;
 312              		.loc 1 341 10
 313 0014 FB68     		ldr	r3, [r7, #12]
 314 0016 23F0F803 		bic	r3, r3, #248
 315 001a FB60     		str	r3, [r7, #12]
 342:./Libraries/STM32F10x_StdPeriph_Driver/src/stm32f10x_rcc.c ****   /* Set the HSITRIM[4:0] bits according to HSICalibrationValue value */
 343:./Libraries/STM32F10x_StdPeriph_Driver/src/stm32f10x_rcc.c ****   tmpreg |= (uint32_t)HSICalibrationValue << 3;
 316              		.loc 1 343 13
 317 001c FB79     		ldrb	r3, [r7, #7]	@ zero_extendqisi2
 318              		.loc 1 343 43
 319 001e DB00     		lsls	r3, r3, #3
 320              		.loc 1 343 10
 321 0020 FA68     		ldr	r2, [r7, #12]
 322 0022 1343     		orrs	r3, r3, r2
 323 0024 FB60     		str	r3, [r7, #12]
 344:./Libraries/STM32F10x_StdPeriph_Driver/src/stm32f10x_rcc.c ****   /* Store the new value */
 345:./Libraries/STM32F10x_StdPeriph_Driver/src/stm32f10x_rcc.c ****   RCC->CR = tmpreg;
 324              		.loc 1 345 6
 325 0026 044A     		ldr	r2, .L18
 326              		.loc 1 345 11
 327 0028 FB68     		ldr	r3, [r7, #12]
 328 002a 1360     		str	r3, [r2]
 346:./Libraries/STM32F10x_StdPeriph_Driver/src/stm32f10x_rcc.c **** }
 329              		.loc 1 346 1
 330 002c 00BF     		nop
 331 002e 1437     		adds	r7, r7, #20
 332              	.LCFI18:
 333              		.cfi_def_cfa_offset 4
 334 0030 BD46     		mov	sp, r7
 335              	.LCFI19:
 336              		.cfi_def_cfa_register 13
 337              		@ sp needed
 338 0032 80BC     		pop	{r7}
 339              	.LCFI20:
 340              		.cfi_restore 7
 341              		.cfi_def_cfa_offset 0
 342 0034 7047     		bx	lr
ARM GAS  C:\Users\hao\AppData\Local\Temp\cc7h2zwF.s 			page 13


 343              	.L19:
 344 0036 00BF     		.align	2
 345              	.L18:
 346 0038 00100240 		.word	1073876992
 347              		.cfi_endproc
 348              	.LFE32:
 350              		.section	.text.RCC_HSICmd,"ax",%progbits
 351              		.align	1
 352              		.global	RCC_HSICmd
 353              		.syntax unified
 354              		.thumb
 355              		.thumb_func
 357              	RCC_HSICmd:
 358              	.LFB33:
 347:./Libraries/STM32F10x_StdPeriph_Driver/src/stm32f10x_rcc.c **** 
 348:./Libraries/STM32F10x_StdPeriph_Driver/src/stm32f10x_rcc.c **** /**
 349:./Libraries/STM32F10x_StdPeriph_Driver/src/stm32f10x_rcc.c ****   * @brief  Enables or disables the Internal High Speed oscillator (HSI).
 350:./Libraries/STM32F10x_StdPeriph_Driver/src/stm32f10x_rcc.c ****   * @note   HSI can not be stopped if it is used directly or through the PLL as system clock.
 351:./Libraries/STM32F10x_StdPeriph_Driver/src/stm32f10x_rcc.c ****   * @param  NewState: new state of the HSI. This parameter can be: ENABLE or DISABLE.
 352:./Libraries/STM32F10x_StdPeriph_Driver/src/stm32f10x_rcc.c ****   * @retval None
 353:./Libraries/STM32F10x_StdPeriph_Driver/src/stm32f10x_rcc.c ****   */
 354:./Libraries/STM32F10x_StdPeriph_Driver/src/stm32f10x_rcc.c **** void RCC_HSICmd(FunctionalState NewState)
 355:./Libraries/STM32F10x_StdPeriph_Driver/src/stm32f10x_rcc.c **** {
 359              		.loc 1 355 1
 360              		.cfi_startproc
 361              		@ args = 0, pretend = 0, frame = 8
 362              		@ frame_needed = 1, uses_anonymous_args = 0
 363              		@ link register save eliminated.
 364 0000 80B4     		push	{r7}
 365              	.LCFI21:
 366              		.cfi_def_cfa_offset 4
 367              		.cfi_offset 7, -4
 368 0002 83B0     		sub	sp, sp, #12
 369              	.LCFI22:
 370              		.cfi_def_cfa_offset 16
 371 0004 00AF     		add	r7, sp, #0
 372              	.LCFI23:
 373              		.cfi_def_cfa_register 7
 374 0006 0346     		mov	r3, r0
 375 0008 FB71     		strb	r3, [r7, #7]
 356:./Libraries/STM32F10x_StdPeriph_Driver/src/stm32f10x_rcc.c ****   /* Check the parameters */
 357:./Libraries/STM32F10x_StdPeriph_Driver/src/stm32f10x_rcc.c ****   assert_param(IS_FUNCTIONAL_STATE(NewState));
 358:./Libraries/STM32F10x_StdPeriph_Driver/src/stm32f10x_rcc.c ****   *(__IO uint32_t *) CR_HSION_BB = (uint32_t)NewState;
 376              		.loc 1 358 3
 377 000a 044A     		ldr	r2, .L21
 378              		.loc 1 358 36
 379 000c FB79     		ldrb	r3, [r7, #7]	@ zero_extendqisi2
 380              		.loc 1 358 34
 381 000e 1360     		str	r3, [r2]
 359:./Libraries/STM32F10x_StdPeriph_Driver/src/stm32f10x_rcc.c **** }
 382              		.loc 1 359 1
 383 0010 00BF     		nop
 384 0012 0C37     		adds	r7, r7, #12
 385              	.LCFI24:
 386              		.cfi_def_cfa_offset 4
 387 0014 BD46     		mov	sp, r7
 388              	.LCFI25:
ARM GAS  C:\Users\hao\AppData\Local\Temp\cc7h2zwF.s 			page 14


 389              		.cfi_def_cfa_register 13
 390              		@ sp needed
 391 0016 80BC     		pop	{r7}
 392              	.LCFI26:
 393              		.cfi_restore 7
 394              		.cfi_def_cfa_offset 0
 395 0018 7047     		bx	lr
 396              	.L22:
 397 001a 00BF     		.align	2
 398              	.L21:
 399 001c 00004242 		.word	1111621632
 400              		.cfi_endproc
 401              	.LFE33:
 403              		.section	.text.RCC_PLLConfig,"ax",%progbits
 404              		.align	1
 405              		.global	RCC_PLLConfig
 406              		.syntax unified
 407              		.thumb
 408              		.thumb_func
 410              	RCC_PLLConfig:
 411              	.LFB34:
 360:./Libraries/STM32F10x_StdPeriph_Driver/src/stm32f10x_rcc.c **** 
 361:./Libraries/STM32F10x_StdPeriph_Driver/src/stm32f10x_rcc.c **** /**
 362:./Libraries/STM32F10x_StdPeriph_Driver/src/stm32f10x_rcc.c ****   * @brief  Configures the PLL clock source and multiplication factor.
 363:./Libraries/STM32F10x_StdPeriph_Driver/src/stm32f10x_rcc.c ****   * @note   This function must be used only when the PLL is disabled.
 364:./Libraries/STM32F10x_StdPeriph_Driver/src/stm32f10x_rcc.c ****   * @param  RCC_PLLSource: specifies the PLL entry clock source.
 365:./Libraries/STM32F10x_StdPeriph_Driver/src/stm32f10x_rcc.c ****   *   For @b STM32_Connectivity_line_devices or @b STM32_Value_line_devices, 
 366:./Libraries/STM32F10x_StdPeriph_Driver/src/stm32f10x_rcc.c ****   *   this parameter can be one of the following values:
 367:./Libraries/STM32F10x_StdPeriph_Driver/src/stm32f10x_rcc.c ****   *     @arg RCC_PLLSource_HSI_Div2: HSI oscillator clock divided by 2 selected as PLL clock entry
 368:./Libraries/STM32F10x_StdPeriph_Driver/src/stm32f10x_rcc.c ****   *     @arg RCC_PLLSource_PREDIV1: PREDIV1 clock selected as PLL clock entry
 369:./Libraries/STM32F10x_StdPeriph_Driver/src/stm32f10x_rcc.c ****   *   For @b other_STM32_devices, this parameter can be one of the following values:
 370:./Libraries/STM32F10x_StdPeriph_Driver/src/stm32f10x_rcc.c ****   *     @arg RCC_PLLSource_HSI_Div2: HSI oscillator clock divided by 2 selected as PLL clock entry
 371:./Libraries/STM32F10x_StdPeriph_Driver/src/stm32f10x_rcc.c ****   *     @arg RCC_PLLSource_HSE_Div1: HSE oscillator clock selected as PLL clock entry
 372:./Libraries/STM32F10x_StdPeriph_Driver/src/stm32f10x_rcc.c ****   *     @arg RCC_PLLSource_HSE_Div2: HSE oscillator clock divided by 2 selected as PLL clock entry 
 373:./Libraries/STM32F10x_StdPeriph_Driver/src/stm32f10x_rcc.c ****   * @param  RCC_PLLMul: specifies the PLL multiplication factor.
 374:./Libraries/STM32F10x_StdPeriph_Driver/src/stm32f10x_rcc.c ****   *   For @b STM32_Connectivity_line_devices, this parameter can be RCC_PLLMul_x where x:{[4,9], 6_
 375:./Libraries/STM32F10x_StdPeriph_Driver/src/stm32f10x_rcc.c ****   *   For @b other_STM32_devices, this parameter can be RCC_PLLMul_x where x:[2,16]  
 376:./Libraries/STM32F10x_StdPeriph_Driver/src/stm32f10x_rcc.c ****   * @retval None
 377:./Libraries/STM32F10x_StdPeriph_Driver/src/stm32f10x_rcc.c ****   */
 378:./Libraries/STM32F10x_StdPeriph_Driver/src/stm32f10x_rcc.c **** void RCC_PLLConfig(uint32_t RCC_PLLSource, uint32_t RCC_PLLMul)
 379:./Libraries/STM32F10x_StdPeriph_Driver/src/stm32f10x_rcc.c **** {
 412              		.loc 1 379 1
 413              		.cfi_startproc
 414              		@ args = 0, pretend = 0, frame = 16
 415              		@ frame_needed = 1, uses_anonymous_args = 0
 416              		@ link register save eliminated.
 417 0000 80B4     		push	{r7}
 418              	.LCFI27:
 419              		.cfi_def_cfa_offset 4
 420              		.cfi_offset 7, -4
 421 0002 85B0     		sub	sp, sp, #20
 422              	.LCFI28:
 423              		.cfi_def_cfa_offset 24
 424 0004 00AF     		add	r7, sp, #0
 425              	.LCFI29:
 426              		.cfi_def_cfa_register 7
 427 0006 7860     		str	r0, [r7, #4]
ARM GAS  C:\Users\hao\AppData\Local\Temp\cc7h2zwF.s 			page 15


 428 0008 3960     		str	r1, [r7]
 380:./Libraries/STM32F10x_StdPeriph_Driver/src/stm32f10x_rcc.c ****   uint32_t tmpreg = 0;
 429              		.loc 1 380 12
 430 000a 0023     		movs	r3, #0
 431 000c FB60     		str	r3, [r7, #12]
 381:./Libraries/STM32F10x_StdPeriph_Driver/src/stm32f10x_rcc.c **** 
 382:./Libraries/STM32F10x_StdPeriph_Driver/src/stm32f10x_rcc.c ****   /* Check the parameters */
 383:./Libraries/STM32F10x_StdPeriph_Driver/src/stm32f10x_rcc.c ****   assert_param(IS_RCC_PLL_SOURCE(RCC_PLLSource));
 384:./Libraries/STM32F10x_StdPeriph_Driver/src/stm32f10x_rcc.c ****   assert_param(IS_RCC_PLL_MUL(RCC_PLLMul));
 385:./Libraries/STM32F10x_StdPeriph_Driver/src/stm32f10x_rcc.c **** 
 386:./Libraries/STM32F10x_StdPeriph_Driver/src/stm32f10x_rcc.c ****   tmpreg = RCC->CFGR;
 432              		.loc 1 386 15
 433 000e 0A4B     		ldr	r3, .L24
 434              		.loc 1 386 10
 435 0010 5B68     		ldr	r3, [r3, #4]
 436 0012 FB60     		str	r3, [r7, #12]
 387:./Libraries/STM32F10x_StdPeriph_Driver/src/stm32f10x_rcc.c ****   /* Clear PLLSRC, PLLXTPRE and PLLMUL[3:0] bits */
 388:./Libraries/STM32F10x_StdPeriph_Driver/src/stm32f10x_rcc.c ****   tmpreg &= CFGR_PLL_Mask;
 437              		.loc 1 388 10
 438 0014 FB68     		ldr	r3, [r7, #12]
 439 0016 23F47C13 		bic	r3, r3, #4128768
 440 001a FB60     		str	r3, [r7, #12]
 389:./Libraries/STM32F10x_StdPeriph_Driver/src/stm32f10x_rcc.c ****   /* Set the PLL configuration bits */
 390:./Libraries/STM32F10x_StdPeriph_Driver/src/stm32f10x_rcc.c ****   tmpreg |= RCC_PLLSource | RCC_PLLMul;
 441              		.loc 1 390 27
 442 001c 7A68     		ldr	r2, [r7, #4]
 443 001e 3B68     		ldr	r3, [r7]
 444 0020 1343     		orrs	r3, r3, r2
 445              		.loc 1 390 10
 446 0022 FA68     		ldr	r2, [r7, #12]
 447 0024 1343     		orrs	r3, r3, r2
 448 0026 FB60     		str	r3, [r7, #12]
 391:./Libraries/STM32F10x_StdPeriph_Driver/src/stm32f10x_rcc.c ****   /* Store the new value */
 392:./Libraries/STM32F10x_StdPeriph_Driver/src/stm32f10x_rcc.c ****   RCC->CFGR = tmpreg;
 449              		.loc 1 392 6
 450 0028 034A     		ldr	r2, .L24
 451              		.loc 1 392 13
 452 002a FB68     		ldr	r3, [r7, #12]
 453 002c 5360     		str	r3, [r2, #4]
 393:./Libraries/STM32F10x_StdPeriph_Driver/src/stm32f10x_rcc.c **** }
 454              		.loc 1 393 1
 455 002e 00BF     		nop
 456 0030 1437     		adds	r7, r7, #20
 457              	.LCFI30:
 458              		.cfi_def_cfa_offset 4
 459 0032 BD46     		mov	sp, r7
 460              	.LCFI31:
 461              		.cfi_def_cfa_register 13
 462              		@ sp needed
 463 0034 80BC     		pop	{r7}
 464              	.LCFI32:
 465              		.cfi_restore 7
 466              		.cfi_def_cfa_offset 0
 467 0036 7047     		bx	lr
 468              	.L25:
 469              		.align	2
 470              	.L24:
ARM GAS  C:\Users\hao\AppData\Local\Temp\cc7h2zwF.s 			page 16


 471 0038 00100240 		.word	1073876992
 472              		.cfi_endproc
 473              	.LFE34:
 475              		.section	.text.RCC_PLLCmd,"ax",%progbits
 476              		.align	1
 477              		.global	RCC_PLLCmd
 478              		.syntax unified
 479              		.thumb
 480              		.thumb_func
 482              	RCC_PLLCmd:
 483              	.LFB35:
 394:./Libraries/STM32F10x_StdPeriph_Driver/src/stm32f10x_rcc.c **** 
 395:./Libraries/STM32F10x_StdPeriph_Driver/src/stm32f10x_rcc.c **** /**
 396:./Libraries/STM32F10x_StdPeriph_Driver/src/stm32f10x_rcc.c ****   * @brief  Enables or disables the PLL.
 397:./Libraries/STM32F10x_StdPeriph_Driver/src/stm32f10x_rcc.c ****   * @note   The PLL can not be disabled if it is used as system clock.
 398:./Libraries/STM32F10x_StdPeriph_Driver/src/stm32f10x_rcc.c ****   * @param  NewState: new state of the PLL. This parameter can be: ENABLE or DISABLE.
 399:./Libraries/STM32F10x_StdPeriph_Driver/src/stm32f10x_rcc.c ****   * @retval None
 400:./Libraries/STM32F10x_StdPeriph_Driver/src/stm32f10x_rcc.c ****   */
 401:./Libraries/STM32F10x_StdPeriph_Driver/src/stm32f10x_rcc.c **** void RCC_PLLCmd(FunctionalState NewState)
 402:./Libraries/STM32F10x_StdPeriph_Driver/src/stm32f10x_rcc.c **** {
 484              		.loc 1 402 1
 485              		.cfi_startproc
 486              		@ args = 0, pretend = 0, frame = 8
 487              		@ frame_needed = 1, uses_anonymous_args = 0
 488              		@ link register save eliminated.
 489 0000 80B4     		push	{r7}
 490              	.LCFI33:
 491              		.cfi_def_cfa_offset 4
 492              		.cfi_offset 7, -4
 493 0002 83B0     		sub	sp, sp, #12
 494              	.LCFI34:
 495              		.cfi_def_cfa_offset 16
 496 0004 00AF     		add	r7, sp, #0
 497              	.LCFI35:
 498              		.cfi_def_cfa_register 7
 499 0006 0346     		mov	r3, r0
 500 0008 FB71     		strb	r3, [r7, #7]
 403:./Libraries/STM32F10x_StdPeriph_Driver/src/stm32f10x_rcc.c ****   /* Check the parameters */
 404:./Libraries/STM32F10x_StdPeriph_Driver/src/stm32f10x_rcc.c ****   assert_param(IS_FUNCTIONAL_STATE(NewState));
 405:./Libraries/STM32F10x_StdPeriph_Driver/src/stm32f10x_rcc.c **** 
 406:./Libraries/STM32F10x_StdPeriph_Driver/src/stm32f10x_rcc.c ****   *(__IO uint32_t *) CR_PLLON_BB = (uint32_t)NewState;
 501              		.loc 1 406 3
 502 000a 044A     		ldr	r2, .L27
 503              		.loc 1 406 36
 504 000c FB79     		ldrb	r3, [r7, #7]	@ zero_extendqisi2
 505              		.loc 1 406 34
 506 000e 1360     		str	r3, [r2]
 407:./Libraries/STM32F10x_StdPeriph_Driver/src/stm32f10x_rcc.c **** }
 507              		.loc 1 407 1
 508 0010 00BF     		nop
 509 0012 0C37     		adds	r7, r7, #12
 510              	.LCFI36:
 511              		.cfi_def_cfa_offset 4
 512 0014 BD46     		mov	sp, r7
 513              	.LCFI37:
 514              		.cfi_def_cfa_register 13
 515              		@ sp needed
ARM GAS  C:\Users\hao\AppData\Local\Temp\cc7h2zwF.s 			page 17


 516 0016 80BC     		pop	{r7}
 517              	.LCFI38:
 518              		.cfi_restore 7
 519              		.cfi_def_cfa_offset 0
 520 0018 7047     		bx	lr
 521              	.L28:
 522 001a 00BF     		.align	2
 523              	.L27:
 524 001c 60004242 		.word	1111621728
 525              		.cfi_endproc
 526              	.LFE35:
 528              		.section	.text.RCC_SYSCLKConfig,"ax",%progbits
 529              		.align	1
 530              		.global	RCC_SYSCLKConfig
 531              		.syntax unified
 532              		.thumb
 533              		.thumb_func
 535              	RCC_SYSCLKConfig:
 536              	.LFB36:
 408:./Libraries/STM32F10x_StdPeriph_Driver/src/stm32f10x_rcc.c **** 
 409:./Libraries/STM32F10x_StdPeriph_Driver/src/stm32f10x_rcc.c **** #if defined (STM32F10X_LD_VL) || defined (STM32F10X_MD_VL) || defined (STM32F10X_HD_VL) || defined 
 410:./Libraries/STM32F10x_StdPeriph_Driver/src/stm32f10x_rcc.c **** /**
 411:./Libraries/STM32F10x_StdPeriph_Driver/src/stm32f10x_rcc.c ****   * @brief  Configures the PREDIV1 division factor.
 412:./Libraries/STM32F10x_StdPeriph_Driver/src/stm32f10x_rcc.c ****   * @note 
 413:./Libraries/STM32F10x_StdPeriph_Driver/src/stm32f10x_rcc.c ****   *   - This function must be used only when the PLL is disabled.
 414:./Libraries/STM32F10x_StdPeriph_Driver/src/stm32f10x_rcc.c ****   *   - This function applies only to STM32 Connectivity line and Value line 
 415:./Libraries/STM32F10x_StdPeriph_Driver/src/stm32f10x_rcc.c ****   *     devices.
 416:./Libraries/STM32F10x_StdPeriph_Driver/src/stm32f10x_rcc.c ****   * @param  RCC_PREDIV1_Source: specifies the PREDIV1 clock source.
 417:./Libraries/STM32F10x_StdPeriph_Driver/src/stm32f10x_rcc.c ****   *   This parameter can be one of the following values:
 418:./Libraries/STM32F10x_StdPeriph_Driver/src/stm32f10x_rcc.c ****   *     @arg RCC_PREDIV1_Source_HSE: HSE selected as PREDIV1 clock
 419:./Libraries/STM32F10x_StdPeriph_Driver/src/stm32f10x_rcc.c ****   *     @arg RCC_PREDIV1_Source_PLL2: PLL2 selected as PREDIV1 clock
 420:./Libraries/STM32F10x_StdPeriph_Driver/src/stm32f10x_rcc.c ****   * @note 
 421:./Libraries/STM32F10x_StdPeriph_Driver/src/stm32f10x_rcc.c ****   *   For @b STM32_Value_line_devices this parameter is always RCC_PREDIV1_Source_HSE  
 422:./Libraries/STM32F10x_StdPeriph_Driver/src/stm32f10x_rcc.c ****   * @param  RCC_PREDIV1_Div: specifies the PREDIV1 clock division factor.
 423:./Libraries/STM32F10x_StdPeriph_Driver/src/stm32f10x_rcc.c ****   *   This parameter can be RCC_PREDIV1_Divx where x:[1,16]
 424:./Libraries/STM32F10x_StdPeriph_Driver/src/stm32f10x_rcc.c ****   * @retval None
 425:./Libraries/STM32F10x_StdPeriph_Driver/src/stm32f10x_rcc.c ****   */
 426:./Libraries/STM32F10x_StdPeriph_Driver/src/stm32f10x_rcc.c **** void RCC_PREDIV1Config(uint32_t RCC_PREDIV1_Source, uint32_t RCC_PREDIV1_Div)
 427:./Libraries/STM32F10x_StdPeriph_Driver/src/stm32f10x_rcc.c **** {
 428:./Libraries/STM32F10x_StdPeriph_Driver/src/stm32f10x_rcc.c ****   uint32_t tmpreg = 0;
 429:./Libraries/STM32F10x_StdPeriph_Driver/src/stm32f10x_rcc.c ****   
 430:./Libraries/STM32F10x_StdPeriph_Driver/src/stm32f10x_rcc.c ****   /* Check the parameters */
 431:./Libraries/STM32F10x_StdPeriph_Driver/src/stm32f10x_rcc.c ****   assert_param(IS_RCC_PREDIV1_SOURCE(RCC_PREDIV1_Source));
 432:./Libraries/STM32F10x_StdPeriph_Driver/src/stm32f10x_rcc.c ****   assert_param(IS_RCC_PREDIV1(RCC_PREDIV1_Div));
 433:./Libraries/STM32F10x_StdPeriph_Driver/src/stm32f10x_rcc.c **** 
 434:./Libraries/STM32F10x_StdPeriph_Driver/src/stm32f10x_rcc.c ****   tmpreg = RCC->CFGR2;
 435:./Libraries/STM32F10x_StdPeriph_Driver/src/stm32f10x_rcc.c ****   /* Clear PREDIV1[3:0] and PREDIV1SRC bits */
 436:./Libraries/STM32F10x_StdPeriph_Driver/src/stm32f10x_rcc.c ****   tmpreg &= ~(CFGR2_PREDIV1 | CFGR2_PREDIV1SRC);
 437:./Libraries/STM32F10x_StdPeriph_Driver/src/stm32f10x_rcc.c ****   /* Set the PREDIV1 clock source and division factor */
 438:./Libraries/STM32F10x_StdPeriph_Driver/src/stm32f10x_rcc.c ****   tmpreg |= RCC_PREDIV1_Source | RCC_PREDIV1_Div ;
 439:./Libraries/STM32F10x_StdPeriph_Driver/src/stm32f10x_rcc.c ****   /* Store the new value */
 440:./Libraries/STM32F10x_StdPeriph_Driver/src/stm32f10x_rcc.c ****   RCC->CFGR2 = tmpreg;
 441:./Libraries/STM32F10x_StdPeriph_Driver/src/stm32f10x_rcc.c **** }
 442:./Libraries/STM32F10x_StdPeriph_Driver/src/stm32f10x_rcc.c **** #endif
 443:./Libraries/STM32F10x_StdPeriph_Driver/src/stm32f10x_rcc.c **** 
 444:./Libraries/STM32F10x_StdPeriph_Driver/src/stm32f10x_rcc.c **** #ifdef STM32F10X_CL
 445:./Libraries/STM32F10x_StdPeriph_Driver/src/stm32f10x_rcc.c **** /**
ARM GAS  C:\Users\hao\AppData\Local\Temp\cc7h2zwF.s 			page 18


 446:./Libraries/STM32F10x_StdPeriph_Driver/src/stm32f10x_rcc.c ****   * @brief  Configures the PREDIV2 division factor.
 447:./Libraries/STM32F10x_StdPeriph_Driver/src/stm32f10x_rcc.c ****   * @note 
 448:./Libraries/STM32F10x_StdPeriph_Driver/src/stm32f10x_rcc.c ****   *   - This function must be used only when both PLL2 and PLL3 are disabled.
 449:./Libraries/STM32F10x_StdPeriph_Driver/src/stm32f10x_rcc.c ****   *   - This function applies only to STM32 Connectivity line devices.
 450:./Libraries/STM32F10x_StdPeriph_Driver/src/stm32f10x_rcc.c ****   * @param  RCC_PREDIV2_Div: specifies the PREDIV2 clock division factor.
 451:./Libraries/STM32F10x_StdPeriph_Driver/src/stm32f10x_rcc.c ****   *   This parameter can be RCC_PREDIV2_Divx where x:[1,16]
 452:./Libraries/STM32F10x_StdPeriph_Driver/src/stm32f10x_rcc.c ****   * @retval None
 453:./Libraries/STM32F10x_StdPeriph_Driver/src/stm32f10x_rcc.c ****   */
 454:./Libraries/STM32F10x_StdPeriph_Driver/src/stm32f10x_rcc.c **** void RCC_PREDIV2Config(uint32_t RCC_PREDIV2_Div)
 455:./Libraries/STM32F10x_StdPeriph_Driver/src/stm32f10x_rcc.c **** {
 456:./Libraries/STM32F10x_StdPeriph_Driver/src/stm32f10x_rcc.c ****   uint32_t tmpreg = 0;
 457:./Libraries/STM32F10x_StdPeriph_Driver/src/stm32f10x_rcc.c **** 
 458:./Libraries/STM32F10x_StdPeriph_Driver/src/stm32f10x_rcc.c ****   /* Check the parameters */
 459:./Libraries/STM32F10x_StdPeriph_Driver/src/stm32f10x_rcc.c ****   assert_param(IS_RCC_PREDIV2(RCC_PREDIV2_Div));
 460:./Libraries/STM32F10x_StdPeriph_Driver/src/stm32f10x_rcc.c **** 
 461:./Libraries/STM32F10x_StdPeriph_Driver/src/stm32f10x_rcc.c ****   tmpreg = RCC->CFGR2;
 462:./Libraries/STM32F10x_StdPeriph_Driver/src/stm32f10x_rcc.c ****   /* Clear PREDIV2[3:0] bits */
 463:./Libraries/STM32F10x_StdPeriph_Driver/src/stm32f10x_rcc.c ****   tmpreg &= ~CFGR2_PREDIV2;
 464:./Libraries/STM32F10x_StdPeriph_Driver/src/stm32f10x_rcc.c ****   /* Set the PREDIV2 division factor */
 465:./Libraries/STM32F10x_StdPeriph_Driver/src/stm32f10x_rcc.c ****   tmpreg |= RCC_PREDIV2_Div;
 466:./Libraries/STM32F10x_StdPeriph_Driver/src/stm32f10x_rcc.c ****   /* Store the new value */
 467:./Libraries/STM32F10x_StdPeriph_Driver/src/stm32f10x_rcc.c ****   RCC->CFGR2 = tmpreg;
 468:./Libraries/STM32F10x_StdPeriph_Driver/src/stm32f10x_rcc.c **** }
 469:./Libraries/STM32F10x_StdPeriph_Driver/src/stm32f10x_rcc.c **** 
 470:./Libraries/STM32F10x_StdPeriph_Driver/src/stm32f10x_rcc.c **** /**
 471:./Libraries/STM32F10x_StdPeriph_Driver/src/stm32f10x_rcc.c ****   * @brief  Configures the PLL2 multiplication factor.
 472:./Libraries/STM32F10x_StdPeriph_Driver/src/stm32f10x_rcc.c ****   * @note
 473:./Libraries/STM32F10x_StdPeriph_Driver/src/stm32f10x_rcc.c ****   *   - This function must be used only when the PLL2 is disabled.
 474:./Libraries/STM32F10x_StdPeriph_Driver/src/stm32f10x_rcc.c ****   *   - This function applies only to STM32 Connectivity line devices.
 475:./Libraries/STM32F10x_StdPeriph_Driver/src/stm32f10x_rcc.c ****   * @param  RCC_PLL2Mul: specifies the PLL2 multiplication factor.
 476:./Libraries/STM32F10x_StdPeriph_Driver/src/stm32f10x_rcc.c ****   *   This parameter can be RCC_PLL2Mul_x where x:{[8,14], 16, 20}
 477:./Libraries/STM32F10x_StdPeriph_Driver/src/stm32f10x_rcc.c ****   * @retval None
 478:./Libraries/STM32F10x_StdPeriph_Driver/src/stm32f10x_rcc.c ****   */
 479:./Libraries/STM32F10x_StdPeriph_Driver/src/stm32f10x_rcc.c **** void RCC_PLL2Config(uint32_t RCC_PLL2Mul)
 480:./Libraries/STM32F10x_StdPeriph_Driver/src/stm32f10x_rcc.c **** {
 481:./Libraries/STM32F10x_StdPeriph_Driver/src/stm32f10x_rcc.c ****   uint32_t tmpreg = 0;
 482:./Libraries/STM32F10x_StdPeriph_Driver/src/stm32f10x_rcc.c **** 
 483:./Libraries/STM32F10x_StdPeriph_Driver/src/stm32f10x_rcc.c ****   /* Check the parameters */
 484:./Libraries/STM32F10x_StdPeriph_Driver/src/stm32f10x_rcc.c ****   assert_param(IS_RCC_PLL2_MUL(RCC_PLL2Mul));
 485:./Libraries/STM32F10x_StdPeriph_Driver/src/stm32f10x_rcc.c **** 
 486:./Libraries/STM32F10x_StdPeriph_Driver/src/stm32f10x_rcc.c ****   tmpreg = RCC->CFGR2;
 487:./Libraries/STM32F10x_StdPeriph_Driver/src/stm32f10x_rcc.c ****   /* Clear PLL2Mul[3:0] bits */
 488:./Libraries/STM32F10x_StdPeriph_Driver/src/stm32f10x_rcc.c ****   tmpreg &= ~CFGR2_PLL2MUL;
 489:./Libraries/STM32F10x_StdPeriph_Driver/src/stm32f10x_rcc.c ****   /* Set the PLL2 configuration bits */
 490:./Libraries/STM32F10x_StdPeriph_Driver/src/stm32f10x_rcc.c ****   tmpreg |= RCC_PLL2Mul;
 491:./Libraries/STM32F10x_StdPeriph_Driver/src/stm32f10x_rcc.c ****   /* Store the new value */
 492:./Libraries/STM32F10x_StdPeriph_Driver/src/stm32f10x_rcc.c ****   RCC->CFGR2 = tmpreg;
 493:./Libraries/STM32F10x_StdPeriph_Driver/src/stm32f10x_rcc.c **** }
 494:./Libraries/STM32F10x_StdPeriph_Driver/src/stm32f10x_rcc.c **** 
 495:./Libraries/STM32F10x_StdPeriph_Driver/src/stm32f10x_rcc.c **** 
 496:./Libraries/STM32F10x_StdPeriph_Driver/src/stm32f10x_rcc.c **** /**
 497:./Libraries/STM32F10x_StdPeriph_Driver/src/stm32f10x_rcc.c ****   * @brief  Enables or disables the PLL2.
 498:./Libraries/STM32F10x_StdPeriph_Driver/src/stm32f10x_rcc.c ****   * @note 
 499:./Libraries/STM32F10x_StdPeriph_Driver/src/stm32f10x_rcc.c ****   *   - The PLL2 can not be disabled if it is used indirectly as system clock
 500:./Libraries/STM32F10x_StdPeriph_Driver/src/stm32f10x_rcc.c ****   *     (i.e. it is used as PLL clock entry that is used as System clock).
 501:./Libraries/STM32F10x_StdPeriph_Driver/src/stm32f10x_rcc.c ****   *   - This function applies only to STM32 Connectivity line devices.
 502:./Libraries/STM32F10x_StdPeriph_Driver/src/stm32f10x_rcc.c ****   * @param  NewState: new state of the PLL2. This parameter can be: ENABLE or DISABLE.
ARM GAS  C:\Users\hao\AppData\Local\Temp\cc7h2zwF.s 			page 19


 503:./Libraries/STM32F10x_StdPeriph_Driver/src/stm32f10x_rcc.c ****   * @retval None
 504:./Libraries/STM32F10x_StdPeriph_Driver/src/stm32f10x_rcc.c ****   */
 505:./Libraries/STM32F10x_StdPeriph_Driver/src/stm32f10x_rcc.c **** void RCC_PLL2Cmd(FunctionalState NewState)
 506:./Libraries/STM32F10x_StdPeriph_Driver/src/stm32f10x_rcc.c **** {
 507:./Libraries/STM32F10x_StdPeriph_Driver/src/stm32f10x_rcc.c ****   /* Check the parameters */
 508:./Libraries/STM32F10x_StdPeriph_Driver/src/stm32f10x_rcc.c ****   assert_param(IS_FUNCTIONAL_STATE(NewState));
 509:./Libraries/STM32F10x_StdPeriph_Driver/src/stm32f10x_rcc.c **** 
 510:./Libraries/STM32F10x_StdPeriph_Driver/src/stm32f10x_rcc.c ****   *(__IO uint32_t *) CR_PLL2ON_BB = (uint32_t)NewState;
 511:./Libraries/STM32F10x_StdPeriph_Driver/src/stm32f10x_rcc.c **** }
 512:./Libraries/STM32F10x_StdPeriph_Driver/src/stm32f10x_rcc.c **** 
 513:./Libraries/STM32F10x_StdPeriph_Driver/src/stm32f10x_rcc.c **** 
 514:./Libraries/STM32F10x_StdPeriph_Driver/src/stm32f10x_rcc.c **** /**
 515:./Libraries/STM32F10x_StdPeriph_Driver/src/stm32f10x_rcc.c ****   * @brief  Configures the PLL3 multiplication factor.
 516:./Libraries/STM32F10x_StdPeriph_Driver/src/stm32f10x_rcc.c ****   * @note 
 517:./Libraries/STM32F10x_StdPeriph_Driver/src/stm32f10x_rcc.c ****   *   - This function must be used only when the PLL3 is disabled.
 518:./Libraries/STM32F10x_StdPeriph_Driver/src/stm32f10x_rcc.c ****   *   - This function applies only to STM32 Connectivity line devices.
 519:./Libraries/STM32F10x_StdPeriph_Driver/src/stm32f10x_rcc.c ****   * @param  RCC_PLL3Mul: specifies the PLL3 multiplication factor.
 520:./Libraries/STM32F10x_StdPeriph_Driver/src/stm32f10x_rcc.c ****   *   This parameter can be RCC_PLL3Mul_x where x:{[8,14], 16, 20}
 521:./Libraries/STM32F10x_StdPeriph_Driver/src/stm32f10x_rcc.c ****   * @retval None
 522:./Libraries/STM32F10x_StdPeriph_Driver/src/stm32f10x_rcc.c ****   */
 523:./Libraries/STM32F10x_StdPeriph_Driver/src/stm32f10x_rcc.c **** void RCC_PLL3Config(uint32_t RCC_PLL3Mul)
 524:./Libraries/STM32F10x_StdPeriph_Driver/src/stm32f10x_rcc.c **** {
 525:./Libraries/STM32F10x_StdPeriph_Driver/src/stm32f10x_rcc.c ****   uint32_t tmpreg = 0;
 526:./Libraries/STM32F10x_StdPeriph_Driver/src/stm32f10x_rcc.c **** 
 527:./Libraries/STM32F10x_StdPeriph_Driver/src/stm32f10x_rcc.c ****   /* Check the parameters */
 528:./Libraries/STM32F10x_StdPeriph_Driver/src/stm32f10x_rcc.c ****   assert_param(IS_RCC_PLL3_MUL(RCC_PLL3Mul));
 529:./Libraries/STM32F10x_StdPeriph_Driver/src/stm32f10x_rcc.c **** 
 530:./Libraries/STM32F10x_StdPeriph_Driver/src/stm32f10x_rcc.c ****   tmpreg = RCC->CFGR2;
 531:./Libraries/STM32F10x_StdPeriph_Driver/src/stm32f10x_rcc.c ****   /* Clear PLL3Mul[3:0] bits */
 532:./Libraries/STM32F10x_StdPeriph_Driver/src/stm32f10x_rcc.c ****   tmpreg &= ~CFGR2_PLL3MUL;
 533:./Libraries/STM32F10x_StdPeriph_Driver/src/stm32f10x_rcc.c ****   /* Set the PLL3 configuration bits */
 534:./Libraries/STM32F10x_StdPeriph_Driver/src/stm32f10x_rcc.c ****   tmpreg |= RCC_PLL3Mul;
 535:./Libraries/STM32F10x_StdPeriph_Driver/src/stm32f10x_rcc.c ****   /* Store the new value */
 536:./Libraries/STM32F10x_StdPeriph_Driver/src/stm32f10x_rcc.c ****   RCC->CFGR2 = tmpreg;
 537:./Libraries/STM32F10x_StdPeriph_Driver/src/stm32f10x_rcc.c **** }
 538:./Libraries/STM32F10x_StdPeriph_Driver/src/stm32f10x_rcc.c **** 
 539:./Libraries/STM32F10x_StdPeriph_Driver/src/stm32f10x_rcc.c **** 
 540:./Libraries/STM32F10x_StdPeriph_Driver/src/stm32f10x_rcc.c **** /**
 541:./Libraries/STM32F10x_StdPeriph_Driver/src/stm32f10x_rcc.c ****   * @brief  Enables or disables the PLL3.
 542:./Libraries/STM32F10x_StdPeriph_Driver/src/stm32f10x_rcc.c ****   * @note   This function applies only to STM32 Connectivity line devices.
 543:./Libraries/STM32F10x_StdPeriph_Driver/src/stm32f10x_rcc.c ****   * @param  NewState: new state of the PLL3. This parameter can be: ENABLE or DISABLE.
 544:./Libraries/STM32F10x_StdPeriph_Driver/src/stm32f10x_rcc.c ****   * @retval None
 545:./Libraries/STM32F10x_StdPeriph_Driver/src/stm32f10x_rcc.c ****   */
 546:./Libraries/STM32F10x_StdPeriph_Driver/src/stm32f10x_rcc.c **** void RCC_PLL3Cmd(FunctionalState NewState)
 547:./Libraries/STM32F10x_StdPeriph_Driver/src/stm32f10x_rcc.c **** {
 548:./Libraries/STM32F10x_StdPeriph_Driver/src/stm32f10x_rcc.c ****   /* Check the parameters */
 549:./Libraries/STM32F10x_StdPeriph_Driver/src/stm32f10x_rcc.c **** 
 550:./Libraries/STM32F10x_StdPeriph_Driver/src/stm32f10x_rcc.c ****   assert_param(IS_FUNCTIONAL_STATE(NewState));
 551:./Libraries/STM32F10x_StdPeriph_Driver/src/stm32f10x_rcc.c ****   *(__IO uint32_t *) CR_PLL3ON_BB = (uint32_t)NewState;
 552:./Libraries/STM32F10x_StdPeriph_Driver/src/stm32f10x_rcc.c **** }
 553:./Libraries/STM32F10x_StdPeriph_Driver/src/stm32f10x_rcc.c **** #endif /* STM32F10X_CL */
 554:./Libraries/STM32F10x_StdPeriph_Driver/src/stm32f10x_rcc.c **** 
 555:./Libraries/STM32F10x_StdPeriph_Driver/src/stm32f10x_rcc.c **** /**
 556:./Libraries/STM32F10x_StdPeriph_Driver/src/stm32f10x_rcc.c ****   * @brief  Configures the system clock (SYSCLK).
 557:./Libraries/STM32F10x_StdPeriph_Driver/src/stm32f10x_rcc.c ****   * @param  RCC_SYSCLKSource: specifies the clock source used as system clock.
 558:./Libraries/STM32F10x_StdPeriph_Driver/src/stm32f10x_rcc.c ****   *   This parameter can be one of the following values:
 559:./Libraries/STM32F10x_StdPeriph_Driver/src/stm32f10x_rcc.c ****   *     @arg RCC_SYSCLKSource_HSI: HSI selected as system clock
ARM GAS  C:\Users\hao\AppData\Local\Temp\cc7h2zwF.s 			page 20


 560:./Libraries/STM32F10x_StdPeriph_Driver/src/stm32f10x_rcc.c ****   *     @arg RCC_SYSCLKSource_HSE: HSE selected as system clock
 561:./Libraries/STM32F10x_StdPeriph_Driver/src/stm32f10x_rcc.c ****   *     @arg RCC_SYSCLKSource_PLLCLK: PLL selected as system clock
 562:./Libraries/STM32F10x_StdPeriph_Driver/src/stm32f10x_rcc.c ****   * @retval None
 563:./Libraries/STM32F10x_StdPeriph_Driver/src/stm32f10x_rcc.c ****   */
 564:./Libraries/STM32F10x_StdPeriph_Driver/src/stm32f10x_rcc.c **** void RCC_SYSCLKConfig(uint32_t RCC_SYSCLKSource)
 565:./Libraries/STM32F10x_StdPeriph_Driver/src/stm32f10x_rcc.c **** {
 537              		.loc 1 565 1
 538              		.cfi_startproc
 539              		@ args = 0, pretend = 0, frame = 16
 540              		@ frame_needed = 1, uses_anonymous_args = 0
 541              		@ link register save eliminated.
 542 0000 80B4     		push	{r7}
 543              	.LCFI39:
 544              		.cfi_def_cfa_offset 4
 545              		.cfi_offset 7, -4
 546 0002 85B0     		sub	sp, sp, #20
 547              	.LCFI40:
 548              		.cfi_def_cfa_offset 24
 549 0004 00AF     		add	r7, sp, #0
 550              	.LCFI41:
 551              		.cfi_def_cfa_register 7
 552 0006 7860     		str	r0, [r7, #4]
 566:./Libraries/STM32F10x_StdPeriph_Driver/src/stm32f10x_rcc.c ****   uint32_t tmpreg = 0;
 553              		.loc 1 566 12
 554 0008 0023     		movs	r3, #0
 555 000a FB60     		str	r3, [r7, #12]
 567:./Libraries/STM32F10x_StdPeriph_Driver/src/stm32f10x_rcc.c ****   /* Check the parameters */
 568:./Libraries/STM32F10x_StdPeriph_Driver/src/stm32f10x_rcc.c ****   assert_param(IS_RCC_SYSCLK_SOURCE(RCC_SYSCLKSource));
 569:./Libraries/STM32F10x_StdPeriph_Driver/src/stm32f10x_rcc.c ****   tmpreg = RCC->CFGR;
 556              		.loc 1 569 15
 557 000c 094B     		ldr	r3, .L30
 558              		.loc 1 569 10
 559 000e 5B68     		ldr	r3, [r3, #4]
 560 0010 FB60     		str	r3, [r7, #12]
 570:./Libraries/STM32F10x_StdPeriph_Driver/src/stm32f10x_rcc.c ****   /* Clear SW[1:0] bits */
 571:./Libraries/STM32F10x_StdPeriph_Driver/src/stm32f10x_rcc.c ****   tmpreg &= CFGR_SW_Mask;
 561              		.loc 1 571 10
 562 0012 FB68     		ldr	r3, [r7, #12]
 563 0014 23F00303 		bic	r3, r3, #3
 564 0018 FB60     		str	r3, [r7, #12]
 572:./Libraries/STM32F10x_StdPeriph_Driver/src/stm32f10x_rcc.c ****   /* Set SW[1:0] bits according to RCC_SYSCLKSource value */
 573:./Libraries/STM32F10x_StdPeriph_Driver/src/stm32f10x_rcc.c ****   tmpreg |= RCC_SYSCLKSource;
 565              		.loc 1 573 10
 566 001a FA68     		ldr	r2, [r7, #12]
 567 001c 7B68     		ldr	r3, [r7, #4]
 568 001e 1343     		orrs	r3, r3, r2
 569 0020 FB60     		str	r3, [r7, #12]
 574:./Libraries/STM32F10x_StdPeriph_Driver/src/stm32f10x_rcc.c ****   /* Store the new value */
 575:./Libraries/STM32F10x_StdPeriph_Driver/src/stm32f10x_rcc.c ****   RCC->CFGR = tmpreg;
 570              		.loc 1 575 6
 571 0022 044A     		ldr	r2, .L30
 572              		.loc 1 575 13
 573 0024 FB68     		ldr	r3, [r7, #12]
 574 0026 5360     		str	r3, [r2, #4]
 576:./Libraries/STM32F10x_StdPeriph_Driver/src/stm32f10x_rcc.c **** }
 575              		.loc 1 576 1
 576 0028 00BF     		nop
ARM GAS  C:\Users\hao\AppData\Local\Temp\cc7h2zwF.s 			page 21


 577 002a 1437     		adds	r7, r7, #20
 578              	.LCFI42:
 579              		.cfi_def_cfa_offset 4
 580 002c BD46     		mov	sp, r7
 581              	.LCFI43:
 582              		.cfi_def_cfa_register 13
 583              		@ sp needed
 584 002e 80BC     		pop	{r7}
 585              	.LCFI44:
 586              		.cfi_restore 7
 587              		.cfi_def_cfa_offset 0
 588 0030 7047     		bx	lr
 589              	.L31:
 590 0032 00BF     		.align	2
 591              	.L30:
 592 0034 00100240 		.word	1073876992
 593              		.cfi_endproc
 594              	.LFE36:
 596              		.section	.text.RCC_GetSYSCLKSource,"ax",%progbits
 597              		.align	1
 598              		.global	RCC_GetSYSCLKSource
 599              		.syntax unified
 600              		.thumb
 601              		.thumb_func
 603              	RCC_GetSYSCLKSource:
 604              	.LFB37:
 577:./Libraries/STM32F10x_StdPeriph_Driver/src/stm32f10x_rcc.c **** 
 578:./Libraries/STM32F10x_StdPeriph_Driver/src/stm32f10x_rcc.c **** /**
 579:./Libraries/STM32F10x_StdPeriph_Driver/src/stm32f10x_rcc.c ****   * @brief  Returns the clock source used as system clock.
 580:./Libraries/STM32F10x_StdPeriph_Driver/src/stm32f10x_rcc.c ****   * @param  None
 581:./Libraries/STM32F10x_StdPeriph_Driver/src/stm32f10x_rcc.c ****   * @retval The clock source used as system clock. The returned value can
 582:./Libraries/STM32F10x_StdPeriph_Driver/src/stm32f10x_rcc.c ****   *   be one of the following:
 583:./Libraries/STM32F10x_StdPeriph_Driver/src/stm32f10x_rcc.c ****   *     - 0x00: HSI used as system clock
 584:./Libraries/STM32F10x_StdPeriph_Driver/src/stm32f10x_rcc.c ****   *     - 0x04: HSE used as system clock
 585:./Libraries/STM32F10x_StdPeriph_Driver/src/stm32f10x_rcc.c ****   *     - 0x08: PLL used as system clock
 586:./Libraries/STM32F10x_StdPeriph_Driver/src/stm32f10x_rcc.c ****   */
 587:./Libraries/STM32F10x_StdPeriph_Driver/src/stm32f10x_rcc.c **** uint8_t RCC_GetSYSCLKSource(void)
 588:./Libraries/STM32F10x_StdPeriph_Driver/src/stm32f10x_rcc.c **** {
 605              		.loc 1 588 1
 606              		.cfi_startproc
 607              		@ args = 0, pretend = 0, frame = 0
 608              		@ frame_needed = 1, uses_anonymous_args = 0
 609              		@ link register save eliminated.
 610 0000 80B4     		push	{r7}
 611              	.LCFI45:
 612              		.cfi_def_cfa_offset 4
 613              		.cfi_offset 7, -4
 614 0002 00AF     		add	r7, sp, #0
 615              	.LCFI46:
 616              		.cfi_def_cfa_register 7
 589:./Libraries/STM32F10x_StdPeriph_Driver/src/stm32f10x_rcc.c ****   return ((uint8_t)(RCC->CFGR & CFGR_SWS_Mask));
 617              		.loc 1 589 24
 618 0004 044B     		ldr	r3, .L34
 619 0006 5B68     		ldr	r3, [r3, #4]
 620              		.loc 1 589 11
 621 0008 DBB2     		uxtb	r3, r3
 622 000a 03F00C03 		and	r3, r3, #12
ARM GAS  C:\Users\hao\AppData\Local\Temp\cc7h2zwF.s 			page 22


 623 000e DBB2     		uxtb	r3, r3
 590:./Libraries/STM32F10x_StdPeriph_Driver/src/stm32f10x_rcc.c **** }
 624              		.loc 1 590 1
 625 0010 1846     		mov	r0, r3
 626 0012 BD46     		mov	sp, r7
 627              	.LCFI47:
 628              		.cfi_def_cfa_register 13
 629              		@ sp needed
 630 0014 80BC     		pop	{r7}
 631              	.LCFI48:
 632              		.cfi_restore 7
 633              		.cfi_def_cfa_offset 0
 634 0016 7047     		bx	lr
 635              	.L35:
 636              		.align	2
 637              	.L34:
 638 0018 00100240 		.word	1073876992
 639              		.cfi_endproc
 640              	.LFE37:
 642              		.section	.text.RCC_HCLKConfig,"ax",%progbits
 643              		.align	1
 644              		.global	RCC_HCLKConfig
 645              		.syntax unified
 646              		.thumb
 647              		.thumb_func
 649              	RCC_HCLKConfig:
 650              	.LFB38:
 591:./Libraries/STM32F10x_StdPeriph_Driver/src/stm32f10x_rcc.c **** 
 592:./Libraries/STM32F10x_StdPeriph_Driver/src/stm32f10x_rcc.c **** /**
 593:./Libraries/STM32F10x_StdPeriph_Driver/src/stm32f10x_rcc.c ****   * @brief  Configures the AHB clock (HCLK).
 594:./Libraries/STM32F10x_StdPeriph_Driver/src/stm32f10x_rcc.c ****   * @param  RCC_SYSCLK: defines the AHB clock divider. This clock is derived from 
 595:./Libraries/STM32F10x_StdPeriph_Driver/src/stm32f10x_rcc.c ****   *   the system clock (SYSCLK).
 596:./Libraries/STM32F10x_StdPeriph_Driver/src/stm32f10x_rcc.c ****   *   This parameter can be one of the following values:
 597:./Libraries/STM32F10x_StdPeriph_Driver/src/stm32f10x_rcc.c ****   *     @arg RCC_SYSCLK_Div1: AHB clock = SYSCLK
 598:./Libraries/STM32F10x_StdPeriph_Driver/src/stm32f10x_rcc.c ****   *     @arg RCC_SYSCLK_Div2: AHB clock = SYSCLK/2
 599:./Libraries/STM32F10x_StdPeriph_Driver/src/stm32f10x_rcc.c ****   *     @arg RCC_SYSCLK_Div4: AHB clock = SYSCLK/4
 600:./Libraries/STM32F10x_StdPeriph_Driver/src/stm32f10x_rcc.c ****   *     @arg RCC_SYSCLK_Div8: AHB clock = SYSCLK/8
 601:./Libraries/STM32F10x_StdPeriph_Driver/src/stm32f10x_rcc.c ****   *     @arg RCC_SYSCLK_Div16: AHB clock = SYSCLK/16
 602:./Libraries/STM32F10x_StdPeriph_Driver/src/stm32f10x_rcc.c ****   *     @arg RCC_SYSCLK_Div64: AHB clock = SYSCLK/64
 603:./Libraries/STM32F10x_StdPeriph_Driver/src/stm32f10x_rcc.c ****   *     @arg RCC_SYSCLK_Div128: AHB clock = SYSCLK/128
 604:./Libraries/STM32F10x_StdPeriph_Driver/src/stm32f10x_rcc.c ****   *     @arg RCC_SYSCLK_Div256: AHB clock = SYSCLK/256
 605:./Libraries/STM32F10x_StdPeriph_Driver/src/stm32f10x_rcc.c ****   *     @arg RCC_SYSCLK_Div512: AHB clock = SYSCLK/512
 606:./Libraries/STM32F10x_StdPeriph_Driver/src/stm32f10x_rcc.c ****   * @retval None
 607:./Libraries/STM32F10x_StdPeriph_Driver/src/stm32f10x_rcc.c ****   */
 608:./Libraries/STM32F10x_StdPeriph_Driver/src/stm32f10x_rcc.c **** void RCC_HCLKConfig(uint32_t RCC_SYSCLK)
 609:./Libraries/STM32F10x_StdPeriph_Driver/src/stm32f10x_rcc.c **** {
 651              		.loc 1 609 1
 652              		.cfi_startproc
 653              		@ args = 0, pretend = 0, frame = 16
 654              		@ frame_needed = 1, uses_anonymous_args = 0
 655              		@ link register save eliminated.
 656 0000 80B4     		push	{r7}
 657              	.LCFI49:
 658              		.cfi_def_cfa_offset 4
 659              		.cfi_offset 7, -4
 660 0002 85B0     		sub	sp, sp, #20
 661              	.LCFI50:
ARM GAS  C:\Users\hao\AppData\Local\Temp\cc7h2zwF.s 			page 23


 662              		.cfi_def_cfa_offset 24
 663 0004 00AF     		add	r7, sp, #0
 664              	.LCFI51:
 665              		.cfi_def_cfa_register 7
 666 0006 7860     		str	r0, [r7, #4]
 610:./Libraries/STM32F10x_StdPeriph_Driver/src/stm32f10x_rcc.c ****   uint32_t tmpreg = 0;
 667              		.loc 1 610 12
 668 0008 0023     		movs	r3, #0
 669 000a FB60     		str	r3, [r7, #12]
 611:./Libraries/STM32F10x_StdPeriph_Driver/src/stm32f10x_rcc.c ****   /* Check the parameters */
 612:./Libraries/STM32F10x_StdPeriph_Driver/src/stm32f10x_rcc.c ****   assert_param(IS_RCC_HCLK(RCC_SYSCLK));
 613:./Libraries/STM32F10x_StdPeriph_Driver/src/stm32f10x_rcc.c ****   tmpreg = RCC->CFGR;
 670              		.loc 1 613 15
 671 000c 094B     		ldr	r3, .L37
 672              		.loc 1 613 10
 673 000e 5B68     		ldr	r3, [r3, #4]
 674 0010 FB60     		str	r3, [r7, #12]
 614:./Libraries/STM32F10x_StdPeriph_Driver/src/stm32f10x_rcc.c ****   /* Clear HPRE[3:0] bits */
 615:./Libraries/STM32F10x_StdPeriph_Driver/src/stm32f10x_rcc.c ****   tmpreg &= CFGR_HPRE_Reset_Mask;
 675              		.loc 1 615 10
 676 0012 FB68     		ldr	r3, [r7, #12]
 677 0014 23F0F003 		bic	r3, r3, #240
 678 0018 FB60     		str	r3, [r7, #12]
 616:./Libraries/STM32F10x_StdPeriph_Driver/src/stm32f10x_rcc.c ****   /* Set HPRE[3:0] bits according to RCC_SYSCLK value */
 617:./Libraries/STM32F10x_StdPeriph_Driver/src/stm32f10x_rcc.c ****   tmpreg |= RCC_SYSCLK;
 679              		.loc 1 617 10
 680 001a FA68     		ldr	r2, [r7, #12]
 681 001c 7B68     		ldr	r3, [r7, #4]
 682 001e 1343     		orrs	r3, r3, r2
 683 0020 FB60     		str	r3, [r7, #12]
 618:./Libraries/STM32F10x_StdPeriph_Driver/src/stm32f10x_rcc.c ****   /* Store the new value */
 619:./Libraries/STM32F10x_StdPeriph_Driver/src/stm32f10x_rcc.c ****   RCC->CFGR = tmpreg;
 684              		.loc 1 619 6
 685 0022 044A     		ldr	r2, .L37
 686              		.loc 1 619 13
 687 0024 FB68     		ldr	r3, [r7, #12]
 688 0026 5360     		str	r3, [r2, #4]
 620:./Libraries/STM32F10x_StdPeriph_Driver/src/stm32f10x_rcc.c **** }
 689              		.loc 1 620 1
 690 0028 00BF     		nop
 691 002a 1437     		adds	r7, r7, #20
 692              	.LCFI52:
 693              		.cfi_def_cfa_offset 4
 694 002c BD46     		mov	sp, r7
 695              	.LCFI53:
 696              		.cfi_def_cfa_register 13
 697              		@ sp needed
 698 002e 80BC     		pop	{r7}
 699              	.LCFI54:
 700              		.cfi_restore 7
 701              		.cfi_def_cfa_offset 0
 702 0030 7047     		bx	lr
 703              	.L38:
 704 0032 00BF     		.align	2
 705              	.L37:
 706 0034 00100240 		.word	1073876992
 707              		.cfi_endproc
ARM GAS  C:\Users\hao\AppData\Local\Temp\cc7h2zwF.s 			page 24


 708              	.LFE38:
 710              		.section	.text.RCC_PCLK1Config,"ax",%progbits
 711              		.align	1
 712              		.global	RCC_PCLK1Config
 713              		.syntax unified
 714              		.thumb
 715              		.thumb_func
 717              	RCC_PCLK1Config:
 718              	.LFB39:
 621:./Libraries/STM32F10x_StdPeriph_Driver/src/stm32f10x_rcc.c **** 
 622:./Libraries/STM32F10x_StdPeriph_Driver/src/stm32f10x_rcc.c **** /**
 623:./Libraries/STM32F10x_StdPeriph_Driver/src/stm32f10x_rcc.c ****   * @brief  Configures the Low Speed APB clock (PCLK1).
 624:./Libraries/STM32F10x_StdPeriph_Driver/src/stm32f10x_rcc.c ****   * @param  RCC_HCLK: defines the APB1 clock divider. This clock is derived from 
 625:./Libraries/STM32F10x_StdPeriph_Driver/src/stm32f10x_rcc.c ****   *   the AHB clock (HCLK).
 626:./Libraries/STM32F10x_StdPeriph_Driver/src/stm32f10x_rcc.c ****   *   This parameter can be one of the following values:
 627:./Libraries/STM32F10x_StdPeriph_Driver/src/stm32f10x_rcc.c ****   *     @arg RCC_HCLK_Div1: APB1 clock = HCLK
 628:./Libraries/STM32F10x_StdPeriph_Driver/src/stm32f10x_rcc.c ****   *     @arg RCC_HCLK_Div2: APB1 clock = HCLK/2
 629:./Libraries/STM32F10x_StdPeriph_Driver/src/stm32f10x_rcc.c ****   *     @arg RCC_HCLK_Div4: APB1 clock = HCLK/4
 630:./Libraries/STM32F10x_StdPeriph_Driver/src/stm32f10x_rcc.c ****   *     @arg RCC_HCLK_Div8: APB1 clock = HCLK/8
 631:./Libraries/STM32F10x_StdPeriph_Driver/src/stm32f10x_rcc.c ****   *     @arg RCC_HCLK_Div16: APB1 clock = HCLK/16
 632:./Libraries/STM32F10x_StdPeriph_Driver/src/stm32f10x_rcc.c ****   * @retval None
 633:./Libraries/STM32F10x_StdPeriph_Driver/src/stm32f10x_rcc.c ****   */
 634:./Libraries/STM32F10x_StdPeriph_Driver/src/stm32f10x_rcc.c **** void RCC_PCLK1Config(uint32_t RCC_HCLK)
 635:./Libraries/STM32F10x_StdPeriph_Driver/src/stm32f10x_rcc.c **** {
 719              		.loc 1 635 1
 720              		.cfi_startproc
 721              		@ args = 0, pretend = 0, frame = 16
 722              		@ frame_needed = 1, uses_anonymous_args = 0
 723              		@ link register save eliminated.
 724 0000 80B4     		push	{r7}
 725              	.LCFI55:
 726              		.cfi_def_cfa_offset 4
 727              		.cfi_offset 7, -4
 728 0002 85B0     		sub	sp, sp, #20
 729              	.LCFI56:
 730              		.cfi_def_cfa_offset 24
 731 0004 00AF     		add	r7, sp, #0
 732              	.LCFI57:
 733              		.cfi_def_cfa_register 7
 734 0006 7860     		str	r0, [r7, #4]
 636:./Libraries/STM32F10x_StdPeriph_Driver/src/stm32f10x_rcc.c ****   uint32_t tmpreg = 0;
 735              		.loc 1 636 12
 736 0008 0023     		movs	r3, #0
 737 000a FB60     		str	r3, [r7, #12]
 637:./Libraries/STM32F10x_StdPeriph_Driver/src/stm32f10x_rcc.c ****   /* Check the parameters */
 638:./Libraries/STM32F10x_StdPeriph_Driver/src/stm32f10x_rcc.c ****   assert_param(IS_RCC_PCLK(RCC_HCLK));
 639:./Libraries/STM32F10x_StdPeriph_Driver/src/stm32f10x_rcc.c ****   tmpreg = RCC->CFGR;
 738              		.loc 1 639 15
 739 000c 094B     		ldr	r3, .L40
 740              		.loc 1 639 10
 741 000e 5B68     		ldr	r3, [r3, #4]
 742 0010 FB60     		str	r3, [r7, #12]
 640:./Libraries/STM32F10x_StdPeriph_Driver/src/stm32f10x_rcc.c ****   /* Clear PPRE1[2:0] bits */
 641:./Libraries/STM32F10x_StdPeriph_Driver/src/stm32f10x_rcc.c ****   tmpreg &= CFGR_PPRE1_Reset_Mask;
 743              		.loc 1 641 10
 744 0012 FB68     		ldr	r3, [r7, #12]
 745 0014 23F4E063 		bic	r3, r3, #1792
ARM GAS  C:\Users\hao\AppData\Local\Temp\cc7h2zwF.s 			page 25


 746 0018 FB60     		str	r3, [r7, #12]
 642:./Libraries/STM32F10x_StdPeriph_Driver/src/stm32f10x_rcc.c ****   /* Set PPRE1[2:0] bits according to RCC_HCLK value */
 643:./Libraries/STM32F10x_StdPeriph_Driver/src/stm32f10x_rcc.c ****   tmpreg |= RCC_HCLK;
 747              		.loc 1 643 10
 748 001a FA68     		ldr	r2, [r7, #12]
 749 001c 7B68     		ldr	r3, [r7, #4]
 750 001e 1343     		orrs	r3, r3, r2
 751 0020 FB60     		str	r3, [r7, #12]
 644:./Libraries/STM32F10x_StdPeriph_Driver/src/stm32f10x_rcc.c ****   /* Store the new value */
 645:./Libraries/STM32F10x_StdPeriph_Driver/src/stm32f10x_rcc.c ****   RCC->CFGR = tmpreg;
 752              		.loc 1 645 6
 753 0022 044A     		ldr	r2, .L40
 754              		.loc 1 645 13
 755 0024 FB68     		ldr	r3, [r7, #12]
 756 0026 5360     		str	r3, [r2, #4]
 646:./Libraries/STM32F10x_StdPeriph_Driver/src/stm32f10x_rcc.c **** }
 757              		.loc 1 646 1
 758 0028 00BF     		nop
 759 002a 1437     		adds	r7, r7, #20
 760              	.LCFI58:
 761              		.cfi_def_cfa_offset 4
 762 002c BD46     		mov	sp, r7
 763              	.LCFI59:
 764              		.cfi_def_cfa_register 13
 765              		@ sp needed
 766 002e 80BC     		pop	{r7}
 767              	.LCFI60:
 768              		.cfi_restore 7
 769              		.cfi_def_cfa_offset 0
 770 0030 7047     		bx	lr
 771              	.L41:
 772 0032 00BF     		.align	2
 773              	.L40:
 774 0034 00100240 		.word	1073876992
 775              		.cfi_endproc
 776              	.LFE39:
 778              		.section	.text.RCC_PCLK2Config,"ax",%progbits
 779              		.align	1
 780              		.global	RCC_PCLK2Config
 781              		.syntax unified
 782              		.thumb
 783              		.thumb_func
 785              	RCC_PCLK2Config:
 786              	.LFB40:
 647:./Libraries/STM32F10x_StdPeriph_Driver/src/stm32f10x_rcc.c **** 
 648:./Libraries/STM32F10x_StdPeriph_Driver/src/stm32f10x_rcc.c **** /**
 649:./Libraries/STM32F10x_StdPeriph_Driver/src/stm32f10x_rcc.c ****   * @brief  Configures the High Speed APB clock (PCLK2).
 650:./Libraries/STM32F10x_StdPeriph_Driver/src/stm32f10x_rcc.c ****   * @param  RCC_HCLK: defines the APB2 clock divider. This clock is derived from 
 651:./Libraries/STM32F10x_StdPeriph_Driver/src/stm32f10x_rcc.c ****   *   the AHB clock (HCLK).
 652:./Libraries/STM32F10x_StdPeriph_Driver/src/stm32f10x_rcc.c ****   *   This parameter can be one of the following values:
 653:./Libraries/STM32F10x_StdPeriph_Driver/src/stm32f10x_rcc.c ****   *     @arg RCC_HCLK_Div1: APB2 clock = HCLK
 654:./Libraries/STM32F10x_StdPeriph_Driver/src/stm32f10x_rcc.c ****   *     @arg RCC_HCLK_Div2: APB2 clock = HCLK/2
 655:./Libraries/STM32F10x_StdPeriph_Driver/src/stm32f10x_rcc.c ****   *     @arg RCC_HCLK_Div4: APB2 clock = HCLK/4
 656:./Libraries/STM32F10x_StdPeriph_Driver/src/stm32f10x_rcc.c ****   *     @arg RCC_HCLK_Div8: APB2 clock = HCLK/8
 657:./Libraries/STM32F10x_StdPeriph_Driver/src/stm32f10x_rcc.c ****   *     @arg RCC_HCLK_Div16: APB2 clock = HCLK/16
 658:./Libraries/STM32F10x_StdPeriph_Driver/src/stm32f10x_rcc.c ****   * @retval None
 659:./Libraries/STM32F10x_StdPeriph_Driver/src/stm32f10x_rcc.c ****   */
ARM GAS  C:\Users\hao\AppData\Local\Temp\cc7h2zwF.s 			page 26


 660:./Libraries/STM32F10x_StdPeriph_Driver/src/stm32f10x_rcc.c **** void RCC_PCLK2Config(uint32_t RCC_HCLK)
 661:./Libraries/STM32F10x_StdPeriph_Driver/src/stm32f10x_rcc.c **** {
 787              		.loc 1 661 1
 788              		.cfi_startproc
 789              		@ args = 0, pretend = 0, frame = 16
 790              		@ frame_needed = 1, uses_anonymous_args = 0
 791              		@ link register save eliminated.
 792 0000 80B4     		push	{r7}
 793              	.LCFI61:
 794              		.cfi_def_cfa_offset 4
 795              		.cfi_offset 7, -4
 796 0002 85B0     		sub	sp, sp, #20
 797              	.LCFI62:
 798              		.cfi_def_cfa_offset 24
 799 0004 00AF     		add	r7, sp, #0
 800              	.LCFI63:
 801              		.cfi_def_cfa_register 7
 802 0006 7860     		str	r0, [r7, #4]
 662:./Libraries/STM32F10x_StdPeriph_Driver/src/stm32f10x_rcc.c ****   uint32_t tmpreg = 0;
 803              		.loc 1 662 12
 804 0008 0023     		movs	r3, #0
 805 000a FB60     		str	r3, [r7, #12]
 663:./Libraries/STM32F10x_StdPeriph_Driver/src/stm32f10x_rcc.c ****   /* Check the parameters */
 664:./Libraries/STM32F10x_StdPeriph_Driver/src/stm32f10x_rcc.c ****   assert_param(IS_RCC_PCLK(RCC_HCLK));
 665:./Libraries/STM32F10x_StdPeriph_Driver/src/stm32f10x_rcc.c ****   tmpreg = RCC->CFGR;
 806              		.loc 1 665 15
 807 000c 094B     		ldr	r3, .L43
 808              		.loc 1 665 10
 809 000e 5B68     		ldr	r3, [r3, #4]
 810 0010 FB60     		str	r3, [r7, #12]
 666:./Libraries/STM32F10x_StdPeriph_Driver/src/stm32f10x_rcc.c ****   /* Clear PPRE2[2:0] bits */
 667:./Libraries/STM32F10x_StdPeriph_Driver/src/stm32f10x_rcc.c ****   tmpreg &= CFGR_PPRE2_Reset_Mask;
 811              		.loc 1 667 10
 812 0012 FB68     		ldr	r3, [r7, #12]
 813 0014 23F46053 		bic	r3, r3, #14336
 814 0018 FB60     		str	r3, [r7, #12]
 668:./Libraries/STM32F10x_StdPeriph_Driver/src/stm32f10x_rcc.c ****   /* Set PPRE2[2:0] bits according to RCC_HCLK value */
 669:./Libraries/STM32F10x_StdPeriph_Driver/src/stm32f10x_rcc.c ****   tmpreg |= RCC_HCLK << 3;
 815              		.loc 1 669 22
 816 001a 7B68     		ldr	r3, [r7, #4]
 817 001c DB00     		lsls	r3, r3, #3
 818              		.loc 1 669 10
 819 001e FA68     		ldr	r2, [r7, #12]
 820 0020 1343     		orrs	r3, r3, r2
 821 0022 FB60     		str	r3, [r7, #12]
 670:./Libraries/STM32F10x_StdPeriph_Driver/src/stm32f10x_rcc.c ****   /* Store the new value */
 671:./Libraries/STM32F10x_StdPeriph_Driver/src/stm32f10x_rcc.c ****   RCC->CFGR = tmpreg;
 822              		.loc 1 671 6
 823 0024 034A     		ldr	r2, .L43
 824              		.loc 1 671 13
 825 0026 FB68     		ldr	r3, [r7, #12]
 826 0028 5360     		str	r3, [r2, #4]
 672:./Libraries/STM32F10x_StdPeriph_Driver/src/stm32f10x_rcc.c **** }
 827              		.loc 1 672 1
 828 002a 00BF     		nop
 829 002c 1437     		adds	r7, r7, #20
 830              	.LCFI64:
ARM GAS  C:\Users\hao\AppData\Local\Temp\cc7h2zwF.s 			page 27


 831              		.cfi_def_cfa_offset 4
 832 002e BD46     		mov	sp, r7
 833              	.LCFI65:
 834              		.cfi_def_cfa_register 13
 835              		@ sp needed
 836 0030 80BC     		pop	{r7}
 837              	.LCFI66:
 838              		.cfi_restore 7
 839              		.cfi_def_cfa_offset 0
 840 0032 7047     		bx	lr
 841              	.L44:
 842              		.align	2
 843              	.L43:
 844 0034 00100240 		.word	1073876992
 845              		.cfi_endproc
 846              	.LFE40:
 848              		.section	.text.RCC_ITConfig,"ax",%progbits
 849              		.align	1
 850              		.global	RCC_ITConfig
 851              		.syntax unified
 852              		.thumb
 853              		.thumb_func
 855              	RCC_ITConfig:
 856              	.LFB41:
 673:./Libraries/STM32F10x_StdPeriph_Driver/src/stm32f10x_rcc.c **** 
 674:./Libraries/STM32F10x_StdPeriph_Driver/src/stm32f10x_rcc.c **** /**
 675:./Libraries/STM32F10x_StdPeriph_Driver/src/stm32f10x_rcc.c ****   * @brief  Enables or disables the specified RCC interrupts.
 676:./Libraries/STM32F10x_StdPeriph_Driver/src/stm32f10x_rcc.c ****   * @param  RCC_IT: specifies the RCC interrupt sources to be enabled or disabled.
 677:./Libraries/STM32F10x_StdPeriph_Driver/src/stm32f10x_rcc.c ****   * 
 678:./Libraries/STM32F10x_StdPeriph_Driver/src/stm32f10x_rcc.c ****   *   For @b STM32_Connectivity_line_devices, this parameter can be any combination
 679:./Libraries/STM32F10x_StdPeriph_Driver/src/stm32f10x_rcc.c ****   *   of the following values        
 680:./Libraries/STM32F10x_StdPeriph_Driver/src/stm32f10x_rcc.c ****   *     @arg RCC_IT_LSIRDY: LSI ready interrupt
 681:./Libraries/STM32F10x_StdPeriph_Driver/src/stm32f10x_rcc.c ****   *     @arg RCC_IT_LSERDY: LSE ready interrupt
 682:./Libraries/STM32F10x_StdPeriph_Driver/src/stm32f10x_rcc.c ****   *     @arg RCC_IT_HSIRDY: HSI ready interrupt
 683:./Libraries/STM32F10x_StdPeriph_Driver/src/stm32f10x_rcc.c ****   *     @arg RCC_IT_HSERDY: HSE ready interrupt
 684:./Libraries/STM32F10x_StdPeriph_Driver/src/stm32f10x_rcc.c ****   *     @arg RCC_IT_PLLRDY: PLL ready interrupt
 685:./Libraries/STM32F10x_StdPeriph_Driver/src/stm32f10x_rcc.c ****   *     @arg RCC_IT_PLL2RDY: PLL2 ready interrupt
 686:./Libraries/STM32F10x_StdPeriph_Driver/src/stm32f10x_rcc.c ****   *     @arg RCC_IT_PLL3RDY: PLL3 ready interrupt
 687:./Libraries/STM32F10x_StdPeriph_Driver/src/stm32f10x_rcc.c ****   * 
 688:./Libraries/STM32F10x_StdPeriph_Driver/src/stm32f10x_rcc.c ****   *   For @b other_STM32_devices, this parameter can be any combination of the 
 689:./Libraries/STM32F10x_StdPeriph_Driver/src/stm32f10x_rcc.c ****   *   following values        
 690:./Libraries/STM32F10x_StdPeriph_Driver/src/stm32f10x_rcc.c ****   *     @arg RCC_IT_LSIRDY: LSI ready interrupt
 691:./Libraries/STM32F10x_StdPeriph_Driver/src/stm32f10x_rcc.c ****   *     @arg RCC_IT_LSERDY: LSE ready interrupt
 692:./Libraries/STM32F10x_StdPeriph_Driver/src/stm32f10x_rcc.c ****   *     @arg RCC_IT_HSIRDY: HSI ready interrupt
 693:./Libraries/STM32F10x_StdPeriph_Driver/src/stm32f10x_rcc.c ****   *     @arg RCC_IT_HSERDY: HSE ready interrupt
 694:./Libraries/STM32F10x_StdPeriph_Driver/src/stm32f10x_rcc.c ****   *     @arg RCC_IT_PLLRDY: PLL ready interrupt
 695:./Libraries/STM32F10x_StdPeriph_Driver/src/stm32f10x_rcc.c ****   *       
 696:./Libraries/STM32F10x_StdPeriph_Driver/src/stm32f10x_rcc.c ****   * @param  NewState: new state of the specified RCC interrupts.
 697:./Libraries/STM32F10x_StdPeriph_Driver/src/stm32f10x_rcc.c ****   *   This parameter can be: ENABLE or DISABLE.
 698:./Libraries/STM32F10x_StdPeriph_Driver/src/stm32f10x_rcc.c ****   * @retval None
 699:./Libraries/STM32F10x_StdPeriph_Driver/src/stm32f10x_rcc.c ****   */
 700:./Libraries/STM32F10x_StdPeriph_Driver/src/stm32f10x_rcc.c **** void RCC_ITConfig(uint8_t RCC_IT, FunctionalState NewState)
 701:./Libraries/STM32F10x_StdPeriph_Driver/src/stm32f10x_rcc.c **** {
 857              		.loc 1 701 1
 858              		.cfi_startproc
 859              		@ args = 0, pretend = 0, frame = 8
 860              		@ frame_needed = 1, uses_anonymous_args = 0
ARM GAS  C:\Users\hao\AppData\Local\Temp\cc7h2zwF.s 			page 28


 861              		@ link register save eliminated.
 862 0000 80B4     		push	{r7}
 863              	.LCFI67:
 864              		.cfi_def_cfa_offset 4
 865              		.cfi_offset 7, -4
 866 0002 83B0     		sub	sp, sp, #12
 867              	.LCFI68:
 868              		.cfi_def_cfa_offset 16
 869 0004 00AF     		add	r7, sp, #0
 870              	.LCFI69:
 871              		.cfi_def_cfa_register 7
 872 0006 0346     		mov	r3, r0
 873 0008 0A46     		mov	r2, r1
 874 000a FB71     		strb	r3, [r7, #7]
 875 000c 1346     		mov	r3, r2
 876 000e BB71     		strb	r3, [r7, #6]
 702:./Libraries/STM32F10x_StdPeriph_Driver/src/stm32f10x_rcc.c ****   /* Check the parameters */
 703:./Libraries/STM32F10x_StdPeriph_Driver/src/stm32f10x_rcc.c ****   assert_param(IS_RCC_IT(RCC_IT));
 704:./Libraries/STM32F10x_StdPeriph_Driver/src/stm32f10x_rcc.c ****   assert_param(IS_FUNCTIONAL_STATE(NewState));
 705:./Libraries/STM32F10x_StdPeriph_Driver/src/stm32f10x_rcc.c ****   if (NewState != DISABLE)
 877              		.loc 1 705 6
 878 0010 BB79     		ldrb	r3, [r7, #6]	@ zero_extendqisi2
 879 0012 002B     		cmp	r3, #0
 880 0014 08D0     		beq	.L46
 706:./Libraries/STM32F10x_StdPeriph_Driver/src/stm32f10x_rcc.c ****   {
 707:./Libraries/STM32F10x_StdPeriph_Driver/src/stm32f10x_rcc.c ****     /* Perform Byte access to RCC_CIR bits to enable the selected interrupts */
 708:./Libraries/STM32F10x_StdPeriph_Driver/src/stm32f10x_rcc.c ****     *(__IO uint8_t *) CIR_BYTE2_ADDRESS |= RCC_IT;
 881              		.loc 1 708 41
 882 0016 0C4B     		ldr	r3, .L49
 883 0018 1B78     		ldrb	r3, [r3]
 884 001a DAB2     		uxtb	r2, r3
 885 001c 0A49     		ldr	r1, .L49
 886 001e FB79     		ldrb	r3, [r7, #7]
 887 0020 1343     		orrs	r3, r3, r2
 888 0022 DBB2     		uxtb	r3, r3
 889 0024 0B70     		strb	r3, [r1]
 709:./Libraries/STM32F10x_StdPeriph_Driver/src/stm32f10x_rcc.c ****   }
 710:./Libraries/STM32F10x_StdPeriph_Driver/src/stm32f10x_rcc.c ****   else
 711:./Libraries/STM32F10x_StdPeriph_Driver/src/stm32f10x_rcc.c ****   {
 712:./Libraries/STM32F10x_StdPeriph_Driver/src/stm32f10x_rcc.c ****     /* Perform Byte access to RCC_CIR bits to disable the selected interrupts */
 713:./Libraries/STM32F10x_StdPeriph_Driver/src/stm32f10x_rcc.c ****     *(__IO uint8_t *) CIR_BYTE2_ADDRESS &= (uint8_t)~RCC_IT;
 714:./Libraries/STM32F10x_StdPeriph_Driver/src/stm32f10x_rcc.c ****   }
 715:./Libraries/STM32F10x_StdPeriph_Driver/src/stm32f10x_rcc.c **** }
 890              		.loc 1 715 1
 891 0026 09E0     		b	.L48
 892              	.L46:
 713:./Libraries/STM32F10x_StdPeriph_Driver/src/stm32f10x_rcc.c ****   }
 893              		.loc 1 713 41
 894 0028 074B     		ldr	r3, .L49
 895 002a 1B78     		ldrb	r3, [r3]
 896 002c DAB2     		uxtb	r2, r3
 713:./Libraries/STM32F10x_StdPeriph_Driver/src/stm32f10x_rcc.c ****   }
 897              		.loc 1 713 44
 898 002e FB79     		ldrb	r3, [r7, #7]
 899 0030 DB43     		mvns	r3, r3
 900 0032 DBB2     		uxtb	r3, r3
 713:./Libraries/STM32F10x_StdPeriph_Driver/src/stm32f10x_rcc.c ****   }
ARM GAS  C:\Users\hao\AppData\Local\Temp\cc7h2zwF.s 			page 29


 901              		.loc 1 713 41
 902 0034 0449     		ldr	r1, .L49
 903 0036 1340     		ands	r3, r3, r2
 904 0038 DBB2     		uxtb	r3, r3
 905 003a 0B70     		strb	r3, [r1]
 906              	.L48:
 907              		.loc 1 715 1
 908 003c 00BF     		nop
 909 003e 0C37     		adds	r7, r7, #12
 910              	.LCFI70:
 911              		.cfi_def_cfa_offset 4
 912 0040 BD46     		mov	sp, r7
 913              	.LCFI71:
 914              		.cfi_def_cfa_register 13
 915              		@ sp needed
 916 0042 80BC     		pop	{r7}
 917              	.LCFI72:
 918              		.cfi_restore 7
 919              		.cfi_def_cfa_offset 0
 920 0044 7047     		bx	lr
 921              	.L50:
 922 0046 00BF     		.align	2
 923              	.L49:
 924 0048 09100240 		.word	1073877001
 925              		.cfi_endproc
 926              	.LFE41:
 928              		.section	.text.RCC_USBCLKConfig,"ax",%progbits
 929              		.align	1
 930              		.global	RCC_USBCLKConfig
 931              		.syntax unified
 932              		.thumb
 933              		.thumb_func
 935              	RCC_USBCLKConfig:
 936              	.LFB42:
 716:./Libraries/STM32F10x_StdPeriph_Driver/src/stm32f10x_rcc.c **** 
 717:./Libraries/STM32F10x_StdPeriph_Driver/src/stm32f10x_rcc.c **** #ifndef STM32F10X_CL
 718:./Libraries/STM32F10x_StdPeriph_Driver/src/stm32f10x_rcc.c **** /**
 719:./Libraries/STM32F10x_StdPeriph_Driver/src/stm32f10x_rcc.c ****   * @brief  Configures the USB clock (USBCLK).
 720:./Libraries/STM32F10x_StdPeriph_Driver/src/stm32f10x_rcc.c ****   * @param  RCC_USBCLKSource: specifies the USB clock source. This clock is 
 721:./Libraries/STM32F10x_StdPeriph_Driver/src/stm32f10x_rcc.c ****   *   derived from the PLL output.
 722:./Libraries/STM32F10x_StdPeriph_Driver/src/stm32f10x_rcc.c ****   *   This parameter can be one of the following values:
 723:./Libraries/STM32F10x_StdPeriph_Driver/src/stm32f10x_rcc.c ****   *     @arg RCC_USBCLKSource_PLLCLK_1Div5: PLL clock divided by 1,5 selected as USB 
 724:./Libraries/STM32F10x_StdPeriph_Driver/src/stm32f10x_rcc.c ****   *                                     clock source
 725:./Libraries/STM32F10x_StdPeriph_Driver/src/stm32f10x_rcc.c ****   *     @arg RCC_USBCLKSource_PLLCLK_Div1: PLL clock selected as USB clock source
 726:./Libraries/STM32F10x_StdPeriph_Driver/src/stm32f10x_rcc.c ****   * @retval None
 727:./Libraries/STM32F10x_StdPeriph_Driver/src/stm32f10x_rcc.c ****   */
 728:./Libraries/STM32F10x_StdPeriph_Driver/src/stm32f10x_rcc.c **** void RCC_USBCLKConfig(uint32_t RCC_USBCLKSource)
 729:./Libraries/STM32F10x_StdPeriph_Driver/src/stm32f10x_rcc.c **** {
 937              		.loc 1 729 1
 938              		.cfi_startproc
 939              		@ args = 0, pretend = 0, frame = 8
 940              		@ frame_needed = 1, uses_anonymous_args = 0
 941              		@ link register save eliminated.
 942 0000 80B4     		push	{r7}
 943              	.LCFI73:
 944              		.cfi_def_cfa_offset 4
 945              		.cfi_offset 7, -4
ARM GAS  C:\Users\hao\AppData\Local\Temp\cc7h2zwF.s 			page 30


 946 0002 83B0     		sub	sp, sp, #12
 947              	.LCFI74:
 948              		.cfi_def_cfa_offset 16
 949 0004 00AF     		add	r7, sp, #0
 950              	.LCFI75:
 951              		.cfi_def_cfa_register 7
 952 0006 7860     		str	r0, [r7, #4]
 730:./Libraries/STM32F10x_StdPeriph_Driver/src/stm32f10x_rcc.c ****   /* Check the parameters */
 731:./Libraries/STM32F10x_StdPeriph_Driver/src/stm32f10x_rcc.c ****   assert_param(IS_RCC_USBCLK_SOURCE(RCC_USBCLKSource));
 732:./Libraries/STM32F10x_StdPeriph_Driver/src/stm32f10x_rcc.c **** 
 733:./Libraries/STM32F10x_StdPeriph_Driver/src/stm32f10x_rcc.c ****   *(__IO uint32_t *) CFGR_USBPRE_BB = RCC_USBCLKSource;
 953              		.loc 1 733 3
 954 0008 034A     		ldr	r2, .L52
 955              		.loc 1 733 37
 956 000a 7B68     		ldr	r3, [r7, #4]
 957 000c 1360     		str	r3, [r2]
 734:./Libraries/STM32F10x_StdPeriph_Driver/src/stm32f10x_rcc.c **** }
 958              		.loc 1 734 1
 959 000e 00BF     		nop
 960 0010 0C37     		adds	r7, r7, #12
 961              	.LCFI76:
 962              		.cfi_def_cfa_offset 4
 963 0012 BD46     		mov	sp, r7
 964              	.LCFI77:
 965              		.cfi_def_cfa_register 13
 966              		@ sp needed
 967 0014 80BC     		pop	{r7}
 968              	.LCFI78:
 969              		.cfi_restore 7
 970              		.cfi_def_cfa_offset 0
 971 0016 7047     		bx	lr
 972              	.L53:
 973              		.align	2
 974              	.L52:
 975 0018 D8004242 		.word	1111621848
 976              		.cfi_endproc
 977              	.LFE42:
 979              		.section	.text.RCC_ADCCLKConfig,"ax",%progbits
 980              		.align	1
 981              		.global	RCC_ADCCLKConfig
 982              		.syntax unified
 983              		.thumb
 984              		.thumb_func
 986              	RCC_ADCCLKConfig:
 987              	.LFB43:
 735:./Libraries/STM32F10x_StdPeriph_Driver/src/stm32f10x_rcc.c **** #else
 736:./Libraries/STM32F10x_StdPeriph_Driver/src/stm32f10x_rcc.c **** /**
 737:./Libraries/STM32F10x_StdPeriph_Driver/src/stm32f10x_rcc.c ****   * @brief  Configures the USB OTG FS clock (OTGFSCLK).
 738:./Libraries/STM32F10x_StdPeriph_Driver/src/stm32f10x_rcc.c ****   *   This function applies only to STM32 Connectivity line devices.
 739:./Libraries/STM32F10x_StdPeriph_Driver/src/stm32f10x_rcc.c ****   * @param  RCC_OTGFSCLKSource: specifies the USB OTG FS clock source.
 740:./Libraries/STM32F10x_StdPeriph_Driver/src/stm32f10x_rcc.c ****   *   This clock is derived from the PLL output.
 741:./Libraries/STM32F10x_StdPeriph_Driver/src/stm32f10x_rcc.c ****   *   This parameter can be one of the following values:
 742:./Libraries/STM32F10x_StdPeriph_Driver/src/stm32f10x_rcc.c ****   *     @arg  RCC_OTGFSCLKSource_PLLVCO_Div3: PLL VCO clock divided by 2 selected as USB OTG FS clo
 743:./Libraries/STM32F10x_StdPeriph_Driver/src/stm32f10x_rcc.c ****   *     @arg  RCC_OTGFSCLKSource_PLLVCO_Div2: PLL VCO clock divided by 2 selected as USB OTG FS clo
 744:./Libraries/STM32F10x_StdPeriph_Driver/src/stm32f10x_rcc.c ****   * @retval None
 745:./Libraries/STM32F10x_StdPeriph_Driver/src/stm32f10x_rcc.c ****   */
 746:./Libraries/STM32F10x_StdPeriph_Driver/src/stm32f10x_rcc.c **** void RCC_OTGFSCLKConfig(uint32_t RCC_OTGFSCLKSource)
ARM GAS  C:\Users\hao\AppData\Local\Temp\cc7h2zwF.s 			page 31


 747:./Libraries/STM32F10x_StdPeriph_Driver/src/stm32f10x_rcc.c **** {
 748:./Libraries/STM32F10x_StdPeriph_Driver/src/stm32f10x_rcc.c ****   /* Check the parameters */
 749:./Libraries/STM32F10x_StdPeriph_Driver/src/stm32f10x_rcc.c ****   assert_param(IS_RCC_OTGFSCLK_SOURCE(RCC_OTGFSCLKSource));
 750:./Libraries/STM32F10x_StdPeriph_Driver/src/stm32f10x_rcc.c **** 
 751:./Libraries/STM32F10x_StdPeriph_Driver/src/stm32f10x_rcc.c ****   *(__IO uint32_t *) CFGR_OTGFSPRE_BB = RCC_OTGFSCLKSource;
 752:./Libraries/STM32F10x_StdPeriph_Driver/src/stm32f10x_rcc.c **** }
 753:./Libraries/STM32F10x_StdPeriph_Driver/src/stm32f10x_rcc.c **** #endif /* STM32F10X_CL */ 
 754:./Libraries/STM32F10x_StdPeriph_Driver/src/stm32f10x_rcc.c **** 
 755:./Libraries/STM32F10x_StdPeriph_Driver/src/stm32f10x_rcc.c **** /**
 756:./Libraries/STM32F10x_StdPeriph_Driver/src/stm32f10x_rcc.c ****   * @brief  Configures the ADC clock (ADCCLK).
 757:./Libraries/STM32F10x_StdPeriph_Driver/src/stm32f10x_rcc.c ****   * @param  RCC_PCLK2: defines the ADC clock divider. This clock is derived from 
 758:./Libraries/STM32F10x_StdPeriph_Driver/src/stm32f10x_rcc.c ****   *   the APB2 clock (PCLK2).
 759:./Libraries/STM32F10x_StdPeriph_Driver/src/stm32f10x_rcc.c ****   *   This parameter can be one of the following values:
 760:./Libraries/STM32F10x_StdPeriph_Driver/src/stm32f10x_rcc.c ****   *     @arg RCC_PCLK2_Div2: ADC clock = PCLK2/2
 761:./Libraries/STM32F10x_StdPeriph_Driver/src/stm32f10x_rcc.c ****   *     @arg RCC_PCLK2_Div4: ADC clock = PCLK2/4
 762:./Libraries/STM32F10x_StdPeriph_Driver/src/stm32f10x_rcc.c ****   *     @arg RCC_PCLK2_Div6: ADC clock = PCLK2/6
 763:./Libraries/STM32F10x_StdPeriph_Driver/src/stm32f10x_rcc.c ****   *     @arg RCC_PCLK2_Div8: ADC clock = PCLK2/8
 764:./Libraries/STM32F10x_StdPeriph_Driver/src/stm32f10x_rcc.c ****   * @retval None
 765:./Libraries/STM32F10x_StdPeriph_Driver/src/stm32f10x_rcc.c ****   */
 766:./Libraries/STM32F10x_StdPeriph_Driver/src/stm32f10x_rcc.c **** void RCC_ADCCLKConfig(uint32_t RCC_PCLK2)
 767:./Libraries/STM32F10x_StdPeriph_Driver/src/stm32f10x_rcc.c **** {
 988              		.loc 1 767 1
 989              		.cfi_startproc
 990              		@ args = 0, pretend = 0, frame = 16
 991              		@ frame_needed = 1, uses_anonymous_args = 0
 992              		@ link register save eliminated.
 993 0000 80B4     		push	{r7}
 994              	.LCFI79:
 995              		.cfi_def_cfa_offset 4
 996              		.cfi_offset 7, -4
 997 0002 85B0     		sub	sp, sp, #20
 998              	.LCFI80:
 999              		.cfi_def_cfa_offset 24
 1000 0004 00AF     		add	r7, sp, #0
 1001              	.LCFI81:
 1002              		.cfi_def_cfa_register 7
 1003 0006 7860     		str	r0, [r7, #4]
 768:./Libraries/STM32F10x_StdPeriph_Driver/src/stm32f10x_rcc.c ****   uint32_t tmpreg = 0;
 1004              		.loc 1 768 12
 1005 0008 0023     		movs	r3, #0
 1006 000a FB60     		str	r3, [r7, #12]
 769:./Libraries/STM32F10x_StdPeriph_Driver/src/stm32f10x_rcc.c ****   /* Check the parameters */
 770:./Libraries/STM32F10x_StdPeriph_Driver/src/stm32f10x_rcc.c ****   assert_param(IS_RCC_ADCCLK(RCC_PCLK2));
 771:./Libraries/STM32F10x_StdPeriph_Driver/src/stm32f10x_rcc.c ****   tmpreg = RCC->CFGR;
 1007              		.loc 1 771 15
 1008 000c 094B     		ldr	r3, .L55
 1009              		.loc 1 771 10
 1010 000e 5B68     		ldr	r3, [r3, #4]
 1011 0010 FB60     		str	r3, [r7, #12]
 772:./Libraries/STM32F10x_StdPeriph_Driver/src/stm32f10x_rcc.c ****   /* Clear ADCPRE[1:0] bits */
 773:./Libraries/STM32F10x_StdPeriph_Driver/src/stm32f10x_rcc.c ****   tmpreg &= CFGR_ADCPRE_Reset_Mask;
 1012              		.loc 1 773 10
 1013 0012 FB68     		ldr	r3, [r7, #12]
 1014 0014 23F44043 		bic	r3, r3, #49152
 1015 0018 FB60     		str	r3, [r7, #12]
 774:./Libraries/STM32F10x_StdPeriph_Driver/src/stm32f10x_rcc.c ****   /* Set ADCPRE[1:0] bits according to RCC_PCLK2 value */
 775:./Libraries/STM32F10x_StdPeriph_Driver/src/stm32f10x_rcc.c ****   tmpreg |= RCC_PCLK2;
ARM GAS  C:\Users\hao\AppData\Local\Temp\cc7h2zwF.s 			page 32


 1016              		.loc 1 775 10
 1017 001a FA68     		ldr	r2, [r7, #12]
 1018 001c 7B68     		ldr	r3, [r7, #4]
 1019 001e 1343     		orrs	r3, r3, r2
 1020 0020 FB60     		str	r3, [r7, #12]
 776:./Libraries/STM32F10x_StdPeriph_Driver/src/stm32f10x_rcc.c ****   /* Store the new value */
 777:./Libraries/STM32F10x_StdPeriph_Driver/src/stm32f10x_rcc.c ****   RCC->CFGR = tmpreg;
 1021              		.loc 1 777 6
 1022 0022 044A     		ldr	r2, .L55
 1023              		.loc 1 777 13
 1024 0024 FB68     		ldr	r3, [r7, #12]
 1025 0026 5360     		str	r3, [r2, #4]
 778:./Libraries/STM32F10x_StdPeriph_Driver/src/stm32f10x_rcc.c **** }
 1026              		.loc 1 778 1
 1027 0028 00BF     		nop
 1028 002a 1437     		adds	r7, r7, #20
 1029              	.LCFI82:
 1030              		.cfi_def_cfa_offset 4
 1031 002c BD46     		mov	sp, r7
 1032              	.LCFI83:
 1033              		.cfi_def_cfa_register 13
 1034              		@ sp needed
 1035 002e 80BC     		pop	{r7}
 1036              	.LCFI84:
 1037              		.cfi_restore 7
 1038              		.cfi_def_cfa_offset 0
 1039 0030 7047     		bx	lr
 1040              	.L56:
 1041 0032 00BF     		.align	2
 1042              	.L55:
 1043 0034 00100240 		.word	1073876992
 1044              		.cfi_endproc
 1045              	.LFE43:
 1047              		.section	.text.RCC_LSEConfig,"ax",%progbits
 1048              		.align	1
 1049              		.global	RCC_LSEConfig
 1050              		.syntax unified
 1051              		.thumb
 1052              		.thumb_func
 1054              	RCC_LSEConfig:
 1055              	.LFB44:
 779:./Libraries/STM32F10x_StdPeriph_Driver/src/stm32f10x_rcc.c **** 
 780:./Libraries/STM32F10x_StdPeriph_Driver/src/stm32f10x_rcc.c **** #ifdef STM32F10X_CL
 781:./Libraries/STM32F10x_StdPeriph_Driver/src/stm32f10x_rcc.c **** /**
 782:./Libraries/STM32F10x_StdPeriph_Driver/src/stm32f10x_rcc.c ****   * @brief  Configures the I2S2 clock source(I2S2CLK).
 783:./Libraries/STM32F10x_StdPeriph_Driver/src/stm32f10x_rcc.c ****   * @note
 784:./Libraries/STM32F10x_StdPeriph_Driver/src/stm32f10x_rcc.c ****   *   - This function must be called before enabling I2S2 APB clock.
 785:./Libraries/STM32F10x_StdPeriph_Driver/src/stm32f10x_rcc.c ****   *   - This function applies only to STM32 Connectivity line devices.
 786:./Libraries/STM32F10x_StdPeriph_Driver/src/stm32f10x_rcc.c ****   * @param  RCC_I2S2CLKSource: specifies the I2S2 clock source.
 787:./Libraries/STM32F10x_StdPeriph_Driver/src/stm32f10x_rcc.c ****   *   This parameter can be one of the following values:
 788:./Libraries/STM32F10x_StdPeriph_Driver/src/stm32f10x_rcc.c ****   *     @arg RCC_I2S2CLKSource_SYSCLK: system clock selected as I2S2 clock entry
 789:./Libraries/STM32F10x_StdPeriph_Driver/src/stm32f10x_rcc.c ****   *     @arg RCC_I2S2CLKSource_PLL3_VCO: PLL3 VCO clock selected as I2S2 clock entry
 790:./Libraries/STM32F10x_StdPeriph_Driver/src/stm32f10x_rcc.c ****   * @retval None
 791:./Libraries/STM32F10x_StdPeriph_Driver/src/stm32f10x_rcc.c ****   */
 792:./Libraries/STM32F10x_StdPeriph_Driver/src/stm32f10x_rcc.c **** void RCC_I2S2CLKConfig(uint32_t RCC_I2S2CLKSource)
 793:./Libraries/STM32F10x_StdPeriph_Driver/src/stm32f10x_rcc.c **** {
 794:./Libraries/STM32F10x_StdPeriph_Driver/src/stm32f10x_rcc.c ****   /* Check the parameters */
ARM GAS  C:\Users\hao\AppData\Local\Temp\cc7h2zwF.s 			page 33


 795:./Libraries/STM32F10x_StdPeriph_Driver/src/stm32f10x_rcc.c ****   assert_param(IS_RCC_I2S2CLK_SOURCE(RCC_I2S2CLKSource));
 796:./Libraries/STM32F10x_StdPeriph_Driver/src/stm32f10x_rcc.c **** 
 797:./Libraries/STM32F10x_StdPeriph_Driver/src/stm32f10x_rcc.c ****   *(__IO uint32_t *) CFGR2_I2S2SRC_BB = RCC_I2S2CLKSource;
 798:./Libraries/STM32F10x_StdPeriph_Driver/src/stm32f10x_rcc.c **** }
 799:./Libraries/STM32F10x_StdPeriph_Driver/src/stm32f10x_rcc.c **** 
 800:./Libraries/STM32F10x_StdPeriph_Driver/src/stm32f10x_rcc.c **** /**
 801:./Libraries/STM32F10x_StdPeriph_Driver/src/stm32f10x_rcc.c ****   * @brief  Configures the I2S3 clock source(I2S2CLK).
 802:./Libraries/STM32F10x_StdPeriph_Driver/src/stm32f10x_rcc.c ****   * @note
 803:./Libraries/STM32F10x_StdPeriph_Driver/src/stm32f10x_rcc.c ****   *   - This function must be called before enabling I2S3 APB clock.
 804:./Libraries/STM32F10x_StdPeriph_Driver/src/stm32f10x_rcc.c ****   *   - This function applies only to STM32 Connectivity line devices.
 805:./Libraries/STM32F10x_StdPeriph_Driver/src/stm32f10x_rcc.c ****   * @param  RCC_I2S3CLKSource: specifies the I2S3 clock source.
 806:./Libraries/STM32F10x_StdPeriph_Driver/src/stm32f10x_rcc.c ****   *   This parameter can be one of the following values:
 807:./Libraries/STM32F10x_StdPeriph_Driver/src/stm32f10x_rcc.c ****   *     @arg RCC_I2S3CLKSource_SYSCLK: system clock selected as I2S3 clock entry
 808:./Libraries/STM32F10x_StdPeriph_Driver/src/stm32f10x_rcc.c ****   *     @arg RCC_I2S3CLKSource_PLL3_VCO: PLL3 VCO clock selected as I2S3 clock entry
 809:./Libraries/STM32F10x_StdPeriph_Driver/src/stm32f10x_rcc.c ****   * @retval None
 810:./Libraries/STM32F10x_StdPeriph_Driver/src/stm32f10x_rcc.c ****   */
 811:./Libraries/STM32F10x_StdPeriph_Driver/src/stm32f10x_rcc.c **** void RCC_I2S3CLKConfig(uint32_t RCC_I2S3CLKSource)
 812:./Libraries/STM32F10x_StdPeriph_Driver/src/stm32f10x_rcc.c **** {
 813:./Libraries/STM32F10x_StdPeriph_Driver/src/stm32f10x_rcc.c ****   /* Check the parameters */
 814:./Libraries/STM32F10x_StdPeriph_Driver/src/stm32f10x_rcc.c ****   assert_param(IS_RCC_I2S3CLK_SOURCE(RCC_I2S3CLKSource));
 815:./Libraries/STM32F10x_StdPeriph_Driver/src/stm32f10x_rcc.c **** 
 816:./Libraries/STM32F10x_StdPeriph_Driver/src/stm32f10x_rcc.c ****   *(__IO uint32_t *) CFGR2_I2S3SRC_BB = RCC_I2S3CLKSource;
 817:./Libraries/STM32F10x_StdPeriph_Driver/src/stm32f10x_rcc.c **** }
 818:./Libraries/STM32F10x_StdPeriph_Driver/src/stm32f10x_rcc.c **** #endif /* STM32F10X_CL */
 819:./Libraries/STM32F10x_StdPeriph_Driver/src/stm32f10x_rcc.c **** 
 820:./Libraries/STM32F10x_StdPeriph_Driver/src/stm32f10x_rcc.c **** /**
 821:./Libraries/STM32F10x_StdPeriph_Driver/src/stm32f10x_rcc.c ****   * @brief  Configures the External Low Speed oscillator (LSE).
 822:./Libraries/STM32F10x_StdPeriph_Driver/src/stm32f10x_rcc.c ****   * @param  RCC_LSE: specifies the new state of the LSE.
 823:./Libraries/STM32F10x_StdPeriph_Driver/src/stm32f10x_rcc.c ****   *   This parameter can be one of the following values:
 824:./Libraries/STM32F10x_StdPeriph_Driver/src/stm32f10x_rcc.c ****   *     @arg RCC_LSE_OFF: LSE oscillator OFF
 825:./Libraries/STM32F10x_StdPeriph_Driver/src/stm32f10x_rcc.c ****   *     @arg RCC_LSE_ON: LSE oscillator ON
 826:./Libraries/STM32F10x_StdPeriph_Driver/src/stm32f10x_rcc.c ****   *     @arg RCC_LSE_Bypass: LSE oscillator bypassed with external clock
 827:./Libraries/STM32F10x_StdPeriph_Driver/src/stm32f10x_rcc.c ****   * @retval None
 828:./Libraries/STM32F10x_StdPeriph_Driver/src/stm32f10x_rcc.c ****   */
 829:./Libraries/STM32F10x_StdPeriph_Driver/src/stm32f10x_rcc.c **** void RCC_LSEConfig(uint8_t RCC_LSE)
 830:./Libraries/STM32F10x_StdPeriph_Driver/src/stm32f10x_rcc.c **** {
 1056              		.loc 1 830 1
 1057              		.cfi_startproc
 1058              		@ args = 0, pretend = 0, frame = 8
 1059              		@ frame_needed = 1, uses_anonymous_args = 0
 1060              		@ link register save eliminated.
 1061 0000 80B4     		push	{r7}
 1062              	.LCFI85:
 1063              		.cfi_def_cfa_offset 4
 1064              		.cfi_offset 7, -4
 1065 0002 83B0     		sub	sp, sp, #12
 1066              	.LCFI86:
 1067              		.cfi_def_cfa_offset 16
 1068 0004 00AF     		add	r7, sp, #0
 1069              	.LCFI87:
 1070              		.cfi_def_cfa_register 7
 1071 0006 0346     		mov	r3, r0
 1072 0008 FB71     		strb	r3, [r7, #7]
 831:./Libraries/STM32F10x_StdPeriph_Driver/src/stm32f10x_rcc.c ****   /* Check the parameters */
 832:./Libraries/STM32F10x_StdPeriph_Driver/src/stm32f10x_rcc.c ****   assert_param(IS_RCC_LSE(RCC_LSE));
 833:./Libraries/STM32F10x_StdPeriph_Driver/src/stm32f10x_rcc.c ****   /* Reset LSEON and LSEBYP bits before configuring the LSE ------------------*/
 834:./Libraries/STM32F10x_StdPeriph_Driver/src/stm32f10x_rcc.c ****   /* Reset LSEON bit */
ARM GAS  C:\Users\hao\AppData\Local\Temp\cc7h2zwF.s 			page 34


 835:./Libraries/STM32F10x_StdPeriph_Driver/src/stm32f10x_rcc.c ****   *(__IO uint8_t *) BDCR_ADDRESS = RCC_LSE_OFF;
 1073              		.loc 1 835 3
 1074 000a 0C4B     		ldr	r3, .L62
 1075              		.loc 1 835 34
 1076 000c 0022     		movs	r2, #0
 1077 000e 1A70     		strb	r2, [r3]
 836:./Libraries/STM32F10x_StdPeriph_Driver/src/stm32f10x_rcc.c ****   /* Reset LSEBYP bit */
 837:./Libraries/STM32F10x_StdPeriph_Driver/src/stm32f10x_rcc.c ****   *(__IO uint8_t *) BDCR_ADDRESS = RCC_LSE_OFF;
 1078              		.loc 1 837 3
 1079 0010 0A4B     		ldr	r3, .L62
 1080              		.loc 1 837 34
 1081 0012 0022     		movs	r2, #0
 1082 0014 1A70     		strb	r2, [r3]
 838:./Libraries/STM32F10x_StdPeriph_Driver/src/stm32f10x_rcc.c ****   /* Configure LSE (RCC_LSE_OFF is already covered by the code section above) */
 839:./Libraries/STM32F10x_StdPeriph_Driver/src/stm32f10x_rcc.c ****   switch(RCC_LSE)
 1083              		.loc 1 839 3
 1084 0016 FB79     		ldrb	r3, [r7, #7]	@ zero_extendqisi2
 1085 0018 012B     		cmp	r3, #1
 1086 001a 02D0     		beq	.L58
 1087 001c 042B     		cmp	r3, #4
 1088 001e 04D0     		beq	.L59
 840:./Libraries/STM32F10x_StdPeriph_Driver/src/stm32f10x_rcc.c ****   {
 841:./Libraries/STM32F10x_StdPeriph_Driver/src/stm32f10x_rcc.c ****     case RCC_LSE_ON:
 842:./Libraries/STM32F10x_StdPeriph_Driver/src/stm32f10x_rcc.c ****       /* Set LSEON bit */
 843:./Libraries/STM32F10x_StdPeriph_Driver/src/stm32f10x_rcc.c ****       *(__IO uint8_t *) BDCR_ADDRESS = RCC_LSE_ON;
 844:./Libraries/STM32F10x_StdPeriph_Driver/src/stm32f10x_rcc.c ****       break;
 845:./Libraries/STM32F10x_StdPeriph_Driver/src/stm32f10x_rcc.c ****       
 846:./Libraries/STM32F10x_StdPeriph_Driver/src/stm32f10x_rcc.c ****     case RCC_LSE_Bypass:
 847:./Libraries/STM32F10x_StdPeriph_Driver/src/stm32f10x_rcc.c ****       /* Set LSEBYP and LSEON bits */
 848:./Libraries/STM32F10x_StdPeriph_Driver/src/stm32f10x_rcc.c ****       *(__IO uint8_t *) BDCR_ADDRESS = RCC_LSE_Bypass | RCC_LSE_ON;
 849:./Libraries/STM32F10x_StdPeriph_Driver/src/stm32f10x_rcc.c ****       break;            
 850:./Libraries/STM32F10x_StdPeriph_Driver/src/stm32f10x_rcc.c ****       
 851:./Libraries/STM32F10x_StdPeriph_Driver/src/stm32f10x_rcc.c ****     default:
 852:./Libraries/STM32F10x_StdPeriph_Driver/src/stm32f10x_rcc.c ****       break;      
 1089              		.loc 1 852 7
 1090 0020 07E0     		b	.L61
 1091              	.L58:
 843:./Libraries/STM32F10x_StdPeriph_Driver/src/stm32f10x_rcc.c ****       break;
 1092              		.loc 1 843 7
 1093 0022 064B     		ldr	r3, .L62
 843:./Libraries/STM32F10x_StdPeriph_Driver/src/stm32f10x_rcc.c ****       break;
 1094              		.loc 1 843 38
 1095 0024 0122     		movs	r2, #1
 1096 0026 1A70     		strb	r2, [r3]
 844:./Libraries/STM32F10x_StdPeriph_Driver/src/stm32f10x_rcc.c ****       
 1097              		.loc 1 844 7
 1098 0028 03E0     		b	.L61
 1099              	.L59:
 848:./Libraries/STM32F10x_StdPeriph_Driver/src/stm32f10x_rcc.c ****       break;            
 1100              		.loc 1 848 7
 1101 002a 044B     		ldr	r3, .L62
 848:./Libraries/STM32F10x_StdPeriph_Driver/src/stm32f10x_rcc.c ****       break;            
 1102              		.loc 1 848 38
 1103 002c 0522     		movs	r2, #5
 1104 002e 1A70     		strb	r2, [r3]
 849:./Libraries/STM32F10x_StdPeriph_Driver/src/stm32f10x_rcc.c ****       
 1105              		.loc 1 849 7
ARM GAS  C:\Users\hao\AppData\Local\Temp\cc7h2zwF.s 			page 35


 1106 0030 00BF     		nop
 1107              	.L61:
 853:./Libraries/STM32F10x_StdPeriph_Driver/src/stm32f10x_rcc.c ****   }
 854:./Libraries/STM32F10x_StdPeriph_Driver/src/stm32f10x_rcc.c **** }
 1108              		.loc 1 854 1
 1109 0032 00BF     		nop
 1110 0034 0C37     		adds	r7, r7, #12
 1111              	.LCFI88:
 1112              		.cfi_def_cfa_offset 4
 1113 0036 BD46     		mov	sp, r7
 1114              	.LCFI89:
 1115              		.cfi_def_cfa_register 13
 1116              		@ sp needed
 1117 0038 80BC     		pop	{r7}
 1118              	.LCFI90:
 1119              		.cfi_restore 7
 1120              		.cfi_def_cfa_offset 0
 1121 003a 7047     		bx	lr
 1122              	.L63:
 1123              		.align	2
 1124              	.L62:
 1125 003c 20100240 		.word	1073877024
 1126              		.cfi_endproc
 1127              	.LFE44:
 1129              		.section	.text.RCC_LSICmd,"ax",%progbits
 1130              		.align	1
 1131              		.global	RCC_LSICmd
 1132              		.syntax unified
 1133              		.thumb
 1134              		.thumb_func
 1136              	RCC_LSICmd:
 1137              	.LFB45:
 855:./Libraries/STM32F10x_StdPeriph_Driver/src/stm32f10x_rcc.c **** 
 856:./Libraries/STM32F10x_StdPeriph_Driver/src/stm32f10x_rcc.c **** /**
 857:./Libraries/STM32F10x_StdPeriph_Driver/src/stm32f10x_rcc.c ****   * @brief  Enables or disables the Internal Low Speed oscillator (LSI).
 858:./Libraries/STM32F10x_StdPeriph_Driver/src/stm32f10x_rcc.c ****   * @note   LSI can not be disabled if the IWDG is running.
 859:./Libraries/STM32F10x_StdPeriph_Driver/src/stm32f10x_rcc.c ****   * @param  NewState: new state of the LSI. This parameter can be: ENABLE or DISABLE.
 860:./Libraries/STM32F10x_StdPeriph_Driver/src/stm32f10x_rcc.c ****   * @retval None
 861:./Libraries/STM32F10x_StdPeriph_Driver/src/stm32f10x_rcc.c ****   */
 862:./Libraries/STM32F10x_StdPeriph_Driver/src/stm32f10x_rcc.c **** void RCC_LSICmd(FunctionalState NewState)
 863:./Libraries/STM32F10x_StdPeriph_Driver/src/stm32f10x_rcc.c **** {
 1138              		.loc 1 863 1
 1139              		.cfi_startproc
 1140              		@ args = 0, pretend = 0, frame = 8
 1141              		@ frame_needed = 1, uses_anonymous_args = 0
 1142              		@ link register save eliminated.
 1143 0000 80B4     		push	{r7}
 1144              	.LCFI91:
 1145              		.cfi_def_cfa_offset 4
 1146              		.cfi_offset 7, -4
 1147 0002 83B0     		sub	sp, sp, #12
 1148              	.LCFI92:
 1149              		.cfi_def_cfa_offset 16
 1150 0004 00AF     		add	r7, sp, #0
 1151              	.LCFI93:
 1152              		.cfi_def_cfa_register 7
 1153 0006 0346     		mov	r3, r0
ARM GAS  C:\Users\hao\AppData\Local\Temp\cc7h2zwF.s 			page 36


 1154 0008 FB71     		strb	r3, [r7, #7]
 864:./Libraries/STM32F10x_StdPeriph_Driver/src/stm32f10x_rcc.c ****   /* Check the parameters */
 865:./Libraries/STM32F10x_StdPeriph_Driver/src/stm32f10x_rcc.c ****   assert_param(IS_FUNCTIONAL_STATE(NewState));
 866:./Libraries/STM32F10x_StdPeriph_Driver/src/stm32f10x_rcc.c ****   *(__IO uint32_t *) CSR_LSION_BB = (uint32_t)NewState;
 1155              		.loc 1 866 3
 1156 000a 044A     		ldr	r2, .L65
 1157              		.loc 1 866 37
 1158 000c FB79     		ldrb	r3, [r7, #7]	@ zero_extendqisi2
 1159              		.loc 1 866 35
 1160 000e 1360     		str	r3, [r2]
 867:./Libraries/STM32F10x_StdPeriph_Driver/src/stm32f10x_rcc.c **** }
 1161              		.loc 1 867 1
 1162 0010 00BF     		nop
 1163 0012 0C37     		adds	r7, r7, #12
 1164              	.LCFI94:
 1165              		.cfi_def_cfa_offset 4
 1166 0014 BD46     		mov	sp, r7
 1167              	.LCFI95:
 1168              		.cfi_def_cfa_register 13
 1169              		@ sp needed
 1170 0016 80BC     		pop	{r7}
 1171              	.LCFI96:
 1172              		.cfi_restore 7
 1173              		.cfi_def_cfa_offset 0
 1174 0018 7047     		bx	lr
 1175              	.L66:
 1176 001a 00BF     		.align	2
 1177              	.L65:
 1178 001c 80044242 		.word	1111622784
 1179              		.cfi_endproc
 1180              	.LFE45:
 1182              		.section	.text.RCC_RTCCLKConfig,"ax",%progbits
 1183              		.align	1
 1184              		.global	RCC_RTCCLKConfig
 1185              		.syntax unified
 1186              		.thumb
 1187              		.thumb_func
 1189              	RCC_RTCCLKConfig:
 1190              	.LFB46:
 868:./Libraries/STM32F10x_StdPeriph_Driver/src/stm32f10x_rcc.c **** 
 869:./Libraries/STM32F10x_StdPeriph_Driver/src/stm32f10x_rcc.c **** /**
 870:./Libraries/STM32F10x_StdPeriph_Driver/src/stm32f10x_rcc.c ****   * @brief  Configures the RTC clock (RTCCLK).
 871:./Libraries/STM32F10x_StdPeriph_Driver/src/stm32f10x_rcc.c ****   * @note   Once the RTC clock is selected it can't be changed unless the Backup domain is reset.
 872:./Libraries/STM32F10x_StdPeriph_Driver/src/stm32f10x_rcc.c ****   * @param  RCC_RTCCLKSource: specifies the RTC clock source.
 873:./Libraries/STM32F10x_StdPeriph_Driver/src/stm32f10x_rcc.c ****   *   This parameter can be one of the following values:
 874:./Libraries/STM32F10x_StdPeriph_Driver/src/stm32f10x_rcc.c ****   *     @arg RCC_RTCCLKSource_LSE: LSE selected as RTC clock
 875:./Libraries/STM32F10x_StdPeriph_Driver/src/stm32f10x_rcc.c ****   *     @arg RCC_RTCCLKSource_LSI: LSI selected as RTC clock
 876:./Libraries/STM32F10x_StdPeriph_Driver/src/stm32f10x_rcc.c ****   *     @arg RCC_RTCCLKSource_HSE_Div128: HSE clock divided by 128 selected as RTC clock
 877:./Libraries/STM32F10x_StdPeriph_Driver/src/stm32f10x_rcc.c ****   * @retval None
 878:./Libraries/STM32F10x_StdPeriph_Driver/src/stm32f10x_rcc.c ****   */
 879:./Libraries/STM32F10x_StdPeriph_Driver/src/stm32f10x_rcc.c **** void RCC_RTCCLKConfig(uint32_t RCC_RTCCLKSource)
 880:./Libraries/STM32F10x_StdPeriph_Driver/src/stm32f10x_rcc.c **** {
 1191              		.loc 1 880 1
 1192              		.cfi_startproc
 1193              		@ args = 0, pretend = 0, frame = 8
 1194              		@ frame_needed = 1, uses_anonymous_args = 0
 1195              		@ link register save eliminated.
ARM GAS  C:\Users\hao\AppData\Local\Temp\cc7h2zwF.s 			page 37


 1196 0000 80B4     		push	{r7}
 1197              	.LCFI97:
 1198              		.cfi_def_cfa_offset 4
 1199              		.cfi_offset 7, -4
 1200 0002 83B0     		sub	sp, sp, #12
 1201              	.LCFI98:
 1202              		.cfi_def_cfa_offset 16
 1203 0004 00AF     		add	r7, sp, #0
 1204              	.LCFI99:
 1205              		.cfi_def_cfa_register 7
 1206 0006 7860     		str	r0, [r7, #4]
 881:./Libraries/STM32F10x_StdPeriph_Driver/src/stm32f10x_rcc.c ****   /* Check the parameters */
 882:./Libraries/STM32F10x_StdPeriph_Driver/src/stm32f10x_rcc.c ****   assert_param(IS_RCC_RTCCLK_SOURCE(RCC_RTCCLKSource));
 883:./Libraries/STM32F10x_StdPeriph_Driver/src/stm32f10x_rcc.c ****   /* Select the RTC clock source */
 884:./Libraries/STM32F10x_StdPeriph_Driver/src/stm32f10x_rcc.c ****   RCC->BDCR |= RCC_RTCCLKSource;
 1207              		.loc 1 884 13
 1208 0008 054B     		ldr	r3, .L68
 1209 000a 1A6A     		ldr	r2, [r3, #32]
 1210 000c 0449     		ldr	r1, .L68
 1211 000e 7B68     		ldr	r3, [r7, #4]
 1212 0010 1343     		orrs	r3, r3, r2
 1213 0012 0B62     		str	r3, [r1, #32]
 885:./Libraries/STM32F10x_StdPeriph_Driver/src/stm32f10x_rcc.c **** }
 1214              		.loc 1 885 1
 1215 0014 00BF     		nop
 1216 0016 0C37     		adds	r7, r7, #12
 1217              	.LCFI100:
 1218              		.cfi_def_cfa_offset 4
 1219 0018 BD46     		mov	sp, r7
 1220              	.LCFI101:
 1221              		.cfi_def_cfa_register 13
 1222              		@ sp needed
 1223 001a 80BC     		pop	{r7}
 1224              	.LCFI102:
 1225              		.cfi_restore 7
 1226              		.cfi_def_cfa_offset 0
 1227 001c 7047     		bx	lr
 1228              	.L69:
 1229 001e 00BF     		.align	2
 1230              	.L68:
 1231 0020 00100240 		.word	1073876992
 1232              		.cfi_endproc
 1233              	.LFE46:
 1235              		.section	.text.RCC_RTCCLKCmd,"ax",%progbits
 1236              		.align	1
 1237              		.global	RCC_RTCCLKCmd
 1238              		.syntax unified
 1239              		.thumb
 1240              		.thumb_func
 1242              	RCC_RTCCLKCmd:
 1243              	.LFB47:
 886:./Libraries/STM32F10x_StdPeriph_Driver/src/stm32f10x_rcc.c **** 
 887:./Libraries/STM32F10x_StdPeriph_Driver/src/stm32f10x_rcc.c **** /**
 888:./Libraries/STM32F10x_StdPeriph_Driver/src/stm32f10x_rcc.c ****   * @brief  Enables or disables the RTC clock.
 889:./Libraries/STM32F10x_StdPeriph_Driver/src/stm32f10x_rcc.c ****   * @note   This function must be used only after the RTC clock was selected using the RCC_RTCCLKCo
 890:./Libraries/STM32F10x_StdPeriph_Driver/src/stm32f10x_rcc.c ****   * @param  NewState: new state of the RTC clock. This parameter can be: ENABLE or DISABLE.
 891:./Libraries/STM32F10x_StdPeriph_Driver/src/stm32f10x_rcc.c ****   * @retval None
ARM GAS  C:\Users\hao\AppData\Local\Temp\cc7h2zwF.s 			page 38


 892:./Libraries/STM32F10x_StdPeriph_Driver/src/stm32f10x_rcc.c ****   */
 893:./Libraries/STM32F10x_StdPeriph_Driver/src/stm32f10x_rcc.c **** void RCC_RTCCLKCmd(FunctionalState NewState)
 894:./Libraries/STM32F10x_StdPeriph_Driver/src/stm32f10x_rcc.c **** {
 1244              		.loc 1 894 1
 1245              		.cfi_startproc
 1246              		@ args = 0, pretend = 0, frame = 8
 1247              		@ frame_needed = 1, uses_anonymous_args = 0
 1248              		@ link register save eliminated.
 1249 0000 80B4     		push	{r7}
 1250              	.LCFI103:
 1251              		.cfi_def_cfa_offset 4
 1252              		.cfi_offset 7, -4
 1253 0002 83B0     		sub	sp, sp, #12
 1254              	.LCFI104:
 1255              		.cfi_def_cfa_offset 16
 1256 0004 00AF     		add	r7, sp, #0
 1257              	.LCFI105:
 1258              		.cfi_def_cfa_register 7
 1259 0006 0346     		mov	r3, r0
 1260 0008 FB71     		strb	r3, [r7, #7]
 895:./Libraries/STM32F10x_StdPeriph_Driver/src/stm32f10x_rcc.c ****   /* Check the parameters */
 896:./Libraries/STM32F10x_StdPeriph_Driver/src/stm32f10x_rcc.c ****   assert_param(IS_FUNCTIONAL_STATE(NewState));
 897:./Libraries/STM32F10x_StdPeriph_Driver/src/stm32f10x_rcc.c ****   *(__IO uint32_t *) BDCR_RTCEN_BB = (uint32_t)NewState;
 1261              		.loc 1 897 3
 1262 000a 044A     		ldr	r2, .L71
 1263              		.loc 1 897 38
 1264 000c FB79     		ldrb	r3, [r7, #7]	@ zero_extendqisi2
 1265              		.loc 1 897 36
 1266 000e 1360     		str	r3, [r2]
 898:./Libraries/STM32F10x_StdPeriph_Driver/src/stm32f10x_rcc.c **** }
 1267              		.loc 1 898 1
 1268 0010 00BF     		nop
 1269 0012 0C37     		adds	r7, r7, #12
 1270              	.LCFI106:
 1271              		.cfi_def_cfa_offset 4
 1272 0014 BD46     		mov	sp, r7
 1273              	.LCFI107:
 1274              		.cfi_def_cfa_register 13
 1275              		@ sp needed
 1276 0016 80BC     		pop	{r7}
 1277              	.LCFI108:
 1278              		.cfi_restore 7
 1279              		.cfi_def_cfa_offset 0
 1280 0018 7047     		bx	lr
 1281              	.L72:
 1282 001a 00BF     		.align	2
 1283              	.L71:
 1284 001c 3C044242 		.word	1111622716
 1285              		.cfi_endproc
 1286              	.LFE47:
 1288              		.section	.text.RCC_GetClocksFreq,"ax",%progbits
 1289              		.align	1
 1290              		.global	RCC_GetClocksFreq
 1291              		.syntax unified
 1292              		.thumb
 1293              		.thumb_func
 1295              	RCC_GetClocksFreq:
ARM GAS  C:\Users\hao\AppData\Local\Temp\cc7h2zwF.s 			page 39


 1296              	.LFB48:
 899:./Libraries/STM32F10x_StdPeriph_Driver/src/stm32f10x_rcc.c **** 
 900:./Libraries/STM32F10x_StdPeriph_Driver/src/stm32f10x_rcc.c **** /**
 901:./Libraries/STM32F10x_StdPeriph_Driver/src/stm32f10x_rcc.c ****   * @brief  Returns the frequencies of different on chip clocks.
 902:./Libraries/STM32F10x_StdPeriph_Driver/src/stm32f10x_rcc.c ****   * @param  RCC_Clocks: pointer to a RCC_ClocksTypeDef structure which will hold
 903:./Libraries/STM32F10x_StdPeriph_Driver/src/stm32f10x_rcc.c ****   *         the clocks frequencies.
 904:./Libraries/STM32F10x_StdPeriph_Driver/src/stm32f10x_rcc.c ****   * @note   The result of this function could be not correct when using 
 905:./Libraries/STM32F10x_StdPeriph_Driver/src/stm32f10x_rcc.c ****   *         fractional value for HSE crystal.  
 906:./Libraries/STM32F10x_StdPeriph_Driver/src/stm32f10x_rcc.c ****   * @retval None
 907:./Libraries/STM32F10x_StdPeriph_Driver/src/stm32f10x_rcc.c ****   */
 908:./Libraries/STM32F10x_StdPeriph_Driver/src/stm32f10x_rcc.c **** void RCC_GetClocksFreq(RCC_ClocksTypeDef* RCC_Clocks)
 909:./Libraries/STM32F10x_StdPeriph_Driver/src/stm32f10x_rcc.c **** {
 1297              		.loc 1 909 1
 1298              		.cfi_startproc
 1299              		@ args = 0, pretend = 0, frame = 24
 1300              		@ frame_needed = 1, uses_anonymous_args = 0
 1301              		@ link register save eliminated.
 1302 0000 80B4     		push	{r7}
 1303              	.LCFI109:
 1304              		.cfi_def_cfa_offset 4
 1305              		.cfi_offset 7, -4
 1306 0002 87B0     		sub	sp, sp, #28
 1307              	.LCFI110:
 1308              		.cfi_def_cfa_offset 32
 1309 0004 00AF     		add	r7, sp, #0
 1310              	.LCFI111:
 1311              		.cfi_def_cfa_register 7
 1312 0006 7860     		str	r0, [r7, #4]
 910:./Libraries/STM32F10x_StdPeriph_Driver/src/stm32f10x_rcc.c ****   uint32_t tmp = 0, pllmull = 0, pllsource = 0, presc = 0;
 1313              		.loc 1 910 12
 1314 0008 0023     		movs	r3, #0
 1315 000a 7B61     		str	r3, [r7, #20]
 1316              		.loc 1 910 21
 1317 000c 0023     		movs	r3, #0
 1318 000e 3B61     		str	r3, [r7, #16]
 1319              		.loc 1 910 34
 1320 0010 0023     		movs	r3, #0
 1321 0012 FB60     		str	r3, [r7, #12]
 1322              		.loc 1 910 49
 1323 0014 0023     		movs	r3, #0
 1324 0016 BB60     		str	r3, [r7, #8]
 911:./Libraries/STM32F10x_StdPeriph_Driver/src/stm32f10x_rcc.c **** 
 912:./Libraries/STM32F10x_StdPeriph_Driver/src/stm32f10x_rcc.c **** #ifdef  STM32F10X_CL
 913:./Libraries/STM32F10x_StdPeriph_Driver/src/stm32f10x_rcc.c ****   uint32_t prediv1source = 0, prediv1factor = 0, prediv2factor = 0, pll2mull = 0;
 914:./Libraries/STM32F10x_StdPeriph_Driver/src/stm32f10x_rcc.c **** #endif /* STM32F10X_CL */
 915:./Libraries/STM32F10x_StdPeriph_Driver/src/stm32f10x_rcc.c **** 
 916:./Libraries/STM32F10x_StdPeriph_Driver/src/stm32f10x_rcc.c **** #if defined (STM32F10X_LD_VL) || defined (STM32F10X_MD_VL) || defined (STM32F10X_HD_VL)
 917:./Libraries/STM32F10x_StdPeriph_Driver/src/stm32f10x_rcc.c ****   uint32_t prediv1factor = 0;
 918:./Libraries/STM32F10x_StdPeriph_Driver/src/stm32f10x_rcc.c **** #endif
 919:./Libraries/STM32F10x_StdPeriph_Driver/src/stm32f10x_rcc.c ****     
 920:./Libraries/STM32F10x_StdPeriph_Driver/src/stm32f10x_rcc.c ****   /* Get SYSCLK source -------------------------------------------------------*/
 921:./Libraries/STM32F10x_StdPeriph_Driver/src/stm32f10x_rcc.c ****   tmp = RCC->CFGR & CFGR_SWS_Mask;
 1325              		.loc 1 921 12
 1326 0018 4F4B     		ldr	r3, .L82
 1327 001a 5B68     		ldr	r3, [r3, #4]
 1328              		.loc 1 921 7
 1329 001c 03F00C03 		and	r3, r3, #12
ARM GAS  C:\Users\hao\AppData\Local\Temp\cc7h2zwF.s 			page 40


 1330 0020 7B61     		str	r3, [r7, #20]
 922:./Libraries/STM32F10x_StdPeriph_Driver/src/stm32f10x_rcc.c ****   
 923:./Libraries/STM32F10x_StdPeriph_Driver/src/stm32f10x_rcc.c ****   switch (tmp)
 1331              		.loc 1 923 3
 1332 0022 7B69     		ldr	r3, [r7, #20]
 1333 0024 082B     		cmp	r3, #8
 1334 0026 11D0     		beq	.L74
 1335 0028 7B69     		ldr	r3, [r7, #20]
 1336 002a 082B     		cmp	r3, #8
 1337 002c 3AD8     		bhi	.L75
 1338 002e 7B69     		ldr	r3, [r7, #20]
 1339 0030 002B     		cmp	r3, #0
 1340 0032 03D0     		beq	.L76
 1341 0034 7B69     		ldr	r3, [r7, #20]
 1342 0036 042B     		cmp	r3, #4
 1343 0038 04D0     		beq	.L77
 1344 003a 33E0     		b	.L75
 1345              	.L76:
 924:./Libraries/STM32F10x_StdPeriph_Driver/src/stm32f10x_rcc.c ****   {
 925:./Libraries/STM32F10x_StdPeriph_Driver/src/stm32f10x_rcc.c ****     case 0x00:  /* HSI used as system clock */
 926:./Libraries/STM32F10x_StdPeriph_Driver/src/stm32f10x_rcc.c ****       RCC_Clocks->SYSCLK_Frequency = HSI_VALUE;
 1346              		.loc 1 926 36
 1347 003c 7B68     		ldr	r3, [r7, #4]
 1348 003e 474A     		ldr	r2, .L82+4
 1349 0040 1A60     		str	r2, [r3]
 927:./Libraries/STM32F10x_StdPeriph_Driver/src/stm32f10x_rcc.c ****       break;
 1350              		.loc 1 927 7
 1351 0042 33E0     		b	.L78
 1352              	.L77:
 928:./Libraries/STM32F10x_StdPeriph_Driver/src/stm32f10x_rcc.c ****     case 0x04:  /* HSE used as system clock */
 929:./Libraries/STM32F10x_StdPeriph_Driver/src/stm32f10x_rcc.c ****       RCC_Clocks->SYSCLK_Frequency = HSE_VALUE;
 1353              		.loc 1 929 36
 1354 0044 7B68     		ldr	r3, [r7, #4]
 1355 0046 454A     		ldr	r2, .L82+4
 1356 0048 1A60     		str	r2, [r3]
 930:./Libraries/STM32F10x_StdPeriph_Driver/src/stm32f10x_rcc.c ****       break;
 1357              		.loc 1 930 7
 1358 004a 2FE0     		b	.L78
 1359              	.L74:
 931:./Libraries/STM32F10x_StdPeriph_Driver/src/stm32f10x_rcc.c ****     case 0x08:  /* PLL used as system clock */
 932:./Libraries/STM32F10x_StdPeriph_Driver/src/stm32f10x_rcc.c **** 
 933:./Libraries/STM32F10x_StdPeriph_Driver/src/stm32f10x_rcc.c ****       /* Get PLL clock source and multiplication factor ----------------------*/
 934:./Libraries/STM32F10x_StdPeriph_Driver/src/stm32f10x_rcc.c ****       pllmull = RCC->CFGR & CFGR_PLLMull_Mask;
 1360              		.loc 1 934 20
 1361 004c 424B     		ldr	r3, .L82
 1362 004e 5B68     		ldr	r3, [r3, #4]
 1363              		.loc 1 934 15
 1364 0050 03F47013 		and	r3, r3, #3932160
 1365 0054 3B61     		str	r3, [r7, #16]
 935:./Libraries/STM32F10x_StdPeriph_Driver/src/stm32f10x_rcc.c ****       pllsource = RCC->CFGR & CFGR_PLLSRC_Mask;
 1366              		.loc 1 935 22
 1367 0056 404B     		ldr	r3, .L82
 1368 0058 5B68     		ldr	r3, [r3, #4]
 1369              		.loc 1 935 17
 1370 005a 03F48033 		and	r3, r3, #65536
 1371 005e FB60     		str	r3, [r7, #12]
 936:./Libraries/STM32F10x_StdPeriph_Driver/src/stm32f10x_rcc.c ****       
ARM GAS  C:\Users\hao\AppData\Local\Temp\cc7h2zwF.s 			page 41


 937:./Libraries/STM32F10x_StdPeriph_Driver/src/stm32f10x_rcc.c **** #ifndef STM32F10X_CL      
 938:./Libraries/STM32F10x_StdPeriph_Driver/src/stm32f10x_rcc.c ****       pllmull = ( pllmull >> 18) + 2;
 1372              		.loc 1 938 27
 1373 0060 3B69     		ldr	r3, [r7, #16]
 1374 0062 9B0C     		lsrs	r3, r3, #18
 1375              		.loc 1 938 15
 1376 0064 0233     		adds	r3, r3, #2
 1377 0066 3B61     		str	r3, [r7, #16]
 939:./Libraries/STM32F10x_StdPeriph_Driver/src/stm32f10x_rcc.c ****       
 940:./Libraries/STM32F10x_StdPeriph_Driver/src/stm32f10x_rcc.c ****       if (pllsource == 0x00)
 1378              		.loc 1 940 10
 1379 0068 FB68     		ldr	r3, [r7, #12]
 1380 006a 002B     		cmp	r3, #0
 1381 006c 06D1     		bne	.L79
 941:./Libraries/STM32F10x_StdPeriph_Driver/src/stm32f10x_rcc.c ****       {/* HSI oscillator clock divided by 2 selected as PLL clock entry */
 942:./Libraries/STM32F10x_StdPeriph_Driver/src/stm32f10x_rcc.c ****         RCC_Clocks->SYSCLK_Frequency = (HSI_VALUE >> 1) * pllmull;
 1382              		.loc 1 942 57
 1383 006e 3B69     		ldr	r3, [r7, #16]
 1384 0070 3B4A     		ldr	r2, .L82+8
 1385 0072 03FB02F2 		mul	r2, r3, r2
 1386              		.loc 1 942 38
 1387 0076 7B68     		ldr	r3, [r7, #4]
 1388 0078 1A60     		str	r2, [r3]
 943:./Libraries/STM32F10x_StdPeriph_Driver/src/stm32f10x_rcc.c ****       }
 944:./Libraries/STM32F10x_StdPeriph_Driver/src/stm32f10x_rcc.c ****       else
 945:./Libraries/STM32F10x_StdPeriph_Driver/src/stm32f10x_rcc.c ****       {
 946:./Libraries/STM32F10x_StdPeriph_Driver/src/stm32f10x_rcc.c ****  #if defined (STM32F10X_LD_VL) || defined (STM32F10X_MD_VL) || defined (STM32F10X_HD_VL)
 947:./Libraries/STM32F10x_StdPeriph_Driver/src/stm32f10x_rcc.c ****        prediv1factor = (RCC->CFGR2 & CFGR2_PREDIV1) + 1;
 948:./Libraries/STM32F10x_StdPeriph_Driver/src/stm32f10x_rcc.c ****        /* HSE oscillator clock selected as PREDIV1 clock entry */
 949:./Libraries/STM32F10x_StdPeriph_Driver/src/stm32f10x_rcc.c ****        RCC_Clocks->SYSCLK_Frequency = (HSE_VALUE / prediv1factor) * pllmull; 
 950:./Libraries/STM32F10x_StdPeriph_Driver/src/stm32f10x_rcc.c ****  #else
 951:./Libraries/STM32F10x_StdPeriph_Driver/src/stm32f10x_rcc.c ****         /* HSE selected as PLL clock entry */
 952:./Libraries/STM32F10x_StdPeriph_Driver/src/stm32f10x_rcc.c ****         if ((RCC->CFGR & CFGR_PLLXTPRE_Mask) != (uint32_t)RESET)
 953:./Libraries/STM32F10x_StdPeriph_Driver/src/stm32f10x_rcc.c ****         {/* HSE oscillator clock divided by 2 */
 954:./Libraries/STM32F10x_StdPeriph_Driver/src/stm32f10x_rcc.c ****           RCC_Clocks->SYSCLK_Frequency = (HSE_VALUE >> 1) * pllmull;
 955:./Libraries/STM32F10x_StdPeriph_Driver/src/stm32f10x_rcc.c ****         }
 956:./Libraries/STM32F10x_StdPeriph_Driver/src/stm32f10x_rcc.c ****         else
 957:./Libraries/STM32F10x_StdPeriph_Driver/src/stm32f10x_rcc.c ****         {
 958:./Libraries/STM32F10x_StdPeriph_Driver/src/stm32f10x_rcc.c ****           RCC_Clocks->SYSCLK_Frequency = HSE_VALUE * pllmull;
 959:./Libraries/STM32F10x_StdPeriph_Driver/src/stm32f10x_rcc.c ****         }
 960:./Libraries/STM32F10x_StdPeriph_Driver/src/stm32f10x_rcc.c ****  #endif
 961:./Libraries/STM32F10x_StdPeriph_Driver/src/stm32f10x_rcc.c ****       }
 962:./Libraries/STM32F10x_StdPeriph_Driver/src/stm32f10x_rcc.c **** #else
 963:./Libraries/STM32F10x_StdPeriph_Driver/src/stm32f10x_rcc.c ****       pllmull = pllmull >> 18;
 964:./Libraries/STM32F10x_StdPeriph_Driver/src/stm32f10x_rcc.c ****       
 965:./Libraries/STM32F10x_StdPeriph_Driver/src/stm32f10x_rcc.c ****       if (pllmull != 0x0D)
 966:./Libraries/STM32F10x_StdPeriph_Driver/src/stm32f10x_rcc.c ****       {
 967:./Libraries/STM32F10x_StdPeriph_Driver/src/stm32f10x_rcc.c ****          pllmull += 2;
 968:./Libraries/STM32F10x_StdPeriph_Driver/src/stm32f10x_rcc.c ****       }
 969:./Libraries/STM32F10x_StdPeriph_Driver/src/stm32f10x_rcc.c ****       else
 970:./Libraries/STM32F10x_StdPeriph_Driver/src/stm32f10x_rcc.c ****       { /* PLL multiplication factor = PLL input clock * 6.5 */
 971:./Libraries/STM32F10x_StdPeriph_Driver/src/stm32f10x_rcc.c ****         pllmull = 13 / 2; 
 972:./Libraries/STM32F10x_StdPeriph_Driver/src/stm32f10x_rcc.c ****       }
 973:./Libraries/STM32F10x_StdPeriph_Driver/src/stm32f10x_rcc.c ****             
 974:./Libraries/STM32F10x_StdPeriph_Driver/src/stm32f10x_rcc.c ****       if (pllsource == 0x00)
 975:./Libraries/STM32F10x_StdPeriph_Driver/src/stm32f10x_rcc.c ****       {/* HSI oscillator clock divided by 2 selected as PLL clock entry */
 976:./Libraries/STM32F10x_StdPeriph_Driver/src/stm32f10x_rcc.c ****         RCC_Clocks->SYSCLK_Frequency = (HSI_VALUE >> 1) * pllmull;
ARM GAS  C:\Users\hao\AppData\Local\Temp\cc7h2zwF.s 			page 42


 977:./Libraries/STM32F10x_StdPeriph_Driver/src/stm32f10x_rcc.c ****       }
 978:./Libraries/STM32F10x_StdPeriph_Driver/src/stm32f10x_rcc.c ****       else
 979:./Libraries/STM32F10x_StdPeriph_Driver/src/stm32f10x_rcc.c ****       {/* PREDIV1 selected as PLL clock entry */
 980:./Libraries/STM32F10x_StdPeriph_Driver/src/stm32f10x_rcc.c ****         
 981:./Libraries/STM32F10x_StdPeriph_Driver/src/stm32f10x_rcc.c ****         /* Get PREDIV1 clock source and division factor */
 982:./Libraries/STM32F10x_StdPeriph_Driver/src/stm32f10x_rcc.c ****         prediv1source = RCC->CFGR2 & CFGR2_PREDIV1SRC;
 983:./Libraries/STM32F10x_StdPeriph_Driver/src/stm32f10x_rcc.c ****         prediv1factor = (RCC->CFGR2 & CFGR2_PREDIV1) + 1;
 984:./Libraries/STM32F10x_StdPeriph_Driver/src/stm32f10x_rcc.c ****         
 985:./Libraries/STM32F10x_StdPeriph_Driver/src/stm32f10x_rcc.c ****         if (prediv1source == 0)
 986:./Libraries/STM32F10x_StdPeriph_Driver/src/stm32f10x_rcc.c ****         { /* HSE oscillator clock selected as PREDIV1 clock entry */
 987:./Libraries/STM32F10x_StdPeriph_Driver/src/stm32f10x_rcc.c ****           RCC_Clocks->SYSCLK_Frequency = (HSE_VALUE / prediv1factor) * pllmull;          
 988:./Libraries/STM32F10x_StdPeriph_Driver/src/stm32f10x_rcc.c ****         }
 989:./Libraries/STM32F10x_StdPeriph_Driver/src/stm32f10x_rcc.c ****         else
 990:./Libraries/STM32F10x_StdPeriph_Driver/src/stm32f10x_rcc.c ****         {/* PLL2 clock selected as PREDIV1 clock entry */
 991:./Libraries/STM32F10x_StdPeriph_Driver/src/stm32f10x_rcc.c ****           
 992:./Libraries/STM32F10x_StdPeriph_Driver/src/stm32f10x_rcc.c ****           /* Get PREDIV2 division factor and PLL2 multiplication factor */
 993:./Libraries/STM32F10x_StdPeriph_Driver/src/stm32f10x_rcc.c ****           prediv2factor = ((RCC->CFGR2 & CFGR2_PREDIV2) >> 4) + 1;
 994:./Libraries/STM32F10x_StdPeriph_Driver/src/stm32f10x_rcc.c ****           pll2mull = ((RCC->CFGR2 & CFGR2_PLL2MUL) >> 8 ) + 2; 
 995:./Libraries/STM32F10x_StdPeriph_Driver/src/stm32f10x_rcc.c ****           RCC_Clocks->SYSCLK_Frequency = (((HSE_VALUE / prediv2factor) * pll2mull) / prediv1factor)
 996:./Libraries/STM32F10x_StdPeriph_Driver/src/stm32f10x_rcc.c ****         }
 997:./Libraries/STM32F10x_StdPeriph_Driver/src/stm32f10x_rcc.c ****       }
 998:./Libraries/STM32F10x_StdPeriph_Driver/src/stm32f10x_rcc.c **** #endif /* STM32F10X_CL */ 
 999:./Libraries/STM32F10x_StdPeriph_Driver/src/stm32f10x_rcc.c ****       break;
 1389              		.loc 1 999 7
 1390 007a 17E0     		b	.L78
 1391              	.L79:
 952:./Libraries/STM32F10x_StdPeriph_Driver/src/stm32f10x_rcc.c ****         {/* HSE oscillator clock divided by 2 */
 1392              		.loc 1 952 17
 1393 007c 364B     		ldr	r3, .L82
 1394 007e 5B68     		ldr	r3, [r3, #4]
 952:./Libraries/STM32F10x_StdPeriph_Driver/src/stm32f10x_rcc.c ****         {/* HSE oscillator clock divided by 2 */
 1395              		.loc 1 952 24
 1396 0080 03F40033 		and	r3, r3, #131072
 952:./Libraries/STM32F10x_StdPeriph_Driver/src/stm32f10x_rcc.c ****         {/* HSE oscillator clock divided by 2 */
 1397              		.loc 1 952 12
 1398 0084 002B     		cmp	r3, #0
 1399 0086 06D0     		beq	.L81
 954:./Libraries/STM32F10x_StdPeriph_Driver/src/stm32f10x_rcc.c ****         }
 1400              		.loc 1 954 59
 1401 0088 3B69     		ldr	r3, [r7, #16]
 1402 008a 354A     		ldr	r2, .L82+8
 1403 008c 03FB02F2 		mul	r2, r3, r2
 954:./Libraries/STM32F10x_StdPeriph_Driver/src/stm32f10x_rcc.c ****         }
 1404              		.loc 1 954 40
 1405 0090 7B68     		ldr	r3, [r7, #4]
 1406 0092 1A60     		str	r2, [r3]
 1407              		.loc 1 999 7
 1408 0094 0AE0     		b	.L78
 1409              	.L81:
 958:./Libraries/STM32F10x_StdPeriph_Driver/src/stm32f10x_rcc.c ****         }
 1410              		.loc 1 958 52
 1411 0096 3B69     		ldr	r3, [r7, #16]
 1412 0098 304A     		ldr	r2, .L82+4
 1413 009a 03FB02F2 		mul	r2, r3, r2
 958:./Libraries/STM32F10x_StdPeriph_Driver/src/stm32f10x_rcc.c ****         }
 1414              		.loc 1 958 40
 1415 009e 7B68     		ldr	r3, [r7, #4]
ARM GAS  C:\Users\hao\AppData\Local\Temp\cc7h2zwF.s 			page 43


 1416 00a0 1A60     		str	r2, [r3]
 1417              		.loc 1 999 7
 1418 00a2 03E0     		b	.L78
 1419              	.L75:
1000:./Libraries/STM32F10x_StdPeriph_Driver/src/stm32f10x_rcc.c **** 
1001:./Libraries/STM32F10x_StdPeriph_Driver/src/stm32f10x_rcc.c ****     default:
1002:./Libraries/STM32F10x_StdPeriph_Driver/src/stm32f10x_rcc.c ****       RCC_Clocks->SYSCLK_Frequency = HSI_VALUE;
 1420              		.loc 1 1002 36
 1421 00a4 7B68     		ldr	r3, [r7, #4]
 1422 00a6 2D4A     		ldr	r2, .L82+4
 1423 00a8 1A60     		str	r2, [r3]
1003:./Libraries/STM32F10x_StdPeriph_Driver/src/stm32f10x_rcc.c ****       break;
 1424              		.loc 1 1003 7
 1425 00aa 00BF     		nop
 1426              	.L78:
1004:./Libraries/STM32F10x_StdPeriph_Driver/src/stm32f10x_rcc.c ****   }
1005:./Libraries/STM32F10x_StdPeriph_Driver/src/stm32f10x_rcc.c **** 
1006:./Libraries/STM32F10x_StdPeriph_Driver/src/stm32f10x_rcc.c ****   /* Compute HCLK, PCLK1, PCLK2 and ADCCLK clocks frequencies ----------------*/
1007:./Libraries/STM32F10x_StdPeriph_Driver/src/stm32f10x_rcc.c ****   /* Get HCLK prescaler */
1008:./Libraries/STM32F10x_StdPeriph_Driver/src/stm32f10x_rcc.c ****   tmp = RCC->CFGR & CFGR_HPRE_Set_Mask;
 1427              		.loc 1 1008 12
 1428 00ac 2A4B     		ldr	r3, .L82
 1429 00ae 5B68     		ldr	r3, [r3, #4]
 1430              		.loc 1 1008 7
 1431 00b0 03F0F003 		and	r3, r3, #240
 1432 00b4 7B61     		str	r3, [r7, #20]
1009:./Libraries/STM32F10x_StdPeriph_Driver/src/stm32f10x_rcc.c ****   tmp = tmp >> 4;
 1433              		.loc 1 1009 7
 1434 00b6 7B69     		ldr	r3, [r7, #20]
 1435 00b8 1B09     		lsrs	r3, r3, #4
 1436 00ba 7B61     		str	r3, [r7, #20]
1010:./Libraries/STM32F10x_StdPeriph_Driver/src/stm32f10x_rcc.c ****   presc = APBAHBPrescTable[tmp];
 1437              		.loc 1 1010 27
 1438 00bc 294A     		ldr	r2, .L82+12
 1439 00be 7B69     		ldr	r3, [r7, #20]
 1440 00c0 1344     		add	r3, r3, r2
 1441 00c2 1B78     		ldrb	r3, [r3]
 1442 00c4 DBB2     		uxtb	r3, r3
 1443              		.loc 1 1010 9
 1444 00c6 BB60     		str	r3, [r7, #8]
1011:./Libraries/STM32F10x_StdPeriph_Driver/src/stm32f10x_rcc.c ****   /* HCLK clock frequency */
1012:./Libraries/STM32F10x_StdPeriph_Driver/src/stm32f10x_rcc.c ****   RCC_Clocks->HCLK_Frequency = RCC_Clocks->SYSCLK_Frequency >> presc;
 1445              		.loc 1 1012 42
 1446 00c8 7B68     		ldr	r3, [r7, #4]
 1447 00ca 1A68     		ldr	r2, [r3]
 1448              		.loc 1 1012 61
 1449 00cc BB68     		ldr	r3, [r7, #8]
 1450 00ce DA40     		lsrs	r2, r2, r3
 1451              		.loc 1 1012 30
 1452 00d0 7B68     		ldr	r3, [r7, #4]
 1453 00d2 5A60     		str	r2, [r3, #4]
1013:./Libraries/STM32F10x_StdPeriph_Driver/src/stm32f10x_rcc.c ****   /* Get PCLK1 prescaler */
1014:./Libraries/STM32F10x_StdPeriph_Driver/src/stm32f10x_rcc.c ****   tmp = RCC->CFGR & CFGR_PPRE1_Set_Mask;
 1454              		.loc 1 1014 12
 1455 00d4 204B     		ldr	r3, .L82
 1456 00d6 5B68     		ldr	r3, [r3, #4]
 1457              		.loc 1 1014 7
ARM GAS  C:\Users\hao\AppData\Local\Temp\cc7h2zwF.s 			page 44


 1458 00d8 03F4E063 		and	r3, r3, #1792
 1459 00dc 7B61     		str	r3, [r7, #20]
1015:./Libraries/STM32F10x_StdPeriph_Driver/src/stm32f10x_rcc.c ****   tmp = tmp >> 8;
 1460              		.loc 1 1015 7
 1461 00de 7B69     		ldr	r3, [r7, #20]
 1462 00e0 1B0A     		lsrs	r3, r3, #8
 1463 00e2 7B61     		str	r3, [r7, #20]
1016:./Libraries/STM32F10x_StdPeriph_Driver/src/stm32f10x_rcc.c ****   presc = APBAHBPrescTable[tmp];
 1464              		.loc 1 1016 27
 1465 00e4 1F4A     		ldr	r2, .L82+12
 1466 00e6 7B69     		ldr	r3, [r7, #20]
 1467 00e8 1344     		add	r3, r3, r2
 1468 00ea 1B78     		ldrb	r3, [r3]
 1469 00ec DBB2     		uxtb	r3, r3
 1470              		.loc 1 1016 9
 1471 00ee BB60     		str	r3, [r7, #8]
1017:./Libraries/STM32F10x_StdPeriph_Driver/src/stm32f10x_rcc.c ****   /* PCLK1 clock frequency */
1018:./Libraries/STM32F10x_StdPeriph_Driver/src/stm32f10x_rcc.c ****   RCC_Clocks->PCLK1_Frequency = RCC_Clocks->HCLK_Frequency >> presc;
 1472              		.loc 1 1018 43
 1473 00f0 7B68     		ldr	r3, [r7, #4]
 1474 00f2 5A68     		ldr	r2, [r3, #4]
 1475              		.loc 1 1018 60
 1476 00f4 BB68     		ldr	r3, [r7, #8]
 1477 00f6 DA40     		lsrs	r2, r2, r3
 1478              		.loc 1 1018 31
 1479 00f8 7B68     		ldr	r3, [r7, #4]
 1480 00fa 9A60     		str	r2, [r3, #8]
1019:./Libraries/STM32F10x_StdPeriph_Driver/src/stm32f10x_rcc.c ****   /* Get PCLK2 prescaler */
1020:./Libraries/STM32F10x_StdPeriph_Driver/src/stm32f10x_rcc.c ****   tmp = RCC->CFGR & CFGR_PPRE2_Set_Mask;
 1481              		.loc 1 1020 12
 1482 00fc 164B     		ldr	r3, .L82
 1483 00fe 5B68     		ldr	r3, [r3, #4]
 1484              		.loc 1 1020 7
 1485 0100 03F46053 		and	r3, r3, #14336
 1486 0104 7B61     		str	r3, [r7, #20]
1021:./Libraries/STM32F10x_StdPeriph_Driver/src/stm32f10x_rcc.c ****   tmp = tmp >> 11;
 1487              		.loc 1 1021 7
 1488 0106 7B69     		ldr	r3, [r7, #20]
 1489 0108 DB0A     		lsrs	r3, r3, #11
 1490 010a 7B61     		str	r3, [r7, #20]
1022:./Libraries/STM32F10x_StdPeriph_Driver/src/stm32f10x_rcc.c ****   presc = APBAHBPrescTable[tmp];
 1491              		.loc 1 1022 27
 1492 010c 154A     		ldr	r2, .L82+12
 1493 010e 7B69     		ldr	r3, [r7, #20]
 1494 0110 1344     		add	r3, r3, r2
 1495 0112 1B78     		ldrb	r3, [r3]
 1496 0114 DBB2     		uxtb	r3, r3
 1497              		.loc 1 1022 9
 1498 0116 BB60     		str	r3, [r7, #8]
1023:./Libraries/STM32F10x_StdPeriph_Driver/src/stm32f10x_rcc.c ****   /* PCLK2 clock frequency */
1024:./Libraries/STM32F10x_StdPeriph_Driver/src/stm32f10x_rcc.c ****   RCC_Clocks->PCLK2_Frequency = RCC_Clocks->HCLK_Frequency >> presc;
 1499              		.loc 1 1024 43
 1500 0118 7B68     		ldr	r3, [r7, #4]
 1501 011a 5A68     		ldr	r2, [r3, #4]
 1502              		.loc 1 1024 60
 1503 011c BB68     		ldr	r3, [r7, #8]
 1504 011e DA40     		lsrs	r2, r2, r3
ARM GAS  C:\Users\hao\AppData\Local\Temp\cc7h2zwF.s 			page 45


 1505              		.loc 1 1024 31
 1506 0120 7B68     		ldr	r3, [r7, #4]
 1507 0122 DA60     		str	r2, [r3, #12]
1025:./Libraries/STM32F10x_StdPeriph_Driver/src/stm32f10x_rcc.c ****   /* Get ADCCLK prescaler */
1026:./Libraries/STM32F10x_StdPeriph_Driver/src/stm32f10x_rcc.c ****   tmp = RCC->CFGR & CFGR_ADCPRE_Set_Mask;
 1508              		.loc 1 1026 12
 1509 0124 0C4B     		ldr	r3, .L82
 1510 0126 5B68     		ldr	r3, [r3, #4]
 1511              		.loc 1 1026 7
 1512 0128 03F44043 		and	r3, r3, #49152
 1513 012c 7B61     		str	r3, [r7, #20]
1027:./Libraries/STM32F10x_StdPeriph_Driver/src/stm32f10x_rcc.c ****   tmp = tmp >> 14;
 1514              		.loc 1 1027 7
 1515 012e 7B69     		ldr	r3, [r7, #20]
 1516 0130 9B0B     		lsrs	r3, r3, #14
 1517 0132 7B61     		str	r3, [r7, #20]
1028:./Libraries/STM32F10x_StdPeriph_Driver/src/stm32f10x_rcc.c ****   presc = ADCPrescTable[tmp];
 1518              		.loc 1 1028 24
 1519 0134 0C4A     		ldr	r2, .L82+16
 1520 0136 7B69     		ldr	r3, [r7, #20]
 1521 0138 1344     		add	r3, r3, r2
 1522 013a 1B78     		ldrb	r3, [r3]
 1523 013c DBB2     		uxtb	r3, r3
 1524              		.loc 1 1028 9
 1525 013e BB60     		str	r3, [r7, #8]
1029:./Libraries/STM32F10x_StdPeriph_Driver/src/stm32f10x_rcc.c ****   /* ADCCLK clock frequency */
1030:./Libraries/STM32F10x_StdPeriph_Driver/src/stm32f10x_rcc.c ****   RCC_Clocks->ADCCLK_Frequency = RCC_Clocks->PCLK2_Frequency / presc;
 1526              		.loc 1 1030 44
 1527 0140 7B68     		ldr	r3, [r7, #4]
 1528 0142 DA68     		ldr	r2, [r3, #12]
 1529              		.loc 1 1030 62
 1530 0144 BB68     		ldr	r3, [r7, #8]
 1531 0146 B2FBF3F2 		udiv	r2, r2, r3
 1532              		.loc 1 1030 32
 1533 014a 7B68     		ldr	r3, [r7, #4]
 1534 014c 1A61     		str	r2, [r3, #16]
1031:./Libraries/STM32F10x_StdPeriph_Driver/src/stm32f10x_rcc.c **** }
 1535              		.loc 1 1031 1
 1536 014e 00BF     		nop
 1537 0150 1C37     		adds	r7, r7, #28
 1538              	.LCFI112:
 1539              		.cfi_def_cfa_offset 4
 1540 0152 BD46     		mov	sp, r7
 1541              	.LCFI113:
 1542              		.cfi_def_cfa_register 13
 1543              		@ sp needed
 1544 0154 80BC     		pop	{r7}
 1545              	.LCFI114:
 1546              		.cfi_restore 7
 1547              		.cfi_def_cfa_offset 0
 1548 0156 7047     		bx	lr
 1549              	.L83:
 1550              		.align	2
 1551              	.L82:
 1552 0158 00100240 		.word	1073876992
 1553 015c 00127A00 		.word	8000000
 1554 0160 00093D00 		.word	4000000
ARM GAS  C:\Users\hao\AppData\Local\Temp\cc7h2zwF.s 			page 46


 1555 0164 00000000 		.word	APBAHBPrescTable
 1556 0168 00000000 		.word	ADCPrescTable
 1557              		.cfi_endproc
 1558              	.LFE48:
 1560              		.section	.text.RCC_AHBPeriphClockCmd,"ax",%progbits
 1561              		.align	1
 1562              		.global	RCC_AHBPeriphClockCmd
 1563              		.syntax unified
 1564              		.thumb
 1565              		.thumb_func
 1567              	RCC_AHBPeriphClockCmd:
 1568              	.LFB49:
1032:./Libraries/STM32F10x_StdPeriph_Driver/src/stm32f10x_rcc.c **** 
1033:./Libraries/STM32F10x_StdPeriph_Driver/src/stm32f10x_rcc.c **** /**
1034:./Libraries/STM32F10x_StdPeriph_Driver/src/stm32f10x_rcc.c ****   * @brief  Enables or disables the AHB peripheral clock.
1035:./Libraries/STM32F10x_StdPeriph_Driver/src/stm32f10x_rcc.c ****   * @param  RCC_AHBPeriph: specifies the AHB peripheral to gates its clock.
1036:./Libraries/STM32F10x_StdPeriph_Driver/src/stm32f10x_rcc.c ****   *   
1037:./Libraries/STM32F10x_StdPeriph_Driver/src/stm32f10x_rcc.c ****   *   For @b STM32_Connectivity_line_devices, this parameter can be any combination
1038:./Libraries/STM32F10x_StdPeriph_Driver/src/stm32f10x_rcc.c ****   *   of the following values:        
1039:./Libraries/STM32F10x_StdPeriph_Driver/src/stm32f10x_rcc.c ****   *     @arg RCC_AHBPeriph_DMA1
1040:./Libraries/STM32F10x_StdPeriph_Driver/src/stm32f10x_rcc.c ****   *     @arg RCC_AHBPeriph_DMA2
1041:./Libraries/STM32F10x_StdPeriph_Driver/src/stm32f10x_rcc.c ****   *     @arg RCC_AHBPeriph_SRAM
1042:./Libraries/STM32F10x_StdPeriph_Driver/src/stm32f10x_rcc.c ****   *     @arg RCC_AHBPeriph_FLITF
1043:./Libraries/STM32F10x_StdPeriph_Driver/src/stm32f10x_rcc.c ****   *     @arg RCC_AHBPeriph_CRC
1044:./Libraries/STM32F10x_StdPeriph_Driver/src/stm32f10x_rcc.c ****   *     @arg RCC_AHBPeriph_OTG_FS    
1045:./Libraries/STM32F10x_StdPeriph_Driver/src/stm32f10x_rcc.c ****   *     @arg RCC_AHBPeriph_ETH_MAC   
1046:./Libraries/STM32F10x_StdPeriph_Driver/src/stm32f10x_rcc.c ****   *     @arg RCC_AHBPeriph_ETH_MAC_Tx
1047:./Libraries/STM32F10x_StdPeriph_Driver/src/stm32f10x_rcc.c ****   *     @arg RCC_AHBPeriph_ETH_MAC_Rx
1048:./Libraries/STM32F10x_StdPeriph_Driver/src/stm32f10x_rcc.c ****   * 
1049:./Libraries/STM32F10x_StdPeriph_Driver/src/stm32f10x_rcc.c ****   *   For @b other_STM32_devices, this parameter can be any combination of the 
1050:./Libraries/STM32F10x_StdPeriph_Driver/src/stm32f10x_rcc.c ****   *   following values:        
1051:./Libraries/STM32F10x_StdPeriph_Driver/src/stm32f10x_rcc.c ****   *     @arg RCC_AHBPeriph_DMA1
1052:./Libraries/STM32F10x_StdPeriph_Driver/src/stm32f10x_rcc.c ****   *     @arg RCC_AHBPeriph_DMA2
1053:./Libraries/STM32F10x_StdPeriph_Driver/src/stm32f10x_rcc.c ****   *     @arg RCC_AHBPeriph_SRAM
1054:./Libraries/STM32F10x_StdPeriph_Driver/src/stm32f10x_rcc.c ****   *     @arg RCC_AHBPeriph_FLITF
1055:./Libraries/STM32F10x_StdPeriph_Driver/src/stm32f10x_rcc.c ****   *     @arg RCC_AHBPeriph_CRC
1056:./Libraries/STM32F10x_StdPeriph_Driver/src/stm32f10x_rcc.c ****   *     @arg RCC_AHBPeriph_FSMC
1057:./Libraries/STM32F10x_StdPeriph_Driver/src/stm32f10x_rcc.c ****   *     @arg RCC_AHBPeriph_SDIO
1058:./Libraries/STM32F10x_StdPeriph_Driver/src/stm32f10x_rcc.c ****   *   
1059:./Libraries/STM32F10x_StdPeriph_Driver/src/stm32f10x_rcc.c ****   * @note SRAM and FLITF clock can be disabled only during sleep mode.
1060:./Libraries/STM32F10x_StdPeriph_Driver/src/stm32f10x_rcc.c ****   * @param  NewState: new state of the specified peripheral clock.
1061:./Libraries/STM32F10x_StdPeriph_Driver/src/stm32f10x_rcc.c ****   *   This parameter can be: ENABLE or DISABLE.
1062:./Libraries/STM32F10x_StdPeriph_Driver/src/stm32f10x_rcc.c ****   * @retval None
1063:./Libraries/STM32F10x_StdPeriph_Driver/src/stm32f10x_rcc.c ****   */
1064:./Libraries/STM32F10x_StdPeriph_Driver/src/stm32f10x_rcc.c **** void RCC_AHBPeriphClockCmd(uint32_t RCC_AHBPeriph, FunctionalState NewState)
1065:./Libraries/STM32F10x_StdPeriph_Driver/src/stm32f10x_rcc.c **** {
 1569              		.loc 1 1065 1
 1570              		.cfi_startproc
 1571              		@ args = 0, pretend = 0, frame = 8
 1572              		@ frame_needed = 1, uses_anonymous_args = 0
 1573              		@ link register save eliminated.
 1574 0000 80B4     		push	{r7}
 1575              	.LCFI115:
 1576              		.cfi_def_cfa_offset 4
 1577              		.cfi_offset 7, -4
 1578 0002 83B0     		sub	sp, sp, #12
 1579              	.LCFI116:
ARM GAS  C:\Users\hao\AppData\Local\Temp\cc7h2zwF.s 			page 47


 1580              		.cfi_def_cfa_offset 16
 1581 0004 00AF     		add	r7, sp, #0
 1582              	.LCFI117:
 1583              		.cfi_def_cfa_register 7
 1584 0006 7860     		str	r0, [r7, #4]
 1585 0008 0B46     		mov	r3, r1
 1586 000a FB70     		strb	r3, [r7, #3]
1066:./Libraries/STM32F10x_StdPeriph_Driver/src/stm32f10x_rcc.c ****   /* Check the parameters */
1067:./Libraries/STM32F10x_StdPeriph_Driver/src/stm32f10x_rcc.c ****   assert_param(IS_RCC_AHB_PERIPH(RCC_AHBPeriph));
1068:./Libraries/STM32F10x_StdPeriph_Driver/src/stm32f10x_rcc.c ****   assert_param(IS_FUNCTIONAL_STATE(NewState));
1069:./Libraries/STM32F10x_StdPeriph_Driver/src/stm32f10x_rcc.c **** 
1070:./Libraries/STM32F10x_StdPeriph_Driver/src/stm32f10x_rcc.c ****   if (NewState != DISABLE)
 1587              		.loc 1 1070 6
 1588 000c FB78     		ldrb	r3, [r7, #3]	@ zero_extendqisi2
 1589 000e 002B     		cmp	r3, #0
 1590 0010 06D0     		beq	.L85
1071:./Libraries/STM32F10x_StdPeriph_Driver/src/stm32f10x_rcc.c ****   {
1072:./Libraries/STM32F10x_StdPeriph_Driver/src/stm32f10x_rcc.c ****     RCC->AHBENR |= RCC_AHBPeriph;
 1591              		.loc 1 1072 17
 1592 0012 094B     		ldr	r3, .L88
 1593 0014 5A69     		ldr	r2, [r3, #20]
 1594 0016 0849     		ldr	r1, .L88
 1595 0018 7B68     		ldr	r3, [r7, #4]
 1596 001a 1343     		orrs	r3, r3, r2
 1597 001c 4B61     		str	r3, [r1, #20]
1073:./Libraries/STM32F10x_StdPeriph_Driver/src/stm32f10x_rcc.c ****   }
1074:./Libraries/STM32F10x_StdPeriph_Driver/src/stm32f10x_rcc.c ****   else
1075:./Libraries/STM32F10x_StdPeriph_Driver/src/stm32f10x_rcc.c ****   {
1076:./Libraries/STM32F10x_StdPeriph_Driver/src/stm32f10x_rcc.c ****     RCC->AHBENR &= ~RCC_AHBPeriph;
1077:./Libraries/STM32F10x_StdPeriph_Driver/src/stm32f10x_rcc.c ****   }
1078:./Libraries/STM32F10x_StdPeriph_Driver/src/stm32f10x_rcc.c **** }
 1598              		.loc 1 1078 1
 1599 001e 06E0     		b	.L87
 1600              	.L85:
1076:./Libraries/STM32F10x_StdPeriph_Driver/src/stm32f10x_rcc.c ****   }
 1601              		.loc 1 1076 17
 1602 0020 054B     		ldr	r3, .L88
 1603 0022 5A69     		ldr	r2, [r3, #20]
1076:./Libraries/STM32F10x_StdPeriph_Driver/src/stm32f10x_rcc.c ****   }
 1604              		.loc 1 1076 20
 1605 0024 7B68     		ldr	r3, [r7, #4]
 1606 0026 DB43     		mvns	r3, r3
1076:./Libraries/STM32F10x_StdPeriph_Driver/src/stm32f10x_rcc.c ****   }
 1607              		.loc 1 1076 17
 1608 0028 0349     		ldr	r1, .L88
 1609 002a 1340     		ands	r3, r3, r2
 1610 002c 4B61     		str	r3, [r1, #20]
 1611              	.L87:
 1612              		.loc 1 1078 1
 1613 002e 00BF     		nop
 1614 0030 0C37     		adds	r7, r7, #12
 1615              	.LCFI118:
 1616              		.cfi_def_cfa_offset 4
 1617 0032 BD46     		mov	sp, r7
 1618              	.LCFI119:
 1619              		.cfi_def_cfa_register 13
 1620              		@ sp needed
ARM GAS  C:\Users\hao\AppData\Local\Temp\cc7h2zwF.s 			page 48


 1621 0034 80BC     		pop	{r7}
 1622              	.LCFI120:
 1623              		.cfi_restore 7
 1624              		.cfi_def_cfa_offset 0
 1625 0036 7047     		bx	lr
 1626              	.L89:
 1627              		.align	2
 1628              	.L88:
 1629 0038 00100240 		.word	1073876992
 1630              		.cfi_endproc
 1631              	.LFE49:
 1633              		.section	.text.RCC_APB2PeriphClockCmd,"ax",%progbits
 1634              		.align	1
 1635              		.global	RCC_APB2PeriphClockCmd
 1636              		.syntax unified
 1637              		.thumb
 1638              		.thumb_func
 1640              	RCC_APB2PeriphClockCmd:
 1641              	.LFB50:
1079:./Libraries/STM32F10x_StdPeriph_Driver/src/stm32f10x_rcc.c **** 
1080:./Libraries/STM32F10x_StdPeriph_Driver/src/stm32f10x_rcc.c **** /**
1081:./Libraries/STM32F10x_StdPeriph_Driver/src/stm32f10x_rcc.c ****   * @brief  Enables or disables the High Speed APB (APB2) peripheral clock.
1082:./Libraries/STM32F10x_StdPeriph_Driver/src/stm32f10x_rcc.c ****   * @param  RCC_APB2Periph: specifies the APB2 peripheral to gates its clock.
1083:./Libraries/STM32F10x_StdPeriph_Driver/src/stm32f10x_rcc.c ****   *   This parameter can be any combination of the following values:
1084:./Libraries/STM32F10x_StdPeriph_Driver/src/stm32f10x_rcc.c ****   *     @arg RCC_APB2Periph_AFIO, RCC_APB2Periph_GPIOA, RCC_APB2Periph_GPIOB,
1085:./Libraries/STM32F10x_StdPeriph_Driver/src/stm32f10x_rcc.c ****   *          RCC_APB2Periph_GPIOC, RCC_APB2Periph_GPIOD, RCC_APB2Periph_GPIOE,
1086:./Libraries/STM32F10x_StdPeriph_Driver/src/stm32f10x_rcc.c ****   *          RCC_APB2Periph_GPIOF, RCC_APB2Periph_GPIOG, RCC_APB2Periph_ADC1,
1087:./Libraries/STM32F10x_StdPeriph_Driver/src/stm32f10x_rcc.c ****   *          RCC_APB2Periph_ADC2, RCC_APB2Periph_TIM1, RCC_APB2Periph_SPI1,
1088:./Libraries/STM32F10x_StdPeriph_Driver/src/stm32f10x_rcc.c ****   *          RCC_APB2Periph_TIM8, RCC_APB2Periph_USART1, RCC_APB2Periph_ADC3,
1089:./Libraries/STM32F10x_StdPeriph_Driver/src/stm32f10x_rcc.c ****   *          RCC_APB2Periph_TIM15, RCC_APB2Periph_TIM16, RCC_APB2Periph_TIM17,
1090:./Libraries/STM32F10x_StdPeriph_Driver/src/stm32f10x_rcc.c ****   *          RCC_APB2Periph_TIM9, RCC_APB2Periph_TIM10, RCC_APB2Periph_TIM11     
1091:./Libraries/STM32F10x_StdPeriph_Driver/src/stm32f10x_rcc.c ****   * @param  NewState: new state of the specified peripheral clock.
1092:./Libraries/STM32F10x_StdPeriph_Driver/src/stm32f10x_rcc.c ****   *   This parameter can be: ENABLE or DISABLE.
1093:./Libraries/STM32F10x_StdPeriph_Driver/src/stm32f10x_rcc.c ****   * @retval None
1094:./Libraries/STM32F10x_StdPeriph_Driver/src/stm32f10x_rcc.c ****   */
1095:./Libraries/STM32F10x_StdPeriph_Driver/src/stm32f10x_rcc.c **** void RCC_APB2PeriphClockCmd(uint32_t RCC_APB2Periph, FunctionalState NewState)
1096:./Libraries/STM32F10x_StdPeriph_Driver/src/stm32f10x_rcc.c **** {
 1642              		.loc 1 1096 1
 1643              		.cfi_startproc
 1644              		@ args = 0, pretend = 0, frame = 8
 1645              		@ frame_needed = 1, uses_anonymous_args = 0
 1646              		@ link register save eliminated.
 1647 0000 80B4     		push	{r7}
 1648              	.LCFI121:
 1649              		.cfi_def_cfa_offset 4
 1650              		.cfi_offset 7, -4
 1651 0002 83B0     		sub	sp, sp, #12
 1652              	.LCFI122:
 1653              		.cfi_def_cfa_offset 16
 1654 0004 00AF     		add	r7, sp, #0
 1655              	.LCFI123:
 1656              		.cfi_def_cfa_register 7
 1657 0006 7860     		str	r0, [r7, #4]
 1658 0008 0B46     		mov	r3, r1
 1659 000a FB70     		strb	r3, [r7, #3]
1097:./Libraries/STM32F10x_StdPeriph_Driver/src/stm32f10x_rcc.c ****   /* Check the parameters */
1098:./Libraries/STM32F10x_StdPeriph_Driver/src/stm32f10x_rcc.c ****   assert_param(IS_RCC_APB2_PERIPH(RCC_APB2Periph));
ARM GAS  C:\Users\hao\AppData\Local\Temp\cc7h2zwF.s 			page 49


1099:./Libraries/STM32F10x_StdPeriph_Driver/src/stm32f10x_rcc.c ****   assert_param(IS_FUNCTIONAL_STATE(NewState));
1100:./Libraries/STM32F10x_StdPeriph_Driver/src/stm32f10x_rcc.c ****   if (NewState != DISABLE)
 1660              		.loc 1 1100 6
 1661 000c FB78     		ldrb	r3, [r7, #3]	@ zero_extendqisi2
 1662 000e 002B     		cmp	r3, #0
 1663 0010 06D0     		beq	.L91
1101:./Libraries/STM32F10x_StdPeriph_Driver/src/stm32f10x_rcc.c ****   {
1102:./Libraries/STM32F10x_StdPeriph_Driver/src/stm32f10x_rcc.c ****     RCC->APB2ENR |= RCC_APB2Periph;
 1664              		.loc 1 1102 18
 1665 0012 094B     		ldr	r3, .L94
 1666 0014 9A69     		ldr	r2, [r3, #24]
 1667 0016 0849     		ldr	r1, .L94
 1668 0018 7B68     		ldr	r3, [r7, #4]
 1669 001a 1343     		orrs	r3, r3, r2
 1670 001c 8B61     		str	r3, [r1, #24]
1103:./Libraries/STM32F10x_StdPeriph_Driver/src/stm32f10x_rcc.c ****   }
1104:./Libraries/STM32F10x_StdPeriph_Driver/src/stm32f10x_rcc.c ****   else
1105:./Libraries/STM32F10x_StdPeriph_Driver/src/stm32f10x_rcc.c ****   {
1106:./Libraries/STM32F10x_StdPeriph_Driver/src/stm32f10x_rcc.c ****     RCC->APB2ENR &= ~RCC_APB2Periph;
1107:./Libraries/STM32F10x_StdPeriph_Driver/src/stm32f10x_rcc.c ****   }
1108:./Libraries/STM32F10x_StdPeriph_Driver/src/stm32f10x_rcc.c **** }
 1671              		.loc 1 1108 1
 1672 001e 06E0     		b	.L93
 1673              	.L91:
1106:./Libraries/STM32F10x_StdPeriph_Driver/src/stm32f10x_rcc.c ****   }
 1674              		.loc 1 1106 18
 1675 0020 054B     		ldr	r3, .L94
 1676 0022 9A69     		ldr	r2, [r3, #24]
1106:./Libraries/STM32F10x_StdPeriph_Driver/src/stm32f10x_rcc.c ****   }
 1677              		.loc 1 1106 21
 1678 0024 7B68     		ldr	r3, [r7, #4]
 1679 0026 DB43     		mvns	r3, r3
1106:./Libraries/STM32F10x_StdPeriph_Driver/src/stm32f10x_rcc.c ****   }
 1680              		.loc 1 1106 18
 1681 0028 0349     		ldr	r1, .L94
 1682 002a 1340     		ands	r3, r3, r2
 1683 002c 8B61     		str	r3, [r1, #24]
 1684              	.L93:
 1685              		.loc 1 1108 1
 1686 002e 00BF     		nop
 1687 0030 0C37     		adds	r7, r7, #12
 1688              	.LCFI124:
 1689              		.cfi_def_cfa_offset 4
 1690 0032 BD46     		mov	sp, r7
 1691              	.LCFI125:
 1692              		.cfi_def_cfa_register 13
 1693              		@ sp needed
 1694 0034 80BC     		pop	{r7}
 1695              	.LCFI126:
 1696              		.cfi_restore 7
 1697              		.cfi_def_cfa_offset 0
 1698 0036 7047     		bx	lr
 1699              	.L95:
 1700              		.align	2
 1701              	.L94:
 1702 0038 00100240 		.word	1073876992
 1703              		.cfi_endproc
ARM GAS  C:\Users\hao\AppData\Local\Temp\cc7h2zwF.s 			page 50


 1704              	.LFE50:
 1706              		.section	.text.RCC_APB1PeriphClockCmd,"ax",%progbits
 1707              		.align	1
 1708              		.global	RCC_APB1PeriphClockCmd
 1709              		.syntax unified
 1710              		.thumb
 1711              		.thumb_func
 1713              	RCC_APB1PeriphClockCmd:
 1714              	.LFB51:
1109:./Libraries/STM32F10x_StdPeriph_Driver/src/stm32f10x_rcc.c **** 
1110:./Libraries/STM32F10x_StdPeriph_Driver/src/stm32f10x_rcc.c **** /**
1111:./Libraries/STM32F10x_StdPeriph_Driver/src/stm32f10x_rcc.c ****   * @brief  Enables or disables the Low Speed APB (APB1) peripheral clock.
1112:./Libraries/STM32F10x_StdPeriph_Driver/src/stm32f10x_rcc.c ****   * @param  RCC_APB1Periph: specifies the APB1 peripheral to gates its clock.
1113:./Libraries/STM32F10x_StdPeriph_Driver/src/stm32f10x_rcc.c ****   *   This parameter can be any combination of the following values:
1114:./Libraries/STM32F10x_StdPeriph_Driver/src/stm32f10x_rcc.c ****   *     @arg RCC_APB1Periph_TIM2, RCC_APB1Periph_TIM3, RCC_APB1Periph_TIM4,
1115:./Libraries/STM32F10x_StdPeriph_Driver/src/stm32f10x_rcc.c ****   *          RCC_APB1Periph_TIM5, RCC_APB1Periph_TIM6, RCC_APB1Periph_TIM7,
1116:./Libraries/STM32F10x_StdPeriph_Driver/src/stm32f10x_rcc.c ****   *          RCC_APB1Periph_WWDG, RCC_APB1Periph_SPI2, RCC_APB1Periph_SPI3,
1117:./Libraries/STM32F10x_StdPeriph_Driver/src/stm32f10x_rcc.c ****   *          RCC_APB1Periph_USART2, RCC_APB1Periph_USART3, RCC_APB1Periph_USART4, 
1118:./Libraries/STM32F10x_StdPeriph_Driver/src/stm32f10x_rcc.c ****   *          RCC_APB1Periph_USART5, RCC_APB1Periph_I2C1, RCC_APB1Periph_I2C2,
1119:./Libraries/STM32F10x_StdPeriph_Driver/src/stm32f10x_rcc.c ****   *          RCC_APB1Periph_USB, RCC_APB1Periph_CAN1, RCC_APB1Periph_BKP,
1120:./Libraries/STM32F10x_StdPeriph_Driver/src/stm32f10x_rcc.c ****   *          RCC_APB1Periph_PWR, RCC_APB1Periph_DAC, RCC_APB1Periph_CEC,
1121:./Libraries/STM32F10x_StdPeriph_Driver/src/stm32f10x_rcc.c ****   *          RCC_APB1Periph_TIM12, RCC_APB1Periph_TIM13, RCC_APB1Periph_TIM14
1122:./Libraries/STM32F10x_StdPeriph_Driver/src/stm32f10x_rcc.c ****   * @param  NewState: new state of the specified peripheral clock.
1123:./Libraries/STM32F10x_StdPeriph_Driver/src/stm32f10x_rcc.c ****   *   This parameter can be: ENABLE or DISABLE.
1124:./Libraries/STM32F10x_StdPeriph_Driver/src/stm32f10x_rcc.c ****   * @retval None
1125:./Libraries/STM32F10x_StdPeriph_Driver/src/stm32f10x_rcc.c ****   */
1126:./Libraries/STM32F10x_StdPeriph_Driver/src/stm32f10x_rcc.c **** void RCC_APB1PeriphClockCmd(uint32_t RCC_APB1Periph, FunctionalState NewState)
1127:./Libraries/STM32F10x_StdPeriph_Driver/src/stm32f10x_rcc.c **** {
 1715              		.loc 1 1127 1
 1716              		.cfi_startproc
 1717              		@ args = 0, pretend = 0, frame = 8
 1718              		@ frame_needed = 1, uses_anonymous_args = 0
 1719              		@ link register save eliminated.
 1720 0000 80B4     		push	{r7}
 1721              	.LCFI127:
 1722              		.cfi_def_cfa_offset 4
 1723              		.cfi_offset 7, -4
 1724 0002 83B0     		sub	sp, sp, #12
 1725              	.LCFI128:
 1726              		.cfi_def_cfa_offset 16
 1727 0004 00AF     		add	r7, sp, #0
 1728              	.LCFI129:
 1729              		.cfi_def_cfa_register 7
 1730 0006 7860     		str	r0, [r7, #4]
 1731 0008 0B46     		mov	r3, r1
 1732 000a FB70     		strb	r3, [r7, #3]
1128:./Libraries/STM32F10x_StdPeriph_Driver/src/stm32f10x_rcc.c ****   /* Check the parameters */
1129:./Libraries/STM32F10x_StdPeriph_Driver/src/stm32f10x_rcc.c ****   assert_param(IS_RCC_APB1_PERIPH(RCC_APB1Periph));
1130:./Libraries/STM32F10x_StdPeriph_Driver/src/stm32f10x_rcc.c ****   assert_param(IS_FUNCTIONAL_STATE(NewState));
1131:./Libraries/STM32F10x_StdPeriph_Driver/src/stm32f10x_rcc.c ****   if (NewState != DISABLE)
 1733              		.loc 1 1131 6
 1734 000c FB78     		ldrb	r3, [r7, #3]	@ zero_extendqisi2
 1735 000e 002B     		cmp	r3, #0
 1736 0010 06D0     		beq	.L97
1132:./Libraries/STM32F10x_StdPeriph_Driver/src/stm32f10x_rcc.c ****   {
1133:./Libraries/STM32F10x_StdPeriph_Driver/src/stm32f10x_rcc.c ****     RCC->APB1ENR |= RCC_APB1Periph;
 1737              		.loc 1 1133 18
ARM GAS  C:\Users\hao\AppData\Local\Temp\cc7h2zwF.s 			page 51


 1738 0012 094B     		ldr	r3, .L100
 1739 0014 DA69     		ldr	r2, [r3, #28]
 1740 0016 0849     		ldr	r1, .L100
 1741 0018 7B68     		ldr	r3, [r7, #4]
 1742 001a 1343     		orrs	r3, r3, r2
 1743 001c CB61     		str	r3, [r1, #28]
1134:./Libraries/STM32F10x_StdPeriph_Driver/src/stm32f10x_rcc.c ****   }
1135:./Libraries/STM32F10x_StdPeriph_Driver/src/stm32f10x_rcc.c ****   else
1136:./Libraries/STM32F10x_StdPeriph_Driver/src/stm32f10x_rcc.c ****   {
1137:./Libraries/STM32F10x_StdPeriph_Driver/src/stm32f10x_rcc.c ****     RCC->APB1ENR &= ~RCC_APB1Periph;
1138:./Libraries/STM32F10x_StdPeriph_Driver/src/stm32f10x_rcc.c ****   }
1139:./Libraries/STM32F10x_StdPeriph_Driver/src/stm32f10x_rcc.c **** }
 1744              		.loc 1 1139 1
 1745 001e 06E0     		b	.L99
 1746              	.L97:
1137:./Libraries/STM32F10x_StdPeriph_Driver/src/stm32f10x_rcc.c ****   }
 1747              		.loc 1 1137 18
 1748 0020 054B     		ldr	r3, .L100
 1749 0022 DA69     		ldr	r2, [r3, #28]
1137:./Libraries/STM32F10x_StdPeriph_Driver/src/stm32f10x_rcc.c ****   }
 1750              		.loc 1 1137 21
 1751 0024 7B68     		ldr	r3, [r7, #4]
 1752 0026 DB43     		mvns	r3, r3
1137:./Libraries/STM32F10x_StdPeriph_Driver/src/stm32f10x_rcc.c ****   }
 1753              		.loc 1 1137 18
 1754 0028 0349     		ldr	r1, .L100
 1755 002a 1340     		ands	r3, r3, r2
 1756 002c CB61     		str	r3, [r1, #28]
 1757              	.L99:
 1758              		.loc 1 1139 1
 1759 002e 00BF     		nop
 1760 0030 0C37     		adds	r7, r7, #12
 1761              	.LCFI130:
 1762              		.cfi_def_cfa_offset 4
 1763 0032 BD46     		mov	sp, r7
 1764              	.LCFI131:
 1765              		.cfi_def_cfa_register 13
 1766              		@ sp needed
 1767 0034 80BC     		pop	{r7}
 1768              	.LCFI132:
 1769              		.cfi_restore 7
 1770              		.cfi_def_cfa_offset 0
 1771 0036 7047     		bx	lr
 1772              	.L101:
 1773              		.align	2
 1774              	.L100:
 1775 0038 00100240 		.word	1073876992
 1776              		.cfi_endproc
 1777              	.LFE51:
 1779              		.section	.text.RCC_APB2PeriphResetCmd,"ax",%progbits
 1780              		.align	1
 1781              		.global	RCC_APB2PeriphResetCmd
 1782              		.syntax unified
 1783              		.thumb
 1784              		.thumb_func
 1786              	RCC_APB2PeriphResetCmd:
 1787              	.LFB52:
ARM GAS  C:\Users\hao\AppData\Local\Temp\cc7h2zwF.s 			page 52


1140:./Libraries/STM32F10x_StdPeriph_Driver/src/stm32f10x_rcc.c **** 
1141:./Libraries/STM32F10x_StdPeriph_Driver/src/stm32f10x_rcc.c **** #ifdef STM32F10X_CL
1142:./Libraries/STM32F10x_StdPeriph_Driver/src/stm32f10x_rcc.c **** /**
1143:./Libraries/STM32F10x_StdPeriph_Driver/src/stm32f10x_rcc.c ****   * @brief  Forces or releases AHB peripheral reset.
1144:./Libraries/STM32F10x_StdPeriph_Driver/src/stm32f10x_rcc.c ****   * @note   This function applies only to STM32 Connectivity line devices.
1145:./Libraries/STM32F10x_StdPeriph_Driver/src/stm32f10x_rcc.c ****   * @param  RCC_AHBPeriph: specifies the AHB peripheral to reset.
1146:./Libraries/STM32F10x_StdPeriph_Driver/src/stm32f10x_rcc.c ****   *   This parameter can be any combination of the following values:
1147:./Libraries/STM32F10x_StdPeriph_Driver/src/stm32f10x_rcc.c ****   *     @arg RCC_AHBPeriph_OTG_FS 
1148:./Libraries/STM32F10x_StdPeriph_Driver/src/stm32f10x_rcc.c ****   *     @arg RCC_AHBPeriph_ETH_MAC
1149:./Libraries/STM32F10x_StdPeriph_Driver/src/stm32f10x_rcc.c ****   * @param  NewState: new state of the specified peripheral reset.
1150:./Libraries/STM32F10x_StdPeriph_Driver/src/stm32f10x_rcc.c ****   *   This parameter can be: ENABLE or DISABLE.
1151:./Libraries/STM32F10x_StdPeriph_Driver/src/stm32f10x_rcc.c ****   * @retval None
1152:./Libraries/STM32F10x_StdPeriph_Driver/src/stm32f10x_rcc.c ****   */
1153:./Libraries/STM32F10x_StdPeriph_Driver/src/stm32f10x_rcc.c **** void RCC_AHBPeriphResetCmd(uint32_t RCC_AHBPeriph, FunctionalState NewState)
1154:./Libraries/STM32F10x_StdPeriph_Driver/src/stm32f10x_rcc.c **** {
1155:./Libraries/STM32F10x_StdPeriph_Driver/src/stm32f10x_rcc.c ****   /* Check the parameters */
1156:./Libraries/STM32F10x_StdPeriph_Driver/src/stm32f10x_rcc.c ****   assert_param(IS_RCC_AHB_PERIPH_RESET(RCC_AHBPeriph));
1157:./Libraries/STM32F10x_StdPeriph_Driver/src/stm32f10x_rcc.c ****   assert_param(IS_FUNCTIONAL_STATE(NewState));
1158:./Libraries/STM32F10x_StdPeriph_Driver/src/stm32f10x_rcc.c **** 
1159:./Libraries/STM32F10x_StdPeriph_Driver/src/stm32f10x_rcc.c ****   if (NewState != DISABLE)
1160:./Libraries/STM32F10x_StdPeriph_Driver/src/stm32f10x_rcc.c ****   {
1161:./Libraries/STM32F10x_StdPeriph_Driver/src/stm32f10x_rcc.c ****     RCC->AHBRSTR |= RCC_AHBPeriph;
1162:./Libraries/STM32F10x_StdPeriph_Driver/src/stm32f10x_rcc.c ****   }
1163:./Libraries/STM32F10x_StdPeriph_Driver/src/stm32f10x_rcc.c ****   else
1164:./Libraries/STM32F10x_StdPeriph_Driver/src/stm32f10x_rcc.c ****   {
1165:./Libraries/STM32F10x_StdPeriph_Driver/src/stm32f10x_rcc.c ****     RCC->AHBRSTR &= ~RCC_AHBPeriph;
1166:./Libraries/STM32F10x_StdPeriph_Driver/src/stm32f10x_rcc.c ****   }
1167:./Libraries/STM32F10x_StdPeriph_Driver/src/stm32f10x_rcc.c **** }
1168:./Libraries/STM32F10x_StdPeriph_Driver/src/stm32f10x_rcc.c **** #endif /* STM32F10X_CL */ 
1169:./Libraries/STM32F10x_StdPeriph_Driver/src/stm32f10x_rcc.c **** 
1170:./Libraries/STM32F10x_StdPeriph_Driver/src/stm32f10x_rcc.c **** /**
1171:./Libraries/STM32F10x_StdPeriph_Driver/src/stm32f10x_rcc.c ****   * @brief  Forces or releases High Speed APB (APB2) peripheral reset.
1172:./Libraries/STM32F10x_StdPeriph_Driver/src/stm32f10x_rcc.c ****   * @param  RCC_APB2Periph: specifies the APB2 peripheral to reset.
1173:./Libraries/STM32F10x_StdPeriph_Driver/src/stm32f10x_rcc.c ****   *   This parameter can be any combination of the following values:
1174:./Libraries/STM32F10x_StdPeriph_Driver/src/stm32f10x_rcc.c ****   *     @arg RCC_APB2Periph_AFIO, RCC_APB2Periph_GPIOA, RCC_APB2Periph_GPIOB,
1175:./Libraries/STM32F10x_StdPeriph_Driver/src/stm32f10x_rcc.c ****   *          RCC_APB2Periph_GPIOC, RCC_APB2Periph_GPIOD, RCC_APB2Periph_GPIOE,
1176:./Libraries/STM32F10x_StdPeriph_Driver/src/stm32f10x_rcc.c ****   *          RCC_APB2Periph_GPIOF, RCC_APB2Periph_GPIOG, RCC_APB2Periph_ADC1,
1177:./Libraries/STM32F10x_StdPeriph_Driver/src/stm32f10x_rcc.c ****   *          RCC_APB2Periph_ADC2, RCC_APB2Periph_TIM1, RCC_APB2Periph_SPI1,
1178:./Libraries/STM32F10x_StdPeriph_Driver/src/stm32f10x_rcc.c ****   *          RCC_APB2Periph_TIM8, RCC_APB2Periph_USART1, RCC_APB2Periph_ADC3,
1179:./Libraries/STM32F10x_StdPeriph_Driver/src/stm32f10x_rcc.c ****   *          RCC_APB2Periph_TIM15, RCC_APB2Periph_TIM16, RCC_APB2Periph_TIM17,
1180:./Libraries/STM32F10x_StdPeriph_Driver/src/stm32f10x_rcc.c ****   *          RCC_APB2Periph_TIM9, RCC_APB2Periph_TIM10, RCC_APB2Periph_TIM11  
1181:./Libraries/STM32F10x_StdPeriph_Driver/src/stm32f10x_rcc.c ****   * @param  NewState: new state of the specified peripheral reset.
1182:./Libraries/STM32F10x_StdPeriph_Driver/src/stm32f10x_rcc.c ****   *   This parameter can be: ENABLE or DISABLE.
1183:./Libraries/STM32F10x_StdPeriph_Driver/src/stm32f10x_rcc.c ****   * @retval None
1184:./Libraries/STM32F10x_StdPeriph_Driver/src/stm32f10x_rcc.c ****   */
1185:./Libraries/STM32F10x_StdPeriph_Driver/src/stm32f10x_rcc.c **** void RCC_APB2PeriphResetCmd(uint32_t RCC_APB2Periph, FunctionalState NewState)
1186:./Libraries/STM32F10x_StdPeriph_Driver/src/stm32f10x_rcc.c **** {
 1788              		.loc 1 1186 1
 1789              		.cfi_startproc
 1790              		@ args = 0, pretend = 0, frame = 8
 1791              		@ frame_needed = 1, uses_anonymous_args = 0
 1792              		@ link register save eliminated.
 1793 0000 80B4     		push	{r7}
 1794              	.LCFI133:
 1795              		.cfi_def_cfa_offset 4
 1796              		.cfi_offset 7, -4
 1797 0002 83B0     		sub	sp, sp, #12
ARM GAS  C:\Users\hao\AppData\Local\Temp\cc7h2zwF.s 			page 53


 1798              	.LCFI134:
 1799              		.cfi_def_cfa_offset 16
 1800 0004 00AF     		add	r7, sp, #0
 1801              	.LCFI135:
 1802              		.cfi_def_cfa_register 7
 1803 0006 7860     		str	r0, [r7, #4]
 1804 0008 0B46     		mov	r3, r1
 1805 000a FB70     		strb	r3, [r7, #3]
1187:./Libraries/STM32F10x_StdPeriph_Driver/src/stm32f10x_rcc.c ****   /* Check the parameters */
1188:./Libraries/STM32F10x_StdPeriph_Driver/src/stm32f10x_rcc.c ****   assert_param(IS_RCC_APB2_PERIPH(RCC_APB2Periph));
1189:./Libraries/STM32F10x_StdPeriph_Driver/src/stm32f10x_rcc.c ****   assert_param(IS_FUNCTIONAL_STATE(NewState));
1190:./Libraries/STM32F10x_StdPeriph_Driver/src/stm32f10x_rcc.c ****   if (NewState != DISABLE)
 1806              		.loc 1 1190 6
 1807 000c FB78     		ldrb	r3, [r7, #3]	@ zero_extendqisi2
 1808 000e 002B     		cmp	r3, #0
 1809 0010 06D0     		beq	.L103
1191:./Libraries/STM32F10x_StdPeriph_Driver/src/stm32f10x_rcc.c ****   {
1192:./Libraries/STM32F10x_StdPeriph_Driver/src/stm32f10x_rcc.c ****     RCC->APB2RSTR |= RCC_APB2Periph;
 1810              		.loc 1 1192 19
 1811 0012 094B     		ldr	r3, .L106
 1812 0014 DA68     		ldr	r2, [r3, #12]
 1813 0016 0849     		ldr	r1, .L106
 1814 0018 7B68     		ldr	r3, [r7, #4]
 1815 001a 1343     		orrs	r3, r3, r2
 1816 001c CB60     		str	r3, [r1, #12]
1193:./Libraries/STM32F10x_StdPeriph_Driver/src/stm32f10x_rcc.c ****   }
1194:./Libraries/STM32F10x_StdPeriph_Driver/src/stm32f10x_rcc.c ****   else
1195:./Libraries/STM32F10x_StdPeriph_Driver/src/stm32f10x_rcc.c ****   {
1196:./Libraries/STM32F10x_StdPeriph_Driver/src/stm32f10x_rcc.c ****     RCC->APB2RSTR &= ~RCC_APB2Periph;
1197:./Libraries/STM32F10x_StdPeriph_Driver/src/stm32f10x_rcc.c ****   }
1198:./Libraries/STM32F10x_StdPeriph_Driver/src/stm32f10x_rcc.c **** }
 1817              		.loc 1 1198 1
 1818 001e 06E0     		b	.L105
 1819              	.L103:
1196:./Libraries/STM32F10x_StdPeriph_Driver/src/stm32f10x_rcc.c ****   }
 1820              		.loc 1 1196 19
 1821 0020 054B     		ldr	r3, .L106
 1822 0022 DA68     		ldr	r2, [r3, #12]
1196:./Libraries/STM32F10x_StdPeriph_Driver/src/stm32f10x_rcc.c ****   }
 1823              		.loc 1 1196 22
 1824 0024 7B68     		ldr	r3, [r7, #4]
 1825 0026 DB43     		mvns	r3, r3
1196:./Libraries/STM32F10x_StdPeriph_Driver/src/stm32f10x_rcc.c ****   }
 1826              		.loc 1 1196 19
 1827 0028 0349     		ldr	r1, .L106
 1828 002a 1340     		ands	r3, r3, r2
 1829 002c CB60     		str	r3, [r1, #12]
 1830              	.L105:
 1831              		.loc 1 1198 1
 1832 002e 00BF     		nop
 1833 0030 0C37     		adds	r7, r7, #12
 1834              	.LCFI136:
 1835              		.cfi_def_cfa_offset 4
 1836 0032 BD46     		mov	sp, r7
 1837              	.LCFI137:
 1838              		.cfi_def_cfa_register 13
 1839              		@ sp needed
ARM GAS  C:\Users\hao\AppData\Local\Temp\cc7h2zwF.s 			page 54


 1840 0034 80BC     		pop	{r7}
 1841              	.LCFI138:
 1842              		.cfi_restore 7
 1843              		.cfi_def_cfa_offset 0
 1844 0036 7047     		bx	lr
 1845              	.L107:
 1846              		.align	2
 1847              	.L106:
 1848 0038 00100240 		.word	1073876992
 1849              		.cfi_endproc
 1850              	.LFE52:
 1852              		.section	.text.RCC_APB1PeriphResetCmd,"ax",%progbits
 1853              		.align	1
 1854              		.global	RCC_APB1PeriphResetCmd
 1855              		.syntax unified
 1856              		.thumb
 1857              		.thumb_func
 1859              	RCC_APB1PeriphResetCmd:
 1860              	.LFB53:
1199:./Libraries/STM32F10x_StdPeriph_Driver/src/stm32f10x_rcc.c **** 
1200:./Libraries/STM32F10x_StdPeriph_Driver/src/stm32f10x_rcc.c **** /**
1201:./Libraries/STM32F10x_StdPeriph_Driver/src/stm32f10x_rcc.c ****   * @brief  Forces or releases Low Speed APB (APB1) peripheral reset.
1202:./Libraries/STM32F10x_StdPeriph_Driver/src/stm32f10x_rcc.c ****   * @param  RCC_APB1Periph: specifies the APB1 peripheral to reset.
1203:./Libraries/STM32F10x_StdPeriph_Driver/src/stm32f10x_rcc.c ****   *   This parameter can be any combination of the following values:
1204:./Libraries/STM32F10x_StdPeriph_Driver/src/stm32f10x_rcc.c ****   *     @arg RCC_APB1Periph_TIM2, RCC_APB1Periph_TIM3, RCC_APB1Periph_TIM4,
1205:./Libraries/STM32F10x_StdPeriph_Driver/src/stm32f10x_rcc.c ****   *          RCC_APB1Periph_TIM5, RCC_APB1Periph_TIM6, RCC_APB1Periph_TIM7,
1206:./Libraries/STM32F10x_StdPeriph_Driver/src/stm32f10x_rcc.c ****   *          RCC_APB1Periph_WWDG, RCC_APB1Periph_SPI2, RCC_APB1Periph_SPI3,
1207:./Libraries/STM32F10x_StdPeriph_Driver/src/stm32f10x_rcc.c ****   *          RCC_APB1Periph_USART2, RCC_APB1Periph_USART3, RCC_APB1Periph_USART4, 
1208:./Libraries/STM32F10x_StdPeriph_Driver/src/stm32f10x_rcc.c ****   *          RCC_APB1Periph_USART5, RCC_APB1Periph_I2C1, RCC_APB1Periph_I2C2,
1209:./Libraries/STM32F10x_StdPeriph_Driver/src/stm32f10x_rcc.c ****   *          RCC_APB1Periph_USB, RCC_APB1Periph_CAN1, RCC_APB1Periph_BKP,
1210:./Libraries/STM32F10x_StdPeriph_Driver/src/stm32f10x_rcc.c ****   *          RCC_APB1Periph_PWR, RCC_APB1Periph_DAC, RCC_APB1Periph_CEC,
1211:./Libraries/STM32F10x_StdPeriph_Driver/src/stm32f10x_rcc.c ****   *          RCC_APB1Periph_TIM12, RCC_APB1Periph_TIM13, RCC_APB1Periph_TIM14  
1212:./Libraries/STM32F10x_StdPeriph_Driver/src/stm32f10x_rcc.c ****   * @param  NewState: new state of the specified peripheral clock.
1213:./Libraries/STM32F10x_StdPeriph_Driver/src/stm32f10x_rcc.c ****   *   This parameter can be: ENABLE or DISABLE.
1214:./Libraries/STM32F10x_StdPeriph_Driver/src/stm32f10x_rcc.c ****   * @retval None
1215:./Libraries/STM32F10x_StdPeriph_Driver/src/stm32f10x_rcc.c ****   */
1216:./Libraries/STM32F10x_StdPeriph_Driver/src/stm32f10x_rcc.c **** void RCC_APB1PeriphResetCmd(uint32_t RCC_APB1Periph, FunctionalState NewState)
1217:./Libraries/STM32F10x_StdPeriph_Driver/src/stm32f10x_rcc.c **** {
 1861              		.loc 1 1217 1
 1862              		.cfi_startproc
 1863              		@ args = 0, pretend = 0, frame = 8
 1864              		@ frame_needed = 1, uses_anonymous_args = 0
 1865              		@ link register save eliminated.
 1866 0000 80B4     		push	{r7}
 1867              	.LCFI139:
 1868              		.cfi_def_cfa_offset 4
 1869              		.cfi_offset 7, -4
 1870 0002 83B0     		sub	sp, sp, #12
 1871              	.LCFI140:
 1872              		.cfi_def_cfa_offset 16
 1873 0004 00AF     		add	r7, sp, #0
 1874              	.LCFI141:
 1875              		.cfi_def_cfa_register 7
 1876 0006 7860     		str	r0, [r7, #4]
 1877 0008 0B46     		mov	r3, r1
 1878 000a FB70     		strb	r3, [r7, #3]
1218:./Libraries/STM32F10x_StdPeriph_Driver/src/stm32f10x_rcc.c ****   /* Check the parameters */
ARM GAS  C:\Users\hao\AppData\Local\Temp\cc7h2zwF.s 			page 55


1219:./Libraries/STM32F10x_StdPeriph_Driver/src/stm32f10x_rcc.c ****   assert_param(IS_RCC_APB1_PERIPH(RCC_APB1Periph));
1220:./Libraries/STM32F10x_StdPeriph_Driver/src/stm32f10x_rcc.c ****   assert_param(IS_FUNCTIONAL_STATE(NewState));
1221:./Libraries/STM32F10x_StdPeriph_Driver/src/stm32f10x_rcc.c ****   if (NewState != DISABLE)
 1879              		.loc 1 1221 6
 1880 000c FB78     		ldrb	r3, [r7, #3]	@ zero_extendqisi2
 1881 000e 002B     		cmp	r3, #0
 1882 0010 06D0     		beq	.L109
1222:./Libraries/STM32F10x_StdPeriph_Driver/src/stm32f10x_rcc.c ****   {
1223:./Libraries/STM32F10x_StdPeriph_Driver/src/stm32f10x_rcc.c ****     RCC->APB1RSTR |= RCC_APB1Periph;
 1883              		.loc 1 1223 19
 1884 0012 094B     		ldr	r3, .L112
 1885 0014 1A69     		ldr	r2, [r3, #16]
 1886 0016 0849     		ldr	r1, .L112
 1887 0018 7B68     		ldr	r3, [r7, #4]
 1888 001a 1343     		orrs	r3, r3, r2
 1889 001c 0B61     		str	r3, [r1, #16]
1224:./Libraries/STM32F10x_StdPeriph_Driver/src/stm32f10x_rcc.c ****   }
1225:./Libraries/STM32F10x_StdPeriph_Driver/src/stm32f10x_rcc.c ****   else
1226:./Libraries/STM32F10x_StdPeriph_Driver/src/stm32f10x_rcc.c ****   {
1227:./Libraries/STM32F10x_StdPeriph_Driver/src/stm32f10x_rcc.c ****     RCC->APB1RSTR &= ~RCC_APB1Periph;
1228:./Libraries/STM32F10x_StdPeriph_Driver/src/stm32f10x_rcc.c ****   }
1229:./Libraries/STM32F10x_StdPeriph_Driver/src/stm32f10x_rcc.c **** }
 1890              		.loc 1 1229 1
 1891 001e 06E0     		b	.L111
 1892              	.L109:
1227:./Libraries/STM32F10x_StdPeriph_Driver/src/stm32f10x_rcc.c ****   }
 1893              		.loc 1 1227 19
 1894 0020 054B     		ldr	r3, .L112
 1895 0022 1A69     		ldr	r2, [r3, #16]
1227:./Libraries/STM32F10x_StdPeriph_Driver/src/stm32f10x_rcc.c ****   }
 1896              		.loc 1 1227 22
 1897 0024 7B68     		ldr	r3, [r7, #4]
 1898 0026 DB43     		mvns	r3, r3
1227:./Libraries/STM32F10x_StdPeriph_Driver/src/stm32f10x_rcc.c ****   }
 1899              		.loc 1 1227 19
 1900 0028 0349     		ldr	r1, .L112
 1901 002a 1340     		ands	r3, r3, r2
 1902 002c 0B61     		str	r3, [r1, #16]
 1903              	.L111:
 1904              		.loc 1 1229 1
 1905 002e 00BF     		nop
 1906 0030 0C37     		adds	r7, r7, #12
 1907              	.LCFI142:
 1908              		.cfi_def_cfa_offset 4
 1909 0032 BD46     		mov	sp, r7
 1910              	.LCFI143:
 1911              		.cfi_def_cfa_register 13
 1912              		@ sp needed
 1913 0034 80BC     		pop	{r7}
 1914              	.LCFI144:
 1915              		.cfi_restore 7
 1916              		.cfi_def_cfa_offset 0
 1917 0036 7047     		bx	lr
 1918              	.L113:
 1919              		.align	2
 1920              	.L112:
 1921 0038 00100240 		.word	1073876992
ARM GAS  C:\Users\hao\AppData\Local\Temp\cc7h2zwF.s 			page 56


 1922              		.cfi_endproc
 1923              	.LFE53:
 1925              		.section	.text.RCC_BackupResetCmd,"ax",%progbits
 1926              		.align	1
 1927              		.global	RCC_BackupResetCmd
 1928              		.syntax unified
 1929              		.thumb
 1930              		.thumb_func
 1932              	RCC_BackupResetCmd:
 1933              	.LFB54:
1230:./Libraries/STM32F10x_StdPeriph_Driver/src/stm32f10x_rcc.c **** 
1231:./Libraries/STM32F10x_StdPeriph_Driver/src/stm32f10x_rcc.c **** /**
1232:./Libraries/STM32F10x_StdPeriph_Driver/src/stm32f10x_rcc.c ****   * @brief  Forces or releases the Backup domain reset.
1233:./Libraries/STM32F10x_StdPeriph_Driver/src/stm32f10x_rcc.c ****   * @param  NewState: new state of the Backup domain reset.
1234:./Libraries/STM32F10x_StdPeriph_Driver/src/stm32f10x_rcc.c ****   *   This parameter can be: ENABLE or DISABLE.
1235:./Libraries/STM32F10x_StdPeriph_Driver/src/stm32f10x_rcc.c ****   * @retval None
1236:./Libraries/STM32F10x_StdPeriph_Driver/src/stm32f10x_rcc.c ****   */
1237:./Libraries/STM32F10x_StdPeriph_Driver/src/stm32f10x_rcc.c **** void RCC_BackupResetCmd(FunctionalState NewState)
1238:./Libraries/STM32F10x_StdPeriph_Driver/src/stm32f10x_rcc.c **** {
 1934              		.loc 1 1238 1
 1935              		.cfi_startproc
 1936              		@ args = 0, pretend = 0, frame = 8
 1937              		@ frame_needed = 1, uses_anonymous_args = 0
 1938              		@ link register save eliminated.
 1939 0000 80B4     		push	{r7}
 1940              	.LCFI145:
 1941              		.cfi_def_cfa_offset 4
 1942              		.cfi_offset 7, -4
 1943 0002 83B0     		sub	sp, sp, #12
 1944              	.LCFI146:
 1945              		.cfi_def_cfa_offset 16
 1946 0004 00AF     		add	r7, sp, #0
 1947              	.LCFI147:
 1948              		.cfi_def_cfa_register 7
 1949 0006 0346     		mov	r3, r0
 1950 0008 FB71     		strb	r3, [r7, #7]
1239:./Libraries/STM32F10x_StdPeriph_Driver/src/stm32f10x_rcc.c ****   /* Check the parameters */
1240:./Libraries/STM32F10x_StdPeriph_Driver/src/stm32f10x_rcc.c ****   assert_param(IS_FUNCTIONAL_STATE(NewState));
1241:./Libraries/STM32F10x_StdPeriph_Driver/src/stm32f10x_rcc.c ****   *(__IO uint32_t *) BDCR_BDRST_BB = (uint32_t)NewState;
 1951              		.loc 1 1241 3
 1952 000a 044A     		ldr	r2, .L115
 1953              		.loc 1 1241 38
 1954 000c FB79     		ldrb	r3, [r7, #7]	@ zero_extendqisi2
 1955              		.loc 1 1241 36
 1956 000e 1360     		str	r3, [r2]
1242:./Libraries/STM32F10x_StdPeriph_Driver/src/stm32f10x_rcc.c **** }
 1957              		.loc 1 1242 1
 1958 0010 00BF     		nop
 1959 0012 0C37     		adds	r7, r7, #12
 1960              	.LCFI148:
 1961              		.cfi_def_cfa_offset 4
 1962 0014 BD46     		mov	sp, r7
 1963              	.LCFI149:
 1964              		.cfi_def_cfa_register 13
 1965              		@ sp needed
 1966 0016 80BC     		pop	{r7}
 1967              	.LCFI150:
ARM GAS  C:\Users\hao\AppData\Local\Temp\cc7h2zwF.s 			page 57


 1968              		.cfi_restore 7
 1969              		.cfi_def_cfa_offset 0
 1970 0018 7047     		bx	lr
 1971              	.L116:
 1972 001a 00BF     		.align	2
 1973              	.L115:
 1974 001c 40044242 		.word	1111622720
 1975              		.cfi_endproc
 1976              	.LFE54:
 1978              		.section	.text.RCC_ClockSecuritySystemCmd,"ax",%progbits
 1979              		.align	1
 1980              		.global	RCC_ClockSecuritySystemCmd
 1981              		.syntax unified
 1982              		.thumb
 1983              		.thumb_func
 1985              	RCC_ClockSecuritySystemCmd:
 1986              	.LFB55:
1243:./Libraries/STM32F10x_StdPeriph_Driver/src/stm32f10x_rcc.c **** 
1244:./Libraries/STM32F10x_StdPeriph_Driver/src/stm32f10x_rcc.c **** /**
1245:./Libraries/STM32F10x_StdPeriph_Driver/src/stm32f10x_rcc.c ****   * @brief  Enables or disables the Clock Security System.
1246:./Libraries/STM32F10x_StdPeriph_Driver/src/stm32f10x_rcc.c ****   * @param  NewState: new state of the Clock Security System..
1247:./Libraries/STM32F10x_StdPeriph_Driver/src/stm32f10x_rcc.c ****   *   This parameter can be: ENABLE or DISABLE.
1248:./Libraries/STM32F10x_StdPeriph_Driver/src/stm32f10x_rcc.c ****   * @retval None
1249:./Libraries/STM32F10x_StdPeriph_Driver/src/stm32f10x_rcc.c ****   */
1250:./Libraries/STM32F10x_StdPeriph_Driver/src/stm32f10x_rcc.c **** void RCC_ClockSecuritySystemCmd(FunctionalState NewState)
1251:./Libraries/STM32F10x_StdPeriph_Driver/src/stm32f10x_rcc.c **** {
 1987              		.loc 1 1251 1
 1988              		.cfi_startproc
 1989              		@ args = 0, pretend = 0, frame = 8
 1990              		@ frame_needed = 1, uses_anonymous_args = 0
 1991              		@ link register save eliminated.
 1992 0000 80B4     		push	{r7}
 1993              	.LCFI151:
 1994              		.cfi_def_cfa_offset 4
 1995              		.cfi_offset 7, -4
 1996 0002 83B0     		sub	sp, sp, #12
 1997              	.LCFI152:
 1998              		.cfi_def_cfa_offset 16
 1999 0004 00AF     		add	r7, sp, #0
 2000              	.LCFI153:
 2001              		.cfi_def_cfa_register 7
 2002 0006 0346     		mov	r3, r0
 2003 0008 FB71     		strb	r3, [r7, #7]
1252:./Libraries/STM32F10x_StdPeriph_Driver/src/stm32f10x_rcc.c ****   /* Check the parameters */
1253:./Libraries/STM32F10x_StdPeriph_Driver/src/stm32f10x_rcc.c ****   assert_param(IS_FUNCTIONAL_STATE(NewState));
1254:./Libraries/STM32F10x_StdPeriph_Driver/src/stm32f10x_rcc.c ****   *(__IO uint32_t *) CR_CSSON_BB = (uint32_t)NewState;
 2004              		.loc 1 1254 3
 2005 000a 044A     		ldr	r2, .L118
 2006              		.loc 1 1254 36
 2007 000c FB79     		ldrb	r3, [r7, #7]	@ zero_extendqisi2
 2008              		.loc 1 1254 34
 2009 000e 1360     		str	r3, [r2]
1255:./Libraries/STM32F10x_StdPeriph_Driver/src/stm32f10x_rcc.c **** }
 2010              		.loc 1 1255 1
 2011 0010 00BF     		nop
 2012 0012 0C37     		adds	r7, r7, #12
 2013              	.LCFI154:
ARM GAS  C:\Users\hao\AppData\Local\Temp\cc7h2zwF.s 			page 58


 2014              		.cfi_def_cfa_offset 4
 2015 0014 BD46     		mov	sp, r7
 2016              	.LCFI155:
 2017              		.cfi_def_cfa_register 13
 2018              		@ sp needed
 2019 0016 80BC     		pop	{r7}
 2020              	.LCFI156:
 2021              		.cfi_restore 7
 2022              		.cfi_def_cfa_offset 0
 2023 0018 7047     		bx	lr
 2024              	.L119:
 2025 001a 00BF     		.align	2
 2026              	.L118:
 2027 001c 4C004242 		.word	1111621708
 2028              		.cfi_endproc
 2029              	.LFE55:
 2031              		.section	.text.RCC_MCOConfig,"ax",%progbits
 2032              		.align	1
 2033              		.global	RCC_MCOConfig
 2034              		.syntax unified
 2035              		.thumb
 2036              		.thumb_func
 2038              	RCC_MCOConfig:
 2039              	.LFB56:
1256:./Libraries/STM32F10x_StdPeriph_Driver/src/stm32f10x_rcc.c **** 
1257:./Libraries/STM32F10x_StdPeriph_Driver/src/stm32f10x_rcc.c **** /**
1258:./Libraries/STM32F10x_StdPeriph_Driver/src/stm32f10x_rcc.c ****   * @brief  Selects the clock source to output on MCO pin.
1259:./Libraries/STM32F10x_StdPeriph_Driver/src/stm32f10x_rcc.c ****   * @param  RCC_MCO: specifies the clock source to output.
1260:./Libraries/STM32F10x_StdPeriph_Driver/src/stm32f10x_rcc.c ****   *   
1261:./Libraries/STM32F10x_StdPeriph_Driver/src/stm32f10x_rcc.c ****   *   For @b STM32_Connectivity_line_devices, this parameter can be one of the
1262:./Libraries/STM32F10x_StdPeriph_Driver/src/stm32f10x_rcc.c ****   *   following values:       
1263:./Libraries/STM32F10x_StdPeriph_Driver/src/stm32f10x_rcc.c ****   *     @arg RCC_MCO_NoClock: No clock selected
1264:./Libraries/STM32F10x_StdPeriph_Driver/src/stm32f10x_rcc.c ****   *     @arg RCC_MCO_SYSCLK: System clock selected
1265:./Libraries/STM32F10x_StdPeriph_Driver/src/stm32f10x_rcc.c ****   *     @arg RCC_MCO_HSI: HSI oscillator clock selected
1266:./Libraries/STM32F10x_StdPeriph_Driver/src/stm32f10x_rcc.c ****   *     @arg RCC_MCO_HSE: HSE oscillator clock selected
1267:./Libraries/STM32F10x_StdPeriph_Driver/src/stm32f10x_rcc.c ****   *     @arg RCC_MCO_PLLCLK_Div2: PLL clock divided by 2 selected
1268:./Libraries/STM32F10x_StdPeriph_Driver/src/stm32f10x_rcc.c ****   *     @arg RCC_MCO_PLL2CLK: PLL2 clock selected                     
1269:./Libraries/STM32F10x_StdPeriph_Driver/src/stm32f10x_rcc.c ****   *     @arg RCC_MCO_PLL3CLK_Div2: PLL3 clock divided by 2 selected   
1270:./Libraries/STM32F10x_StdPeriph_Driver/src/stm32f10x_rcc.c ****   *     @arg RCC_MCO_XT1: External 3-25 MHz oscillator clock selected  
1271:./Libraries/STM32F10x_StdPeriph_Driver/src/stm32f10x_rcc.c ****   *     @arg RCC_MCO_PLL3CLK: PLL3 clock selected 
1272:./Libraries/STM32F10x_StdPeriph_Driver/src/stm32f10x_rcc.c ****   * 
1273:./Libraries/STM32F10x_StdPeriph_Driver/src/stm32f10x_rcc.c ****   *   For  @b other_STM32_devices, this parameter can be one of the following values:        
1274:./Libraries/STM32F10x_StdPeriph_Driver/src/stm32f10x_rcc.c ****   *     @arg RCC_MCO_NoClock: No clock selected
1275:./Libraries/STM32F10x_StdPeriph_Driver/src/stm32f10x_rcc.c ****   *     @arg RCC_MCO_SYSCLK: System clock selected
1276:./Libraries/STM32F10x_StdPeriph_Driver/src/stm32f10x_rcc.c ****   *     @arg RCC_MCO_HSI: HSI oscillator clock selected
1277:./Libraries/STM32F10x_StdPeriph_Driver/src/stm32f10x_rcc.c ****   *     @arg RCC_MCO_HSE: HSE oscillator clock selected
1278:./Libraries/STM32F10x_StdPeriph_Driver/src/stm32f10x_rcc.c ****   *     @arg RCC_MCO_PLLCLK_Div2: PLL clock divided by 2 selected
1279:./Libraries/STM32F10x_StdPeriph_Driver/src/stm32f10x_rcc.c ****   *   
1280:./Libraries/STM32F10x_StdPeriph_Driver/src/stm32f10x_rcc.c ****   * @retval None
1281:./Libraries/STM32F10x_StdPeriph_Driver/src/stm32f10x_rcc.c ****   */
1282:./Libraries/STM32F10x_StdPeriph_Driver/src/stm32f10x_rcc.c **** void RCC_MCOConfig(uint8_t RCC_MCO)
1283:./Libraries/STM32F10x_StdPeriph_Driver/src/stm32f10x_rcc.c **** {
 2040              		.loc 1 1283 1
 2041              		.cfi_startproc
 2042              		@ args = 0, pretend = 0, frame = 8
 2043              		@ frame_needed = 1, uses_anonymous_args = 0
 2044              		@ link register save eliminated.
ARM GAS  C:\Users\hao\AppData\Local\Temp\cc7h2zwF.s 			page 59


 2045 0000 80B4     		push	{r7}
 2046              	.LCFI157:
 2047              		.cfi_def_cfa_offset 4
 2048              		.cfi_offset 7, -4
 2049 0002 83B0     		sub	sp, sp, #12
 2050              	.LCFI158:
 2051              		.cfi_def_cfa_offset 16
 2052 0004 00AF     		add	r7, sp, #0
 2053              	.LCFI159:
 2054              		.cfi_def_cfa_register 7
 2055 0006 0346     		mov	r3, r0
 2056 0008 FB71     		strb	r3, [r7, #7]
1284:./Libraries/STM32F10x_StdPeriph_Driver/src/stm32f10x_rcc.c ****   /* Check the parameters */
1285:./Libraries/STM32F10x_StdPeriph_Driver/src/stm32f10x_rcc.c ****   assert_param(IS_RCC_MCO(RCC_MCO));
1286:./Libraries/STM32F10x_StdPeriph_Driver/src/stm32f10x_rcc.c **** 
1287:./Libraries/STM32F10x_StdPeriph_Driver/src/stm32f10x_rcc.c ****   /* Perform Byte access to MCO bits to select the MCO source */
1288:./Libraries/STM32F10x_StdPeriph_Driver/src/stm32f10x_rcc.c ****   *(__IO uint8_t *) CFGR_BYTE4_ADDRESS = RCC_MCO;
 2057              		.loc 1 1288 3
 2058 000a 044A     		ldr	r2, .L121
 2059              		.loc 1 1288 40
 2060 000c FB79     		ldrb	r3, [r7, #7]
 2061 000e 1370     		strb	r3, [r2]
1289:./Libraries/STM32F10x_StdPeriph_Driver/src/stm32f10x_rcc.c **** }
 2062              		.loc 1 1289 1
 2063 0010 00BF     		nop
 2064 0012 0C37     		adds	r7, r7, #12
 2065              	.LCFI160:
 2066              		.cfi_def_cfa_offset 4
 2067 0014 BD46     		mov	sp, r7
 2068              	.LCFI161:
 2069              		.cfi_def_cfa_register 13
 2070              		@ sp needed
 2071 0016 80BC     		pop	{r7}
 2072              	.LCFI162:
 2073              		.cfi_restore 7
 2074              		.cfi_def_cfa_offset 0
 2075 0018 7047     		bx	lr
 2076              	.L122:
 2077 001a 00BF     		.align	2
 2078              	.L121:
 2079 001c 07100240 		.word	1073876999
 2080              		.cfi_endproc
 2081              	.LFE56:
 2083              		.section	.text.RCC_GetFlagStatus,"ax",%progbits
 2084              		.align	1
 2085              		.global	RCC_GetFlagStatus
 2086              		.syntax unified
 2087              		.thumb
 2088              		.thumb_func
 2090              	RCC_GetFlagStatus:
 2091              	.LFB57:
1290:./Libraries/STM32F10x_StdPeriph_Driver/src/stm32f10x_rcc.c **** 
1291:./Libraries/STM32F10x_StdPeriph_Driver/src/stm32f10x_rcc.c **** /**
1292:./Libraries/STM32F10x_StdPeriph_Driver/src/stm32f10x_rcc.c ****   * @brief  Checks whether the specified RCC flag is set or not.
1293:./Libraries/STM32F10x_StdPeriph_Driver/src/stm32f10x_rcc.c ****   * @param  RCC_FLAG: specifies the flag to check.
1294:./Libraries/STM32F10x_StdPeriph_Driver/src/stm32f10x_rcc.c ****   *   
1295:./Libraries/STM32F10x_StdPeriph_Driver/src/stm32f10x_rcc.c ****   *   For @b STM32_Connectivity_line_devices, this parameter can be one of the
ARM GAS  C:\Users\hao\AppData\Local\Temp\cc7h2zwF.s 			page 60


1296:./Libraries/STM32F10x_StdPeriph_Driver/src/stm32f10x_rcc.c ****   *   following values:
1297:./Libraries/STM32F10x_StdPeriph_Driver/src/stm32f10x_rcc.c ****   *     @arg RCC_FLAG_HSIRDY: HSI oscillator clock ready
1298:./Libraries/STM32F10x_StdPeriph_Driver/src/stm32f10x_rcc.c ****   *     @arg RCC_FLAG_HSERDY: HSE oscillator clock ready
1299:./Libraries/STM32F10x_StdPeriph_Driver/src/stm32f10x_rcc.c ****   *     @arg RCC_FLAG_PLLRDY: PLL clock ready
1300:./Libraries/STM32F10x_StdPeriph_Driver/src/stm32f10x_rcc.c ****   *     @arg RCC_FLAG_PLL2RDY: PLL2 clock ready      
1301:./Libraries/STM32F10x_StdPeriph_Driver/src/stm32f10x_rcc.c ****   *     @arg RCC_FLAG_PLL3RDY: PLL3 clock ready                           
1302:./Libraries/STM32F10x_StdPeriph_Driver/src/stm32f10x_rcc.c ****   *     @arg RCC_FLAG_LSERDY: LSE oscillator clock ready
1303:./Libraries/STM32F10x_StdPeriph_Driver/src/stm32f10x_rcc.c ****   *     @arg RCC_FLAG_LSIRDY: LSI oscillator clock ready
1304:./Libraries/STM32F10x_StdPeriph_Driver/src/stm32f10x_rcc.c ****   *     @arg RCC_FLAG_PINRST: Pin reset
1305:./Libraries/STM32F10x_StdPeriph_Driver/src/stm32f10x_rcc.c ****   *     @arg RCC_FLAG_PORRST: POR/PDR reset
1306:./Libraries/STM32F10x_StdPeriph_Driver/src/stm32f10x_rcc.c ****   *     @arg RCC_FLAG_SFTRST: Software reset
1307:./Libraries/STM32F10x_StdPeriph_Driver/src/stm32f10x_rcc.c ****   *     @arg RCC_FLAG_IWDGRST: Independent Watchdog reset
1308:./Libraries/STM32F10x_StdPeriph_Driver/src/stm32f10x_rcc.c ****   *     @arg RCC_FLAG_WWDGRST: Window Watchdog reset
1309:./Libraries/STM32F10x_StdPeriph_Driver/src/stm32f10x_rcc.c ****   *     @arg RCC_FLAG_LPWRRST: Low Power reset
1310:./Libraries/STM32F10x_StdPeriph_Driver/src/stm32f10x_rcc.c ****   * 
1311:./Libraries/STM32F10x_StdPeriph_Driver/src/stm32f10x_rcc.c ****   *   For @b other_STM32_devices, this parameter can be one of the following values:        
1312:./Libraries/STM32F10x_StdPeriph_Driver/src/stm32f10x_rcc.c ****   *     @arg RCC_FLAG_HSIRDY: HSI oscillator clock ready
1313:./Libraries/STM32F10x_StdPeriph_Driver/src/stm32f10x_rcc.c ****   *     @arg RCC_FLAG_HSERDY: HSE oscillator clock ready
1314:./Libraries/STM32F10x_StdPeriph_Driver/src/stm32f10x_rcc.c ****   *     @arg RCC_FLAG_PLLRDY: PLL clock ready
1315:./Libraries/STM32F10x_StdPeriph_Driver/src/stm32f10x_rcc.c ****   *     @arg RCC_FLAG_LSERDY: LSE oscillator clock ready
1316:./Libraries/STM32F10x_StdPeriph_Driver/src/stm32f10x_rcc.c ****   *     @arg RCC_FLAG_LSIRDY: LSI oscillator clock ready
1317:./Libraries/STM32F10x_StdPeriph_Driver/src/stm32f10x_rcc.c ****   *     @arg RCC_FLAG_PINRST: Pin reset
1318:./Libraries/STM32F10x_StdPeriph_Driver/src/stm32f10x_rcc.c ****   *     @arg RCC_FLAG_PORRST: POR/PDR reset
1319:./Libraries/STM32F10x_StdPeriph_Driver/src/stm32f10x_rcc.c ****   *     @arg RCC_FLAG_SFTRST: Software reset
1320:./Libraries/STM32F10x_StdPeriph_Driver/src/stm32f10x_rcc.c ****   *     @arg RCC_FLAG_IWDGRST: Independent Watchdog reset
1321:./Libraries/STM32F10x_StdPeriph_Driver/src/stm32f10x_rcc.c ****   *     @arg RCC_FLAG_WWDGRST: Window Watchdog reset
1322:./Libraries/STM32F10x_StdPeriph_Driver/src/stm32f10x_rcc.c ****   *     @arg RCC_FLAG_LPWRRST: Low Power reset
1323:./Libraries/STM32F10x_StdPeriph_Driver/src/stm32f10x_rcc.c ****   *   
1324:./Libraries/STM32F10x_StdPeriph_Driver/src/stm32f10x_rcc.c ****   * @retval The new state of RCC_FLAG (SET or RESET).
1325:./Libraries/STM32F10x_StdPeriph_Driver/src/stm32f10x_rcc.c ****   */
1326:./Libraries/STM32F10x_StdPeriph_Driver/src/stm32f10x_rcc.c **** FlagStatus RCC_GetFlagStatus(uint8_t RCC_FLAG)
1327:./Libraries/STM32F10x_StdPeriph_Driver/src/stm32f10x_rcc.c **** {
 2092              		.loc 1 1327 1
 2093              		.cfi_startproc
 2094              		@ args = 0, pretend = 0, frame = 24
 2095              		@ frame_needed = 1, uses_anonymous_args = 0
 2096              		@ link register save eliminated.
 2097 0000 80B4     		push	{r7}
 2098              	.LCFI163:
 2099              		.cfi_def_cfa_offset 4
 2100              		.cfi_offset 7, -4
 2101 0002 87B0     		sub	sp, sp, #28
 2102              	.LCFI164:
 2103              		.cfi_def_cfa_offset 32
 2104 0004 00AF     		add	r7, sp, #0
 2105              	.LCFI165:
 2106              		.cfi_def_cfa_register 7
 2107 0006 0346     		mov	r3, r0
 2108 0008 FB71     		strb	r3, [r7, #7]
1328:./Libraries/STM32F10x_StdPeriph_Driver/src/stm32f10x_rcc.c ****   uint32_t tmp = 0;
 2109              		.loc 1 1328 12
 2110 000a 0023     		movs	r3, #0
 2111 000c FB60     		str	r3, [r7, #12]
1329:./Libraries/STM32F10x_StdPeriph_Driver/src/stm32f10x_rcc.c ****   uint32_t statusreg = 0;
 2112              		.loc 1 1329 12
 2113 000e 0023     		movs	r3, #0
 2114 0010 7B61     		str	r3, [r7, #20]
ARM GAS  C:\Users\hao\AppData\Local\Temp\cc7h2zwF.s 			page 61


1330:./Libraries/STM32F10x_StdPeriph_Driver/src/stm32f10x_rcc.c ****   FlagStatus bitstatus = RESET;
 2115              		.loc 1 1330 14
 2116 0012 0023     		movs	r3, #0
 2117 0014 FB74     		strb	r3, [r7, #19]
1331:./Libraries/STM32F10x_StdPeriph_Driver/src/stm32f10x_rcc.c ****   /* Check the parameters */
1332:./Libraries/STM32F10x_StdPeriph_Driver/src/stm32f10x_rcc.c ****   assert_param(IS_RCC_FLAG(RCC_FLAG));
1333:./Libraries/STM32F10x_StdPeriph_Driver/src/stm32f10x_rcc.c **** 
1334:./Libraries/STM32F10x_StdPeriph_Driver/src/stm32f10x_rcc.c ****   /* Get the RCC register index */
1335:./Libraries/STM32F10x_StdPeriph_Driver/src/stm32f10x_rcc.c ****   tmp = RCC_FLAG >> 5;
 2118              		.loc 1 1335 18
 2119 0016 FB79     		ldrb	r3, [r7, #7]	@ zero_extendqisi2
 2120 0018 5B09     		lsrs	r3, r3, #5
 2121 001a DBB2     		uxtb	r3, r3
 2122              		.loc 1 1335 7
 2123 001c FB60     		str	r3, [r7, #12]
1336:./Libraries/STM32F10x_StdPeriph_Driver/src/stm32f10x_rcc.c ****   if (tmp == 1)               /* The flag to check is in CR register */
 2124              		.loc 1 1336 6
 2125 001e FB68     		ldr	r3, [r7, #12]
 2126 0020 012B     		cmp	r3, #1
 2127 0022 03D1     		bne	.L124
1337:./Libraries/STM32F10x_StdPeriph_Driver/src/stm32f10x_rcc.c ****   {
1338:./Libraries/STM32F10x_StdPeriph_Driver/src/stm32f10x_rcc.c ****     statusreg = RCC->CR;
 2128              		.loc 1 1338 20
 2129 0024 124B     		ldr	r3, .L130
 2130              		.loc 1 1338 15
 2131 0026 1B68     		ldr	r3, [r3]
 2132 0028 7B61     		str	r3, [r7, #20]
 2133 002a 09E0     		b	.L125
 2134              	.L124:
1339:./Libraries/STM32F10x_StdPeriph_Driver/src/stm32f10x_rcc.c ****   }
1340:./Libraries/STM32F10x_StdPeriph_Driver/src/stm32f10x_rcc.c ****   else if (tmp == 2)          /* The flag to check is in BDCR register */
 2135              		.loc 1 1340 11
 2136 002c FB68     		ldr	r3, [r7, #12]
 2137 002e 022B     		cmp	r3, #2
 2138 0030 03D1     		bne	.L126
1341:./Libraries/STM32F10x_StdPeriph_Driver/src/stm32f10x_rcc.c ****   {
1342:./Libraries/STM32F10x_StdPeriph_Driver/src/stm32f10x_rcc.c ****     statusreg = RCC->BDCR;
 2139              		.loc 1 1342 20
 2140 0032 0F4B     		ldr	r3, .L130
 2141              		.loc 1 1342 15
 2142 0034 1B6A     		ldr	r3, [r3, #32]
 2143 0036 7B61     		str	r3, [r7, #20]
 2144 0038 02E0     		b	.L125
 2145              	.L126:
1343:./Libraries/STM32F10x_StdPeriph_Driver/src/stm32f10x_rcc.c ****   }
1344:./Libraries/STM32F10x_StdPeriph_Driver/src/stm32f10x_rcc.c ****   else                       /* The flag to check is in CSR register */
1345:./Libraries/STM32F10x_StdPeriph_Driver/src/stm32f10x_rcc.c ****   {
1346:./Libraries/STM32F10x_StdPeriph_Driver/src/stm32f10x_rcc.c ****     statusreg = RCC->CSR;
 2146              		.loc 1 1346 20
 2147 003a 0D4B     		ldr	r3, .L130
 2148              		.loc 1 1346 15
 2149 003c 5B6A     		ldr	r3, [r3, #36]
 2150 003e 7B61     		str	r3, [r7, #20]
 2151              	.L125:
1347:./Libraries/STM32F10x_StdPeriph_Driver/src/stm32f10x_rcc.c ****   }
1348:./Libraries/STM32F10x_StdPeriph_Driver/src/stm32f10x_rcc.c **** 
1349:./Libraries/STM32F10x_StdPeriph_Driver/src/stm32f10x_rcc.c ****   /* Get the flag position */
ARM GAS  C:\Users\hao\AppData\Local\Temp\cc7h2zwF.s 			page 62


1350:./Libraries/STM32F10x_StdPeriph_Driver/src/stm32f10x_rcc.c ****   tmp = RCC_FLAG & FLAG_Mask;
 2152              		.loc 1 1350 18
 2153 0040 FB79     		ldrb	r3, [r7, #7]	@ zero_extendqisi2
 2154              		.loc 1 1350 7
 2155 0042 03F01F03 		and	r3, r3, #31
 2156 0046 FB60     		str	r3, [r7, #12]
1351:./Libraries/STM32F10x_StdPeriph_Driver/src/stm32f10x_rcc.c ****   if ((statusreg & ((uint32_t)1 << tmp)) != (uint32_t)RESET)
 2157              		.loc 1 1351 42
 2158 0048 7A69     		ldr	r2, [r7, #20]
 2159 004a FB68     		ldr	r3, [r7, #12]
 2160 004c 22FA03F3 		lsr	r3, r2, r3
 2161 0050 03F00103 		and	r3, r3, #1
 2162              		.loc 1 1351 6
 2163 0054 002B     		cmp	r3, #0
 2164 0056 02D0     		beq	.L127
1352:./Libraries/STM32F10x_StdPeriph_Driver/src/stm32f10x_rcc.c ****   {
1353:./Libraries/STM32F10x_StdPeriph_Driver/src/stm32f10x_rcc.c ****     bitstatus = SET;
 2165              		.loc 1 1353 15
 2166 0058 0123     		movs	r3, #1
 2167 005a FB74     		strb	r3, [r7, #19]
 2168 005c 01E0     		b	.L128
 2169              	.L127:
1354:./Libraries/STM32F10x_StdPeriph_Driver/src/stm32f10x_rcc.c ****   }
1355:./Libraries/STM32F10x_StdPeriph_Driver/src/stm32f10x_rcc.c ****   else
1356:./Libraries/STM32F10x_StdPeriph_Driver/src/stm32f10x_rcc.c ****   {
1357:./Libraries/STM32F10x_StdPeriph_Driver/src/stm32f10x_rcc.c ****     bitstatus = RESET;
 2170              		.loc 1 1357 15
 2171 005e 0023     		movs	r3, #0
 2172 0060 FB74     		strb	r3, [r7, #19]
 2173              	.L128:
1358:./Libraries/STM32F10x_StdPeriph_Driver/src/stm32f10x_rcc.c ****   }
1359:./Libraries/STM32F10x_StdPeriph_Driver/src/stm32f10x_rcc.c **** 
1360:./Libraries/STM32F10x_StdPeriph_Driver/src/stm32f10x_rcc.c ****   /* Return the flag status */
1361:./Libraries/STM32F10x_StdPeriph_Driver/src/stm32f10x_rcc.c ****   return bitstatus;
 2174              		.loc 1 1361 10
 2175 0062 FB7C     		ldrb	r3, [r7, #19]	@ zero_extendqisi2
1362:./Libraries/STM32F10x_StdPeriph_Driver/src/stm32f10x_rcc.c **** }
 2176              		.loc 1 1362 1
 2177 0064 1846     		mov	r0, r3
 2178 0066 1C37     		adds	r7, r7, #28
 2179              	.LCFI166:
 2180              		.cfi_def_cfa_offset 4
 2181 0068 BD46     		mov	sp, r7
 2182              	.LCFI167:
 2183              		.cfi_def_cfa_register 13
 2184              		@ sp needed
 2185 006a 80BC     		pop	{r7}
 2186              	.LCFI168:
 2187              		.cfi_restore 7
 2188              		.cfi_def_cfa_offset 0
 2189 006c 7047     		bx	lr
 2190              	.L131:
 2191 006e 00BF     		.align	2
 2192              	.L130:
 2193 0070 00100240 		.word	1073876992
 2194              		.cfi_endproc
 2195              	.LFE57:
ARM GAS  C:\Users\hao\AppData\Local\Temp\cc7h2zwF.s 			page 63


 2197              		.section	.text.RCC_ClearFlag,"ax",%progbits
 2198              		.align	1
 2199              		.global	RCC_ClearFlag
 2200              		.syntax unified
 2201              		.thumb
 2202              		.thumb_func
 2204              	RCC_ClearFlag:
 2205              	.LFB58:
1363:./Libraries/STM32F10x_StdPeriph_Driver/src/stm32f10x_rcc.c **** 
1364:./Libraries/STM32F10x_StdPeriph_Driver/src/stm32f10x_rcc.c **** /**
1365:./Libraries/STM32F10x_StdPeriph_Driver/src/stm32f10x_rcc.c ****   * @brief  Clears the RCC reset flags.
1366:./Libraries/STM32F10x_StdPeriph_Driver/src/stm32f10x_rcc.c ****   * @note   The reset flags are: RCC_FLAG_PINRST, RCC_FLAG_PORRST, RCC_FLAG_SFTRST,
1367:./Libraries/STM32F10x_StdPeriph_Driver/src/stm32f10x_rcc.c ****   *   RCC_FLAG_IWDGRST, RCC_FLAG_WWDGRST, RCC_FLAG_LPWRRST
1368:./Libraries/STM32F10x_StdPeriph_Driver/src/stm32f10x_rcc.c ****   * @param  None
1369:./Libraries/STM32F10x_StdPeriph_Driver/src/stm32f10x_rcc.c ****   * @retval None
1370:./Libraries/STM32F10x_StdPeriph_Driver/src/stm32f10x_rcc.c ****   */
1371:./Libraries/STM32F10x_StdPeriph_Driver/src/stm32f10x_rcc.c **** void RCC_ClearFlag(void)
1372:./Libraries/STM32F10x_StdPeriph_Driver/src/stm32f10x_rcc.c **** {
 2206              		.loc 1 1372 1
 2207              		.cfi_startproc
 2208              		@ args = 0, pretend = 0, frame = 0
 2209              		@ frame_needed = 1, uses_anonymous_args = 0
 2210              		@ link register save eliminated.
 2211 0000 80B4     		push	{r7}
 2212              	.LCFI169:
 2213              		.cfi_def_cfa_offset 4
 2214              		.cfi_offset 7, -4
 2215 0002 00AF     		add	r7, sp, #0
 2216              	.LCFI170:
 2217              		.cfi_def_cfa_register 7
1373:./Libraries/STM32F10x_StdPeriph_Driver/src/stm32f10x_rcc.c ****   /* Set RMVF bit to clear the reset flags */
1374:./Libraries/STM32F10x_StdPeriph_Driver/src/stm32f10x_rcc.c ****   RCC->CSR |= CSR_RMVF_Set;
 2218              		.loc 1 1374 12
 2219 0004 044B     		ldr	r3, .L133
 2220 0006 5B6A     		ldr	r3, [r3, #36]
 2221 0008 034A     		ldr	r2, .L133
 2222 000a 43F08073 		orr	r3, r3, #16777216
 2223 000e 5362     		str	r3, [r2, #36]
1375:./Libraries/STM32F10x_StdPeriph_Driver/src/stm32f10x_rcc.c **** }
 2224              		.loc 1 1375 1
 2225 0010 00BF     		nop
 2226 0012 BD46     		mov	sp, r7
 2227              	.LCFI171:
 2228              		.cfi_def_cfa_register 13
 2229              		@ sp needed
 2230 0014 80BC     		pop	{r7}
 2231              	.LCFI172:
 2232              		.cfi_restore 7
 2233              		.cfi_def_cfa_offset 0
 2234 0016 7047     		bx	lr
 2235              	.L134:
 2236              		.align	2
 2237              	.L133:
 2238 0018 00100240 		.word	1073876992
 2239              		.cfi_endproc
 2240              	.LFE58:
 2242              		.section	.text.RCC_GetITStatus,"ax",%progbits
ARM GAS  C:\Users\hao\AppData\Local\Temp\cc7h2zwF.s 			page 64


 2243              		.align	1
 2244              		.global	RCC_GetITStatus
 2245              		.syntax unified
 2246              		.thumb
 2247              		.thumb_func
 2249              	RCC_GetITStatus:
 2250              	.LFB59:
1376:./Libraries/STM32F10x_StdPeriph_Driver/src/stm32f10x_rcc.c **** 
1377:./Libraries/STM32F10x_StdPeriph_Driver/src/stm32f10x_rcc.c **** /**
1378:./Libraries/STM32F10x_StdPeriph_Driver/src/stm32f10x_rcc.c ****   * @brief  Checks whether the specified RCC interrupt has occurred or not.
1379:./Libraries/STM32F10x_StdPeriph_Driver/src/stm32f10x_rcc.c ****   * @param  RCC_IT: specifies the RCC interrupt source to check.
1380:./Libraries/STM32F10x_StdPeriph_Driver/src/stm32f10x_rcc.c ****   *   
1381:./Libraries/STM32F10x_StdPeriph_Driver/src/stm32f10x_rcc.c ****   *   For @b STM32_Connectivity_line_devices, this parameter can be one of the
1382:./Libraries/STM32F10x_StdPeriph_Driver/src/stm32f10x_rcc.c ****   *   following values:
1383:./Libraries/STM32F10x_StdPeriph_Driver/src/stm32f10x_rcc.c ****   *     @arg RCC_IT_LSIRDY: LSI ready interrupt
1384:./Libraries/STM32F10x_StdPeriph_Driver/src/stm32f10x_rcc.c ****   *     @arg RCC_IT_LSERDY: LSE ready interrupt
1385:./Libraries/STM32F10x_StdPeriph_Driver/src/stm32f10x_rcc.c ****   *     @arg RCC_IT_HSIRDY: HSI ready interrupt
1386:./Libraries/STM32F10x_StdPeriph_Driver/src/stm32f10x_rcc.c ****   *     @arg RCC_IT_HSERDY: HSE ready interrupt
1387:./Libraries/STM32F10x_StdPeriph_Driver/src/stm32f10x_rcc.c ****   *     @arg RCC_IT_PLLRDY: PLL ready interrupt
1388:./Libraries/STM32F10x_StdPeriph_Driver/src/stm32f10x_rcc.c ****   *     @arg RCC_IT_PLL2RDY: PLL2 ready interrupt 
1389:./Libraries/STM32F10x_StdPeriph_Driver/src/stm32f10x_rcc.c ****   *     @arg RCC_IT_PLL3RDY: PLL3 ready interrupt                      
1390:./Libraries/STM32F10x_StdPeriph_Driver/src/stm32f10x_rcc.c ****   *     @arg RCC_IT_CSS: Clock Security System interrupt
1391:./Libraries/STM32F10x_StdPeriph_Driver/src/stm32f10x_rcc.c ****   * 
1392:./Libraries/STM32F10x_StdPeriph_Driver/src/stm32f10x_rcc.c ****   *   For @b other_STM32_devices, this parameter can be one of the following values:        
1393:./Libraries/STM32F10x_StdPeriph_Driver/src/stm32f10x_rcc.c ****   *     @arg RCC_IT_LSIRDY: LSI ready interrupt
1394:./Libraries/STM32F10x_StdPeriph_Driver/src/stm32f10x_rcc.c ****   *     @arg RCC_IT_LSERDY: LSE ready interrupt
1395:./Libraries/STM32F10x_StdPeriph_Driver/src/stm32f10x_rcc.c ****   *     @arg RCC_IT_HSIRDY: HSI ready interrupt
1396:./Libraries/STM32F10x_StdPeriph_Driver/src/stm32f10x_rcc.c ****   *     @arg RCC_IT_HSERDY: HSE ready interrupt
1397:./Libraries/STM32F10x_StdPeriph_Driver/src/stm32f10x_rcc.c ****   *     @arg RCC_IT_PLLRDY: PLL ready interrupt
1398:./Libraries/STM32F10x_StdPeriph_Driver/src/stm32f10x_rcc.c ****   *     @arg RCC_IT_CSS: Clock Security System interrupt
1399:./Libraries/STM32F10x_StdPeriph_Driver/src/stm32f10x_rcc.c ****   *   
1400:./Libraries/STM32F10x_StdPeriph_Driver/src/stm32f10x_rcc.c ****   * @retval The new state of RCC_IT (SET or RESET).
1401:./Libraries/STM32F10x_StdPeriph_Driver/src/stm32f10x_rcc.c ****   */
1402:./Libraries/STM32F10x_StdPeriph_Driver/src/stm32f10x_rcc.c **** ITStatus RCC_GetITStatus(uint8_t RCC_IT)
1403:./Libraries/STM32F10x_StdPeriph_Driver/src/stm32f10x_rcc.c **** {
 2251              		.loc 1 1403 1
 2252              		.cfi_startproc
 2253              		@ args = 0, pretend = 0, frame = 16
 2254              		@ frame_needed = 1, uses_anonymous_args = 0
 2255              		@ link register save eliminated.
 2256 0000 80B4     		push	{r7}
 2257              	.LCFI173:
 2258              		.cfi_def_cfa_offset 4
 2259              		.cfi_offset 7, -4
 2260 0002 85B0     		sub	sp, sp, #20
 2261              	.LCFI174:
 2262              		.cfi_def_cfa_offset 24
 2263 0004 00AF     		add	r7, sp, #0
 2264              	.LCFI175:
 2265              		.cfi_def_cfa_register 7
 2266 0006 0346     		mov	r3, r0
 2267 0008 FB71     		strb	r3, [r7, #7]
1404:./Libraries/STM32F10x_StdPeriph_Driver/src/stm32f10x_rcc.c ****   ITStatus bitstatus = RESET;
 2268              		.loc 1 1404 12
 2269 000a 0023     		movs	r3, #0
 2270 000c FB73     		strb	r3, [r7, #15]
1405:./Libraries/STM32F10x_StdPeriph_Driver/src/stm32f10x_rcc.c ****   /* Check the parameters */
ARM GAS  C:\Users\hao\AppData\Local\Temp\cc7h2zwF.s 			page 65


1406:./Libraries/STM32F10x_StdPeriph_Driver/src/stm32f10x_rcc.c ****   assert_param(IS_RCC_GET_IT(RCC_IT));
1407:./Libraries/STM32F10x_StdPeriph_Driver/src/stm32f10x_rcc.c **** 
1408:./Libraries/STM32F10x_StdPeriph_Driver/src/stm32f10x_rcc.c ****   /* Check the status of the specified RCC interrupt */
1409:./Libraries/STM32F10x_StdPeriph_Driver/src/stm32f10x_rcc.c ****   if ((RCC->CIR & RCC_IT) != (uint32_t)RESET)
 2271              		.loc 1 1409 11
 2272 000e 084B     		ldr	r3, .L139
 2273 0010 9A68     		ldr	r2, [r3, #8]
 2274              		.loc 1 1409 17
 2275 0012 FB79     		ldrb	r3, [r7, #7]	@ zero_extendqisi2
 2276 0014 1340     		ands	r3, r3, r2
 2277              		.loc 1 1409 6
 2278 0016 002B     		cmp	r3, #0
 2279 0018 02D0     		beq	.L136
1410:./Libraries/STM32F10x_StdPeriph_Driver/src/stm32f10x_rcc.c ****   {
1411:./Libraries/STM32F10x_StdPeriph_Driver/src/stm32f10x_rcc.c ****     bitstatus = SET;
 2280              		.loc 1 1411 15
 2281 001a 0123     		movs	r3, #1
 2282 001c FB73     		strb	r3, [r7, #15]
 2283 001e 01E0     		b	.L137
 2284              	.L136:
1412:./Libraries/STM32F10x_StdPeriph_Driver/src/stm32f10x_rcc.c ****   }
1413:./Libraries/STM32F10x_StdPeriph_Driver/src/stm32f10x_rcc.c ****   else
1414:./Libraries/STM32F10x_StdPeriph_Driver/src/stm32f10x_rcc.c ****   {
1415:./Libraries/STM32F10x_StdPeriph_Driver/src/stm32f10x_rcc.c ****     bitstatus = RESET;
 2285              		.loc 1 1415 15
 2286 0020 0023     		movs	r3, #0
 2287 0022 FB73     		strb	r3, [r7, #15]
 2288              	.L137:
1416:./Libraries/STM32F10x_StdPeriph_Driver/src/stm32f10x_rcc.c ****   }
1417:./Libraries/STM32F10x_StdPeriph_Driver/src/stm32f10x_rcc.c **** 
1418:./Libraries/STM32F10x_StdPeriph_Driver/src/stm32f10x_rcc.c ****   /* Return the RCC_IT status */
1419:./Libraries/STM32F10x_StdPeriph_Driver/src/stm32f10x_rcc.c ****   return  bitstatus;
 2289              		.loc 1 1419 11
 2290 0024 FB7B     		ldrb	r3, [r7, #15]	@ zero_extendqisi2
1420:./Libraries/STM32F10x_StdPeriph_Driver/src/stm32f10x_rcc.c **** }
 2291              		.loc 1 1420 1
 2292 0026 1846     		mov	r0, r3
 2293 0028 1437     		adds	r7, r7, #20
 2294              	.LCFI176:
 2295              		.cfi_def_cfa_offset 4
 2296 002a BD46     		mov	sp, r7
 2297              	.LCFI177:
 2298              		.cfi_def_cfa_register 13
 2299              		@ sp needed
 2300 002c 80BC     		pop	{r7}
 2301              	.LCFI178:
 2302              		.cfi_restore 7
 2303              		.cfi_def_cfa_offset 0
 2304 002e 7047     		bx	lr
 2305              	.L140:
 2306              		.align	2
 2307              	.L139:
 2308 0030 00100240 		.word	1073876992
 2309              		.cfi_endproc
 2310              	.LFE59:
 2312              		.section	.text.RCC_ClearITPendingBit,"ax",%progbits
 2313              		.align	1
ARM GAS  C:\Users\hao\AppData\Local\Temp\cc7h2zwF.s 			page 66


 2314              		.global	RCC_ClearITPendingBit
 2315              		.syntax unified
 2316              		.thumb
 2317              		.thumb_func
 2319              	RCC_ClearITPendingBit:
 2320              	.LFB60:
1421:./Libraries/STM32F10x_StdPeriph_Driver/src/stm32f10x_rcc.c **** 
1422:./Libraries/STM32F10x_StdPeriph_Driver/src/stm32f10x_rcc.c **** /**
1423:./Libraries/STM32F10x_StdPeriph_Driver/src/stm32f10x_rcc.c ****   * @brief  Clears the RCC's interrupt pending bits.
1424:./Libraries/STM32F10x_StdPeriph_Driver/src/stm32f10x_rcc.c ****   * @param  RCC_IT: specifies the interrupt pending bit to clear.
1425:./Libraries/STM32F10x_StdPeriph_Driver/src/stm32f10x_rcc.c ****   *   
1426:./Libraries/STM32F10x_StdPeriph_Driver/src/stm32f10x_rcc.c ****   *   For @b STM32_Connectivity_line_devices, this parameter can be any combination
1427:./Libraries/STM32F10x_StdPeriph_Driver/src/stm32f10x_rcc.c ****   *   of the following values:
1428:./Libraries/STM32F10x_StdPeriph_Driver/src/stm32f10x_rcc.c ****   *     @arg RCC_IT_LSIRDY: LSI ready interrupt
1429:./Libraries/STM32F10x_StdPeriph_Driver/src/stm32f10x_rcc.c ****   *     @arg RCC_IT_LSERDY: LSE ready interrupt
1430:./Libraries/STM32F10x_StdPeriph_Driver/src/stm32f10x_rcc.c ****   *     @arg RCC_IT_HSIRDY: HSI ready interrupt
1431:./Libraries/STM32F10x_StdPeriph_Driver/src/stm32f10x_rcc.c ****   *     @arg RCC_IT_HSERDY: HSE ready interrupt
1432:./Libraries/STM32F10x_StdPeriph_Driver/src/stm32f10x_rcc.c ****   *     @arg RCC_IT_PLLRDY: PLL ready interrupt
1433:./Libraries/STM32F10x_StdPeriph_Driver/src/stm32f10x_rcc.c ****   *     @arg RCC_IT_PLL2RDY: PLL2 ready interrupt 
1434:./Libraries/STM32F10x_StdPeriph_Driver/src/stm32f10x_rcc.c ****   *     @arg RCC_IT_PLL3RDY: PLL3 ready interrupt                      
1435:./Libraries/STM32F10x_StdPeriph_Driver/src/stm32f10x_rcc.c ****   *     @arg RCC_IT_CSS: Clock Security System interrupt
1436:./Libraries/STM32F10x_StdPeriph_Driver/src/stm32f10x_rcc.c ****   * 
1437:./Libraries/STM32F10x_StdPeriph_Driver/src/stm32f10x_rcc.c ****   *   For @b other_STM32_devices, this parameter can be any combination of the
1438:./Libraries/STM32F10x_StdPeriph_Driver/src/stm32f10x_rcc.c ****   *   following values:        
1439:./Libraries/STM32F10x_StdPeriph_Driver/src/stm32f10x_rcc.c ****   *     @arg RCC_IT_LSIRDY: LSI ready interrupt
1440:./Libraries/STM32F10x_StdPeriph_Driver/src/stm32f10x_rcc.c ****   *     @arg RCC_IT_LSERDY: LSE ready interrupt
1441:./Libraries/STM32F10x_StdPeriph_Driver/src/stm32f10x_rcc.c ****   *     @arg RCC_IT_HSIRDY: HSI ready interrupt
1442:./Libraries/STM32F10x_StdPeriph_Driver/src/stm32f10x_rcc.c ****   *     @arg RCC_IT_HSERDY: HSE ready interrupt
1443:./Libraries/STM32F10x_StdPeriph_Driver/src/stm32f10x_rcc.c ****   *     @arg RCC_IT_PLLRDY: PLL ready interrupt
1444:./Libraries/STM32F10x_StdPeriph_Driver/src/stm32f10x_rcc.c ****   *   
1445:./Libraries/STM32F10x_StdPeriph_Driver/src/stm32f10x_rcc.c ****   *     @arg RCC_IT_CSS: Clock Security System interrupt
1446:./Libraries/STM32F10x_StdPeriph_Driver/src/stm32f10x_rcc.c ****   * @retval None
1447:./Libraries/STM32F10x_StdPeriph_Driver/src/stm32f10x_rcc.c ****   */
1448:./Libraries/STM32F10x_StdPeriph_Driver/src/stm32f10x_rcc.c **** void RCC_ClearITPendingBit(uint8_t RCC_IT)
1449:./Libraries/STM32F10x_StdPeriph_Driver/src/stm32f10x_rcc.c **** {
 2321              		.loc 1 1449 1
 2322              		.cfi_startproc
 2323              		@ args = 0, pretend = 0, frame = 8
 2324              		@ frame_needed = 1, uses_anonymous_args = 0
 2325              		@ link register save eliminated.
 2326 0000 80B4     		push	{r7}
 2327              	.LCFI179:
 2328              		.cfi_def_cfa_offset 4
 2329              		.cfi_offset 7, -4
 2330 0002 83B0     		sub	sp, sp, #12
 2331              	.LCFI180:
 2332              		.cfi_def_cfa_offset 16
 2333 0004 00AF     		add	r7, sp, #0
 2334              	.LCFI181:
 2335              		.cfi_def_cfa_register 7
 2336 0006 0346     		mov	r3, r0
 2337 0008 FB71     		strb	r3, [r7, #7]
1450:./Libraries/STM32F10x_StdPeriph_Driver/src/stm32f10x_rcc.c ****   /* Check the parameters */
1451:./Libraries/STM32F10x_StdPeriph_Driver/src/stm32f10x_rcc.c ****   assert_param(IS_RCC_CLEAR_IT(RCC_IT));
1452:./Libraries/STM32F10x_StdPeriph_Driver/src/stm32f10x_rcc.c **** 
1453:./Libraries/STM32F10x_StdPeriph_Driver/src/stm32f10x_rcc.c ****   /* Perform Byte access to RCC_CIR[23:16] bits to clear the selected interrupt
1454:./Libraries/STM32F10x_StdPeriph_Driver/src/stm32f10x_rcc.c ****      pending bits */
ARM GAS  C:\Users\hao\AppData\Local\Temp\cc7h2zwF.s 			page 67


1455:./Libraries/STM32F10x_StdPeriph_Driver/src/stm32f10x_rcc.c ****   *(__IO uint8_t *) CIR_BYTE3_ADDRESS = RCC_IT;
 2338              		.loc 1 1455 3
 2339 000a 044A     		ldr	r2, .L142
 2340              		.loc 1 1455 39
 2341 000c FB79     		ldrb	r3, [r7, #7]
 2342 000e 1370     		strb	r3, [r2]
1456:./Libraries/STM32F10x_StdPeriph_Driver/src/stm32f10x_rcc.c **** }
 2343              		.loc 1 1456 1
 2344 0010 00BF     		nop
 2345 0012 0C37     		adds	r7, r7, #12
 2346              	.LCFI182:
 2347              		.cfi_def_cfa_offset 4
 2348 0014 BD46     		mov	sp, r7
 2349              	.LCFI183:
 2350              		.cfi_def_cfa_register 13
 2351              		@ sp needed
 2352 0016 80BC     		pop	{r7}
 2353              	.LCFI184:
 2354              		.cfi_restore 7
 2355              		.cfi_def_cfa_offset 0
 2356 0018 7047     		bx	lr
 2357              	.L143:
 2358 001a 00BF     		.align	2
 2359              	.L142:
 2360 001c 0A100240 		.word	1073877002
 2361              		.cfi_endproc
 2362              	.LFE60:
 2364              		.text
 2365              	.Letext0:
 2366              		.file 2 "c:\\gcc-arm-none-eabi\\arm-none-eabi\\include\\machine\\_default_types.h"
 2367              		.file 3 "c:\\gcc-arm-none-eabi\\arm-none-eabi\\include\\sys\\_stdint.h"
 2368              		.file 4 "./Libraries/CMSIS/stm32f10x.h"
 2369              		.file 5 "./Libraries/STM32F10x_StdPeriph_Driver/inc/stm32f10x_rcc.h"
ARM GAS  C:\Users\hao\AppData\Local\Temp\cc7h2zwF.s 			page 68

