ARM GAS  C:\Users\hao\AppData\Local\Temp\ccUSoOKU.s 			page 1


   1              		.cpu cortex-m3
   2              		.arch armv7-m
   3              		.fpu softvfp
   4              		.eabi_attribute 20, 1
   5              		.eabi_attribute 21, 1
   6              		.eabi_attribute 23, 3
   7              		.eabi_attribute 24, 1
   8              		.eabi_attribute 25, 1
   9              		.eabi_attribute 26, 1
  10              		.eabi_attribute 30, 6
  11              		.eabi_attribute 34, 1
  12              		.eabi_attribute 18, 4
  13              		.file	"stm32f10x_usart.c"
  14              		.text
  15              	.Ltext0:
  16              		.cfi_sections	.debug_frame
  17              		.section	.text.USART_DeInit,"ax",%progbits
  18              		.align	1
  19              		.global	USART_DeInit
  20              		.syntax unified
  21              		.thumb
  22              		.thumb_func
  24              	USART_DeInit:
  25              	.LFB29:
  26              		.file 1 "./Libraries/STM32F10x_StdPeriph_Driver/src/stm32f10x_usart.c"
   1:./Libraries/STM32F10x_StdPeriph_Driver/src/stm32f10x_usart.c **** /**
   2:./Libraries/STM32F10x_StdPeriph_Driver/src/stm32f10x_usart.c ****   ******************************************************************************
   3:./Libraries/STM32F10x_StdPeriph_Driver/src/stm32f10x_usart.c ****   * @file    stm32f10x_usart.c
   4:./Libraries/STM32F10x_StdPeriph_Driver/src/stm32f10x_usart.c ****   * @author  MCD Application Team
   5:./Libraries/STM32F10x_StdPeriph_Driver/src/stm32f10x_usart.c ****   * @version V3.5.0
   6:./Libraries/STM32F10x_StdPeriph_Driver/src/stm32f10x_usart.c ****   * @date    11-March-2011
   7:./Libraries/STM32F10x_StdPeriph_Driver/src/stm32f10x_usart.c ****   * @brief   This file provides all the USART firmware functions.
   8:./Libraries/STM32F10x_StdPeriph_Driver/src/stm32f10x_usart.c ****   ******************************************************************************
   9:./Libraries/STM32F10x_StdPeriph_Driver/src/stm32f10x_usart.c ****   * @attention
  10:./Libraries/STM32F10x_StdPeriph_Driver/src/stm32f10x_usart.c ****   *
  11:./Libraries/STM32F10x_StdPeriph_Driver/src/stm32f10x_usart.c ****   * THE PRESENT FIRMWARE WHICH IS FOR GUIDANCE ONLY AIMS AT PROVIDING CUSTOMERS
  12:./Libraries/STM32F10x_StdPeriph_Driver/src/stm32f10x_usart.c ****   * WITH CODING INFORMATION REGARDING THEIR PRODUCTS IN ORDER FOR THEM TO SAVE
  13:./Libraries/STM32F10x_StdPeriph_Driver/src/stm32f10x_usart.c ****   * TIME. AS A RESULT, STMICROELECTRONICS SHALL NOT BE HELD LIABLE FOR ANY
  14:./Libraries/STM32F10x_StdPeriph_Driver/src/stm32f10x_usart.c ****   * DIRECT, INDIRECT OR CONSEQUENTIAL DAMAGES WITH RESPECT TO ANY CLAIMS ARISING
  15:./Libraries/STM32F10x_StdPeriph_Driver/src/stm32f10x_usart.c ****   * FROM THE CONTENT OF SUCH FIRMWARE AND/OR THE USE MADE BY CUSTOMERS OF THE
  16:./Libraries/STM32F10x_StdPeriph_Driver/src/stm32f10x_usart.c ****   * CODING INFORMATION CONTAINED HEREIN IN CONNECTION WITH THEIR PRODUCTS.
  17:./Libraries/STM32F10x_StdPeriph_Driver/src/stm32f10x_usart.c ****   *
  18:./Libraries/STM32F10x_StdPeriph_Driver/src/stm32f10x_usart.c ****   * <h2><center>&copy; COPYRIGHT 2011 STMicroelectronics</center></h2>
  19:./Libraries/STM32F10x_StdPeriph_Driver/src/stm32f10x_usart.c ****   ******************************************************************************
  20:./Libraries/STM32F10x_StdPeriph_Driver/src/stm32f10x_usart.c ****   */
  21:./Libraries/STM32F10x_StdPeriph_Driver/src/stm32f10x_usart.c **** 
  22:./Libraries/STM32F10x_StdPeriph_Driver/src/stm32f10x_usart.c **** /* Includes ------------------------------------------------------------------*/
  23:./Libraries/STM32F10x_StdPeriph_Driver/src/stm32f10x_usart.c **** #include "stm32f10x_usart.h"
  24:./Libraries/STM32F10x_StdPeriph_Driver/src/stm32f10x_usart.c **** #include "stm32f10x_rcc.h"
  25:./Libraries/STM32F10x_StdPeriph_Driver/src/stm32f10x_usart.c **** 
  26:./Libraries/STM32F10x_StdPeriph_Driver/src/stm32f10x_usart.c **** /** @addtogroup STM32F10x_StdPeriph_Driver
  27:./Libraries/STM32F10x_StdPeriph_Driver/src/stm32f10x_usart.c ****   * @{
  28:./Libraries/STM32F10x_StdPeriph_Driver/src/stm32f10x_usart.c ****   */
  29:./Libraries/STM32F10x_StdPeriph_Driver/src/stm32f10x_usart.c **** 
  30:./Libraries/STM32F10x_StdPeriph_Driver/src/stm32f10x_usart.c **** /** @defgroup USART 
  31:./Libraries/STM32F10x_StdPeriph_Driver/src/stm32f10x_usart.c ****   * @brief USART driver modules
  32:./Libraries/STM32F10x_StdPeriph_Driver/src/stm32f10x_usart.c ****   * @{
ARM GAS  C:\Users\hao\AppData\Local\Temp\ccUSoOKU.s 			page 2


  33:./Libraries/STM32F10x_StdPeriph_Driver/src/stm32f10x_usart.c ****   */
  34:./Libraries/STM32F10x_StdPeriph_Driver/src/stm32f10x_usart.c **** 
  35:./Libraries/STM32F10x_StdPeriph_Driver/src/stm32f10x_usart.c **** /** @defgroup USART_Private_TypesDefinitions
  36:./Libraries/STM32F10x_StdPeriph_Driver/src/stm32f10x_usart.c ****   * @{
  37:./Libraries/STM32F10x_StdPeriph_Driver/src/stm32f10x_usart.c ****   */
  38:./Libraries/STM32F10x_StdPeriph_Driver/src/stm32f10x_usart.c **** 
  39:./Libraries/STM32F10x_StdPeriph_Driver/src/stm32f10x_usart.c **** /**
  40:./Libraries/STM32F10x_StdPeriph_Driver/src/stm32f10x_usart.c ****   * @}
  41:./Libraries/STM32F10x_StdPeriph_Driver/src/stm32f10x_usart.c ****   */
  42:./Libraries/STM32F10x_StdPeriph_Driver/src/stm32f10x_usart.c **** 
  43:./Libraries/STM32F10x_StdPeriph_Driver/src/stm32f10x_usart.c **** /** @defgroup USART_Private_Defines
  44:./Libraries/STM32F10x_StdPeriph_Driver/src/stm32f10x_usart.c ****   * @{
  45:./Libraries/STM32F10x_StdPeriph_Driver/src/stm32f10x_usart.c ****   */
  46:./Libraries/STM32F10x_StdPeriph_Driver/src/stm32f10x_usart.c **** 
  47:./Libraries/STM32F10x_StdPeriph_Driver/src/stm32f10x_usart.c **** #define CR1_UE_Set                ((uint16_t)0x2000)  /*!< USART Enable Mask */
  48:./Libraries/STM32F10x_StdPeriph_Driver/src/stm32f10x_usart.c **** #define CR1_UE_Reset              ((uint16_t)0xDFFF)  /*!< USART Disable Mask */
  49:./Libraries/STM32F10x_StdPeriph_Driver/src/stm32f10x_usart.c **** 
  50:./Libraries/STM32F10x_StdPeriph_Driver/src/stm32f10x_usart.c **** #define CR1_WAKE_Mask             ((uint16_t)0xF7FF)  /*!< USART WakeUp Method Mask */
  51:./Libraries/STM32F10x_StdPeriph_Driver/src/stm32f10x_usart.c **** 
  52:./Libraries/STM32F10x_StdPeriph_Driver/src/stm32f10x_usart.c **** #define CR1_RWU_Set               ((uint16_t)0x0002)  /*!< USART mute mode Enable Mask */
  53:./Libraries/STM32F10x_StdPeriph_Driver/src/stm32f10x_usart.c **** #define CR1_RWU_Reset             ((uint16_t)0xFFFD)  /*!< USART mute mode Enable Mask */
  54:./Libraries/STM32F10x_StdPeriph_Driver/src/stm32f10x_usart.c **** #define CR1_SBK_Set               ((uint16_t)0x0001)  /*!< USART Break Character send Mask */
  55:./Libraries/STM32F10x_StdPeriph_Driver/src/stm32f10x_usart.c **** #define CR1_CLEAR_Mask            ((uint16_t)0xE9F3)  /*!< USART CR1 Mask */
  56:./Libraries/STM32F10x_StdPeriph_Driver/src/stm32f10x_usart.c **** #define CR2_Address_Mask          ((uint16_t)0xFFF0)  /*!< USART address Mask */
  57:./Libraries/STM32F10x_StdPeriph_Driver/src/stm32f10x_usart.c **** 
  58:./Libraries/STM32F10x_StdPeriph_Driver/src/stm32f10x_usart.c **** #define CR2_LINEN_Set              ((uint16_t)0x4000)  /*!< USART LIN Enable Mask */
  59:./Libraries/STM32F10x_StdPeriph_Driver/src/stm32f10x_usart.c **** #define CR2_LINEN_Reset            ((uint16_t)0xBFFF)  /*!< USART LIN Disable Mask */
  60:./Libraries/STM32F10x_StdPeriph_Driver/src/stm32f10x_usart.c **** 
  61:./Libraries/STM32F10x_StdPeriph_Driver/src/stm32f10x_usart.c **** #define CR2_LBDL_Mask             ((uint16_t)0xFFDF)  /*!< USART LIN Break detection Mask */
  62:./Libraries/STM32F10x_StdPeriph_Driver/src/stm32f10x_usart.c **** #define CR2_STOP_CLEAR_Mask       ((uint16_t)0xCFFF)  /*!< USART CR2 STOP Bits Mask */
  63:./Libraries/STM32F10x_StdPeriph_Driver/src/stm32f10x_usart.c **** #define CR2_CLOCK_CLEAR_Mask      ((uint16_t)0xF0FF)  /*!< USART CR2 Clock Mask */
  64:./Libraries/STM32F10x_StdPeriph_Driver/src/stm32f10x_usart.c **** 
  65:./Libraries/STM32F10x_StdPeriph_Driver/src/stm32f10x_usart.c **** #define CR3_SCEN_Set              ((uint16_t)0x0020)  /*!< USART SC Enable Mask */
  66:./Libraries/STM32F10x_StdPeriph_Driver/src/stm32f10x_usart.c **** #define CR3_SCEN_Reset            ((uint16_t)0xFFDF)  /*!< USART SC Disable Mask */
  67:./Libraries/STM32F10x_StdPeriph_Driver/src/stm32f10x_usart.c **** 
  68:./Libraries/STM32F10x_StdPeriph_Driver/src/stm32f10x_usart.c **** #define CR3_NACK_Set              ((uint16_t)0x0010)  /*!< USART SC NACK Enable Mask */
  69:./Libraries/STM32F10x_StdPeriph_Driver/src/stm32f10x_usart.c **** #define CR3_NACK_Reset            ((uint16_t)0xFFEF)  /*!< USART SC NACK Disable Mask */
  70:./Libraries/STM32F10x_StdPeriph_Driver/src/stm32f10x_usart.c **** 
  71:./Libraries/STM32F10x_StdPeriph_Driver/src/stm32f10x_usart.c **** #define CR3_HDSEL_Set             ((uint16_t)0x0008)  /*!< USART Half-Duplex Enable Mask */
  72:./Libraries/STM32F10x_StdPeriph_Driver/src/stm32f10x_usart.c **** #define CR3_HDSEL_Reset           ((uint16_t)0xFFF7)  /*!< USART Half-Duplex Disable Mask */
  73:./Libraries/STM32F10x_StdPeriph_Driver/src/stm32f10x_usart.c **** 
  74:./Libraries/STM32F10x_StdPeriph_Driver/src/stm32f10x_usart.c **** #define CR3_IRLP_Mask             ((uint16_t)0xFFFB)  /*!< USART IrDA LowPower mode Mask */
  75:./Libraries/STM32F10x_StdPeriph_Driver/src/stm32f10x_usart.c **** #define CR3_CLEAR_Mask            ((uint16_t)0xFCFF)  /*!< USART CR3 Mask */
  76:./Libraries/STM32F10x_StdPeriph_Driver/src/stm32f10x_usart.c **** 
  77:./Libraries/STM32F10x_StdPeriph_Driver/src/stm32f10x_usart.c **** #define CR3_IREN_Set              ((uint16_t)0x0002)  /*!< USART IrDA Enable Mask */
  78:./Libraries/STM32F10x_StdPeriph_Driver/src/stm32f10x_usart.c **** #define CR3_IREN_Reset            ((uint16_t)0xFFFD)  /*!< USART IrDA Disable Mask */
  79:./Libraries/STM32F10x_StdPeriph_Driver/src/stm32f10x_usart.c **** #define GTPR_LSB_Mask             ((uint16_t)0x00FF)  /*!< Guard Time Register LSB Mask */
  80:./Libraries/STM32F10x_StdPeriph_Driver/src/stm32f10x_usart.c **** #define GTPR_MSB_Mask             ((uint16_t)0xFF00)  /*!< Guard Time Register MSB Mask */
  81:./Libraries/STM32F10x_StdPeriph_Driver/src/stm32f10x_usart.c **** #define IT_Mask                   ((uint16_t)0x001F)  /*!< USART Interrupt Mask */
  82:./Libraries/STM32F10x_StdPeriph_Driver/src/stm32f10x_usart.c **** 
  83:./Libraries/STM32F10x_StdPeriph_Driver/src/stm32f10x_usart.c **** /* USART OverSampling-8 Mask */
  84:./Libraries/STM32F10x_StdPeriph_Driver/src/stm32f10x_usart.c **** #define CR1_OVER8_Set             ((u16)0x8000)  /* USART OVER8 mode Enable Mask */
  85:./Libraries/STM32F10x_StdPeriph_Driver/src/stm32f10x_usart.c **** #define CR1_OVER8_Reset           ((u16)0x7FFF)  /* USART OVER8 mode Disable Mask */
  86:./Libraries/STM32F10x_StdPeriph_Driver/src/stm32f10x_usart.c **** 
  87:./Libraries/STM32F10x_StdPeriph_Driver/src/stm32f10x_usart.c **** /* USART One Bit Sampling Mask */
  88:./Libraries/STM32F10x_StdPeriph_Driver/src/stm32f10x_usart.c **** #define CR3_ONEBITE_Set           ((u16)0x0800)  /* USART ONEBITE mode Enable Mask */
  89:./Libraries/STM32F10x_StdPeriph_Driver/src/stm32f10x_usart.c **** #define CR3_ONEBITE_Reset         ((u16)0xF7FF)  /* USART ONEBITE mode Disable Mask */
ARM GAS  C:\Users\hao\AppData\Local\Temp\ccUSoOKU.s 			page 3


  90:./Libraries/STM32F10x_StdPeriph_Driver/src/stm32f10x_usart.c **** 
  91:./Libraries/STM32F10x_StdPeriph_Driver/src/stm32f10x_usart.c **** /**
  92:./Libraries/STM32F10x_StdPeriph_Driver/src/stm32f10x_usart.c ****   * @}
  93:./Libraries/STM32F10x_StdPeriph_Driver/src/stm32f10x_usart.c ****   */
  94:./Libraries/STM32F10x_StdPeriph_Driver/src/stm32f10x_usart.c **** 
  95:./Libraries/STM32F10x_StdPeriph_Driver/src/stm32f10x_usart.c **** /** @defgroup USART_Private_Macros
  96:./Libraries/STM32F10x_StdPeriph_Driver/src/stm32f10x_usart.c ****   * @{
  97:./Libraries/STM32F10x_StdPeriph_Driver/src/stm32f10x_usart.c ****   */
  98:./Libraries/STM32F10x_StdPeriph_Driver/src/stm32f10x_usart.c **** 
  99:./Libraries/STM32F10x_StdPeriph_Driver/src/stm32f10x_usart.c **** /**
 100:./Libraries/STM32F10x_StdPeriph_Driver/src/stm32f10x_usart.c ****   * @}
 101:./Libraries/STM32F10x_StdPeriph_Driver/src/stm32f10x_usart.c ****   */
 102:./Libraries/STM32F10x_StdPeriph_Driver/src/stm32f10x_usart.c **** 
 103:./Libraries/STM32F10x_StdPeriph_Driver/src/stm32f10x_usart.c **** /** @defgroup USART_Private_Variables
 104:./Libraries/STM32F10x_StdPeriph_Driver/src/stm32f10x_usart.c ****   * @{
 105:./Libraries/STM32F10x_StdPeriph_Driver/src/stm32f10x_usart.c ****   */
 106:./Libraries/STM32F10x_StdPeriph_Driver/src/stm32f10x_usart.c **** 
 107:./Libraries/STM32F10x_StdPeriph_Driver/src/stm32f10x_usart.c **** /**
 108:./Libraries/STM32F10x_StdPeriph_Driver/src/stm32f10x_usart.c ****   * @}
 109:./Libraries/STM32F10x_StdPeriph_Driver/src/stm32f10x_usart.c ****   */
 110:./Libraries/STM32F10x_StdPeriph_Driver/src/stm32f10x_usart.c **** 
 111:./Libraries/STM32F10x_StdPeriph_Driver/src/stm32f10x_usart.c **** /** @defgroup USART_Private_FunctionPrototypes
 112:./Libraries/STM32F10x_StdPeriph_Driver/src/stm32f10x_usart.c ****   * @{
 113:./Libraries/STM32F10x_StdPeriph_Driver/src/stm32f10x_usart.c ****   */
 114:./Libraries/STM32F10x_StdPeriph_Driver/src/stm32f10x_usart.c **** 
 115:./Libraries/STM32F10x_StdPeriph_Driver/src/stm32f10x_usart.c **** /**
 116:./Libraries/STM32F10x_StdPeriph_Driver/src/stm32f10x_usart.c ****   * @}
 117:./Libraries/STM32F10x_StdPeriph_Driver/src/stm32f10x_usart.c ****   */
 118:./Libraries/STM32F10x_StdPeriph_Driver/src/stm32f10x_usart.c **** 
 119:./Libraries/STM32F10x_StdPeriph_Driver/src/stm32f10x_usart.c **** /** @defgroup USART_Private_Functions
 120:./Libraries/STM32F10x_StdPeriph_Driver/src/stm32f10x_usart.c ****   * @{
 121:./Libraries/STM32F10x_StdPeriph_Driver/src/stm32f10x_usart.c ****   */
 122:./Libraries/STM32F10x_StdPeriph_Driver/src/stm32f10x_usart.c **** 
 123:./Libraries/STM32F10x_StdPeriph_Driver/src/stm32f10x_usart.c **** /**
 124:./Libraries/STM32F10x_StdPeriph_Driver/src/stm32f10x_usart.c ****   * @brief  Deinitializes the USARTx peripheral registers to their default reset values.
 125:./Libraries/STM32F10x_StdPeriph_Driver/src/stm32f10x_usart.c ****   * @param  USARTx: Select the USART or the UART peripheral. 
 126:./Libraries/STM32F10x_StdPeriph_Driver/src/stm32f10x_usart.c ****   *   This parameter can be one of the following values: 
 127:./Libraries/STM32F10x_StdPeriph_Driver/src/stm32f10x_usart.c ****   *      USART1, USART2, USART3, UART4 or UART5.
 128:./Libraries/STM32F10x_StdPeriph_Driver/src/stm32f10x_usart.c ****   * @retval None
 129:./Libraries/STM32F10x_StdPeriph_Driver/src/stm32f10x_usart.c ****   */
 130:./Libraries/STM32F10x_StdPeriph_Driver/src/stm32f10x_usart.c **** void USART_DeInit(USART_TypeDef* USARTx)
 131:./Libraries/STM32F10x_StdPeriph_Driver/src/stm32f10x_usart.c **** {
  27              		.loc 1 131 1
  28              		.cfi_startproc
  29              		@ args = 0, pretend = 0, frame = 8
  30              		@ frame_needed = 1, uses_anonymous_args = 0
  31 0000 80B5     		push	{r7, lr}
  32              	.LCFI0:
  33              		.cfi_def_cfa_offset 8
  34              		.cfi_offset 7, -8
  35              		.cfi_offset 14, -4
  36 0002 82B0     		sub	sp, sp, #8
  37              	.LCFI1:
  38              		.cfi_def_cfa_offset 16
  39 0004 00AF     		add	r7, sp, #0
  40              	.LCFI2:
  41              		.cfi_def_cfa_register 7
ARM GAS  C:\Users\hao\AppData\Local\Temp\ccUSoOKU.s 			page 4


  42 0006 7860     		str	r0, [r7, #4]
 132:./Libraries/STM32F10x_StdPeriph_Driver/src/stm32f10x_usart.c ****   /* Check the parameters */
 133:./Libraries/STM32F10x_StdPeriph_Driver/src/stm32f10x_usart.c ****   assert_param(IS_USART_ALL_PERIPH(USARTx));
 134:./Libraries/STM32F10x_StdPeriph_Driver/src/stm32f10x_usart.c **** 
 135:./Libraries/STM32F10x_StdPeriph_Driver/src/stm32f10x_usart.c ****   if (USARTx == USART1)
  43              		.loc 1 135 6
  44 0008 7B68     		ldr	r3, [r7, #4]
  45 000a 264A     		ldr	r2, .L8
  46 000c 9342     		cmp	r3, r2
  47 000e 0AD1     		bne	.L2
 136:./Libraries/STM32F10x_StdPeriph_Driver/src/stm32f10x_usart.c ****   {
 137:./Libraries/STM32F10x_StdPeriph_Driver/src/stm32f10x_usart.c ****     RCC_APB2PeriphResetCmd(RCC_APB2Periph_USART1, ENABLE);
  48              		.loc 1 137 5
  49 0010 0121     		movs	r1, #1
  50 0012 4FF48040 		mov	r0, #16384
  51 0016 FFF7FEFF 		bl	RCC_APB2PeriphResetCmd
 138:./Libraries/STM32F10x_StdPeriph_Driver/src/stm32f10x_usart.c ****     RCC_APB2PeriphResetCmd(RCC_APB2Periph_USART1, DISABLE);
  52              		.loc 1 138 5
  53 001a 0021     		movs	r1, #0
  54 001c 4FF48040 		mov	r0, #16384
  55 0020 FFF7FEFF 		bl	RCC_APB2PeriphResetCmd
 139:./Libraries/STM32F10x_StdPeriph_Driver/src/stm32f10x_usart.c ****   }
 140:./Libraries/STM32F10x_StdPeriph_Driver/src/stm32f10x_usart.c ****   else if (USARTx == USART2)
 141:./Libraries/STM32F10x_StdPeriph_Driver/src/stm32f10x_usart.c ****   {
 142:./Libraries/STM32F10x_StdPeriph_Driver/src/stm32f10x_usart.c ****     RCC_APB1PeriphResetCmd(RCC_APB1Periph_USART2, ENABLE);
 143:./Libraries/STM32F10x_StdPeriph_Driver/src/stm32f10x_usart.c ****     RCC_APB1PeriphResetCmd(RCC_APB1Periph_USART2, DISABLE);
 144:./Libraries/STM32F10x_StdPeriph_Driver/src/stm32f10x_usart.c ****   }
 145:./Libraries/STM32F10x_StdPeriph_Driver/src/stm32f10x_usart.c ****   else if (USARTx == USART3)
 146:./Libraries/STM32F10x_StdPeriph_Driver/src/stm32f10x_usart.c ****   {
 147:./Libraries/STM32F10x_StdPeriph_Driver/src/stm32f10x_usart.c ****     RCC_APB1PeriphResetCmd(RCC_APB1Periph_USART3, ENABLE);
 148:./Libraries/STM32F10x_StdPeriph_Driver/src/stm32f10x_usart.c ****     RCC_APB1PeriphResetCmd(RCC_APB1Periph_USART3, DISABLE);
 149:./Libraries/STM32F10x_StdPeriph_Driver/src/stm32f10x_usart.c ****   }    
 150:./Libraries/STM32F10x_StdPeriph_Driver/src/stm32f10x_usart.c ****   else if (USARTx == UART4)
 151:./Libraries/STM32F10x_StdPeriph_Driver/src/stm32f10x_usart.c ****   {
 152:./Libraries/STM32F10x_StdPeriph_Driver/src/stm32f10x_usart.c ****     RCC_APB1PeriphResetCmd(RCC_APB1Periph_UART4, ENABLE);
 153:./Libraries/STM32F10x_StdPeriph_Driver/src/stm32f10x_usart.c ****     RCC_APB1PeriphResetCmd(RCC_APB1Periph_UART4, DISABLE);
 154:./Libraries/STM32F10x_StdPeriph_Driver/src/stm32f10x_usart.c ****   }    
 155:./Libraries/STM32F10x_StdPeriph_Driver/src/stm32f10x_usart.c ****   else
 156:./Libraries/STM32F10x_StdPeriph_Driver/src/stm32f10x_usart.c ****   {
 157:./Libraries/STM32F10x_StdPeriph_Driver/src/stm32f10x_usart.c ****     if (USARTx == UART5)
 158:./Libraries/STM32F10x_StdPeriph_Driver/src/stm32f10x_usart.c ****     { 
 159:./Libraries/STM32F10x_StdPeriph_Driver/src/stm32f10x_usart.c ****       RCC_APB1PeriphResetCmd(RCC_APB1Periph_UART5, ENABLE);
 160:./Libraries/STM32F10x_StdPeriph_Driver/src/stm32f10x_usart.c ****       RCC_APB1PeriphResetCmd(RCC_APB1Periph_UART5, DISABLE);
 161:./Libraries/STM32F10x_StdPeriph_Driver/src/stm32f10x_usart.c ****     }
 162:./Libraries/STM32F10x_StdPeriph_Driver/src/stm32f10x_usart.c ****   }
 163:./Libraries/STM32F10x_StdPeriph_Driver/src/stm32f10x_usart.c **** }
  56              		.loc 1 163 1
  57 0024 3AE0     		b	.L7
  58              	.L2:
 140:./Libraries/STM32F10x_StdPeriph_Driver/src/stm32f10x_usart.c ****   {
  59              		.loc 1 140 11
  60 0026 7B68     		ldr	r3, [r7, #4]
  61 0028 1F4A     		ldr	r2, .L8+4
  62 002a 9342     		cmp	r3, r2
  63 002c 0AD1     		bne	.L4
 142:./Libraries/STM32F10x_StdPeriph_Driver/src/stm32f10x_usart.c ****     RCC_APB1PeriphResetCmd(RCC_APB1Periph_USART2, DISABLE);
  64              		.loc 1 142 5
ARM GAS  C:\Users\hao\AppData\Local\Temp\ccUSoOKU.s 			page 5


  65 002e 0121     		movs	r1, #1
  66 0030 4FF40030 		mov	r0, #131072
  67 0034 FFF7FEFF 		bl	RCC_APB1PeriphResetCmd
 143:./Libraries/STM32F10x_StdPeriph_Driver/src/stm32f10x_usart.c ****   }
  68              		.loc 1 143 5
  69 0038 0021     		movs	r1, #0
  70 003a 4FF40030 		mov	r0, #131072
  71 003e FFF7FEFF 		bl	RCC_APB1PeriphResetCmd
  72              		.loc 1 163 1
  73 0042 2BE0     		b	.L7
  74              	.L4:
 145:./Libraries/STM32F10x_StdPeriph_Driver/src/stm32f10x_usart.c ****   {
  75              		.loc 1 145 11
  76 0044 7B68     		ldr	r3, [r7, #4]
  77 0046 194A     		ldr	r2, .L8+8
  78 0048 9342     		cmp	r3, r2
  79 004a 0AD1     		bne	.L5
 147:./Libraries/STM32F10x_StdPeriph_Driver/src/stm32f10x_usart.c ****     RCC_APB1PeriphResetCmd(RCC_APB1Periph_USART3, DISABLE);
  80              		.loc 1 147 5
  81 004c 0121     		movs	r1, #1
  82 004e 4FF48020 		mov	r0, #262144
  83 0052 FFF7FEFF 		bl	RCC_APB1PeriphResetCmd
 148:./Libraries/STM32F10x_StdPeriph_Driver/src/stm32f10x_usart.c ****   }    
  84              		.loc 1 148 5
  85 0056 0021     		movs	r1, #0
  86 0058 4FF48020 		mov	r0, #262144
  87 005c FFF7FEFF 		bl	RCC_APB1PeriphResetCmd
  88              		.loc 1 163 1
  89 0060 1CE0     		b	.L7
  90              	.L5:
 150:./Libraries/STM32F10x_StdPeriph_Driver/src/stm32f10x_usart.c ****   {
  91              		.loc 1 150 11
  92 0062 7B68     		ldr	r3, [r7, #4]
  93 0064 124A     		ldr	r2, .L8+12
  94 0066 9342     		cmp	r3, r2
  95 0068 0AD1     		bne	.L6
 152:./Libraries/STM32F10x_StdPeriph_Driver/src/stm32f10x_usart.c ****     RCC_APB1PeriphResetCmd(RCC_APB1Periph_UART4, DISABLE);
  96              		.loc 1 152 5
  97 006a 0121     		movs	r1, #1
  98 006c 4FF40020 		mov	r0, #524288
  99 0070 FFF7FEFF 		bl	RCC_APB1PeriphResetCmd
 153:./Libraries/STM32F10x_StdPeriph_Driver/src/stm32f10x_usart.c ****   }    
 100              		.loc 1 153 5
 101 0074 0021     		movs	r1, #0
 102 0076 4FF40020 		mov	r0, #524288
 103 007a FFF7FEFF 		bl	RCC_APB1PeriphResetCmd
 104              		.loc 1 163 1
 105 007e 0DE0     		b	.L7
 106              	.L6:
 157:./Libraries/STM32F10x_StdPeriph_Driver/src/stm32f10x_usart.c ****     { 
 107              		.loc 1 157 8
 108 0080 7B68     		ldr	r3, [r7, #4]
 109 0082 0C4A     		ldr	r2, .L8+16
 110 0084 9342     		cmp	r3, r2
 111 0086 09D1     		bne	.L7
 159:./Libraries/STM32F10x_StdPeriph_Driver/src/stm32f10x_usart.c ****       RCC_APB1PeriphResetCmd(RCC_APB1Periph_UART5, DISABLE);
 112              		.loc 1 159 7
ARM GAS  C:\Users\hao\AppData\Local\Temp\ccUSoOKU.s 			page 6


 113 0088 0121     		movs	r1, #1
 114 008a 4FF48010 		mov	r0, #1048576
 115 008e FFF7FEFF 		bl	RCC_APB1PeriphResetCmd
 160:./Libraries/STM32F10x_StdPeriph_Driver/src/stm32f10x_usart.c ****     }
 116              		.loc 1 160 7
 117 0092 0021     		movs	r1, #0
 118 0094 4FF48010 		mov	r0, #1048576
 119 0098 FFF7FEFF 		bl	RCC_APB1PeriphResetCmd
 120              	.L7:
 121              		.loc 1 163 1
 122 009c 00BF     		nop
 123 009e 0837     		adds	r7, r7, #8
 124              	.LCFI3:
 125              		.cfi_def_cfa_offset 8
 126 00a0 BD46     		mov	sp, r7
 127              	.LCFI4:
 128              		.cfi_def_cfa_register 13
 129              		@ sp needed
 130 00a2 80BD     		pop	{r7, pc}
 131              	.L9:
 132              		.align	2
 133              	.L8:
 134 00a4 00380140 		.word	1073821696
 135 00a8 00440040 		.word	1073759232
 136 00ac 00480040 		.word	1073760256
 137 00b0 004C0040 		.word	1073761280
 138 00b4 00500040 		.word	1073762304
 139              		.cfi_endproc
 140              	.LFE29:
 142              		.section	.text.USART_Init,"ax",%progbits
 143              		.align	1
 144              		.global	USART_Init
 145              		.syntax unified
 146              		.thumb
 147              		.thumb_func
 149              	USART_Init:
 150              	.LFB30:
 164:./Libraries/STM32F10x_StdPeriph_Driver/src/stm32f10x_usart.c **** 
 165:./Libraries/STM32F10x_StdPeriph_Driver/src/stm32f10x_usart.c **** /**
 166:./Libraries/STM32F10x_StdPeriph_Driver/src/stm32f10x_usart.c ****   * @brief  Initializes the USARTx peripheral according to the specified
 167:./Libraries/STM32F10x_StdPeriph_Driver/src/stm32f10x_usart.c ****   *         parameters in the USART_InitStruct .
 168:./Libraries/STM32F10x_StdPeriph_Driver/src/stm32f10x_usart.c ****   * @param  USARTx: Select the USART or the UART peripheral. 
 169:./Libraries/STM32F10x_StdPeriph_Driver/src/stm32f10x_usart.c ****   *   This parameter can be one of the following values:
 170:./Libraries/STM32F10x_StdPeriph_Driver/src/stm32f10x_usart.c ****   *   USART1, USART2, USART3, UART4 or UART5.
 171:./Libraries/STM32F10x_StdPeriph_Driver/src/stm32f10x_usart.c ****   * @param  USART_InitStruct: pointer to a USART_InitTypeDef structure
 172:./Libraries/STM32F10x_StdPeriph_Driver/src/stm32f10x_usart.c ****   *         that contains the configuration information for the specified USART 
 173:./Libraries/STM32F10x_StdPeriph_Driver/src/stm32f10x_usart.c ****   *         peripheral.
 174:./Libraries/STM32F10x_StdPeriph_Driver/src/stm32f10x_usart.c ****   * @retval None
 175:./Libraries/STM32F10x_StdPeriph_Driver/src/stm32f10x_usart.c ****   */
 176:./Libraries/STM32F10x_StdPeriph_Driver/src/stm32f10x_usart.c **** void USART_Init(USART_TypeDef* USARTx, USART_InitTypeDef* USART_InitStruct)
 177:./Libraries/STM32F10x_StdPeriph_Driver/src/stm32f10x_usart.c **** {
 151              		.loc 1 177 1
 152              		.cfi_startproc
 153              		@ args = 0, pretend = 0, frame = 48
 154              		@ frame_needed = 1, uses_anonymous_args = 0
 155 0000 80B5     		push	{r7, lr}
 156              	.LCFI5:
ARM GAS  C:\Users\hao\AppData\Local\Temp\ccUSoOKU.s 			page 7


 157              		.cfi_def_cfa_offset 8
 158              		.cfi_offset 7, -8
 159              		.cfi_offset 14, -4
 160 0002 8CB0     		sub	sp, sp, #48
 161              	.LCFI6:
 162              		.cfi_def_cfa_offset 56
 163 0004 00AF     		add	r7, sp, #0
 164              	.LCFI7:
 165              		.cfi_def_cfa_register 7
 166 0006 7860     		str	r0, [r7, #4]
 167 0008 3960     		str	r1, [r7]
 178:./Libraries/STM32F10x_StdPeriph_Driver/src/stm32f10x_usart.c ****   uint32_t tmpreg = 0x00, apbclock = 0x00;
 168              		.loc 1 178 12
 169 000a 0023     		movs	r3, #0
 170 000c FB62     		str	r3, [r7, #44]
 171              		.loc 1 178 27
 172 000e 0023     		movs	r3, #0
 173 0010 BB62     		str	r3, [r7, #40]
 179:./Libraries/STM32F10x_StdPeriph_Driver/src/stm32f10x_usart.c ****   uint32_t integerdivider = 0x00;
 174              		.loc 1 179 12
 175 0012 0023     		movs	r3, #0
 176 0014 7B62     		str	r3, [r7, #36]
 180:./Libraries/STM32F10x_StdPeriph_Driver/src/stm32f10x_usart.c ****   uint32_t fractionaldivider = 0x00;
 177              		.loc 1 180 12
 178 0016 0023     		movs	r3, #0
 179 0018 3B62     		str	r3, [r7, #32]
 181:./Libraries/STM32F10x_StdPeriph_Driver/src/stm32f10x_usart.c ****   uint32_t usartxbase = 0;
 180              		.loc 1 181 12
 181 001a 0023     		movs	r3, #0
 182 001c FB61     		str	r3, [r7, #28]
 182:./Libraries/STM32F10x_StdPeriph_Driver/src/stm32f10x_usart.c ****   RCC_ClocksTypeDef RCC_ClocksStatus;
 183:./Libraries/STM32F10x_StdPeriph_Driver/src/stm32f10x_usart.c ****   /* Check the parameters */
 184:./Libraries/STM32F10x_StdPeriph_Driver/src/stm32f10x_usart.c ****   assert_param(IS_USART_ALL_PERIPH(USARTx));
 185:./Libraries/STM32F10x_StdPeriph_Driver/src/stm32f10x_usart.c ****   assert_param(IS_USART_BAUDRATE(USART_InitStruct->USART_BaudRate));  
 186:./Libraries/STM32F10x_StdPeriph_Driver/src/stm32f10x_usart.c ****   assert_param(IS_USART_WORD_LENGTH(USART_InitStruct->USART_WordLength));
 187:./Libraries/STM32F10x_StdPeriph_Driver/src/stm32f10x_usart.c ****   assert_param(IS_USART_STOPBITS(USART_InitStruct->USART_StopBits));
 188:./Libraries/STM32F10x_StdPeriph_Driver/src/stm32f10x_usart.c ****   assert_param(IS_USART_PARITY(USART_InitStruct->USART_Parity));
 189:./Libraries/STM32F10x_StdPeriph_Driver/src/stm32f10x_usart.c ****   assert_param(IS_USART_MODE(USART_InitStruct->USART_Mode));
 190:./Libraries/STM32F10x_StdPeriph_Driver/src/stm32f10x_usart.c ****   assert_param(IS_USART_HARDWARE_FLOW_CONTROL(USART_InitStruct->USART_HardwareFlowControl));
 191:./Libraries/STM32F10x_StdPeriph_Driver/src/stm32f10x_usart.c ****   /* The hardware flow control is available only for USART1, USART2 and USART3 */
 192:./Libraries/STM32F10x_StdPeriph_Driver/src/stm32f10x_usart.c ****   if (USART_InitStruct->USART_HardwareFlowControl != USART_HardwareFlowControl_None)
 193:./Libraries/STM32F10x_StdPeriph_Driver/src/stm32f10x_usart.c ****   {
 194:./Libraries/STM32F10x_StdPeriph_Driver/src/stm32f10x_usart.c ****     assert_param(IS_USART_123_PERIPH(USARTx));
 195:./Libraries/STM32F10x_StdPeriph_Driver/src/stm32f10x_usart.c ****   }
 196:./Libraries/STM32F10x_StdPeriph_Driver/src/stm32f10x_usart.c **** 
 197:./Libraries/STM32F10x_StdPeriph_Driver/src/stm32f10x_usart.c ****   usartxbase = (uint32_t)USARTx;
 183              		.loc 1 197 14
 184 001e 7B68     		ldr	r3, [r7, #4]
 185 0020 FB61     		str	r3, [r7, #28]
 198:./Libraries/STM32F10x_StdPeriph_Driver/src/stm32f10x_usart.c **** 
 199:./Libraries/STM32F10x_StdPeriph_Driver/src/stm32f10x_usart.c **** /*---------------------------- USART CR2 Configuration -----------------------*/
 200:./Libraries/STM32F10x_StdPeriph_Driver/src/stm32f10x_usart.c ****   tmpreg = USARTx->CR2;
 186              		.loc 1 200 18
 187 0022 7B68     		ldr	r3, [r7, #4]
 188 0024 1B8A     		ldrh	r3, [r3, #16]	@ movhi
 189 0026 9BB2     		uxth	r3, r3
 190              		.loc 1 200 10
ARM GAS  C:\Users\hao\AppData\Local\Temp\ccUSoOKU.s 			page 8


 191 0028 FB62     		str	r3, [r7, #44]
 201:./Libraries/STM32F10x_StdPeriph_Driver/src/stm32f10x_usart.c ****   /* Clear STOP[13:12] bits */
 202:./Libraries/STM32F10x_StdPeriph_Driver/src/stm32f10x_usart.c ****   tmpreg &= CR2_STOP_CLEAR_Mask;
 192              		.loc 1 202 10
 193 002a FA6A     		ldr	r2, [r7, #44]
 194 002c 4CF6FF73 		movw	r3, #53247
 195 0030 1340     		ands	r3, r3, r2
 196 0032 FB62     		str	r3, [r7, #44]
 203:./Libraries/STM32F10x_StdPeriph_Driver/src/stm32f10x_usart.c ****   /* Configure the USART Stop Bits, Clock, CPOL, CPHA and LastBit ------------*/
 204:./Libraries/STM32F10x_StdPeriph_Driver/src/stm32f10x_usart.c ****   /* Set STOP[13:12] bits according to USART_StopBits value */
 205:./Libraries/STM32F10x_StdPeriph_Driver/src/stm32f10x_usart.c ****   tmpreg |= (uint32_t)USART_InitStruct->USART_StopBits;
 197              		.loc 1 205 39
 198 0034 3B68     		ldr	r3, [r7]
 199 0036 DB88     		ldrh	r3, [r3, #6]
 200              		.loc 1 205 13
 201 0038 1A46     		mov	r2, r3
 202              		.loc 1 205 10
 203 003a FB6A     		ldr	r3, [r7, #44]
 204 003c 1343     		orrs	r3, r3, r2
 205 003e FB62     		str	r3, [r7, #44]
 206:./Libraries/STM32F10x_StdPeriph_Driver/src/stm32f10x_usart.c ****   
 207:./Libraries/STM32F10x_StdPeriph_Driver/src/stm32f10x_usart.c ****   /* Write to USART CR2 */
 208:./Libraries/STM32F10x_StdPeriph_Driver/src/stm32f10x_usart.c ****   USARTx->CR2 = (uint16_t)tmpreg;
 206              		.loc 1 208 17
 207 0040 FB6A     		ldr	r3, [r7, #44]
 208 0042 9AB2     		uxth	r2, r3
 209              		.loc 1 208 15
 210 0044 7B68     		ldr	r3, [r7, #4]
 211 0046 1A82     		strh	r2, [r3, #16]	@ movhi
 209:./Libraries/STM32F10x_StdPeriph_Driver/src/stm32f10x_usart.c **** 
 210:./Libraries/STM32F10x_StdPeriph_Driver/src/stm32f10x_usart.c **** /*---------------------------- USART CR1 Configuration -----------------------*/
 211:./Libraries/STM32F10x_StdPeriph_Driver/src/stm32f10x_usart.c ****   tmpreg = USARTx->CR1;
 212              		.loc 1 211 18
 213 0048 7B68     		ldr	r3, [r7, #4]
 214 004a 9B89     		ldrh	r3, [r3, #12]	@ movhi
 215 004c 9BB2     		uxth	r3, r3
 216              		.loc 1 211 10
 217 004e FB62     		str	r3, [r7, #44]
 212:./Libraries/STM32F10x_StdPeriph_Driver/src/stm32f10x_usart.c ****   /* Clear M, PCE, PS, TE and RE bits */
 213:./Libraries/STM32F10x_StdPeriph_Driver/src/stm32f10x_usart.c ****   tmpreg &= CR1_CLEAR_Mask;
 218              		.loc 1 213 10
 219 0050 FA6A     		ldr	r2, [r7, #44]
 220 0052 4EF6F313 		movw	r3, #59891
 221 0056 1340     		ands	r3, r3, r2
 222 0058 FB62     		str	r3, [r7, #44]
 214:./Libraries/STM32F10x_StdPeriph_Driver/src/stm32f10x_usart.c ****   /* Configure the USART Word Length, Parity and mode ----------------------- */
 215:./Libraries/STM32F10x_StdPeriph_Driver/src/stm32f10x_usart.c ****   /* Set the M bits according to USART_WordLength value */
 216:./Libraries/STM32F10x_StdPeriph_Driver/src/stm32f10x_usart.c ****   /* Set PCE and PS bits according to USART_Parity value */
 217:./Libraries/STM32F10x_StdPeriph_Driver/src/stm32f10x_usart.c ****   /* Set TE and RE bits according to USART_Mode value */
 218:./Libraries/STM32F10x_StdPeriph_Driver/src/stm32f10x_usart.c ****   tmpreg |= (uint32_t)USART_InitStruct->USART_WordLength | USART_InitStruct->USART_Parity |
 223              		.loc 1 218 39
 224 005a 3B68     		ldr	r3, [r7]
 225 005c 9A88     		ldrh	r2, [r3, #4]
 226              		.loc 1 218 76
 227 005e 3B68     		ldr	r3, [r7]
 228 0060 1B89     		ldrh	r3, [r3, #8]
 229              		.loc 1 218 91
ARM GAS  C:\Users\hao\AppData\Local\Temp\ccUSoOKU.s 			page 9


 230 0062 1343     		orrs	r3, r3, r2
 231 0064 9AB2     		uxth	r2, r3
 219:./Libraries/STM32F10x_StdPeriph_Driver/src/stm32f10x_usart.c ****             USART_InitStruct->USART_Mode;
 232              		.loc 1 219 29
 233 0066 3B68     		ldr	r3, [r7]
 234 0068 5B89     		ldrh	r3, [r3, #10]
 218:./Libraries/STM32F10x_StdPeriph_Driver/src/stm32f10x_usart.c ****             USART_InitStruct->USART_Mode;
 235              		.loc 1 218 91
 236 006a 1343     		orrs	r3, r3, r2
 237 006c 9BB2     		uxth	r3, r3
 238 006e 1A46     		mov	r2, r3
 218:./Libraries/STM32F10x_StdPeriph_Driver/src/stm32f10x_usart.c ****             USART_InitStruct->USART_Mode;
 239              		.loc 1 218 10
 240 0070 FB6A     		ldr	r3, [r7, #44]
 241 0072 1343     		orrs	r3, r3, r2
 242 0074 FB62     		str	r3, [r7, #44]
 220:./Libraries/STM32F10x_StdPeriph_Driver/src/stm32f10x_usart.c ****   /* Write to USART CR1 */
 221:./Libraries/STM32F10x_StdPeriph_Driver/src/stm32f10x_usart.c ****   USARTx->CR1 = (uint16_t)tmpreg;
 243              		.loc 1 221 17
 244 0076 FB6A     		ldr	r3, [r7, #44]
 245 0078 9AB2     		uxth	r2, r3
 246              		.loc 1 221 15
 247 007a 7B68     		ldr	r3, [r7, #4]
 248 007c 9A81     		strh	r2, [r3, #12]	@ movhi
 222:./Libraries/STM32F10x_StdPeriph_Driver/src/stm32f10x_usart.c **** 
 223:./Libraries/STM32F10x_StdPeriph_Driver/src/stm32f10x_usart.c **** /*---------------------------- USART CR3 Configuration -----------------------*/  
 224:./Libraries/STM32F10x_StdPeriph_Driver/src/stm32f10x_usart.c ****   tmpreg = USARTx->CR3;
 249              		.loc 1 224 18
 250 007e 7B68     		ldr	r3, [r7, #4]
 251 0080 9B8A     		ldrh	r3, [r3, #20]	@ movhi
 252 0082 9BB2     		uxth	r3, r3
 253              		.loc 1 224 10
 254 0084 FB62     		str	r3, [r7, #44]
 225:./Libraries/STM32F10x_StdPeriph_Driver/src/stm32f10x_usart.c ****   /* Clear CTSE and RTSE bits */
 226:./Libraries/STM32F10x_StdPeriph_Driver/src/stm32f10x_usart.c ****   tmpreg &= CR3_CLEAR_Mask;
 255              		.loc 1 226 10
 256 0086 FA6A     		ldr	r2, [r7, #44]
 257 0088 4FF6FF43 		movw	r3, #64767
 258 008c 1340     		ands	r3, r3, r2
 259 008e FB62     		str	r3, [r7, #44]
 227:./Libraries/STM32F10x_StdPeriph_Driver/src/stm32f10x_usart.c ****   /* Configure the USART HFC -------------------------------------------------*/
 228:./Libraries/STM32F10x_StdPeriph_Driver/src/stm32f10x_usart.c ****   /* Set CTSE and RTSE bits according to USART_HardwareFlowControl value */
 229:./Libraries/STM32F10x_StdPeriph_Driver/src/stm32f10x_usart.c ****   tmpreg |= USART_InitStruct->USART_HardwareFlowControl;
 260              		.loc 1 229 29
 261 0090 3B68     		ldr	r3, [r7]
 262 0092 9B89     		ldrh	r3, [r3, #12]
 263 0094 1A46     		mov	r2, r3
 264              		.loc 1 229 10
 265 0096 FB6A     		ldr	r3, [r7, #44]
 266 0098 1343     		orrs	r3, r3, r2
 267 009a FB62     		str	r3, [r7, #44]
 230:./Libraries/STM32F10x_StdPeriph_Driver/src/stm32f10x_usart.c ****   /* Write to USART CR3 */
 231:./Libraries/STM32F10x_StdPeriph_Driver/src/stm32f10x_usart.c ****   USARTx->CR3 = (uint16_t)tmpreg;
 268              		.loc 1 231 17
 269 009c FB6A     		ldr	r3, [r7, #44]
 270 009e 9AB2     		uxth	r2, r3
 271              		.loc 1 231 15
ARM GAS  C:\Users\hao\AppData\Local\Temp\ccUSoOKU.s 			page 10


 272 00a0 7B68     		ldr	r3, [r7, #4]
 273 00a2 9A82     		strh	r2, [r3, #20]	@ movhi
 232:./Libraries/STM32F10x_StdPeriph_Driver/src/stm32f10x_usart.c **** 
 233:./Libraries/STM32F10x_StdPeriph_Driver/src/stm32f10x_usart.c **** /*---------------------------- USART BRR Configuration -----------------------*/
 234:./Libraries/STM32F10x_StdPeriph_Driver/src/stm32f10x_usart.c ****   /* Configure the USART Baud Rate -------------------------------------------*/
 235:./Libraries/STM32F10x_StdPeriph_Driver/src/stm32f10x_usart.c ****   RCC_GetClocksFreq(&RCC_ClocksStatus);
 274              		.loc 1 235 3
 275 00a4 07F10803 		add	r3, r7, #8
 276 00a8 1846     		mov	r0, r3
 277 00aa FFF7FEFF 		bl	RCC_GetClocksFreq
 236:./Libraries/STM32F10x_StdPeriph_Driver/src/stm32f10x_usart.c ****   if (usartxbase == USART1_BASE)
 278              		.loc 1 236 6
 279 00ae FB69     		ldr	r3, [r7, #28]
 280 00b0 2E4A     		ldr	r2, .L17
 281 00b2 9342     		cmp	r3, r2
 282 00b4 02D1     		bne	.L11
 237:./Libraries/STM32F10x_StdPeriph_Driver/src/stm32f10x_usart.c ****   {
 238:./Libraries/STM32F10x_StdPeriph_Driver/src/stm32f10x_usart.c ****     apbclock = RCC_ClocksStatus.PCLK2_Frequency;
 283              		.loc 1 238 14
 284 00b6 7B69     		ldr	r3, [r7, #20]
 285 00b8 BB62     		str	r3, [r7, #40]
 286 00ba 01E0     		b	.L12
 287              	.L11:
 239:./Libraries/STM32F10x_StdPeriph_Driver/src/stm32f10x_usart.c ****   }
 240:./Libraries/STM32F10x_StdPeriph_Driver/src/stm32f10x_usart.c ****   else
 241:./Libraries/STM32F10x_StdPeriph_Driver/src/stm32f10x_usart.c ****   {
 242:./Libraries/STM32F10x_StdPeriph_Driver/src/stm32f10x_usart.c ****     apbclock = RCC_ClocksStatus.PCLK1_Frequency;
 288              		.loc 1 242 14
 289 00bc 3B69     		ldr	r3, [r7, #16]
 290 00be BB62     		str	r3, [r7, #40]
 291              	.L12:
 243:./Libraries/STM32F10x_StdPeriph_Driver/src/stm32f10x_usart.c ****   }
 244:./Libraries/STM32F10x_StdPeriph_Driver/src/stm32f10x_usart.c ****   
 245:./Libraries/STM32F10x_StdPeriph_Driver/src/stm32f10x_usart.c ****   /* Determine the integer part */
 246:./Libraries/STM32F10x_StdPeriph_Driver/src/stm32f10x_usart.c ****   if ((USARTx->CR1 & CR1_OVER8_Set) != 0)
 292              		.loc 1 246 14
 293 00c0 7B68     		ldr	r3, [r7, #4]
 294 00c2 9B89     		ldrh	r3, [r3, #12]	@ movhi
 295 00c4 9BB2     		uxth	r3, r3
 296              		.loc 1 246 37
 297 00c6 1BB2     		sxth	r3, r3
 298              		.loc 1 246 6
 299 00c8 002B     		cmp	r3, #0
 300 00ca 0CDA     		bge	.L13
 247:./Libraries/STM32F10x_StdPeriph_Driver/src/stm32f10x_usart.c ****   {
 248:./Libraries/STM32F10x_StdPeriph_Driver/src/stm32f10x_usart.c ****     /* Integer part computing in case Oversampling mode is 8 Samples */
 249:./Libraries/STM32F10x_StdPeriph_Driver/src/stm32f10x_usart.c ****     integerdivider = ((25 * apbclock) / (2 * (USART_InitStruct->USART_BaudRate)));    
 301              		.loc 1 249 27
 302 00cc BA6A     		ldr	r2, [r7, #40]
 303 00ce 1346     		mov	r3, r2
 304 00d0 9B00     		lsls	r3, r3, #2
 305 00d2 1344     		add	r3, r3, r2
 306 00d4 9A00     		lsls	r2, r3, #2
 307 00d6 1A44     		add	r2, r2, r3
 308              		.loc 1 249 63
 309 00d8 3B68     		ldr	r3, [r7]
 310 00da 1B68     		ldr	r3, [r3]
ARM GAS  C:\Users\hao\AppData\Local\Temp\ccUSoOKU.s 			page 11


 311              		.loc 1 249 44
 312 00dc 5B00     		lsls	r3, r3, #1
 313              		.loc 1 249 20
 314 00de B2FBF3F3 		udiv	r3, r2, r3
 315 00e2 7B62     		str	r3, [r7, #36]
 316 00e4 0BE0     		b	.L14
 317              	.L13:
 250:./Libraries/STM32F10x_StdPeriph_Driver/src/stm32f10x_usart.c ****   }
 251:./Libraries/STM32F10x_StdPeriph_Driver/src/stm32f10x_usart.c ****   else /* if ((USARTx->CR1 & CR1_OVER8_Set) == 0) */
 252:./Libraries/STM32F10x_StdPeriph_Driver/src/stm32f10x_usart.c ****   {
 253:./Libraries/STM32F10x_StdPeriph_Driver/src/stm32f10x_usart.c ****     /* Integer part computing in case Oversampling mode is 16 Samples */
 254:./Libraries/STM32F10x_StdPeriph_Driver/src/stm32f10x_usart.c ****     integerdivider = ((25 * apbclock) / (4 * (USART_InitStruct->USART_BaudRate)));    
 318              		.loc 1 254 27
 319 00e6 BA6A     		ldr	r2, [r7, #40]
 320 00e8 1346     		mov	r3, r2
 321 00ea 9B00     		lsls	r3, r3, #2
 322 00ec 1344     		add	r3, r3, r2
 323 00ee 9A00     		lsls	r2, r3, #2
 324 00f0 1A44     		add	r2, r2, r3
 325              		.loc 1 254 63
 326 00f2 3B68     		ldr	r3, [r7]
 327 00f4 1B68     		ldr	r3, [r3]
 328              		.loc 1 254 44
 329 00f6 9B00     		lsls	r3, r3, #2
 330              		.loc 1 254 20
 331 00f8 B2FBF3F3 		udiv	r3, r2, r3
 332 00fc 7B62     		str	r3, [r7, #36]
 333              	.L14:
 255:./Libraries/STM32F10x_StdPeriph_Driver/src/stm32f10x_usart.c ****   }
 256:./Libraries/STM32F10x_StdPeriph_Driver/src/stm32f10x_usart.c ****   tmpreg = (integerdivider / 100) << 4;
 334              		.loc 1 256 28
 335 00fe 7B6A     		ldr	r3, [r7, #36]
 336 0100 1B4A     		ldr	r2, .L17+4
 337 0102 A2FB0323 		umull	r2, r3, r2, r3
 338 0106 5B09     		lsrs	r3, r3, #5
 339              		.loc 1 256 10
 340 0108 1B01     		lsls	r3, r3, #4
 341 010a FB62     		str	r3, [r7, #44]
 257:./Libraries/STM32F10x_StdPeriph_Driver/src/stm32f10x_usart.c **** 
 258:./Libraries/STM32F10x_StdPeriph_Driver/src/stm32f10x_usart.c ****   /* Determine the fractional part */
 259:./Libraries/STM32F10x_StdPeriph_Driver/src/stm32f10x_usart.c ****   fractionaldivider = integerdivider - (100 * (tmpreg >> 4));
 342              		.loc 1 259 55
 343 010c FB6A     		ldr	r3, [r7, #44]
 344 010e 1B09     		lsrs	r3, r3, #4
 345              		.loc 1 259 45
 346 0110 6422     		movs	r2, #100
 347 0112 02FB03F3 		mul	r3, r2, r3
 348              		.loc 1 259 21
 349 0116 7A6A     		ldr	r2, [r7, #36]
 350 0118 D31A     		subs	r3, r2, r3
 351 011a 3B62     		str	r3, [r7, #32]
 260:./Libraries/STM32F10x_StdPeriph_Driver/src/stm32f10x_usart.c **** 
 261:./Libraries/STM32F10x_StdPeriph_Driver/src/stm32f10x_usart.c ****   /* Implement the fractional part in the register */
 262:./Libraries/STM32F10x_StdPeriph_Driver/src/stm32f10x_usart.c ****   if ((USARTx->CR1 & CR1_OVER8_Set) != 0)
 352              		.loc 1 262 14
 353 011c 7B68     		ldr	r3, [r7, #4]
 354 011e 9B89     		ldrh	r3, [r3, #12]	@ movhi
ARM GAS  C:\Users\hao\AppData\Local\Temp\ccUSoOKU.s 			page 12


 355 0120 9BB2     		uxth	r3, r3
 356              		.loc 1 262 37
 357 0122 1BB2     		sxth	r3, r3
 358              		.loc 1 262 6
 359 0124 002B     		cmp	r3, #0
 360 0126 0CDA     		bge	.L15
 263:./Libraries/STM32F10x_StdPeriph_Driver/src/stm32f10x_usart.c ****   {
 264:./Libraries/STM32F10x_StdPeriph_Driver/src/stm32f10x_usart.c ****     tmpreg |= ((((fractionaldivider * 8) + 50) / 100)) & ((uint8_t)0x07);
 361              		.loc 1 264 37
 362 0128 3B6A     		ldr	r3, [r7, #32]
 363 012a DB00     		lsls	r3, r3, #3
 364              		.loc 1 264 42
 365 012c 3233     		adds	r3, r3, #50
 366              		.loc 1 264 48
 367 012e 104A     		ldr	r2, .L17+4
 368 0130 A2FB0323 		umull	r2, r3, r2, r3
 369 0134 5B09     		lsrs	r3, r3, #5
 370              		.loc 1 264 56
 371 0136 03F00703 		and	r3, r3, #7
 372              		.loc 1 264 12
 373 013a FA6A     		ldr	r2, [r7, #44]
 374 013c 1343     		orrs	r3, r3, r2
 375 013e FB62     		str	r3, [r7, #44]
 376 0140 0BE0     		b	.L16
 377              	.L15:
 265:./Libraries/STM32F10x_StdPeriph_Driver/src/stm32f10x_usart.c ****   }
 266:./Libraries/STM32F10x_StdPeriph_Driver/src/stm32f10x_usart.c ****   else /* if ((USARTx->CR1 & CR1_OVER8_Set) == 0) */
 267:./Libraries/STM32F10x_StdPeriph_Driver/src/stm32f10x_usart.c ****   {
 268:./Libraries/STM32F10x_StdPeriph_Driver/src/stm32f10x_usart.c ****     tmpreg |= ((((fractionaldivider * 16) + 50) / 100)) & ((uint8_t)0x0F);
 378              		.loc 1 268 37
 379 0142 3B6A     		ldr	r3, [r7, #32]
 380 0144 1B01     		lsls	r3, r3, #4
 381              		.loc 1 268 43
 382 0146 3233     		adds	r3, r3, #50
 383              		.loc 1 268 49
 384 0148 094A     		ldr	r2, .L17+4
 385 014a A2FB0323 		umull	r2, r3, r2, r3
 386 014e 5B09     		lsrs	r3, r3, #5
 387              		.loc 1 268 57
 388 0150 03F00F03 		and	r3, r3, #15
 389              		.loc 1 268 12
 390 0154 FA6A     		ldr	r2, [r7, #44]
 391 0156 1343     		orrs	r3, r3, r2
 392 0158 FB62     		str	r3, [r7, #44]
 393              	.L16:
 269:./Libraries/STM32F10x_StdPeriph_Driver/src/stm32f10x_usart.c ****   }
 270:./Libraries/STM32F10x_StdPeriph_Driver/src/stm32f10x_usart.c ****   
 271:./Libraries/STM32F10x_StdPeriph_Driver/src/stm32f10x_usart.c ****   /* Write to USART BRR */
 272:./Libraries/STM32F10x_StdPeriph_Driver/src/stm32f10x_usart.c ****   USARTx->BRR = (uint16_t)tmpreg;
 394              		.loc 1 272 17
 395 015a FB6A     		ldr	r3, [r7, #44]
 396 015c 9AB2     		uxth	r2, r3
 397              		.loc 1 272 15
 398 015e 7B68     		ldr	r3, [r7, #4]
 399 0160 1A81     		strh	r2, [r3, #8]	@ movhi
 273:./Libraries/STM32F10x_StdPeriph_Driver/src/stm32f10x_usart.c **** }
 400              		.loc 1 273 1
ARM GAS  C:\Users\hao\AppData\Local\Temp\ccUSoOKU.s 			page 13


 401 0162 00BF     		nop
 402 0164 3037     		adds	r7, r7, #48
 403              	.LCFI8:
 404              		.cfi_def_cfa_offset 8
 405 0166 BD46     		mov	sp, r7
 406              	.LCFI9:
 407              		.cfi_def_cfa_register 13
 408              		@ sp needed
 409 0168 80BD     		pop	{r7, pc}
 410              	.L18:
 411 016a 00BF     		.align	2
 412              	.L17:
 413 016c 00380140 		.word	1073821696
 414 0170 1F85EB51 		.word	1374389535
 415              		.cfi_endproc
 416              	.LFE30:
 418              		.section	.text.USART_StructInit,"ax",%progbits
 419              		.align	1
 420              		.global	USART_StructInit
 421              		.syntax unified
 422              		.thumb
 423              		.thumb_func
 425              	USART_StructInit:
 426              	.LFB31:
 274:./Libraries/STM32F10x_StdPeriph_Driver/src/stm32f10x_usart.c **** 
 275:./Libraries/STM32F10x_StdPeriph_Driver/src/stm32f10x_usart.c **** /**
 276:./Libraries/STM32F10x_StdPeriph_Driver/src/stm32f10x_usart.c ****   * @brief  Fills each USART_InitStruct member with its default value.
 277:./Libraries/STM32F10x_StdPeriph_Driver/src/stm32f10x_usart.c ****   * @param  USART_InitStruct: pointer to a USART_InitTypeDef structure
 278:./Libraries/STM32F10x_StdPeriph_Driver/src/stm32f10x_usart.c ****   *         which will be initialized.
 279:./Libraries/STM32F10x_StdPeriph_Driver/src/stm32f10x_usart.c ****   * @retval None
 280:./Libraries/STM32F10x_StdPeriph_Driver/src/stm32f10x_usart.c ****   */
 281:./Libraries/STM32F10x_StdPeriph_Driver/src/stm32f10x_usart.c **** void USART_StructInit(USART_InitTypeDef* USART_InitStruct)
 282:./Libraries/STM32F10x_StdPeriph_Driver/src/stm32f10x_usart.c **** {
 427              		.loc 1 282 1
 428              		.cfi_startproc
 429              		@ args = 0, pretend = 0, frame = 8
 430              		@ frame_needed = 1, uses_anonymous_args = 0
 431              		@ link register save eliminated.
 432 0000 80B4     		push	{r7}
 433              	.LCFI10:
 434              		.cfi_def_cfa_offset 4
 435              		.cfi_offset 7, -4
 436 0002 83B0     		sub	sp, sp, #12
 437              	.LCFI11:
 438              		.cfi_def_cfa_offset 16
 439 0004 00AF     		add	r7, sp, #0
 440              	.LCFI12:
 441              		.cfi_def_cfa_register 7
 442 0006 7860     		str	r0, [r7, #4]
 283:./Libraries/STM32F10x_StdPeriph_Driver/src/stm32f10x_usart.c ****   /* USART_InitStruct members default value */
 284:./Libraries/STM32F10x_StdPeriph_Driver/src/stm32f10x_usart.c ****   USART_InitStruct->USART_BaudRate = 9600;
 443              		.loc 1 284 36
 444 0008 7B68     		ldr	r3, [r7, #4]
 445 000a 4FF41652 		mov	r2, #9600
 446 000e 1A60     		str	r2, [r3]
 285:./Libraries/STM32F10x_StdPeriph_Driver/src/stm32f10x_usart.c ****   USART_InitStruct->USART_WordLength = USART_WordLength_8b;
 447              		.loc 1 285 38
ARM GAS  C:\Users\hao\AppData\Local\Temp\ccUSoOKU.s 			page 14


 448 0010 7B68     		ldr	r3, [r7, #4]
 449 0012 0022     		movs	r2, #0
 450 0014 9A80     		strh	r2, [r3, #4]	@ movhi
 286:./Libraries/STM32F10x_StdPeriph_Driver/src/stm32f10x_usart.c ****   USART_InitStruct->USART_StopBits = USART_StopBits_1;
 451              		.loc 1 286 36
 452 0016 7B68     		ldr	r3, [r7, #4]
 453 0018 0022     		movs	r2, #0
 454 001a DA80     		strh	r2, [r3, #6]	@ movhi
 287:./Libraries/STM32F10x_StdPeriph_Driver/src/stm32f10x_usart.c ****   USART_InitStruct->USART_Parity = USART_Parity_No ;
 455              		.loc 1 287 34
 456 001c 7B68     		ldr	r3, [r7, #4]
 457 001e 0022     		movs	r2, #0
 458 0020 1A81     		strh	r2, [r3, #8]	@ movhi
 288:./Libraries/STM32F10x_StdPeriph_Driver/src/stm32f10x_usart.c ****   USART_InitStruct->USART_Mode = USART_Mode_Rx | USART_Mode_Tx;
 459              		.loc 1 288 32
 460 0022 7B68     		ldr	r3, [r7, #4]
 461 0024 0C22     		movs	r2, #12
 462 0026 5A81     		strh	r2, [r3, #10]	@ movhi
 289:./Libraries/STM32F10x_StdPeriph_Driver/src/stm32f10x_usart.c ****   USART_InitStruct->USART_HardwareFlowControl = USART_HardwareFlowControl_None;  
 463              		.loc 1 289 47
 464 0028 7B68     		ldr	r3, [r7, #4]
 465 002a 0022     		movs	r2, #0
 466 002c 9A81     		strh	r2, [r3, #12]	@ movhi
 290:./Libraries/STM32F10x_StdPeriph_Driver/src/stm32f10x_usart.c **** }
 467              		.loc 1 290 1
 468 002e 00BF     		nop
 469 0030 0C37     		adds	r7, r7, #12
 470              	.LCFI13:
 471              		.cfi_def_cfa_offset 4
 472 0032 BD46     		mov	sp, r7
 473              	.LCFI14:
 474              		.cfi_def_cfa_register 13
 475              		@ sp needed
 476 0034 80BC     		pop	{r7}
 477              	.LCFI15:
 478              		.cfi_restore 7
 479              		.cfi_def_cfa_offset 0
 480 0036 7047     		bx	lr
 481              		.cfi_endproc
 482              	.LFE31:
 484              		.section	.text.USART_ClockInit,"ax",%progbits
 485              		.align	1
 486              		.global	USART_ClockInit
 487              		.syntax unified
 488              		.thumb
 489              		.thumb_func
 491              	USART_ClockInit:
 492              	.LFB32:
 291:./Libraries/STM32F10x_StdPeriph_Driver/src/stm32f10x_usart.c **** 
 292:./Libraries/STM32F10x_StdPeriph_Driver/src/stm32f10x_usart.c **** /**
 293:./Libraries/STM32F10x_StdPeriph_Driver/src/stm32f10x_usart.c ****   * @brief  Initializes the USARTx peripheral Clock according to the 
 294:./Libraries/STM32F10x_StdPeriph_Driver/src/stm32f10x_usart.c ****   *          specified parameters in the USART_ClockInitStruct .
 295:./Libraries/STM32F10x_StdPeriph_Driver/src/stm32f10x_usart.c ****   * @param  USARTx: where x can be 1, 2, 3 to select the USART peripheral.
 296:./Libraries/STM32F10x_StdPeriph_Driver/src/stm32f10x_usart.c ****   * @param  USART_ClockInitStruct: pointer to a USART_ClockInitTypeDef
 297:./Libraries/STM32F10x_StdPeriph_Driver/src/stm32f10x_usart.c ****   *         structure that contains the configuration information for the specified 
 298:./Libraries/STM32F10x_StdPeriph_Driver/src/stm32f10x_usart.c ****   *         USART peripheral.  
 299:./Libraries/STM32F10x_StdPeriph_Driver/src/stm32f10x_usart.c ****   * @note The Smart Card and Synchronous modes are not available for UART4 and UART5.
ARM GAS  C:\Users\hao\AppData\Local\Temp\ccUSoOKU.s 			page 15


 300:./Libraries/STM32F10x_StdPeriph_Driver/src/stm32f10x_usart.c ****   * @retval None
 301:./Libraries/STM32F10x_StdPeriph_Driver/src/stm32f10x_usart.c ****   */
 302:./Libraries/STM32F10x_StdPeriph_Driver/src/stm32f10x_usart.c **** void USART_ClockInit(USART_TypeDef* USARTx, USART_ClockInitTypeDef* USART_ClockInitStruct)
 303:./Libraries/STM32F10x_StdPeriph_Driver/src/stm32f10x_usart.c **** {
 493              		.loc 1 303 1
 494              		.cfi_startproc
 495              		@ args = 0, pretend = 0, frame = 16
 496              		@ frame_needed = 1, uses_anonymous_args = 0
 497              		@ link register save eliminated.
 498 0000 80B4     		push	{r7}
 499              	.LCFI16:
 500              		.cfi_def_cfa_offset 4
 501              		.cfi_offset 7, -4
 502 0002 85B0     		sub	sp, sp, #20
 503              	.LCFI17:
 504              		.cfi_def_cfa_offset 24
 505 0004 00AF     		add	r7, sp, #0
 506              	.LCFI18:
 507              		.cfi_def_cfa_register 7
 508 0006 7860     		str	r0, [r7, #4]
 509 0008 3960     		str	r1, [r7]
 304:./Libraries/STM32F10x_StdPeriph_Driver/src/stm32f10x_usart.c ****   uint32_t tmpreg = 0x00;
 510              		.loc 1 304 12
 511 000a 0023     		movs	r3, #0
 512 000c FB60     		str	r3, [r7, #12]
 305:./Libraries/STM32F10x_StdPeriph_Driver/src/stm32f10x_usart.c ****   /* Check the parameters */
 306:./Libraries/STM32F10x_StdPeriph_Driver/src/stm32f10x_usart.c ****   assert_param(IS_USART_123_PERIPH(USARTx));
 307:./Libraries/STM32F10x_StdPeriph_Driver/src/stm32f10x_usart.c ****   assert_param(IS_USART_CLOCK(USART_ClockInitStruct->USART_Clock));
 308:./Libraries/STM32F10x_StdPeriph_Driver/src/stm32f10x_usart.c ****   assert_param(IS_USART_CPOL(USART_ClockInitStruct->USART_CPOL));
 309:./Libraries/STM32F10x_StdPeriph_Driver/src/stm32f10x_usart.c ****   assert_param(IS_USART_CPHA(USART_ClockInitStruct->USART_CPHA));
 310:./Libraries/STM32F10x_StdPeriph_Driver/src/stm32f10x_usart.c ****   assert_param(IS_USART_LASTBIT(USART_ClockInitStruct->USART_LastBit));
 311:./Libraries/STM32F10x_StdPeriph_Driver/src/stm32f10x_usart.c ****   
 312:./Libraries/STM32F10x_StdPeriph_Driver/src/stm32f10x_usart.c **** /*---------------------------- USART CR2 Configuration -----------------------*/
 313:./Libraries/STM32F10x_StdPeriph_Driver/src/stm32f10x_usart.c ****   tmpreg = USARTx->CR2;
 513              		.loc 1 313 18
 514 000e 7B68     		ldr	r3, [r7, #4]
 515 0010 1B8A     		ldrh	r3, [r3, #16]	@ movhi
 516 0012 9BB2     		uxth	r3, r3
 517              		.loc 1 313 10
 518 0014 FB60     		str	r3, [r7, #12]
 314:./Libraries/STM32F10x_StdPeriph_Driver/src/stm32f10x_usart.c ****   /* Clear CLKEN, CPOL, CPHA and LBCL bits */
 315:./Libraries/STM32F10x_StdPeriph_Driver/src/stm32f10x_usart.c ****   tmpreg &= CR2_CLOCK_CLEAR_Mask;
 519              		.loc 1 315 10
 520 0016 FA68     		ldr	r2, [r7, #12]
 521 0018 4FF2FF03 		movw	r3, #61695
 522 001c 1340     		ands	r3, r3, r2
 523 001e FB60     		str	r3, [r7, #12]
 316:./Libraries/STM32F10x_StdPeriph_Driver/src/stm32f10x_usart.c ****   /* Configure the USART Clock, CPOL, CPHA and LastBit ------------*/
 317:./Libraries/STM32F10x_StdPeriph_Driver/src/stm32f10x_usart.c ****   /* Set CLKEN bit according to USART_Clock value */
 318:./Libraries/STM32F10x_StdPeriph_Driver/src/stm32f10x_usart.c ****   /* Set CPOL bit according to USART_CPOL value */
 319:./Libraries/STM32F10x_StdPeriph_Driver/src/stm32f10x_usart.c ****   /* Set CPHA bit according to USART_CPHA value */
 320:./Libraries/STM32F10x_StdPeriph_Driver/src/stm32f10x_usart.c ****   /* Set LBCL bit according to USART_LastBit value */
 321:./Libraries/STM32F10x_StdPeriph_Driver/src/stm32f10x_usart.c ****   tmpreg |= (uint32_t)USART_ClockInitStruct->USART_Clock | USART_ClockInitStruct->USART_CPOL | 
 524              		.loc 1 321 44
 525 0020 3B68     		ldr	r3, [r7]
 526 0022 1A88     		ldrh	r2, [r3]
 527              		.loc 1 321 81
ARM GAS  C:\Users\hao\AppData\Local\Temp\ccUSoOKU.s 			page 16


 528 0024 3B68     		ldr	r3, [r7]
 529 0026 5B88     		ldrh	r3, [r3, #2]
 322:./Libraries/STM32F10x_StdPeriph_Driver/src/stm32f10x_usart.c ****                  USART_ClockInitStruct->USART_CPHA | USART_ClockInitStruct->USART_LastBit;
 530              		.loc 1 322 52
 531 0028 1343     		orrs	r3, r3, r2
 532 002a 9AB2     		uxth	r2, r3
 533              		.loc 1 322 39
 534 002c 3B68     		ldr	r3, [r7]
 535 002e 9B88     		ldrh	r3, [r3, #4]
 536              		.loc 1 322 52
 537 0030 1343     		orrs	r3, r3, r2
 538 0032 9AB2     		uxth	r2, r3
 539              		.loc 1 322 75
 540 0034 3B68     		ldr	r3, [r7]
 541 0036 DB88     		ldrh	r3, [r3, #6]
 542              		.loc 1 322 52
 543 0038 1343     		orrs	r3, r3, r2
 544 003a 9BB2     		uxth	r3, r3
 545 003c 1A46     		mov	r2, r3
 321:./Libraries/STM32F10x_StdPeriph_Driver/src/stm32f10x_usart.c ****                  USART_ClockInitStruct->USART_CPHA | USART_ClockInitStruct->USART_LastBit;
 546              		.loc 1 321 10
 547 003e FB68     		ldr	r3, [r7, #12]
 548 0040 1343     		orrs	r3, r3, r2
 549 0042 FB60     		str	r3, [r7, #12]
 323:./Libraries/STM32F10x_StdPeriph_Driver/src/stm32f10x_usart.c ****   /* Write to USART CR2 */
 324:./Libraries/STM32F10x_StdPeriph_Driver/src/stm32f10x_usart.c ****   USARTx->CR2 = (uint16_t)tmpreg;
 550              		.loc 1 324 17
 551 0044 FB68     		ldr	r3, [r7, #12]
 552 0046 9AB2     		uxth	r2, r3
 553              		.loc 1 324 15
 554 0048 7B68     		ldr	r3, [r7, #4]
 555 004a 1A82     		strh	r2, [r3, #16]	@ movhi
 325:./Libraries/STM32F10x_StdPeriph_Driver/src/stm32f10x_usart.c **** }
 556              		.loc 1 325 1
 557 004c 00BF     		nop
 558 004e 1437     		adds	r7, r7, #20
 559              	.LCFI19:
 560              		.cfi_def_cfa_offset 4
 561 0050 BD46     		mov	sp, r7
 562              	.LCFI20:
 563              		.cfi_def_cfa_register 13
 564              		@ sp needed
 565 0052 80BC     		pop	{r7}
 566              	.LCFI21:
 567              		.cfi_restore 7
 568              		.cfi_def_cfa_offset 0
 569 0054 7047     		bx	lr
 570              		.cfi_endproc
 571              	.LFE32:
 573              		.section	.text.USART_ClockStructInit,"ax",%progbits
 574              		.align	1
 575              		.global	USART_ClockStructInit
 576              		.syntax unified
 577              		.thumb
 578              		.thumb_func
 580              	USART_ClockStructInit:
 581              	.LFB33:
ARM GAS  C:\Users\hao\AppData\Local\Temp\ccUSoOKU.s 			page 17


 326:./Libraries/STM32F10x_StdPeriph_Driver/src/stm32f10x_usart.c **** 
 327:./Libraries/STM32F10x_StdPeriph_Driver/src/stm32f10x_usart.c **** /**
 328:./Libraries/STM32F10x_StdPeriph_Driver/src/stm32f10x_usart.c ****   * @brief  Fills each USART_ClockInitStruct member with its default value.
 329:./Libraries/STM32F10x_StdPeriph_Driver/src/stm32f10x_usart.c ****   * @param  USART_ClockInitStruct: pointer to a USART_ClockInitTypeDef
 330:./Libraries/STM32F10x_StdPeriph_Driver/src/stm32f10x_usart.c ****   *         structure which will be initialized.
 331:./Libraries/STM32F10x_StdPeriph_Driver/src/stm32f10x_usart.c ****   * @retval None
 332:./Libraries/STM32F10x_StdPeriph_Driver/src/stm32f10x_usart.c ****   */
 333:./Libraries/STM32F10x_StdPeriph_Driver/src/stm32f10x_usart.c **** void USART_ClockStructInit(USART_ClockInitTypeDef* USART_ClockInitStruct)
 334:./Libraries/STM32F10x_StdPeriph_Driver/src/stm32f10x_usart.c **** {
 582              		.loc 1 334 1
 583              		.cfi_startproc
 584              		@ args = 0, pretend = 0, frame = 8
 585              		@ frame_needed = 1, uses_anonymous_args = 0
 586              		@ link register save eliminated.
 587 0000 80B4     		push	{r7}
 588              	.LCFI22:
 589              		.cfi_def_cfa_offset 4
 590              		.cfi_offset 7, -4
 591 0002 83B0     		sub	sp, sp, #12
 592              	.LCFI23:
 593              		.cfi_def_cfa_offset 16
 594 0004 00AF     		add	r7, sp, #0
 595              	.LCFI24:
 596              		.cfi_def_cfa_register 7
 597 0006 7860     		str	r0, [r7, #4]
 335:./Libraries/STM32F10x_StdPeriph_Driver/src/stm32f10x_usart.c ****   /* USART_ClockInitStruct members default value */
 336:./Libraries/STM32F10x_StdPeriph_Driver/src/stm32f10x_usart.c ****   USART_ClockInitStruct->USART_Clock = USART_Clock_Disable;
 598              		.loc 1 336 38
 599 0008 7B68     		ldr	r3, [r7, #4]
 600 000a 0022     		movs	r2, #0
 601 000c 1A80     		strh	r2, [r3]	@ movhi
 337:./Libraries/STM32F10x_StdPeriph_Driver/src/stm32f10x_usart.c ****   USART_ClockInitStruct->USART_CPOL = USART_CPOL_Low;
 602              		.loc 1 337 37
 603 000e 7B68     		ldr	r3, [r7, #4]
 604 0010 0022     		movs	r2, #0
 605 0012 5A80     		strh	r2, [r3, #2]	@ movhi
 338:./Libraries/STM32F10x_StdPeriph_Driver/src/stm32f10x_usart.c ****   USART_ClockInitStruct->USART_CPHA = USART_CPHA_1Edge;
 606              		.loc 1 338 37
 607 0014 7B68     		ldr	r3, [r7, #4]
 608 0016 0022     		movs	r2, #0
 609 0018 9A80     		strh	r2, [r3, #4]	@ movhi
 339:./Libraries/STM32F10x_StdPeriph_Driver/src/stm32f10x_usart.c ****   USART_ClockInitStruct->USART_LastBit = USART_LastBit_Disable;
 610              		.loc 1 339 40
 611 001a 7B68     		ldr	r3, [r7, #4]
 612 001c 0022     		movs	r2, #0
 613 001e DA80     		strh	r2, [r3, #6]	@ movhi
 340:./Libraries/STM32F10x_StdPeriph_Driver/src/stm32f10x_usart.c **** }
 614              		.loc 1 340 1
 615 0020 00BF     		nop
 616 0022 0C37     		adds	r7, r7, #12
 617              	.LCFI25:
 618              		.cfi_def_cfa_offset 4
 619 0024 BD46     		mov	sp, r7
 620              	.LCFI26:
 621              		.cfi_def_cfa_register 13
 622              		@ sp needed
 623 0026 80BC     		pop	{r7}
ARM GAS  C:\Users\hao\AppData\Local\Temp\ccUSoOKU.s 			page 18


 624              	.LCFI27:
 625              		.cfi_restore 7
 626              		.cfi_def_cfa_offset 0
 627 0028 7047     		bx	lr
 628              		.cfi_endproc
 629              	.LFE33:
 631              		.section	.text.USART_Cmd,"ax",%progbits
 632              		.align	1
 633              		.global	USART_Cmd
 634              		.syntax unified
 635              		.thumb
 636              		.thumb_func
 638              	USART_Cmd:
 639              	.LFB34:
 341:./Libraries/STM32F10x_StdPeriph_Driver/src/stm32f10x_usart.c **** 
 342:./Libraries/STM32F10x_StdPeriph_Driver/src/stm32f10x_usart.c **** /**
 343:./Libraries/STM32F10x_StdPeriph_Driver/src/stm32f10x_usart.c ****   * @brief  Enables or disables the specified USART peripheral.
 344:./Libraries/STM32F10x_StdPeriph_Driver/src/stm32f10x_usart.c ****   * @param  USARTx: Select the USART or the UART peripheral. 
 345:./Libraries/STM32F10x_StdPeriph_Driver/src/stm32f10x_usart.c ****   *         This parameter can be one of the following values:
 346:./Libraries/STM32F10x_StdPeriph_Driver/src/stm32f10x_usart.c ****   *           USART1, USART2, USART3, UART4 or UART5.
 347:./Libraries/STM32F10x_StdPeriph_Driver/src/stm32f10x_usart.c ****   * @param  NewState: new state of the USARTx peripheral.
 348:./Libraries/STM32F10x_StdPeriph_Driver/src/stm32f10x_usart.c ****   *         This parameter can be: ENABLE or DISABLE.
 349:./Libraries/STM32F10x_StdPeriph_Driver/src/stm32f10x_usart.c ****   * @retval None
 350:./Libraries/STM32F10x_StdPeriph_Driver/src/stm32f10x_usart.c ****   */
 351:./Libraries/STM32F10x_StdPeriph_Driver/src/stm32f10x_usart.c **** void USART_Cmd(USART_TypeDef* USARTx, FunctionalState NewState)
 352:./Libraries/STM32F10x_StdPeriph_Driver/src/stm32f10x_usart.c **** {
 640              		.loc 1 352 1
 641              		.cfi_startproc
 642              		@ args = 0, pretend = 0, frame = 8
 643              		@ frame_needed = 1, uses_anonymous_args = 0
 644              		@ link register save eliminated.
 645 0000 80B4     		push	{r7}
 646              	.LCFI28:
 647              		.cfi_def_cfa_offset 4
 648              		.cfi_offset 7, -4
 649 0002 83B0     		sub	sp, sp, #12
 650              	.LCFI29:
 651              		.cfi_def_cfa_offset 16
 652 0004 00AF     		add	r7, sp, #0
 653              	.LCFI30:
 654              		.cfi_def_cfa_register 7
 655 0006 7860     		str	r0, [r7, #4]
 656 0008 0B46     		mov	r3, r1
 657 000a FB70     		strb	r3, [r7, #3]
 353:./Libraries/STM32F10x_StdPeriph_Driver/src/stm32f10x_usart.c ****   /* Check the parameters */
 354:./Libraries/STM32F10x_StdPeriph_Driver/src/stm32f10x_usart.c ****   assert_param(IS_USART_ALL_PERIPH(USARTx));
 355:./Libraries/STM32F10x_StdPeriph_Driver/src/stm32f10x_usart.c ****   assert_param(IS_FUNCTIONAL_STATE(NewState));
 356:./Libraries/STM32F10x_StdPeriph_Driver/src/stm32f10x_usart.c ****   
 357:./Libraries/STM32F10x_StdPeriph_Driver/src/stm32f10x_usart.c ****   if (NewState != DISABLE)
 658              		.loc 1 357 6
 659 000c FB78     		ldrb	r3, [r7, #3]	@ zero_extendqisi2
 660 000e 002B     		cmp	r3, #0
 661 0010 08D0     		beq	.L23
 358:./Libraries/STM32F10x_StdPeriph_Driver/src/stm32f10x_usart.c ****   {
 359:./Libraries/STM32F10x_StdPeriph_Driver/src/stm32f10x_usart.c ****     /* Enable the selected USART by setting the UE bit in the CR1 register */
 360:./Libraries/STM32F10x_StdPeriph_Driver/src/stm32f10x_usart.c ****     USARTx->CR1 |= CR1_UE_Set;
 662              		.loc 1 360 17
ARM GAS  C:\Users\hao\AppData\Local\Temp\ccUSoOKU.s 			page 19


 663 0012 7B68     		ldr	r3, [r7, #4]
 664 0014 9B89     		ldrh	r3, [r3, #12]	@ movhi
 665 0016 9BB2     		uxth	r3, r3
 666 0018 43F40053 		orr	r3, r3, #8192
 667 001c 9AB2     		uxth	r2, r3
 668 001e 7B68     		ldr	r3, [r7, #4]
 669 0020 9A81     		strh	r2, [r3, #12]	@ movhi
 361:./Libraries/STM32F10x_StdPeriph_Driver/src/stm32f10x_usart.c ****   }
 362:./Libraries/STM32F10x_StdPeriph_Driver/src/stm32f10x_usart.c ****   else
 363:./Libraries/STM32F10x_StdPeriph_Driver/src/stm32f10x_usart.c ****   {
 364:./Libraries/STM32F10x_StdPeriph_Driver/src/stm32f10x_usart.c ****     /* Disable the selected USART by clearing the UE bit in the CR1 register */
 365:./Libraries/STM32F10x_StdPeriph_Driver/src/stm32f10x_usart.c ****     USARTx->CR1 &= CR1_UE_Reset;
 366:./Libraries/STM32F10x_StdPeriph_Driver/src/stm32f10x_usart.c ****   }
 367:./Libraries/STM32F10x_StdPeriph_Driver/src/stm32f10x_usart.c **** }
 670              		.loc 1 367 1
 671 0022 07E0     		b	.L25
 672              	.L23:
 365:./Libraries/STM32F10x_StdPeriph_Driver/src/stm32f10x_usart.c ****   }
 673              		.loc 1 365 17
 674 0024 7B68     		ldr	r3, [r7, #4]
 675 0026 9B89     		ldrh	r3, [r3, #12]	@ movhi
 676 0028 9BB2     		uxth	r3, r3
 677 002a 23F40053 		bic	r3, r3, #8192
 678 002e 9AB2     		uxth	r2, r3
 679 0030 7B68     		ldr	r3, [r7, #4]
 680 0032 9A81     		strh	r2, [r3, #12]	@ movhi
 681              	.L25:
 682              		.loc 1 367 1
 683 0034 00BF     		nop
 684 0036 0C37     		adds	r7, r7, #12
 685              	.LCFI31:
 686              		.cfi_def_cfa_offset 4
 687 0038 BD46     		mov	sp, r7
 688              	.LCFI32:
 689              		.cfi_def_cfa_register 13
 690              		@ sp needed
 691 003a 80BC     		pop	{r7}
 692              	.LCFI33:
 693              		.cfi_restore 7
 694              		.cfi_def_cfa_offset 0
 695 003c 7047     		bx	lr
 696              		.cfi_endproc
 697              	.LFE34:
 699              		.section	.text.USART_ITConfig,"ax",%progbits
 700              		.align	1
 701              		.global	USART_ITConfig
 702              		.syntax unified
 703              		.thumb
 704              		.thumb_func
 706              	USART_ITConfig:
 707              	.LFB35:
 368:./Libraries/STM32F10x_StdPeriph_Driver/src/stm32f10x_usart.c **** 
 369:./Libraries/STM32F10x_StdPeriph_Driver/src/stm32f10x_usart.c **** /**
 370:./Libraries/STM32F10x_StdPeriph_Driver/src/stm32f10x_usart.c ****   * @brief  Enables or disables the specified USART interrupts.
 371:./Libraries/STM32F10x_StdPeriph_Driver/src/stm32f10x_usart.c ****   * @param  USARTx: Select the USART or the UART peripheral. 
 372:./Libraries/STM32F10x_StdPeriph_Driver/src/stm32f10x_usart.c ****   *   This parameter can be one of the following values:
 373:./Libraries/STM32F10x_StdPeriph_Driver/src/stm32f10x_usart.c ****   *   USART1, USART2, USART3, UART4 or UART5.
ARM GAS  C:\Users\hao\AppData\Local\Temp\ccUSoOKU.s 			page 20


 374:./Libraries/STM32F10x_StdPeriph_Driver/src/stm32f10x_usart.c ****   * @param  USART_IT: specifies the USART interrupt sources to be enabled or disabled.
 375:./Libraries/STM32F10x_StdPeriph_Driver/src/stm32f10x_usart.c ****   *   This parameter can be one of the following values:
 376:./Libraries/STM32F10x_StdPeriph_Driver/src/stm32f10x_usart.c ****   *     @arg USART_IT_CTS:  CTS change interrupt (not available for UART4 and UART5)
 377:./Libraries/STM32F10x_StdPeriph_Driver/src/stm32f10x_usart.c ****   *     @arg USART_IT_LBD:  LIN Break detection interrupt
 378:./Libraries/STM32F10x_StdPeriph_Driver/src/stm32f10x_usart.c ****   *     @arg USART_IT_TXE:  Transmit Data Register empty interrupt
 379:./Libraries/STM32F10x_StdPeriph_Driver/src/stm32f10x_usart.c ****   *     @arg USART_IT_TC:   Transmission complete interrupt
 380:./Libraries/STM32F10x_StdPeriph_Driver/src/stm32f10x_usart.c ****   *     @arg USART_IT_RXNE: Receive Data register not empty interrupt
 381:./Libraries/STM32F10x_StdPeriph_Driver/src/stm32f10x_usart.c ****   *     @arg USART_IT_IDLE: Idle line detection interrupt
 382:./Libraries/STM32F10x_StdPeriph_Driver/src/stm32f10x_usart.c ****   *     @arg USART_IT_PE:   Parity Error interrupt
 383:./Libraries/STM32F10x_StdPeriph_Driver/src/stm32f10x_usart.c ****   *     @arg USART_IT_ERR:  Error interrupt(Frame error, noise error, overrun error)
 384:./Libraries/STM32F10x_StdPeriph_Driver/src/stm32f10x_usart.c ****   * @param  NewState: new state of the specified USARTx interrupts.
 385:./Libraries/STM32F10x_StdPeriph_Driver/src/stm32f10x_usart.c ****   *   This parameter can be: ENABLE or DISABLE.
 386:./Libraries/STM32F10x_StdPeriph_Driver/src/stm32f10x_usart.c ****   * @retval None
 387:./Libraries/STM32F10x_StdPeriph_Driver/src/stm32f10x_usart.c ****   */
 388:./Libraries/STM32F10x_StdPeriph_Driver/src/stm32f10x_usart.c **** void USART_ITConfig(USART_TypeDef* USARTx, uint16_t USART_IT, FunctionalState NewState)
 389:./Libraries/STM32F10x_StdPeriph_Driver/src/stm32f10x_usart.c **** {
 708              		.loc 1 389 1
 709              		.cfi_startproc
 710              		@ args = 0, pretend = 0, frame = 24
 711              		@ frame_needed = 1, uses_anonymous_args = 0
 712              		@ link register save eliminated.
 713 0000 80B4     		push	{r7}
 714              	.LCFI34:
 715              		.cfi_def_cfa_offset 4
 716              		.cfi_offset 7, -4
 717 0002 87B0     		sub	sp, sp, #28
 718              	.LCFI35:
 719              		.cfi_def_cfa_offset 32
 720 0004 00AF     		add	r7, sp, #0
 721              	.LCFI36:
 722              		.cfi_def_cfa_register 7
 723 0006 7860     		str	r0, [r7, #4]
 724 0008 0B46     		mov	r3, r1
 725 000a 7B80     		strh	r3, [r7, #2]	@ movhi
 726 000c 1346     		mov	r3, r2
 727 000e 7B70     		strb	r3, [r7, #1]
 390:./Libraries/STM32F10x_StdPeriph_Driver/src/stm32f10x_usart.c ****   uint32_t usartreg = 0x00, itpos = 0x00, itmask = 0x00;
 728              		.loc 1 390 12
 729 0010 0023     		movs	r3, #0
 730 0012 3B61     		str	r3, [r7, #16]
 731              		.loc 1 390 29
 732 0014 0023     		movs	r3, #0
 733 0016 FB60     		str	r3, [r7, #12]
 734              		.loc 1 390 43
 735 0018 0023     		movs	r3, #0
 736 001a BB60     		str	r3, [r7, #8]
 391:./Libraries/STM32F10x_StdPeriph_Driver/src/stm32f10x_usart.c ****   uint32_t usartxbase = 0x00;
 737              		.loc 1 391 12
 738 001c 0023     		movs	r3, #0
 739 001e 7B61     		str	r3, [r7, #20]
 392:./Libraries/STM32F10x_StdPeriph_Driver/src/stm32f10x_usart.c ****   /* Check the parameters */
 393:./Libraries/STM32F10x_StdPeriph_Driver/src/stm32f10x_usart.c ****   assert_param(IS_USART_ALL_PERIPH(USARTx));
 394:./Libraries/STM32F10x_StdPeriph_Driver/src/stm32f10x_usart.c ****   assert_param(IS_USART_CONFIG_IT(USART_IT));
 395:./Libraries/STM32F10x_StdPeriph_Driver/src/stm32f10x_usart.c ****   assert_param(IS_FUNCTIONAL_STATE(NewState));
 396:./Libraries/STM32F10x_StdPeriph_Driver/src/stm32f10x_usart.c ****   /* The CTS interrupt is not available for UART4 and UART5 */
 397:./Libraries/STM32F10x_StdPeriph_Driver/src/stm32f10x_usart.c ****   if (USART_IT == USART_IT_CTS)
 398:./Libraries/STM32F10x_StdPeriph_Driver/src/stm32f10x_usart.c ****   {
ARM GAS  C:\Users\hao\AppData\Local\Temp\ccUSoOKU.s 			page 21


 399:./Libraries/STM32F10x_StdPeriph_Driver/src/stm32f10x_usart.c ****     assert_param(IS_USART_123_PERIPH(USARTx));
 400:./Libraries/STM32F10x_StdPeriph_Driver/src/stm32f10x_usart.c ****   }   
 401:./Libraries/STM32F10x_StdPeriph_Driver/src/stm32f10x_usart.c ****   
 402:./Libraries/STM32F10x_StdPeriph_Driver/src/stm32f10x_usart.c ****   usartxbase = (uint32_t)USARTx;
 740              		.loc 1 402 14
 741 0020 7B68     		ldr	r3, [r7, #4]
 742 0022 7B61     		str	r3, [r7, #20]
 403:./Libraries/STM32F10x_StdPeriph_Driver/src/stm32f10x_usart.c **** 
 404:./Libraries/STM32F10x_StdPeriph_Driver/src/stm32f10x_usart.c ****   /* Get the USART register index */
 405:./Libraries/STM32F10x_StdPeriph_Driver/src/stm32f10x_usart.c ****   usartreg = (((uint8_t)USART_IT) >> 0x05);
 743              		.loc 1 405 16
 744 0024 7B88     		ldrh	r3, [r7, #2]	@ movhi
 745 0026 DBB2     		uxtb	r3, r3
 746              		.loc 1 405 35
 747 0028 5B09     		lsrs	r3, r3, #5
 748 002a DBB2     		uxtb	r3, r3
 749              		.loc 1 405 12
 750 002c 3B61     		str	r3, [r7, #16]
 406:./Libraries/STM32F10x_StdPeriph_Driver/src/stm32f10x_usart.c **** 
 407:./Libraries/STM32F10x_StdPeriph_Driver/src/stm32f10x_usart.c ****   /* Get the interrupt position */
 408:./Libraries/STM32F10x_StdPeriph_Driver/src/stm32f10x_usart.c ****   itpos = USART_IT & IT_Mask;
 751              		.loc 1 408 20
 752 002e 7B88     		ldrh	r3, [r7, #2]
 753              		.loc 1 408 9
 754 0030 03F01F03 		and	r3, r3, #31
 755 0034 FB60     		str	r3, [r7, #12]
 409:./Libraries/STM32F10x_StdPeriph_Driver/src/stm32f10x_usart.c ****   itmask = (((uint32_t)0x01) << itpos);
 756              		.loc 1 409 10
 757 0036 0122     		movs	r2, #1
 758 0038 FB68     		ldr	r3, [r7, #12]
 759 003a 02FA03F3 		lsl	r3, r2, r3
 760 003e BB60     		str	r3, [r7, #8]
 410:./Libraries/STM32F10x_StdPeriph_Driver/src/stm32f10x_usart.c ****     
 411:./Libraries/STM32F10x_StdPeriph_Driver/src/stm32f10x_usart.c ****   if (usartreg == 0x01) /* The IT is in CR1 register */
 761              		.loc 1 411 6
 762 0040 3B69     		ldr	r3, [r7, #16]
 763 0042 012B     		cmp	r3, #1
 764 0044 03D1     		bne	.L27
 412:./Libraries/STM32F10x_StdPeriph_Driver/src/stm32f10x_usart.c ****   {
 413:./Libraries/STM32F10x_StdPeriph_Driver/src/stm32f10x_usart.c ****     usartxbase += 0x0C;
 765              		.loc 1 413 16
 766 0046 7B69     		ldr	r3, [r7, #20]
 767 0048 0C33     		adds	r3, r3, #12
 768 004a 7B61     		str	r3, [r7, #20]
 769 004c 09E0     		b	.L28
 770              	.L27:
 414:./Libraries/STM32F10x_StdPeriph_Driver/src/stm32f10x_usart.c ****   }
 415:./Libraries/STM32F10x_StdPeriph_Driver/src/stm32f10x_usart.c ****   else if (usartreg == 0x02) /* The IT is in CR2 register */
 771              		.loc 1 415 11
 772 004e 3B69     		ldr	r3, [r7, #16]
 773 0050 022B     		cmp	r3, #2
 774 0052 03D1     		bne	.L29
 416:./Libraries/STM32F10x_StdPeriph_Driver/src/stm32f10x_usart.c ****   {
 417:./Libraries/STM32F10x_StdPeriph_Driver/src/stm32f10x_usart.c ****     usartxbase += 0x10;
 775              		.loc 1 417 16
 776 0054 7B69     		ldr	r3, [r7, #20]
 777 0056 1033     		adds	r3, r3, #16
ARM GAS  C:\Users\hao\AppData\Local\Temp\ccUSoOKU.s 			page 22


 778 0058 7B61     		str	r3, [r7, #20]
 779 005a 02E0     		b	.L28
 780              	.L29:
 418:./Libraries/STM32F10x_StdPeriph_Driver/src/stm32f10x_usart.c ****   }
 419:./Libraries/STM32F10x_StdPeriph_Driver/src/stm32f10x_usart.c ****   else /* The IT is in CR3 register */
 420:./Libraries/STM32F10x_StdPeriph_Driver/src/stm32f10x_usart.c ****   {
 421:./Libraries/STM32F10x_StdPeriph_Driver/src/stm32f10x_usart.c ****     usartxbase += 0x14; 
 781              		.loc 1 421 16
 782 005c 7B69     		ldr	r3, [r7, #20]
 783 005e 1433     		adds	r3, r3, #20
 784 0060 7B61     		str	r3, [r7, #20]
 785              	.L28:
 422:./Libraries/STM32F10x_StdPeriph_Driver/src/stm32f10x_usart.c ****   }
 423:./Libraries/STM32F10x_StdPeriph_Driver/src/stm32f10x_usart.c ****   if (NewState != DISABLE)
 786              		.loc 1 423 6
 787 0062 7B78     		ldrb	r3, [r7, #1]	@ zero_extendqisi2
 788 0064 002B     		cmp	r3, #0
 789 0066 06D0     		beq	.L30
 424:./Libraries/STM32F10x_StdPeriph_Driver/src/stm32f10x_usart.c ****   {
 425:./Libraries/STM32F10x_StdPeriph_Driver/src/stm32f10x_usart.c ****     *(__IO uint32_t*)usartxbase  |= itmask;
 790              		.loc 1 425 34
 791 0068 7B69     		ldr	r3, [r7, #20]
 792 006a 1968     		ldr	r1, [r3]
 793 006c 7B69     		ldr	r3, [r7, #20]
 794 006e BA68     		ldr	r2, [r7, #8]
 795 0070 0A43     		orrs	r2, r2, r1
 796 0072 1A60     		str	r2, [r3]
 426:./Libraries/STM32F10x_StdPeriph_Driver/src/stm32f10x_usart.c ****   }
 427:./Libraries/STM32F10x_StdPeriph_Driver/src/stm32f10x_usart.c ****   else
 428:./Libraries/STM32F10x_StdPeriph_Driver/src/stm32f10x_usart.c ****   {
 429:./Libraries/STM32F10x_StdPeriph_Driver/src/stm32f10x_usart.c ****     *(__IO uint32_t*)usartxbase &= ~itmask;
 430:./Libraries/STM32F10x_StdPeriph_Driver/src/stm32f10x_usart.c ****   }
 431:./Libraries/STM32F10x_StdPeriph_Driver/src/stm32f10x_usart.c **** }
 797              		.loc 1 431 1
 798 0074 06E0     		b	.L32
 799              	.L30:
 429:./Libraries/STM32F10x_StdPeriph_Driver/src/stm32f10x_usart.c ****   }
 800              		.loc 1 429 33
 801 0076 7B69     		ldr	r3, [r7, #20]
 802 0078 1968     		ldr	r1, [r3]
 429:./Libraries/STM32F10x_StdPeriph_Driver/src/stm32f10x_usart.c ****   }
 803              		.loc 1 429 36
 804 007a BB68     		ldr	r3, [r7, #8]
 805 007c DA43     		mvns	r2, r3
 429:./Libraries/STM32F10x_StdPeriph_Driver/src/stm32f10x_usart.c ****   }
 806              		.loc 1 429 33
 807 007e 7B69     		ldr	r3, [r7, #20]
 808 0080 0A40     		ands	r2, r2, r1
 809 0082 1A60     		str	r2, [r3]
 810              	.L32:
 811              		.loc 1 431 1
 812 0084 00BF     		nop
 813 0086 1C37     		adds	r7, r7, #28
 814              	.LCFI37:
 815              		.cfi_def_cfa_offset 4
 816 0088 BD46     		mov	sp, r7
 817              	.LCFI38:
ARM GAS  C:\Users\hao\AppData\Local\Temp\ccUSoOKU.s 			page 23


 818              		.cfi_def_cfa_register 13
 819              		@ sp needed
 820 008a 80BC     		pop	{r7}
 821              	.LCFI39:
 822              		.cfi_restore 7
 823              		.cfi_def_cfa_offset 0
 824 008c 7047     		bx	lr
 825              		.cfi_endproc
 826              	.LFE35:
 828              		.section	.text.USART_DMACmd,"ax",%progbits
 829              		.align	1
 830              		.global	USART_DMACmd
 831              		.syntax unified
 832              		.thumb
 833              		.thumb_func
 835              	USART_DMACmd:
 836              	.LFB36:
 432:./Libraries/STM32F10x_StdPeriph_Driver/src/stm32f10x_usart.c **** 
 433:./Libraries/STM32F10x_StdPeriph_Driver/src/stm32f10x_usart.c **** /**
 434:./Libraries/STM32F10x_StdPeriph_Driver/src/stm32f10x_usart.c ****   * @brief  Enables or disables the USARTs DMA interface.
 435:./Libraries/STM32F10x_StdPeriph_Driver/src/stm32f10x_usart.c ****   * @param  USARTx: Select the USART or the UART peripheral. 
 436:./Libraries/STM32F10x_StdPeriph_Driver/src/stm32f10x_usart.c ****   *   This parameter can be one of the following values:
 437:./Libraries/STM32F10x_StdPeriph_Driver/src/stm32f10x_usart.c ****   *   USART1, USART2, USART3, UART4 or UART5.
 438:./Libraries/STM32F10x_StdPeriph_Driver/src/stm32f10x_usart.c ****   * @param  USART_DMAReq: specifies the DMA request.
 439:./Libraries/STM32F10x_StdPeriph_Driver/src/stm32f10x_usart.c ****   *   This parameter can be any combination of the following values:
 440:./Libraries/STM32F10x_StdPeriph_Driver/src/stm32f10x_usart.c ****   *     @arg USART_DMAReq_Tx: USART DMA transmit request
 441:./Libraries/STM32F10x_StdPeriph_Driver/src/stm32f10x_usart.c ****   *     @arg USART_DMAReq_Rx: USART DMA receive request
 442:./Libraries/STM32F10x_StdPeriph_Driver/src/stm32f10x_usart.c ****   * @param  NewState: new state of the DMA Request sources.
 443:./Libraries/STM32F10x_StdPeriph_Driver/src/stm32f10x_usart.c ****   *   This parameter can be: ENABLE or DISABLE.
 444:./Libraries/STM32F10x_StdPeriph_Driver/src/stm32f10x_usart.c ****   * @note The DMA mode is not available for UART5 except in the STM32
 445:./Libraries/STM32F10x_StdPeriph_Driver/src/stm32f10x_usart.c ****   *       High density value line devices(STM32F10X_HD_VL).  
 446:./Libraries/STM32F10x_StdPeriph_Driver/src/stm32f10x_usart.c ****   * @retval None
 447:./Libraries/STM32F10x_StdPeriph_Driver/src/stm32f10x_usart.c ****   */
 448:./Libraries/STM32F10x_StdPeriph_Driver/src/stm32f10x_usart.c **** void USART_DMACmd(USART_TypeDef* USARTx, uint16_t USART_DMAReq, FunctionalState NewState)
 449:./Libraries/STM32F10x_StdPeriph_Driver/src/stm32f10x_usart.c **** {
 837              		.loc 1 449 1
 838              		.cfi_startproc
 839              		@ args = 0, pretend = 0, frame = 8
 840              		@ frame_needed = 1, uses_anonymous_args = 0
 841              		@ link register save eliminated.
 842 0000 80B4     		push	{r7}
 843              	.LCFI40:
 844              		.cfi_def_cfa_offset 4
 845              		.cfi_offset 7, -4
 846 0002 83B0     		sub	sp, sp, #12
 847              	.LCFI41:
 848              		.cfi_def_cfa_offset 16
 849 0004 00AF     		add	r7, sp, #0
 850              	.LCFI42:
 851              		.cfi_def_cfa_register 7
 852 0006 7860     		str	r0, [r7, #4]
 853 0008 0B46     		mov	r3, r1
 854 000a 7B80     		strh	r3, [r7, #2]	@ movhi
 855 000c 1346     		mov	r3, r2
 856 000e 7B70     		strb	r3, [r7, #1]
 450:./Libraries/STM32F10x_StdPeriph_Driver/src/stm32f10x_usart.c ****   /* Check the parameters */
 451:./Libraries/STM32F10x_StdPeriph_Driver/src/stm32f10x_usart.c ****   assert_param(IS_USART_ALL_PERIPH(USARTx));
ARM GAS  C:\Users\hao\AppData\Local\Temp\ccUSoOKU.s 			page 24


 452:./Libraries/STM32F10x_StdPeriph_Driver/src/stm32f10x_usart.c ****   assert_param(IS_USART_DMAREQ(USART_DMAReq));  
 453:./Libraries/STM32F10x_StdPeriph_Driver/src/stm32f10x_usart.c ****   assert_param(IS_FUNCTIONAL_STATE(NewState)); 
 454:./Libraries/STM32F10x_StdPeriph_Driver/src/stm32f10x_usart.c ****   if (NewState != DISABLE)
 857              		.loc 1 454 6
 858 0010 7B78     		ldrb	r3, [r7, #1]	@ zero_extendqisi2
 859 0012 002B     		cmp	r3, #0
 860 0014 08D0     		beq	.L34
 455:./Libraries/STM32F10x_StdPeriph_Driver/src/stm32f10x_usart.c ****   {
 456:./Libraries/STM32F10x_StdPeriph_Driver/src/stm32f10x_usart.c ****     /* Enable the DMA transfer for selected requests by setting the DMAT and/or
 457:./Libraries/STM32F10x_StdPeriph_Driver/src/stm32f10x_usart.c ****        DMAR bits in the USART CR3 register */
 458:./Libraries/STM32F10x_StdPeriph_Driver/src/stm32f10x_usart.c ****     USARTx->CR3 |= USART_DMAReq;
 861              		.loc 1 458 17
 862 0016 7B68     		ldr	r3, [r7, #4]
 863 0018 9B8A     		ldrh	r3, [r3, #20]	@ movhi
 864 001a 9AB2     		uxth	r2, r3
 865 001c 7B88     		ldrh	r3, [r7, #2]	@ movhi
 866 001e 1343     		orrs	r3, r3, r2
 867 0020 9AB2     		uxth	r2, r3
 868 0022 7B68     		ldr	r3, [r7, #4]
 869 0024 9A82     		strh	r2, [r3, #20]	@ movhi
 459:./Libraries/STM32F10x_StdPeriph_Driver/src/stm32f10x_usart.c ****   }
 460:./Libraries/STM32F10x_StdPeriph_Driver/src/stm32f10x_usart.c ****   else
 461:./Libraries/STM32F10x_StdPeriph_Driver/src/stm32f10x_usart.c ****   {
 462:./Libraries/STM32F10x_StdPeriph_Driver/src/stm32f10x_usart.c ****     /* Disable the DMA transfer for selected requests by clearing the DMAT and/or
 463:./Libraries/STM32F10x_StdPeriph_Driver/src/stm32f10x_usart.c ****        DMAR bits in the USART CR3 register */
 464:./Libraries/STM32F10x_StdPeriph_Driver/src/stm32f10x_usart.c ****     USARTx->CR3 &= (uint16_t)~USART_DMAReq;
 465:./Libraries/STM32F10x_StdPeriph_Driver/src/stm32f10x_usart.c ****   }
 466:./Libraries/STM32F10x_StdPeriph_Driver/src/stm32f10x_usart.c **** }
 870              		.loc 1 466 1
 871 0026 09E0     		b	.L36
 872              	.L34:
 464:./Libraries/STM32F10x_StdPeriph_Driver/src/stm32f10x_usart.c ****   }
 873              		.loc 1 464 17
 874 0028 7B68     		ldr	r3, [r7, #4]
 875 002a 9B8A     		ldrh	r3, [r3, #20]	@ movhi
 876 002c 9AB2     		uxth	r2, r3
 464:./Libraries/STM32F10x_StdPeriph_Driver/src/stm32f10x_usart.c ****   }
 877              		.loc 1 464 20
 878 002e 7B88     		ldrh	r3, [r7, #2]	@ movhi
 879 0030 DB43     		mvns	r3, r3
 880 0032 9BB2     		uxth	r3, r3
 464:./Libraries/STM32F10x_StdPeriph_Driver/src/stm32f10x_usart.c ****   }
 881              		.loc 1 464 17
 882 0034 1340     		ands	r3, r3, r2
 883 0036 9AB2     		uxth	r2, r3
 884 0038 7B68     		ldr	r3, [r7, #4]
 885 003a 9A82     		strh	r2, [r3, #20]	@ movhi
 886              	.L36:
 887              		.loc 1 466 1
 888 003c 00BF     		nop
 889 003e 0C37     		adds	r7, r7, #12
 890              	.LCFI43:
 891              		.cfi_def_cfa_offset 4
 892 0040 BD46     		mov	sp, r7
 893              	.LCFI44:
 894              		.cfi_def_cfa_register 13
 895              		@ sp needed
ARM GAS  C:\Users\hao\AppData\Local\Temp\ccUSoOKU.s 			page 25


 896 0042 80BC     		pop	{r7}
 897              	.LCFI45:
 898              		.cfi_restore 7
 899              		.cfi_def_cfa_offset 0
 900 0044 7047     		bx	lr
 901              		.cfi_endproc
 902              	.LFE36:
 904              		.section	.text.USART_SetAddress,"ax",%progbits
 905              		.align	1
 906              		.global	USART_SetAddress
 907              		.syntax unified
 908              		.thumb
 909              		.thumb_func
 911              	USART_SetAddress:
 912              	.LFB37:
 467:./Libraries/STM32F10x_StdPeriph_Driver/src/stm32f10x_usart.c **** 
 468:./Libraries/STM32F10x_StdPeriph_Driver/src/stm32f10x_usart.c **** /**
 469:./Libraries/STM32F10x_StdPeriph_Driver/src/stm32f10x_usart.c ****   * @brief  Sets the address of the USART node.
 470:./Libraries/STM32F10x_StdPeriph_Driver/src/stm32f10x_usart.c ****   * @param  USARTx: Select the USART or the UART peripheral. 
 471:./Libraries/STM32F10x_StdPeriph_Driver/src/stm32f10x_usart.c ****   *   This parameter can be one of the following values:
 472:./Libraries/STM32F10x_StdPeriph_Driver/src/stm32f10x_usart.c ****   *   USART1, USART2, USART3, UART4 or UART5.
 473:./Libraries/STM32F10x_StdPeriph_Driver/src/stm32f10x_usart.c ****   * @param  USART_Address: Indicates the address of the USART node.
 474:./Libraries/STM32F10x_StdPeriph_Driver/src/stm32f10x_usart.c ****   * @retval None
 475:./Libraries/STM32F10x_StdPeriph_Driver/src/stm32f10x_usart.c ****   */
 476:./Libraries/STM32F10x_StdPeriph_Driver/src/stm32f10x_usart.c **** void USART_SetAddress(USART_TypeDef* USARTx, uint8_t USART_Address)
 477:./Libraries/STM32F10x_StdPeriph_Driver/src/stm32f10x_usart.c **** {
 913              		.loc 1 477 1
 914              		.cfi_startproc
 915              		@ args = 0, pretend = 0, frame = 8
 916              		@ frame_needed = 1, uses_anonymous_args = 0
 917              		@ link register save eliminated.
 918 0000 80B4     		push	{r7}
 919              	.LCFI46:
 920              		.cfi_def_cfa_offset 4
 921              		.cfi_offset 7, -4
 922 0002 83B0     		sub	sp, sp, #12
 923              	.LCFI47:
 924              		.cfi_def_cfa_offset 16
 925 0004 00AF     		add	r7, sp, #0
 926              	.LCFI48:
 927              		.cfi_def_cfa_register 7
 928 0006 7860     		str	r0, [r7, #4]
 929 0008 0B46     		mov	r3, r1
 930 000a FB70     		strb	r3, [r7, #3]
 478:./Libraries/STM32F10x_StdPeriph_Driver/src/stm32f10x_usart.c ****   /* Check the parameters */
 479:./Libraries/STM32F10x_StdPeriph_Driver/src/stm32f10x_usart.c ****   assert_param(IS_USART_ALL_PERIPH(USARTx));
 480:./Libraries/STM32F10x_StdPeriph_Driver/src/stm32f10x_usart.c ****   assert_param(IS_USART_ADDRESS(USART_Address)); 
 481:./Libraries/STM32F10x_StdPeriph_Driver/src/stm32f10x_usart.c ****     
 482:./Libraries/STM32F10x_StdPeriph_Driver/src/stm32f10x_usart.c ****   /* Clear the USART address */
 483:./Libraries/STM32F10x_StdPeriph_Driver/src/stm32f10x_usart.c ****   USARTx->CR2 &= CR2_Address_Mask;
 931              		.loc 1 483 15
 932 000c 7B68     		ldr	r3, [r7, #4]
 933 000e 1B8A     		ldrh	r3, [r3, #16]	@ movhi
 934 0010 9BB2     		uxth	r3, r3
 935 0012 23F00F03 		bic	r3, r3, #15
 936 0016 9AB2     		uxth	r2, r3
 937 0018 7B68     		ldr	r3, [r7, #4]
ARM GAS  C:\Users\hao\AppData\Local\Temp\ccUSoOKU.s 			page 26


 938 001a 1A82     		strh	r2, [r3, #16]	@ movhi
 484:./Libraries/STM32F10x_StdPeriph_Driver/src/stm32f10x_usart.c ****   /* Set the USART address node */
 485:./Libraries/STM32F10x_StdPeriph_Driver/src/stm32f10x_usart.c ****   USARTx->CR2 |= USART_Address;
 939              		.loc 1 485 15
 940 001c 7B68     		ldr	r3, [r7, #4]
 941 001e 1B8A     		ldrh	r3, [r3, #16]	@ movhi
 942 0020 9AB2     		uxth	r2, r3
 943 0022 FB78     		ldrb	r3, [r7, #3]	@ zero_extendqisi2
 944 0024 9BB2     		uxth	r3, r3
 945 0026 1343     		orrs	r3, r3, r2
 946 0028 9AB2     		uxth	r2, r3
 947 002a 7B68     		ldr	r3, [r7, #4]
 948 002c 1A82     		strh	r2, [r3, #16]	@ movhi
 486:./Libraries/STM32F10x_StdPeriph_Driver/src/stm32f10x_usart.c **** }
 949              		.loc 1 486 1
 950 002e 00BF     		nop
 951 0030 0C37     		adds	r7, r7, #12
 952              	.LCFI49:
 953              		.cfi_def_cfa_offset 4
 954 0032 BD46     		mov	sp, r7
 955              	.LCFI50:
 956              		.cfi_def_cfa_register 13
 957              		@ sp needed
 958 0034 80BC     		pop	{r7}
 959              	.LCFI51:
 960              		.cfi_restore 7
 961              		.cfi_def_cfa_offset 0
 962 0036 7047     		bx	lr
 963              		.cfi_endproc
 964              	.LFE37:
 966              		.section	.text.USART_WakeUpConfig,"ax",%progbits
 967              		.align	1
 968              		.global	USART_WakeUpConfig
 969              		.syntax unified
 970              		.thumb
 971              		.thumb_func
 973              	USART_WakeUpConfig:
 974              	.LFB38:
 487:./Libraries/STM32F10x_StdPeriph_Driver/src/stm32f10x_usart.c **** 
 488:./Libraries/STM32F10x_StdPeriph_Driver/src/stm32f10x_usart.c **** /**
 489:./Libraries/STM32F10x_StdPeriph_Driver/src/stm32f10x_usart.c ****   * @brief  Selects the USART WakeUp method.
 490:./Libraries/STM32F10x_StdPeriph_Driver/src/stm32f10x_usart.c ****   * @param  USARTx: Select the USART or the UART peripheral. 
 491:./Libraries/STM32F10x_StdPeriph_Driver/src/stm32f10x_usart.c ****   *   This parameter can be one of the following values:
 492:./Libraries/STM32F10x_StdPeriph_Driver/src/stm32f10x_usart.c ****   *   USART1, USART2, USART3, UART4 or UART5.
 493:./Libraries/STM32F10x_StdPeriph_Driver/src/stm32f10x_usart.c ****   * @param  USART_WakeUp: specifies the USART wakeup method.
 494:./Libraries/STM32F10x_StdPeriph_Driver/src/stm32f10x_usart.c ****   *   This parameter can be one of the following values:
 495:./Libraries/STM32F10x_StdPeriph_Driver/src/stm32f10x_usart.c ****   *     @arg USART_WakeUp_IdleLine: WakeUp by an idle line detection
 496:./Libraries/STM32F10x_StdPeriph_Driver/src/stm32f10x_usart.c ****   *     @arg USART_WakeUp_AddressMark: WakeUp by an address mark
 497:./Libraries/STM32F10x_StdPeriph_Driver/src/stm32f10x_usart.c ****   * @retval None
 498:./Libraries/STM32F10x_StdPeriph_Driver/src/stm32f10x_usart.c ****   */
 499:./Libraries/STM32F10x_StdPeriph_Driver/src/stm32f10x_usart.c **** void USART_WakeUpConfig(USART_TypeDef* USARTx, uint16_t USART_WakeUp)
 500:./Libraries/STM32F10x_StdPeriph_Driver/src/stm32f10x_usart.c **** {
 975              		.loc 1 500 1
 976              		.cfi_startproc
 977              		@ args = 0, pretend = 0, frame = 8
 978              		@ frame_needed = 1, uses_anonymous_args = 0
 979              		@ link register save eliminated.
ARM GAS  C:\Users\hao\AppData\Local\Temp\ccUSoOKU.s 			page 27


 980 0000 80B4     		push	{r7}
 981              	.LCFI52:
 982              		.cfi_def_cfa_offset 4
 983              		.cfi_offset 7, -4
 984 0002 83B0     		sub	sp, sp, #12
 985              	.LCFI53:
 986              		.cfi_def_cfa_offset 16
 987 0004 00AF     		add	r7, sp, #0
 988              	.LCFI54:
 989              		.cfi_def_cfa_register 7
 990 0006 7860     		str	r0, [r7, #4]
 991 0008 0B46     		mov	r3, r1
 992 000a 7B80     		strh	r3, [r7, #2]	@ movhi
 501:./Libraries/STM32F10x_StdPeriph_Driver/src/stm32f10x_usart.c ****   /* Check the parameters */
 502:./Libraries/STM32F10x_StdPeriph_Driver/src/stm32f10x_usart.c ****   assert_param(IS_USART_ALL_PERIPH(USARTx));
 503:./Libraries/STM32F10x_StdPeriph_Driver/src/stm32f10x_usart.c ****   assert_param(IS_USART_WAKEUP(USART_WakeUp));
 504:./Libraries/STM32F10x_StdPeriph_Driver/src/stm32f10x_usart.c ****   
 505:./Libraries/STM32F10x_StdPeriph_Driver/src/stm32f10x_usart.c ****   USARTx->CR1 &= CR1_WAKE_Mask;
 993              		.loc 1 505 15
 994 000c 7B68     		ldr	r3, [r7, #4]
 995 000e 9B89     		ldrh	r3, [r3, #12]	@ movhi
 996 0010 9BB2     		uxth	r3, r3
 997 0012 23F40063 		bic	r3, r3, #2048
 998 0016 9AB2     		uxth	r2, r3
 999 0018 7B68     		ldr	r3, [r7, #4]
 1000 001a 9A81     		strh	r2, [r3, #12]	@ movhi
 506:./Libraries/STM32F10x_StdPeriph_Driver/src/stm32f10x_usart.c ****   USARTx->CR1 |= USART_WakeUp;
 1001              		.loc 1 506 15
 1002 001c 7B68     		ldr	r3, [r7, #4]
 1003 001e 9B89     		ldrh	r3, [r3, #12]	@ movhi
 1004 0020 9AB2     		uxth	r2, r3
 1005 0022 7B88     		ldrh	r3, [r7, #2]	@ movhi
 1006 0024 1343     		orrs	r3, r3, r2
 1007 0026 9AB2     		uxth	r2, r3
 1008 0028 7B68     		ldr	r3, [r7, #4]
 1009 002a 9A81     		strh	r2, [r3, #12]	@ movhi
 507:./Libraries/STM32F10x_StdPeriph_Driver/src/stm32f10x_usart.c **** }
 1010              		.loc 1 507 1
 1011 002c 00BF     		nop
 1012 002e 0C37     		adds	r7, r7, #12
 1013              	.LCFI55:
 1014              		.cfi_def_cfa_offset 4
 1015 0030 BD46     		mov	sp, r7
 1016              	.LCFI56:
 1017              		.cfi_def_cfa_register 13
 1018              		@ sp needed
 1019 0032 80BC     		pop	{r7}
 1020              	.LCFI57:
 1021              		.cfi_restore 7
 1022              		.cfi_def_cfa_offset 0
 1023 0034 7047     		bx	lr
 1024              		.cfi_endproc
 1025              	.LFE38:
 1027              		.section	.text.USART_ReceiverWakeUpCmd,"ax",%progbits
 1028              		.align	1
 1029              		.global	USART_ReceiverWakeUpCmd
 1030              		.syntax unified
ARM GAS  C:\Users\hao\AppData\Local\Temp\ccUSoOKU.s 			page 28


 1031              		.thumb
 1032              		.thumb_func
 1034              	USART_ReceiverWakeUpCmd:
 1035              	.LFB39:
 508:./Libraries/STM32F10x_StdPeriph_Driver/src/stm32f10x_usart.c **** 
 509:./Libraries/STM32F10x_StdPeriph_Driver/src/stm32f10x_usart.c **** /**
 510:./Libraries/STM32F10x_StdPeriph_Driver/src/stm32f10x_usart.c ****   * @brief  Determines if the USART is in mute mode or not.
 511:./Libraries/STM32F10x_StdPeriph_Driver/src/stm32f10x_usart.c ****   * @param  USARTx: Select the USART or the UART peripheral. 
 512:./Libraries/STM32F10x_StdPeriph_Driver/src/stm32f10x_usart.c ****   *   This parameter can be one of the following values:
 513:./Libraries/STM32F10x_StdPeriph_Driver/src/stm32f10x_usart.c ****   *   USART1, USART2, USART3, UART4 or UART5.
 514:./Libraries/STM32F10x_StdPeriph_Driver/src/stm32f10x_usart.c ****   * @param  NewState: new state of the USART mute mode.
 515:./Libraries/STM32F10x_StdPeriph_Driver/src/stm32f10x_usart.c ****   *   This parameter can be: ENABLE or DISABLE.
 516:./Libraries/STM32F10x_StdPeriph_Driver/src/stm32f10x_usart.c ****   * @retval None
 517:./Libraries/STM32F10x_StdPeriph_Driver/src/stm32f10x_usart.c ****   */
 518:./Libraries/STM32F10x_StdPeriph_Driver/src/stm32f10x_usart.c **** void USART_ReceiverWakeUpCmd(USART_TypeDef* USARTx, FunctionalState NewState)
 519:./Libraries/STM32F10x_StdPeriph_Driver/src/stm32f10x_usart.c **** {
 1036              		.loc 1 519 1
 1037              		.cfi_startproc
 1038              		@ args = 0, pretend = 0, frame = 8
 1039              		@ frame_needed = 1, uses_anonymous_args = 0
 1040              		@ link register save eliminated.
 1041 0000 80B4     		push	{r7}
 1042              	.LCFI58:
 1043              		.cfi_def_cfa_offset 4
 1044              		.cfi_offset 7, -4
 1045 0002 83B0     		sub	sp, sp, #12
 1046              	.LCFI59:
 1047              		.cfi_def_cfa_offset 16
 1048 0004 00AF     		add	r7, sp, #0
 1049              	.LCFI60:
 1050              		.cfi_def_cfa_register 7
 1051 0006 7860     		str	r0, [r7, #4]
 1052 0008 0B46     		mov	r3, r1
 1053 000a FB70     		strb	r3, [r7, #3]
 520:./Libraries/STM32F10x_StdPeriph_Driver/src/stm32f10x_usart.c ****   /* Check the parameters */
 521:./Libraries/STM32F10x_StdPeriph_Driver/src/stm32f10x_usart.c ****   assert_param(IS_USART_ALL_PERIPH(USARTx));
 522:./Libraries/STM32F10x_StdPeriph_Driver/src/stm32f10x_usart.c ****   assert_param(IS_FUNCTIONAL_STATE(NewState)); 
 523:./Libraries/STM32F10x_StdPeriph_Driver/src/stm32f10x_usart.c ****   
 524:./Libraries/STM32F10x_StdPeriph_Driver/src/stm32f10x_usart.c ****   if (NewState != DISABLE)
 1054              		.loc 1 524 6
 1055 000c FB78     		ldrb	r3, [r7, #3]	@ zero_extendqisi2
 1056 000e 002B     		cmp	r3, #0
 1057 0010 08D0     		beq	.L40
 525:./Libraries/STM32F10x_StdPeriph_Driver/src/stm32f10x_usart.c ****   {
 526:./Libraries/STM32F10x_StdPeriph_Driver/src/stm32f10x_usart.c ****     /* Enable the USART mute mode  by setting the RWU bit in the CR1 register */
 527:./Libraries/STM32F10x_StdPeriph_Driver/src/stm32f10x_usart.c ****     USARTx->CR1 |= CR1_RWU_Set;
 1058              		.loc 1 527 17
 1059 0012 7B68     		ldr	r3, [r7, #4]
 1060 0014 9B89     		ldrh	r3, [r3, #12]	@ movhi
 1061 0016 9BB2     		uxth	r3, r3
 1062 0018 43F00203 		orr	r3, r3, #2
 1063 001c 9AB2     		uxth	r2, r3
 1064 001e 7B68     		ldr	r3, [r7, #4]
 1065 0020 9A81     		strh	r2, [r3, #12]	@ movhi
 528:./Libraries/STM32F10x_StdPeriph_Driver/src/stm32f10x_usart.c ****   }
 529:./Libraries/STM32F10x_StdPeriph_Driver/src/stm32f10x_usart.c ****   else
 530:./Libraries/STM32F10x_StdPeriph_Driver/src/stm32f10x_usart.c ****   {
ARM GAS  C:\Users\hao\AppData\Local\Temp\ccUSoOKU.s 			page 29


 531:./Libraries/STM32F10x_StdPeriph_Driver/src/stm32f10x_usart.c ****     /* Disable the USART mute mode by clearing the RWU bit in the CR1 register */
 532:./Libraries/STM32F10x_StdPeriph_Driver/src/stm32f10x_usart.c ****     USARTx->CR1 &= CR1_RWU_Reset;
 533:./Libraries/STM32F10x_StdPeriph_Driver/src/stm32f10x_usart.c ****   }
 534:./Libraries/STM32F10x_StdPeriph_Driver/src/stm32f10x_usart.c **** }
 1066              		.loc 1 534 1
 1067 0022 07E0     		b	.L42
 1068              	.L40:
 532:./Libraries/STM32F10x_StdPeriph_Driver/src/stm32f10x_usart.c ****   }
 1069              		.loc 1 532 17
 1070 0024 7B68     		ldr	r3, [r7, #4]
 1071 0026 9B89     		ldrh	r3, [r3, #12]	@ movhi
 1072 0028 9BB2     		uxth	r3, r3
 1073 002a 23F00203 		bic	r3, r3, #2
 1074 002e 9AB2     		uxth	r2, r3
 1075 0030 7B68     		ldr	r3, [r7, #4]
 1076 0032 9A81     		strh	r2, [r3, #12]	@ movhi
 1077              	.L42:
 1078              		.loc 1 534 1
 1079 0034 00BF     		nop
 1080 0036 0C37     		adds	r7, r7, #12
 1081              	.LCFI61:
 1082              		.cfi_def_cfa_offset 4
 1083 0038 BD46     		mov	sp, r7
 1084              	.LCFI62:
 1085              		.cfi_def_cfa_register 13
 1086              		@ sp needed
 1087 003a 80BC     		pop	{r7}
 1088              	.LCFI63:
 1089              		.cfi_restore 7
 1090              		.cfi_def_cfa_offset 0
 1091 003c 7047     		bx	lr
 1092              		.cfi_endproc
 1093              	.LFE39:
 1095              		.section	.text.USART_LINBreakDetectLengthConfig,"ax",%progbits
 1096              		.align	1
 1097              		.global	USART_LINBreakDetectLengthConfig
 1098              		.syntax unified
 1099              		.thumb
 1100              		.thumb_func
 1102              	USART_LINBreakDetectLengthConfig:
 1103              	.LFB40:
 535:./Libraries/STM32F10x_StdPeriph_Driver/src/stm32f10x_usart.c **** 
 536:./Libraries/STM32F10x_StdPeriph_Driver/src/stm32f10x_usart.c **** /**
 537:./Libraries/STM32F10x_StdPeriph_Driver/src/stm32f10x_usart.c ****   * @brief  Sets the USART LIN Break detection length.
 538:./Libraries/STM32F10x_StdPeriph_Driver/src/stm32f10x_usart.c ****   * @param  USARTx: Select the USART or the UART peripheral. 
 539:./Libraries/STM32F10x_StdPeriph_Driver/src/stm32f10x_usart.c ****   *   This parameter can be one of the following values:
 540:./Libraries/STM32F10x_StdPeriph_Driver/src/stm32f10x_usart.c ****   *   USART1, USART2, USART3, UART4 or UART5.
 541:./Libraries/STM32F10x_StdPeriph_Driver/src/stm32f10x_usart.c ****   * @param  USART_LINBreakDetectLength: specifies the LIN break detection length.
 542:./Libraries/STM32F10x_StdPeriph_Driver/src/stm32f10x_usart.c ****   *   This parameter can be one of the following values:
 543:./Libraries/STM32F10x_StdPeriph_Driver/src/stm32f10x_usart.c ****   *     @arg USART_LINBreakDetectLength_10b: 10-bit break detection
 544:./Libraries/STM32F10x_StdPeriph_Driver/src/stm32f10x_usart.c ****   *     @arg USART_LINBreakDetectLength_11b: 11-bit break detection
 545:./Libraries/STM32F10x_StdPeriph_Driver/src/stm32f10x_usart.c ****   * @retval None
 546:./Libraries/STM32F10x_StdPeriph_Driver/src/stm32f10x_usart.c ****   */
 547:./Libraries/STM32F10x_StdPeriph_Driver/src/stm32f10x_usart.c **** void USART_LINBreakDetectLengthConfig(USART_TypeDef* USARTx, uint16_t USART_LINBreakDetectLength)
 548:./Libraries/STM32F10x_StdPeriph_Driver/src/stm32f10x_usart.c **** {
 1104              		.loc 1 548 1
 1105              		.cfi_startproc
ARM GAS  C:\Users\hao\AppData\Local\Temp\ccUSoOKU.s 			page 30


 1106              		@ args = 0, pretend = 0, frame = 8
 1107              		@ frame_needed = 1, uses_anonymous_args = 0
 1108              		@ link register save eliminated.
 1109 0000 80B4     		push	{r7}
 1110              	.LCFI64:
 1111              		.cfi_def_cfa_offset 4
 1112              		.cfi_offset 7, -4
 1113 0002 83B0     		sub	sp, sp, #12
 1114              	.LCFI65:
 1115              		.cfi_def_cfa_offset 16
 1116 0004 00AF     		add	r7, sp, #0
 1117              	.LCFI66:
 1118              		.cfi_def_cfa_register 7
 1119 0006 7860     		str	r0, [r7, #4]
 1120 0008 0B46     		mov	r3, r1
 1121 000a 7B80     		strh	r3, [r7, #2]	@ movhi
 549:./Libraries/STM32F10x_StdPeriph_Driver/src/stm32f10x_usart.c ****   /* Check the parameters */
 550:./Libraries/STM32F10x_StdPeriph_Driver/src/stm32f10x_usart.c ****   assert_param(IS_USART_ALL_PERIPH(USARTx));
 551:./Libraries/STM32F10x_StdPeriph_Driver/src/stm32f10x_usart.c ****   assert_param(IS_USART_LIN_BREAK_DETECT_LENGTH(USART_LINBreakDetectLength));
 552:./Libraries/STM32F10x_StdPeriph_Driver/src/stm32f10x_usart.c ****   
 553:./Libraries/STM32F10x_StdPeriph_Driver/src/stm32f10x_usart.c ****   USARTx->CR2 &= CR2_LBDL_Mask;
 1122              		.loc 1 553 15
 1123 000c 7B68     		ldr	r3, [r7, #4]
 1124 000e 1B8A     		ldrh	r3, [r3, #16]	@ movhi
 1125 0010 9BB2     		uxth	r3, r3
 1126 0012 23F02003 		bic	r3, r3, #32
 1127 0016 9AB2     		uxth	r2, r3
 1128 0018 7B68     		ldr	r3, [r7, #4]
 1129 001a 1A82     		strh	r2, [r3, #16]	@ movhi
 554:./Libraries/STM32F10x_StdPeriph_Driver/src/stm32f10x_usart.c ****   USARTx->CR2 |= USART_LINBreakDetectLength;  
 1130              		.loc 1 554 15
 1131 001c 7B68     		ldr	r3, [r7, #4]
 1132 001e 1B8A     		ldrh	r3, [r3, #16]	@ movhi
 1133 0020 9AB2     		uxth	r2, r3
 1134 0022 7B88     		ldrh	r3, [r7, #2]	@ movhi
 1135 0024 1343     		orrs	r3, r3, r2
 1136 0026 9AB2     		uxth	r2, r3
 1137 0028 7B68     		ldr	r3, [r7, #4]
 1138 002a 1A82     		strh	r2, [r3, #16]	@ movhi
 555:./Libraries/STM32F10x_StdPeriph_Driver/src/stm32f10x_usart.c **** }
 1139              		.loc 1 555 1
 1140 002c 00BF     		nop
 1141 002e 0C37     		adds	r7, r7, #12
 1142              	.LCFI67:
 1143              		.cfi_def_cfa_offset 4
 1144 0030 BD46     		mov	sp, r7
 1145              	.LCFI68:
 1146              		.cfi_def_cfa_register 13
 1147              		@ sp needed
 1148 0032 80BC     		pop	{r7}
 1149              	.LCFI69:
 1150              		.cfi_restore 7
 1151              		.cfi_def_cfa_offset 0
 1152 0034 7047     		bx	lr
 1153              		.cfi_endproc
 1154              	.LFE40:
 1156              		.section	.text.USART_LINCmd,"ax",%progbits
ARM GAS  C:\Users\hao\AppData\Local\Temp\ccUSoOKU.s 			page 31


 1157              		.align	1
 1158              		.global	USART_LINCmd
 1159              		.syntax unified
 1160              		.thumb
 1161              		.thumb_func
 1163              	USART_LINCmd:
 1164              	.LFB41:
 556:./Libraries/STM32F10x_StdPeriph_Driver/src/stm32f10x_usart.c **** 
 557:./Libraries/STM32F10x_StdPeriph_Driver/src/stm32f10x_usart.c **** /**
 558:./Libraries/STM32F10x_StdPeriph_Driver/src/stm32f10x_usart.c ****   * @brief  Enables or disables the USARTs LIN mode.
 559:./Libraries/STM32F10x_StdPeriph_Driver/src/stm32f10x_usart.c ****   * @param  USARTx: Select the USART or the UART peripheral. 
 560:./Libraries/STM32F10x_StdPeriph_Driver/src/stm32f10x_usart.c ****   *   This parameter can be one of the following values:
 561:./Libraries/STM32F10x_StdPeriph_Driver/src/stm32f10x_usart.c ****   *   USART1, USART2, USART3, UART4 or UART5.
 562:./Libraries/STM32F10x_StdPeriph_Driver/src/stm32f10x_usart.c ****   * @param  NewState: new state of the USART LIN mode.
 563:./Libraries/STM32F10x_StdPeriph_Driver/src/stm32f10x_usart.c ****   *   This parameter can be: ENABLE or DISABLE.
 564:./Libraries/STM32F10x_StdPeriph_Driver/src/stm32f10x_usart.c ****   * @retval None
 565:./Libraries/STM32F10x_StdPeriph_Driver/src/stm32f10x_usart.c ****   */
 566:./Libraries/STM32F10x_StdPeriph_Driver/src/stm32f10x_usart.c **** void USART_LINCmd(USART_TypeDef* USARTx, FunctionalState NewState)
 567:./Libraries/STM32F10x_StdPeriph_Driver/src/stm32f10x_usart.c **** {
 1165              		.loc 1 567 1
 1166              		.cfi_startproc
 1167              		@ args = 0, pretend = 0, frame = 8
 1168              		@ frame_needed = 1, uses_anonymous_args = 0
 1169              		@ link register save eliminated.
 1170 0000 80B4     		push	{r7}
 1171              	.LCFI70:
 1172              		.cfi_def_cfa_offset 4
 1173              		.cfi_offset 7, -4
 1174 0002 83B0     		sub	sp, sp, #12
 1175              	.LCFI71:
 1176              		.cfi_def_cfa_offset 16
 1177 0004 00AF     		add	r7, sp, #0
 1178              	.LCFI72:
 1179              		.cfi_def_cfa_register 7
 1180 0006 7860     		str	r0, [r7, #4]
 1181 0008 0B46     		mov	r3, r1
 1182 000a FB70     		strb	r3, [r7, #3]
 568:./Libraries/STM32F10x_StdPeriph_Driver/src/stm32f10x_usart.c ****   /* Check the parameters */
 569:./Libraries/STM32F10x_StdPeriph_Driver/src/stm32f10x_usart.c ****   assert_param(IS_USART_ALL_PERIPH(USARTx));
 570:./Libraries/STM32F10x_StdPeriph_Driver/src/stm32f10x_usart.c ****   assert_param(IS_FUNCTIONAL_STATE(NewState));
 571:./Libraries/STM32F10x_StdPeriph_Driver/src/stm32f10x_usart.c ****   
 572:./Libraries/STM32F10x_StdPeriph_Driver/src/stm32f10x_usart.c ****   if (NewState != DISABLE)
 1183              		.loc 1 572 6
 1184 000c FB78     		ldrb	r3, [r7, #3]	@ zero_extendqisi2
 1185 000e 002B     		cmp	r3, #0
 1186 0010 08D0     		beq	.L45
 573:./Libraries/STM32F10x_StdPeriph_Driver/src/stm32f10x_usart.c ****   {
 574:./Libraries/STM32F10x_StdPeriph_Driver/src/stm32f10x_usart.c ****     /* Enable the LIN mode by setting the LINEN bit in the CR2 register */
 575:./Libraries/STM32F10x_StdPeriph_Driver/src/stm32f10x_usart.c ****     USARTx->CR2 |= CR2_LINEN_Set;
 1187              		.loc 1 575 17
 1188 0012 7B68     		ldr	r3, [r7, #4]
 1189 0014 1B8A     		ldrh	r3, [r3, #16]	@ movhi
 1190 0016 9BB2     		uxth	r3, r3
 1191 0018 43F48043 		orr	r3, r3, #16384
 1192 001c 9AB2     		uxth	r2, r3
 1193 001e 7B68     		ldr	r3, [r7, #4]
 1194 0020 1A82     		strh	r2, [r3, #16]	@ movhi
ARM GAS  C:\Users\hao\AppData\Local\Temp\ccUSoOKU.s 			page 32


 576:./Libraries/STM32F10x_StdPeriph_Driver/src/stm32f10x_usart.c ****   }
 577:./Libraries/STM32F10x_StdPeriph_Driver/src/stm32f10x_usart.c ****   else
 578:./Libraries/STM32F10x_StdPeriph_Driver/src/stm32f10x_usart.c ****   {
 579:./Libraries/STM32F10x_StdPeriph_Driver/src/stm32f10x_usart.c ****     /* Disable the LIN mode by clearing the LINEN bit in the CR2 register */
 580:./Libraries/STM32F10x_StdPeriph_Driver/src/stm32f10x_usart.c ****     USARTx->CR2 &= CR2_LINEN_Reset;
 581:./Libraries/STM32F10x_StdPeriph_Driver/src/stm32f10x_usart.c ****   }
 582:./Libraries/STM32F10x_StdPeriph_Driver/src/stm32f10x_usart.c **** }
 1195              		.loc 1 582 1
 1196 0022 07E0     		b	.L47
 1197              	.L45:
 580:./Libraries/STM32F10x_StdPeriph_Driver/src/stm32f10x_usart.c ****   }
 1198              		.loc 1 580 17
 1199 0024 7B68     		ldr	r3, [r7, #4]
 1200 0026 1B8A     		ldrh	r3, [r3, #16]	@ movhi
 1201 0028 9BB2     		uxth	r3, r3
 1202 002a 23F48043 		bic	r3, r3, #16384
 1203 002e 9AB2     		uxth	r2, r3
 1204 0030 7B68     		ldr	r3, [r7, #4]
 1205 0032 1A82     		strh	r2, [r3, #16]	@ movhi
 1206              	.L47:
 1207              		.loc 1 582 1
 1208 0034 00BF     		nop
 1209 0036 0C37     		adds	r7, r7, #12
 1210              	.LCFI73:
 1211              		.cfi_def_cfa_offset 4
 1212 0038 BD46     		mov	sp, r7
 1213              	.LCFI74:
 1214              		.cfi_def_cfa_register 13
 1215              		@ sp needed
 1216 003a 80BC     		pop	{r7}
 1217              	.LCFI75:
 1218              		.cfi_restore 7
 1219              		.cfi_def_cfa_offset 0
 1220 003c 7047     		bx	lr
 1221              		.cfi_endproc
 1222              	.LFE41:
 1224              		.section	.text.USART_SendData,"ax",%progbits
 1225              		.align	1
 1226              		.global	USART_SendData
 1227              		.syntax unified
 1228              		.thumb
 1229              		.thumb_func
 1231              	USART_SendData:
 1232              	.LFB42:
 583:./Libraries/STM32F10x_StdPeriph_Driver/src/stm32f10x_usart.c **** 
 584:./Libraries/STM32F10x_StdPeriph_Driver/src/stm32f10x_usart.c **** /**
 585:./Libraries/STM32F10x_StdPeriph_Driver/src/stm32f10x_usart.c ****   * @brief  Transmits single data through the USARTx peripheral.
 586:./Libraries/STM32F10x_StdPeriph_Driver/src/stm32f10x_usart.c ****   * @param  USARTx: Select the USART or the UART peripheral. 
 587:./Libraries/STM32F10x_StdPeriph_Driver/src/stm32f10x_usart.c ****   *   This parameter can be one of the following values:
 588:./Libraries/STM32F10x_StdPeriph_Driver/src/stm32f10x_usart.c ****   *   USART1, USART2, USART3, UART4 or UART5.
 589:./Libraries/STM32F10x_StdPeriph_Driver/src/stm32f10x_usart.c ****   * @param  Data: the data to transmit.
 590:./Libraries/STM32F10x_StdPeriph_Driver/src/stm32f10x_usart.c ****   * @retval None
 591:./Libraries/STM32F10x_StdPeriph_Driver/src/stm32f10x_usart.c ****   */
 592:./Libraries/STM32F10x_StdPeriph_Driver/src/stm32f10x_usart.c **** void USART_SendData(USART_TypeDef* USARTx, uint16_t Data)
 593:./Libraries/STM32F10x_StdPeriph_Driver/src/stm32f10x_usart.c **** {
 1233              		.loc 1 593 1
 1234              		.cfi_startproc
ARM GAS  C:\Users\hao\AppData\Local\Temp\ccUSoOKU.s 			page 33


 1235              		@ args = 0, pretend = 0, frame = 8
 1236              		@ frame_needed = 1, uses_anonymous_args = 0
 1237              		@ link register save eliminated.
 1238 0000 80B4     		push	{r7}
 1239              	.LCFI76:
 1240              		.cfi_def_cfa_offset 4
 1241              		.cfi_offset 7, -4
 1242 0002 83B0     		sub	sp, sp, #12
 1243              	.LCFI77:
 1244              		.cfi_def_cfa_offset 16
 1245 0004 00AF     		add	r7, sp, #0
 1246              	.LCFI78:
 1247              		.cfi_def_cfa_register 7
 1248 0006 7860     		str	r0, [r7, #4]
 1249 0008 0B46     		mov	r3, r1
 1250 000a 7B80     		strh	r3, [r7, #2]	@ movhi
 594:./Libraries/STM32F10x_StdPeriph_Driver/src/stm32f10x_usart.c ****   /* Check the parameters */
 595:./Libraries/STM32F10x_StdPeriph_Driver/src/stm32f10x_usart.c ****   assert_param(IS_USART_ALL_PERIPH(USARTx));
 596:./Libraries/STM32F10x_StdPeriph_Driver/src/stm32f10x_usart.c ****   assert_param(IS_USART_DATA(Data)); 
 597:./Libraries/STM32F10x_StdPeriph_Driver/src/stm32f10x_usart.c ****     
 598:./Libraries/STM32F10x_StdPeriph_Driver/src/stm32f10x_usart.c ****   /* Transmit Data */
 599:./Libraries/STM32F10x_StdPeriph_Driver/src/stm32f10x_usart.c ****   USARTx->DR = (Data & (uint16_t)0x01FF);
 1251              		.loc 1 599 22
 1252 000c 7B88     		ldrh	r3, [r7, #2]	@ movhi
 1253 000e C3F30803 		ubfx	r3, r3, #0, #9
 1254 0012 9AB2     		uxth	r2, r3
 1255              		.loc 1 599 14
 1256 0014 7B68     		ldr	r3, [r7, #4]
 1257 0016 9A80     		strh	r2, [r3, #4]	@ movhi
 600:./Libraries/STM32F10x_StdPeriph_Driver/src/stm32f10x_usart.c **** }
 1258              		.loc 1 600 1
 1259 0018 00BF     		nop
 1260 001a 0C37     		adds	r7, r7, #12
 1261              	.LCFI79:
 1262              		.cfi_def_cfa_offset 4
 1263 001c BD46     		mov	sp, r7
 1264              	.LCFI80:
 1265              		.cfi_def_cfa_register 13
 1266              		@ sp needed
 1267 001e 80BC     		pop	{r7}
 1268              	.LCFI81:
 1269              		.cfi_restore 7
 1270              		.cfi_def_cfa_offset 0
 1271 0020 7047     		bx	lr
 1272              		.cfi_endproc
 1273              	.LFE42:
 1275              		.section	.text.USART_ReceiveData,"ax",%progbits
 1276              		.align	1
 1277              		.global	USART_ReceiveData
 1278              		.syntax unified
 1279              		.thumb
 1280              		.thumb_func
 1282              	USART_ReceiveData:
 1283              	.LFB43:
 601:./Libraries/STM32F10x_StdPeriph_Driver/src/stm32f10x_usart.c **** 
 602:./Libraries/STM32F10x_StdPeriph_Driver/src/stm32f10x_usart.c **** /**
 603:./Libraries/STM32F10x_StdPeriph_Driver/src/stm32f10x_usart.c ****   * @brief  Returns the most recent received data by the USARTx peripheral.
ARM GAS  C:\Users\hao\AppData\Local\Temp\ccUSoOKU.s 			page 34


 604:./Libraries/STM32F10x_StdPeriph_Driver/src/stm32f10x_usart.c ****   * @param  USARTx: Select the USART or the UART peripheral. 
 605:./Libraries/STM32F10x_StdPeriph_Driver/src/stm32f10x_usart.c ****   *   This parameter can be one of the following values:
 606:./Libraries/STM32F10x_StdPeriph_Driver/src/stm32f10x_usart.c ****   *   USART1, USART2, USART3, UART4 or UART5.
 607:./Libraries/STM32F10x_StdPeriph_Driver/src/stm32f10x_usart.c ****   * @retval The received data.
 608:./Libraries/STM32F10x_StdPeriph_Driver/src/stm32f10x_usart.c ****   */
 609:./Libraries/STM32F10x_StdPeriph_Driver/src/stm32f10x_usart.c **** uint16_t USART_ReceiveData(USART_TypeDef* USARTx)
 610:./Libraries/STM32F10x_StdPeriph_Driver/src/stm32f10x_usart.c **** {
 1284              		.loc 1 610 1
 1285              		.cfi_startproc
 1286              		@ args = 0, pretend = 0, frame = 8
 1287              		@ frame_needed = 1, uses_anonymous_args = 0
 1288              		@ link register save eliminated.
 1289 0000 80B4     		push	{r7}
 1290              	.LCFI82:
 1291              		.cfi_def_cfa_offset 4
 1292              		.cfi_offset 7, -4
 1293 0002 83B0     		sub	sp, sp, #12
 1294              	.LCFI83:
 1295              		.cfi_def_cfa_offset 16
 1296 0004 00AF     		add	r7, sp, #0
 1297              	.LCFI84:
 1298              		.cfi_def_cfa_register 7
 1299 0006 7860     		str	r0, [r7, #4]
 611:./Libraries/STM32F10x_StdPeriph_Driver/src/stm32f10x_usart.c ****   /* Check the parameters */
 612:./Libraries/STM32F10x_StdPeriph_Driver/src/stm32f10x_usart.c ****   assert_param(IS_USART_ALL_PERIPH(USARTx));
 613:./Libraries/STM32F10x_StdPeriph_Driver/src/stm32f10x_usart.c ****   
 614:./Libraries/STM32F10x_StdPeriph_Driver/src/stm32f10x_usart.c ****   /* Receive Data */
 615:./Libraries/STM32F10x_StdPeriph_Driver/src/stm32f10x_usart.c ****   return (uint16_t)(USARTx->DR & (uint16_t)0x01FF);
 1300              		.loc 1 615 27
 1301 0008 7B68     		ldr	r3, [r7, #4]
 1302 000a 9B88     		ldrh	r3, [r3, #4]	@ movhi
 1303 000c 9BB2     		uxth	r3, r3
 1304              		.loc 1 615 10
 1305 000e C3F30803 		ubfx	r3, r3, #0, #9
 1306 0012 9BB2     		uxth	r3, r3
 616:./Libraries/STM32F10x_StdPeriph_Driver/src/stm32f10x_usart.c **** }
 1307              		.loc 1 616 1
 1308 0014 1846     		mov	r0, r3
 1309 0016 0C37     		adds	r7, r7, #12
 1310              	.LCFI85:
 1311              		.cfi_def_cfa_offset 4
 1312 0018 BD46     		mov	sp, r7
 1313              	.LCFI86:
 1314              		.cfi_def_cfa_register 13
 1315              		@ sp needed
 1316 001a 80BC     		pop	{r7}
 1317              	.LCFI87:
 1318              		.cfi_restore 7
 1319              		.cfi_def_cfa_offset 0
 1320 001c 7047     		bx	lr
 1321              		.cfi_endproc
 1322              	.LFE43:
 1324              		.section	.text.USART_SendBreak,"ax",%progbits
 1325              		.align	1
 1326              		.global	USART_SendBreak
 1327              		.syntax unified
 1328              		.thumb
ARM GAS  C:\Users\hao\AppData\Local\Temp\ccUSoOKU.s 			page 35


 1329              		.thumb_func
 1331              	USART_SendBreak:
 1332              	.LFB44:
 617:./Libraries/STM32F10x_StdPeriph_Driver/src/stm32f10x_usart.c **** 
 618:./Libraries/STM32F10x_StdPeriph_Driver/src/stm32f10x_usart.c **** /**
 619:./Libraries/STM32F10x_StdPeriph_Driver/src/stm32f10x_usart.c ****   * @brief  Transmits break characters.
 620:./Libraries/STM32F10x_StdPeriph_Driver/src/stm32f10x_usart.c ****   * @param  USARTx: Select the USART or the UART peripheral. 
 621:./Libraries/STM32F10x_StdPeriph_Driver/src/stm32f10x_usart.c ****   *   This parameter can be one of the following values:
 622:./Libraries/STM32F10x_StdPeriph_Driver/src/stm32f10x_usart.c ****   *   USART1, USART2, USART3, UART4 or UART5.
 623:./Libraries/STM32F10x_StdPeriph_Driver/src/stm32f10x_usart.c ****   * @retval None
 624:./Libraries/STM32F10x_StdPeriph_Driver/src/stm32f10x_usart.c ****   */
 625:./Libraries/STM32F10x_StdPeriph_Driver/src/stm32f10x_usart.c **** void USART_SendBreak(USART_TypeDef* USARTx)
 626:./Libraries/STM32F10x_StdPeriph_Driver/src/stm32f10x_usart.c **** {
 1333              		.loc 1 626 1
 1334              		.cfi_startproc
 1335              		@ args = 0, pretend = 0, frame = 8
 1336              		@ frame_needed = 1, uses_anonymous_args = 0
 1337              		@ link register save eliminated.
 1338 0000 80B4     		push	{r7}
 1339              	.LCFI88:
 1340              		.cfi_def_cfa_offset 4
 1341              		.cfi_offset 7, -4
 1342 0002 83B0     		sub	sp, sp, #12
 1343              	.LCFI89:
 1344              		.cfi_def_cfa_offset 16
 1345 0004 00AF     		add	r7, sp, #0
 1346              	.LCFI90:
 1347              		.cfi_def_cfa_register 7
 1348 0006 7860     		str	r0, [r7, #4]
 627:./Libraries/STM32F10x_StdPeriph_Driver/src/stm32f10x_usart.c ****   /* Check the parameters */
 628:./Libraries/STM32F10x_StdPeriph_Driver/src/stm32f10x_usart.c ****   assert_param(IS_USART_ALL_PERIPH(USARTx));
 629:./Libraries/STM32F10x_StdPeriph_Driver/src/stm32f10x_usart.c ****   
 630:./Libraries/STM32F10x_StdPeriph_Driver/src/stm32f10x_usart.c ****   /* Send break characters */
 631:./Libraries/STM32F10x_StdPeriph_Driver/src/stm32f10x_usart.c ****   USARTx->CR1 |= CR1_SBK_Set;
 1349              		.loc 1 631 15
 1350 0008 7B68     		ldr	r3, [r7, #4]
 1351 000a 9B89     		ldrh	r3, [r3, #12]	@ movhi
 1352 000c 9BB2     		uxth	r3, r3
 1353 000e 43F00103 		orr	r3, r3, #1
 1354 0012 9AB2     		uxth	r2, r3
 1355 0014 7B68     		ldr	r3, [r7, #4]
 1356 0016 9A81     		strh	r2, [r3, #12]	@ movhi
 632:./Libraries/STM32F10x_StdPeriph_Driver/src/stm32f10x_usart.c **** }
 1357              		.loc 1 632 1
 1358 0018 00BF     		nop
 1359 001a 0C37     		adds	r7, r7, #12
 1360              	.LCFI91:
 1361              		.cfi_def_cfa_offset 4
 1362 001c BD46     		mov	sp, r7
 1363              	.LCFI92:
 1364              		.cfi_def_cfa_register 13
 1365              		@ sp needed
 1366 001e 80BC     		pop	{r7}
 1367              	.LCFI93:
 1368              		.cfi_restore 7
 1369              		.cfi_def_cfa_offset 0
 1370 0020 7047     		bx	lr
ARM GAS  C:\Users\hao\AppData\Local\Temp\ccUSoOKU.s 			page 36


 1371              		.cfi_endproc
 1372              	.LFE44:
 1374              		.section	.text.USART_SetGuardTime,"ax",%progbits
 1375              		.align	1
 1376              		.global	USART_SetGuardTime
 1377              		.syntax unified
 1378              		.thumb
 1379              		.thumb_func
 1381              	USART_SetGuardTime:
 1382              	.LFB45:
 633:./Libraries/STM32F10x_StdPeriph_Driver/src/stm32f10x_usart.c **** 
 634:./Libraries/STM32F10x_StdPeriph_Driver/src/stm32f10x_usart.c **** /**
 635:./Libraries/STM32F10x_StdPeriph_Driver/src/stm32f10x_usart.c ****   * @brief  Sets the specified USART guard time.
 636:./Libraries/STM32F10x_StdPeriph_Driver/src/stm32f10x_usart.c ****   * @param  USARTx: where x can be 1, 2 or 3 to select the USART peripheral.
 637:./Libraries/STM32F10x_StdPeriph_Driver/src/stm32f10x_usart.c ****   * @param  USART_GuardTime: specifies the guard time.
 638:./Libraries/STM32F10x_StdPeriph_Driver/src/stm32f10x_usart.c ****   * @note The guard time bits are not available for UART4 and UART5.   
 639:./Libraries/STM32F10x_StdPeriph_Driver/src/stm32f10x_usart.c ****   * @retval None
 640:./Libraries/STM32F10x_StdPeriph_Driver/src/stm32f10x_usart.c ****   */
 641:./Libraries/STM32F10x_StdPeriph_Driver/src/stm32f10x_usart.c **** void USART_SetGuardTime(USART_TypeDef* USARTx, uint8_t USART_GuardTime)
 642:./Libraries/STM32F10x_StdPeriph_Driver/src/stm32f10x_usart.c **** {    
 1383              		.loc 1 642 1
 1384              		.cfi_startproc
 1385              		@ args = 0, pretend = 0, frame = 8
 1386              		@ frame_needed = 1, uses_anonymous_args = 0
 1387              		@ link register save eliminated.
 1388 0000 80B4     		push	{r7}
 1389              	.LCFI94:
 1390              		.cfi_def_cfa_offset 4
 1391              		.cfi_offset 7, -4
 1392 0002 83B0     		sub	sp, sp, #12
 1393              	.LCFI95:
 1394              		.cfi_def_cfa_offset 16
 1395 0004 00AF     		add	r7, sp, #0
 1396              	.LCFI96:
 1397              		.cfi_def_cfa_register 7
 1398 0006 7860     		str	r0, [r7, #4]
 1399 0008 0B46     		mov	r3, r1
 1400 000a FB70     		strb	r3, [r7, #3]
 643:./Libraries/STM32F10x_StdPeriph_Driver/src/stm32f10x_usart.c ****   /* Check the parameters */
 644:./Libraries/STM32F10x_StdPeriph_Driver/src/stm32f10x_usart.c ****   assert_param(IS_USART_123_PERIPH(USARTx));
 645:./Libraries/STM32F10x_StdPeriph_Driver/src/stm32f10x_usart.c ****   
 646:./Libraries/STM32F10x_StdPeriph_Driver/src/stm32f10x_usart.c ****   /* Clear the USART Guard time */
 647:./Libraries/STM32F10x_StdPeriph_Driver/src/stm32f10x_usart.c ****   USARTx->GTPR &= GTPR_LSB_Mask;
 1401              		.loc 1 647 16
 1402 000c 7B68     		ldr	r3, [r7, #4]
 1403 000e 1B8B     		ldrh	r3, [r3, #24]	@ movhi
 1404 0010 9BB2     		uxth	r3, r3
 1405 0012 DBB2     		uxtb	r3, r3
 1406 0014 9AB2     		uxth	r2, r3
 1407 0016 7B68     		ldr	r3, [r7, #4]
 1408 0018 1A83     		strh	r2, [r3, #24]	@ movhi
 648:./Libraries/STM32F10x_StdPeriph_Driver/src/stm32f10x_usart.c ****   /* Set the USART guard time */
 649:./Libraries/STM32F10x_StdPeriph_Driver/src/stm32f10x_usart.c ****   USARTx->GTPR |= (uint16_t)((uint16_t)USART_GuardTime << 0x08);
 1409              		.loc 1 649 16
 1410 001a 7B68     		ldr	r3, [r7, #4]
 1411 001c 1B8B     		ldrh	r3, [r3, #24]	@ movhi
 1412 001e 9AB2     		uxth	r2, r3
ARM GAS  C:\Users\hao\AppData\Local\Temp\ccUSoOKU.s 			page 37


 1413              		.loc 1 649 19
 1414 0020 FB78     		ldrb	r3, [r7, #3]	@ zero_extendqisi2
 1415 0022 9BB2     		uxth	r3, r3
 1416 0024 1B02     		lsls	r3, r3, #8
 1417 0026 9BB2     		uxth	r3, r3
 1418              		.loc 1 649 16
 1419 0028 1343     		orrs	r3, r3, r2
 1420 002a 9AB2     		uxth	r2, r3
 1421 002c 7B68     		ldr	r3, [r7, #4]
 1422 002e 1A83     		strh	r2, [r3, #24]	@ movhi
 650:./Libraries/STM32F10x_StdPeriph_Driver/src/stm32f10x_usart.c **** }
 1423              		.loc 1 650 1
 1424 0030 00BF     		nop
 1425 0032 0C37     		adds	r7, r7, #12
 1426              	.LCFI97:
 1427              		.cfi_def_cfa_offset 4
 1428 0034 BD46     		mov	sp, r7
 1429              	.LCFI98:
 1430              		.cfi_def_cfa_register 13
 1431              		@ sp needed
 1432 0036 80BC     		pop	{r7}
 1433              	.LCFI99:
 1434              		.cfi_restore 7
 1435              		.cfi_def_cfa_offset 0
 1436 0038 7047     		bx	lr
 1437              		.cfi_endproc
 1438              	.LFE45:
 1440              		.section	.text.USART_SetPrescaler,"ax",%progbits
 1441              		.align	1
 1442              		.global	USART_SetPrescaler
 1443              		.syntax unified
 1444              		.thumb
 1445              		.thumb_func
 1447              	USART_SetPrescaler:
 1448              	.LFB46:
 651:./Libraries/STM32F10x_StdPeriph_Driver/src/stm32f10x_usart.c **** 
 652:./Libraries/STM32F10x_StdPeriph_Driver/src/stm32f10x_usart.c **** /**
 653:./Libraries/STM32F10x_StdPeriph_Driver/src/stm32f10x_usart.c ****   * @brief  Sets the system clock prescaler.
 654:./Libraries/STM32F10x_StdPeriph_Driver/src/stm32f10x_usart.c ****   * @param  USARTx: Select the USART or the UART peripheral. 
 655:./Libraries/STM32F10x_StdPeriph_Driver/src/stm32f10x_usart.c ****   *   This parameter can be one of the following values:
 656:./Libraries/STM32F10x_StdPeriph_Driver/src/stm32f10x_usart.c ****   *   USART1, USART2, USART3, UART4 or UART5.
 657:./Libraries/STM32F10x_StdPeriph_Driver/src/stm32f10x_usart.c ****   * @param  USART_Prescaler: specifies the prescaler clock.  
 658:./Libraries/STM32F10x_StdPeriph_Driver/src/stm32f10x_usart.c ****   * @note   The function is used for IrDA mode with UART4 and UART5.
 659:./Libraries/STM32F10x_StdPeriph_Driver/src/stm32f10x_usart.c ****   * @retval None
 660:./Libraries/STM32F10x_StdPeriph_Driver/src/stm32f10x_usart.c ****   */
 661:./Libraries/STM32F10x_StdPeriph_Driver/src/stm32f10x_usart.c **** void USART_SetPrescaler(USART_TypeDef* USARTx, uint8_t USART_Prescaler)
 662:./Libraries/STM32F10x_StdPeriph_Driver/src/stm32f10x_usart.c **** { 
 1449              		.loc 1 662 1
 1450              		.cfi_startproc
 1451              		@ args = 0, pretend = 0, frame = 8
 1452              		@ frame_needed = 1, uses_anonymous_args = 0
 1453              		@ link register save eliminated.
 1454 0000 80B4     		push	{r7}
 1455              	.LCFI100:
 1456              		.cfi_def_cfa_offset 4
 1457              		.cfi_offset 7, -4
 1458 0002 83B0     		sub	sp, sp, #12
ARM GAS  C:\Users\hao\AppData\Local\Temp\ccUSoOKU.s 			page 38


 1459              	.LCFI101:
 1460              		.cfi_def_cfa_offset 16
 1461 0004 00AF     		add	r7, sp, #0
 1462              	.LCFI102:
 1463              		.cfi_def_cfa_register 7
 1464 0006 7860     		str	r0, [r7, #4]
 1465 0008 0B46     		mov	r3, r1
 1466 000a FB70     		strb	r3, [r7, #3]
 663:./Libraries/STM32F10x_StdPeriph_Driver/src/stm32f10x_usart.c ****   /* Check the parameters */
 664:./Libraries/STM32F10x_StdPeriph_Driver/src/stm32f10x_usart.c ****   assert_param(IS_USART_ALL_PERIPH(USARTx));
 665:./Libraries/STM32F10x_StdPeriph_Driver/src/stm32f10x_usart.c ****   
 666:./Libraries/STM32F10x_StdPeriph_Driver/src/stm32f10x_usart.c ****   /* Clear the USART prescaler */
 667:./Libraries/STM32F10x_StdPeriph_Driver/src/stm32f10x_usart.c ****   USARTx->GTPR &= GTPR_MSB_Mask;
 1467              		.loc 1 667 16
 1468 000c 7B68     		ldr	r3, [r7, #4]
 1469 000e 1B8B     		ldrh	r3, [r3, #24]	@ movhi
 1470 0010 9BB2     		uxth	r3, r3
 1471 0012 23F0FF03 		bic	r3, r3, #255
 1472 0016 9AB2     		uxth	r2, r3
 1473 0018 7B68     		ldr	r3, [r7, #4]
 1474 001a 1A83     		strh	r2, [r3, #24]	@ movhi
 668:./Libraries/STM32F10x_StdPeriph_Driver/src/stm32f10x_usart.c ****   /* Set the USART prescaler */
 669:./Libraries/STM32F10x_StdPeriph_Driver/src/stm32f10x_usart.c ****   USARTx->GTPR |= USART_Prescaler;
 1475              		.loc 1 669 16
 1476 001c 7B68     		ldr	r3, [r7, #4]
 1477 001e 1B8B     		ldrh	r3, [r3, #24]	@ movhi
 1478 0020 9AB2     		uxth	r2, r3
 1479 0022 FB78     		ldrb	r3, [r7, #3]	@ zero_extendqisi2
 1480 0024 9BB2     		uxth	r3, r3
 1481 0026 1343     		orrs	r3, r3, r2
 1482 0028 9AB2     		uxth	r2, r3
 1483 002a 7B68     		ldr	r3, [r7, #4]
 1484 002c 1A83     		strh	r2, [r3, #24]	@ movhi
 670:./Libraries/STM32F10x_StdPeriph_Driver/src/stm32f10x_usart.c **** }
 1485              		.loc 1 670 1
 1486 002e 00BF     		nop
 1487 0030 0C37     		adds	r7, r7, #12
 1488              	.LCFI103:
 1489              		.cfi_def_cfa_offset 4
 1490 0032 BD46     		mov	sp, r7
 1491              	.LCFI104:
 1492              		.cfi_def_cfa_register 13
 1493              		@ sp needed
 1494 0034 80BC     		pop	{r7}
 1495              	.LCFI105:
 1496              		.cfi_restore 7
 1497              		.cfi_def_cfa_offset 0
 1498 0036 7047     		bx	lr
 1499              		.cfi_endproc
 1500              	.LFE46:
 1502              		.section	.text.USART_SmartCardCmd,"ax",%progbits
 1503              		.align	1
 1504              		.global	USART_SmartCardCmd
 1505              		.syntax unified
 1506              		.thumb
 1507              		.thumb_func
 1509              	USART_SmartCardCmd:
ARM GAS  C:\Users\hao\AppData\Local\Temp\ccUSoOKU.s 			page 39


 1510              	.LFB47:
 671:./Libraries/STM32F10x_StdPeriph_Driver/src/stm32f10x_usart.c **** 
 672:./Libraries/STM32F10x_StdPeriph_Driver/src/stm32f10x_usart.c **** /**
 673:./Libraries/STM32F10x_StdPeriph_Driver/src/stm32f10x_usart.c ****   * @brief  Enables or disables the USARTs Smart Card mode.
 674:./Libraries/STM32F10x_StdPeriph_Driver/src/stm32f10x_usart.c ****   * @param  USARTx: where x can be 1, 2 or 3 to select the USART peripheral.
 675:./Libraries/STM32F10x_StdPeriph_Driver/src/stm32f10x_usart.c ****   * @param  NewState: new state of the Smart Card mode.
 676:./Libraries/STM32F10x_StdPeriph_Driver/src/stm32f10x_usart.c ****   *   This parameter can be: ENABLE or DISABLE.     
 677:./Libraries/STM32F10x_StdPeriph_Driver/src/stm32f10x_usart.c ****   * @note The Smart Card mode is not available for UART4 and UART5. 
 678:./Libraries/STM32F10x_StdPeriph_Driver/src/stm32f10x_usart.c ****   * @retval None
 679:./Libraries/STM32F10x_StdPeriph_Driver/src/stm32f10x_usart.c ****   */
 680:./Libraries/STM32F10x_StdPeriph_Driver/src/stm32f10x_usart.c **** void USART_SmartCardCmd(USART_TypeDef* USARTx, FunctionalState NewState)
 681:./Libraries/STM32F10x_StdPeriph_Driver/src/stm32f10x_usart.c **** {
 1511              		.loc 1 681 1
 1512              		.cfi_startproc
 1513              		@ args = 0, pretend = 0, frame = 8
 1514              		@ frame_needed = 1, uses_anonymous_args = 0
 1515              		@ link register save eliminated.
 1516 0000 80B4     		push	{r7}
 1517              	.LCFI106:
 1518              		.cfi_def_cfa_offset 4
 1519              		.cfi_offset 7, -4
 1520 0002 83B0     		sub	sp, sp, #12
 1521              	.LCFI107:
 1522              		.cfi_def_cfa_offset 16
 1523 0004 00AF     		add	r7, sp, #0
 1524              	.LCFI108:
 1525              		.cfi_def_cfa_register 7
 1526 0006 7860     		str	r0, [r7, #4]
 1527 0008 0B46     		mov	r3, r1
 1528 000a FB70     		strb	r3, [r7, #3]
 682:./Libraries/STM32F10x_StdPeriph_Driver/src/stm32f10x_usart.c ****   /* Check the parameters */
 683:./Libraries/STM32F10x_StdPeriph_Driver/src/stm32f10x_usart.c ****   assert_param(IS_USART_123_PERIPH(USARTx));
 684:./Libraries/STM32F10x_StdPeriph_Driver/src/stm32f10x_usart.c ****   assert_param(IS_FUNCTIONAL_STATE(NewState));
 685:./Libraries/STM32F10x_StdPeriph_Driver/src/stm32f10x_usart.c ****   if (NewState != DISABLE)
 1529              		.loc 1 685 6
 1530 000c FB78     		ldrb	r3, [r7, #3]	@ zero_extendqisi2
 1531 000e 002B     		cmp	r3, #0
 1532 0010 08D0     		beq	.L55
 686:./Libraries/STM32F10x_StdPeriph_Driver/src/stm32f10x_usart.c ****   {
 687:./Libraries/STM32F10x_StdPeriph_Driver/src/stm32f10x_usart.c ****     /* Enable the SC mode by setting the SCEN bit in the CR3 register */
 688:./Libraries/STM32F10x_StdPeriph_Driver/src/stm32f10x_usart.c ****     USARTx->CR3 |= CR3_SCEN_Set;
 1533              		.loc 1 688 17
 1534 0012 7B68     		ldr	r3, [r7, #4]
 1535 0014 9B8A     		ldrh	r3, [r3, #20]	@ movhi
 1536 0016 9BB2     		uxth	r3, r3
 1537 0018 43F02003 		orr	r3, r3, #32
 1538 001c 9AB2     		uxth	r2, r3
 1539 001e 7B68     		ldr	r3, [r7, #4]
 1540 0020 9A82     		strh	r2, [r3, #20]	@ movhi
 689:./Libraries/STM32F10x_StdPeriph_Driver/src/stm32f10x_usart.c ****   }
 690:./Libraries/STM32F10x_StdPeriph_Driver/src/stm32f10x_usart.c ****   else
 691:./Libraries/STM32F10x_StdPeriph_Driver/src/stm32f10x_usart.c ****   {
 692:./Libraries/STM32F10x_StdPeriph_Driver/src/stm32f10x_usart.c ****     /* Disable the SC mode by clearing the SCEN bit in the CR3 register */
 693:./Libraries/STM32F10x_StdPeriph_Driver/src/stm32f10x_usart.c ****     USARTx->CR3 &= CR3_SCEN_Reset;
 694:./Libraries/STM32F10x_StdPeriph_Driver/src/stm32f10x_usart.c ****   }
 695:./Libraries/STM32F10x_StdPeriph_Driver/src/stm32f10x_usart.c **** }
 1541              		.loc 1 695 1
ARM GAS  C:\Users\hao\AppData\Local\Temp\ccUSoOKU.s 			page 40


 1542 0022 07E0     		b	.L57
 1543              	.L55:
 693:./Libraries/STM32F10x_StdPeriph_Driver/src/stm32f10x_usart.c ****   }
 1544              		.loc 1 693 17
 1545 0024 7B68     		ldr	r3, [r7, #4]
 1546 0026 9B8A     		ldrh	r3, [r3, #20]	@ movhi
 1547 0028 9BB2     		uxth	r3, r3
 1548 002a 23F02003 		bic	r3, r3, #32
 1549 002e 9AB2     		uxth	r2, r3
 1550 0030 7B68     		ldr	r3, [r7, #4]
 1551 0032 9A82     		strh	r2, [r3, #20]	@ movhi
 1552              	.L57:
 1553              		.loc 1 695 1
 1554 0034 00BF     		nop
 1555 0036 0C37     		adds	r7, r7, #12
 1556              	.LCFI109:
 1557              		.cfi_def_cfa_offset 4
 1558 0038 BD46     		mov	sp, r7
 1559              	.LCFI110:
 1560              		.cfi_def_cfa_register 13
 1561              		@ sp needed
 1562 003a 80BC     		pop	{r7}
 1563              	.LCFI111:
 1564              		.cfi_restore 7
 1565              		.cfi_def_cfa_offset 0
 1566 003c 7047     		bx	lr
 1567              		.cfi_endproc
 1568              	.LFE47:
 1570              		.section	.text.USART_SmartCardNACKCmd,"ax",%progbits
 1571              		.align	1
 1572              		.global	USART_SmartCardNACKCmd
 1573              		.syntax unified
 1574              		.thumb
 1575              		.thumb_func
 1577              	USART_SmartCardNACKCmd:
 1578              	.LFB48:
 696:./Libraries/STM32F10x_StdPeriph_Driver/src/stm32f10x_usart.c **** 
 697:./Libraries/STM32F10x_StdPeriph_Driver/src/stm32f10x_usart.c **** /**
 698:./Libraries/STM32F10x_StdPeriph_Driver/src/stm32f10x_usart.c ****   * @brief  Enables or disables NACK transmission.
 699:./Libraries/STM32F10x_StdPeriph_Driver/src/stm32f10x_usart.c ****   * @param  USARTx: where x can be 1, 2 or 3 to select the USART peripheral. 
 700:./Libraries/STM32F10x_StdPeriph_Driver/src/stm32f10x_usart.c ****   * @param  NewState: new state of the NACK transmission.
 701:./Libraries/STM32F10x_StdPeriph_Driver/src/stm32f10x_usart.c ****   *   This parameter can be: ENABLE or DISABLE.  
 702:./Libraries/STM32F10x_StdPeriph_Driver/src/stm32f10x_usart.c ****   * @note The Smart Card mode is not available for UART4 and UART5.
 703:./Libraries/STM32F10x_StdPeriph_Driver/src/stm32f10x_usart.c ****   * @retval None
 704:./Libraries/STM32F10x_StdPeriph_Driver/src/stm32f10x_usart.c ****   */
 705:./Libraries/STM32F10x_StdPeriph_Driver/src/stm32f10x_usart.c **** void USART_SmartCardNACKCmd(USART_TypeDef* USARTx, FunctionalState NewState)
 706:./Libraries/STM32F10x_StdPeriph_Driver/src/stm32f10x_usart.c **** {
 1579              		.loc 1 706 1
 1580              		.cfi_startproc
 1581              		@ args = 0, pretend = 0, frame = 8
 1582              		@ frame_needed = 1, uses_anonymous_args = 0
 1583              		@ link register save eliminated.
 1584 0000 80B4     		push	{r7}
 1585              	.LCFI112:
 1586              		.cfi_def_cfa_offset 4
 1587              		.cfi_offset 7, -4
 1588 0002 83B0     		sub	sp, sp, #12
ARM GAS  C:\Users\hao\AppData\Local\Temp\ccUSoOKU.s 			page 41


 1589              	.LCFI113:
 1590              		.cfi_def_cfa_offset 16
 1591 0004 00AF     		add	r7, sp, #0
 1592              	.LCFI114:
 1593              		.cfi_def_cfa_register 7
 1594 0006 7860     		str	r0, [r7, #4]
 1595 0008 0B46     		mov	r3, r1
 1596 000a FB70     		strb	r3, [r7, #3]
 707:./Libraries/STM32F10x_StdPeriph_Driver/src/stm32f10x_usart.c ****   /* Check the parameters */
 708:./Libraries/STM32F10x_StdPeriph_Driver/src/stm32f10x_usart.c ****   assert_param(IS_USART_123_PERIPH(USARTx));  
 709:./Libraries/STM32F10x_StdPeriph_Driver/src/stm32f10x_usart.c ****   assert_param(IS_FUNCTIONAL_STATE(NewState));
 710:./Libraries/STM32F10x_StdPeriph_Driver/src/stm32f10x_usart.c ****   if (NewState != DISABLE)
 1597              		.loc 1 710 6
 1598 000c FB78     		ldrb	r3, [r7, #3]	@ zero_extendqisi2
 1599 000e 002B     		cmp	r3, #0
 1600 0010 08D0     		beq	.L59
 711:./Libraries/STM32F10x_StdPeriph_Driver/src/stm32f10x_usart.c ****   {
 712:./Libraries/STM32F10x_StdPeriph_Driver/src/stm32f10x_usart.c ****     /* Enable the NACK transmission by setting the NACK bit in the CR3 register */
 713:./Libraries/STM32F10x_StdPeriph_Driver/src/stm32f10x_usart.c ****     USARTx->CR3 |= CR3_NACK_Set;
 1601              		.loc 1 713 17
 1602 0012 7B68     		ldr	r3, [r7, #4]
 1603 0014 9B8A     		ldrh	r3, [r3, #20]	@ movhi
 1604 0016 9BB2     		uxth	r3, r3
 1605 0018 43F01003 		orr	r3, r3, #16
 1606 001c 9AB2     		uxth	r2, r3
 1607 001e 7B68     		ldr	r3, [r7, #4]
 1608 0020 9A82     		strh	r2, [r3, #20]	@ movhi
 714:./Libraries/STM32F10x_StdPeriph_Driver/src/stm32f10x_usart.c ****   }
 715:./Libraries/STM32F10x_StdPeriph_Driver/src/stm32f10x_usart.c ****   else
 716:./Libraries/STM32F10x_StdPeriph_Driver/src/stm32f10x_usart.c ****   {
 717:./Libraries/STM32F10x_StdPeriph_Driver/src/stm32f10x_usart.c ****     /* Disable the NACK transmission by clearing the NACK bit in the CR3 register */
 718:./Libraries/STM32F10x_StdPeriph_Driver/src/stm32f10x_usart.c ****     USARTx->CR3 &= CR3_NACK_Reset;
 719:./Libraries/STM32F10x_StdPeriph_Driver/src/stm32f10x_usart.c ****   }
 720:./Libraries/STM32F10x_StdPeriph_Driver/src/stm32f10x_usart.c **** }
 1609              		.loc 1 720 1
 1610 0022 07E0     		b	.L61
 1611              	.L59:
 718:./Libraries/STM32F10x_StdPeriph_Driver/src/stm32f10x_usart.c ****   }
 1612              		.loc 1 718 17
 1613 0024 7B68     		ldr	r3, [r7, #4]
 1614 0026 9B8A     		ldrh	r3, [r3, #20]	@ movhi
 1615 0028 9BB2     		uxth	r3, r3
 1616 002a 23F01003 		bic	r3, r3, #16
 1617 002e 9AB2     		uxth	r2, r3
 1618 0030 7B68     		ldr	r3, [r7, #4]
 1619 0032 9A82     		strh	r2, [r3, #20]	@ movhi
 1620              	.L61:
 1621              		.loc 1 720 1
 1622 0034 00BF     		nop
 1623 0036 0C37     		adds	r7, r7, #12
 1624              	.LCFI115:
 1625              		.cfi_def_cfa_offset 4
 1626 0038 BD46     		mov	sp, r7
 1627              	.LCFI116:
 1628              		.cfi_def_cfa_register 13
 1629              		@ sp needed
 1630 003a 80BC     		pop	{r7}
ARM GAS  C:\Users\hao\AppData\Local\Temp\ccUSoOKU.s 			page 42


 1631              	.LCFI117:
 1632              		.cfi_restore 7
 1633              		.cfi_def_cfa_offset 0
 1634 003c 7047     		bx	lr
 1635              		.cfi_endproc
 1636              	.LFE48:
 1638              		.section	.text.USART_HalfDuplexCmd,"ax",%progbits
 1639              		.align	1
 1640              		.global	USART_HalfDuplexCmd
 1641              		.syntax unified
 1642              		.thumb
 1643              		.thumb_func
 1645              	USART_HalfDuplexCmd:
 1646              	.LFB49:
 721:./Libraries/STM32F10x_StdPeriph_Driver/src/stm32f10x_usart.c **** 
 722:./Libraries/STM32F10x_StdPeriph_Driver/src/stm32f10x_usart.c **** /**
 723:./Libraries/STM32F10x_StdPeriph_Driver/src/stm32f10x_usart.c ****   * @brief  Enables or disables the USARTs Half Duplex communication.
 724:./Libraries/STM32F10x_StdPeriph_Driver/src/stm32f10x_usart.c ****   * @param  USARTx: Select the USART or the UART peripheral. 
 725:./Libraries/STM32F10x_StdPeriph_Driver/src/stm32f10x_usart.c ****   *   This parameter can be one of the following values:
 726:./Libraries/STM32F10x_StdPeriph_Driver/src/stm32f10x_usart.c ****   *   USART1, USART2, USART3, UART4 or UART5.
 727:./Libraries/STM32F10x_StdPeriph_Driver/src/stm32f10x_usart.c ****   * @param  NewState: new state of the USART Communication.
 728:./Libraries/STM32F10x_StdPeriph_Driver/src/stm32f10x_usart.c ****   *   This parameter can be: ENABLE or DISABLE.
 729:./Libraries/STM32F10x_StdPeriph_Driver/src/stm32f10x_usart.c ****   * @retval None
 730:./Libraries/STM32F10x_StdPeriph_Driver/src/stm32f10x_usart.c ****   */
 731:./Libraries/STM32F10x_StdPeriph_Driver/src/stm32f10x_usart.c **** void USART_HalfDuplexCmd(USART_TypeDef* USARTx, FunctionalState NewState)
 732:./Libraries/STM32F10x_StdPeriph_Driver/src/stm32f10x_usart.c **** {
 1647              		.loc 1 732 1
 1648              		.cfi_startproc
 1649              		@ args = 0, pretend = 0, frame = 8
 1650              		@ frame_needed = 1, uses_anonymous_args = 0
 1651              		@ link register save eliminated.
 1652 0000 80B4     		push	{r7}
 1653              	.LCFI118:
 1654              		.cfi_def_cfa_offset 4
 1655              		.cfi_offset 7, -4
 1656 0002 83B0     		sub	sp, sp, #12
 1657              	.LCFI119:
 1658              		.cfi_def_cfa_offset 16
 1659 0004 00AF     		add	r7, sp, #0
 1660              	.LCFI120:
 1661              		.cfi_def_cfa_register 7
 1662 0006 7860     		str	r0, [r7, #4]
 1663 0008 0B46     		mov	r3, r1
 1664 000a FB70     		strb	r3, [r7, #3]
 733:./Libraries/STM32F10x_StdPeriph_Driver/src/stm32f10x_usart.c ****   /* Check the parameters */
 734:./Libraries/STM32F10x_StdPeriph_Driver/src/stm32f10x_usart.c ****   assert_param(IS_USART_ALL_PERIPH(USARTx));
 735:./Libraries/STM32F10x_StdPeriph_Driver/src/stm32f10x_usart.c ****   assert_param(IS_FUNCTIONAL_STATE(NewState));
 736:./Libraries/STM32F10x_StdPeriph_Driver/src/stm32f10x_usart.c ****   
 737:./Libraries/STM32F10x_StdPeriph_Driver/src/stm32f10x_usart.c ****   if (NewState != DISABLE)
 1665              		.loc 1 737 6
 1666 000c FB78     		ldrb	r3, [r7, #3]	@ zero_extendqisi2
 1667 000e 002B     		cmp	r3, #0
 1668 0010 08D0     		beq	.L63
 738:./Libraries/STM32F10x_StdPeriph_Driver/src/stm32f10x_usart.c ****   {
 739:./Libraries/STM32F10x_StdPeriph_Driver/src/stm32f10x_usart.c ****     /* Enable the Half-Duplex mode by setting the HDSEL bit in the CR3 register */
 740:./Libraries/STM32F10x_StdPeriph_Driver/src/stm32f10x_usart.c ****     USARTx->CR3 |= CR3_HDSEL_Set;
 1669              		.loc 1 740 17
ARM GAS  C:\Users\hao\AppData\Local\Temp\ccUSoOKU.s 			page 43


 1670 0012 7B68     		ldr	r3, [r7, #4]
 1671 0014 9B8A     		ldrh	r3, [r3, #20]	@ movhi
 1672 0016 9BB2     		uxth	r3, r3
 1673 0018 43F00803 		orr	r3, r3, #8
 1674 001c 9AB2     		uxth	r2, r3
 1675 001e 7B68     		ldr	r3, [r7, #4]
 1676 0020 9A82     		strh	r2, [r3, #20]	@ movhi
 741:./Libraries/STM32F10x_StdPeriph_Driver/src/stm32f10x_usart.c ****   }
 742:./Libraries/STM32F10x_StdPeriph_Driver/src/stm32f10x_usart.c ****   else
 743:./Libraries/STM32F10x_StdPeriph_Driver/src/stm32f10x_usart.c ****   {
 744:./Libraries/STM32F10x_StdPeriph_Driver/src/stm32f10x_usart.c ****     /* Disable the Half-Duplex mode by clearing the HDSEL bit in the CR3 register */
 745:./Libraries/STM32F10x_StdPeriph_Driver/src/stm32f10x_usart.c ****     USARTx->CR3 &= CR3_HDSEL_Reset;
 746:./Libraries/STM32F10x_StdPeriph_Driver/src/stm32f10x_usart.c ****   }
 747:./Libraries/STM32F10x_StdPeriph_Driver/src/stm32f10x_usart.c **** }
 1677              		.loc 1 747 1
 1678 0022 07E0     		b	.L65
 1679              	.L63:
 745:./Libraries/STM32F10x_StdPeriph_Driver/src/stm32f10x_usart.c ****   }
 1680              		.loc 1 745 17
 1681 0024 7B68     		ldr	r3, [r7, #4]
 1682 0026 9B8A     		ldrh	r3, [r3, #20]	@ movhi
 1683 0028 9BB2     		uxth	r3, r3
 1684 002a 23F00803 		bic	r3, r3, #8
 1685 002e 9AB2     		uxth	r2, r3
 1686 0030 7B68     		ldr	r3, [r7, #4]
 1687 0032 9A82     		strh	r2, [r3, #20]	@ movhi
 1688              	.L65:
 1689              		.loc 1 747 1
 1690 0034 00BF     		nop
 1691 0036 0C37     		adds	r7, r7, #12
 1692              	.LCFI121:
 1693              		.cfi_def_cfa_offset 4
 1694 0038 BD46     		mov	sp, r7
 1695              	.LCFI122:
 1696              		.cfi_def_cfa_register 13
 1697              		@ sp needed
 1698 003a 80BC     		pop	{r7}
 1699              	.LCFI123:
 1700              		.cfi_restore 7
 1701              		.cfi_def_cfa_offset 0
 1702 003c 7047     		bx	lr
 1703              		.cfi_endproc
 1704              	.LFE49:
 1706              		.section	.text.USART_OverSampling8Cmd,"ax",%progbits
 1707              		.align	1
 1708              		.global	USART_OverSampling8Cmd
 1709              		.syntax unified
 1710              		.thumb
 1711              		.thumb_func
 1713              	USART_OverSampling8Cmd:
 1714              	.LFB50:
 748:./Libraries/STM32F10x_StdPeriph_Driver/src/stm32f10x_usart.c **** 
 749:./Libraries/STM32F10x_StdPeriph_Driver/src/stm32f10x_usart.c **** 
 750:./Libraries/STM32F10x_StdPeriph_Driver/src/stm32f10x_usart.c **** /**
 751:./Libraries/STM32F10x_StdPeriph_Driver/src/stm32f10x_usart.c ****   * @brief  Enables or disables the USART's 8x oversampling mode.
 752:./Libraries/STM32F10x_StdPeriph_Driver/src/stm32f10x_usart.c ****   * @param  USARTx: Select the USART or the UART peripheral.
 753:./Libraries/STM32F10x_StdPeriph_Driver/src/stm32f10x_usart.c ****   *   This parameter can be one of the following values:
ARM GAS  C:\Users\hao\AppData\Local\Temp\ccUSoOKU.s 			page 44


 754:./Libraries/STM32F10x_StdPeriph_Driver/src/stm32f10x_usart.c ****   *   USART1, USART2, USART3, UART4 or UART5.
 755:./Libraries/STM32F10x_StdPeriph_Driver/src/stm32f10x_usart.c ****   * @param  NewState: new state of the USART one bit sampling method.
 756:./Libraries/STM32F10x_StdPeriph_Driver/src/stm32f10x_usart.c ****   *   This parameter can be: ENABLE or DISABLE.
 757:./Libraries/STM32F10x_StdPeriph_Driver/src/stm32f10x_usart.c ****   * @note
 758:./Libraries/STM32F10x_StdPeriph_Driver/src/stm32f10x_usart.c ****   *     This function has to be called before calling USART_Init()
 759:./Libraries/STM32F10x_StdPeriph_Driver/src/stm32f10x_usart.c ****   *     function in order to have correct baudrate Divider value.   
 760:./Libraries/STM32F10x_StdPeriph_Driver/src/stm32f10x_usart.c ****   * @retval None
 761:./Libraries/STM32F10x_StdPeriph_Driver/src/stm32f10x_usart.c ****   */
 762:./Libraries/STM32F10x_StdPeriph_Driver/src/stm32f10x_usart.c **** void USART_OverSampling8Cmd(USART_TypeDef* USARTx, FunctionalState NewState)
 763:./Libraries/STM32F10x_StdPeriph_Driver/src/stm32f10x_usart.c **** {
 1715              		.loc 1 763 1
 1716              		.cfi_startproc
 1717              		@ args = 0, pretend = 0, frame = 8
 1718              		@ frame_needed = 1, uses_anonymous_args = 0
 1719              		@ link register save eliminated.
 1720 0000 80B4     		push	{r7}
 1721              	.LCFI124:
 1722              		.cfi_def_cfa_offset 4
 1723              		.cfi_offset 7, -4
 1724 0002 83B0     		sub	sp, sp, #12
 1725              	.LCFI125:
 1726              		.cfi_def_cfa_offset 16
 1727 0004 00AF     		add	r7, sp, #0
 1728              	.LCFI126:
 1729              		.cfi_def_cfa_register 7
 1730 0006 7860     		str	r0, [r7, #4]
 1731 0008 0B46     		mov	r3, r1
 1732 000a FB70     		strb	r3, [r7, #3]
 764:./Libraries/STM32F10x_StdPeriph_Driver/src/stm32f10x_usart.c ****   /* Check the parameters */
 765:./Libraries/STM32F10x_StdPeriph_Driver/src/stm32f10x_usart.c ****   assert_param(IS_USART_ALL_PERIPH(USARTx));
 766:./Libraries/STM32F10x_StdPeriph_Driver/src/stm32f10x_usart.c ****   assert_param(IS_FUNCTIONAL_STATE(NewState));
 767:./Libraries/STM32F10x_StdPeriph_Driver/src/stm32f10x_usart.c ****   
 768:./Libraries/STM32F10x_StdPeriph_Driver/src/stm32f10x_usart.c ****   if (NewState != DISABLE)
 1733              		.loc 1 768 6
 1734 000c FB78     		ldrb	r3, [r7, #3]	@ zero_extendqisi2
 1735 000e 002B     		cmp	r3, #0
 1736 0010 0AD0     		beq	.L67
 769:./Libraries/STM32F10x_StdPeriph_Driver/src/stm32f10x_usart.c ****   {
 770:./Libraries/STM32F10x_StdPeriph_Driver/src/stm32f10x_usart.c ****     /* Enable the 8x Oversampling mode by setting the OVER8 bit in the CR1 register */
 771:./Libraries/STM32F10x_StdPeriph_Driver/src/stm32f10x_usart.c ****     USARTx->CR1 |= CR1_OVER8_Set;
 1737              		.loc 1 771 17
 1738 0012 7B68     		ldr	r3, [r7, #4]
 1739 0014 9B89     		ldrh	r3, [r3, #12]	@ movhi
 1740 0016 9BB2     		uxth	r3, r3
 1741 0018 6FEA4343 		mvn	r3, r3, lsl #17
 1742 001c 6FEA5343 		mvn	r3, r3, lsr #17
 1743 0020 9AB2     		uxth	r2, r3
 1744 0022 7B68     		ldr	r3, [r7, #4]
 1745 0024 9A81     		strh	r2, [r3, #12]	@ movhi
 772:./Libraries/STM32F10x_StdPeriph_Driver/src/stm32f10x_usart.c ****   }
 773:./Libraries/STM32F10x_StdPeriph_Driver/src/stm32f10x_usart.c ****   else
 774:./Libraries/STM32F10x_StdPeriph_Driver/src/stm32f10x_usart.c ****   {
 775:./Libraries/STM32F10x_StdPeriph_Driver/src/stm32f10x_usart.c ****     /* Disable the 8x Oversampling mode by clearing the OVER8 bit in the CR1 register */
 776:./Libraries/STM32F10x_StdPeriph_Driver/src/stm32f10x_usart.c ****     USARTx->CR1 &= CR1_OVER8_Reset;
 777:./Libraries/STM32F10x_StdPeriph_Driver/src/stm32f10x_usart.c ****   }
 778:./Libraries/STM32F10x_StdPeriph_Driver/src/stm32f10x_usart.c **** }
 1746              		.loc 1 778 1
ARM GAS  C:\Users\hao\AppData\Local\Temp\ccUSoOKU.s 			page 45


 1747 0026 07E0     		b	.L69
 1748              	.L67:
 776:./Libraries/STM32F10x_StdPeriph_Driver/src/stm32f10x_usart.c ****   }
 1749              		.loc 1 776 17
 1750 0028 7B68     		ldr	r3, [r7, #4]
 1751 002a 9B89     		ldrh	r3, [r3, #12]	@ movhi
 1752 002c 9BB2     		uxth	r3, r3
 1753 002e C3F30E03 		ubfx	r3, r3, #0, #15
 1754 0032 9AB2     		uxth	r2, r3
 1755 0034 7B68     		ldr	r3, [r7, #4]
 1756 0036 9A81     		strh	r2, [r3, #12]	@ movhi
 1757              	.L69:
 1758              		.loc 1 778 1
 1759 0038 00BF     		nop
 1760 003a 0C37     		adds	r7, r7, #12
 1761              	.LCFI127:
 1762              		.cfi_def_cfa_offset 4
 1763 003c BD46     		mov	sp, r7
 1764              	.LCFI128:
 1765              		.cfi_def_cfa_register 13
 1766              		@ sp needed
 1767 003e 80BC     		pop	{r7}
 1768              	.LCFI129:
 1769              		.cfi_restore 7
 1770              		.cfi_def_cfa_offset 0
 1771 0040 7047     		bx	lr
 1772              		.cfi_endproc
 1773              	.LFE50:
 1775              		.section	.text.USART_OneBitMethodCmd,"ax",%progbits
 1776              		.align	1
 1777              		.global	USART_OneBitMethodCmd
 1778              		.syntax unified
 1779              		.thumb
 1780              		.thumb_func
 1782              	USART_OneBitMethodCmd:
 1783              	.LFB51:
 779:./Libraries/STM32F10x_StdPeriph_Driver/src/stm32f10x_usart.c **** 
 780:./Libraries/STM32F10x_StdPeriph_Driver/src/stm32f10x_usart.c **** /**
 781:./Libraries/STM32F10x_StdPeriph_Driver/src/stm32f10x_usart.c ****   * @brief  Enables or disables the USART's one bit sampling method.
 782:./Libraries/STM32F10x_StdPeriph_Driver/src/stm32f10x_usart.c ****   * @param  USARTx: Select the USART or the UART peripheral.
 783:./Libraries/STM32F10x_StdPeriph_Driver/src/stm32f10x_usart.c ****   *   This parameter can be one of the following values:
 784:./Libraries/STM32F10x_StdPeriph_Driver/src/stm32f10x_usart.c ****   *   USART1, USART2, USART3, UART4 or UART5.
 785:./Libraries/STM32F10x_StdPeriph_Driver/src/stm32f10x_usart.c ****   * @param  NewState: new state of the USART one bit sampling method.
 786:./Libraries/STM32F10x_StdPeriph_Driver/src/stm32f10x_usart.c ****   *   This parameter can be: ENABLE or DISABLE.
 787:./Libraries/STM32F10x_StdPeriph_Driver/src/stm32f10x_usart.c ****   * @retval None
 788:./Libraries/STM32F10x_StdPeriph_Driver/src/stm32f10x_usart.c ****   */
 789:./Libraries/STM32F10x_StdPeriph_Driver/src/stm32f10x_usart.c **** void USART_OneBitMethodCmd(USART_TypeDef* USARTx, FunctionalState NewState)
 790:./Libraries/STM32F10x_StdPeriph_Driver/src/stm32f10x_usart.c **** {
 1784              		.loc 1 790 1
 1785              		.cfi_startproc
 1786              		@ args = 0, pretend = 0, frame = 8
 1787              		@ frame_needed = 1, uses_anonymous_args = 0
 1788              		@ link register save eliminated.
 1789 0000 80B4     		push	{r7}
 1790              	.LCFI130:
 1791              		.cfi_def_cfa_offset 4
 1792              		.cfi_offset 7, -4
ARM GAS  C:\Users\hao\AppData\Local\Temp\ccUSoOKU.s 			page 46


 1793 0002 83B0     		sub	sp, sp, #12
 1794              	.LCFI131:
 1795              		.cfi_def_cfa_offset 16
 1796 0004 00AF     		add	r7, sp, #0
 1797              	.LCFI132:
 1798              		.cfi_def_cfa_register 7
 1799 0006 7860     		str	r0, [r7, #4]
 1800 0008 0B46     		mov	r3, r1
 1801 000a FB70     		strb	r3, [r7, #3]
 791:./Libraries/STM32F10x_StdPeriph_Driver/src/stm32f10x_usart.c ****   /* Check the parameters */
 792:./Libraries/STM32F10x_StdPeriph_Driver/src/stm32f10x_usart.c ****   assert_param(IS_USART_ALL_PERIPH(USARTx));
 793:./Libraries/STM32F10x_StdPeriph_Driver/src/stm32f10x_usart.c ****   assert_param(IS_FUNCTIONAL_STATE(NewState));
 794:./Libraries/STM32F10x_StdPeriph_Driver/src/stm32f10x_usart.c ****   
 795:./Libraries/STM32F10x_StdPeriph_Driver/src/stm32f10x_usart.c ****   if (NewState != DISABLE)
 1802              		.loc 1 795 6
 1803 000c FB78     		ldrb	r3, [r7, #3]	@ zero_extendqisi2
 1804 000e 002B     		cmp	r3, #0
 1805 0010 08D0     		beq	.L71
 796:./Libraries/STM32F10x_StdPeriph_Driver/src/stm32f10x_usart.c ****   {
 797:./Libraries/STM32F10x_StdPeriph_Driver/src/stm32f10x_usart.c ****     /* Enable the one bit method by setting the ONEBITE bit in the CR3 register */
 798:./Libraries/STM32F10x_StdPeriph_Driver/src/stm32f10x_usart.c ****     USARTx->CR3 |= CR3_ONEBITE_Set;
 1806              		.loc 1 798 17
 1807 0012 7B68     		ldr	r3, [r7, #4]
 1808 0014 9B8A     		ldrh	r3, [r3, #20]	@ movhi
 1809 0016 9BB2     		uxth	r3, r3
 1810 0018 43F40063 		orr	r3, r3, #2048
 1811 001c 9AB2     		uxth	r2, r3
 1812 001e 7B68     		ldr	r3, [r7, #4]
 1813 0020 9A82     		strh	r2, [r3, #20]	@ movhi
 799:./Libraries/STM32F10x_StdPeriph_Driver/src/stm32f10x_usart.c ****   }
 800:./Libraries/STM32F10x_StdPeriph_Driver/src/stm32f10x_usart.c ****   else
 801:./Libraries/STM32F10x_StdPeriph_Driver/src/stm32f10x_usart.c ****   {
 802:./Libraries/STM32F10x_StdPeriph_Driver/src/stm32f10x_usart.c ****     /* Disable tthe one bit method by clearing the ONEBITE bit in the CR3 register */
 803:./Libraries/STM32F10x_StdPeriph_Driver/src/stm32f10x_usart.c ****     USARTx->CR3 &= CR3_ONEBITE_Reset;
 804:./Libraries/STM32F10x_StdPeriph_Driver/src/stm32f10x_usart.c ****   }
 805:./Libraries/STM32F10x_StdPeriph_Driver/src/stm32f10x_usart.c **** }
 1814              		.loc 1 805 1
 1815 0022 07E0     		b	.L73
 1816              	.L71:
 803:./Libraries/STM32F10x_StdPeriph_Driver/src/stm32f10x_usart.c ****   }
 1817              		.loc 1 803 17
 1818 0024 7B68     		ldr	r3, [r7, #4]
 1819 0026 9B8A     		ldrh	r3, [r3, #20]	@ movhi
 1820 0028 9BB2     		uxth	r3, r3
 1821 002a 23F40063 		bic	r3, r3, #2048
 1822 002e 9AB2     		uxth	r2, r3
 1823 0030 7B68     		ldr	r3, [r7, #4]
 1824 0032 9A82     		strh	r2, [r3, #20]	@ movhi
 1825              	.L73:
 1826              		.loc 1 805 1
 1827 0034 00BF     		nop
 1828 0036 0C37     		adds	r7, r7, #12
 1829              	.LCFI133:
 1830              		.cfi_def_cfa_offset 4
 1831 0038 BD46     		mov	sp, r7
 1832              	.LCFI134:
 1833              		.cfi_def_cfa_register 13
ARM GAS  C:\Users\hao\AppData\Local\Temp\ccUSoOKU.s 			page 47


 1834              		@ sp needed
 1835 003a 80BC     		pop	{r7}
 1836              	.LCFI135:
 1837              		.cfi_restore 7
 1838              		.cfi_def_cfa_offset 0
 1839 003c 7047     		bx	lr
 1840              		.cfi_endproc
 1841              	.LFE51:
 1843              		.section	.text.USART_IrDAConfig,"ax",%progbits
 1844              		.align	1
 1845              		.global	USART_IrDAConfig
 1846              		.syntax unified
 1847              		.thumb
 1848              		.thumb_func
 1850              	USART_IrDAConfig:
 1851              	.LFB52:
 806:./Libraries/STM32F10x_StdPeriph_Driver/src/stm32f10x_usart.c **** 
 807:./Libraries/STM32F10x_StdPeriph_Driver/src/stm32f10x_usart.c **** /**
 808:./Libraries/STM32F10x_StdPeriph_Driver/src/stm32f10x_usart.c ****   * @brief  Configures the USART's IrDA interface.
 809:./Libraries/STM32F10x_StdPeriph_Driver/src/stm32f10x_usart.c ****   * @param  USARTx: Select the USART or the UART peripheral. 
 810:./Libraries/STM32F10x_StdPeriph_Driver/src/stm32f10x_usart.c ****   *   This parameter can be one of the following values:
 811:./Libraries/STM32F10x_StdPeriph_Driver/src/stm32f10x_usart.c ****   *   USART1, USART2, USART3, UART4 or UART5.
 812:./Libraries/STM32F10x_StdPeriph_Driver/src/stm32f10x_usart.c ****   * @param  USART_IrDAMode: specifies the IrDA mode.
 813:./Libraries/STM32F10x_StdPeriph_Driver/src/stm32f10x_usart.c ****   *   This parameter can be one of the following values:
 814:./Libraries/STM32F10x_StdPeriph_Driver/src/stm32f10x_usart.c ****   *     @arg USART_IrDAMode_LowPower
 815:./Libraries/STM32F10x_StdPeriph_Driver/src/stm32f10x_usart.c ****   *     @arg USART_IrDAMode_Normal
 816:./Libraries/STM32F10x_StdPeriph_Driver/src/stm32f10x_usart.c ****   * @retval None
 817:./Libraries/STM32F10x_StdPeriph_Driver/src/stm32f10x_usart.c ****   */
 818:./Libraries/STM32F10x_StdPeriph_Driver/src/stm32f10x_usart.c **** void USART_IrDAConfig(USART_TypeDef* USARTx, uint16_t USART_IrDAMode)
 819:./Libraries/STM32F10x_StdPeriph_Driver/src/stm32f10x_usart.c **** {
 1852              		.loc 1 819 1
 1853              		.cfi_startproc
 1854              		@ args = 0, pretend = 0, frame = 8
 1855              		@ frame_needed = 1, uses_anonymous_args = 0
 1856              		@ link register save eliminated.
 1857 0000 80B4     		push	{r7}
 1858              	.LCFI136:
 1859              		.cfi_def_cfa_offset 4
 1860              		.cfi_offset 7, -4
 1861 0002 83B0     		sub	sp, sp, #12
 1862              	.LCFI137:
 1863              		.cfi_def_cfa_offset 16
 1864 0004 00AF     		add	r7, sp, #0
 1865              	.LCFI138:
 1866              		.cfi_def_cfa_register 7
 1867 0006 7860     		str	r0, [r7, #4]
 1868 0008 0B46     		mov	r3, r1
 1869 000a 7B80     		strh	r3, [r7, #2]	@ movhi
 820:./Libraries/STM32F10x_StdPeriph_Driver/src/stm32f10x_usart.c ****   /* Check the parameters */
 821:./Libraries/STM32F10x_StdPeriph_Driver/src/stm32f10x_usart.c ****   assert_param(IS_USART_ALL_PERIPH(USARTx));
 822:./Libraries/STM32F10x_StdPeriph_Driver/src/stm32f10x_usart.c ****   assert_param(IS_USART_IRDA_MODE(USART_IrDAMode));
 823:./Libraries/STM32F10x_StdPeriph_Driver/src/stm32f10x_usart.c ****     
 824:./Libraries/STM32F10x_StdPeriph_Driver/src/stm32f10x_usart.c ****   USARTx->CR3 &= CR3_IRLP_Mask;
 1870              		.loc 1 824 15
 1871 000c 7B68     		ldr	r3, [r7, #4]
 1872 000e 9B8A     		ldrh	r3, [r3, #20]	@ movhi
 1873 0010 9BB2     		uxth	r3, r3
ARM GAS  C:\Users\hao\AppData\Local\Temp\ccUSoOKU.s 			page 48


 1874 0012 23F00403 		bic	r3, r3, #4
 1875 0016 9AB2     		uxth	r2, r3
 1876 0018 7B68     		ldr	r3, [r7, #4]
 1877 001a 9A82     		strh	r2, [r3, #20]	@ movhi
 825:./Libraries/STM32F10x_StdPeriph_Driver/src/stm32f10x_usart.c ****   USARTx->CR3 |= USART_IrDAMode;
 1878              		.loc 1 825 15
 1879 001c 7B68     		ldr	r3, [r7, #4]
 1880 001e 9B8A     		ldrh	r3, [r3, #20]	@ movhi
 1881 0020 9AB2     		uxth	r2, r3
 1882 0022 7B88     		ldrh	r3, [r7, #2]	@ movhi
 1883 0024 1343     		orrs	r3, r3, r2
 1884 0026 9AB2     		uxth	r2, r3
 1885 0028 7B68     		ldr	r3, [r7, #4]
 1886 002a 9A82     		strh	r2, [r3, #20]	@ movhi
 826:./Libraries/STM32F10x_StdPeriph_Driver/src/stm32f10x_usart.c **** }
 1887              		.loc 1 826 1
 1888 002c 00BF     		nop
 1889 002e 0C37     		adds	r7, r7, #12
 1890              	.LCFI139:
 1891              		.cfi_def_cfa_offset 4
 1892 0030 BD46     		mov	sp, r7
 1893              	.LCFI140:
 1894              		.cfi_def_cfa_register 13
 1895              		@ sp needed
 1896 0032 80BC     		pop	{r7}
 1897              	.LCFI141:
 1898              		.cfi_restore 7
 1899              		.cfi_def_cfa_offset 0
 1900 0034 7047     		bx	lr
 1901              		.cfi_endproc
 1902              	.LFE52:
 1904              		.section	.text.USART_IrDACmd,"ax",%progbits
 1905              		.align	1
 1906              		.global	USART_IrDACmd
 1907              		.syntax unified
 1908              		.thumb
 1909              		.thumb_func
 1911              	USART_IrDACmd:
 1912              	.LFB53:
 827:./Libraries/STM32F10x_StdPeriph_Driver/src/stm32f10x_usart.c **** 
 828:./Libraries/STM32F10x_StdPeriph_Driver/src/stm32f10x_usart.c **** /**
 829:./Libraries/STM32F10x_StdPeriph_Driver/src/stm32f10x_usart.c ****   * @brief  Enables or disables the USART's IrDA interface.
 830:./Libraries/STM32F10x_StdPeriph_Driver/src/stm32f10x_usart.c ****   * @param  USARTx: Select the USART or the UART peripheral. 
 831:./Libraries/STM32F10x_StdPeriph_Driver/src/stm32f10x_usart.c ****   *   This parameter can be one of the following values:
 832:./Libraries/STM32F10x_StdPeriph_Driver/src/stm32f10x_usart.c ****   *   USART1, USART2, USART3, UART4 or UART5.
 833:./Libraries/STM32F10x_StdPeriph_Driver/src/stm32f10x_usart.c ****   * @param  NewState: new state of the IrDA mode.
 834:./Libraries/STM32F10x_StdPeriph_Driver/src/stm32f10x_usart.c ****   *   This parameter can be: ENABLE or DISABLE.
 835:./Libraries/STM32F10x_StdPeriph_Driver/src/stm32f10x_usart.c ****   * @retval None
 836:./Libraries/STM32F10x_StdPeriph_Driver/src/stm32f10x_usart.c ****   */
 837:./Libraries/STM32F10x_StdPeriph_Driver/src/stm32f10x_usart.c **** void USART_IrDACmd(USART_TypeDef* USARTx, FunctionalState NewState)
 838:./Libraries/STM32F10x_StdPeriph_Driver/src/stm32f10x_usart.c **** {
 1913              		.loc 1 838 1
 1914              		.cfi_startproc
 1915              		@ args = 0, pretend = 0, frame = 8
 1916              		@ frame_needed = 1, uses_anonymous_args = 0
 1917              		@ link register save eliminated.
 1918 0000 80B4     		push	{r7}
ARM GAS  C:\Users\hao\AppData\Local\Temp\ccUSoOKU.s 			page 49


 1919              	.LCFI142:
 1920              		.cfi_def_cfa_offset 4
 1921              		.cfi_offset 7, -4
 1922 0002 83B0     		sub	sp, sp, #12
 1923              	.LCFI143:
 1924              		.cfi_def_cfa_offset 16
 1925 0004 00AF     		add	r7, sp, #0
 1926              	.LCFI144:
 1927              		.cfi_def_cfa_register 7
 1928 0006 7860     		str	r0, [r7, #4]
 1929 0008 0B46     		mov	r3, r1
 1930 000a FB70     		strb	r3, [r7, #3]
 839:./Libraries/STM32F10x_StdPeriph_Driver/src/stm32f10x_usart.c ****   /* Check the parameters */
 840:./Libraries/STM32F10x_StdPeriph_Driver/src/stm32f10x_usart.c ****   assert_param(IS_USART_ALL_PERIPH(USARTx));
 841:./Libraries/STM32F10x_StdPeriph_Driver/src/stm32f10x_usart.c ****   assert_param(IS_FUNCTIONAL_STATE(NewState));
 842:./Libraries/STM32F10x_StdPeriph_Driver/src/stm32f10x_usart.c ****     
 843:./Libraries/STM32F10x_StdPeriph_Driver/src/stm32f10x_usart.c ****   if (NewState != DISABLE)
 1931              		.loc 1 843 6
 1932 000c FB78     		ldrb	r3, [r7, #3]	@ zero_extendqisi2
 1933 000e 002B     		cmp	r3, #0
 1934 0010 08D0     		beq	.L76
 844:./Libraries/STM32F10x_StdPeriph_Driver/src/stm32f10x_usart.c ****   {
 845:./Libraries/STM32F10x_StdPeriph_Driver/src/stm32f10x_usart.c ****     /* Enable the IrDA mode by setting the IREN bit in the CR3 register */
 846:./Libraries/STM32F10x_StdPeriph_Driver/src/stm32f10x_usart.c ****     USARTx->CR3 |= CR3_IREN_Set;
 1935              		.loc 1 846 17
 1936 0012 7B68     		ldr	r3, [r7, #4]
 1937 0014 9B8A     		ldrh	r3, [r3, #20]	@ movhi
 1938 0016 9BB2     		uxth	r3, r3
 1939 0018 43F00203 		orr	r3, r3, #2
 1940 001c 9AB2     		uxth	r2, r3
 1941 001e 7B68     		ldr	r3, [r7, #4]
 1942 0020 9A82     		strh	r2, [r3, #20]	@ movhi
 847:./Libraries/STM32F10x_StdPeriph_Driver/src/stm32f10x_usart.c ****   }
 848:./Libraries/STM32F10x_StdPeriph_Driver/src/stm32f10x_usart.c ****   else
 849:./Libraries/STM32F10x_StdPeriph_Driver/src/stm32f10x_usart.c ****   {
 850:./Libraries/STM32F10x_StdPeriph_Driver/src/stm32f10x_usart.c ****     /* Disable the IrDA mode by clearing the IREN bit in the CR3 register */
 851:./Libraries/STM32F10x_StdPeriph_Driver/src/stm32f10x_usart.c ****     USARTx->CR3 &= CR3_IREN_Reset;
 852:./Libraries/STM32F10x_StdPeriph_Driver/src/stm32f10x_usart.c ****   }
 853:./Libraries/STM32F10x_StdPeriph_Driver/src/stm32f10x_usart.c **** }
 1943              		.loc 1 853 1
 1944 0022 07E0     		b	.L78
 1945              	.L76:
 851:./Libraries/STM32F10x_StdPeriph_Driver/src/stm32f10x_usart.c ****   }
 1946              		.loc 1 851 17
 1947 0024 7B68     		ldr	r3, [r7, #4]
 1948 0026 9B8A     		ldrh	r3, [r3, #20]	@ movhi
 1949 0028 9BB2     		uxth	r3, r3
 1950 002a 23F00203 		bic	r3, r3, #2
 1951 002e 9AB2     		uxth	r2, r3
 1952 0030 7B68     		ldr	r3, [r7, #4]
 1953 0032 9A82     		strh	r2, [r3, #20]	@ movhi
 1954              	.L78:
 1955              		.loc 1 853 1
 1956 0034 00BF     		nop
 1957 0036 0C37     		adds	r7, r7, #12
 1958              	.LCFI145:
 1959              		.cfi_def_cfa_offset 4
ARM GAS  C:\Users\hao\AppData\Local\Temp\ccUSoOKU.s 			page 50


 1960 0038 BD46     		mov	sp, r7
 1961              	.LCFI146:
 1962              		.cfi_def_cfa_register 13
 1963              		@ sp needed
 1964 003a 80BC     		pop	{r7}
 1965              	.LCFI147:
 1966              		.cfi_restore 7
 1967              		.cfi_def_cfa_offset 0
 1968 003c 7047     		bx	lr
 1969              		.cfi_endproc
 1970              	.LFE53:
 1972              		.section	.text.USART_GetFlagStatus,"ax",%progbits
 1973              		.align	1
 1974              		.global	USART_GetFlagStatus
 1975              		.syntax unified
 1976              		.thumb
 1977              		.thumb_func
 1979              	USART_GetFlagStatus:
 1980              	.LFB54:
 854:./Libraries/STM32F10x_StdPeriph_Driver/src/stm32f10x_usart.c **** 
 855:./Libraries/STM32F10x_StdPeriph_Driver/src/stm32f10x_usart.c **** /**
 856:./Libraries/STM32F10x_StdPeriph_Driver/src/stm32f10x_usart.c ****   * @brief  Checks whether the specified USART flag is set or not.
 857:./Libraries/STM32F10x_StdPeriph_Driver/src/stm32f10x_usart.c ****   * @param  USARTx: Select the USART or the UART peripheral. 
 858:./Libraries/STM32F10x_StdPeriph_Driver/src/stm32f10x_usart.c ****   *   This parameter can be one of the following values:
 859:./Libraries/STM32F10x_StdPeriph_Driver/src/stm32f10x_usart.c ****   *   USART1, USART2, USART3, UART4 or UART5.
 860:./Libraries/STM32F10x_StdPeriph_Driver/src/stm32f10x_usart.c ****   * @param  USART_FLAG: specifies the flag to check.
 861:./Libraries/STM32F10x_StdPeriph_Driver/src/stm32f10x_usart.c ****   *   This parameter can be one of the following values:
 862:./Libraries/STM32F10x_StdPeriph_Driver/src/stm32f10x_usart.c ****   *     @arg USART_FLAG_CTS:  CTS Change flag (not available for UART4 and UART5)
 863:./Libraries/STM32F10x_StdPeriph_Driver/src/stm32f10x_usart.c ****   *     @arg USART_FLAG_LBD:  LIN Break detection flag
 864:./Libraries/STM32F10x_StdPeriph_Driver/src/stm32f10x_usart.c ****   *     @arg USART_FLAG_TXE:  Transmit data register empty flag
 865:./Libraries/STM32F10x_StdPeriph_Driver/src/stm32f10x_usart.c ****   *     @arg USART_FLAG_TC:   Transmission Complete flag
 866:./Libraries/STM32F10x_StdPeriph_Driver/src/stm32f10x_usart.c ****   *     @arg USART_FLAG_RXNE: Receive data register not empty flag
 867:./Libraries/STM32F10x_StdPeriph_Driver/src/stm32f10x_usart.c ****   *     @arg USART_FLAG_IDLE: Idle Line detection flag
 868:./Libraries/STM32F10x_StdPeriph_Driver/src/stm32f10x_usart.c ****   *     @arg USART_FLAG_ORE:  OverRun Error flag
 869:./Libraries/STM32F10x_StdPeriph_Driver/src/stm32f10x_usart.c ****   *     @arg USART_FLAG_NE:   Noise Error flag
 870:./Libraries/STM32F10x_StdPeriph_Driver/src/stm32f10x_usart.c ****   *     @arg USART_FLAG_FE:   Framing Error flag
 871:./Libraries/STM32F10x_StdPeriph_Driver/src/stm32f10x_usart.c ****   *     @arg USART_FLAG_PE:   Parity Error flag
 872:./Libraries/STM32F10x_StdPeriph_Driver/src/stm32f10x_usart.c ****   * @retval The new state of USART_FLAG (SET or RESET).
 873:./Libraries/STM32F10x_StdPeriph_Driver/src/stm32f10x_usart.c ****   */
 874:./Libraries/STM32F10x_StdPeriph_Driver/src/stm32f10x_usart.c **** FlagStatus USART_GetFlagStatus(USART_TypeDef* USARTx, uint16_t USART_FLAG)
 875:./Libraries/STM32F10x_StdPeriph_Driver/src/stm32f10x_usart.c **** {
 1981              		.loc 1 875 1
 1982              		.cfi_startproc
 1983              		@ args = 0, pretend = 0, frame = 16
 1984              		@ frame_needed = 1, uses_anonymous_args = 0
 1985              		@ link register save eliminated.
 1986 0000 80B4     		push	{r7}
 1987              	.LCFI148:
 1988              		.cfi_def_cfa_offset 4
 1989              		.cfi_offset 7, -4
 1990 0002 85B0     		sub	sp, sp, #20
 1991              	.LCFI149:
 1992              		.cfi_def_cfa_offset 24
 1993 0004 00AF     		add	r7, sp, #0
 1994              	.LCFI150:
 1995              		.cfi_def_cfa_register 7
 1996 0006 7860     		str	r0, [r7, #4]
ARM GAS  C:\Users\hao\AppData\Local\Temp\ccUSoOKU.s 			page 51


 1997 0008 0B46     		mov	r3, r1
 1998 000a 7B80     		strh	r3, [r7, #2]	@ movhi
 876:./Libraries/STM32F10x_StdPeriph_Driver/src/stm32f10x_usart.c ****   FlagStatus bitstatus = RESET;
 1999              		.loc 1 876 14
 2000 000c 0023     		movs	r3, #0
 2001 000e FB73     		strb	r3, [r7, #15]
 877:./Libraries/STM32F10x_StdPeriph_Driver/src/stm32f10x_usart.c ****   /* Check the parameters */
 878:./Libraries/STM32F10x_StdPeriph_Driver/src/stm32f10x_usart.c ****   assert_param(IS_USART_ALL_PERIPH(USARTx));
 879:./Libraries/STM32F10x_StdPeriph_Driver/src/stm32f10x_usart.c ****   assert_param(IS_USART_FLAG(USART_FLAG));
 880:./Libraries/STM32F10x_StdPeriph_Driver/src/stm32f10x_usart.c ****   /* The CTS flag is not available for UART4 and UART5 */
 881:./Libraries/STM32F10x_StdPeriph_Driver/src/stm32f10x_usart.c ****   if (USART_FLAG == USART_FLAG_CTS)
 882:./Libraries/STM32F10x_StdPeriph_Driver/src/stm32f10x_usart.c ****   {
 883:./Libraries/STM32F10x_StdPeriph_Driver/src/stm32f10x_usart.c ****     assert_param(IS_USART_123_PERIPH(USARTx));
 884:./Libraries/STM32F10x_StdPeriph_Driver/src/stm32f10x_usart.c ****   }  
 885:./Libraries/STM32F10x_StdPeriph_Driver/src/stm32f10x_usart.c ****   
 886:./Libraries/STM32F10x_StdPeriph_Driver/src/stm32f10x_usart.c ****   if ((USARTx->SR & USART_FLAG) != (uint16_t)RESET)
 2002              		.loc 1 886 14
 2003 0010 7B68     		ldr	r3, [r7, #4]
 2004 0012 1B88     		ldrh	r3, [r3]	@ movhi
 2005 0014 9AB2     		uxth	r2, r3
 2006              		.loc 1 886 33
 2007 0016 7B88     		ldrh	r3, [r7, #2]	@ movhi
 2008 0018 1340     		ands	r3, r3, r2
 2009 001a 9BB2     		uxth	r3, r3
 2010              		.loc 1 886 6
 2011 001c 002B     		cmp	r3, #0
 2012 001e 02D0     		beq	.L80
 887:./Libraries/STM32F10x_StdPeriph_Driver/src/stm32f10x_usart.c ****   {
 888:./Libraries/STM32F10x_StdPeriph_Driver/src/stm32f10x_usart.c ****     bitstatus = SET;
 2013              		.loc 1 888 15
 2014 0020 0123     		movs	r3, #1
 2015 0022 FB73     		strb	r3, [r7, #15]
 2016 0024 01E0     		b	.L81
 2017              	.L80:
 889:./Libraries/STM32F10x_StdPeriph_Driver/src/stm32f10x_usart.c ****   }
 890:./Libraries/STM32F10x_StdPeriph_Driver/src/stm32f10x_usart.c ****   else
 891:./Libraries/STM32F10x_StdPeriph_Driver/src/stm32f10x_usart.c ****   {
 892:./Libraries/STM32F10x_StdPeriph_Driver/src/stm32f10x_usart.c ****     bitstatus = RESET;
 2018              		.loc 1 892 15
 2019 0026 0023     		movs	r3, #0
 2020 0028 FB73     		strb	r3, [r7, #15]
 2021              	.L81:
 893:./Libraries/STM32F10x_StdPeriph_Driver/src/stm32f10x_usart.c ****   }
 894:./Libraries/STM32F10x_StdPeriph_Driver/src/stm32f10x_usart.c ****   return bitstatus;
 2022              		.loc 1 894 10
 2023 002a FB7B     		ldrb	r3, [r7, #15]	@ zero_extendqisi2
 895:./Libraries/STM32F10x_StdPeriph_Driver/src/stm32f10x_usart.c **** }
 2024              		.loc 1 895 1
 2025 002c 1846     		mov	r0, r3
 2026 002e 1437     		adds	r7, r7, #20
 2027              	.LCFI151:
 2028              		.cfi_def_cfa_offset 4
 2029 0030 BD46     		mov	sp, r7
 2030              	.LCFI152:
 2031              		.cfi_def_cfa_register 13
 2032              		@ sp needed
 2033 0032 80BC     		pop	{r7}
ARM GAS  C:\Users\hao\AppData\Local\Temp\ccUSoOKU.s 			page 52


 2034              	.LCFI153:
 2035              		.cfi_restore 7
 2036              		.cfi_def_cfa_offset 0
 2037 0034 7047     		bx	lr
 2038              		.cfi_endproc
 2039              	.LFE54:
 2041              		.section	.text.USART_ClearFlag,"ax",%progbits
 2042              		.align	1
 2043              		.global	USART_ClearFlag
 2044              		.syntax unified
 2045              		.thumb
 2046              		.thumb_func
 2048              	USART_ClearFlag:
 2049              	.LFB55:
 896:./Libraries/STM32F10x_StdPeriph_Driver/src/stm32f10x_usart.c **** 
 897:./Libraries/STM32F10x_StdPeriph_Driver/src/stm32f10x_usart.c **** /**
 898:./Libraries/STM32F10x_StdPeriph_Driver/src/stm32f10x_usart.c ****   * @brief  Clears the USARTx's pending flags.
 899:./Libraries/STM32F10x_StdPeriph_Driver/src/stm32f10x_usart.c ****   * @param  USARTx: Select the USART or the UART peripheral. 
 900:./Libraries/STM32F10x_StdPeriph_Driver/src/stm32f10x_usart.c ****   *   This parameter can be one of the following values:
 901:./Libraries/STM32F10x_StdPeriph_Driver/src/stm32f10x_usart.c ****   *   USART1, USART2, USART3, UART4 or UART5.
 902:./Libraries/STM32F10x_StdPeriph_Driver/src/stm32f10x_usart.c ****   * @param  USART_FLAG: specifies the flag to clear.
 903:./Libraries/STM32F10x_StdPeriph_Driver/src/stm32f10x_usart.c ****   *   This parameter can be any combination of the following values:
 904:./Libraries/STM32F10x_StdPeriph_Driver/src/stm32f10x_usart.c ****   *     @arg USART_FLAG_CTS:  CTS Change flag (not available for UART4 and UART5).
 905:./Libraries/STM32F10x_StdPeriph_Driver/src/stm32f10x_usart.c ****   *     @arg USART_FLAG_LBD:  LIN Break detection flag.
 906:./Libraries/STM32F10x_StdPeriph_Driver/src/stm32f10x_usart.c ****   *     @arg USART_FLAG_TC:   Transmission Complete flag.
 907:./Libraries/STM32F10x_StdPeriph_Driver/src/stm32f10x_usart.c ****   *     @arg USART_FLAG_RXNE: Receive data register not empty flag.
 908:./Libraries/STM32F10x_StdPeriph_Driver/src/stm32f10x_usart.c ****   *   
 909:./Libraries/STM32F10x_StdPeriph_Driver/src/stm32f10x_usart.c ****   * @note
 910:./Libraries/STM32F10x_StdPeriph_Driver/src/stm32f10x_usart.c ****   *   - PE (Parity error), FE (Framing error), NE (Noise error), ORE (OverRun 
 911:./Libraries/STM32F10x_StdPeriph_Driver/src/stm32f10x_usart.c ****   *     error) and IDLE (Idle line detected) flags are cleared by software 
 912:./Libraries/STM32F10x_StdPeriph_Driver/src/stm32f10x_usart.c ****   *     sequence: a read operation to USART_SR register (USART_GetFlagStatus()) 
 913:./Libraries/STM32F10x_StdPeriph_Driver/src/stm32f10x_usart.c ****   *     followed by a read operation to USART_DR register (USART_ReceiveData()).
 914:./Libraries/STM32F10x_StdPeriph_Driver/src/stm32f10x_usart.c ****   *   - RXNE flag can be also cleared by a read to the USART_DR register 
 915:./Libraries/STM32F10x_StdPeriph_Driver/src/stm32f10x_usart.c ****   *     (USART_ReceiveData()).
 916:./Libraries/STM32F10x_StdPeriph_Driver/src/stm32f10x_usart.c ****   *   - TC flag can be also cleared by software sequence: a read operation to 
 917:./Libraries/STM32F10x_StdPeriph_Driver/src/stm32f10x_usart.c ****   *     USART_SR register (USART_GetFlagStatus()) followed by a write operation
 918:./Libraries/STM32F10x_StdPeriph_Driver/src/stm32f10x_usart.c ****   *     to USART_DR register (USART_SendData()).
 919:./Libraries/STM32F10x_StdPeriph_Driver/src/stm32f10x_usart.c ****   *   - TXE flag is cleared only by a write to the USART_DR register 
 920:./Libraries/STM32F10x_StdPeriph_Driver/src/stm32f10x_usart.c ****   *     (USART_SendData()).
 921:./Libraries/STM32F10x_StdPeriph_Driver/src/stm32f10x_usart.c ****   * @retval None
 922:./Libraries/STM32F10x_StdPeriph_Driver/src/stm32f10x_usart.c ****   */
 923:./Libraries/STM32F10x_StdPeriph_Driver/src/stm32f10x_usart.c **** void USART_ClearFlag(USART_TypeDef* USARTx, uint16_t USART_FLAG)
 924:./Libraries/STM32F10x_StdPeriph_Driver/src/stm32f10x_usart.c **** {
 2050              		.loc 1 924 1
 2051              		.cfi_startproc
 2052              		@ args = 0, pretend = 0, frame = 8
 2053              		@ frame_needed = 1, uses_anonymous_args = 0
 2054              		@ link register save eliminated.
 2055 0000 80B4     		push	{r7}
 2056              	.LCFI154:
 2057              		.cfi_def_cfa_offset 4
 2058              		.cfi_offset 7, -4
 2059 0002 83B0     		sub	sp, sp, #12
 2060              	.LCFI155:
 2061              		.cfi_def_cfa_offset 16
 2062 0004 00AF     		add	r7, sp, #0
 2063              	.LCFI156:
ARM GAS  C:\Users\hao\AppData\Local\Temp\ccUSoOKU.s 			page 53


 2064              		.cfi_def_cfa_register 7
 2065 0006 7860     		str	r0, [r7, #4]
 2066 0008 0B46     		mov	r3, r1
 2067 000a 7B80     		strh	r3, [r7, #2]	@ movhi
 925:./Libraries/STM32F10x_StdPeriph_Driver/src/stm32f10x_usart.c ****   /* Check the parameters */
 926:./Libraries/STM32F10x_StdPeriph_Driver/src/stm32f10x_usart.c ****   assert_param(IS_USART_ALL_PERIPH(USARTx));
 927:./Libraries/STM32F10x_StdPeriph_Driver/src/stm32f10x_usart.c ****   assert_param(IS_USART_CLEAR_FLAG(USART_FLAG));
 928:./Libraries/STM32F10x_StdPeriph_Driver/src/stm32f10x_usart.c ****   /* The CTS flag is not available for UART4 and UART5 */
 929:./Libraries/STM32F10x_StdPeriph_Driver/src/stm32f10x_usart.c ****   if ((USART_FLAG & USART_FLAG_CTS) == USART_FLAG_CTS)
 930:./Libraries/STM32F10x_StdPeriph_Driver/src/stm32f10x_usart.c ****   {
 931:./Libraries/STM32F10x_StdPeriph_Driver/src/stm32f10x_usart.c ****     assert_param(IS_USART_123_PERIPH(USARTx));
 932:./Libraries/STM32F10x_StdPeriph_Driver/src/stm32f10x_usart.c ****   } 
 933:./Libraries/STM32F10x_StdPeriph_Driver/src/stm32f10x_usart.c ****    
 934:./Libraries/STM32F10x_StdPeriph_Driver/src/stm32f10x_usart.c ****   USARTx->SR = (uint16_t)~USART_FLAG;
 2068              		.loc 1 934 16
 2069 000c 7B88     		ldrh	r3, [r7, #2]	@ movhi
 2070 000e DB43     		mvns	r3, r3
 2071 0010 9AB2     		uxth	r2, r3
 2072              		.loc 1 934 14
 2073 0012 7B68     		ldr	r3, [r7, #4]
 2074 0014 1A80     		strh	r2, [r3]	@ movhi
 935:./Libraries/STM32F10x_StdPeriph_Driver/src/stm32f10x_usart.c **** }
 2075              		.loc 1 935 1
 2076 0016 00BF     		nop
 2077 0018 0C37     		adds	r7, r7, #12
 2078              	.LCFI157:
 2079              		.cfi_def_cfa_offset 4
 2080 001a BD46     		mov	sp, r7
 2081              	.LCFI158:
 2082              		.cfi_def_cfa_register 13
 2083              		@ sp needed
 2084 001c 80BC     		pop	{r7}
 2085              	.LCFI159:
 2086              		.cfi_restore 7
 2087              		.cfi_def_cfa_offset 0
 2088 001e 7047     		bx	lr
 2089              		.cfi_endproc
 2090              	.LFE55:
 2092              		.section	.text.USART_GetITStatus,"ax",%progbits
 2093              		.align	1
 2094              		.global	USART_GetITStatus
 2095              		.syntax unified
 2096              		.thumb
 2097              		.thumb_func
 2099              	USART_GetITStatus:
 2100              	.LFB56:
 936:./Libraries/STM32F10x_StdPeriph_Driver/src/stm32f10x_usart.c **** 
 937:./Libraries/STM32F10x_StdPeriph_Driver/src/stm32f10x_usart.c **** /**
 938:./Libraries/STM32F10x_StdPeriph_Driver/src/stm32f10x_usart.c ****   * @brief  Checks whether the specified USART interrupt has occurred or not.
 939:./Libraries/STM32F10x_StdPeriph_Driver/src/stm32f10x_usart.c ****   * @param  USARTx: Select the USART or the UART peripheral. 
 940:./Libraries/STM32F10x_StdPeriph_Driver/src/stm32f10x_usart.c ****   *   This parameter can be one of the following values:
 941:./Libraries/STM32F10x_StdPeriph_Driver/src/stm32f10x_usart.c ****   *   USART1, USART2, USART3, UART4 or UART5.
 942:./Libraries/STM32F10x_StdPeriph_Driver/src/stm32f10x_usart.c ****   * @param  USART_IT: specifies the USART interrupt source to check.
 943:./Libraries/STM32F10x_StdPeriph_Driver/src/stm32f10x_usart.c ****   *   This parameter can be one of the following values:
 944:./Libraries/STM32F10x_StdPeriph_Driver/src/stm32f10x_usart.c ****   *     @arg USART_IT_CTS:  CTS change interrupt (not available for UART4 and UART5)
 945:./Libraries/STM32F10x_StdPeriph_Driver/src/stm32f10x_usart.c ****   *     @arg USART_IT_LBD:  LIN Break detection interrupt
 946:./Libraries/STM32F10x_StdPeriph_Driver/src/stm32f10x_usart.c ****   *     @arg USART_IT_TXE:  Tansmit Data Register empty interrupt
ARM GAS  C:\Users\hao\AppData\Local\Temp\ccUSoOKU.s 			page 54


 947:./Libraries/STM32F10x_StdPeriph_Driver/src/stm32f10x_usart.c ****   *     @arg USART_IT_TC:   Transmission complete interrupt
 948:./Libraries/STM32F10x_StdPeriph_Driver/src/stm32f10x_usart.c ****   *     @arg USART_IT_RXNE: Receive Data register not empty interrupt
 949:./Libraries/STM32F10x_StdPeriph_Driver/src/stm32f10x_usart.c ****   *     @arg USART_IT_IDLE: Idle line detection interrupt
 950:./Libraries/STM32F10x_StdPeriph_Driver/src/stm32f10x_usart.c ****   *     @arg USART_IT_ORE:  OverRun Error interrupt
 951:./Libraries/STM32F10x_StdPeriph_Driver/src/stm32f10x_usart.c ****   *     @arg USART_IT_NE:   Noise Error interrupt
 952:./Libraries/STM32F10x_StdPeriph_Driver/src/stm32f10x_usart.c ****   *     @arg USART_IT_FE:   Framing Error interrupt
 953:./Libraries/STM32F10x_StdPeriph_Driver/src/stm32f10x_usart.c ****   *     @arg USART_IT_PE:   Parity Error interrupt
 954:./Libraries/STM32F10x_StdPeriph_Driver/src/stm32f10x_usart.c ****   * @retval The new state of USART_IT (SET or RESET).
 955:./Libraries/STM32F10x_StdPeriph_Driver/src/stm32f10x_usart.c ****   */
 956:./Libraries/STM32F10x_StdPeriph_Driver/src/stm32f10x_usart.c **** ITStatus USART_GetITStatus(USART_TypeDef* USARTx, uint16_t USART_IT)
 957:./Libraries/STM32F10x_StdPeriph_Driver/src/stm32f10x_usart.c **** {
 2101              		.loc 1 957 1
 2102              		.cfi_startproc
 2103              		@ args = 0, pretend = 0, frame = 24
 2104              		@ frame_needed = 1, uses_anonymous_args = 0
 2105              		@ link register save eliminated.
 2106 0000 80B4     		push	{r7}
 2107              	.LCFI160:
 2108              		.cfi_def_cfa_offset 4
 2109              		.cfi_offset 7, -4
 2110 0002 87B0     		sub	sp, sp, #28
 2111              	.LCFI161:
 2112              		.cfi_def_cfa_offset 32
 2113 0004 00AF     		add	r7, sp, #0
 2114              	.LCFI162:
 2115              		.cfi_def_cfa_register 7
 2116 0006 7860     		str	r0, [r7, #4]
 2117 0008 0B46     		mov	r3, r1
 2118 000a 7B80     		strh	r3, [r7, #2]	@ movhi
 958:./Libraries/STM32F10x_StdPeriph_Driver/src/stm32f10x_usart.c ****   uint32_t bitpos = 0x00, itmask = 0x00, usartreg = 0x00;
 2119              		.loc 1 958 12
 2120 000c 0023     		movs	r3, #0
 2121 000e FB60     		str	r3, [r7, #12]
 2122              		.loc 1 958 27
 2123 0010 0023     		movs	r3, #0
 2124 0012 7B61     		str	r3, [r7, #20]
 2125              		.loc 1 958 42
 2126 0014 0023     		movs	r3, #0
 2127 0016 BB60     		str	r3, [r7, #8]
 959:./Libraries/STM32F10x_StdPeriph_Driver/src/stm32f10x_usart.c ****   ITStatus bitstatus = RESET;
 2128              		.loc 1 959 12
 2129 0018 0023     		movs	r3, #0
 2130 001a FB74     		strb	r3, [r7, #19]
 960:./Libraries/STM32F10x_StdPeriph_Driver/src/stm32f10x_usart.c ****   /* Check the parameters */
 961:./Libraries/STM32F10x_StdPeriph_Driver/src/stm32f10x_usart.c ****   assert_param(IS_USART_ALL_PERIPH(USARTx));
 962:./Libraries/STM32F10x_StdPeriph_Driver/src/stm32f10x_usart.c ****   assert_param(IS_USART_GET_IT(USART_IT));
 963:./Libraries/STM32F10x_StdPeriph_Driver/src/stm32f10x_usart.c ****   /* The CTS interrupt is not available for UART4 and UART5 */ 
 964:./Libraries/STM32F10x_StdPeriph_Driver/src/stm32f10x_usart.c ****   if (USART_IT == USART_IT_CTS)
 965:./Libraries/STM32F10x_StdPeriph_Driver/src/stm32f10x_usart.c ****   {
 966:./Libraries/STM32F10x_StdPeriph_Driver/src/stm32f10x_usart.c ****     assert_param(IS_USART_123_PERIPH(USARTx));
 967:./Libraries/STM32F10x_StdPeriph_Driver/src/stm32f10x_usart.c ****   }   
 968:./Libraries/STM32F10x_StdPeriph_Driver/src/stm32f10x_usart.c ****   
 969:./Libraries/STM32F10x_StdPeriph_Driver/src/stm32f10x_usart.c ****   /* Get the USART register index */
 970:./Libraries/STM32F10x_StdPeriph_Driver/src/stm32f10x_usart.c ****   usartreg = (((uint8_t)USART_IT) >> 0x05);
 2131              		.loc 1 970 16
 2132 001c 7B88     		ldrh	r3, [r7, #2]	@ movhi
 2133 001e DBB2     		uxtb	r3, r3
ARM GAS  C:\Users\hao\AppData\Local\Temp\ccUSoOKU.s 			page 55


 2134              		.loc 1 970 35
 2135 0020 5B09     		lsrs	r3, r3, #5
 2136 0022 DBB2     		uxtb	r3, r3
 2137              		.loc 1 970 12
 2138 0024 BB60     		str	r3, [r7, #8]
 971:./Libraries/STM32F10x_StdPeriph_Driver/src/stm32f10x_usart.c ****   /* Get the interrupt position */
 972:./Libraries/STM32F10x_StdPeriph_Driver/src/stm32f10x_usart.c ****   itmask = USART_IT & IT_Mask;
 2139              		.loc 1 972 21
 2140 0026 7B88     		ldrh	r3, [r7, #2]
 2141              		.loc 1 972 10
 2142 0028 03F01F03 		and	r3, r3, #31
 2143 002c 7B61     		str	r3, [r7, #20]
 973:./Libraries/STM32F10x_StdPeriph_Driver/src/stm32f10x_usart.c ****   itmask = (uint32_t)0x01 << itmask;
 2144              		.loc 1 973 10
 2145 002e 0122     		movs	r2, #1
 2146 0030 7B69     		ldr	r3, [r7, #20]
 2147 0032 02FA03F3 		lsl	r3, r2, r3
 2148 0036 7B61     		str	r3, [r7, #20]
 974:./Libraries/STM32F10x_StdPeriph_Driver/src/stm32f10x_usart.c ****   
 975:./Libraries/STM32F10x_StdPeriph_Driver/src/stm32f10x_usart.c ****   if (usartreg == 0x01) /* The IT  is in CR1 register */
 2149              		.loc 1 975 6
 2150 0038 BB68     		ldr	r3, [r7, #8]
 2151 003a 012B     		cmp	r3, #1
 2152 003c 07D1     		bne	.L85
 976:./Libraries/STM32F10x_StdPeriph_Driver/src/stm32f10x_usart.c ****   {
 977:./Libraries/STM32F10x_StdPeriph_Driver/src/stm32f10x_usart.c ****     itmask &= USARTx->CR1;
 2153              		.loc 1 977 21
 2154 003e 7B68     		ldr	r3, [r7, #4]
 2155 0040 9B89     		ldrh	r3, [r3, #12]	@ movhi
 2156 0042 9BB2     		uxth	r3, r3
 2157 0044 1A46     		mov	r2, r3
 2158              		.loc 1 977 12
 2159 0046 7B69     		ldr	r3, [r7, #20]
 2160 0048 1340     		ands	r3, r3, r2
 2161 004a 7B61     		str	r3, [r7, #20]
 2162 004c 11E0     		b	.L86
 2163              	.L85:
 978:./Libraries/STM32F10x_StdPeriph_Driver/src/stm32f10x_usart.c ****   }
 979:./Libraries/STM32F10x_StdPeriph_Driver/src/stm32f10x_usart.c ****   else if (usartreg == 0x02) /* The IT  is in CR2 register */
 2164              		.loc 1 979 11
 2165 004e BB68     		ldr	r3, [r7, #8]
 2166 0050 022B     		cmp	r3, #2
 2167 0052 07D1     		bne	.L87
 980:./Libraries/STM32F10x_StdPeriph_Driver/src/stm32f10x_usart.c ****   {
 981:./Libraries/STM32F10x_StdPeriph_Driver/src/stm32f10x_usart.c ****     itmask &= USARTx->CR2;
 2168              		.loc 1 981 21
 2169 0054 7B68     		ldr	r3, [r7, #4]
 2170 0056 1B8A     		ldrh	r3, [r3, #16]	@ movhi
 2171 0058 9BB2     		uxth	r3, r3
 2172 005a 1A46     		mov	r2, r3
 2173              		.loc 1 981 12
 2174 005c 7B69     		ldr	r3, [r7, #20]
 2175 005e 1340     		ands	r3, r3, r2
 2176 0060 7B61     		str	r3, [r7, #20]
 2177 0062 06E0     		b	.L86
 2178              	.L87:
 982:./Libraries/STM32F10x_StdPeriph_Driver/src/stm32f10x_usart.c ****   }
ARM GAS  C:\Users\hao\AppData\Local\Temp\ccUSoOKU.s 			page 56


 983:./Libraries/STM32F10x_StdPeriph_Driver/src/stm32f10x_usart.c ****   else /* The IT  is in CR3 register */
 984:./Libraries/STM32F10x_StdPeriph_Driver/src/stm32f10x_usart.c ****   {
 985:./Libraries/STM32F10x_StdPeriph_Driver/src/stm32f10x_usart.c ****     itmask &= USARTx->CR3;
 2179              		.loc 1 985 21
 2180 0064 7B68     		ldr	r3, [r7, #4]
 2181 0066 9B8A     		ldrh	r3, [r3, #20]	@ movhi
 2182 0068 9BB2     		uxth	r3, r3
 2183 006a 1A46     		mov	r2, r3
 2184              		.loc 1 985 12
 2185 006c 7B69     		ldr	r3, [r7, #20]
 2186 006e 1340     		ands	r3, r3, r2
 2187 0070 7B61     		str	r3, [r7, #20]
 2188              	.L86:
 986:./Libraries/STM32F10x_StdPeriph_Driver/src/stm32f10x_usart.c ****   }
 987:./Libraries/STM32F10x_StdPeriph_Driver/src/stm32f10x_usart.c ****   
 988:./Libraries/STM32F10x_StdPeriph_Driver/src/stm32f10x_usart.c ****   bitpos = USART_IT >> 0x08;
 2189              		.loc 1 988 21
 2190 0072 7B88     		ldrh	r3, [r7, #2]
 2191 0074 1B0A     		lsrs	r3, r3, #8
 2192 0076 9BB2     		uxth	r3, r3
 2193              		.loc 1 988 10
 2194 0078 FB60     		str	r3, [r7, #12]
 989:./Libraries/STM32F10x_StdPeriph_Driver/src/stm32f10x_usart.c ****   bitpos = (uint32_t)0x01 << bitpos;
 2195              		.loc 1 989 10
 2196 007a 0122     		movs	r2, #1
 2197 007c FB68     		ldr	r3, [r7, #12]
 2198 007e 02FA03F3 		lsl	r3, r2, r3
 2199 0082 FB60     		str	r3, [r7, #12]
 990:./Libraries/STM32F10x_StdPeriph_Driver/src/stm32f10x_usart.c ****   bitpos &= USARTx->SR;
 2200              		.loc 1 990 19
 2201 0084 7B68     		ldr	r3, [r7, #4]
 2202 0086 1B88     		ldrh	r3, [r3]	@ movhi
 2203 0088 9BB2     		uxth	r3, r3
 2204 008a 1A46     		mov	r2, r3
 2205              		.loc 1 990 10
 2206 008c FB68     		ldr	r3, [r7, #12]
 2207 008e 1340     		ands	r3, r3, r2
 2208 0090 FB60     		str	r3, [r7, #12]
 991:./Libraries/STM32F10x_StdPeriph_Driver/src/stm32f10x_usart.c ****   if ((itmask != (uint16_t)RESET)&&(bitpos != (uint16_t)RESET))
 2209              		.loc 1 991 6
 2210 0092 7B69     		ldr	r3, [r7, #20]
 2211 0094 002B     		cmp	r3, #0
 2212 0096 05D0     		beq	.L88
 2213              		.loc 1 991 34 discriminator 1
 2214 0098 FB68     		ldr	r3, [r7, #12]
 2215 009a 002B     		cmp	r3, #0
 2216 009c 02D0     		beq	.L88
 992:./Libraries/STM32F10x_StdPeriph_Driver/src/stm32f10x_usart.c ****   {
 993:./Libraries/STM32F10x_StdPeriph_Driver/src/stm32f10x_usart.c ****     bitstatus = SET;
 2217              		.loc 1 993 15
 2218 009e 0123     		movs	r3, #1
 2219 00a0 FB74     		strb	r3, [r7, #19]
 2220 00a2 01E0     		b	.L89
 2221              	.L88:
 994:./Libraries/STM32F10x_StdPeriph_Driver/src/stm32f10x_usart.c ****   }
 995:./Libraries/STM32F10x_StdPeriph_Driver/src/stm32f10x_usart.c ****   else
 996:./Libraries/STM32F10x_StdPeriph_Driver/src/stm32f10x_usart.c ****   {
ARM GAS  C:\Users\hao\AppData\Local\Temp\ccUSoOKU.s 			page 57


 997:./Libraries/STM32F10x_StdPeriph_Driver/src/stm32f10x_usart.c ****     bitstatus = RESET;
 2222              		.loc 1 997 15
 2223 00a4 0023     		movs	r3, #0
 2224 00a6 FB74     		strb	r3, [r7, #19]
 2225              	.L89:
 998:./Libraries/STM32F10x_StdPeriph_Driver/src/stm32f10x_usart.c ****   }
 999:./Libraries/STM32F10x_StdPeriph_Driver/src/stm32f10x_usart.c ****   
1000:./Libraries/STM32F10x_StdPeriph_Driver/src/stm32f10x_usart.c ****   return bitstatus;  
 2226              		.loc 1 1000 10
 2227 00a8 FB7C     		ldrb	r3, [r7, #19]	@ zero_extendqisi2
1001:./Libraries/STM32F10x_StdPeriph_Driver/src/stm32f10x_usart.c **** }
 2228              		.loc 1 1001 1
 2229 00aa 1846     		mov	r0, r3
 2230 00ac 1C37     		adds	r7, r7, #28
 2231              	.LCFI163:
 2232              		.cfi_def_cfa_offset 4
 2233 00ae BD46     		mov	sp, r7
 2234              	.LCFI164:
 2235              		.cfi_def_cfa_register 13
 2236              		@ sp needed
 2237 00b0 80BC     		pop	{r7}
 2238              	.LCFI165:
 2239              		.cfi_restore 7
 2240              		.cfi_def_cfa_offset 0
 2241 00b2 7047     		bx	lr
 2242              		.cfi_endproc
 2243              	.LFE56:
 2245              		.section	.text.USART_ClearITPendingBit,"ax",%progbits
 2246              		.align	1
 2247              		.global	USART_ClearITPendingBit
 2248              		.syntax unified
 2249              		.thumb
 2250              		.thumb_func
 2252              	USART_ClearITPendingBit:
 2253              	.LFB57:
1002:./Libraries/STM32F10x_StdPeriph_Driver/src/stm32f10x_usart.c **** 
1003:./Libraries/STM32F10x_StdPeriph_Driver/src/stm32f10x_usart.c **** /**
1004:./Libraries/STM32F10x_StdPeriph_Driver/src/stm32f10x_usart.c ****   * @brief  Clears the USARTx's interrupt pending bits.
1005:./Libraries/STM32F10x_StdPeriph_Driver/src/stm32f10x_usart.c ****   * @param  USARTx: Select the USART or the UART peripheral. 
1006:./Libraries/STM32F10x_StdPeriph_Driver/src/stm32f10x_usart.c ****   *   This parameter can be one of the following values:
1007:./Libraries/STM32F10x_StdPeriph_Driver/src/stm32f10x_usart.c ****   *   USART1, USART2, USART3, UART4 or UART5.
1008:./Libraries/STM32F10x_StdPeriph_Driver/src/stm32f10x_usart.c ****   * @param  USART_IT: specifies the interrupt pending bit to clear.
1009:./Libraries/STM32F10x_StdPeriph_Driver/src/stm32f10x_usart.c ****   *   This parameter can be one of the following values:
1010:./Libraries/STM32F10x_StdPeriph_Driver/src/stm32f10x_usart.c ****   *     @arg USART_IT_CTS:  CTS change interrupt (not available for UART4 and UART5)
1011:./Libraries/STM32F10x_StdPeriph_Driver/src/stm32f10x_usart.c ****   *     @arg USART_IT_LBD:  LIN Break detection interrupt
1012:./Libraries/STM32F10x_StdPeriph_Driver/src/stm32f10x_usart.c ****   *     @arg USART_IT_TC:   Transmission complete interrupt. 
1013:./Libraries/STM32F10x_StdPeriph_Driver/src/stm32f10x_usart.c ****   *     @arg USART_IT_RXNE: Receive Data register not empty interrupt.
1014:./Libraries/STM32F10x_StdPeriph_Driver/src/stm32f10x_usart.c ****   *   
1015:./Libraries/STM32F10x_StdPeriph_Driver/src/stm32f10x_usart.c ****   * @note
1016:./Libraries/STM32F10x_StdPeriph_Driver/src/stm32f10x_usart.c ****   *   - PE (Parity error), FE (Framing error), NE (Noise error), ORE (OverRun 
1017:./Libraries/STM32F10x_StdPeriph_Driver/src/stm32f10x_usart.c ****   *     error) and IDLE (Idle line detected) pending bits are cleared by 
1018:./Libraries/STM32F10x_StdPeriph_Driver/src/stm32f10x_usart.c ****   *     software sequence: a read operation to USART_SR register 
1019:./Libraries/STM32F10x_StdPeriph_Driver/src/stm32f10x_usart.c ****   *     (USART_GetITStatus()) followed by a read operation to USART_DR register 
1020:./Libraries/STM32F10x_StdPeriph_Driver/src/stm32f10x_usart.c ****   *     (USART_ReceiveData()).
1021:./Libraries/STM32F10x_StdPeriph_Driver/src/stm32f10x_usart.c ****   *   - RXNE pending bit can be also cleared by a read to the USART_DR register 
1022:./Libraries/STM32F10x_StdPeriph_Driver/src/stm32f10x_usart.c ****   *     (USART_ReceiveData()).
1023:./Libraries/STM32F10x_StdPeriph_Driver/src/stm32f10x_usart.c ****   *   - TC pending bit can be also cleared by software sequence: a read 
ARM GAS  C:\Users\hao\AppData\Local\Temp\ccUSoOKU.s 			page 58


1024:./Libraries/STM32F10x_StdPeriph_Driver/src/stm32f10x_usart.c ****   *     operation to USART_SR register (USART_GetITStatus()) followed by a write 
1025:./Libraries/STM32F10x_StdPeriph_Driver/src/stm32f10x_usart.c ****   *     operation to USART_DR register (USART_SendData()).
1026:./Libraries/STM32F10x_StdPeriph_Driver/src/stm32f10x_usart.c ****   *   - TXE pending bit is cleared only by a write to the USART_DR register 
1027:./Libraries/STM32F10x_StdPeriph_Driver/src/stm32f10x_usart.c ****   *     (USART_SendData()).
1028:./Libraries/STM32F10x_StdPeriph_Driver/src/stm32f10x_usart.c ****   * @retval None
1029:./Libraries/STM32F10x_StdPeriph_Driver/src/stm32f10x_usart.c ****   */
1030:./Libraries/STM32F10x_StdPeriph_Driver/src/stm32f10x_usart.c **** void USART_ClearITPendingBit(USART_TypeDef* USARTx, uint16_t USART_IT)
1031:./Libraries/STM32F10x_StdPeriph_Driver/src/stm32f10x_usart.c **** {
 2254              		.loc 1 1031 1
 2255              		.cfi_startproc
 2256              		@ args = 0, pretend = 0, frame = 16
 2257              		@ frame_needed = 1, uses_anonymous_args = 0
 2258              		@ link register save eliminated.
 2259 0000 80B4     		push	{r7}
 2260              	.LCFI166:
 2261              		.cfi_def_cfa_offset 4
 2262              		.cfi_offset 7, -4
 2263 0002 85B0     		sub	sp, sp, #20
 2264              	.LCFI167:
 2265              		.cfi_def_cfa_offset 24
 2266 0004 00AF     		add	r7, sp, #0
 2267              	.LCFI168:
 2268              		.cfi_def_cfa_register 7
 2269 0006 7860     		str	r0, [r7, #4]
 2270 0008 0B46     		mov	r3, r1
 2271 000a 7B80     		strh	r3, [r7, #2]	@ movhi
1032:./Libraries/STM32F10x_StdPeriph_Driver/src/stm32f10x_usart.c ****   uint16_t bitpos = 0x00, itmask = 0x00;
 2272              		.loc 1 1032 12
 2273 000c 0023     		movs	r3, #0
 2274 000e FB81     		strh	r3, [r7, #14]	@ movhi
 2275              		.loc 1 1032 27
 2276 0010 0023     		movs	r3, #0
 2277 0012 BB81     		strh	r3, [r7, #12]	@ movhi
1033:./Libraries/STM32F10x_StdPeriph_Driver/src/stm32f10x_usart.c ****   /* Check the parameters */
1034:./Libraries/STM32F10x_StdPeriph_Driver/src/stm32f10x_usart.c ****   assert_param(IS_USART_ALL_PERIPH(USARTx));
1035:./Libraries/STM32F10x_StdPeriph_Driver/src/stm32f10x_usart.c ****   assert_param(IS_USART_CLEAR_IT(USART_IT));
1036:./Libraries/STM32F10x_StdPeriph_Driver/src/stm32f10x_usart.c ****   /* The CTS interrupt is not available for UART4 and UART5 */
1037:./Libraries/STM32F10x_StdPeriph_Driver/src/stm32f10x_usart.c ****   if (USART_IT == USART_IT_CTS)
1038:./Libraries/STM32F10x_StdPeriph_Driver/src/stm32f10x_usart.c ****   {
1039:./Libraries/STM32F10x_StdPeriph_Driver/src/stm32f10x_usart.c ****     assert_param(IS_USART_123_PERIPH(USARTx));
1040:./Libraries/STM32F10x_StdPeriph_Driver/src/stm32f10x_usart.c ****   }   
1041:./Libraries/STM32F10x_StdPeriph_Driver/src/stm32f10x_usart.c ****   
1042:./Libraries/STM32F10x_StdPeriph_Driver/src/stm32f10x_usart.c ****   bitpos = USART_IT >> 0x08;
 2278              		.loc 1 1042 10
 2279 0014 7B88     		ldrh	r3, [r7, #2]
 2280 0016 1B0A     		lsrs	r3, r3, #8
 2281 0018 FB81     		strh	r3, [r7, #14]	@ movhi
1043:./Libraries/STM32F10x_StdPeriph_Driver/src/stm32f10x_usart.c ****   itmask = ((uint16_t)0x01 << (uint16_t)bitpos);
 2282              		.loc 1 1043 31
 2283 001a FB89     		ldrh	r3, [r7, #14]
 2284              		.loc 1 1043 28
 2285 001c 0122     		movs	r2, #1
 2286 001e 02FA03F3 		lsl	r3, r2, r3
 2287              		.loc 1 1043 10
 2288 0022 BB81     		strh	r3, [r7, #12]	@ movhi
1044:./Libraries/STM32F10x_StdPeriph_Driver/src/stm32f10x_usart.c ****   USARTx->SR = (uint16_t)~itmask;
 2289              		.loc 1 1044 16
ARM GAS  C:\Users\hao\AppData\Local\Temp\ccUSoOKU.s 			page 59


 2290 0024 BB89     		ldrh	r3, [r7, #12]	@ movhi
 2291 0026 DB43     		mvns	r3, r3
 2292 0028 9AB2     		uxth	r2, r3
 2293              		.loc 1 1044 14
 2294 002a 7B68     		ldr	r3, [r7, #4]
 2295 002c 1A80     		strh	r2, [r3]	@ movhi
1045:./Libraries/STM32F10x_StdPeriph_Driver/src/stm32f10x_usart.c **** }
 2296              		.loc 1 1045 1
 2297 002e 00BF     		nop
 2298 0030 1437     		adds	r7, r7, #20
 2299              	.LCFI169:
 2300              		.cfi_def_cfa_offset 4
 2301 0032 BD46     		mov	sp, r7
 2302              	.LCFI170:
 2303              		.cfi_def_cfa_register 13
 2304              		@ sp needed
 2305 0034 80BC     		pop	{r7}
 2306              	.LCFI171:
 2307              		.cfi_restore 7
 2308              		.cfi_def_cfa_offset 0
 2309 0036 7047     		bx	lr
 2310              		.cfi_endproc
 2311              	.LFE57:
 2313              		.text
 2314              	.Letext0:
 2315              		.file 2 "c:\\gcc-arm-none-eabi\\arm-none-eabi\\include\\machine\\_default_types.h"
 2316              		.file 3 "c:\\gcc-arm-none-eabi\\arm-none-eabi\\include\\sys\\_stdint.h"
 2317              		.file 4 "./Libraries/CMSIS/stm32f10x.h"
 2318              		.file 5 "./Libraries/STM32F10x_StdPeriph_Driver/inc/stm32f10x_rcc.h"
 2319              		.file 6 "./Libraries/STM32F10x_StdPeriph_Driver/inc/stm32f10x_usart.h"
ARM GAS  C:\Users\hao\AppData\Local\Temp\ccUSoOKU.s 			page 60

